ARM GAS  /tmp/ccF0PJf6.s 			page 1


   1              		.cpu cortex-m7
   2              		.eabi_attribute 28, 1
   3              		.eabi_attribute 20, 1
   4              		.eabi_attribute 21, 1
   5              		.eabi_attribute 23, 3
   6              		.eabi_attribute 24, 1
   7              		.eabi_attribute 25, 1
   8              		.eabi_attribute 26, 1
   9              		.eabi_attribute 30, 6
  10              		.eabi_attribute 34, 1
  11              		.eabi_attribute 18, 4
  12              		.file	"app_touchgfx.c"
  13              		.text
  14              	.Ltext0:
  15              		.cfi_sections	.debug_frame
  16              		.section	.text.MX_TouchGFX_Init,"ax",%progbits
  17              		.align	1
  18              		.global	MX_TouchGFX_Init
  19              		.arch armv7e-m
  20              		.syntax unified
  21              		.thumb
  22              		.thumb_func
  23              		.fpu fpv5-d16
  25              	MX_TouchGFX_Init:
  26              	.LFB0:
  27              		.file 1 "./User/Gui/App/Src/app_touchgfx.c"
   1:./User/Gui/App/Src/app_touchgfx.c **** /**
   2:./User/Gui/App/Src/app_touchgfx.c ****   ******************************************************************************
   3:./User/Gui/App/Src/app_touchgfx.c ****   * File Name          : app_touchgfx.c
   4:./User/Gui/App/Src/app_touchgfx.c ****   ******************************************************************************
   5:./User/Gui/App/Src/app_touchgfx.c ****   * @attention
   6:./User/Gui/App/Src/app_touchgfx.c ****   *
   7:./User/Gui/App/Src/app_touchgfx.c ****   * <h2><center>&copy; Copyright (c) 2021 STMicroelectronics.
   8:./User/Gui/App/Src/app_touchgfx.c ****   * All rights reserved.</center></h2>
   9:./User/Gui/App/Src/app_touchgfx.c ****   *
  10:./User/Gui/App/Src/app_touchgfx.c ****   * This software component is licensed by ST under Ultimate Liberty license
  11:./User/Gui/App/Src/app_touchgfx.c ****   * SLA0044, the "License"; You may not use this file except in compliance with
  12:./User/Gui/App/Src/app_touchgfx.c ****   * the License. You may obtain a copy of the License at:
  13:./User/Gui/App/Src/app_touchgfx.c ****   *                             www.st.com/SLA0044
  14:./User/Gui/App/Src/app_touchgfx.c ****   *
  15:./User/Gui/App/Src/app_touchgfx.c ****   ******************************************************************************
  16:./User/Gui/App/Src/app_touchgfx.c ****   */
  17:./User/Gui/App/Src/app_touchgfx.c **** 
  18:./User/Gui/App/Src/app_touchgfx.c **** #include "app_touchgfx.h"
  19:./User/Gui/App/Src/app_touchgfx.c **** 
  20:./User/Gui/App/Src/app_touchgfx.c **** void touchgfx_init(void);
  21:./User/Gui/App/Src/app_touchgfx.c **** void touchgfx_taskEntry(void);
  22:./User/Gui/App/Src/app_touchgfx.c **** 
  23:./User/Gui/App/Src/app_touchgfx.c **** /**
  24:./User/Gui/App/Src/app_touchgfx.c ****  * Initialize TouchGFX application
  25:./User/Gui/App/Src/app_touchgfx.c ****  */
  26:./User/Gui/App/Src/app_touchgfx.c **** void MX_TouchGFX_Init(void)
  27:./User/Gui/App/Src/app_touchgfx.c **** {
  28              		.loc 1 27 1
  29              		.cfi_startproc
  30              		@ args = 0, pretend = 0, frame = 0
  31              		@ frame_needed = 1, uses_anonymous_args = 0
ARM GAS  /tmp/ccF0PJf6.s 			page 2


  32 0000 80B5     		push	{r7, lr}
  33              	.LCFI0:
  34              		.cfi_def_cfa_offset 8
  35              		.cfi_offset 7, -8
  36              		.cfi_offset 14, -4
  37 0002 00AF     		add	r7, sp, #0
  38              	.LCFI1:
  39              		.cfi_def_cfa_register 7
  28:./User/Gui/App/Src/app_touchgfx.c ****   // Calling farward to touchgfx_init in C++ domain
  29:./User/Gui/App/Src/app_touchgfx.c ****   touchgfx_init();
  40              		.loc 1 29 3
  41 0004 FFF7FEFF 		bl	touchgfx_init
  30:./User/Gui/App/Src/app_touchgfx.c **** }
  42              		.loc 1 30 1
  43 0008 00BF     		nop
  44 000a 80BD     		pop	{r7, pc}
  45              		.cfi_endproc
  46              	.LFE0:
  48              		.section	.text.MX_TouchGFX_Process,"ax",%progbits
  49              		.align	1
  50              		.global	MX_TouchGFX_Process
  51              		.syntax unified
  52              		.thumb
  53              		.thumb_func
  54              		.fpu fpv5-d16
  56              	MX_TouchGFX_Process:
  57              	.LFB1:
  31:./User/Gui/App/Src/app_touchgfx.c **** 
  32:./User/Gui/App/Src/app_touchgfx.c **** /**
  33:./User/Gui/App/Src/app_touchgfx.c ****  * TouchGFX application entry function
  34:./User/Gui/App/Src/app_touchgfx.c ****  */
  35:./User/Gui/App/Src/app_touchgfx.c **** void MX_TouchGFX_Process(void)
  36:./User/Gui/App/Src/app_touchgfx.c **** {
  58              		.loc 1 36 1
  59              		.cfi_startproc
  60              		@ args = 0, pretend = 0, frame = 0
  61              		@ frame_needed = 1, uses_anonymous_args = 0
  62 0000 80B5     		push	{r7, lr}
  63              	.LCFI2:
  64              		.cfi_def_cfa_offset 8
  65              		.cfi_offset 7, -8
  66              		.cfi_offset 14, -4
  67 0002 00AF     		add	r7, sp, #0
  68              	.LCFI3:
  69              		.cfi_def_cfa_register 7
  37:./User/Gui/App/Src/app_touchgfx.c ****   // Calling farward to touchgfx_init in C++ domain
  38:./User/Gui/App/Src/app_touchgfx.c ****   touchgfx_taskEntry();
  70              		.loc 1 38 3
  71 0004 FFF7FEFF 		bl	touchgfx_taskEntry
  39:./User/Gui/App/Src/app_touchgfx.c **** }
  72              		.loc 1 39 1
  73 0008 00BF     		nop
  74 000a 80BD     		pop	{r7, pc}
  75              		.cfi_endproc
  76              	.LFE1:
  78              		.section	.text.TouchGFX_Task,"ax",%progbits
  79              		.align	1
ARM GAS  /tmp/ccF0PJf6.s 			page 3


  80              		.global	TouchGFX_Task
  81              		.syntax unified
  82              		.thumb
  83              		.thumb_func
  84              		.fpu fpv5-d16
  86              	TouchGFX_Task:
  87              	.LFB2:
  40:./User/Gui/App/Src/app_touchgfx.c **** 
  41:./User/Gui/App/Src/app_touchgfx.c **** /**
  42:./User/Gui/App/Src/app_touchgfx.c ****  * TouchGFX application thread
  43:./User/Gui/App/Src/app_touchgfx.c ****  */
  44:./User/Gui/App/Src/app_touchgfx.c **** void TouchGFX_Task(void *argument)
  45:./User/Gui/App/Src/app_touchgfx.c **** {
  88              		.loc 1 45 1
  89              		.cfi_startproc
  90              		@ args = 0, pretend = 0, frame = 8
  91              		@ frame_needed = 1, uses_anonymous_args = 0
  92 0000 80B5     		push	{r7, lr}
  93              	.LCFI4:
  94              		.cfi_def_cfa_offset 8
  95              		.cfi_offset 7, -8
  96              		.cfi_offset 14, -4
  97 0002 82B0     		sub	sp, sp, #8
  98              	.LCFI5:
  99              		.cfi_def_cfa_offset 16
 100 0004 00AF     		add	r7, sp, #0
 101              	.LCFI6:
 102              		.cfi_def_cfa_register 7
 103 0006 7860     		str	r0, [r7, #4]
  46:./User/Gui/App/Src/app_touchgfx.c ****   // Calling farward to touchgfx_init in C++ domain
  47:./User/Gui/App/Src/app_touchgfx.c ****   touchgfx_taskEntry();
 104              		.loc 1 47 3
 105 0008 FFF7FEFF 		bl	touchgfx_taskEntry
  48:./User/Gui/App/Src/app_touchgfx.c **** }
 106              		.loc 1 48 1
 107 000c 00BF     		nop
 108 000e 0837     		adds	r7, r7, #8
 109              	.LCFI7:
 110              		.cfi_def_cfa_offset 8
 111 0010 BD46     		mov	sp, r7
 112              	.LCFI8:
 113              		.cfi_def_cfa_register 13
 114              		@ sp needed
 115 0012 80BD     		pop	{r7, pc}
 116              		.cfi_endproc
 117              	.LFE2:
 119              		.text
 120              	.Letext0:
ARM GAS  /tmp/ccF0PJf6.s 			page 4

