ARM GAS  /tmp/ccdklRyK.s 			page 1


   1              		.cpu cortex-m7
   2              		.eabi_attribute 28, 1
   3              		.eabi_attribute 20, 1
   4              		.eabi_attribute 21, 1
   5              		.eabi_attribute 23, 3
   6              		.eabi_attribute 24, 1
   7              		.eabi_attribute 25, 1
   8              		.eabi_attribute 26, 1
   9              		.eabi_attribute 30, 2
  10              		.eabi_attribute 34, 1
  11              		.eabi_attribute 18, 4
  12              		.file	"arm_conv_fast_q31.c"
  13              		.text
  14              	.Ltext0:
  15              		.cfi_sections	.debug_frame
  16              		.section	.text.arm_conv_fast_q31,"ax",%progbits
  17              		.align	1
  18              		.p2align 2,,3
  19              		.global	arm_conv_fast_q31
  20              		.arch armv7e-m
  21              		.syntax unified
  22              		.thumb
  23              		.thumb_func
  24              		.fpu fpv5-d16
  26              	arm_conv_fast_q31:
  27              	.LVL0:
  28              	.LFB145:
  29              		.file 1 "./Libraries/CMSIS/DSP/Source/FilteringFunctions/arm_conv_fast_q31.c"
   1:./Libraries/CMSIS/DSP/Source/FilteringFunctions/arm_conv_fast_q31.c **** /* ----------------------------------------------------------------------
   2:./Libraries/CMSIS/DSP/Source/FilteringFunctions/arm_conv_fast_q31.c ****  * Project:      CMSIS DSP Library
   3:./Libraries/CMSIS/DSP/Source/FilteringFunctions/arm_conv_fast_q31.c ****  * Title:        arm_conv_fast_q31.c
   4:./Libraries/CMSIS/DSP/Source/FilteringFunctions/arm_conv_fast_q31.c ****  * Description:  Fast Q31 Convolution
   5:./Libraries/CMSIS/DSP/Source/FilteringFunctions/arm_conv_fast_q31.c ****  *
   6:./Libraries/CMSIS/DSP/Source/FilteringFunctions/arm_conv_fast_q31.c ****  * $Date:        18. March 2019
   7:./Libraries/CMSIS/DSP/Source/FilteringFunctions/arm_conv_fast_q31.c ****  * $Revision:    V1.6.0
   8:./Libraries/CMSIS/DSP/Source/FilteringFunctions/arm_conv_fast_q31.c ****  *
   9:./Libraries/CMSIS/DSP/Source/FilteringFunctions/arm_conv_fast_q31.c ****  * Target Processor: Cortex-M cores
  10:./Libraries/CMSIS/DSP/Source/FilteringFunctions/arm_conv_fast_q31.c ****  * -------------------------------------------------------------------- */
  11:./Libraries/CMSIS/DSP/Source/FilteringFunctions/arm_conv_fast_q31.c **** /*
  12:./Libraries/CMSIS/DSP/Source/FilteringFunctions/arm_conv_fast_q31.c ****  * Copyright (C) 2010-2019 ARM Limited or its affiliates. All rights reserved.
  13:./Libraries/CMSIS/DSP/Source/FilteringFunctions/arm_conv_fast_q31.c ****  *
  14:./Libraries/CMSIS/DSP/Source/FilteringFunctions/arm_conv_fast_q31.c ****  * SPDX-License-Identifier: Apache-2.0
  15:./Libraries/CMSIS/DSP/Source/FilteringFunctions/arm_conv_fast_q31.c ****  *
  16:./Libraries/CMSIS/DSP/Source/FilteringFunctions/arm_conv_fast_q31.c ****  * Licensed under the Apache License, Version 2.0 (the License); you may
  17:./Libraries/CMSIS/DSP/Source/FilteringFunctions/arm_conv_fast_q31.c ****  * not use this file except in compliance with the License.
  18:./Libraries/CMSIS/DSP/Source/FilteringFunctions/arm_conv_fast_q31.c ****  * You may obtain a copy of the License at
  19:./Libraries/CMSIS/DSP/Source/FilteringFunctions/arm_conv_fast_q31.c ****  *
  20:./Libraries/CMSIS/DSP/Source/FilteringFunctions/arm_conv_fast_q31.c ****  * www.apache.org/licenses/LICENSE-2.0
  21:./Libraries/CMSIS/DSP/Source/FilteringFunctions/arm_conv_fast_q31.c ****  *
  22:./Libraries/CMSIS/DSP/Source/FilteringFunctions/arm_conv_fast_q31.c ****  * Unless required by applicable law or agreed to in writing, software
  23:./Libraries/CMSIS/DSP/Source/FilteringFunctions/arm_conv_fast_q31.c ****  * distributed under the License is distributed on an AS IS BASIS, WITHOUT
  24:./Libraries/CMSIS/DSP/Source/FilteringFunctions/arm_conv_fast_q31.c ****  * WARRANTIES OR CONDITIONS OF ANY KIND, either express or implied.
  25:./Libraries/CMSIS/DSP/Source/FilteringFunctions/arm_conv_fast_q31.c ****  * See the License for the specific language governing permissions and
  26:./Libraries/CMSIS/DSP/Source/FilteringFunctions/arm_conv_fast_q31.c ****  * limitations under the License.
  27:./Libraries/CMSIS/DSP/Source/FilteringFunctions/arm_conv_fast_q31.c ****  */
  28:./Libraries/CMSIS/DSP/Source/FilteringFunctions/arm_conv_fast_q31.c **** 
  29:./Libraries/CMSIS/DSP/Source/FilteringFunctions/arm_conv_fast_q31.c **** #include "arm_math.h"
ARM GAS  /tmp/ccdklRyK.s 			page 2


  30:./Libraries/CMSIS/DSP/Source/FilteringFunctions/arm_conv_fast_q31.c **** 
  31:./Libraries/CMSIS/DSP/Source/FilteringFunctions/arm_conv_fast_q31.c **** /**
  32:./Libraries/CMSIS/DSP/Source/FilteringFunctions/arm_conv_fast_q31.c ****   @ingroup groupFilters
  33:./Libraries/CMSIS/DSP/Source/FilteringFunctions/arm_conv_fast_q31.c ****  */
  34:./Libraries/CMSIS/DSP/Source/FilteringFunctions/arm_conv_fast_q31.c **** 
  35:./Libraries/CMSIS/DSP/Source/FilteringFunctions/arm_conv_fast_q31.c **** /**
  36:./Libraries/CMSIS/DSP/Source/FilteringFunctions/arm_conv_fast_q31.c ****   @addtogroup Conv
  37:./Libraries/CMSIS/DSP/Source/FilteringFunctions/arm_conv_fast_q31.c ****   @{
  38:./Libraries/CMSIS/DSP/Source/FilteringFunctions/arm_conv_fast_q31.c ****  */
  39:./Libraries/CMSIS/DSP/Source/FilteringFunctions/arm_conv_fast_q31.c **** 
  40:./Libraries/CMSIS/DSP/Source/FilteringFunctions/arm_conv_fast_q31.c **** /**
  41:./Libraries/CMSIS/DSP/Source/FilteringFunctions/arm_conv_fast_q31.c ****   @brief         Convolution of Q31 sequences (fast version).
  42:./Libraries/CMSIS/DSP/Source/FilteringFunctions/arm_conv_fast_q31.c ****   @param[in]     pSrcA      points to the first input sequence.
  43:./Libraries/CMSIS/DSP/Source/FilteringFunctions/arm_conv_fast_q31.c ****   @param[in]     srcALen    length of the first input sequence.
  44:./Libraries/CMSIS/DSP/Source/FilteringFunctions/arm_conv_fast_q31.c ****   @param[in]     pSrcB      points to the second input sequence.
  45:./Libraries/CMSIS/DSP/Source/FilteringFunctions/arm_conv_fast_q31.c ****   @param[in]     srcBLen    length of the second input sequence.
  46:./Libraries/CMSIS/DSP/Source/FilteringFunctions/arm_conv_fast_q31.c ****   @param[out]    pDst       points to the location where the output result is written.  Length srcA
  47:./Libraries/CMSIS/DSP/Source/FilteringFunctions/arm_conv_fast_q31.c ****   @return        none
  48:./Libraries/CMSIS/DSP/Source/FilteringFunctions/arm_conv_fast_q31.c **** 
  49:./Libraries/CMSIS/DSP/Source/FilteringFunctions/arm_conv_fast_q31.c ****   @par           Scaling and Overflow Behavior
  50:./Libraries/CMSIS/DSP/Source/FilteringFunctions/arm_conv_fast_q31.c ****                    This function is optimized for speed at the expense of fixed-point precision and
  51:./Libraries/CMSIS/DSP/Source/FilteringFunctions/arm_conv_fast_q31.c ****                    The result of each 1.31 x 1.31 multiplication is truncated to 2.30 format.
  52:./Libraries/CMSIS/DSP/Source/FilteringFunctions/arm_conv_fast_q31.c ****                    These intermediate results are accumulated in a 32-bit register in 2.30 format.
  53:./Libraries/CMSIS/DSP/Source/FilteringFunctions/arm_conv_fast_q31.c ****                    Finally, the accumulator is saturated and converted to a 1.31 result.
  54:./Libraries/CMSIS/DSP/Source/FilteringFunctions/arm_conv_fast_q31.c ****   @par
  55:./Libraries/CMSIS/DSP/Source/FilteringFunctions/arm_conv_fast_q31.c ****                    The fast version has the same overflow behavior as the standard version but prov
  56:./Libraries/CMSIS/DSP/Source/FilteringFunctions/arm_conv_fast_q31.c ****                    In order to avoid overflows completely the input signals must be scaled down.
  57:./Libraries/CMSIS/DSP/Source/FilteringFunctions/arm_conv_fast_q31.c ****                    Scale down the inputs by log2(min(srcALen, srcBLen)) (log2 is read as log to the
  58:./Libraries/CMSIS/DSP/Source/FilteringFunctions/arm_conv_fast_q31.c ****                    as maximum of min(srcALen, srcBLen) number of additions are carried internally.
  59:./Libraries/CMSIS/DSP/Source/FilteringFunctions/arm_conv_fast_q31.c ****   @remark
  60:./Libraries/CMSIS/DSP/Source/FilteringFunctions/arm_conv_fast_q31.c ****                    Refer to \ref arm_conv_q31() for a slower implementation of this function which 
  61:./Libraries/CMSIS/DSP/Source/FilteringFunctions/arm_conv_fast_q31.c ****  */
  62:./Libraries/CMSIS/DSP/Source/FilteringFunctions/arm_conv_fast_q31.c **** 
  63:./Libraries/CMSIS/DSP/Source/FilteringFunctions/arm_conv_fast_q31.c **** void arm_conv_fast_q31(
  64:./Libraries/CMSIS/DSP/Source/FilteringFunctions/arm_conv_fast_q31.c ****   const q31_t * pSrcA,
  65:./Libraries/CMSIS/DSP/Source/FilteringFunctions/arm_conv_fast_q31.c ****         uint32_t srcALen,
  66:./Libraries/CMSIS/DSP/Source/FilteringFunctions/arm_conv_fast_q31.c ****   const q31_t * pSrcB,
  67:./Libraries/CMSIS/DSP/Source/FilteringFunctions/arm_conv_fast_q31.c ****         uint32_t srcBLen,
  68:./Libraries/CMSIS/DSP/Source/FilteringFunctions/arm_conv_fast_q31.c ****         q31_t * pDst)
  69:./Libraries/CMSIS/DSP/Source/FilteringFunctions/arm_conv_fast_q31.c **** {
  30              		.loc 1 69 1 view -0
  31              		.cfi_startproc
  32              		@ args = 4, pretend = 0, frame = 240
  33              		@ frame_needed = 0, uses_anonymous_args = 0
  34              		.loc 1 69 1 is_stmt 0 view .LVU1
  35 0000 2DE9F04F 		push	{r4, r5, r6, r7, r8, r9, r10, fp, lr}
  36              	.LCFI0:
  37              		.cfi_def_cfa_offset 36
  38              		.cfi_offset 4, -36
  39              		.cfi_offset 5, -32
  40              		.cfi_offset 6, -28
  41              		.cfi_offset 7, -24
  42              		.cfi_offset 8, -20
  43              		.cfi_offset 9, -16
  44              		.cfi_offset 10, -12
  45              		.cfi_offset 11, -8
  46              		.cfi_offset 14, -4
ARM GAS  /tmp/ccdklRyK.s 			page 3


  70:./Libraries/CMSIS/DSP/Source/FilteringFunctions/arm_conv_fast_q31.c ****   const q31_t *pIn1;                                   /* InputA pointer */
  71:./Libraries/CMSIS/DSP/Source/FilteringFunctions/arm_conv_fast_q31.c ****   const q31_t *pIn2;                                   /* InputB pointer */
  72:./Libraries/CMSIS/DSP/Source/FilteringFunctions/arm_conv_fast_q31.c ****         q31_t *pOut = pDst;                            /* Output pointer */
  73:./Libraries/CMSIS/DSP/Source/FilteringFunctions/arm_conv_fast_q31.c ****   const q31_t *px;                                     /* Intermediate inputA pointer */
  74:./Libraries/CMSIS/DSP/Source/FilteringFunctions/arm_conv_fast_q31.c ****   const q31_t *py;                                     /* Intermediate inputB pointer */
  75:./Libraries/CMSIS/DSP/Source/FilteringFunctions/arm_conv_fast_q31.c ****   const q31_t *pSrc1, *pSrc2;                          /* Intermediate pointers */
  76:./Libraries/CMSIS/DSP/Source/FilteringFunctions/arm_conv_fast_q31.c ****         q31_t sum, acc0, acc1, acc2, acc3;             /* Accumulators */
  77:./Libraries/CMSIS/DSP/Source/FilteringFunctions/arm_conv_fast_q31.c ****         q31_t x0, x1, x2, x3, c0;                      /* Temporary variables to hold state and coe
  78:./Libraries/CMSIS/DSP/Source/FilteringFunctions/arm_conv_fast_q31.c ****         uint32_t blockSize1, blockSize2, blockSize3;   /* Loop counters */
  79:./Libraries/CMSIS/DSP/Source/FilteringFunctions/arm_conv_fast_q31.c ****         uint32_t j, k, count, blkCnt;                  /* Loop counters */
  80:./Libraries/CMSIS/DSP/Source/FilteringFunctions/arm_conv_fast_q31.c **** 
  81:./Libraries/CMSIS/DSP/Source/FilteringFunctions/arm_conv_fast_q31.c ****   /* The algorithm implementation is based on the lengths of the inputs. */
  82:./Libraries/CMSIS/DSP/Source/FilteringFunctions/arm_conv_fast_q31.c ****   /* srcB is always made to slide across srcA. */
  83:./Libraries/CMSIS/DSP/Source/FilteringFunctions/arm_conv_fast_q31.c ****   /* So srcBLen is always considered as shorter or equal to srcALen */
  84:./Libraries/CMSIS/DSP/Source/FilteringFunctions/arm_conv_fast_q31.c ****   if (srcALen >= srcBLen)
  47              		.loc 1 84 6 view .LVU2
  48 0004 9942     		cmp	r1, r3
  69:./Libraries/CMSIS/DSP/Source/FilteringFunctions/arm_conv_fast_q31.c ****   const q31_t *pIn1;                                   /* InputA pointer */
  49              		.loc 1 69 1 view .LVU3
  50 0006 BDB0     		sub	sp, sp, #244
  51              	.LCFI1:
  52              		.cfi_def_cfa_offset 280
  69:./Libraries/CMSIS/DSP/Source/FilteringFunctions/arm_conv_fast_q31.c ****   const q31_t *pIn1;                                   /* InputA pointer */
  53              		.loc 1 69 1 view .LVU4
  54 0008 2893     		str	r3, [sp, #160]
  70:./Libraries/CMSIS/DSP/Source/FilteringFunctions/arm_conv_fast_q31.c ****   const q31_t *pIn1;                                   /* InputA pointer */
  55              		.loc 1 70 3 is_stmt 1 view .LVU5
  71:./Libraries/CMSIS/DSP/Source/FilteringFunctions/arm_conv_fast_q31.c ****         q31_t *pOut = pDst;                            /* Output pointer */
  56              		.loc 1 71 3 view .LVU6
  72:./Libraries/CMSIS/DSP/Source/FilteringFunctions/arm_conv_fast_q31.c ****   const q31_t *px;                                     /* Intermediate inputA pointer */
  57              		.loc 1 72 9 view .LVU7
  58              	.LVL1:
  73:./Libraries/CMSIS/DSP/Source/FilteringFunctions/arm_conv_fast_q31.c ****   const q31_t *py;                                     /* Intermediate inputB pointer */
  59              		.loc 1 73 3 view .LVU8
  74:./Libraries/CMSIS/DSP/Source/FilteringFunctions/arm_conv_fast_q31.c ****   const q31_t *pSrc1, *pSrc2;                          /* Intermediate pointers */
  60              		.loc 1 74 3 view .LVU9
  75:./Libraries/CMSIS/DSP/Source/FilteringFunctions/arm_conv_fast_q31.c ****         q31_t sum, acc0, acc1, acc2, acc3;             /* Accumulators */
  61              		.loc 1 75 3 view .LVU10
  76:./Libraries/CMSIS/DSP/Source/FilteringFunctions/arm_conv_fast_q31.c ****         q31_t x0, x1, x2, x3, c0;                      /* Temporary variables to hold state and coe
  62              		.loc 1 76 9 view .LVU11
  77:./Libraries/CMSIS/DSP/Source/FilteringFunctions/arm_conv_fast_q31.c ****         uint32_t blockSize1, blockSize2, blockSize3;   /* Loop counters */
  63              		.loc 1 77 9 view .LVU12
  78:./Libraries/CMSIS/DSP/Source/FilteringFunctions/arm_conv_fast_q31.c ****         uint32_t j, k, count, blkCnt;                  /* Loop counters */
  64              		.loc 1 78 9 view .LVU13
  79:./Libraries/CMSIS/DSP/Source/FilteringFunctions/arm_conv_fast_q31.c **** 
  65              		.loc 1 79 9 view .LVU14
  66              		.loc 1 84 3 view .LVU15
  69:./Libraries/CMSIS/DSP/Source/FilteringFunctions/arm_conv_fast_q31.c ****   const q31_t *pIn1;                                   /* InputA pointer */
  67              		.loc 1 69 1 is_stmt 0 view .LVU16
  68 000a 1F90     		str	r0, [sp, #124]
  69 000c 2492     		str	r2, [sp, #144]
  70              		.loc 1 84 6 view .LVU17
  71 000e 05D2     		bcs	.L2
  72 0010 1C46     		mov	r4, r3
  73 0012 0B46     		mov	r3, r1
  74              	.LVL2:
  85:./Libraries/CMSIS/DSP/Source/FilteringFunctions/arm_conv_fast_q31.c ****   {
ARM GAS  /tmp/ccdklRyK.s 			page 4


  86:./Libraries/CMSIS/DSP/Source/FilteringFunctions/arm_conv_fast_q31.c ****     /* Initialization of inputA pointer */
  87:./Libraries/CMSIS/DSP/Source/FilteringFunctions/arm_conv_fast_q31.c ****     pIn1 = pSrcA;
  88:./Libraries/CMSIS/DSP/Source/FilteringFunctions/arm_conv_fast_q31.c **** 
  89:./Libraries/CMSIS/DSP/Source/FilteringFunctions/arm_conv_fast_q31.c ****     /* Initialization of inputB pointer */
  90:./Libraries/CMSIS/DSP/Source/FilteringFunctions/arm_conv_fast_q31.c ****     pIn2 = pSrcB;
  91:./Libraries/CMSIS/DSP/Source/FilteringFunctions/arm_conv_fast_q31.c ****   }
  92:./Libraries/CMSIS/DSP/Source/FilteringFunctions/arm_conv_fast_q31.c ****   else
  93:./Libraries/CMSIS/DSP/Source/FilteringFunctions/arm_conv_fast_q31.c ****   {
  94:./Libraries/CMSIS/DSP/Source/FilteringFunctions/arm_conv_fast_q31.c ****     /* Initialization of inputA pointer */
  95:./Libraries/CMSIS/DSP/Source/FilteringFunctions/arm_conv_fast_q31.c ****     pIn1 = pSrcB;
  75              		.loc 1 95 10 view .LVU18
  76 0014 1F92     		str	r2, [sp, #124]
  84:./Libraries/CMSIS/DSP/Source/FilteringFunctions/arm_conv_fast_q31.c ****   {
  77              		.loc 1 84 6 view .LVU19
  78 0016 2146     		mov	r1, r4
  79              	.LVL3:
  96:./Libraries/CMSIS/DSP/Source/FilteringFunctions/arm_conv_fast_q31.c **** 
  97:./Libraries/CMSIS/DSP/Source/FilteringFunctions/arm_conv_fast_q31.c ****     /* Initialization of inputB pointer */
  98:./Libraries/CMSIS/DSP/Source/FilteringFunctions/arm_conv_fast_q31.c ****     pIn2 = pSrcA;
  80              		.loc 1 98 10 view .LVU20
  81 0018 2490     		str	r0, [sp, #144]
  84:./Libraries/CMSIS/DSP/Source/FilteringFunctions/arm_conv_fast_q31.c ****   {
  82              		.loc 1 84 6 view .LVU21
  83 001a 2893     		str	r3, [sp, #160]
  84              	.LVL4:
  85              	.L2:
  99:./Libraries/CMSIS/DSP/Source/FilteringFunctions/arm_conv_fast_q31.c **** 
 100:./Libraries/CMSIS/DSP/Source/FilteringFunctions/arm_conv_fast_q31.c ****     /* srcBLen is always considered as shorter or equal to srcALen */
 101:./Libraries/CMSIS/DSP/Source/FilteringFunctions/arm_conv_fast_q31.c ****     j = srcBLen;
 102:./Libraries/CMSIS/DSP/Source/FilteringFunctions/arm_conv_fast_q31.c ****     srcBLen = srcALen;
 103:./Libraries/CMSIS/DSP/Source/FilteringFunctions/arm_conv_fast_q31.c ****     srcALen = j;
 104:./Libraries/CMSIS/DSP/Source/FilteringFunctions/arm_conv_fast_q31.c ****   }
 105:./Libraries/CMSIS/DSP/Source/FilteringFunctions/arm_conv_fast_q31.c **** 
 106:./Libraries/CMSIS/DSP/Source/FilteringFunctions/arm_conv_fast_q31.c ****   /* conv(x,y) at n = x[n] * y[0] + x[n-1] * y[1] + x[n-2] * y[2] + ...+ x[n-N+1] * y[N -1] */
 107:./Libraries/CMSIS/DSP/Source/FilteringFunctions/arm_conv_fast_q31.c ****   /* The function is internally
 108:./Libraries/CMSIS/DSP/Source/FilteringFunctions/arm_conv_fast_q31.c ****    * divided into three stages according to the number of multiplications that has to be
 109:./Libraries/CMSIS/DSP/Source/FilteringFunctions/arm_conv_fast_q31.c ****    * taken place between inputA samples and inputB samples. In the first stage of the
 110:./Libraries/CMSIS/DSP/Source/FilteringFunctions/arm_conv_fast_q31.c ****    * algorithm, the multiplications increase by one for every iteration.
 111:./Libraries/CMSIS/DSP/Source/FilteringFunctions/arm_conv_fast_q31.c ****    * In the second stage of the algorithm, srcBLen number of multiplications are done.
 112:./Libraries/CMSIS/DSP/Source/FilteringFunctions/arm_conv_fast_q31.c ****    * In the third stage of the algorithm, the multiplications decrease by one
 113:./Libraries/CMSIS/DSP/Source/FilteringFunctions/arm_conv_fast_q31.c ****    * for every iteration. */
 114:./Libraries/CMSIS/DSP/Source/FilteringFunctions/arm_conv_fast_q31.c **** 
 115:./Libraries/CMSIS/DSP/Source/FilteringFunctions/arm_conv_fast_q31.c ****   /* The algorithm is implemented in three stages.
 116:./Libraries/CMSIS/DSP/Source/FilteringFunctions/arm_conv_fast_q31.c ****      The loop counters of each stage is initiated here. */
 117:./Libraries/CMSIS/DSP/Source/FilteringFunctions/arm_conv_fast_q31.c ****   blockSize1 = srcBLen - 1U;
  86              		.loc 1 117 3 is_stmt 1 view .LVU22
 118:./Libraries/CMSIS/DSP/Source/FilteringFunctions/arm_conv_fast_q31.c ****   blockSize2 = srcALen - (srcBLen - 1U);
  87              		.loc 1 118 3 view .LVU23
  88              		.loc 1 118 14 is_stmt 0 view .LVU24
  89 001c 289B     		ldr	r3, [sp, #160]
  90 001e 0131     		adds	r1, r1, #1
  91              	.LVL5:
  92              		.loc 1 118 14 view .LVU25
  93 0020 CA1A     		subs	r2, r1, r3
  94              	.LVL6:
 119:./Libraries/CMSIS/DSP/Source/FilteringFunctions/arm_conv_fast_q31.c ****   blockSize3 = blockSize1;
 120:./Libraries/CMSIS/DSP/Source/FilteringFunctions/arm_conv_fast_q31.c **** 
ARM GAS  /tmp/ccdklRyK.s 			page 5


 121:./Libraries/CMSIS/DSP/Source/FilteringFunctions/arm_conv_fast_q31.c ****   /* --------------------------
 122:./Libraries/CMSIS/DSP/Source/FilteringFunctions/arm_conv_fast_q31.c ****    * Initializations of stage1
 123:./Libraries/CMSIS/DSP/Source/FilteringFunctions/arm_conv_fast_q31.c ****    * -------------------------*/
 124:./Libraries/CMSIS/DSP/Source/FilteringFunctions/arm_conv_fast_q31.c **** 
 125:./Libraries/CMSIS/DSP/Source/FilteringFunctions/arm_conv_fast_q31.c ****   /* sum = x[0] * y[0]
 126:./Libraries/CMSIS/DSP/Source/FilteringFunctions/arm_conv_fast_q31.c ****    * sum = x[0] * y[1] + x[1] * y[0]
 127:./Libraries/CMSIS/DSP/Source/FilteringFunctions/arm_conv_fast_q31.c ****    * ....
 128:./Libraries/CMSIS/DSP/Source/FilteringFunctions/arm_conv_fast_q31.c ****    * sum = x[0] * y[srcBlen - 1] + x[1] * y[srcBlen - 2] +...+ x[srcBLen - 1] * y[0]
 129:./Libraries/CMSIS/DSP/Source/FilteringFunctions/arm_conv_fast_q31.c ****    */
 130:./Libraries/CMSIS/DSP/Source/FilteringFunctions/arm_conv_fast_q31.c **** 
 131:./Libraries/CMSIS/DSP/Source/FilteringFunctions/arm_conv_fast_q31.c ****   /* In this stage the MAC operations are increased by 1 for every iteration.
 132:./Libraries/CMSIS/DSP/Source/FilteringFunctions/arm_conv_fast_q31.c ****      The count variable holds the number of MAC operations performed */
 133:./Libraries/CMSIS/DSP/Source/FilteringFunctions/arm_conv_fast_q31.c ****   count = 1U;
 134:./Libraries/CMSIS/DSP/Source/FilteringFunctions/arm_conv_fast_q31.c **** 
 135:./Libraries/CMSIS/DSP/Source/FilteringFunctions/arm_conv_fast_q31.c ****   /* Working pointer of inputA */
 136:./Libraries/CMSIS/DSP/Source/FilteringFunctions/arm_conv_fast_q31.c ****   px = pIn1;
 137:./Libraries/CMSIS/DSP/Source/FilteringFunctions/arm_conv_fast_q31.c **** 
 138:./Libraries/CMSIS/DSP/Source/FilteringFunctions/arm_conv_fast_q31.c ****   /* Working pointer of inputB */
 139:./Libraries/CMSIS/DSP/Source/FilteringFunctions/arm_conv_fast_q31.c ****   py = pIn2;
 140:./Libraries/CMSIS/DSP/Source/FilteringFunctions/arm_conv_fast_q31.c **** 
 141:./Libraries/CMSIS/DSP/Source/FilteringFunctions/arm_conv_fast_q31.c **** 
 142:./Libraries/CMSIS/DSP/Source/FilteringFunctions/arm_conv_fast_q31.c ****   /* ------------------------
 143:./Libraries/CMSIS/DSP/Source/FilteringFunctions/arm_conv_fast_q31.c ****    * Stage1 process
 144:./Libraries/CMSIS/DSP/Source/FilteringFunctions/arm_conv_fast_q31.c ****    * ----------------------*/
 145:./Libraries/CMSIS/DSP/Source/FilteringFunctions/arm_conv_fast_q31.c **** 
 146:./Libraries/CMSIS/DSP/Source/FilteringFunctions/arm_conv_fast_q31.c ****   /* The first stage starts here */
 147:./Libraries/CMSIS/DSP/Source/FilteringFunctions/arm_conv_fast_q31.c ****   while (blockSize1 > 0U)
  95              		.loc 1 147 9 view .LVU26
  96 0022 013B     		subs	r3, r3, #1
  97              	.LVL7:
 118:./Libraries/CMSIS/DSP/Source/FilteringFunctions/arm_conv_fast_q31.c ****   blockSize2 = srcALen - (srcBLen - 1U);
  98              		.loc 1 118 14 view .LVU27
  99 0024 3092     		str	r2, [sp, #192]
 100              	.LVL8:
 119:./Libraries/CMSIS/DSP/Source/FilteringFunctions/arm_conv_fast_q31.c ****   blockSize3 = blockSize1;
 101              		.loc 1 119 3 is_stmt 1 view .LVU28
 133:./Libraries/CMSIS/DSP/Source/FilteringFunctions/arm_conv_fast_q31.c **** 
 102              		.loc 1 133 3 view .LVU29
 136:./Libraries/CMSIS/DSP/Source/FilteringFunctions/arm_conv_fast_q31.c **** 
 103              		.loc 1 136 3 view .LVU30
 139:./Libraries/CMSIS/DSP/Source/FilteringFunctions/arm_conv_fast_q31.c **** 
 104              		.loc 1 139 3 view .LVU31
 105              		.loc 1 147 3 view .LVU32
 106              		.loc 1 147 9 view .LVU33
 107 0026 2293     		str	r3, [sp, #136]
 108 0028 00F0BD82 		beq	.L3
 109 002c 2499     		ldr	r1, [sp, #144]
 110              	.LVL9:
 133:./Libraries/CMSIS/DSP/Source/FilteringFunctions/arm_conv_fast_q31.c **** 
 111              		.loc 1 133 9 is_stmt 0 view .LVU34
 112 002e 0125     		movs	r5, #1
  72:./Libraries/CMSIS/DSP/Source/FilteringFunctions/arm_conv_fast_q31.c ****   const q31_t *px;                                     /* Intermediate inputA pointer */
 113              		.loc 1 72 16 view .LVU35
 114 0030 469B     		ldr	r3, [sp, #280]
 148:./Libraries/CMSIS/DSP/Source/FilteringFunctions/arm_conv_fast_q31.c ****   {
 149:./Libraries/CMSIS/DSP/Source/FilteringFunctions/arm_conv_fast_q31.c ****     /* Accumulator is made zero for every iteration */
 150:./Libraries/CMSIS/DSP/Source/FilteringFunctions/arm_conv_fast_q31.c ****     sum = 0;
ARM GAS  /tmp/ccdklRyK.s 			page 6


 115              		.loc 1 150 9 view .LVU36
 116 0032 0024     		movs	r4, #0
 117 0034 01F1040E 		add	lr, r1, #4
 147:./Libraries/CMSIS/DSP/Source/FilteringFunctions/arm_conv_fast_q31.c ****   {
 118              		.loc 1 147 9 view .LVU37
 119 0038 1F9F     		ldr	r7, [sp, #124]
  72:./Libraries/CMSIS/DSP/Source/FilteringFunctions/arm_conv_fast_q31.c ****   const q31_t *px;                                     /* Intermediate inputA pointer */
 120              		.loc 1 72 16 view .LVU38
 121 003a 2393     		str	r3, [sp, #140]
 122 003c CDF870E0 		str	lr, [sp, #112]
 123              	.LVL10:
 124              	.L4:
 151:./Libraries/CMSIS/DSP/Source/FilteringFunctions/arm_conv_fast_q31.c **** 
 152:./Libraries/CMSIS/DSP/Source/FilteringFunctions/arm_conv_fast_q31.c ****     /* Apply loop unrolling and compute 4 MACs simultaneously. */
 153:./Libraries/CMSIS/DSP/Source/FilteringFunctions/arm_conv_fast_q31.c ****     k = count >> 2U;
 154:./Libraries/CMSIS/DSP/Source/FilteringFunctions/arm_conv_fast_q31.c **** 
 155:./Libraries/CMSIS/DSP/Source/FilteringFunctions/arm_conv_fast_q31.c ****     /* First part of the processing with loop unrolling.  Compute 4 MACs at a time.
 156:./Libraries/CMSIS/DSP/Source/FilteringFunctions/arm_conv_fast_q31.c ****      ** a second loop below computes MACs for the remaining 1 to 3 samples. */
 157:./Libraries/CMSIS/DSP/Source/FilteringFunctions/arm_conv_fast_q31.c ****     while (k > 0U)
 158:./Libraries/CMSIS/DSP/Source/FilteringFunctions/arm_conv_fast_q31.c ****     {
 159:./Libraries/CMSIS/DSP/Source/FilteringFunctions/arm_conv_fast_q31.c ****       /* x[0] * y[srcBLen - 1] */
 160:./Libraries/CMSIS/DSP/Source/FilteringFunctions/arm_conv_fast_q31.c ****       sum = (q31_t) ((((q63_t) sum << 32) +
 161:./Libraries/CMSIS/DSP/Source/FilteringFunctions/arm_conv_fast_q31.c ****                       ((q63_t) *px++ * (*py--))) >> 32);
 162:./Libraries/CMSIS/DSP/Source/FilteringFunctions/arm_conv_fast_q31.c **** 
 163:./Libraries/CMSIS/DSP/Source/FilteringFunctions/arm_conv_fast_q31.c ****       /* x[1] * y[srcBLen - 2] */
 164:./Libraries/CMSIS/DSP/Source/FilteringFunctions/arm_conv_fast_q31.c ****       sum = (q31_t) ((((q63_t) sum << 32) +
 165:./Libraries/CMSIS/DSP/Source/FilteringFunctions/arm_conv_fast_q31.c ****                       ((q63_t) *px++ * (*py--))) >> 32);
 166:./Libraries/CMSIS/DSP/Source/FilteringFunctions/arm_conv_fast_q31.c **** 
 167:./Libraries/CMSIS/DSP/Source/FilteringFunctions/arm_conv_fast_q31.c ****       /* x[2] * y[srcBLen - 3] */
 168:./Libraries/CMSIS/DSP/Source/FilteringFunctions/arm_conv_fast_q31.c ****       sum = (q31_t) ((((q63_t) sum << 32) +
 169:./Libraries/CMSIS/DSP/Source/FilteringFunctions/arm_conv_fast_q31.c ****                       ((q63_t) *px++ * (*py--))) >> 32);
 170:./Libraries/CMSIS/DSP/Source/FilteringFunctions/arm_conv_fast_q31.c **** 
 171:./Libraries/CMSIS/DSP/Source/FilteringFunctions/arm_conv_fast_q31.c ****       /* x[3] * y[srcBLen - 4] */
 172:./Libraries/CMSIS/DSP/Source/FilteringFunctions/arm_conv_fast_q31.c ****       sum = (q31_t) ((((q63_t) sum << 32) +
 173:./Libraries/CMSIS/DSP/Source/FilteringFunctions/arm_conv_fast_q31.c ****                       ((q63_t) *px++ * (*py--))) >> 32);
 174:./Libraries/CMSIS/DSP/Source/FilteringFunctions/arm_conv_fast_q31.c **** 
 175:./Libraries/CMSIS/DSP/Source/FilteringFunctions/arm_conv_fast_q31.c ****       /* Decrement loop counter */
 176:./Libraries/CMSIS/DSP/Source/FilteringFunctions/arm_conv_fast_q31.c ****       k--;
 177:./Libraries/CMSIS/DSP/Source/FilteringFunctions/arm_conv_fast_q31.c ****     }
 178:./Libraries/CMSIS/DSP/Source/FilteringFunctions/arm_conv_fast_q31.c **** 
 179:./Libraries/CMSIS/DSP/Source/FilteringFunctions/arm_conv_fast_q31.c ****     /* If the count is not a multiple of 4, compute any remaining MACs here.
 180:./Libraries/CMSIS/DSP/Source/FilteringFunctions/arm_conv_fast_q31.c ****      ** No loop unrolling is used. */
 181:./Libraries/CMSIS/DSP/Source/FilteringFunctions/arm_conv_fast_q31.c ****     k = count % 0x4U;
 125              		.loc 1 181 5 is_stmt 1 view .LVU39
 182:./Libraries/CMSIS/DSP/Source/FilteringFunctions/arm_conv_fast_q31.c **** 
 183:./Libraries/CMSIS/DSP/Source/FilteringFunctions/arm_conv_fast_q31.c ****     while (k > 0U)
 126              		.loc 1 183 5 view .LVU40
 127              		.loc 1 183 11 view .LVU41
 128 0040 15F00300 		ands	r0, r5, #3
 129              	.LVL11:
 130              		.loc 1 183 11 is_stmt 0 view .LVU42
 131 0044 0DD0     		beq	.L7
 132              		.loc 1 183 11 view .LVU43
 133 0046 07EB8000 		add	r0, r7, r0, lsl #2
 134              	.LVL12:
 135              		.loc 1 183 11 view .LVU44
 136 004a 8446     		mov	ip, r0
ARM GAS  /tmp/ccdklRyK.s 			page 7


 137              	.LVL13:
 138              	.L8:
 184:./Libraries/CMSIS/DSP/Source/FilteringFunctions/arm_conv_fast_q31.c ****     {
 185:./Libraries/CMSIS/DSP/Source/FilteringFunctions/arm_conv_fast_q31.c ****       /* Perform the multiply-accumulate */
 186:./Libraries/CMSIS/DSP/Source/FilteringFunctions/arm_conv_fast_q31.c ****       sum = (q31_t) ((((q63_t) sum << 32) +
 139              		.loc 1 186 7 is_stmt 1 view .LVU45
 140              		.loc 1 186 43 is_stmt 0 view .LVU46
 141 004c 57F8040B 		ldr	r0, [r7], #4
 142              	.LVL14:
 143              		.loc 1 186 36 view .LVU47
 144 0050 2346     		mov	r3, r4
 145 0052 0022     		movs	r2, #0
 146              		.loc 1 186 43 view .LVU48
 147 0054 51F80469 		ldr	r6, [r1], #-4
 148              	.LVL15:
 183:./Libraries/CMSIS/DSP/Source/FilteringFunctions/arm_conv_fast_q31.c ****     {
 149              		.loc 1 183 11 view .LVU49
 150 0058 6745     		cmp	r7, ip
 151              		.loc 1 186 43 view .LVU50
 152 005a C6FB0023 		smlal	r2, r3, r6, r0
 153              		.loc 1 186 11 view .LVU51
 154 005e 1C46     		mov	r4, r3
 155              	.LVL16:
 187:./Libraries/CMSIS/DSP/Source/FilteringFunctions/arm_conv_fast_q31.c ****                       ((q63_t) *px++ * (*py--))) >> 32);
 188:./Libraries/CMSIS/DSP/Source/FilteringFunctions/arm_conv_fast_q31.c **** 
 189:./Libraries/CMSIS/DSP/Source/FilteringFunctions/arm_conv_fast_q31.c ****       /* Decrement loop counter */
 190:./Libraries/CMSIS/DSP/Source/FilteringFunctions/arm_conv_fast_q31.c ****       k--;
 156              		.loc 1 190 7 is_stmt 1 view .LVU52
 183:./Libraries/CMSIS/DSP/Source/FilteringFunctions/arm_conv_fast_q31.c ****     {
 157              		.loc 1 183 11 view .LVU53
 158 0060 F4D1     		bne	.L8
 159              	.L7:
 191:./Libraries/CMSIS/DSP/Source/FilteringFunctions/arm_conv_fast_q31.c ****     }
 192:./Libraries/CMSIS/DSP/Source/FilteringFunctions/arm_conv_fast_q31.c **** 
 193:./Libraries/CMSIS/DSP/Source/FilteringFunctions/arm_conv_fast_q31.c ****     /* Store the result in the accumulator in the destination buffer. */
 194:./Libraries/CMSIS/DSP/Source/FilteringFunctions/arm_conv_fast_q31.c ****     *pOut++ = sum << 1;
 160              		.loc 1 194 5 view .LVU54
 161              	.LVL17:
 162              		.loc 1 194 13 is_stmt 0 view .LVU55
 163 0062 239B     		ldr	r3, [sp, #140]
 164              		.loc 1 194 19 view .LVU56
 165 0064 6400     		lsls	r4, r4, #1
 195:./Libraries/CMSIS/DSP/Source/FilteringFunctions/arm_conv_fast_q31.c **** 
 196:./Libraries/CMSIS/DSP/Source/FilteringFunctions/arm_conv_fast_q31.c ****     /* Update the inputA and inputB pointers for next MAC calculation */
 197:./Libraries/CMSIS/DSP/Source/FilteringFunctions/arm_conv_fast_q31.c ****     py = pIn2 + count;
 198:./Libraries/CMSIS/DSP/Source/FilteringFunctions/arm_conv_fast_q31.c ****     px = pIn1;
 199:./Libraries/CMSIS/DSP/Source/FilteringFunctions/arm_conv_fast_q31.c **** 
 200:./Libraries/CMSIS/DSP/Source/FilteringFunctions/arm_conv_fast_q31.c ****     /* Increment MAC count */
 201:./Libraries/CMSIS/DSP/Source/FilteringFunctions/arm_conv_fast_q31.c ****     count++;
 166              		.loc 1 201 10 view .LVU57
 167 0066 05F1010C 		add	ip, r5, #1
 197:./Libraries/CMSIS/DSP/Source/FilteringFunctions/arm_conv_fast_q31.c ****     px = pIn1;
 168              		.loc 1 197 8 view .LVU58
 169 006a 1C99     		ldr	r1, [sp, #112]
 170              	.LVL18:
 194:./Libraries/CMSIS/DSP/Source/FilteringFunctions/arm_conv_fast_q31.c **** 
 171              		.loc 1 194 13 view .LVU59
ARM GAS  /tmp/ccdklRyK.s 			page 8


 172 006c 43F8044B 		str	r4, [r3], #4
 173              	.LVL19:
 194:./Libraries/CMSIS/DSP/Source/FilteringFunctions/arm_conv_fast_q31.c **** 
 174              		.loc 1 194 13 view .LVU60
 175 0070 2393     		str	r3, [sp, #140]
 197:./Libraries/CMSIS/DSP/Source/FilteringFunctions/arm_conv_fast_q31.c ****     px = pIn1;
 176              		.loc 1 197 5 is_stmt 1 view .LVU61
 177              	.LVL20:
 198:./Libraries/CMSIS/DSP/Source/FilteringFunctions/arm_conv_fast_q31.c **** 
 178              		.loc 1 198 5 view .LVU62
 179              		.loc 1 201 5 view .LVU63
 202:./Libraries/CMSIS/DSP/Source/FilteringFunctions/arm_conv_fast_q31.c **** 
 203:./Libraries/CMSIS/DSP/Source/FilteringFunctions/arm_conv_fast_q31.c ****     /* Decrement loop counter */
 204:./Libraries/CMSIS/DSP/Source/FilteringFunctions/arm_conv_fast_q31.c ****     blockSize1--;
 180              		.loc 1 204 5 view .LVU64
 147:./Libraries/CMSIS/DSP/Source/FilteringFunctions/arm_conv_fast_q31.c ****   {
 181              		.loc 1 147 9 view .LVU65
 182 0072 289B     		ldr	r3, [sp, #160]
 183              	.LVL21:
 147:./Libraries/CMSIS/DSP/Source/FilteringFunctions/arm_conv_fast_q31.c ****   {
 184              		.loc 1 147 9 is_stmt 0 view .LVU66
 185 0074 6345     		cmp	r3, ip
 186 0076 41D0     		beq	.L68
 150:./Libraries/CMSIS/DSP/Source/FilteringFunctions/arm_conv_fast_q31.c **** 
 187              		.loc 1 150 5 is_stmt 1 view .LVU67
 188              	.LVL22:
 153:./Libraries/CMSIS/DSP/Source/FilteringFunctions/arm_conv_fast_q31.c **** 
 189              		.loc 1 153 5 view .LVU68
 157:./Libraries/CMSIS/DSP/Source/FilteringFunctions/arm_conv_fast_q31.c ****     {
 190              		.loc 1 157 5 view .LVU69
 157:./Libraries/CMSIS/DSP/Source/FilteringFunctions/arm_conv_fast_q31.c ****     {
 191              		.loc 1 157 11 view .LVU70
 192 0078 5FEA9C07 		lsrs	r7, ip, #2
 193              	.LVL23:
 157:./Libraries/CMSIS/DSP/Source/FilteringFunctions/arm_conv_fast_q31.c ****     {
 194              		.loc 1 157 11 is_stmt 0 view .LVU71
 195 007c 00F09E82 		beq	.L35
 196 0080 1F9B     		ldr	r3, [sp, #124]
 197 0082 3901     		lsls	r1, r7, #4
 198              	.LVL24:
 157:./Libraries/CMSIS/DSP/Source/FilteringFunctions/arm_conv_fast_q31.c ****     {
 199              		.loc 1 157 11 view .LVU72
 200 0084 1C9A     		ldr	r2, [sp, #112]
 150:./Libraries/CMSIS/DSP/Source/FilteringFunctions/arm_conv_fast_q31.c **** 
 201              		.loc 1 150 9 view .LVU73
 202 0086 0024     		movs	r4, #0
 203 0088 1033     		adds	r3, r3, #16
 204 008a BE46     		mov	lr, r7
 205 008c 103A     		subs	r2, r2, #16
 206 008e 2591     		str	r1, [sp, #148]
 207 0090 03EB0716 		add	r6, r3, r7, lsl #4
 208 0094 0296     		str	r6, [sp, #8]
 209              	.LVL25:
 210              	.L6:
 160:./Libraries/CMSIS/DSP/Source/FilteringFunctions/arm_conv_fast_q31.c ****                       ((q63_t) *px++ * (*py--))) >> 32);
 211              		.loc 1 160 7 is_stmt 1 view .LVU74
 164:./Libraries/CMSIS/DSP/Source/FilteringFunctions/arm_conv_fast_q31.c ****                       ((q63_t) *px++ * (*py--))) >> 32);
ARM GAS  /tmp/ccdklRyK.s 			page 9


 212              		.loc 1 164 7 view .LVU75
 168:./Libraries/CMSIS/DSP/Source/FilteringFunctions/arm_conv_fast_q31.c ****                       ((q63_t) *px++ * (*py--))) >> 32);
 213              		.loc 1 168 7 view .LVU76
 172:./Libraries/CMSIS/DSP/Source/FilteringFunctions/arm_conv_fast_q31.c ****                       ((q63_t) *px++ * (*py--))) >> 32);
 214              		.loc 1 172 7 view .LVU77
 160:./Libraries/CMSIS/DSP/Source/FilteringFunctions/arm_conv_fast_q31.c ****                       ((q63_t) *px++ * (*py--))) >> 32);
 215              		.loc 1 160 36 is_stmt 0 view .LVU78
 216 0096 0020     		movs	r0, #0
 160:./Libraries/CMSIS/DSP/Source/FilteringFunctions/arm_conv_fast_q31.c ****                       ((q63_t) *px++ * (*py--))) >> 32);
 217              		.loc 1 160 43 view .LVU79
 218 0098 53F8105C 		ldr	r5, [r3, #-16]
 219 009c 2746     		mov	r7, r4
 220 009e 1469     		ldr	r4, [r2, #16]
 221              	.LVL26:
 160:./Libraries/CMSIS/DSP/Source/FilteringFunctions/arm_conv_fast_q31.c ****                       ((q63_t) *px++ * (*py--))) >> 32);
 222              		.loc 1 160 43 view .LVU80
 223 00a0 0646     		mov	r6, r0
 164:./Libraries/CMSIS/DSP/Source/FilteringFunctions/arm_conv_fast_q31.c ****                       ((q63_t) *px++ * (*py--))) >> 32);
 224              		.loc 1 164 43 view .LVU81
 225 00a2 53F80C1C 		ldr	r1, [r3, #-12]
 168:./Libraries/CMSIS/DSP/Source/FilteringFunctions/arm_conv_fast_q31.c ****                       ((q63_t) *px++ * (*py--))) >> 32);
 226              		.loc 1 168 36 view .LVU82
 227 00a6 0090     		str	r0, [sp]
 164:./Libraries/CMSIS/DSP/Source/FilteringFunctions/arm_conv_fast_q31.c ****                       ((q63_t) *px++ * (*py--))) >> 32);
 228              		.loc 1 164 36 view .LVU83
 229 00a8 8246     		mov	r10, r0
 160:./Libraries/CMSIS/DSP/Source/FilteringFunctions/arm_conv_fast_q31.c ****                       ((q63_t) *px++ * (*py--))) >> 32);
 230              		.loc 1 160 43 view .LVU84
 231 00aa C4FB0567 		smlal	r6, r7, r4, r5
 164:./Libraries/CMSIS/DSP/Source/FilteringFunctions/arm_conv_fast_q31.c ****                       ((q63_t) *px++ * (*py--))) >> 32);
 232              		.loc 1 164 43 view .LVU85
 233 00ae D468     		ldr	r4, [r2, #12]
 234 00b0 0646     		mov	r6, r0
 168:./Libraries/CMSIS/DSP/Source/FilteringFunctions/arm_conv_fast_q31.c ****                       ((q63_t) *px++ * (*py--))) >> 32);
 235              		.loc 1 168 43 view .LVU86
 236 00b2 53F8085C 		ldr	r5, [r3, #-8]
 237 00b6 1033     		adds	r3, r3, #16
 238              	.LVL27:
 172:./Libraries/CMSIS/DSP/Source/FilteringFunctions/arm_conv_fast_q31.c ****                       ((q63_t) *px++ * (*py--))) >> 32);
 239              		.loc 1 172 43 view .LVU87
 240 00b8 5068     		ldr	r0, [r2, #4]
 164:./Libraries/CMSIS/DSP/Source/FilteringFunctions/arm_conv_fast_q31.c ****                       ((q63_t) *px++ * (*py--))) >> 32);
 241              		.loc 1 164 43 view .LVU88
 242 00ba C4FB0167 		smlal	r6, r7, r4, r1
 168:./Libraries/CMSIS/DSP/Source/FilteringFunctions/arm_conv_fast_q31.c ****                       ((q63_t) *px++ * (*py--))) >> 32);
 243              		.loc 1 168 36 view .LVU89
 244 00be 0197     		str	r7, [sp, #4]
 168:./Libraries/CMSIS/DSP/Source/FilteringFunctions/arm_conv_fast_q31.c ****                       ((q63_t) *px++ * (*py--))) >> 32);
 245              		.loc 1 168 43 view .LVU90
 246 00c0 9168     		ldr	r1, [r2, #8]
 247              	.LVL28:
 168:./Libraries/CMSIS/DSP/Source/FilteringFunctions/arm_conv_fast_q31.c ****                       ((q63_t) *px++ * (*py--))) >> 32);
 248              		.loc 1 168 43 view .LVU91
 249 00c2 103A     		subs	r2, r2, #16
 250              	.LVL29:
 172:./Libraries/CMSIS/DSP/Source/FilteringFunctions/arm_conv_fast_q31.c ****                       ((q63_t) *px++ * (*py--))) >> 32);
 251              		.loc 1 172 43 view .LVU92
ARM GAS  /tmp/ccdklRyK.s 			page 10


 252 00c4 53F8144C 		ldr	r4, [r3, #-20]
 253              	.LVL30:
 168:./Libraries/CMSIS/DSP/Source/FilteringFunctions/arm_conv_fast_q31.c ****                       ((q63_t) *px++ * (*py--))) >> 32);
 254              		.loc 1 168 43 view .LVU93
 255 00c8 DDE90067 		ldrd	r6, [sp]
 256 00cc C1FB0567 		smlal	r6, r7, r1, r5
 157:./Libraries/CMSIS/DSP/Source/FilteringFunctions/arm_conv_fast_q31.c ****     {
 257              		.loc 1 157 11 view .LVU94
 258 00d0 0299     		ldr	r1, [sp, #8]
 259              	.LVL31:
 172:./Libraries/CMSIS/DSP/Source/FilteringFunctions/arm_conv_fast_q31.c ****                       ((q63_t) *px++ * (*py--))) >> 32);
 260              		.loc 1 172 43 view .LVU95
 261 00d2 5546     		mov	r5, r10
 262              	.LVL32:
 172:./Libraries/CMSIS/DSP/Source/FilteringFunctions/arm_conv_fast_q31.c ****                       ((q63_t) *px++ * (*py--))) >> 32);
 263              		.loc 1 172 43 view .LVU96
 264 00d4 3E46     		mov	r6, r7
 157:./Libraries/CMSIS/DSP/Source/FilteringFunctions/arm_conv_fast_q31.c ****     {
 265              		.loc 1 157 11 view .LVU97
 266 00d6 9942     		cmp	r1, r3
 172:./Libraries/CMSIS/DSP/Source/FilteringFunctions/arm_conv_fast_q31.c ****                       ((q63_t) *px++ * (*py--))) >> 32);
 267              		.loc 1 172 43 view .LVU98
 268 00d8 C0FB0456 		smlal	r5, r6, r0, r4
 172:./Libraries/CMSIS/DSP/Source/FilteringFunctions/arm_conv_fast_q31.c ****                       ((q63_t) *px++ * (*py--))) >> 32);
 269              		.loc 1 172 11 view .LVU99
 270 00dc 3446     		mov	r4, r6
 271              	.LVL33:
 176:./Libraries/CMSIS/DSP/Source/FilteringFunctions/arm_conv_fast_q31.c ****     }
 272              		.loc 1 176 7 is_stmt 1 view .LVU100
 157:./Libraries/CMSIS/DSP/Source/FilteringFunctions/arm_conv_fast_q31.c ****     {
 273              		.loc 1 157 11 view .LVU101
 274 00de DAD1     		bne	.L6
 275 00e0 259B     		ldr	r3, [sp, #148]
 276              	.LVL34:
 157:./Libraries/CMSIS/DSP/Source/FilteringFunctions/arm_conv_fast_q31.c ****     {
 277              		.loc 1 157 11 is_stmt 0 view .LVU102
 278 00e2 CEEB0E71 		rsb	r1, lr, lr, lsl #28
 279 00e6 1F9A     		ldr	r2, [sp, #124]
 280              	.LVL35:
 157:./Libraries/CMSIS/DSP/Source/FilteringFunctions/arm_conv_fast_q31.c ****     {
 281              		.loc 1 157 11 view .LVU103
 282 00e8 1344     		add	r3, r3, r2
 283 00ea 1F46     		mov	r7, r3
 284 00ec 1C9B     		ldr	r3, [sp, #112]
 285 00ee 03EB0111 		add	r1, r3, r1, lsl #4
 286              	.L5:
 157:./Libraries/CMSIS/DSP/Source/FilteringFunctions/arm_conv_fast_q31.c ****     {
 287              		.loc 1 157 11 view .LVU104
 288 00f2 1C9B     		ldr	r3, [sp, #112]
 150:./Libraries/CMSIS/DSP/Source/FilteringFunctions/arm_conv_fast_q31.c **** 
 289              		.loc 1 150 9 view .LVU105
 290 00f4 6546     		mov	r5, ip
 291 00f6 0433     		adds	r3, r3, #4
 292 00f8 1C93     		str	r3, [sp, #112]
 293 00fa A1E7     		b	.L4
 294              	.LVL36:
 295              	.L68:
ARM GAS  /tmp/ccdklRyK.s 			page 11


 150:./Libraries/CMSIS/DSP/Source/FilteringFunctions/arm_conv_fast_q31.c **** 
 296              		.loc 1 150 9 view .LVU106
 297 00fc 469B     		ldr	r3, [sp, #280]
 298              	.LVL37:
 150:./Libraries/CMSIS/DSP/Source/FilteringFunctions/arm_conv_fast_q31.c **** 
 299              		.loc 1 150 9 view .LVU107
 300 00fe CDF8C4C0 		str	ip, [sp, #196]
 301 0102 03EB8503 		add	r3, r3, r5, lsl #2
 302 0106 4693     		str	r3, [sp, #280]
 303              	.LVL38:
 205:./Libraries/CMSIS/DSP/Source/FilteringFunctions/arm_conv_fast_q31.c ****   }
 206:./Libraries/CMSIS/DSP/Source/FilteringFunctions/arm_conv_fast_q31.c **** 
 207:./Libraries/CMSIS/DSP/Source/FilteringFunctions/arm_conv_fast_q31.c ****   /* --------------------------
 208:./Libraries/CMSIS/DSP/Source/FilteringFunctions/arm_conv_fast_q31.c ****    * Initializations of stage2
 209:./Libraries/CMSIS/DSP/Source/FilteringFunctions/arm_conv_fast_q31.c ****    * ------------------------*/
 210:./Libraries/CMSIS/DSP/Source/FilteringFunctions/arm_conv_fast_q31.c **** 
 211:./Libraries/CMSIS/DSP/Source/FilteringFunctions/arm_conv_fast_q31.c ****   /* sum = x[0] * y[srcBLen-1] + x[1] * y[srcBLen-2] +...+ x[srcBLen-1] * y[0]
 212:./Libraries/CMSIS/DSP/Source/FilteringFunctions/arm_conv_fast_q31.c ****    * sum = x[1] * y[srcBLen-1] + x[2] * y[srcBLen-2] +...+ x[srcBLen] * y[0]
 213:./Libraries/CMSIS/DSP/Source/FilteringFunctions/arm_conv_fast_q31.c ****    * ....
 214:./Libraries/CMSIS/DSP/Source/FilteringFunctions/arm_conv_fast_q31.c ****    * sum = x[srcALen-srcBLen-2] * y[srcBLen-1] + x[srcALen] * y[srcBLen-2] +...+ x[srcALen-1] * y[0
 215:./Libraries/CMSIS/DSP/Source/FilteringFunctions/arm_conv_fast_q31.c ****    */
 216:./Libraries/CMSIS/DSP/Source/FilteringFunctions/arm_conv_fast_q31.c **** 
 217:./Libraries/CMSIS/DSP/Source/FilteringFunctions/arm_conv_fast_q31.c ****   /* Working pointer of inputA */
 218:./Libraries/CMSIS/DSP/Source/FilteringFunctions/arm_conv_fast_q31.c ****   px = pIn1;
 304              		.loc 1 218 3 is_stmt 1 view .LVU108
 219:./Libraries/CMSIS/DSP/Source/FilteringFunctions/arm_conv_fast_q31.c **** 
 220:./Libraries/CMSIS/DSP/Source/FilteringFunctions/arm_conv_fast_q31.c ****   /* Working pointer of inputB */
 221:./Libraries/CMSIS/DSP/Source/FilteringFunctions/arm_conv_fast_q31.c ****   pSrc2 = pIn2 + (srcBLen - 1U);
 305              		.loc 1 221 3 view .LVU109
 306              		.loc 1 221 9 is_stmt 0 view .LVU110
 307 0108 249B     		ldr	r3, [sp, #144]
 308 010a 03EB8503 		add	r3, r3, r5, lsl #2
 309 010e 2493     		str	r3, [sp, #144]
 310              	.LVL39:
 222:./Libraries/CMSIS/DSP/Source/FilteringFunctions/arm_conv_fast_q31.c ****   py = pSrc2;
 311              		.loc 1 222 3 is_stmt 1 view .LVU111
 223:./Libraries/CMSIS/DSP/Source/FilteringFunctions/arm_conv_fast_q31.c **** 
 224:./Libraries/CMSIS/DSP/Source/FilteringFunctions/arm_conv_fast_q31.c ****   /* count is index by which the pointer pIn1 to be incremented */
 225:./Libraries/CMSIS/DSP/Source/FilteringFunctions/arm_conv_fast_q31.c ****   count = 0U;
 312              		.loc 1 225 3 view .LVU112
 226:./Libraries/CMSIS/DSP/Source/FilteringFunctions/arm_conv_fast_q31.c **** 
 227:./Libraries/CMSIS/DSP/Source/FilteringFunctions/arm_conv_fast_q31.c ****   /* -------------------
 228:./Libraries/CMSIS/DSP/Source/FilteringFunctions/arm_conv_fast_q31.c ****    * Stage2 process
 229:./Libraries/CMSIS/DSP/Source/FilteringFunctions/arm_conv_fast_q31.c ****    * ------------------*/
 230:./Libraries/CMSIS/DSP/Source/FilteringFunctions/arm_conv_fast_q31.c **** 
 231:./Libraries/CMSIS/DSP/Source/FilteringFunctions/arm_conv_fast_q31.c ****   /* Stage2 depends on srcBLen as in this stage srcBLen number of MACS are performed.
 232:./Libraries/CMSIS/DSP/Source/FilteringFunctions/arm_conv_fast_q31.c ****    * So, to loop unroll over blockSize2,
 233:./Libraries/CMSIS/DSP/Source/FilteringFunctions/arm_conv_fast_q31.c ****    * srcBLen should be greater than or equal to 4 */
 234:./Libraries/CMSIS/DSP/Source/FilteringFunctions/arm_conv_fast_q31.c ****   if (srcBLen >= 4U)
 313              		.loc 1 234 3 view .LVU113
 314              		.loc 1 234 6 is_stmt 0 view .LVU114
 315 0110 289B     		ldr	r3, [sp, #160]
 316              	.LVL40:
 317              		.loc 1 234 6 view .LVU115
 318 0112 032B     		cmp	r3, #3
 319 0114 40F20B82 		bls	.L69
 235:./Libraries/CMSIS/DSP/Source/FilteringFunctions/arm_conv_fast_q31.c ****   {
ARM GAS  /tmp/ccdklRyK.s 			page 12


 236:./Libraries/CMSIS/DSP/Source/FilteringFunctions/arm_conv_fast_q31.c ****     /* Loop unroll over blockSize2, by 4 */
 237:./Libraries/CMSIS/DSP/Source/FilteringFunctions/arm_conv_fast_q31.c ****     blkCnt = blockSize2 >> 2U;
 320              		.loc 1 237 5 is_stmt 1 view .LVU116
 321              	.LVL41:
 238:./Libraries/CMSIS/DSP/Source/FilteringFunctions/arm_conv_fast_q31.c **** 
 239:./Libraries/CMSIS/DSP/Source/FilteringFunctions/arm_conv_fast_q31.c ****     while (blkCnt > 0U)
 322              		.loc 1 239 5 view .LVU117
 323              		.loc 1 239 11 view .LVU118
 324 0118 309B     		ldr	r3, [sp, #192]
 325 011a 9808     		lsrs	r0, r3, #2
 326              	.LVL42:
 327              		.loc 1 239 11 is_stmt 0 view .LVU119
 328 011c 3290     		str	r0, [sp, #200]
 329 011e 00F03C82 		beq	.L36
 330 0122 319B     		ldr	r3, [sp, #196]
 331 0124 1F9D     		ldr	r5, [sp, #124]
 332 0126 03F00301 		and	r1, r3, #3
 240:./Libraries/CMSIS/DSP/Source/FilteringFunctions/arm_conv_fast_q31.c ****     {
 241:./Libraries/CMSIS/DSP/Source/FilteringFunctions/arm_conv_fast_q31.c ****       /* Set all accumulators to zero */
 242:./Libraries/CMSIS/DSP/Source/FilteringFunctions/arm_conv_fast_q31.c ****       acc0 = 0;
 243:./Libraries/CMSIS/DSP/Source/FilteringFunctions/arm_conv_fast_q31.c ****       acc1 = 0;
 244:./Libraries/CMSIS/DSP/Source/FilteringFunctions/arm_conv_fast_q31.c ****       acc2 = 0;
 245:./Libraries/CMSIS/DSP/Source/FilteringFunctions/arm_conv_fast_q31.c ****       acc3 = 0;
 246:./Libraries/CMSIS/DSP/Source/FilteringFunctions/arm_conv_fast_q31.c **** 
 247:./Libraries/CMSIS/DSP/Source/FilteringFunctions/arm_conv_fast_q31.c ****       /* read x[0], x[1], x[2] samples */
 248:./Libraries/CMSIS/DSP/Source/FilteringFunctions/arm_conv_fast_q31.c ****       x0 = *px++;
 249:./Libraries/CMSIS/DSP/Source/FilteringFunctions/arm_conv_fast_q31.c ****       x1 = *px++;
 250:./Libraries/CMSIS/DSP/Source/FilteringFunctions/arm_conv_fast_q31.c ****       x2 = *px++;
 251:./Libraries/CMSIS/DSP/Source/FilteringFunctions/arm_conv_fast_q31.c **** 
 252:./Libraries/CMSIS/DSP/Source/FilteringFunctions/arm_conv_fast_q31.c ****       /* Apply loop unrolling and compute 4 MACs simultaneously. */
 253:./Libraries/CMSIS/DSP/Source/FilteringFunctions/arm_conv_fast_q31.c ****       k = srcBLen >> 2U;
 333              		.loc 1 253 9 view .LVU120
 334 012a 9C08     		lsrs	r4, r3, #2
 335 012c 23F00302 		bic	r2, r3, #3
 336 0130 469B     		ldr	r3, [sp, #280]
 337 0132 2E91     		str	r1, [sp, #184]
 338 0134 2E46     		mov	r6, r5
 339 0136 1033     		adds	r3, r3, #16
 340 0138 2C94     		str	r4, [sp, #176]
 341 013a 0C36     		adds	r6, r6, #12
 342 013c 2993     		str	r3, [sp, #164]
 343 013e CB1C     		adds	r3, r1, #3
 344 0140 4699     		ldr	r1, [sp, #280]
 345 0142 1344     		add	r3, r3, r2
 346 0144 2201     		lsls	r2, r4, #4
 347 0146 01EB0011 		add	r1, r1, r0, lsl #4
 348 014a 2596     		str	r6, [sp, #148]
 349 014c 05EB8303 		add	r3, r5, r3, lsl #2
 350 0150 2D92     		str	r2, [sp, #180]
 351 0152 2B91     		str	r1, [sp, #172]
 352 0154 C4EB0471 		rsb	r1, r4, r4, lsl #28
 353 0158 249A     		ldr	r2, [sp, #144]
 354 015a 2893     		str	r3, [sp, #160]
 355              	.LVL43:
 356              		.loc 1 253 9 view .LVU121
 357 015c 0301     		lsls	r3, r0, #4
 358 015e 02EB0111 		add	r1, r2, r1, lsl #4
ARM GAS  /tmp/ccdklRyK.s 			page 13


 359 0162 103A     		subs	r2, r2, #16
 360 0164 3393     		str	r3, [sp, #204]
 361 0166 2F91     		str	r1, [sp, #188]
 362 0168 2A92     		str	r2, [sp, #168]
 363              	.LVL44:
 364              	.L18:
 242:./Libraries/CMSIS/DSP/Source/FilteringFunctions/arm_conv_fast_q31.c ****       acc1 = 0;
 365              		.loc 1 242 7 is_stmt 1 view .LVU122
 243:./Libraries/CMSIS/DSP/Source/FilteringFunctions/arm_conv_fast_q31.c ****       acc2 = 0;
 366              		.loc 1 243 7 view .LVU123
 244:./Libraries/CMSIS/DSP/Source/FilteringFunctions/arm_conv_fast_q31.c ****       acc3 = 0;
 367              		.loc 1 244 7 view .LVU124
 245:./Libraries/CMSIS/DSP/Source/FilteringFunctions/arm_conv_fast_q31.c **** 
 368              		.loc 1 245 7 view .LVU125
 248:./Libraries/CMSIS/DSP/Source/FilteringFunctions/arm_conv_fast_q31.c ****       x1 = *px++;
 369              		.loc 1 248 7 view .LVU126
 248:./Libraries/CMSIS/DSP/Source/FilteringFunctions/arm_conv_fast_q31.c ****       x1 = *px++;
 370              		.loc 1 248 10 is_stmt 0 view .LVU127
 371 016a 259B     		ldr	r3, [sp, #148]
 245:./Libraries/CMSIS/DSP/Source/FilteringFunctions/arm_conv_fast_q31.c **** 
 372              		.loc 1 245 12 view .LVU128
 373 016c 0020     		movs	r0, #0
 374 016e 2A99     		ldr	r1, [sp, #168]
 248:./Libraries/CMSIS/DSP/Source/FilteringFunctions/arm_conv_fast_q31.c ****       x1 = *px++;
 375              		.loc 1 248 10 view .LVU129
 376 0170 1A46     		mov	r2, r3
 245:./Libraries/CMSIS/DSP/Source/FilteringFunctions/arm_conv_fast_q31.c **** 
 377              		.loc 1 245 12 view .LVU130
 378 0172 0746     		mov	r7, r0
 243:./Libraries/CMSIS/DSP/Source/FilteringFunctions/arm_conv_fast_q31.c ****       acc2 = 0;
 379              		.loc 1 243 12 view .LVU131
 380 0174 0646     		mov	r6, r0
 245:./Libraries/CMSIS/DSP/Source/FilteringFunctions/arm_conv_fast_q31.c **** 
 381              		.loc 1 245 12 view .LVU132
 382 0176 1C90     		str	r0, [sp, #112]
 244:./Libraries/CMSIS/DSP/Source/FilteringFunctions/arm_conv_fast_q31.c ****       acc3 = 0;
 383              		.loc 1 244 12 view .LVU133
 384 0178 0290     		str	r0, [sp, #8]
 249:./Libraries/CMSIS/DSP/Source/FilteringFunctions/arm_conv_fast_q31.c ****       x2 = *px++;
 385              		.loc 1 249 10 view .LVU134
 386 017a 53E9034A 		ldrd	r4, r10, [r3, #-12]
 387              	.LVL45:
 250:./Libraries/CMSIS/DSP/Source/FilteringFunctions/arm_conv_fast_q31.c **** 
 388              		.loc 1 250 7 is_stmt 1 view .LVU135
 250:./Libraries/CMSIS/DSP/Source/FilteringFunctions/arm_conv_fast_q31.c **** 
 389              		.loc 1 250 15 is_stmt 0 view .LVU136
 390 017e 53E901BC 		ldrd	fp, ip, [r3, #-4]
 391              		.loc 1 253 9 view .LVU137
 392 0182 2C9B     		ldr	r3, [sp, #176]
 393 0184 5046     		mov	r0, r10
 394 0186 6546     		mov	r5, ip
 395 0188 A446     		mov	ip, r4
 396 018a 9A46     		mov	r10, r3
 397              	.LVL46:
 398              		.loc 1 253 9 view .LVU138
 399 018c 5C46     		mov	r4, fp
 400 018e 9346     		mov	fp, r2
ARM GAS  /tmp/ccdklRyK.s 			page 14


 401 0190 01E0     		b	.L15
 402              	.LVL47:
 403              	.L70:
 254:./Libraries/CMSIS/DSP/Source/FilteringFunctions/arm_conv_fast_q31.c **** 
 255:./Libraries/CMSIS/DSP/Source/FilteringFunctions/arm_conv_fast_q31.c ****       /* First part of the processing with loop unrolling.  Compute 4 MACs at a time.
 256:./Libraries/CMSIS/DSP/Source/FilteringFunctions/arm_conv_fast_q31.c ****        ** a second loop below computes MACs for the remaining 1 to 3 samples. */
 257:./Libraries/CMSIS/DSP/Source/FilteringFunctions/arm_conv_fast_q31.c ****       do
 258:./Libraries/CMSIS/DSP/Source/FilteringFunctions/arm_conv_fast_q31.c ****       {
 259:./Libraries/CMSIS/DSP/Source/FilteringFunctions/arm_conv_fast_q31.c ****         /* Read y[srcBLen - 1] sample */
 260:./Libraries/CMSIS/DSP/Source/FilteringFunctions/arm_conv_fast_q31.c ****         c0 = *py--;
 261:./Libraries/CMSIS/DSP/Source/FilteringFunctions/arm_conv_fast_q31.c ****         /* Read x[3] sample */
 262:./Libraries/CMSIS/DSP/Source/FilteringFunctions/arm_conv_fast_q31.c ****         x3 = *px++;
 263:./Libraries/CMSIS/DSP/Source/FilteringFunctions/arm_conv_fast_q31.c **** 
 264:./Libraries/CMSIS/DSP/Source/FilteringFunctions/arm_conv_fast_q31.c ****         /* Perform the multiply-accumulate */
 265:./Libraries/CMSIS/DSP/Source/FilteringFunctions/arm_conv_fast_q31.c ****         /* acc0 +=  x[0] * y[srcBLen - 1] */
 266:./Libraries/CMSIS/DSP/Source/FilteringFunctions/arm_conv_fast_q31.c ****         acc0 = (q31_t) ((((q63_t) acc0 << 32) + ((q63_t) x0 * c0)) >> 32);
 267:./Libraries/CMSIS/DSP/Source/FilteringFunctions/arm_conv_fast_q31.c ****         /* acc1 +=  x[1] * y[srcBLen - 1] */
 268:./Libraries/CMSIS/DSP/Source/FilteringFunctions/arm_conv_fast_q31.c ****         acc1 = (q31_t) ((((q63_t) acc1 << 32) + ((q63_t) x1 * c0)) >> 32);
 269:./Libraries/CMSIS/DSP/Source/FilteringFunctions/arm_conv_fast_q31.c ****         /* acc2 +=  x[2] * y[srcBLen - 1] */
 270:./Libraries/CMSIS/DSP/Source/FilteringFunctions/arm_conv_fast_q31.c ****         acc2 = (q31_t) ((((q63_t) acc2 << 32) + ((q63_t) x2 * c0)) >> 32);
 271:./Libraries/CMSIS/DSP/Source/FilteringFunctions/arm_conv_fast_q31.c ****         /* acc3 +=  x[3] * y[srcBLen - 1] */
 272:./Libraries/CMSIS/DSP/Source/FilteringFunctions/arm_conv_fast_q31.c ****         acc3 = (q31_t) ((((q63_t) acc3 << 32) + ((q63_t) x3 * c0)) >> 32);
 273:./Libraries/CMSIS/DSP/Source/FilteringFunctions/arm_conv_fast_q31.c **** 
 274:./Libraries/CMSIS/DSP/Source/FilteringFunctions/arm_conv_fast_q31.c **** 
 275:./Libraries/CMSIS/DSP/Source/FilteringFunctions/arm_conv_fast_q31.c ****         /* Read y[srcBLen - 2] sample */
 276:./Libraries/CMSIS/DSP/Source/FilteringFunctions/arm_conv_fast_q31.c ****         c0 = *py--;
 277:./Libraries/CMSIS/DSP/Source/FilteringFunctions/arm_conv_fast_q31.c ****         /* Read x[4] sample */
 278:./Libraries/CMSIS/DSP/Source/FilteringFunctions/arm_conv_fast_q31.c ****         x0 = *px++;
 279:./Libraries/CMSIS/DSP/Source/FilteringFunctions/arm_conv_fast_q31.c **** 
 280:./Libraries/CMSIS/DSP/Source/FilteringFunctions/arm_conv_fast_q31.c ****         /* Perform the multiply-accumulate */
 281:./Libraries/CMSIS/DSP/Source/FilteringFunctions/arm_conv_fast_q31.c ****         /* acc0 +=  x[1] * y[srcBLen - 2] */
 282:./Libraries/CMSIS/DSP/Source/FilteringFunctions/arm_conv_fast_q31.c ****         acc0 = (q31_t) ((((q63_t) acc0 << 32) + ((q63_t) x1 * c0)) >> 32);
 283:./Libraries/CMSIS/DSP/Source/FilteringFunctions/arm_conv_fast_q31.c ****         /* acc1 +=  x[2] * y[srcBLen - 2] */
 284:./Libraries/CMSIS/DSP/Source/FilteringFunctions/arm_conv_fast_q31.c ****         acc1 = (q31_t) ((((q63_t) acc1 << 32) + ((q63_t) x2 * c0)) >> 32);
 285:./Libraries/CMSIS/DSP/Source/FilteringFunctions/arm_conv_fast_q31.c ****         /* acc2 +=  x[3] * y[srcBLen - 2] */
 286:./Libraries/CMSIS/DSP/Source/FilteringFunctions/arm_conv_fast_q31.c ****         acc2 = (q31_t) ((((q63_t) acc2 << 32) + ((q63_t) x3 * c0)) >> 32);
 287:./Libraries/CMSIS/DSP/Source/FilteringFunctions/arm_conv_fast_q31.c ****         /* acc3 +=  x[4] * y[srcBLen - 2] */
 288:./Libraries/CMSIS/DSP/Source/FilteringFunctions/arm_conv_fast_q31.c ****         acc3 = (q31_t) ((((q63_t) acc3 << 32) + ((q63_t) x0 * c0)) >> 32);
 289:./Libraries/CMSIS/DSP/Source/FilteringFunctions/arm_conv_fast_q31.c **** 
 290:./Libraries/CMSIS/DSP/Source/FilteringFunctions/arm_conv_fast_q31.c **** 
 291:./Libraries/CMSIS/DSP/Source/FilteringFunctions/arm_conv_fast_q31.c ****         /* Read y[srcBLen - 3] sample */
 292:./Libraries/CMSIS/DSP/Source/FilteringFunctions/arm_conv_fast_q31.c ****         c0 = *py--;
 293:./Libraries/CMSIS/DSP/Source/FilteringFunctions/arm_conv_fast_q31.c ****         /* Read x[5] sample */
 294:./Libraries/CMSIS/DSP/Source/FilteringFunctions/arm_conv_fast_q31.c ****         x1 = *px++;
 295:./Libraries/CMSIS/DSP/Source/FilteringFunctions/arm_conv_fast_q31.c **** 
 296:./Libraries/CMSIS/DSP/Source/FilteringFunctions/arm_conv_fast_q31.c ****         /* Perform the multiply-accumulates */
 297:./Libraries/CMSIS/DSP/Source/FilteringFunctions/arm_conv_fast_q31.c ****         /* acc0 +=  x[2] * y[srcBLen - 3] */
 298:./Libraries/CMSIS/DSP/Source/FilteringFunctions/arm_conv_fast_q31.c ****         acc0 = (q31_t) ((((q63_t) acc0 << 32) + ((q63_t) x2 * c0)) >> 32);
 299:./Libraries/CMSIS/DSP/Source/FilteringFunctions/arm_conv_fast_q31.c ****         /* acc1 +=  x[3] * y[srcBLen - 3] */
 300:./Libraries/CMSIS/DSP/Source/FilteringFunctions/arm_conv_fast_q31.c ****         acc1 = (q31_t) ((((q63_t) acc1 << 32) + ((q63_t) x3 * c0)) >> 32);
 301:./Libraries/CMSIS/DSP/Source/FilteringFunctions/arm_conv_fast_q31.c ****         /* acc2 +=  x[4] * y[srcBLen - 3] */
 302:./Libraries/CMSIS/DSP/Source/FilteringFunctions/arm_conv_fast_q31.c ****         acc2 = (q31_t) ((((q63_t) acc2 << 32) + ((q63_t) x0 * c0)) >> 32);
 303:./Libraries/CMSIS/DSP/Source/FilteringFunctions/arm_conv_fast_q31.c ****         /* acc3 +=  x[5] * y[srcBLen - 3] */
 304:./Libraries/CMSIS/DSP/Source/FilteringFunctions/arm_conv_fast_q31.c ****         acc3 = (q31_t) ((((q63_t) acc3 << 32) + ((q63_t) x1 * c0)) >> 32);
 305:./Libraries/CMSIS/DSP/Source/FilteringFunctions/arm_conv_fast_q31.c **** 
 306:./Libraries/CMSIS/DSP/Source/FilteringFunctions/arm_conv_fast_q31.c **** 
 307:./Libraries/CMSIS/DSP/Source/FilteringFunctions/arm_conv_fast_q31.c ****         /* Read y[srcBLen - 4] sample */
ARM GAS  /tmp/ccdklRyK.s 			page 15


 308:./Libraries/CMSIS/DSP/Source/FilteringFunctions/arm_conv_fast_q31.c ****         c0 = *py--;
 309:./Libraries/CMSIS/DSP/Source/FilteringFunctions/arm_conv_fast_q31.c ****         /* Read x[6] sample */
 310:./Libraries/CMSIS/DSP/Source/FilteringFunctions/arm_conv_fast_q31.c ****         x2 = *px++;
 404              		.loc 1 310 17 view .LVU139
 405 0192 5BF8105F 		ldr	r5, [fp, #16]!
 406              	.LVL48:
 407              	.L15:
 257:./Libraries/CMSIS/DSP/Source/FilteringFunctions/arm_conv_fast_q31.c ****       {
 408              		.loc 1 257 7 is_stmt 1 discriminator 1 view .LVU140
 260:./Libraries/CMSIS/DSP/Source/FilteringFunctions/arm_conv_fast_q31.c ****         /* Read x[3] sample */
 409              		.loc 1 260 9 discriminator 1 view .LVU141
 268:./Libraries/CMSIS/DSP/Source/FilteringFunctions/arm_conv_fast_q31.c ****         /* acc2 +=  x[2] * y[srcBLen - 1] */
 410              		.loc 1 268 40 is_stmt 0 discriminator 1 view .LVU142
 411 0196 B146     		mov	r9, r6
 270:./Libraries/CMSIS/DSP/Source/FilteringFunctions/arm_conv_fast_q31.c ****         /* acc3 +=  x[3] * y[srcBLen - 1] */
 412              		.loc 1 270 40 discriminator 1 view .LVU143
 413 0198 029E     		ldr	r6, [sp, #8]
 414              	.LVL49:
 266:./Libraries/CMSIS/DSP/Source/FilteringFunctions/arm_conv_fast_q31.c ****         /* acc1 +=  x[1] * y[srcBLen - 1] */
 415              		.loc 1 266 40 discriminator 1 view .LVU144
 416 019a 0022     		movs	r2, #0
 260:./Libraries/CMSIS/DSP/Source/FilteringFunctions/arm_conv_fast_q31.c ****         /* Read x[3] sample */
 417              		.loc 1 260 12 discriminator 1 view .LVU145
 418 019c D1F810E0 		ldr	lr, [r1, #16]
 419              	.LVL50:
 262:./Libraries/CMSIS/DSP/Source/FilteringFunctions/arm_conv_fast_q31.c **** 
 420              		.loc 1 262 9 is_stmt 1 discriminator 1 view .LVU146
 266:./Libraries/CMSIS/DSP/Source/FilteringFunctions/arm_conv_fast_q31.c ****         /* acc1 +=  x[1] * y[srcBLen - 1] */
 421              		.loc 1 266 9 discriminator 1 view .LVU147
 270:./Libraries/CMSIS/DSP/Source/FilteringFunctions/arm_conv_fast_q31.c ****         /* acc3 +=  x[3] * y[srcBLen - 1] */
 422              		.loc 1 270 40 is_stmt 0 discriminator 1 view .LVU148
 423 01a0 0196     		str	r6, [sp, #4]
 266:./Libraries/CMSIS/DSP/Source/FilteringFunctions/arm_conv_fast_q31.c ****         /* acc1 +=  x[1] * y[srcBLen - 1] */
 424              		.loc 1 266 40 discriminator 1 view .LVU149
 425 01a2 3B46     		mov	r3, r7
 272:./Libraries/CMSIS/DSP/Source/FilteringFunctions/arm_conv_fast_q31.c **** 
 426              		.loc 1 272 40 discriminator 1 view .LVU150
 427 01a4 1C9E     		ldr	r6, [sp, #112]
 268:./Libraries/CMSIS/DSP/Source/FilteringFunctions/arm_conv_fast_q31.c ****         /* acc2 +=  x[2] * y[srcBLen - 1] */
 428              		.loc 1 268 40 discriminator 1 view .LVU151
 429 01a6 9046     		mov	r8, r2
 270:./Libraries/CMSIS/DSP/Source/FilteringFunctions/arm_conv_fast_q31.c ****         /* acc3 +=  x[3] * y[srcBLen - 1] */
 430              		.loc 1 270 40 discriminator 1 view .LVU152
 431 01a8 0092     		str	r2, [sp]
 311:./Libraries/CMSIS/DSP/Source/FilteringFunctions/arm_conv_fast_q31.c **** 
 312:./Libraries/CMSIS/DSP/Source/FilteringFunctions/arm_conv_fast_q31.c ****         /* Perform the multiply-accumulates */
 313:./Libraries/CMSIS/DSP/Source/FilteringFunctions/arm_conv_fast_q31.c ****         /* acc0 +=  x[3] * y[srcBLen - 4] */
 314:./Libraries/CMSIS/DSP/Source/FilteringFunctions/arm_conv_fast_q31.c ****         acc0 = (q31_t) ((((q63_t) acc0 << 32) + ((q63_t) x3 * c0)) >> 32);
 315:./Libraries/CMSIS/DSP/Source/FilteringFunctions/arm_conv_fast_q31.c ****         /* acc1 +=  x[4] * y[srcBLen - 4] */
 316:./Libraries/CMSIS/DSP/Source/FilteringFunctions/arm_conv_fast_q31.c ****         acc1 = (q31_t) ((((q63_t) acc1 << 32) + ((q63_t) x0 * c0)) >> 32);
 317:./Libraries/CMSIS/DSP/Source/FilteringFunctions/arm_conv_fast_q31.c ****         /* acc2 +=  x[5] * y[srcBLen - 4] */
 318:./Libraries/CMSIS/DSP/Source/FilteringFunctions/arm_conv_fast_q31.c ****         acc2 = (q31_t) ((((q63_t) acc2 << 32) + ((q63_t) x1 * c0)) >> 32);
 319:./Libraries/CMSIS/DSP/Source/FilteringFunctions/arm_conv_fast_q31.c ****         /* acc3 +=  x[6] * y[srcBLen - 4] */
 320:./Libraries/CMSIS/DSP/Source/FilteringFunctions/arm_conv_fast_q31.c ****         acc3 = (q31_t) ((((q63_t) acc3 << 32) + ((q63_t) x2 * c0)) >> 32);
 321:./Libraries/CMSIS/DSP/Source/FilteringFunctions/arm_conv_fast_q31.c **** 
 322:./Libraries/CMSIS/DSP/Source/FilteringFunctions/arm_conv_fast_q31.c **** 
 323:./Libraries/CMSIS/DSP/Source/FilteringFunctions/arm_conv_fast_q31.c ****       } while (--k);
ARM GAS  /tmp/ccdklRyK.s 			page 16


 432              		.loc 1 323 7 discriminator 1 view .LVU153
 433 01aa BAF1010A 		subs	r10, r10, #1
 434              	.LVL51:
 272:./Libraries/CMSIS/DSP/Source/FilteringFunctions/arm_conv_fast_q31.c **** 
 435              		.loc 1 272 40 discriminator 1 view .LVU154
 436 01ae 0396     		str	r6, [sp, #12]
 268:./Libraries/CMSIS/DSP/Source/FilteringFunctions/arm_conv_fast_q31.c ****         /* acc2 +=  x[2] * y[srcBLen - 1] */
 437              		.loc 1 268 47 discriminator 1 view .LVU155
 438 01b0 C0FB0E89 		smlal	r8, r9, r0, lr
 272:./Libraries/CMSIS/DSP/Source/FilteringFunctions/arm_conv_fast_q31.c **** 
 439              		.loc 1 272 40 discriminator 1 view .LVU156
 440 01b4 0292     		str	r2, [sp, #8]
 441              	.LVL52:
 266:./Libraries/CMSIS/DSP/Source/FilteringFunctions/arm_conv_fast_q31.c ****         /* acc1 +=  x[1] * y[srcBLen - 1] */
 442              		.loc 1 266 47 discriminator 1 view .LVU157
 443 01b6 9046     		mov	r8, r2
 284:./Libraries/CMSIS/DSP/Source/FilteringFunctions/arm_conv_fast_q31.c ****         /* acc2 +=  x[3] * y[srcBLen - 2] */
 444              		.loc 1 284 40 discriminator 1 view .LVU158
 445 01b8 CDF81C90 		str	r9, [sp, #28]
 266:./Libraries/CMSIS/DSP/Source/FilteringFunctions/arm_conv_fast_q31.c ****         /* acc1 +=  x[1] * y[srcBLen - 1] */
 446              		.loc 1 266 47 discriminator 1 view .LVU159
 447 01bc 9946     		mov	r9, r3
 448              	.LVL53:
 282:./Libraries/CMSIS/DSP/Source/FilteringFunctions/arm_conv_fast_q31.c ****         /* acc1 +=  x[2] * y[srcBLen - 2] */
 449              		.loc 1 282 40 discriminator 1 view .LVU160
 450 01be 0492     		str	r2, [sp, #16]
 451 01c0 A1F11001 		sub	r1, r1, #16
 452              	.LVL54:
 266:./Libraries/CMSIS/DSP/Source/FilteringFunctions/arm_conv_fast_q31.c ****         /* acc1 +=  x[1] * y[srcBLen - 1] */
 453              		.loc 1 266 47 discriminator 1 view .LVU161
 454 01c4 CEFB0C89 		smlal	r8, r9, lr, ip
 286:./Libraries/CMSIS/DSP/Source/FilteringFunctions/arm_conv_fast_q31.c ****         /* acc3 +=  x[4] * y[srcBLen - 2] */
 455              		.loc 1 286 40 discriminator 1 view .LVU162
 456 01c8 0A92     		str	r2, [sp, #40]
 282:./Libraries/CMSIS/DSP/Source/FilteringFunctions/arm_conv_fast_q31.c ****         /* acc1 +=  x[2] * y[srcBLen - 2] */
 457              		.loc 1 282 40 discriminator 1 view .LVU163
 458 01ca CDF81490 		str	r9, [sp, #20]
 284:./Libraries/CMSIS/DSP/Source/FilteringFunctions/arm_conv_fast_q31.c ****         /* acc2 +=  x[3] * y[srcBLen - 2] */
 459              		.loc 1 284 40 discriminator 1 view .LVU164
 460 01ce 0692     		str	r2, [sp, #24]
 461              	.LVL55:
 268:./Libraries/CMSIS/DSP/Source/FilteringFunctions/arm_conv_fast_q31.c ****         /* acc2 +=  x[2] * y[srcBLen - 1] */
 462              		.loc 1 268 9 is_stmt 1 discriminator 1 view .LVU165
 270:./Libraries/CMSIS/DSP/Source/FilteringFunctions/arm_conv_fast_q31.c ****         /* acc3 +=  x[3] * y[srcBLen - 1] */
 463              		.loc 1 270 9 discriminator 1 view .LVU166
 272:./Libraries/CMSIS/DSP/Source/FilteringFunctions/arm_conv_fast_q31.c **** 
 464              		.loc 1 272 9 discriminator 1 view .LVU167
 276:./Libraries/CMSIS/DSP/Source/FilteringFunctions/arm_conv_fast_q31.c ****         /* Read x[4] sample */
 465              		.loc 1 276 9 discriminator 1 view .LVU168
 288:./Libraries/CMSIS/DSP/Source/FilteringFunctions/arm_conv_fast_q31.c **** 
 466              		.loc 1 288 40 is_stmt 0 discriminator 1 view .LVU169
 467 01d0 1692     		str	r2, [sp, #88]
 298:./Libraries/CMSIS/DSP/Source/FilteringFunctions/arm_conv_fast_q31.c ****         /* acc1 +=  x[3] * y[srcBLen - 3] */
 468              		.loc 1 298 40 discriminator 1 view .LVU170
 469 01d2 0892     		str	r2, [sp, #32]
 302:./Libraries/CMSIS/DSP/Source/FilteringFunctions/arm_conv_fast_q31.c ****         /* acc3 +=  x[5] * y[srcBLen - 3] */
 470              		.loc 1 302 40 discriminator 1 view .LVU171
ARM GAS  /tmp/ccdklRyK.s 			page 17


 471 01d4 0C92     		str	r2, [sp, #48]
 300:./Libraries/CMSIS/DSP/Source/FilteringFunctions/arm_conv_fast_q31.c ****         /* acc2 +=  x[4] * y[srcBLen - 3] */
 472              		.loc 1 300 40 discriminator 1 view .LVU172
 473 01d6 1092     		str	r2, [sp, #64]
 304:./Libraries/CMSIS/DSP/Source/FilteringFunctions/arm_conv_fast_q31.c **** 
 474              		.loc 1 304 40 discriminator 1 view .LVU173
 475 01d8 1892     		str	r2, [sp, #96]
 314:./Libraries/CMSIS/DSP/Source/FilteringFunctions/arm_conv_fast_q31.c ****         /* acc1 +=  x[4] * y[srcBLen - 4] */
 476              		.loc 1 314 40 discriminator 1 view .LVU174
 477 01da 0E92     		str	r2, [sp, #56]
 316:./Libraries/CMSIS/DSP/Source/FilteringFunctions/arm_conv_fast_q31.c ****         /* acc2 +=  x[5] * y[srcBLen - 4] */
 478              		.loc 1 316 40 discriminator 1 view .LVU175
 479 01dc 1292     		str	r2, [sp, #72]
 318:./Libraries/CMSIS/DSP/Source/FilteringFunctions/arm_conv_fast_q31.c ****         /* acc3 +=  x[6] * y[srcBLen - 4] */
 480              		.loc 1 318 40 discriminator 1 view .LVU176
 481 01de 1492     		str	r2, [sp, #80]
 320:./Libraries/CMSIS/DSP/Source/FilteringFunctions/arm_conv_fast_q31.c **** 
 482              		.loc 1 320 40 discriminator 1 view .LVU177
 483 01e0 1A92     		str	r2, [sp, #104]
 278:./Libraries/CMSIS/DSP/Source/FilteringFunctions/arm_conv_fast_q31.c **** 
 484              		.loc 1 278 12 discriminator 1 view .LVU178
 485 01e2 DBF804C0 		ldr	ip, [fp, #4]
 486              	.LVL56:
 270:./Libraries/CMSIS/DSP/Source/FilteringFunctions/arm_conv_fast_q31.c ****         /* acc3 +=  x[3] * y[srcBLen - 1] */
 487              		.loc 1 270 47 discriminator 1 view .LVU179
 488 01e6 DDE90067 		ldrd	r6, [sp]
 489 01ea C4FB0E67 		smlal	r6, r7, r4, lr
 286:./Libraries/CMSIS/DSP/Source/FilteringFunctions/arm_conv_fast_q31.c ****         /* acc3 +=  x[4] * y[srcBLen - 2] */
 490              		.loc 1 286 40 discriminator 1 view .LVU180
 491 01ee 0B97     		str	r7, [sp, #44]
 272:./Libraries/CMSIS/DSP/Source/FilteringFunctions/arm_conv_fast_q31.c **** 
 492              		.loc 1 272 47 discriminator 1 view .LVU181
 493 01f0 DDE90267 		ldrd	r6, [sp, #8]
 286:./Libraries/CMSIS/DSP/Source/FilteringFunctions/arm_conv_fast_q31.c ****         /* acc3 +=  x[4] * y[srcBLen - 2] */
 494              		.loc 1 286 47 discriminator 1 view .LVU182
 495 01f4 DDE90A23 		ldrd	r2, [sp, #40]
 272:./Libraries/CMSIS/DSP/Source/FilteringFunctions/arm_conv_fast_q31.c **** 
 496              		.loc 1 272 47 discriminator 1 view .LVU183
 497 01f8 C5FB0E67 		smlal	r6, r7, r5, lr
 276:./Libraries/CMSIS/DSP/Source/FilteringFunctions/arm_conv_fast_q31.c ****         /* Read x[4] sample */
 498              		.loc 1 276 12 discriminator 1 view .LVU184
 499 01fc D1F81CE0 		ldr	lr, [r1, #28]
 500              	.LVL57:
 278:./Libraries/CMSIS/DSP/Source/FilteringFunctions/arm_conv_fast_q31.c **** 
 501              		.loc 1 278 9 is_stmt 1 discriminator 1 view .LVU185
 282:./Libraries/CMSIS/DSP/Source/FilteringFunctions/arm_conv_fast_q31.c ****         /* acc1 +=  x[2] * y[srcBLen - 2] */
 502              		.loc 1 282 9 discriminator 1 view .LVU186
 288:./Libraries/CMSIS/DSP/Source/FilteringFunctions/arm_conv_fast_q31.c **** 
 503              		.loc 1 288 40 is_stmt 0 discriminator 1 view .LVU187
 504 0200 1797     		str	r7, [sp, #92]
 286:./Libraries/CMSIS/DSP/Source/FilteringFunctions/arm_conv_fast_q31.c ****         /* acc3 +=  x[4] * y[srcBLen - 2] */
 505              		.loc 1 286 47 discriminator 1 view .LVU188
 506 0202 CEFB0523 		smlal	r2, r3, lr, r5
 302:./Libraries/CMSIS/DSP/Source/FilteringFunctions/arm_conv_fast_q31.c ****         /* acc3 +=  x[5] * y[srcBLen - 3] */
 507              		.loc 1 302 40 discriminator 1 view .LVU189
 508 0206 0D93     		str	r3, [sp, #52]
 282:./Libraries/CMSIS/DSP/Source/FilteringFunctions/arm_conv_fast_q31.c ****         /* acc1 +=  x[2] * y[srcBLen - 2] */
ARM GAS  /tmp/ccdklRyK.s 			page 18


 509              		.loc 1 282 47 discriminator 1 view .LVU190
 510 0208 DDE90467 		ldrd	r6, [sp, #16]
 511 020c CEFB0067 		smlal	r6, r7, lr, r0
 284:./Libraries/CMSIS/DSP/Source/FilteringFunctions/arm_conv_fast_q31.c ****         /* acc2 +=  x[3] * y[srcBLen - 2] */
 512              		.loc 1 284 9 is_stmt 1 discriminator 1 view .LVU191
 298:./Libraries/CMSIS/DSP/Source/FilteringFunctions/arm_conv_fast_q31.c ****         /* acc1 +=  x[3] * y[srcBLen - 3] */
 513              		.loc 1 298 40 is_stmt 0 discriminator 1 view .LVU192
 514 0210 0997     		str	r7, [sp, #36]
 284:./Libraries/CMSIS/DSP/Source/FilteringFunctions/arm_conv_fast_q31.c ****         /* acc2 +=  x[3] * y[srcBLen - 2] */
 515              		.loc 1 284 47 discriminator 1 view .LVU193
 516 0212 DDE90667 		ldrd	r6, [sp, #24]
 288:./Libraries/CMSIS/DSP/Source/FilteringFunctions/arm_conv_fast_q31.c **** 
 517              		.loc 1 288 47 discriminator 1 view .LVU194
 518 0216 DDE91623 		ldrd	r2, [sp, #88]
 284:./Libraries/CMSIS/DSP/Source/FilteringFunctions/arm_conv_fast_q31.c ****         /* acc2 +=  x[3] * y[srcBLen - 2] */
 519              		.loc 1 284 47 discriminator 1 view .LVU195
 520 021a CEFB0467 		smlal	r6, r7, lr, r4
 286:./Libraries/CMSIS/DSP/Source/FilteringFunctions/arm_conv_fast_q31.c ****         /* acc3 +=  x[4] * y[srcBLen - 2] */
 521              		.loc 1 286 9 is_stmt 1 discriminator 1 view .LVU196
 522              	.LVL58:
 288:./Libraries/CMSIS/DSP/Source/FilteringFunctions/arm_conv_fast_q31.c **** 
 523              		.loc 1 288 9 discriminator 1 view .LVU197
 292:./Libraries/CMSIS/DSP/Source/FilteringFunctions/arm_conv_fast_q31.c ****         /* Read x[5] sample */
 524              		.loc 1 292 9 discriminator 1 view .LVU198
 300:./Libraries/CMSIS/DSP/Source/FilteringFunctions/arm_conv_fast_q31.c ****         /* acc2 +=  x[4] * y[srcBLen - 3] */
 525              		.loc 1 300 40 is_stmt 0 discriminator 1 view .LVU199
 526 021e 1197     		str	r7, [sp, #68]
 288:./Libraries/CMSIS/DSP/Source/FilteringFunctions/arm_conv_fast_q31.c **** 
 527              		.loc 1 288 47 discriminator 1 view .LVU200
 528 0220 CCFB0E23 		smlal	r2, r3, ip, lr
 292:./Libraries/CMSIS/DSP/Source/FilteringFunctions/arm_conv_fast_q31.c ****         /* Read x[5] sample */
 529              		.loc 1 292 12 discriminator 1 view .LVU201
 530 0224 D1F818E0 		ldr	lr, [r1, #24]
 531              	.LVL59:
 294:./Libraries/CMSIS/DSP/Source/FilteringFunctions/arm_conv_fast_q31.c **** 
 532              		.loc 1 294 9 is_stmt 1 discriminator 1 view .LVU202
 304:./Libraries/CMSIS/DSP/Source/FilteringFunctions/arm_conv_fast_q31.c **** 
 533              		.loc 1 304 40 is_stmt 0 discriminator 1 view .LVU203
 534 0228 1993     		str	r3, [sp, #100]
 294:./Libraries/CMSIS/DSP/Source/FilteringFunctions/arm_conv_fast_q31.c **** 
 535              		.loc 1 294 12 discriminator 1 view .LVU204
 536 022a DBF80800 		ldr	r0, [fp, #8]
 537              	.LVL60:
 298:./Libraries/CMSIS/DSP/Source/FilteringFunctions/arm_conv_fast_q31.c ****         /* acc1 +=  x[3] * y[srcBLen - 3] */
 538              		.loc 1 298 9 is_stmt 1 discriminator 1 view .LVU205
 298:./Libraries/CMSIS/DSP/Source/FilteringFunctions/arm_conv_fast_q31.c ****         /* acc1 +=  x[3] * y[srcBLen - 3] */
 539              		.loc 1 298 47 is_stmt 0 discriminator 1 view .LVU206
 540 022e DDE90867 		ldrd	r6, [sp, #32]
 300:./Libraries/CMSIS/DSP/Source/FilteringFunctions/arm_conv_fast_q31.c ****         /* acc2 +=  x[4] * y[srcBLen - 3] */
 541              		.loc 1 300 47 discriminator 1 view .LVU207
 542 0232 DDE91023 		ldrd	r2, [sp, #64]
 298:./Libraries/CMSIS/DSP/Source/FilteringFunctions/arm_conv_fast_q31.c ****         /* acc1 +=  x[3] * y[srcBLen - 3] */
 543              		.loc 1 298 47 discriminator 1 view .LVU208
 544 0236 CEFB0467 		smlal	r6, r7, lr, r4
 300:./Libraries/CMSIS/DSP/Source/FilteringFunctions/arm_conv_fast_q31.c ****         /* acc2 +=  x[4] * y[srcBLen - 3] */
 545              		.loc 1 300 9 is_stmt 1 discriminator 1 view .LVU209
 302:./Libraries/CMSIS/DSP/Source/FilteringFunctions/arm_conv_fast_q31.c ****         /* acc3 +=  x[5] * y[srcBLen - 3] */
ARM GAS  /tmp/ccdklRyK.s 			page 19


 546              		.loc 1 302 9 discriminator 1 view .LVU210
 314:./Libraries/CMSIS/DSP/Source/FilteringFunctions/arm_conv_fast_q31.c ****         /* acc1 +=  x[4] * y[srcBLen - 4] */
 547              		.loc 1 314 40 is_stmt 0 discriminator 1 view .LVU211
 548 023a 0F97     		str	r7, [sp, #60]
 300:./Libraries/CMSIS/DSP/Source/FilteringFunctions/arm_conv_fast_q31.c ****         /* acc2 +=  x[4] * y[srcBLen - 3] */
 549              		.loc 1 300 47 discriminator 1 view .LVU212
 550 023c CEFB0523 		smlal	r2, r3, lr, r5
 316:./Libraries/CMSIS/DSP/Source/FilteringFunctions/arm_conv_fast_q31.c ****         /* acc2 +=  x[5] * y[srcBLen - 4] */
 551              		.loc 1 316 40 discriminator 1 view .LVU213
 552 0240 1393     		str	r3, [sp, #76]
 310:./Libraries/CMSIS/DSP/Source/FilteringFunctions/arm_conv_fast_q31.c **** 
 553              		.loc 1 310 12 discriminator 1 view .LVU214
 554 0242 DBF80C40 		ldr	r4, [fp, #12]
 555              	.LVL61:
 302:./Libraries/CMSIS/DSP/Source/FilteringFunctions/arm_conv_fast_q31.c ****         /* acc3 +=  x[5] * y[srcBLen - 3] */
 556              		.loc 1 302 47 discriminator 1 view .LVU215
 557 0246 DDE90C67 		ldrd	r6, [sp, #48]
 304:./Libraries/CMSIS/DSP/Source/FilteringFunctions/arm_conv_fast_q31.c **** 
 558              		.loc 1 304 47 discriminator 1 view .LVU216
 559 024a DDE91823 		ldrd	r2, [sp, #96]
 302:./Libraries/CMSIS/DSP/Source/FilteringFunctions/arm_conv_fast_q31.c ****         /* acc3 +=  x[5] * y[srcBLen - 3] */
 560              		.loc 1 302 47 discriminator 1 view .LVU217
 561 024e CEFB0C67 		smlal	r6, r7, lr, ip
 304:./Libraries/CMSIS/DSP/Source/FilteringFunctions/arm_conv_fast_q31.c **** 
 562              		.loc 1 304 9 is_stmt 1 discriminator 1 view .LVU218
 563              	.LVL62:
 308:./Libraries/CMSIS/DSP/Source/FilteringFunctions/arm_conv_fast_q31.c ****         /* Read x[6] sample */
 564              		.loc 1 308 9 discriminator 1 view .LVU219
 318:./Libraries/CMSIS/DSP/Source/FilteringFunctions/arm_conv_fast_q31.c ****         /* acc3 +=  x[6] * y[srcBLen - 4] */
 565              		.loc 1 318 40 is_stmt 0 discriminator 1 view .LVU220
 566 0252 1597     		str	r7, [sp, #84]
 304:./Libraries/CMSIS/DSP/Source/FilteringFunctions/arm_conv_fast_q31.c **** 
 567              		.loc 1 304 47 discriminator 1 view .LVU221
 568 0254 C0FB0E23 		smlal	r2, r3, r0, lr
 308:./Libraries/CMSIS/DSP/Source/FilteringFunctions/arm_conv_fast_q31.c ****         /* Read x[6] sample */
 569              		.loc 1 308 12 discriminator 1 view .LVU222
 570 0258 D1F814E0 		ldr	lr, [r1, #20]
 571              	.LVL63:
 310:./Libraries/CMSIS/DSP/Source/FilteringFunctions/arm_conv_fast_q31.c **** 
 572              		.loc 1 310 9 is_stmt 1 discriminator 1 view .LVU223
 314:./Libraries/CMSIS/DSP/Source/FilteringFunctions/arm_conv_fast_q31.c ****         /* acc1 +=  x[4] * y[srcBLen - 4] */
 573              		.loc 1 314 9 discriminator 1 view .LVU224
 320:./Libraries/CMSIS/DSP/Source/FilteringFunctions/arm_conv_fast_q31.c **** 
 574              		.loc 1 320 40 is_stmt 0 discriminator 1 view .LVU225
 575 025c 1B93     		str	r3, [sp, #108]
 318:./Libraries/CMSIS/DSP/Source/FilteringFunctions/arm_conv_fast_q31.c ****         /* acc3 +=  x[6] * y[srcBLen - 4] */
 576              		.loc 1 318 47 discriminator 1 view .LVU226
 577 025e DDE91423 		ldrd	r2, [sp, #80]
 316:./Libraries/CMSIS/DSP/Source/FilteringFunctions/arm_conv_fast_q31.c ****         /* acc2 +=  x[5] * y[srcBLen - 4] */
 578              		.loc 1 316 47 discriminator 1 view .LVU227
 579 0262 DDE91267 		ldrd	r6, [sp, #72]
 318:./Libraries/CMSIS/DSP/Source/FilteringFunctions/arm_conv_fast_q31.c ****         /* acc3 +=  x[6] * y[srcBLen - 4] */
 580              		.loc 1 318 47 discriminator 1 view .LVU228
 581 0266 CEFB0023 		smlal	r2, r3, lr, r0
 314:./Libraries/CMSIS/DSP/Source/FilteringFunctions/arm_conv_fast_q31.c ****         /* acc1 +=  x[4] * y[srcBLen - 4] */
 582              		.loc 1 314 47 discriminator 1 view .LVU229
 583 026a DDE90E89 		ldrd	r8, [sp, #56]
ARM GAS  /tmp/ccdklRyK.s 			page 20


 318:./Libraries/CMSIS/DSP/Source/FilteringFunctions/arm_conv_fast_q31.c ****         /* acc3 +=  x[6] * y[srcBLen - 4] */
 584              		.loc 1 318 14 discriminator 1 view .LVU230
 585 026e 0293     		str	r3, [sp, #8]
 316:./Libraries/CMSIS/DSP/Source/FilteringFunctions/arm_conv_fast_q31.c ****         /* acc2 +=  x[5] * y[srcBLen - 4] */
 586              		.loc 1 316 47 discriminator 1 view .LVU231
 587 0270 CEFB0C67 		smlal	r6, r7, lr, ip
 314:./Libraries/CMSIS/DSP/Source/FilteringFunctions/arm_conv_fast_q31.c ****         /* acc1 +=  x[4] * y[srcBLen - 4] */
 588              		.loc 1 314 47 discriminator 1 view .LVU232
 589 0274 CEFB0589 		smlal	r8, r9, lr, r5
 316:./Libraries/CMSIS/DSP/Source/FilteringFunctions/arm_conv_fast_q31.c ****         /* acc2 +=  x[5] * y[srcBLen - 4] */
 590              		.loc 1 316 14 discriminator 1 view .LVU233
 591 0278 3E46     		mov	r6, r7
 314:./Libraries/CMSIS/DSP/Source/FilteringFunctions/arm_conv_fast_q31.c ****         /* acc1 +=  x[4] * y[srcBLen - 4] */
 592              		.loc 1 314 14 discriminator 1 view .LVU234
 593 027a 4F46     		mov	r7, r9
 316:./Libraries/CMSIS/DSP/Source/FilteringFunctions/arm_conv_fast_q31.c ****         /* acc2 +=  x[5] * y[srcBLen - 4] */
 594              		.loc 1 316 9 is_stmt 1 discriminator 1 view .LVU235
 318:./Libraries/CMSIS/DSP/Source/FilteringFunctions/arm_conv_fast_q31.c ****         /* acc3 +=  x[6] * y[srcBLen - 4] */
 595              		.loc 1 318 9 discriminator 1 view .LVU236
 320:./Libraries/CMSIS/DSP/Source/FilteringFunctions/arm_conv_fast_q31.c **** 
 596              		.loc 1 320 9 discriminator 1 view .LVU237
 597              	.LVL64:
 598              		.loc 1 323 15 discriminator 1 view .LVU238
 320:./Libraries/CMSIS/DSP/Source/FilteringFunctions/arm_conv_fast_q31.c **** 
 599              		.loc 1 320 47 is_stmt 0 discriminator 1 view .LVU239
 600 027c DDE91A23 		ldrd	r2, [sp, #104]
 601 0280 C4FB0E23 		smlal	r2, r3, r4, lr
 320:./Libraries/CMSIS/DSP/Source/FilteringFunctions/arm_conv_fast_q31.c **** 
 602              		.loc 1 320 14 discriminator 1 view .LVU240
 603 0284 1C93     		str	r3, [sp, #112]
 604              		.loc 1 323 7 discriminator 1 view .LVU241
 605 0286 84D1     		bne	.L70
 606 0288 259B     		ldr	r3, [sp, #148]
 607 028a 8246     		mov	r10, r0
 608 028c 2D9A     		ldr	r2, [sp, #180]
 609 028e A346     		mov	fp, r4
 610              	.LVL65:
 611              		.loc 1 323 7 discriminator 1 view .LVU242
 612 0290 CDF88CC0 		str	ip, [sp, #140]
 613 0294 03EB0208 		add	r8, r3, r2
 324:./Libraries/CMSIS/DSP/Source/FilteringFunctions/arm_conv_fast_q31.c **** 
 325:./Libraries/CMSIS/DSP/Source/FilteringFunctions/arm_conv_fast_q31.c ****       /* If the srcBLen is not a multiple of 4, compute any remaining MACs here.
 326:./Libraries/CMSIS/DSP/Source/FilteringFunctions/arm_conv_fast_q31.c ****        ** No loop unrolling is used. */
 327:./Libraries/CMSIS/DSP/Source/FilteringFunctions/arm_conv_fast_q31.c ****       k = srcBLen % 0x4U;
 614              		.loc 1 327 7 is_stmt 1 view .LVU243
 615              	.LVL66:
 328:./Libraries/CMSIS/DSP/Source/FilteringFunctions/arm_conv_fast_q31.c **** 
 329:./Libraries/CMSIS/DSP/Source/FilteringFunctions/arm_conv_fast_q31.c ****       while (k > 0U)
 616              		.loc 1 329 7 view .LVU244
 617              		.loc 1 329 13 view .LVU245
 618 0298 2E9B     		ldr	r3, [sp, #184]
 619 029a 53B3     		cbz	r3, .L16
 308:./Libraries/CMSIS/DSP/Source/FilteringFunctions/arm_conv_fast_q31.c ****         /* Read x[6] sample */
 620              		.loc 1 308 17 is_stmt 0 view .LVU246
 621 029c DDF8BC90 		ldr	r9, [sp, #188]
 622 02a0 DDF870C0 		ldr	ip, [sp, #112]
 623              	.LVL67:
ARM GAS  /tmp/ccdklRyK.s 			page 21


 308:./Libraries/CMSIS/DSP/Source/FilteringFunctions/arm_conv_fast_q31.c ****         /* Read x[6] sample */
 624              		.loc 1 308 17 view .LVU247
 625 02a4 DDF8A0E0 		ldr	lr, [sp, #160]
 626              	.LVL68:
 627              	.L17:
 330:./Libraries/CMSIS/DSP/Source/FilteringFunctions/arm_conv_fast_q31.c ****       {
 331:./Libraries/CMSIS/DSP/Source/FilteringFunctions/arm_conv_fast_q31.c ****         /* Read y[srcBLen - 5] sample */
 332:./Libraries/CMSIS/DSP/Source/FilteringFunctions/arm_conv_fast_q31.c ****         c0 = *py--;
 628              		.loc 1 332 9 is_stmt 1 view .LVU248
 333:./Libraries/CMSIS/DSP/Source/FilteringFunctions/arm_conv_fast_q31.c ****         /* Read x[7] sample */
 334:./Libraries/CMSIS/DSP/Source/FilteringFunctions/arm_conv_fast_q31.c ****         x3 = *px++;
 335:./Libraries/CMSIS/DSP/Source/FilteringFunctions/arm_conv_fast_q31.c **** 
 336:./Libraries/CMSIS/DSP/Source/FilteringFunctions/arm_conv_fast_q31.c ****         /* Perform the multiply-accumulates */
 337:./Libraries/CMSIS/DSP/Source/FilteringFunctions/arm_conv_fast_q31.c ****         /* acc0 +=  x[4] * y[srcBLen - 5] */
 338:./Libraries/CMSIS/DSP/Source/FilteringFunctions/arm_conv_fast_q31.c ****         acc0 = (q31_t) ((((q63_t) acc0 << 32) + ((q63_t) x0 * c0)) >> 32);
 629              		.loc 1 338 40 is_stmt 0 view .LVU249
 630 02a8 0022     		movs	r2, #0
 332:./Libraries/CMSIS/DSP/Source/FilteringFunctions/arm_conv_fast_q31.c ****         /* Read x[7] sample */
 631              		.loc 1 332 12 view .LVU250
 632 02aa 59F80419 		ldr	r1, [r9], #-4
 633              	.LVL69:
 334:./Libraries/CMSIS/DSP/Source/FilteringFunctions/arm_conv_fast_q31.c **** 
 634              		.loc 1 334 9 is_stmt 1 view .LVU251
 635              		.loc 1 338 40 is_stmt 0 view .LVU252
 636 02ae 3B46     		mov	r3, r7
 339:./Libraries/CMSIS/DSP/Source/FilteringFunctions/arm_conv_fast_q31.c ****         /* acc1 +=  x[5] * y[srcBLen - 5] */
 340:./Libraries/CMSIS/DSP/Source/FilteringFunctions/arm_conv_fast_q31.c ****         acc1 = (q31_t) ((((q63_t) acc1 << 32) + ((q63_t) x1 * c0)) >> 32);
 637              		.loc 1 340 40 view .LVU253
 638 02b0 0196     		str	r6, [sp, #4]
 338:./Libraries/CMSIS/DSP/Source/FilteringFunctions/arm_conv_fast_q31.c ****         /* acc1 +=  x[5] * y[srcBLen - 5] */
 639              		.loc 1 338 47 view .LVU254
 640 02b2 239E     		ldr	r6, [sp, #140]
 641              	.LVL70:
 341:./Libraries/CMSIS/DSP/Source/FilteringFunctions/arm_conv_fast_q31.c ****         /* acc2 +=  x[6] * y[srcBLen - 5] */
 342:./Libraries/CMSIS/DSP/Source/FilteringFunctions/arm_conv_fast_q31.c ****         acc2 = (q31_t) ((((q63_t) acc2 << 32) + ((q63_t) x2 * c0)) >> 32);
 642              		.loc 1 342 40 view .LVU255
 643 02b4 1446     		mov	r4, r2
 340:./Libraries/CMSIS/DSP/Source/FilteringFunctions/arm_conv_fast_q31.c ****         /* acc2 +=  x[6] * y[srcBLen - 5] */
 644              		.loc 1 340 40 view .LVU256
 645 02b6 0092     		str	r2, [sp]
 334:./Libraries/CMSIS/DSP/Source/FilteringFunctions/arm_conv_fast_q31.c **** 
 646              		.loc 1 334 12 view .LVU257
 647 02b8 58F8040B 		ldr	r0, [r8], #4
 648              	.LVL71:
 338:./Libraries/CMSIS/DSP/Source/FilteringFunctions/arm_conv_fast_q31.c ****         /* acc1 +=  x[5] * y[srcBLen - 5] */
 649              		.loc 1 338 9 is_stmt 1 view .LVU258
 343:./Libraries/CMSIS/DSP/Source/FilteringFunctions/arm_conv_fast_q31.c ****         /* acc3 +=  x[7] * y[srcBLen - 5] */
 344:./Libraries/CMSIS/DSP/Source/FilteringFunctions/arm_conv_fast_q31.c ****         acc3 = (q31_t) ((((q63_t) acc3 << 32) + ((q63_t) x3 * c0)) >> 32);
 650              		.loc 1 344 40 is_stmt 0 view .LVU259
 651 02bc 1C92     		str	r2, [sp, #112]
 338:./Libraries/CMSIS/DSP/Source/FilteringFunctions/arm_conv_fast_q31.c ****         /* acc1 +=  x[5] * y[srcBLen - 5] */
 652              		.loc 1 338 47 view .LVU260
 653 02be C1FB0623 		smlal	r2, r3, r1, r6
 654              	.LVL72:
 655              		.loc 1 344 40 view .LVU261
 656 02c2 CDF874C0 		str	ip, [sp, #116]
 329:./Libraries/CMSIS/DSP/Source/FilteringFunctions/arm_conv_fast_q31.c ****       {
ARM GAS  /tmp/ccdklRyK.s 			page 22


 657              		.loc 1 329 13 view .LVU262
 658 02c6 F045     		cmp	r8, lr
 342:./Libraries/CMSIS/DSP/Source/FilteringFunctions/arm_conv_fast_q31.c ****         /* acc3 +=  x[7] * y[srcBLen - 5] */
 659              		.loc 1 342 40 view .LVU263
 660 02c8 029D     		ldr	r5, [sp, #8]
 661 02ca CDF88CA0 		str	r10, [sp, #140]
 662              	.LVL73:
 342:./Libraries/CMSIS/DSP/Source/FilteringFunctions/arm_conv_fast_q31.c ****         /* acc3 +=  x[7] * y[srcBLen - 5] */
 663              		.loc 1 342 47 view .LVU264
 664 02ce CBFB0145 		smlal	r4, r5, fp, r1
 665              	.LVL74:
 342:./Libraries/CMSIS/DSP/Source/FilteringFunctions/arm_conv_fast_q31.c ****         /* acc3 +=  x[7] * y[srcBLen - 5] */
 666              		.loc 1 342 14 view .LVU265
 667 02d2 0295     		str	r5, [sp, #8]
 668              	.LVL75:
 340:./Libraries/CMSIS/DSP/Source/FilteringFunctions/arm_conv_fast_q31.c ****         /* acc2 +=  x[6] * y[srcBLen - 5] */
 669              		.loc 1 340 47 view .LVU266
 670 02d4 DDE90067 		ldrd	r6, [sp]
 671              	.LVL76:
 340:./Libraries/CMSIS/DSP/Source/FilteringFunctions/arm_conv_fast_q31.c ****         /* acc2 +=  x[6] * y[srcBLen - 5] */
 672              		.loc 1 340 47 view .LVU267
 673 02d8 CAFB0167 		smlal	r6, r7, r10, r1
 340:./Libraries/CMSIS/DSP/Source/FilteringFunctions/arm_conv_fast_q31.c ****         /* acc2 +=  x[6] * y[srcBLen - 5] */
 674              		.loc 1 340 14 view .LVU268
 675 02dc 3E46     		mov	r6, r7
 338:./Libraries/CMSIS/DSP/Source/FilteringFunctions/arm_conv_fast_q31.c ****         /* acc1 +=  x[5] * y[srcBLen - 5] */
 676              		.loc 1 338 14 view .LVU269
 677 02de 1F46     		mov	r7, r3
 678              	.LVL77:
 340:./Libraries/CMSIS/DSP/Source/FilteringFunctions/arm_conv_fast_q31.c ****         /* acc2 +=  x[6] * y[srcBLen - 5] */
 679              		.loc 1 340 9 is_stmt 1 view .LVU270
 342:./Libraries/CMSIS/DSP/Source/FilteringFunctions/arm_conv_fast_q31.c ****         /* acc3 +=  x[7] * y[srcBLen - 5] */
 680              		.loc 1 342 9 view .LVU271
 681              		.loc 1 344 9 view .LVU272
 682 02e0 DA46     		mov	r10, fp
 683              	.LVL78:
 345:./Libraries/CMSIS/DSP/Source/FilteringFunctions/arm_conv_fast_q31.c **** 
 346:./Libraries/CMSIS/DSP/Source/FilteringFunctions/arm_conv_fast_q31.c ****         /* Reuse the present samples for the next MAC */
 347:./Libraries/CMSIS/DSP/Source/FilteringFunctions/arm_conv_fast_q31.c ****         x0 = x1;
 348:./Libraries/CMSIS/DSP/Source/FilteringFunctions/arm_conv_fast_q31.c ****         x1 = x2;
 349:./Libraries/CMSIS/DSP/Source/FilteringFunctions/arm_conv_fast_q31.c ****         x2 = x3;
 684              		.loc 1 349 12 is_stmt 0 view .LVU273
 685 02e2 8346     		mov	fp, r0
 686              	.LVL79:
 344:./Libraries/CMSIS/DSP/Source/FilteringFunctions/arm_conv_fast_q31.c **** 
 687              		.loc 1 344 47 view .LVU274
 688 02e4 DDE91C23 		ldrd	r2, [sp, #112]
 689 02e8 C0FB0123 		smlal	r2, r3, r0, r1
 344:./Libraries/CMSIS/DSP/Source/FilteringFunctions/arm_conv_fast_q31.c **** 
 690              		.loc 1 344 14 view .LVU275
 691 02ec 9C46     		mov	ip, r3
 692              	.LVL80:
 347:./Libraries/CMSIS/DSP/Source/FilteringFunctions/arm_conv_fast_q31.c ****         x1 = x2;
 693              		.loc 1 347 9 is_stmt 1 view .LVU276
 348:./Libraries/CMSIS/DSP/Source/FilteringFunctions/arm_conv_fast_q31.c ****         x2 = x3;
 694              		.loc 1 348 9 view .LVU277
 695              		.loc 1 349 9 view .LVU278
ARM GAS  /tmp/ccdklRyK.s 			page 23


 350:./Libraries/CMSIS/DSP/Source/FilteringFunctions/arm_conv_fast_q31.c **** 
 351:./Libraries/CMSIS/DSP/Source/FilteringFunctions/arm_conv_fast_q31.c ****         /* Decrement loop counter */
 352:./Libraries/CMSIS/DSP/Source/FilteringFunctions/arm_conv_fast_q31.c ****         k--;
 696              		.loc 1 352 9 view .LVU279
 329:./Libraries/CMSIS/DSP/Source/FilteringFunctions/arm_conv_fast_q31.c ****       {
 697              		.loc 1 329 13 view .LVU280
 698 02ee DBD1     		bne	.L17
 699 02f0 1C93     		str	r3, [sp, #112]
 700              	.LVL81:
 701              	.L16:
 353:./Libraries/CMSIS/DSP/Source/FilteringFunctions/arm_conv_fast_q31.c ****       }
 354:./Libraries/CMSIS/DSP/Source/FilteringFunctions/arm_conv_fast_q31.c **** 
 355:./Libraries/CMSIS/DSP/Source/FilteringFunctions/arm_conv_fast_q31.c ****       /* Store the result in the accumulator in the destination buffer. */
 356:./Libraries/CMSIS/DSP/Source/FilteringFunctions/arm_conv_fast_q31.c ****       *pOut++ = (q31_t) (acc0 << 1);
 702              		.loc 1 356 7 view .LVU281
 703              		.loc 1 356 15 is_stmt 0 view .LVU282
 704 02f2 2998     		ldr	r0, [sp, #164]
 705              		.loc 1 356 31 view .LVU283
 706 02f4 7B00     		lsls	r3, r7, #1
 707 02f6 2599     		ldr	r1, [sp, #148]
 708              		.loc 1 356 15 view .LVU284
 709 02f8 40F8103C 		str	r3, [r0, #-16]
 357:./Libraries/CMSIS/DSP/Source/FilteringFunctions/arm_conv_fast_q31.c ****       *pOut++ = (q31_t) (acc1 << 1);
 710              		.loc 1 357 7 is_stmt 1 view .LVU285
 358:./Libraries/CMSIS/DSP/Source/FilteringFunctions/arm_conv_fast_q31.c ****       *pOut++ = (q31_t) (acc2 << 1);
 359:./Libraries/CMSIS/DSP/Source/FilteringFunctions/arm_conv_fast_q31.c ****       *pOut++ = (q31_t) (acc3 << 1);
 711              		.loc 1 359 31 is_stmt 0 view .LVU286
 712 02fc 1C9B     		ldr	r3, [sp, #112]
 713 02fe 1031     		adds	r1, r1, #16
 714 0300 289A     		ldr	r2, [sp, #160]
 715 0302 5B00     		lsls	r3, r3, #1
 716 0304 2591     		str	r1, [sp, #148]
 717 0306 1032     		adds	r2, r2, #16
 358:./Libraries/CMSIS/DSP/Source/FilteringFunctions/arm_conv_fast_q31.c ****       *pOut++ = (q31_t) (acc2 << 1);
 718              		.loc 1 358 31 view .LVU287
 719 0308 0299     		ldr	r1, [sp, #8]
 720              		.loc 1 359 15 view .LVU288
 721 030a 40F8043C 		str	r3, [r0, #-4]
 239:./Libraries/CMSIS/DSP/Source/FilteringFunctions/arm_conv_fast_q31.c ****     {
 722              		.loc 1 239 11 view .LVU289
 723 030e 2B9B     		ldr	r3, [sp, #172]
 358:./Libraries/CMSIS/DSP/Source/FilteringFunctions/arm_conv_fast_q31.c ****       *pOut++ = (q31_t) (acc2 << 1);
 724              		.loc 1 358 31 view .LVU290
 725 0310 4900     		lsls	r1, r1, #1
 726 0312 2892     		str	r2, [sp, #160]
 357:./Libraries/CMSIS/DSP/Source/FilteringFunctions/arm_conv_fast_q31.c ****       *pOut++ = (q31_t) (acc1 << 1);
 727              		.loc 1 357 31 view .LVU291
 728 0314 7200     		lsls	r2, r6, #1
 239:./Libraries/CMSIS/DSP/Source/FilteringFunctions/arm_conv_fast_q31.c ****     {
 729              		.loc 1 239 11 view .LVU292
 730 0316 8342     		cmp	r3, r0
 358:./Libraries/CMSIS/DSP/Source/FilteringFunctions/arm_conv_fast_q31.c ****       *pOut++ = (q31_t) (acc2 << 1);
 731              		.loc 1 358 15 view .LVU293
 732 0318 40F8081C 		str	r1, [r0, #-8]
 357:./Libraries/CMSIS/DSP/Source/FilteringFunctions/arm_conv_fast_q31.c ****       *pOut++ = (q31_t) (acc1 << 1);
 733              		.loc 1 357 15 view .LVU294
 734 031c 40F80C2C 		str	r2, [r0, #-12]
ARM GAS  /tmp/ccdklRyK.s 			page 24


 358:./Libraries/CMSIS/DSP/Source/FilteringFunctions/arm_conv_fast_q31.c ****       *pOut++ = (q31_t) (acc2 << 1);
 735              		.loc 1 358 7 is_stmt 1 view .LVU295
 736              		.loc 1 359 7 view .LVU296
 360:./Libraries/CMSIS/DSP/Source/FilteringFunctions/arm_conv_fast_q31.c **** 
 361:./Libraries/CMSIS/DSP/Source/FilteringFunctions/arm_conv_fast_q31.c ****       /* Increment the pointer pIn1 index, count by 4 */
 362:./Libraries/CMSIS/DSP/Source/FilteringFunctions/arm_conv_fast_q31.c ****       count += 4U;
 737              		.loc 1 362 7 view .LVU297
 363:./Libraries/CMSIS/DSP/Source/FilteringFunctions/arm_conv_fast_q31.c **** 
 364:./Libraries/CMSIS/DSP/Source/FilteringFunctions/arm_conv_fast_q31.c ****       /* Update the inputA and inputB pointers for next MAC calculation */
 365:./Libraries/CMSIS/DSP/Source/FilteringFunctions/arm_conv_fast_q31.c ****       px = pIn1 + count;
 738              		.loc 1 365 7 view .LVU298
 739              	.LVL82:
 366:./Libraries/CMSIS/DSP/Source/FilteringFunctions/arm_conv_fast_q31.c ****       py = pSrc2;
 740              		.loc 1 366 7 view .LVU299
 367:./Libraries/CMSIS/DSP/Source/FilteringFunctions/arm_conv_fast_q31.c **** 
 368:./Libraries/CMSIS/DSP/Source/FilteringFunctions/arm_conv_fast_q31.c ****       /* Decrement loop counter */
 369:./Libraries/CMSIS/DSP/Source/FilteringFunctions/arm_conv_fast_q31.c ****       blkCnt--;
 741              		.loc 1 369 7 view .LVU300
 239:./Libraries/CMSIS/DSP/Source/FilteringFunctions/arm_conv_fast_q31.c ****     {
 742              		.loc 1 239 11 view .LVU301
 743 0320 00F11002 		add	r2, r0, #16
 744 0324 01D0     		beq	.L71
 745 0326 2992     		str	r2, [sp, #164]
 746 0328 1FE7     		b	.L18
 747              	.L71:
 748 032a 1F9A     		ldr	r2, [sp, #124]
 749 032c 4693     		str	r3, [sp, #280]
 750 032e 339B     		ldr	r3, [sp, #204]
 751 0330 1344     		add	r3, r3, r2
 752 0332 9E46     		mov	lr, r3
 753 0334 329B     		ldr	r3, [sp, #200]
 754 0336 9B00     		lsls	r3, r3, #2
 755 0338 3293     		str	r3, [sp, #200]
 756              	.LVL83:
 757              	.L13:
 370:./Libraries/CMSIS/DSP/Source/FilteringFunctions/arm_conv_fast_q31.c ****     }
 371:./Libraries/CMSIS/DSP/Source/FilteringFunctions/arm_conv_fast_q31.c **** 
 372:./Libraries/CMSIS/DSP/Source/FilteringFunctions/arm_conv_fast_q31.c ****     /* If the blockSize2 is not a multiple of 4, compute any remaining output samples here.
 373:./Libraries/CMSIS/DSP/Source/FilteringFunctions/arm_conv_fast_q31.c ****      ** No loop unrolling is used. */
 374:./Libraries/CMSIS/DSP/Source/FilteringFunctions/arm_conv_fast_q31.c ****     blkCnt = blockSize2 % 0x4U;
 758              		.loc 1 374 5 view .LVU302
 375:./Libraries/CMSIS/DSP/Source/FilteringFunctions/arm_conv_fast_q31.c **** 
 376:./Libraries/CMSIS/DSP/Source/FilteringFunctions/arm_conv_fast_q31.c ****     while (blkCnt > 0U)
 759              		.loc 1 376 5 view .LVU303
 760              		.loc 1 376 11 view .LVU304
 761 033a 309B     		ldr	r3, [sp, #192]
 762 033c 13F0030C 		ands	ip, r3, #3
 763              	.LVL84:
 764              		.loc 1 376 11 is_stmt 0 view .LVU305
 765 0340 00F02E81 		beq	.L39
 377:./Libraries/CMSIS/DSP/Source/FilteringFunctions/arm_conv_fast_q31.c ****     {
 378:./Libraries/CMSIS/DSP/Source/FilteringFunctions/arm_conv_fast_q31.c ****       /* Accumulator is made zero for every iteration */
 379:./Libraries/CMSIS/DSP/Source/FilteringFunctions/arm_conv_fast_q31.c ****       sum = 0;
 380:./Libraries/CMSIS/DSP/Source/FilteringFunctions/arm_conv_fast_q31.c **** 
 381:./Libraries/CMSIS/DSP/Source/FilteringFunctions/arm_conv_fast_q31.c ****       /* Apply loop unrolling and compute 4 MACs simultaneously. */
 382:./Libraries/CMSIS/DSP/Source/FilteringFunctions/arm_conv_fast_q31.c ****       k = srcBLen >> 2U;
 766              		.loc 1 382 9 view .LVU306
ARM GAS  /tmp/ccdklRyK.s 			page 25


 767 0344 319B     		ldr	r3, [sp, #196]
 768 0346 329A     		ldr	r2, [sp, #200]
 769 0348 4FEA9309 		lsr	r9, r3, #2
 770 034c 03F0030A 		and	r10, r3, #3
 771 0350 02F10108 		add	r8, r2, #1
 772 0354 469B     		ldr	r3, [sp, #280]
 773 0356 249A     		ldr	r2, [sp, #144]
 774 0358 4FEA091B 		lsl	fp, r9, #4
 775 035c 03EB8C0C 		add	ip, r3, ip, lsl #2
 776              	.LVL85:
 777              		.loc 1 382 9 view .LVU307
 778 0360 CDF81090 		str	r9, [sp, #16]
 779 0364 A2F11001 		sub	r1, r2, #16
 780 0368 C9EB0973 		rsb	r3, r9, r9, lsl #28
 781 036c CDF808C0 		str	ip, [sp, #8]
 782 0370 02EB0313 		add	r3, r2, r3, lsl #4
 783 0374 2A91     		str	r1, [sp, #168]
 784 0376 1F99     		ldr	r1, [sp, #124]
 785 0378 0C93     		str	r3, [sp, #48]
 786 037a 4FEA8A03 		lsl	r3, r10, #2
 787 037e 01EB8808 		add	r8, r1, r8, lsl #2
 788 0382 CDF818B0 		str	fp, [sp, #24]
 789 0386 0A93     		str	r3, [sp, #40]
 790 0388 CDF80080 		str	r8, [sp]
 791 038c CDF820A0 		str	r10, [sp, #32]
 792              	.LVL86:
 793              	.L23:
 379:./Libraries/CMSIS/DSP/Source/FilteringFunctions/arm_conv_fast_q31.c **** 
 794              		.loc 1 379 7 is_stmt 1 view .LVU308
 795              		.loc 1 382 7 view .LVU309
 383:./Libraries/CMSIS/DSP/Source/FilteringFunctions/arm_conv_fast_q31.c **** 
 384:./Libraries/CMSIS/DSP/Source/FilteringFunctions/arm_conv_fast_q31.c ****       /* First part of the processing with loop unrolling.  Compute 4 MACs at a time.
 385:./Libraries/CMSIS/DSP/Source/FilteringFunctions/arm_conv_fast_q31.c ****        ** a second loop below computes MACs for the remaining 1 to 3 samples. */
 386:./Libraries/CMSIS/DSP/Source/FilteringFunctions/arm_conv_fast_q31.c ****       while (k > 0U)
 796              		.loc 1 386 7 view .LVU310
 797              		.loc 1 386 13 view .LVU311
 798 0390 0EF11000 		add	r0, lr, #16
 799 0394 2A99     		ldr	r1, [sp, #168]
 382:./Libraries/CMSIS/DSP/Source/FilteringFunctions/arm_conv_fast_q31.c **** 
 800              		.loc 1 382 9 is_stmt 0 view .LVU312
 801 0396 049C     		ldr	r4, [sp, #16]
 379:./Libraries/CMSIS/DSP/Source/FilteringFunctions/arm_conv_fast_q31.c **** 
 802              		.loc 1 379 11 view .LVU313
 803 0398 0025     		movs	r5, #0
 804              	.LVL87:
 805              	.L20:
 387:./Libraries/CMSIS/DSP/Source/FilteringFunctions/arm_conv_fast_q31.c ****       {
 388:./Libraries/CMSIS/DSP/Source/FilteringFunctions/arm_conv_fast_q31.c ****         /* Perform the multiply-accumulates */
 389:./Libraries/CMSIS/DSP/Source/FilteringFunctions/arm_conv_fast_q31.c ****         sum = (q31_t) ((((q63_t) sum << 32) +
 806              		.loc 1 389 9 is_stmt 1 view .LVU314
 390:./Libraries/CMSIS/DSP/Source/FilteringFunctions/arm_conv_fast_q31.c ****                         ((q63_t) *px++ * (*py--))) >> 32);
 391:./Libraries/CMSIS/DSP/Source/FilteringFunctions/arm_conv_fast_q31.c ****         sum = (q31_t) ((((q63_t) sum << 32) +
 807              		.loc 1 391 9 view .LVU315
 392:./Libraries/CMSIS/DSP/Source/FilteringFunctions/arm_conv_fast_q31.c ****                         ((q63_t) *px++ * (*py--))) >> 32);
 393:./Libraries/CMSIS/DSP/Source/FilteringFunctions/arm_conv_fast_q31.c ****         sum = (q31_t) ((((q63_t) sum << 32) +
 808              		.loc 1 393 9 view .LVU316
 394:./Libraries/CMSIS/DSP/Source/FilteringFunctions/arm_conv_fast_q31.c ****                         ((q63_t) *px++ * (*py--))) >> 32);
ARM GAS  /tmp/ccdklRyK.s 			page 26


 395:./Libraries/CMSIS/DSP/Source/FilteringFunctions/arm_conv_fast_q31.c ****         sum = (q31_t) ((((q63_t) sum << 32) +
 809              		.loc 1 395 9 view .LVU317
 389:./Libraries/CMSIS/DSP/Source/FilteringFunctions/arm_conv_fast_q31.c ****                         ((q63_t) *px++ * (*py--))) >> 32);
 810              		.loc 1 389 38 is_stmt 0 view .LVU318
 811 039a 0022     		movs	r2, #0
 389:./Libraries/CMSIS/DSP/Source/FilteringFunctions/arm_conv_fast_q31.c ****                         ((q63_t) *px++ * (*py--))) >> 32);
 812              		.loc 1 389 45 view .LVU319
 813 039c A946     		mov	r9, r5
 814 039e 50F8105C 		ldr	r5, [r0, #-16]
 815              	.LVL88:
 386:./Libraries/CMSIS/DSP/Source/FilteringFunctions/arm_conv_fast_q31.c ****       {
 816              		.loc 1 386 13 view .LVU320
 817 03a2 013C     		subs	r4, r4, #1
 818              	.LVL89:
 389:./Libraries/CMSIS/DSP/Source/FilteringFunctions/arm_conv_fast_q31.c ****                         ((q63_t) *px++ * (*py--))) >> 32);
 819              		.loc 1 389 45 view .LVU321
 820 03a4 9046     		mov	r8, r2
 391:./Libraries/CMSIS/DSP/Source/FilteringFunctions/arm_conv_fast_q31.c ****                         ((q63_t) *px++ * (*py--))) >> 32);
 821              		.loc 1 391 38 view .LVU322
 822 03a6 2092     		str	r2, [sp, #128]
 389:./Libraries/CMSIS/DSP/Source/FilteringFunctions/arm_conv_fast_q31.c ****                         ((q63_t) *px++ * (*py--))) >> 32);
 823              		.loc 1 389 45 view .LVU323
 824 03a8 AC46     		mov	ip, r5
 825 03aa 0D69     		ldr	r5, [r1, #16]
 391:./Libraries/CMSIS/DSP/Source/FilteringFunctions/arm_conv_fast_q31.c ****                         ((q63_t) *px++ * (*py--))) >> 32);
 826              		.loc 1 391 45 view .LVU324
 827 03ac 50F80C3C 		ldr	r3, [r0, #-12]
 393:./Libraries/CMSIS/DSP/Source/FilteringFunctions/arm_conv_fast_q31.c ****                         ((q63_t) *px++ * (*py--))) >> 32);
 828              		.loc 1 393 38 view .LVU325
 829 03b0 9246     		mov	r10, r2
 389:./Libraries/CMSIS/DSP/Source/FilteringFunctions/arm_conv_fast_q31.c ****                         ((q63_t) *px++ * (*py--))) >> 32);
 830              		.loc 1 389 45 view .LVU326
 831 03b2 C5FB0C89 		smlal	r8, r9, r5, ip
 391:./Libraries/CMSIS/DSP/Source/FilteringFunctions/arm_conv_fast_q31.c ****                         ((q63_t) *px++ * (*py--))) >> 32);
 832              		.loc 1 391 38 view .LVU327
 833 03b6 CDF88490 		str	r9, [sp, #132]
 391:./Libraries/CMSIS/DSP/Source/FilteringFunctions/arm_conv_fast_q31.c ****                         ((q63_t) *px++ * (*py--))) >> 32);
 834              		.loc 1 391 45 view .LVU328
 835 03ba CD68     		ldr	r5, [r1, #12]
 836 03bc 00F11000 		add	r0, r0, #16
 837              	.LVL90:
 393:./Libraries/CMSIS/DSP/Source/FilteringFunctions/arm_conv_fast_q31.c ****                         ((q63_t) *px++ * (*py--))) >> 32);
 838              		.loc 1 393 45 view .LVU329
 839 03c0 50F818CC 		ldr	ip, [r0, #-24]
 840              	.LVL91:
 393:./Libraries/CMSIS/DSP/Source/FilteringFunctions/arm_conv_fast_q31.c ****                         ((q63_t) *px++ * (*py--))) >> 32);
 841              		.loc 1 393 45 view .LVU330
 842 03c4 A1F11001 		sub	r1, r1, #16
 843              	.LVL92:
 391:./Libraries/CMSIS/DSP/Source/FilteringFunctions/arm_conv_fast_q31.c ****                         ((q63_t) *px++ * (*py--))) >> 32);
 844              		.loc 1 391 45 view .LVU331
 845 03c8 DDE92089 		ldrd	r8, [sp, #128]
 846 03cc C5FB0389 		smlal	r8, r9, r5, r3
 393:./Libraries/CMSIS/DSP/Source/FilteringFunctions/arm_conv_fast_q31.c ****                         ((q63_t) *px++ * (*py--))) >> 32);
 847              		.loc 1 393 45 view .LVU332
 848 03d0 9046     		mov	r8, r2
 849 03d2 8B69     		ldr	r3, [r1, #24]
ARM GAS  /tmp/ccdklRyK.s 			page 27


 850              	.LVL93:
 851              		.loc 1 395 45 view .LVU333
 852 03d4 50F8145C 		ldr	r5, [r0, #-20]
 853              	.LVL94:
 393:./Libraries/CMSIS/DSP/Source/FilteringFunctions/arm_conv_fast_q31.c ****                         ((q63_t) *px++ * (*py--))) >> 32);
 854              		.loc 1 393 45 view .LVU334
 855 03d8 C3FB0C89 		smlal	r8, r9, r3, ip
 856              		.loc 1 395 45 view .LVU335
 857 03dc 4A69     		ldr	r2, [r1, #20]
 858 03de D046     		mov	r8, r10
 859 03e0 C2FB0589 		smlal	r8, r9, r2, r5
 860              		.loc 1 395 13 view .LVU336
 861 03e4 4D46     		mov	r5, r9
 862              	.LVL95:
 396:./Libraries/CMSIS/DSP/Source/FilteringFunctions/arm_conv_fast_q31.c ****                         ((q63_t) *px++ * (*py--))) >> 32);
 397:./Libraries/CMSIS/DSP/Source/FilteringFunctions/arm_conv_fast_q31.c **** 
 398:./Libraries/CMSIS/DSP/Source/FilteringFunctions/arm_conv_fast_q31.c ****         /* Decrement loop counter */
 399:./Libraries/CMSIS/DSP/Source/FilteringFunctions/arm_conv_fast_q31.c ****         k--;
 863              		.loc 1 399 9 is_stmt 1 view .LVU337
 386:./Libraries/CMSIS/DSP/Source/FilteringFunctions/arm_conv_fast_q31.c ****       {
 864              		.loc 1 386 13 view .LVU338
 865 03e6 D8D1     		bne	.L20
 866 03e8 069B     		ldr	r3, [sp, #24]
 867 03ea 9E44     		add	lr, lr, r3
 400:./Libraries/CMSIS/DSP/Source/FilteringFunctions/arm_conv_fast_q31.c ****       }
 401:./Libraries/CMSIS/DSP/Source/FilteringFunctions/arm_conv_fast_q31.c **** 
 402:./Libraries/CMSIS/DSP/Source/FilteringFunctions/arm_conv_fast_q31.c ****       /* If the srcBLen is not a multiple of 4, compute any remaining MACs here.
 403:./Libraries/CMSIS/DSP/Source/FilteringFunctions/arm_conv_fast_q31.c ****        ** No loop unrolling is used. */
 404:./Libraries/CMSIS/DSP/Source/FilteringFunctions/arm_conv_fast_q31.c ****       k = srcBLen % 0x4U;
 868              		.loc 1 404 7 view .LVU339
 869              	.LVL96:
 405:./Libraries/CMSIS/DSP/Source/FilteringFunctions/arm_conv_fast_q31.c **** 
 406:./Libraries/CMSIS/DSP/Source/FilteringFunctions/arm_conv_fast_q31.c ****       while (k > 0U)
 870              		.loc 1 406 7 view .LVU340
 871              		.loc 1 406 13 view .LVU341
 872 03ec 089B     		ldr	r3, [sp, #32]
 873 03ee 7BB1     		cbz	r3, .L21
 874 03f0 0A9B     		ldr	r3, [sp, #40]
 396:./Libraries/CMSIS/DSP/Source/FilteringFunctions/arm_conv_fast_q31.c **** 
 875              		.loc 1 396 46 is_stmt 0 view .LVU342
 876 03f2 0C99     		ldr	r1, [sp, #48]
 877 03f4 0EEB0300 		add	r0, lr, r3
 878 03f8 8446     		mov	ip, r0
 879              	.LVL97:
 880              	.L22:
 407:./Libraries/CMSIS/DSP/Source/FilteringFunctions/arm_conv_fast_q31.c ****       {
 408:./Libraries/CMSIS/DSP/Source/FilteringFunctions/arm_conv_fast_q31.c ****         /* Perform the multiply-accumulate */
 409:./Libraries/CMSIS/DSP/Source/FilteringFunctions/arm_conv_fast_q31.c ****         sum = (q31_t) ((((q63_t) sum << 32) +
 881              		.loc 1 409 9 is_stmt 1 view .LVU343
 882              		.loc 1 409 45 is_stmt 0 view .LVU344
 883 03fa 5EF8040B 		ldr	r0, [lr], #4
 884              	.LVL98:
 885              		.loc 1 409 38 view .LVU345
 886 03fe 2B46     		mov	r3, r5
 887 0400 0022     		movs	r2, #0
 888              		.loc 1 409 45 view .LVU346
 889 0402 51F80449 		ldr	r4, [r1], #-4
ARM GAS  /tmp/ccdklRyK.s 			page 28


 890              	.LVL99:
 406:./Libraries/CMSIS/DSP/Source/FilteringFunctions/arm_conv_fast_q31.c ****       {
 891              		.loc 1 406 13 view .LVU347
 892 0406 E645     		cmp	lr, ip
 893              		.loc 1 409 45 view .LVU348
 894 0408 C4FB0023 		smlal	r2, r3, r4, r0
 895              		.loc 1 409 13 view .LVU349
 896 040c 1D46     		mov	r5, r3
 897              	.LVL100:
 410:./Libraries/CMSIS/DSP/Source/FilteringFunctions/arm_conv_fast_q31.c ****                         ((q63_t) *px++ * (*py--))) >> 32);
 411:./Libraries/CMSIS/DSP/Source/FilteringFunctions/arm_conv_fast_q31.c **** 
 412:./Libraries/CMSIS/DSP/Source/FilteringFunctions/arm_conv_fast_q31.c ****         /* Decrement loop counter */
 413:./Libraries/CMSIS/DSP/Source/FilteringFunctions/arm_conv_fast_q31.c ****         k--;
 898              		.loc 1 413 9 is_stmt 1 view .LVU350
 406:./Libraries/CMSIS/DSP/Source/FilteringFunctions/arm_conv_fast_q31.c ****       {
 899              		.loc 1 406 13 view .LVU351
 900 040e F4D1     		bne	.L22
 901              	.LVL101:
 902              	.L21:
 414:./Libraries/CMSIS/DSP/Source/FilteringFunctions/arm_conv_fast_q31.c ****       }
 415:./Libraries/CMSIS/DSP/Source/FilteringFunctions/arm_conv_fast_q31.c **** 
 416:./Libraries/CMSIS/DSP/Source/FilteringFunctions/arm_conv_fast_q31.c ****       /* Store the result in the accumulator in the destination buffer. */
 417:./Libraries/CMSIS/DSP/Source/FilteringFunctions/arm_conv_fast_q31.c ****       *pOut++ = sum << 1;
 903              		.loc 1 417 7 view .LVU352
 418:./Libraries/CMSIS/DSP/Source/FilteringFunctions/arm_conv_fast_q31.c **** 
 419:./Libraries/CMSIS/DSP/Source/FilteringFunctions/arm_conv_fast_q31.c ****       /* Increment MAC count */
 420:./Libraries/CMSIS/DSP/Source/FilteringFunctions/arm_conv_fast_q31.c ****       count++;
 421:./Libraries/CMSIS/DSP/Source/FilteringFunctions/arm_conv_fast_q31.c **** 
 422:./Libraries/CMSIS/DSP/Source/FilteringFunctions/arm_conv_fast_q31.c ****       /* Update the inputA and inputB pointers for next MAC calculation */
 423:./Libraries/CMSIS/DSP/Source/FilteringFunctions/arm_conv_fast_q31.c ****       px = pIn1 + count;
 904              		.loc 1 423 10 is_stmt 0 view .LVU353
 905 0410 009B     		ldr	r3, [sp]
 417:./Libraries/CMSIS/DSP/Source/FilteringFunctions/arm_conv_fast_q31.c **** 
 906              		.loc 1 417 21 view .LVU354
 907 0412 6D00     		lsls	r5, r5, #1
 376:./Libraries/CMSIS/DSP/Source/FilteringFunctions/arm_conv_fast_q31.c ****     {
 908              		.loc 1 376 11 view .LVU355
 909 0414 029A     		ldr	r2, [sp, #8]
 910              		.loc 1 423 10 view .LVU356
 911 0416 9E46     		mov	lr, r3
 912              	.LVL102:
 913              		.loc 1 423 10 view .LVU357
 914 0418 0433     		adds	r3, r3, #4
 915 041a 0093     		str	r3, [sp]
 417:./Libraries/CMSIS/DSP/Source/FilteringFunctions/arm_conv_fast_q31.c **** 
 916              		.loc 1 417 15 view .LVU358
 917 041c 469B     		ldr	r3, [sp, #280]
 918 041e 43F8045B 		str	r5, [r3], #4
 919              	.LVL103:
 376:./Libraries/CMSIS/DSP/Source/FilteringFunctions/arm_conv_fast_q31.c ****     {
 920              		.loc 1 376 11 view .LVU359
 921 0422 9342     		cmp	r3, r2
 417:./Libraries/CMSIS/DSP/Source/FilteringFunctions/arm_conv_fast_q31.c **** 
 922              		.loc 1 417 15 view .LVU360
 923 0424 4693     		str	r3, [sp, #280]
 420:./Libraries/CMSIS/DSP/Source/FilteringFunctions/arm_conv_fast_q31.c **** 
 924              		.loc 1 420 7 is_stmt 1 view .LVU361
ARM GAS  /tmp/ccdklRyK.s 			page 29


 925              		.loc 1 423 7 view .LVU362
 424:./Libraries/CMSIS/DSP/Source/FilteringFunctions/arm_conv_fast_q31.c ****       py = pSrc2;
 926              		.loc 1 424 7 view .LVU363
 425:./Libraries/CMSIS/DSP/Source/FilteringFunctions/arm_conv_fast_q31.c **** 
 426:./Libraries/CMSIS/DSP/Source/FilteringFunctions/arm_conv_fast_q31.c ****       /* Decrement loop counter */
 427:./Libraries/CMSIS/DSP/Source/FilteringFunctions/arm_conv_fast_q31.c ****       blkCnt--;
 927              		.loc 1 427 7 view .LVU364
 376:./Libraries/CMSIS/DSP/Source/FilteringFunctions/arm_conv_fast_q31.c ****     {
 928              		.loc 1 376 11 view .LVU365
 929 0426 B3D1     		bne	.L23
 930 0428 9446     		mov	ip, r2
 931              	.LVL104:
 932              	.L19:
 428:./Libraries/CMSIS/DSP/Source/FilteringFunctions/arm_conv_fast_q31.c ****     }
 429:./Libraries/CMSIS/DSP/Source/FilteringFunctions/arm_conv_fast_q31.c ****   }
 430:./Libraries/CMSIS/DSP/Source/FilteringFunctions/arm_conv_fast_q31.c ****   else
 431:./Libraries/CMSIS/DSP/Source/FilteringFunctions/arm_conv_fast_q31.c ****   {
 432:./Libraries/CMSIS/DSP/Source/FilteringFunctions/arm_conv_fast_q31.c ****     /* If the srcBLen is not a multiple of 4,
 433:./Libraries/CMSIS/DSP/Source/FilteringFunctions/arm_conv_fast_q31.c ****      * the blockSize2 loop cannot be unrolled by 4 */
 434:./Libraries/CMSIS/DSP/Source/FilteringFunctions/arm_conv_fast_q31.c ****     blkCnt = blockSize2;
 435:./Libraries/CMSIS/DSP/Source/FilteringFunctions/arm_conv_fast_q31.c **** 
 436:./Libraries/CMSIS/DSP/Source/FilteringFunctions/arm_conv_fast_q31.c ****     while (blkCnt > 0U)
 437:./Libraries/CMSIS/DSP/Source/FilteringFunctions/arm_conv_fast_q31.c ****     {
 438:./Libraries/CMSIS/DSP/Source/FilteringFunctions/arm_conv_fast_q31.c ****       /* Accumulator is made zero for every iteration */
 439:./Libraries/CMSIS/DSP/Source/FilteringFunctions/arm_conv_fast_q31.c ****       sum = 0;
 440:./Libraries/CMSIS/DSP/Source/FilteringFunctions/arm_conv_fast_q31.c **** 
 441:./Libraries/CMSIS/DSP/Source/FilteringFunctions/arm_conv_fast_q31.c ****       /* srcBLen number of MACS should be performed */
 442:./Libraries/CMSIS/DSP/Source/FilteringFunctions/arm_conv_fast_q31.c ****       k = srcBLen;
 443:./Libraries/CMSIS/DSP/Source/FilteringFunctions/arm_conv_fast_q31.c **** 
 444:./Libraries/CMSIS/DSP/Source/FilteringFunctions/arm_conv_fast_q31.c ****       while (k > 0U)
 445:./Libraries/CMSIS/DSP/Source/FilteringFunctions/arm_conv_fast_q31.c ****       {
 446:./Libraries/CMSIS/DSP/Source/FilteringFunctions/arm_conv_fast_q31.c ****         /* Perform the multiply-accumulate */
 447:./Libraries/CMSIS/DSP/Source/FilteringFunctions/arm_conv_fast_q31.c ****         sum = (q31_t) ((((q63_t) sum << 32) +
 448:./Libraries/CMSIS/DSP/Source/FilteringFunctions/arm_conv_fast_q31.c ****                         ((q63_t) *px++ * (*py--))) >> 32);
 449:./Libraries/CMSIS/DSP/Source/FilteringFunctions/arm_conv_fast_q31.c **** 
 450:./Libraries/CMSIS/DSP/Source/FilteringFunctions/arm_conv_fast_q31.c ****         /* Decrement loop counter */
 451:./Libraries/CMSIS/DSP/Source/FilteringFunctions/arm_conv_fast_q31.c ****         k--;
 452:./Libraries/CMSIS/DSP/Source/FilteringFunctions/arm_conv_fast_q31.c ****       }
 453:./Libraries/CMSIS/DSP/Source/FilteringFunctions/arm_conv_fast_q31.c **** 
 454:./Libraries/CMSIS/DSP/Source/FilteringFunctions/arm_conv_fast_q31.c ****       /* Store the result in the accumulator in the destination buffer. */
 455:./Libraries/CMSIS/DSP/Source/FilteringFunctions/arm_conv_fast_q31.c ****       *pOut++ = sum << 1;
 456:./Libraries/CMSIS/DSP/Source/FilteringFunctions/arm_conv_fast_q31.c **** 
 457:./Libraries/CMSIS/DSP/Source/FilteringFunctions/arm_conv_fast_q31.c ****       /* Increment MAC count */
 458:./Libraries/CMSIS/DSP/Source/FilteringFunctions/arm_conv_fast_q31.c ****       count++;
 459:./Libraries/CMSIS/DSP/Source/FilteringFunctions/arm_conv_fast_q31.c **** 
 460:./Libraries/CMSIS/DSP/Source/FilteringFunctions/arm_conv_fast_q31.c ****       /* Update the inputA and inputB pointers for next MAC calculation */
 461:./Libraries/CMSIS/DSP/Source/FilteringFunctions/arm_conv_fast_q31.c ****       px = pIn1 + count;
 462:./Libraries/CMSIS/DSP/Source/FilteringFunctions/arm_conv_fast_q31.c ****       py = pSrc2;
 463:./Libraries/CMSIS/DSP/Source/FilteringFunctions/arm_conv_fast_q31.c **** 
 464:./Libraries/CMSIS/DSP/Source/FilteringFunctions/arm_conv_fast_q31.c ****       /* Decrement loop counter */
 465:./Libraries/CMSIS/DSP/Source/FilteringFunctions/arm_conv_fast_q31.c ****       blkCnt--;
 466:./Libraries/CMSIS/DSP/Source/FilteringFunctions/arm_conv_fast_q31.c ****     }
 467:./Libraries/CMSIS/DSP/Source/FilteringFunctions/arm_conv_fast_q31.c ****   }
 468:./Libraries/CMSIS/DSP/Source/FilteringFunctions/arm_conv_fast_q31.c **** 
 469:./Libraries/CMSIS/DSP/Source/FilteringFunctions/arm_conv_fast_q31.c **** 
 470:./Libraries/CMSIS/DSP/Source/FilteringFunctions/arm_conv_fast_q31.c ****   /* --------------------------
 471:./Libraries/CMSIS/DSP/Source/FilteringFunctions/arm_conv_fast_q31.c ****    * Initializations of stage3
ARM GAS  /tmp/ccdklRyK.s 			page 30


 472:./Libraries/CMSIS/DSP/Source/FilteringFunctions/arm_conv_fast_q31.c ****    * -------------------------*/
 473:./Libraries/CMSIS/DSP/Source/FilteringFunctions/arm_conv_fast_q31.c **** 
 474:./Libraries/CMSIS/DSP/Source/FilteringFunctions/arm_conv_fast_q31.c ****   /* sum += x[srcALen-srcBLen+1] * y[srcBLen-1] + x[srcALen-srcBLen+2] * y[srcBLen-2] +...+ x[srcAL
 475:./Libraries/CMSIS/DSP/Source/FilteringFunctions/arm_conv_fast_q31.c ****    * sum += x[srcALen-srcBLen+2] * y[srcBLen-1] + x[srcALen-srcBLen+3] * y[srcBLen-2] +...+ x[srcAL
 476:./Libraries/CMSIS/DSP/Source/FilteringFunctions/arm_conv_fast_q31.c ****    * ....
 477:./Libraries/CMSIS/DSP/Source/FilteringFunctions/arm_conv_fast_q31.c ****    * sum +=  x[srcALen-2] * y[srcBLen-1] + x[srcALen-1] * y[srcBLen-2]
 478:./Libraries/CMSIS/DSP/Source/FilteringFunctions/arm_conv_fast_q31.c ****    * sum +=  x[srcALen-1] * y[srcBLen-1]
 479:./Libraries/CMSIS/DSP/Source/FilteringFunctions/arm_conv_fast_q31.c ****    */
 480:./Libraries/CMSIS/DSP/Source/FilteringFunctions/arm_conv_fast_q31.c **** 
 481:./Libraries/CMSIS/DSP/Source/FilteringFunctions/arm_conv_fast_q31.c ****   /* In this stage the MAC operations are decreased by 1 for every iteration.
 482:./Libraries/CMSIS/DSP/Source/FilteringFunctions/arm_conv_fast_q31.c ****      The blockSize3 variable holds the number of MAC operations performed */
 483:./Libraries/CMSIS/DSP/Source/FilteringFunctions/arm_conv_fast_q31.c **** 
 484:./Libraries/CMSIS/DSP/Source/FilteringFunctions/arm_conv_fast_q31.c ****   /* Working pointer of inputA */
 485:./Libraries/CMSIS/DSP/Source/FilteringFunctions/arm_conv_fast_q31.c ****   pSrc1 = (pIn1 + srcALen) - (srcBLen - 1U);
 933              		.loc 1 485 3 view .LVU366
 934              		.loc 1 485 9 is_stmt 0 view .LVU367
 935 042a 1F9B     		ldr	r3, [sp, #124]
 936 042c 309A     		ldr	r2, [sp, #192]
 937 042e CDF810C0 		str	ip, [sp, #16]
 938 0432 03EB8203 		add	r3, r3, r2, lsl #2
 939 0436 DDE93667 		ldrd	r6, [sp, #216]
 940 043a 1F93     		str	r3, [sp, #124]
 941              	.LVL105:
 486:./Libraries/CMSIS/DSP/Source/FilteringFunctions/arm_conv_fast_q31.c ****   px = pSrc1;
 942              		.loc 1 486 3 is_stmt 1 view .LVU368
 487:./Libraries/CMSIS/DSP/Source/FilteringFunctions/arm_conv_fast_q31.c **** 
 488:./Libraries/CMSIS/DSP/Source/FilteringFunctions/arm_conv_fast_q31.c ****   /* Working pointer of inputB */
 489:./Libraries/CMSIS/DSP/Source/FilteringFunctions/arm_conv_fast_q31.c ****   pSrc2 = pIn2 + (srcBLen - 1U);
 943              		.loc 1 489 3 view .LVU369
 490:./Libraries/CMSIS/DSP/Source/FilteringFunctions/arm_conv_fast_q31.c ****   py = pSrc2;
 944              		.loc 1 490 3 view .LVU370
 491:./Libraries/CMSIS/DSP/Source/FilteringFunctions/arm_conv_fast_q31.c **** 
 492:./Libraries/CMSIS/DSP/Source/FilteringFunctions/arm_conv_fast_q31.c ****   /* -------------------
 493:./Libraries/CMSIS/DSP/Source/FilteringFunctions/arm_conv_fast_q31.c ****    * Stage3 process
 494:./Libraries/CMSIS/DSP/Source/FilteringFunctions/arm_conv_fast_q31.c ****    * ------------------*/
 495:./Libraries/CMSIS/DSP/Source/FilteringFunctions/arm_conv_fast_q31.c **** 
 496:./Libraries/CMSIS/DSP/Source/FilteringFunctions/arm_conv_fast_q31.c ****   while (blockSize3 > 0U)
 945              		.loc 1 496 3 view .LVU371
 946              		.loc 1 496 9 view .LVU372
 947              	.L32:
 497:./Libraries/CMSIS/DSP/Source/FilteringFunctions/arm_conv_fast_q31.c ****   {
 498:./Libraries/CMSIS/DSP/Source/FilteringFunctions/arm_conv_fast_q31.c ****     /* Accumulator is made zero for every iteration */
 499:./Libraries/CMSIS/DSP/Source/FilteringFunctions/arm_conv_fast_q31.c ****     sum = 0;
 948              		.loc 1 499 5 view .LVU373
 500:./Libraries/CMSIS/DSP/Source/FilteringFunctions/arm_conv_fast_q31.c **** 
 501:./Libraries/CMSIS/DSP/Source/FilteringFunctions/arm_conv_fast_q31.c ****     /* Apply loop unrolling and compute 4 MACs simultaneously. */
 502:./Libraries/CMSIS/DSP/Source/FilteringFunctions/arm_conv_fast_q31.c ****     k = blockSize3 >> 2U;
 949              		.loc 1 502 5 view .LVU374
 503:./Libraries/CMSIS/DSP/Source/FilteringFunctions/arm_conv_fast_q31.c **** 
 504:./Libraries/CMSIS/DSP/Source/FilteringFunctions/arm_conv_fast_q31.c ****     /* First part of the processing with loop unrolling.  Compute 4 MACs at a time.
 505:./Libraries/CMSIS/DSP/Source/FilteringFunctions/arm_conv_fast_q31.c ****      ** a second loop below computes MACs for the remaining 1 to 3 samples. */
 506:./Libraries/CMSIS/DSP/Source/FilteringFunctions/arm_conv_fast_q31.c ****     while (k > 0U)
 950              		.loc 1 506 5 view .LVU375
 951              		.loc 1 506 11 view .LVU376
 952 043c 229B     		ldr	r3, [sp, #136]
 953 043e 9D08     		lsrs	r5, r3, #2
 954              	.LVL106:
ARM GAS  /tmp/ccdklRyK.s 			page 31


 955              		.loc 1 506 11 is_stmt 0 view .LVU377
 956 0440 70D0     		beq	.L41
 957              	.LVL107:
 958              	.L73:
 959              		.loc 1 506 11 view .LVU378
 960 0442 1F9B     		ldr	r3, [sp, #124]
 961              	.LVL108:
 499:./Libraries/CMSIS/DSP/Source/FilteringFunctions/arm_conv_fast_q31.c **** 
 962              		.loc 1 499 9 view .LVU379
 963 0444 4FF0000C 		mov	ip, #0
 964 0448 AE46     		mov	lr, r5
 965 044a 0295     		str	r5, [sp, #8]
 966 044c 03F11000 		add	r0, r3, #16
 967 0450 249B     		ldr	r3, [sp, #144]
 968 0452 A3F11001 		sub	r1, r3, #16
 969 0456 CDE90067 		strd	r6, [sp]
 970              	.LVL109:
 971              	.L29:
 507:./Libraries/CMSIS/DSP/Source/FilteringFunctions/arm_conv_fast_q31.c ****     {
 508:./Libraries/CMSIS/DSP/Source/FilteringFunctions/arm_conv_fast_q31.c ****       /* Perform the multiply-accumulate */
 509:./Libraries/CMSIS/DSP/Source/FilteringFunctions/arm_conv_fast_q31.c ****       /* sum += x[srcALen - srcBLen + 1] * y[srcBLen - 1] */
 510:./Libraries/CMSIS/DSP/Source/FilteringFunctions/arm_conv_fast_q31.c ****       sum = (q31_t) ((((q63_t) sum << 32) +
 972              		.loc 1 510 7 is_stmt 1 view .LVU380
 511:./Libraries/CMSIS/DSP/Source/FilteringFunctions/arm_conv_fast_q31.c ****                       ((q63_t) *px++ * (*py--))) >> 32);
 512:./Libraries/CMSIS/DSP/Source/FilteringFunctions/arm_conv_fast_q31.c **** 
 513:./Libraries/CMSIS/DSP/Source/FilteringFunctions/arm_conv_fast_q31.c ****       /* sum += x[srcALen - srcBLen + 2] * y[srcBLen - 2] */
 514:./Libraries/CMSIS/DSP/Source/FilteringFunctions/arm_conv_fast_q31.c ****       sum = (q31_t) ((((q63_t) sum << 32) +
 973              		.loc 1 514 7 view .LVU381
 515:./Libraries/CMSIS/DSP/Source/FilteringFunctions/arm_conv_fast_q31.c ****                       ((q63_t) *px++ * (*py--))) >> 32);
 516:./Libraries/CMSIS/DSP/Source/FilteringFunctions/arm_conv_fast_q31.c **** 
 517:./Libraries/CMSIS/DSP/Source/FilteringFunctions/arm_conv_fast_q31.c ****       /* sum += x[srcALen - srcBLen + 3] * y[srcBLen - 3] */
 518:./Libraries/CMSIS/DSP/Source/FilteringFunctions/arm_conv_fast_q31.c ****       sum = (q31_t) ((((q63_t) sum << 32) +
 974              		.loc 1 518 7 view .LVU382
 519:./Libraries/CMSIS/DSP/Source/FilteringFunctions/arm_conv_fast_q31.c ****                       ((q63_t) *px++ * (*py--))) >> 32);
 520:./Libraries/CMSIS/DSP/Source/FilteringFunctions/arm_conv_fast_q31.c **** 
 521:./Libraries/CMSIS/DSP/Source/FilteringFunctions/arm_conv_fast_q31.c ****       /* sum += x[srcALen - srcBLen + 4] * y[srcBLen - 4] */
 522:./Libraries/CMSIS/DSP/Source/FilteringFunctions/arm_conv_fast_q31.c ****       sum = (q31_t) ((((q63_t) sum << 32) +
 975              		.loc 1 522 7 view .LVU383
 510:./Libraries/CMSIS/DSP/Source/FilteringFunctions/arm_conv_fast_q31.c ****                       ((q63_t) *px++ * (*py--))) >> 32);
 976              		.loc 1 510 36 is_stmt 0 view .LVU384
 977 045a 0022     		movs	r2, #0
 510:./Libraries/CMSIS/DSP/Source/FilteringFunctions/arm_conv_fast_q31.c ****                       ((q63_t) *px++ * (*py--))) >> 32);
 978              		.loc 1 510 43 view .LVU385
 979 045c 50F8106C 		ldr	r6, [r0, #-16]
 980 0460 0F69     		ldr	r7, [r1, #16]
 981 0462 E146     		mov	r9, ip
 982 0464 9046     		mov	r8, r2
 514:./Libraries/CMSIS/DSP/Source/FilteringFunctions/arm_conv_fast_q31.c ****                       ((q63_t) *px++ * (*py--))) >> 32);
 983              		.loc 1 514 43 view .LVU386
 984 0466 50F80C3C 		ldr	r3, [r0, #-12]
 518:./Libraries/CMSIS/DSP/Source/FilteringFunctions/arm_conv_fast_q31.c ****                       ((q63_t) *px++ * (*py--))) >> 32);
 985              		.loc 1 518 43 view .LVU387
 986 046a 50F808CC 		ldr	ip, [r0, #-8]
 987              	.LVL110:
 514:./Libraries/CMSIS/DSP/Source/FilteringFunctions/arm_conv_fast_q31.c ****                       ((q63_t) *px++ * (*py--))) >> 32);
 988              		.loc 1 514 36 view .LVU388
 989 046e 1446     		mov	r4, r2
ARM GAS  /tmp/ccdklRyK.s 			page 32


 510:./Libraries/CMSIS/DSP/Source/FilteringFunctions/arm_conv_fast_q31.c ****                       ((q63_t) *px++ * (*py--))) >> 32);
 990              		.loc 1 510 43 view .LVU389
 991 0470 C7FB0689 		smlal	r8, r9, r7, r6
 514:./Libraries/CMSIS/DSP/Source/FilteringFunctions/arm_conv_fast_q31.c ****                       ((q63_t) *px++ * (*py--))) >> 32);
 992              		.loc 1 514 43 view .LVU390
 993 0474 CE68     		ldr	r6, [r1, #12]
 994 0476 1746     		mov	r7, r2
 995 0478 C846     		mov	r8, r9
 996              		.loc 1 522 36 view .LVU391
 997 047a 0092     		str	r2, [sp]
 514:./Libraries/CMSIS/DSP/Source/FilteringFunctions/arm_conv_fast_q31.c ****                       ((q63_t) *px++ * (*py--))) >> 32);
 998              		.loc 1 514 36 view .LVU392
 999 047c 4D46     		mov	r5, r9
 514:./Libraries/CMSIS/DSP/Source/FilteringFunctions/arm_conv_fast_q31.c ****                       ((q63_t) *px++ * (*py--))) >> 32);
 1000              		.loc 1 514 43 view .LVU393
 1001 047e C6FB0378 		smlal	r7, r8, r6, r3
 1002 0482 4346     		mov	r3, r8
 518:./Libraries/CMSIS/DSP/Source/FilteringFunctions/arm_conv_fast_q31.c ****                       ((q63_t) *px++ * (*py--))) >> 32);
 1003              		.loc 1 518 43 view .LVU394
 1004 0484 1646     		mov	r6, r2
 1005              		.loc 1 522 43 view .LVU395
 1006 0486 50F8048C 		ldr	r8, [r0, #-4]
 518:./Libraries/CMSIS/DSP/Source/FilteringFunctions/arm_conv_fast_q31.c ****                       ((q63_t) *px++ * (*py--))) >> 32);
 1007              		.loc 1 518 43 view .LVU396
 1008 048a 1F46     		mov	r7, r3
 1009 048c 8B68     		ldr	r3, [r1, #8]
 1010              		.loc 1 522 43 view .LVU397
 1011 048e 4A68     		ldr	r2, [r1, #4]
 1012 0490 1030     		adds	r0, r0, #16
 1013              	.LVL111:
 518:./Libraries/CMSIS/DSP/Source/FilteringFunctions/arm_conv_fast_q31.c ****                       ((q63_t) *px++ * (*py--))) >> 32);
 1014              		.loc 1 518 43 view .LVU398
 1015 0492 C3FB0C67 		smlal	r6, r7, r3, ip
 506:./Libraries/CMSIS/DSP/Source/FilteringFunctions/arm_conv_fast_q31.c ****     {
 1016              		.loc 1 506 11 view .LVU399
 1017 0496 029B     		ldr	r3, [sp, #8]
 1018              		.loc 1 522 36 view .LVU400
 1019 0498 0197     		str	r7, [sp, #4]
 1020 049a 1039     		subs	r1, r1, #16
 1021              	.LVL112:
 506:./Libraries/CMSIS/DSP/Source/FilteringFunctions/arm_conv_fast_q31.c ****     {
 1022              		.loc 1 506 11 view .LVU401
 1023 049c 013B     		subs	r3, r3, #1
 1024              		.loc 1 522 43 view .LVU402
 1025 049e DDE90067 		ldrd	r6, [sp]
 506:./Libraries/CMSIS/DSP/Source/FilteringFunctions/arm_conv_fast_q31.c ****     {
 1026              		.loc 1 506 11 view .LVU403
 1027 04a2 0293     		str	r3, [sp, #8]
 1028              	.LVL113:
 1029              		.loc 1 522 43 view .LVU404
 1030 04a4 C2FB0867 		smlal	r6, r7, r2, r8
 1031              		.loc 1 522 11 view .LVU405
 1032 04a8 BC46     		mov	ip, r7
 1033              	.LVL114:
 523:./Libraries/CMSIS/DSP/Source/FilteringFunctions/arm_conv_fast_q31.c ****                       ((q63_t) *px++ * (*py--))) >> 32);
 524:./Libraries/CMSIS/DSP/Source/FilteringFunctions/arm_conv_fast_q31.c **** 
 525:./Libraries/CMSIS/DSP/Source/FilteringFunctions/arm_conv_fast_q31.c ****       /* Decrement loop counter */
ARM GAS  /tmp/ccdklRyK.s 			page 33


 526:./Libraries/CMSIS/DSP/Source/FilteringFunctions/arm_conv_fast_q31.c ****       k--;
 1034              		.loc 1 526 7 is_stmt 1 view .LVU406
 506:./Libraries/CMSIS/DSP/Source/FilteringFunctions/arm_conv_fast_q31.c ****     {
 1035              		.loc 1 506 11 view .LVU407
 1036 04aa D6D1     		bne	.L29
 1037 04ac 1F9B     		ldr	r3, [sp, #124]
 1038 04ae CEEB0E71 		rsb	r1, lr, lr, lsl #28
 1039              	.LVL115:
 506:./Libraries/CMSIS/DSP/Source/FilteringFunctions/arm_conv_fast_q31.c ****     {
 1040              		.loc 1 506 11 is_stmt 0 view .LVU408
 1041 04b2 CDE92645 		strd	r4, [sp, #152]
 1042 04b6 03EB0E15 		add	r5, r3, lr, lsl #4
 1043 04ba 249B     		ldr	r3, [sp, #144]
 1044 04bc 03EB0111 		add	r1, r3, r1, lsl #4
 527:./Libraries/CMSIS/DSP/Source/FilteringFunctions/arm_conv_fast_q31.c ****     }
 528:./Libraries/CMSIS/DSP/Source/FilteringFunctions/arm_conv_fast_q31.c **** 
 529:./Libraries/CMSIS/DSP/Source/FilteringFunctions/arm_conv_fast_q31.c ****     /* If the blockSize3 is not a multiple of 4, compute any remaining MACs here.
 530:./Libraries/CMSIS/DSP/Source/FilteringFunctions/arm_conv_fast_q31.c ****      ** No loop unrolling is used. */
 531:./Libraries/CMSIS/DSP/Source/FilteringFunctions/arm_conv_fast_q31.c ****     k = blockSize3 % 0x4U;
 1045              		.loc 1 531 5 is_stmt 1 view .LVU409
 1046              	.LVL116:
 532:./Libraries/CMSIS/DSP/Source/FilteringFunctions/arm_conv_fast_q31.c **** 
 533:./Libraries/CMSIS/DSP/Source/FilteringFunctions/arm_conv_fast_q31.c ****     while (k > 0U)
 1047              		.loc 1 533 5 view .LVU410
 1048              		.loc 1 533 11 view .LVU411
 1049 04c0 229B     		ldr	r3, [sp, #136]
 1050 04c2 13F00300 		ands	r0, r3, #3
 1051              	.LVL117:
 1052              		.loc 1 533 11 is_stmt 0 view .LVU412
 1053 04c6 DDE90067 		ldrd	r6, [sp]
 1054 04ca 1CD0     		beq	.L72
 1055              	.LVL118:
 1056              	.L28:
 1057              		.loc 1 533 11 view .LVU413
 1058 04cc 05EB8000 		add	r0, r5, r0, lsl #2
 1059 04d0 8646     		mov	lr, r0
 1060              	.L31:
 1061              	.LVL119:
 534:./Libraries/CMSIS/DSP/Source/FilteringFunctions/arm_conv_fast_q31.c ****     {
 535:./Libraries/CMSIS/DSP/Source/FilteringFunctions/arm_conv_fast_q31.c ****       /* Perform the multiply-accumulate */
 536:./Libraries/CMSIS/DSP/Source/FilteringFunctions/arm_conv_fast_q31.c ****       sum = (q31_t) ((((q63_t) sum << 32) +
 1062              		.loc 1 536 7 is_stmt 1 view .LVU414
 1063              		.loc 1 536 43 is_stmt 0 view .LVU415
 1064 04d2 55F8040B 		ldr	r0, [r5], #4
 1065              	.LVL120:
 1066              		.loc 1 536 36 view .LVU416
 1067 04d6 6346     		mov	r3, ip
 1068 04d8 0022     		movs	r2, #0
 1069              		.loc 1 536 43 view .LVU417
 1070 04da 51F80449 		ldr	r4, [r1], #-4
 1071              	.LVL121:
 533:./Libraries/CMSIS/DSP/Source/FilteringFunctions/arm_conv_fast_q31.c ****     {
 1072              		.loc 1 533 11 view .LVU418
 1073 04de 7545     		cmp	r5, lr
 1074              		.loc 1 536 43 view .LVU419
 1075 04e0 C4FB0023 		smlal	r2, r3, r4, r0
 1076              		.loc 1 536 11 view .LVU420
ARM GAS  /tmp/ccdklRyK.s 			page 34


 1077 04e4 9C46     		mov	ip, r3
 1078              	.LVL122:
 537:./Libraries/CMSIS/DSP/Source/FilteringFunctions/arm_conv_fast_q31.c ****                       ((q63_t) *px++ * (*py--))) >> 32);
 538:./Libraries/CMSIS/DSP/Source/FilteringFunctions/arm_conv_fast_q31.c **** 
 539:./Libraries/CMSIS/DSP/Source/FilteringFunctions/arm_conv_fast_q31.c ****       /* Decrement loop counter */
 540:./Libraries/CMSIS/DSP/Source/FilteringFunctions/arm_conv_fast_q31.c ****       k--;
 1079              		.loc 1 540 7 is_stmt 1 view .LVU421
 533:./Libraries/CMSIS/DSP/Source/FilteringFunctions/arm_conv_fast_q31.c ****     {
 1080              		.loc 1 533 11 view .LVU422
 1081 04e6 F4D1     		bne	.L31
 541:./Libraries/CMSIS/DSP/Source/FilteringFunctions/arm_conv_fast_q31.c ****     }
 542:./Libraries/CMSIS/DSP/Source/FilteringFunctions/arm_conv_fast_q31.c **** 
 543:./Libraries/CMSIS/DSP/Source/FilteringFunctions/arm_conv_fast_q31.c ****     /* Store the result in the accumulator in the destination buffer. */
 544:./Libraries/CMSIS/DSP/Source/FilteringFunctions/arm_conv_fast_q31.c ****     *pOut++ = sum << 1;
 1082              		.loc 1 544 5 view .LVU423
 1083              	.LVL123:
 545:./Libraries/CMSIS/DSP/Source/FilteringFunctions/arm_conv_fast_q31.c **** 
 546:./Libraries/CMSIS/DSP/Source/FilteringFunctions/arm_conv_fast_q31.c ****     /* Update the inputA and inputB pointers for next MAC calculation */
 547:./Libraries/CMSIS/DSP/Source/FilteringFunctions/arm_conv_fast_q31.c ****     px = ++pSrc1;
 1084              		.loc 1 547 8 is_stmt 0 view .LVU424
 1085 04e8 1F9A     		ldr	r2, [sp, #124]
 544:./Libraries/CMSIS/DSP/Source/FilteringFunctions/arm_conv_fast_q31.c **** 
 1086              		.loc 1 544 19 view .LVU425
 1087 04ea 5B00     		lsls	r3, r3, #1
 1088              		.loc 1 547 8 view .LVU426
 1089 04ec 0432     		adds	r2, r2, #4
 1090 04ee 1F92     		str	r2, [sp, #124]
 1091              	.LVL124:
 544:./Libraries/CMSIS/DSP/Source/FilteringFunctions/arm_conv_fast_q31.c **** 
 1092              		.loc 1 544 13 view .LVU427
 1093 04f0 049A     		ldr	r2, [sp, #16]
 1094 04f2 42F8043B 		str	r3, [r2], #4
 1095              	.LVL125:
 496:./Libraries/CMSIS/DSP/Source/FilteringFunctions/arm_conv_fast_q31.c ****   {
 1096              		.loc 1 496 9 view .LVU428
 1097 04f6 229B     		ldr	r3, [sp, #136]
 544:./Libraries/CMSIS/DSP/Source/FilteringFunctions/arm_conv_fast_q31.c **** 
 1098              		.loc 1 544 13 view .LVU429
 1099 04f8 0492     		str	r2, [sp, #16]
 1100              		.loc 1 547 5 is_stmt 1 view .LVU430
 1101              	.LVL126:
 548:./Libraries/CMSIS/DSP/Source/FilteringFunctions/arm_conv_fast_q31.c ****     py = pSrc2;
 1102              		.loc 1 548 5 view .LVU431
 549:./Libraries/CMSIS/DSP/Source/FilteringFunctions/arm_conv_fast_q31.c **** 
 550:./Libraries/CMSIS/DSP/Source/FilteringFunctions/arm_conv_fast_q31.c ****     /* Decrement loop counter */
 551:./Libraries/CMSIS/DSP/Source/FilteringFunctions/arm_conv_fast_q31.c ****     blockSize3--;
 1103              		.loc 1 551 5 view .LVU432
 496:./Libraries/CMSIS/DSP/Source/FilteringFunctions/arm_conv_fast_q31.c ****   {
 1104              		.loc 1 496 9 view .LVU433
 1105 04fa 013B     		subs	r3, r3, #1
 1106              	.LVL127:
 496:./Libraries/CMSIS/DSP/Source/FilteringFunctions/arm_conv_fast_q31.c ****   {
 1107              		.loc 1 496 9 is_stmt 0 view .LVU434
 1108 04fc 2293     		str	r3, [sp, #136]
 1109 04fe 9DD1     		bne	.L32
 1110              	.LVL128:
 1111              	.L1:
ARM GAS  /tmp/ccdklRyK.s 			page 35


 552:./Libraries/CMSIS/DSP/Source/FilteringFunctions/arm_conv_fast_q31.c ****   }
 553:./Libraries/CMSIS/DSP/Source/FilteringFunctions/arm_conv_fast_q31.c **** 
 554:./Libraries/CMSIS/DSP/Source/FilteringFunctions/arm_conv_fast_q31.c **** }
 1112              		.loc 1 554 1 view .LVU435
 1113 0500 3DB0     		add	sp, sp, #244
 1114              	.LCFI2:
 1115              		.cfi_remember_state
 1116              		.cfi_def_cfa_offset 36
 1117              		@ sp needed
 1118 0502 BDE8F08F 		pop	{r4, r5, r6, r7, r8, r9, r10, fp, pc}
 1119              	.LVL129:
 1120              	.L72:
 1121              	.LCFI3:
 1122              		.cfi_restore_state
 544:./Libraries/CMSIS/DSP/Source/FilteringFunctions/arm_conv_fast_q31.c **** 
 1123              		.loc 1 544 5 is_stmt 1 view .LVU436
 547:./Libraries/CMSIS/DSP/Source/FilteringFunctions/arm_conv_fast_q31.c ****     py = pSrc2;
 1124              		.loc 1 547 8 is_stmt 0 view .LVU437
 1125 0506 1F9A     		ldr	r2, [sp, #124]
 544:./Libraries/CMSIS/DSP/Source/FilteringFunctions/arm_conv_fast_q31.c **** 
 1126              		.loc 1 544 19 view .LVU438
 1127 0508 4FEA4C03 		lsl	r3, ip, #1
 547:./Libraries/CMSIS/DSP/Source/FilteringFunctions/arm_conv_fast_q31.c ****     py = pSrc2;
 1128              		.loc 1 547 8 view .LVU439
 1129 050c 0432     		adds	r2, r2, #4
 1130 050e 1F92     		str	r2, [sp, #124]
 1131              	.LVL130:
 551:./Libraries/CMSIS/DSP/Source/FilteringFunctions/arm_conv_fast_q31.c ****   }
 1132              		.loc 1 551 15 view .LVU440
 1133 0510 229A     		ldr	r2, [sp, #136]
 1134 0512 013A     		subs	r2, r2, #1
 1135 0514 2292     		str	r2, [sp, #136]
 1136              	.LVL131:
 544:./Libraries/CMSIS/DSP/Source/FilteringFunctions/arm_conv_fast_q31.c **** 
 1137              		.loc 1 544 13 view .LVU441
 1138 0516 049A     		ldr	r2, [sp, #16]
 1139 0518 42F8043B 		str	r3, [r2], #4
 1140              	.LVL132:
 506:./Libraries/CMSIS/DSP/Source/FilteringFunctions/arm_conv_fast_q31.c ****     {
 1141              		.loc 1 506 11 view .LVU442
 1142 051c 229B     		ldr	r3, [sp, #136]
 544:./Libraries/CMSIS/DSP/Source/FilteringFunctions/arm_conv_fast_q31.c **** 
 1143              		.loc 1 544 13 view .LVU443
 1144 051e 0492     		str	r2, [sp, #16]
 547:./Libraries/CMSIS/DSP/Source/FilteringFunctions/arm_conv_fast_q31.c ****     py = pSrc2;
 1145              		.loc 1 547 5 is_stmt 1 view .LVU444
 1146              	.LVL133:
 548:./Libraries/CMSIS/DSP/Source/FilteringFunctions/arm_conv_fast_q31.c **** 
 1147              		.loc 1 548 5 view .LVU445
 551:./Libraries/CMSIS/DSP/Source/FilteringFunctions/arm_conv_fast_q31.c ****   }
 1148              		.loc 1 551 5 view .LVU446
 496:./Libraries/CMSIS/DSP/Source/FilteringFunctions/arm_conv_fast_q31.c ****   {
 1149              		.loc 1 496 9 view .LVU447
 499:./Libraries/CMSIS/DSP/Source/FilteringFunctions/arm_conv_fast_q31.c **** 
 1150              		.loc 1 499 5 view .LVU448
 502:./Libraries/CMSIS/DSP/Source/FilteringFunctions/arm_conv_fast_q31.c **** 
 1151              		.loc 1 502 5 view .LVU449
ARM GAS  /tmp/ccdklRyK.s 			page 36


 506:./Libraries/CMSIS/DSP/Source/FilteringFunctions/arm_conv_fast_q31.c ****     {
 1152              		.loc 1 506 5 view .LVU450
 506:./Libraries/CMSIS/DSP/Source/FilteringFunctions/arm_conv_fast_q31.c ****     {
 1153              		.loc 1 506 11 view .LVU451
 1154 0520 9D08     		lsrs	r5, r3, #2
 1155              	.LVL134:
 506:./Libraries/CMSIS/DSP/Source/FilteringFunctions/arm_conv_fast_q31.c ****     {
 1156              		.loc 1 506 11 is_stmt 0 view .LVU452
 1157 0522 8ED1     		bne	.L73
 1158              	.LVL135:
 1159              	.L41:
 499:./Libraries/CMSIS/DSP/Source/FilteringFunctions/arm_conv_fast_q31.c **** 
 1160              		.loc 1 499 9 view .LVU453
 1161 0524 AC46     		mov	ip, r5
 506:./Libraries/CMSIS/DSP/Source/FilteringFunctions/arm_conv_fast_q31.c ****     {
 1162              		.loc 1 506 11 view .LVU454
 1163 0526 2499     		ldr	r1, [sp, #144]
 1164 0528 2298     		ldr	r0, [sp, #136]
 1165 052a 1F9D     		ldr	r5, [sp, #124]
 1166              	.LVL136:
 506:./Libraries/CMSIS/DSP/Source/FilteringFunctions/arm_conv_fast_q31.c ****     {
 1167              		.loc 1 506 11 view .LVU455
 1168 052c CEE7     		b	.L28
 1169              	.LVL137:
 1170              	.L69:
 436:./Libraries/CMSIS/DSP/Source/FilteringFunctions/arm_conv_fast_q31.c ****     {
 1171              		.loc 1 436 11 is_stmt 1 view .LVU456
 1172 052e 309B     		ldr	r3, [sp, #192]
 1173 0530 002B     		cmp	r3, #0
 1174 0532 3CD0     		beq	.L74
 1175              	.LVL138:
 1176              	.L33:
 436:./Libraries/CMSIS/DSP/Source/FilteringFunctions/arm_conv_fast_q31.c ****     {
 1177              		.loc 1 436 11 is_stmt 0 view .LVU457
 1178 0534 289F     		ldr	r7, [sp, #160]
 1179 0536 1F9B     		ldr	r3, [sp, #124]
 1180              	.LVL139:
 436:./Libraries/CMSIS/DSP/Source/FilteringFunctions/arm_conv_fast_q31.c ****     {
 1181              		.loc 1 436 11 view .LVU458
 1182 0538 469A     		ldr	r2, [sp, #280]
 1183 053a C7EB8776 		rsb	r6, r7, r7, lsl #30
 1184 053e 03EB8705 		add	r5, r3, r7, lsl #2
 1185 0542 309B     		ldr	r3, [sp, #192]
 1186 0544 B600     		lsls	r6, r6, #2
 1187 0546 DDF890E0 		ldr	lr, [sp, #144]
 1188 054a 4FEA8308 		lsl	r8, r3, #2
 1189 054e 1446     		mov	r4, r2
 1190 0550 02EB830C 		add	ip, r2, r3, lsl #2
 1191              	.LVL140:
 1192              	.L12:
 436:./Libraries/CMSIS/DSP/Source/FilteringFunctions/arm_conv_fast_q31.c ****     {
 1193              		.loc 1 436 11 view .LVU459
 1194 0554 7119     		adds	r1, r6, r5
 1195              	.LVL141:
 444:./Libraries/CMSIS/DSP/Source/FilteringFunctions/arm_conv_fast_q31.c ****       {
 1196              		.loc 1 444 13 is_stmt 1 view .LVU460
 1197 0556 F7B1     		cbz	r7, .L75
ARM GAS  /tmp/ccdklRyK.s 			page 37


 1198 0558 F146     		mov	r9, lr
 439:./Libraries/CMSIS/DSP/Source/FilteringFunctions/arm_conv_fast_q31.c **** 
 1199              		.loc 1 439 11 is_stmt 0 view .LVU461
 1200 055a 0020     		movs	r0, #0
 1201              	.LVL142:
 1202              	.L24:
 447:./Libraries/CMSIS/DSP/Source/FilteringFunctions/arm_conv_fast_q31.c ****                         ((q63_t) *px++ * (*py--))) >> 32);
 1203              		.loc 1 447 9 is_stmt 1 view .LVU462
 447:./Libraries/CMSIS/DSP/Source/FilteringFunctions/arm_conv_fast_q31.c ****                         ((q63_t) *px++ * (*py--))) >> 32);
 1204              		.loc 1 447 45 is_stmt 0 view .LVU463
 1205 055c 51F804BB 		ldr	fp, [r1], #4
 1206              	.LVL143:
 447:./Libraries/CMSIS/DSP/Source/FilteringFunctions/arm_conv_fast_q31.c ****                         ((q63_t) *px++ * (*py--))) >> 32);
 1207              		.loc 1 447 38 view .LVU464
 1208 0560 0346     		mov	r3, r0
 1209 0562 0022     		movs	r2, #0
 447:./Libraries/CMSIS/DSP/Source/FilteringFunctions/arm_conv_fast_q31.c ****                         ((q63_t) *px++ * (*py--))) >> 32);
 1210              		.loc 1 447 45 view .LVU465
 1211 0564 59F804A9 		ldr	r10, [r9], #-4
 1212              	.LVL144:
 444:./Libraries/CMSIS/DSP/Source/FilteringFunctions/arm_conv_fast_q31.c ****       {
 1213              		.loc 1 444 13 view .LVU466
 1214 0568 A942     		cmp	r1, r5
 447:./Libraries/CMSIS/DSP/Source/FilteringFunctions/arm_conv_fast_q31.c ****                         ((q63_t) *px++ * (*py--))) >> 32);
 1215              		.loc 1 447 45 view .LVU467
 1216 056a CAFB0B23 		smlal	r2, r3, r10, fp
 447:./Libraries/CMSIS/DSP/Source/FilteringFunctions/arm_conv_fast_q31.c ****                         ((q63_t) *px++ * (*py--))) >> 32);
 1217              		.loc 1 447 13 view .LVU468
 1218 056e 1846     		mov	r0, r3
 1219              	.LVL145:
 451:./Libraries/CMSIS/DSP/Source/FilteringFunctions/arm_conv_fast_q31.c ****       }
 1220              		.loc 1 451 9 is_stmt 1 view .LVU469
 444:./Libraries/CMSIS/DSP/Source/FilteringFunctions/arm_conv_fast_q31.c ****       {
 1221              		.loc 1 444 13 view .LVU470
 1222 0570 F4D1     		bne	.L24
 1223 0572 5800     		lsls	r0, r3, #1
 1224              	.LVL146:
 1225              	.L27:
 455:./Libraries/CMSIS/DSP/Source/FilteringFunctions/arm_conv_fast_q31.c **** 
 1226              		.loc 1 455 7 view .LVU471
 455:./Libraries/CMSIS/DSP/Source/FilteringFunctions/arm_conv_fast_q31.c **** 
 1227              		.loc 1 455 15 is_stmt 0 view .LVU472
 1228 0574 44F8040B 		str	r0, [r4], #4
 1229              	.LVL147:
 458:./Libraries/CMSIS/DSP/Source/FilteringFunctions/arm_conv_fast_q31.c **** 
 1230              		.loc 1 458 7 is_stmt 1 view .LVU473
 461:./Libraries/CMSIS/DSP/Source/FilteringFunctions/arm_conv_fast_q31.c ****       py = pSrc2;
 1231              		.loc 1 461 7 view .LVU474
 462:./Libraries/CMSIS/DSP/Source/FilteringFunctions/arm_conv_fast_q31.c **** 
 1232              		.loc 1 462 7 view .LVU475
 465:./Libraries/CMSIS/DSP/Source/FilteringFunctions/arm_conv_fast_q31.c ****     }
 1233              		.loc 1 465 7 view .LVU476
 436:./Libraries/CMSIS/DSP/Source/FilteringFunctions/arm_conv_fast_q31.c ****     {
 1234              		.loc 1 436 11 view .LVU477
 1235 0578 6445     		cmp	r4, ip
 1236 057a 05F10405 		add	r5, r5, #4
 1237 057e E9D1     		bne	.L12
ARM GAS  /tmp/ccdklRyK.s 			page 38


 1238              	.LVL148:
 485:./Libraries/CMSIS/DSP/Source/FilteringFunctions/arm_conv_fast_q31.c ****   px = pSrc1;
 1239              		.loc 1 485 3 view .LVU478
 485:./Libraries/CMSIS/DSP/Source/FilteringFunctions/arm_conv_fast_q31.c ****   px = pSrc1;
 1240              		.loc 1 485 9 is_stmt 0 view .LVU479
 1241 0580 1F9B     		ldr	r3, [sp, #124]
 1242 0582 4344     		add	r3, r3, r8
 1243 0584 1F93     		str	r3, [sp, #124]
 1244              	.LVL149:
 486:./Libraries/CMSIS/DSP/Source/FilteringFunctions/arm_conv_fast_q31.c **** 
 1245              		.loc 1 486 3 is_stmt 1 view .LVU480
 489:./Libraries/CMSIS/DSP/Source/FilteringFunctions/arm_conv_fast_q31.c ****   py = pSrc2;
 1246              		.loc 1 489 3 view .LVU481
 490:./Libraries/CMSIS/DSP/Source/FilteringFunctions/arm_conv_fast_q31.c **** 
 1247              		.loc 1 490 3 view .LVU482
 496:./Libraries/CMSIS/DSP/Source/FilteringFunctions/arm_conv_fast_q31.c ****   {
 1248              		.loc 1 496 3 view .LVU483
 496:./Libraries/CMSIS/DSP/Source/FilteringFunctions/arm_conv_fast_q31.c ****   {
 1249              		.loc 1 496 9 view .LVU484
 1250 0586 229B     		ldr	r3, [sp, #136]
 1251              	.LVL150:
 496:./Libraries/CMSIS/DSP/Source/FilteringFunctions/arm_conv_fast_q31.c ****   {
 1252              		.loc 1 496 9 is_stmt 0 view .LVU485
 1253 0588 002B     		cmp	r3, #0
 1254 058a B9D0     		beq	.L1
 1255 058c CDF810C0 		str	ip, [sp, #16]
 1256 0590 DDE93667 		ldrd	r6, [sp, #216]
 1257 0594 52E7     		b	.L32
 1258              	.LVL151:
 1259              	.L75:
 444:./Libraries/CMSIS/DSP/Source/FilteringFunctions/arm_conv_fast_q31.c ****       {
 1260              		.loc 1 444 13 view .LVU486
 1261 0596 3846     		mov	r0, r7
 1262 0598 ECE7     		b	.L27
 1263              	.LVL152:
 1264              	.L36:
 218:./Libraries/CMSIS/DSP/Source/FilteringFunctions/arm_conv_fast_q31.c **** 
 1265              		.loc 1 218 6 view .LVU487
 1266 059a DDF87CE0 		ldr	lr, [sp, #124]
 1267 059e CCE6     		b	.L13
 1268              	.LVL153:
 1269              	.L39:
 376:./Libraries/CMSIS/DSP/Source/FilteringFunctions/arm_conv_fast_q31.c ****     {
 1270              		.loc 1 376 11 view .LVU488
 1271 05a0 DDF818C1 		ldr	ip, [sp, #280]
 1272              	.LVL154:
 376:./Libraries/CMSIS/DSP/Source/FilteringFunctions/arm_conv_fast_q31.c ****     {
 1273              		.loc 1 376 11 view .LVU489
 1274 05a4 41E7     		b	.L19
 1275              	.LVL155:
 1276              	.L3:
 218:./Libraries/CMSIS/DSP/Source/FilteringFunctions/arm_conv_fast_q31.c **** 
 1277              		.loc 1 218 3 is_stmt 1 view .LVU490
 221:./Libraries/CMSIS/DSP/Source/FilteringFunctions/arm_conv_fast_q31.c ****   py = pSrc2;
 1278              		.loc 1 221 3 view .LVU491
 222:./Libraries/CMSIS/DSP/Source/FilteringFunctions/arm_conv_fast_q31.c **** 
 1279              		.loc 1 222 3 view .LVU492
ARM GAS  /tmp/ccdklRyK.s 			page 39


 225:./Libraries/CMSIS/DSP/Source/FilteringFunctions/arm_conv_fast_q31.c **** 
 1280              		.loc 1 225 3 view .LVU493
 234:./Libraries/CMSIS/DSP/Source/FilteringFunctions/arm_conv_fast_q31.c ****   {
 1281              		.loc 1 234 3 view .LVU494
 436:./Libraries/CMSIS/DSP/Source/FilteringFunctions/arm_conv_fast_q31.c ****     {
 1282              		.loc 1 436 11 view .LVU495
 1283 05a6 309B     		ldr	r3, [sp, #192]
 1284 05a8 002B     		cmp	r3, #0
 1285 05aa C3D1     		bne	.L33
 1286 05ac A8E7     		b	.L1
 1287              	.LVL156:
 1288              	.L74:
 194:./Libraries/CMSIS/DSP/Source/FilteringFunctions/arm_conv_fast_q31.c **** 
 1289              		.loc 1 194 10 is_stmt 0 view .LVU496
 1290 05ae DDF818C1 		ldr	ip, [sp, #280]
 1291              	.LVL157:
 194:./Libraries/CMSIS/DSP/Source/FilteringFunctions/arm_conv_fast_q31.c **** 
 1292              		.loc 1 194 10 view .LVU497
 1293 05b2 DDE93667 		ldrd	r6, [sp, #216]
 1294 05b6 CDF810C0 		str	ip, [sp, #16]
 1295 05ba 3FE7     		b	.L32
 1296              	.LVL158:
 1297              	.L35:
 150:./Libraries/CMSIS/DSP/Source/FilteringFunctions/arm_conv_fast_q31.c **** 
 1298              		.loc 1 150 9 view .LVU498
 1299 05bc 3C46     		mov	r4, r7
 157:./Libraries/CMSIS/DSP/Source/FilteringFunctions/arm_conv_fast_q31.c ****     {
 1300              		.loc 1 157 11 view .LVU499
 1301 05be 1F9F     		ldr	r7, [sp, #124]
 1302              	.LVL159:
 157:./Libraries/CMSIS/DSP/Source/FilteringFunctions/arm_conv_fast_q31.c ****     {
 1303              		.loc 1 157 11 view .LVU500
 1304 05c0 97E5     		b	.L5
 1305              		.cfi_endproc
 1306              	.LFE145:
 1308 05c2 00BF     		.text
 1309              	.Letext0:
 1310              		.file 2 "/usr/lib/gcc/arm-none-eabi/9.2.1/include/stdint.h"
 1311              		.file 3 "/usr/lib/gcc/arm-none-eabi/9.2.1/include/stddef.h"
 1312              		.file 4 "/usr/include/newlib/sys/_types.h"
 1313              		.file 5 "/usr/include/newlib/sys/reent.h"
 1314              		.file 6 "/usr/include/newlib/sys/lock.h"
 1315              		.file 7 "/usr/include/newlib/math.h"
 1316              		.file 8 "./Libraries/CMSIS/DSP/Include/arm_math.h"
ARM GAS  /tmp/ccdklRyK.s 			page 40

