ARM GAS  /var/folders/wl/rshn8xbx1dsfj1zgryf4g1240000gn/T//ccd9gZiV.s 			page 1


   1              		.cpu cortex-m7
   2              		.eabi_attribute 28, 1
   3              		.eabi_attribute 20, 1
   4              		.eabi_attribute 21, 1
   5              		.eabi_attribute 23, 3
   6              		.eabi_attribute 24, 1
   7              		.eabi_attribute 25, 1
   8              		.eabi_attribute 26, 1
   9              		.eabi_attribute 30, 2
  10              		.eabi_attribute 34, 1
  11              		.eabi_attribute 18, 4
  12              		.file	"arm_mult_q31.c"
  13              		.text
  14              	.Ltext0:
  15              		.cfi_sections	.debug_frame
  16              		.section	.text.arm_mult_q31,"ax",%progbits
  17              		.align	1
  18              		.p2align 2,,3
  19              		.global	arm_mult_q31
  20              		.arch armv7e-m
  21              		.syntax unified
  22              		.thumb
  23              		.thumb_func
  24              		.fpu fpv5-d16
  26              	arm_mult_q31:
  27              	.LVL0:
  28              	.LFB145:
  29              		.file 1 ".//Libraries/CMSIS/DSP/Source/BasicMathFunctions/arm_mult_q31.c"
   1:.//Libraries/CMSIS/DSP/Source/BasicMathFunctions/arm_mult_q31.c **** /* ----------------------------------------------------------------------
   2:.//Libraries/CMSIS/DSP/Source/BasicMathFunctions/arm_mult_q31.c ****  * Project:      CMSIS DSP Library
   3:.//Libraries/CMSIS/DSP/Source/BasicMathFunctions/arm_mult_q31.c ****  * Title:        arm_mult_q31.c
   4:.//Libraries/CMSIS/DSP/Source/BasicMathFunctions/arm_mult_q31.c ****  * Description:  Q31 vector multiplication
   5:.//Libraries/CMSIS/DSP/Source/BasicMathFunctions/arm_mult_q31.c ****  *
   6:.//Libraries/CMSIS/DSP/Source/BasicMathFunctions/arm_mult_q31.c ****  * $Date:        18. March 2019
   7:.//Libraries/CMSIS/DSP/Source/BasicMathFunctions/arm_mult_q31.c ****  * $Revision:    V1.6.0
   8:.//Libraries/CMSIS/DSP/Source/BasicMathFunctions/arm_mult_q31.c ****  *
   9:.//Libraries/CMSIS/DSP/Source/BasicMathFunctions/arm_mult_q31.c ****  * Target Processor: Cortex-M cores
  10:.//Libraries/CMSIS/DSP/Source/BasicMathFunctions/arm_mult_q31.c ****  * -------------------------------------------------------------------- */
  11:.//Libraries/CMSIS/DSP/Source/BasicMathFunctions/arm_mult_q31.c **** /*
  12:.//Libraries/CMSIS/DSP/Source/BasicMathFunctions/arm_mult_q31.c ****  * Copyright (C) 2010-2019 ARM Limited or its affiliates. All rights reserved.
  13:.//Libraries/CMSIS/DSP/Source/BasicMathFunctions/arm_mult_q31.c ****  *
  14:.//Libraries/CMSIS/DSP/Source/BasicMathFunctions/arm_mult_q31.c ****  * SPDX-License-Identifier: Apache-2.0
  15:.//Libraries/CMSIS/DSP/Source/BasicMathFunctions/arm_mult_q31.c ****  *
  16:.//Libraries/CMSIS/DSP/Source/BasicMathFunctions/arm_mult_q31.c ****  * Licensed under the Apache License, Version 2.0 (the License); you may
  17:.//Libraries/CMSIS/DSP/Source/BasicMathFunctions/arm_mult_q31.c ****  * not use this file except in compliance with the License.
  18:.//Libraries/CMSIS/DSP/Source/BasicMathFunctions/arm_mult_q31.c ****  * You may obtain a copy of the License at
  19:.//Libraries/CMSIS/DSP/Source/BasicMathFunctions/arm_mult_q31.c ****  *
  20:.//Libraries/CMSIS/DSP/Source/BasicMathFunctions/arm_mult_q31.c ****  * www.apache.org/licenses/LICENSE-2.0
  21:.//Libraries/CMSIS/DSP/Source/BasicMathFunctions/arm_mult_q31.c ****  *
  22:.//Libraries/CMSIS/DSP/Source/BasicMathFunctions/arm_mult_q31.c ****  * Unless required by applicable law or agreed to in writing, software
  23:.//Libraries/CMSIS/DSP/Source/BasicMathFunctions/arm_mult_q31.c ****  * distributed under the License is distributed on an AS IS BASIS, WITHOUT
  24:.//Libraries/CMSIS/DSP/Source/BasicMathFunctions/arm_mult_q31.c ****  * WARRANTIES OR CONDITIONS OF ANY KIND, either express or implied.
  25:.//Libraries/CMSIS/DSP/Source/BasicMathFunctions/arm_mult_q31.c ****  * See the License for the specific language governing permissions and
  26:.//Libraries/CMSIS/DSP/Source/BasicMathFunctions/arm_mult_q31.c ****  * limitations under the License.
  27:.//Libraries/CMSIS/DSP/Source/BasicMathFunctions/arm_mult_q31.c ****  */
  28:.//Libraries/CMSIS/DSP/Source/BasicMathFunctions/arm_mult_q31.c **** 
  29:.//Libraries/CMSIS/DSP/Source/BasicMathFunctions/arm_mult_q31.c **** #include "arm_math.h"
ARM GAS  /var/folders/wl/rshn8xbx1dsfj1zgryf4g1240000gn/T//ccd9gZiV.s 			page 2


  30:.//Libraries/CMSIS/DSP/Source/BasicMathFunctions/arm_mult_q31.c **** 
  31:.//Libraries/CMSIS/DSP/Source/BasicMathFunctions/arm_mult_q31.c **** /**
  32:.//Libraries/CMSIS/DSP/Source/BasicMathFunctions/arm_mult_q31.c ****   @ingroup groupMath
  33:.//Libraries/CMSIS/DSP/Source/BasicMathFunctions/arm_mult_q31.c ****  */
  34:.//Libraries/CMSIS/DSP/Source/BasicMathFunctions/arm_mult_q31.c **** 
  35:.//Libraries/CMSIS/DSP/Source/BasicMathFunctions/arm_mult_q31.c **** /**
  36:.//Libraries/CMSIS/DSP/Source/BasicMathFunctions/arm_mult_q31.c ****   @addtogroup BasicMult
  37:.//Libraries/CMSIS/DSP/Source/BasicMathFunctions/arm_mult_q31.c ****   @{
  38:.//Libraries/CMSIS/DSP/Source/BasicMathFunctions/arm_mult_q31.c ****  */
  39:.//Libraries/CMSIS/DSP/Source/BasicMathFunctions/arm_mult_q31.c **** 
  40:.//Libraries/CMSIS/DSP/Source/BasicMathFunctions/arm_mult_q31.c **** /**
  41:.//Libraries/CMSIS/DSP/Source/BasicMathFunctions/arm_mult_q31.c ****   @brief         Q31 vector multiplication.
  42:.//Libraries/CMSIS/DSP/Source/BasicMathFunctions/arm_mult_q31.c ****   @param[in]     pSrcA      points to the first input vector.
  43:.//Libraries/CMSIS/DSP/Source/BasicMathFunctions/arm_mult_q31.c ****   @param[in]     pSrcB      points to the second input vector.
  44:.//Libraries/CMSIS/DSP/Source/BasicMathFunctions/arm_mult_q31.c ****   @param[out]    pDst       points to the output vector.
  45:.//Libraries/CMSIS/DSP/Source/BasicMathFunctions/arm_mult_q31.c ****   @param[in]     blockSize  number of samples in each vector.
  46:.//Libraries/CMSIS/DSP/Source/BasicMathFunctions/arm_mult_q31.c ****   @return        none
  47:.//Libraries/CMSIS/DSP/Source/BasicMathFunctions/arm_mult_q31.c **** 
  48:.//Libraries/CMSIS/DSP/Source/BasicMathFunctions/arm_mult_q31.c ****   @par           Scaling and Overflow Behavior
  49:.//Libraries/CMSIS/DSP/Source/BasicMathFunctions/arm_mult_q31.c ****                    The function uses saturating arithmetic.
  50:.//Libraries/CMSIS/DSP/Source/BasicMathFunctions/arm_mult_q31.c ****                    Results outside of the allowable Q31 range[0x80000000 0x7FFFFFFF] are saturated.
  51:.//Libraries/CMSIS/DSP/Source/BasicMathFunctions/arm_mult_q31.c ****  */
  52:.//Libraries/CMSIS/DSP/Source/BasicMathFunctions/arm_mult_q31.c **** 
  53:.//Libraries/CMSIS/DSP/Source/BasicMathFunctions/arm_mult_q31.c **** void arm_mult_q31(
  54:.//Libraries/CMSIS/DSP/Source/BasicMathFunctions/arm_mult_q31.c ****   const q31_t * pSrcA,
  55:.//Libraries/CMSIS/DSP/Source/BasicMathFunctions/arm_mult_q31.c ****   const q31_t * pSrcB,
  56:.//Libraries/CMSIS/DSP/Source/BasicMathFunctions/arm_mult_q31.c ****         q31_t * pDst,
  57:.//Libraries/CMSIS/DSP/Source/BasicMathFunctions/arm_mult_q31.c ****         uint32_t blockSize)
  58:.//Libraries/CMSIS/DSP/Source/BasicMathFunctions/arm_mult_q31.c **** {
  30              		.loc 1 58 1 view -0
  31              		.cfi_startproc
  32              		@ args = 0, pretend = 0, frame = 0
  33              		@ frame_needed = 0, uses_anonymous_args = 0
  34              		@ link register save eliminated.
  59:.//Libraries/CMSIS/DSP/Source/BasicMathFunctions/arm_mult_q31.c ****         uint32_t blkCnt;                               /* Loop counter */
  35              		.loc 1 59 9 view .LVU1
  60:.//Libraries/CMSIS/DSP/Source/BasicMathFunctions/arm_mult_q31.c ****         q31_t out;                                     /* Temporary output variable */
  36              		.loc 1 60 9 view .LVU2
  61:.//Libraries/CMSIS/DSP/Source/BasicMathFunctions/arm_mult_q31.c **** 
  62:.//Libraries/CMSIS/DSP/Source/BasicMathFunctions/arm_mult_q31.c **** #if defined (ARM_MATH_LOOPUNROLL)
  63:.//Libraries/CMSIS/DSP/Source/BasicMathFunctions/arm_mult_q31.c **** 
  64:.//Libraries/CMSIS/DSP/Source/BasicMathFunctions/arm_mult_q31.c ****   /* Loop unrolling: Compute 4 outputs at a time */
  65:.//Libraries/CMSIS/DSP/Source/BasicMathFunctions/arm_mult_q31.c ****   blkCnt = blockSize >> 2U;
  66:.//Libraries/CMSIS/DSP/Source/BasicMathFunctions/arm_mult_q31.c **** 
  67:.//Libraries/CMSIS/DSP/Source/BasicMathFunctions/arm_mult_q31.c ****   while (blkCnt > 0U)
  68:.//Libraries/CMSIS/DSP/Source/BasicMathFunctions/arm_mult_q31.c ****   {
  69:.//Libraries/CMSIS/DSP/Source/BasicMathFunctions/arm_mult_q31.c ****     /* C = A * B */
  70:.//Libraries/CMSIS/DSP/Source/BasicMathFunctions/arm_mult_q31.c **** 
  71:.//Libraries/CMSIS/DSP/Source/BasicMathFunctions/arm_mult_q31.c ****     /* Multiply inputs and store result in destination buffer. */
  72:.//Libraries/CMSIS/DSP/Source/BasicMathFunctions/arm_mult_q31.c ****     out = ((q63_t) *pSrcA++ * *pSrcB++) >> 32;
  73:.//Libraries/CMSIS/DSP/Source/BasicMathFunctions/arm_mult_q31.c ****     out = __SSAT(out, 31);
  74:.//Libraries/CMSIS/DSP/Source/BasicMathFunctions/arm_mult_q31.c ****     *pDst++ = out << 1U;
  75:.//Libraries/CMSIS/DSP/Source/BasicMathFunctions/arm_mult_q31.c **** 
  76:.//Libraries/CMSIS/DSP/Source/BasicMathFunctions/arm_mult_q31.c ****     out = ((q63_t) *pSrcA++ * *pSrcB++) >> 32;
  77:.//Libraries/CMSIS/DSP/Source/BasicMathFunctions/arm_mult_q31.c ****     out = __SSAT(out, 31);
  78:.//Libraries/CMSIS/DSP/Source/BasicMathFunctions/arm_mult_q31.c ****     *pDst++ = out << 1U;
  79:.//Libraries/CMSIS/DSP/Source/BasicMathFunctions/arm_mult_q31.c **** 
ARM GAS  /var/folders/wl/rshn8xbx1dsfj1zgryf4g1240000gn/T//ccd9gZiV.s 			page 3


  80:.//Libraries/CMSIS/DSP/Source/BasicMathFunctions/arm_mult_q31.c ****     out = ((q63_t) *pSrcA++ * *pSrcB++) >> 32;
  81:.//Libraries/CMSIS/DSP/Source/BasicMathFunctions/arm_mult_q31.c ****     out = __SSAT(out, 31);
  82:.//Libraries/CMSIS/DSP/Source/BasicMathFunctions/arm_mult_q31.c ****     *pDst++ = out << 1U;
  83:.//Libraries/CMSIS/DSP/Source/BasicMathFunctions/arm_mult_q31.c **** 
  84:.//Libraries/CMSIS/DSP/Source/BasicMathFunctions/arm_mult_q31.c ****     out = ((q63_t) *pSrcA++ * *pSrcB++) >> 32;
  85:.//Libraries/CMSIS/DSP/Source/BasicMathFunctions/arm_mult_q31.c ****     out = __SSAT(out, 31);
  86:.//Libraries/CMSIS/DSP/Source/BasicMathFunctions/arm_mult_q31.c ****     *pDst++ = out << 1U;
  87:.//Libraries/CMSIS/DSP/Source/BasicMathFunctions/arm_mult_q31.c **** 
  88:.//Libraries/CMSIS/DSP/Source/BasicMathFunctions/arm_mult_q31.c ****     /* Decrement loop counter */
  89:.//Libraries/CMSIS/DSP/Source/BasicMathFunctions/arm_mult_q31.c ****     blkCnt--;
  90:.//Libraries/CMSIS/DSP/Source/BasicMathFunctions/arm_mult_q31.c ****   }
  91:.//Libraries/CMSIS/DSP/Source/BasicMathFunctions/arm_mult_q31.c **** 
  92:.//Libraries/CMSIS/DSP/Source/BasicMathFunctions/arm_mult_q31.c ****   /* Loop unrolling: Compute remaining outputs */
  93:.//Libraries/CMSIS/DSP/Source/BasicMathFunctions/arm_mult_q31.c ****   blkCnt = blockSize % 0x4U;
  94:.//Libraries/CMSIS/DSP/Source/BasicMathFunctions/arm_mult_q31.c **** 
  95:.//Libraries/CMSIS/DSP/Source/BasicMathFunctions/arm_mult_q31.c **** #else
  96:.//Libraries/CMSIS/DSP/Source/BasicMathFunctions/arm_mult_q31.c **** 
  97:.//Libraries/CMSIS/DSP/Source/BasicMathFunctions/arm_mult_q31.c ****   /* Initialize blkCnt with number of samples */
  98:.//Libraries/CMSIS/DSP/Source/BasicMathFunctions/arm_mult_q31.c ****   blkCnt = blockSize;
  37              		.loc 1 98 3 view .LVU3
  99:.//Libraries/CMSIS/DSP/Source/BasicMathFunctions/arm_mult_q31.c **** 
 100:.//Libraries/CMSIS/DSP/Source/BasicMathFunctions/arm_mult_q31.c **** #endif /* #if defined (ARM_MATH_LOOPUNROLL) */
 101:.//Libraries/CMSIS/DSP/Source/BasicMathFunctions/arm_mult_q31.c **** 
 102:.//Libraries/CMSIS/DSP/Source/BasicMathFunctions/arm_mult_q31.c ****   while (blkCnt > 0U)
  38              		.loc 1 102 3 view .LVU4
  39              		.loc 1 102 9 view .LVU5
  40 0000 83B1     		cbz	r3, .L9
  58:.//Libraries/CMSIS/DSP/Source/BasicMathFunctions/arm_mult_q31.c ****         uint32_t blkCnt;                               /* Loop counter */
  41              		.loc 1 58 1 is_stmt 0 view .LVU6
  42 0002 30B4     		push	{r4, r5}
  43              	.LCFI0:
  44              		.cfi_def_cfa_offset 8
  45              		.cfi_offset 4, -8
  46              		.cfi_offset 5, -4
  47              	.LVL1:
  48              	.L3:
 103:.//Libraries/CMSIS/DSP/Source/BasicMathFunctions/arm_mult_q31.c ****   {
 104:.//Libraries/CMSIS/DSP/Source/BasicMathFunctions/arm_mult_q31.c ****     /* C = A * B */
 105:.//Libraries/CMSIS/DSP/Source/BasicMathFunctions/arm_mult_q31.c **** 
 106:.//Libraries/CMSIS/DSP/Source/BasicMathFunctions/arm_mult_q31.c ****     /* Multiply inputs and store result in destination buffer. */
 107:.//Libraries/CMSIS/DSP/Source/BasicMathFunctions/arm_mult_q31.c ****     out = ((q63_t) *pSrcA++ * *pSrcB++) >> 32;
  49              		.loc 1 107 5 is_stmt 1 view .LVU7
 108:.//Libraries/CMSIS/DSP/Source/BasicMathFunctions/arm_mult_q31.c ****     out = __SSAT(out, 31);
  50              		.loc 1 108 5 view .LVU8
  51              	.LBB2:
  52              		.loc 1 108 11 view .LVU9
  53              		.loc 1 108 11 view .LVU10
  54              	.LBE2:
 107:.//Libraries/CMSIS/DSP/Source/BasicMathFunctions/arm_mult_q31.c ****     out = __SSAT(out, 31);
  55              		.loc 1 107 29 is_stmt 0 view .LVU11
  56 0004 50F8044B 		ldr	r4, [r0], #4
  57              	.LVL2:
 102:.//Libraries/CMSIS/DSP/Source/BasicMathFunctions/arm_mult_q31.c ****   {
  58              		.loc 1 102 9 view .LVU12
  59 0008 013B     		subs	r3, r3, #1
  60              	.LVL3:
 107:.//Libraries/CMSIS/DSP/Source/BasicMathFunctions/arm_mult_q31.c ****     out = __SSAT(out, 31);
ARM GAS  /var/folders/wl/rshn8xbx1dsfj1zgryf4g1240000gn/T//ccd9gZiV.s 			page 4


  61              		.loc 1 107 29 view .LVU13
  62 000a 51F8045B 		ldr	r5, [r1], #4
  63              	.LVL4:
 107:.//Libraries/CMSIS/DSP/Source/BasicMathFunctions/arm_mult_q31.c ****     out = __SSAT(out, 31);
  64              		.loc 1 107 29 view .LVU14
  65 000e 84FB0545 		smull	r4, r5, r4, r5
  66              	.LBB3:
  67              		.loc 1 108 11 view .LVU15
  68              		.syntax unified
  69              	@ 108 ".//Libraries/CMSIS/DSP/Source/BasicMathFunctions/arm_mult_q31.c" 1
  70 0012 05F31E04 		ssat r4, #31, r5
  71              	@ 0 "" 2
  72              	.LVL5:
  73              		.loc 1 108 11 is_stmt 1 view .LVU16
  74              		.loc 1 108 11 is_stmt 0 view .LVU17
  75              		.thumb
  76              		.syntax unified
  77              	.LBE3:
 109:.//Libraries/CMSIS/DSP/Source/BasicMathFunctions/arm_mult_q31.c ****     *pDst++ = out << 1U;
  78              		.loc 1 109 5 is_stmt 1 view .LVU18
  79              		.loc 1 109 19 is_stmt 0 view .LVU19
  80 0016 4FEA4404 		lsl	r4, r4, #1
  81              	.LVL6:
  82              		.loc 1 109 13 view .LVU20
  83 001a 42F8044B 		str	r4, [r2], #4
  84              	.LVL7:
 110:.//Libraries/CMSIS/DSP/Source/BasicMathFunctions/arm_mult_q31.c **** 
 111:.//Libraries/CMSIS/DSP/Source/BasicMathFunctions/arm_mult_q31.c ****     /* Decrement loop counter */
 112:.//Libraries/CMSIS/DSP/Source/BasicMathFunctions/arm_mult_q31.c ****     blkCnt--;
  85              		.loc 1 112 5 is_stmt 1 view .LVU21
 102:.//Libraries/CMSIS/DSP/Source/BasicMathFunctions/arm_mult_q31.c ****   {
  86              		.loc 1 102 9 view .LVU22
  87 001e F1D1     		bne	.L3
 113:.//Libraries/CMSIS/DSP/Source/BasicMathFunctions/arm_mult_q31.c ****   }
 114:.//Libraries/CMSIS/DSP/Source/BasicMathFunctions/arm_mult_q31.c **** 
 115:.//Libraries/CMSIS/DSP/Source/BasicMathFunctions/arm_mult_q31.c **** }
  88              		.loc 1 115 1 is_stmt 0 view .LVU23
  89 0020 30BC     		pop	{r4, r5}
  90              	.LCFI1:
  91              		.cfi_restore 5
  92              		.cfi_restore 4
  93              		.cfi_def_cfa_offset 0
  94 0022 7047     		bx	lr
  95              	.LVL8:
  96              	.L9:
  97              		.loc 1 115 1 view .LVU24
  98 0024 7047     		bx	lr
  99              		.cfi_endproc
 100              	.LFE145:
 102 0026 00BF     		.text
 103              	.Letext0:
 104              		.file 2 "/opt/homebrew/Cellar/arm-none-eabi-gcc/9-2019-q4-major/gcc/arm-none-eabi/include/machine/
 105              		.file 3 "/opt/homebrew/Cellar/arm-none-eabi-gcc/9-2019-q4-major/gcc/arm-none-eabi/include/sys/_std
 106              		.file 4 "/opt/homebrew/Cellar/arm-none-eabi-gcc/9-2019-q4-major/gcc/arm-none-eabi/include/sys/lock
 107              		.file 5 "/opt/homebrew/Cellar/arm-none-eabi-gcc/9-2019-q4-major/gcc/arm-none-eabi/include/sys/_typ
 108              		.file 6 "/opt/homebrew/Cellar/arm-none-eabi-gcc/9-2019-q4-major/gcc/lib/gcc/arm-none-eabi/9.2.1/in
 109              		.file 7 "/opt/homebrew/Cellar/arm-none-eabi-gcc/9-2019-q4-major/gcc/arm-none-eabi/include/sys/reen
ARM GAS  /var/folders/wl/rshn8xbx1dsfj1zgryf4g1240000gn/T//ccd9gZiV.s 			page 5


 110              		.file 8 "/opt/homebrew/Cellar/arm-none-eabi-gcc/9-2019-q4-major/gcc/arm-none-eabi/include/math.h"
 111              		.file 9 ".//Libraries/CMSIS/DSP/Include/arm_math.h"
ARM GAS  /var/folders/wl/rshn8xbx1dsfj1zgryf4g1240000gn/T//ccd9gZiV.s 			page 6

