ARM GAS  /var/folders/wl/rshn8xbx1dsfj1zgryf4g1240000gn/T//ccZq5mAp.s 			page 1


   1              		.cpu cortex-m7
   2              		.eabi_attribute 28, 1
   3              		.eabi_attribute 20, 1
   4              		.eabi_attribute 21, 1
   5              		.eabi_attribute 23, 3
   6              		.eabi_attribute 24, 1
   7              		.eabi_attribute 25, 1
   8              		.eabi_attribute 26, 1
   9              		.eabi_attribute 30, 2
  10              		.eabi_attribute 34, 1
  11              		.eabi_attribute 18, 4
  12              		.file	"arm_cfft_radix2_q31.c"
  13              		.text
  14              	.Ltext0:
  15              		.cfi_sections	.debug_frame
  16              		.section	.text.arm_radix2_butterfly_q31,"ax",%progbits
  17              		.align	1
  18              		.p2align 2,,3
  19              		.global	arm_radix2_butterfly_q31
  20              		.arch armv7e-m
  21              		.syntax unified
  22              		.thumb
  23              		.thumb_func
  24              		.fpu fpv5-d16
  26              	arm_radix2_butterfly_q31:
  27              	.LVL0:
  28              	.LFB146:
  29              		.file 1 ".//Libraries/CMSIS/DSP/Source/TransformFunctions/arm_cfft_radix2_q31.c"
   1:.//Libraries/CMSIS/DSP/Source/TransformFunctions/arm_cfft_radix2_q31.c **** /* ----------------------------------------------------------------------
   2:.//Libraries/CMSIS/DSP/Source/TransformFunctions/arm_cfft_radix2_q31.c ****  * Project:      CMSIS DSP Library
   3:.//Libraries/CMSIS/DSP/Source/TransformFunctions/arm_cfft_radix2_q31.c ****  * Title:        arm_cfft_radix2_q31.c
   4:.//Libraries/CMSIS/DSP/Source/TransformFunctions/arm_cfft_radix2_q31.c ****  * Description:  Radix-2 Decimation in Frequency CFFT & CIFFT Fixed point processing function
   5:.//Libraries/CMSIS/DSP/Source/TransformFunctions/arm_cfft_radix2_q31.c ****  *
   6:.//Libraries/CMSIS/DSP/Source/TransformFunctions/arm_cfft_radix2_q31.c ****  * $Date:        18. March 2019
   7:.//Libraries/CMSIS/DSP/Source/TransformFunctions/arm_cfft_radix2_q31.c ****  * $Revision:    V1.6.0
   8:.//Libraries/CMSIS/DSP/Source/TransformFunctions/arm_cfft_radix2_q31.c ****  *
   9:.//Libraries/CMSIS/DSP/Source/TransformFunctions/arm_cfft_radix2_q31.c ****  * Target Processor: Cortex-M cores
  10:.//Libraries/CMSIS/DSP/Source/TransformFunctions/arm_cfft_radix2_q31.c ****  * -------------------------------------------------------------------- */
  11:.//Libraries/CMSIS/DSP/Source/TransformFunctions/arm_cfft_radix2_q31.c **** /*
  12:.//Libraries/CMSIS/DSP/Source/TransformFunctions/arm_cfft_radix2_q31.c ****  * Copyright (C) 2010-2019 ARM Limited or its affiliates. All rights reserved.
  13:.//Libraries/CMSIS/DSP/Source/TransformFunctions/arm_cfft_radix2_q31.c ****  *
  14:.//Libraries/CMSIS/DSP/Source/TransformFunctions/arm_cfft_radix2_q31.c ****  * SPDX-License-Identifier: Apache-2.0
  15:.//Libraries/CMSIS/DSP/Source/TransformFunctions/arm_cfft_radix2_q31.c ****  *
  16:.//Libraries/CMSIS/DSP/Source/TransformFunctions/arm_cfft_radix2_q31.c ****  * Licensed under the Apache License, Version 2.0 (the License); you may
  17:.//Libraries/CMSIS/DSP/Source/TransformFunctions/arm_cfft_radix2_q31.c ****  * not use this file except in compliance with the License.
  18:.//Libraries/CMSIS/DSP/Source/TransformFunctions/arm_cfft_radix2_q31.c ****  * You may obtain a copy of the License at
  19:.//Libraries/CMSIS/DSP/Source/TransformFunctions/arm_cfft_radix2_q31.c ****  *
  20:.//Libraries/CMSIS/DSP/Source/TransformFunctions/arm_cfft_radix2_q31.c ****  * www.apache.org/licenses/LICENSE-2.0
  21:.//Libraries/CMSIS/DSP/Source/TransformFunctions/arm_cfft_radix2_q31.c ****  *
  22:.//Libraries/CMSIS/DSP/Source/TransformFunctions/arm_cfft_radix2_q31.c ****  * Unless required by applicable law or agreed to in writing, software
  23:.//Libraries/CMSIS/DSP/Source/TransformFunctions/arm_cfft_radix2_q31.c ****  * distributed under the License is distributed on an AS IS BASIS, WITHOUT
  24:.//Libraries/CMSIS/DSP/Source/TransformFunctions/arm_cfft_radix2_q31.c ****  * WARRANTIES OR CONDITIONS OF ANY KIND, either express or implied.
  25:.//Libraries/CMSIS/DSP/Source/TransformFunctions/arm_cfft_radix2_q31.c ****  * See the License for the specific language governing permissions and
  26:.//Libraries/CMSIS/DSP/Source/TransformFunctions/arm_cfft_radix2_q31.c ****  * limitations under the License.
  27:.//Libraries/CMSIS/DSP/Source/TransformFunctions/arm_cfft_radix2_q31.c ****  */
  28:.//Libraries/CMSIS/DSP/Source/TransformFunctions/arm_cfft_radix2_q31.c **** 
  29:.//Libraries/CMSIS/DSP/Source/TransformFunctions/arm_cfft_radix2_q31.c **** #include "arm_math.h"
ARM GAS  /var/folders/wl/rshn8xbx1dsfj1zgryf4g1240000gn/T//ccZq5mAp.s 			page 2


  30:.//Libraries/CMSIS/DSP/Source/TransformFunctions/arm_cfft_radix2_q31.c **** 
  31:.//Libraries/CMSIS/DSP/Source/TransformFunctions/arm_cfft_radix2_q31.c **** void arm_radix2_butterfly_q31(
  32:.//Libraries/CMSIS/DSP/Source/TransformFunctions/arm_cfft_radix2_q31.c ****         q31_t * pSrc,
  33:.//Libraries/CMSIS/DSP/Source/TransformFunctions/arm_cfft_radix2_q31.c ****         uint32_t fftLen,
  34:.//Libraries/CMSIS/DSP/Source/TransformFunctions/arm_cfft_radix2_q31.c ****   const q31_t * pCoef,
  35:.//Libraries/CMSIS/DSP/Source/TransformFunctions/arm_cfft_radix2_q31.c ****         uint16_t twidCoefModifier);
  36:.//Libraries/CMSIS/DSP/Source/TransformFunctions/arm_cfft_radix2_q31.c **** 
  37:.//Libraries/CMSIS/DSP/Source/TransformFunctions/arm_cfft_radix2_q31.c **** void arm_radix2_butterfly_inverse_q31(
  38:.//Libraries/CMSIS/DSP/Source/TransformFunctions/arm_cfft_radix2_q31.c ****         q31_t * pSrc,
  39:.//Libraries/CMSIS/DSP/Source/TransformFunctions/arm_cfft_radix2_q31.c ****         uint32_t fftLen,
  40:.//Libraries/CMSIS/DSP/Source/TransformFunctions/arm_cfft_radix2_q31.c ****   const q31_t * pCoef,
  41:.//Libraries/CMSIS/DSP/Source/TransformFunctions/arm_cfft_radix2_q31.c ****         uint16_t twidCoefModifier);
  42:.//Libraries/CMSIS/DSP/Source/TransformFunctions/arm_cfft_radix2_q31.c **** 
  43:.//Libraries/CMSIS/DSP/Source/TransformFunctions/arm_cfft_radix2_q31.c **** void arm_bitreversal_q31(
  44:.//Libraries/CMSIS/DSP/Source/TransformFunctions/arm_cfft_radix2_q31.c ****         q31_t * pSrc,
  45:.//Libraries/CMSIS/DSP/Source/TransformFunctions/arm_cfft_radix2_q31.c ****         uint32_t fftLen,
  46:.//Libraries/CMSIS/DSP/Source/TransformFunctions/arm_cfft_radix2_q31.c ****         uint16_t bitRevFactor,
  47:.//Libraries/CMSIS/DSP/Source/TransformFunctions/arm_cfft_radix2_q31.c ****   const uint16_t * pBitRevTab);
  48:.//Libraries/CMSIS/DSP/Source/TransformFunctions/arm_cfft_radix2_q31.c **** 
  49:.//Libraries/CMSIS/DSP/Source/TransformFunctions/arm_cfft_radix2_q31.c **** /**
  50:.//Libraries/CMSIS/DSP/Source/TransformFunctions/arm_cfft_radix2_q31.c ****   @ingroup groupTransforms
  51:.//Libraries/CMSIS/DSP/Source/TransformFunctions/arm_cfft_radix2_q31.c ****  */
  52:.//Libraries/CMSIS/DSP/Source/TransformFunctions/arm_cfft_radix2_q31.c **** 
  53:.//Libraries/CMSIS/DSP/Source/TransformFunctions/arm_cfft_radix2_q31.c **** /**
  54:.//Libraries/CMSIS/DSP/Source/TransformFunctions/arm_cfft_radix2_q31.c ****   @addtogroup ComplexFFT
  55:.//Libraries/CMSIS/DSP/Source/TransformFunctions/arm_cfft_radix2_q31.c ****   @{
  56:.//Libraries/CMSIS/DSP/Source/TransformFunctions/arm_cfft_radix2_q31.c ****  */
  57:.//Libraries/CMSIS/DSP/Source/TransformFunctions/arm_cfft_radix2_q31.c **** 
  58:.//Libraries/CMSIS/DSP/Source/TransformFunctions/arm_cfft_radix2_q31.c **** /**
  59:.//Libraries/CMSIS/DSP/Source/TransformFunctions/arm_cfft_radix2_q31.c ****   @brief         Processing function for the fixed-point CFFT/CIFFT.
  60:.//Libraries/CMSIS/DSP/Source/TransformFunctions/arm_cfft_radix2_q31.c ****   @deprecated    Do not use this function. It has been superseded by \ref arm_cfft_q31 and will be 
  61:.//Libraries/CMSIS/DSP/Source/TransformFunctions/arm_cfft_radix2_q31.c ****   @param[in]     S    points to an instance of the fixed-point CFFT/CIFFT structure
  62:.//Libraries/CMSIS/DSP/Source/TransformFunctions/arm_cfft_radix2_q31.c ****   @param[in,out] pSrc points to the complex data buffer of size <code>2*fftLen</code>. Processing o
  63:.//Libraries/CMSIS/DSP/Source/TransformFunctions/arm_cfft_radix2_q31.c ****   @return        none
  64:.//Libraries/CMSIS/DSP/Source/TransformFunctions/arm_cfft_radix2_q31.c ****  */
  65:.//Libraries/CMSIS/DSP/Source/TransformFunctions/arm_cfft_radix2_q31.c **** 
  66:.//Libraries/CMSIS/DSP/Source/TransformFunctions/arm_cfft_radix2_q31.c **** void arm_cfft_radix2_q31(
  67:.//Libraries/CMSIS/DSP/Source/TransformFunctions/arm_cfft_radix2_q31.c ****   const arm_cfft_radix2_instance_q31 * S,
  68:.//Libraries/CMSIS/DSP/Source/TransformFunctions/arm_cfft_radix2_q31.c ****         q31_t * pSrc)
  69:.//Libraries/CMSIS/DSP/Source/TransformFunctions/arm_cfft_radix2_q31.c **** {
  70:.//Libraries/CMSIS/DSP/Source/TransformFunctions/arm_cfft_radix2_q31.c **** 
  71:.//Libraries/CMSIS/DSP/Source/TransformFunctions/arm_cfft_radix2_q31.c ****    if (S->ifftFlag == 1U)
  72:.//Libraries/CMSIS/DSP/Source/TransformFunctions/arm_cfft_radix2_q31.c ****    {
  73:.//Libraries/CMSIS/DSP/Source/TransformFunctions/arm_cfft_radix2_q31.c ****       arm_radix2_butterfly_inverse_q31(pSrc, S->fftLen,
  74:.//Libraries/CMSIS/DSP/Source/TransformFunctions/arm_cfft_radix2_q31.c ****       S->pTwiddle, S->twidCoefModifier);
  75:.//Libraries/CMSIS/DSP/Source/TransformFunctions/arm_cfft_radix2_q31.c ****    }
  76:.//Libraries/CMSIS/DSP/Source/TransformFunctions/arm_cfft_radix2_q31.c ****    else
  77:.//Libraries/CMSIS/DSP/Source/TransformFunctions/arm_cfft_radix2_q31.c ****    {
  78:.//Libraries/CMSIS/DSP/Source/TransformFunctions/arm_cfft_radix2_q31.c ****       arm_radix2_butterfly_q31(pSrc, S->fftLen,
  79:.//Libraries/CMSIS/DSP/Source/TransformFunctions/arm_cfft_radix2_q31.c ****       S->pTwiddle, S->twidCoefModifier);
  80:.//Libraries/CMSIS/DSP/Source/TransformFunctions/arm_cfft_radix2_q31.c ****    }
  81:.//Libraries/CMSIS/DSP/Source/TransformFunctions/arm_cfft_radix2_q31.c **** 
  82:.//Libraries/CMSIS/DSP/Source/TransformFunctions/arm_cfft_radix2_q31.c ****    arm_bitreversal_q31(pSrc, S->fftLen, S->bitRevFactor, S->pBitRevTable);
  83:.//Libraries/CMSIS/DSP/Source/TransformFunctions/arm_cfft_radix2_q31.c **** }
  84:.//Libraries/CMSIS/DSP/Source/TransformFunctions/arm_cfft_radix2_q31.c **** 
  85:.//Libraries/CMSIS/DSP/Source/TransformFunctions/arm_cfft_radix2_q31.c **** /**
  86:.//Libraries/CMSIS/DSP/Source/TransformFunctions/arm_cfft_radix2_q31.c ****   @} end of ComplexFFT group
ARM GAS  /var/folders/wl/rshn8xbx1dsfj1zgryf4g1240000gn/T//ccZq5mAp.s 			page 3


  87:.//Libraries/CMSIS/DSP/Source/TransformFunctions/arm_cfft_radix2_q31.c ****  */
  88:.//Libraries/CMSIS/DSP/Source/TransformFunctions/arm_cfft_radix2_q31.c **** 
  89:.//Libraries/CMSIS/DSP/Source/TransformFunctions/arm_cfft_radix2_q31.c **** void arm_radix2_butterfly_q31(
  90:.//Libraries/CMSIS/DSP/Source/TransformFunctions/arm_cfft_radix2_q31.c ****         q31_t * pSrc,
  91:.//Libraries/CMSIS/DSP/Source/TransformFunctions/arm_cfft_radix2_q31.c ****         uint32_t fftLen,
  92:.//Libraries/CMSIS/DSP/Source/TransformFunctions/arm_cfft_radix2_q31.c ****   const q31_t * pCoef,
  93:.//Libraries/CMSIS/DSP/Source/TransformFunctions/arm_cfft_radix2_q31.c ****         uint16_t twidCoefModifier)
  94:.//Libraries/CMSIS/DSP/Source/TransformFunctions/arm_cfft_radix2_q31.c **** {
  30              		.loc 1 94 1 view -0
  31              		.cfi_startproc
  32              		@ args = 0, pretend = 0, frame = 64
  33              		@ frame_needed = 0, uses_anonymous_args = 0
  34              		.loc 1 94 1 is_stmt 0 view .LVU1
  35 0000 2DE9F04F 		push	{r4, r5, r6, r7, r8, r9, r10, fp, lr}
  36              	.LCFI0:
  37              		.cfi_def_cfa_offset 36
  38              		.cfi_offset 4, -36
  39              		.cfi_offset 5, -32
  40              		.cfi_offset 6, -28
  41              		.cfi_offset 7, -24
  42              		.cfi_offset 8, -20
  43              		.cfi_offset 9, -16
  44              		.cfi_offset 10, -12
  45              		.cfi_offset 11, -8
  46              		.cfi_offset 14, -4
  47 0004 91B0     		sub	sp, sp, #68
  48              	.LCFI1:
  49              		.cfi_def_cfa_offset 104
  50              		.loc 1 94 1 view .LVU2
  51 0006 8346     		mov	fp, r0
  52 0008 0E91     		str	r1, [sp, #56]
  95:.//Libraries/CMSIS/DSP/Source/TransformFunctions/arm_cfft_radix2_q31.c **** 
  96:.//Libraries/CMSIS/DSP/Source/TransformFunctions/arm_cfft_radix2_q31.c ****    unsigned i, j, k, l, m;
  97:.//Libraries/CMSIS/DSP/Source/TransformFunctions/arm_cfft_radix2_q31.c ****    unsigned n1, n2, ia;
  98:.//Libraries/CMSIS/DSP/Source/TransformFunctions/arm_cfft_radix2_q31.c ****    q31_t xt, yt, cosVal, sinVal;
  99:.//Libraries/CMSIS/DSP/Source/TransformFunctions/arm_cfft_radix2_q31.c ****    q31_t p0, p1;
 100:.//Libraries/CMSIS/DSP/Source/TransformFunctions/arm_cfft_radix2_q31.c **** 
 101:.//Libraries/CMSIS/DSP/Source/TransformFunctions/arm_cfft_radix2_q31.c ****    //N = fftLen;
 102:.//Libraries/CMSIS/DSP/Source/TransformFunctions/arm_cfft_radix2_q31.c ****    n2 = fftLen;
 103:.//Libraries/CMSIS/DSP/Source/TransformFunctions/arm_cfft_radix2_q31.c **** 
 104:.//Libraries/CMSIS/DSP/Source/TransformFunctions/arm_cfft_radix2_q31.c ****    n1 = n2;
 105:.//Libraries/CMSIS/DSP/Source/TransformFunctions/arm_cfft_radix2_q31.c ****    n2 = n2 >> 1;
 106:.//Libraries/CMSIS/DSP/Source/TransformFunctions/arm_cfft_radix2_q31.c ****    ia = 0;
 107:.//Libraries/CMSIS/DSP/Source/TransformFunctions/arm_cfft_radix2_q31.c **** 
 108:.//Libraries/CMSIS/DSP/Source/TransformFunctions/arm_cfft_radix2_q31.c ****    // loop for groups
 109:.//Libraries/CMSIS/DSP/Source/TransformFunctions/arm_cfft_radix2_q31.c ****    for (i = 0; i < n2; i++)
  53              		.loc 1 109 4 view .LVU3
  54 000a 4908     		lsrs	r1, r1, #1
  55              	.LVL1:
  94:.//Libraries/CMSIS/DSP/Source/TransformFunctions/arm_cfft_radix2_q31.c **** 
  56              		.loc 1 94 1 view .LVU4
  57 000c 0F92     		str	r2, [sp, #60]
  96:.//Libraries/CMSIS/DSP/Source/TransformFunctions/arm_cfft_radix2_q31.c ****    unsigned n1, n2, ia;
  58              		.loc 1 96 4 is_stmt 1 view .LVU5
  97:.//Libraries/CMSIS/DSP/Source/TransformFunctions/arm_cfft_radix2_q31.c ****    q31_t xt, yt, cosVal, sinVal;
  59              		.loc 1 97 4 view .LVU6
  98:.//Libraries/CMSIS/DSP/Source/TransformFunctions/arm_cfft_radix2_q31.c ****    q31_t p0, p1;
ARM GAS  /var/folders/wl/rshn8xbx1dsfj1zgryf4g1240000gn/T//ccZq5mAp.s 			page 4


  60              		.loc 1 98 4 view .LVU7
  99:.//Libraries/CMSIS/DSP/Source/TransformFunctions/arm_cfft_radix2_q31.c **** 
  61              		.loc 1 99 4 view .LVU8
 102:.//Libraries/CMSIS/DSP/Source/TransformFunctions/arm_cfft_radix2_q31.c **** 
  62              		.loc 1 102 4 view .LVU9
 104:.//Libraries/CMSIS/DSP/Source/TransformFunctions/arm_cfft_radix2_q31.c ****    n2 = n2 >> 1;
  63              		.loc 1 104 4 view .LVU10
 105:.//Libraries/CMSIS/DSP/Source/TransformFunctions/arm_cfft_radix2_q31.c ****    ia = 0;
  64              		.loc 1 105 4 view .LVU11
 106:.//Libraries/CMSIS/DSP/Source/TransformFunctions/arm_cfft_radix2_q31.c **** 
  65              		.loc 1 106 4 view .LVU12
  66              	.LVL2:
  67              		.loc 1 109 4 view .LVU13
  68              		.loc 1 109 16 view .LVU14
  94:.//Libraries/CMSIS/DSP/Source/TransformFunctions/arm_cfft_radix2_q31.c **** 
  69              		.loc 1 94 1 is_stmt 0 view .LVU15
  70 000e 0993     		str	r3, [sp, #36]
  71              		.loc 1 109 4 view .LVU16
  72 0010 0A91     		str	r1, [sp, #40]
  73 0012 00F01781 		beq	.L2
  74 0016 00EBC108 		add	r8, r0, r1, lsl #3
  75 001a 9246     		mov	r10, r2
  76 001c DB00     		lsls	r3, r3, #3
  77              	.LVL3:
  78              		.loc 1 109 11 view .LVU17
  79 001e 0026     		movs	r6, #0
  80 0020 08F10409 		add	r9, r8, #4
  81 0024 021D     		adds	r2, r0, #4
  82              	.LVL4:
 110:.//Libraries/CMSIS/DSP/Source/TransformFunctions/arm_cfft_radix2_q31.c ****    {
 111:.//Libraries/CMSIS/DSP/Source/TransformFunctions/arm_cfft_radix2_q31.c ****       cosVal = pCoef[ia * 2];
 112:.//Libraries/CMSIS/DSP/Source/TransformFunctions/arm_cfft_radix2_q31.c ****       sinVal = pCoef[(ia * 2) + 1];
 113:.//Libraries/CMSIS/DSP/Source/TransformFunctions/arm_cfft_radix2_q31.c ****       ia = ia + twidCoefModifier;
 114:.//Libraries/CMSIS/DSP/Source/TransformFunctions/arm_cfft_radix2_q31.c **** 
 115:.//Libraries/CMSIS/DSP/Source/TransformFunctions/arm_cfft_radix2_q31.c ****       l = i + n2;
 116:.//Libraries/CMSIS/DSP/Source/TransformFunctions/arm_cfft_radix2_q31.c ****       xt = (pSrc[2 * i] >> 1U) - (pSrc[2 * l] >> 1U);
 117:.//Libraries/CMSIS/DSP/Source/TransformFunctions/arm_cfft_radix2_q31.c ****       pSrc[2 * i] = ((pSrc[2 * i] >> 1U) + (pSrc[2 * l] >> 1U)) >> 1U;
 118:.//Libraries/CMSIS/DSP/Source/TransformFunctions/arm_cfft_radix2_q31.c **** 
 119:.//Libraries/CMSIS/DSP/Source/TransformFunctions/arm_cfft_radix2_q31.c ****       yt = (pSrc[2 * i + 1] >> 1U) - (pSrc[2 * l + 1] >> 1U);
 120:.//Libraries/CMSIS/DSP/Source/TransformFunctions/arm_cfft_radix2_q31.c ****       pSrc[2 * i + 1] =
 121:.//Libraries/CMSIS/DSP/Source/TransformFunctions/arm_cfft_radix2_q31.c ****         ((pSrc[2 * l + 1] >> 1U) + (pSrc[2 * i + 1] >> 1U)) >> 1U;
 122:.//Libraries/CMSIS/DSP/Source/TransformFunctions/arm_cfft_radix2_q31.c **** 
 123:.//Libraries/CMSIS/DSP/Source/TransformFunctions/arm_cfft_radix2_q31.c ****       mult_32x32_keep32_R(p0, xt, cosVal);
  83              		.loc 1 123 7 view .LVU18
  84 0026 9E46     		mov	lr, r3
  85 0028 CDF82080 		str	r8, [sp, #32]
  86 002c CDF81490 		str	r9, [sp, #20]
  87              	.LVL5:
  88              	.L3:
 111:.//Libraries/CMSIS/DSP/Source/TransformFunctions/arm_cfft_radix2_q31.c ****       sinVal = pCoef[(ia * 2) + 1];
  89              		.loc 1 111 7 is_stmt 1 discriminator 3 view .LVU19
 116:.//Libraries/CMSIS/DSP/Source/TransformFunctions/arm_cfft_radix2_q31.c ****       pSrc[2 * i] = ((pSrc[2 * i] >> 1U) + (pSrc[2 * l] >> 1U)) >> 1U;
  90              		.loc 1 116 47 is_stmt 0 discriminator 3 view .LVU20
  91 0030 089B     		ldr	r3, [sp, #32]
  92              		.loc 1 123 7 discriminator 3 view .LVU21
  93 0032 4FF00040 		mov	r0, #-2147483648
 116:.//Libraries/CMSIS/DSP/Source/TransformFunctions/arm_cfft_radix2_q31.c ****       pSrc[2 * i] = ((pSrc[2 * i] >> 1U) + (pSrc[2 * l] >> 1U)) >> 1U;
ARM GAS  /var/folders/wl/rshn8xbx1dsfj1zgryf4g1240000gn/T//ccZq5mAp.s 			page 5


  94              		.loc 1 116 25 discriminator 3 view .LVU22
  95 0036 5BF83640 		ldr	r4, [fp, r6, lsl #3]
 116:.//Libraries/CMSIS/DSP/Source/TransformFunctions/arm_cfft_radix2_q31.c ****       pSrc[2 * i] = ((pSrc[2 * i] >> 1U) + (pSrc[2 * l] >> 1U)) >> 1U;
  96              		.loc 1 116 47 discriminator 3 view .LVU23
  97 003a 53F83610 		ldr	r1, [r3, r6, lsl #3]
 124:.//Libraries/CMSIS/DSP/Source/TransformFunctions/arm_cfft_radix2_q31.c ****       mult_32x32_keep32_R(p1, yt, cosVal);
 125:.//Libraries/CMSIS/DSP/Source/TransformFunctions/arm_cfft_radix2_q31.c ****       multAcc_32x32_keep32_R(p0, yt, sinVal);
  98              		.loc 1 125 7 discriminator 3 view .LVU24
  99 003e 0023     		movs	r3, #0
 116:.//Libraries/CMSIS/DSP/Source/TransformFunctions/arm_cfft_radix2_q31.c ****       pSrc[2 * i] = ((pSrc[2 * i] >> 1U) + (pSrc[2 * l] >> 1U)) >> 1U;
 100              		.loc 1 116 47 discriminator 3 view .LVU25
 101 0040 4910     		asrs	r1, r1, #1
 102              		.loc 1 125 7 discriminator 3 view .LVU26
 103 0042 0293     		str	r3, [sp, #8]
 112:.//Libraries/CMSIS/DSP/Source/TransformFunctions/arm_cfft_radix2_q31.c ****       ia = ia + twidCoefModifier;
 104              		.loc 1 112 14 discriminator 3 view .LVU27
 105 0044 DAE90057 		ldrd	r5, r7, [r10]
 106              	.LVL6:
 113:.//Libraries/CMSIS/DSP/Source/TransformFunctions/arm_cfft_radix2_q31.c **** 
 107              		.loc 1 113 7 is_stmt 1 discriminator 3 view .LVU28
 115:.//Libraries/CMSIS/DSP/Source/TransformFunctions/arm_cfft_radix2_q31.c ****       xt = (pSrc[2 * i] >> 1U) - (pSrc[2 * l] >> 1U);
 108              		.loc 1 115 7 discriminator 3 view .LVU29
 116:.//Libraries/CMSIS/DSP/Source/TransformFunctions/arm_cfft_radix2_q31.c ****       pSrc[2 * i] = ((pSrc[2 * i] >> 1U) + (pSrc[2 * l] >> 1U)) >> 1U;
 109              		.loc 1 116 7 discriminator 3 view .LVU30
 117:.//Libraries/CMSIS/DSP/Source/TransformFunctions/arm_cfft_radix2_q31.c **** 
 110              		.loc 1 117 42 is_stmt 0 discriminator 3 view .LVU31
 111 0048 01EB640C 		add	ip, r1, r4, asr #1
 112 004c F244     		add	r10, r10, lr
 116:.//Libraries/CMSIS/DSP/Source/TransformFunctions/arm_cfft_radix2_q31.c ****       pSrc[2 * i] = ((pSrc[2 * i] >> 1U) + (pSrc[2 * l] >> 1U)) >> 1U;
 113              		.loc 1 116 10 discriminator 3 view .LVU32
 114 004e C1EB6404 		rsb	r4, r1, r4, asr #1
 115              	.LVL7:
 117:.//Libraries/CMSIS/DSP/Source/TransformFunctions/arm_cfft_radix2_q31.c **** 
 116              		.loc 1 117 7 is_stmt 1 discriminator 3 view .LVU33
 123:.//Libraries/CMSIS/DSP/Source/TransformFunctions/arm_cfft_radix2_q31.c ****       mult_32x32_keep32_R(p1, yt, cosVal);
 117              		.loc 1 123 7 is_stmt 0 discriminator 3 view .LVU34
 118 0052 0021     		movs	r1, #0
 117:.//Libraries/CMSIS/DSP/Source/TransformFunctions/arm_cfft_radix2_q31.c **** 
 119              		.loc 1 117 65 discriminator 3 view .LVU35
 120 0054 4FEA6C0C 		asr	ip, ip, #1
 123:.//Libraries/CMSIS/DSP/Source/TransformFunctions/arm_cfft_radix2_q31.c ****       mult_32x32_keep32_R(p1, yt, cosVal);
 121              		.loc 1 123 7 discriminator 3 view .LVU36
 122 0058 C5FB0401 		smlal	r0, r1, r5, r4
 123              		.loc 1 125 7 discriminator 3 view .LVU37
 124 005c 0391     		str	r1, [sp, #12]
 119:.//Libraries/CMSIS/DSP/Source/TransformFunctions/arm_cfft_radix2_q31.c ****       pSrc[2 * i + 1] =
 125              		.loc 1 119 55 discriminator 3 view .LVU38
 126 005e 0599     		ldr	r1, [sp, #20]
 126:.//Libraries/CMSIS/DSP/Source/TransformFunctions/arm_cfft_radix2_q31.c ****       multSub_32x32_keep32_R(p1, xt, sinVal);
 127              		.loc 1 126 7 discriminator 3 view .LVU39
 128 0060 84FB0789 		smull	r8, r9, r4, r7
 117:.//Libraries/CMSIS/DSP/Source/TransformFunctions/arm_cfft_radix2_q31.c **** 
 129              		.loc 1 117 19 discriminator 3 view .LVU40
 130 0064 4BF836C0 		str	ip, [fp, r6, lsl #3]
 119:.//Libraries/CMSIS/DSP/Source/TransformFunctions/arm_cfft_radix2_q31.c ****       pSrc[2 * i + 1] =
 131              		.loc 1 119 7 is_stmt 1 discriminator 3 view .LVU41
 119:.//Libraries/CMSIS/DSP/Source/TransformFunctions/arm_cfft_radix2_q31.c ****       pSrc[2 * i + 1] =
ARM GAS  /var/folders/wl/rshn8xbx1dsfj1zgryf4g1240000gn/T//ccZq5mAp.s 			page 6


 132              		.loc 1 119 55 is_stmt 0 discriminator 3 view .LVU42
 133 0068 51F83610 		ldr	r1, [r1, r6, lsl #3]
 119:.//Libraries/CMSIS/DSP/Source/TransformFunctions/arm_cfft_radix2_q31.c ****       pSrc[2 * i + 1] =
 134              		.loc 1 119 29 discriminator 3 view .LVU43
 135 006c 52F83600 		ldr	r0, [r2, r6, lsl #3]
 119:.//Libraries/CMSIS/DSP/Source/TransformFunctions/arm_cfft_radix2_q31.c ****       pSrc[2 * i + 1] =
 136              		.loc 1 119 55 discriminator 3 view .LVU44
 137 0070 4910     		asrs	r1, r1, #1
 119:.//Libraries/CMSIS/DSP/Source/TransformFunctions/arm_cfft_radix2_q31.c ****       pSrc[2 * i + 1] =
 138              		.loc 1 119 10 discriminator 3 view .LVU45
 139 0072 C1EB6004 		rsb	r4, r1, r0, asr #1
 140              	.LVL8:
 120:.//Libraries/CMSIS/DSP/Source/TransformFunctions/arm_cfft_radix2_q31.c ****         ((pSrc[2 * l + 1] >> 1U) + (pSrc[2 * i + 1] >> 1U)) >> 1U;
 141              		.loc 1 120 7 is_stmt 1 discriminator 3 view .LVU46
 121:.//Libraries/CMSIS/DSP/Source/TransformFunctions/arm_cfft_radix2_q31.c **** 
 142              		.loc 1 121 34 is_stmt 0 discriminator 3 view .LVU47
 143 0076 01EB600C 		add	ip, r1, r0, asr #1
 125:.//Libraries/CMSIS/DSP/Source/TransformFunctions/arm_cfft_radix2_q31.c ****       multSub_32x32_keep32_R(p1, xt, sinVal);
 144              		.loc 1 125 7 discriminator 3 view .LVU48
 145 007a DDE90201 		ldrd	r0, [sp, #8]
 146              		.loc 1 126 7 discriminator 3 view .LVU49
 147 007e CDE90689 		strd	r8, [sp, #24]
 125:.//Libraries/CMSIS/DSP/Source/TransformFunctions/arm_cfft_radix2_q31.c ****       multSub_32x32_keep32_R(p1, xt, sinVal);
 148              		.loc 1 125 7 discriminator 3 view .LVU50
 149 0082 C7FB0401 		smlal	r0, r1, r7, r4
 150 0086 0746     		mov	r7, r0
 151              	.LVL9:
 125:.//Libraries/CMSIS/DSP/Source/TransformFunctions/arm_cfft_radix2_q31.c ****       multSub_32x32_keep32_R(p1, xt, sinVal);
 152              		.loc 1 125 7 discriminator 3 view .LVU51
 153 0088 8846     		mov	r8, r1
 124:.//Libraries/CMSIS/DSP/Source/TransformFunctions/arm_cfft_radix2_q31.c ****       multAcc_32x32_keep32_R(p0, yt, sinVal);
 154              		.loc 1 124 7 discriminator 3 view .LVU52
 155 008a 0021     		movs	r1, #0
 125:.//Libraries/CMSIS/DSP/Source/TransformFunctions/arm_cfft_radix2_q31.c ****       multSub_32x32_keep32_R(p1, xt, sinVal);
 156              		.loc 1 125 7 discriminator 3 view .LVU53
 157 008c 17F10040 		adds	r0, r7, #-2147483648
 124:.//Libraries/CMSIS/DSP/Source/TransformFunctions/arm_cfft_radix2_q31.c ****       multAcc_32x32_keep32_R(p0, yt, sinVal);
 158              		.loc 1 124 7 discriminator 3 view .LVU54
 159 0090 4FF00040 		mov	r0, #-2147483648
 160 0094 C4FB0501 		smlal	r0, r1, r4, r5
 125:.//Libraries/CMSIS/DSP/Source/TransformFunctions/arm_cfft_radix2_q31.c ****       multSub_32x32_keep32_R(p1, xt, sinVal);
 161              		.loc 1 125 7 discriminator 3 view .LVU55
 162 0098 48EB0304 		adc	r4, r8, r3
 163              	.LVL10:
 164              		.loc 1 126 7 discriminator 3 view .LVU56
 165 009c 0846     		mov	r0, r1
 125:.//Libraries/CMSIS/DSP/Source/TransformFunctions/arm_cfft_radix2_q31.c ****       multSub_32x32_keep32_R(p1, xt, sinVal);
 166              		.loc 1 125 7 discriminator 3 view .LVU57
 167 009e 089D     		ldr	r5, [sp, #32]
 121:.//Libraries/CMSIS/DSP/Source/TransformFunctions/arm_cfft_radix2_q31.c **** 
 168              		.loc 1 121 61 discriminator 3 view .LVU58
 169 00a0 4FEA6C01 		asr	r1, ip, #1
 170              		.loc 1 126 7 discriminator 3 view .LVU59
 171 00a4 DDE90689 		ldrd	r8, [sp, #24]
 172              	.LVL11:
 120:.//Libraries/CMSIS/DSP/Source/TransformFunctions/arm_cfft_radix2_q31.c ****         ((pSrc[2 * l + 1] >> 1U) + (pSrc[2 * i + 1] >> 1U)) >> 1U;
 173              		.loc 1 120 23 discriminator 3 view .LVU60
ARM GAS  /var/folders/wl/rshn8xbx1dsfj1zgryf4g1240000gn/T//ccZq5mAp.s 			page 7


 174 00a8 42F83610 		str	r1, [r2, r6, lsl #3]
 175              	.LVL12:
 123:.//Libraries/CMSIS/DSP/Source/TransformFunctions/arm_cfft_radix2_q31.c ****       mult_32x32_keep32_R(p1, yt, cosVal);
 176              		.loc 1 123 7 is_stmt 1 discriminator 3 view .LVU61
 124:.//Libraries/CMSIS/DSP/Source/TransformFunctions/arm_cfft_radix2_q31.c ****       multAcc_32x32_keep32_R(p0, yt, sinVal);
 177              		.loc 1 124 7 discriminator 3 view .LVU62
 125:.//Libraries/CMSIS/DSP/Source/TransformFunctions/arm_cfft_radix2_q31.c ****       multSub_32x32_keep32_R(p1, xt, sinVal);
 178              		.loc 1 125 7 discriminator 3 view .LVU63
 179              		.loc 1 126 7 discriminator 3 view .LVU64
 127:.//Libraries/CMSIS/DSP/Source/TransformFunctions/arm_cfft_radix2_q31.c **** 
 128:.//Libraries/CMSIS/DSP/Source/TransformFunctions/arm_cfft_radix2_q31.c ****       pSrc[2U * l] = p0;
 180              		.loc 1 128 7 discriminator 3 view .LVU65
 126:.//Libraries/CMSIS/DSP/Source/TransformFunctions/arm_cfft_radix2_q31.c **** 
 181              		.loc 1 126 7 is_stmt 0 discriminator 3 view .LVU66
 182 00ac B3EB0803 		subs	r3, r3, r8
 125:.//Libraries/CMSIS/DSP/Source/TransformFunctions/arm_cfft_radix2_q31.c ****       multSub_32x32_keep32_R(p1, xt, sinVal);
 183              		.loc 1 125 7 discriminator 3 view .LVU67
 184 00b0 45F83640 		str	r4, [r5, r6, lsl #3]
 129:.//Libraries/CMSIS/DSP/Source/TransformFunctions/arm_cfft_radix2_q31.c ****       pSrc[2U * l + 1U] = p1;
 185              		.loc 1 129 7 is_stmt 1 discriminator 3 view .LVU68
 126:.//Libraries/CMSIS/DSP/Source/TransformFunctions/arm_cfft_radix2_q31.c **** 
 186              		.loc 1 126 7 is_stmt 0 discriminator 3 view .LVU69
 187 00b4 60EB0900 		sbc	r0, r0, r9
 188 00b8 13F10043 		adds	r3, r3, #-2147483648
 189 00bc 059B     		ldr	r3, [sp, #20]
 190 00be 40F10000 		adc	r0, r0, #0
 191 00c2 43F83600 		str	r0, [r3, r6, lsl #3]
 109:.//Libraries/CMSIS/DSP/Source/TransformFunctions/arm_cfft_radix2_q31.c ****    {
 192              		.loc 1 109 24 is_stmt 1 discriminator 3 view .LVU70
 109:.//Libraries/CMSIS/DSP/Source/TransformFunctions/arm_cfft_radix2_q31.c ****    {
 193              		.loc 1 109 25 is_stmt 0 discriminator 3 view .LVU71
 194 00c6 0136     		adds	r6, r6, #1
 195              	.LVL13:
 109:.//Libraries/CMSIS/DSP/Source/TransformFunctions/arm_cfft_radix2_q31.c ****    {
 196              		.loc 1 109 16 is_stmt 1 discriminator 3 view .LVU72
 109:.//Libraries/CMSIS/DSP/Source/TransformFunctions/arm_cfft_radix2_q31.c ****    {
 197              		.loc 1 109 4 is_stmt 0 discriminator 3 view .LVU73
 198 00c8 0A9B     		ldr	r3, [sp, #40]
 199 00ca B342     		cmp	r3, r6
 200 00cc B0D1     		bne	.L3
 130:.//Libraries/CMSIS/DSP/Source/TransformFunctions/arm_cfft_radix2_q31.c **** 
 131:.//Libraries/CMSIS/DSP/Source/TransformFunctions/arm_cfft_radix2_q31.c ****    }                             // groups loop end
 132:.//Libraries/CMSIS/DSP/Source/TransformFunctions/arm_cfft_radix2_q31.c **** 
 133:.//Libraries/CMSIS/DSP/Source/TransformFunctions/arm_cfft_radix2_q31.c ****    twidCoefModifier <<= 1U;
 201              		.loc 1 133 4 is_stmt 1 view .LVU74
 202              		.loc 1 133 21 is_stmt 0 view .LVU75
 203 00ce 099B     		ldr	r3, [sp, #36]
 204 00d0 5B00     		lsls	r3, r3, #1
 205 00d2 9BB2     		uxth	r3, r3
 206 00d4 0D93     		str	r3, [sp, #52]
 207              	.LVL14:
 134:.//Libraries/CMSIS/DSP/Source/TransformFunctions/arm_cfft_radix2_q31.c **** 
 135:.//Libraries/CMSIS/DSP/Source/TransformFunctions/arm_cfft_radix2_q31.c ****    // loop for stage
 136:.//Libraries/CMSIS/DSP/Source/TransformFunctions/arm_cfft_radix2_q31.c ****    for (k = fftLen / 2; k > 2; k = k >> 1)
 208              		.loc 1 136 4 is_stmt 1 view .LVU76
 209              		.loc 1 136 25 view .LVU77
 210              		.loc 1 136 4 is_stmt 0 view .LVU78
ARM GAS  /var/folders/wl/rshn8xbx1dsfj1zgryf4g1240000gn/T//ccZq5mAp.s 			page 8


 211 00d6 0A9B     		ldr	r3, [sp, #40]
 212              	.LVL15:
 213              		.loc 1 136 4 view .LVU79
 214 00d8 022B     		cmp	r3, #2
 215 00da 40F2BA80 		bls	.L22
 216              	.LVL16:
 217              	.L7:
 137:.//Libraries/CMSIS/DSP/Source/TransformFunctions/arm_cfft_radix2_q31.c ****    {
 138:.//Libraries/CMSIS/DSP/Source/TransformFunctions/arm_cfft_radix2_q31.c ****       n1 = n2;
 218              		.loc 1 138 7 is_stmt 1 view .LVU80
 139:.//Libraries/CMSIS/DSP/Source/TransformFunctions/arm_cfft_radix2_q31.c ****       n2 = n2 >> 1;
 219              		.loc 1 139 7 view .LVU81
 220 00de 0A99     		ldr	r1, [sp, #40]
 221 00e0 0D98     		ldr	r0, [sp, #52]
 222 00e2 0B46     		mov	r3, r1
 223 00e4 0891     		str	r1, [sp, #32]
 224              		.loc 1 139 10 is_stmt 0 view .LVU82
 225 00e6 4908     		lsrs	r1, r1, #1
 226 00e8 C000     		lsls	r0, r0, #3
 227 00ea 0BEBC10C 		add	ip, fp, r1, lsl #3
 228 00ee 0A91     		str	r1, [sp, #40]
 229              	.LVL17:
 140:.//Libraries/CMSIS/DSP/Source/TransformFunctions/arm_cfft_radix2_q31.c ****       ia = 0;
 230              		.loc 1 140 7 is_stmt 1 view .LVU83
 141:.//Libraries/CMSIS/DSP/Source/TransformFunctions/arm_cfft_radix2_q31.c **** 
 142:.//Libraries/CMSIS/DSP/Source/TransformFunctions/arm_cfft_radix2_q31.c ****       // loop for groups
 143:.//Libraries/CMSIS/DSP/Source/TransformFunctions/arm_cfft_radix2_q31.c ****       for (j = 0; j < n2; j++)
 231              		.loc 1 143 7 view .LVU84
 232              		.loc 1 143 19 view .LVU85
 233              		.loc 1 143 14 is_stmt 0 view .LVU86
 234 00f0 0021     		movs	r1, #0
 235              	.LVL18:
 236              		.loc 1 143 14 view .LVU87
 237 00f2 0C90     		str	r0, [sp, #48]
 238 00f4 0CF1040E 		add	lr, ip, #4
 144:.//Libraries/CMSIS/DSP/Source/TransformFunctions/arm_cfft_radix2_q31.c ****       {
 145:.//Libraries/CMSIS/DSP/Source/TransformFunctions/arm_cfft_radix2_q31.c ****          cosVal = pCoef[ia * 2];
 146:.//Libraries/CMSIS/DSP/Source/TransformFunctions/arm_cfft_radix2_q31.c ****          sinVal = pCoef[(ia * 2) + 1];
 147:.//Libraries/CMSIS/DSP/Source/TransformFunctions/arm_cfft_radix2_q31.c ****          ia = ia + twidCoefModifier;
 148:.//Libraries/CMSIS/DSP/Source/TransformFunctions/arm_cfft_radix2_q31.c **** 
 149:.//Libraries/CMSIS/DSP/Source/TransformFunctions/arm_cfft_radix2_q31.c ****          // loop for butterfly
 150:.//Libraries/CMSIS/DSP/Source/TransformFunctions/arm_cfft_radix2_q31.c ****          i = j;
 151:.//Libraries/CMSIS/DSP/Source/TransformFunctions/arm_cfft_radix2_q31.c ****          m = fftLen / n1;
 239              		.loc 1 151 12 view .LVU88
 240 00f8 0F98     		ldr	r0, [sp, #60]
 143:.//Libraries/CMSIS/DSP/Source/TransformFunctions/arm_cfft_radix2_q31.c ****       {
 241              		.loc 1 143 14 view .LVU89
 242 00fa 0691     		str	r1, [sp, #24]
 243              		.loc 1 151 12 view .LVU90
 244 00fc 0E99     		ldr	r1, [sp, #56]
 245 00fe 0990     		str	r0, [sp, #36]
 246 0100 B1FBF3F3 		udiv	r3, r1, r3
 247              	.LVL19:
 248              		.loc 1 151 12 view .LVU91
 249 0104 0B93     		str	r3, [sp, #44]
 250              	.LVL20:
 251              	.L6:
ARM GAS  /var/folders/wl/rshn8xbx1dsfj1zgryf4g1240000gn/T//ccZq5mAp.s 			page 9


 145:.//Libraries/CMSIS/DSP/Source/TransformFunctions/arm_cfft_radix2_q31.c ****          sinVal = pCoef[(ia * 2) + 1];
 252              		.loc 1 145 10 is_stmt 1 view .LVU92
 145:.//Libraries/CMSIS/DSP/Source/TransformFunctions/arm_cfft_radix2_q31.c ****          sinVal = pCoef[(ia * 2) + 1];
 253              		.loc 1 145 17 is_stmt 0 view .LVU93
 254 0106 099B     		ldr	r3, [sp, #36]
 255              		.loc 1 151 12 view .LVU94
 256 0108 0B99     		ldr	r1, [sp, #44]
 145:.//Libraries/CMSIS/DSP/Source/TransformFunctions/arm_cfft_radix2_q31.c ****          sinVal = pCoef[(ia * 2) + 1];
 257              		.loc 1 145 17 view .LVU95
 258 010a 1E68     		ldr	r6, [r3]
 259              	.LVL21:
 146:.//Libraries/CMSIS/DSP/Source/TransformFunctions/arm_cfft_radix2_q31.c ****          ia = ia + twidCoefModifier;
 260              		.loc 1 146 10 is_stmt 1 view .LVU96
 146:.//Libraries/CMSIS/DSP/Source/TransformFunctions/arm_cfft_radix2_q31.c ****          ia = ia + twidCoefModifier;
 261              		.loc 1 146 17 is_stmt 0 view .LVU97
 262 010c D3F804A0 		ldr	r10, [r3, #4]
 263              	.LVL22:
 147:.//Libraries/CMSIS/DSP/Source/TransformFunctions/arm_cfft_radix2_q31.c **** 
 264              		.loc 1 147 10 is_stmt 1 view .LVU98
 150:.//Libraries/CMSIS/DSP/Source/TransformFunctions/arm_cfft_radix2_q31.c ****          m = fftLen / n1;
 265              		.loc 1 150 10 view .LVU99
 266              		.loc 1 151 10 view .LVU100
 146:.//Libraries/CMSIS/DSP/Source/TransformFunctions/arm_cfft_radix2_q31.c ****          ia = ia + twidCoefModifier;
 267              		.loc 1 146 17 is_stmt 0 view .LVU101
 268 0110 B146     		mov	r9, r6
 269 0112 069B     		ldr	r3, [sp, #24]
 270              		.loc 1 151 12 view .LVU102
 271 0114 0591     		str	r1, [sp, #20]
 272              	.LVL23:
 273              	.L5:
 152:.//Libraries/CMSIS/DSP/Source/TransformFunctions/arm_cfft_radix2_q31.c ****          do
 274              		.loc 1 152 10 is_stmt 1 discriminator 1 view .LVU103
 153:.//Libraries/CMSIS/DSP/Source/TransformFunctions/arm_cfft_radix2_q31.c ****          {
 154:.//Libraries/CMSIS/DSP/Source/TransformFunctions/arm_cfft_radix2_q31.c ****             l = i + n2;
 275              		.loc 1 154 13 discriminator 1 view .LVU104
 155:.//Libraries/CMSIS/DSP/Source/TransformFunctions/arm_cfft_radix2_q31.c ****             xt = pSrc[2 * i] - pSrc[2 * l];
 276              		.loc 1 155 13 discriminator 1 view .LVU105
 277              		.loc 1 155 22 is_stmt 0 discriminator 1 view .LVU106
 278 0116 5BF83340 		ldr	r4, [fp, r3, lsl #3]
 156:.//Libraries/CMSIS/DSP/Source/TransformFunctions/arm_cfft_radix2_q31.c ****             pSrc[2 * i] = (pSrc[2 * i] + pSrc[2 * l]) >> 1U;
 157:.//Libraries/CMSIS/DSP/Source/TransformFunctions/arm_cfft_radix2_q31.c **** 
 158:.//Libraries/CMSIS/DSP/Source/TransformFunctions/arm_cfft_radix2_q31.c ****             yt = pSrc[2 * i + 1] - pSrc[2 * l + 1];
 159:.//Libraries/CMSIS/DSP/Source/TransformFunctions/arm_cfft_radix2_q31.c ****             pSrc[2 * i + 1] = (pSrc[2 * l + 1] + pSrc[2 * i + 1]) >> 1U;
 160:.//Libraries/CMSIS/DSP/Source/TransformFunctions/arm_cfft_radix2_q31.c **** 
 161:.//Libraries/CMSIS/DSP/Source/TransformFunctions/arm_cfft_radix2_q31.c ****             mult_32x32_keep32_R(p0, xt, cosVal);
 162:.//Libraries/CMSIS/DSP/Source/TransformFunctions/arm_cfft_radix2_q31.c ****             mult_32x32_keep32_R(p1, yt, cosVal);
 163:.//Libraries/CMSIS/DSP/Source/TransformFunctions/arm_cfft_radix2_q31.c ****             multAcc_32x32_keep32_R(p0, yt, sinVal);
 279              		.loc 1 163 13 discriminator 1 view .LVU107
 280 011a 0021     		movs	r1, #0
 155:.//Libraries/CMSIS/DSP/Source/TransformFunctions/arm_cfft_radix2_q31.c ****             xt = pSrc[2 * i] - pSrc[2 * l];
 281              		.loc 1 155 36 discriminator 1 view .LVU108
 282 011c 5CF83300 		ldr	r0, [ip, r3, lsl #3]
 161:.//Libraries/CMSIS/DSP/Source/TransformFunctions/arm_cfft_radix2_q31.c ****             mult_32x32_keep32_R(p1, yt, cosVal);
 283              		.loc 1 161 13 discriminator 1 view .LVU109
 284 0120 0025     		movs	r5, #0
 164:.//Libraries/CMSIS/DSP/Source/TransformFunctions/arm_cfft_radix2_q31.c ****             multSub_32x32_keep32_R(p1, xt, sinVal);
 285              		.loc 1 164 13 discriminator 1 view .LVU110
ARM GAS  /var/folders/wl/rshn8xbx1dsfj1zgryf4g1240000gn/T//ccZq5mAp.s 			page 10


 286 0122 0E46     		mov	r6, r1
 163:.//Libraries/CMSIS/DSP/Source/TransformFunctions/arm_cfft_radix2_q31.c ****             multSub_32x32_keep32_R(p1, xt, sinVal);
 287              		.loc 1 163 13 discriminator 1 view .LVU111
 288 0124 0091     		str	r1, [sp]
 156:.//Libraries/CMSIS/DSP/Source/TransformFunctions/arm_cfft_radix2_q31.c **** 
 289              		.loc 1 156 40 discriminator 1 view .LVU112
 290 0126 2118     		adds	r1, r4, r0
 155:.//Libraries/CMSIS/DSP/Source/TransformFunctions/arm_cfft_radix2_q31.c ****             pSrc[2 * i] = (pSrc[2 * i] + pSrc[2 * l]) >> 1U;
 291              		.loc 1 155 16 discriminator 1 view .LVU113
 292 0128 201A     		subs	r0, r4, r0
 293              	.LVL24:
 156:.//Libraries/CMSIS/DSP/Source/TransformFunctions/arm_cfft_radix2_q31.c **** 
 294              		.loc 1 156 13 is_stmt 1 discriminator 1 view .LVU114
 161:.//Libraries/CMSIS/DSP/Source/TransformFunctions/arm_cfft_radix2_q31.c ****             mult_32x32_keep32_R(p1, yt, cosVal);
 295              		.loc 1 161 13 is_stmt 0 discriminator 1 view .LVU115
 296 012a 4FF00044 		mov	r4, #-2147483648
 156:.//Libraries/CMSIS/DSP/Source/TransformFunctions/arm_cfft_radix2_q31.c **** 
 297              		.loc 1 156 55 discriminator 1 view .LVU116
 298 012e 4910     		asrs	r1, r1, #1
 161:.//Libraries/CMSIS/DSP/Source/TransformFunctions/arm_cfft_radix2_q31.c ****             mult_32x32_keep32_R(p1, yt, cosVal);
 299              		.loc 1 161 13 discriminator 1 view .LVU117
 300 0130 C9FB0045 		smlal	r4, r5, r9, r0
 163:.//Libraries/CMSIS/DSP/Source/TransformFunctions/arm_cfft_radix2_q31.c ****             multSub_32x32_keep32_R(p1, xt, sinVal);
 301              		.loc 1 163 13 discriminator 1 view .LVU118
 302 0134 0195     		str	r5, [sp, #4]
 156:.//Libraries/CMSIS/DSP/Source/TransformFunctions/arm_cfft_radix2_q31.c **** 
 303              		.loc 1 156 25 discriminator 1 view .LVU119
 304 0136 4BF83310 		str	r1, [fp, r3, lsl #3]
 158:.//Libraries/CMSIS/DSP/Source/TransformFunctions/arm_cfft_radix2_q31.c ****             pSrc[2 * i + 1] = (pSrc[2 * l + 1] + pSrc[2 * i + 1]) >> 1U;
 305              		.loc 1 158 13 is_stmt 1 discriminator 1 view .LVU120
 158:.//Libraries/CMSIS/DSP/Source/TransformFunctions/arm_cfft_radix2_q31.c ****             pSrc[2 * i + 1] = (pSrc[2 * l + 1] + pSrc[2 * i + 1]) >> 1U;
 306              		.loc 1 158 40 is_stmt 0 discriminator 1 view .LVU121
 307 013a 5EF83340 		ldr	r4, [lr, r3, lsl #3]
 308              		.loc 1 164 13 discriminator 1 view .LVU122
 309 013e 80FB0A01 		smull	r0, r1, r0, r10
 310              	.LVL25:
 158:.//Libraries/CMSIS/DSP/Source/TransformFunctions/arm_cfft_radix2_q31.c ****             pSrc[2 * i + 1] = (pSrc[2 * l + 1] + pSrc[2 * i + 1]) >> 1U;
 311              		.loc 1 158 22 discriminator 1 view .LVU123
 312 0142 52F83370 		ldr	r7, [r2, r3, lsl #3]
 158:.//Libraries/CMSIS/DSP/Source/TransformFunctions/arm_cfft_radix2_q31.c ****             pSrc[2 * i + 1] = (pSrc[2 * l + 1] + pSrc[2 * i + 1]) >> 1U;
 313              		.loc 1 158 16 discriminator 1 view .LVU124
 314 0146 A7EB0408 		sub	r8, r7, r4
 315              	.LVL26:
 159:.//Libraries/CMSIS/DSP/Source/TransformFunctions/arm_cfft_radix2_q31.c **** 
 316              		.loc 1 159 13 is_stmt 1 discriminator 1 view .LVU125
 159:.//Libraries/CMSIS/DSP/Source/TransformFunctions/arm_cfft_radix2_q31.c **** 
 317              		.loc 1 159 48 is_stmt 0 discriminator 1 view .LVU126
 318 014a 2744     		add	r7, r7, r4
 163:.//Libraries/CMSIS/DSP/Source/TransformFunctions/arm_cfft_radix2_q31.c ****             multSub_32x32_keep32_R(p1, xt, sinVal);
 319              		.loc 1 163 13 discriminator 1 view .LVU127
 320 014c DDE90045 		ldrd	r4, [sp]
 321              		.loc 1 164 13 discriminator 1 view .LVU128
 322 0150 CDE90201 		strd	r0, [sp, #8]
 163:.//Libraries/CMSIS/DSP/Source/TransformFunctions/arm_cfft_radix2_q31.c ****             multSub_32x32_keep32_R(p1, xt, sinVal);
 323              		.loc 1 163 13 discriminator 1 view .LVU129
 324 0154 CAFB0845 		smlal	r4, r5, r10, r8
 325 0158 2046     		mov	r0, r4
ARM GAS  /var/folders/wl/rshn8xbx1dsfj1zgryf4g1240000gn/T//ccZq5mAp.s 			page 11


 159:.//Libraries/CMSIS/DSP/Source/TransformFunctions/arm_cfft_radix2_q31.c **** 
 326              		.loc 1 159 67 discriminator 1 view .LVU130
 327 015a 7F10     		asrs	r7, r7, #1
 163:.//Libraries/CMSIS/DSP/Source/TransformFunctions/arm_cfft_radix2_q31.c ****             multSub_32x32_keep32_R(p1, xt, sinVal);
 328              		.loc 1 163 13 discriminator 1 view .LVU131
 329 015c 10F10044 		adds	r4, r0, #-2147483648
 330              		.loc 1 164 13 discriminator 1 view .LVU132
 331 0160 0298     		ldr	r0, [sp, #8]
 162:.//Libraries/CMSIS/DSP/Source/TransformFunctions/arm_cfft_radix2_q31.c ****             multAcc_32x32_keep32_R(p0, yt, sinVal);
 332              		.loc 1 162 13 discriminator 1 view .LVU133
 333 0162 4FF00044 		mov	r4, #-2147483648
 159:.//Libraries/CMSIS/DSP/Source/TransformFunctions/arm_cfft_radix2_q31.c **** 
 334              		.loc 1 159 29 discriminator 1 view .LVU134
 335 0166 42F83370 		str	r7, [r2, r3, lsl #3]
 163:.//Libraries/CMSIS/DSP/Source/TransformFunctions/arm_cfft_radix2_q31.c ****             multSub_32x32_keep32_R(p1, xt, sinVal);
 336              		.loc 1 163 13 discriminator 1 view .LVU135
 337 016a 45EB0601 		adc	r1, r5, r6
 162:.//Libraries/CMSIS/DSP/Source/TransformFunctions/arm_cfft_radix2_q31.c ****             multAcc_32x32_keep32_R(p0, yt, sinVal);
 338              		.loc 1 162 13 discriminator 1 view .LVU136
 339 016e 0025     		movs	r5, #0
 340              		.loc 1 164 13 discriminator 1 view .LVU137
 341 0170 361A     		subs	r6, r6, r0
 161:.//Libraries/CMSIS/DSP/Source/TransformFunctions/arm_cfft_radix2_q31.c ****             mult_32x32_keep32_R(p1, yt, cosVal);
 342              		.loc 1 161 13 is_stmt 1 discriminator 1 view .LVU138
 162:.//Libraries/CMSIS/DSP/Source/TransformFunctions/arm_cfft_radix2_q31.c ****             multAcc_32x32_keep32_R(p0, yt, sinVal);
 343              		.loc 1 162 13 discriminator 1 view .LVU139
 344              	.LVL27:
 163:.//Libraries/CMSIS/DSP/Source/TransformFunctions/arm_cfft_radix2_q31.c ****             multSub_32x32_keep32_R(p1, xt, sinVal);
 345              		.loc 1 163 13 discriminator 1 view .LVU140
 346              		.loc 1 164 13 discriminator 1 view .LVU141
 165:.//Libraries/CMSIS/DSP/Source/TransformFunctions/arm_cfft_radix2_q31.c **** 
 166:.//Libraries/CMSIS/DSP/Source/TransformFunctions/arm_cfft_radix2_q31.c ****             pSrc[2U * l] = p0;
 347              		.loc 1 166 13 discriminator 1 view .LVU142
 162:.//Libraries/CMSIS/DSP/Source/TransformFunctions/arm_cfft_radix2_q31.c ****             multAcc_32x32_keep32_R(p0, yt, sinVal);
 348              		.loc 1 162 13 is_stmt 0 discriminator 1 view .LVU143
 349 0172 C9FB0845 		smlal	r4, r5, r9, r8
 164:.//Libraries/CMSIS/DSP/Source/TransformFunctions/arm_cfft_radix2_q31.c **** 
 350              		.loc 1 164 13 discriminator 1 view .LVU144
 351 0176 039C     		ldr	r4, [sp, #12]
 163:.//Libraries/CMSIS/DSP/Source/TransformFunctions/arm_cfft_radix2_q31.c ****             multSub_32x32_keep32_R(p1, xt, sinVal);
 352              		.loc 1 163 13 discriminator 1 view .LVU145
 353 0178 4CF83310 		str	r1, [ip, r3, lsl #3]
 167:.//Libraries/CMSIS/DSP/Source/TransformFunctions/arm_cfft_radix2_q31.c ****             pSrc[2U * l + 1U] = p1;
 354              		.loc 1 167 13 is_stmt 1 discriminator 1 view .LVU146
 164:.//Libraries/CMSIS/DSP/Source/TransformFunctions/arm_cfft_radix2_q31.c **** 
 355              		.loc 1 164 13 is_stmt 0 discriminator 1 view .LVU147
 356 017c 65EB0400 		sbc	r0, r5, r4
 357 0180 16F10046 		adds	r6, r6, #-2147483648
 168:.//Libraries/CMSIS/DSP/Source/TransformFunctions/arm_cfft_radix2_q31.c ****             i += n1;
 358              		.loc 1 168 15 discriminator 1 view .LVU148
 359 0184 0899     		ldr	r1, [sp, #32]
 164:.//Libraries/CMSIS/DSP/Source/TransformFunctions/arm_cfft_radix2_q31.c **** 
 360              		.loc 1 164 13 discriminator 1 view .LVU149
 361 0186 40F10000 		adc	r0, r0, #0
 362 018a 4EF83300 		str	r0, [lr, r3, lsl #3]
 363              		.loc 1 168 13 is_stmt 1 discriminator 1 view .LVU150
 364              		.loc 1 168 15 is_stmt 0 discriminator 1 view .LVU151
ARM GAS  /var/folders/wl/rshn8xbx1dsfj1zgryf4g1240000gn/T//ccZq5mAp.s 			page 12


 365 018e 0B44     		add	r3, r3, r1
 366              	.LVL28:
 169:.//Libraries/CMSIS/DSP/Source/TransformFunctions/arm_cfft_radix2_q31.c ****             m--;
 367              		.loc 1 169 13 is_stmt 1 discriminator 1 view .LVU152
 170:.//Libraries/CMSIS/DSP/Source/TransformFunctions/arm_cfft_radix2_q31.c ****          } while ( m > 0);                   // butterfly loop end
 368              		.loc 1 170 18 discriminator 1 view .LVU153
 369              		.loc 1 170 10 is_stmt 0 discriminator 1 view .LVU154
 370 0190 0599     		ldr	r1, [sp, #20]
 371 0192 0139     		subs	r1, r1, #1
 372              	.LVL29:
 373              		.loc 1 170 10 discriminator 1 view .LVU155
 374 0194 0591     		str	r1, [sp, #20]
 375 0196 BED1     		bne	.L5
 143:.//Libraries/CMSIS/DSP/Source/TransformFunctions/arm_cfft_radix2_q31.c ****       {
 376              		.loc 1 143 27 is_stmt 1 discriminator 2 view .LVU156
 377 0198 0999     		ldr	r1, [sp, #36]
 378              	.LVL30:
 143:.//Libraries/CMSIS/DSP/Source/TransformFunctions/arm_cfft_radix2_q31.c ****       {
 379              		.loc 1 143 27 is_stmt 0 discriminator 2 view .LVU157
 380 019a 0C98     		ldr	r0, [sp, #48]
 143:.//Libraries/CMSIS/DSP/Source/TransformFunctions/arm_cfft_radix2_q31.c ****       {
 381              		.loc 1 143 28 discriminator 2 view .LVU158
 382 019c 069B     		ldr	r3, [sp, #24]
 383              	.LVL31:
 143:.//Libraries/CMSIS/DSP/Source/TransformFunctions/arm_cfft_radix2_q31.c ****       {
 384              		.loc 1 143 28 discriminator 2 view .LVU159
 385 019e 0144     		add	r1, r1, r0
 386 01a0 0133     		adds	r3, r3, #1
 387 01a2 0991     		str	r1, [sp, #36]
 143:.//Libraries/CMSIS/DSP/Source/TransformFunctions/arm_cfft_radix2_q31.c ****       {
 388              		.loc 1 143 7 discriminator 2 view .LVU160
 389 01a4 0A99     		ldr	r1, [sp, #40]
 143:.//Libraries/CMSIS/DSP/Source/TransformFunctions/arm_cfft_radix2_q31.c ****       {
 390              		.loc 1 143 28 discriminator 2 view .LVU161
 391 01a6 0693     		str	r3, [sp, #24]
 392              	.LVL32:
 143:.//Libraries/CMSIS/DSP/Source/TransformFunctions/arm_cfft_radix2_q31.c ****       {
 393              		.loc 1 143 19 is_stmt 1 discriminator 2 view .LVU162
 143:.//Libraries/CMSIS/DSP/Source/TransformFunctions/arm_cfft_radix2_q31.c ****       {
 394              		.loc 1 143 7 is_stmt 0 discriminator 2 view .LVU163
 395 01a8 9942     		cmp	r1, r3
 396 01aa ACD1     		bne	.L6
 171:.//Libraries/CMSIS/DSP/Source/TransformFunctions/arm_cfft_radix2_q31.c **** 
 172:.//Libraries/CMSIS/DSP/Source/TransformFunctions/arm_cfft_radix2_q31.c ****       }                           // groups loop end
 173:.//Libraries/CMSIS/DSP/Source/TransformFunctions/arm_cfft_radix2_q31.c **** 
 174:.//Libraries/CMSIS/DSP/Source/TransformFunctions/arm_cfft_radix2_q31.c ****       twidCoefModifier <<= 1U;
 397              		.loc 1 174 7 is_stmt 1 discriminator 2 view .LVU164
 398              		.loc 1 174 24 is_stmt 0 discriminator 2 view .LVU165
 399 01ac 0D9B     		ldr	r3, [sp, #52]
 400              	.LVL33:
 136:.//Libraries/CMSIS/DSP/Source/TransformFunctions/arm_cfft_radix2_q31.c ****    {
 401              		.loc 1 136 4 discriminator 2 view .LVU166
 402 01ae 0229     		cmp	r1, #2
 403              		.loc 1 174 24 discriminator 2 view .LVU167
 404 01b0 4FEA4303 		lsl	r3, r3, #1
 405              	.LVL34:
 406              		.loc 1 174 24 discriminator 2 view .LVU168
ARM GAS  /var/folders/wl/rshn8xbx1dsfj1zgryf4g1240000gn/T//ccZq5mAp.s 			page 13


 407 01b4 9BB2     		uxth	r3, r3
 408              		.loc 1 174 24 discriminator 2 view .LVU169
 409 01b6 0D93     		str	r3, [sp, #52]
 136:.//Libraries/CMSIS/DSP/Source/TransformFunctions/arm_cfft_radix2_q31.c ****    {
 410              		.loc 1 136 32 is_stmt 1 discriminator 2 view .LVU170
 411              	.LVL35:
 136:.//Libraries/CMSIS/DSP/Source/TransformFunctions/arm_cfft_radix2_q31.c ****    {
 412              		.loc 1 136 25 discriminator 2 view .LVU171
 136:.//Libraries/CMSIS/DSP/Source/TransformFunctions/arm_cfft_radix2_q31.c ****    {
 413              		.loc 1 136 4 is_stmt 0 discriminator 2 view .LVU172
 414 01b8 91D8     		bhi	.L7
 175:.//Libraries/CMSIS/DSP/Source/TransformFunctions/arm_cfft_radix2_q31.c ****    }                             // stages loop end
 176:.//Libraries/CMSIS/DSP/Source/TransformFunctions/arm_cfft_radix2_q31.c **** 
 177:.//Libraries/CMSIS/DSP/Source/TransformFunctions/arm_cfft_radix2_q31.c ****    n1 = n2;
 415              		.loc 1 177 4 is_stmt 1 view .LVU173
 416              	.LVL36:
 178:.//Libraries/CMSIS/DSP/Source/TransformFunctions/arm_cfft_radix2_q31.c ****    n2 = n2 >> 1;
 417              		.loc 1 178 4 view .LVU174
 418              		.loc 1 178 7 is_stmt 0 view .LVU175
 419 01ba 089B     		ldr	r3, [sp, #32]
 420              	.LVL37:
 421              		.loc 1 178 7 view .LVU176
 422 01bc 9808     		lsrs	r0, r3, #2
 423              	.LVL38:
 179:.//Libraries/CMSIS/DSP/Source/TransformFunctions/arm_cfft_radix2_q31.c ****    ia = 0;
 424              		.loc 1 179 4 is_stmt 1 view .LVU177
 180:.//Libraries/CMSIS/DSP/Source/TransformFunctions/arm_cfft_radix2_q31.c **** 
 181:.//Libraries/CMSIS/DSP/Source/TransformFunctions/arm_cfft_radix2_q31.c ****    cosVal = pCoef[ia * 2];
 425              		.loc 1 181 4 view .LVU178
 182:.//Libraries/CMSIS/DSP/Source/TransformFunctions/arm_cfft_radix2_q31.c ****    sinVal = pCoef[(ia * 2) + 1];
 426              		.loc 1 182 4 view .LVU179
 183:.//Libraries/CMSIS/DSP/Source/TransformFunctions/arm_cfft_radix2_q31.c ****    ia = ia + twidCoefModifier;
 427              		.loc 1 183 4 view .LVU180
 184:.//Libraries/CMSIS/DSP/Source/TransformFunctions/arm_cfft_radix2_q31.c **** 
 185:.//Libraries/CMSIS/DSP/Source/TransformFunctions/arm_cfft_radix2_q31.c ****    // loop for butterfly
 186:.//Libraries/CMSIS/DSP/Source/TransformFunctions/arm_cfft_radix2_q31.c ****    for (i = 0; i < fftLen; i += n1)
 428              		.loc 1 186 4 view .LVU181
 429              		.loc 1 186 16 view .LVU182
 430              	.L10:
 431              		.loc 1 186 16 is_stmt 0 view .LVU183
 432 01be 1346     		mov	r3, r2
 433 01c0 0A9A     		ldr	r2, [sp, #40]
 434 01c2 DE46     		mov	lr, fp
 178:.//Libraries/CMSIS/DSP/Source/TransformFunctions/arm_cfft_radix2_q31.c ****    ia = 0;
 435              		.loc 1 178 7 discriminator 3 view .LVU184
 436 01c4 0025     		movs	r5, #0
 437 01c6 1701     		lsls	r7, r2, #4
 438 01c8 1146     		mov	r1, r2
 439 01ca 4FEA420C 		lsl	ip, r2, #1
 440 01ce 8418     		adds	r4, r0, r2
 441 01d0 DDF83880 		ldr	r8, [sp, #56]
 442              	.LVL39:
 443              	.L9:
 187:.//Libraries/CMSIS/DSP/Source/TransformFunctions/arm_cfft_radix2_q31.c ****    {
 188:.//Libraries/CMSIS/DSP/Source/TransformFunctions/arm_cfft_radix2_q31.c ****       l = i + n2;
 444              		.loc 1 188 7 is_stmt 1 discriminator 3 view .LVU185
 189:.//Libraries/CMSIS/DSP/Source/TransformFunctions/arm_cfft_radix2_q31.c ****       xt = pSrc[2 * i] - pSrc[2 * l];
ARM GAS  /var/folders/wl/rshn8xbx1dsfj1zgryf4g1240000gn/T//ccZq5mAp.s 			page 14


 445              		.loc 1 189 7 discriminator 3 view .LVU186
 446              		.loc 1 189 16 is_stmt 0 discriminator 3 view .LVU187
 447 01d4 53F8046C 		ldr	r6, [r3, #-4]
 186:.//Libraries/CMSIS/DSP/Source/TransformFunctions/arm_cfft_radix2_q31.c ****    {
 448              		.loc 1 186 30 discriminator 3 view .LVU188
 449 01d8 6544     		add	r5, r5, ip
 450              	.LVL40:
 451              		.loc 1 189 30 discriminator 3 view .LVU189
 452 01da 5EF83020 		ldr	r2, [lr, r0, lsl #3]
 453              	.LVL41:
 190:.//Libraries/CMSIS/DSP/Source/TransformFunctions/arm_cfft_radix2_q31.c ****       pSrc[2 * i] = (pSrc[2 * i] + pSrc[2 * l]);
 454              		.loc 1 190 7 is_stmt 1 discriminator 3 view .LVU190
 186:.//Libraries/CMSIS/DSP/Source/TransformFunctions/arm_cfft_radix2_q31.c ****    {
 455              		.loc 1 186 4 is_stmt 0 discriminator 3 view .LVU191
 456 01de A845     		cmp	r8, r5
 457              		.loc 1 190 34 discriminator 3 view .LVU192
 458 01e0 06EB020A 		add	r10, r6, r2
 189:.//Libraries/CMSIS/DSP/Source/TransformFunctions/arm_cfft_radix2_q31.c ****       xt = pSrc[2 * i] - pSrc[2 * l];
 459              		.loc 1 189 10 discriminator 3 view .LVU193
 460 01e4 A6EB0209 		sub	r9, r6, r2
 461              	.LVL42:
 462              		.loc 1 190 19 discriminator 3 view .LVU194
 463 01e8 43F804AC 		str	r10, [r3, #-4]
 191:.//Libraries/CMSIS/DSP/Source/TransformFunctions/arm_cfft_radix2_q31.c **** 
 192:.//Libraries/CMSIS/DSP/Source/TransformFunctions/arm_cfft_radix2_q31.c ****       yt = pSrc[2 * i + 1] - pSrc[2 * l + 1];
 464              		.loc 1 192 7 is_stmt 1 discriminator 3 view .LVU195
 465              		.loc 1 192 34 is_stmt 0 discriminator 3 view .LVU196
 466 01ec 53F83060 		ldr	r6, [r3, r0, lsl #3]
 467              		.loc 1 192 16 discriminator 3 view .LVU197
 468 01f0 DEF80420 		ldr	r2, [lr, #4]
 469              	.LVL43:
 193:.//Libraries/CMSIS/DSP/Source/TransformFunctions/arm_cfft_radix2_q31.c ****       pSrc[2 * i + 1] = (pSrc[2 * l + 1] + pSrc[2 * i + 1]);
 470              		.loc 1 193 7 is_stmt 1 discriminator 3 view .LVU198
 471              		.loc 1 193 42 is_stmt 0 discriminator 3 view .LVU199
 472 01f4 02EB060A 		add	r10, r2, r6
 192:.//Libraries/CMSIS/DSP/Source/TransformFunctions/arm_cfft_radix2_q31.c ****       pSrc[2 * i + 1] = (pSrc[2 * l + 1] + pSrc[2 * i + 1]);
 473              		.loc 1 192 10 discriminator 3 view .LVU200
 474 01f8 A2EB0602 		sub	r2, r2, r6
 475              	.LVL44:
 476              		.loc 1 193 23 discriminator 3 view .LVU201
 477 01fc CEF804A0 		str	r10, [lr, #4]
 194:.//Libraries/CMSIS/DSP/Source/TransformFunctions/arm_cfft_radix2_q31.c **** 
 195:.//Libraries/CMSIS/DSP/Source/TransformFunctions/arm_cfft_radix2_q31.c ****       pSrc[2U * l] = xt;
 478              		.loc 1 195 7 is_stmt 1 discriminator 3 view .LVU202
 479              		.loc 1 195 20 is_stmt 0 discriminator 3 view .LVU203
 480 0200 4EF83090 		str	r9, [lr, r0, lsl #3]
 196:.//Libraries/CMSIS/DSP/Source/TransformFunctions/arm_cfft_radix2_q31.c **** 
 197:.//Libraries/CMSIS/DSP/Source/TransformFunctions/arm_cfft_radix2_q31.c ****       pSrc[2U * l + 1U] = yt;
 481              		.loc 1 197 7 is_stmt 1 discriminator 3 view .LVU204
 482              		.loc 1 197 25 is_stmt 0 discriminator 3 view .LVU205
 483 0204 43F83020 		str	r2, [r3, r0, lsl #3]
 198:.//Libraries/CMSIS/DSP/Source/TransformFunctions/arm_cfft_radix2_q31.c **** 
 199:.//Libraries/CMSIS/DSP/Source/TransformFunctions/arm_cfft_radix2_q31.c ****       i += n1;
 484              		.loc 1 199 7 is_stmt 1 discriminator 3 view .LVU206
 200:.//Libraries/CMSIS/DSP/Source/TransformFunctions/arm_cfft_radix2_q31.c ****       l = i + n2;
 485              		.loc 1 200 7 discriminator 3 view .LVU207
 201:.//Libraries/CMSIS/DSP/Source/TransformFunctions/arm_cfft_radix2_q31.c **** 
ARM GAS  /var/folders/wl/rshn8xbx1dsfj1zgryf4g1240000gn/T//ccZq5mAp.s 			page 15


 202:.//Libraries/CMSIS/DSP/Source/TransformFunctions/arm_cfft_radix2_q31.c ****       xt = pSrc[2 * i] - pSrc[2 * l];
 486              		.loc 1 202 7 discriminator 3 view .LVU208
 487              		.loc 1 202 16 is_stmt 0 discriminator 3 view .LVU209
 488 0208 5EF83160 		ldr	r6, [lr, r1, lsl #3]
 489              		.loc 1 202 30 discriminator 3 view .LVU210
 490 020c 5EF83420 		ldr	r2, [lr, r4, lsl #3]
 491              	.LVL45:
 203:.//Libraries/CMSIS/DSP/Source/TransformFunctions/arm_cfft_radix2_q31.c ****       pSrc[2 * i] = (pSrc[2 * i] + pSrc[2 * l]);
 492              		.loc 1 203 7 is_stmt 1 discriminator 3 view .LVU211
 493              		.loc 1 203 34 is_stmt 0 discriminator 3 view .LVU212
 494 0210 06EB020A 		add	r10, r6, r2
 202:.//Libraries/CMSIS/DSP/Source/TransformFunctions/arm_cfft_radix2_q31.c ****       pSrc[2 * i] = (pSrc[2 * i] + pSrc[2 * l]);
 495              		.loc 1 202 10 discriminator 3 view .LVU213
 496 0214 A6EB0209 		sub	r9, r6, r2
 497              	.LVL46:
 498              		.loc 1 203 19 discriminator 3 view .LVU214
 499 0218 4EF831A0 		str	r10, [lr, r1, lsl #3]
 500              	.LVL47:
 204:.//Libraries/CMSIS/DSP/Source/TransformFunctions/arm_cfft_radix2_q31.c **** 
 205:.//Libraries/CMSIS/DSP/Source/TransformFunctions/arm_cfft_radix2_q31.c ****       yt = pSrc[2 * i + 1] - pSrc[2 * l + 1];
 501              		.loc 1 205 7 is_stmt 1 discriminator 3 view .LVU215
 502              		.loc 1 205 16 is_stmt 0 discriminator 3 view .LVU216
 503 021c 53F83120 		ldr	r2, [r3, r1, lsl #3]
 504              		.loc 1 205 34 discriminator 3 view .LVU217
 505 0220 53F83460 		ldr	r6, [r3, r4, lsl #3]
 506              	.LVL48:
 206:.//Libraries/CMSIS/DSP/Source/TransformFunctions/arm_cfft_radix2_q31.c ****       pSrc[2 * i + 1] = (pSrc[2 * l + 1] + pSrc[2 * i + 1]);
 507              		.loc 1 206 7 is_stmt 1 discriminator 3 view .LVU218
 508              		.loc 1 206 42 is_stmt 0 discriminator 3 view .LVU219
 509 0224 02EB060A 		add	r10, r2, r6
 205:.//Libraries/CMSIS/DSP/Source/TransformFunctions/arm_cfft_radix2_q31.c ****       pSrc[2 * i + 1] = (pSrc[2 * l + 1] + pSrc[2 * i + 1]);
 510              		.loc 1 205 10 discriminator 3 view .LVU220
 511 0228 A2EB0602 		sub	r2, r2, r6
 512              	.LVL49:
 513              		.loc 1 206 23 discriminator 3 view .LVU221
 514 022c 43F831A0 		str	r10, [r3, r1, lsl #3]
 207:.//Libraries/CMSIS/DSP/Source/TransformFunctions/arm_cfft_radix2_q31.c **** 
 208:.//Libraries/CMSIS/DSP/Source/TransformFunctions/arm_cfft_radix2_q31.c ****       pSrc[2U * l] = xt;
 515              		.loc 1 208 7 is_stmt 1 discriminator 3 view .LVU222
 516              		.loc 1 208 20 is_stmt 0 discriminator 3 view .LVU223
 517 0230 4EF83490 		str	r9, [lr, r4, lsl #3]
 209:.//Libraries/CMSIS/DSP/Source/TransformFunctions/arm_cfft_radix2_q31.c **** 
 210:.//Libraries/CMSIS/DSP/Source/TransformFunctions/arm_cfft_radix2_q31.c ****       pSrc[2U * l + 1U] = yt;
 518              		.loc 1 210 7 is_stmt 1 discriminator 3 view .LVU224
 519 0234 BE44     		add	lr, lr, r7
 520              		.loc 1 210 25 is_stmt 0 discriminator 3 view .LVU225
 521 0236 43F83420 		str	r2, [r3, r4, lsl #3]
 186:.//Libraries/CMSIS/DSP/Source/TransformFunctions/arm_cfft_radix2_q31.c ****    {
 522              		.loc 1 186 28 is_stmt 1 discriminator 3 view .LVU226
 523              	.LVL50:
 186:.//Libraries/CMSIS/DSP/Source/TransformFunctions/arm_cfft_radix2_q31.c ****    {
 524              		.loc 1 186 16 discriminator 3 view .LVU227
 525 023a 3B44     		add	r3, r3, r7
 186:.//Libraries/CMSIS/DSP/Source/TransformFunctions/arm_cfft_radix2_q31.c ****    {
 526              		.loc 1 186 4 is_stmt 0 discriminator 3 view .LVU228
 527 023c CAD8     		bhi	.L9
 528              	.LVL51:
ARM GAS  /var/folders/wl/rshn8xbx1dsfj1zgryf4g1240000gn/T//ccZq5mAp.s 			page 16


 529              	.L1:
 211:.//Libraries/CMSIS/DSP/Source/TransformFunctions/arm_cfft_radix2_q31.c **** 
 212:.//Libraries/CMSIS/DSP/Source/TransformFunctions/arm_cfft_radix2_q31.c ****    }                             // butterfly loop end
 213:.//Libraries/CMSIS/DSP/Source/TransformFunctions/arm_cfft_radix2_q31.c **** 
 214:.//Libraries/CMSIS/DSP/Source/TransformFunctions/arm_cfft_radix2_q31.c **** }
 530              		.loc 1 214 1 view .LVU229
 531 023e 11B0     		add	sp, sp, #68
 532              	.LCFI2:
 533              		.cfi_remember_state
 534              		.cfi_def_cfa_offset 36
 535              		@ sp needed
 536 0240 BDE8F08F 		pop	{r4, r5, r6, r7, r8, r9, r10, fp, pc}
 537              	.LVL52:
 538              	.L2:
 539              	.LCFI3:
 540              		.cfi_restore_state
 133:.//Libraries/CMSIS/DSP/Source/TransformFunctions/arm_cfft_radix2_q31.c **** 
 541              		.loc 1 133 4 is_stmt 1 view .LVU230
 136:.//Libraries/CMSIS/DSP/Source/TransformFunctions/arm_cfft_radix2_q31.c ****    {
 542              		.loc 1 136 4 view .LVU231
 136:.//Libraries/CMSIS/DSP/Source/TransformFunctions/arm_cfft_radix2_q31.c ****    {
 543              		.loc 1 136 25 view .LVU232
 177:.//Libraries/CMSIS/DSP/Source/TransformFunctions/arm_cfft_radix2_q31.c ****    n2 = n2 >> 1;
 544              		.loc 1 177 4 view .LVU233
 178:.//Libraries/CMSIS/DSP/Source/TransformFunctions/arm_cfft_radix2_q31.c ****    ia = 0;
 545              		.loc 1 178 4 view .LVU234
 179:.//Libraries/CMSIS/DSP/Source/TransformFunctions/arm_cfft_radix2_q31.c **** 
 546              		.loc 1 179 4 view .LVU235
 181:.//Libraries/CMSIS/DSP/Source/TransformFunctions/arm_cfft_radix2_q31.c ****    sinVal = pCoef[(ia * 2) + 1];
 547              		.loc 1 181 4 view .LVU236
 182:.//Libraries/CMSIS/DSP/Source/TransformFunctions/arm_cfft_radix2_q31.c ****    ia = ia + twidCoefModifier;
 548              		.loc 1 182 4 view .LVU237
 183:.//Libraries/CMSIS/DSP/Source/TransformFunctions/arm_cfft_radix2_q31.c **** 
 549              		.loc 1 183 4 view .LVU238
 186:.//Libraries/CMSIS/DSP/Source/TransformFunctions/arm_cfft_radix2_q31.c ****    {
 550              		.loc 1 186 4 view .LVU239
 186:.//Libraries/CMSIS/DSP/Source/TransformFunctions/arm_cfft_radix2_q31.c ****    {
 551              		.loc 1 186 16 view .LVU240
 186:.//Libraries/CMSIS/DSP/Source/TransformFunctions/arm_cfft_radix2_q31.c ****    {
 552              		.loc 1 186 4 is_stmt 0 view .LVU241
 553 0244 0E9B     		ldr	r3, [sp, #56]
 554              	.LVL53:
 186:.//Libraries/CMSIS/DSP/Source/TransformFunctions/arm_cfft_radix2_q31.c ****    {
 555              		.loc 1 186 4 view .LVU242
 556 0246 002B     		cmp	r3, #0
 557 0248 F9D0     		beq	.L1
 178:.//Libraries/CMSIS/DSP/Source/TransformFunctions/arm_cfft_radix2_q31.c ****    ia = 0;
 558              		.loc 1 178 7 view .LVU243
 559 024a 0A98     		ldr	r0, [sp, #40]
 560              	.LVL54:
 178:.//Libraries/CMSIS/DSP/Source/TransformFunctions/arm_cfft_radix2_q31.c ****    ia = 0;
 561              		.loc 1 178 7 view .LVU244
 562 024c 0BF10402 		add	r2, fp, #4
 563              	.LVL55:
 178:.//Libraries/CMSIS/DSP/Source/TransformFunctions/arm_cfft_radix2_q31.c ****    ia = 0;
 564              		.loc 1 178 7 view .LVU245
 565 0250 B5E7     		b	.L10
ARM GAS  /var/folders/wl/rshn8xbx1dsfj1zgryf4g1240000gn/T//ccZq5mAp.s 			page 17


 566              	.LVL56:
 567              	.L22:
 177:.//Libraries/CMSIS/DSP/Source/TransformFunctions/arm_cfft_radix2_q31.c ****    n2 = n2 >> 1;
 568              		.loc 1 177 4 is_stmt 1 view .LVU246
 178:.//Libraries/CMSIS/DSP/Source/TransformFunctions/arm_cfft_radix2_q31.c ****    ia = 0;
 569              		.loc 1 178 4 view .LVU247
 178:.//Libraries/CMSIS/DSP/Source/TransformFunctions/arm_cfft_radix2_q31.c ****    ia = 0;
 570              		.loc 1 178 7 is_stmt 0 view .LVU248
 571 0252 0E9B     		ldr	r3, [sp, #56]
 572              	.LVL57:
 178:.//Libraries/CMSIS/DSP/Source/TransformFunctions/arm_cfft_radix2_q31.c ****    ia = 0;
 573              		.loc 1 178 7 view .LVU249
 574 0254 9808     		lsrs	r0, r3, #2
 575              	.LVL58:
 179:.//Libraries/CMSIS/DSP/Source/TransformFunctions/arm_cfft_radix2_q31.c **** 
 576              		.loc 1 179 4 is_stmt 1 view .LVU250
 181:.//Libraries/CMSIS/DSP/Source/TransformFunctions/arm_cfft_radix2_q31.c ****    sinVal = pCoef[(ia * 2) + 1];
 577              		.loc 1 181 4 view .LVU251
 182:.//Libraries/CMSIS/DSP/Source/TransformFunctions/arm_cfft_radix2_q31.c ****    ia = ia + twidCoefModifier;
 578              		.loc 1 182 4 view .LVU252
 183:.//Libraries/CMSIS/DSP/Source/TransformFunctions/arm_cfft_radix2_q31.c **** 
 579              		.loc 1 183 4 view .LVU253
 186:.//Libraries/CMSIS/DSP/Source/TransformFunctions/arm_cfft_radix2_q31.c ****    {
 580              		.loc 1 186 4 view .LVU254
 186:.//Libraries/CMSIS/DSP/Source/TransformFunctions/arm_cfft_radix2_q31.c ****    {
 581              		.loc 1 186 16 view .LVU255
 582 0256 B2E7     		b	.L10
 583              		.cfi_endproc
 584              	.LFE146:
 586              		.section	.text.arm_radix2_butterfly_inverse_q31,"ax",%progbits
 587              		.align	1
 588              		.p2align 2,,3
 589              		.global	arm_radix2_butterfly_inverse_q31
 590              		.syntax unified
 591              		.thumb
 592              		.thumb_func
 593              		.fpu fpv5-d16
 595              	arm_radix2_butterfly_inverse_q31:
 596              	.LVL59:
 597              	.LFB147:
 215:.//Libraries/CMSIS/DSP/Source/TransformFunctions/arm_cfft_radix2_q31.c **** 
 216:.//Libraries/CMSIS/DSP/Source/TransformFunctions/arm_cfft_radix2_q31.c **** 
 217:.//Libraries/CMSIS/DSP/Source/TransformFunctions/arm_cfft_radix2_q31.c **** void arm_radix2_butterfly_inverse_q31(
 218:.//Libraries/CMSIS/DSP/Source/TransformFunctions/arm_cfft_radix2_q31.c ****         q31_t * pSrc,
 219:.//Libraries/CMSIS/DSP/Source/TransformFunctions/arm_cfft_radix2_q31.c ****         uint32_t fftLen,
 220:.//Libraries/CMSIS/DSP/Source/TransformFunctions/arm_cfft_radix2_q31.c ****   const q31_t * pCoef,
 221:.//Libraries/CMSIS/DSP/Source/TransformFunctions/arm_cfft_radix2_q31.c ****         uint16_t twidCoefModifier)
 222:.//Libraries/CMSIS/DSP/Source/TransformFunctions/arm_cfft_radix2_q31.c **** {
 598              		.loc 1 222 1 view -0
 599              		.cfi_startproc
 600              		@ args = 0, pretend = 0, frame = 56
 601              		@ frame_needed = 0, uses_anonymous_args = 0
 602              		.loc 1 222 1 is_stmt 0 view .LVU257
 603 0000 2DE9F04F 		push	{r4, r5, r6, r7, r8, r9, r10, fp, lr}
 604              	.LCFI4:
 605              		.cfi_def_cfa_offset 36
 606              		.cfi_offset 4, -36
ARM GAS  /var/folders/wl/rshn8xbx1dsfj1zgryf4g1240000gn/T//ccZq5mAp.s 			page 18


 607              		.cfi_offset 5, -32
 608              		.cfi_offset 6, -28
 609              		.cfi_offset 7, -24
 610              		.cfi_offset 8, -20
 611              		.cfi_offset 9, -16
 612              		.cfi_offset 10, -12
 613              		.cfi_offset 11, -8
 614              		.cfi_offset 14, -4
 615 0004 8FB0     		sub	sp, sp, #60
 616              	.LCFI5:
 617              		.cfi_def_cfa_offset 96
 618              		.loc 1 222 1 view .LVU258
 619 0006 8646     		mov	lr, r0
 620 0008 0591     		str	r1, [sp, #20]
 223:.//Libraries/CMSIS/DSP/Source/TransformFunctions/arm_cfft_radix2_q31.c **** 
 224:.//Libraries/CMSIS/DSP/Source/TransformFunctions/arm_cfft_radix2_q31.c ****    unsigned i, j, k, l;
 225:.//Libraries/CMSIS/DSP/Source/TransformFunctions/arm_cfft_radix2_q31.c ****    unsigned n1, n2, ia;
 226:.//Libraries/CMSIS/DSP/Source/TransformFunctions/arm_cfft_radix2_q31.c ****    q31_t xt, yt, cosVal, sinVal;
 227:.//Libraries/CMSIS/DSP/Source/TransformFunctions/arm_cfft_radix2_q31.c ****    q31_t p0, p1;
 228:.//Libraries/CMSIS/DSP/Source/TransformFunctions/arm_cfft_radix2_q31.c **** 
 229:.//Libraries/CMSIS/DSP/Source/TransformFunctions/arm_cfft_radix2_q31.c ****    //N = fftLen;
 230:.//Libraries/CMSIS/DSP/Source/TransformFunctions/arm_cfft_radix2_q31.c ****    n2 = fftLen;
 231:.//Libraries/CMSIS/DSP/Source/TransformFunctions/arm_cfft_radix2_q31.c **** 
 232:.//Libraries/CMSIS/DSP/Source/TransformFunctions/arm_cfft_radix2_q31.c ****    n1 = n2;
 233:.//Libraries/CMSIS/DSP/Source/TransformFunctions/arm_cfft_radix2_q31.c ****    n2 = n2 >> 1;
 234:.//Libraries/CMSIS/DSP/Source/TransformFunctions/arm_cfft_radix2_q31.c ****    ia = 0;
 235:.//Libraries/CMSIS/DSP/Source/TransformFunctions/arm_cfft_radix2_q31.c **** 
 236:.//Libraries/CMSIS/DSP/Source/TransformFunctions/arm_cfft_radix2_q31.c ****    // loop for groups
 237:.//Libraries/CMSIS/DSP/Source/TransformFunctions/arm_cfft_radix2_q31.c ****    for (i = 0; i < n2; i++)
 621              		.loc 1 237 4 view .LVU259
 622 000a 4908     		lsrs	r1, r1, #1
 623              	.LVL60:
 222:.//Libraries/CMSIS/DSP/Source/TransformFunctions/arm_cfft_radix2_q31.c **** 
 624              		.loc 1 222 1 view .LVU260
 625 000c 0D92     		str	r2, [sp, #52]
 224:.//Libraries/CMSIS/DSP/Source/TransformFunctions/arm_cfft_radix2_q31.c ****    unsigned n1, n2, ia;
 626              		.loc 1 224 4 is_stmt 1 view .LVU261
 225:.//Libraries/CMSIS/DSP/Source/TransformFunctions/arm_cfft_radix2_q31.c ****    q31_t xt, yt, cosVal, sinVal;
 627              		.loc 1 225 4 view .LVU262
 226:.//Libraries/CMSIS/DSP/Source/TransformFunctions/arm_cfft_radix2_q31.c ****    q31_t p0, p1;
 628              		.loc 1 226 4 view .LVU263
 227:.//Libraries/CMSIS/DSP/Source/TransformFunctions/arm_cfft_radix2_q31.c **** 
 629              		.loc 1 227 4 view .LVU264
 230:.//Libraries/CMSIS/DSP/Source/TransformFunctions/arm_cfft_radix2_q31.c **** 
 630              		.loc 1 230 4 view .LVU265
 232:.//Libraries/CMSIS/DSP/Source/TransformFunctions/arm_cfft_radix2_q31.c ****    n2 = n2 >> 1;
 631              		.loc 1 232 4 view .LVU266
 233:.//Libraries/CMSIS/DSP/Source/TransformFunctions/arm_cfft_radix2_q31.c ****    ia = 0;
 632              		.loc 1 233 4 view .LVU267
 234:.//Libraries/CMSIS/DSP/Source/TransformFunctions/arm_cfft_radix2_q31.c **** 
 633              		.loc 1 234 4 view .LVU268
 634              	.LVL61:
 635              		.loc 1 237 4 view .LVU269
 636              		.loc 1 237 16 view .LVU270
 222:.//Libraries/CMSIS/DSP/Source/TransformFunctions/arm_cfft_radix2_q31.c **** 
 637              		.loc 1 222 1 is_stmt 0 view .LVU271
 638 000e 0B93     		str	r3, [sp, #44]
ARM GAS  /var/folders/wl/rshn8xbx1dsfj1zgryf4g1240000gn/T//ccZq5mAp.s 			page 19


 639              		.loc 1 237 4 view .LVU272
 640 0010 0A91     		str	r1, [sp, #40]
 641 0012 00F00F81 		beq	.L26
 642 0016 00EBC109 		add	r9, r0, r1, lsl #3
 643              		.loc 1 237 11 view .LVU273
 644 001a 4FF00008 		mov	r8, #0
 645 001e DB00     		lsls	r3, r3, #3
 646              	.LVL62:
 647              		.loc 1 237 4 view .LVU274
 648 0020 1646     		mov	r6, r2
 649 0022 09F1040A 		add	r10, r9, #4
 650 0026 00F1040B 		add	fp, r0, #4
 651 002a 0993     		str	r3, [sp, #36]
 652              	.LVL63:
 653              	.L27:
 238:.//Libraries/CMSIS/DSP/Source/TransformFunctions/arm_cfft_radix2_q31.c ****    {
 239:.//Libraries/CMSIS/DSP/Source/TransformFunctions/arm_cfft_radix2_q31.c ****       cosVal = pCoef[ia * 2];
 654              		.loc 1 239 7 is_stmt 1 discriminator 3 view .LVU275
 240:.//Libraries/CMSIS/DSP/Source/TransformFunctions/arm_cfft_radix2_q31.c ****       sinVal = pCoef[(ia * 2) + 1];
 241:.//Libraries/CMSIS/DSP/Source/TransformFunctions/arm_cfft_radix2_q31.c ****       ia = ia + twidCoefModifier;
 242:.//Libraries/CMSIS/DSP/Source/TransformFunctions/arm_cfft_radix2_q31.c **** 
 243:.//Libraries/CMSIS/DSP/Source/TransformFunctions/arm_cfft_radix2_q31.c ****       l = i + n2;
 244:.//Libraries/CMSIS/DSP/Source/TransformFunctions/arm_cfft_radix2_q31.c ****       xt = (pSrc[2 * i] >> 1U) - (pSrc[2 * l] >> 1U);
 655              		.loc 1 244 47 is_stmt 0 discriminator 3 view .LVU276
 656 002c 59F83830 		ldr	r3, [r9, r8, lsl #3]
 245:.//Libraries/CMSIS/DSP/Source/TransformFunctions/arm_cfft_radix2_q31.c ****       pSrc[2 * i] = ((pSrc[2 * i] >> 1U) + (pSrc[2 * l] >> 1U)) >> 1U;
 246:.//Libraries/CMSIS/DSP/Source/TransformFunctions/arm_cfft_radix2_q31.c **** 
 247:.//Libraries/CMSIS/DSP/Source/TransformFunctions/arm_cfft_radix2_q31.c ****       yt = (pSrc[2 * i + 1] >> 1U) - (pSrc[2 * l + 1] >> 1U);
 248:.//Libraries/CMSIS/DSP/Source/TransformFunctions/arm_cfft_radix2_q31.c ****       pSrc[2 * i + 1] =
 249:.//Libraries/CMSIS/DSP/Source/TransformFunctions/arm_cfft_radix2_q31.c ****         ((pSrc[2 * l + 1] >> 1U) + (pSrc[2 * i + 1] >> 1U)) >> 1U;
 250:.//Libraries/CMSIS/DSP/Source/TransformFunctions/arm_cfft_radix2_q31.c **** 
 251:.//Libraries/CMSIS/DSP/Source/TransformFunctions/arm_cfft_radix2_q31.c ****       mult_32x32_keep32_R(p0, xt, cosVal);
 252:.//Libraries/CMSIS/DSP/Source/TransformFunctions/arm_cfft_radix2_q31.c ****       mult_32x32_keep32_R(p1, yt, cosVal);
 253:.//Libraries/CMSIS/DSP/Source/TransformFunctions/arm_cfft_radix2_q31.c ****       multSub_32x32_keep32_R(p0, yt, sinVal);
 254:.//Libraries/CMSIS/DSP/Source/TransformFunctions/arm_cfft_radix2_q31.c ****       multAcc_32x32_keep32_R(p1, xt, sinVal);
 657              		.loc 1 254 7 discriminator 3 view .LVU277
 658 0030 0022     		movs	r2, #0
 244:.//Libraries/CMSIS/DSP/Source/TransformFunctions/arm_cfft_radix2_q31.c ****       pSrc[2 * i] = ((pSrc[2 * i] >> 1U) + (pSrc[2 * l] >> 1U)) >> 1U;
 659              		.loc 1 244 25 discriminator 3 view .LVU278
 660 0032 5EF83840 		ldr	r4, [lr, r8, lsl #3]
 244:.//Libraries/CMSIS/DSP/Source/TransformFunctions/arm_cfft_radix2_q31.c ****       pSrc[2 * i] = ((pSrc[2 * i] >> 1U) + (pSrc[2 * l] >> 1U)) >> 1U;
 661              		.loc 1 244 47 discriminator 3 view .LVU279
 662 0036 5B10     		asrs	r3, r3, #1
 663              		.loc 1 254 7 discriminator 3 view .LVU280
 664 0038 0692     		str	r2, [sp, #24]
 665 003a 099A     		ldr	r2, [sp, #36]
 240:.//Libraries/CMSIS/DSP/Source/TransformFunctions/arm_cfft_radix2_q31.c ****       sinVal = pCoef[(ia * 2) + 1];
 666              		.loc 1 240 14 discriminator 3 view .LVU281
 667 003c D6E90075 		ldrd	r7, r5, [r6]
 668              	.LVL64:
 241:.//Libraries/CMSIS/DSP/Source/TransformFunctions/arm_cfft_radix2_q31.c **** 
 669              		.loc 1 241 7 is_stmt 1 discriminator 3 view .LVU282
 243:.//Libraries/CMSIS/DSP/Source/TransformFunctions/arm_cfft_radix2_q31.c ****       xt = (pSrc[2 * i] >> 1U) - (pSrc[2 * l] >> 1U);
 670              		.loc 1 243 7 discriminator 3 view .LVU283
 244:.//Libraries/CMSIS/DSP/Source/TransformFunctions/arm_cfft_radix2_q31.c ****       pSrc[2 * i] = ((pSrc[2 * i] >> 1U) + (pSrc[2 * l] >> 1U)) >> 1U;
 671              		.loc 1 244 7 discriminator 3 view .LVU284
 672 0040 1644     		add	r6, r6, r2
ARM GAS  /var/folders/wl/rshn8xbx1dsfj1zgryf4g1240000gn/T//ccZq5mAp.s 			page 20


 245:.//Libraries/CMSIS/DSP/Source/TransformFunctions/arm_cfft_radix2_q31.c **** 
 673              		.loc 1 245 42 is_stmt 0 discriminator 3 view .LVU285
 674 0042 03EB6402 		add	r2, r3, r4, asr #1
 244:.//Libraries/CMSIS/DSP/Source/TransformFunctions/arm_cfft_radix2_q31.c ****       pSrc[2 * i] = ((pSrc[2 * i] >> 1U) + (pSrc[2 * l] >> 1U)) >> 1U;
 675              		.loc 1 244 10 discriminator 3 view .LVU286
 676 0046 C3EB6404 		rsb	r4, r3, r4, asr #1
 677              	.LVL65:
 245:.//Libraries/CMSIS/DSP/Source/TransformFunctions/arm_cfft_radix2_q31.c **** 
 678              		.loc 1 245 7 is_stmt 1 discriminator 3 view .LVU287
 245:.//Libraries/CMSIS/DSP/Source/TransformFunctions/arm_cfft_radix2_q31.c **** 
 679              		.loc 1 245 65 is_stmt 0 discriminator 3 view .LVU288
 680 004a 5210     		asrs	r2, r2, #1
 245:.//Libraries/CMSIS/DSP/Source/TransformFunctions/arm_cfft_radix2_q31.c **** 
 681              		.loc 1 245 19 discriminator 3 view .LVU289
 682 004c 4EF83820 		str	r2, [lr, r8, lsl #3]
 247:.//Libraries/CMSIS/DSP/Source/TransformFunctions/arm_cfft_radix2_q31.c ****       pSrc[2 * i + 1] =
 683              		.loc 1 247 7 is_stmt 1 discriminator 3 view .LVU290
 251:.//Libraries/CMSIS/DSP/Source/TransformFunctions/arm_cfft_radix2_q31.c ****       mult_32x32_keep32_R(p1, yt, cosVal);
 684              		.loc 1 251 7 is_stmt 0 discriminator 3 view .LVU291
 685 0050 4FF00042 		mov	r2, #-2147483648
 247:.//Libraries/CMSIS/DSP/Source/TransformFunctions/arm_cfft_radix2_q31.c ****       pSrc[2 * i + 1] =
 686              		.loc 1 247 55 discriminator 3 view .LVU292
 687 0054 5AF83830 		ldr	r3, [r10, r8, lsl #3]
 247:.//Libraries/CMSIS/DSP/Source/TransformFunctions/arm_cfft_radix2_q31.c ****       pSrc[2 * i + 1] =
 688              		.loc 1 247 29 discriminator 3 view .LVU293
 689 0058 5BF83810 		ldr	r1, [fp, r8, lsl #3]
 247:.//Libraries/CMSIS/DSP/Source/TransformFunctions/arm_cfft_radix2_q31.c ****       pSrc[2 * i + 1] =
 690              		.loc 1 247 55 discriminator 3 view .LVU294
 691 005c 4FEA630C 		asr	ip, r3, #1
 251:.//Libraries/CMSIS/DSP/Source/TransformFunctions/arm_cfft_radix2_q31.c ****       mult_32x32_keep32_R(p1, yt, cosVal);
 692              		.loc 1 251 7 discriminator 3 view .LVU295
 693 0060 0023     		movs	r3, #0
 694 0062 C7FB0423 		smlal	r2, r3, r7, r4
 247:.//Libraries/CMSIS/DSP/Source/TransformFunctions/arm_cfft_radix2_q31.c ****       pSrc[2 * i + 1] =
 695              		.loc 1 247 10 discriminator 3 view .LVU296
 696 0066 CCEB6102 		rsb	r2, ip, r1, asr #1
 697              	.LVL66:
 248:.//Libraries/CMSIS/DSP/Source/TransformFunctions/arm_cfft_radix2_q31.c ****         ((pSrc[2 * l + 1] >> 1U) + (pSrc[2 * i + 1] >> 1U)) >> 1U;
 698              		.loc 1 248 7 is_stmt 1 discriminator 3 view .LVU297
 249:.//Libraries/CMSIS/DSP/Source/TransformFunctions/arm_cfft_radix2_q31.c **** 
 699              		.loc 1 249 34 is_stmt 0 discriminator 3 view .LVU298
 700 006a 0CEB610C 		add	ip, ip, r1, asr #1
 253:.//Libraries/CMSIS/DSP/Source/TransformFunctions/arm_cfft_radix2_q31.c ****       multAcc_32x32_keep32_R(p1, xt, sinVal);
 701              		.loc 1 253 7 discriminator 3 view .LVU299
 702 006e 0893     		str	r3, [sp, #32]
 703 0070 82FB0501 		smull	r0, r1, r2, r5
 704 0074 0023     		movs	r3, #0
 705 0076 CDE90201 		strd	r0, [sp, #8]
 252:.//Libraries/CMSIS/DSP/Source/TransformFunctions/arm_cfft_radix2_q31.c ****       multSub_32x32_keep32_R(p0, yt, sinVal);
 706              		.loc 1 252 7 discriminator 3 view .LVU300
 707 007a 4FF00040 		mov	r0, #-2147483648
 708 007e 0021     		movs	r1, #0
 709 0080 C2FB0701 		smlal	r0, r1, r2, r7
 253:.//Libraries/CMSIS/DSP/Source/TransformFunctions/arm_cfft_radix2_q31.c ****       multAcc_32x32_keep32_R(p1, xt, sinVal);
 710              		.loc 1 253 7 discriminator 3 view .LVU301
 711 0084 029A     		ldr	r2, [sp, #8]
 712              	.LVL67:
ARM GAS  /var/folders/wl/rshn8xbx1dsfj1zgryf4g1240000gn/T//ccZq5mAp.s 			page 21


 713              		.loc 1 254 7 discriminator 3 view .LVU302
 714 0086 0791     		str	r1, [sp, #28]
 249:.//Libraries/CMSIS/DSP/Source/TransformFunctions/arm_cfft_radix2_q31.c **** 
 715              		.loc 1 249 61 discriminator 3 view .LVU303
 716 0088 4FEA6C07 		asr	r7, ip, #1
 253:.//Libraries/CMSIS/DSP/Source/TransformFunctions/arm_cfft_radix2_q31.c ****       multAcc_32x32_keep32_R(p1, xt, sinVal);
 717              		.loc 1 253 7 discriminator 3 view .LVU304
 718 008c 981A     		subs	r0, r3, r2
 248:.//Libraries/CMSIS/DSP/Source/TransformFunctions/arm_cfft_radix2_q31.c ****         ((pSrc[2 * l + 1] >> 1U) + (pSrc[2 * i + 1] >> 1U)) >> 1U;
 719              		.loc 1 248 23 discriminator 3 view .LVU305
 720 008e 4BF83870 		str	r7, [fp, r8, lsl #3]
 721              	.LVL68:
 251:.//Libraries/CMSIS/DSP/Source/TransformFunctions/arm_cfft_radix2_q31.c ****       mult_32x32_keep32_R(p1, yt, cosVal);
 722              		.loc 1 251 7 is_stmt 1 discriminator 3 view .LVU306
 252:.//Libraries/CMSIS/DSP/Source/TransformFunctions/arm_cfft_radix2_q31.c ****       multSub_32x32_keep32_R(p0, yt, sinVal);
 723              		.loc 1 252 7 discriminator 3 view .LVU307
 253:.//Libraries/CMSIS/DSP/Source/TransformFunctions/arm_cfft_radix2_q31.c ****       multAcc_32x32_keep32_R(p1, xt, sinVal);
 724              		.loc 1 253 7 discriminator 3 view .LVU308
 725              		.loc 1 254 7 discriminator 3 view .LVU309
 255:.//Libraries/CMSIS/DSP/Source/TransformFunctions/arm_cfft_radix2_q31.c **** 
 256:.//Libraries/CMSIS/DSP/Source/TransformFunctions/arm_cfft_radix2_q31.c ****       pSrc[2U * l] = p0;
 726              		.loc 1 256 7 discriminator 3 view .LVU310
 254:.//Libraries/CMSIS/DSP/Source/TransformFunctions/arm_cfft_radix2_q31.c **** 
 727              		.loc 1 254 7 is_stmt 0 discriminator 3 view .LVU311
 728 0092 DDE90623 		ldrd	r2, [sp, #24]
 729 0096 C5FB0423 		smlal	r2, r3, r5, r4
 730 009a 1446     		mov	r4, r2
 731              	.LVL69:
 254:.//Libraries/CMSIS/DSP/Source/TransformFunctions/arm_cfft_radix2_q31.c **** 
 732              		.loc 1 254 7 discriminator 3 view .LVU312
 733 009c 1D46     		mov	r5, r3
 734              	.LVL70:
 253:.//Libraries/CMSIS/DSP/Source/TransformFunctions/arm_cfft_radix2_q31.c ****       multAcc_32x32_keep32_R(p1, xt, sinVal);
 735              		.loc 1 253 7 discriminator 3 view .LVU313
 736 009e 039A     		ldr	r2, [sp, #12]
 737 00a0 089B     		ldr	r3, [sp, #32]
 738 00a2 63EB0201 		sbc	r1, r3, r2
 739 00a6 10F10040 		adds	r0, r0, #-2147483648
 740 00aa 41F10001 		adc	r1, r1, #0
 254:.//Libraries/CMSIS/DSP/Source/TransformFunctions/arm_cfft_radix2_q31.c **** 
 741              		.loc 1 254 7 discriminator 3 view .LVU314
 742 00ae 14F10042 		adds	r2, r4, #-2147483648
 743 00b2 45F10003 		adc	r3, r5, #0
 253:.//Libraries/CMSIS/DSP/Source/TransformFunctions/arm_cfft_radix2_q31.c ****       multAcc_32x32_keep32_R(p1, xt, sinVal);
 744              		.loc 1 253 7 discriminator 3 view .LVU315
 745 00b6 49F83810 		str	r1, [r9, r8, lsl #3]
 257:.//Libraries/CMSIS/DSP/Source/TransformFunctions/arm_cfft_radix2_q31.c ****       pSrc[2U * l + 1U] = p1;
 746              		.loc 1 257 7 is_stmt 1 discriminator 3 view .LVU316
 254:.//Libraries/CMSIS/DSP/Source/TransformFunctions/arm_cfft_radix2_q31.c **** 
 747              		.loc 1 254 7 is_stmt 0 discriminator 3 view .LVU317
 748 00ba 4AF83830 		str	r3, [r10, r8, lsl #3]
 237:.//Libraries/CMSIS/DSP/Source/TransformFunctions/arm_cfft_radix2_q31.c ****    {
 749              		.loc 1 237 24 is_stmt 1 discriminator 3 view .LVU318
 237:.//Libraries/CMSIS/DSP/Source/TransformFunctions/arm_cfft_radix2_q31.c ****    {
 750              		.loc 1 237 25 is_stmt 0 discriminator 3 view .LVU319
 751 00be 08F10108 		add	r8, r8, #1
 752              	.LVL71:
ARM GAS  /var/folders/wl/rshn8xbx1dsfj1zgryf4g1240000gn/T//ccZq5mAp.s 			page 22


 237:.//Libraries/CMSIS/DSP/Source/TransformFunctions/arm_cfft_radix2_q31.c ****    {
 753              		.loc 1 237 16 is_stmt 1 discriminator 3 view .LVU320
 237:.//Libraries/CMSIS/DSP/Source/TransformFunctions/arm_cfft_radix2_q31.c ****    {
 754              		.loc 1 237 4 is_stmt 0 discriminator 3 view .LVU321
 755 00c2 0A9B     		ldr	r3, [sp, #40]
 756 00c4 4345     		cmp	r3, r8
 757 00c6 B1D1     		bne	.L27
 258:.//Libraries/CMSIS/DSP/Source/TransformFunctions/arm_cfft_radix2_q31.c ****    }                             // groups loop end
 259:.//Libraries/CMSIS/DSP/Source/TransformFunctions/arm_cfft_radix2_q31.c **** 
 260:.//Libraries/CMSIS/DSP/Source/TransformFunctions/arm_cfft_radix2_q31.c ****    twidCoefModifier = twidCoefModifier << 1U;
 758              		.loc 1 260 4 is_stmt 1 view .LVU322
 759              		.loc 1 260 21 is_stmt 0 view .LVU323
 760 00c8 0B9B     		ldr	r3, [sp, #44]
 761 00ca 5B00     		lsls	r3, r3, #1
 762 00cc 9BB2     		uxth	r3, r3
 763 00ce 0C93     		str	r3, [sp, #48]
 764              	.LVL72:
 261:.//Libraries/CMSIS/DSP/Source/TransformFunctions/arm_cfft_radix2_q31.c **** 
 262:.//Libraries/CMSIS/DSP/Source/TransformFunctions/arm_cfft_radix2_q31.c ****    // loop for stage
 263:.//Libraries/CMSIS/DSP/Source/TransformFunctions/arm_cfft_radix2_q31.c ****    for (k = fftLen / 2; k > 2; k = k >> 1)
 765              		.loc 1 263 4 is_stmt 1 view .LVU324
 766              		.loc 1 263 25 view .LVU325
 767              		.loc 1 263 4 is_stmt 0 view .LVU326
 768 00d0 0A9B     		ldr	r3, [sp, #40]
 769              	.LVL73:
 770              		.loc 1 263 4 view .LVU327
 771 00d2 022B     		cmp	r3, #2
 772 00d4 40F2B580 		bls	.L50
 773              	.LVL74:
 774              	.L33:
 264:.//Libraries/CMSIS/DSP/Source/TransformFunctions/arm_cfft_radix2_q31.c ****    {
 265:.//Libraries/CMSIS/DSP/Source/TransformFunctions/arm_cfft_radix2_q31.c ****       n1 = n2;
 775              		.loc 1 265 7 is_stmt 1 view .LVU328
 266:.//Libraries/CMSIS/DSP/Source/TransformFunctions/arm_cfft_radix2_q31.c ****       n2 = n2 >> 1;
 776              		.loc 1 266 7 view .LVU329
 777 00d8 0A9B     		ldr	r3, [sp, #40]
 778 00da 0C9A     		ldr	r2, [sp, #48]
 779 00dc 0693     		str	r3, [sp, #24]
 780              		.loc 1 266 10 is_stmt 0 view .LVU330
 781 00de 5B08     		lsrs	r3, r3, #1
 782 00e0 D200     		lsls	r2, r2, #3
 783 00e2 0EEBC305 		add	r5, lr, r3, lsl #3
 784 00e6 0A93     		str	r3, [sp, #40]
 785              	.LVL75:
 267:.//Libraries/CMSIS/DSP/Source/TransformFunctions/arm_cfft_radix2_q31.c ****       ia = 0;
 786              		.loc 1 267 7 is_stmt 1 view .LVU331
 268:.//Libraries/CMSIS/DSP/Source/TransformFunctions/arm_cfft_radix2_q31.c **** 
 269:.//Libraries/CMSIS/DSP/Source/TransformFunctions/arm_cfft_radix2_q31.c ****       // loop for groups
 270:.//Libraries/CMSIS/DSP/Source/TransformFunctions/arm_cfft_radix2_q31.c ****       for (j = 0; j < n2; j++)
 787              		.loc 1 270 7 view .LVU332
 788              		.loc 1 270 19 view .LVU333
 789 00e8 0B92     		str	r2, [sp, #44]
 790              		.loc 1 270 14 is_stmt 0 view .LVU334
 791 00ea 0023     		movs	r3, #0
 792              	.LVL76:
 266:.//Libraries/CMSIS/DSP/Source/TransformFunctions/arm_cfft_radix2_q31.c ****       ia = 0;
 793              		.loc 1 266 10 view .LVU335
ARM GAS  /var/folders/wl/rshn8xbx1dsfj1zgryf4g1240000gn/T//ccZq5mAp.s 			page 23


 794 00ec 0D9A     		ldr	r2, [sp, #52]
 795 00ee 05F1040C 		add	ip, r5, #4
 796              		.loc 1 270 14 view .LVU336
 797 00f2 0893     		str	r3, [sp, #32]
 266:.//Libraries/CMSIS/DSP/Source/TransformFunctions/arm_cfft_radix2_q31.c ****       ia = 0;
 798              		.loc 1 266 10 view .LVU337
 799 00f4 0992     		str	r2, [sp, #36]
 800              	.LVL77:
 801              	.L30:
 271:.//Libraries/CMSIS/DSP/Source/TransformFunctions/arm_cfft_radix2_q31.c ****       {
 272:.//Libraries/CMSIS/DSP/Source/TransformFunctions/arm_cfft_radix2_q31.c ****          cosVal = pCoef[ia * 2];
 802              		.loc 1 272 10 is_stmt 1 view .LVU338
 803              		.loc 1 272 17 is_stmt 0 view .LVU339
 804 00f6 099B     		ldr	r3, [sp, #36]
 273:.//Libraries/CMSIS/DSP/Source/TransformFunctions/arm_cfft_radix2_q31.c ****          sinVal = pCoef[(ia * 2) + 1];
 274:.//Libraries/CMSIS/DSP/Source/TransformFunctions/arm_cfft_radix2_q31.c ****          ia = ia + twidCoefModifier;
 275:.//Libraries/CMSIS/DSP/Source/TransformFunctions/arm_cfft_radix2_q31.c **** 
 276:.//Libraries/CMSIS/DSP/Source/TransformFunctions/arm_cfft_radix2_q31.c ****          // loop for butterfly
 277:.//Libraries/CMSIS/DSP/Source/TransformFunctions/arm_cfft_radix2_q31.c ****          for (i = j; i < fftLen; i += n1)
 805              		.loc 1 277 10 view .LVU340
 806 00f8 0899     		ldr	r1, [sp, #32]
 272:.//Libraries/CMSIS/DSP/Source/TransformFunctions/arm_cfft_radix2_q31.c ****          sinVal = pCoef[(ia * 2) + 1];
 807              		.loc 1 272 17 view .LVU341
 808 00fa 1A68     		ldr	r2, [r3]
 809              	.LVL78:
 273:.//Libraries/CMSIS/DSP/Source/TransformFunctions/arm_cfft_radix2_q31.c ****          sinVal = pCoef[(ia * 2) + 1];
 810              		.loc 1 273 10 is_stmt 1 view .LVU342
 273:.//Libraries/CMSIS/DSP/Source/TransformFunctions/arm_cfft_radix2_q31.c ****          sinVal = pCoef[(ia * 2) + 1];
 811              		.loc 1 273 17 is_stmt 0 view .LVU343
 812 00fc D3F804A0 		ldr	r10, [r3, #4]
 813              	.LVL79:
 274:.//Libraries/CMSIS/DSP/Source/TransformFunctions/arm_cfft_radix2_q31.c **** 
 814              		.loc 1 274 10 is_stmt 1 view .LVU344
 815              		.loc 1 277 10 view .LVU345
 816              		.loc 1 277 22 view .LVU346
 817              		.loc 1 277 10 is_stmt 0 view .LVU347
 818 0100 059B     		ldr	r3, [sp, #20]
 819 0102 8B42     		cmp	r3, r1
 820 0104 40D9     		bls	.L32
 821 0106 089B     		ldr	r3, [sp, #32]
 822 0108 9146     		mov	r9, r2
 823 010a 0295     		str	r5, [sp, #8]
 824              	.LVL80:
 825              	.L29:
 278:.//Libraries/CMSIS/DSP/Source/TransformFunctions/arm_cfft_radix2_q31.c ****          {
 279:.//Libraries/CMSIS/DSP/Source/TransformFunctions/arm_cfft_radix2_q31.c ****             l = i + n2;
 826              		.loc 1 279 13 is_stmt 1 discriminator 3 view .LVU348
 280:.//Libraries/CMSIS/DSP/Source/TransformFunctions/arm_cfft_radix2_q31.c ****             xt = pSrc[2 * i] - pSrc[2 * l];
 827              		.loc 1 280 13 discriminator 3 view .LVU349
 828              		.loc 1 280 36 is_stmt 0 discriminator 3 view .LVU350
 829 010c 0299     		ldr	r1, [sp, #8]
 281:.//Libraries/CMSIS/DSP/Source/TransformFunctions/arm_cfft_radix2_q31.c ****             pSrc[2 * i] = (pSrc[2 * i] + pSrc[2 * l]) >> 1U;
 282:.//Libraries/CMSIS/DSP/Source/TransformFunctions/arm_cfft_radix2_q31.c **** 
 283:.//Libraries/CMSIS/DSP/Source/TransformFunctions/arm_cfft_radix2_q31.c ****             yt = pSrc[2 * i + 1] - pSrc[2 * l + 1];
 284:.//Libraries/CMSIS/DSP/Source/TransformFunctions/arm_cfft_radix2_q31.c ****             pSrc[2 * i + 1] = (pSrc[2 * l + 1] + pSrc[2 * i + 1]) >> 1U;
 285:.//Libraries/CMSIS/DSP/Source/TransformFunctions/arm_cfft_radix2_q31.c **** 
 286:.//Libraries/CMSIS/DSP/Source/TransformFunctions/arm_cfft_radix2_q31.c ****             mult_32x32_keep32_R(p0, xt, cosVal);
ARM GAS  /var/folders/wl/rshn8xbx1dsfj1zgryf4g1240000gn/T//ccZq5mAp.s 			page 24


 830              		.loc 1 286 13 discriminator 3 view .LVU351
 831 010e 4FF00040 		mov	r0, #-2147483648
 280:.//Libraries/CMSIS/DSP/Source/TransformFunctions/arm_cfft_radix2_q31.c ****             xt = pSrc[2 * i] - pSrc[2 * l];
 832              		.loc 1 280 22 discriminator 3 view .LVU352
 833 0112 5EF83340 		ldr	r4, [lr, r3, lsl #3]
 287:.//Libraries/CMSIS/DSP/Source/TransformFunctions/arm_cfft_radix2_q31.c ****             mult_32x32_keep32_R(p1, yt, cosVal);
 288:.//Libraries/CMSIS/DSP/Source/TransformFunctions/arm_cfft_radix2_q31.c ****             multSub_32x32_keep32_R(p0, yt, sinVal);
 834              		.loc 1 288 13 discriminator 3 view .LVU353
 835 0116 0022     		movs	r2, #0
 280:.//Libraries/CMSIS/DSP/Source/TransformFunctions/arm_cfft_radix2_q31.c ****             pSrc[2 * i] = (pSrc[2 * i] + pSrc[2 * l]) >> 1U;
 836              		.loc 1 280 36 discriminator 3 view .LVU354
 837 0118 51F83310 		ldr	r1, [r1, r3, lsl #3]
 287:.//Libraries/CMSIS/DSP/Source/TransformFunctions/arm_cfft_radix2_q31.c ****             mult_32x32_keep32_R(p1, yt, cosVal);
 838              		.loc 1 287 13 discriminator 3 view .LVU355
 839 011c 4FF00045 		mov	r5, #-2147483648
 289:.//Libraries/CMSIS/DSP/Source/TransformFunctions/arm_cfft_radix2_q31.c ****             multAcc_32x32_keep32_R(p1, xt, sinVal);
 840              		.loc 1 289 13 discriminator 3 view .LVU356
 841 0120 0092     		str	r2, [sp]
 281:.//Libraries/CMSIS/DSP/Source/TransformFunctions/arm_cfft_radix2_q31.c **** 
 842              		.loc 1 281 40 discriminator 3 view .LVU357
 843 0122 6618     		adds	r6, r4, r1
 280:.//Libraries/CMSIS/DSP/Source/TransformFunctions/arm_cfft_radix2_q31.c ****             pSrc[2 * i] = (pSrc[2 * i] + pSrc[2 * l]) >> 1U;
 844              		.loc 1 280 16 discriminator 3 view .LVU358
 845 0124 641A     		subs	r4, r4, r1
 846              	.LVL81:
 281:.//Libraries/CMSIS/DSP/Source/TransformFunctions/arm_cfft_radix2_q31.c **** 
 847              		.loc 1 281 13 is_stmt 1 discriminator 3 view .LVU359
 286:.//Libraries/CMSIS/DSP/Source/TransformFunctions/arm_cfft_radix2_q31.c ****             mult_32x32_keep32_R(p1, yt, cosVal);
 848              		.loc 1 286 13 is_stmt 0 discriminator 3 view .LVU360
 849 0126 0021     		movs	r1, #0
 281:.//Libraries/CMSIS/DSP/Source/TransformFunctions/arm_cfft_radix2_q31.c **** 
 850              		.loc 1 281 55 discriminator 3 view .LVU361
 851 0128 7610     		asrs	r6, r6, #1
 286:.//Libraries/CMSIS/DSP/Source/TransformFunctions/arm_cfft_radix2_q31.c ****             mult_32x32_keep32_R(p1, yt, cosVal);
 852              		.loc 1 286 13 discriminator 3 view .LVU362
 853 012a C9FB0401 		smlal	r0, r1, r9, r4
 288:.//Libraries/CMSIS/DSP/Source/TransformFunctions/arm_cfft_radix2_q31.c ****             multAcc_32x32_keep32_R(p1, xt, sinVal);
 854              		.loc 1 288 13 discriminator 3 view .LVU363
 855 012e 8846     		mov	r8, r1
 281:.//Libraries/CMSIS/DSP/Source/TransformFunctions/arm_cfft_radix2_q31.c **** 
 856              		.loc 1 281 25 discriminator 3 view .LVU364
 857 0130 4EF83360 		str	r6, [lr, r3, lsl #3]
 283:.//Libraries/CMSIS/DSP/Source/TransformFunctions/arm_cfft_radix2_q31.c ****             pSrc[2 * i + 1] = (pSrc[2 * l + 1] + pSrc[2 * i + 1]) >> 1U;
 858              		.loc 1 283 13 is_stmt 1 discriminator 3 view .LVU365
 283:.//Libraries/CMSIS/DSP/Source/TransformFunctions/arm_cfft_radix2_q31.c ****             pSrc[2 * i + 1] = (pSrc[2 * l + 1] + pSrc[2 * i + 1]) >> 1U;
 859              		.loc 1 283 40 is_stmt 0 discriminator 3 view .LVU366
 860 0134 5CF83310 		ldr	r1, [ip, r3, lsl #3]
 283:.//Libraries/CMSIS/DSP/Source/TransformFunctions/arm_cfft_radix2_q31.c ****             pSrc[2 * i + 1] = (pSrc[2 * l + 1] + pSrc[2 * i + 1]) >> 1U;
 861              		.loc 1 283 22 discriminator 3 view .LVU367
 862 0138 5BF83360 		ldr	r6, [fp, r3, lsl #3]
 283:.//Libraries/CMSIS/DSP/Source/TransformFunctions/arm_cfft_radix2_q31.c ****             pSrc[2 * i + 1] = (pSrc[2 * l + 1] + pSrc[2 * i + 1]) >> 1U;
 863              		.loc 1 283 16 discriminator 3 view .LVU368
 864 013c 771A     		subs	r7, r6, r1
 865              	.LVL82:
 284:.//Libraries/CMSIS/DSP/Source/TransformFunctions/arm_cfft_radix2_q31.c **** 
 866              		.loc 1 284 13 is_stmt 1 discriminator 3 view .LVU369
 284:.//Libraries/CMSIS/DSP/Source/TransformFunctions/arm_cfft_radix2_q31.c **** 
ARM GAS  /var/folders/wl/rshn8xbx1dsfj1zgryf4g1240000gn/T//ccZq5mAp.s 			page 25


 867              		.loc 1 284 48 is_stmt 0 discriminator 3 view .LVU370
 868 013e 0E44     		add	r6, r6, r1
 284:.//Libraries/CMSIS/DSP/Source/TransformFunctions/arm_cfft_radix2_q31.c **** 
 869              		.loc 1 284 67 discriminator 3 view .LVU371
 870 0140 7610     		asrs	r6, r6, #1
 288:.//Libraries/CMSIS/DSP/Source/TransformFunctions/arm_cfft_radix2_q31.c ****             multAcc_32x32_keep32_R(p1, xt, sinVal);
 871              		.loc 1 288 13 discriminator 3 view .LVU372
 872 0142 87FB0A01 		smull	r0, r1, r7, r10
 284:.//Libraries/CMSIS/DSP/Source/TransformFunctions/arm_cfft_radix2_q31.c **** 
 873              		.loc 1 284 29 discriminator 3 view .LVU373
 874 0146 4BF83360 		str	r6, [fp, r3, lsl #3]
 286:.//Libraries/CMSIS/DSP/Source/TransformFunctions/arm_cfft_radix2_q31.c ****             mult_32x32_keep32_R(p1, yt, cosVal);
 875              		.loc 1 286 13 is_stmt 1 discriminator 3 view .LVU374
 876              	.LVL83:
 287:.//Libraries/CMSIS/DSP/Source/TransformFunctions/arm_cfft_radix2_q31.c ****             multSub_32x32_keep32_R(p0, yt, sinVal);
 877              		.loc 1 287 13 discriminator 3 view .LVU375
 288:.//Libraries/CMSIS/DSP/Source/TransformFunctions/arm_cfft_radix2_q31.c ****             multAcc_32x32_keep32_R(p1, xt, sinVal);
 878              		.loc 1 288 13 discriminator 3 view .LVU376
 879              		.loc 1 289 13 discriminator 3 view .LVU377
 290:.//Libraries/CMSIS/DSP/Source/TransformFunctions/arm_cfft_radix2_q31.c **** 
 291:.//Libraries/CMSIS/DSP/Source/TransformFunctions/arm_cfft_radix2_q31.c ****             pSrc[2U * l] = p0;
 880              		.loc 1 291 13 discriminator 3 view .LVU378
 287:.//Libraries/CMSIS/DSP/Source/TransformFunctions/arm_cfft_radix2_q31.c ****             multSub_32x32_keep32_R(p0, yt, sinVal);
 881              		.loc 1 287 13 is_stmt 0 discriminator 3 view .LVU379
 882 014a 0026     		movs	r6, #0
 288:.//Libraries/CMSIS/DSP/Source/TransformFunctions/arm_cfft_radix2_q31.c ****             multAcc_32x32_keep32_R(p1, xt, sinVal);
 883              		.loc 1 288 13 discriminator 3 view .LVU380
 884 014c 121A     		subs	r2, r2, r0
 287:.//Libraries/CMSIS/DSP/Source/TransformFunctions/arm_cfft_radix2_q31.c ****             multSub_32x32_keep32_R(p0, yt, sinVal);
 885              		.loc 1 287 13 discriminator 3 view .LVU381
 886 014e C9FB0756 		smlal	r5, r6, r9, r7
 289:.//Libraries/CMSIS/DSP/Source/TransformFunctions/arm_cfft_radix2_q31.c **** 
 887              		.loc 1 289 13 discriminator 3 view .LVU382
 888 0152 0196     		str	r6, [sp, #4]
 288:.//Libraries/CMSIS/DSP/Source/TransformFunctions/arm_cfft_radix2_q31.c ****             multAcc_32x32_keep32_R(p1, xt, sinVal);
 889              		.loc 1 288 13 discriminator 3 view .LVU383
 890 0154 68EB0108 		sbc	r8, r8, r1
 891 0158 12F10042 		adds	r2, r2, #-2147483648
 289:.//Libraries/CMSIS/DSP/Source/TransformFunctions/arm_cfft_radix2_q31.c **** 
 892              		.loc 1 289 13 discriminator 3 view .LVU384
 893 015c DDE90001 		ldrd	r0, [sp]
 288:.//Libraries/CMSIS/DSP/Source/TransformFunctions/arm_cfft_radix2_q31.c ****             multAcc_32x32_keep32_R(p1, xt, sinVal);
 894              		.loc 1 288 13 discriminator 3 view .LVU385
 895 0160 48F10002 		adc	r2, r8, #0
 289:.//Libraries/CMSIS/DSP/Source/TransformFunctions/arm_cfft_radix2_q31.c **** 
 896              		.loc 1 289 13 discriminator 3 view .LVU386
 897 0164 CAFB0401 		smlal	r0, r1, r10, r4
 898 0168 0446     		mov	r4, r0
 899              	.LVL84:
 289:.//Libraries/CMSIS/DSP/Source/TransformFunctions/arm_cfft_radix2_q31.c **** 
 900              		.loc 1 289 13 discriminator 3 view .LVU387
 901 016a 14F10040 		adds	r0, r4, #-2147483648
 288:.//Libraries/CMSIS/DSP/Source/TransformFunctions/arm_cfft_radix2_q31.c ****             multAcc_32x32_keep32_R(p1, xt, sinVal);
 902              		.loc 1 288 13 discriminator 3 view .LVU388
 903 016e 0298     		ldr	r0, [sp, #8]
 289:.//Libraries/CMSIS/DSP/Source/TransformFunctions/arm_cfft_radix2_q31.c **** 
 904              		.loc 1 289 13 discriminator 3 view .LVU389
ARM GAS  /var/folders/wl/rshn8xbx1dsfj1zgryf4g1240000gn/T//ccZq5mAp.s 			page 26


 905 0170 41F10001 		adc	r1, r1, #0
 288:.//Libraries/CMSIS/DSP/Source/TransformFunctions/arm_cfft_radix2_q31.c ****             multAcc_32x32_keep32_R(p1, xt, sinVal);
 906              		.loc 1 288 13 discriminator 3 view .LVU390
 907 0174 40F83320 		str	r2, [r0, r3, lsl #3]
 292:.//Libraries/CMSIS/DSP/Source/TransformFunctions/arm_cfft_radix2_q31.c ****             pSrc[2U * l + 1U] = p1;
 908              		.loc 1 292 13 is_stmt 1 discriminator 3 view .LVU391
 277:.//Libraries/CMSIS/DSP/Source/TransformFunctions/arm_cfft_radix2_q31.c ****          {
 909              		.loc 1 277 36 is_stmt 0 discriminator 3 view .LVU392
 910 0178 069A     		ldr	r2, [sp, #24]
 289:.//Libraries/CMSIS/DSP/Source/TransformFunctions/arm_cfft_radix2_q31.c **** 
 911              		.loc 1 289 13 discriminator 3 view .LVU393
 912 017a 4CF83310 		str	r1, [ip, r3, lsl #3]
 277:.//Libraries/CMSIS/DSP/Source/TransformFunctions/arm_cfft_radix2_q31.c ****          {
 913              		.loc 1 277 34 is_stmt 1 discriminator 3 view .LVU394
 277:.//Libraries/CMSIS/DSP/Source/TransformFunctions/arm_cfft_radix2_q31.c ****          {
 914              		.loc 1 277 36 is_stmt 0 discriminator 3 view .LVU395
 915 017e 1344     		add	r3, r3, r2
 916              	.LVL85:
 277:.//Libraries/CMSIS/DSP/Source/TransformFunctions/arm_cfft_radix2_q31.c ****          {
 917              		.loc 1 277 22 is_stmt 1 discriminator 3 view .LVU396
 277:.//Libraries/CMSIS/DSP/Source/TransformFunctions/arm_cfft_radix2_q31.c ****          {
 918              		.loc 1 277 10 is_stmt 0 discriminator 3 view .LVU397
 919 0180 059A     		ldr	r2, [sp, #20]
 920 0182 9A42     		cmp	r2, r3
 921 0184 C2D8     		bhi	.L29
 922 0186 0546     		mov	r5, r0
 923              	.LVL86:
 924              	.L32:
 270:.//Libraries/CMSIS/DSP/Source/TransformFunctions/arm_cfft_radix2_q31.c ****       {
 925              		.loc 1 270 27 is_stmt 1 view .LVU398
 926 0188 099A     		ldr	r2, [sp, #36]
 927 018a 0B99     		ldr	r1, [sp, #44]
 270:.//Libraries/CMSIS/DSP/Source/TransformFunctions/arm_cfft_radix2_q31.c ****       {
 928              		.loc 1 270 28 is_stmt 0 view .LVU399
 929 018c 089B     		ldr	r3, [sp, #32]
 930 018e 0A44     		add	r2, r2, r1
 931 0190 0133     		adds	r3, r3, #1
 932 0192 0992     		str	r2, [sp, #36]
 270:.//Libraries/CMSIS/DSP/Source/TransformFunctions/arm_cfft_radix2_q31.c ****       {
 933              		.loc 1 270 7 view .LVU400
 934 0194 0A9A     		ldr	r2, [sp, #40]
 270:.//Libraries/CMSIS/DSP/Source/TransformFunctions/arm_cfft_radix2_q31.c ****       {
 935              		.loc 1 270 28 view .LVU401
 936 0196 0893     		str	r3, [sp, #32]
 937              	.LVL87:
 270:.//Libraries/CMSIS/DSP/Source/TransformFunctions/arm_cfft_radix2_q31.c ****       {
 938              		.loc 1 270 19 is_stmt 1 view .LVU402
 270:.//Libraries/CMSIS/DSP/Source/TransformFunctions/arm_cfft_radix2_q31.c ****       {
 939              		.loc 1 270 7 is_stmt 0 view .LVU403
 940 0198 9A42     		cmp	r2, r3
 941 019a ACD1     		bne	.L30
 293:.//Libraries/CMSIS/DSP/Source/TransformFunctions/arm_cfft_radix2_q31.c ****          }                         // butterfly loop end
 294:.//Libraries/CMSIS/DSP/Source/TransformFunctions/arm_cfft_radix2_q31.c **** 
 295:.//Libraries/CMSIS/DSP/Source/TransformFunctions/arm_cfft_radix2_q31.c ****       }                           // groups loop end
 296:.//Libraries/CMSIS/DSP/Source/TransformFunctions/arm_cfft_radix2_q31.c **** 
 297:.//Libraries/CMSIS/DSP/Source/TransformFunctions/arm_cfft_radix2_q31.c ****       twidCoefModifier = twidCoefModifier << 1U;
 942              		.loc 1 297 7 is_stmt 1 discriminator 2 view .LVU404
ARM GAS  /var/folders/wl/rshn8xbx1dsfj1zgryf4g1240000gn/T//ccZq5mAp.s 			page 27


 943              		.loc 1 297 24 is_stmt 0 discriminator 2 view .LVU405
 944 019c 0C9B     		ldr	r3, [sp, #48]
 945              	.LVL88:
 946              		.loc 1 297 24 discriminator 2 view .LVU406
 947 019e 5B00     		lsls	r3, r3, #1
 948              	.LVL89:
 949              		.loc 1 297 24 discriminator 2 view .LVU407
 950 01a0 9BB2     		uxth	r3, r3
 951              		.loc 1 297 24 discriminator 2 view .LVU408
 952 01a2 0C93     		str	r3, [sp, #48]
 263:.//Libraries/CMSIS/DSP/Source/TransformFunctions/arm_cfft_radix2_q31.c ****    {
 953              		.loc 1 263 32 is_stmt 1 discriminator 2 view .LVU409
 954              	.LVL90:
 263:.//Libraries/CMSIS/DSP/Source/TransformFunctions/arm_cfft_radix2_q31.c ****    {
 955              		.loc 1 263 25 discriminator 2 view .LVU410
 263:.//Libraries/CMSIS/DSP/Source/TransformFunctions/arm_cfft_radix2_q31.c ****    {
 956              		.loc 1 263 4 is_stmt 0 discriminator 2 view .LVU411
 957 01a4 0A9B     		ldr	r3, [sp, #40]
 958              	.LVL91:
 263:.//Libraries/CMSIS/DSP/Source/TransformFunctions/arm_cfft_radix2_q31.c ****    {
 959              		.loc 1 263 4 discriminator 2 view .LVU412
 960 01a6 022B     		cmp	r3, #2
 961 01a8 96D8     		bhi	.L33
 298:.//Libraries/CMSIS/DSP/Source/TransformFunctions/arm_cfft_radix2_q31.c ****    }                             // stages loop end
 299:.//Libraries/CMSIS/DSP/Source/TransformFunctions/arm_cfft_radix2_q31.c **** 
 300:.//Libraries/CMSIS/DSP/Source/TransformFunctions/arm_cfft_radix2_q31.c ****    n1 = n2;
 962              		.loc 1 300 4 is_stmt 1 view .LVU413
 963              	.LVL92:
 301:.//Libraries/CMSIS/DSP/Source/TransformFunctions/arm_cfft_radix2_q31.c ****    n2 = n2 >> 1;
 964              		.loc 1 301 4 view .LVU414
 965              		.loc 1 301 7 is_stmt 0 view .LVU415
 966 01aa 069B     		ldr	r3, [sp, #24]
 967 01ac 9808     		lsrs	r0, r3, #2
 968              	.LVL93:
 302:.//Libraries/CMSIS/DSP/Source/TransformFunctions/arm_cfft_radix2_q31.c ****    ia = 0;
 969              		.loc 1 302 4 is_stmt 1 view .LVU416
 303:.//Libraries/CMSIS/DSP/Source/TransformFunctions/arm_cfft_radix2_q31.c **** 
 304:.//Libraries/CMSIS/DSP/Source/TransformFunctions/arm_cfft_radix2_q31.c ****    cosVal = pCoef[ia * 2];
 970              		.loc 1 304 4 view .LVU417
 305:.//Libraries/CMSIS/DSP/Source/TransformFunctions/arm_cfft_radix2_q31.c ****    sinVal = pCoef[(ia * 2) + 1];
 971              		.loc 1 305 4 view .LVU418
 306:.//Libraries/CMSIS/DSP/Source/TransformFunctions/arm_cfft_radix2_q31.c ****    ia = ia + twidCoefModifier;
 972              		.loc 1 306 4 view .LVU419
 307:.//Libraries/CMSIS/DSP/Source/TransformFunctions/arm_cfft_radix2_q31.c **** 
 308:.//Libraries/CMSIS/DSP/Source/TransformFunctions/arm_cfft_radix2_q31.c ****    // loop for butterfly
 309:.//Libraries/CMSIS/DSP/Source/TransformFunctions/arm_cfft_radix2_q31.c ****    for (i = 0; i < fftLen; i += n1)
 973              		.loc 1 309 4 view .LVU420
 974              		.loc 1 309 16 view .LVU421
 975              	.L36:
 976              		.loc 1 309 16 is_stmt 0 view .LVU422
 977 01ae 0A99     		ldr	r1, [sp, #40]
 978 01b0 7246     		mov	r2, lr
 979 01b2 5B46     		mov	r3, fp
 301:.//Libraries/CMSIS/DSP/Source/TransformFunctions/arm_cfft_radix2_q31.c ****    ia = 0;
 980              		.loc 1 301 7 discriminator 3 view .LVU423
 981 01b4 0025     		movs	r5, #0
 982 01b6 0F01     		lsls	r7, r1, #4
ARM GAS  /var/folders/wl/rshn8xbx1dsfj1zgryf4g1240000gn/T//ccZq5mAp.s 			page 28


 983 01b8 0E46     		mov	r6, r1
 984 01ba 4FEA410C 		lsl	ip, r1, #1
 985 01be 4418     		adds	r4, r0, r1
 986 01c0 BE46     		mov	lr, r7
 987              	.LVL94:
 301:.//Libraries/CMSIS/DSP/Source/TransformFunctions/arm_cfft_radix2_q31.c ****    ia = 0;
 988              		.loc 1 301 7 discriminator 3 view .LVU424
 989 01c2 DDF81480 		ldr	r8, [sp, #20]
 990              	.LVL95:
 991              	.L35:
 310:.//Libraries/CMSIS/DSP/Source/TransformFunctions/arm_cfft_radix2_q31.c ****    {
 311:.//Libraries/CMSIS/DSP/Source/TransformFunctions/arm_cfft_radix2_q31.c ****       l = i + n2;
 992              		.loc 1 311 7 is_stmt 1 discriminator 3 view .LVU425
 312:.//Libraries/CMSIS/DSP/Source/TransformFunctions/arm_cfft_radix2_q31.c ****       xt = pSrc[2 * i] - pSrc[2 * l];
 993              		.loc 1 312 7 discriminator 3 view .LVU426
 994              		.loc 1 312 16 is_stmt 0 discriminator 3 view .LVU427
 995 01c6 53F8047C 		ldr	r7, [r3, #-4]
 309:.//Libraries/CMSIS/DSP/Source/TransformFunctions/arm_cfft_radix2_q31.c ****    {
 996              		.loc 1 309 30 discriminator 3 view .LVU428
 997 01ca 6544     		add	r5, r5, ip
 998              	.LVL96:
 999              		.loc 1 312 30 discriminator 3 view .LVU429
 1000 01cc 52F83010 		ldr	r1, [r2, r0, lsl #3]
 1001              	.LVL97:
 313:.//Libraries/CMSIS/DSP/Source/TransformFunctions/arm_cfft_radix2_q31.c ****       pSrc[2 * i] = (pSrc[2 * i] + pSrc[2 * l]);
 1002              		.loc 1 313 7 is_stmt 1 discriminator 3 view .LVU430
 309:.//Libraries/CMSIS/DSP/Source/TransformFunctions/arm_cfft_radix2_q31.c ****    {
 1003              		.loc 1 309 4 is_stmt 0 discriminator 3 view .LVU431
 1004 01d0 A845     		cmp	r8, r5
 1005              		.loc 1 313 34 discriminator 3 view .LVU432
 1006 01d2 07EB010A 		add	r10, r7, r1
 312:.//Libraries/CMSIS/DSP/Source/TransformFunctions/arm_cfft_radix2_q31.c ****       xt = pSrc[2 * i] - pSrc[2 * l];
 1007              		.loc 1 312 10 discriminator 3 view .LVU433
 1008 01d6 A7EB0109 		sub	r9, r7, r1
 1009              	.LVL98:
 1010              		.loc 1 313 19 discriminator 3 view .LVU434
 1011 01da 43F804AC 		str	r10, [r3, #-4]
 314:.//Libraries/CMSIS/DSP/Source/TransformFunctions/arm_cfft_radix2_q31.c **** 
 315:.//Libraries/CMSIS/DSP/Source/TransformFunctions/arm_cfft_radix2_q31.c ****       yt = pSrc[2 * i + 1] - pSrc[2 * l + 1];
 1012              		.loc 1 315 7 is_stmt 1 discriminator 3 view .LVU435
 1013              		.loc 1 315 34 is_stmt 0 discriminator 3 view .LVU436
 1014 01de 53F83070 		ldr	r7, [r3, r0, lsl #3]
 1015              		.loc 1 315 16 discriminator 3 view .LVU437
 1016 01e2 5168     		ldr	r1, [r2, #4]
 1017              	.LVL99:
 316:.//Libraries/CMSIS/DSP/Source/TransformFunctions/arm_cfft_radix2_q31.c ****       pSrc[2 * i + 1] = (pSrc[2 * l + 1] + pSrc[2 * i + 1]);
 1018              		.loc 1 316 7 is_stmt 1 discriminator 3 view .LVU438
 1019              		.loc 1 316 42 is_stmt 0 discriminator 3 view .LVU439
 1020 01e4 01EB070A 		add	r10, r1, r7
 315:.//Libraries/CMSIS/DSP/Source/TransformFunctions/arm_cfft_radix2_q31.c ****       pSrc[2 * i + 1] = (pSrc[2 * l + 1] + pSrc[2 * i + 1]);
 1021              		.loc 1 315 10 discriminator 3 view .LVU440
 1022 01e8 A1EB0701 		sub	r1, r1, r7
 1023              	.LVL100:
 1024              		.loc 1 316 23 discriminator 3 view .LVU441
 1025 01ec C2F804A0 		str	r10, [r2, #4]
 317:.//Libraries/CMSIS/DSP/Source/TransformFunctions/arm_cfft_radix2_q31.c **** 
 318:.//Libraries/CMSIS/DSP/Source/TransformFunctions/arm_cfft_radix2_q31.c ****       pSrc[2U * l] = xt;
ARM GAS  /var/folders/wl/rshn8xbx1dsfj1zgryf4g1240000gn/T//ccZq5mAp.s 			page 29


 1026              		.loc 1 318 7 is_stmt 1 discriminator 3 view .LVU442
 1027              		.loc 1 318 20 is_stmt 0 discriminator 3 view .LVU443
 1028 01f0 42F83090 		str	r9, [r2, r0, lsl #3]
 319:.//Libraries/CMSIS/DSP/Source/TransformFunctions/arm_cfft_radix2_q31.c **** 
 320:.//Libraries/CMSIS/DSP/Source/TransformFunctions/arm_cfft_radix2_q31.c ****       pSrc[2U * l + 1U] = yt;
 1029              		.loc 1 320 7 is_stmt 1 discriminator 3 view .LVU444
 1030              		.loc 1 320 25 is_stmt 0 discriminator 3 view .LVU445
 1031 01f4 43F83010 		str	r1, [r3, r0, lsl #3]
 321:.//Libraries/CMSIS/DSP/Source/TransformFunctions/arm_cfft_radix2_q31.c **** 
 322:.//Libraries/CMSIS/DSP/Source/TransformFunctions/arm_cfft_radix2_q31.c ****       i += n1;
 1032              		.loc 1 322 7 is_stmt 1 discriminator 3 view .LVU446
 323:.//Libraries/CMSIS/DSP/Source/TransformFunctions/arm_cfft_radix2_q31.c ****       l = i + n2;
 1033              		.loc 1 323 7 discriminator 3 view .LVU447
 324:.//Libraries/CMSIS/DSP/Source/TransformFunctions/arm_cfft_radix2_q31.c **** 
 325:.//Libraries/CMSIS/DSP/Source/TransformFunctions/arm_cfft_radix2_q31.c ****       xt = pSrc[2 * i] - pSrc[2 * l];
 1034              		.loc 1 325 7 discriminator 3 view .LVU448
 1035              		.loc 1 325 16 is_stmt 0 discriminator 3 view .LVU449
 1036 01f8 52F83670 		ldr	r7, [r2, r6, lsl #3]
 1037              		.loc 1 325 30 discriminator 3 view .LVU450
 1038 01fc 52F83410 		ldr	r1, [r2, r4, lsl #3]
 1039              	.LVL101:
 326:.//Libraries/CMSIS/DSP/Source/TransformFunctions/arm_cfft_radix2_q31.c ****       pSrc[2 * i] = (pSrc[2 * i] + pSrc[2 * l]);
 1040              		.loc 1 326 7 is_stmt 1 discriminator 3 view .LVU451
 1041              		.loc 1 326 34 is_stmt 0 discriminator 3 view .LVU452
 1042 0200 07EB010A 		add	r10, r7, r1
 325:.//Libraries/CMSIS/DSP/Source/TransformFunctions/arm_cfft_radix2_q31.c ****       pSrc[2 * i] = (pSrc[2 * i] + pSrc[2 * l]);
 1043              		.loc 1 325 10 discriminator 3 view .LVU453
 1044 0204 A7EB0109 		sub	r9, r7, r1
 1045              	.LVL102:
 1046              		.loc 1 326 19 discriminator 3 view .LVU454
 1047 0208 42F836A0 		str	r10, [r2, r6, lsl #3]
 1048              	.LVL103:
 327:.//Libraries/CMSIS/DSP/Source/TransformFunctions/arm_cfft_radix2_q31.c **** 
 328:.//Libraries/CMSIS/DSP/Source/TransformFunctions/arm_cfft_radix2_q31.c ****       yt = pSrc[2 * i + 1] - pSrc[2 * l + 1];
 1049              		.loc 1 328 7 is_stmt 1 discriminator 3 view .LVU455
 1050              		.loc 1 328 16 is_stmt 0 discriminator 3 view .LVU456
 1051 020c 53F83610 		ldr	r1, [r3, r6, lsl #3]
 1052              		.loc 1 328 34 discriminator 3 view .LVU457
 1053 0210 53F83470 		ldr	r7, [r3, r4, lsl #3]
 1054              	.LVL104:
 329:.//Libraries/CMSIS/DSP/Source/TransformFunctions/arm_cfft_radix2_q31.c ****       pSrc[2 * i + 1] = (pSrc[2 * l + 1] + pSrc[2 * i + 1]);
 1055              		.loc 1 329 7 is_stmt 1 discriminator 3 view .LVU458
 1056              		.loc 1 329 42 is_stmt 0 discriminator 3 view .LVU459
 1057 0214 01EB070A 		add	r10, r1, r7
 328:.//Libraries/CMSIS/DSP/Source/TransformFunctions/arm_cfft_radix2_q31.c ****       pSrc[2 * i + 1] = (pSrc[2 * l + 1] + pSrc[2 * i + 1]);
 1058              		.loc 1 328 10 discriminator 3 view .LVU460
 1059 0218 A1EB0701 		sub	r1, r1, r7
 1060              	.LVL105:
 1061              		.loc 1 329 23 discriminator 3 view .LVU461
 1062 021c 43F836A0 		str	r10, [r3, r6, lsl #3]
 330:.//Libraries/CMSIS/DSP/Source/TransformFunctions/arm_cfft_radix2_q31.c **** 
 331:.//Libraries/CMSIS/DSP/Source/TransformFunctions/arm_cfft_radix2_q31.c ****       pSrc[2U * l] = xt;
 1063              		.loc 1 331 7 is_stmt 1 discriminator 3 view .LVU462
 1064              		.loc 1 331 20 is_stmt 0 discriminator 3 view .LVU463
 1065 0220 42F83490 		str	r9, [r2, r4, lsl #3]
 332:.//Libraries/CMSIS/DSP/Source/TransformFunctions/arm_cfft_radix2_q31.c **** 
 333:.//Libraries/CMSIS/DSP/Source/TransformFunctions/arm_cfft_radix2_q31.c ****       pSrc[2U * l + 1U] = yt;
ARM GAS  /var/folders/wl/rshn8xbx1dsfj1zgryf4g1240000gn/T//ccZq5mAp.s 			page 30


 1066              		.loc 1 333 7 is_stmt 1 discriminator 3 view .LVU464
 1067 0224 7244     		add	r2, r2, lr
 1068              		.loc 1 333 25 is_stmt 0 discriminator 3 view .LVU465
 1069 0226 43F83410 		str	r1, [r3, r4, lsl #3]
 309:.//Libraries/CMSIS/DSP/Source/TransformFunctions/arm_cfft_radix2_q31.c ****    {
 1070              		.loc 1 309 28 is_stmt 1 discriminator 3 view .LVU466
 1071              	.LVL106:
 309:.//Libraries/CMSIS/DSP/Source/TransformFunctions/arm_cfft_radix2_q31.c ****    {
 1072              		.loc 1 309 16 discriminator 3 view .LVU467
 1073 022a 7344     		add	r3, r3, lr
 309:.//Libraries/CMSIS/DSP/Source/TransformFunctions/arm_cfft_radix2_q31.c ****    {
 1074              		.loc 1 309 4 is_stmt 0 discriminator 3 view .LVU468
 1075 022c CBD8     		bhi	.L35
 1076              	.LVL107:
 1077              	.L25:
 334:.//Libraries/CMSIS/DSP/Source/TransformFunctions/arm_cfft_radix2_q31.c **** 
 335:.//Libraries/CMSIS/DSP/Source/TransformFunctions/arm_cfft_radix2_q31.c ****    }                             // butterfly loop end
 336:.//Libraries/CMSIS/DSP/Source/TransformFunctions/arm_cfft_radix2_q31.c **** 
 337:.//Libraries/CMSIS/DSP/Source/TransformFunctions/arm_cfft_radix2_q31.c **** }
 1078              		.loc 1 337 1 view .LVU469
 1079 022e 0FB0     		add	sp, sp, #60
 1080              	.LCFI6:
 1081              		.cfi_remember_state
 1082              		.cfi_def_cfa_offset 36
 1083              		@ sp needed
 1084 0230 BDE8F08F 		pop	{r4, r5, r6, r7, r8, r9, r10, fp, pc}
 1085              	.LVL108:
 1086              	.L26:
 1087              	.LCFI7:
 1088              		.cfi_restore_state
 260:.//Libraries/CMSIS/DSP/Source/TransformFunctions/arm_cfft_radix2_q31.c **** 
 1089              		.loc 1 260 4 is_stmt 1 view .LVU470
 263:.//Libraries/CMSIS/DSP/Source/TransformFunctions/arm_cfft_radix2_q31.c ****    {
 1090              		.loc 1 263 4 view .LVU471
 263:.//Libraries/CMSIS/DSP/Source/TransformFunctions/arm_cfft_radix2_q31.c ****    {
 1091              		.loc 1 263 25 view .LVU472
 300:.//Libraries/CMSIS/DSP/Source/TransformFunctions/arm_cfft_radix2_q31.c ****    n2 = n2 >> 1;
 1092              		.loc 1 300 4 view .LVU473
 301:.//Libraries/CMSIS/DSP/Source/TransformFunctions/arm_cfft_radix2_q31.c ****    ia = 0;
 1093              		.loc 1 301 4 view .LVU474
 302:.//Libraries/CMSIS/DSP/Source/TransformFunctions/arm_cfft_radix2_q31.c **** 
 1094              		.loc 1 302 4 view .LVU475
 304:.//Libraries/CMSIS/DSP/Source/TransformFunctions/arm_cfft_radix2_q31.c ****    sinVal = pCoef[(ia * 2) + 1];
 1095              		.loc 1 304 4 view .LVU476
 305:.//Libraries/CMSIS/DSP/Source/TransformFunctions/arm_cfft_radix2_q31.c ****    ia = ia + twidCoefModifier;
 1096              		.loc 1 305 4 view .LVU477
 306:.//Libraries/CMSIS/DSP/Source/TransformFunctions/arm_cfft_radix2_q31.c **** 
 1097              		.loc 1 306 4 view .LVU478
 309:.//Libraries/CMSIS/DSP/Source/TransformFunctions/arm_cfft_radix2_q31.c ****    {
 1098              		.loc 1 309 4 view .LVU479
 309:.//Libraries/CMSIS/DSP/Source/TransformFunctions/arm_cfft_radix2_q31.c ****    {
 1099              		.loc 1 309 16 view .LVU480
 309:.//Libraries/CMSIS/DSP/Source/TransformFunctions/arm_cfft_radix2_q31.c ****    {
 1100              		.loc 1 309 4 is_stmt 0 view .LVU481
 1101 0234 059B     		ldr	r3, [sp, #20]
 1102              	.LVL109:
 309:.//Libraries/CMSIS/DSP/Source/TransformFunctions/arm_cfft_radix2_q31.c ****    {
ARM GAS  /var/folders/wl/rshn8xbx1dsfj1zgryf4g1240000gn/T//ccZq5mAp.s 			page 31


 1103              		.loc 1 309 4 view .LVU482
 1104 0236 002B     		cmp	r3, #0
 1105 0238 F9D0     		beq	.L25
 301:.//Libraries/CMSIS/DSP/Source/TransformFunctions/arm_cfft_radix2_q31.c ****    ia = 0;
 1106              		.loc 1 301 7 view .LVU483
 1107 023a 0A98     		ldr	r0, [sp, #40]
 1108              	.LVL110:
 301:.//Libraries/CMSIS/DSP/Source/TransformFunctions/arm_cfft_radix2_q31.c ****    ia = 0;
 1109              		.loc 1 301 7 view .LVU484
 1110 023c 0EF1040B 		add	fp, lr, #4
 1111 0240 B5E7     		b	.L36
 1112              	.LVL111:
 1113              	.L50:
 300:.//Libraries/CMSIS/DSP/Source/TransformFunctions/arm_cfft_radix2_q31.c ****    n2 = n2 >> 1;
 1114              		.loc 1 300 4 is_stmt 1 view .LVU485
 301:.//Libraries/CMSIS/DSP/Source/TransformFunctions/arm_cfft_radix2_q31.c ****    ia = 0;
 1115              		.loc 1 301 4 view .LVU486
 301:.//Libraries/CMSIS/DSP/Source/TransformFunctions/arm_cfft_radix2_q31.c ****    ia = 0;
 1116              		.loc 1 301 7 is_stmt 0 view .LVU487
 1117 0242 059B     		ldr	r3, [sp, #20]
 1118              	.LVL112:
 301:.//Libraries/CMSIS/DSP/Source/TransformFunctions/arm_cfft_radix2_q31.c ****    ia = 0;
 1119              		.loc 1 301 7 view .LVU488
 1120 0244 9808     		lsrs	r0, r3, #2
 1121              	.LVL113:
 302:.//Libraries/CMSIS/DSP/Source/TransformFunctions/arm_cfft_radix2_q31.c **** 
 1122              		.loc 1 302 4 is_stmt 1 view .LVU489
 304:.//Libraries/CMSIS/DSP/Source/TransformFunctions/arm_cfft_radix2_q31.c ****    sinVal = pCoef[(ia * 2) + 1];
 1123              		.loc 1 304 4 view .LVU490
 305:.//Libraries/CMSIS/DSP/Source/TransformFunctions/arm_cfft_radix2_q31.c ****    ia = ia + twidCoefModifier;
 1124              		.loc 1 305 4 view .LVU491
 306:.//Libraries/CMSIS/DSP/Source/TransformFunctions/arm_cfft_radix2_q31.c **** 
 1125              		.loc 1 306 4 view .LVU492
 309:.//Libraries/CMSIS/DSP/Source/TransformFunctions/arm_cfft_radix2_q31.c ****    {
 1126              		.loc 1 309 4 view .LVU493
 309:.//Libraries/CMSIS/DSP/Source/TransformFunctions/arm_cfft_radix2_q31.c ****    {
 1127              		.loc 1 309 16 view .LVU494
 1128 0246 B2E7     		b	.L36
 1129              		.cfi_endproc
 1130              	.LFE147:
 1132              		.section	.text.arm_cfft_radix2_q31,"ax",%progbits
 1133              		.align	1
 1134              		.p2align 2,,3
 1135              		.global	arm_cfft_radix2_q31
 1136              		.syntax unified
 1137              		.thumb
 1138              		.thumb_func
 1139              		.fpu fpv5-d16
 1141              	arm_cfft_radix2_q31:
 1142              	.LVL114:
 1143              	.LFB145:
  69:.//Libraries/CMSIS/DSP/Source/TransformFunctions/arm_cfft_radix2_q31.c **** 
 1144              		.loc 1 69 1 view -0
 1145              		.cfi_startproc
 1146              		@ args = 0, pretend = 0, frame = 8
 1147              		@ frame_needed = 0, uses_anonymous_args = 0
  71:.//Libraries/CMSIS/DSP/Source/TransformFunctions/arm_cfft_radix2_q31.c ****    {
ARM GAS  /var/folders/wl/rshn8xbx1dsfj1zgryf4g1240000gn/T//ccZq5mAp.s 			page 32


 1148              		.loc 1 71 4 view .LVU496
  69:.//Libraries/CMSIS/DSP/Source/TransformFunctions/arm_cfft_radix2_q31.c **** 
 1149              		.loc 1 69 1 is_stmt 0 view .LVU497
 1150 0000 10B5     		push	{r4, lr}
 1151              	.LCFI8:
 1152              		.cfi_def_cfa_offset 8
 1153              		.cfi_offset 4, -8
 1154              		.cfi_offset 14, -4
 1155 0002 0446     		mov	r4, r0
 1156 0004 82B0     		sub	sp, sp, #8
 1157              	.LCFI9:
 1158              		.cfi_def_cfa_offset 16
  69:.//Libraries/CMSIS/DSP/Source/TransformFunctions/arm_cfft_radix2_q31.c **** 
 1159              		.loc 1 69 1 view .LVU498
 1160 0006 0846     		mov	r0, r1
 1161              	.LVL115:
  71:.//Libraries/CMSIS/DSP/Source/TransformFunctions/arm_cfft_radix2_q31.c ****    {
 1162              		.loc 1 71 7 view .LVU499
 1163 0008 A378     		ldrb	r3, [r4, #2]	@ zero_extendqisi2
  73:.//Libraries/CMSIS/DSP/Source/TransformFunctions/arm_cfft_radix2_q31.c ****       S->pTwiddle, S->twidCoefModifier);
 1164              		.loc 1 73 7 view .LVU500
 1165 000a 0191     		str	r1, [sp, #4]
  71:.//Libraries/CMSIS/DSP/Source/TransformFunctions/arm_cfft_radix2_q31.c ****    {
 1166              		.loc 1 71 7 view .LVU501
 1167 000c 012B     		cmp	r3, #1
  73:.//Libraries/CMSIS/DSP/Source/TransformFunctions/arm_cfft_radix2_q31.c ****       S->pTwiddle, S->twidCoefModifier);
 1168              		.loc 1 73 7 view .LVU502
 1169 000e 6268     		ldr	r2, [r4, #4]
 1170 0010 A389     		ldrh	r3, [r4, #12]
 1171 0012 2188     		ldrh	r1, [r4]
 1172              	.LVL116:
  71:.//Libraries/CMSIS/DSP/Source/TransformFunctions/arm_cfft_radix2_q31.c ****    {
 1173              		.loc 1 71 7 view .LVU503
 1174 0014 0AD0     		beq	.L56
  78:.//Libraries/CMSIS/DSP/Source/TransformFunctions/arm_cfft_radix2_q31.c ****       S->pTwiddle, S->twidCoefModifier);
 1175              		.loc 1 78 7 is_stmt 1 view .LVU504
 1176 0016 FFF7FEFF 		bl	arm_radix2_butterfly_q31
 1177              	.LVL117:
  78:.//Libraries/CMSIS/DSP/Source/TransformFunctions/arm_cfft_radix2_q31.c ****       S->pTwiddle, S->twidCoefModifier);
 1178              		.loc 1 78 7 is_stmt 0 view .LVU505
 1179 001a 0198     		ldr	r0, [sp, #4]
 1180              	.L54:
  82:.//Libraries/CMSIS/DSP/Source/TransformFunctions/arm_cfft_radix2_q31.c **** }
 1181              		.loc 1 82 4 is_stmt 1 view .LVU506
 1182 001c A368     		ldr	r3, [r4, #8]
 1183 001e E289     		ldrh	r2, [r4, #14]
 1184 0020 2188     		ldrh	r1, [r4]
  83:.//Libraries/CMSIS/DSP/Source/TransformFunctions/arm_cfft_radix2_q31.c **** 
 1185              		.loc 1 83 1 is_stmt 0 view .LVU507
 1186 0022 02B0     		add	sp, sp, #8
 1187              	.LCFI10:
 1188              		.cfi_remember_state
 1189              		.cfi_def_cfa_offset 8
 1190              		@ sp needed
 1191 0024 BDE81040 		pop	{r4, lr}
 1192              	.LCFI11:
 1193              		.cfi_restore 14
ARM GAS  /var/folders/wl/rshn8xbx1dsfj1zgryf4g1240000gn/T//ccZq5mAp.s 			page 33


 1194              		.cfi_restore 4
 1195              		.cfi_def_cfa_offset 0
 1196              	.LVL118:
  82:.//Libraries/CMSIS/DSP/Source/TransformFunctions/arm_cfft_radix2_q31.c **** }
 1197              		.loc 1 82 4 view .LVU508
 1198 0028 FFF7FEBF 		b	arm_bitreversal_q31
 1199              	.LVL119:
 1200              	.L56:
 1201              	.LCFI12:
 1202              		.cfi_restore_state
  73:.//Libraries/CMSIS/DSP/Source/TransformFunctions/arm_cfft_radix2_q31.c ****       S->pTwiddle, S->twidCoefModifier);
 1203              		.loc 1 73 7 is_stmt 1 view .LVU509
 1204 002c FFF7FEFF 		bl	arm_radix2_butterfly_inverse_q31
 1205              	.LVL120:
  73:.//Libraries/CMSIS/DSP/Source/TransformFunctions/arm_cfft_radix2_q31.c ****       S->pTwiddle, S->twidCoefModifier);
 1206              		.loc 1 73 7 is_stmt 0 view .LVU510
 1207 0030 0198     		ldr	r0, [sp, #4]
 1208 0032 F3E7     		b	.L54
 1209              		.cfi_endproc
 1210              	.LFE145:
 1212              		.text
 1213              	.Letext0:
 1214              		.file 2 "/opt/homebrew/Cellar/arm-none-eabi-gcc/9-2019-q4-major/gcc/arm-none-eabi/include/machine/
 1215              		.file 3 "/opt/homebrew/Cellar/arm-none-eabi-gcc/9-2019-q4-major/gcc/arm-none-eabi/include/sys/_std
 1216              		.file 4 "/opt/homebrew/Cellar/arm-none-eabi-gcc/9-2019-q4-major/gcc/arm-none-eabi/include/sys/lock
 1217              		.file 5 "/opt/homebrew/Cellar/arm-none-eabi-gcc/9-2019-q4-major/gcc/arm-none-eabi/include/sys/_typ
 1218              		.file 6 "/opt/homebrew/Cellar/arm-none-eabi-gcc/9-2019-q4-major/gcc/lib/gcc/arm-none-eabi/9.2.1/in
 1219              		.file 7 "/opt/homebrew/Cellar/arm-none-eabi-gcc/9-2019-q4-major/gcc/arm-none-eabi/include/sys/reen
 1220              		.file 8 "/opt/homebrew/Cellar/arm-none-eabi-gcc/9-2019-q4-major/gcc/arm-none-eabi/include/math.h"
 1221              		.file 9 ".//Libraries/CMSIS/DSP/Include/arm_math.h"
ARM GAS  /var/folders/wl/rshn8xbx1dsfj1zgryf4g1240000gn/T//ccZq5mAp.s 			page 34

