ARM GAS  /tmp/ccYiDUVu.s 			page 1


   1              		.cpu cortex-m7
   2              		.eabi_attribute 28, 1
   3              		.eabi_attribute 20, 1
   4              		.eabi_attribute 21, 1
   5              		.eabi_attribute 23, 3
   6              		.eabi_attribute 24, 1
   7              		.eabi_attribute 25, 1
   8              		.eabi_attribute 26, 1
   9              		.eabi_attribute 30, 2
  10              		.eabi_attribute 34, 1
  11              		.eabi_attribute 18, 4
  12              		.file	"arm_rfft_f32.c"
  13              		.text
  14              	.Ltext0:
  15              		.cfi_sections	.debug_frame
  16              		.section	.text.arm_split_rfft_f32,"ax",%progbits
  17              		.align	1
  18              		.p2align 2,,3
  19              		.global	arm_split_rfft_f32
  20              		.arch armv7e-m
  21              		.syntax unified
  22              		.thumb
  23              		.thumb_func
  24              		.fpu fpv5-d16
  26              	arm_split_rfft_f32:
  27              	.LVL0:
  28              	.LFB146:
  29              		.file 1 "./Libraries/CMSIS/DSP/Source/TransformFunctions/arm_rfft_f32.c"
   1:./Libraries/CMSIS/DSP/Source/TransformFunctions/arm_rfft_f32.c **** /* ----------------------------------------------------------------------
   2:./Libraries/CMSIS/DSP/Source/TransformFunctions/arm_rfft_f32.c ****  * Project:      CMSIS DSP Library
   3:./Libraries/CMSIS/DSP/Source/TransformFunctions/arm_rfft_f32.c ****  * Title:        arm_rfft_f32.c
   4:./Libraries/CMSIS/DSP/Source/TransformFunctions/arm_rfft_f32.c ****  * Description:  RFFT & RIFFT Floating point process function
   5:./Libraries/CMSIS/DSP/Source/TransformFunctions/arm_rfft_f32.c ****  *
   6:./Libraries/CMSIS/DSP/Source/TransformFunctions/arm_rfft_f32.c ****  * $Date:        18. March 2019
   7:./Libraries/CMSIS/DSP/Source/TransformFunctions/arm_rfft_f32.c ****  * $Revision:    V1.6.0
   8:./Libraries/CMSIS/DSP/Source/TransformFunctions/arm_rfft_f32.c ****  *
   9:./Libraries/CMSIS/DSP/Source/TransformFunctions/arm_rfft_f32.c ****  * Target Processor: Cortex-M cores
  10:./Libraries/CMSIS/DSP/Source/TransformFunctions/arm_rfft_f32.c ****  * -------------------------------------------------------------------- */
  11:./Libraries/CMSIS/DSP/Source/TransformFunctions/arm_rfft_f32.c **** /*
  12:./Libraries/CMSIS/DSP/Source/TransformFunctions/arm_rfft_f32.c ****  * Copyright (C) 2010-2019 ARM Limited or its affiliates. All rights reserved.
  13:./Libraries/CMSIS/DSP/Source/TransformFunctions/arm_rfft_f32.c ****  *
  14:./Libraries/CMSIS/DSP/Source/TransformFunctions/arm_rfft_f32.c ****  * SPDX-License-Identifier: Apache-2.0
  15:./Libraries/CMSIS/DSP/Source/TransformFunctions/arm_rfft_f32.c ****  *
  16:./Libraries/CMSIS/DSP/Source/TransformFunctions/arm_rfft_f32.c ****  * Licensed under the Apache License, Version 2.0 (the License); you may
  17:./Libraries/CMSIS/DSP/Source/TransformFunctions/arm_rfft_f32.c ****  * not use this file except in compliance with the License.
  18:./Libraries/CMSIS/DSP/Source/TransformFunctions/arm_rfft_f32.c ****  * You may obtain a copy of the License at
  19:./Libraries/CMSIS/DSP/Source/TransformFunctions/arm_rfft_f32.c ****  *
  20:./Libraries/CMSIS/DSP/Source/TransformFunctions/arm_rfft_f32.c ****  * www.apache.org/licenses/LICENSE-2.0
  21:./Libraries/CMSIS/DSP/Source/TransformFunctions/arm_rfft_f32.c ****  *
  22:./Libraries/CMSIS/DSP/Source/TransformFunctions/arm_rfft_f32.c ****  * Unless required by applicable law or agreed to in writing, software
  23:./Libraries/CMSIS/DSP/Source/TransformFunctions/arm_rfft_f32.c ****  * distributed under the License is distributed on an AS IS BASIS, WITHOUT
  24:./Libraries/CMSIS/DSP/Source/TransformFunctions/arm_rfft_f32.c ****  * WARRANTIES OR CONDITIONS OF ANY KIND, either express or implied.
  25:./Libraries/CMSIS/DSP/Source/TransformFunctions/arm_rfft_f32.c ****  * See the License for the specific language governing permissions and
  26:./Libraries/CMSIS/DSP/Source/TransformFunctions/arm_rfft_f32.c ****  * limitations under the License.
  27:./Libraries/CMSIS/DSP/Source/TransformFunctions/arm_rfft_f32.c ****  */
  28:./Libraries/CMSIS/DSP/Source/TransformFunctions/arm_rfft_f32.c **** 
  29:./Libraries/CMSIS/DSP/Source/TransformFunctions/arm_rfft_f32.c **** #include "arm_math.h"
ARM GAS  /tmp/ccYiDUVu.s 			page 2


  30:./Libraries/CMSIS/DSP/Source/TransformFunctions/arm_rfft_f32.c **** 
  31:./Libraries/CMSIS/DSP/Source/TransformFunctions/arm_rfft_f32.c **** /* ----------------------------------------------------------------------
  32:./Libraries/CMSIS/DSP/Source/TransformFunctions/arm_rfft_f32.c ****  * Internal functions prototypes
  33:./Libraries/CMSIS/DSP/Source/TransformFunctions/arm_rfft_f32.c ****  * -------------------------------------------------------------------- */
  34:./Libraries/CMSIS/DSP/Source/TransformFunctions/arm_rfft_f32.c **** 
  35:./Libraries/CMSIS/DSP/Source/TransformFunctions/arm_rfft_f32.c **** extern void arm_radix4_butterfly_f32(
  36:./Libraries/CMSIS/DSP/Source/TransformFunctions/arm_rfft_f32.c ****         float32_t * pSrc,
  37:./Libraries/CMSIS/DSP/Source/TransformFunctions/arm_rfft_f32.c ****         uint16_t fftLen,
  38:./Libraries/CMSIS/DSP/Source/TransformFunctions/arm_rfft_f32.c ****   const float32_t * pCoef,
  39:./Libraries/CMSIS/DSP/Source/TransformFunctions/arm_rfft_f32.c ****         uint16_t twidCoefModifier);
  40:./Libraries/CMSIS/DSP/Source/TransformFunctions/arm_rfft_f32.c **** 
  41:./Libraries/CMSIS/DSP/Source/TransformFunctions/arm_rfft_f32.c **** extern void arm_radix4_butterfly_inverse_f32(
  42:./Libraries/CMSIS/DSP/Source/TransformFunctions/arm_rfft_f32.c ****         float32_t * pSrc,
  43:./Libraries/CMSIS/DSP/Source/TransformFunctions/arm_rfft_f32.c ****         uint16_t fftLen,
  44:./Libraries/CMSIS/DSP/Source/TransformFunctions/arm_rfft_f32.c ****   const float32_t * pCoef,
  45:./Libraries/CMSIS/DSP/Source/TransformFunctions/arm_rfft_f32.c ****         uint16_t twidCoefModifier,
  46:./Libraries/CMSIS/DSP/Source/TransformFunctions/arm_rfft_f32.c ****         float32_t onebyfftLen);
  47:./Libraries/CMSIS/DSP/Source/TransformFunctions/arm_rfft_f32.c **** 
  48:./Libraries/CMSIS/DSP/Source/TransformFunctions/arm_rfft_f32.c **** extern void arm_bitreversal_f32(
  49:./Libraries/CMSIS/DSP/Source/TransformFunctions/arm_rfft_f32.c ****         float32_t * pSrc,
  50:./Libraries/CMSIS/DSP/Source/TransformFunctions/arm_rfft_f32.c ****         uint16_t fftSize,
  51:./Libraries/CMSIS/DSP/Source/TransformFunctions/arm_rfft_f32.c ****         uint16_t bitRevFactor,
  52:./Libraries/CMSIS/DSP/Source/TransformFunctions/arm_rfft_f32.c ****   const uint16_t * pBitRevTab);
  53:./Libraries/CMSIS/DSP/Source/TransformFunctions/arm_rfft_f32.c **** 
  54:./Libraries/CMSIS/DSP/Source/TransformFunctions/arm_rfft_f32.c **** void arm_split_rfft_f32(
  55:./Libraries/CMSIS/DSP/Source/TransformFunctions/arm_rfft_f32.c ****         float32_t * pSrc,
  56:./Libraries/CMSIS/DSP/Source/TransformFunctions/arm_rfft_f32.c ****         uint32_t fftLen,
  57:./Libraries/CMSIS/DSP/Source/TransformFunctions/arm_rfft_f32.c ****   const float32_t * pATable,
  58:./Libraries/CMSIS/DSP/Source/TransformFunctions/arm_rfft_f32.c ****   const float32_t * pBTable,
  59:./Libraries/CMSIS/DSP/Source/TransformFunctions/arm_rfft_f32.c ****         float32_t * pDst,
  60:./Libraries/CMSIS/DSP/Source/TransformFunctions/arm_rfft_f32.c ****         uint32_t modifier);
  61:./Libraries/CMSIS/DSP/Source/TransformFunctions/arm_rfft_f32.c **** 
  62:./Libraries/CMSIS/DSP/Source/TransformFunctions/arm_rfft_f32.c **** void arm_split_rifft_f32(
  63:./Libraries/CMSIS/DSP/Source/TransformFunctions/arm_rfft_f32.c ****         float32_t * pSrc,
  64:./Libraries/CMSIS/DSP/Source/TransformFunctions/arm_rfft_f32.c ****         uint32_t fftLen,
  65:./Libraries/CMSIS/DSP/Source/TransformFunctions/arm_rfft_f32.c ****   const float32_t * pATable,
  66:./Libraries/CMSIS/DSP/Source/TransformFunctions/arm_rfft_f32.c ****   const float32_t * pBTable,
  67:./Libraries/CMSIS/DSP/Source/TransformFunctions/arm_rfft_f32.c ****         float32_t * pDst,
  68:./Libraries/CMSIS/DSP/Source/TransformFunctions/arm_rfft_f32.c ****         uint32_t modifier);
  69:./Libraries/CMSIS/DSP/Source/TransformFunctions/arm_rfft_f32.c **** 
  70:./Libraries/CMSIS/DSP/Source/TransformFunctions/arm_rfft_f32.c **** /**
  71:./Libraries/CMSIS/DSP/Source/TransformFunctions/arm_rfft_f32.c ****   @ingroup groupTransforms
  72:./Libraries/CMSIS/DSP/Source/TransformFunctions/arm_rfft_f32.c ****  */
  73:./Libraries/CMSIS/DSP/Source/TransformFunctions/arm_rfft_f32.c **** 
  74:./Libraries/CMSIS/DSP/Source/TransformFunctions/arm_rfft_f32.c **** /**
  75:./Libraries/CMSIS/DSP/Source/TransformFunctions/arm_rfft_f32.c ****   @addtogroup RealFFT
  76:./Libraries/CMSIS/DSP/Source/TransformFunctions/arm_rfft_f32.c ****   @{
  77:./Libraries/CMSIS/DSP/Source/TransformFunctions/arm_rfft_f32.c ****  */
  78:./Libraries/CMSIS/DSP/Source/TransformFunctions/arm_rfft_f32.c **** 
  79:./Libraries/CMSIS/DSP/Source/TransformFunctions/arm_rfft_f32.c **** /**
  80:./Libraries/CMSIS/DSP/Source/TransformFunctions/arm_rfft_f32.c ****   @brief         Processing function for the floating-point RFFT/RIFFT.
  81:./Libraries/CMSIS/DSP/Source/TransformFunctions/arm_rfft_f32.c ****   @deprecated    Do not use this function.  It has been superceded by \ref arm_rfft_fast_f32 and wi
  82:./Libraries/CMSIS/DSP/Source/TransformFunctions/arm_rfft_f32.c ****   @param[in]     S    points to an instance of the floating-point RFFT/RIFFT structure
  83:./Libraries/CMSIS/DSP/Source/TransformFunctions/arm_rfft_f32.c ****   @param[in]     pSrc points to the input buffer
  84:./Libraries/CMSIS/DSP/Source/TransformFunctions/arm_rfft_f32.c ****   @param[out]    pDst points to the output buffer
  85:./Libraries/CMSIS/DSP/Source/TransformFunctions/arm_rfft_f32.c ****   @return        none
  86:./Libraries/CMSIS/DSP/Source/TransformFunctions/arm_rfft_f32.c ****  */
ARM GAS  /tmp/ccYiDUVu.s 			page 3


  87:./Libraries/CMSIS/DSP/Source/TransformFunctions/arm_rfft_f32.c **** 
  88:./Libraries/CMSIS/DSP/Source/TransformFunctions/arm_rfft_f32.c **** void arm_rfft_f32(
  89:./Libraries/CMSIS/DSP/Source/TransformFunctions/arm_rfft_f32.c ****   const arm_rfft_instance_f32 * S,
  90:./Libraries/CMSIS/DSP/Source/TransformFunctions/arm_rfft_f32.c ****         float32_t * pSrc,
  91:./Libraries/CMSIS/DSP/Source/TransformFunctions/arm_rfft_f32.c ****         float32_t * pDst)
  92:./Libraries/CMSIS/DSP/Source/TransformFunctions/arm_rfft_f32.c **** {
  93:./Libraries/CMSIS/DSP/Source/TransformFunctions/arm_rfft_f32.c ****   const arm_cfft_radix4_instance_f32 *S_CFFT = S->pCfft;
  94:./Libraries/CMSIS/DSP/Source/TransformFunctions/arm_rfft_f32.c **** 
  95:./Libraries/CMSIS/DSP/Source/TransformFunctions/arm_rfft_f32.c ****   /* Calculation of Real IFFT of input */
  96:./Libraries/CMSIS/DSP/Source/TransformFunctions/arm_rfft_f32.c ****   if (S->ifftFlagR == 1U)
  97:./Libraries/CMSIS/DSP/Source/TransformFunctions/arm_rfft_f32.c ****   {
  98:./Libraries/CMSIS/DSP/Source/TransformFunctions/arm_rfft_f32.c ****      /*  Real IFFT core process */
  99:./Libraries/CMSIS/DSP/Source/TransformFunctions/arm_rfft_f32.c ****      arm_split_rifft_f32 (pSrc, S->fftLenBy2, S->pTwiddleAReal, S->pTwiddleBReal, pDst, S->twidCoef
 100:./Libraries/CMSIS/DSP/Source/TransformFunctions/arm_rfft_f32.c **** 
 101:./Libraries/CMSIS/DSP/Source/TransformFunctions/arm_rfft_f32.c **** 
 102:./Libraries/CMSIS/DSP/Source/TransformFunctions/arm_rfft_f32.c ****      /* Complex radix-4 IFFT process */
 103:./Libraries/CMSIS/DSP/Source/TransformFunctions/arm_rfft_f32.c ****      arm_radix4_butterfly_inverse_f32 (pDst, S_CFFT->fftLen, S_CFFT->pTwiddle, S_CFFT->twidCoefModi
 104:./Libraries/CMSIS/DSP/Source/TransformFunctions/arm_rfft_f32.c **** 
 105:./Libraries/CMSIS/DSP/Source/TransformFunctions/arm_rfft_f32.c ****     /* Bit reversal process */
 106:./Libraries/CMSIS/DSP/Source/TransformFunctions/arm_rfft_f32.c ****     if (S->bitReverseFlagR == 1U)
 107:./Libraries/CMSIS/DSP/Source/TransformFunctions/arm_rfft_f32.c ****     {
 108:./Libraries/CMSIS/DSP/Source/TransformFunctions/arm_rfft_f32.c ****       arm_bitreversal_f32 (pDst, S_CFFT->fftLen, S_CFFT->bitRevFactor, S_CFFT->pBitRevTable);
 109:./Libraries/CMSIS/DSP/Source/TransformFunctions/arm_rfft_f32.c ****     }
 110:./Libraries/CMSIS/DSP/Source/TransformFunctions/arm_rfft_f32.c ****   }
 111:./Libraries/CMSIS/DSP/Source/TransformFunctions/arm_rfft_f32.c ****   else
 112:./Libraries/CMSIS/DSP/Source/TransformFunctions/arm_rfft_f32.c ****   {
 113:./Libraries/CMSIS/DSP/Source/TransformFunctions/arm_rfft_f32.c ****     /* Calculation of RFFT of input */
 114:./Libraries/CMSIS/DSP/Source/TransformFunctions/arm_rfft_f32.c **** 
 115:./Libraries/CMSIS/DSP/Source/TransformFunctions/arm_rfft_f32.c ****     /* Complex radix-4 FFT process */
 116:./Libraries/CMSIS/DSP/Source/TransformFunctions/arm_rfft_f32.c ****     arm_radix4_butterfly_f32 (pSrc, S_CFFT->fftLen, S_CFFT->pTwiddle, S_CFFT->twidCoefModifier);
 117:./Libraries/CMSIS/DSP/Source/TransformFunctions/arm_rfft_f32.c **** 
 118:./Libraries/CMSIS/DSP/Source/TransformFunctions/arm_rfft_f32.c ****     /* Bit reversal process */
 119:./Libraries/CMSIS/DSP/Source/TransformFunctions/arm_rfft_f32.c ****     if (S->bitReverseFlagR == 1U)
 120:./Libraries/CMSIS/DSP/Source/TransformFunctions/arm_rfft_f32.c ****     {
 121:./Libraries/CMSIS/DSP/Source/TransformFunctions/arm_rfft_f32.c ****       arm_bitreversal_f32 (pSrc, S_CFFT->fftLen, S_CFFT->bitRevFactor, S_CFFT->pBitRevTable);
 122:./Libraries/CMSIS/DSP/Source/TransformFunctions/arm_rfft_f32.c ****     }
 123:./Libraries/CMSIS/DSP/Source/TransformFunctions/arm_rfft_f32.c **** 
 124:./Libraries/CMSIS/DSP/Source/TransformFunctions/arm_rfft_f32.c ****     /*  Real FFT core process */
 125:./Libraries/CMSIS/DSP/Source/TransformFunctions/arm_rfft_f32.c ****     arm_split_rfft_f32 (pSrc, S->fftLenBy2, S->pTwiddleAReal, S->pTwiddleBReal, pDst, S->twidCoefRM
 126:./Libraries/CMSIS/DSP/Source/TransformFunctions/arm_rfft_f32.c ****   }
 127:./Libraries/CMSIS/DSP/Source/TransformFunctions/arm_rfft_f32.c **** 
 128:./Libraries/CMSIS/DSP/Source/TransformFunctions/arm_rfft_f32.c **** }
 129:./Libraries/CMSIS/DSP/Source/TransformFunctions/arm_rfft_f32.c **** 
 130:./Libraries/CMSIS/DSP/Source/TransformFunctions/arm_rfft_f32.c **** /**
 131:./Libraries/CMSIS/DSP/Source/TransformFunctions/arm_rfft_f32.c ****   @} end of RealFFT group
 132:./Libraries/CMSIS/DSP/Source/TransformFunctions/arm_rfft_f32.c ****  */
 133:./Libraries/CMSIS/DSP/Source/TransformFunctions/arm_rfft_f32.c **** 
 134:./Libraries/CMSIS/DSP/Source/TransformFunctions/arm_rfft_f32.c **** /**
 135:./Libraries/CMSIS/DSP/Source/TransformFunctions/arm_rfft_f32.c ****   @brief         Core Real FFT process
 136:./Libraries/CMSIS/DSP/Source/TransformFunctions/arm_rfft_f32.c ****   @param[in]     pSrc      points to input buffer
 137:./Libraries/CMSIS/DSP/Source/TransformFunctions/arm_rfft_f32.c ****   @param[in]     fftLen    length of FFT
 138:./Libraries/CMSIS/DSP/Source/TransformFunctions/arm_rfft_f32.c ****   @param[in]     pATable   points to twiddle Coef A buffer
 139:./Libraries/CMSIS/DSP/Source/TransformFunctions/arm_rfft_f32.c ****   @param[in]     pBTable   points to twiddle Coef B buffer
 140:./Libraries/CMSIS/DSP/Source/TransformFunctions/arm_rfft_f32.c ****   @param[out]    pDst      points to output buffer
 141:./Libraries/CMSIS/DSP/Source/TransformFunctions/arm_rfft_f32.c ****   @param[in]     modifier  twiddle coefficient modifier that supports different size FFTs with the 
 142:./Libraries/CMSIS/DSP/Source/TransformFunctions/arm_rfft_f32.c ****   @return        none
 143:./Libraries/CMSIS/DSP/Source/TransformFunctions/arm_rfft_f32.c ****  */
ARM GAS  /tmp/ccYiDUVu.s 			page 4


 144:./Libraries/CMSIS/DSP/Source/TransformFunctions/arm_rfft_f32.c **** 
 145:./Libraries/CMSIS/DSP/Source/TransformFunctions/arm_rfft_f32.c **** void arm_split_rfft_f32(
 146:./Libraries/CMSIS/DSP/Source/TransformFunctions/arm_rfft_f32.c ****         float32_t * pSrc,
 147:./Libraries/CMSIS/DSP/Source/TransformFunctions/arm_rfft_f32.c ****         uint32_t fftLen,
 148:./Libraries/CMSIS/DSP/Source/TransformFunctions/arm_rfft_f32.c ****   const float32_t * pATable,
 149:./Libraries/CMSIS/DSP/Source/TransformFunctions/arm_rfft_f32.c ****   const float32_t * pBTable,
 150:./Libraries/CMSIS/DSP/Source/TransformFunctions/arm_rfft_f32.c ****         float32_t * pDst,
 151:./Libraries/CMSIS/DSP/Source/TransformFunctions/arm_rfft_f32.c ****         uint32_t modifier)
 152:./Libraries/CMSIS/DSP/Source/TransformFunctions/arm_rfft_f32.c **** {
  30              		.loc 1 152 1 view -0
  31              		.cfi_startproc
  32              		@ args = 8, pretend = 0, frame = 0
  33              		@ frame_needed = 0, uses_anonymous_args = 0
 153:./Libraries/CMSIS/DSP/Source/TransformFunctions/arm_rfft_f32.c ****         uint32_t i;                                    /* Loop Counter */
  34              		.loc 1 153 9 view .LVU1
 154:./Libraries/CMSIS/DSP/Source/TransformFunctions/arm_rfft_f32.c ****         float32_t outR, outI;                          /* Temporary variables for output */
  35              		.loc 1 154 9 view .LVU2
 155:./Libraries/CMSIS/DSP/Source/TransformFunctions/arm_rfft_f32.c ****   const float32_t *pCoefA, *pCoefB;                    /* Temporary pointers for twiddle factors */
  36              		.loc 1 155 3 view .LVU3
 156:./Libraries/CMSIS/DSP/Source/TransformFunctions/arm_rfft_f32.c ****         float32_t CoefA1, CoefA2, CoefB1;              /* Temporary variables for twiddle coefficie
  37              		.loc 1 156 9 view .LVU4
 157:./Libraries/CMSIS/DSP/Source/TransformFunctions/arm_rfft_f32.c ****         float32_t *pDst1 = &pDst[2], *pDst2 = &pDst[(4U * fftLen) - 1U];      /* temp pointers for 
  38              		.loc 1 157 9 view .LVU5
 152:./Libraries/CMSIS/DSP/Source/TransformFunctions/arm_rfft_f32.c ****         uint32_t i;                                    /* Loop Counter */
  39              		.loc 1 152 1 is_stmt 0 view .LVU6
  40 0000 2DE9F041 		push	{r4, r5, r6, r7, r8, lr}
  41              	.LCFI0:
  42              		.cfi_def_cfa_offset 24
  43              		.cfi_offset 4, -24
  44              		.cfi_offset 5, -20
  45              		.cfi_offset 6, -16
  46              		.cfi_offset 7, -12
  47              		.cfi_offset 8, -8
  48              		.cfi_offset 14, -4
 158:./Libraries/CMSIS/DSP/Source/TransformFunctions/arm_rfft_f32.c ****         float32_t *pSrc1 = &pSrc[2], *pSrc2 = &pSrc[(2U * fftLen) - 1U];      /* temp pointers for 
 159:./Libraries/CMSIS/DSP/Source/TransformFunctions/arm_rfft_f32.c **** 
 160:./Libraries/CMSIS/DSP/Source/TransformFunctions/arm_rfft_f32.c ****   /* Init coefficient pointers */
 161:./Libraries/CMSIS/DSP/Source/TransformFunctions/arm_rfft_f32.c ****   pCoefA = &pATable[modifier * 2];
 162:./Libraries/CMSIS/DSP/Source/TransformFunctions/arm_rfft_f32.c ****   pCoefB = &pBTable[modifier * 2];
 163:./Libraries/CMSIS/DSP/Source/TransformFunctions/arm_rfft_f32.c **** 
 164:./Libraries/CMSIS/DSP/Source/TransformFunctions/arm_rfft_f32.c ****   i = fftLen - 1U;
 165:./Libraries/CMSIS/DSP/Source/TransformFunctions/arm_rfft_f32.c **** 
 166:./Libraries/CMSIS/DSP/Source/TransformFunctions/arm_rfft_f32.c ****   while (i > 0U)
  49              		.loc 1 166 9 view .LVU7
  50 0004 4E1E     		subs	r6, r1, #1
 158:./Libraries/CMSIS/DSP/Source/TransformFunctions/arm_rfft_f32.c ****         float32_t *pSrc1 = &pSrc[2], *pSrc2 = &pSrc[(2U * fftLen) - 1U];      /* temp pointers for 
  51              		.loc 1 158 52 view .LVU8
  52 0006 4FEAC10C 		lsl	ip, r1, #3
 152:./Libraries/CMSIS/DSP/Source/TransformFunctions/arm_rfft_f32.c ****         uint32_t i;                                    /* Loop Counter */
  53              		.loc 1 152 1 view .LVU9
  54 000a DDE906E7 		ldrd	lr, r7, [sp, #24]
  55              	.LVL1:
 158:./Libraries/CMSIS/DSP/Source/TransformFunctions/arm_rfft_f32.c ****         float32_t *pSrc1 = &pSrc[2], *pSrc2 = &pSrc[(2U * fftLen) - 1U];      /* temp pointers for 
  56              		.loc 1 158 9 is_stmt 1 view .LVU10
 161:./Libraries/CMSIS/DSP/Source/TransformFunctions/arm_rfft_f32.c ****   pCoefB = &pBTable[modifier * 2];
  57              		.loc 1 161 3 view .LVU11
 161:./Libraries/CMSIS/DSP/Source/TransformFunctions/arm_rfft_f32.c ****   pCoefB = &pBTable[modifier * 2];
ARM GAS  /tmp/ccYiDUVu.s 			page 5


  58              		.loc 1 161 10 is_stmt 0 view .LVU12
  59 000e 02EBC702 		add	r2, r2, r7, lsl #3
  60              	.LVL2:
 162:./Libraries/CMSIS/DSP/Source/TransformFunctions/arm_rfft_f32.c **** 
  61              		.loc 1 162 3 is_stmt 1 view .LVU13
 162:./Libraries/CMSIS/DSP/Source/TransformFunctions/arm_rfft_f32.c **** 
  62              		.loc 1 162 10 is_stmt 0 view .LVU14
  63 0012 03EBC703 		add	r3, r3, r7, lsl #3
  64              	.LVL3:
 164:./Libraries/CMSIS/DSP/Source/TransformFunctions/arm_rfft_f32.c **** 
  65              		.loc 1 164 3 is_stmt 1 view .LVU15
  66              		.loc 1 166 3 view .LVU16
  67              		.loc 1 166 9 view .LVU17
  68 0016 3FD0     		beq	.L2
  69 0018 0C01     		lsls	r4, r1, #4
  70              	.LVL4:
  71              		.loc 1 166 9 is_stmt 0 view .LVU18
  72 001a 00F11008 		add	r8, r0, #16
  73 001e FF00     		lsls	r7, r7, #3
  74 0020 0EF11005 		add	r5, lr, #16
  75 0024 A4F10C01 		sub	r1, r4, #12
  76              	.LVL5:
  77              		.loc 1 166 9 view .LVU19
  78 0028 ACF10C04 		sub	r4, ip, #12
  79              	.LVL6:
  80              		.loc 1 166 9 view .LVU20
  81 002c 7144     		add	r1, r1, lr
  82              	.LVL7:
  83              		.loc 1 166 9 view .LVU21
  84 002e 0444     		add	r4, r4, r0
  85              	.LVL8:
  86              	.L3:
 167:./Libraries/CMSIS/DSP/Source/TransformFunctions/arm_rfft_f32.c ****   {
 168:./Libraries/CMSIS/DSP/Source/TransformFunctions/arm_rfft_f32.c ****      /*
 169:./Libraries/CMSIS/DSP/Source/TransformFunctions/arm_rfft_f32.c ****        outR = (  pSrc[2 * i]             * pATable[2 * i]
 170:./Libraries/CMSIS/DSP/Source/TransformFunctions/arm_rfft_f32.c ****                - pSrc[2 * i + 1]         * pATable[2 * i + 1]
 171:./Libraries/CMSIS/DSP/Source/TransformFunctions/arm_rfft_f32.c ****                + pSrc[2 * n - 2 * i]     * pBTable[2 * i]
 172:./Libraries/CMSIS/DSP/Source/TransformFunctions/arm_rfft_f32.c ****                + pSrc[2 * n - 2 * i + 1] * pBTable[2 * i + 1]);
 173:./Libraries/CMSIS/DSP/Source/TransformFunctions/arm_rfft_f32.c **** 
 174:./Libraries/CMSIS/DSP/Source/TransformFunctions/arm_rfft_f32.c ****        outI = (  pIn[2 * i + 1]         * pATable[2 * i]
 175:./Libraries/CMSIS/DSP/Source/TransformFunctions/arm_rfft_f32.c ****                + pIn[2 * i]             * pATable[2 * i + 1]
 176:./Libraries/CMSIS/DSP/Source/TransformFunctions/arm_rfft_f32.c ****                + pIn[2 * n - 2 * i]     * pBTable[2 * i + 1]
 177:./Libraries/CMSIS/DSP/Source/TransformFunctions/arm_rfft_f32.c ****                - pIn[2 * n - 2 * i + 1] * pBTable[2 * i]);
 178:./Libraries/CMSIS/DSP/Source/TransformFunctions/arm_rfft_f32.c ****       */
 179:./Libraries/CMSIS/DSP/Source/TransformFunctions/arm_rfft_f32.c **** 
 180:./Libraries/CMSIS/DSP/Source/TransformFunctions/arm_rfft_f32.c ****     /* read pATable[2 * i] */
 181:./Libraries/CMSIS/DSP/Source/TransformFunctions/arm_rfft_f32.c ****     CoefA1 = *pCoefA++;
  87              		.loc 1 181 5 is_stmt 1 view .LVU22
  88              		.loc 1 181 12 is_stmt 0 view .LVU23
  89 0030 92ED005A 		vldr.32	s10, [r2]
  90              	.LVL9:
 182:./Libraries/CMSIS/DSP/Source/TransformFunctions/arm_rfft_f32.c ****     /* pATable[2 * i + 1] */
 183:./Libraries/CMSIS/DSP/Source/TransformFunctions/arm_rfft_f32.c ****     CoefA2 = *pCoefA;
  91              		.loc 1 183 5 is_stmt 1 view .LVU24
 166:./Libraries/CMSIS/DSP/Source/TransformFunctions/arm_rfft_f32.c ****   {
  92              		.loc 1 166 9 is_stmt 0 view .LVU25
  93 0034 013E     		subs	r6, r6, #1
ARM GAS  /tmp/ccYiDUVu.s 			page 6


  94              	.LVL10:
 184:./Libraries/CMSIS/DSP/Source/TransformFunctions/arm_rfft_f32.c **** 
 185:./Libraries/CMSIS/DSP/Source/TransformFunctions/arm_rfft_f32.c ****     /* pSrc[2 * i] * pATable[2 * i] */
 186:./Libraries/CMSIS/DSP/Source/TransformFunctions/arm_rfft_f32.c ****     outR = *pSrc1 * CoefA1;
 187:./Libraries/CMSIS/DSP/Source/TransformFunctions/arm_rfft_f32.c ****     /* pSrc[2 * i] * CoefA2 */
 188:./Libraries/CMSIS/DSP/Source/TransformFunctions/arm_rfft_f32.c ****     outI = *pSrc1++ * CoefA2;
 189:./Libraries/CMSIS/DSP/Source/TransformFunctions/arm_rfft_f32.c **** 
 190:./Libraries/CMSIS/DSP/Source/TransformFunctions/arm_rfft_f32.c ****     /* (pSrc[2 * i + 1] + pSrc[2 * fftLen - 2 * i + 1]) * CoefA2 */
 191:./Libraries/CMSIS/DSP/Source/TransformFunctions/arm_rfft_f32.c ****     outR -= (*pSrc1 + *pSrc2) * CoefA2;
  95              		.loc 1 191 14 view .LVU26
  96 0036 58ED017A 		vldr.32	s15, [r8, #-4]
  97 003a A4F10804 		sub	r4, r4, #8
  98              	.LVL11:
 183:./Libraries/CMSIS/DSP/Source/TransformFunctions/arm_rfft_f32.c **** 
  99              		.loc 1 183 12 view .LVU27
 100 003e D2ED016A 		vldr.32	s13, [r2, #4]
 101              	.LVL12:
 186:./Libraries/CMSIS/DSP/Source/TransformFunctions/arm_rfft_f32.c ****     /* pSrc[2 * i] * CoefA2 */
 102              		.loc 1 186 5 is_stmt 1 view .LVU28
 103 0042 08F10808 		add	r8, r8, #8
 104              	.LVL13:
 192:./Libraries/CMSIS/DSP/Source/TransformFunctions/arm_rfft_f32.c ****     /* pSrc[2 * i + 1] * CoefA1 */
 193:./Libraries/CMSIS/DSP/Source/TransformFunctions/arm_rfft_f32.c ****     outI += *pSrc1++ * CoefA1;
 105              		.loc 1 193 22 is_stmt 0 view .LVU29
 106 0046 27EE857A 		vmul.f32	s14, s15, s10
 186:./Libraries/CMSIS/DSP/Source/TransformFunctions/arm_rfft_f32.c ****     /* pSrc[2 * i] * CoefA2 */
 107              		.loc 1 186 12 view .LVU30
 108 004a 58ED044A 		vldr.32	s9, [r8, #-16]
 109              	.LVL14:
 188:./Libraries/CMSIS/DSP/Source/TransformFunctions/arm_rfft_f32.c **** 
 110              		.loc 1 188 5 is_stmt 1 view .LVU31
 191:./Libraries/CMSIS/DSP/Source/TransformFunctions/arm_rfft_f32.c ****     /* pSrc[2 * i + 1] * CoefA1 */
 111              		.loc 1 191 5 view .LVU32
 191:./Libraries/CMSIS/DSP/Source/TransformFunctions/arm_rfft_f32.c ****     /* pSrc[2 * i + 1] * CoefA1 */
 112              		.loc 1 191 23 is_stmt 0 view .LVU33
 113 004e 94ED044A 		vldr.32	s8, [r4, #16]
 194:./Libraries/CMSIS/DSP/Source/TransformFunctions/arm_rfft_f32.c **** 
 195:./Libraries/CMSIS/DSP/Source/TransformFunctions/arm_rfft_f32.c ****     CoefB1 = *pCoefB;
 196:./Libraries/CMSIS/DSP/Source/TransformFunctions/arm_rfft_f32.c **** 
 197:./Libraries/CMSIS/DSP/Source/TransformFunctions/arm_rfft_f32.c ****     /* pSrc[2 * fftLen - 2 * i + 1] * CoefB1 */
 198:./Libraries/CMSIS/DSP/Source/TransformFunctions/arm_rfft_f32.c ****     outI -= *pSrc2-- * CoefB1;
 199:./Libraries/CMSIS/DSP/Source/TransformFunctions/arm_rfft_f32.c ****     /* pSrc[2 * fftLen - 2 * i] * CoefA2 */
 200:./Libraries/CMSIS/DSP/Source/TransformFunctions/arm_rfft_f32.c ****     outI -= *pSrc2 * CoefA2;
 201:./Libraries/CMSIS/DSP/Source/TransformFunctions/arm_rfft_f32.c **** 
 202:./Libraries/CMSIS/DSP/Source/TransformFunctions/arm_rfft_f32.c ****     /* pSrc[2 * fftLen - 2 * i] * CoefB1 */
 203:./Libraries/CMSIS/DSP/Source/TransformFunctions/arm_rfft_f32.c ****     outR += *pSrc2-- * CoefB1;
 204:./Libraries/CMSIS/DSP/Source/TransformFunctions/arm_rfft_f32.c **** 
 205:./Libraries/CMSIS/DSP/Source/TransformFunctions/arm_rfft_f32.c ****     /* write output */
 206:./Libraries/CMSIS/DSP/Source/TransformFunctions/arm_rfft_f32.c ****     *pDst1++ = outR;
 207:./Libraries/CMSIS/DSP/Source/TransformFunctions/arm_rfft_f32.c ****     *pDst1++ = outI;
 208:./Libraries/CMSIS/DSP/Source/TransformFunctions/arm_rfft_f32.c **** 
 209:./Libraries/CMSIS/DSP/Source/TransformFunctions/arm_rfft_f32.c ****     /* write complex conjugate output */
 210:./Libraries/CMSIS/DSP/Source/TransformFunctions/arm_rfft_f32.c ****     *pDst2-- = -outI;
 211:./Libraries/CMSIS/DSP/Source/TransformFunctions/arm_rfft_f32.c ****     *pDst2-- = outR;
 212:./Libraries/CMSIS/DSP/Source/TransformFunctions/arm_rfft_f32.c **** 
 213:./Libraries/CMSIS/DSP/Source/TransformFunctions/arm_rfft_f32.c ****     /* update coefficient pointer */
 214:./Libraries/CMSIS/DSP/Source/TransformFunctions/arm_rfft_f32.c ****     pCoefB = pCoefB + (modifier * 2U);
ARM GAS  /tmp/ccYiDUVu.s 			page 7


 215:./Libraries/CMSIS/DSP/Source/TransformFunctions/arm_rfft_f32.c ****     pCoefA = pCoefA + ((modifier * 2U) - 1U);
 114              		.loc 1 215 12 view .LVU34
 115 0052 3A44     		add	r2, r2, r7
 116              	.LVL15:
 195:./Libraries/CMSIS/DSP/Source/TransformFunctions/arm_rfft_f32.c **** 
 117              		.loc 1 195 12 view .LVU35
 118 0054 93ED006A 		vldr.32	s12, [r3]
 119 0058 05F10805 		add	r5, r5, #8
 193:./Libraries/CMSIS/DSP/Source/TransformFunctions/arm_rfft_f32.c **** 
 120              		.loc 1 193 10 view .LVU36
 121 005c A4EEA67A 		vfma.f32	s14, s9, s13
 200:./Libraries/CMSIS/DSP/Source/TransformFunctions/arm_rfft_f32.c **** 
 122              		.loc 1 200 13 view .LVU37
 123 0060 D4ED035A 		vldr.32	s11, [r4, #12]
 191:./Libraries/CMSIS/DSP/Source/TransformFunctions/arm_rfft_f32.c ****     /* pSrc[2 * i + 1] * CoefA1 */
 124              		.loc 1 191 21 view .LVU38
 125 0064 77EE847A 		vadd.f32	s15, s15, s8
 214:./Libraries/CMSIS/DSP/Source/TransformFunctions/arm_rfft_f32.c ****     pCoefA = pCoefA + ((modifier * 2U) - 1U);
 126              		.loc 1 214 12 view .LVU39
 127 0068 3B44     		add	r3, r3, r7
 128              	.LVL16:
 214:./Libraries/CMSIS/DSP/Source/TransformFunctions/arm_rfft_f32.c ****     pCoefA = pCoefA + ((modifier * 2U) - 1U);
 129              		.loc 1 214 12 view .LVU40
 130 006a A1F10801 		sub	r1, r1, #8
 191:./Libraries/CMSIS/DSP/Source/TransformFunctions/arm_rfft_f32.c ****     /* pSrc[2 * i + 1] * CoefA1 */
 131              		.loc 1 191 10 view .LVU41
 132 006e 66EEE77A 		vnmul.f32	s15, s13, s15
 198:./Libraries/CMSIS/DSP/Source/TransformFunctions/arm_rfft_f32.c ****     /* pSrc[2 * fftLen - 2 * i] * CoefA2 */
 133              		.loc 1 198 10 view .LVU42
 134 0072 A4EE467A 		vfms.f32	s14, s8, s12
 191:./Libraries/CMSIS/DSP/Source/TransformFunctions/arm_rfft_f32.c ****     /* pSrc[2 * i + 1] * CoefA1 */
 135              		.loc 1 191 10 view .LVU43
 136 0076 E4EE857A 		vfma.f32	s15, s9, s10
 137              	.LVL17:
 193:./Libraries/CMSIS/DSP/Source/TransformFunctions/arm_rfft_f32.c **** 
 138              		.loc 1 193 5 is_stmt 1 view .LVU44
 195:./Libraries/CMSIS/DSP/Source/TransformFunctions/arm_rfft_f32.c **** 
 139              		.loc 1 195 5 view .LVU45
 198:./Libraries/CMSIS/DSP/Source/TransformFunctions/arm_rfft_f32.c ****     /* pSrc[2 * fftLen - 2 * i] * CoefA2 */
 140              		.loc 1 198 5 view .LVU46
 200:./Libraries/CMSIS/DSP/Source/TransformFunctions/arm_rfft_f32.c **** 
 141              		.loc 1 200 5 view .LVU47
 200:./Libraries/CMSIS/DSP/Source/TransformFunctions/arm_rfft_f32.c **** 
 142              		.loc 1 200 10 is_stmt 0 view .LVU48
 143 007a A5EEE67A 		vfms.f32	s14, s11, s13
 144              	.LVL18:
 203:./Libraries/CMSIS/DSP/Source/TransformFunctions/arm_rfft_f32.c **** 
 145              		.loc 1 203 5 is_stmt 1 view .LVU49
 203:./Libraries/CMSIS/DSP/Source/TransformFunctions/arm_rfft_f32.c **** 
 146              		.loc 1 203 10 is_stmt 0 view .LVU50
 147 007e E5EE867A 		vfma.f32	s15, s11, s12
 148              	.LVL19:
 206:./Libraries/CMSIS/DSP/Source/TransformFunctions/arm_rfft_f32.c ****     *pDst1++ = outI;
 149              		.loc 1 206 5 is_stmt 1 view .LVU51
 210:./Libraries/CMSIS/DSP/Source/TransformFunctions/arm_rfft_f32.c ****     *pDst2-- = outR;
 150              		.loc 1 210 16 is_stmt 0 view .LVU52
 151 0082 F1EE476A 		vneg.f32	s13, s14
ARM GAS  /tmp/ccYiDUVu.s 			page 8


 152              	.LVL20:
 207:./Libraries/CMSIS/DSP/Source/TransformFunctions/arm_rfft_f32.c **** 
 153              		.loc 1 207 14 view .LVU53
 154 0086 05ED037A 		vstr.32	s14, [r5, #-12]
 206:./Libraries/CMSIS/DSP/Source/TransformFunctions/arm_rfft_f32.c ****     *pDst1++ = outI;
 155              		.loc 1 206 14 view .LVU54
 156 008a 45ED047A 		vstr.32	s15, [r5, #-16]
 207:./Libraries/CMSIS/DSP/Source/TransformFunctions/arm_rfft_f32.c **** 
 157              		.loc 1 207 5 is_stmt 1 view .LVU55
 210:./Libraries/CMSIS/DSP/Source/TransformFunctions/arm_rfft_f32.c ****     *pDst2-- = outR;
 158              		.loc 1 210 5 view .LVU56
 159              	.LVL21:
 211:./Libraries/CMSIS/DSP/Source/TransformFunctions/arm_rfft_f32.c **** 
 160              		.loc 1 211 14 is_stmt 0 view .LVU57
 161 008e C1ED037A 		vstr.32	s15, [r1, #12]
 210:./Libraries/CMSIS/DSP/Source/TransformFunctions/arm_rfft_f32.c ****     *pDst2-- = outR;
 162              		.loc 1 210 14 view .LVU58
 163 0092 C1ED046A 		vstr.32	s13, [r1, #16]
 211:./Libraries/CMSIS/DSP/Source/TransformFunctions/arm_rfft_f32.c **** 
 164              		.loc 1 211 5 is_stmt 1 view .LVU59
 165              	.LVL22:
 214:./Libraries/CMSIS/DSP/Source/TransformFunctions/arm_rfft_f32.c ****     pCoefA = pCoefA + ((modifier * 2U) - 1U);
 166              		.loc 1 214 5 view .LVU60
 167              		.loc 1 215 5 view .LVU61
 216:./Libraries/CMSIS/DSP/Source/TransformFunctions/arm_rfft_f32.c **** 
 217:./Libraries/CMSIS/DSP/Source/TransformFunctions/arm_rfft_f32.c ****     i--;
 168              		.loc 1 217 5 view .LVU62
 166:./Libraries/CMSIS/DSP/Source/TransformFunctions/arm_rfft_f32.c ****   {
 169              		.loc 1 166 9 view .LVU63
 170 0096 CBD1     		bne	.L3
 171              	.LVL23:
 172              	.L2:
 218:./Libraries/CMSIS/DSP/Source/TransformFunctions/arm_rfft_f32.c **** 
 219:./Libraries/CMSIS/DSP/Source/TransformFunctions/arm_rfft_f32.c ****   }
 220:./Libraries/CMSIS/DSP/Source/TransformFunctions/arm_rfft_f32.c **** 
 221:./Libraries/CMSIS/DSP/Source/TransformFunctions/arm_rfft_f32.c ****   pDst[2U * fftLen] = pSrc[0] - pSrc[1];
 173              		.loc 1 221 3 view .LVU64
 174              		.loc 1 221 31 is_stmt 0 view .LVU65
 175 0098 90ED017A 		vldr.32	s14, [r0, #4]
 176              		.loc 1 221 21 view .LVU66
 177 009c F444     		add	ip, ip, lr
 178              		.loc 1 221 31 view .LVU67
 179 009e D0ED007A 		vldr.32	s15, [r0]
 222:./Libraries/CMSIS/DSP/Source/TransformFunctions/arm_rfft_f32.c ****   pDst[(2U * fftLen) + 1U] = 0.0f;
 180              		.loc 1 222 28 view .LVU68
 181 00a2 0023     		movs	r3, #0
 182              	.LVL24:
 221:./Libraries/CMSIS/DSP/Source/TransformFunctions/arm_rfft_f32.c ****   pDst[(2U * fftLen) + 1U] = 0.0f;
 183              		.loc 1 221 31 view .LVU69
 184 00a4 77EEC77A 		vsub.f32	s15, s15, s14
 185              		.loc 1 222 28 view .LVU70
 186 00a8 CCF80430 		str	r3, [ip, #4]	@ float
 221:./Libraries/CMSIS/DSP/Source/TransformFunctions/arm_rfft_f32.c ****   pDst[(2U * fftLen) + 1U] = 0.0f;
 187              		.loc 1 221 21 view .LVU71
 188 00ac CCED007A 		vstr.32	s15, [ip]
 189              		.loc 1 222 3 is_stmt 1 view .LVU72
 223:./Libraries/CMSIS/DSP/Source/TransformFunctions/arm_rfft_f32.c **** 
ARM GAS  /tmp/ccYiDUVu.s 			page 9


 224:./Libraries/CMSIS/DSP/Source/TransformFunctions/arm_rfft_f32.c ****   pDst[0] = pSrc[0] + pSrc[1];
 190              		.loc 1 224 3 view .LVU73
 191              		.loc 1 224 21 is_stmt 0 view .LVU74
 192 00b0 D0ED007A 		vldr.32	s15, [r0]
 193 00b4 90ED017A 		vldr.32	s14, [r0, #4]
 225:./Libraries/CMSIS/DSP/Source/TransformFunctions/arm_rfft_f32.c ****   pDst[1] = 0.0f;
 194              		.loc 1 225 11 view .LVU75
 195 00b8 CEF80430 		str	r3, [lr, #4]	@ float
 224:./Libraries/CMSIS/DSP/Source/TransformFunctions/arm_rfft_f32.c ****   pDst[1] = 0.0f;
 196              		.loc 1 224 21 view .LVU76
 197 00bc 77EE877A 		vadd.f32	s15, s15, s14
 224:./Libraries/CMSIS/DSP/Source/TransformFunctions/arm_rfft_f32.c ****   pDst[1] = 0.0f;
 198              		.loc 1 224 11 view .LVU77
 199 00c0 CEED007A 		vstr.32	s15, [lr]
 200              		.loc 1 225 3 is_stmt 1 view .LVU78
 226:./Libraries/CMSIS/DSP/Source/TransformFunctions/arm_rfft_f32.c **** 
 227:./Libraries/CMSIS/DSP/Source/TransformFunctions/arm_rfft_f32.c **** }
 201              		.loc 1 227 1 is_stmt 0 view .LVU79
 202 00c4 BDE8F081 		pop	{r4, r5, r6, r7, r8, pc}
 203              		.loc 1 227 1 view .LVU80
 204              		.cfi_endproc
 205              	.LFE146:
 207              		.section	.text.arm_split_rifft_f32,"ax",%progbits
 208              		.align	1
 209              		.p2align 2,,3
 210              		.global	arm_split_rifft_f32
 211              		.syntax unified
 212              		.thumb
 213              		.thumb_func
 214              		.fpu fpv5-d16
 216              	arm_split_rifft_f32:
 217              	.LVL25:
 218              	.LFB147:
 228:./Libraries/CMSIS/DSP/Source/TransformFunctions/arm_rfft_f32.c **** 
 229:./Libraries/CMSIS/DSP/Source/TransformFunctions/arm_rfft_f32.c **** 
 230:./Libraries/CMSIS/DSP/Source/TransformFunctions/arm_rfft_f32.c **** /**
 231:./Libraries/CMSIS/DSP/Source/TransformFunctions/arm_rfft_f32.c ****   @brief         Core Real IFFT process
 232:./Libraries/CMSIS/DSP/Source/TransformFunctions/arm_rfft_f32.c ****   @param[in]     pSrc      points to input buffer
 233:./Libraries/CMSIS/DSP/Source/TransformFunctions/arm_rfft_f32.c ****   @param[in]     fftLen    length of FFT
 234:./Libraries/CMSIS/DSP/Source/TransformFunctions/arm_rfft_f32.c ****   @param[in]     pATable   points to twiddle Coef A buffer
 235:./Libraries/CMSIS/DSP/Source/TransformFunctions/arm_rfft_f32.c ****   @param[in]     pBTable   points to twiddle Coef B buffer
 236:./Libraries/CMSIS/DSP/Source/TransformFunctions/arm_rfft_f32.c ****   @param[out]    pDst      points to output buffer
 237:./Libraries/CMSIS/DSP/Source/TransformFunctions/arm_rfft_f32.c ****   @param[in]     modifier  twiddle coefficient modifier that supports different size FFTs with the 
 238:./Libraries/CMSIS/DSP/Source/TransformFunctions/arm_rfft_f32.c ****   @return        none
 239:./Libraries/CMSIS/DSP/Source/TransformFunctions/arm_rfft_f32.c ****  */
 240:./Libraries/CMSIS/DSP/Source/TransformFunctions/arm_rfft_f32.c **** 
 241:./Libraries/CMSIS/DSP/Source/TransformFunctions/arm_rfft_f32.c **** void arm_split_rifft_f32(
 242:./Libraries/CMSIS/DSP/Source/TransformFunctions/arm_rfft_f32.c ****         float32_t * pSrc,
 243:./Libraries/CMSIS/DSP/Source/TransformFunctions/arm_rfft_f32.c ****         uint32_t fftLen,
 244:./Libraries/CMSIS/DSP/Source/TransformFunctions/arm_rfft_f32.c ****   const float32_t * pATable,
 245:./Libraries/CMSIS/DSP/Source/TransformFunctions/arm_rfft_f32.c ****   const float32_t * pBTable,
 246:./Libraries/CMSIS/DSP/Source/TransformFunctions/arm_rfft_f32.c ****         float32_t * pDst,
 247:./Libraries/CMSIS/DSP/Source/TransformFunctions/arm_rfft_f32.c ****         uint32_t modifier)
 248:./Libraries/CMSIS/DSP/Source/TransformFunctions/arm_rfft_f32.c **** {
 219              		.loc 1 248 1 is_stmt 1 view -0
 220              		.cfi_startproc
 221              		@ args = 8, pretend = 0, frame = 0
ARM GAS  /tmp/ccYiDUVu.s 			page 10


 222              		@ frame_needed = 0, uses_anonymous_args = 0
 223              		@ link register save eliminated.
 249:./Libraries/CMSIS/DSP/Source/TransformFunctions/arm_rfft_f32.c ****         float32_t outR, outI;                          /* Temporary variables for output */
 224              		.loc 1 249 9 view .LVU82
 250:./Libraries/CMSIS/DSP/Source/TransformFunctions/arm_rfft_f32.c ****   const float32_t *pCoefA, *pCoefB;                    /* Temporary pointers for twiddle factors */
 225              		.loc 1 250 3 view .LVU83
 251:./Libraries/CMSIS/DSP/Source/TransformFunctions/arm_rfft_f32.c ****         float32_t CoefA1, CoefA2, CoefB1;              /* Temporary variables for twiddle coefficie
 226              		.loc 1 251 9 view .LVU84
 252:./Libraries/CMSIS/DSP/Source/TransformFunctions/arm_rfft_f32.c ****         float32_t *pSrc1 = &pSrc[0], *pSrc2 = &pSrc[(2U * fftLen) + 1U];
 227              		.loc 1 252 9 view .LVU85
 253:./Libraries/CMSIS/DSP/Source/TransformFunctions/arm_rfft_f32.c **** 
 254:./Libraries/CMSIS/DSP/Source/TransformFunctions/arm_rfft_f32.c ****   pCoefA = &pATable[0];
 228              		.loc 1 254 3 view .LVU86
 255:./Libraries/CMSIS/DSP/Source/TransformFunctions/arm_rfft_f32.c ****   pCoefB = &pBTable[0];
 229              		.loc 1 255 3 view .LVU87
 256:./Libraries/CMSIS/DSP/Source/TransformFunctions/arm_rfft_f32.c **** 
 257:./Libraries/CMSIS/DSP/Source/TransformFunctions/arm_rfft_f32.c ****   while (fftLen > 0U)
 230              		.loc 1 257 3 view .LVU88
 231              		.loc 1 257 9 view .LVU89
 232 0000 B9B3     		cbz	r1, .L18
 248:./Libraries/CMSIS/DSP/Source/TransformFunctions/arm_rfft_f32.c ****         float32_t outR, outI;                          /* Temporary variables for output */
 233              		.loc 1 248 1 is_stmt 0 view .LVU90
 234 0002 F0B4     		push	{r4, r5, r6, r7}
 235              	.LCFI1:
 236              		.cfi_def_cfa_offset 16
 237              		.cfi_offset 4, -16
 238              		.cfi_offset 5, -12
 239              		.cfi_offset 6, -8
 240              		.cfi_offset 7, -4
 241 0004 CC00     		lsls	r4, r1, #3
 242              	.LVL26:
 248:./Libraries/CMSIS/DSP/Source/TransformFunctions/arm_rfft_f32.c ****         float32_t outR, outI;                          /* Temporary variables for output */
 243              		.loc 1 248 1 view .LVU91
 244 0006 00F10805 		add	r5, r0, #8
 245 000a 271F     		subs	r7, r4, #4
 258:./Libraries/CMSIS/DSP/Source/TransformFunctions/arm_rfft_f32.c ****   {
 259:./Libraries/CMSIS/DSP/Source/TransformFunctions/arm_rfft_f32.c ****      /*
 260:./Libraries/CMSIS/DSP/Source/TransformFunctions/arm_rfft_f32.c ****        outR = (  pIn[2 * i]             * pATable[2 * i]
 261:./Libraries/CMSIS/DSP/Source/TransformFunctions/arm_rfft_f32.c ****                + pIn[2 * i + 1]         * pATable[2 * i + 1]
 262:./Libraries/CMSIS/DSP/Source/TransformFunctions/arm_rfft_f32.c ****                + pIn[2 * n - 2 * i]     * pBTable[2 * i]
 263:./Libraries/CMSIS/DSP/Source/TransformFunctions/arm_rfft_f32.c ****                - pIn[2 * n - 2 * i + 1] * pBTable[2 * i + 1]);
 264:./Libraries/CMSIS/DSP/Source/TransformFunctions/arm_rfft_f32.c **** 
 265:./Libraries/CMSIS/DSP/Source/TransformFunctions/arm_rfft_f32.c ****        outI = (  pIn[2 * i + 1]         * pATable[2 * i]
 266:./Libraries/CMSIS/DSP/Source/TransformFunctions/arm_rfft_f32.c ****                - pIn[2 * i]             * pATable[2 * i + 1]
 267:./Libraries/CMSIS/DSP/Source/TransformFunctions/arm_rfft_f32.c ****                - pIn[2 * n - 2 * i]     * pBTable[2 * i + 1]
 268:./Libraries/CMSIS/DSP/Source/TransformFunctions/arm_rfft_f32.c ****                - pIn[2 * n - 2 * i + 1] * pBTable[2 * i]);
 269:./Libraries/CMSIS/DSP/Source/TransformFunctions/arm_rfft_f32.c ****       */
 270:./Libraries/CMSIS/DSP/Source/TransformFunctions/arm_rfft_f32.c **** 
 271:./Libraries/CMSIS/DSP/Source/TransformFunctions/arm_rfft_f32.c ****      CoefA1 = *pCoefA++;
 272:./Libraries/CMSIS/DSP/Source/TransformFunctions/arm_rfft_f32.c ****      CoefA2 = *pCoefA;
 273:./Libraries/CMSIS/DSP/Source/TransformFunctions/arm_rfft_f32.c **** 
 274:./Libraries/CMSIS/DSP/Source/TransformFunctions/arm_rfft_f32.c ****      /* outR = (pSrc[2 * i] * CoefA1 */
 275:./Libraries/CMSIS/DSP/Source/TransformFunctions/arm_rfft_f32.c ****      outR = *pSrc1 * CoefA1;
 276:./Libraries/CMSIS/DSP/Source/TransformFunctions/arm_rfft_f32.c **** 
 277:./Libraries/CMSIS/DSP/Source/TransformFunctions/arm_rfft_f32.c ****      /* - pSrc[2 * i] * CoefA2 */
 278:./Libraries/CMSIS/DSP/Source/TransformFunctions/arm_rfft_f32.c ****      outI = -(*pSrc1++) * CoefA2;
 279:./Libraries/CMSIS/DSP/Source/TransformFunctions/arm_rfft_f32.c **** 
ARM GAS  /tmp/ccYiDUVu.s 			page 11


 280:./Libraries/CMSIS/DSP/Source/TransformFunctions/arm_rfft_f32.c ****      /* (pSrc[2 * i + 1] + pSrc[2 * fftLen - 2 * i + 1]) * CoefA2 */
 281:./Libraries/CMSIS/DSP/Source/TransformFunctions/arm_rfft_f32.c ****      outR += (*pSrc1 + *pSrc2) * CoefA2;
 282:./Libraries/CMSIS/DSP/Source/TransformFunctions/arm_rfft_f32.c **** 
 283:./Libraries/CMSIS/DSP/Source/TransformFunctions/arm_rfft_f32.c ****      /* pSrc[2 * i + 1] * CoefA1 */
 284:./Libraries/CMSIS/DSP/Source/TransformFunctions/arm_rfft_f32.c ****      outI += (*pSrc1++) * CoefA1;
 285:./Libraries/CMSIS/DSP/Source/TransformFunctions/arm_rfft_f32.c **** 
 286:./Libraries/CMSIS/DSP/Source/TransformFunctions/arm_rfft_f32.c ****      CoefB1 = *pCoefB;
 287:./Libraries/CMSIS/DSP/Source/TransformFunctions/arm_rfft_f32.c **** 
 288:./Libraries/CMSIS/DSP/Source/TransformFunctions/arm_rfft_f32.c ****      /* - pSrc[2 * fftLen - 2 * i + 1] * CoefB1 */
 289:./Libraries/CMSIS/DSP/Source/TransformFunctions/arm_rfft_f32.c ****      outI -= *pSrc2-- * CoefB1;
 290:./Libraries/CMSIS/DSP/Source/TransformFunctions/arm_rfft_f32.c **** 
 291:./Libraries/CMSIS/DSP/Source/TransformFunctions/arm_rfft_f32.c ****      /* pSrc[2 * fftLen - 2 * i] * CoefB1 */
 292:./Libraries/CMSIS/DSP/Source/TransformFunctions/arm_rfft_f32.c ****      outR += *pSrc2 * CoefB1;
 293:./Libraries/CMSIS/DSP/Source/TransformFunctions/arm_rfft_f32.c **** 
 294:./Libraries/CMSIS/DSP/Source/TransformFunctions/arm_rfft_f32.c ****      /* pSrc[2 * fftLen - 2 * i] * CoefA2 */
 295:./Libraries/CMSIS/DSP/Source/TransformFunctions/arm_rfft_f32.c ****      outI += *pSrc2-- * CoefA2;
 296:./Libraries/CMSIS/DSP/Source/TransformFunctions/arm_rfft_f32.c **** 
 297:./Libraries/CMSIS/DSP/Source/TransformFunctions/arm_rfft_f32.c ****      /* write output */
 298:./Libraries/CMSIS/DSP/Source/TransformFunctions/arm_rfft_f32.c ****      *pDst++ = outR;
 299:./Libraries/CMSIS/DSP/Source/TransformFunctions/arm_rfft_f32.c ****      *pDst++ = outI;
 300:./Libraries/CMSIS/DSP/Source/TransformFunctions/arm_rfft_f32.c **** 
 301:./Libraries/CMSIS/DSP/Source/TransformFunctions/arm_rfft_f32.c ****      /* update coefficient pointer */
 302:./Libraries/CMSIS/DSP/Source/TransformFunctions/arm_rfft_f32.c ****      pCoefB = pCoefB + (modifier * 2);
 246              		.loc 1 302 22 view .LVU92
 247 000c 059C     		ldr	r4, [sp, #20]
 248              	.LVL27:
 249              		.loc 1 302 22 view .LVU93
 250 000e E600     		lsls	r6, r4, #3
 251 0010 049C     		ldr	r4, [sp, #16]
 252 0012 3844     		add	r0, r0, r7
 253              	.LVL28:
 254              		.loc 1 302 22 view .LVU94
 255 0014 0834     		adds	r4, r4, #8
 256              	.LVL29:
 257              	.L12:
 271:./Libraries/CMSIS/DSP/Source/TransformFunctions/arm_rfft_f32.c ****      CoefA2 = *pCoefA;
 258              		.loc 1 271 6 is_stmt 1 view .LVU95
 271:./Libraries/CMSIS/DSP/Source/TransformFunctions/arm_rfft_f32.c ****      CoefA2 = *pCoefA;
 259              		.loc 1 271 13 is_stmt 0 view .LVU96
 260 0016 D2ED004A 		vldr.32	s9, [r2]
 261              	.LVL30:
 272:./Libraries/CMSIS/DSP/Source/TransformFunctions/arm_rfft_f32.c **** 
 262              		.loc 1 272 6 is_stmt 1 view .LVU97
 257:./Libraries/CMSIS/DSP/Source/TransformFunctions/arm_rfft_f32.c ****   {
 263              		.loc 1 257 9 is_stmt 0 view .LVU98
 264 001a 0139     		subs	r1, r1, #1
 265              	.LVL31:
 281:./Libraries/CMSIS/DSP/Source/TransformFunctions/arm_rfft_f32.c **** 
 266              		.loc 1 281 15 view .LVU99
 267 001c 55ED017A 		vldr.32	s15, [r5, #-4]
 268 0020 A0F10800 		sub	r0, r0, #8
 269              	.LVL32:
 272:./Libraries/CMSIS/DSP/Source/TransformFunctions/arm_rfft_f32.c **** 
 270              		.loc 1 272 13 view .LVU100
 271 0024 D2ED016A 		vldr.32	s13, [r2, #4]
 272              	.LVL33:
 275:./Libraries/CMSIS/DSP/Source/TransformFunctions/arm_rfft_f32.c **** 
ARM GAS  /tmp/ccYiDUVu.s 			page 12


 273              		.loc 1 275 6 is_stmt 1 view .LVU101
 274 0028 05F10805 		add	r5, r5, #8
 275              	.LVL34:
 284:./Libraries/CMSIS/DSP/Source/TransformFunctions/arm_rfft_f32.c **** 
 276              		.loc 1 284 25 is_stmt 0 view .LVU102
 277 002c 27EEA47A 		vmul.f32	s14, s15, s9
 281:./Libraries/CMSIS/DSP/Source/TransformFunctions/arm_rfft_f32.c **** 
 278              		.loc 1 281 24 view .LVU103
 279 0030 90ED045A 		vldr.32	s10, [r0, #16]
 275:./Libraries/CMSIS/DSP/Source/TransformFunctions/arm_rfft_f32.c **** 
 280              		.loc 1 275 13 view .LVU104
 281 0034 15ED044A 		vldr.32	s8, [r5, #-16]
 282              	.LVL35:
 278:./Libraries/CMSIS/DSP/Source/TransformFunctions/arm_rfft_f32.c **** 
 283              		.loc 1 278 6 is_stmt 1 view .LVU105
 281:./Libraries/CMSIS/DSP/Source/TransformFunctions/arm_rfft_f32.c **** 
 284              		.loc 1 281 6 view .LVU106
 303:./Libraries/CMSIS/DSP/Source/TransformFunctions/arm_rfft_f32.c ****      pCoefA = pCoefA + (modifier * 2 - 1);
 285              		.loc 1 303 13 is_stmt 0 view .LVU107
 286 0038 3244     		add	r2, r2, r6
 287              	.LVL36:
 281:./Libraries/CMSIS/DSP/Source/TransformFunctions/arm_rfft_f32.c **** 
 288              		.loc 1 281 22 view .LVU108
 289 003a 77EE857A 		vadd.f32	s15, s15, s10
 286:./Libraries/CMSIS/DSP/Source/TransformFunctions/arm_rfft_f32.c **** 
 290              		.loc 1 286 13 view .LVU109
 291 003e D3ED005A 		vldr.32	s11, [r3]
 284:./Libraries/CMSIS/DSP/Source/TransformFunctions/arm_rfft_f32.c **** 
 292              		.loc 1 284 11 view .LVU110
 293 0042 A4EE667A 		vfms.f32	s14, s8, s13
 292:./Libraries/CMSIS/DSP/Source/TransformFunctions/arm_rfft_f32.c **** 
 294              		.loc 1 292 14 view .LVU111
 295 0046 90ED036A 		vldr.32	s12, [r0, #12]
 302:./Libraries/CMSIS/DSP/Source/TransformFunctions/arm_rfft_f32.c ****      pCoefA = pCoefA + (modifier * 2 - 1);
 296              		.loc 1 302 13 view .LVU112
 297 004a 3344     		add	r3, r3, r6
 298              	.LVL37:
 302:./Libraries/CMSIS/DSP/Source/TransformFunctions/arm_rfft_f32.c ****      pCoefA = pCoefA + (modifier * 2 - 1);
 299              		.loc 1 302 13 view .LVU113
 300 004c 04F10804 		add	r4, r4, #8
 281:./Libraries/CMSIS/DSP/Source/TransformFunctions/arm_rfft_f32.c **** 
 301              		.loc 1 281 32 view .LVU114
 302 0050 67EEA67A 		vmul.f32	s15, s15, s13
 281:./Libraries/CMSIS/DSP/Source/TransformFunctions/arm_rfft_f32.c **** 
 303              		.loc 1 281 11 view .LVU115
 304 0054 E4EE247A 		vfma.f32	s15, s8, s9
 305              	.LVL38:
 284:./Libraries/CMSIS/DSP/Source/TransformFunctions/arm_rfft_f32.c **** 
 306              		.loc 1 284 6 is_stmt 1 view .LVU116
 286:./Libraries/CMSIS/DSP/Source/TransformFunctions/arm_rfft_f32.c **** 
 307              		.loc 1 286 6 view .LVU117
 289:./Libraries/CMSIS/DSP/Source/TransformFunctions/arm_rfft_f32.c **** 
 308              		.loc 1 289 6 view .LVU118
 289:./Libraries/CMSIS/DSP/Source/TransformFunctions/arm_rfft_f32.c **** 
 309              		.loc 1 289 11 is_stmt 0 view .LVU119
 310 0058 A5EE657A 		vfms.f32	s14, s10, s11
 311              	.LVL39:
ARM GAS  /tmp/ccYiDUVu.s 			page 13


 292:./Libraries/CMSIS/DSP/Source/TransformFunctions/arm_rfft_f32.c **** 
 312              		.loc 1 292 6 is_stmt 1 view .LVU120
 292:./Libraries/CMSIS/DSP/Source/TransformFunctions/arm_rfft_f32.c **** 
 313              		.loc 1 292 11 is_stmt 0 view .LVU121
 314 005c E6EE257A 		vfma.f32	s15, s12, s11
 315              	.LVL40:
 295:./Libraries/CMSIS/DSP/Source/TransformFunctions/arm_rfft_f32.c **** 
 316              		.loc 1 295 6 is_stmt 1 view .LVU122
 295:./Libraries/CMSIS/DSP/Source/TransformFunctions/arm_rfft_f32.c **** 
 317              		.loc 1 295 11 is_stmt 0 view .LVU123
 318 0060 A6EE267A 		vfma.f32	s14, s12, s13
 319              	.LVL41:
 298:./Libraries/CMSIS/DSP/Source/TransformFunctions/arm_rfft_f32.c ****      *pDst++ = outI;
 320              		.loc 1 298 6 is_stmt 1 view .LVU124
 298:./Libraries/CMSIS/DSP/Source/TransformFunctions/arm_rfft_f32.c ****      *pDst++ = outI;
 321              		.loc 1 298 14 is_stmt 0 view .LVU125
 322 0064 44ED047A 		vstr.32	s15, [r4, #-16]
 299:./Libraries/CMSIS/DSP/Source/TransformFunctions/arm_rfft_f32.c **** 
 323              		.loc 1 299 6 is_stmt 1 view .LVU126
 324              	.LVL42:
 299:./Libraries/CMSIS/DSP/Source/TransformFunctions/arm_rfft_f32.c **** 
 325              		.loc 1 299 14 is_stmt 0 view .LVU127
 326 0068 04ED037A 		vstr.32	s14, [r4, #-12]
 302:./Libraries/CMSIS/DSP/Source/TransformFunctions/arm_rfft_f32.c ****      pCoefA = pCoefA + (modifier * 2 - 1);
 327              		.loc 1 302 6 is_stmt 1 view .LVU128
 328              	.LVL43:
 329              		.loc 1 303 6 view .LVU129
 304:./Libraries/CMSIS/DSP/Source/TransformFunctions/arm_rfft_f32.c **** 
 305:./Libraries/CMSIS/DSP/Source/TransformFunctions/arm_rfft_f32.c ****      /* Decrement loop count */
 306:./Libraries/CMSIS/DSP/Source/TransformFunctions/arm_rfft_f32.c ****      fftLen--;
 330              		.loc 1 306 6 view .LVU130
 257:./Libraries/CMSIS/DSP/Source/TransformFunctions/arm_rfft_f32.c ****   {
 331              		.loc 1 257 9 view .LVU131
 332 006c D3D1     		bne	.L12
 307:./Libraries/CMSIS/DSP/Source/TransformFunctions/arm_rfft_f32.c ****   }
 308:./Libraries/CMSIS/DSP/Source/TransformFunctions/arm_rfft_f32.c **** 
 309:./Libraries/CMSIS/DSP/Source/TransformFunctions/arm_rfft_f32.c **** }
 333              		.loc 1 309 1 is_stmt 0 view .LVU132
 334 006e F0BC     		pop	{r4, r5, r6, r7}
 335              	.LCFI2:
 336              		.cfi_restore 7
 337              		.cfi_restore 6
 338              		.cfi_restore 5
 339              		.cfi_restore 4
 340              		.cfi_def_cfa_offset 0
 341              	.LVL44:
 342              		.loc 1 309 1 view .LVU133
 343 0070 7047     		bx	lr
 344              	.LVL45:
 345              	.L18:
 346              		.loc 1 309 1 view .LVU134
 347 0072 7047     		bx	lr
 348              		.cfi_endproc
 349              	.LFE147:
 351              		.section	.text.arm_rfft_f32,"ax",%progbits
 352              		.align	1
 353              		.p2align 2,,3
ARM GAS  /tmp/ccYiDUVu.s 			page 14


 354              		.global	arm_rfft_f32
 355              		.syntax unified
 356              		.thumb
 357              		.thumb_func
 358              		.fpu fpv5-d16
 360              	arm_rfft_f32:
 361              	.LVL46:
 362              	.LFB145:
  92:./Libraries/CMSIS/DSP/Source/TransformFunctions/arm_rfft_f32.c ****   const arm_cfft_radix4_instance_f32 *S_CFFT = S->pCfft;
 363              		.loc 1 92 1 is_stmt 1 view -0
 364              		.cfi_startproc
 365              		@ args = 0, pretend = 0, frame = 8
 366              		@ frame_needed = 0, uses_anonymous_args = 0
  93:./Libraries/CMSIS/DSP/Source/TransformFunctions/arm_rfft_f32.c **** 
 367              		.loc 1 93 3 view .LVU136
  92:./Libraries/CMSIS/DSP/Source/TransformFunctions/arm_rfft_f32.c ****   const arm_cfft_radix4_instance_f32 *S_CFFT = S->pCfft;
 368              		.loc 1 92 1 is_stmt 0 view .LVU137
 369 0000 70B5     		push	{r4, r5, r6, lr}
 370              	.LCFI3:
 371              		.cfi_def_cfa_offset 16
 372              		.cfi_offset 4, -16
 373              		.cfi_offset 5, -12
 374              		.cfi_offset 6, -8
 375              		.cfi_offset 14, -4
 376 0002 0446     		mov	r4, r0
 377 0004 84B0     		sub	sp, sp, #16
 378              	.LCFI4:
 379              		.cfi_def_cfa_offset 32
  92:./Libraries/CMSIS/DSP/Source/TransformFunctions/arm_rfft_f32.c ****   const arm_cfft_radix4_instance_f32 *S_CFFT = S->pCfft;
 380              		.loc 1 92 1 view .LVU138
 381 0006 0846     		mov	r0, r1
 382              	.LVL47:
  92:./Libraries/CMSIS/DSP/Source/TransformFunctions/arm_rfft_f32.c ****   const arm_cfft_radix4_instance_f32 *S_CFFT = S->pCfft;
 383              		.loc 1 92 1 view .LVU139
 384 0008 1646     		mov	r6, r2
  96:./Libraries/CMSIS/DSP/Source/TransformFunctions/arm_rfft_f32.c ****   {
 385              		.loc 1 96 6 view .LVU140
 386 000a A379     		ldrb	r3, [r4, #6]	@ zero_extendqisi2
  93:./Libraries/CMSIS/DSP/Source/TransformFunctions/arm_rfft_f32.c **** 
 387              		.loc 1 93 39 view .LVU141
 388 000c 6569     		ldr	r5, [r4, #20]
 389              	.LVL48:
  96:./Libraries/CMSIS/DSP/Source/TransformFunctions/arm_rfft_f32.c ****   {
 390              		.loc 1 96 3 is_stmt 1 view .LVU142
  96:./Libraries/CMSIS/DSP/Source/TransformFunctions/arm_rfft_f32.c ****   {
 391              		.loc 1 96 6 is_stmt 0 view .LVU143
 392 000e 012B     		cmp	r3, #1
 393 0010 13D0     		beq	.L26
 116:./Libraries/CMSIS/DSP/Source/TransformFunctions/arm_rfft_f32.c **** 
 394              		.loc 1 116 5 is_stmt 1 view .LVU144
 395 0012 AB89     		ldrh	r3, [r5, #12]
 396 0014 0391     		str	r1, [sp, #12]
 397 0016 6A68     		ldr	r2, [r5, #4]
 398              	.LVL49:
 116:./Libraries/CMSIS/DSP/Source/TransformFunctions/arm_rfft_f32.c **** 
 399              		.loc 1 116 5 is_stmt 0 view .LVU145
 400 0018 2988     		ldrh	r1, [r5]
ARM GAS  /tmp/ccYiDUVu.s 			page 15


 401              	.LVL50:
 116:./Libraries/CMSIS/DSP/Source/TransformFunctions/arm_rfft_f32.c **** 
 402              		.loc 1 116 5 view .LVU146
 403 001a FFF7FEFF 		bl	arm_radix4_butterfly_f32
 404              	.LVL51:
 119:./Libraries/CMSIS/DSP/Source/TransformFunctions/arm_rfft_f32.c ****     {
 405              		.loc 1 119 5 is_stmt 1 view .LVU147
 119:./Libraries/CMSIS/DSP/Source/TransformFunctions/arm_rfft_f32.c ****     {
 406              		.loc 1 119 8 is_stmt 0 view .LVU148
 407 001e E379     		ldrb	r3, [r4, #7]	@ zero_extendqisi2
 408 0020 0398     		ldr	r0, [sp, #12]
 409 0022 012B     		cmp	r3, #1
 410 0024 25D0     		beq	.L27
 411              	.L24:
 125:./Libraries/CMSIS/DSP/Source/TransformFunctions/arm_rfft_f32.c ****   }
 412              		.loc 1 125 5 is_stmt 1 view .LVU149
 413 0026 A368     		ldr	r3, [r4, #8]
 414 0028 CDE90063 		strd	r6, r3, [sp]
 415 002c D4E90323 		ldrd	r2, r3, [r4, #12]
 416 0030 A188     		ldrh	r1, [r4, #4]
 417 0032 FFF7FEFF 		bl	arm_split_rfft_f32
 418              	.LVL52:
 419              	.L21:
 128:./Libraries/CMSIS/DSP/Source/TransformFunctions/arm_rfft_f32.c **** 
 420              		.loc 1 128 1 is_stmt 0 view .LVU150
 421 0036 04B0     		add	sp, sp, #16
 422              	.LCFI5:
 423              		.cfi_remember_state
 424              		.cfi_def_cfa_offset 16
 425              		@ sp needed
 426 0038 70BD     		pop	{r4, r5, r6, pc}
 427              	.LVL53:
 428              	.L26:
 429              	.LCFI6:
 430              		.cfi_restore_state
  99:./Libraries/CMSIS/DSP/Source/TransformFunctions/arm_rfft_f32.c **** 
 431              		.loc 1 99 6 is_stmt 1 view .LVU151
 432 003a A368     		ldr	r3, [r4, #8]
 433 003c CDE90023 		strd	r2, r3, [sp]
 434 0040 D4E90323 		ldrd	r2, r3, [r4, #12]
 435              	.LVL54:
  99:./Libraries/CMSIS/DSP/Source/TransformFunctions/arm_rfft_f32.c **** 
 436              		.loc 1 99 6 is_stmt 0 view .LVU152
 437 0044 A188     		ldrh	r1, [r4, #4]
 438 0046 FFF7FEFF 		bl	arm_split_rifft_f32
 439              	.LVL55:
 103:./Libraries/CMSIS/DSP/Source/TransformFunctions/arm_rfft_f32.c **** 
 440              		.loc 1 103 6 is_stmt 1 view .LVU153
 441 004a AB89     		ldrh	r3, [r5, #12]
 442 004c 95ED040A 		vldr.32	s0, [r5, #16]
 443 0050 3046     		mov	r0, r6
 444 0052 6A68     		ldr	r2, [r5, #4]
 445 0054 2988     		ldrh	r1, [r5]
 446 0056 FFF7FEFF 		bl	arm_radix4_butterfly_inverse_f32
 447              	.LVL56:
 106:./Libraries/CMSIS/DSP/Source/TransformFunctions/arm_rfft_f32.c ****     {
 448              		.loc 1 106 5 view .LVU154
ARM GAS  /tmp/ccYiDUVu.s 			page 16


 106:./Libraries/CMSIS/DSP/Source/TransformFunctions/arm_rfft_f32.c ****     {
 449              		.loc 1 106 8 is_stmt 0 view .LVU155
 450 005a E379     		ldrb	r3, [r4, #7]	@ zero_extendqisi2
 451 005c 012B     		cmp	r3, #1
 452 005e EAD1     		bne	.L21
 108:./Libraries/CMSIS/DSP/Source/TransformFunctions/arm_rfft_f32.c ****     }
 453              		.loc 1 108 7 is_stmt 1 view .LVU156
 454 0060 3046     		mov	r0, r6
 455 0062 AB68     		ldr	r3, [r5, #8]
 456 0064 EA89     		ldrh	r2, [r5, #14]
 457 0066 2988     		ldrh	r1, [r5]
 128:./Libraries/CMSIS/DSP/Source/TransformFunctions/arm_rfft_f32.c **** 
 458              		.loc 1 128 1 is_stmt 0 view .LVU157
 459 0068 04B0     		add	sp, sp, #16
 460              	.LCFI7:
 461              		.cfi_remember_state
 462              		.cfi_def_cfa_offset 16
 463              		@ sp needed
 464 006a BDE87040 		pop	{r4, r5, r6, lr}
 465              	.LCFI8:
 466              		.cfi_restore 14
 467              		.cfi_restore 6
 468              		.cfi_restore 5
 469              		.cfi_restore 4
 470              		.cfi_def_cfa_offset 0
 471              	.LVL57:
 108:./Libraries/CMSIS/DSP/Source/TransformFunctions/arm_rfft_f32.c ****     }
 472              		.loc 1 108 7 view .LVU158
 473 006e FFF7FEBF 		b	arm_bitreversal_f32
 474              	.LVL58:
 475              	.L27:
 476              	.LCFI9:
 477              		.cfi_restore_state
 121:./Libraries/CMSIS/DSP/Source/TransformFunctions/arm_rfft_f32.c ****     }
 478              		.loc 1 121 7 is_stmt 1 view .LVU159
 479 0072 AB68     		ldr	r3, [r5, #8]
 480 0074 EA89     		ldrh	r2, [r5, #14]
 481 0076 2988     		ldrh	r1, [r5]
 482 0078 FFF7FEFF 		bl	arm_bitreversal_f32
 483              	.LVL59:
 484 007c 0398     		ldr	r0, [sp, #12]
 485 007e D2E7     		b	.L24
 486              		.cfi_endproc
 487              	.LFE145:
 489              		.text
 490              	.Letext0:
 491              		.file 2 "/usr/lib/gcc/arm-none-eabi/9.2.1/include/stdint.h"
 492              		.file 3 "/usr/lib/gcc/arm-none-eabi/9.2.1/include/stddef.h"
 493              		.file 4 "/usr/include/newlib/sys/_types.h"
 494              		.file 5 "/usr/include/newlib/sys/reent.h"
 495              		.file 6 "/usr/include/newlib/sys/lock.h"
 496              		.file 7 "/usr/include/newlib/math.h"
 497              		.file 8 "./Libraries/CMSIS/DSP/Include/arm_math.h"
ARM GAS  /tmp/ccYiDUVu.s 			page 17

