ARM GAS  /tmp/ccW1DUwx.s 			page 1


   1              		.cpu cortex-m7
   2              		.eabi_attribute 28, 1
   3              		.eabi_attribute 20, 1
   4              		.eabi_attribute 21, 1
   5              		.eabi_attribute 23, 3
   6              		.eabi_attribute 24, 1
   7              		.eabi_attribute 25, 1
   8              		.eabi_attribute 26, 1
   9              		.eabi_attribute 30, 2
  10              		.eabi_attribute 34, 1
  11              		.eabi_attribute 18, 4
  12              		.file	"arm_cfft_radix2_init_q31.c"
  13              		.text
  14              	.Ltext0:
  15              		.cfi_sections	.debug_frame
  16              		.section	.text.arm_cfft_radix2_init_q31,"ax",%progbits
  17              		.align	1
  18              		.p2align 2,,3
  19              		.global	arm_cfft_radix2_init_q31
  20              		.arch armv7e-m
  21              		.syntax unified
  22              		.thumb
  23              		.thumb_func
  24              		.fpu fpv5-d16
  26              	arm_cfft_radix2_init_q31:
  27              	.LVL0:
  28              	.LFB145:
  29              		.file 1 "./Libraries/CMSIS/DSP/Source/TransformFunctions/arm_cfft_radix2_init_q31.c"
   1:./Libraries/CMSIS/DSP/Source/TransformFunctions/arm_cfft_radix2_init_q31.c **** /* ----------------------------------------------------------------------
   2:./Libraries/CMSIS/DSP/Source/TransformFunctions/arm_cfft_radix2_init_q31.c ****  * Project:      CMSIS DSP Library
   3:./Libraries/CMSIS/DSP/Source/TransformFunctions/arm_cfft_radix2_init_q31.c ****  * Title:        arm_cfft_radix2_init_q31.c
   4:./Libraries/CMSIS/DSP/Source/TransformFunctions/arm_cfft_radix2_init_q31.c ****  * Description:  Radix-2 Decimation in Frequency Fixed-point CFFT & CIFFT Initialization function
   5:./Libraries/CMSIS/DSP/Source/TransformFunctions/arm_cfft_radix2_init_q31.c ****  *
   6:./Libraries/CMSIS/DSP/Source/TransformFunctions/arm_cfft_radix2_init_q31.c ****  * $Date:        18. March 2019
   7:./Libraries/CMSIS/DSP/Source/TransformFunctions/arm_cfft_radix2_init_q31.c ****  * $Revision:    V1.6.0
   8:./Libraries/CMSIS/DSP/Source/TransformFunctions/arm_cfft_radix2_init_q31.c ****  *
   9:./Libraries/CMSIS/DSP/Source/TransformFunctions/arm_cfft_radix2_init_q31.c ****  * Target Processor: Cortex-M cores
  10:./Libraries/CMSIS/DSP/Source/TransformFunctions/arm_cfft_radix2_init_q31.c ****  * -------------------------------------------------------------------- */
  11:./Libraries/CMSIS/DSP/Source/TransformFunctions/arm_cfft_radix2_init_q31.c **** /*
  12:./Libraries/CMSIS/DSP/Source/TransformFunctions/arm_cfft_radix2_init_q31.c ****  * Copyright (C) 2010-2019 ARM Limited or its affiliates. All rights reserved.
  13:./Libraries/CMSIS/DSP/Source/TransformFunctions/arm_cfft_radix2_init_q31.c ****  *
  14:./Libraries/CMSIS/DSP/Source/TransformFunctions/arm_cfft_radix2_init_q31.c ****  * SPDX-License-Identifier: Apache-2.0
  15:./Libraries/CMSIS/DSP/Source/TransformFunctions/arm_cfft_radix2_init_q31.c ****  *
  16:./Libraries/CMSIS/DSP/Source/TransformFunctions/arm_cfft_radix2_init_q31.c ****  * Licensed under the Apache License, Version 2.0 (the License); you may
  17:./Libraries/CMSIS/DSP/Source/TransformFunctions/arm_cfft_radix2_init_q31.c ****  * not use this file except in compliance with the License.
  18:./Libraries/CMSIS/DSP/Source/TransformFunctions/arm_cfft_radix2_init_q31.c ****  * You may obtain a copy of the License at
  19:./Libraries/CMSIS/DSP/Source/TransformFunctions/arm_cfft_radix2_init_q31.c ****  *
  20:./Libraries/CMSIS/DSP/Source/TransformFunctions/arm_cfft_radix2_init_q31.c ****  * www.apache.org/licenses/LICENSE-2.0
  21:./Libraries/CMSIS/DSP/Source/TransformFunctions/arm_cfft_radix2_init_q31.c ****  *
  22:./Libraries/CMSIS/DSP/Source/TransformFunctions/arm_cfft_radix2_init_q31.c ****  * Unless required by applicable law or agreed to in writing, software
  23:./Libraries/CMSIS/DSP/Source/TransformFunctions/arm_cfft_radix2_init_q31.c ****  * distributed under the License is distributed on an AS IS BASIS, WITHOUT
  24:./Libraries/CMSIS/DSP/Source/TransformFunctions/arm_cfft_radix2_init_q31.c ****  * WARRANTIES OR CONDITIONS OF ANY KIND, either express or implied.
  25:./Libraries/CMSIS/DSP/Source/TransformFunctions/arm_cfft_radix2_init_q31.c ****  * See the License for the specific language governing permissions and
  26:./Libraries/CMSIS/DSP/Source/TransformFunctions/arm_cfft_radix2_init_q31.c ****  * limitations under the License.
  27:./Libraries/CMSIS/DSP/Source/TransformFunctions/arm_cfft_radix2_init_q31.c ****  */
  28:./Libraries/CMSIS/DSP/Source/TransformFunctions/arm_cfft_radix2_init_q31.c **** 
  29:./Libraries/CMSIS/DSP/Source/TransformFunctions/arm_cfft_radix2_init_q31.c **** #include "arm_math.h"
ARM GAS  /tmp/ccW1DUwx.s 			page 2


  30:./Libraries/CMSIS/DSP/Source/TransformFunctions/arm_cfft_radix2_init_q31.c **** #include "arm_common_tables.h"
  31:./Libraries/CMSIS/DSP/Source/TransformFunctions/arm_cfft_radix2_init_q31.c **** 
  32:./Libraries/CMSIS/DSP/Source/TransformFunctions/arm_cfft_radix2_init_q31.c **** /**
  33:./Libraries/CMSIS/DSP/Source/TransformFunctions/arm_cfft_radix2_init_q31.c ****   @ingroup groupTransforms
  34:./Libraries/CMSIS/DSP/Source/TransformFunctions/arm_cfft_radix2_init_q31.c ****  */
  35:./Libraries/CMSIS/DSP/Source/TransformFunctions/arm_cfft_radix2_init_q31.c **** 
  36:./Libraries/CMSIS/DSP/Source/TransformFunctions/arm_cfft_radix2_init_q31.c **** /**
  37:./Libraries/CMSIS/DSP/Source/TransformFunctions/arm_cfft_radix2_init_q31.c ****   @addtogroup ComplexFFT
  38:./Libraries/CMSIS/DSP/Source/TransformFunctions/arm_cfft_radix2_init_q31.c ****   @{
  39:./Libraries/CMSIS/DSP/Source/TransformFunctions/arm_cfft_radix2_init_q31.c ****  */
  40:./Libraries/CMSIS/DSP/Source/TransformFunctions/arm_cfft_radix2_init_q31.c **** 
  41:./Libraries/CMSIS/DSP/Source/TransformFunctions/arm_cfft_radix2_init_q31.c **** /**
  42:./Libraries/CMSIS/DSP/Source/TransformFunctions/arm_cfft_radix2_init_q31.c ****   @brief         Initialization function for the Q31 CFFT/CIFFT.
  43:./Libraries/CMSIS/DSP/Source/TransformFunctions/arm_cfft_radix2_init_q31.c ****   @deprecated    Do not use this function. It has been superseded by \ref arm_cfft_q31 and will be 
  44:./Libraries/CMSIS/DSP/Source/TransformFunctions/arm_cfft_radix2_init_q31.c ****   @param[in,out] S              points to an instance of the Q31 CFFT/CIFFT structure
  45:./Libraries/CMSIS/DSP/Source/TransformFunctions/arm_cfft_radix2_init_q31.c ****   @param[in]     fftLen         length of the FFT
  46:./Libraries/CMSIS/DSP/Source/TransformFunctions/arm_cfft_radix2_init_q31.c ****   @param[in]     ifftFlag       flag that selects transform direction
  47:./Libraries/CMSIS/DSP/Source/TransformFunctions/arm_cfft_radix2_init_q31.c ****                    - value = 0: forward transform
  48:./Libraries/CMSIS/DSP/Source/TransformFunctions/arm_cfft_radix2_init_q31.c ****                    - value = 1: inverse transform
  49:./Libraries/CMSIS/DSP/Source/TransformFunctions/arm_cfft_radix2_init_q31.c ****   @param[in]     bitReverseFlag flag that enables / disables bit reversal of output
  50:./Libraries/CMSIS/DSP/Source/TransformFunctions/arm_cfft_radix2_init_q31.c ****                    - value = 0: disables bit reversal of output
  51:./Libraries/CMSIS/DSP/Source/TransformFunctions/arm_cfft_radix2_init_q31.c ****                    - value = 1: enables bit reversal of output
  52:./Libraries/CMSIS/DSP/Source/TransformFunctions/arm_cfft_radix2_init_q31.c ****   @return        execution status
  53:./Libraries/CMSIS/DSP/Source/TransformFunctions/arm_cfft_radix2_init_q31.c ****                    - \ref ARM_MATH_SUCCESS        : Operation successful
  54:./Libraries/CMSIS/DSP/Source/TransformFunctions/arm_cfft_radix2_init_q31.c ****                    - \ref ARM_MATH_ARGUMENT_ERROR : <code>fftLen</code> is not a supported length
  55:./Libraries/CMSIS/DSP/Source/TransformFunctions/arm_cfft_radix2_init_q31.c **** 
  56:./Libraries/CMSIS/DSP/Source/TransformFunctions/arm_cfft_radix2_init_q31.c ****   @par           Details
  57:./Libraries/CMSIS/DSP/Source/TransformFunctions/arm_cfft_radix2_init_q31.c ****                    The parameter <code>ifftFlag</code> controls whether a forward or inverse transf
  58:./Libraries/CMSIS/DSP/Source/TransformFunctions/arm_cfft_radix2_init_q31.c ****                    Set(=1) ifftFlag for calculation of CIFFT otherwise CFFT is calculated
  59:./Libraries/CMSIS/DSP/Source/TransformFunctions/arm_cfft_radix2_init_q31.c ****   @par
  60:./Libraries/CMSIS/DSP/Source/TransformFunctions/arm_cfft_radix2_init_q31.c ****                    The parameter <code>bitReverseFlag</code> controls whether output is in normal o
  61:./Libraries/CMSIS/DSP/Source/TransformFunctions/arm_cfft_radix2_init_q31.c ****                    Set(=1) bitReverseFlag for output to be in normal order otherwise output is in b
  62:./Libraries/CMSIS/DSP/Source/TransformFunctions/arm_cfft_radix2_init_q31.c ****   @par
  63:./Libraries/CMSIS/DSP/Source/TransformFunctions/arm_cfft_radix2_init_q31.c ****                    The parameter <code>fftLen</code> Specifies length of CFFT/CIFFT process. Suppor
  64:./Libraries/CMSIS/DSP/Source/TransformFunctions/arm_cfft_radix2_init_q31.c ****   @par
  65:./Libraries/CMSIS/DSP/Source/TransformFunctions/arm_cfft_radix2_init_q31.c ****                    This Function also initializes Twiddle factor table pointer and Bit reversal tab
  66:./Libraries/CMSIS/DSP/Source/TransformFunctions/arm_cfft_radix2_init_q31.c **** */
  67:./Libraries/CMSIS/DSP/Source/TransformFunctions/arm_cfft_radix2_init_q31.c **** 
  68:./Libraries/CMSIS/DSP/Source/TransformFunctions/arm_cfft_radix2_init_q31.c **** arm_status arm_cfft_radix2_init_q31(
  69:./Libraries/CMSIS/DSP/Source/TransformFunctions/arm_cfft_radix2_init_q31.c ****   arm_cfft_radix2_instance_q31 * S,
  70:./Libraries/CMSIS/DSP/Source/TransformFunctions/arm_cfft_radix2_init_q31.c ****   uint16_t fftLen,
  71:./Libraries/CMSIS/DSP/Source/TransformFunctions/arm_cfft_radix2_init_q31.c ****   uint8_t ifftFlag,
  72:./Libraries/CMSIS/DSP/Source/TransformFunctions/arm_cfft_radix2_init_q31.c ****   uint8_t bitReverseFlag)
  73:./Libraries/CMSIS/DSP/Source/TransformFunctions/arm_cfft_radix2_init_q31.c **** {
  30              		.loc 1 73 1 view -0
  31              		.cfi_startproc
  32              		@ args = 0, pretend = 0, frame = 0
  33              		@ frame_needed = 0, uses_anonymous_args = 0
  34              		@ link register save eliminated.
  74:./Libraries/CMSIS/DSP/Source/TransformFunctions/arm_cfft_radix2_init_q31.c ****   /*  Initialise the default arm status */
  75:./Libraries/CMSIS/DSP/Source/TransformFunctions/arm_cfft_radix2_init_q31.c ****   arm_status status = ARM_MATH_SUCCESS;
  35              		.loc 1 75 3 view .LVU1
  76:./Libraries/CMSIS/DSP/Source/TransformFunctions/arm_cfft_radix2_init_q31.c **** 
  77:./Libraries/CMSIS/DSP/Source/TransformFunctions/arm_cfft_radix2_init_q31.c ****   /*  Initialise the FFT length */
  78:./Libraries/CMSIS/DSP/Source/TransformFunctions/arm_cfft_radix2_init_q31.c ****   S->fftLen = fftLen;
  36              		.loc 1 78 3 view .LVU2
  73:./Libraries/CMSIS/DSP/Source/TransformFunctions/arm_cfft_radix2_init_q31.c ****   /*  Initialise the default arm status */
ARM GAS  /tmp/ccW1DUwx.s 			page 3


  37              		.loc 1 73 1 is_stmt 0 view .LVU3
  38 0000 10B4     		push	{r4}
  39              	.LCFI0:
  40              		.cfi_def_cfa_offset 4
  41              		.cfi_offset 4, -4
  79:./Libraries/CMSIS/DSP/Source/TransformFunctions/arm_cfft_radix2_init_q31.c **** 
  80:./Libraries/CMSIS/DSP/Source/TransformFunctions/arm_cfft_radix2_init_q31.c ****   /*  Initialise the Twiddle coefficient pointer */
  81:./Libraries/CMSIS/DSP/Source/TransformFunctions/arm_cfft_radix2_init_q31.c ****   S->pTwiddle = (q31_t *) twiddleCoef_4096_q31;
  82:./Libraries/CMSIS/DSP/Source/TransformFunctions/arm_cfft_radix2_init_q31.c **** 
  83:./Libraries/CMSIS/DSP/Source/TransformFunctions/arm_cfft_radix2_init_q31.c ****   /*  Initialise the Flag for selection of CFFT or CIFFT */
  84:./Libraries/CMSIS/DSP/Source/TransformFunctions/arm_cfft_radix2_init_q31.c ****   S->ifftFlag = ifftFlag;
  85:./Libraries/CMSIS/DSP/Source/TransformFunctions/arm_cfft_radix2_init_q31.c **** 
  86:./Libraries/CMSIS/DSP/Source/TransformFunctions/arm_cfft_radix2_init_q31.c ****   /*  Initialise the Flag for calculation Bit reversal or not */
  87:./Libraries/CMSIS/DSP/Source/TransformFunctions/arm_cfft_radix2_init_q31.c ****   S->bitReverseFlag = bitReverseFlag;
  88:./Libraries/CMSIS/DSP/Source/TransformFunctions/arm_cfft_radix2_init_q31.c **** 
  89:./Libraries/CMSIS/DSP/Source/TransformFunctions/arm_cfft_radix2_init_q31.c ****   /*  Initializations of Instance structure depending on the FFT length */
  90:./Libraries/CMSIS/DSP/Source/TransformFunctions/arm_cfft_radix2_init_q31.c ****   switch (S->fftLen)
  42              		.loc 1 90 3 view .LVU4
  43 0002 B1F5807F 		cmp	r1, #256
  81:./Libraries/CMSIS/DSP/Source/TransformFunctions/arm_cfft_radix2_init_q31.c **** 
  44              		.loc 1 81 15 view .LVU5
  45 0006 3B4C     		ldr	r4, .L20
  78:./Libraries/CMSIS/DSP/Source/TransformFunctions/arm_cfft_radix2_init_q31.c **** 
  46              		.loc 1 78 13 view .LVU6
  47 0008 0180     		strh	r1, [r0]	@ movhi
  81:./Libraries/CMSIS/DSP/Source/TransformFunctions/arm_cfft_radix2_init_q31.c **** 
  48              		.loc 1 81 3 is_stmt 1 view .LVU7
  84:./Libraries/CMSIS/DSP/Source/TransformFunctions/arm_cfft_radix2_init_q31.c **** 
  49              		.loc 1 84 15 is_stmt 0 view .LVU8
  50 000a 8270     		strb	r2, [r0, #2]
  87:./Libraries/CMSIS/DSP/Source/TransformFunctions/arm_cfft_radix2_init_q31.c **** 
  51              		.loc 1 87 21 view .LVU9
  52 000c C370     		strb	r3, [r0, #3]
  81:./Libraries/CMSIS/DSP/Source/TransformFunctions/arm_cfft_radix2_init_q31.c **** 
  53              		.loc 1 81 15 view .LVU10
  54 000e 4460     		str	r4, [r0, #4]
  84:./Libraries/CMSIS/DSP/Source/TransformFunctions/arm_cfft_radix2_init_q31.c **** 
  55              		.loc 1 84 3 is_stmt 1 view .LVU11
  87:./Libraries/CMSIS/DSP/Source/TransformFunctions/arm_cfft_radix2_init_q31.c **** 
  56              		.loc 1 87 3 view .LVU12
  57              		.loc 1 90 3 view .LVU13
  58 0010 69D0     		beq	.L2
  59 0012 20D9     		bls	.L17
  60 0014 B1F5006F 		cmp	r1, #2048
  61 0018 40D0     		beq	.L10
  62 001a 0CD9     		bls	.L18
  63 001c B1F5805F 		cmp	r1, #4096
  64 0020 36D1     		bne	.L14
  91:./Libraries/CMSIS/DSP/Source/TransformFunctions/arm_cfft_radix2_init_q31.c ****   {
  92:./Libraries/CMSIS/DSP/Source/TransformFunctions/arm_cfft_radix2_init_q31.c ****     /*  Initializations of structure parameters for 4096 point FFT */
  93:./Libraries/CMSIS/DSP/Source/TransformFunctions/arm_cfft_radix2_init_q31.c ****   case 4096U:
  94:./Libraries/CMSIS/DSP/Source/TransformFunctions/arm_cfft_radix2_init_q31.c ****     /*  Initialise the twiddle coef modifier value */
  95:./Libraries/CMSIS/DSP/Source/TransformFunctions/arm_cfft_radix2_init_q31.c ****     S->twidCoefModifier = 1U;
  65              		.loc 1 95 5 view .LVU14
  96:./Libraries/CMSIS/DSP/Source/TransformFunctions/arm_cfft_radix2_init_q31.c ****     /*  Initialise the bit reversal table modifier */
  97:./Libraries/CMSIS/DSP/Source/TransformFunctions/arm_cfft_radix2_init_q31.c ****     S->bitRevFactor = 1U;
  66              		.loc 1 97 5 view .LVU15
ARM GAS  /tmp/ccW1DUwx.s 			page 4


  95:./Libraries/CMSIS/DSP/Source/TransformFunctions/arm_cfft_radix2_init_q31.c ****     /*  Initialise the bit reversal table modifier */
  67              		.loc 1 95 25 is_stmt 0 view .LVU16
  68 0022 4FF00111 		mov	r1, #65537
  69              	.LVL1:
  98:./Libraries/CMSIS/DSP/Source/TransformFunctions/arm_cfft_radix2_init_q31.c ****     /*  Initialise the bit reversal table pointer */
  99:./Libraries/CMSIS/DSP/Source/TransformFunctions/arm_cfft_radix2_init_q31.c ****     S->pBitRevTable = (uint16_t *) armBitRevTable;
  70              		.loc 1 99 21 view .LVU17
  71 0026 344A     		ldr	r2, .L20+4
  72              	.LVL2:
  75:./Libraries/CMSIS/DSP/Source/TransformFunctions/arm_cfft_radix2_init_q31.c **** 
  73              		.loc 1 75 14 view .LVU18
  74 0028 0023     		movs	r3, #0
  75              	.LVL3:
  76              		.loc 1 99 21 view .LVU19
  77 002a C0E90221 		strd	r2, r1, [r0, #8]
 100:./Libraries/CMSIS/DSP/Source/TransformFunctions/arm_cfft_radix2_init_q31.c ****     break;
  78              		.loc 1 100 5 is_stmt 1 view .LVU20
  79              	.L8:
  80              	.LVL4:
 101:./Libraries/CMSIS/DSP/Source/TransformFunctions/arm_cfft_radix2_init_q31.c **** 
 102:./Libraries/CMSIS/DSP/Source/TransformFunctions/arm_cfft_radix2_init_q31.c ****     /*  Initializations of structure parameters for 2048 point FFT */
 103:./Libraries/CMSIS/DSP/Source/TransformFunctions/arm_cfft_radix2_init_q31.c ****   case 2048U:
 104:./Libraries/CMSIS/DSP/Source/TransformFunctions/arm_cfft_radix2_init_q31.c ****     /*  Initialise the twiddle coef modifier value */
 105:./Libraries/CMSIS/DSP/Source/TransformFunctions/arm_cfft_radix2_init_q31.c ****     S->twidCoefModifier = 2U;
 106:./Libraries/CMSIS/DSP/Source/TransformFunctions/arm_cfft_radix2_init_q31.c ****     /*  Initialise the bit reversal table modifier */
 107:./Libraries/CMSIS/DSP/Source/TransformFunctions/arm_cfft_radix2_init_q31.c ****     S->bitRevFactor = 2U;
 108:./Libraries/CMSIS/DSP/Source/TransformFunctions/arm_cfft_radix2_init_q31.c ****     /*  Initialise the bit reversal table pointer */
 109:./Libraries/CMSIS/DSP/Source/TransformFunctions/arm_cfft_radix2_init_q31.c ****     S->pBitRevTable = (uint16_t *) & armBitRevTable[1];
 110:./Libraries/CMSIS/DSP/Source/TransformFunctions/arm_cfft_radix2_init_q31.c ****     break;
 111:./Libraries/CMSIS/DSP/Source/TransformFunctions/arm_cfft_radix2_init_q31.c **** 
 112:./Libraries/CMSIS/DSP/Source/TransformFunctions/arm_cfft_radix2_init_q31.c ****     /*  Initializations of structure parameters for 1024 point FFT */
 113:./Libraries/CMSIS/DSP/Source/TransformFunctions/arm_cfft_radix2_init_q31.c ****   case 1024U:
 114:./Libraries/CMSIS/DSP/Source/TransformFunctions/arm_cfft_radix2_init_q31.c ****     /*  Initialise the twiddle coef modifier value */
 115:./Libraries/CMSIS/DSP/Source/TransformFunctions/arm_cfft_radix2_init_q31.c ****     S->twidCoefModifier = 4U;
 116:./Libraries/CMSIS/DSP/Source/TransformFunctions/arm_cfft_radix2_init_q31.c ****     /*  Initialise the bit reversal table modifier */
 117:./Libraries/CMSIS/DSP/Source/TransformFunctions/arm_cfft_radix2_init_q31.c ****     S->bitRevFactor = 4U;
 118:./Libraries/CMSIS/DSP/Source/TransformFunctions/arm_cfft_radix2_init_q31.c ****     /*  Initialise the bit reversal table pointer */
 119:./Libraries/CMSIS/DSP/Source/TransformFunctions/arm_cfft_radix2_init_q31.c ****     S->pBitRevTable = (uint16_t *) & armBitRevTable[3];
 120:./Libraries/CMSIS/DSP/Source/TransformFunctions/arm_cfft_radix2_init_q31.c ****     break;
 121:./Libraries/CMSIS/DSP/Source/TransformFunctions/arm_cfft_radix2_init_q31.c **** 
 122:./Libraries/CMSIS/DSP/Source/TransformFunctions/arm_cfft_radix2_init_q31.c ****     /*  Initializations of structure parameters for 512 point FFT */
 123:./Libraries/CMSIS/DSP/Source/TransformFunctions/arm_cfft_radix2_init_q31.c ****   case 512U:
 124:./Libraries/CMSIS/DSP/Source/TransformFunctions/arm_cfft_radix2_init_q31.c ****     /*  Initialise the twiddle coef modifier value */
 125:./Libraries/CMSIS/DSP/Source/TransformFunctions/arm_cfft_radix2_init_q31.c ****     S->twidCoefModifier = 8U;
 126:./Libraries/CMSIS/DSP/Source/TransformFunctions/arm_cfft_radix2_init_q31.c ****     /*  Initialise the bit reversal table modifier */
 127:./Libraries/CMSIS/DSP/Source/TransformFunctions/arm_cfft_radix2_init_q31.c ****     S->bitRevFactor = 8U;
 128:./Libraries/CMSIS/DSP/Source/TransformFunctions/arm_cfft_radix2_init_q31.c ****     /*  Initialise the bit reversal table pointer */
 129:./Libraries/CMSIS/DSP/Source/TransformFunctions/arm_cfft_radix2_init_q31.c ****     S->pBitRevTable = (uint16_t *) & armBitRevTable[7];
 130:./Libraries/CMSIS/DSP/Source/TransformFunctions/arm_cfft_radix2_init_q31.c ****     break;
 131:./Libraries/CMSIS/DSP/Source/TransformFunctions/arm_cfft_radix2_init_q31.c **** 
 132:./Libraries/CMSIS/DSP/Source/TransformFunctions/arm_cfft_radix2_init_q31.c ****   case 256U:
 133:./Libraries/CMSIS/DSP/Source/TransformFunctions/arm_cfft_radix2_init_q31.c ****     /*  Initializations of structure parameters for 256 point FFT */
 134:./Libraries/CMSIS/DSP/Source/TransformFunctions/arm_cfft_radix2_init_q31.c ****     S->twidCoefModifier = 16U;
 135:./Libraries/CMSIS/DSP/Source/TransformFunctions/arm_cfft_radix2_init_q31.c ****     S->bitRevFactor = 16U;
 136:./Libraries/CMSIS/DSP/Source/TransformFunctions/arm_cfft_radix2_init_q31.c ****     S->pBitRevTable = (uint16_t *) & armBitRevTable[15];
 137:./Libraries/CMSIS/DSP/Source/TransformFunctions/arm_cfft_radix2_init_q31.c ****     break;
 138:./Libraries/CMSIS/DSP/Source/TransformFunctions/arm_cfft_radix2_init_q31.c **** 
ARM GAS  /tmp/ccW1DUwx.s 			page 5


 139:./Libraries/CMSIS/DSP/Source/TransformFunctions/arm_cfft_radix2_init_q31.c ****   case 128U:
 140:./Libraries/CMSIS/DSP/Source/TransformFunctions/arm_cfft_radix2_init_q31.c ****     /*  Initializations of structure parameters for 128 point FFT */
 141:./Libraries/CMSIS/DSP/Source/TransformFunctions/arm_cfft_radix2_init_q31.c ****     S->twidCoefModifier = 32U;
 142:./Libraries/CMSIS/DSP/Source/TransformFunctions/arm_cfft_radix2_init_q31.c ****     S->bitRevFactor = 32U;
 143:./Libraries/CMSIS/DSP/Source/TransformFunctions/arm_cfft_radix2_init_q31.c ****     S->pBitRevTable = (uint16_t *) & armBitRevTable[31];
 144:./Libraries/CMSIS/DSP/Source/TransformFunctions/arm_cfft_radix2_init_q31.c ****     break;
 145:./Libraries/CMSIS/DSP/Source/TransformFunctions/arm_cfft_radix2_init_q31.c **** 
 146:./Libraries/CMSIS/DSP/Source/TransformFunctions/arm_cfft_radix2_init_q31.c ****   case 64U:
 147:./Libraries/CMSIS/DSP/Source/TransformFunctions/arm_cfft_radix2_init_q31.c ****     /*  Initializations of structure parameters for 64 point FFT */
 148:./Libraries/CMSIS/DSP/Source/TransformFunctions/arm_cfft_radix2_init_q31.c ****     S->twidCoefModifier = 64U;
 149:./Libraries/CMSIS/DSP/Source/TransformFunctions/arm_cfft_radix2_init_q31.c ****     S->bitRevFactor = 64U;
 150:./Libraries/CMSIS/DSP/Source/TransformFunctions/arm_cfft_radix2_init_q31.c ****     S->pBitRevTable = (uint16_t *) & armBitRevTable[63];
 151:./Libraries/CMSIS/DSP/Source/TransformFunctions/arm_cfft_radix2_init_q31.c ****     break;
 152:./Libraries/CMSIS/DSP/Source/TransformFunctions/arm_cfft_radix2_init_q31.c **** 
 153:./Libraries/CMSIS/DSP/Source/TransformFunctions/arm_cfft_radix2_init_q31.c ****   case 32U:
 154:./Libraries/CMSIS/DSP/Source/TransformFunctions/arm_cfft_radix2_init_q31.c ****     /*  Initializations of structure parameters for 32 point FFT */
 155:./Libraries/CMSIS/DSP/Source/TransformFunctions/arm_cfft_radix2_init_q31.c ****     S->twidCoefModifier = 128U;
 156:./Libraries/CMSIS/DSP/Source/TransformFunctions/arm_cfft_radix2_init_q31.c ****     S->bitRevFactor = 128U;
 157:./Libraries/CMSIS/DSP/Source/TransformFunctions/arm_cfft_radix2_init_q31.c ****     S->pBitRevTable = (uint16_t *) & armBitRevTable[127];
 158:./Libraries/CMSIS/DSP/Source/TransformFunctions/arm_cfft_radix2_init_q31.c ****     break;
 159:./Libraries/CMSIS/DSP/Source/TransformFunctions/arm_cfft_radix2_init_q31.c **** 
 160:./Libraries/CMSIS/DSP/Source/TransformFunctions/arm_cfft_radix2_init_q31.c ****   case 16U:
 161:./Libraries/CMSIS/DSP/Source/TransformFunctions/arm_cfft_radix2_init_q31.c ****     /*  Initializations of structure parameters for 16 point FFT */
 162:./Libraries/CMSIS/DSP/Source/TransformFunctions/arm_cfft_radix2_init_q31.c ****     S->twidCoefModifier = 256U;
 163:./Libraries/CMSIS/DSP/Source/TransformFunctions/arm_cfft_radix2_init_q31.c ****     S->bitRevFactor = 256U;
 164:./Libraries/CMSIS/DSP/Source/TransformFunctions/arm_cfft_radix2_init_q31.c ****     S->pBitRevTable = (uint16_t *) & armBitRevTable[255];
 165:./Libraries/CMSIS/DSP/Source/TransformFunctions/arm_cfft_radix2_init_q31.c ****     break;
 166:./Libraries/CMSIS/DSP/Source/TransformFunctions/arm_cfft_radix2_init_q31.c **** 
 167:./Libraries/CMSIS/DSP/Source/TransformFunctions/arm_cfft_radix2_init_q31.c **** 
 168:./Libraries/CMSIS/DSP/Source/TransformFunctions/arm_cfft_radix2_init_q31.c ****   default:
 169:./Libraries/CMSIS/DSP/Source/TransformFunctions/arm_cfft_radix2_init_q31.c ****     /*  Reporting argument error if fftSize is not valid value */
 170:./Libraries/CMSIS/DSP/Source/TransformFunctions/arm_cfft_radix2_init_q31.c ****     status = ARM_MATH_ARGUMENT_ERROR;
 171:./Libraries/CMSIS/DSP/Source/TransformFunctions/arm_cfft_radix2_init_q31.c ****     break;
 172:./Libraries/CMSIS/DSP/Source/TransformFunctions/arm_cfft_radix2_init_q31.c ****   }
 173:./Libraries/CMSIS/DSP/Source/TransformFunctions/arm_cfft_radix2_init_q31.c **** 
 174:./Libraries/CMSIS/DSP/Source/TransformFunctions/arm_cfft_radix2_init_q31.c ****   return (status);
  81              		.loc 1 174 3 view .LVU21
 175:./Libraries/CMSIS/DSP/Source/TransformFunctions/arm_cfft_radix2_init_q31.c **** }
  82              		.loc 1 175 1 is_stmt 0 view .LVU22
  83 002e 1846     		mov	r0, r3
  84              	.LVL5:
  85              		.loc 1 175 1 view .LVU23
  86 0030 5DF8044B 		ldr	r4, [sp], #4
  87              	.LCFI1:
  88              		.cfi_remember_state
  89              		.cfi_restore 4
  90              		.cfi_def_cfa_offset 0
  91 0034 7047     		bx	lr
  92              	.LVL6:
  93              	.L18:
  94              	.LCFI2:
  95              		.cfi_restore_state
  90:./Libraries/CMSIS/DSP/Source/TransformFunctions/arm_cfft_radix2_init_q31.c ****   {
  96              		.loc 1 90 3 view .LVU24
  97 0036 B1F5007F 		cmp	r1, #512
  98 003a 39D0     		beq	.L12
  99 003c B1F5806F 		cmp	r1, #1024
ARM GAS  /tmp/ccW1DUwx.s 			page 6


 100 0040 26D1     		bne	.L14
 115:./Libraries/CMSIS/DSP/Source/TransformFunctions/arm_cfft_radix2_init_q31.c ****     /*  Initialise the bit reversal table modifier */
 101              		.loc 1 115 5 is_stmt 1 view .LVU25
 117:./Libraries/CMSIS/DSP/Source/TransformFunctions/arm_cfft_radix2_init_q31.c ****     /*  Initialise the bit reversal table pointer */
 102              		.loc 1 117 5 view .LVU26
 115:./Libraries/CMSIS/DSP/Source/TransformFunctions/arm_cfft_radix2_init_q31.c ****     /*  Initialise the bit reversal table modifier */
 103              		.loc 1 115 25 is_stmt 0 view .LVU27
 104 0042 4FF00411 		mov	r1, #262148
 105              	.LVL7:
 119:./Libraries/CMSIS/DSP/Source/TransformFunctions/arm_cfft_radix2_init_q31.c ****     break;
 106              		.loc 1 119 21 view .LVU28
 107 0046 2D4A     		ldr	r2, .L20+8
 108              	.LVL8:
  75:./Libraries/CMSIS/DSP/Source/TransformFunctions/arm_cfft_radix2_init_q31.c **** 
 109              		.loc 1 75 14 view .LVU29
 110 0048 0023     		movs	r3, #0
 111              	.LVL9:
 112              		.loc 1 175 1 view .LVU30
 113 004a 5DF8044B 		ldr	r4, [sp], #4
 114              	.LCFI3:
 115              		.cfi_remember_state
 116              		.cfi_restore 4
 117              		.cfi_def_cfa_offset 0
 119:./Libraries/CMSIS/DSP/Source/TransformFunctions/arm_cfft_radix2_init_q31.c ****     break;
 118              		.loc 1 119 21 view .LVU31
 119 004e C0E90221 		strd	r2, r1, [r0, #8]
 120:./Libraries/CMSIS/DSP/Source/TransformFunctions/arm_cfft_radix2_init_q31.c **** 
 120              		.loc 1 120 5 is_stmt 1 view .LVU32
 121              	.LVL10:
 174:./Libraries/CMSIS/DSP/Source/TransformFunctions/arm_cfft_radix2_init_q31.c **** }
 122              		.loc 1 174 3 view .LVU33
 123              		.loc 1 175 1 is_stmt 0 view .LVU34
 124 0052 1846     		mov	r0, r3
 125              	.LVL11:
 126              		.loc 1 175 1 view .LVU35
 127 0054 7047     		bx	lr
 128              	.LVL12:
 129              	.L17:
 130              	.LCFI4:
 131              		.cfi_restore_state
  90:./Libraries/CMSIS/DSP/Source/TransformFunctions/arm_cfft_radix2_init_q31.c ****   {
 132              		.loc 1 90 3 view .LVU36
 133 0056 4029     		cmp	r1, #64
 134 0058 34D0     		beq	.L4
 135 005a 0BD9     		bls	.L19
 136 005c 8029     		cmp	r1, #128
 137 005e 17D1     		bne	.L14
 141:./Libraries/CMSIS/DSP/Source/TransformFunctions/arm_cfft_radix2_init_q31.c ****     S->bitRevFactor = 32U;
 138              		.loc 1 141 5 is_stmt 1 view .LVU37
 142:./Libraries/CMSIS/DSP/Source/TransformFunctions/arm_cfft_radix2_init_q31.c ****     S->pBitRevTable = (uint16_t *) & armBitRevTable[31];
 139              		.loc 1 142 5 view .LVU38
 141:./Libraries/CMSIS/DSP/Source/TransformFunctions/arm_cfft_radix2_init_q31.c ****     S->bitRevFactor = 32U;
 140              		.loc 1 141 25 is_stmt 0 view .LVU39
 141 0060 4FF02011 		mov	r1, #2097184
 142              	.LVL13:
 143:./Libraries/CMSIS/DSP/Source/TransformFunctions/arm_cfft_radix2_init_q31.c ****     break;
 143              		.loc 1 143 21 view .LVU40
ARM GAS  /tmp/ccW1DUwx.s 			page 7


 144 0064 264A     		ldr	r2, .L20+12
 145              	.LVL14:
  75:./Libraries/CMSIS/DSP/Source/TransformFunctions/arm_cfft_radix2_init_q31.c **** 
 146              		.loc 1 75 14 view .LVU41
 147 0066 0023     		movs	r3, #0
 148              	.LVL15:
 149              		.loc 1 175 1 view .LVU42
 150 0068 5DF8044B 		ldr	r4, [sp], #4
 151              	.LCFI5:
 152              		.cfi_remember_state
 153              		.cfi_restore 4
 154              		.cfi_def_cfa_offset 0
 143:./Libraries/CMSIS/DSP/Source/TransformFunctions/arm_cfft_radix2_init_q31.c ****     break;
 155              		.loc 1 143 21 view .LVU43
 156 006c C0E90221 		strd	r2, r1, [r0, #8]
 144:./Libraries/CMSIS/DSP/Source/TransformFunctions/arm_cfft_radix2_init_q31.c **** 
 157              		.loc 1 144 5 is_stmt 1 view .LVU44
 158              	.LVL16:
 174:./Libraries/CMSIS/DSP/Source/TransformFunctions/arm_cfft_radix2_init_q31.c **** }
 159              		.loc 1 174 3 view .LVU45
 160              		.loc 1 175 1 is_stmt 0 view .LVU46
 161 0070 1846     		mov	r0, r3
 162              	.LVL17:
 163              		.loc 1 175 1 view .LVU47
 164 0072 7047     		bx	lr
 165              	.LVL18:
 166              	.L19:
 167              	.LCFI6:
 168              		.cfi_restore_state
  90:./Libraries/CMSIS/DSP/Source/TransformFunctions/arm_cfft_radix2_init_q31.c ****   {
 169              		.loc 1 90 3 view .LVU48
 170 0074 1029     		cmp	r1, #16
 171 0076 2FD0     		beq	.L6
 172 0078 2029     		cmp	r1, #32
 173 007a 09D1     		bne	.L14
 155:./Libraries/CMSIS/DSP/Source/TransformFunctions/arm_cfft_radix2_init_q31.c ****     S->bitRevFactor = 128U;
 174              		.loc 1 155 5 is_stmt 1 view .LVU49
 156:./Libraries/CMSIS/DSP/Source/TransformFunctions/arm_cfft_radix2_init_q31.c ****     S->pBitRevTable = (uint16_t *) & armBitRevTable[127];
 175              		.loc 1 156 5 view .LVU50
 155:./Libraries/CMSIS/DSP/Source/TransformFunctions/arm_cfft_radix2_init_q31.c ****     S->bitRevFactor = 128U;
 176              		.loc 1 155 25 is_stmt 0 view .LVU51
 177 007c 4FF08011 		mov	r1, #8388736
 178              	.LVL19:
 157:./Libraries/CMSIS/DSP/Source/TransformFunctions/arm_cfft_radix2_init_q31.c ****     break;
 179              		.loc 1 157 21 view .LVU52
 180 0080 204A     		ldr	r2, .L20+16
 181              	.LVL20:
  75:./Libraries/CMSIS/DSP/Source/TransformFunctions/arm_cfft_radix2_init_q31.c **** 
 182              		.loc 1 75 14 view .LVU53
 183 0082 0023     		movs	r3, #0
 184              	.LVL21:
 185              		.loc 1 175 1 view .LVU54
 186 0084 5DF8044B 		ldr	r4, [sp], #4
 187              	.LCFI7:
 188              		.cfi_remember_state
 189              		.cfi_restore 4
 190              		.cfi_def_cfa_offset 0
ARM GAS  /tmp/ccW1DUwx.s 			page 8


 157:./Libraries/CMSIS/DSP/Source/TransformFunctions/arm_cfft_radix2_init_q31.c ****     break;
 191              		.loc 1 157 21 view .LVU55
 192 0088 C0E90221 		strd	r2, r1, [r0, #8]
 158:./Libraries/CMSIS/DSP/Source/TransformFunctions/arm_cfft_radix2_init_q31.c **** 
 193              		.loc 1 158 5 is_stmt 1 view .LVU56
 194              	.LVL22:
 174:./Libraries/CMSIS/DSP/Source/TransformFunctions/arm_cfft_radix2_init_q31.c **** }
 195              		.loc 1 174 3 view .LVU57
 196              		.loc 1 175 1 is_stmt 0 view .LVU58
 197 008c 1846     		mov	r0, r3
 198              	.LVL23:
 199              		.loc 1 175 1 view .LVU59
 200 008e 7047     		bx	lr
 201              	.LVL24:
 202              	.L14:
 203              	.LCFI8:
 204              		.cfi_restore_state
  90:./Libraries/CMSIS/DSP/Source/TransformFunctions/arm_cfft_radix2_init_q31.c ****   {
 205              		.loc 1 90 3 view .LVU60
 206 0090 4FF0FF33 		mov	r3, #-1
 207              	.LVL25:
 174:./Libraries/CMSIS/DSP/Source/TransformFunctions/arm_cfft_radix2_init_q31.c **** }
 208              		.loc 1 174 3 is_stmt 1 view .LVU61
 209              		.loc 1 175 1 is_stmt 0 view .LVU62
 210 0094 5DF8044B 		ldr	r4, [sp], #4
 211              	.LCFI9:
 212              		.cfi_remember_state
 213              		.cfi_restore 4
 214              		.cfi_def_cfa_offset 0
 215 0098 1846     		mov	r0, r3
 216              	.LVL26:
 217              		.loc 1 175 1 view .LVU63
 218 009a 7047     		bx	lr
 219              	.LVL27:
 220              	.L10:
 221              	.LCFI10:
 222              		.cfi_restore_state
 105:./Libraries/CMSIS/DSP/Source/TransformFunctions/arm_cfft_radix2_init_q31.c ****     /*  Initialise the bit reversal table modifier */
 223              		.loc 1 105 5 is_stmt 1 view .LVU64
 107:./Libraries/CMSIS/DSP/Source/TransformFunctions/arm_cfft_radix2_init_q31.c ****     /*  Initialise the bit reversal table pointer */
 224              		.loc 1 107 5 view .LVU65
 105:./Libraries/CMSIS/DSP/Source/TransformFunctions/arm_cfft_radix2_init_q31.c ****     /*  Initialise the bit reversal table modifier */
 225              		.loc 1 105 25 is_stmt 0 view .LVU66
 226 009c 4FF00211 		mov	r1, #131074
 227              	.LVL28:
 109:./Libraries/CMSIS/DSP/Source/TransformFunctions/arm_cfft_radix2_init_q31.c ****     break;
 228              		.loc 1 109 21 view .LVU67
 229 00a0 194A     		ldr	r2, .L20+20
 230              	.LVL29:
  75:./Libraries/CMSIS/DSP/Source/TransformFunctions/arm_cfft_radix2_init_q31.c **** 
 231              		.loc 1 75 14 view .LVU68
 232 00a2 0023     		movs	r3, #0
 233              	.LVL30:
 234              		.loc 1 175 1 view .LVU69
 235 00a4 5DF8044B 		ldr	r4, [sp], #4
 236              	.LCFI11:
 237              		.cfi_remember_state
ARM GAS  /tmp/ccW1DUwx.s 			page 9


 238              		.cfi_restore 4
 239              		.cfi_def_cfa_offset 0
 109:./Libraries/CMSIS/DSP/Source/TransformFunctions/arm_cfft_radix2_init_q31.c ****     break;
 240              		.loc 1 109 21 view .LVU70
 241 00a8 C0E90221 		strd	r2, r1, [r0, #8]
 110:./Libraries/CMSIS/DSP/Source/TransformFunctions/arm_cfft_radix2_init_q31.c **** 
 242              		.loc 1 110 5 is_stmt 1 view .LVU71
 243              	.LVL31:
 174:./Libraries/CMSIS/DSP/Source/TransformFunctions/arm_cfft_radix2_init_q31.c **** }
 244              		.loc 1 174 3 view .LVU72
 245              		.loc 1 175 1 is_stmt 0 view .LVU73
 246 00ac 1846     		mov	r0, r3
 247              	.LVL32:
 248              		.loc 1 175 1 view .LVU74
 249 00ae 7047     		bx	lr
 250              	.LVL33:
 251              	.L12:
 252              	.LCFI12:
 253              		.cfi_restore_state
 125:./Libraries/CMSIS/DSP/Source/TransformFunctions/arm_cfft_radix2_init_q31.c ****     /*  Initialise the bit reversal table modifier */
 254              		.loc 1 125 5 is_stmt 1 view .LVU75
 127:./Libraries/CMSIS/DSP/Source/TransformFunctions/arm_cfft_radix2_init_q31.c ****     /*  Initialise the bit reversal table pointer */
 255              		.loc 1 127 5 view .LVU76
 125:./Libraries/CMSIS/DSP/Source/TransformFunctions/arm_cfft_radix2_init_q31.c ****     /*  Initialise the bit reversal table modifier */
 256              		.loc 1 125 25 is_stmt 0 view .LVU77
 257 00b0 4FF00811 		mov	r1, #524296
 258              	.LVL34:
 129:./Libraries/CMSIS/DSP/Source/TransformFunctions/arm_cfft_radix2_init_q31.c ****     break;
 259              		.loc 1 129 21 view .LVU78
 260 00b4 154A     		ldr	r2, .L20+24
 261              	.LVL35:
  75:./Libraries/CMSIS/DSP/Source/TransformFunctions/arm_cfft_radix2_init_q31.c **** 
 262              		.loc 1 75 14 view .LVU79
 263 00b6 0023     		movs	r3, #0
 264              	.LVL36:
 265              		.loc 1 175 1 view .LVU80
 266 00b8 5DF8044B 		ldr	r4, [sp], #4
 267              	.LCFI13:
 268              		.cfi_remember_state
 269              		.cfi_restore 4
 270              		.cfi_def_cfa_offset 0
 129:./Libraries/CMSIS/DSP/Source/TransformFunctions/arm_cfft_radix2_init_q31.c ****     break;
 271              		.loc 1 129 21 view .LVU81
 272 00bc C0E90221 		strd	r2, r1, [r0, #8]
 130:./Libraries/CMSIS/DSP/Source/TransformFunctions/arm_cfft_radix2_init_q31.c **** 
 273              		.loc 1 130 5 is_stmt 1 view .LVU82
 274              	.LVL37:
 174:./Libraries/CMSIS/DSP/Source/TransformFunctions/arm_cfft_radix2_init_q31.c **** }
 275              		.loc 1 174 3 view .LVU83
 276              		.loc 1 175 1 is_stmt 0 view .LVU84
 277 00c0 1846     		mov	r0, r3
 278              	.LVL38:
 279              		.loc 1 175 1 view .LVU85
 280 00c2 7047     		bx	lr
 281              	.LVL39:
 282              	.L4:
 283              	.LCFI14:
ARM GAS  /tmp/ccW1DUwx.s 			page 10


 284              		.cfi_restore_state
 148:./Libraries/CMSIS/DSP/Source/TransformFunctions/arm_cfft_radix2_init_q31.c ****     S->bitRevFactor = 64U;
 285              		.loc 1 148 5 is_stmt 1 view .LVU86
 149:./Libraries/CMSIS/DSP/Source/TransformFunctions/arm_cfft_radix2_init_q31.c ****     S->pBitRevTable = (uint16_t *) & armBitRevTable[63];
 286              		.loc 1 149 5 view .LVU87
 148:./Libraries/CMSIS/DSP/Source/TransformFunctions/arm_cfft_radix2_init_q31.c ****     S->bitRevFactor = 64U;
 287              		.loc 1 148 25 is_stmt 0 view .LVU88
 288 00c4 4FF04011 		mov	r1, #4194368
 289              	.LVL40:
 150:./Libraries/CMSIS/DSP/Source/TransformFunctions/arm_cfft_radix2_init_q31.c ****     break;
 290              		.loc 1 150 21 view .LVU89
 291 00c8 114A     		ldr	r2, .L20+28
 292              	.LVL41:
  75:./Libraries/CMSIS/DSP/Source/TransformFunctions/arm_cfft_radix2_init_q31.c **** 
 293              		.loc 1 75 14 view .LVU90
 294 00ca 0023     		movs	r3, #0
 295              	.LVL42:
 296              		.loc 1 175 1 view .LVU91
 297 00cc 5DF8044B 		ldr	r4, [sp], #4
 298              	.LCFI15:
 299              		.cfi_remember_state
 300              		.cfi_restore 4
 301              		.cfi_def_cfa_offset 0
 150:./Libraries/CMSIS/DSP/Source/TransformFunctions/arm_cfft_radix2_init_q31.c ****     break;
 302              		.loc 1 150 21 view .LVU92
 303 00d0 C0E90221 		strd	r2, r1, [r0, #8]
 151:./Libraries/CMSIS/DSP/Source/TransformFunctions/arm_cfft_radix2_init_q31.c **** 
 304              		.loc 1 151 5 is_stmt 1 view .LVU93
 305              	.LVL43:
 174:./Libraries/CMSIS/DSP/Source/TransformFunctions/arm_cfft_radix2_init_q31.c **** }
 306              		.loc 1 174 3 view .LVU94
 307              		.loc 1 175 1 is_stmt 0 view .LVU95
 308 00d4 1846     		mov	r0, r3
 309              	.LVL44:
 310              		.loc 1 175 1 view .LVU96
 311 00d6 7047     		bx	lr
 312              	.LVL45:
 313              	.L6:
 314              	.LCFI16:
 315              		.cfi_restore_state
 162:./Libraries/CMSIS/DSP/Source/TransformFunctions/arm_cfft_radix2_init_q31.c ****     S->bitRevFactor = 256U;
 316              		.loc 1 162 5 is_stmt 1 view .LVU97
 163:./Libraries/CMSIS/DSP/Source/TransformFunctions/arm_cfft_radix2_init_q31.c ****     S->pBitRevTable = (uint16_t *) & armBitRevTable[255];
 317              		.loc 1 163 5 view .LVU98
 162:./Libraries/CMSIS/DSP/Source/TransformFunctions/arm_cfft_radix2_init_q31.c ****     S->bitRevFactor = 256U;
 318              		.loc 1 162 25 is_stmt 0 view .LVU99
 319 00d8 4FF00121 		mov	r1, #16777472
 320              	.LVL46:
 164:./Libraries/CMSIS/DSP/Source/TransformFunctions/arm_cfft_radix2_init_q31.c ****     break;
 321              		.loc 1 164 21 view .LVU100
 322 00dc 0D4A     		ldr	r2, .L20+32
 323              	.LVL47:
  75:./Libraries/CMSIS/DSP/Source/TransformFunctions/arm_cfft_radix2_init_q31.c **** 
 324              		.loc 1 75 14 view .LVU101
 325 00de 0023     		movs	r3, #0
 326              	.LVL48:
 164:./Libraries/CMSIS/DSP/Source/TransformFunctions/arm_cfft_radix2_init_q31.c ****     break;
ARM GAS  /tmp/ccW1DUwx.s 			page 11


 327              		.loc 1 164 21 view .LVU102
 328 00e0 C0E90221 		strd	r2, r1, [r0, #8]
 165:./Libraries/CMSIS/DSP/Source/TransformFunctions/arm_cfft_radix2_init_q31.c **** 
 329              		.loc 1 165 5 is_stmt 1 view .LVU103
 330 00e4 A3E7     		b	.L8
 331              	.LVL49:
 332              	.L2:
 134:./Libraries/CMSIS/DSP/Source/TransformFunctions/arm_cfft_radix2_init_q31.c ****     S->bitRevFactor = 16U;
 333              		.loc 1 134 5 view .LVU104
 135:./Libraries/CMSIS/DSP/Source/TransformFunctions/arm_cfft_radix2_init_q31.c ****     S->pBitRevTable = (uint16_t *) & armBitRevTable[15];
 334              		.loc 1 135 5 view .LVU105
 134:./Libraries/CMSIS/DSP/Source/TransformFunctions/arm_cfft_radix2_init_q31.c ****     S->bitRevFactor = 16U;
 335              		.loc 1 134 25 is_stmt 0 view .LVU106
 336 00e6 4FF01011 		mov	r1, #1048592
 337              	.LVL50:
 136:./Libraries/CMSIS/DSP/Source/TransformFunctions/arm_cfft_radix2_init_q31.c ****     break;
 338              		.loc 1 136 21 view .LVU107
 339 00ea 0B4A     		ldr	r2, .L20+36
 340              	.LVL51:
  75:./Libraries/CMSIS/DSP/Source/TransformFunctions/arm_cfft_radix2_init_q31.c **** 
 341              		.loc 1 75 14 view .LVU108
 342 00ec 0023     		movs	r3, #0
 343              	.LVL52:
 136:./Libraries/CMSIS/DSP/Source/TransformFunctions/arm_cfft_radix2_init_q31.c ****     break;
 344              		.loc 1 136 21 view .LVU109
 345 00ee C0E90221 		strd	r2, r1, [r0, #8]
 137:./Libraries/CMSIS/DSP/Source/TransformFunctions/arm_cfft_radix2_init_q31.c **** 
 346              		.loc 1 137 5 is_stmt 1 view .LVU110
 347 00f2 9CE7     		b	.L8
 348              	.L21:
 349              		.align	2
 350              	.L20:
 351 00f4 00000000 		.word	twiddleCoef_4096_q31
 352 00f8 00000000 		.word	armBitRevTable
 353 00fc 06000000 		.word	armBitRevTable+6
 354 0100 3E000000 		.word	armBitRevTable+62
 355 0104 FE000000 		.word	armBitRevTable+254
 356 0108 02000000 		.word	armBitRevTable+2
 357 010c 0E000000 		.word	armBitRevTable+14
 358 0110 7E000000 		.word	armBitRevTable+126
 359 0114 FE010000 		.word	armBitRevTable+510
 360 0118 1E000000 		.word	armBitRevTable+30
 361              		.cfi_endproc
 362              	.LFE145:
 364              		.text
 365              	.Letext0:
 366              		.file 2 "/usr/lib/gcc/arm-none-eabi/9.2.1/include/stdint.h"
 367              		.file 3 "/usr/lib/gcc/arm-none-eabi/9.2.1/include/stddef.h"
 368              		.file 4 "/usr/include/newlib/sys/_types.h"
 369              		.file 5 "/usr/include/newlib/sys/reent.h"
 370              		.file 6 "/usr/include/newlib/sys/lock.h"
 371              		.file 7 "/usr/include/newlib/math.h"
 372              		.file 8 "./Libraries/CMSIS/DSP/Include/arm_math.h"
 373              		.file 9 "./Libraries/CMSIS/DSP/Include/arm_common_tables.h"
ARM GAS  /tmp/ccW1DUwx.s 			page 12

