ARM GAS  /var/folders/wl/rshn8xbx1dsfj1zgryf4g1240000gn/T//ccjK1igP.s 			page 1


   1              		.cpu cortex-m7
   2              		.eabi_attribute 28, 1
   3              		.eabi_attribute 20, 1
   4              		.eabi_attribute 21, 1
   5              		.eabi_attribute 23, 3
   6              		.eabi_attribute 24, 1
   7              		.eabi_attribute 25, 1
   8              		.eabi_attribute 26, 1
   9              		.eabi_attribute 30, 2
  10              		.eabi_attribute 34, 1
  11              		.eabi_attribute 18, 4
  12              		.file	"arm_fir_decimate_init_q31.c"
  13              		.text
  14              	.Ltext0:
  15              		.cfi_sections	.debug_frame
  16              		.section	.text.arm_fir_decimate_init_q31,"ax",%progbits
  17              		.align	1
  18              		.p2align 2,,3
  19              		.global	arm_fir_decimate_init_q31
  20              		.arch armv7e-m
  21              		.syntax unified
  22              		.thumb
  23              		.thumb_func
  24              		.fpu fpv5-d16
  26              	arm_fir_decimate_init_q31:
  27              	.LVL0:
  28              	.LFB145:
  29              		.file 1 ".//Libraries/CMSIS/DSP/Source/FilteringFunctions/arm_fir_decimate_init_q31.c"
   1:.//Libraries/CMSIS/DSP/Source/FilteringFunctions/arm_fir_decimate_init_q31.c **** /* ----------------------------------------------------------------------
   2:.//Libraries/CMSIS/DSP/Source/FilteringFunctions/arm_fir_decimate_init_q31.c ****  * Project:      CMSIS DSP Library
   3:.//Libraries/CMSIS/DSP/Source/FilteringFunctions/arm_fir_decimate_init_q31.c ****  * Title:        arm_fir_decimate_init_q31.c
   4:.//Libraries/CMSIS/DSP/Source/FilteringFunctions/arm_fir_decimate_init_q31.c ****  * Description:  Initialization function for Q31 FIR Decimation filter
   5:.//Libraries/CMSIS/DSP/Source/FilteringFunctions/arm_fir_decimate_init_q31.c ****  *
   6:.//Libraries/CMSIS/DSP/Source/FilteringFunctions/arm_fir_decimate_init_q31.c ****  * $Date:        18. March 2019
   7:.//Libraries/CMSIS/DSP/Source/FilteringFunctions/arm_fir_decimate_init_q31.c ****  * $Revision:    V1.6.0
   8:.//Libraries/CMSIS/DSP/Source/FilteringFunctions/arm_fir_decimate_init_q31.c ****  *
   9:.//Libraries/CMSIS/DSP/Source/FilteringFunctions/arm_fir_decimate_init_q31.c ****  * Target Processor: Cortex-M cores
  10:.//Libraries/CMSIS/DSP/Source/FilteringFunctions/arm_fir_decimate_init_q31.c ****  * -------------------------------------------------------------------- */
  11:.//Libraries/CMSIS/DSP/Source/FilteringFunctions/arm_fir_decimate_init_q31.c **** /*
  12:.//Libraries/CMSIS/DSP/Source/FilteringFunctions/arm_fir_decimate_init_q31.c ****  * Copyright (C) 2010-2019 ARM Limited or its affiliates. All rights reserved.
  13:.//Libraries/CMSIS/DSP/Source/FilteringFunctions/arm_fir_decimate_init_q31.c ****  *
  14:.//Libraries/CMSIS/DSP/Source/FilteringFunctions/arm_fir_decimate_init_q31.c ****  * SPDX-License-Identifier: Apache-2.0
  15:.//Libraries/CMSIS/DSP/Source/FilteringFunctions/arm_fir_decimate_init_q31.c ****  *
  16:.//Libraries/CMSIS/DSP/Source/FilteringFunctions/arm_fir_decimate_init_q31.c ****  * Licensed under the Apache License, Version 2.0 (the License); you may
  17:.//Libraries/CMSIS/DSP/Source/FilteringFunctions/arm_fir_decimate_init_q31.c ****  * not use this file except in compliance with the License.
  18:.//Libraries/CMSIS/DSP/Source/FilteringFunctions/arm_fir_decimate_init_q31.c ****  * You may obtain a copy of the License at
  19:.//Libraries/CMSIS/DSP/Source/FilteringFunctions/arm_fir_decimate_init_q31.c ****  *
  20:.//Libraries/CMSIS/DSP/Source/FilteringFunctions/arm_fir_decimate_init_q31.c ****  * www.apache.org/licenses/LICENSE-2.0
  21:.//Libraries/CMSIS/DSP/Source/FilteringFunctions/arm_fir_decimate_init_q31.c ****  *
  22:.//Libraries/CMSIS/DSP/Source/FilteringFunctions/arm_fir_decimate_init_q31.c ****  * Unless required by applicable law or agreed to in writing, software
  23:.//Libraries/CMSIS/DSP/Source/FilteringFunctions/arm_fir_decimate_init_q31.c ****  * distributed under the License is distributed on an AS IS BASIS, WITHOUT
  24:.//Libraries/CMSIS/DSP/Source/FilteringFunctions/arm_fir_decimate_init_q31.c ****  * WARRANTIES OR CONDITIONS OF ANY KIND, either express or implied.
  25:.//Libraries/CMSIS/DSP/Source/FilteringFunctions/arm_fir_decimate_init_q31.c ****  * See the License for the specific language governing permissions and
  26:.//Libraries/CMSIS/DSP/Source/FilteringFunctions/arm_fir_decimate_init_q31.c ****  * limitations under the License.
  27:.//Libraries/CMSIS/DSP/Source/FilteringFunctions/arm_fir_decimate_init_q31.c ****  */
  28:.//Libraries/CMSIS/DSP/Source/FilteringFunctions/arm_fir_decimate_init_q31.c **** 
  29:.//Libraries/CMSIS/DSP/Source/FilteringFunctions/arm_fir_decimate_init_q31.c **** #include "arm_math.h"
ARM GAS  /var/folders/wl/rshn8xbx1dsfj1zgryf4g1240000gn/T//ccjK1igP.s 			page 2


  30:.//Libraries/CMSIS/DSP/Source/FilteringFunctions/arm_fir_decimate_init_q31.c **** 
  31:.//Libraries/CMSIS/DSP/Source/FilteringFunctions/arm_fir_decimate_init_q31.c **** /**
  32:.//Libraries/CMSIS/DSP/Source/FilteringFunctions/arm_fir_decimate_init_q31.c ****   @ingroup groupFilters
  33:.//Libraries/CMSIS/DSP/Source/FilteringFunctions/arm_fir_decimate_init_q31.c ****  */
  34:.//Libraries/CMSIS/DSP/Source/FilteringFunctions/arm_fir_decimate_init_q31.c **** 
  35:.//Libraries/CMSIS/DSP/Source/FilteringFunctions/arm_fir_decimate_init_q31.c **** /**
  36:.//Libraries/CMSIS/DSP/Source/FilteringFunctions/arm_fir_decimate_init_q31.c ****   @addtogroup FIR_decimate
  37:.//Libraries/CMSIS/DSP/Source/FilteringFunctions/arm_fir_decimate_init_q31.c ****   @{
  38:.//Libraries/CMSIS/DSP/Source/FilteringFunctions/arm_fir_decimate_init_q31.c ****  */
  39:.//Libraries/CMSIS/DSP/Source/FilteringFunctions/arm_fir_decimate_init_q31.c **** 
  40:.//Libraries/CMSIS/DSP/Source/FilteringFunctions/arm_fir_decimate_init_q31.c **** /**
  41:.//Libraries/CMSIS/DSP/Source/FilteringFunctions/arm_fir_decimate_init_q31.c ****   @brief         Initialization function for the Q31 FIR decimator.
  42:.//Libraries/CMSIS/DSP/Source/FilteringFunctions/arm_fir_decimate_init_q31.c ****   @param[in,out] S          points to an instance of the Q31 FIR decimator structure
  43:.//Libraries/CMSIS/DSP/Source/FilteringFunctions/arm_fir_decimate_init_q31.c ****   @param[in]     numTaps    number of coefficients in the filter
  44:.//Libraries/CMSIS/DSP/Source/FilteringFunctions/arm_fir_decimate_init_q31.c ****   @param[in]     M          decimation factor
  45:.//Libraries/CMSIS/DSP/Source/FilteringFunctions/arm_fir_decimate_init_q31.c ****   @param[in]     pCoeffs    points to the filter coefficients
  46:.//Libraries/CMSIS/DSP/Source/FilteringFunctions/arm_fir_decimate_init_q31.c ****   @param[in]     pState     points to the state buffer
  47:.//Libraries/CMSIS/DSP/Source/FilteringFunctions/arm_fir_decimate_init_q31.c ****   @param[in]     blockSize  number of input samples to process
  48:.//Libraries/CMSIS/DSP/Source/FilteringFunctions/arm_fir_decimate_init_q31.c ****   @return        execution  status
  49:.//Libraries/CMSIS/DSP/Source/FilteringFunctions/arm_fir_decimate_init_q31.c ****                    - \ref ARM_MATH_SUCCESS      : Operation successful
  50:.//Libraries/CMSIS/DSP/Source/FilteringFunctions/arm_fir_decimate_init_q31.c ****                    - \ref ARM_MATH_LENGTH_ERROR : <code>blockSize</code> is not a multiple of <code
  51:.//Libraries/CMSIS/DSP/Source/FilteringFunctions/arm_fir_decimate_init_q31.c **** 
  52:.//Libraries/CMSIS/DSP/Source/FilteringFunctions/arm_fir_decimate_init_q31.c ****   @par           Details
  53:.//Libraries/CMSIS/DSP/Source/FilteringFunctions/arm_fir_decimate_init_q31.c ****                    <code>pCoeffs</code> points to the array of filter coefficients stored in time r
  54:.//Libraries/CMSIS/DSP/Source/FilteringFunctions/arm_fir_decimate_init_q31.c ****   <pre>
  55:.//Libraries/CMSIS/DSP/Source/FilteringFunctions/arm_fir_decimate_init_q31.c ****       {b[numTaps-1], b[numTaps-2], b[N-2], ..., b[1], b[0]}
  56:.//Libraries/CMSIS/DSP/Source/FilteringFunctions/arm_fir_decimate_init_q31.c ****   </pre>
  57:.//Libraries/CMSIS/DSP/Source/FilteringFunctions/arm_fir_decimate_init_q31.c ****   @par
  58:.//Libraries/CMSIS/DSP/Source/FilteringFunctions/arm_fir_decimate_init_q31.c ****                    <code>pState</code> points to the array of state variables.
  59:.//Libraries/CMSIS/DSP/Source/FilteringFunctions/arm_fir_decimate_init_q31.c ****                    <code>pState</code> is of length <code>numTaps+blockSize-1</code> words where <c
  60:.//Libraries/CMSIS/DSP/Source/FilteringFunctions/arm_fir_decimate_init_q31.c ****                    <code>M</code> is the decimation factor.
  61:.//Libraries/CMSIS/DSP/Source/FilteringFunctions/arm_fir_decimate_init_q31.c ****  */
  62:.//Libraries/CMSIS/DSP/Source/FilteringFunctions/arm_fir_decimate_init_q31.c **** 
  63:.//Libraries/CMSIS/DSP/Source/FilteringFunctions/arm_fir_decimate_init_q31.c **** arm_status arm_fir_decimate_init_q31(
  64:.//Libraries/CMSIS/DSP/Source/FilteringFunctions/arm_fir_decimate_init_q31.c ****         arm_fir_decimate_instance_q31 * S,
  65:.//Libraries/CMSIS/DSP/Source/FilteringFunctions/arm_fir_decimate_init_q31.c ****         uint16_t numTaps,
  66:.//Libraries/CMSIS/DSP/Source/FilteringFunctions/arm_fir_decimate_init_q31.c ****         uint8_t M,
  67:.//Libraries/CMSIS/DSP/Source/FilteringFunctions/arm_fir_decimate_init_q31.c ****   const q31_t * pCoeffs,
  68:.//Libraries/CMSIS/DSP/Source/FilteringFunctions/arm_fir_decimate_init_q31.c ****         q31_t * pState,
  69:.//Libraries/CMSIS/DSP/Source/FilteringFunctions/arm_fir_decimate_init_q31.c ****         uint32_t blockSize)
  70:.//Libraries/CMSIS/DSP/Source/FilteringFunctions/arm_fir_decimate_init_q31.c **** {
  30              		.loc 1 70 1 view -0
  31              		.cfi_startproc
  32              		@ args = 8, pretend = 0, frame = 0
  33              		@ frame_needed = 0, uses_anonymous_args = 0
  71:.//Libraries/CMSIS/DSP/Source/FilteringFunctions/arm_fir_decimate_init_q31.c ****   arm_status status;
  34              		.loc 1 71 3 view .LVU1
  72:.//Libraries/CMSIS/DSP/Source/FilteringFunctions/arm_fir_decimate_init_q31.c **** 
  73:.//Libraries/CMSIS/DSP/Source/FilteringFunctions/arm_fir_decimate_init_q31.c ****   /* The size of the input block must be a multiple of the decimation factor */
  74:.//Libraries/CMSIS/DSP/Source/FilteringFunctions/arm_fir_decimate_init_q31.c ****   if ((blockSize % M) != 0U)
  35              		.loc 1 74 3 view .LVU2
  70:.//Libraries/CMSIS/DSP/Source/FilteringFunctions/arm_fir_decimate_init_q31.c ****   arm_status status;
  36              		.loc 1 70 1 is_stmt 0 view .LVU3
  37 0000 2DE9F041 		push	{r4, r5, r6, r7, r8, lr}
  38              	.LCFI0:
  39              		.cfi_def_cfa_offset 24
  40              		.cfi_offset 4, -24
ARM GAS  /var/folders/wl/rshn8xbx1dsfj1zgryf4g1240000gn/T//ccjK1igP.s 			page 3


  41              		.cfi_offset 5, -20
  42              		.cfi_offset 6, -16
  43              		.cfi_offset 7, -12
  44              		.cfi_offset 8, -8
  45              		.cfi_offset 14, -4
  70:.//Libraries/CMSIS/DSP/Source/FilteringFunctions/arm_fir_decimate_init_q31.c ****   arm_status status;
  46              		.loc 1 70 1 view .LVU4
  47 0004 DDE90687 		ldrd	r8, r7, [sp, #24]
  48              		.loc 1 74 18 view .LVU5
  49 0008 B7FBF2F4 		udiv	r4, r7, r2
  50 000c 02FB1474 		mls	r4, r2, r4, r7
  51              		.loc 1 74 6 view .LVU6
  52 0010 84B9     		cbnz	r4, .L3
  75:.//Libraries/CMSIS/DSP/Source/FilteringFunctions/arm_fir_decimate_init_q31.c ****   {
  76:.//Libraries/CMSIS/DSP/Source/FilteringFunctions/arm_fir_decimate_init_q31.c ****     /* Set status as ARM_MATH_LENGTH_ERROR */
  77:.//Libraries/CMSIS/DSP/Source/FilteringFunctions/arm_fir_decimate_init_q31.c ****     status = ARM_MATH_LENGTH_ERROR;
  78:.//Libraries/CMSIS/DSP/Source/FilteringFunctions/arm_fir_decimate_init_q31.c ****   }
  79:.//Libraries/CMSIS/DSP/Source/FilteringFunctions/arm_fir_decimate_init_q31.c ****   else
  80:.//Libraries/CMSIS/DSP/Source/FilteringFunctions/arm_fir_decimate_init_q31.c ****   {
  81:.//Libraries/CMSIS/DSP/Source/FilteringFunctions/arm_fir_decimate_init_q31.c ****     /* Assign filter taps */
  82:.//Libraries/CMSIS/DSP/Source/FilteringFunctions/arm_fir_decimate_init_q31.c ****     S->numTaps = numTaps;
  53              		.loc 1 82 5 is_stmt 1 view .LVU7
  54 0012 1646     		mov	r6, r2
  83:.//Libraries/CMSIS/DSP/Source/FilteringFunctions/arm_fir_decimate_init_q31.c **** 
  84:.//Libraries/CMSIS/DSP/Source/FilteringFunctions/arm_fir_decimate_init_q31.c ****     /* Assign coefficient pointer */
  85:.//Libraries/CMSIS/DSP/Source/FilteringFunctions/arm_fir_decimate_init_q31.c ****     S->pCoeffs = pCoeffs;
  86:.//Libraries/CMSIS/DSP/Source/FilteringFunctions/arm_fir_decimate_init_q31.c **** 
  87:.//Libraries/CMSIS/DSP/Source/FilteringFunctions/arm_fir_decimate_init_q31.c ****     /* Clear the state buffer. The size is always (blockSize + numTaps - 1) */
  88:.//Libraries/CMSIS/DSP/Source/FilteringFunctions/arm_fir_decimate_init_q31.c ****     memset(pState, 0, (numTaps + (blockSize - 1U)) * sizeof(q31_t));
  55              		.loc 1 88 32 is_stmt 0 view .LVU8
  56 0014 4A1E     		subs	r2, r1, #1
  57              	.LVL1:
  58              		.loc 1 88 32 view .LVU9
  59 0016 0546     		mov	r5, r0
  82:.//Libraries/CMSIS/DSP/Source/FilteringFunctions/arm_fir_decimate_init_q31.c **** 
  60              		.loc 1 82 16 view .LVU10
  61 0018 4180     		strh	r1, [r0, #2]	@ movhi
  85:.//Libraries/CMSIS/DSP/Source/FilteringFunctions/arm_fir_decimate_init_q31.c **** 
  62              		.loc 1 85 5 is_stmt 1 view .LVU11
  63              		.loc 1 88 32 is_stmt 0 view .LVU12
  64 001a 3A44     		add	r2, r2, r7
  85:.//Libraries/CMSIS/DSP/Source/FilteringFunctions/arm_fir_decimate_init_q31.c **** 
  65              		.loc 1 85 16 view .LVU13
  66 001c 4360     		str	r3, [r0, #4]
  67              		.loc 1 88 5 is_stmt 1 view .LVU14
  68 001e 2146     		mov	r1, r4
  69              	.LVL2:
  70              		.loc 1 88 5 is_stmt 0 view .LVU15
  71 0020 4046     		mov	r0, r8
  72              	.LVL3:
  73              		.loc 1 88 5 view .LVU16
  74 0022 9200     		lsls	r2, r2, #2
  75 0024 FFF7FEFF 		bl	memset
  76              	.LVL4:
  89:.//Libraries/CMSIS/DSP/Source/FilteringFunctions/arm_fir_decimate_init_q31.c **** 
  90:.//Libraries/CMSIS/DSP/Source/FilteringFunctions/arm_fir_decimate_init_q31.c ****     /* Assign state pointer */
  91:.//Libraries/CMSIS/DSP/Source/FilteringFunctions/arm_fir_decimate_init_q31.c ****     S->pState = pState;
ARM GAS  /var/folders/wl/rshn8xbx1dsfj1zgryf4g1240000gn/T//ccjK1igP.s 			page 4


  77              		.loc 1 91 5 is_stmt 1 view .LVU17
  92:.//Libraries/CMSIS/DSP/Source/FilteringFunctions/arm_fir_decimate_init_q31.c **** 
  93:.//Libraries/CMSIS/DSP/Source/FilteringFunctions/arm_fir_decimate_init_q31.c ****     /* Assign Decimation Factor */
  94:.//Libraries/CMSIS/DSP/Source/FilteringFunctions/arm_fir_decimate_init_q31.c ****     S->M = M;
  95:.//Libraries/CMSIS/DSP/Source/FilteringFunctions/arm_fir_decimate_init_q31.c **** 
  96:.//Libraries/CMSIS/DSP/Source/FilteringFunctions/arm_fir_decimate_init_q31.c ****     status = ARM_MATH_SUCCESS;
  78              		.loc 1 96 12 is_stmt 0 view .LVU18
  79 0028 2046     		mov	r0, r4
  91:.//Libraries/CMSIS/DSP/Source/FilteringFunctions/arm_fir_decimate_init_q31.c **** 
  80              		.loc 1 91 15 view .LVU19
  81 002a C5F80880 		str	r8, [r5, #8]
  94:.//Libraries/CMSIS/DSP/Source/FilteringFunctions/arm_fir_decimate_init_q31.c **** 
  82              		.loc 1 94 5 is_stmt 1 view .LVU20
  94:.//Libraries/CMSIS/DSP/Source/FilteringFunctions/arm_fir_decimate_init_q31.c **** 
  83              		.loc 1 94 10 is_stmt 0 view .LVU21
  84 002e 2E70     		strb	r6, [r5]
  85              		.loc 1 96 5 is_stmt 1 view .LVU22
  86              	.LVL5:
  87              	.L2:
  97:.//Libraries/CMSIS/DSP/Source/FilteringFunctions/arm_fir_decimate_init_q31.c ****   }
  98:.//Libraries/CMSIS/DSP/Source/FilteringFunctions/arm_fir_decimate_init_q31.c **** 
  99:.//Libraries/CMSIS/DSP/Source/FilteringFunctions/arm_fir_decimate_init_q31.c ****   return (status);
  88              		.loc 1 99 3 view .LVU23
 100:.//Libraries/CMSIS/DSP/Source/FilteringFunctions/arm_fir_decimate_init_q31.c **** 
 101:.//Libraries/CMSIS/DSP/Source/FilteringFunctions/arm_fir_decimate_init_q31.c **** }
  89              		.loc 1 101 1 is_stmt 0 view .LVU24
  90 0030 BDE8F081 		pop	{r4, r5, r6, r7, r8, pc}
  91              	.LVL6:
  92              	.L3:
  77:.//Libraries/CMSIS/DSP/Source/FilteringFunctions/arm_fir_decimate_init_q31.c ****   }
  93              		.loc 1 77 12 view .LVU25
  94 0034 6FF00100 		mvn	r0, #1
  95              	.LVL7:
  77:.//Libraries/CMSIS/DSP/Source/FilteringFunctions/arm_fir_decimate_init_q31.c ****   }
  96              		.loc 1 77 12 view .LVU26
  97 0038 FAE7     		b	.L2
  98              		.cfi_endproc
  99              	.LFE145:
 101 003a 00BF     		.text
 102              	.Letext0:
 103              		.file 2 "/opt/homebrew/Cellar/arm-none-eabi-gcc/9-2019-q4-major/gcc/arm-none-eabi/include/machine/
 104              		.file 3 "/opt/homebrew/Cellar/arm-none-eabi-gcc/9-2019-q4-major/gcc/arm-none-eabi/include/sys/_std
 105              		.file 4 "/opt/homebrew/Cellar/arm-none-eabi-gcc/9-2019-q4-major/gcc/arm-none-eabi/include/sys/lock
 106              		.file 5 "/opt/homebrew/Cellar/arm-none-eabi-gcc/9-2019-q4-major/gcc/arm-none-eabi/include/sys/_typ
 107              		.file 6 "/opt/homebrew/Cellar/arm-none-eabi-gcc/9-2019-q4-major/gcc/lib/gcc/arm-none-eabi/9.2.1/in
 108              		.file 7 "/opt/homebrew/Cellar/arm-none-eabi-gcc/9-2019-q4-major/gcc/arm-none-eabi/include/sys/reen
 109              		.file 8 "/opt/homebrew/Cellar/arm-none-eabi-gcc/9-2019-q4-major/gcc/arm-none-eabi/include/math.h"
 110              		.file 9 ".//Libraries/CMSIS/DSP/Include/arm_math.h"
 111              		.file 10 "<built-in>"
ARM GAS  /var/folders/wl/rshn8xbx1dsfj1zgryf4g1240000gn/T//ccjK1igP.s 			page 5

