ARM GAS  /var/folders/wl/rshn8xbx1dsfj1zgryf4g1240000gn/T//ccLQZSWV.s 			page 1


   1              		.cpu cortex-m7
   2              		.eabi_attribute 28, 1
   3              		.eabi_attribute 20, 1
   4              		.eabi_attribute 21, 1
   5              		.eabi_attribute 23, 3
   6              		.eabi_attribute 24, 1
   7              		.eabi_attribute 25, 1
   8              		.eabi_attribute 26, 1
   9              		.eabi_attribute 30, 2
  10              		.eabi_attribute 34, 1
  11              		.eabi_attribute 18, 4
  12              		.file	"arm_iir_lattice_q15.c"
  13              		.text
  14              	.Ltext0:
  15              		.cfi_sections	.debug_frame
  16              		.section	.text.arm_iir_lattice_q15,"ax",%progbits
  17              		.align	1
  18              		.p2align 2,,3
  19              		.global	arm_iir_lattice_q15
  20              		.arch armv7e-m
  21              		.syntax unified
  22              		.thumb
  23              		.thumb_func
  24              		.fpu fpv5-d16
  26              	arm_iir_lattice_q15:
  27              	.LVL0:
  28              	.LFB145:
  29              		.file 1 ".//Libraries/CMSIS/DSP/Source/FilteringFunctions/arm_iir_lattice_q15.c"
   1:.//Libraries/CMSIS/DSP/Source/FilteringFunctions/arm_iir_lattice_q15.c **** /* ----------------------------------------------------------------------
   2:.//Libraries/CMSIS/DSP/Source/FilteringFunctions/arm_iir_lattice_q15.c ****  * Project:      CMSIS DSP Library
   3:.//Libraries/CMSIS/DSP/Source/FilteringFunctions/arm_iir_lattice_q15.c ****  * Title:        arm_iir_lattice_q15.c
   4:.//Libraries/CMSIS/DSP/Source/FilteringFunctions/arm_iir_lattice_q15.c ****  * Description:  Q15 IIR Lattice filter processing function
   5:.//Libraries/CMSIS/DSP/Source/FilteringFunctions/arm_iir_lattice_q15.c ****  *
   6:.//Libraries/CMSIS/DSP/Source/FilteringFunctions/arm_iir_lattice_q15.c ****  * $Date:        18. March 2019
   7:.//Libraries/CMSIS/DSP/Source/FilteringFunctions/arm_iir_lattice_q15.c ****  * $Revision:    V1.6.0
   8:.//Libraries/CMSIS/DSP/Source/FilteringFunctions/arm_iir_lattice_q15.c ****  *
   9:.//Libraries/CMSIS/DSP/Source/FilteringFunctions/arm_iir_lattice_q15.c ****  * Target Processor: Cortex-M cores
  10:.//Libraries/CMSIS/DSP/Source/FilteringFunctions/arm_iir_lattice_q15.c ****  * -------------------------------------------------------------------- */
  11:.//Libraries/CMSIS/DSP/Source/FilteringFunctions/arm_iir_lattice_q15.c **** /*
  12:.//Libraries/CMSIS/DSP/Source/FilteringFunctions/arm_iir_lattice_q15.c ****  * Copyright (C) 2010-2019 ARM Limited or its affiliates. All rights reserved.
  13:.//Libraries/CMSIS/DSP/Source/FilteringFunctions/arm_iir_lattice_q15.c ****  *
  14:.//Libraries/CMSIS/DSP/Source/FilteringFunctions/arm_iir_lattice_q15.c ****  * SPDX-License-Identifier: Apache-2.0
  15:.//Libraries/CMSIS/DSP/Source/FilteringFunctions/arm_iir_lattice_q15.c ****  *
  16:.//Libraries/CMSIS/DSP/Source/FilteringFunctions/arm_iir_lattice_q15.c ****  * Licensed under the Apache License, Version 2.0 (the License); you may
  17:.//Libraries/CMSIS/DSP/Source/FilteringFunctions/arm_iir_lattice_q15.c ****  * not use this file except in compliance with the License.
  18:.//Libraries/CMSIS/DSP/Source/FilteringFunctions/arm_iir_lattice_q15.c ****  * You may obtain a copy of the License at
  19:.//Libraries/CMSIS/DSP/Source/FilteringFunctions/arm_iir_lattice_q15.c ****  *
  20:.//Libraries/CMSIS/DSP/Source/FilteringFunctions/arm_iir_lattice_q15.c ****  * www.apache.org/licenses/LICENSE-2.0
  21:.//Libraries/CMSIS/DSP/Source/FilteringFunctions/arm_iir_lattice_q15.c ****  *
  22:.//Libraries/CMSIS/DSP/Source/FilteringFunctions/arm_iir_lattice_q15.c ****  * Unless required by applicable law or agreed to in writing, software
  23:.//Libraries/CMSIS/DSP/Source/FilteringFunctions/arm_iir_lattice_q15.c ****  * distributed under the License is distributed on an AS IS BASIS, WITHOUT
  24:.//Libraries/CMSIS/DSP/Source/FilteringFunctions/arm_iir_lattice_q15.c ****  * WARRANTIES OR CONDITIONS OF ANY KIND, either express or implied.
  25:.//Libraries/CMSIS/DSP/Source/FilteringFunctions/arm_iir_lattice_q15.c ****  * See the License for the specific language governing permissions and
  26:.//Libraries/CMSIS/DSP/Source/FilteringFunctions/arm_iir_lattice_q15.c ****  * limitations under the License.
  27:.//Libraries/CMSIS/DSP/Source/FilteringFunctions/arm_iir_lattice_q15.c ****  */
  28:.//Libraries/CMSIS/DSP/Source/FilteringFunctions/arm_iir_lattice_q15.c **** 
  29:.//Libraries/CMSIS/DSP/Source/FilteringFunctions/arm_iir_lattice_q15.c **** #include "arm_math.h"
ARM GAS  /var/folders/wl/rshn8xbx1dsfj1zgryf4g1240000gn/T//ccLQZSWV.s 			page 2


  30:.//Libraries/CMSIS/DSP/Source/FilteringFunctions/arm_iir_lattice_q15.c **** 
  31:.//Libraries/CMSIS/DSP/Source/FilteringFunctions/arm_iir_lattice_q15.c **** /**
  32:.//Libraries/CMSIS/DSP/Source/FilteringFunctions/arm_iir_lattice_q15.c ****   @ingroup groupFilters
  33:.//Libraries/CMSIS/DSP/Source/FilteringFunctions/arm_iir_lattice_q15.c ****  */
  34:.//Libraries/CMSIS/DSP/Source/FilteringFunctions/arm_iir_lattice_q15.c **** 
  35:.//Libraries/CMSIS/DSP/Source/FilteringFunctions/arm_iir_lattice_q15.c **** /**
  36:.//Libraries/CMSIS/DSP/Source/FilteringFunctions/arm_iir_lattice_q15.c ****   @addtogroup IIR_Lattice
  37:.//Libraries/CMSIS/DSP/Source/FilteringFunctions/arm_iir_lattice_q15.c ****   @{
  38:.//Libraries/CMSIS/DSP/Source/FilteringFunctions/arm_iir_lattice_q15.c ****  */
  39:.//Libraries/CMSIS/DSP/Source/FilteringFunctions/arm_iir_lattice_q15.c **** 
  40:.//Libraries/CMSIS/DSP/Source/FilteringFunctions/arm_iir_lattice_q15.c **** /**
  41:.//Libraries/CMSIS/DSP/Source/FilteringFunctions/arm_iir_lattice_q15.c ****   @brief         Processing function for the Q15 IIR lattice filter.
  42:.//Libraries/CMSIS/DSP/Source/FilteringFunctions/arm_iir_lattice_q15.c ****   @param[in]     S          points to an instance of the Q15 IIR lattice structure
  43:.//Libraries/CMSIS/DSP/Source/FilteringFunctions/arm_iir_lattice_q15.c ****   @param[in]     pSrc       points to the block of input data
  44:.//Libraries/CMSIS/DSP/Source/FilteringFunctions/arm_iir_lattice_q15.c ****   @param[out]    pDst       points to the block of output data
  45:.//Libraries/CMSIS/DSP/Source/FilteringFunctions/arm_iir_lattice_q15.c ****   @param[in]     blockSize  number of samples to process
  46:.//Libraries/CMSIS/DSP/Source/FilteringFunctions/arm_iir_lattice_q15.c ****   @return        none
  47:.//Libraries/CMSIS/DSP/Source/FilteringFunctions/arm_iir_lattice_q15.c **** 
  48:.//Libraries/CMSIS/DSP/Source/FilteringFunctions/arm_iir_lattice_q15.c ****   @par           Scaling and Overflow Behavior
  49:.//Libraries/CMSIS/DSP/Source/FilteringFunctions/arm_iir_lattice_q15.c ****                    The function is implemented using an internal 64-bit accumulator.
  50:.//Libraries/CMSIS/DSP/Source/FilteringFunctions/arm_iir_lattice_q15.c ****                    Both coefficients and state variables are represented in 1.15 format and multipl
  51:.//Libraries/CMSIS/DSP/Source/FilteringFunctions/arm_iir_lattice_q15.c ****                    The 2.30 intermediate results are accumulated in a 64-bit accumulator in 34.30 f
  52:.//Libraries/CMSIS/DSP/Source/FilteringFunctions/arm_iir_lattice_q15.c ****                    There is no risk of internal overflow with this approach and the full precision 
  53:.//Libraries/CMSIS/DSP/Source/FilteringFunctions/arm_iir_lattice_q15.c ****                    After all additions have been performed, the accumulator is truncated to 34.15 f
  54:.//Libraries/CMSIS/DSP/Source/FilteringFunctions/arm_iir_lattice_q15.c ****                    Lastly, the accumulator is saturated to yield a result in 1.15 format.
  55:.//Libraries/CMSIS/DSP/Source/FilteringFunctions/arm_iir_lattice_q15.c ****  */
  56:.//Libraries/CMSIS/DSP/Source/FilteringFunctions/arm_iir_lattice_q15.c **** 
  57:.//Libraries/CMSIS/DSP/Source/FilteringFunctions/arm_iir_lattice_q15.c **** void arm_iir_lattice_q15(
  58:.//Libraries/CMSIS/DSP/Source/FilteringFunctions/arm_iir_lattice_q15.c ****   const arm_iir_lattice_instance_q15 * S,
  59:.//Libraries/CMSIS/DSP/Source/FilteringFunctions/arm_iir_lattice_q15.c ****   const q15_t * pSrc,
  60:.//Libraries/CMSIS/DSP/Source/FilteringFunctions/arm_iir_lattice_q15.c ****         q15_t * pDst,
  61:.//Libraries/CMSIS/DSP/Source/FilteringFunctions/arm_iir_lattice_q15.c ****         uint32_t blockSize)
  62:.//Libraries/CMSIS/DSP/Source/FilteringFunctions/arm_iir_lattice_q15.c **** {
  30              		.loc 1 62 1 view -0
  31              		.cfi_startproc
  32              		@ args = 0, pretend = 0, frame = 40
  33              		@ frame_needed = 0, uses_anonymous_args = 0
  63:.//Libraries/CMSIS/DSP/Source/FilteringFunctions/arm_iir_lattice_q15.c ****         q15_t *pState = S->pState;                     /* State pointer */
  34              		.loc 1 63 9 view .LVU1
  62:.//Libraries/CMSIS/DSP/Source/FilteringFunctions/arm_iir_lattice_q15.c ****         q15_t *pState = S->pState;                     /* State pointer */
  35              		.loc 1 62 1 is_stmt 0 view .LVU2
  36 0000 2DE9F04F 		push	{r4, r5, r6, r7, r8, r9, r10, fp, lr}
  37              	.LCFI0:
  38              		.cfi_def_cfa_offset 36
  39              		.cfi_offset 4, -36
  40              		.cfi_offset 5, -32
  41              		.cfi_offset 6, -28
  42              		.cfi_offset 7, -24
  43              		.cfi_offset 8, -20
  44              		.cfi_offset 9, -16
  45              		.cfi_offset 10, -12
  46              		.cfi_offset 11, -8
  47              		.cfi_offset 14, -4
  48 0004 8BB0     		sub	sp, sp, #44
  49              	.LCFI1:
  50              		.cfi_def_cfa_offset 80
  64:.//Libraries/CMSIS/DSP/Source/FilteringFunctions/arm_iir_lattice_q15.c ****         q15_t *pStateCur;                              /* State current pointer */
ARM GAS  /var/folders/wl/rshn8xbx1dsfj1zgryf4g1240000gn/T//ccLQZSWV.s 			page 3


  65:.//Libraries/CMSIS/DSP/Source/FilteringFunctions/arm_iir_lattice_q15.c ****         q31_t fcurr, fnext = 0, gcurr = 0, gnext;      /* Temporary variables for lattice stages */
  66:.//Libraries/CMSIS/DSP/Source/FilteringFunctions/arm_iir_lattice_q15.c ****         q63_t acc;                                     /* Accumlator */
  67:.//Libraries/CMSIS/DSP/Source/FilteringFunctions/arm_iir_lattice_q15.c ****         q15_t *px1, *px2, *pk, *pv;                    /* Temporary pointers for state and coef */
  68:.//Libraries/CMSIS/DSP/Source/FilteringFunctions/arm_iir_lattice_q15.c ****         uint32_t numStages = S->numStages;             /* Number of stages */
  69:.//Libraries/CMSIS/DSP/Source/FilteringFunctions/arm_iir_lattice_q15.c ****         uint32_t blkCnt, tapCnt;                       /* Temporary variables for counts */
  70:.//Libraries/CMSIS/DSP/Source/FilteringFunctions/arm_iir_lattice_q15.c ****         q15_t out;                                     /* Temporary variable for output */
  71:.//Libraries/CMSIS/DSP/Source/FilteringFunctions/arm_iir_lattice_q15.c **** 
  72:.//Libraries/CMSIS/DSP/Source/FilteringFunctions/arm_iir_lattice_q15.c **** #if defined (ARM_MATH_DSP) && defined (ARM_MATH_LOOPUNROLL)
  73:.//Libraries/CMSIS/DSP/Source/FilteringFunctions/arm_iir_lattice_q15.c ****         q15_t gnext1, gnext2;                          /* Temporary variables for lattice stages */
  74:.//Libraries/CMSIS/DSP/Source/FilteringFunctions/arm_iir_lattice_q15.c ****         q31_t v;                                       /* Temporary variable for ladder coefficient
  75:.//Libraries/CMSIS/DSP/Source/FilteringFunctions/arm_iir_lattice_q15.c **** #endif
  76:.//Libraries/CMSIS/DSP/Source/FilteringFunctions/arm_iir_lattice_q15.c **** 
  77:.//Libraries/CMSIS/DSP/Source/FilteringFunctions/arm_iir_lattice_q15.c ****   /* initialise loop count */
  78:.//Libraries/CMSIS/DSP/Source/FilteringFunctions/arm_iir_lattice_q15.c ****   blkCnt = blockSize;
  79:.//Libraries/CMSIS/DSP/Source/FilteringFunctions/arm_iir_lattice_q15.c **** 
  80:.//Libraries/CMSIS/DSP/Source/FilteringFunctions/arm_iir_lattice_q15.c **** #if defined (ARM_MATH_DSP)
  81:.//Libraries/CMSIS/DSP/Source/FilteringFunctions/arm_iir_lattice_q15.c **** 
  82:.//Libraries/CMSIS/DSP/Source/FilteringFunctions/arm_iir_lattice_q15.c ****   /* Sample processing */
  83:.//Libraries/CMSIS/DSP/Source/FilteringFunctions/arm_iir_lattice_q15.c ****   while (blkCnt > 0U)
  51              		.loc 1 83 9 view .LVU3
  52 0006 1C46     		mov	r4, r3
  62:.//Libraries/CMSIS/DSP/Source/FilteringFunctions/arm_iir_lattice_q15.c ****         q15_t *pState = S->pState;                     /* State pointer */
  53              		.loc 1 62 1 view .LVU4
  54 0008 0091     		str	r1, [sp]
  63:.//Libraries/CMSIS/DSP/Source/FilteringFunctions/arm_iir_lattice_q15.c ****         q15_t *pStateCur;                              /* State current pointer */
  55              		.loc 1 63 16 view .LVU5
  56 000a 4168     		ldr	r1, [r0, #4]
  57              	.LVL1:
  58              		.loc 1 83 9 view .LVU6
  59 000c 0993     		str	r3, [sp, #36]
  63:.//Libraries/CMSIS/DSP/Source/FilteringFunctions/arm_iir_lattice_q15.c ****         q15_t *pStateCur;                              /* State current pointer */
  60              		.loc 1 63 16 view .LVU7
  61 000e 0891     		str	r1, [sp, #32]
  62              	.LVL2:
  64:.//Libraries/CMSIS/DSP/Source/FilteringFunctions/arm_iir_lattice_q15.c ****         q15_t *pStateCur;                              /* State current pointer */
  63              		.loc 1 64 9 is_stmt 1 view .LVU8
  65:.//Libraries/CMSIS/DSP/Source/FilteringFunctions/arm_iir_lattice_q15.c ****         q63_t acc;                                     /* Accumlator */
  64              		.loc 1 65 9 view .LVU9
  66:.//Libraries/CMSIS/DSP/Source/FilteringFunctions/arm_iir_lattice_q15.c ****         q15_t *px1, *px2, *pk, *pv;                    /* Temporary pointers for state and coef */
  65              		.loc 1 66 9 view .LVU10
  67:.//Libraries/CMSIS/DSP/Source/FilteringFunctions/arm_iir_lattice_q15.c ****         uint32_t numStages = S->numStages;             /* Number of stages */
  66              		.loc 1 67 9 view .LVU11
  68:.//Libraries/CMSIS/DSP/Source/FilteringFunctions/arm_iir_lattice_q15.c ****         uint32_t blkCnt, tapCnt;                       /* Temporary variables for counts */
  67              		.loc 1 68 9 view .LVU12
  68:.//Libraries/CMSIS/DSP/Source/FilteringFunctions/arm_iir_lattice_q15.c ****         uint32_t blkCnt, tapCnt;                       /* Temporary variables for counts */
  68              		.loc 1 68 18 is_stmt 0 view .LVU13
  69 0010 0388     		ldrh	r3, [r0]
  70              	.LVL3:
  69:.//Libraries/CMSIS/DSP/Source/FilteringFunctions/arm_iir_lattice_q15.c ****         q15_t out;                                     /* Temporary variable for output */
  71              		.loc 1 69 9 is_stmt 1 view .LVU14
  70:.//Libraries/CMSIS/DSP/Source/FilteringFunctions/arm_iir_lattice_q15.c **** 
  72              		.loc 1 70 9 view .LVU15
  78:.//Libraries/CMSIS/DSP/Source/FilteringFunctions/arm_iir_lattice_q15.c **** 
  73              		.loc 1 78 3 view .LVU16
  74              		.loc 1 83 3 view .LVU17
  75              		.loc 1 83 9 view .LVU18
  76 0012 002C     		cmp	r4, #0
ARM GAS  /var/folders/wl/rshn8xbx1dsfj1zgryf4g1240000gn/T//ccLQZSWV.s 			page 4


  77 0014 7AD0     		beq	.L2
  78 0016 9346     		mov	fp, r2
  79 0018 5A1E     		subs	r2, r3, #1
  80              	.LVL4:
  81              		.loc 1 83 9 is_stmt 0 view .LVU19
  82 001a 5B00     		lsls	r3, r3, #1
  84:.//Libraries/CMSIS/DSP/Source/FilteringFunctions/arm_iir_lattice_q15.c ****   {
  85:.//Libraries/CMSIS/DSP/Source/FilteringFunctions/arm_iir_lattice_q15.c ****     /* Read Sample from input buffer */
  86:.//Libraries/CMSIS/DSP/Source/FilteringFunctions/arm_iir_lattice_q15.c ****     /* fN(n) = x(n) */
  87:.//Libraries/CMSIS/DSP/Source/FilteringFunctions/arm_iir_lattice_q15.c ****     fcurr = *pSrc++;
  88:.//Libraries/CMSIS/DSP/Source/FilteringFunctions/arm_iir_lattice_q15.c **** 
  89:.//Libraries/CMSIS/DSP/Source/FilteringFunctions/arm_iir_lattice_q15.c ****     /* Initialize Ladder coeff pointer */
  90:.//Libraries/CMSIS/DSP/Source/FilteringFunctions/arm_iir_lattice_q15.c ****     pv = &S->pvCoeffs[0];
  83              		.loc 1 90 8 view .LVU20
  84 001c C568     		ldr	r5, [r0, #12]
  91:.//Libraries/CMSIS/DSP/Source/FilteringFunctions/arm_iir_lattice_q15.c **** 
  92:.//Libraries/CMSIS/DSP/Source/FilteringFunctions/arm_iir_lattice_q15.c ****     /* Initialize Reflection coeff pointer */
  93:.//Libraries/CMSIS/DSP/Source/FilteringFunctions/arm_iir_lattice_q15.c ****     pk = &S->pkCoeffs[0];
  85              		.loc 1 93 8 view .LVU21
  86 001e 8068     		ldr	r0, [r0, #8]
  87              	.LVL5:
  63:.//Libraries/CMSIS/DSP/Source/FilteringFunctions/arm_iir_lattice_q15.c ****         q15_t *pStateCur;                              /* State current pointer */
  88              		.loc 1 63 16 view .LVU22
  89 0020 8A46     		mov	r10, r1
  90 0022 023B     		subs	r3, r3, #2
  90:.//Libraries/CMSIS/DSP/Source/FilteringFunctions/arm_iir_lattice_q15.c **** 
  91              		.loc 1 90 8 view .LVU23
  92 0024 0295     		str	r5, [sp, #8]
  94:.//Libraries/CMSIS/DSP/Source/FilteringFunctions/arm_iir_lattice_q15.c **** 
  95:.//Libraries/CMSIS/DSP/Source/FilteringFunctions/arm_iir_lattice_q15.c ****     /* Initialize state read pointer */
  96:.//Libraries/CMSIS/DSP/Source/FilteringFunctions/arm_iir_lattice_q15.c ****     px1 = pState;
  97:.//Libraries/CMSIS/DSP/Source/FilteringFunctions/arm_iir_lattice_q15.c **** 
  98:.//Libraries/CMSIS/DSP/Source/FilteringFunctions/arm_iir_lattice_q15.c ****     /* Initialize state write pointer */
  99:.//Libraries/CMSIS/DSP/Source/FilteringFunctions/arm_iir_lattice_q15.c ****     px2 = pState;
 100:.//Libraries/CMSIS/DSP/Source/FilteringFunctions/arm_iir_lattice_q15.c **** 
 101:.//Libraries/CMSIS/DSP/Source/FilteringFunctions/arm_iir_lattice_q15.c ****     /* Set accumulator to zero */
 102:.//Libraries/CMSIS/DSP/Source/FilteringFunctions/arm_iir_lattice_q15.c ****     acc = 0;
 103:.//Libraries/CMSIS/DSP/Source/FilteringFunctions/arm_iir_lattice_q15.c **** 
 104:.//Libraries/CMSIS/DSP/Source/FilteringFunctions/arm_iir_lattice_q15.c ****     /* Process sample for first tap */
 105:.//Libraries/CMSIS/DSP/Source/FilteringFunctions/arm_iir_lattice_q15.c ****     gcurr = *px1++;
 106:.//Libraries/CMSIS/DSP/Source/FilteringFunctions/arm_iir_lattice_q15.c ****     /* fN-1(n) = fN(n) - kN * gN-1(n-1) */
 107:.//Libraries/CMSIS/DSP/Source/FilteringFunctions/arm_iir_lattice_q15.c ****     fnext = fcurr - (((q31_t) gcurr * (*pk)) >> 15);
 108:.//Libraries/CMSIS/DSP/Source/FilteringFunctions/arm_iir_lattice_q15.c ****     fnext = __SSAT(fnext, 16);
 109:.//Libraries/CMSIS/DSP/Source/FilteringFunctions/arm_iir_lattice_q15.c **** 
 110:.//Libraries/CMSIS/DSP/Source/FilteringFunctions/arm_iir_lattice_q15.c ****     /* gN(n) = kN * fN-1(n) + gN-1(n-1) */
 111:.//Libraries/CMSIS/DSP/Source/FilteringFunctions/arm_iir_lattice_q15.c ****     gnext = (((q31_t) fnext * (*pk++)) >> 15) + gcurr;
 112:.//Libraries/CMSIS/DSP/Source/FilteringFunctions/arm_iir_lattice_q15.c ****     gnext = __SSAT(gnext, 16);
 113:.//Libraries/CMSIS/DSP/Source/FilteringFunctions/arm_iir_lattice_q15.c **** 
 114:.//Libraries/CMSIS/DSP/Source/FilteringFunctions/arm_iir_lattice_q15.c ****     /* write gN(n) into state for next sample processing */
 115:.//Libraries/CMSIS/DSP/Source/FilteringFunctions/arm_iir_lattice_q15.c ****     *px2++ = (q15_t) gnext;
 116:.//Libraries/CMSIS/DSP/Source/FilteringFunctions/arm_iir_lattice_q15.c **** 
 117:.//Libraries/CMSIS/DSP/Source/FilteringFunctions/arm_iir_lattice_q15.c ****     /* y(n) += gN(n) * vN */
 118:.//Libraries/CMSIS/DSP/Source/FilteringFunctions/arm_iir_lattice_q15.c ****     acc += (q31_t) ((gnext * (*pv++)));
  93              		.loc 1 118 34 view .LVU24
  94 0026 0235     		adds	r5, r5, #2
  93:.//Libraries/CMSIS/DSP/Source/FilteringFunctions/arm_iir_lattice_q15.c **** 
  95              		.loc 1 93 8 view .LVU25
ARM GAS  /var/folders/wl/rshn8xbx1dsfj1zgryf4g1240000gn/T//ccLQZSWV.s 			page 5


  96 0028 0390     		str	r0, [sp, #12]
  97 002a 0793     		str	r3, [sp, #28]
 111:.//Libraries/CMSIS/DSP/Source/FilteringFunctions/arm_iir_lattice_q15.c ****     gnext = __SSAT(gnext, 16);
  98              		.loc 1 111 35 view .LVU26
  99 002c 831C     		adds	r3, r0, #2
 100              		.loc 1 118 34 view .LVU27
 101 002e 0495     		str	r5, [sp, #16]
 111:.//Libraries/CMSIS/DSP/Source/FilteringFunctions/arm_iir_lattice_q15.c ****     gnext = __SSAT(gnext, 16);
 102              		.loc 1 111 35 view .LVU28
 103 0030 0593     		str	r3, [sp, #20]
 104 0032 05EB4203 		add	r3, r5, r2, lsl #1
 105              		.loc 1 118 34 view .LVU29
 106 0036 0194     		str	r4, [sp, #4]
 107 0038 0693     		str	r3, [sp, #24]
 108              	.LVL6:
 109              	.L5:
  87:.//Libraries/CMSIS/DSP/Source/FilteringFunctions/arm_iir_lattice_q15.c **** 
 110              		.loc 1 87 5 is_stmt 1 view .LVU30
  90:.//Libraries/CMSIS/DSP/Source/FilteringFunctions/arm_iir_lattice_q15.c **** 
 111              		.loc 1 90 5 view .LVU31
  93:.//Libraries/CMSIS/DSP/Source/FilteringFunctions/arm_iir_lattice_q15.c **** 
 112              		.loc 1 93 5 view .LVU32
  96:.//Libraries/CMSIS/DSP/Source/FilteringFunctions/arm_iir_lattice_q15.c **** 
 113              		.loc 1 96 5 view .LVU33
  99:.//Libraries/CMSIS/DSP/Source/FilteringFunctions/arm_iir_lattice_q15.c **** 
 114              		.loc 1 99 5 view .LVU34
 102:.//Libraries/CMSIS/DSP/Source/FilteringFunctions/arm_iir_lattice_q15.c **** 
 115              		.loc 1 102 5 view .LVU35
 105:.//Libraries/CMSIS/DSP/Source/FilteringFunctions/arm_iir_lattice_q15.c ****     /* fN-1(n) = fN(n) - kN * gN-1(n-1) */
 116              		.loc 1 105 5 view .LVU36
  87:.//Libraries/CMSIS/DSP/Source/FilteringFunctions/arm_iir_lattice_q15.c **** 
 117              		.loc 1 87 11 is_stmt 0 view .LVU37
 118 003a 009C     		ldr	r4, [sp]
 107:.//Libraries/CMSIS/DSP/Source/FilteringFunctions/arm_iir_lattice_q15.c ****     fnext = __SSAT(fnext, 16);
 119              		.loc 1 107 40 view .LVU38
 120 003c 0399     		ldr	r1, [sp, #12]
 105:.//Libraries/CMSIS/DSP/Source/FilteringFunctions/arm_iir_lattice_q15.c ****     /* fN-1(n) = fN(n) - kN * gN-1(n-1) */
 121              		.loc 1 105 13 view .LVU39
 122 003e 3AF9023B 		ldrsh	r3, [r10], #2
 123              	.LVL7:
 107:.//Libraries/CMSIS/DSP/Source/FilteringFunctions/arm_iir_lattice_q15.c ****     fnext = __SSAT(fnext, 16);
 124              		.loc 1 107 5 is_stmt 1 view .LVU40
 107:.//Libraries/CMSIS/DSP/Source/FilteringFunctions/arm_iir_lattice_q15.c ****     fnext = __SSAT(fnext, 16);
 125              		.loc 1 107 40 is_stmt 0 view .LVU41
 126 0042 B1F90000 		ldrsh	r0, [r1]
 127              	.LVL8:
 108:.//Libraries/CMSIS/DSP/Source/FilteringFunctions/arm_iir_lattice_q15.c **** 
 128              		.loc 1 108 5 is_stmt 1 view .LVU42
 129              	.LBB2:
 108:.//Libraries/CMSIS/DSP/Source/FilteringFunctions/arm_iir_lattice_q15.c **** 
 130              		.loc 1 108 13 view .LVU43
 108:.//Libraries/CMSIS/DSP/Source/FilteringFunctions/arm_iir_lattice_q15.c **** 
 131              		.loc 1 108 13 view .LVU44
 132              	.LBE2:
  87:.//Libraries/CMSIS/DSP/Source/FilteringFunctions/arm_iir_lattice_q15.c **** 
 133              		.loc 1 87 11 is_stmt 0 view .LVU45
 134 0046 34F9021B 		ldrsh	r1, [r4], #2
ARM GAS  /var/folders/wl/rshn8xbx1dsfj1zgryf4g1240000gn/T//ccLQZSWV.s 			page 6


 135              	.LVL9:
  87:.//Libraries/CMSIS/DSP/Source/FilteringFunctions/arm_iir_lattice_q15.c **** 
 136              		.loc 1 87 11 view .LVU46
 137 004a 0094     		str	r4, [sp]
 138              	.LVL10:
 107:.//Libraries/CMSIS/DSP/Source/FilteringFunctions/arm_iir_lattice_q15.c ****     fnext = __SSAT(fnext, 16);
 139              		.loc 1 107 37 view .LVU47
 140 004c 00FB03F4 		mul	r4, r0, r3
 141              	.LVL11:
 107:.//Libraries/CMSIS/DSP/Source/FilteringFunctions/arm_iir_lattice_q15.c ****     fnext = __SSAT(fnext, 16);
 142              		.loc 1 107 11 view .LVU48
 143 0050 A1EBE431 		sub	r1, r1, r4, asr #15
 144              	.LVL12:
 145              	.LBB3:
 108:.//Libraries/CMSIS/DSP/Source/FilteringFunctions/arm_iir_lattice_q15.c **** 
 146              		.loc 1 108 13 view .LVU49
 147              		.syntax unified
 148              	@ 108 ".//Libraries/CMSIS/DSP/Source/FilteringFunctions/arm_iir_lattice_q15.c" 1
 149 0054 01F30F01 		ssat r1, #16, r1
 150              	@ 0 "" 2
 151              	.LVL13:
 108:.//Libraries/CMSIS/DSP/Source/FilteringFunctions/arm_iir_lattice_q15.c **** 
 152              		.loc 1 108 13 is_stmt 1 view .LVU50
 108:.//Libraries/CMSIS/DSP/Source/FilteringFunctions/arm_iir_lattice_q15.c **** 
 153              		.loc 1 108 13 is_stmt 0 view .LVU51
 154              		.thumb
 155              		.syntax unified
 156              	.LBE3:
 111:.//Libraries/CMSIS/DSP/Source/FilteringFunctions/arm_iir_lattice_q15.c ****     gnext = __SSAT(gnext, 16);
 157              		.loc 1 111 5 is_stmt 1 view .LVU52
 112:.//Libraries/CMSIS/DSP/Source/FilteringFunctions/arm_iir_lattice_q15.c **** 
 158              		.loc 1 112 5 view .LVU53
 159              	.LBB4:
 112:.//Libraries/CMSIS/DSP/Source/FilteringFunctions/arm_iir_lattice_q15.c **** 
 160              		.loc 1 112 13 view .LVU54
 112:.//Libraries/CMSIS/DSP/Source/FilteringFunctions/arm_iir_lattice_q15.c **** 
 161              		.loc 1 112 13 view .LVU55
 162              	.LBE4:
 111:.//Libraries/CMSIS/DSP/Source/FilteringFunctions/arm_iir_lattice_q15.c ****     gnext = __SSAT(gnext, 16);
 163              		.loc 1 111 29 is_stmt 0 view .LVU56
 164 0058 01FB00F0 		mul	r0, r1, r0
 165              	.LVL14:
 111:.//Libraries/CMSIS/DSP/Source/FilteringFunctions/arm_iir_lattice_q15.c ****     gnext = __SSAT(gnext, 16);
 166              		.loc 1 111 11 view .LVU57
 167 005c 03EBE033 		add	r3, r3, r0, asr #15
 168              	.LVL15:
 169              		.loc 1 118 31 view .LVU58
 170 0060 0298     		ldr	r0, [sp, #8]
 171              	.LBB5:
 112:.//Libraries/CMSIS/DSP/Source/FilteringFunctions/arm_iir_lattice_q15.c **** 
 172              		.loc 1 112 13 view .LVU59
 173              		.syntax unified
 174              	@ 112 ".//Libraries/CMSIS/DSP/Source/FilteringFunctions/arm_iir_lattice_q15.c" 1
 175 0062 03F30F03 		ssat r3, #16, r3
 176              	@ 0 "" 2
 177              	.LVL16:
 112:.//Libraries/CMSIS/DSP/Source/FilteringFunctions/arm_iir_lattice_q15.c **** 
ARM GAS  /var/folders/wl/rshn8xbx1dsfj1zgryf4g1240000gn/T//ccLQZSWV.s 			page 7


 178              		.loc 1 112 13 is_stmt 1 view .LVU60
 112:.//Libraries/CMSIS/DSP/Source/FilteringFunctions/arm_iir_lattice_q15.c **** 
 179              		.loc 1 112 13 is_stmt 0 view .LVU61
 180              		.thumb
 181              		.syntax unified
 182              	.LBE5:
 115:.//Libraries/CMSIS/DSP/Source/FilteringFunctions/arm_iir_lattice_q15.c **** 
 183              		.loc 1 115 5 is_stmt 1 view .LVU62
 115:.//Libraries/CMSIS/DSP/Source/FilteringFunctions/arm_iir_lattice_q15.c **** 
 184              		.loc 1 115 14 is_stmt 0 view .LVU63
 185 0066 2AF8023C 		strh	r3, [r10, #-2]	@ movhi
 186              	.LVL17:
 187              		.loc 1 118 5 is_stmt 1 view .LVU64
 188              		.loc 1 118 31 is_stmt 0 view .LVU65
 189 006a B0F90060 		ldrsh	r6, [r0]
 190              		.loc 1 118 12 view .LVU66
 191 006e 03FB06F3 		mul	r3, r3, r6
 192              	.LVL18:
 193              		.loc 1 118 12 view .LVU67
 194 0072 1E46     		mov	r6, r3
 195 0074 DF17     		asrs	r7, r3, #31
 196              	.LVL19:
 119:.//Libraries/CMSIS/DSP/Source/FilteringFunctions/arm_iir_lattice_q15.c **** 
 120:.//Libraries/CMSIS/DSP/Source/FilteringFunctions/arm_iir_lattice_q15.c ****     /* Update f values for next coefficient processing */
 121:.//Libraries/CMSIS/DSP/Source/FilteringFunctions/arm_iir_lattice_q15.c ****     fcurr = fnext;
 197              		.loc 1 121 5 is_stmt 1 view .LVU68
 122:.//Libraries/CMSIS/DSP/Source/FilteringFunctions/arm_iir_lattice_q15.c **** 
 123:.//Libraries/CMSIS/DSP/Source/FilteringFunctions/arm_iir_lattice_q15.c **** 
 124:.//Libraries/CMSIS/DSP/Source/FilteringFunctions/arm_iir_lattice_q15.c **** #if defined (ARM_MATH_LOOPUNROLL)
 125:.//Libraries/CMSIS/DSP/Source/FilteringFunctions/arm_iir_lattice_q15.c **** 
 126:.//Libraries/CMSIS/DSP/Source/FilteringFunctions/arm_iir_lattice_q15.c ****     /* Loop unrolling: Compute 4 taps at a time. */
 127:.//Libraries/CMSIS/DSP/Source/FilteringFunctions/arm_iir_lattice_q15.c ****     tapCnt = (numStages - 1U) >> 2U;
 128:.//Libraries/CMSIS/DSP/Source/FilteringFunctions/arm_iir_lattice_q15.c **** 
 129:.//Libraries/CMSIS/DSP/Source/FilteringFunctions/arm_iir_lattice_q15.c ****     while (tapCnt > 0U)
 130:.//Libraries/CMSIS/DSP/Source/FilteringFunctions/arm_iir_lattice_q15.c ****     {
 131:.//Libraries/CMSIS/DSP/Source/FilteringFunctions/arm_iir_lattice_q15.c ****       /* Process sample for 2nd, 6th ...taps */
 132:.//Libraries/CMSIS/DSP/Source/FilteringFunctions/arm_iir_lattice_q15.c ****       /* Read gN-2(n-1) from state buffer */
 133:.//Libraries/CMSIS/DSP/Source/FilteringFunctions/arm_iir_lattice_q15.c ****       gcurr = *px1++;
 134:.//Libraries/CMSIS/DSP/Source/FilteringFunctions/arm_iir_lattice_q15.c ****       /* fN-2(n) = fN-1(n) - kN-1 * gN-2(n-1) */
 135:.//Libraries/CMSIS/DSP/Source/FilteringFunctions/arm_iir_lattice_q15.c ****       fnext = fcurr - (((q31_t) gcurr * (*pk)) >> 15);
 136:.//Libraries/CMSIS/DSP/Source/FilteringFunctions/arm_iir_lattice_q15.c ****       fnext = __SSAT(fnext, 16);
 137:.//Libraries/CMSIS/DSP/Source/FilteringFunctions/arm_iir_lattice_q15.c ****       /* gN-1(n) = kN-1 * fN-2(n) + gN-2(n-1) */
 138:.//Libraries/CMSIS/DSP/Source/FilteringFunctions/arm_iir_lattice_q15.c ****       gnext = (((q31_t) fnext * (*pk++)) >> 15) + gcurr;
 139:.//Libraries/CMSIS/DSP/Source/FilteringFunctions/arm_iir_lattice_q15.c ****       gnext1 = (q15_t) __SSAT(gnext, 16);
 140:.//Libraries/CMSIS/DSP/Source/FilteringFunctions/arm_iir_lattice_q15.c ****       /* write gN-1(n) into state for next sample processing */
 141:.//Libraries/CMSIS/DSP/Source/FilteringFunctions/arm_iir_lattice_q15.c ****       *px2++ = (q15_t) gnext1;
 142:.//Libraries/CMSIS/DSP/Source/FilteringFunctions/arm_iir_lattice_q15.c **** 
 143:.//Libraries/CMSIS/DSP/Source/FilteringFunctions/arm_iir_lattice_q15.c ****       /* Process sample for 3nd, 7th ...taps */
 144:.//Libraries/CMSIS/DSP/Source/FilteringFunctions/arm_iir_lattice_q15.c ****       /* Read gN-3(n-1) from state buffer */
 145:.//Libraries/CMSIS/DSP/Source/FilteringFunctions/arm_iir_lattice_q15.c ****       gcurr = *px1++;
 146:.//Libraries/CMSIS/DSP/Source/FilteringFunctions/arm_iir_lattice_q15.c ****       /* Process sample for 3rd, 7th .. taps */
 147:.//Libraries/CMSIS/DSP/Source/FilteringFunctions/arm_iir_lattice_q15.c ****       /* fN-3(n) = fN-2(n) - kN-2 * gN-3(n-1) */
 148:.//Libraries/CMSIS/DSP/Source/FilteringFunctions/arm_iir_lattice_q15.c ****       fcurr = fnext - (((q31_t) gcurr * (*pk)) >> 15);
 149:.//Libraries/CMSIS/DSP/Source/FilteringFunctions/arm_iir_lattice_q15.c ****       fcurr = __SSAT(fcurr, 16);
 150:.//Libraries/CMSIS/DSP/Source/FilteringFunctions/arm_iir_lattice_q15.c ****       /* gN-2(n) = kN-2 * fN-3(n) + gN-3(n-1) */
 151:.//Libraries/CMSIS/DSP/Source/FilteringFunctions/arm_iir_lattice_q15.c ****       gnext = (((q31_t) fcurr * (*pk++)) >> 15) + gcurr;
 152:.//Libraries/CMSIS/DSP/Source/FilteringFunctions/arm_iir_lattice_q15.c ****       gnext2 = (q15_t) __SSAT(gnext, 16);
ARM GAS  /var/folders/wl/rshn8xbx1dsfj1zgryf4g1240000gn/T//ccLQZSWV.s 			page 8


 153:.//Libraries/CMSIS/DSP/Source/FilteringFunctions/arm_iir_lattice_q15.c ****       /* write gN-2(n) into state */
 154:.//Libraries/CMSIS/DSP/Source/FilteringFunctions/arm_iir_lattice_q15.c ****       *px2++ = (q15_t) gnext2;
 155:.//Libraries/CMSIS/DSP/Source/FilteringFunctions/arm_iir_lattice_q15.c **** 
 156:.//Libraries/CMSIS/DSP/Source/FilteringFunctions/arm_iir_lattice_q15.c ****       /* Read vN-1 and vN-2 at a time */
 157:.//Libraries/CMSIS/DSP/Source/FilteringFunctions/arm_iir_lattice_q15.c ****       v = read_q15x2_ia (&pv);
 158:.//Libraries/CMSIS/DSP/Source/FilteringFunctions/arm_iir_lattice_q15.c **** 
 159:.//Libraries/CMSIS/DSP/Source/FilteringFunctions/arm_iir_lattice_q15.c ****       /* Pack gN-1(n) and gN-2(n) */
 160:.//Libraries/CMSIS/DSP/Source/FilteringFunctions/arm_iir_lattice_q15.c **** 
 161:.//Libraries/CMSIS/DSP/Source/FilteringFunctions/arm_iir_lattice_q15.c **** #ifndef  ARM_MATH_BIG_ENDIAN
 162:.//Libraries/CMSIS/DSP/Source/FilteringFunctions/arm_iir_lattice_q15.c ****       gnext = __PKHBT(gnext1, gnext2, 16);
 163:.//Libraries/CMSIS/DSP/Source/FilteringFunctions/arm_iir_lattice_q15.c **** #else
 164:.//Libraries/CMSIS/DSP/Source/FilteringFunctions/arm_iir_lattice_q15.c ****       gnext = __PKHBT(gnext2, gnext1, 16);
 165:.//Libraries/CMSIS/DSP/Source/FilteringFunctions/arm_iir_lattice_q15.c **** #endif /* #ifndef  ARM_MATH_BIG_ENDIAN */
 166:.//Libraries/CMSIS/DSP/Source/FilteringFunctions/arm_iir_lattice_q15.c **** 
 167:.//Libraries/CMSIS/DSP/Source/FilteringFunctions/arm_iir_lattice_q15.c ****       /* y(n) += gN-1(n) * vN-1  */
 168:.//Libraries/CMSIS/DSP/Source/FilteringFunctions/arm_iir_lattice_q15.c ****       /* process for gN-5(n) * vN-5, gN-9(n) * vN-9 ... */
 169:.//Libraries/CMSIS/DSP/Source/FilteringFunctions/arm_iir_lattice_q15.c ****       /* y(n) += gN-2(n) * vN-2  */
 170:.//Libraries/CMSIS/DSP/Source/FilteringFunctions/arm_iir_lattice_q15.c ****       /* process for gN-6(n) * vN-6, gN-10(n) * vN-10 ... */
 171:.//Libraries/CMSIS/DSP/Source/FilteringFunctions/arm_iir_lattice_q15.c ****       acc = __SMLALD(gnext, v, acc);
 172:.//Libraries/CMSIS/DSP/Source/FilteringFunctions/arm_iir_lattice_q15.c **** 
 173:.//Libraries/CMSIS/DSP/Source/FilteringFunctions/arm_iir_lattice_q15.c ****       /* Process sample for 4th, 8th ...taps */
 174:.//Libraries/CMSIS/DSP/Source/FilteringFunctions/arm_iir_lattice_q15.c ****       /* Read gN-4(n-1) from state buffer */
 175:.//Libraries/CMSIS/DSP/Source/FilteringFunctions/arm_iir_lattice_q15.c ****       gcurr = *px1++;
 176:.//Libraries/CMSIS/DSP/Source/FilteringFunctions/arm_iir_lattice_q15.c ****       /* Process sample for 4th, 8th .. taps */
 177:.//Libraries/CMSIS/DSP/Source/FilteringFunctions/arm_iir_lattice_q15.c ****       /* fN-4(n) = fN-3(n) - kN-3 * gN-4(n-1) */
 178:.//Libraries/CMSIS/DSP/Source/FilteringFunctions/arm_iir_lattice_q15.c ****       fnext = fcurr - (((q31_t) gcurr * (*pk)) >> 15);
 179:.//Libraries/CMSIS/DSP/Source/FilteringFunctions/arm_iir_lattice_q15.c ****       fnext = __SSAT(fnext, 16);
 180:.//Libraries/CMSIS/DSP/Source/FilteringFunctions/arm_iir_lattice_q15.c ****       /* gN-3(n) = kN-3 * fN-1(n) + gN-1(n-1) */
 181:.//Libraries/CMSIS/DSP/Source/FilteringFunctions/arm_iir_lattice_q15.c ****       gnext = (((q31_t) fnext * (*pk++)) >> 15) + gcurr;
 182:.//Libraries/CMSIS/DSP/Source/FilteringFunctions/arm_iir_lattice_q15.c ****       gnext1 = (q15_t) __SSAT(gnext, 16);
 183:.//Libraries/CMSIS/DSP/Source/FilteringFunctions/arm_iir_lattice_q15.c ****       /* write  gN-3(n) for the next sample process */
 184:.//Libraries/CMSIS/DSP/Source/FilteringFunctions/arm_iir_lattice_q15.c ****       *px2++ = (q15_t) gnext1;
 185:.//Libraries/CMSIS/DSP/Source/FilteringFunctions/arm_iir_lattice_q15.c **** 
 186:.//Libraries/CMSIS/DSP/Source/FilteringFunctions/arm_iir_lattice_q15.c ****       /* Process sample for 5th, 9th ...taps */
 187:.//Libraries/CMSIS/DSP/Source/FilteringFunctions/arm_iir_lattice_q15.c ****       /* Read gN-5(n-1) from state buffer */
 188:.//Libraries/CMSIS/DSP/Source/FilteringFunctions/arm_iir_lattice_q15.c ****       gcurr = *px1++;
 189:.//Libraries/CMSIS/DSP/Source/FilteringFunctions/arm_iir_lattice_q15.c ****       /* Process sample for 5th, 9th .. taps */
 190:.//Libraries/CMSIS/DSP/Source/FilteringFunctions/arm_iir_lattice_q15.c ****       /* fN-5(n) = fN-4(n) - kN-4 * gN-5(n-1) */
 191:.//Libraries/CMSIS/DSP/Source/FilteringFunctions/arm_iir_lattice_q15.c ****       fcurr = fnext - (((q31_t) gcurr * (*pk)) >> 15);
 192:.//Libraries/CMSIS/DSP/Source/FilteringFunctions/arm_iir_lattice_q15.c ****       fcurr = __SSAT(fcurr, 16);
 193:.//Libraries/CMSIS/DSP/Source/FilteringFunctions/arm_iir_lattice_q15.c ****       /* gN-4(n) = kN-4 * fN-5(n) + gN-5(n-1) */
 194:.//Libraries/CMSIS/DSP/Source/FilteringFunctions/arm_iir_lattice_q15.c ****       gnext = (((q31_t) fcurr * (*pk++)) >> 15) + gcurr;
 195:.//Libraries/CMSIS/DSP/Source/FilteringFunctions/arm_iir_lattice_q15.c ****       gnext2 = (q15_t) __SSAT(gnext, 16);
 196:.//Libraries/CMSIS/DSP/Source/FilteringFunctions/arm_iir_lattice_q15.c ****       /* write      gN-4(n) for the next sample process */
 197:.//Libraries/CMSIS/DSP/Source/FilteringFunctions/arm_iir_lattice_q15.c ****       *px2++ = (q15_t) gnext2;
 198:.//Libraries/CMSIS/DSP/Source/FilteringFunctions/arm_iir_lattice_q15.c **** 
 199:.//Libraries/CMSIS/DSP/Source/FilteringFunctions/arm_iir_lattice_q15.c ****       /* Read vN-3 and vN-4 at a time */
 200:.//Libraries/CMSIS/DSP/Source/FilteringFunctions/arm_iir_lattice_q15.c ****       v = read_q15x2_ia (&pv);
 201:.//Libraries/CMSIS/DSP/Source/FilteringFunctions/arm_iir_lattice_q15.c **** 
 202:.//Libraries/CMSIS/DSP/Source/FilteringFunctions/arm_iir_lattice_q15.c ****       /* Pack gN-3(n) and gN-4(n) */
 203:.//Libraries/CMSIS/DSP/Source/FilteringFunctions/arm_iir_lattice_q15.c **** #ifndef ARM_MATH_BIG_ENDIAN
 204:.//Libraries/CMSIS/DSP/Source/FilteringFunctions/arm_iir_lattice_q15.c ****       gnext = __PKHBT(gnext1, gnext2, 16);
 205:.//Libraries/CMSIS/DSP/Source/FilteringFunctions/arm_iir_lattice_q15.c **** #else
 206:.//Libraries/CMSIS/DSP/Source/FilteringFunctions/arm_iir_lattice_q15.c ****       gnext = __PKHBT(gnext2, gnext1, 16);
 207:.//Libraries/CMSIS/DSP/Source/FilteringFunctions/arm_iir_lattice_q15.c **** #endif /* #ifndef ARM_MATH_BIG_ENDIAN */
 208:.//Libraries/CMSIS/DSP/Source/FilteringFunctions/arm_iir_lattice_q15.c **** 
 209:.//Libraries/CMSIS/DSP/Source/FilteringFunctions/arm_iir_lattice_q15.c ****       /* y(n) += gN-4(n) * vN-4  */
ARM GAS  /var/folders/wl/rshn8xbx1dsfj1zgryf4g1240000gn/T//ccLQZSWV.s 			page 9


 210:.//Libraries/CMSIS/DSP/Source/FilteringFunctions/arm_iir_lattice_q15.c ****       /* process for gN-8(n) * vN-8, gN-12(n) * vN-12 ... */
 211:.//Libraries/CMSIS/DSP/Source/FilteringFunctions/arm_iir_lattice_q15.c ****       /* y(n) += gN-3(n) * vN-3  */
 212:.//Libraries/CMSIS/DSP/Source/FilteringFunctions/arm_iir_lattice_q15.c ****       /* process for gN-7(n) * vN-7, gN-11(n) * vN-11 ... */
 213:.//Libraries/CMSIS/DSP/Source/FilteringFunctions/arm_iir_lattice_q15.c ****       acc = __SMLALD(gnext, v, acc);
 214:.//Libraries/CMSIS/DSP/Source/FilteringFunctions/arm_iir_lattice_q15.c **** 
 215:.//Libraries/CMSIS/DSP/Source/FilteringFunctions/arm_iir_lattice_q15.c ****       /* Decrement loop counter */
 216:.//Libraries/CMSIS/DSP/Source/FilteringFunctions/arm_iir_lattice_q15.c ****       tapCnt--;
 217:.//Libraries/CMSIS/DSP/Source/FilteringFunctions/arm_iir_lattice_q15.c ****     }
 218:.//Libraries/CMSIS/DSP/Source/FilteringFunctions/arm_iir_lattice_q15.c **** 
 219:.//Libraries/CMSIS/DSP/Source/FilteringFunctions/arm_iir_lattice_q15.c ****     fnext = fcurr;
 220:.//Libraries/CMSIS/DSP/Source/FilteringFunctions/arm_iir_lattice_q15.c **** 
 221:.//Libraries/CMSIS/DSP/Source/FilteringFunctions/arm_iir_lattice_q15.c ****     /* Loop unrolling: Compute remaining taps */
 222:.//Libraries/CMSIS/DSP/Source/FilteringFunctions/arm_iir_lattice_q15.c ****     tapCnt = (numStages - 1U) % 0x4U;
 223:.//Libraries/CMSIS/DSP/Source/FilteringFunctions/arm_iir_lattice_q15.c **** 
 224:.//Libraries/CMSIS/DSP/Source/FilteringFunctions/arm_iir_lattice_q15.c **** #else
 225:.//Libraries/CMSIS/DSP/Source/FilteringFunctions/arm_iir_lattice_q15.c **** 
 226:.//Libraries/CMSIS/DSP/Source/FilteringFunctions/arm_iir_lattice_q15.c ****     /* Initialize blkCnt with number of samples */
 227:.//Libraries/CMSIS/DSP/Source/FilteringFunctions/arm_iir_lattice_q15.c ****     tapCnt = (numStages - 1U);
 198              		.loc 1 227 5 view .LVU69
 228:.//Libraries/CMSIS/DSP/Source/FilteringFunctions/arm_iir_lattice_q15.c **** 
 229:.//Libraries/CMSIS/DSP/Source/FilteringFunctions/arm_iir_lattice_q15.c **** #endif /* #if defined (ARM_MATH_LOOPUNROLL) */
 230:.//Libraries/CMSIS/DSP/Source/FilteringFunctions/arm_iir_lattice_q15.c **** 
 231:.//Libraries/CMSIS/DSP/Source/FilteringFunctions/arm_iir_lattice_q15.c ****     while (tapCnt > 0U)
 199              		.loc 1 231 5 view .LVU70
 200              		.loc 1 231 11 view .LVU71
 201 0076 002A     		cmp	r2, #0
 202 0078 45D0     		beq	.L10
 203 007a 9646     		mov	lr, r2
 204 007c D446     		mov	ip, r10
 111:.//Libraries/CMSIS/DSP/Source/FilteringFunctions/arm_iir_lattice_q15.c ****     gnext = __SSAT(gnext, 16);
 205              		.loc 1 111 35 is_stmt 0 view .LVU72
 206 007e DDE90498 		ldrd	r9, r8, [sp, #16]
 207              	.LVL20:
 208              	.L4:
 232:.//Libraries/CMSIS/DSP/Source/FilteringFunctions/arm_iir_lattice_q15.c ****     {
 233:.//Libraries/CMSIS/DSP/Source/FilteringFunctions/arm_iir_lattice_q15.c ****       gcurr = *px1++;
 209              		.loc 1 233 7 is_stmt 1 view .LVU73
 210              		.loc 1 233 15 is_stmt 0 view .LVU74
 211 0082 3CF9023B 		ldrsh	r3, [ip], #2
 212              	.LVL21:
 234:.//Libraries/CMSIS/DSP/Source/FilteringFunctions/arm_iir_lattice_q15.c ****       /* Process sample for last taps */
 235:.//Libraries/CMSIS/DSP/Source/FilteringFunctions/arm_iir_lattice_q15.c ****       fnext = fcurr - (((q31_t) gcurr * (*pk)) >> 15);
 213              		.loc 1 235 7 is_stmt 1 view .LVU75
 214              		.loc 1 235 42 is_stmt 0 view .LVU76
 215 0086 38F9020B 		ldrsh	r0, [r8], #2
 216              	.LVL22:
 236:.//Libraries/CMSIS/DSP/Source/FilteringFunctions/arm_iir_lattice_q15.c ****       fnext = __SSAT(fnext, 16);
 217              		.loc 1 236 7 is_stmt 1 view .LVU77
 218              	.LBB6:
 219              		.loc 1 236 15 view .LVU78
 220              		.loc 1 236 15 view .LVU79
 221              	.LBE6:
 237:.//Libraries/CMSIS/DSP/Source/FilteringFunctions/arm_iir_lattice_q15.c ****       gnext = (((q31_t) fnext * (*pk++)) >> 15) + gcurr;
 238:.//Libraries/CMSIS/DSP/Source/FilteringFunctions/arm_iir_lattice_q15.c ****       gnext = __SSAT(gnext, 16);
 239:.//Libraries/CMSIS/DSP/Source/FilteringFunctions/arm_iir_lattice_q15.c **** 
 240:.//Libraries/CMSIS/DSP/Source/FilteringFunctions/arm_iir_lattice_q15.c ****       /* Output samples for last taps */
 241:.//Libraries/CMSIS/DSP/Source/FilteringFunctions/arm_iir_lattice_q15.c ****       acc += (q31_t) (((q31_t) gnext * (*pv++)));
ARM GAS  /var/folders/wl/rshn8xbx1dsfj1zgryf4g1240000gn/T//ccLQZSWV.s 			page 10


 222              		.loc 1 241 41 is_stmt 0 view .LVU80
 223 008a 39F9024B 		ldrsh	r4, [r9], #2
 224              	.LVL23:
 235:.//Libraries/CMSIS/DSP/Source/FilteringFunctions/arm_iir_lattice_q15.c ****       fnext = __SSAT(fnext, 16);
 225              		.loc 1 235 39 view .LVU81
 226 008e 00FB03F5 		mul	r5, r0, r3
 235:.//Libraries/CMSIS/DSP/Source/FilteringFunctions/arm_iir_lattice_q15.c ****       fnext = __SSAT(fnext, 16);
 227              		.loc 1 235 13 view .LVU82
 228 0092 A1EBE531 		sub	r1, r1, r5, asr #15
 229              	.LVL24:
 230              	.LBB7:
 236:.//Libraries/CMSIS/DSP/Source/FilteringFunctions/arm_iir_lattice_q15.c ****       fnext = __SSAT(fnext, 16);
 231              		.loc 1 236 15 view .LVU83
 232              		.syntax unified
 233              	@ 236 ".//Libraries/CMSIS/DSP/Source/FilteringFunctions/arm_iir_lattice_q15.c" 1
 234 0096 01F30F01 		ssat r1, #16, r1
 235              	@ 0 "" 2
 236              	.LVL25:
 236:.//Libraries/CMSIS/DSP/Source/FilteringFunctions/arm_iir_lattice_q15.c ****       fnext = __SSAT(fnext, 16);
 237              		.loc 1 236 15 is_stmt 1 view .LVU84
 236:.//Libraries/CMSIS/DSP/Source/FilteringFunctions/arm_iir_lattice_q15.c ****       fnext = __SSAT(fnext, 16);
 238              		.loc 1 236 15 is_stmt 0 view .LVU85
 239              		.thumb
 240              		.syntax unified
 241              	.LBE7:
 237:.//Libraries/CMSIS/DSP/Source/FilteringFunctions/arm_iir_lattice_q15.c ****       gnext = (((q31_t) fnext * (*pk++)) >> 15) + gcurr;
 242              		.loc 1 237 7 is_stmt 1 view .LVU86
 238:.//Libraries/CMSIS/DSP/Source/FilteringFunctions/arm_iir_lattice_q15.c **** 
 243              		.loc 1 238 7 view .LVU87
 244              	.LBB8:
 238:.//Libraries/CMSIS/DSP/Source/FilteringFunctions/arm_iir_lattice_q15.c **** 
 245              		.loc 1 238 15 view .LVU88
 238:.//Libraries/CMSIS/DSP/Source/FilteringFunctions/arm_iir_lattice_q15.c **** 
 246              		.loc 1 238 15 view .LVU89
 247              	.LBE8:
 237:.//Libraries/CMSIS/DSP/Source/FilteringFunctions/arm_iir_lattice_q15.c ****       gnext = (((q31_t) fnext * (*pk++)) >> 15) + gcurr;
 248              		.loc 1 237 31 is_stmt 0 view .LVU90
 249 009a 01FB00F0 		mul	r0, r1, r0
 250              	.LVL26:
 237:.//Libraries/CMSIS/DSP/Source/FilteringFunctions/arm_iir_lattice_q15.c ****       gnext = (((q31_t) fnext * (*pk++)) >> 15) + gcurr;
 251              		.loc 1 237 13 view .LVU91
 252 009e 03EBE033 		add	r3, r3, r0, asr #15
 253              	.LVL27:
 254              	.LBB9:
 238:.//Libraries/CMSIS/DSP/Source/FilteringFunctions/arm_iir_lattice_q15.c **** 
 255              		.loc 1 238 15 view .LVU92
 256              		.syntax unified
 257              	@ 238 ".//Libraries/CMSIS/DSP/Source/FilteringFunctions/arm_iir_lattice_q15.c" 1
 258 00a2 03F30F03 		ssat r3, #16, r3
 259              	@ 0 "" 2
 260              	.LVL28:
 238:.//Libraries/CMSIS/DSP/Source/FilteringFunctions/arm_iir_lattice_q15.c **** 
 261              		.loc 1 238 15 is_stmt 1 view .LVU93
 238:.//Libraries/CMSIS/DSP/Source/FilteringFunctions/arm_iir_lattice_q15.c **** 
 262              		.loc 1 238 15 is_stmt 0 view .LVU94
 263              		.thumb
 264              		.syntax unified
ARM GAS  /var/folders/wl/rshn8xbx1dsfj1zgryf4g1240000gn/T//ccLQZSWV.s 			page 11


 265              	.LBE9:
 266              		.loc 1 241 7 is_stmt 1 view .LVU95
 267              		.loc 1 241 14 is_stmt 0 view .LVU96
 268 00a6 03FB04F4 		mul	r4, r3, r4
 242:.//Libraries/CMSIS/DSP/Source/FilteringFunctions/arm_iir_lattice_q15.c ****       *px2++ = (q15_t) gnext;
 269              		.loc 1 242 16 view .LVU97
 270 00aa 2CF8023C 		strh	r3, [ip, #-2]	@ movhi
 271              	.LVL29:
 241:.//Libraries/CMSIS/DSP/Source/FilteringFunctions/arm_iir_lattice_q15.c ****       *px2++ = (q15_t) gnext;
 272              		.loc 1 241 11 view .LVU98
 273 00ae 3619     		adds	r6, r6, r4
 274              	.LVL30:
 241:.//Libraries/CMSIS/DSP/Source/FilteringFunctions/arm_iir_lattice_q15.c ****       *px2++ = (q15_t) gnext;
 275              		.loc 1 241 11 view .LVU99
 276 00b0 47EBE477 		adc	r7, r7, r4, asr #31
 277              	.LVL31:
 278              		.loc 1 242 7 is_stmt 1 view .LVU100
 243:.//Libraries/CMSIS/DSP/Source/FilteringFunctions/arm_iir_lattice_q15.c ****       fcurr = fnext;
 279              		.loc 1 243 7 view .LVU101
 244:.//Libraries/CMSIS/DSP/Source/FilteringFunctions/arm_iir_lattice_q15.c **** 
 245:.//Libraries/CMSIS/DSP/Source/FilteringFunctions/arm_iir_lattice_q15.c ****       /* Decrement loop counter */
 246:.//Libraries/CMSIS/DSP/Source/FilteringFunctions/arm_iir_lattice_q15.c ****       tapCnt--;
 280              		.loc 1 246 7 view .LVU102
 231:.//Libraries/CMSIS/DSP/Source/FilteringFunctions/arm_iir_lattice_q15.c ****     {
 281              		.loc 1 231 11 view .LVU103
 282 00b4 BEF1010E 		subs	lr, lr, #1
 283              	.LVL32:
 231:.//Libraries/CMSIS/DSP/Source/FilteringFunctions/arm_iir_lattice_q15.c ****     {
 284              		.loc 1 231 11 is_stmt 0 view .LVU104
 285 00b8 E3D1     		bne	.L4
 286 00ba 079B     		ldr	r3, [sp, #28]
 287              	.LVL33:
 231:.//Libraries/CMSIS/DSP/Source/FilteringFunctions/arm_iir_lattice_q15.c ****     {
 288              		.loc 1 231 11 view .LVU105
 289 00bc 0AEB0300 		add	r0, r10, r3
 241:.//Libraries/CMSIS/DSP/Source/FilteringFunctions/arm_iir_lattice_q15.c ****       *px2++ = (q15_t) gnext;
 290              		.loc 1 241 44 view .LVU106
 291 00c0 069B     		ldr	r3, [sp, #24]
 292              	.LVL34:
 293              	.L3:
 247:.//Libraries/CMSIS/DSP/Source/FilteringFunctions/arm_iir_lattice_q15.c ****     }
 248:.//Libraries/CMSIS/DSP/Source/FilteringFunctions/arm_iir_lattice_q15.c **** 
 249:.//Libraries/CMSIS/DSP/Source/FilteringFunctions/arm_iir_lattice_q15.c ****     /* y(n) += g0(n) * v0 */
 250:.//Libraries/CMSIS/DSP/Source/FilteringFunctions/arm_iir_lattice_q15.c ****     acc += (q31_t) (((q31_t) fnext * (*pv++)));
 294              		.loc 1 250 5 is_stmt 1 view .LVU107
 251:.//Libraries/CMSIS/DSP/Source/FilteringFunctions/arm_iir_lattice_q15.c **** 
 252:.//Libraries/CMSIS/DSP/Source/FilteringFunctions/arm_iir_lattice_q15.c ****     out = (q15_t) __SSAT(acc >> 15, 16);
 295              		.loc 1 252 5 view .LVU108
 296              	.LBB10:
 297              		.loc 1 252 19 view .LVU109
 298              		.loc 1 252 19 view .LVU110
 299              	.LBE10:
 250:.//Libraries/CMSIS/DSP/Source/FilteringFunctions/arm_iir_lattice_q15.c **** 
 300              		.loc 1 250 39 is_stmt 0 view .LVU111
 301 00c2 B3F90030 		ldrsh	r3, [r3]
 302              	.LVL35:
 253:.//Libraries/CMSIS/DSP/Source/FilteringFunctions/arm_iir_lattice_q15.c ****     *px2++ = (q15_t) fnext;
ARM GAS  /var/folders/wl/rshn8xbx1dsfj1zgryf4g1240000gn/T//ccLQZSWV.s 			page 12


 303              		.loc 1 253 14 view .LVU112
 304 00c6 0180     		strh	r1, [r0]	@ movhi
 250:.//Libraries/CMSIS/DSP/Source/FilteringFunctions/arm_iir_lattice_q15.c **** 
 305              		.loc 1 250 12 view .LVU113
 306 00c8 01FB03F1 		mul	r1, r1, r3
 307              	.LVL36:
 250:.//Libraries/CMSIS/DSP/Source/FilteringFunctions/arm_iir_lattice_q15.c **** 
 308              		.loc 1 250 9 view .LVU114
 309 00cc 7618     		adds	r6, r6, r1
 310              	.LVL37:
 250:.//Libraries/CMSIS/DSP/Source/FilteringFunctions/arm_iir_lattice_q15.c **** 
 311              		.loc 1 250 9 view .LVU115
 312 00ce 47EBE177 		adc	r7, r7, r1, asr #31
 313              	.LBB11:
 252:.//Libraries/CMSIS/DSP/Source/FilteringFunctions/arm_iir_lattice_q15.c ****     *px2++ = (q15_t) fnext;
 314              		.loc 1 252 19 view .LVU116
 315 00d2 F30B     		lsrs	r3, r6, #15
 252:.//Libraries/CMSIS/DSP/Source/FilteringFunctions/arm_iir_lattice_q15.c ****     *px2++ = (q15_t) fnext;
 316              		.loc 1 252 19 view .LVU117
 317 00d4 43EA4743 		orr	r3, r3, r7, lsl #17
 318              		.syntax unified
 319              	@ 252 ".//Libraries/CMSIS/DSP/Source/FilteringFunctions/arm_iir_lattice_q15.c" 1
 320 00d8 03F30F03 		ssat r3, #16, r3
 321              	@ 0 "" 2
 322              	.LVL38:
 252:.//Libraries/CMSIS/DSP/Source/FilteringFunctions/arm_iir_lattice_q15.c ****     *px2++ = (q15_t) fnext;
 323              		.loc 1 252 19 is_stmt 1 view .LVU118
 252:.//Libraries/CMSIS/DSP/Source/FilteringFunctions/arm_iir_lattice_q15.c ****     *px2++ = (q15_t) fnext;
 324              		.loc 1 252 19 is_stmt 0 view .LVU119
 325              		.thumb
 326              		.syntax unified
 327              	.LBE11:
 328              		.loc 1 253 5 is_stmt 1 view .LVU120
 254:.//Libraries/CMSIS/DSP/Source/FilteringFunctions/arm_iir_lattice_q15.c **** 
 255:.//Libraries/CMSIS/DSP/Source/FilteringFunctions/arm_iir_lattice_q15.c ****     /* write out into pDst */
 256:.//Libraries/CMSIS/DSP/Source/FilteringFunctions/arm_iir_lattice_q15.c ****     *pDst++ = out;
 329              		.loc 1 256 5 view .LVU121
 252:.//Libraries/CMSIS/DSP/Source/FilteringFunctions/arm_iir_lattice_q15.c ****     *px2++ = (q15_t) fnext;
 330              		.loc 1 252 9 is_stmt 0 view .LVU122
 331 00dc 2BF8023B 		strh	r3, [fp], #2	@ movhi
 332              	.LVL39:
 257:.//Libraries/CMSIS/DSP/Source/FilteringFunctions/arm_iir_lattice_q15.c **** 
 258:.//Libraries/CMSIS/DSP/Source/FilteringFunctions/arm_iir_lattice_q15.c ****     /* Advance the state pointer by 4 to process the next group of 4 samples */
 259:.//Libraries/CMSIS/DSP/Source/FilteringFunctions/arm_iir_lattice_q15.c ****     pState = pState + 1U;
 333              		.loc 1 259 5 is_stmt 1 view .LVU123
 260:.//Libraries/CMSIS/DSP/Source/FilteringFunctions/arm_iir_lattice_q15.c **** 
 261:.//Libraries/CMSIS/DSP/Source/FilteringFunctions/arm_iir_lattice_q15.c ****     /* Decrement loop counter */
 262:.//Libraries/CMSIS/DSP/Source/FilteringFunctions/arm_iir_lattice_q15.c ****     blkCnt--;
 334              		.loc 1 262 5 view .LVU124
  83:.//Libraries/CMSIS/DSP/Source/FilteringFunctions/arm_iir_lattice_q15.c ****   {
 335              		.loc 1 83 9 view .LVU125
 336 00e0 019B     		ldr	r3, [sp, #4]
 337              	.LVL40:
  83:.//Libraries/CMSIS/DSP/Source/FilteringFunctions/arm_iir_lattice_q15.c ****   {
 338              		.loc 1 83 9 is_stmt 0 view .LVU126
 339 00e2 013B     		subs	r3, r3, #1
 340              	.LVL41:
ARM GAS  /var/folders/wl/rshn8xbx1dsfj1zgryf4g1240000gn/T//ccLQZSWV.s 			page 13


  83:.//Libraries/CMSIS/DSP/Source/FilteringFunctions/arm_iir_lattice_q15.c ****   {
 341              		.loc 1 83 9 view .LVU127
 342 00e4 0193     		str	r3, [sp, #4]
 343 00e6 A8D1     		bne	.L5
 344              	.LVL42:
 345              	.L6:
 263:.//Libraries/CMSIS/DSP/Source/FilteringFunctions/arm_iir_lattice_q15.c ****   }
 264:.//Libraries/CMSIS/DSP/Source/FilteringFunctions/arm_iir_lattice_q15.c **** 
 265:.//Libraries/CMSIS/DSP/Source/FilteringFunctions/arm_iir_lattice_q15.c ****   /* Processing is complete. Now copy last S->numStages samples to start of the buffer
 266:.//Libraries/CMSIS/DSP/Source/FilteringFunctions/arm_iir_lattice_q15.c ****      for the preperation of next frame process */
 267:.//Libraries/CMSIS/DSP/Source/FilteringFunctions/arm_iir_lattice_q15.c **** 
 268:.//Libraries/CMSIS/DSP/Source/FilteringFunctions/arm_iir_lattice_q15.c ****   /* Points to the start of the state buffer */
 269:.//Libraries/CMSIS/DSP/Source/FilteringFunctions/arm_iir_lattice_q15.c ****   pStateCur = &S->pState[0];
 346              		.loc 1 269 3 is_stmt 1 view .LVU128
 270:.//Libraries/CMSIS/DSP/Source/FilteringFunctions/arm_iir_lattice_q15.c ****   pState = &S->pState[blockSize];
 347              		.loc 1 270 3 view .LVU129
 348              		.loc 1 270 10 is_stmt 0 view .LVU130
 349 00e8 0899     		ldr	r1, [sp, #32]
 350 00ea 0998     		ldr	r0, [sp, #36]
 351 00ec 01EB4003 		add	r3, r1, r0, lsl #1
 352              	.LVL43:
 271:.//Libraries/CMSIS/DSP/Source/FilteringFunctions/arm_iir_lattice_q15.c **** 
 272:.//Libraries/CMSIS/DSP/Source/FilteringFunctions/arm_iir_lattice_q15.c ****   /* copy data */
 273:.//Libraries/CMSIS/DSP/Source/FilteringFunctions/arm_iir_lattice_q15.c **** #if defined (ARM_MATH_LOOPUNROLL)
 274:.//Libraries/CMSIS/DSP/Source/FilteringFunctions/arm_iir_lattice_q15.c **** 
 275:.//Libraries/CMSIS/DSP/Source/FilteringFunctions/arm_iir_lattice_q15.c ****   /* Loop unrolling: Compute 4 taps at a time. */
 276:.//Libraries/CMSIS/DSP/Source/FilteringFunctions/arm_iir_lattice_q15.c ****   tapCnt = numStages >> 2U;
 277:.//Libraries/CMSIS/DSP/Source/FilteringFunctions/arm_iir_lattice_q15.c **** 
 278:.//Libraries/CMSIS/DSP/Source/FilteringFunctions/arm_iir_lattice_q15.c ****   while (tapCnt > 0U)
 279:.//Libraries/CMSIS/DSP/Source/FilteringFunctions/arm_iir_lattice_q15.c ****   {
 280:.//Libraries/CMSIS/DSP/Source/FilteringFunctions/arm_iir_lattice_q15.c ****     write_q15x2_ia (&pStateCur, read_q15x2_ia (&pState));
 281:.//Libraries/CMSIS/DSP/Source/FilteringFunctions/arm_iir_lattice_q15.c ****     write_q15x2_ia (&pStateCur, read_q15x2_ia (&pState));
 282:.//Libraries/CMSIS/DSP/Source/FilteringFunctions/arm_iir_lattice_q15.c **** 
 283:.//Libraries/CMSIS/DSP/Source/FilteringFunctions/arm_iir_lattice_q15.c ****     /* Decrement loop counter */
 284:.//Libraries/CMSIS/DSP/Source/FilteringFunctions/arm_iir_lattice_q15.c ****     tapCnt--;
 285:.//Libraries/CMSIS/DSP/Source/FilteringFunctions/arm_iir_lattice_q15.c ****   }
 286:.//Libraries/CMSIS/DSP/Source/FilteringFunctions/arm_iir_lattice_q15.c **** 
 287:.//Libraries/CMSIS/DSP/Source/FilteringFunctions/arm_iir_lattice_q15.c ****   /* Loop unrolling: Compute remaining taps */
 288:.//Libraries/CMSIS/DSP/Source/FilteringFunctions/arm_iir_lattice_q15.c ****   tapCnt = numStages % 0x4U;
 289:.//Libraries/CMSIS/DSP/Source/FilteringFunctions/arm_iir_lattice_q15.c **** 
 290:.//Libraries/CMSIS/DSP/Source/FilteringFunctions/arm_iir_lattice_q15.c **** #else
 291:.//Libraries/CMSIS/DSP/Source/FilteringFunctions/arm_iir_lattice_q15.c **** 
 292:.//Libraries/CMSIS/DSP/Source/FilteringFunctions/arm_iir_lattice_q15.c ****   /* Initialize blkCnt with number of samples */
 293:.//Libraries/CMSIS/DSP/Source/FilteringFunctions/arm_iir_lattice_q15.c ****   tapCnt = (numStages - 1U);
 353              		.loc 1 293 3 is_stmt 1 view .LVU131
 294:.//Libraries/CMSIS/DSP/Source/FilteringFunctions/arm_iir_lattice_q15.c **** 
 295:.//Libraries/CMSIS/DSP/Source/FilteringFunctions/arm_iir_lattice_q15.c **** #endif /* #if defined (ARM_MATH_LOOPUNROLL) */
 296:.//Libraries/CMSIS/DSP/Source/FilteringFunctions/arm_iir_lattice_q15.c **** 
 297:.//Libraries/CMSIS/DSP/Source/FilteringFunctions/arm_iir_lattice_q15.c ****   while (tapCnt > 0U)
 354              		.loc 1 297 3 view .LVU132
 355              		.loc 1 297 9 view .LVU133
 356 00f0 32B1     		cbz	r2, .L1
 357 00f2 0239     		subs	r1, r1, #2
 358              	.LVL44:
 359              	.L8:
 298:.//Libraries/CMSIS/DSP/Source/FilteringFunctions/arm_iir_lattice_q15.c ****   {
 299:.//Libraries/CMSIS/DSP/Source/FilteringFunctions/arm_iir_lattice_q15.c ****     *pStateCur++ = *pState++;
ARM GAS  /var/folders/wl/rshn8xbx1dsfj1zgryf4g1240000gn/T//ccLQZSWV.s 			page 14


 360              		.loc 1 299 5 view .LVU134
 361              		.loc 1 299 20 is_stmt 0 view .LVU135
 362 00f4 33F9020B 		ldrsh	r0, [r3], #2
 363              	.LVL45:
 297:.//Libraries/CMSIS/DSP/Source/FilteringFunctions/arm_iir_lattice_q15.c ****   {
 364              		.loc 1 297 9 view .LVU136
 365 00f8 013A     		subs	r2, r2, #1
 366              	.LVL46:
 367              		.loc 1 299 18 view .LVU137
 368 00fa 21F8020F 		strh	r0, [r1, #2]!	@ movhi
 300:.//Libraries/CMSIS/DSP/Source/FilteringFunctions/arm_iir_lattice_q15.c **** 
 301:.//Libraries/CMSIS/DSP/Source/FilteringFunctions/arm_iir_lattice_q15.c ****     /* Decrement loop counter */
 302:.//Libraries/CMSIS/DSP/Source/FilteringFunctions/arm_iir_lattice_q15.c ****     tapCnt--;
 369              		.loc 1 302 5 is_stmt 1 view .LVU138
 370              	.LVL47:
 297:.//Libraries/CMSIS/DSP/Source/FilteringFunctions/arm_iir_lattice_q15.c ****   {
 371              		.loc 1 297 9 view .LVU139
 372 00fe F9D1     		bne	.L8
 373              	.LVL48:
 374              	.L1:
 303:.//Libraries/CMSIS/DSP/Source/FilteringFunctions/arm_iir_lattice_q15.c ****   }
 304:.//Libraries/CMSIS/DSP/Source/FilteringFunctions/arm_iir_lattice_q15.c **** 
 305:.//Libraries/CMSIS/DSP/Source/FilteringFunctions/arm_iir_lattice_q15.c **** #else /* #if defined (ARM_MATH_DSP) */
 306:.//Libraries/CMSIS/DSP/Source/FilteringFunctions/arm_iir_lattice_q15.c **** 
 307:.//Libraries/CMSIS/DSP/Source/FilteringFunctions/arm_iir_lattice_q15.c ****   /* Sample processing */
 308:.//Libraries/CMSIS/DSP/Source/FilteringFunctions/arm_iir_lattice_q15.c ****   while (blkCnt > 0U)
 309:.//Libraries/CMSIS/DSP/Source/FilteringFunctions/arm_iir_lattice_q15.c ****   {
 310:.//Libraries/CMSIS/DSP/Source/FilteringFunctions/arm_iir_lattice_q15.c ****     /* Read Sample from input buffer */
 311:.//Libraries/CMSIS/DSP/Source/FilteringFunctions/arm_iir_lattice_q15.c ****     /* fN(n) = x(n) */
 312:.//Libraries/CMSIS/DSP/Source/FilteringFunctions/arm_iir_lattice_q15.c ****     fcurr = *pSrc++;
 313:.//Libraries/CMSIS/DSP/Source/FilteringFunctions/arm_iir_lattice_q15.c **** 
 314:.//Libraries/CMSIS/DSP/Source/FilteringFunctions/arm_iir_lattice_q15.c ****     /* Initialize Ladder coeff pointer */
 315:.//Libraries/CMSIS/DSP/Source/FilteringFunctions/arm_iir_lattice_q15.c ****     pv = &S->pvCoeffs[0];
 316:.//Libraries/CMSIS/DSP/Source/FilteringFunctions/arm_iir_lattice_q15.c **** 
 317:.//Libraries/CMSIS/DSP/Source/FilteringFunctions/arm_iir_lattice_q15.c ****     /* Initialize Reflection coeff pointer */
 318:.//Libraries/CMSIS/DSP/Source/FilteringFunctions/arm_iir_lattice_q15.c ****     pk = &S->pkCoeffs[0];
 319:.//Libraries/CMSIS/DSP/Source/FilteringFunctions/arm_iir_lattice_q15.c **** 
 320:.//Libraries/CMSIS/DSP/Source/FilteringFunctions/arm_iir_lattice_q15.c ****     /* Initialize state read pointer */
 321:.//Libraries/CMSIS/DSP/Source/FilteringFunctions/arm_iir_lattice_q15.c ****     px1 = pState;
 322:.//Libraries/CMSIS/DSP/Source/FilteringFunctions/arm_iir_lattice_q15.c **** 
 323:.//Libraries/CMSIS/DSP/Source/FilteringFunctions/arm_iir_lattice_q15.c ****     /* Initialize state write pointer */
 324:.//Libraries/CMSIS/DSP/Source/FilteringFunctions/arm_iir_lattice_q15.c ****     px2 = pState;
 325:.//Libraries/CMSIS/DSP/Source/FilteringFunctions/arm_iir_lattice_q15.c **** 
 326:.//Libraries/CMSIS/DSP/Source/FilteringFunctions/arm_iir_lattice_q15.c ****     /* Set accumulator to zero */
 327:.//Libraries/CMSIS/DSP/Source/FilteringFunctions/arm_iir_lattice_q15.c ****     acc = 0;
 328:.//Libraries/CMSIS/DSP/Source/FilteringFunctions/arm_iir_lattice_q15.c **** 
 329:.//Libraries/CMSIS/DSP/Source/FilteringFunctions/arm_iir_lattice_q15.c ****     tapCnt = numStages;
 330:.//Libraries/CMSIS/DSP/Source/FilteringFunctions/arm_iir_lattice_q15.c **** 
 331:.//Libraries/CMSIS/DSP/Source/FilteringFunctions/arm_iir_lattice_q15.c ****     while (tapCnt > 0U)
 332:.//Libraries/CMSIS/DSP/Source/FilteringFunctions/arm_iir_lattice_q15.c ****     {
 333:.//Libraries/CMSIS/DSP/Source/FilteringFunctions/arm_iir_lattice_q15.c ****       gcurr = *px1++;
 334:.//Libraries/CMSIS/DSP/Source/FilteringFunctions/arm_iir_lattice_q15.c ****       /* Process sample */
 335:.//Libraries/CMSIS/DSP/Source/FilteringFunctions/arm_iir_lattice_q15.c ****       /* fN-1(n) = fN(n) - kN * gN-1(n-1) */
 336:.//Libraries/CMSIS/DSP/Source/FilteringFunctions/arm_iir_lattice_q15.c ****       fnext = fcurr - ((gcurr * (*pk)) >> 15);
 337:.//Libraries/CMSIS/DSP/Source/FilteringFunctions/arm_iir_lattice_q15.c ****       fnext = __SSAT(fnext, 16);
 338:.//Libraries/CMSIS/DSP/Source/FilteringFunctions/arm_iir_lattice_q15.c **** 
 339:.//Libraries/CMSIS/DSP/Source/FilteringFunctions/arm_iir_lattice_q15.c ****       /* gN(n) = kN * fN-1(n) + gN-1(n-1) */
ARM GAS  /var/folders/wl/rshn8xbx1dsfj1zgryf4g1240000gn/T//ccLQZSWV.s 			page 15


 340:.//Libraries/CMSIS/DSP/Source/FilteringFunctions/arm_iir_lattice_q15.c ****       gnext = ((fnext * (*pk++)) >> 15) + gcurr;
 341:.//Libraries/CMSIS/DSP/Source/FilteringFunctions/arm_iir_lattice_q15.c ****       gnext = __SSAT(gnext, 16);
 342:.//Libraries/CMSIS/DSP/Source/FilteringFunctions/arm_iir_lattice_q15.c **** 
 343:.//Libraries/CMSIS/DSP/Source/FilteringFunctions/arm_iir_lattice_q15.c ****       /* Output samples */
 344:.//Libraries/CMSIS/DSP/Source/FilteringFunctions/arm_iir_lattice_q15.c ****       /* y(n) += gN(n) * vN */
 345:.//Libraries/CMSIS/DSP/Source/FilteringFunctions/arm_iir_lattice_q15.c ****       acc += (q31_t) ((gnext * (*pv++)));
 346:.//Libraries/CMSIS/DSP/Source/FilteringFunctions/arm_iir_lattice_q15.c **** 
 347:.//Libraries/CMSIS/DSP/Source/FilteringFunctions/arm_iir_lattice_q15.c ****       /* write gN(n) into state for next sample processing */
 348:.//Libraries/CMSIS/DSP/Source/FilteringFunctions/arm_iir_lattice_q15.c ****       *px2++ = (q15_t) gnext;
 349:.//Libraries/CMSIS/DSP/Source/FilteringFunctions/arm_iir_lattice_q15.c **** 
 350:.//Libraries/CMSIS/DSP/Source/FilteringFunctions/arm_iir_lattice_q15.c ****       /* Update f values for next coefficient processing */
 351:.//Libraries/CMSIS/DSP/Source/FilteringFunctions/arm_iir_lattice_q15.c ****       fcurr = fnext;
 352:.//Libraries/CMSIS/DSP/Source/FilteringFunctions/arm_iir_lattice_q15.c **** 
 353:.//Libraries/CMSIS/DSP/Source/FilteringFunctions/arm_iir_lattice_q15.c ****       tapCnt--;
 354:.//Libraries/CMSIS/DSP/Source/FilteringFunctions/arm_iir_lattice_q15.c ****     }
 355:.//Libraries/CMSIS/DSP/Source/FilteringFunctions/arm_iir_lattice_q15.c **** 
 356:.//Libraries/CMSIS/DSP/Source/FilteringFunctions/arm_iir_lattice_q15.c ****     /* y(n) += g0(n) * v0 */
 357:.//Libraries/CMSIS/DSP/Source/FilteringFunctions/arm_iir_lattice_q15.c ****     acc += (q31_t) ((fnext * (*pv++)));
 358:.//Libraries/CMSIS/DSP/Source/FilteringFunctions/arm_iir_lattice_q15.c **** 
 359:.//Libraries/CMSIS/DSP/Source/FilteringFunctions/arm_iir_lattice_q15.c ****     out = (q15_t) __SSAT(acc >> 15, 16);
 360:.//Libraries/CMSIS/DSP/Source/FilteringFunctions/arm_iir_lattice_q15.c ****     *px2++ = (q15_t) fnext;
 361:.//Libraries/CMSIS/DSP/Source/FilteringFunctions/arm_iir_lattice_q15.c **** 
 362:.//Libraries/CMSIS/DSP/Source/FilteringFunctions/arm_iir_lattice_q15.c ****     /* write out into pDst */
 363:.//Libraries/CMSIS/DSP/Source/FilteringFunctions/arm_iir_lattice_q15.c ****     *pDst++ = out;
 364:.//Libraries/CMSIS/DSP/Source/FilteringFunctions/arm_iir_lattice_q15.c **** 
 365:.//Libraries/CMSIS/DSP/Source/FilteringFunctions/arm_iir_lattice_q15.c ****     /* Advance the state pointer by 1 to process the next group of samples */
 366:.//Libraries/CMSIS/DSP/Source/FilteringFunctions/arm_iir_lattice_q15.c ****     pState = pState + 1U;
 367:.//Libraries/CMSIS/DSP/Source/FilteringFunctions/arm_iir_lattice_q15.c **** 
 368:.//Libraries/CMSIS/DSP/Source/FilteringFunctions/arm_iir_lattice_q15.c ****     /* Decrement loop counter */
 369:.//Libraries/CMSIS/DSP/Source/FilteringFunctions/arm_iir_lattice_q15.c ****     blkCnt--;
 370:.//Libraries/CMSIS/DSP/Source/FilteringFunctions/arm_iir_lattice_q15.c ****   }
 371:.//Libraries/CMSIS/DSP/Source/FilteringFunctions/arm_iir_lattice_q15.c **** 
 372:.//Libraries/CMSIS/DSP/Source/FilteringFunctions/arm_iir_lattice_q15.c ****   /* Processing is complete. Now copy last S->numStages samples to start of the buffer
 373:.//Libraries/CMSIS/DSP/Source/FilteringFunctions/arm_iir_lattice_q15.c ****      for the preperation of next frame process */
 374:.//Libraries/CMSIS/DSP/Source/FilteringFunctions/arm_iir_lattice_q15.c **** 
 375:.//Libraries/CMSIS/DSP/Source/FilteringFunctions/arm_iir_lattice_q15.c ****   /* Points to the start of the state buffer */
 376:.//Libraries/CMSIS/DSP/Source/FilteringFunctions/arm_iir_lattice_q15.c ****   pStateCur = &S->pState[0];
 377:.//Libraries/CMSIS/DSP/Source/FilteringFunctions/arm_iir_lattice_q15.c ****   pState = &S->pState[blockSize];
 378:.//Libraries/CMSIS/DSP/Source/FilteringFunctions/arm_iir_lattice_q15.c **** 
 379:.//Libraries/CMSIS/DSP/Source/FilteringFunctions/arm_iir_lattice_q15.c ****   tapCnt = numStages;
 380:.//Libraries/CMSIS/DSP/Source/FilteringFunctions/arm_iir_lattice_q15.c **** 
 381:.//Libraries/CMSIS/DSP/Source/FilteringFunctions/arm_iir_lattice_q15.c ****   /* Copy data */
 382:.//Libraries/CMSIS/DSP/Source/FilteringFunctions/arm_iir_lattice_q15.c ****   while (tapCnt > 0U)
 383:.//Libraries/CMSIS/DSP/Source/FilteringFunctions/arm_iir_lattice_q15.c ****   {
 384:.//Libraries/CMSIS/DSP/Source/FilteringFunctions/arm_iir_lattice_q15.c ****     *pStateCur++ = *pState++;
 385:.//Libraries/CMSIS/DSP/Source/FilteringFunctions/arm_iir_lattice_q15.c **** 
 386:.//Libraries/CMSIS/DSP/Source/FilteringFunctions/arm_iir_lattice_q15.c ****     /* Decrement loop counter */
 387:.//Libraries/CMSIS/DSP/Source/FilteringFunctions/arm_iir_lattice_q15.c ****     tapCnt--;
 388:.//Libraries/CMSIS/DSP/Source/FilteringFunctions/arm_iir_lattice_q15.c ****   }
 389:.//Libraries/CMSIS/DSP/Source/FilteringFunctions/arm_iir_lattice_q15.c **** 
 390:.//Libraries/CMSIS/DSP/Source/FilteringFunctions/arm_iir_lattice_q15.c **** #endif /* #if defined (ARM_MATH_DSP) */
 391:.//Libraries/CMSIS/DSP/Source/FilteringFunctions/arm_iir_lattice_q15.c **** 
 392:.//Libraries/CMSIS/DSP/Source/FilteringFunctions/arm_iir_lattice_q15.c **** }
 375              		.loc 1 392 1 is_stmt 0 view .LVU140
 376 0100 0BB0     		add	sp, sp, #44
 377              	.LCFI2:
 378              		.cfi_remember_state
ARM GAS  /var/folders/wl/rshn8xbx1dsfj1zgryf4g1240000gn/T//ccLQZSWV.s 			page 16


 379              		.cfi_def_cfa_offset 36
 380              	.LVL49:
 381              		.loc 1 392 1 view .LVU141
 382              		@ sp needed
 383 0102 BDE8F08F 		pop	{r4, r5, r6, r7, r8, r9, r10, fp, pc}
 384              	.LVL50:
 385              	.L10:
 386              	.LCFI3:
 387              		.cfi_restore_state
 118:.//Libraries/CMSIS/DSP/Source/FilteringFunctions/arm_iir_lattice_q15.c **** 
 388              		.loc 1 118 34 view .LVU142
 389 0106 049B     		ldr	r3, [sp, #16]
 231:.//Libraries/CMSIS/DSP/Source/FilteringFunctions/arm_iir_lattice_q15.c ****     {
 390              		.loc 1 231 11 view .LVU143
 391 0108 5046     		mov	r0, r10
 392              	.LVL51:
 231:.//Libraries/CMSIS/DSP/Source/FilteringFunctions/arm_iir_lattice_q15.c ****     {
 393              		.loc 1 231 11 view .LVU144
 394 010a DAE7     		b	.L3
 395              	.LVL52:
 396              	.L2:
 231:.//Libraries/CMSIS/DSP/Source/FilteringFunctions/arm_iir_lattice_q15.c ****     {
 397              		.loc 1 231 11 view .LVU145
 398 010c 5A1E     		subs	r2, r3, #1
 399              	.LVL53:
 231:.//Libraries/CMSIS/DSP/Source/FilteringFunctions/arm_iir_lattice_q15.c ****     {
 400              		.loc 1 231 11 view .LVU146
 401 010e EBE7     		b	.L6
 402              		.cfi_endproc
 403              	.LFE145:
 405              		.text
 406              	.Letext0:
 407              		.file 2 "/opt/homebrew/Cellar/arm-none-eabi-gcc/9-2019-q4-major/gcc/arm-none-eabi/include/machine/
 408              		.file 3 "/opt/homebrew/Cellar/arm-none-eabi-gcc/9-2019-q4-major/gcc/arm-none-eabi/include/sys/_std
 409              		.file 4 "/opt/homebrew/Cellar/arm-none-eabi-gcc/9-2019-q4-major/gcc/arm-none-eabi/include/sys/lock
 410              		.file 5 "/opt/homebrew/Cellar/arm-none-eabi-gcc/9-2019-q4-major/gcc/arm-none-eabi/include/sys/_typ
 411              		.file 6 "/opt/homebrew/Cellar/arm-none-eabi-gcc/9-2019-q4-major/gcc/lib/gcc/arm-none-eabi/9.2.1/in
 412              		.file 7 "/opt/homebrew/Cellar/arm-none-eabi-gcc/9-2019-q4-major/gcc/arm-none-eabi/include/sys/reen
 413              		.file 8 "/opt/homebrew/Cellar/arm-none-eabi-gcc/9-2019-q4-major/gcc/arm-none-eabi/include/math.h"
 414              		.file 9 ".//Libraries/CMSIS/DSP/Include/arm_math.h"
ARM GAS  /var/folders/wl/rshn8xbx1dsfj1zgryf4g1240000gn/T//ccLQZSWV.s 			page 17

