ARM GAS  /tmp/ccykST3h.s 			page 1


   1              		.cpu cortex-m7
   2              		.eabi_attribute 28, 1
   3              		.eabi_attribute 20, 1
   4              		.eabi_attribute 21, 1
   5              		.eabi_attribute 23, 3
   6              		.eabi_attribute 24, 1
   7              		.eabi_attribute 25, 1
   8              		.eabi_attribute 26, 1
   9              		.eabi_attribute 30, 2
  10              		.eabi_attribute 34, 1
  11              		.eabi_attribute 18, 4
  12              		.file	"arm_biquad_cascade_df1_32x64_q31.c"
  13              		.text
  14              	.Ltext0:
  15              		.cfi_sections	.debug_frame
  16              		.section	.text.arm_biquad_cas_df1_32x64_q31,"ax",%progbits
  17              		.align	1
  18              		.p2align 2,,3
  19              		.global	arm_biquad_cas_df1_32x64_q31
  20              		.arch armv7e-m
  21              		.syntax unified
  22              		.thumb
  23              		.thumb_func
  24              		.fpu fpv5-d16
  26              	arm_biquad_cas_df1_32x64_q31:
  27              	.LVL0:
  28              	.LFB145:
  29              		.file 1 "./Libraries/CMSIS/DSP/Source/FilteringFunctions/arm_biquad_cascade_df1_32x64_q31.c"
   1:./Libraries/CMSIS/DSP/Source/FilteringFunctions/arm_biquad_cascade_df1_32x64_q31.c **** /* ----------------------------------------------------------------------
   2:./Libraries/CMSIS/DSP/Source/FilteringFunctions/arm_biquad_cascade_df1_32x64_q31.c ****  * Project:      CMSIS DSP Library
   3:./Libraries/CMSIS/DSP/Source/FilteringFunctions/arm_biquad_cascade_df1_32x64_q31.c ****  * Title:        arm_biquad_cascade_df1_32x64_q31.c
   4:./Libraries/CMSIS/DSP/Source/FilteringFunctions/arm_biquad_cascade_df1_32x64_q31.c ****  * Description:  High precision Q31 Biquad cascade filter processing function
   5:./Libraries/CMSIS/DSP/Source/FilteringFunctions/arm_biquad_cascade_df1_32x64_q31.c ****  *
   6:./Libraries/CMSIS/DSP/Source/FilteringFunctions/arm_biquad_cascade_df1_32x64_q31.c ****  * $Date:        18. March 2019
   7:./Libraries/CMSIS/DSP/Source/FilteringFunctions/arm_biquad_cascade_df1_32x64_q31.c ****  * $Revision:    V1.6.0
   8:./Libraries/CMSIS/DSP/Source/FilteringFunctions/arm_biquad_cascade_df1_32x64_q31.c ****  *
   9:./Libraries/CMSIS/DSP/Source/FilteringFunctions/arm_biquad_cascade_df1_32x64_q31.c ****  * Target Processor: Cortex-M cores
  10:./Libraries/CMSIS/DSP/Source/FilteringFunctions/arm_biquad_cascade_df1_32x64_q31.c ****  * -------------------------------------------------------------------- */
  11:./Libraries/CMSIS/DSP/Source/FilteringFunctions/arm_biquad_cascade_df1_32x64_q31.c **** /*
  12:./Libraries/CMSIS/DSP/Source/FilteringFunctions/arm_biquad_cascade_df1_32x64_q31.c ****  * Copyright (C) 2010-2019 ARM Limited or its affiliates. All rights reserved.
  13:./Libraries/CMSIS/DSP/Source/FilteringFunctions/arm_biquad_cascade_df1_32x64_q31.c ****  *
  14:./Libraries/CMSIS/DSP/Source/FilteringFunctions/arm_biquad_cascade_df1_32x64_q31.c ****  * SPDX-License-Identifier: Apache-2.0
  15:./Libraries/CMSIS/DSP/Source/FilteringFunctions/arm_biquad_cascade_df1_32x64_q31.c ****  *
  16:./Libraries/CMSIS/DSP/Source/FilteringFunctions/arm_biquad_cascade_df1_32x64_q31.c ****  * Licensed under the Apache License, Version 2.0 (the License); you may
  17:./Libraries/CMSIS/DSP/Source/FilteringFunctions/arm_biquad_cascade_df1_32x64_q31.c ****  * not use this file except in compliance with the License.
  18:./Libraries/CMSIS/DSP/Source/FilteringFunctions/arm_biquad_cascade_df1_32x64_q31.c ****  * You may obtain a copy of the License at
  19:./Libraries/CMSIS/DSP/Source/FilteringFunctions/arm_biquad_cascade_df1_32x64_q31.c ****  *
  20:./Libraries/CMSIS/DSP/Source/FilteringFunctions/arm_biquad_cascade_df1_32x64_q31.c ****  * www.apache.org/licenses/LICENSE-2.0
  21:./Libraries/CMSIS/DSP/Source/FilteringFunctions/arm_biquad_cascade_df1_32x64_q31.c ****  *
  22:./Libraries/CMSIS/DSP/Source/FilteringFunctions/arm_biquad_cascade_df1_32x64_q31.c ****  * Unless required by applicable law or agreed to in writing, software
  23:./Libraries/CMSIS/DSP/Source/FilteringFunctions/arm_biquad_cascade_df1_32x64_q31.c ****  * distributed under the License is distributed on an AS IS BASIS, WITHOUT
  24:./Libraries/CMSIS/DSP/Source/FilteringFunctions/arm_biquad_cascade_df1_32x64_q31.c ****  * WARRANTIES OR CONDITIONS OF ANY KIND, either express or implied.
  25:./Libraries/CMSIS/DSP/Source/FilteringFunctions/arm_biquad_cascade_df1_32x64_q31.c ****  * See the License for the specific language governing permissions and
  26:./Libraries/CMSIS/DSP/Source/FilteringFunctions/arm_biquad_cascade_df1_32x64_q31.c ****  * limitations under the License.
  27:./Libraries/CMSIS/DSP/Source/FilteringFunctions/arm_biquad_cascade_df1_32x64_q31.c ****  */
  28:./Libraries/CMSIS/DSP/Source/FilteringFunctions/arm_biquad_cascade_df1_32x64_q31.c **** 
  29:./Libraries/CMSIS/DSP/Source/FilteringFunctions/arm_biquad_cascade_df1_32x64_q31.c **** #include "arm_math.h"
ARM GAS  /tmp/ccykST3h.s 			page 2


  30:./Libraries/CMSIS/DSP/Source/FilteringFunctions/arm_biquad_cascade_df1_32x64_q31.c **** 
  31:./Libraries/CMSIS/DSP/Source/FilteringFunctions/arm_biquad_cascade_df1_32x64_q31.c **** /**
  32:./Libraries/CMSIS/DSP/Source/FilteringFunctions/arm_biquad_cascade_df1_32x64_q31.c ****   @ingroup groupFilters
  33:./Libraries/CMSIS/DSP/Source/FilteringFunctions/arm_biquad_cascade_df1_32x64_q31.c ****  */
  34:./Libraries/CMSIS/DSP/Source/FilteringFunctions/arm_biquad_cascade_df1_32x64_q31.c **** 
  35:./Libraries/CMSIS/DSP/Source/FilteringFunctions/arm_biquad_cascade_df1_32x64_q31.c **** /**
  36:./Libraries/CMSIS/DSP/Source/FilteringFunctions/arm_biquad_cascade_df1_32x64_q31.c ****   @defgroup BiquadCascadeDF1_32x64 High Precision Q31 Biquad Cascade Filter
  37:./Libraries/CMSIS/DSP/Source/FilteringFunctions/arm_biquad_cascade_df1_32x64_q31.c **** 
  38:./Libraries/CMSIS/DSP/Source/FilteringFunctions/arm_biquad_cascade_df1_32x64_q31.c ****   This function implements a high precision Biquad cascade filter which operates on
  39:./Libraries/CMSIS/DSP/Source/FilteringFunctions/arm_biquad_cascade_df1_32x64_q31.c ****   Q31 data values.  The filter coefficients are in 1.31 format and the state variables
  40:./Libraries/CMSIS/DSP/Source/FilteringFunctions/arm_biquad_cascade_df1_32x64_q31.c ****   are in 1.63 format.  The double precision state variables reduce quantization noise
  41:./Libraries/CMSIS/DSP/Source/FilteringFunctions/arm_biquad_cascade_df1_32x64_q31.c ****   in the filter and provide a cleaner output.
  42:./Libraries/CMSIS/DSP/Source/FilteringFunctions/arm_biquad_cascade_df1_32x64_q31.c ****   These filters are particularly useful when implementing filters in which the
  43:./Libraries/CMSIS/DSP/Source/FilteringFunctions/arm_biquad_cascade_df1_32x64_q31.c ****   singularities are close to the unit circle.  This is common for low pass or high
  44:./Libraries/CMSIS/DSP/Source/FilteringFunctions/arm_biquad_cascade_df1_32x64_q31.c ****   pass filters with very low cutoff frequencies.
  45:./Libraries/CMSIS/DSP/Source/FilteringFunctions/arm_biquad_cascade_df1_32x64_q31.c **** 
  46:./Libraries/CMSIS/DSP/Source/FilteringFunctions/arm_biquad_cascade_df1_32x64_q31.c ****   The function operates on blocks of input and output data
  47:./Libraries/CMSIS/DSP/Source/FilteringFunctions/arm_biquad_cascade_df1_32x64_q31.c ****   and each call to the function processes <code>blockSize</code> samples through
  48:./Libraries/CMSIS/DSP/Source/FilteringFunctions/arm_biquad_cascade_df1_32x64_q31.c ****   the filter. <code>pSrc</code> and <code>pDst</code> points to input and output arrays
  49:./Libraries/CMSIS/DSP/Source/FilteringFunctions/arm_biquad_cascade_df1_32x64_q31.c ****   containing <code>blockSize</code> Q31 values.
  50:./Libraries/CMSIS/DSP/Source/FilteringFunctions/arm_biquad_cascade_df1_32x64_q31.c **** 
  51:./Libraries/CMSIS/DSP/Source/FilteringFunctions/arm_biquad_cascade_df1_32x64_q31.c ****   @par           Algorithm
  52:./Libraries/CMSIS/DSP/Source/FilteringFunctions/arm_biquad_cascade_df1_32x64_q31.c ****                    Each Biquad stage implements a second order filter using the difference equation
  53:./Libraries/CMSIS/DSP/Source/FilteringFunctions/arm_biquad_cascade_df1_32x64_q31.c ****   <pre>
  54:./Libraries/CMSIS/DSP/Source/FilteringFunctions/arm_biquad_cascade_df1_32x64_q31.c ****       y[n] = b0 * x[n] + b1 * x[n-1] + b2 * x[n-2] + a1 * y[n-1] + a2 * y[n-2]
  55:./Libraries/CMSIS/DSP/Source/FilteringFunctions/arm_biquad_cascade_df1_32x64_q31.c ****   </pre>
  56:./Libraries/CMSIS/DSP/Source/FilteringFunctions/arm_biquad_cascade_df1_32x64_q31.c ****                    A Direct Form I algorithm is used with 5 coefficients and 4 state variables per 
  57:./Libraries/CMSIS/DSP/Source/FilteringFunctions/arm_biquad_cascade_df1_32x64_q31.c ****                    \image html Biquad.gif "Single Biquad filter stage"
  58:./Libraries/CMSIS/DSP/Source/FilteringFunctions/arm_biquad_cascade_df1_32x64_q31.c ****                    Coefficients <code>b0, b1 and b2 </code> multiply the input signal <code>x[n]</c
  59:./Libraries/CMSIS/DSP/Source/FilteringFunctions/arm_biquad_cascade_df1_32x64_q31.c ****                    Coefficients <code>a1</code> and <code>a2</code> multiply the output signal <cod
  60:./Libraries/CMSIS/DSP/Source/FilteringFunctions/arm_biquad_cascade_df1_32x64_q31.c ****                    Pay careful attention to the sign of the feedback coefficients.
  61:./Libraries/CMSIS/DSP/Source/FilteringFunctions/arm_biquad_cascade_df1_32x64_q31.c ****                    Some design tools use the difference equation
  62:./Libraries/CMSIS/DSP/Source/FilteringFunctions/arm_biquad_cascade_df1_32x64_q31.c ****   <pre>
  63:./Libraries/CMSIS/DSP/Source/FilteringFunctions/arm_biquad_cascade_df1_32x64_q31.c ****       y[n] = b0 * x[n] + b1 * x[n-1] + b2 * x[n-2] - a1 * y[n-1] - a2 * y[n-2]
  64:./Libraries/CMSIS/DSP/Source/FilteringFunctions/arm_biquad_cascade_df1_32x64_q31.c ****   </pre>
  65:./Libraries/CMSIS/DSP/Source/FilteringFunctions/arm_biquad_cascade_df1_32x64_q31.c ****                    In this case the feedback coefficients <code>a1</code> and <code>a2</code> must 
  66:./Libraries/CMSIS/DSP/Source/FilteringFunctions/arm_biquad_cascade_df1_32x64_q31.c ****   @par
  67:./Libraries/CMSIS/DSP/Source/FilteringFunctions/arm_biquad_cascade_df1_32x64_q31.c ****                    Higher order filters are realized as a cascade of second order sections.
  68:./Libraries/CMSIS/DSP/Source/FilteringFunctions/arm_biquad_cascade_df1_32x64_q31.c ****                    <code>numStages</code> refers to the number of second order stages used.
  69:./Libraries/CMSIS/DSP/Source/FilteringFunctions/arm_biquad_cascade_df1_32x64_q31.c ****                    For example, an 8th order filter would be realized with <code>numStages=4</code>
  70:./Libraries/CMSIS/DSP/Source/FilteringFunctions/arm_biquad_cascade_df1_32x64_q31.c ****                    \image html BiquadCascade.gif "8th order filter using a cascade of Biquad stages
  71:./Libraries/CMSIS/DSP/Source/FilteringFunctions/arm_biquad_cascade_df1_32x64_q31.c ****                    A 9th order filter would be realized with <code>numStages=5</code> second order 
  72:./Libraries/CMSIS/DSP/Source/FilteringFunctions/arm_biquad_cascade_df1_32x64_q31.c ****                    with the coefficients for one of the stages configured as a first order filter
  73:./Libraries/CMSIS/DSP/Source/FilteringFunctions/arm_biquad_cascade_df1_32x64_q31.c ****                    (<code>b2=0</code> and <code>a2=0</code>).
  74:./Libraries/CMSIS/DSP/Source/FilteringFunctions/arm_biquad_cascade_df1_32x64_q31.c ****   @par
  75:./Libraries/CMSIS/DSP/Source/FilteringFunctions/arm_biquad_cascade_df1_32x64_q31.c ****                    The <code>pState</code> points to state variables array.
  76:./Libraries/CMSIS/DSP/Source/FilteringFunctions/arm_biquad_cascade_df1_32x64_q31.c ****                    Each Biquad stage has 4 state variables <code>x[n-1], x[n-2], y[n-1],</code> and
  77:./Libraries/CMSIS/DSP/Source/FilteringFunctions/arm_biquad_cascade_df1_32x64_q31.c ****                    The state variables are arranged in the array as:
  78:./Libraries/CMSIS/DSP/Source/FilteringFunctions/arm_biquad_cascade_df1_32x64_q31.c ****   <pre>
  79:./Libraries/CMSIS/DSP/Source/FilteringFunctions/arm_biquad_cascade_df1_32x64_q31.c ****       {x[n-1], x[n-2], y[n-1], y[n-2]}
  80:./Libraries/CMSIS/DSP/Source/FilteringFunctions/arm_biquad_cascade_df1_32x64_q31.c ****   </pre>
  81:./Libraries/CMSIS/DSP/Source/FilteringFunctions/arm_biquad_cascade_df1_32x64_q31.c ****   @par
  82:./Libraries/CMSIS/DSP/Source/FilteringFunctions/arm_biquad_cascade_df1_32x64_q31.c ****                    The 4 state variables for stage 1 are first, then the 4 state variables for stag
  83:./Libraries/CMSIS/DSP/Source/FilteringFunctions/arm_biquad_cascade_df1_32x64_q31.c ****                    The state array has a total length of <code>4*numStages</code> values of data in
  84:./Libraries/CMSIS/DSP/Source/FilteringFunctions/arm_biquad_cascade_df1_32x64_q31.c ****                    The state variables are updated after each block of data is processed, the coeff
  85:./Libraries/CMSIS/DSP/Source/FilteringFunctions/arm_biquad_cascade_df1_32x64_q31.c **** 
  86:./Libraries/CMSIS/DSP/Source/FilteringFunctions/arm_biquad_cascade_df1_32x64_q31.c ****   @par           Instance Structure
ARM GAS  /tmp/ccykST3h.s 			page 3


  87:./Libraries/CMSIS/DSP/Source/FilteringFunctions/arm_biquad_cascade_df1_32x64_q31.c ****                    The coefficients and state variables for a filter are stored together in an inst
  88:./Libraries/CMSIS/DSP/Source/FilteringFunctions/arm_biquad_cascade_df1_32x64_q31.c ****                    A separate instance structure must be defined for each filter.
  89:./Libraries/CMSIS/DSP/Source/FilteringFunctions/arm_biquad_cascade_df1_32x64_q31.c ****                    Coefficient arrays may be shared among several instances while state variable ar
  90:./Libraries/CMSIS/DSP/Source/FilteringFunctions/arm_biquad_cascade_df1_32x64_q31.c **** 
  91:./Libraries/CMSIS/DSP/Source/FilteringFunctions/arm_biquad_cascade_df1_32x64_q31.c ****   @par           Init Function
  92:./Libraries/CMSIS/DSP/Source/FilteringFunctions/arm_biquad_cascade_df1_32x64_q31.c ****                    There is also an associated initialization function which performs the following
  93:./Libraries/CMSIS/DSP/Source/FilteringFunctions/arm_biquad_cascade_df1_32x64_q31.c ****                    - Sets the values of the internal structure fields.
  94:./Libraries/CMSIS/DSP/Source/FilteringFunctions/arm_biquad_cascade_df1_32x64_q31.c ****                    - Zeros out the values in the state buffer.
  95:./Libraries/CMSIS/DSP/Source/FilteringFunctions/arm_biquad_cascade_df1_32x64_q31.c ****                    To do this manually without calling the init function, assign the follow subfiel
  96:./Libraries/CMSIS/DSP/Source/FilteringFunctions/arm_biquad_cascade_df1_32x64_q31.c ****                    numStages, pCoeffs, postShift, pState. Also set all of the values in pState to z
  97:./Libraries/CMSIS/DSP/Source/FilteringFunctions/arm_biquad_cascade_df1_32x64_q31.c **** 
  98:./Libraries/CMSIS/DSP/Source/FilteringFunctions/arm_biquad_cascade_df1_32x64_q31.c ****   @par
  99:./Libraries/CMSIS/DSP/Source/FilteringFunctions/arm_biquad_cascade_df1_32x64_q31.c ****                    Use of the initialization function is optional.
 100:./Libraries/CMSIS/DSP/Source/FilteringFunctions/arm_biquad_cascade_df1_32x64_q31.c ****                    However, if the initialization function is used, then the instance structure can
 101:./Libraries/CMSIS/DSP/Source/FilteringFunctions/arm_biquad_cascade_df1_32x64_q31.c ****                    To place an instance structure into a const data section, the instance structure
 102:./Libraries/CMSIS/DSP/Source/FilteringFunctions/arm_biquad_cascade_df1_32x64_q31.c ****                    Set the values in the state buffer to zeros before static initialization.
 103:./Libraries/CMSIS/DSP/Source/FilteringFunctions/arm_biquad_cascade_df1_32x64_q31.c ****                    For example, to statically initialize the filter instance structure use
 104:./Libraries/CMSIS/DSP/Source/FilteringFunctions/arm_biquad_cascade_df1_32x64_q31.c ****   <pre>
 105:./Libraries/CMSIS/DSP/Source/FilteringFunctions/arm_biquad_cascade_df1_32x64_q31.c ****       arm_biquad_cas_df1_32x64_ins_q31 S1 = {numStages, pState, pCoeffs, postShift};
 106:./Libraries/CMSIS/DSP/Source/FilteringFunctions/arm_biquad_cascade_df1_32x64_q31.c ****   </pre>
 107:./Libraries/CMSIS/DSP/Source/FilteringFunctions/arm_biquad_cascade_df1_32x64_q31.c ****                    where <code>numStages</code> is the number of Biquad stages in the filter;
 108:./Libraries/CMSIS/DSP/Source/FilteringFunctions/arm_biquad_cascade_df1_32x64_q31.c ****                    <code>pState</code> is the address of the state buffer;
 109:./Libraries/CMSIS/DSP/Source/FilteringFunctions/arm_biquad_cascade_df1_32x64_q31.c ****                    <code>pCoeffs</code> is the address of the coefficient buffer;
 110:./Libraries/CMSIS/DSP/Source/FilteringFunctions/arm_biquad_cascade_df1_32x64_q31.c ****                    <code>postShift</code> shift to be applied which is described in detail below.
 111:./Libraries/CMSIS/DSP/Source/FilteringFunctions/arm_biquad_cascade_df1_32x64_q31.c ****   @par           Fixed-Point Behavior
 112:./Libraries/CMSIS/DSP/Source/FilteringFunctions/arm_biquad_cascade_df1_32x64_q31.c ****                    Care must be taken while using Biquad Cascade 32x64 filter function.
 113:./Libraries/CMSIS/DSP/Source/FilteringFunctions/arm_biquad_cascade_df1_32x64_q31.c ****                    Following issues must be considered:
 114:./Libraries/CMSIS/DSP/Source/FilteringFunctions/arm_biquad_cascade_df1_32x64_q31.c ****                    - Scaling of coefficients
 115:./Libraries/CMSIS/DSP/Source/FilteringFunctions/arm_biquad_cascade_df1_32x64_q31.c ****                    - Filter gain
 116:./Libraries/CMSIS/DSP/Source/FilteringFunctions/arm_biquad_cascade_df1_32x64_q31.c ****                    - Overflow and saturation
 117:./Libraries/CMSIS/DSP/Source/FilteringFunctions/arm_biquad_cascade_df1_32x64_q31.c **** 
 118:./Libraries/CMSIS/DSP/Source/FilteringFunctions/arm_biquad_cascade_df1_32x64_q31.c ****   @par
 119:./Libraries/CMSIS/DSP/Source/FilteringFunctions/arm_biquad_cascade_df1_32x64_q31.c ****                    Filter coefficients are represented as fractional values and
 120:./Libraries/CMSIS/DSP/Source/FilteringFunctions/arm_biquad_cascade_df1_32x64_q31.c ****                    restricted to lie in the range <code>[-1 +1)</code>.
 121:./Libraries/CMSIS/DSP/Source/FilteringFunctions/arm_biquad_cascade_df1_32x64_q31.c ****                    The processing function has an additional scaling parameter <code>postShift</cod
 122:./Libraries/CMSIS/DSP/Source/FilteringFunctions/arm_biquad_cascade_df1_32x64_q31.c ****                    which allows the filter coefficients to exceed the range <code>[+1 -1)</code>.
 123:./Libraries/CMSIS/DSP/Source/FilteringFunctions/arm_biquad_cascade_df1_32x64_q31.c ****                    At the output of the filter's accumulator is a shift register which shifts the r
 124:./Libraries/CMSIS/DSP/Source/FilteringFunctions/arm_biquad_cascade_df1_32x64_q31.c ****                    \image html BiquadPostshift.gif "Fixed-point Biquad with shift by postShift bits
 125:./Libraries/CMSIS/DSP/Source/FilteringFunctions/arm_biquad_cascade_df1_32x64_q31.c ****                    This essentially scales the filter coefficients by <code>2^postShift</code>.
 126:./Libraries/CMSIS/DSP/Source/FilteringFunctions/arm_biquad_cascade_df1_32x64_q31.c ****                    For example, to realize the coefficients
 127:./Libraries/CMSIS/DSP/Source/FilteringFunctions/arm_biquad_cascade_df1_32x64_q31.c ****   <pre>
 128:./Libraries/CMSIS/DSP/Source/FilteringFunctions/arm_biquad_cascade_df1_32x64_q31.c ****      {1.5, -0.8, 1.2, 1.6, -0.9}
 129:./Libraries/CMSIS/DSP/Source/FilteringFunctions/arm_biquad_cascade_df1_32x64_q31.c ****   </pre>
 130:./Libraries/CMSIS/DSP/Source/FilteringFunctions/arm_biquad_cascade_df1_32x64_q31.c ****                    set the Coefficient array to:
 131:./Libraries/CMSIS/DSP/Source/FilteringFunctions/arm_biquad_cascade_df1_32x64_q31.c ****   <pre>
 132:./Libraries/CMSIS/DSP/Source/FilteringFunctions/arm_biquad_cascade_df1_32x64_q31.c ****      {0.75, -0.4, 0.6, 0.8, -0.45}
 133:./Libraries/CMSIS/DSP/Source/FilteringFunctions/arm_biquad_cascade_df1_32x64_q31.c ****   </pre>
 134:./Libraries/CMSIS/DSP/Source/FilteringFunctions/arm_biquad_cascade_df1_32x64_q31.c ****                    and set <code>postShift=1</code>
 135:./Libraries/CMSIS/DSP/Source/FilteringFunctions/arm_biquad_cascade_df1_32x64_q31.c ****   @par
 136:./Libraries/CMSIS/DSP/Source/FilteringFunctions/arm_biquad_cascade_df1_32x64_q31.c ****                    The second thing to keep in mind is the gain through the filter.
 137:./Libraries/CMSIS/DSP/Source/FilteringFunctions/arm_biquad_cascade_df1_32x64_q31.c ****                    The frequency response of a Biquad filter is a function of its coefficients.
 138:./Libraries/CMSIS/DSP/Source/FilteringFunctions/arm_biquad_cascade_df1_32x64_q31.c ****                    It is possible for the gain through the filter to exceed 1.0 meaning that the
 139:./Libraries/CMSIS/DSP/Source/FilteringFunctions/arm_biquad_cascade_df1_32x64_q31.c ****                    filter increases the amplitude of certain frequencies.
 140:./Libraries/CMSIS/DSP/Source/FilteringFunctions/arm_biquad_cascade_df1_32x64_q31.c ****                    This means that an input signal with amplitude < 1.0 may result in an output > 1
 141:./Libraries/CMSIS/DSP/Source/FilteringFunctions/arm_biquad_cascade_df1_32x64_q31.c ****                    and these are saturated or overflowed based on the implementation of the filter.
 142:./Libraries/CMSIS/DSP/Source/FilteringFunctions/arm_biquad_cascade_df1_32x64_q31.c ****                    To avoid this behavior the filter needs to be scaled down such that its peak gai
 143:./Libraries/CMSIS/DSP/Source/FilteringFunctions/arm_biquad_cascade_df1_32x64_q31.c ****                    or the input signal must be scaled down so that the combination of input and fil
ARM GAS  /tmp/ccykST3h.s 			page 4


 144:./Libraries/CMSIS/DSP/Source/FilteringFunctions/arm_biquad_cascade_df1_32x64_q31.c ****   @par
 145:./Libraries/CMSIS/DSP/Source/FilteringFunctions/arm_biquad_cascade_df1_32x64_q31.c ****                    The third item to consider is the overflow and saturation behavior of the fixed-
 146:./Libraries/CMSIS/DSP/Source/FilteringFunctions/arm_biquad_cascade_df1_32x64_q31.c ****                    This is described in the function specific documentation below.
 147:./Libraries/CMSIS/DSP/Source/FilteringFunctions/arm_biquad_cascade_df1_32x64_q31.c ****  */
 148:./Libraries/CMSIS/DSP/Source/FilteringFunctions/arm_biquad_cascade_df1_32x64_q31.c **** 
 149:./Libraries/CMSIS/DSP/Source/FilteringFunctions/arm_biquad_cascade_df1_32x64_q31.c **** /**
 150:./Libraries/CMSIS/DSP/Source/FilteringFunctions/arm_biquad_cascade_df1_32x64_q31.c ****   @addtogroup BiquadCascadeDF1_32x64
 151:./Libraries/CMSIS/DSP/Source/FilteringFunctions/arm_biquad_cascade_df1_32x64_q31.c ****   @{
 152:./Libraries/CMSIS/DSP/Source/FilteringFunctions/arm_biquad_cascade_df1_32x64_q31.c ****  */
 153:./Libraries/CMSIS/DSP/Source/FilteringFunctions/arm_biquad_cascade_df1_32x64_q31.c **** 
 154:./Libraries/CMSIS/DSP/Source/FilteringFunctions/arm_biquad_cascade_df1_32x64_q31.c **** /**
 155:./Libraries/CMSIS/DSP/Source/FilteringFunctions/arm_biquad_cascade_df1_32x64_q31.c ****   @brief         Processing function for the Q31 Biquad cascade 32x64 filter.
 156:./Libraries/CMSIS/DSP/Source/FilteringFunctions/arm_biquad_cascade_df1_32x64_q31.c ****   @param[in]     S         points to an instance of the high precision Q31 Biquad cascade filter
 157:./Libraries/CMSIS/DSP/Source/FilteringFunctions/arm_biquad_cascade_df1_32x64_q31.c ****   @param[in]     pSrc      points to the block of input data
 158:./Libraries/CMSIS/DSP/Source/FilteringFunctions/arm_biquad_cascade_df1_32x64_q31.c ****   @param[out]    pDst      points to the block of output data
 159:./Libraries/CMSIS/DSP/Source/FilteringFunctions/arm_biquad_cascade_df1_32x64_q31.c ****   @param[in]     blockSize number of samples to process
 160:./Libraries/CMSIS/DSP/Source/FilteringFunctions/arm_biquad_cascade_df1_32x64_q31.c ****   @return        none
 161:./Libraries/CMSIS/DSP/Source/FilteringFunctions/arm_biquad_cascade_df1_32x64_q31.c **** 
 162:./Libraries/CMSIS/DSP/Source/FilteringFunctions/arm_biquad_cascade_df1_32x64_q31.c ****   @par           Details
 163:./Libraries/CMSIS/DSP/Source/FilteringFunctions/arm_biquad_cascade_df1_32x64_q31.c ****                    The function is implemented using an internal 64-bit accumulator.
 164:./Libraries/CMSIS/DSP/Source/FilteringFunctions/arm_biquad_cascade_df1_32x64_q31.c ****                    The accumulator has a 2.62 format and maintains full precision of the intermedia
 165:./Libraries/CMSIS/DSP/Source/FilteringFunctions/arm_biquad_cascade_df1_32x64_q31.c ****                    Thus, if the accumulator result overflows it wraps around rather than clip.
 166:./Libraries/CMSIS/DSP/Source/FilteringFunctions/arm_biquad_cascade_df1_32x64_q31.c ****                    In order to avoid overflows completely the input signal must be scaled down by 2
 167:./Libraries/CMSIS/DSP/Source/FilteringFunctions/arm_biquad_cascade_df1_32x64_q31.c ****                    After all 5 multiply-accumulates are performed, the 2.62 accumulator is shifted 
 168:./Libraries/CMSIS/DSP/Source/FilteringFunctions/arm_biquad_cascade_df1_32x64_q31.c ****                    1.31 format by discarding the low 32 bits.
 169:./Libraries/CMSIS/DSP/Source/FilteringFunctions/arm_biquad_cascade_df1_32x64_q31.c ****   @par
 170:./Libraries/CMSIS/DSP/Source/FilteringFunctions/arm_biquad_cascade_df1_32x64_q31.c ****                    Two related functions are provided in the CMSIS DSP library.
 171:./Libraries/CMSIS/DSP/Source/FilteringFunctions/arm_biquad_cascade_df1_32x64_q31.c ****                    - \ref arm_biquad_cascade_df1_q31() implements a Biquad cascade with 32-bit coef
 172:./Libraries/CMSIS/DSP/Source/FilteringFunctions/arm_biquad_cascade_df1_32x64_q31.c ****                    - \ref arm_biquad_cascade_df1_fast_q31() implements a Biquad cascade with 32-bit
 173:./Libraries/CMSIS/DSP/Source/FilteringFunctions/arm_biquad_cascade_df1_32x64_q31.c ****  */
 174:./Libraries/CMSIS/DSP/Source/FilteringFunctions/arm_biquad_cascade_df1_32x64_q31.c **** 
 175:./Libraries/CMSIS/DSP/Source/FilteringFunctions/arm_biquad_cascade_df1_32x64_q31.c **** void arm_biquad_cas_df1_32x64_q31(
 176:./Libraries/CMSIS/DSP/Source/FilteringFunctions/arm_biquad_cascade_df1_32x64_q31.c ****   const arm_biquad_cas_df1_32x64_ins_q31 * S,
 177:./Libraries/CMSIS/DSP/Source/FilteringFunctions/arm_biquad_cascade_df1_32x64_q31.c ****         q31_t * pSrc,
 178:./Libraries/CMSIS/DSP/Source/FilteringFunctions/arm_biquad_cascade_df1_32x64_q31.c ****         q31_t * pDst,
 179:./Libraries/CMSIS/DSP/Source/FilteringFunctions/arm_biquad_cascade_df1_32x64_q31.c ****         uint32_t blockSize)
 180:./Libraries/CMSIS/DSP/Source/FilteringFunctions/arm_biquad_cascade_df1_32x64_q31.c **** {
  30              		.loc 1 180 1 view -0
  31              		.cfi_startproc
  32              		@ args = 0, pretend = 0, frame = 96
  33              		@ frame_needed = 0, uses_anonymous_args = 0
 181:./Libraries/CMSIS/DSP/Source/FilteringFunctions/arm_biquad_cascade_df1_32x64_q31.c ****         q31_t *pIn = pSrc;                             /* input pointer initialization */
  34              		.loc 1 181 9 view .LVU1
 180:./Libraries/CMSIS/DSP/Source/FilteringFunctions/arm_biquad_cascade_df1_32x64_q31.c ****         q31_t *pIn = pSrc;                             /* input pointer initialization */
  35              		.loc 1 180 1 is_stmt 0 view .LVU2
  36 0000 2DE9F04F 		push	{r4, r5, r6, r7, r8, r9, r10, fp, lr}
  37              	.LCFI0:
  38              		.cfi_def_cfa_offset 36
  39              		.cfi_offset 4, -36
  40              		.cfi_offset 5, -32
  41              		.cfi_offset 6, -28
  42              		.cfi_offset 7, -24
  43              		.cfi_offset 8, -20
  44              		.cfi_offset 9, -16
  45              		.cfi_offset 10, -12
  46              		.cfi_offset 11, -8
  47              		.cfi_offset 14, -4
ARM GAS  /tmp/ccykST3h.s 			page 5


  48 0004 99B0     		sub	sp, sp, #100
  49              	.LCFI1:
  50              		.cfi_def_cfa_offset 136
 180:./Libraries/CMSIS/DSP/Source/FilteringFunctions/arm_biquad_cascade_df1_32x64_q31.c ****         q31_t *pIn = pSrc;                             /* input pointer initialization */
  51              		.loc 1 180 1 view .LVU3
  52 0006 0791     		str	r1, [sp, #28]
  53              	.LVL1:
 182:./Libraries/CMSIS/DSP/Source/FilteringFunctions/arm_biquad_cascade_df1_32x64_q31.c ****         q31_t *pOut = pDst;                            /* output pointer initialization */
  54              		.loc 1 182 9 is_stmt 1 view .LVU4
 183:./Libraries/CMSIS/DSP/Source/FilteringFunctions/arm_biquad_cascade_df1_32x64_q31.c ****         q63_t *pState = S->pState;                     /* state pointer initialization */
 184:./Libraries/CMSIS/DSP/Source/FilteringFunctions/arm_biquad_cascade_df1_32x64_q31.c ****   const q31_t *pCoeffs = S->pCoeffs;                   /* coeff pointer initialization */
 185:./Libraries/CMSIS/DSP/Source/FilteringFunctions/arm_biquad_cascade_df1_32x64_q31.c ****         q63_t acc;                                     /* accumulator */
 186:./Libraries/CMSIS/DSP/Source/FilteringFunctions/arm_biquad_cascade_df1_32x64_q31.c ****         q31_t Xn1, Xn2;                                /* Input Filter state variables */
 187:./Libraries/CMSIS/DSP/Source/FilteringFunctions/arm_biquad_cascade_df1_32x64_q31.c ****         q63_t Yn1, Yn2;                                /* Output Filter state variables */
 188:./Libraries/CMSIS/DSP/Source/FilteringFunctions/arm_biquad_cascade_df1_32x64_q31.c ****         q31_t b0, b1, b2, a1, a2;                      /* Filter coefficients */
 189:./Libraries/CMSIS/DSP/Source/FilteringFunctions/arm_biquad_cascade_df1_32x64_q31.c ****         q31_t Xn;                                      /* temporary input */
 190:./Libraries/CMSIS/DSP/Source/FilteringFunctions/arm_biquad_cascade_df1_32x64_q31.c ****         int32_t shift = (int32_t) S->postShift + 1;    /* Shift to be applied to the output */
  55              		.loc 1 190 36 is_stmt 0 view .LVU5
  56 0008 017B     		ldrb	r1, [r0, #12]	@ zero_extendqisi2
  57              	.LVL2:
 180:./Libraries/CMSIS/DSP/Source/FilteringFunctions/arm_biquad_cascade_df1_32x64_q31.c ****         q31_t *pIn = pSrc;                             /* input pointer initialization */
  58              		.loc 1 180 1 view .LVU6
  59 000a CDE91623 		strd	r2, r3, [sp, #88]
  60 000e D0E90132 		ldrd	r3, r2, [r0, #4]
  61              	.LVL3:
  62              		.loc 1 190 17 view .LVU7
  63 0012 4C1C     		adds	r4, r1, #1
  64 0014 2033     		adds	r3, r3, #32
  65 0016 1432     		adds	r2, r2, #20
  66 0018 1094     		str	r4, [sp, #64]
  67              	.LVL4:
 191:./Libraries/CMSIS/DSP/Source/FilteringFunctions/arm_biquad_cascade_df1_32x64_q31.c ****         uint32_t sample, stage = S->numStages;         /* loop counters */
  68              		.loc 1 191 9 is_stmt 1 view .LVU8
 192:./Libraries/CMSIS/DSP/Source/FilteringFunctions/arm_biquad_cascade_df1_32x64_q31.c ****         q31_t acc_l, acc_h;                            /* temporary output */
 193:./Libraries/CMSIS/DSP/Source/FilteringFunctions/arm_biquad_cascade_df1_32x64_q31.c ****         uint32_t uShift = ((uint32_t) S->postShift + 1U);
 194:./Libraries/CMSIS/DSP/Source/FilteringFunctions/arm_biquad_cascade_df1_32x64_q31.c ****         uint32_t lShift = 32U - uShift;                /* Shift to be applied to the output */
  69              		.loc 1 194 18 is_stmt 0 view .LVU9
  70 001a C1F11F04 		rsb	r4, r1, #31
  71              	.LVL5:
  72              		.loc 1 194 18 view .LVU10
  73 001e 1393     		str	r3, [sp, #76]
  74 0020 1F39     		subs	r1, r1, #31
 191:./Libraries/CMSIS/DSP/Source/FilteringFunctions/arm_biquad_cascade_df1_32x64_q31.c ****         uint32_t sample, stage = S->numStages;         /* loop counters */
  75              		.loc 1 191 26 view .LVU11
  76 0022 0378     		ldrb	r3, [r0]	@ zero_extendqisi2
  77              		.loc 1 194 18 view .LVU12
  78 0024 1194     		str	r4, [sp, #68]
  79 0026 1291     		str	r1, [sp, #72]
  80 0028 1492     		str	r2, [sp, #80]
 191:./Libraries/CMSIS/DSP/Source/FilteringFunctions/arm_biquad_cascade_df1_32x64_q31.c ****         uint32_t sample, stage = S->numStages;         /* loop counters */
  81              		.loc 1 191 26 view .LVU13
  82 002a 1593     		str	r3, [sp, #84]
  83              	.LVL6:
 192:./Libraries/CMSIS/DSP/Source/FilteringFunctions/arm_biquad_cascade_df1_32x64_q31.c ****         q31_t acc_l, acc_h;                            /* temporary output */
  84              		.loc 1 192 9 is_stmt 1 view .LVU14
 193:./Libraries/CMSIS/DSP/Source/FilteringFunctions/arm_biquad_cascade_df1_32x64_q31.c ****         uint32_t lShift = 32U - uShift;                /* Shift to be applied to the output */
  85              		.loc 1 193 9 view .LVU15
ARM GAS  /tmp/ccykST3h.s 			page 6


  86              		.loc 1 194 9 view .LVU16
  87              	.L5:
 195:./Libraries/CMSIS/DSP/Source/FilteringFunctions/arm_biquad_cascade_df1_32x64_q31.c **** 
 196:./Libraries/CMSIS/DSP/Source/FilteringFunctions/arm_biquad_cascade_df1_32x64_q31.c ****   do
  88              		.loc 1 196 3 view .LVU17
 197:./Libraries/CMSIS/DSP/Source/FilteringFunctions/arm_biquad_cascade_df1_32x64_q31.c ****   {
 198:./Libraries/CMSIS/DSP/Source/FilteringFunctions/arm_biquad_cascade_df1_32x64_q31.c ****     /* Reading the coefficients */
 199:./Libraries/CMSIS/DSP/Source/FilteringFunctions/arm_biquad_cascade_df1_32x64_q31.c ****     b0 = *pCoeffs++;
  89              		.loc 1 199 5 view .LVU18
  90              		.loc 1 199 8 is_stmt 0 view .LVU19
  91 002c 149B     		ldr	r3, [sp, #80]
 200:./Libraries/CMSIS/DSP/Source/FilteringFunctions/arm_biquad_cascade_df1_32x64_q31.c ****     b1 = *pCoeffs++;
 201:./Libraries/CMSIS/DSP/Source/FilteringFunctions/arm_biquad_cascade_df1_32x64_q31.c ****     b2 = *pCoeffs++;
 202:./Libraries/CMSIS/DSP/Source/FilteringFunctions/arm_biquad_cascade_df1_32x64_q31.c ****     a1 = *pCoeffs++;
 203:./Libraries/CMSIS/DSP/Source/FilteringFunctions/arm_biquad_cascade_df1_32x64_q31.c ****     a2 = *pCoeffs++;
 204:./Libraries/CMSIS/DSP/Source/FilteringFunctions/arm_biquad_cascade_df1_32x64_q31.c **** 
 205:./Libraries/CMSIS/DSP/Source/FilteringFunctions/arm_biquad_cascade_df1_32x64_q31.c ****     /* Reading the state values */
 206:./Libraries/CMSIS/DSP/Source/FilteringFunctions/arm_biquad_cascade_df1_32x64_q31.c ****     Xn1 = (q31_t) (pState[0]);
  92              		.loc 1 206 9 view .LVU20
  93 002e 1399     		ldr	r1, [sp, #76]
 199:./Libraries/CMSIS/DSP/Source/FilteringFunctions/arm_biquad_cascade_df1_32x64_q31.c ****     b1 = *pCoeffs++;
  94              		.loc 1 199 8 view .LVU21
  95 0030 53F8142C 		ldr	r2, [r3, #-20]
 207:./Libraries/CMSIS/DSP/Source/FilteringFunctions/arm_biquad_cascade_df1_32x64_q31.c ****     Xn2 = (q31_t) (pState[1]);
  96              		.loc 1 207 9 view .LVU22
  97 0034 51F8180C 		ldr	r0, [r1, #-24]
 199:./Libraries/CMSIS/DSP/Source/FilteringFunctions/arm_biquad_cascade_df1_32x64_q31.c ****     b1 = *pCoeffs++;
  98              		.loc 1 199 8 view .LVU23
  99 0038 0B92     		str	r2, [sp, #44]
 100              	.LVL7:
 200:./Libraries/CMSIS/DSP/Source/FilteringFunctions/arm_biquad_cascade_df1_32x64_q31.c ****     b1 = *pCoeffs++;
 101              		.loc 1 200 5 is_stmt 1 view .LVU24
 200:./Libraries/CMSIS/DSP/Source/FilteringFunctions/arm_biquad_cascade_df1_32x64_q31.c ****     b1 = *pCoeffs++;
 102              		.loc 1 200 8 is_stmt 0 view .LVU25
 103 003a 53F8102C 		ldr	r2, [r3, #-16]
 104              	.LVL8:
 105              		.loc 1 207 9 view .LVU26
 106 003e 0690     		str	r0, [sp, #24]
 208:./Libraries/CMSIS/DSP/Source/FilteringFunctions/arm_biquad_cascade_df1_32x64_q31.c ****     Yn1 = pState[2];
 107              		.loc 1 208 9 view .LVU27
 108 0040 0846     		mov	r0, r1
 200:./Libraries/CMSIS/DSP/Source/FilteringFunctions/arm_biquad_cascade_df1_32x64_q31.c ****     b2 = *pCoeffs++;
 109              		.loc 1 200 8 view .LVU28
 110 0042 0C92     		str	r2, [sp, #48]
 111              	.LVL9:
 201:./Libraries/CMSIS/DSP/Source/FilteringFunctions/arm_biquad_cascade_df1_32x64_q31.c ****     a1 = *pCoeffs++;
 112              		.loc 1 201 5 is_stmt 1 view .LVU29
 201:./Libraries/CMSIS/DSP/Source/FilteringFunctions/arm_biquad_cascade_df1_32x64_q31.c ****     a1 = *pCoeffs++;
 113              		.loc 1 201 8 is_stmt 0 view .LVU30
 114 0044 53F80C2C 		ldr	r2, [r3, #-12]
 115              	.LVL10:
 209:./Libraries/CMSIS/DSP/Source/FilteringFunctions/arm_biquad_cascade_df1_32x64_q31.c ****     Yn2 = pState[3];
 210:./Libraries/CMSIS/DSP/Source/FilteringFunctions/arm_biquad_cascade_df1_32x64_q31.c **** 
 211:./Libraries/CMSIS/DSP/Source/FilteringFunctions/arm_biquad_cascade_df1_32x64_q31.c **** #if defined (ARM_MATH_LOOPUNROLL)
 212:./Libraries/CMSIS/DSP/Source/FilteringFunctions/arm_biquad_cascade_df1_32x64_q31.c **** 
 213:./Libraries/CMSIS/DSP/Source/FilteringFunctions/arm_biquad_cascade_df1_32x64_q31.c ****     /* Apply loop unrolling and compute 4 output values simultaneously. */
 214:./Libraries/CMSIS/DSP/Source/FilteringFunctions/arm_biquad_cascade_df1_32x64_q31.c ****     /* Variable acc hold output value that is being computed and stored in destination buffer
ARM GAS  /tmp/ccykST3h.s 			page 7


 215:./Libraries/CMSIS/DSP/Source/FilteringFunctions/arm_biquad_cascade_df1_32x64_q31.c ****      * acc =  b0 * x[n] + b1 * x[n-1] + b2 * x[n-2] + a1 * y[n-1] + a2 * y[n-2]
 216:./Libraries/CMSIS/DSP/Source/FilteringFunctions/arm_biquad_cascade_df1_32x64_q31.c ****      */
 217:./Libraries/CMSIS/DSP/Source/FilteringFunctions/arm_biquad_cascade_df1_32x64_q31.c **** 
 218:./Libraries/CMSIS/DSP/Source/FilteringFunctions/arm_biquad_cascade_df1_32x64_q31.c ****     /* Loop unrolling: Compute 4 outputs at a time */
 219:./Libraries/CMSIS/DSP/Source/FilteringFunctions/arm_biquad_cascade_df1_32x64_q31.c ****     sample = blockSize >> 2U;
 220:./Libraries/CMSIS/DSP/Source/FilteringFunctions/arm_biquad_cascade_df1_32x64_q31.c **** 
 221:./Libraries/CMSIS/DSP/Source/FilteringFunctions/arm_biquad_cascade_df1_32x64_q31.c ****     while (sample > 0U)
 222:./Libraries/CMSIS/DSP/Source/FilteringFunctions/arm_biquad_cascade_df1_32x64_q31.c ****     {
 223:./Libraries/CMSIS/DSP/Source/FilteringFunctions/arm_biquad_cascade_df1_32x64_q31.c ****       /* Read the input */
 224:./Libraries/CMSIS/DSP/Source/FilteringFunctions/arm_biquad_cascade_df1_32x64_q31.c ****       Xn = *pIn++;
 225:./Libraries/CMSIS/DSP/Source/FilteringFunctions/arm_biquad_cascade_df1_32x64_q31.c **** 
 226:./Libraries/CMSIS/DSP/Source/FilteringFunctions/arm_biquad_cascade_df1_32x64_q31.c ****       /* acc =  b0 * x[n] + b1 * x[n-1] + b2 * x[n-2] + a1 * y[n-1] + a2 * y[n-2] */
 227:./Libraries/CMSIS/DSP/Source/FilteringFunctions/arm_biquad_cascade_df1_32x64_q31.c **** 
 228:./Libraries/CMSIS/DSP/Source/FilteringFunctions/arm_biquad_cascade_df1_32x64_q31.c ****       /* acc =  b0 * x[n] */
 229:./Libraries/CMSIS/DSP/Source/FilteringFunctions/arm_biquad_cascade_df1_32x64_q31.c ****       acc = (q63_t) Xn * b0;
 230:./Libraries/CMSIS/DSP/Source/FilteringFunctions/arm_biquad_cascade_df1_32x64_q31.c **** 
 231:./Libraries/CMSIS/DSP/Source/FilteringFunctions/arm_biquad_cascade_df1_32x64_q31.c ****       /* acc +=  b1 * x[n-1] */
 232:./Libraries/CMSIS/DSP/Source/FilteringFunctions/arm_biquad_cascade_df1_32x64_q31.c ****       acc += (q63_t) Xn1 * b1;
 233:./Libraries/CMSIS/DSP/Source/FilteringFunctions/arm_biquad_cascade_df1_32x64_q31.c **** 
 234:./Libraries/CMSIS/DSP/Source/FilteringFunctions/arm_biquad_cascade_df1_32x64_q31.c ****       /* acc +=  b[2] * x[n-2] */
 235:./Libraries/CMSIS/DSP/Source/FilteringFunctions/arm_biquad_cascade_df1_32x64_q31.c ****       acc += (q63_t) Xn2 * b2;
 236:./Libraries/CMSIS/DSP/Source/FilteringFunctions/arm_biquad_cascade_df1_32x64_q31.c **** 
 237:./Libraries/CMSIS/DSP/Source/FilteringFunctions/arm_biquad_cascade_df1_32x64_q31.c ****       /* acc +=  a1 * y[n-1] */
 238:./Libraries/CMSIS/DSP/Source/FilteringFunctions/arm_biquad_cascade_df1_32x64_q31.c ****       acc += mult32x64(Yn1, a1);
 239:./Libraries/CMSIS/DSP/Source/FilteringFunctions/arm_biquad_cascade_df1_32x64_q31.c **** 
 240:./Libraries/CMSIS/DSP/Source/FilteringFunctions/arm_biquad_cascade_df1_32x64_q31.c ****       /* acc +=  a2 * y[n-2] */
 241:./Libraries/CMSIS/DSP/Source/FilteringFunctions/arm_biquad_cascade_df1_32x64_q31.c ****       acc += mult32x64(Yn2, a2);
 242:./Libraries/CMSIS/DSP/Source/FilteringFunctions/arm_biquad_cascade_df1_32x64_q31.c **** 
 243:./Libraries/CMSIS/DSP/Source/FilteringFunctions/arm_biquad_cascade_df1_32x64_q31.c ****       /* The result is converted to 1.63 , Yn2 variable is reused */
 244:./Libraries/CMSIS/DSP/Source/FilteringFunctions/arm_biquad_cascade_df1_32x64_q31.c ****       Yn2 = acc << shift;
 245:./Libraries/CMSIS/DSP/Source/FilteringFunctions/arm_biquad_cascade_df1_32x64_q31.c **** 
 246:./Libraries/CMSIS/DSP/Source/FilteringFunctions/arm_biquad_cascade_df1_32x64_q31.c ****       /* Calc lower part of acc */
 247:./Libraries/CMSIS/DSP/Source/FilteringFunctions/arm_biquad_cascade_df1_32x64_q31.c ****       acc_l = acc & 0xffffffff;
 248:./Libraries/CMSIS/DSP/Source/FilteringFunctions/arm_biquad_cascade_df1_32x64_q31.c **** 
 249:./Libraries/CMSIS/DSP/Source/FilteringFunctions/arm_biquad_cascade_df1_32x64_q31.c ****       /* Calc upper part of acc */
 250:./Libraries/CMSIS/DSP/Source/FilteringFunctions/arm_biquad_cascade_df1_32x64_q31.c ****       acc_h = (acc >> 32) & 0xffffffff;
 251:./Libraries/CMSIS/DSP/Source/FilteringFunctions/arm_biquad_cascade_df1_32x64_q31.c **** 
 252:./Libraries/CMSIS/DSP/Source/FilteringFunctions/arm_biquad_cascade_df1_32x64_q31.c ****       /* Apply shift for lower part of acc and upper part of acc */
 253:./Libraries/CMSIS/DSP/Source/FilteringFunctions/arm_biquad_cascade_df1_32x64_q31.c ****       acc_h = (uint32_t) acc_l >> lShift | acc_h << uShift;
 254:./Libraries/CMSIS/DSP/Source/FilteringFunctions/arm_biquad_cascade_df1_32x64_q31.c **** 
 255:./Libraries/CMSIS/DSP/Source/FilteringFunctions/arm_biquad_cascade_df1_32x64_q31.c ****       /* Store the output in the destination buffer in 1.31 format. */
 256:./Libraries/CMSIS/DSP/Source/FilteringFunctions/arm_biquad_cascade_df1_32x64_q31.c ****       *pOut = acc_h;
 257:./Libraries/CMSIS/DSP/Source/FilteringFunctions/arm_biquad_cascade_df1_32x64_q31.c **** 
 258:./Libraries/CMSIS/DSP/Source/FilteringFunctions/arm_biquad_cascade_df1_32x64_q31.c ****       /* Read the second input into Xn2, to reuse the value */
 259:./Libraries/CMSIS/DSP/Source/FilteringFunctions/arm_biquad_cascade_df1_32x64_q31.c ****       Xn2 = *pIn++;
 260:./Libraries/CMSIS/DSP/Source/FilteringFunctions/arm_biquad_cascade_df1_32x64_q31.c **** 
 261:./Libraries/CMSIS/DSP/Source/FilteringFunctions/arm_biquad_cascade_df1_32x64_q31.c ****       /* acc =  b0 * x[n] + b1 * x[n-1] + b2 * x[n-2] + a1 * y[n-1] + a2 * y[n-2] */
 262:./Libraries/CMSIS/DSP/Source/FilteringFunctions/arm_biquad_cascade_df1_32x64_q31.c **** 
 263:./Libraries/CMSIS/DSP/Source/FilteringFunctions/arm_biquad_cascade_df1_32x64_q31.c ****       /* acc +=  b1 * x[n-1] */
 264:./Libraries/CMSIS/DSP/Source/FilteringFunctions/arm_biquad_cascade_df1_32x64_q31.c ****       acc = (q63_t) Xn * b1;
 265:./Libraries/CMSIS/DSP/Source/FilteringFunctions/arm_biquad_cascade_df1_32x64_q31.c **** 
 266:./Libraries/CMSIS/DSP/Source/FilteringFunctions/arm_biquad_cascade_df1_32x64_q31.c ****       /* acc =  b0 * x[n] */
 267:./Libraries/CMSIS/DSP/Source/FilteringFunctions/arm_biquad_cascade_df1_32x64_q31.c ****       acc += (q63_t) Xn2 * b0;
 268:./Libraries/CMSIS/DSP/Source/FilteringFunctions/arm_biquad_cascade_df1_32x64_q31.c **** 
 269:./Libraries/CMSIS/DSP/Source/FilteringFunctions/arm_biquad_cascade_df1_32x64_q31.c ****       /* acc +=  b[2] * x[n-2] */
 270:./Libraries/CMSIS/DSP/Source/FilteringFunctions/arm_biquad_cascade_df1_32x64_q31.c ****       acc += (q63_t) Xn1 * b2;
 271:./Libraries/CMSIS/DSP/Source/FilteringFunctions/arm_biquad_cascade_df1_32x64_q31.c **** 
ARM GAS  /tmp/ccykST3h.s 			page 8


 272:./Libraries/CMSIS/DSP/Source/FilteringFunctions/arm_biquad_cascade_df1_32x64_q31.c ****       /* acc +=  a1 * y[n-1] */
 273:./Libraries/CMSIS/DSP/Source/FilteringFunctions/arm_biquad_cascade_df1_32x64_q31.c ****       acc += mult32x64(Yn2, a1);
 274:./Libraries/CMSIS/DSP/Source/FilteringFunctions/arm_biquad_cascade_df1_32x64_q31.c **** 
 275:./Libraries/CMSIS/DSP/Source/FilteringFunctions/arm_biquad_cascade_df1_32x64_q31.c ****       /* acc +=  a2 * y[n-2] */
 276:./Libraries/CMSIS/DSP/Source/FilteringFunctions/arm_biquad_cascade_df1_32x64_q31.c ****       acc += mult32x64(Yn1, a2);
 277:./Libraries/CMSIS/DSP/Source/FilteringFunctions/arm_biquad_cascade_df1_32x64_q31.c **** 
 278:./Libraries/CMSIS/DSP/Source/FilteringFunctions/arm_biquad_cascade_df1_32x64_q31.c ****       /* The result is converted to 1.63, Yn1 variable is reused */
 279:./Libraries/CMSIS/DSP/Source/FilteringFunctions/arm_biquad_cascade_df1_32x64_q31.c ****       Yn1 = acc << shift;
 280:./Libraries/CMSIS/DSP/Source/FilteringFunctions/arm_biquad_cascade_df1_32x64_q31.c **** 
 281:./Libraries/CMSIS/DSP/Source/FilteringFunctions/arm_biquad_cascade_df1_32x64_q31.c ****       /* Calc lower part of acc */
 282:./Libraries/CMSIS/DSP/Source/FilteringFunctions/arm_biquad_cascade_df1_32x64_q31.c ****       acc_l = acc & 0xffffffff;
 283:./Libraries/CMSIS/DSP/Source/FilteringFunctions/arm_biquad_cascade_df1_32x64_q31.c **** 
 284:./Libraries/CMSIS/DSP/Source/FilteringFunctions/arm_biquad_cascade_df1_32x64_q31.c ****       /* Calc upper part of acc */
 285:./Libraries/CMSIS/DSP/Source/FilteringFunctions/arm_biquad_cascade_df1_32x64_q31.c ****       acc_h = (acc >> 32) & 0xffffffff;
 286:./Libraries/CMSIS/DSP/Source/FilteringFunctions/arm_biquad_cascade_df1_32x64_q31.c **** 
 287:./Libraries/CMSIS/DSP/Source/FilteringFunctions/arm_biquad_cascade_df1_32x64_q31.c ****       /* Apply shift for lower part of acc and upper part of acc */
 288:./Libraries/CMSIS/DSP/Source/FilteringFunctions/arm_biquad_cascade_df1_32x64_q31.c ****       acc_h = (uint32_t) acc_l >> lShift | acc_h << uShift;
 289:./Libraries/CMSIS/DSP/Source/FilteringFunctions/arm_biquad_cascade_df1_32x64_q31.c **** 
 290:./Libraries/CMSIS/DSP/Source/FilteringFunctions/arm_biquad_cascade_df1_32x64_q31.c ****       /* Read the third input into Xn1, to reuse the value */
 291:./Libraries/CMSIS/DSP/Source/FilteringFunctions/arm_biquad_cascade_df1_32x64_q31.c ****       Xn1 = *pIn++;
 292:./Libraries/CMSIS/DSP/Source/FilteringFunctions/arm_biquad_cascade_df1_32x64_q31.c **** 
 293:./Libraries/CMSIS/DSP/Source/FilteringFunctions/arm_biquad_cascade_df1_32x64_q31.c ****       /* The result is converted to 1.31 */
 294:./Libraries/CMSIS/DSP/Source/FilteringFunctions/arm_biquad_cascade_df1_32x64_q31.c ****       /* Store the output in the destination buffer. */
 295:./Libraries/CMSIS/DSP/Source/FilteringFunctions/arm_biquad_cascade_df1_32x64_q31.c ****       *(pOut + 1U) = acc_h;
 296:./Libraries/CMSIS/DSP/Source/FilteringFunctions/arm_biquad_cascade_df1_32x64_q31.c **** 
 297:./Libraries/CMSIS/DSP/Source/FilteringFunctions/arm_biquad_cascade_df1_32x64_q31.c ****       /* acc =  b0 * x[n] + b1 * x[n-1] + b2 * x[n-2] + a1 * y[n-1] + a2 * y[n-2] */
 298:./Libraries/CMSIS/DSP/Source/FilteringFunctions/arm_biquad_cascade_df1_32x64_q31.c **** 
 299:./Libraries/CMSIS/DSP/Source/FilteringFunctions/arm_biquad_cascade_df1_32x64_q31.c ****       /* acc =  b0 * x[n] */
 300:./Libraries/CMSIS/DSP/Source/FilteringFunctions/arm_biquad_cascade_df1_32x64_q31.c ****       acc = (q63_t) Xn1 * b0;
 301:./Libraries/CMSIS/DSP/Source/FilteringFunctions/arm_biquad_cascade_df1_32x64_q31.c **** 
 302:./Libraries/CMSIS/DSP/Source/FilteringFunctions/arm_biquad_cascade_df1_32x64_q31.c ****       /* acc +=  b1 * x[n-1] */
 303:./Libraries/CMSIS/DSP/Source/FilteringFunctions/arm_biquad_cascade_df1_32x64_q31.c ****       acc += (q63_t) Xn2 * b1;
 304:./Libraries/CMSIS/DSP/Source/FilteringFunctions/arm_biquad_cascade_df1_32x64_q31.c **** 
 305:./Libraries/CMSIS/DSP/Source/FilteringFunctions/arm_biquad_cascade_df1_32x64_q31.c ****       /* acc +=  b[2] * x[n-2] */
 306:./Libraries/CMSIS/DSP/Source/FilteringFunctions/arm_biquad_cascade_df1_32x64_q31.c ****       acc += (q63_t) Xn * b2;
 307:./Libraries/CMSIS/DSP/Source/FilteringFunctions/arm_biquad_cascade_df1_32x64_q31.c **** 
 308:./Libraries/CMSIS/DSP/Source/FilteringFunctions/arm_biquad_cascade_df1_32x64_q31.c ****       /* acc +=  a1 * y[n-1] */
 309:./Libraries/CMSIS/DSP/Source/FilteringFunctions/arm_biquad_cascade_df1_32x64_q31.c ****       acc += mult32x64(Yn1, a1);
 310:./Libraries/CMSIS/DSP/Source/FilteringFunctions/arm_biquad_cascade_df1_32x64_q31.c **** 
 311:./Libraries/CMSIS/DSP/Source/FilteringFunctions/arm_biquad_cascade_df1_32x64_q31.c ****       /* acc +=  a2 * y[n-2] */
 312:./Libraries/CMSIS/DSP/Source/FilteringFunctions/arm_biquad_cascade_df1_32x64_q31.c ****       acc += mult32x64(Yn2, a2);
 313:./Libraries/CMSIS/DSP/Source/FilteringFunctions/arm_biquad_cascade_df1_32x64_q31.c **** 
 314:./Libraries/CMSIS/DSP/Source/FilteringFunctions/arm_biquad_cascade_df1_32x64_q31.c ****       /* The result is converted to 1.63, Yn2 variable is reused  */
 315:./Libraries/CMSIS/DSP/Source/FilteringFunctions/arm_biquad_cascade_df1_32x64_q31.c ****       Yn2 = acc << shift;
 316:./Libraries/CMSIS/DSP/Source/FilteringFunctions/arm_biquad_cascade_df1_32x64_q31.c **** 
 317:./Libraries/CMSIS/DSP/Source/FilteringFunctions/arm_biquad_cascade_df1_32x64_q31.c ****       /* Calc lower part of acc */
 318:./Libraries/CMSIS/DSP/Source/FilteringFunctions/arm_biquad_cascade_df1_32x64_q31.c ****       acc_l = acc & 0xffffffff;
 319:./Libraries/CMSIS/DSP/Source/FilteringFunctions/arm_biquad_cascade_df1_32x64_q31.c **** 
 320:./Libraries/CMSIS/DSP/Source/FilteringFunctions/arm_biquad_cascade_df1_32x64_q31.c ****       /* Calc upper part of acc */
 321:./Libraries/CMSIS/DSP/Source/FilteringFunctions/arm_biquad_cascade_df1_32x64_q31.c ****       acc_h = (acc >> 32) & 0xffffffff;
 322:./Libraries/CMSIS/DSP/Source/FilteringFunctions/arm_biquad_cascade_df1_32x64_q31.c **** 
 323:./Libraries/CMSIS/DSP/Source/FilteringFunctions/arm_biquad_cascade_df1_32x64_q31.c ****       /* Apply shift for lower part of acc and upper part of acc */
 324:./Libraries/CMSIS/DSP/Source/FilteringFunctions/arm_biquad_cascade_df1_32x64_q31.c ****       acc_h = (uint32_t) acc_l >> lShift | acc_h << uShift;
 325:./Libraries/CMSIS/DSP/Source/FilteringFunctions/arm_biquad_cascade_df1_32x64_q31.c **** 
 326:./Libraries/CMSIS/DSP/Source/FilteringFunctions/arm_biquad_cascade_df1_32x64_q31.c ****       /* Store the output in the destination buffer in 1.31 format. */
 327:./Libraries/CMSIS/DSP/Source/FilteringFunctions/arm_biquad_cascade_df1_32x64_q31.c ****       *(pOut + 2U) = acc_h;
 328:./Libraries/CMSIS/DSP/Source/FilteringFunctions/arm_biquad_cascade_df1_32x64_q31.c **** 
ARM GAS  /tmp/ccykST3h.s 			page 9


 329:./Libraries/CMSIS/DSP/Source/FilteringFunctions/arm_biquad_cascade_df1_32x64_q31.c ****       /* Read the fourth input into Xn, to reuse the value */
 330:./Libraries/CMSIS/DSP/Source/FilteringFunctions/arm_biquad_cascade_df1_32x64_q31.c ****       Xn = *pIn++;
 331:./Libraries/CMSIS/DSP/Source/FilteringFunctions/arm_biquad_cascade_df1_32x64_q31.c **** 
 332:./Libraries/CMSIS/DSP/Source/FilteringFunctions/arm_biquad_cascade_df1_32x64_q31.c ****       /* acc =  b0 * x[n] + b1 * x[n-1] + b2 * x[n-2] + a1 * y[n-1] + a2 * y[n-2] */
 333:./Libraries/CMSIS/DSP/Source/FilteringFunctions/arm_biquad_cascade_df1_32x64_q31.c ****       /* acc =  b0 * x[n] */
 334:./Libraries/CMSIS/DSP/Source/FilteringFunctions/arm_biquad_cascade_df1_32x64_q31.c ****       acc = (q63_t) Xn * b0;
 335:./Libraries/CMSIS/DSP/Source/FilteringFunctions/arm_biquad_cascade_df1_32x64_q31.c **** 
 336:./Libraries/CMSIS/DSP/Source/FilteringFunctions/arm_biquad_cascade_df1_32x64_q31.c ****       /* acc +=  b1 * x[n-1] */
 337:./Libraries/CMSIS/DSP/Source/FilteringFunctions/arm_biquad_cascade_df1_32x64_q31.c ****       acc += (q63_t) Xn1 * b1;
 338:./Libraries/CMSIS/DSP/Source/FilteringFunctions/arm_biquad_cascade_df1_32x64_q31.c **** 
 339:./Libraries/CMSIS/DSP/Source/FilteringFunctions/arm_biquad_cascade_df1_32x64_q31.c ****       /* acc +=  b[2] * x[n-2] */
 340:./Libraries/CMSIS/DSP/Source/FilteringFunctions/arm_biquad_cascade_df1_32x64_q31.c ****       acc += (q63_t) Xn2 * b2;
 341:./Libraries/CMSIS/DSP/Source/FilteringFunctions/arm_biquad_cascade_df1_32x64_q31.c **** 
 342:./Libraries/CMSIS/DSP/Source/FilteringFunctions/arm_biquad_cascade_df1_32x64_q31.c ****       /* acc +=  a1 * y[n-1] */
 343:./Libraries/CMSIS/DSP/Source/FilteringFunctions/arm_biquad_cascade_df1_32x64_q31.c ****       acc += mult32x64(Yn2, a1);
 344:./Libraries/CMSIS/DSP/Source/FilteringFunctions/arm_biquad_cascade_df1_32x64_q31.c **** 
 345:./Libraries/CMSIS/DSP/Source/FilteringFunctions/arm_biquad_cascade_df1_32x64_q31.c ****       /* acc +=  a2 * y[n-2] */
 346:./Libraries/CMSIS/DSP/Source/FilteringFunctions/arm_biquad_cascade_df1_32x64_q31.c ****       acc += mult32x64(Yn1, a2);
 347:./Libraries/CMSIS/DSP/Source/FilteringFunctions/arm_biquad_cascade_df1_32x64_q31.c **** 
 348:./Libraries/CMSIS/DSP/Source/FilteringFunctions/arm_biquad_cascade_df1_32x64_q31.c ****       /* The result is converted to 1.63, Yn1 variable is reused  */
 349:./Libraries/CMSIS/DSP/Source/FilteringFunctions/arm_biquad_cascade_df1_32x64_q31.c ****       Yn1 = acc << shift;
 350:./Libraries/CMSIS/DSP/Source/FilteringFunctions/arm_biquad_cascade_df1_32x64_q31.c **** 
 351:./Libraries/CMSIS/DSP/Source/FilteringFunctions/arm_biquad_cascade_df1_32x64_q31.c ****       /* Calc lower part of acc */
 352:./Libraries/CMSIS/DSP/Source/FilteringFunctions/arm_biquad_cascade_df1_32x64_q31.c ****       acc_l = acc & 0xffffffff;
 353:./Libraries/CMSIS/DSP/Source/FilteringFunctions/arm_biquad_cascade_df1_32x64_q31.c **** 
 354:./Libraries/CMSIS/DSP/Source/FilteringFunctions/arm_biquad_cascade_df1_32x64_q31.c ****       /* Calc upper part of acc */
 355:./Libraries/CMSIS/DSP/Source/FilteringFunctions/arm_biquad_cascade_df1_32x64_q31.c ****       acc_h = (acc >> 32) & 0xffffffff;
 356:./Libraries/CMSIS/DSP/Source/FilteringFunctions/arm_biquad_cascade_df1_32x64_q31.c **** 
 357:./Libraries/CMSIS/DSP/Source/FilteringFunctions/arm_biquad_cascade_df1_32x64_q31.c ****       /* Apply shift for lower part of acc and upper part of acc */
 358:./Libraries/CMSIS/DSP/Source/FilteringFunctions/arm_biquad_cascade_df1_32x64_q31.c ****       acc_h = (uint32_t) acc_l >> lShift | acc_h << uShift;
 359:./Libraries/CMSIS/DSP/Source/FilteringFunctions/arm_biquad_cascade_df1_32x64_q31.c **** 
 360:./Libraries/CMSIS/DSP/Source/FilteringFunctions/arm_biquad_cascade_df1_32x64_q31.c ****       /* Store the output in the destination buffer in 1.31 format. */
 361:./Libraries/CMSIS/DSP/Source/FilteringFunctions/arm_biquad_cascade_df1_32x64_q31.c ****       *(pOut + 3U) = acc_h;
 362:./Libraries/CMSIS/DSP/Source/FilteringFunctions/arm_biquad_cascade_df1_32x64_q31.c **** 
 363:./Libraries/CMSIS/DSP/Source/FilteringFunctions/arm_biquad_cascade_df1_32x64_q31.c ****       /* Every time after the output is computed state should be updated. */
 364:./Libraries/CMSIS/DSP/Source/FilteringFunctions/arm_biquad_cascade_df1_32x64_q31.c ****       /* The states should be updated as: */
 365:./Libraries/CMSIS/DSP/Source/FilteringFunctions/arm_biquad_cascade_df1_32x64_q31.c ****       /* Xn2 = Xn1 */
 366:./Libraries/CMSIS/DSP/Source/FilteringFunctions/arm_biquad_cascade_df1_32x64_q31.c ****       /* Xn1 = Xn  */
 367:./Libraries/CMSIS/DSP/Source/FilteringFunctions/arm_biquad_cascade_df1_32x64_q31.c ****       /* Yn2 = Yn1 */
 368:./Libraries/CMSIS/DSP/Source/FilteringFunctions/arm_biquad_cascade_df1_32x64_q31.c ****       /* Yn1 = acc */
 369:./Libraries/CMSIS/DSP/Source/FilteringFunctions/arm_biquad_cascade_df1_32x64_q31.c ****       Xn2 = Xn1;
 370:./Libraries/CMSIS/DSP/Source/FilteringFunctions/arm_biquad_cascade_df1_32x64_q31.c ****       Xn1 = Xn;
 371:./Libraries/CMSIS/DSP/Source/FilteringFunctions/arm_biquad_cascade_df1_32x64_q31.c **** 
 372:./Libraries/CMSIS/DSP/Source/FilteringFunctions/arm_biquad_cascade_df1_32x64_q31.c ****       /* update output pointer */
 373:./Libraries/CMSIS/DSP/Source/FilteringFunctions/arm_biquad_cascade_df1_32x64_q31.c ****       pOut += 4U;
 374:./Libraries/CMSIS/DSP/Source/FilteringFunctions/arm_biquad_cascade_df1_32x64_q31.c **** 
 375:./Libraries/CMSIS/DSP/Source/FilteringFunctions/arm_biquad_cascade_df1_32x64_q31.c ****       /* decrement loop counter */
 376:./Libraries/CMSIS/DSP/Source/FilteringFunctions/arm_biquad_cascade_df1_32x64_q31.c ****       sample--;
 377:./Libraries/CMSIS/DSP/Source/FilteringFunctions/arm_biquad_cascade_df1_32x64_q31.c ****     }
 378:./Libraries/CMSIS/DSP/Source/FilteringFunctions/arm_biquad_cascade_df1_32x64_q31.c **** 
 379:./Libraries/CMSIS/DSP/Source/FilteringFunctions/arm_biquad_cascade_df1_32x64_q31.c ****     /* Loop unrolling: Compute remaining outputs */
 380:./Libraries/CMSIS/DSP/Source/FilteringFunctions/arm_biquad_cascade_df1_32x64_q31.c ****     sample = blockSize & 0x3U;
 381:./Libraries/CMSIS/DSP/Source/FilteringFunctions/arm_biquad_cascade_df1_32x64_q31.c **** 
 382:./Libraries/CMSIS/DSP/Source/FilteringFunctions/arm_biquad_cascade_df1_32x64_q31.c **** #else
 383:./Libraries/CMSIS/DSP/Source/FilteringFunctions/arm_biquad_cascade_df1_32x64_q31.c **** 
 384:./Libraries/CMSIS/DSP/Source/FilteringFunctions/arm_biquad_cascade_df1_32x64_q31.c ****     /* Initialize blkCnt with number of samples */
 385:./Libraries/CMSIS/DSP/Source/FilteringFunctions/arm_biquad_cascade_df1_32x64_q31.c ****     sample = blockSize;
ARM GAS  /tmp/ccykST3h.s 			page 10


 386:./Libraries/CMSIS/DSP/Source/FilteringFunctions/arm_biquad_cascade_df1_32x64_q31.c **** 
 387:./Libraries/CMSIS/DSP/Source/FilteringFunctions/arm_biquad_cascade_df1_32x64_q31.c **** #endif /* #if defined (ARM_MATH_LOOPUNROLL) */
 388:./Libraries/CMSIS/DSP/Source/FilteringFunctions/arm_biquad_cascade_df1_32x64_q31.c **** 
 389:./Libraries/CMSIS/DSP/Source/FilteringFunctions/arm_biquad_cascade_df1_32x64_q31.c ****     while (sample > 0U)
 116              		.loc 1 389 11 view .LVU31
 117 0048 179C     		ldr	r4, [sp, #92]
 201:./Libraries/CMSIS/DSP/Source/FilteringFunctions/arm_biquad_cascade_df1_32x64_q31.c ****     a1 = *pCoeffs++;
 118              		.loc 1 201 8 view .LVU32
 119 004a 0D92     		str	r2, [sp, #52]
 120              	.LVL11:
 202:./Libraries/CMSIS/DSP/Source/FilteringFunctions/arm_biquad_cascade_df1_32x64_q31.c ****     a2 = *pCoeffs++;
 121              		.loc 1 202 5 is_stmt 1 view .LVU33
 202:./Libraries/CMSIS/DSP/Source/FilteringFunctions/arm_biquad_cascade_df1_32x64_q31.c ****     a2 = *pCoeffs++;
 122              		.loc 1 202 8 is_stmt 0 view .LVU34
 123 004c 1A46     		mov	r2, r3
 124              	.LVL12:
 206:./Libraries/CMSIS/DSP/Source/FilteringFunctions/arm_biquad_cascade_df1_32x64_q31.c ****     Xn2 = (q31_t) (pState[1]);
 125              		.loc 1 206 9 view .LVU35
 126 004e 51F820AC 		ldr	r10, [r1, #-32]
 202:./Libraries/CMSIS/DSP/Source/FilteringFunctions/arm_biquad_cascade_df1_32x64_q31.c ****     a2 = *pCoeffs++;
 127              		.loc 1 202 8 view .LVU36
 128 0052 53F8083C 		ldr	r3, [r3, #-8]
 129              	.LVL13:
 203:./Libraries/CMSIS/DSP/Source/FilteringFunctions/arm_biquad_cascade_df1_32x64_q31.c **** 
 130              		.loc 1 203 5 is_stmt 1 view .LVU37
 203:./Libraries/CMSIS/DSP/Source/FilteringFunctions/arm_biquad_cascade_df1_32x64_q31.c **** 
 131              		.loc 1 203 8 is_stmt 0 view .LVU38
 132 0056 52F8042C 		ldr	r2, [r2, #-4]
 133              	.LVL14:
 206:./Libraries/CMSIS/DSP/Source/FilteringFunctions/arm_biquad_cascade_df1_32x64_q31.c ****     Xn2 = (q31_t) (pState[1]);
 134              		.loc 1 206 5 is_stmt 1 view .LVU39
 207:./Libraries/CMSIS/DSP/Source/FilteringFunctions/arm_biquad_cascade_df1_32x64_q31.c ****     Yn1 = pState[2];
 135              		.loc 1 207 5 view .LVU40
 208:./Libraries/CMSIS/DSP/Source/FilteringFunctions/arm_biquad_cascade_df1_32x64_q31.c ****     Yn2 = pState[3];
 136              		.loc 1 208 5 view .LVU41
 209:./Libraries/CMSIS/DSP/Source/FilteringFunctions/arm_biquad_cascade_df1_32x64_q31.c **** 
 137              		.loc 1 209 9 is_stmt 0 view .LVU42
 138 005a 50F8040C 		ldr	r0, [r0, #-4]
 208:./Libraries/CMSIS/DSP/Source/FilteringFunctions/arm_biquad_cascade_df1_32x64_q31.c ****     Yn2 = pState[3];
 139              		.loc 1 208 9 view .LVU43
 140 005e 51E904BE 		ldrd	fp, lr, [r1, #-16]
 141              	.LVL15:
 209:./Libraries/CMSIS/DSP/Source/FilteringFunctions/arm_biquad_cascade_df1_32x64_q31.c **** 
 142              		.loc 1 209 5 is_stmt 1 view .LVU44
 209:./Libraries/CMSIS/DSP/Source/FilteringFunctions/arm_biquad_cascade_df1_32x64_q31.c **** 
 143              		.loc 1 209 9 is_stmt 0 view .LVU45
 144 0062 51F8081C 		ldr	r1, [r1, #-8]
 145              	.LVL16:
 385:./Libraries/CMSIS/DSP/Source/FilteringFunctions/arm_biquad_cascade_df1_32x64_q31.c **** 
 146              		.loc 1 385 5 is_stmt 1 view .LVU46
 147              		.loc 1 389 5 view .LVU47
 148              		.loc 1 389 11 view .LVU48
 149 0066 002C     		cmp	r4, #0
 150 0068 00F09680 		beq	.L2
 151 006c 1546     		mov	r5, r2
 152 006e D617     		asrs	r6, r2, #31
 153 0070 0994     		str	r4, [sp, #36]
ARM GAS  /tmp/ccykST3h.s 			page 11


 154 0072 CDE90E56 		strd	r5, [sp, #56]
 155 0076 1D46     		mov	r5, r3
 156 0078 DE17     		asrs	r6, r3, #31
 157 007a 169B     		ldr	r3, [sp, #88]
 158              	.LVL17:
 159              		.loc 1 389 11 is_stmt 0 view .LVU49
 160 007c CDE90456 		strd	r5, [sp, #16]
 161 0080 0893     		str	r3, [sp, #32]
 162 0082 01E0     		b	.L3
 163              	.LVL18:
 164              	.L6:
 390:./Libraries/CMSIS/DSP/Source/FilteringFunctions/arm_biquad_cascade_df1_32x64_q31.c ****     {
 391:./Libraries/CMSIS/DSP/Source/FilteringFunctions/arm_biquad_cascade_df1_32x64_q31.c ****       /* Read the input */
 392:./Libraries/CMSIS/DSP/Source/FilteringFunctions/arm_biquad_cascade_df1_32x64_q31.c ****       Xn = *pIn++;
 393:./Libraries/CMSIS/DSP/Source/FilteringFunctions/arm_biquad_cascade_df1_32x64_q31.c **** 
 394:./Libraries/CMSIS/DSP/Source/FilteringFunctions/arm_biquad_cascade_df1_32x64_q31.c ****       /* acc =  b0 * x[n] + b1 * x[n-1] + b2 * x[n-2] + a1 * y[n-1] + a2 * y[n-2] */
 395:./Libraries/CMSIS/DSP/Source/FilteringFunctions/arm_biquad_cascade_df1_32x64_q31.c **** 
 396:./Libraries/CMSIS/DSP/Source/FilteringFunctions/arm_biquad_cascade_df1_32x64_q31.c ****       /* acc =  b0 * x[n] */
 397:./Libraries/CMSIS/DSP/Source/FilteringFunctions/arm_biquad_cascade_df1_32x64_q31.c ****       acc = (q63_t) Xn * b0;
 398:./Libraries/CMSIS/DSP/Source/FilteringFunctions/arm_biquad_cascade_df1_32x64_q31.c ****       /* acc +=  b1 * x[n-1] */
 399:./Libraries/CMSIS/DSP/Source/FilteringFunctions/arm_biquad_cascade_df1_32x64_q31.c ****       acc += (q63_t) Xn1 * b1;
 400:./Libraries/CMSIS/DSP/Source/FilteringFunctions/arm_biquad_cascade_df1_32x64_q31.c ****       /* acc +=  b[2] * x[n-2] */
 401:./Libraries/CMSIS/DSP/Source/FilteringFunctions/arm_biquad_cascade_df1_32x64_q31.c ****       acc += (q63_t) Xn2 * b2;
 402:./Libraries/CMSIS/DSP/Source/FilteringFunctions/arm_biquad_cascade_df1_32x64_q31.c ****       /* acc +=  a1 * y[n-1] */
 403:./Libraries/CMSIS/DSP/Source/FilteringFunctions/arm_biquad_cascade_df1_32x64_q31.c ****       acc += mult32x64(Yn1, a1);
 404:./Libraries/CMSIS/DSP/Source/FilteringFunctions/arm_biquad_cascade_df1_32x64_q31.c ****       /* acc +=  a2 * y[n-2] */
 405:./Libraries/CMSIS/DSP/Source/FilteringFunctions/arm_biquad_cascade_df1_32x64_q31.c ****       acc += mult32x64(Yn2, a2);
 406:./Libraries/CMSIS/DSP/Source/FilteringFunctions/arm_biquad_cascade_df1_32x64_q31.c **** 
 407:./Libraries/CMSIS/DSP/Source/FilteringFunctions/arm_biquad_cascade_df1_32x64_q31.c ****       /* Every time after the output is computed state should be updated. */
 408:./Libraries/CMSIS/DSP/Source/FilteringFunctions/arm_biquad_cascade_df1_32x64_q31.c ****       /* The states should be updated as: */
 409:./Libraries/CMSIS/DSP/Source/FilteringFunctions/arm_biquad_cascade_df1_32x64_q31.c ****       /* Xn2 = Xn1 */
 410:./Libraries/CMSIS/DSP/Source/FilteringFunctions/arm_biquad_cascade_df1_32x64_q31.c ****       /* Xn1 = Xn  */
 411:./Libraries/CMSIS/DSP/Source/FilteringFunctions/arm_biquad_cascade_df1_32x64_q31.c ****       /* Yn2 = Yn1 */
 412:./Libraries/CMSIS/DSP/Source/FilteringFunctions/arm_biquad_cascade_df1_32x64_q31.c ****       /* Yn1 = acc */
 413:./Libraries/CMSIS/DSP/Source/FilteringFunctions/arm_biquad_cascade_df1_32x64_q31.c ****       Xn2 = Xn1;
 414:./Libraries/CMSIS/DSP/Source/FilteringFunctions/arm_biquad_cascade_df1_32x64_q31.c ****       Xn1 = Xn;
 415:./Libraries/CMSIS/DSP/Source/FilteringFunctions/arm_biquad_cascade_df1_32x64_q31.c ****       Yn2 = Yn1;
 416:./Libraries/CMSIS/DSP/Source/FilteringFunctions/arm_biquad_cascade_df1_32x64_q31.c **** 
 417:./Libraries/CMSIS/DSP/Source/FilteringFunctions/arm_biquad_cascade_df1_32x64_q31.c ****       /* The result is converted to 1.63, Yn1 variable is reused  */
 418:./Libraries/CMSIS/DSP/Source/FilteringFunctions/arm_biquad_cascade_df1_32x64_q31.c ****       Yn1 = acc << shift;
 165              		.loc 1 418 11 view .LVU50
 166 0084 9B46     		mov	fp, r3
 167 0086 AE46     		mov	lr, r5
 168              	.LVL19:
 169              	.L3:
 392:./Libraries/CMSIS/DSP/Source/FilteringFunctions/arm_biquad_cascade_df1_32x64_q31.c **** 
 170              		.loc 1 392 7 is_stmt 1 view .LVU51
 392:./Libraries/CMSIS/DSP/Source/FilteringFunctions/arm_biquad_cascade_df1_32x64_q31.c **** 
 171              		.loc 1 392 10 is_stmt 0 view .LVU52
 172 0088 079B     		ldr	r3, [sp, #28]
 173              	.LBB6:
 174              	.LBB7:
 175              		.file 2 "./Libraries/CMSIS/DSP/Include/arm_math.h"
   1:./Libraries/CMSIS/DSP/Include/arm_math.h **** /******************************************************************************
   2:./Libraries/CMSIS/DSP/Include/arm_math.h ****  * @file     arm_math.h
   3:./Libraries/CMSIS/DSP/Include/arm_math.h ****  * @brief    Public header file for CMSIS DSP Library
   4:./Libraries/CMSIS/DSP/Include/arm_math.h ****  * @version  V1.6.0
ARM GAS  /tmp/ccykST3h.s 			page 12


   5:./Libraries/CMSIS/DSP/Include/arm_math.h ****  * @date     18. March 2019
   6:./Libraries/CMSIS/DSP/Include/arm_math.h ****  ******************************************************************************/
   7:./Libraries/CMSIS/DSP/Include/arm_math.h **** /*
   8:./Libraries/CMSIS/DSP/Include/arm_math.h ****  * Copyright (c) 2010-2019 Arm Limited or its affiliates. All rights reserved.
   9:./Libraries/CMSIS/DSP/Include/arm_math.h ****  *
  10:./Libraries/CMSIS/DSP/Include/arm_math.h ****  * SPDX-License-Identifier: Apache-2.0
  11:./Libraries/CMSIS/DSP/Include/arm_math.h ****  *
  12:./Libraries/CMSIS/DSP/Include/arm_math.h ****  * Licensed under the Apache License, Version 2.0 (the License); you may
  13:./Libraries/CMSIS/DSP/Include/arm_math.h ****  * not use this file except in compliance with the License.
  14:./Libraries/CMSIS/DSP/Include/arm_math.h ****  * You may obtain a copy of the License at
  15:./Libraries/CMSIS/DSP/Include/arm_math.h ****  *
  16:./Libraries/CMSIS/DSP/Include/arm_math.h ****  * www.apache.org/licenses/LICENSE-2.0
  17:./Libraries/CMSIS/DSP/Include/arm_math.h ****  *
  18:./Libraries/CMSIS/DSP/Include/arm_math.h ****  * Unless required by applicable law or agreed to in writing, software
  19:./Libraries/CMSIS/DSP/Include/arm_math.h ****  * distributed under the License is distributed on an AS IS BASIS, WITHOUT
  20:./Libraries/CMSIS/DSP/Include/arm_math.h ****  * WARRANTIES OR CONDITIONS OF ANY KIND, either express or implied.
  21:./Libraries/CMSIS/DSP/Include/arm_math.h ****  * See the License for the specific language governing permissions and
  22:./Libraries/CMSIS/DSP/Include/arm_math.h ****  * limitations under the License.
  23:./Libraries/CMSIS/DSP/Include/arm_math.h ****  */
  24:./Libraries/CMSIS/DSP/Include/arm_math.h **** 
  25:./Libraries/CMSIS/DSP/Include/arm_math.h **** /**
  26:./Libraries/CMSIS/DSP/Include/arm_math.h ****    \mainpage CMSIS DSP Software Library
  27:./Libraries/CMSIS/DSP/Include/arm_math.h ****    *
  28:./Libraries/CMSIS/DSP/Include/arm_math.h ****    * Introduction
  29:./Libraries/CMSIS/DSP/Include/arm_math.h ****    * ------------
  30:./Libraries/CMSIS/DSP/Include/arm_math.h ****    *
  31:./Libraries/CMSIS/DSP/Include/arm_math.h ****    * This user manual describes the CMSIS DSP software library,
  32:./Libraries/CMSIS/DSP/Include/arm_math.h ****    * a suite of common signal processing functions for use on Cortex-M processor based devices.
  33:./Libraries/CMSIS/DSP/Include/arm_math.h ****    *
  34:./Libraries/CMSIS/DSP/Include/arm_math.h ****    * The library is divided into a number of functions each covering a specific category:
  35:./Libraries/CMSIS/DSP/Include/arm_math.h ****    * - Basic math functions
  36:./Libraries/CMSIS/DSP/Include/arm_math.h ****    * - Fast math functions
  37:./Libraries/CMSIS/DSP/Include/arm_math.h ****    * - Complex math functions
  38:./Libraries/CMSIS/DSP/Include/arm_math.h ****    * - Filters
  39:./Libraries/CMSIS/DSP/Include/arm_math.h ****    * - Matrix functions
  40:./Libraries/CMSIS/DSP/Include/arm_math.h ****    * - Transform functions
  41:./Libraries/CMSIS/DSP/Include/arm_math.h ****    * - Motor control functions
  42:./Libraries/CMSIS/DSP/Include/arm_math.h ****    * - Statistical functions
  43:./Libraries/CMSIS/DSP/Include/arm_math.h ****    * - Support functions
  44:./Libraries/CMSIS/DSP/Include/arm_math.h ****    * - Interpolation functions
  45:./Libraries/CMSIS/DSP/Include/arm_math.h ****    *
  46:./Libraries/CMSIS/DSP/Include/arm_math.h ****    * The library has separate functions for operating on 8-bit integers, 16-bit integers,
  47:./Libraries/CMSIS/DSP/Include/arm_math.h ****    * 32-bit integer and 32-bit floating-point values.
  48:./Libraries/CMSIS/DSP/Include/arm_math.h ****    *
  49:./Libraries/CMSIS/DSP/Include/arm_math.h ****    * Using the Library
  50:./Libraries/CMSIS/DSP/Include/arm_math.h ****    * ------------
  51:./Libraries/CMSIS/DSP/Include/arm_math.h ****    *
  52:./Libraries/CMSIS/DSP/Include/arm_math.h ****    * The library installer contains prebuilt versions of the libraries in the <code>Lib</code> fold
  53:./Libraries/CMSIS/DSP/Include/arm_math.h ****    * - arm_cortexM7lfdp_math.lib (Cortex-M7, Little endian, Double Precision Floating Point Unit)
  54:./Libraries/CMSIS/DSP/Include/arm_math.h ****    * - arm_cortexM7bfdp_math.lib (Cortex-M7, Big endian, Double Precision Floating Point Unit)
  55:./Libraries/CMSIS/DSP/Include/arm_math.h ****    * - arm_cortexM7lfsp_math.lib (Cortex-M7, Little endian, Single Precision Floating Point Unit)
  56:./Libraries/CMSIS/DSP/Include/arm_math.h ****    * - arm_cortexM7bfsp_math.lib (Cortex-M7, Big endian and Single Precision Floating Point Unit on
  57:./Libraries/CMSIS/DSP/Include/arm_math.h ****    * - arm_cortexM7l_math.lib (Cortex-M7, Little endian)
  58:./Libraries/CMSIS/DSP/Include/arm_math.h ****    * - arm_cortexM7b_math.lib (Cortex-M7, Big endian)
  59:./Libraries/CMSIS/DSP/Include/arm_math.h ****    * - arm_cortexM4lf_math.lib (Cortex-M4, Little endian, Floating Point Unit)
  60:./Libraries/CMSIS/DSP/Include/arm_math.h ****    * - arm_cortexM4bf_math.lib (Cortex-M4, Big endian, Floating Point Unit)
  61:./Libraries/CMSIS/DSP/Include/arm_math.h ****    * - arm_cortexM4l_math.lib (Cortex-M4, Little endian)
ARM GAS  /tmp/ccykST3h.s 			page 13


  62:./Libraries/CMSIS/DSP/Include/arm_math.h ****    * - arm_cortexM4b_math.lib (Cortex-M4, Big endian)
  63:./Libraries/CMSIS/DSP/Include/arm_math.h ****    * - arm_cortexM3l_math.lib (Cortex-M3, Little endian)
  64:./Libraries/CMSIS/DSP/Include/arm_math.h ****    * - arm_cortexM3b_math.lib (Cortex-M3, Big endian)
  65:./Libraries/CMSIS/DSP/Include/arm_math.h ****    * - arm_cortexM0l_math.lib (Cortex-M0 / Cortex-M0+, Little endian)
  66:./Libraries/CMSIS/DSP/Include/arm_math.h ****    * - arm_cortexM0b_math.lib (Cortex-M0 / Cortex-M0+, Big endian)
  67:./Libraries/CMSIS/DSP/Include/arm_math.h ****    * - arm_ARMv8MBLl_math.lib (Armv8-M Baseline, Little endian)
  68:./Libraries/CMSIS/DSP/Include/arm_math.h ****    * - arm_ARMv8MMLl_math.lib (Armv8-M Mainline, Little endian)
  69:./Libraries/CMSIS/DSP/Include/arm_math.h ****    * - arm_ARMv8MMLlfsp_math.lib (Armv8-M Mainline, Little endian, Single Precision Floating Point 
  70:./Libraries/CMSIS/DSP/Include/arm_math.h ****    * - arm_ARMv8MMLld_math.lib (Armv8-M Mainline, Little endian, DSP instructions)
  71:./Libraries/CMSIS/DSP/Include/arm_math.h ****    * - arm_ARMv8MMLldfsp_math.lib (Armv8-M Mainline, Little endian, DSP instructions, Single Precis
  72:./Libraries/CMSIS/DSP/Include/arm_math.h ****    *
  73:./Libraries/CMSIS/DSP/Include/arm_math.h ****    * The library functions are declared in the public file <code>arm_math.h</code> which is placed 
  74:./Libraries/CMSIS/DSP/Include/arm_math.h ****    * Simply include this file and link the appropriate library in the application and begin calling
  75:./Libraries/CMSIS/DSP/Include/arm_math.h ****    * public header file <code> arm_math.h</code> for Cortex-M cores with little endian and big endi
  76:./Libraries/CMSIS/DSP/Include/arm_math.h ****    *
  77:./Libraries/CMSIS/DSP/Include/arm_math.h ****    *
  78:./Libraries/CMSIS/DSP/Include/arm_math.h ****    * Examples
  79:./Libraries/CMSIS/DSP/Include/arm_math.h ****    * --------
  80:./Libraries/CMSIS/DSP/Include/arm_math.h ****    *
  81:./Libraries/CMSIS/DSP/Include/arm_math.h ****    * The library ships with a number of examples which demonstrate how to use the library functions
  82:./Libraries/CMSIS/DSP/Include/arm_math.h ****    *
  83:./Libraries/CMSIS/DSP/Include/arm_math.h ****    * Toolchain Support
  84:./Libraries/CMSIS/DSP/Include/arm_math.h ****    * ------------
  85:./Libraries/CMSIS/DSP/Include/arm_math.h ****    *
  86:./Libraries/CMSIS/DSP/Include/arm_math.h ****    * The library has been developed and tested with MDK version 5.14.0.0
  87:./Libraries/CMSIS/DSP/Include/arm_math.h ****    * The library is being tested in GCC and IAR toolchains and updates on this activity will be mad
  88:./Libraries/CMSIS/DSP/Include/arm_math.h ****    *
  89:./Libraries/CMSIS/DSP/Include/arm_math.h ****    * Building the Library
  90:./Libraries/CMSIS/DSP/Include/arm_math.h ****    * ------------
  91:./Libraries/CMSIS/DSP/Include/arm_math.h ****    *
  92:./Libraries/CMSIS/DSP/Include/arm_math.h ****    * The library installer contains a project file to rebuild libraries on MDK toolchain in the <co
  93:./Libraries/CMSIS/DSP/Include/arm_math.h ****    * - arm_cortexM_math.uvprojx
  94:./Libraries/CMSIS/DSP/Include/arm_math.h ****    *
  95:./Libraries/CMSIS/DSP/Include/arm_math.h ****    *
  96:./Libraries/CMSIS/DSP/Include/arm_math.h ****    * The libraries can be built by opening the arm_cortexM_math.uvprojx project in MDK-ARM, selecti
  97:./Libraries/CMSIS/DSP/Include/arm_math.h ****    *
  98:./Libraries/CMSIS/DSP/Include/arm_math.h ****    * Preprocessor Macros
  99:./Libraries/CMSIS/DSP/Include/arm_math.h ****    * ------------
 100:./Libraries/CMSIS/DSP/Include/arm_math.h ****    *
 101:./Libraries/CMSIS/DSP/Include/arm_math.h ****    * Each library project have different preprocessor macros.
 102:./Libraries/CMSIS/DSP/Include/arm_math.h ****    *
 103:./Libraries/CMSIS/DSP/Include/arm_math.h ****    * - ARM_MATH_BIG_ENDIAN:
 104:./Libraries/CMSIS/DSP/Include/arm_math.h ****    *
 105:./Libraries/CMSIS/DSP/Include/arm_math.h ****    * Define macro ARM_MATH_BIG_ENDIAN to build the library for big endian targets. By default libra
 106:./Libraries/CMSIS/DSP/Include/arm_math.h ****    *
 107:./Libraries/CMSIS/DSP/Include/arm_math.h ****    * - ARM_MATH_MATRIX_CHECK:
 108:./Libraries/CMSIS/DSP/Include/arm_math.h ****    *
 109:./Libraries/CMSIS/DSP/Include/arm_math.h ****    * Define macro ARM_MATH_MATRIX_CHECK for checking on the input and output sizes of matrices
 110:./Libraries/CMSIS/DSP/Include/arm_math.h ****    *
 111:./Libraries/CMSIS/DSP/Include/arm_math.h ****    * - ARM_MATH_ROUNDING:
 112:./Libraries/CMSIS/DSP/Include/arm_math.h ****    *
 113:./Libraries/CMSIS/DSP/Include/arm_math.h ****    * Define macro ARM_MATH_ROUNDING for rounding on support functions
 114:./Libraries/CMSIS/DSP/Include/arm_math.h ****    *
 115:./Libraries/CMSIS/DSP/Include/arm_math.h ****    * - ARM_MATH_LOOPUNROLL:
 116:./Libraries/CMSIS/DSP/Include/arm_math.h ****    *
 117:./Libraries/CMSIS/DSP/Include/arm_math.h ****    * Define macro ARM_MATH_LOOPUNROLL to enable manual loop unrolling in DSP functions
 118:./Libraries/CMSIS/DSP/Include/arm_math.h ****    *
ARM GAS  /tmp/ccykST3h.s 			page 14


 119:./Libraries/CMSIS/DSP/Include/arm_math.h ****    * - ARM_MATH_NEON:
 120:./Libraries/CMSIS/DSP/Include/arm_math.h ****    *
 121:./Libraries/CMSIS/DSP/Include/arm_math.h ****    * Define macro ARM_MATH_NEON to enable Neon versions of the DSP functions.
 122:./Libraries/CMSIS/DSP/Include/arm_math.h ****    * It is not enabled by default when Neon is available because performances are 
 123:./Libraries/CMSIS/DSP/Include/arm_math.h ****    * dependent on the compiler and target architecture.
 124:./Libraries/CMSIS/DSP/Include/arm_math.h ****    *
 125:./Libraries/CMSIS/DSP/Include/arm_math.h ****    * - ARM_MATH_NEON_EXPERIMENTAL:
 126:./Libraries/CMSIS/DSP/Include/arm_math.h ****    *
 127:./Libraries/CMSIS/DSP/Include/arm_math.h ****    * Define macro ARM_MATH_NEON_EXPERIMENTAL to enable experimental Neon versions of 
 128:./Libraries/CMSIS/DSP/Include/arm_math.h ****    * of some DSP functions. Experimental Neon versions currently do not have better
 129:./Libraries/CMSIS/DSP/Include/arm_math.h ****    * performances than the scalar versions.
 130:./Libraries/CMSIS/DSP/Include/arm_math.h ****    *
 131:./Libraries/CMSIS/DSP/Include/arm_math.h ****    * <hr>
 132:./Libraries/CMSIS/DSP/Include/arm_math.h ****    * CMSIS-DSP in ARM::CMSIS Pack
 133:./Libraries/CMSIS/DSP/Include/arm_math.h ****    * -----------------------------
 134:./Libraries/CMSIS/DSP/Include/arm_math.h ****    *
 135:./Libraries/CMSIS/DSP/Include/arm_math.h ****    * The following files relevant to CMSIS-DSP are present in the <b>ARM::CMSIS</b> Pack directorie
 136:./Libraries/CMSIS/DSP/Include/arm_math.h ****    * |File/Folder                      |Content                                                    
 137:./Libraries/CMSIS/DSP/Include/arm_math.h ****    * |---------------------------------|-----------------------------------------------------------
 138:./Libraries/CMSIS/DSP/Include/arm_math.h ****    * |\b CMSIS\\Documentation\\DSP     | This documentation                                        
 139:./Libraries/CMSIS/DSP/Include/arm_math.h ****    * |\b CMSIS\\DSP\\DSP_Lib_TestSuite | DSP_Lib test suite                                        
 140:./Libraries/CMSIS/DSP/Include/arm_math.h ****    * |\b CMSIS\\DSP\\Examples          | Example projects demonstrating the usage of the library fu
 141:./Libraries/CMSIS/DSP/Include/arm_math.h ****    * |\b CMSIS\\DSP\\Include           | DSP_Lib include files                                     
 142:./Libraries/CMSIS/DSP/Include/arm_math.h ****    * |\b CMSIS\\DSP\\Lib               | DSP_Lib binaries                                          
 143:./Libraries/CMSIS/DSP/Include/arm_math.h ****    * |\b CMSIS\\DSP\\Projects          | Projects to rebuild DSP_Lib binaries                      
 144:./Libraries/CMSIS/DSP/Include/arm_math.h ****    * |\b CMSIS\\DSP\\Source            | DSP_Lib source files                                      
 145:./Libraries/CMSIS/DSP/Include/arm_math.h ****    *
 146:./Libraries/CMSIS/DSP/Include/arm_math.h ****    * <hr>
 147:./Libraries/CMSIS/DSP/Include/arm_math.h ****    * Revision History of CMSIS-DSP
 148:./Libraries/CMSIS/DSP/Include/arm_math.h ****    * ------------
 149:./Libraries/CMSIS/DSP/Include/arm_math.h ****    * Please refer to \ref ChangeLog_pg.
 150:./Libraries/CMSIS/DSP/Include/arm_math.h ****    */
 151:./Libraries/CMSIS/DSP/Include/arm_math.h **** 
 152:./Libraries/CMSIS/DSP/Include/arm_math.h **** 
 153:./Libraries/CMSIS/DSP/Include/arm_math.h **** /**
 154:./Libraries/CMSIS/DSP/Include/arm_math.h ****  * @defgroup groupMath Basic Math Functions
 155:./Libraries/CMSIS/DSP/Include/arm_math.h ****  */
 156:./Libraries/CMSIS/DSP/Include/arm_math.h **** 
 157:./Libraries/CMSIS/DSP/Include/arm_math.h **** /**
 158:./Libraries/CMSIS/DSP/Include/arm_math.h ****  * @defgroup groupFastMath Fast Math Functions
 159:./Libraries/CMSIS/DSP/Include/arm_math.h ****  * This set of functions provides a fast approximation to sine, cosine, and square root.
 160:./Libraries/CMSIS/DSP/Include/arm_math.h ****  * As compared to most of the other functions in the CMSIS math library, the fast math functions
 161:./Libraries/CMSIS/DSP/Include/arm_math.h ****  * operate on individual values and not arrays.
 162:./Libraries/CMSIS/DSP/Include/arm_math.h ****  * There are separate functions for Q15, Q31, and floating-point data.
 163:./Libraries/CMSIS/DSP/Include/arm_math.h ****  *
 164:./Libraries/CMSIS/DSP/Include/arm_math.h ****  */
 165:./Libraries/CMSIS/DSP/Include/arm_math.h **** 
 166:./Libraries/CMSIS/DSP/Include/arm_math.h **** /**
 167:./Libraries/CMSIS/DSP/Include/arm_math.h ****  * @defgroup groupCmplxMath Complex Math Functions
 168:./Libraries/CMSIS/DSP/Include/arm_math.h ****  * This set of functions operates on complex data vectors.
 169:./Libraries/CMSIS/DSP/Include/arm_math.h ****  * The data in the complex arrays is stored in an interleaved fashion
 170:./Libraries/CMSIS/DSP/Include/arm_math.h ****  * (real, imag, real, imag, ...).
 171:./Libraries/CMSIS/DSP/Include/arm_math.h ****  * In the API functions, the number of samples in a complex array refers
 172:./Libraries/CMSIS/DSP/Include/arm_math.h ****  * to the number of complex values; the array contains twice this number of
 173:./Libraries/CMSIS/DSP/Include/arm_math.h ****  * real values.
 174:./Libraries/CMSIS/DSP/Include/arm_math.h ****  */
 175:./Libraries/CMSIS/DSP/Include/arm_math.h **** 
ARM GAS  /tmp/ccykST3h.s 			page 15


 176:./Libraries/CMSIS/DSP/Include/arm_math.h **** /**
 177:./Libraries/CMSIS/DSP/Include/arm_math.h ****  * @defgroup groupFilters Filtering Functions
 178:./Libraries/CMSIS/DSP/Include/arm_math.h ****  */
 179:./Libraries/CMSIS/DSP/Include/arm_math.h **** 
 180:./Libraries/CMSIS/DSP/Include/arm_math.h **** /**
 181:./Libraries/CMSIS/DSP/Include/arm_math.h ****  * @defgroup groupMatrix Matrix Functions
 182:./Libraries/CMSIS/DSP/Include/arm_math.h ****  *
 183:./Libraries/CMSIS/DSP/Include/arm_math.h ****  * This set of functions provides basic matrix math operations.
 184:./Libraries/CMSIS/DSP/Include/arm_math.h ****  * The functions operate on matrix data structures.  For example,
 185:./Libraries/CMSIS/DSP/Include/arm_math.h ****  * the type
 186:./Libraries/CMSIS/DSP/Include/arm_math.h ****  * definition for the floating-point matrix structure is shown
 187:./Libraries/CMSIS/DSP/Include/arm_math.h ****  * below:
 188:./Libraries/CMSIS/DSP/Include/arm_math.h ****  * <pre>
 189:./Libraries/CMSIS/DSP/Include/arm_math.h ****  *     typedef struct
 190:./Libraries/CMSIS/DSP/Include/arm_math.h ****  *     {
 191:./Libraries/CMSIS/DSP/Include/arm_math.h ****  *       uint16_t numRows;     // number of rows of the matrix.
 192:./Libraries/CMSIS/DSP/Include/arm_math.h ****  *       uint16_t numCols;     // number of columns of the matrix.
 193:./Libraries/CMSIS/DSP/Include/arm_math.h ****  *       float32_t *pData;     // points to the data of the matrix.
 194:./Libraries/CMSIS/DSP/Include/arm_math.h ****  *     } arm_matrix_instance_f32;
 195:./Libraries/CMSIS/DSP/Include/arm_math.h ****  * </pre>
 196:./Libraries/CMSIS/DSP/Include/arm_math.h ****  * There are similar definitions for Q15 and Q31 data types.
 197:./Libraries/CMSIS/DSP/Include/arm_math.h ****  *
 198:./Libraries/CMSIS/DSP/Include/arm_math.h ****  * The structure specifies the size of the matrix and then points to
 199:./Libraries/CMSIS/DSP/Include/arm_math.h ****  * an array of data.  The array is of size <code>numRows X numCols</code>
 200:./Libraries/CMSIS/DSP/Include/arm_math.h ****  * and the values are arranged in row order.  That is, the
 201:./Libraries/CMSIS/DSP/Include/arm_math.h ****  * matrix element (i, j) is stored at:
 202:./Libraries/CMSIS/DSP/Include/arm_math.h ****  * <pre>
 203:./Libraries/CMSIS/DSP/Include/arm_math.h ****  *     pData[i*numCols + j]
 204:./Libraries/CMSIS/DSP/Include/arm_math.h ****  * </pre>
 205:./Libraries/CMSIS/DSP/Include/arm_math.h ****  *
 206:./Libraries/CMSIS/DSP/Include/arm_math.h ****  * \par Init Functions
 207:./Libraries/CMSIS/DSP/Include/arm_math.h ****  * There is an associated initialization function for each type of matrix
 208:./Libraries/CMSIS/DSP/Include/arm_math.h ****  * data structure.
 209:./Libraries/CMSIS/DSP/Include/arm_math.h ****  * The initialization function sets the values of the internal structure fields.
 210:./Libraries/CMSIS/DSP/Include/arm_math.h ****  * Refer to \ref arm_mat_init_f32(), \ref arm_mat_init_q31() and \ref arm_mat_init_q15()
 211:./Libraries/CMSIS/DSP/Include/arm_math.h ****  * for floating-point, Q31 and Q15 types,  respectively.
 212:./Libraries/CMSIS/DSP/Include/arm_math.h ****  *
 213:./Libraries/CMSIS/DSP/Include/arm_math.h ****  * \par
 214:./Libraries/CMSIS/DSP/Include/arm_math.h ****  * Use of the initialization function is optional. However, if initialization function is used
 215:./Libraries/CMSIS/DSP/Include/arm_math.h ****  * then the instance structure cannot be placed into a const data section.
 216:./Libraries/CMSIS/DSP/Include/arm_math.h ****  * To place the instance structure in a const data
 217:./Libraries/CMSIS/DSP/Include/arm_math.h ****  * section, manually initialize the data structure.  For example:
 218:./Libraries/CMSIS/DSP/Include/arm_math.h ****  * <pre>
 219:./Libraries/CMSIS/DSP/Include/arm_math.h ****  * <code>arm_matrix_instance_f32 S = {nRows, nColumns, pData};</code>
 220:./Libraries/CMSIS/DSP/Include/arm_math.h ****  * <code>arm_matrix_instance_q31 S = {nRows, nColumns, pData};</code>
 221:./Libraries/CMSIS/DSP/Include/arm_math.h ****  * <code>arm_matrix_instance_q15 S = {nRows, nColumns, pData};</code>
 222:./Libraries/CMSIS/DSP/Include/arm_math.h ****  * </pre>
 223:./Libraries/CMSIS/DSP/Include/arm_math.h ****  * where <code>nRows</code> specifies the number of rows, <code>nColumns</code>
 224:./Libraries/CMSIS/DSP/Include/arm_math.h ****  * specifies the number of columns, and <code>pData</code> points to the
 225:./Libraries/CMSIS/DSP/Include/arm_math.h ****  * data array.
 226:./Libraries/CMSIS/DSP/Include/arm_math.h ****  *
 227:./Libraries/CMSIS/DSP/Include/arm_math.h ****  * \par Size Checking
 228:./Libraries/CMSIS/DSP/Include/arm_math.h ****  * By default all of the matrix functions perform size checking on the input and
 229:./Libraries/CMSIS/DSP/Include/arm_math.h ****  * output matrices. For example, the matrix addition function verifies that the
 230:./Libraries/CMSIS/DSP/Include/arm_math.h ****  * two input matrices and the output matrix all have the same number of rows and
 231:./Libraries/CMSIS/DSP/Include/arm_math.h ****  * columns. If the size check fails the functions return:
 232:./Libraries/CMSIS/DSP/Include/arm_math.h ****  * <pre>
ARM GAS  /tmp/ccykST3h.s 			page 16


 233:./Libraries/CMSIS/DSP/Include/arm_math.h ****  *     ARM_MATH_SIZE_MISMATCH
 234:./Libraries/CMSIS/DSP/Include/arm_math.h ****  * </pre>
 235:./Libraries/CMSIS/DSP/Include/arm_math.h ****  * Otherwise the functions return
 236:./Libraries/CMSIS/DSP/Include/arm_math.h ****  * <pre>
 237:./Libraries/CMSIS/DSP/Include/arm_math.h ****  *     ARM_MATH_SUCCESS
 238:./Libraries/CMSIS/DSP/Include/arm_math.h ****  * </pre>
 239:./Libraries/CMSIS/DSP/Include/arm_math.h ****  * There is some overhead associated with this matrix size checking.
 240:./Libraries/CMSIS/DSP/Include/arm_math.h ****  * The matrix size checking is enabled via the \#define
 241:./Libraries/CMSIS/DSP/Include/arm_math.h ****  * <pre>
 242:./Libraries/CMSIS/DSP/Include/arm_math.h ****  *     ARM_MATH_MATRIX_CHECK
 243:./Libraries/CMSIS/DSP/Include/arm_math.h ****  * </pre>
 244:./Libraries/CMSIS/DSP/Include/arm_math.h ****  * within the library project settings.  By default this macro is defined
 245:./Libraries/CMSIS/DSP/Include/arm_math.h ****  * and size checking is enabled. By changing the project settings and
 246:./Libraries/CMSIS/DSP/Include/arm_math.h ****  * undefining this macro size checking is eliminated and the functions
 247:./Libraries/CMSIS/DSP/Include/arm_math.h ****  * run a bit faster. With size checking disabled the functions always
 248:./Libraries/CMSIS/DSP/Include/arm_math.h ****  * return <code>ARM_MATH_SUCCESS</code>.
 249:./Libraries/CMSIS/DSP/Include/arm_math.h ****  */
 250:./Libraries/CMSIS/DSP/Include/arm_math.h **** 
 251:./Libraries/CMSIS/DSP/Include/arm_math.h **** /**
 252:./Libraries/CMSIS/DSP/Include/arm_math.h ****  * @defgroup groupTransforms Transform Functions
 253:./Libraries/CMSIS/DSP/Include/arm_math.h ****  */
 254:./Libraries/CMSIS/DSP/Include/arm_math.h **** 
 255:./Libraries/CMSIS/DSP/Include/arm_math.h **** /**
 256:./Libraries/CMSIS/DSP/Include/arm_math.h ****  * @defgroup groupController Controller Functions
 257:./Libraries/CMSIS/DSP/Include/arm_math.h ****  */
 258:./Libraries/CMSIS/DSP/Include/arm_math.h **** 
 259:./Libraries/CMSIS/DSP/Include/arm_math.h **** /**
 260:./Libraries/CMSIS/DSP/Include/arm_math.h ****  * @defgroup groupStats Statistics Functions
 261:./Libraries/CMSIS/DSP/Include/arm_math.h ****  */
 262:./Libraries/CMSIS/DSP/Include/arm_math.h **** 
 263:./Libraries/CMSIS/DSP/Include/arm_math.h **** /**
 264:./Libraries/CMSIS/DSP/Include/arm_math.h ****  * @defgroup groupSupport Support Functions
 265:./Libraries/CMSIS/DSP/Include/arm_math.h ****  */
 266:./Libraries/CMSIS/DSP/Include/arm_math.h **** 
 267:./Libraries/CMSIS/DSP/Include/arm_math.h **** /**
 268:./Libraries/CMSIS/DSP/Include/arm_math.h ****  * @defgroup groupInterpolation Interpolation Functions
 269:./Libraries/CMSIS/DSP/Include/arm_math.h ****  * These functions perform 1- and 2-dimensional interpolation of data.
 270:./Libraries/CMSIS/DSP/Include/arm_math.h ****  * Linear interpolation is used for 1-dimensional data and
 271:./Libraries/CMSIS/DSP/Include/arm_math.h ****  * bilinear interpolation is used for 2-dimensional data.
 272:./Libraries/CMSIS/DSP/Include/arm_math.h ****  */
 273:./Libraries/CMSIS/DSP/Include/arm_math.h **** 
 274:./Libraries/CMSIS/DSP/Include/arm_math.h **** /**
 275:./Libraries/CMSIS/DSP/Include/arm_math.h ****  * @defgroup groupExamples Examples
 276:./Libraries/CMSIS/DSP/Include/arm_math.h ****  */
 277:./Libraries/CMSIS/DSP/Include/arm_math.h **** 
 278:./Libraries/CMSIS/DSP/Include/arm_math.h **** 
 279:./Libraries/CMSIS/DSP/Include/arm_math.h **** #ifndef _ARM_MATH_H
 280:./Libraries/CMSIS/DSP/Include/arm_math.h **** #define _ARM_MATH_H
 281:./Libraries/CMSIS/DSP/Include/arm_math.h **** 
 282:./Libraries/CMSIS/DSP/Include/arm_math.h **** /* Compiler specific diagnostic adjustment */
 283:./Libraries/CMSIS/DSP/Include/arm_math.h **** #if   defined ( __CC_ARM )
 284:./Libraries/CMSIS/DSP/Include/arm_math.h **** 
 285:./Libraries/CMSIS/DSP/Include/arm_math.h **** #elif defined ( __ARMCC_VERSION ) && ( __ARMCC_VERSION >= 6010050 )
 286:./Libraries/CMSIS/DSP/Include/arm_math.h **** 
 287:./Libraries/CMSIS/DSP/Include/arm_math.h **** #elif defined ( __GNUC__ )
 288:./Libraries/CMSIS/DSP/Include/arm_math.h ****   #pragma GCC diagnostic push
 289:./Libraries/CMSIS/DSP/Include/arm_math.h ****   #pragma GCC diagnostic ignored "-Wsign-conversion"
ARM GAS  /tmp/ccykST3h.s 			page 17


 290:./Libraries/CMSIS/DSP/Include/arm_math.h ****   #pragma GCC diagnostic ignored "-Wconversion"
 291:./Libraries/CMSIS/DSP/Include/arm_math.h ****   #pragma GCC diagnostic ignored "-Wunused-parameter"
 292:./Libraries/CMSIS/DSP/Include/arm_math.h **** 
 293:./Libraries/CMSIS/DSP/Include/arm_math.h **** #elif defined ( __ICCARM__ )
 294:./Libraries/CMSIS/DSP/Include/arm_math.h **** 
 295:./Libraries/CMSIS/DSP/Include/arm_math.h **** #elif defined ( __TI_ARM__ )
 296:./Libraries/CMSIS/DSP/Include/arm_math.h **** 
 297:./Libraries/CMSIS/DSP/Include/arm_math.h **** #elif defined ( __CSMC__ )
 298:./Libraries/CMSIS/DSP/Include/arm_math.h **** 
 299:./Libraries/CMSIS/DSP/Include/arm_math.h **** #elif defined ( __TASKING__ )
 300:./Libraries/CMSIS/DSP/Include/arm_math.h **** 
 301:./Libraries/CMSIS/DSP/Include/arm_math.h **** #elif defined ( _MSC_VER )
 302:./Libraries/CMSIS/DSP/Include/arm_math.h **** 
 303:./Libraries/CMSIS/DSP/Include/arm_math.h **** #else
 304:./Libraries/CMSIS/DSP/Include/arm_math.h ****   #error Unknown compiler
 305:./Libraries/CMSIS/DSP/Include/arm_math.h **** #endif
 306:./Libraries/CMSIS/DSP/Include/arm_math.h **** 
 307:./Libraries/CMSIS/DSP/Include/arm_math.h **** 
 308:./Libraries/CMSIS/DSP/Include/arm_math.h **** /* Included for instrinsics definitions */
 309:./Libraries/CMSIS/DSP/Include/arm_math.h **** #if !defined ( _MSC_VER )
 310:./Libraries/CMSIS/DSP/Include/arm_math.h **** #include "cmsis_compiler.h"
 311:./Libraries/CMSIS/DSP/Include/arm_math.h **** #else
 312:./Libraries/CMSIS/DSP/Include/arm_math.h **** #include <stdint.h>
 313:./Libraries/CMSIS/DSP/Include/arm_math.h **** #define __STATIC_FORCEINLINE static __forceinline
 314:./Libraries/CMSIS/DSP/Include/arm_math.h **** #define __ALIGNED(x) __declspec(align(x))
 315:./Libraries/CMSIS/DSP/Include/arm_math.h **** #define LOW_OPTIMIZATION_ENTER
 316:./Libraries/CMSIS/DSP/Include/arm_math.h **** #define LOW_OPTIMIZATION_EXIT
 317:./Libraries/CMSIS/DSP/Include/arm_math.h **** #define IAR_ONLY_LOW_OPTIMIZATION_ENTER 
 318:./Libraries/CMSIS/DSP/Include/arm_math.h **** #define IAR_ONLY_LOW_OPTIMIZATION_EXIT
 319:./Libraries/CMSIS/DSP/Include/arm_math.h **** #endif
 320:./Libraries/CMSIS/DSP/Include/arm_math.h **** 
 321:./Libraries/CMSIS/DSP/Include/arm_math.h **** #include "string.h"
 322:./Libraries/CMSIS/DSP/Include/arm_math.h **** #include "math.h"
 323:./Libraries/CMSIS/DSP/Include/arm_math.h **** #include "float.h"
 324:./Libraries/CMSIS/DSP/Include/arm_math.h **** 
 325:./Libraries/CMSIS/DSP/Include/arm_math.h **** /* evaluate ARM DSP feature */
 326:./Libraries/CMSIS/DSP/Include/arm_math.h **** #if (defined (__ARM_FEATURE_DSP) && (__ARM_FEATURE_DSP == 1))
 327:./Libraries/CMSIS/DSP/Include/arm_math.h ****   #define ARM_MATH_DSP                   1
 328:./Libraries/CMSIS/DSP/Include/arm_math.h **** #endif
 329:./Libraries/CMSIS/DSP/Include/arm_math.h **** 
 330:./Libraries/CMSIS/DSP/Include/arm_math.h **** #if defined(__ARM_NEON)
 331:./Libraries/CMSIS/DSP/Include/arm_math.h **** #include <arm_neon.h>
 332:./Libraries/CMSIS/DSP/Include/arm_math.h **** #endif
 333:./Libraries/CMSIS/DSP/Include/arm_math.h **** 
 334:./Libraries/CMSIS/DSP/Include/arm_math.h **** 
 335:./Libraries/CMSIS/DSP/Include/arm_math.h **** #ifdef   __cplusplus
 336:./Libraries/CMSIS/DSP/Include/arm_math.h **** extern "C"
 337:./Libraries/CMSIS/DSP/Include/arm_math.h **** {
 338:./Libraries/CMSIS/DSP/Include/arm_math.h **** #endif
 339:./Libraries/CMSIS/DSP/Include/arm_math.h **** 
 340:./Libraries/CMSIS/DSP/Include/arm_math.h **** 
 341:./Libraries/CMSIS/DSP/Include/arm_math.h ****   /**
 342:./Libraries/CMSIS/DSP/Include/arm_math.h ****    * @brief Macros required for reciprocal calculation in Normalized LMS
 343:./Libraries/CMSIS/DSP/Include/arm_math.h ****    */
 344:./Libraries/CMSIS/DSP/Include/arm_math.h **** 
 345:./Libraries/CMSIS/DSP/Include/arm_math.h **** #define DELTA_Q31          (0x100)
 346:./Libraries/CMSIS/DSP/Include/arm_math.h **** #define DELTA_Q15          0x5
ARM GAS  /tmp/ccykST3h.s 			page 18


 347:./Libraries/CMSIS/DSP/Include/arm_math.h **** #define INDEX_MASK         0x0000003F
 348:./Libraries/CMSIS/DSP/Include/arm_math.h **** #ifndef PI
 349:./Libraries/CMSIS/DSP/Include/arm_math.h ****   #define PI               3.14159265358979f
 350:./Libraries/CMSIS/DSP/Include/arm_math.h **** #endif
 351:./Libraries/CMSIS/DSP/Include/arm_math.h **** 
 352:./Libraries/CMSIS/DSP/Include/arm_math.h ****   /**
 353:./Libraries/CMSIS/DSP/Include/arm_math.h ****    * @brief Macros required for SINE and COSINE Fast math approximations
 354:./Libraries/CMSIS/DSP/Include/arm_math.h ****    */
 355:./Libraries/CMSIS/DSP/Include/arm_math.h **** 
 356:./Libraries/CMSIS/DSP/Include/arm_math.h **** #define FAST_MATH_TABLE_SIZE  512
 357:./Libraries/CMSIS/DSP/Include/arm_math.h **** #define FAST_MATH_Q31_SHIFT   (32 - 10)
 358:./Libraries/CMSIS/DSP/Include/arm_math.h **** #define FAST_MATH_Q15_SHIFT   (16 - 10)
 359:./Libraries/CMSIS/DSP/Include/arm_math.h **** #define CONTROLLER_Q31_SHIFT  (32 - 9)
 360:./Libraries/CMSIS/DSP/Include/arm_math.h **** #define TABLE_SPACING_Q31     0x400000
 361:./Libraries/CMSIS/DSP/Include/arm_math.h **** #define TABLE_SPACING_Q15     0x80
 362:./Libraries/CMSIS/DSP/Include/arm_math.h **** 
 363:./Libraries/CMSIS/DSP/Include/arm_math.h ****   /**
 364:./Libraries/CMSIS/DSP/Include/arm_math.h ****    * @brief Macros required for SINE and COSINE Controller functions
 365:./Libraries/CMSIS/DSP/Include/arm_math.h ****    */
 366:./Libraries/CMSIS/DSP/Include/arm_math.h ****   /* 1.31(q31) Fixed value of 2/360 */
 367:./Libraries/CMSIS/DSP/Include/arm_math.h ****   /* -1 to +1 is divided into 360 values so total spacing is (2/360) */
 368:./Libraries/CMSIS/DSP/Include/arm_math.h **** #define INPUT_SPACING         0xB60B61
 369:./Libraries/CMSIS/DSP/Include/arm_math.h **** 
 370:./Libraries/CMSIS/DSP/Include/arm_math.h **** 
 371:./Libraries/CMSIS/DSP/Include/arm_math.h ****   /**
 372:./Libraries/CMSIS/DSP/Include/arm_math.h ****    * @brief Error status returned by some functions in the library.
 373:./Libraries/CMSIS/DSP/Include/arm_math.h ****    */
 374:./Libraries/CMSIS/DSP/Include/arm_math.h **** 
 375:./Libraries/CMSIS/DSP/Include/arm_math.h ****   typedef enum
 376:./Libraries/CMSIS/DSP/Include/arm_math.h ****   {
 377:./Libraries/CMSIS/DSP/Include/arm_math.h ****     ARM_MATH_SUCCESS        =  0,        /**< No error */
 378:./Libraries/CMSIS/DSP/Include/arm_math.h ****     ARM_MATH_ARGUMENT_ERROR = -1,        /**< One or more arguments are incorrect */
 379:./Libraries/CMSIS/DSP/Include/arm_math.h ****     ARM_MATH_LENGTH_ERROR   = -2,        /**< Length of data buffer is incorrect */
 380:./Libraries/CMSIS/DSP/Include/arm_math.h ****     ARM_MATH_SIZE_MISMATCH  = -3,        /**< Size of matrices is not compatible with the operation
 381:./Libraries/CMSIS/DSP/Include/arm_math.h ****     ARM_MATH_NANINF         = -4,        /**< Not-a-number (NaN) or infinity is generated */
 382:./Libraries/CMSIS/DSP/Include/arm_math.h ****     ARM_MATH_SINGULAR       = -5,        /**< Input matrix is singular and cannot be inverted */
 383:./Libraries/CMSIS/DSP/Include/arm_math.h ****     ARM_MATH_TEST_FAILURE   = -6         /**< Test Failed */
 384:./Libraries/CMSIS/DSP/Include/arm_math.h ****   } arm_status;
 385:./Libraries/CMSIS/DSP/Include/arm_math.h **** 
 386:./Libraries/CMSIS/DSP/Include/arm_math.h ****   /**
 387:./Libraries/CMSIS/DSP/Include/arm_math.h ****    * @brief 8-bit fractional data type in 1.7 format.
 388:./Libraries/CMSIS/DSP/Include/arm_math.h ****    */
 389:./Libraries/CMSIS/DSP/Include/arm_math.h ****   typedef int8_t q7_t;
 390:./Libraries/CMSIS/DSP/Include/arm_math.h **** 
 391:./Libraries/CMSIS/DSP/Include/arm_math.h ****   /**
 392:./Libraries/CMSIS/DSP/Include/arm_math.h ****    * @brief 16-bit fractional data type in 1.15 format.
 393:./Libraries/CMSIS/DSP/Include/arm_math.h ****    */
 394:./Libraries/CMSIS/DSP/Include/arm_math.h ****   typedef int16_t q15_t;
 395:./Libraries/CMSIS/DSP/Include/arm_math.h **** 
 396:./Libraries/CMSIS/DSP/Include/arm_math.h ****   /**
 397:./Libraries/CMSIS/DSP/Include/arm_math.h ****    * @brief 32-bit fractional data type in 1.31 format.
 398:./Libraries/CMSIS/DSP/Include/arm_math.h ****    */
 399:./Libraries/CMSIS/DSP/Include/arm_math.h ****   typedef int32_t q31_t;
 400:./Libraries/CMSIS/DSP/Include/arm_math.h **** 
 401:./Libraries/CMSIS/DSP/Include/arm_math.h ****   /**
 402:./Libraries/CMSIS/DSP/Include/arm_math.h ****    * @brief 64-bit fractional data type in 1.63 format.
 403:./Libraries/CMSIS/DSP/Include/arm_math.h ****    */
ARM GAS  /tmp/ccykST3h.s 			page 19


 404:./Libraries/CMSIS/DSP/Include/arm_math.h ****   typedef int64_t q63_t;
 405:./Libraries/CMSIS/DSP/Include/arm_math.h **** 
 406:./Libraries/CMSIS/DSP/Include/arm_math.h ****   /**
 407:./Libraries/CMSIS/DSP/Include/arm_math.h ****    * @brief 32-bit floating-point type definition.
 408:./Libraries/CMSIS/DSP/Include/arm_math.h ****    */
 409:./Libraries/CMSIS/DSP/Include/arm_math.h ****   typedef float float32_t;
 410:./Libraries/CMSIS/DSP/Include/arm_math.h **** 
 411:./Libraries/CMSIS/DSP/Include/arm_math.h ****   /**
 412:./Libraries/CMSIS/DSP/Include/arm_math.h ****    * @brief 64-bit floating-point type definition.
 413:./Libraries/CMSIS/DSP/Include/arm_math.h ****    */
 414:./Libraries/CMSIS/DSP/Include/arm_math.h ****   typedef double float64_t;
 415:./Libraries/CMSIS/DSP/Include/arm_math.h **** 
 416:./Libraries/CMSIS/DSP/Include/arm_math.h **** 
 417:./Libraries/CMSIS/DSP/Include/arm_math.h **** /**
 418:./Libraries/CMSIS/DSP/Include/arm_math.h ****   @brief definition to read/write two 16 bit values.
 419:./Libraries/CMSIS/DSP/Include/arm_math.h ****   @deprecated
 420:./Libraries/CMSIS/DSP/Include/arm_math.h ****  */
 421:./Libraries/CMSIS/DSP/Include/arm_math.h **** #if   defined ( __CC_ARM )
 422:./Libraries/CMSIS/DSP/Include/arm_math.h ****   #define __SIMD32_TYPE int32_t __packed
 423:./Libraries/CMSIS/DSP/Include/arm_math.h **** #elif defined ( __ARMCC_VERSION ) && ( __ARMCC_VERSION >= 6010050 )
 424:./Libraries/CMSIS/DSP/Include/arm_math.h ****   #define __SIMD32_TYPE int32_t
 425:./Libraries/CMSIS/DSP/Include/arm_math.h **** #elif defined ( __GNUC__ )
 426:./Libraries/CMSIS/DSP/Include/arm_math.h ****   #define __SIMD32_TYPE int32_t
 427:./Libraries/CMSIS/DSP/Include/arm_math.h **** #elif defined ( __ICCARM__ )
 428:./Libraries/CMSIS/DSP/Include/arm_math.h ****   #define __SIMD32_TYPE int32_t __packed
 429:./Libraries/CMSIS/DSP/Include/arm_math.h **** #elif defined ( __TI_ARM__ )
 430:./Libraries/CMSIS/DSP/Include/arm_math.h ****   #define __SIMD32_TYPE int32_t
 431:./Libraries/CMSIS/DSP/Include/arm_math.h **** #elif defined ( __CSMC__ )
 432:./Libraries/CMSIS/DSP/Include/arm_math.h ****   #define __SIMD32_TYPE int32_t
 433:./Libraries/CMSIS/DSP/Include/arm_math.h **** #elif defined ( __TASKING__ )
 434:./Libraries/CMSIS/DSP/Include/arm_math.h ****   #define __SIMD32_TYPE __un(aligned) int32_t
 435:./Libraries/CMSIS/DSP/Include/arm_math.h **** #elif defined(_MSC_VER )
 436:./Libraries/CMSIS/DSP/Include/arm_math.h ****   #define __SIMD32_TYPE int32_t
 437:./Libraries/CMSIS/DSP/Include/arm_math.h **** #else
 438:./Libraries/CMSIS/DSP/Include/arm_math.h ****   #error Unknown compiler
 439:./Libraries/CMSIS/DSP/Include/arm_math.h **** #endif
 440:./Libraries/CMSIS/DSP/Include/arm_math.h **** 
 441:./Libraries/CMSIS/DSP/Include/arm_math.h **** #define __SIMD32(addr)        (*(__SIMD32_TYPE **) & (addr))
 442:./Libraries/CMSIS/DSP/Include/arm_math.h **** #define __SIMD32_CONST(addr)  ( (__SIMD32_TYPE * )   (addr))
 443:./Libraries/CMSIS/DSP/Include/arm_math.h **** #define _SIMD32_OFFSET(addr)  (*(__SIMD32_TYPE * )   (addr))
 444:./Libraries/CMSIS/DSP/Include/arm_math.h **** #define __SIMD64(addr)        (*(      int64_t **) & (addr))
 445:./Libraries/CMSIS/DSP/Include/arm_math.h **** 
 446:./Libraries/CMSIS/DSP/Include/arm_math.h **** /* SIMD replacement */
 447:./Libraries/CMSIS/DSP/Include/arm_math.h **** 
 448:./Libraries/CMSIS/DSP/Include/arm_math.h **** 
 449:./Libraries/CMSIS/DSP/Include/arm_math.h **** /**
 450:./Libraries/CMSIS/DSP/Include/arm_math.h ****   @brief         Read 2 Q15 from Q15 pointer.
 451:./Libraries/CMSIS/DSP/Include/arm_math.h ****   @param[in]     pQ15      points to input value
 452:./Libraries/CMSIS/DSP/Include/arm_math.h ****   @return        Q31 value
 453:./Libraries/CMSIS/DSP/Include/arm_math.h ****  */
 454:./Libraries/CMSIS/DSP/Include/arm_math.h **** __STATIC_FORCEINLINE q31_t read_q15x2 (
 455:./Libraries/CMSIS/DSP/Include/arm_math.h ****   q15_t * pQ15)
 456:./Libraries/CMSIS/DSP/Include/arm_math.h **** {
 457:./Libraries/CMSIS/DSP/Include/arm_math.h ****   q31_t val;
 458:./Libraries/CMSIS/DSP/Include/arm_math.h **** 
 459:./Libraries/CMSIS/DSP/Include/arm_math.h ****   memcpy (&val, pQ15, 4);
 460:./Libraries/CMSIS/DSP/Include/arm_math.h **** 
ARM GAS  /tmp/ccykST3h.s 			page 20


 461:./Libraries/CMSIS/DSP/Include/arm_math.h ****   return (val);
 462:./Libraries/CMSIS/DSP/Include/arm_math.h **** }
 463:./Libraries/CMSIS/DSP/Include/arm_math.h **** 
 464:./Libraries/CMSIS/DSP/Include/arm_math.h **** /**
 465:./Libraries/CMSIS/DSP/Include/arm_math.h ****   @brief         Read 2 Q15 from Q15 pointer and increment pointer afterwards.
 466:./Libraries/CMSIS/DSP/Include/arm_math.h ****   @param[in]     pQ15      points to input value
 467:./Libraries/CMSIS/DSP/Include/arm_math.h ****   @return        Q31 value
 468:./Libraries/CMSIS/DSP/Include/arm_math.h ****  */
 469:./Libraries/CMSIS/DSP/Include/arm_math.h **** __STATIC_FORCEINLINE q31_t read_q15x2_ia (
 470:./Libraries/CMSIS/DSP/Include/arm_math.h ****   q15_t ** pQ15)
 471:./Libraries/CMSIS/DSP/Include/arm_math.h **** {
 472:./Libraries/CMSIS/DSP/Include/arm_math.h ****   q31_t val;
 473:./Libraries/CMSIS/DSP/Include/arm_math.h **** 
 474:./Libraries/CMSIS/DSP/Include/arm_math.h ****   memcpy (&val, *pQ15, 4);
 475:./Libraries/CMSIS/DSP/Include/arm_math.h ****   *pQ15 += 2;
 476:./Libraries/CMSIS/DSP/Include/arm_math.h **** 
 477:./Libraries/CMSIS/DSP/Include/arm_math.h ****   return (val);
 478:./Libraries/CMSIS/DSP/Include/arm_math.h **** }
 479:./Libraries/CMSIS/DSP/Include/arm_math.h **** 
 480:./Libraries/CMSIS/DSP/Include/arm_math.h **** /**
 481:./Libraries/CMSIS/DSP/Include/arm_math.h ****   @brief         Read 2 Q15 from Q15 pointer and decrement pointer afterwards.
 482:./Libraries/CMSIS/DSP/Include/arm_math.h ****   @param[in]     pQ15      points to input value
 483:./Libraries/CMSIS/DSP/Include/arm_math.h ****   @return        Q31 value
 484:./Libraries/CMSIS/DSP/Include/arm_math.h ****  */
 485:./Libraries/CMSIS/DSP/Include/arm_math.h **** __STATIC_FORCEINLINE q31_t read_q15x2_da (
 486:./Libraries/CMSIS/DSP/Include/arm_math.h ****   q15_t ** pQ15)
 487:./Libraries/CMSIS/DSP/Include/arm_math.h **** {
 488:./Libraries/CMSIS/DSP/Include/arm_math.h ****   q31_t val;
 489:./Libraries/CMSIS/DSP/Include/arm_math.h **** 
 490:./Libraries/CMSIS/DSP/Include/arm_math.h ****   memcpy (&val, *pQ15, 4);
 491:./Libraries/CMSIS/DSP/Include/arm_math.h ****   *pQ15 -= 2;
 492:./Libraries/CMSIS/DSP/Include/arm_math.h **** 
 493:./Libraries/CMSIS/DSP/Include/arm_math.h ****   return (val);
 494:./Libraries/CMSIS/DSP/Include/arm_math.h **** }
 495:./Libraries/CMSIS/DSP/Include/arm_math.h **** 
 496:./Libraries/CMSIS/DSP/Include/arm_math.h **** /**
 497:./Libraries/CMSIS/DSP/Include/arm_math.h ****   @brief         Write 2 Q15 to Q15 pointer and increment pointer afterwards.
 498:./Libraries/CMSIS/DSP/Include/arm_math.h ****   @param[in]     pQ15      points to input value
 499:./Libraries/CMSIS/DSP/Include/arm_math.h ****   @param[in]     value     Q31 value
 500:./Libraries/CMSIS/DSP/Include/arm_math.h ****   @return        none
 501:./Libraries/CMSIS/DSP/Include/arm_math.h ****  */
 502:./Libraries/CMSIS/DSP/Include/arm_math.h **** __STATIC_FORCEINLINE void write_q15x2_ia (
 503:./Libraries/CMSIS/DSP/Include/arm_math.h ****   q15_t ** pQ15,
 504:./Libraries/CMSIS/DSP/Include/arm_math.h ****   q31_t    value)
 505:./Libraries/CMSIS/DSP/Include/arm_math.h **** {
 506:./Libraries/CMSIS/DSP/Include/arm_math.h ****   q31_t val = value;
 507:./Libraries/CMSIS/DSP/Include/arm_math.h **** 
 508:./Libraries/CMSIS/DSP/Include/arm_math.h ****   memcpy (*pQ15, &val, 4);
 509:./Libraries/CMSIS/DSP/Include/arm_math.h ****   *pQ15 += 2;
 510:./Libraries/CMSIS/DSP/Include/arm_math.h **** }
 511:./Libraries/CMSIS/DSP/Include/arm_math.h **** 
 512:./Libraries/CMSIS/DSP/Include/arm_math.h **** /**
 513:./Libraries/CMSIS/DSP/Include/arm_math.h ****   @brief         Write 2 Q15 to Q15 pointer.
 514:./Libraries/CMSIS/DSP/Include/arm_math.h ****   @param[in]     pQ15      points to input value
 515:./Libraries/CMSIS/DSP/Include/arm_math.h ****   @param[in]     value     Q31 value
 516:./Libraries/CMSIS/DSP/Include/arm_math.h ****   @return        none
 517:./Libraries/CMSIS/DSP/Include/arm_math.h ****  */
ARM GAS  /tmp/ccykST3h.s 			page 21


 518:./Libraries/CMSIS/DSP/Include/arm_math.h **** __STATIC_FORCEINLINE void write_q15x2 (
 519:./Libraries/CMSIS/DSP/Include/arm_math.h ****   q15_t * pQ15,
 520:./Libraries/CMSIS/DSP/Include/arm_math.h ****   q31_t   value)
 521:./Libraries/CMSIS/DSP/Include/arm_math.h **** {
 522:./Libraries/CMSIS/DSP/Include/arm_math.h ****   q31_t val = value;
 523:./Libraries/CMSIS/DSP/Include/arm_math.h **** 
 524:./Libraries/CMSIS/DSP/Include/arm_math.h ****   memcpy (pQ15, &val, 4);
 525:./Libraries/CMSIS/DSP/Include/arm_math.h **** }
 526:./Libraries/CMSIS/DSP/Include/arm_math.h **** 
 527:./Libraries/CMSIS/DSP/Include/arm_math.h **** 
 528:./Libraries/CMSIS/DSP/Include/arm_math.h **** /**
 529:./Libraries/CMSIS/DSP/Include/arm_math.h ****   @brief         Read 4 Q7 from Q7 pointer and increment pointer afterwards.
 530:./Libraries/CMSIS/DSP/Include/arm_math.h ****   @param[in]     pQ7       points to input value
 531:./Libraries/CMSIS/DSP/Include/arm_math.h ****   @return        Q31 value
 532:./Libraries/CMSIS/DSP/Include/arm_math.h ****  */
 533:./Libraries/CMSIS/DSP/Include/arm_math.h **** __STATIC_FORCEINLINE q31_t read_q7x4_ia (
 534:./Libraries/CMSIS/DSP/Include/arm_math.h ****   q7_t ** pQ7)
 535:./Libraries/CMSIS/DSP/Include/arm_math.h **** {
 536:./Libraries/CMSIS/DSP/Include/arm_math.h ****   q31_t val;
 537:./Libraries/CMSIS/DSP/Include/arm_math.h **** 
 538:./Libraries/CMSIS/DSP/Include/arm_math.h ****   memcpy (&val, *pQ7, 4);
 539:./Libraries/CMSIS/DSP/Include/arm_math.h ****   *pQ7 += 4;
 540:./Libraries/CMSIS/DSP/Include/arm_math.h **** 
 541:./Libraries/CMSIS/DSP/Include/arm_math.h ****   return (val);
 542:./Libraries/CMSIS/DSP/Include/arm_math.h **** }
 543:./Libraries/CMSIS/DSP/Include/arm_math.h **** 
 544:./Libraries/CMSIS/DSP/Include/arm_math.h **** /**
 545:./Libraries/CMSIS/DSP/Include/arm_math.h ****   @brief         Read 4 Q7 from Q7 pointer and decrement pointer afterwards.
 546:./Libraries/CMSIS/DSP/Include/arm_math.h ****   @param[in]     pQ7       points to input value
 547:./Libraries/CMSIS/DSP/Include/arm_math.h ****   @return        Q31 value
 548:./Libraries/CMSIS/DSP/Include/arm_math.h ****  */
 549:./Libraries/CMSIS/DSP/Include/arm_math.h **** __STATIC_FORCEINLINE q31_t read_q7x4_da (
 550:./Libraries/CMSIS/DSP/Include/arm_math.h ****   q7_t ** pQ7)
 551:./Libraries/CMSIS/DSP/Include/arm_math.h **** {
 552:./Libraries/CMSIS/DSP/Include/arm_math.h ****   q31_t val;
 553:./Libraries/CMSIS/DSP/Include/arm_math.h **** 
 554:./Libraries/CMSIS/DSP/Include/arm_math.h ****   memcpy (&val, *pQ7, 4);
 555:./Libraries/CMSIS/DSP/Include/arm_math.h ****   *pQ7 -= 4;
 556:./Libraries/CMSIS/DSP/Include/arm_math.h **** 
 557:./Libraries/CMSIS/DSP/Include/arm_math.h ****   return (val);
 558:./Libraries/CMSIS/DSP/Include/arm_math.h **** }
 559:./Libraries/CMSIS/DSP/Include/arm_math.h **** 
 560:./Libraries/CMSIS/DSP/Include/arm_math.h **** /**
 561:./Libraries/CMSIS/DSP/Include/arm_math.h ****   @brief         Write 4 Q7 to Q7 pointer and increment pointer afterwards.
 562:./Libraries/CMSIS/DSP/Include/arm_math.h ****   @param[in]     pQ7       points to input value
 563:./Libraries/CMSIS/DSP/Include/arm_math.h ****   @param[in]     value     Q31 value
 564:./Libraries/CMSIS/DSP/Include/arm_math.h ****   @return        none
 565:./Libraries/CMSIS/DSP/Include/arm_math.h ****  */
 566:./Libraries/CMSIS/DSP/Include/arm_math.h **** __STATIC_FORCEINLINE void write_q7x4_ia (
 567:./Libraries/CMSIS/DSP/Include/arm_math.h ****   q7_t ** pQ7,
 568:./Libraries/CMSIS/DSP/Include/arm_math.h ****   q31_t   value)
 569:./Libraries/CMSIS/DSP/Include/arm_math.h **** {
 570:./Libraries/CMSIS/DSP/Include/arm_math.h ****   q31_t val = value;
 571:./Libraries/CMSIS/DSP/Include/arm_math.h **** 
 572:./Libraries/CMSIS/DSP/Include/arm_math.h ****   memcpy (*pQ7, &val, 4);
 573:./Libraries/CMSIS/DSP/Include/arm_math.h ****   *pQ7 += 4;
 574:./Libraries/CMSIS/DSP/Include/arm_math.h **** }
ARM GAS  /tmp/ccykST3h.s 			page 22


 575:./Libraries/CMSIS/DSP/Include/arm_math.h **** 
 576:./Libraries/CMSIS/DSP/Include/arm_math.h **** /*
 577:./Libraries/CMSIS/DSP/Include/arm_math.h **** 
 578:./Libraries/CMSIS/DSP/Include/arm_math.h **** Normally those kind of definitions are in a compiler file
 579:./Libraries/CMSIS/DSP/Include/arm_math.h **** in Core or Core_A.
 580:./Libraries/CMSIS/DSP/Include/arm_math.h **** 
 581:./Libraries/CMSIS/DSP/Include/arm_math.h **** But for MSVC compiler it is a bit special. The goal is very specific
 582:./Libraries/CMSIS/DSP/Include/arm_math.h **** to CMSIS-DSP and only to allow the use of this library from other
 583:./Libraries/CMSIS/DSP/Include/arm_math.h **** systems like Python or Matlab.
 584:./Libraries/CMSIS/DSP/Include/arm_math.h **** 
 585:./Libraries/CMSIS/DSP/Include/arm_math.h **** MSVC is not going to be used to cross-compile to ARM. So, having a MSVC
 586:./Libraries/CMSIS/DSP/Include/arm_math.h **** compiler file in Core or Core_A would not make sense.
 587:./Libraries/CMSIS/DSP/Include/arm_math.h **** 
 588:./Libraries/CMSIS/DSP/Include/arm_math.h **** */
 589:./Libraries/CMSIS/DSP/Include/arm_math.h **** #if defined ( _MSC_VER )
 590:./Libraries/CMSIS/DSP/Include/arm_math.h ****     __STATIC_FORCEINLINE uint8_t __CLZ(uint32_t data)
 591:./Libraries/CMSIS/DSP/Include/arm_math.h ****     {
 592:./Libraries/CMSIS/DSP/Include/arm_math.h ****       if (data == 0U) { return 32U; }
 593:./Libraries/CMSIS/DSP/Include/arm_math.h **** 
 594:./Libraries/CMSIS/DSP/Include/arm_math.h ****       uint32_t count = 0U;
 595:./Libraries/CMSIS/DSP/Include/arm_math.h ****       uint32_t mask = 0x80000000U;
 596:./Libraries/CMSIS/DSP/Include/arm_math.h **** 
 597:./Libraries/CMSIS/DSP/Include/arm_math.h ****       while ((data & mask) == 0U)
 598:./Libraries/CMSIS/DSP/Include/arm_math.h ****       {
 599:./Libraries/CMSIS/DSP/Include/arm_math.h ****         count += 1U;
 600:./Libraries/CMSIS/DSP/Include/arm_math.h ****         mask = mask >> 1U;
 601:./Libraries/CMSIS/DSP/Include/arm_math.h ****       }
 602:./Libraries/CMSIS/DSP/Include/arm_math.h ****       return count;
 603:./Libraries/CMSIS/DSP/Include/arm_math.h ****     }
 604:./Libraries/CMSIS/DSP/Include/arm_math.h **** 
 605:./Libraries/CMSIS/DSP/Include/arm_math.h ****   __STATIC_FORCEINLINE int32_t __SSAT(int32_t val, uint32_t sat)
 606:./Libraries/CMSIS/DSP/Include/arm_math.h ****   {
 607:./Libraries/CMSIS/DSP/Include/arm_math.h ****     if ((sat >= 1U) && (sat <= 32U))
 608:./Libraries/CMSIS/DSP/Include/arm_math.h ****     {
 609:./Libraries/CMSIS/DSP/Include/arm_math.h ****       const int32_t max = (int32_t)((1U << (sat - 1U)) - 1U);
 610:./Libraries/CMSIS/DSP/Include/arm_math.h ****       const int32_t min = -1 - max ;
 611:./Libraries/CMSIS/DSP/Include/arm_math.h ****       if (val > max)
 612:./Libraries/CMSIS/DSP/Include/arm_math.h ****       {
 613:./Libraries/CMSIS/DSP/Include/arm_math.h ****         return max;
 614:./Libraries/CMSIS/DSP/Include/arm_math.h ****       }
 615:./Libraries/CMSIS/DSP/Include/arm_math.h ****       else if (val < min)
 616:./Libraries/CMSIS/DSP/Include/arm_math.h ****       {
 617:./Libraries/CMSIS/DSP/Include/arm_math.h ****         return min;
 618:./Libraries/CMSIS/DSP/Include/arm_math.h ****       }
 619:./Libraries/CMSIS/DSP/Include/arm_math.h ****     }
 620:./Libraries/CMSIS/DSP/Include/arm_math.h ****     return val;
 621:./Libraries/CMSIS/DSP/Include/arm_math.h ****   }
 622:./Libraries/CMSIS/DSP/Include/arm_math.h **** 
 623:./Libraries/CMSIS/DSP/Include/arm_math.h ****   __STATIC_FORCEINLINE uint32_t __USAT(int32_t val, uint32_t sat)
 624:./Libraries/CMSIS/DSP/Include/arm_math.h ****   {
 625:./Libraries/CMSIS/DSP/Include/arm_math.h ****     if (sat <= 31U)
 626:./Libraries/CMSIS/DSP/Include/arm_math.h ****     {
 627:./Libraries/CMSIS/DSP/Include/arm_math.h ****       const uint32_t max = ((1U << sat) - 1U);
 628:./Libraries/CMSIS/DSP/Include/arm_math.h ****       if (val > (int32_t)max)
 629:./Libraries/CMSIS/DSP/Include/arm_math.h ****       {
 630:./Libraries/CMSIS/DSP/Include/arm_math.h ****         return max;
 631:./Libraries/CMSIS/DSP/Include/arm_math.h ****       }
ARM GAS  /tmp/ccykST3h.s 			page 23


 632:./Libraries/CMSIS/DSP/Include/arm_math.h ****       else if (val < 0)
 633:./Libraries/CMSIS/DSP/Include/arm_math.h ****       {
 634:./Libraries/CMSIS/DSP/Include/arm_math.h ****         return 0U;
 635:./Libraries/CMSIS/DSP/Include/arm_math.h ****       }
 636:./Libraries/CMSIS/DSP/Include/arm_math.h ****     }
 637:./Libraries/CMSIS/DSP/Include/arm_math.h ****     return (uint32_t)val;
 638:./Libraries/CMSIS/DSP/Include/arm_math.h ****   }
 639:./Libraries/CMSIS/DSP/Include/arm_math.h **** #endif
 640:./Libraries/CMSIS/DSP/Include/arm_math.h **** 
 641:./Libraries/CMSIS/DSP/Include/arm_math.h **** #ifndef ARM_MATH_DSP
 642:./Libraries/CMSIS/DSP/Include/arm_math.h ****   /**
 643:./Libraries/CMSIS/DSP/Include/arm_math.h ****    * @brief definition to pack two 16 bit values.
 644:./Libraries/CMSIS/DSP/Include/arm_math.h ****    */
 645:./Libraries/CMSIS/DSP/Include/arm_math.h ****   #define __PKHBT(ARG1, ARG2, ARG3) ( (((int32_t)(ARG1) <<    0) & (int32_t)0x0000FFFF) | \
 646:./Libraries/CMSIS/DSP/Include/arm_math.h ****                                       (((int32_t)(ARG2) << ARG3) & (int32_t)0xFFFF0000)  )
 647:./Libraries/CMSIS/DSP/Include/arm_math.h ****   #define __PKHTB(ARG1, ARG2, ARG3) ( (((int32_t)(ARG1) <<    0) & (int32_t)0xFFFF0000) | \
 648:./Libraries/CMSIS/DSP/Include/arm_math.h ****                                       (((int32_t)(ARG2) >> ARG3) & (int32_t)0x0000FFFF)  )
 649:./Libraries/CMSIS/DSP/Include/arm_math.h **** #endif
 650:./Libraries/CMSIS/DSP/Include/arm_math.h **** 
 651:./Libraries/CMSIS/DSP/Include/arm_math.h ****    /**
 652:./Libraries/CMSIS/DSP/Include/arm_math.h ****    * @brief definition to pack four 8 bit values.
 653:./Libraries/CMSIS/DSP/Include/arm_math.h ****    */
 654:./Libraries/CMSIS/DSP/Include/arm_math.h **** #ifndef ARM_MATH_BIG_ENDIAN
 655:./Libraries/CMSIS/DSP/Include/arm_math.h ****   #define __PACKq7(v0,v1,v2,v3) ( (((int32_t)(v0) <<  0) & (int32_t)0x000000FF) | \
 656:./Libraries/CMSIS/DSP/Include/arm_math.h ****                                   (((int32_t)(v1) <<  8) & (int32_t)0x0000FF00) | \
 657:./Libraries/CMSIS/DSP/Include/arm_math.h ****                                   (((int32_t)(v2) << 16) & (int32_t)0x00FF0000) | \
 658:./Libraries/CMSIS/DSP/Include/arm_math.h ****                                   (((int32_t)(v3) << 24) & (int32_t)0xFF000000)  )
 659:./Libraries/CMSIS/DSP/Include/arm_math.h **** #else
 660:./Libraries/CMSIS/DSP/Include/arm_math.h ****   #define __PACKq7(v0,v1,v2,v3) ( (((int32_t)(v3) <<  0) & (int32_t)0x000000FF) | \
 661:./Libraries/CMSIS/DSP/Include/arm_math.h ****                                   (((int32_t)(v2) <<  8) & (int32_t)0x0000FF00) | \
 662:./Libraries/CMSIS/DSP/Include/arm_math.h ****                                   (((int32_t)(v1) << 16) & (int32_t)0x00FF0000) | \
 663:./Libraries/CMSIS/DSP/Include/arm_math.h ****                                   (((int32_t)(v0) << 24) & (int32_t)0xFF000000)  )
 664:./Libraries/CMSIS/DSP/Include/arm_math.h **** #endif
 665:./Libraries/CMSIS/DSP/Include/arm_math.h **** 
 666:./Libraries/CMSIS/DSP/Include/arm_math.h **** 
 667:./Libraries/CMSIS/DSP/Include/arm_math.h ****   /**
 668:./Libraries/CMSIS/DSP/Include/arm_math.h ****    * @brief Clips Q63 to Q31 values.
 669:./Libraries/CMSIS/DSP/Include/arm_math.h ****    */
 670:./Libraries/CMSIS/DSP/Include/arm_math.h ****   __STATIC_FORCEINLINE q31_t clip_q63_to_q31(
 671:./Libraries/CMSIS/DSP/Include/arm_math.h ****   q63_t x)
 672:./Libraries/CMSIS/DSP/Include/arm_math.h ****   {
 673:./Libraries/CMSIS/DSP/Include/arm_math.h ****     return ((q31_t) (x >> 32) != ((q31_t) x >> 31)) ?
 674:./Libraries/CMSIS/DSP/Include/arm_math.h ****       ((0x7FFFFFFF ^ ((q31_t) (x >> 63)))) : (q31_t) x;
 675:./Libraries/CMSIS/DSP/Include/arm_math.h ****   }
 676:./Libraries/CMSIS/DSP/Include/arm_math.h **** 
 677:./Libraries/CMSIS/DSP/Include/arm_math.h ****   /**
 678:./Libraries/CMSIS/DSP/Include/arm_math.h ****    * @brief Clips Q63 to Q15 values.
 679:./Libraries/CMSIS/DSP/Include/arm_math.h ****    */
 680:./Libraries/CMSIS/DSP/Include/arm_math.h ****   __STATIC_FORCEINLINE q15_t clip_q63_to_q15(
 681:./Libraries/CMSIS/DSP/Include/arm_math.h ****   q63_t x)
 682:./Libraries/CMSIS/DSP/Include/arm_math.h ****   {
 683:./Libraries/CMSIS/DSP/Include/arm_math.h ****     return ((q31_t) (x >> 32) != ((q31_t) x >> 31)) ?
 684:./Libraries/CMSIS/DSP/Include/arm_math.h ****       ((0x7FFF ^ ((q15_t) (x >> 63)))) : (q15_t) (x >> 15);
 685:./Libraries/CMSIS/DSP/Include/arm_math.h ****   }
 686:./Libraries/CMSIS/DSP/Include/arm_math.h **** 
 687:./Libraries/CMSIS/DSP/Include/arm_math.h ****   /**
 688:./Libraries/CMSIS/DSP/Include/arm_math.h ****    * @brief Clips Q31 to Q7 values.
ARM GAS  /tmp/ccykST3h.s 			page 24


 689:./Libraries/CMSIS/DSP/Include/arm_math.h ****    */
 690:./Libraries/CMSIS/DSP/Include/arm_math.h ****   __STATIC_FORCEINLINE q7_t clip_q31_to_q7(
 691:./Libraries/CMSIS/DSP/Include/arm_math.h ****   q31_t x)
 692:./Libraries/CMSIS/DSP/Include/arm_math.h ****   {
 693:./Libraries/CMSIS/DSP/Include/arm_math.h ****     return ((q31_t) (x >> 24) != ((q31_t) x >> 23)) ?
 694:./Libraries/CMSIS/DSP/Include/arm_math.h ****       ((0x7F ^ ((q7_t) (x >> 31)))) : (q7_t) x;
 695:./Libraries/CMSIS/DSP/Include/arm_math.h ****   }
 696:./Libraries/CMSIS/DSP/Include/arm_math.h **** 
 697:./Libraries/CMSIS/DSP/Include/arm_math.h ****   /**
 698:./Libraries/CMSIS/DSP/Include/arm_math.h ****    * @brief Clips Q31 to Q15 values.
 699:./Libraries/CMSIS/DSP/Include/arm_math.h ****    */
 700:./Libraries/CMSIS/DSP/Include/arm_math.h ****   __STATIC_FORCEINLINE q15_t clip_q31_to_q15(
 701:./Libraries/CMSIS/DSP/Include/arm_math.h ****   q31_t x)
 702:./Libraries/CMSIS/DSP/Include/arm_math.h ****   {
 703:./Libraries/CMSIS/DSP/Include/arm_math.h ****     return ((q31_t) (x >> 16) != ((q31_t) x >> 15)) ?
 704:./Libraries/CMSIS/DSP/Include/arm_math.h ****       ((0x7FFF ^ ((q15_t) (x >> 31)))) : (q15_t) x;
 705:./Libraries/CMSIS/DSP/Include/arm_math.h ****   }
 706:./Libraries/CMSIS/DSP/Include/arm_math.h **** 
 707:./Libraries/CMSIS/DSP/Include/arm_math.h ****   /**
 708:./Libraries/CMSIS/DSP/Include/arm_math.h ****    * @brief Multiplies 32 X 64 and returns 32 bit result in 2.30 format.
 709:./Libraries/CMSIS/DSP/Include/arm_math.h ****    */
 710:./Libraries/CMSIS/DSP/Include/arm_math.h ****   __STATIC_FORCEINLINE q63_t mult32x64(
 711:./Libraries/CMSIS/DSP/Include/arm_math.h ****   q63_t x,
 712:./Libraries/CMSIS/DSP/Include/arm_math.h ****   q31_t y)
 713:./Libraries/CMSIS/DSP/Include/arm_math.h ****   {
 714:./Libraries/CMSIS/DSP/Include/arm_math.h ****     return ((((q63_t) (x & 0x00000000FFFFFFFF) * y) >> 32) +
 715:./Libraries/CMSIS/DSP/Include/arm_math.h ****             (((q63_t) (x >> 32)                * y)      )  );
 176              		.loc 2 715 26 view .LVU53
 177 008a 4FEAEE72 		asr	r2, lr, #31
 178              	.LBE7:
 179              	.LBE6:
 180              	.LBB16:
 181              	.LBB17:
 182 008e 4FEAE07C 		asr	ip, r0, #31
 183              	.LBE17:
 184              	.LBE16:
 392:./Libraries/CMSIS/DSP/Source/FilteringFunctions/arm_biquad_cascade_df1_32x64_q31.c **** 
 185              		.loc 1 392 10 view .LVU54
 186 0092 53F8045B 		ldr	r5, [r3], #4
 187              	.LVL20:
 188              	.LBB28:
 189              	.LBB8:
 714:./Libraries/CMSIS/DSP/Include/arm_math.h ****             (((q63_t) (x >> 32)                * y)      )  );
 190              		.loc 2 714 48 view .LVU55
 191 0096 DDE90467 		ldrd	r6, [sp, #16]
 192              	.LBE8:
 193              	.LBE28:
 392:./Libraries/CMSIS/DSP/Source/FilteringFunctions/arm_biquad_cascade_df1_32x64_q31.c **** 
 194              		.loc 1 392 10 view .LVU56
 195 009a 0793     		str	r3, [sp, #28]
 196              	.LVL21:
 397:./Libraries/CMSIS/DSP/Source/FilteringFunctions/arm_biquad_cascade_df1_32x64_q31.c ****       /* acc +=  b1 * x[n-1] */
 197              		.loc 1 397 7 is_stmt 1 view .LVU57
 198              	.LBB29:
 199              	.LBB9:
 200              		.loc 2 715 48 is_stmt 0 view .LVU58
 201 009c 0EFB07F4 		mul	r4, lr, r7
ARM GAS  /tmp/ccykST3h.s 			page 25


 714:./Libraries/CMSIS/DSP/Include/arm_math.h ****             (((q63_t) (x >> 32)                * y)      )  );
 202              		.loc 2 714 48 view .LVU59
 203 00a0 ABFB0689 		umull	r8, r9, fp, r6
 204              		.loc 2 715 48 view .LVU60
 205 00a4 02FB0642 		mla	r2, r2, r6, r4
 206 00a8 049C     		ldr	r4, [sp, #16]
 714:./Libraries/CMSIS/DSP/Include/arm_math.h ****             (((q63_t) (x >> 32)                * y)      )  );
 207              		.loc 2 714 48 view .LVU61
 208 00aa 0BFB0793 		mla	r3, fp, r7, r9
 209              	.LVL22:
 210              		.loc 2 715 48 view .LVU62
 211 00ae AEFB0467 		umull	r6, r7, lr, r4
 212 00b2 CDE90067 		strd	r6, [sp]
 213 00b6 3C46     		mov	r4, r7
 214              	.LBE9:
 215              	.LBE29:
 216              	.LBB30:
 217              	.LBB18:
 714:./Libraries/CMSIS/DSP/Include/arm_math.h ****             (((q63_t) (x >> 32)                * y)      )  );
 218              		.loc 2 714 48 view .LVU63
 219 00b8 DDE90E67 		ldrd	r6, [sp, #56]
 220              	.LBE18:
 221              	.LBE30:
 222              	.LBB31:
 223              	.LBB10:
 224              		.loc 2 715 48 view .LVU64
 225 00bc 1444     		add	r4, r4, r2
 714:./Libraries/CMSIS/DSP/Include/arm_math.h ****             (((q63_t) (x >> 32)                * y)      )  );
 226              		.loc 2 714 60 view .LVU65
 227 00be 009A     		ldr	r2, [sp]
 228              	.LBE10:
 229              	.LBE31:
 230              	.LBB32:
 231              	.LBB19:
 714:./Libraries/CMSIS/DSP/Include/arm_math.h ****             (((q63_t) (x >> 32)                * y)      )  );
 232              		.loc 2 714 48 view .LVU66
 233 00c0 A1FB0689 		umull	r8, r9, r1, r6
 234              	.LBE19:
 235              	.LBE32:
 236              	.LBB33:
 237              	.LBB11:
 238              		.loc 2 715 48 view .LVU67
 239 00c4 0194     		str	r4, [sp, #4]
 714:./Libraries/CMSIS/DSP/Include/arm_math.h ****             (((q63_t) (x >> 32)                * y)      )  );
 240              		.loc 2 714 53 view .LVU68
 241 00c6 DC17     		asrs	r4, r3, #31
 714:./Libraries/CMSIS/DSP/Include/arm_math.h ****             (((q63_t) (x >> 32)                * y)      )  );
 242              		.loc 2 714 60 view .LVU69
 243 00c8 9B18     		adds	r3, r3, r2
 244              	.LBE11:
 245              	.LBE33:
 246              	.LBB34:
 247              	.LBB20:
 714:./Libraries/CMSIS/DSP/Include/arm_math.h ****             (((q63_t) (x >> 32)                * y)      )  );
 248              		.loc 2 714 48 view .LVU70
 249 00ca CDE90289 		strd	r8, [sp, #8]
 250              		.loc 2 715 48 view .LVU71
ARM GAS  /tmp/ccykST3h.s 			page 26


 251 00ce B046     		mov	r8, r6
 252 00d0 B946     		mov	r9, r7
 253 00d2 00FB07F6 		mul	r6, r0, r7
 714:./Libraries/CMSIS/DSP/Include/arm_math.h ****             (((q63_t) (x >> 32)                * y)      )  );
 254              		.loc 2 714 48 view .LVU72
 255 00d6 039F     		ldr	r7, [sp, #12]
 256              	.LBE20:
 257              	.LBE34:
 258              	.LBB35:
 259              	.LBB12:
 714:./Libraries/CMSIS/DSP/Include/arm_math.h ****             (((q63_t) (x >> 32)                * y)      )  );
 260              		.loc 2 714 60 view .LVU73
 261 00d8 0A93     		str	r3, [sp, #40]
 262              	.LBE12:
 263              	.LBE35:
 264              	.LBB36:
 265              	.LBB21:
 714:./Libraries/CMSIS/DSP/Include/arm_math.h ****             (((q63_t) (x >> 32)                * y)      )  );
 266              		.loc 2 714 48 view .LVU74
 267 00da 01FB0972 		mla	r2, r1, r9, r7
 268              	.LBE21:
 269              	.LBE36:
 270              	.LBB37:
 271              	.LBB13:
 714:./Libraries/CMSIS/DSP/Include/arm_math.h ****             (((q63_t) (x >> 32)                * y)      )  );
 272              		.loc 2 714 60 view .LVU75
 273 00de 019B     		ldr	r3, [sp, #4]
 274              	.LBE13:
 275              	.LBE37:
 397:./Libraries/CMSIS/DSP/Source/FilteringFunctions/arm_biquad_cascade_df1_32x64_q31.c ****       /* acc +=  b1 * x[n-1] */
 276              		.loc 1 397 11 view .LVU76
 277 00e0 0B99     		ldr	r1, [sp, #44]
 278              	.LVL23:
 279              	.LBB38:
 280              	.LBB22:
 281              		.loc 2 715 48 view .LVU77
 282 00e2 0CFB086C 		mla	ip, ip, r8, r6
 283              	.LBE22:
 284              	.LBE38:
 285              	.LBB39:
 286              	.LBB14:
 714:./Libraries/CMSIS/DSP/Include/arm_math.h ****             (((q63_t) (x >> 32)                * y)      )  );
 287              		.loc 2 714 60 view .LVU78
 288 00e6 43EB0404 		adc	r4, r3, r4
 289              	.LBE14:
 290              	.LBE39:
 399:./Libraries/CMSIS/DSP/Source/FilteringFunctions/arm_biquad_cascade_df1_32x64_q31.c ****       /* acc +=  b[2] * x[n-2] */
 291              		.loc 1 399 11 view .LVU79
 292 00ea 0C9B     		ldr	r3, [sp, #48]
 397:./Libraries/CMSIS/DSP/Source/FilteringFunctions/arm_biquad_cascade_df1_32x64_q31.c ****       /* acc +=  b1 * x[n-1] */
 293              		.loc 1 397 11 view .LVU80
 294 00ec 85FB0167 		smull	r6, r7, r5, r1
 295              	.LVL24:
 399:./Libraries/CMSIS/DSP/Source/FilteringFunctions/arm_biquad_cascade_df1_32x64_q31.c ****       /* acc +=  b[2] * x[n-2] */
 296              		.loc 1 399 7 is_stmt 1 view .LVU81
 397:./Libraries/CMSIS/DSP/Source/FilteringFunctions/arm_biquad_cascade_df1_32x64_q31.c ****       /* acc +=  b1 * x[n-1] */
 297              		.loc 1 397 13 is_stmt 0 view .LVU82
ARM GAS  /tmp/ccykST3h.s 			page 27


 298 00f0 4FEAE579 		asr	r9, r5, #31
 299              	.LBB40:
 300              	.LBB23:
 301              		.loc 2 715 48 view .LVU83
 302 00f4 A0FB0801 		umull	r0, r1, r0, r8
 303              	.LBE23:
 304              	.LBE40:
 399:./Libraries/CMSIS/DSP/Source/FilteringFunctions/arm_biquad_cascade_df1_32x64_q31.c ****       /* acc +=  b[2] * x[n-2] */
 305              		.loc 1 399 11 view .LVU84
 306 00f8 C3FB0A67 		smlal	r6, r7, r3, r10
 307              	.LVL25:
 401:./Libraries/CMSIS/DSP/Source/FilteringFunctions/arm_biquad_cascade_df1_32x64_q31.c ****       /* acc +=  a1 * y[n-1] */
 308              		.loc 1 401 11 view .LVU85
 309 00fc 069B     		ldr	r3, [sp, #24]
 310              	.LBB41:
 311              	.LBB24:
 312              		.loc 2 715 48 view .LVU86
 313 00fe 6144     		add	r1, r1, ip
 314              	.LVL26:
 714:./Libraries/CMSIS/DSP/Include/arm_math.h ****             (((q63_t) (x >> 32)                * y)      )  );
 315              		.loc 2 714 48 view .LVU87
 316 0100 0392     		str	r2, [sp, #12]
 317              	.LVL27:
 714:./Libraries/CMSIS/DSP/Include/arm_math.h ****             (((q63_t) (x >> 32)                * y)      )  );
 318              		.loc 2 714 48 view .LVU88
 319              	.LBE24:
 320              	.LBE41:
 401:./Libraries/CMSIS/DSP/Source/FilteringFunctions/arm_biquad_cascade_df1_32x64_q31.c ****       /* acc +=  a1 * y[n-1] */
 321              		.loc 1 401 7 is_stmt 1 view .LVU89
 401:./Libraries/CMSIS/DSP/Source/FilteringFunctions/arm_biquad_cascade_df1_32x64_q31.c ****       /* acc +=  a1 * y[n-1] */
 322              		.loc 1 401 11 is_stmt 0 view .LVU90
 323 0102 9846     		mov	r8, r3
 324 0104 0D9B     		ldr	r3, [sp, #52]
 325 0106 CDF818A0 		str	r10, [sp, #24]
 326              	.LVL28:
 401:./Libraries/CMSIS/DSP/Source/FilteringFunctions/arm_biquad_cascade_df1_32x64_q31.c ****       /* acc +=  a1 * y[n-1] */
 327              		.loc 1 401 11 view .LVU91
 328 010a C3FB0867 		smlal	r6, r7, r3, r8
 329              	.LVL29:
 403:./Libraries/CMSIS/DSP/Source/FilteringFunctions/arm_biquad_cascade_df1_32x64_q31.c ****       /* acc +=  a2 * y[n-2] */
 330              		.loc 1 403 7 is_stmt 1 view .LVU92
 331              	.LBB42:
 332              	.LBI6:
 710:./Libraries/CMSIS/DSP/Include/arm_math.h ****   q63_t x,
 333              		.loc 2 710 30 view .LVU93
 334              	.LBB15:
 714:./Libraries/CMSIS/DSP/Include/arm_math.h ****             (((q63_t) (x >> 32)                * y)      )  );
 335              		.loc 2 714 5 view .LVU94
 714:./Libraries/CMSIS/DSP/Include/arm_math.h ****             (((q63_t) (x >> 32)                * y)      )  );
 336              		.loc 2 714 5 is_stmt 0 view .LVU95
 337              	.LBE15:
 338              	.LBE42:
 403:./Libraries/CMSIS/DSP/Source/FilteringFunctions/arm_biquad_cascade_df1_32x64_q31.c ****       /* acc +=  a2 * y[n-2] */
 339              		.loc 1 403 11 view .LVU96
 340 010e 0A9B     		ldr	r3, [sp, #40]
 399:./Libraries/CMSIS/DSP/Source/FilteringFunctions/arm_biquad_cascade_df1_32x64_q31.c ****       /* acc +=  b[2] * x[n-2] */
 341              		.loc 1 399 14 view .LVU97
ARM GAS  /tmp/ccykST3h.s 			page 28


 342 0110 4FEAEA78 		asr	r8, r10, #31
 343              	.LVL30:
 403:./Libraries/CMSIS/DSP/Source/FilteringFunctions/arm_biquad_cascade_df1_32x64_q31.c ****       /* acc +=  a2 * y[n-2] */
 344              		.loc 1 403 11 view .LVU98
 345 0114 9B19     		adds	r3, r3, r6
 346              	.LBB43:
 347              	.LBB25:
 714:./Libraries/CMSIS/DSP/Include/arm_math.h ****             (((q63_t) (x >> 32)                * y)      )  );
 348              		.loc 2 714 53 view .LVU99
 349 0116 4FEAE276 		asr	r6, r2, #31
 350              	.LBE25:
 351              	.LBE43:
 403:./Libraries/CMSIS/DSP/Source/FilteringFunctions/arm_biquad_cascade_df1_32x64_q31.c ****       /* acc +=  a2 * y[n-2] */
 352              		.loc 1 403 11 view .LVU100
 353 011a 47EB0404 		adc	r4, r7, r4
 354              	.LVL31:
 405:./Libraries/CMSIS/DSP/Source/FilteringFunctions/arm_biquad_cascade_df1_32x64_q31.c **** 
 355              		.loc 1 405 7 is_stmt 1 view .LVU101
 356              	.LBB44:
 357              	.LBI16:
 710:./Libraries/CMSIS/DSP/Include/arm_math.h ****   q63_t x,
 358              		.loc 2 710 30 view .LVU102
 359              	.LBB26:
 714:./Libraries/CMSIS/DSP/Include/arm_math.h ****             (((q63_t) (x >> 32)                * y)      )  );
 360              		.loc 2 714 5 view .LVU103
 714:./Libraries/CMSIS/DSP/Include/arm_math.h ****             (((q63_t) (x >> 32)                * y)      )  );
 361              		.loc 2 714 60 is_stmt 0 view .LVU104
 362 011e 1218     		adds	r2, r2, r0
 363              	.LBE26:
 364              	.LBE44:
 399:./Libraries/CMSIS/DSP/Source/FilteringFunctions/arm_biquad_cascade_df1_32x64_q31.c ****       /* acc +=  b[2] * x[n-2] */
 365              		.loc 1 399 14 view .LVU105
 366 0120 5746     		mov	r7, r10
 414:./Libraries/CMSIS/DSP/Source/FilteringFunctions/arm_biquad_cascade_df1_32x64_q31.c ****       Yn2 = Yn1;
 367              		.loc 1 414 11 view .LVU106
 368 0122 AA46     		mov	r10, r5
 369              	.LVL32:
 370              	.LBB45:
 371              	.LBB27:
 714:./Libraries/CMSIS/DSP/Include/arm_math.h ****             (((q63_t) (x >> 32)                * y)      )  );
 372              		.loc 2 714 60 view .LVU107
 373 0124 41EB0606 		adc	r6, r1, r6
 374              	.LBE27:
 375              	.LBE45:
 405:./Libraries/CMSIS/DSP/Source/FilteringFunctions/arm_biquad_cascade_df1_32x64_q31.c **** 
 376              		.loc 1 405 11 view .LVU108
 377 0128 D318     		adds	r3, r2, r3
 378              	.LVL33:
 379              		.loc 1 418 11 view .LVU109
 380 012a 129A     		ldr	r2, [sp, #72]
 381 012c 5946     		mov	r1, fp
 405:./Libraries/CMSIS/DSP/Source/FilteringFunctions/arm_biquad_cascade_df1_32x64_q31.c **** 
 382              		.loc 1 405 11 view .LVU110
 383 012e 46EB0404 		adc	r4, r6, r4
 384              	.LVL34:
 413:./Libraries/CMSIS/DSP/Source/FilteringFunctions/arm_biquad_cascade_df1_32x64_q31.c ****       Xn1 = Xn;
 385              		.loc 1 413 7 is_stmt 1 view .LVU111
ARM GAS  /tmp/ccykST3h.s 			page 29


 414:./Libraries/CMSIS/DSP/Source/FilteringFunctions/arm_biquad_cascade_df1_32x64_q31.c ****       Yn2 = Yn1;
 386              		.loc 1 414 7 view .LVU112
 415:./Libraries/CMSIS/DSP/Source/FilteringFunctions/arm_biquad_cascade_df1_32x64_q31.c **** 
 387              		.loc 1 415 7 view .LVU113
 388              		.loc 1 418 7 view .LVU114
 389              		.loc 1 418 11 is_stmt 0 view .LVU115
 390 0132 109E     		ldr	r6, [sp, #64]
 391 0134 03FA02F0 		lsl	r0, r3, r2
 392 0138 119A     		ldr	r2, [sp, #68]
 399:./Libraries/CMSIS/DSP/Source/FilteringFunctions/arm_biquad_cascade_df1_32x64_q31.c ****       /* acc +=  b[2] * x[n-2] */
 393              		.loc 1 399 14 view .LVU116
 394 013a CDE90078 		strd	r7, [sp]
 397:./Libraries/CMSIS/DSP/Source/FilteringFunctions/arm_biquad_cascade_df1_32x64_q31.c ****       /* acc +=  b1 * x[n-1] */
 395              		.loc 1 397 13 view .LVU117
 396 013e A846     		mov	r8, r5
 397              		.loc 1 418 11 view .LVU118
 398 0140 04FA06F5 		lsl	r5, r4, r6
 399              	.LVL35:
 400              		.loc 1 418 11 view .LVU119
 401 0144 23FA02F2 		lsr	r2, r3, r2
 402 0148 B340     		lsls	r3, r3, r6
 403              	.LVL36:
 419:./Libraries/CMSIS/DSP/Source/FilteringFunctions/arm_biquad_cascade_df1_32x64_q31.c **** 
 420:./Libraries/CMSIS/DSP/Source/FilteringFunctions/arm_biquad_cascade_df1_32x64_q31.c ****       /* Calc lower part of acc */
 421:./Libraries/CMSIS/DSP/Source/FilteringFunctions/arm_biquad_cascade_df1_32x64_q31.c ****       acc_l = acc & 0xffffffff;
 422:./Libraries/CMSIS/DSP/Source/FilteringFunctions/arm_biquad_cascade_df1_32x64_q31.c **** 
 423:./Libraries/CMSIS/DSP/Source/FilteringFunctions/arm_biquad_cascade_df1_32x64_q31.c ****       /* Calc upper part of acc */
 424:./Libraries/CMSIS/DSP/Source/FilteringFunctions/arm_biquad_cascade_df1_32x64_q31.c ****       acc_h = (acc >> 32) & 0xffffffff;
 425:./Libraries/CMSIS/DSP/Source/FilteringFunctions/arm_biquad_cascade_df1_32x64_q31.c **** 
 426:./Libraries/CMSIS/DSP/Source/FilteringFunctions/arm_biquad_cascade_df1_32x64_q31.c ****       /* Apply shift for lower part of acc and upper part of acc */
 427:./Libraries/CMSIS/DSP/Source/FilteringFunctions/arm_biquad_cascade_df1_32x64_q31.c ****       acc_h = (uint32_t) acc_l >> lShift | acc_h << uShift;
 404              		.loc 1 427 50 view .LVU120
 405 014a 2C46     		mov	r4, r5
 418:./Libraries/CMSIS/DSP/Source/FilteringFunctions/arm_biquad_cascade_df1_32x64_q31.c **** 
 406              		.loc 1 418 11 view .LVU121
 407 014c 0543     		orrs	r5, r5, r0
 408 014e 7046     		mov	r0, lr
 409              		.loc 1 427 42 view .LVU122
 410 0150 1443     		orrs	r4, r4, r2
 418:./Libraries/CMSIS/DSP/Source/FilteringFunctions/arm_biquad_cascade_df1_32x64_q31.c **** 
 411              		.loc 1 418 11 view .LVU123
 412 0152 1543     		orrs	r5, r5, r2
 413              	.LVL37:
 421:./Libraries/CMSIS/DSP/Source/FilteringFunctions/arm_biquad_cascade_df1_32x64_q31.c **** 
 414              		.loc 1 421 7 is_stmt 1 view .LVU124
 424:./Libraries/CMSIS/DSP/Source/FilteringFunctions/arm_biquad_cascade_df1_32x64_q31.c **** 
 415              		.loc 1 424 7 view .LVU125
 416              		.loc 1 427 7 view .LVU126
 428:./Libraries/CMSIS/DSP/Source/FilteringFunctions/arm_biquad_cascade_df1_32x64_q31.c **** 
 429:./Libraries/CMSIS/DSP/Source/FilteringFunctions/arm_biquad_cascade_df1_32x64_q31.c ****       /* Store the output in the destination buffer in 1.31 format. */
 430:./Libraries/CMSIS/DSP/Source/FilteringFunctions/arm_biquad_cascade_df1_32x64_q31.c ****       *pOut++ = acc_h;
 417              		.loc 1 430 7 view .LVU127
 418              		.loc 1 430 15 is_stmt 0 view .LVU128
 419 0154 089A     		ldr	r2, [sp, #32]
 420 0156 42F8044B 		str	r4, [r2], #4
 421              	.LVL38:
 422              		.loc 1 430 15 view .LVU129
ARM GAS  /tmp/ccykST3h.s 			page 30


 423 015a 0892     		str	r2, [sp, #32]
 431:./Libraries/CMSIS/DSP/Source/FilteringFunctions/arm_biquad_cascade_df1_32x64_q31.c ****       /* Yn1 = acc << shift; */
 432:./Libraries/CMSIS/DSP/Source/FilteringFunctions/arm_biquad_cascade_df1_32x64_q31.c **** 
 433:./Libraries/CMSIS/DSP/Source/FilteringFunctions/arm_biquad_cascade_df1_32x64_q31.c ****       /* Store the output in the destination buffer in 1.31 format. */
 434:./Libraries/CMSIS/DSP/Source/FilteringFunctions/arm_biquad_cascade_df1_32x64_q31.c **** /*    *pOut++ = (q31_t) (acc >> (32 - shift));  */
 435:./Libraries/CMSIS/DSP/Source/FilteringFunctions/arm_biquad_cascade_df1_32x64_q31.c **** 
 436:./Libraries/CMSIS/DSP/Source/FilteringFunctions/arm_biquad_cascade_df1_32x64_q31.c ****       /* decrement loop counter */
 437:./Libraries/CMSIS/DSP/Source/FilteringFunctions/arm_biquad_cascade_df1_32x64_q31.c ****       sample--;
 424              		.loc 1 437 7 is_stmt 1 view .LVU130
 425              	.LVL39:
 389:./Libraries/CMSIS/DSP/Source/FilteringFunctions/arm_biquad_cascade_df1_32x64_q31.c ****     {
 426              		.loc 1 389 11 view .LVU131
 427 015c 099A     		ldr	r2, [sp, #36]
 428              	.LVL40:
 389:./Libraries/CMSIS/DSP/Source/FilteringFunctions/arm_biquad_cascade_df1_32x64_q31.c ****     {
 429              		.loc 1 389 11 is_stmt 0 view .LVU132
 430 015e 013A     		subs	r2, r2, #1
 431              	.LVL41:
 389:./Libraries/CMSIS/DSP/Source/FilteringFunctions/arm_biquad_cascade_df1_32x64_q31.c ****     {
 432              		.loc 1 389 11 view .LVU133
 433 0160 0992     		str	r2, [sp, #36]
 434 0162 8FD1     		bne	.L6
 435              	.LVL42:
 436              	.L4:
 438:./Libraries/CMSIS/DSP/Source/FilteringFunctions/arm_biquad_cascade_df1_32x64_q31.c ****     }
 439:./Libraries/CMSIS/DSP/Source/FilteringFunctions/arm_biquad_cascade_df1_32x64_q31.c **** 
 440:./Libraries/CMSIS/DSP/Source/FilteringFunctions/arm_biquad_cascade_df1_32x64_q31.c ****     /* The first stage output is given as input to the second stage. */
 441:./Libraries/CMSIS/DSP/Source/FilteringFunctions/arm_biquad_cascade_df1_32x64_q31.c ****     pIn = pDst;
 437              		.loc 1 441 5 is_stmt 1 view .LVU134
 442:./Libraries/CMSIS/DSP/Source/FilteringFunctions/arm_biquad_cascade_df1_32x64_q31.c **** 
 443:./Libraries/CMSIS/DSP/Source/FilteringFunctions/arm_biquad_cascade_df1_32x64_q31.c ****     /* Reset to destination buffer working pointer */
 444:./Libraries/CMSIS/DSP/Source/FilteringFunctions/arm_biquad_cascade_df1_32x64_q31.c ****     pOut = pDst;
 438              		.loc 1 444 5 view .LVU135
 445:./Libraries/CMSIS/DSP/Source/FilteringFunctions/arm_biquad_cascade_df1_32x64_q31.c **** 
 446:./Libraries/CMSIS/DSP/Source/FilteringFunctions/arm_biquad_cascade_df1_32x64_q31.c ****     /*  Store the updated state variables back into the pState array */
 447:./Libraries/CMSIS/DSP/Source/FilteringFunctions/arm_biquad_cascade_df1_32x64_q31.c ****     *pState++ = (q63_t) Xn1;
 439              		.loc 1 447 5 view .LVU136
 448:./Libraries/CMSIS/DSP/Source/FilteringFunctions/arm_biquad_cascade_df1_32x64_q31.c ****     *pState++ = (q63_t) Xn2;
 449:./Libraries/CMSIS/DSP/Source/FilteringFunctions/arm_biquad_cascade_df1_32x64_q31.c ****     *pState++ = Yn1;
 440              		.loc 1 449 15 is_stmt 0 view .LVU137
 441 0164 139A     		ldr	r2, [sp, #76]
 442 0166 42F8103C 		str	r3, [r2, #-16]
 443 016a 149B     		ldr	r3, [sp, #80]
 450:./Libraries/CMSIS/DSP/Source/FilteringFunctions/arm_biquad_cascade_df1_32x64_q31.c ****     *pState++ = Yn2;
 444              		.loc 1 450 15 view .LVU138
 445 016c 42F804EC 		str	lr, [r2, #-4]
 446 0170 1433     		adds	r3, r3, #20
 447 0172 1493     		str	r3, [sp, #80]
 448              	.LVL43:
 449              		.loc 1 450 15 view .LVU139
 450 0174 02F12003 		add	r3, r2, #32
 451 0178 1393     		str	r3, [sp, #76]
 452              	.LVL44:
 451:./Libraries/CMSIS/DSP/Source/FilteringFunctions/arm_biquad_cascade_df1_32x64_q31.c **** 
 452:./Libraries/CMSIS/DSP/Source/FilteringFunctions/arm_biquad_cascade_df1_32x64_q31.c ****   } while (--stage);
 453              		.loc 1 452 3 view .LVU140
 454 017a 159B     		ldr	r3, [sp, #84]
ARM GAS  /tmp/ccykST3h.s 			page 31


 448:./Libraries/CMSIS/DSP/Source/FilteringFunctions/arm_biquad_cascade_df1_32x64_q31.c ****     *pState++ = Yn1;
 455              		.loc 1 448 15 view .LVU141
 456 017c DDE90001 		ldrd	r0, [sp]
 457              		.loc 1 452 3 view .LVU142
 458 0180 013B     		subs	r3, r3, #1
 450:./Libraries/CMSIS/DSP/Source/FilteringFunctions/arm_biquad_cascade_df1_32x64_q31.c ****     *pState++ = Yn2;
 459              		.loc 1 450 15 view .LVU143
 460 0182 42E9035B 		strd	r5, fp, [r2, #-12]
 447:./Libraries/CMSIS/DSP/Source/FilteringFunctions/arm_biquad_cascade_df1_32x64_q31.c ****     *pState++ = (q63_t) Xn2;
 461              		.loc 1 447 15 view .LVU144
 462 0186 42E90889 		strd	r8, [r2, #-32]
 448:./Libraries/CMSIS/DSP/Source/FilteringFunctions/arm_biquad_cascade_df1_32x64_q31.c ****     *pState++ = Yn1;
 463              		.loc 1 448 5 is_stmt 1 view .LVU145
 448:./Libraries/CMSIS/DSP/Source/FilteringFunctions/arm_biquad_cascade_df1_32x64_q31.c ****     *pState++ = Yn1;
 464              		.loc 1 448 15 is_stmt 0 view .LVU146
 465 018a 42E90601 		strd	r0, [r2, #-24]
 449:./Libraries/CMSIS/DSP/Source/FilteringFunctions/arm_biquad_cascade_df1_32x64_q31.c ****     *pState++ = Yn2;
 466              		.loc 1 449 5 is_stmt 1 view .LVU147
 450:./Libraries/CMSIS/DSP/Source/FilteringFunctions/arm_biquad_cascade_df1_32x64_q31.c **** 
 467              		.loc 1 450 5 view .LVU148
 468              	.LVL45:
 469              		.loc 1 452 11 view .LVU149
 470              		.loc 1 452 3 is_stmt 0 view .LVU150
 471 018e 1593     		str	r3, [sp, #84]
 472 0190 0FD0     		beq	.L10
 441:./Libraries/CMSIS/DSP/Source/FilteringFunctions/arm_biquad_cascade_df1_32x64_q31.c **** 
 473              		.loc 1 441 9 view .LVU151
 474 0192 169B     		ldr	r3, [sp, #88]
 475              	.LVL46:
 441:./Libraries/CMSIS/DSP/Source/FilteringFunctions/arm_biquad_cascade_df1_32x64_q31.c **** 
 476              		.loc 1 441 9 view .LVU152
 477 0194 0793     		str	r3, [sp, #28]
 478 0196 49E7     		b	.L5
 479              	.LVL47:
 480              	.L2:
 441:./Libraries/CMSIS/DSP/Source/FilteringFunctions/arm_biquad_cascade_df1_32x64_q31.c **** 
 481              		.loc 1 441 9 view .LVU153
 482 0198 069A     		ldr	r2, [sp, #24]
 483              	.LVL48:
 208:./Libraries/CMSIS/DSP/Source/FilteringFunctions/arm_biquad_cascade_df1_32x64_q31.c ****     Yn2 = pState[3];
 484              		.loc 1 208 9 view .LVU154
 485 019a 5B46     		mov	r3, fp
 486              	.LVL49:
 208:./Libraries/CMSIS/DSP/Source/FilteringFunctions/arm_biquad_cascade_df1_32x64_q31.c ****     Yn2 = pState[3];
 487              		.loc 1 208 9 view .LVU155
 488 019c 7546     		mov	r5, lr
 209:./Libraries/CMSIS/DSP/Source/FilteringFunctions/arm_biquad_cascade_df1_32x64_q31.c **** 
 489              		.loc 1 209 9 view .LVU156
 490 019e 8B46     		mov	fp, r1
 491              	.LVL50:
 209:./Libraries/CMSIS/DSP/Source/FilteringFunctions/arm_biquad_cascade_df1_32x64_q31.c **** 
 492              		.loc 1 209 9 view .LVU157
 493 01a0 8646     		mov	lr, r0
 494              	.LVL51:
 209:./Libraries/CMSIS/DSP/Source/FilteringFunctions/arm_biquad_cascade_df1_32x64_q31.c **** 
 495              		.loc 1 209 9 view .LVU158
 496 01a2 D117     		asrs	r1, r2, #31
ARM GAS  /tmp/ccykST3h.s 			page 32


 497              	.LVL52:
 209:./Libraries/CMSIS/DSP/Source/FilteringFunctions/arm_biquad_cascade_df1_32x64_q31.c **** 
 498              		.loc 1 209 9 view .LVU159
 499 01a4 1046     		mov	r0, r2
 500              	.LVL53:
 209:./Libraries/CMSIS/DSP/Source/FilteringFunctions/arm_biquad_cascade_df1_32x64_q31.c **** 
 501              		.loc 1 209 9 view .LVU160
 502 01a6 D046     		mov	r8, r10
 503 01a8 4FEAEA79 		asr	r9, r10, #31
 504 01ac CDE90001 		strd	r0, [sp]
 505 01b0 D8E7     		b	.L4
 506              	.LVL54:
 507              	.L10:
 453:./Libraries/CMSIS/DSP/Source/FilteringFunctions/arm_biquad_cascade_df1_32x64_q31.c **** 
 454:./Libraries/CMSIS/DSP/Source/FilteringFunctions/arm_biquad_cascade_df1_32x64_q31.c **** }
 508              		.loc 1 454 1 view .LVU161
 509 01b2 19B0     		add	sp, sp, #100
 510              	.LCFI2:
 511              		.cfi_def_cfa_offset 36
 512              		@ sp needed
 513 01b4 BDE8F08F 		pop	{r4, r5, r6, r7, r8, r9, r10, fp, pc}
 514              		.loc 1 454 1 view .LVU162
 515              		.cfi_endproc
 516              	.LFE145:
 518              		.text
 519              	.Letext0:
 520              		.file 3 "/usr/lib/gcc/arm-none-eabi/9.2.1/include/stdint.h"
 521              		.file 4 "/usr/lib/gcc/arm-none-eabi/9.2.1/include/stddef.h"
 522              		.file 5 "/usr/include/newlib/sys/_types.h"
 523              		.file 6 "/usr/include/newlib/sys/reent.h"
 524              		.file 7 "/usr/include/newlib/sys/lock.h"
 525              		.file 8 "/usr/include/newlib/math.h"
ARM GAS  /tmp/ccykST3h.s 			page 33

