ARM GAS  /var/folders/wl/rshn8xbx1dsfj1zgryf4g1240000gn/T//cc47QWkd.s 			page 1


   1              		.cpu cortex-m7
   2              		.eabi_attribute 28, 1
   3              		.eabi_attribute 20, 1
   4              		.eabi_attribute 21, 1
   5              		.eabi_attribute 23, 3
   6              		.eabi_attribute 24, 1
   7              		.eabi_attribute 25, 1
   8              		.eabi_attribute 26, 1
   9              		.eabi_attribute 30, 2
  10              		.eabi_attribute 34, 1
  11              		.eabi_attribute 18, 4
  12              		.file	"arm_dct4_init_f32.c"
  13              		.text
  14              	.Ltext0:
  15              		.cfi_sections	.debug_frame
  16              		.section	.text.arm_dct4_init_f32,"ax",%progbits
  17              		.align	1
  18              		.p2align 2,,3
  19              		.global	arm_dct4_init_f32
  20              		.arch armv7e-m
  21              		.syntax unified
  22              		.thumb
  23              		.thumb_func
  24              		.fpu fpv5-d16
  26              	arm_dct4_init_f32:
  27              	.LVL0:
  28              	.LFB145:
  29              		.file 1 ".//Libraries/CMSIS/DSP/Source/TransformFunctions/arm_dct4_init_f32.c"
   1:.//Libraries/CMSIS/DSP/Source/TransformFunctions/arm_dct4_init_f32.c **** /* ----------------------------------------------------------------------
   2:.//Libraries/CMSIS/DSP/Source/TransformFunctions/arm_dct4_init_f32.c ****  * Project:      CMSIS DSP Library
   3:.//Libraries/CMSIS/DSP/Source/TransformFunctions/arm_dct4_init_f32.c ****  * Title:        arm_dct4_init_f32.c
   4:.//Libraries/CMSIS/DSP/Source/TransformFunctions/arm_dct4_init_f32.c ****  * Description:  Initialization function of DCT-4 & IDCT4 F32
   5:.//Libraries/CMSIS/DSP/Source/TransformFunctions/arm_dct4_init_f32.c ****  *
   6:.//Libraries/CMSIS/DSP/Source/TransformFunctions/arm_dct4_init_f32.c ****  * $Date:        18. March 2019
   7:.//Libraries/CMSIS/DSP/Source/TransformFunctions/arm_dct4_init_f32.c ****  * $Revision:    V1.6.0
   8:.//Libraries/CMSIS/DSP/Source/TransformFunctions/arm_dct4_init_f32.c ****  *
   9:.//Libraries/CMSIS/DSP/Source/TransformFunctions/arm_dct4_init_f32.c ****  * Target Processor: Cortex-M cores
  10:.//Libraries/CMSIS/DSP/Source/TransformFunctions/arm_dct4_init_f32.c ****  * -------------------------------------------------------------------- */
  11:.//Libraries/CMSIS/DSP/Source/TransformFunctions/arm_dct4_init_f32.c **** /*
  12:.//Libraries/CMSIS/DSP/Source/TransformFunctions/arm_dct4_init_f32.c ****  * Copyright (C) 2010-2019 ARM Limited or its affiliates. All rights reserved.
  13:.//Libraries/CMSIS/DSP/Source/TransformFunctions/arm_dct4_init_f32.c ****  *
  14:.//Libraries/CMSIS/DSP/Source/TransformFunctions/arm_dct4_init_f32.c ****  * SPDX-License-Identifier: Apache-2.0
  15:.//Libraries/CMSIS/DSP/Source/TransformFunctions/arm_dct4_init_f32.c ****  *
  16:.//Libraries/CMSIS/DSP/Source/TransformFunctions/arm_dct4_init_f32.c ****  * Licensed under the Apache License, Version 2.0 (the License); you may
  17:.//Libraries/CMSIS/DSP/Source/TransformFunctions/arm_dct4_init_f32.c ****  * not use this file except in compliance with the License.
  18:.//Libraries/CMSIS/DSP/Source/TransformFunctions/arm_dct4_init_f32.c ****  * You may obtain a copy of the License at
  19:.//Libraries/CMSIS/DSP/Source/TransformFunctions/arm_dct4_init_f32.c ****  *
  20:.//Libraries/CMSIS/DSP/Source/TransformFunctions/arm_dct4_init_f32.c ****  * www.apache.org/licenses/LICENSE-2.0
  21:.//Libraries/CMSIS/DSP/Source/TransformFunctions/arm_dct4_init_f32.c ****  *
  22:.//Libraries/CMSIS/DSP/Source/TransformFunctions/arm_dct4_init_f32.c ****  * Unless required by applicable law or agreed to in writing, software
  23:.//Libraries/CMSIS/DSP/Source/TransformFunctions/arm_dct4_init_f32.c ****  * distributed under the License is distributed on an AS IS BASIS, WITHOUT
  24:.//Libraries/CMSIS/DSP/Source/TransformFunctions/arm_dct4_init_f32.c ****  * WARRANTIES OR CONDITIONS OF ANY KIND, either express or implied.
  25:.//Libraries/CMSIS/DSP/Source/TransformFunctions/arm_dct4_init_f32.c ****  * See the License for the specific language governing permissions and
  26:.//Libraries/CMSIS/DSP/Source/TransformFunctions/arm_dct4_init_f32.c ****  * limitations under the License.
  27:.//Libraries/CMSIS/DSP/Source/TransformFunctions/arm_dct4_init_f32.c ****  */
  28:.//Libraries/CMSIS/DSP/Source/TransformFunctions/arm_dct4_init_f32.c **** 
  29:.//Libraries/CMSIS/DSP/Source/TransformFunctions/arm_dct4_init_f32.c **** #include "arm_math.h"
ARM GAS  /var/folders/wl/rshn8xbx1dsfj1zgryf4g1240000gn/T//cc47QWkd.s 			page 2


  30:.//Libraries/CMSIS/DSP/Source/TransformFunctions/arm_dct4_init_f32.c **** #include "arm_common_tables.h"
  31:.//Libraries/CMSIS/DSP/Source/TransformFunctions/arm_dct4_init_f32.c **** 
  32:.//Libraries/CMSIS/DSP/Source/TransformFunctions/arm_dct4_init_f32.c **** /**
  33:.//Libraries/CMSIS/DSP/Source/TransformFunctions/arm_dct4_init_f32.c ****   @ingroup DCT4_IDCT4
  34:.//Libraries/CMSIS/DSP/Source/TransformFunctions/arm_dct4_init_f32.c ****  */
  35:.//Libraries/CMSIS/DSP/Source/TransformFunctions/arm_dct4_init_f32.c **** 
  36:.//Libraries/CMSIS/DSP/Source/TransformFunctions/arm_dct4_init_f32.c **** 
  37:.//Libraries/CMSIS/DSP/Source/TransformFunctions/arm_dct4_init_f32.c **** /**
  38:.//Libraries/CMSIS/DSP/Source/TransformFunctions/arm_dct4_init_f32.c ****   @addtogroup DCT4_IDCT4
  39:.//Libraries/CMSIS/DSP/Source/TransformFunctions/arm_dct4_init_f32.c ****   @{
  40:.//Libraries/CMSIS/DSP/Source/TransformFunctions/arm_dct4_init_f32.c ****  */
  41:.//Libraries/CMSIS/DSP/Source/TransformFunctions/arm_dct4_init_f32.c **** 
  42:.//Libraries/CMSIS/DSP/Source/TransformFunctions/arm_dct4_init_f32.c **** /**
  43:.//Libraries/CMSIS/DSP/Source/TransformFunctions/arm_dct4_init_f32.c ****   @brief         Initialization function for the floating-point DCT4/IDCT4.
  44:.//Libraries/CMSIS/DSP/Source/TransformFunctions/arm_dct4_init_f32.c ****   @param[in,out] S          points to an instance of floating-point DCT4/IDCT4 structure
  45:.//Libraries/CMSIS/DSP/Source/TransformFunctions/arm_dct4_init_f32.c ****   @param[in]     S_RFFT     points to an instance of floating-point RFFT/RIFFT structure
  46:.//Libraries/CMSIS/DSP/Source/TransformFunctions/arm_dct4_init_f32.c ****   @param[in]     S_CFFT     points to an instance of floating-point CFFT/CIFFT structure
  47:.//Libraries/CMSIS/DSP/Source/TransformFunctions/arm_dct4_init_f32.c ****   @param[in]     N			length of the DCT4
  48:.//Libraries/CMSIS/DSP/Source/TransformFunctions/arm_dct4_init_f32.c ****   @param[in]     Nby2       half of the length of the DCT4
  49:.//Libraries/CMSIS/DSP/Source/TransformFunctions/arm_dct4_init_f32.c ****   @param[in]     normalize  normalizing factor.
  50:.//Libraries/CMSIS/DSP/Source/TransformFunctions/arm_dct4_init_f32.c ****   @return        execution status
  51:.//Libraries/CMSIS/DSP/Source/TransformFunctions/arm_dct4_init_f32.c ****                    - \ref ARM_MATH_SUCCESS        : Operation successful
  52:.//Libraries/CMSIS/DSP/Source/TransformFunctions/arm_dct4_init_f32.c ****                    - \ref ARM_MATH_ARGUMENT_ERROR : <code>N</code> is not a supported transform len
  53:.//Libraries/CMSIS/DSP/Source/TransformFunctions/arm_dct4_init_f32.c **** 
  54:.//Libraries/CMSIS/DSP/Source/TransformFunctions/arm_dct4_init_f32.c ****   @par           Normalizing factor
  55:.//Libraries/CMSIS/DSP/Source/TransformFunctions/arm_dct4_init_f32.c ****                    The normalizing factor is <code>sqrt(2/N)</code>, which depends on the size of t
  56:.//Libraries/CMSIS/DSP/Source/TransformFunctions/arm_dct4_init_f32.c ****                    Floating-point normalizing factors are mentioned in the table below for differen
  57:.//Libraries/CMSIS/DSP/Source/TransformFunctions/arm_dct4_init_f32.c **** 
  58:.//Libraries/CMSIS/DSP/Source/TransformFunctions/arm_dct4_init_f32.c ****                    \image html dct4NormalizingF32Table.gif
  59:.//Libraries/CMSIS/DSP/Source/TransformFunctions/arm_dct4_init_f32.c ****  */
  60:.//Libraries/CMSIS/DSP/Source/TransformFunctions/arm_dct4_init_f32.c **** 
  61:.//Libraries/CMSIS/DSP/Source/TransformFunctions/arm_dct4_init_f32.c **** arm_status arm_dct4_init_f32(
  62:.//Libraries/CMSIS/DSP/Source/TransformFunctions/arm_dct4_init_f32.c ****   arm_dct4_instance_f32 * S,
  63:.//Libraries/CMSIS/DSP/Source/TransformFunctions/arm_dct4_init_f32.c ****   arm_rfft_instance_f32 * S_RFFT,
  64:.//Libraries/CMSIS/DSP/Source/TransformFunctions/arm_dct4_init_f32.c ****   arm_cfft_radix4_instance_f32 * S_CFFT,
  65:.//Libraries/CMSIS/DSP/Source/TransformFunctions/arm_dct4_init_f32.c ****   uint16_t N,
  66:.//Libraries/CMSIS/DSP/Source/TransformFunctions/arm_dct4_init_f32.c ****   uint16_t Nby2,
  67:.//Libraries/CMSIS/DSP/Source/TransformFunctions/arm_dct4_init_f32.c ****   float32_t normalize)
  68:.//Libraries/CMSIS/DSP/Source/TransformFunctions/arm_dct4_init_f32.c **** {
  30              		.loc 1 68 1 view -0
  31              		.cfi_startproc
  32              		@ args = 4, pretend = 0, frame = 0
  33              		@ frame_needed = 0, uses_anonymous_args = 0
  69:.//Libraries/CMSIS/DSP/Source/TransformFunctions/arm_dct4_init_f32.c ****   /* Initialize the default arm status */
  70:.//Libraries/CMSIS/DSP/Source/TransformFunctions/arm_dct4_init_f32.c ****   arm_status status = ARM_MATH_SUCCESS;
  34              		.loc 1 70 3 view .LVU1
  71:.//Libraries/CMSIS/DSP/Source/TransformFunctions/arm_dct4_init_f32.c **** 
  72:.//Libraries/CMSIS/DSP/Source/TransformFunctions/arm_dct4_init_f32.c **** 
  73:.//Libraries/CMSIS/DSP/Source/TransformFunctions/arm_dct4_init_f32.c ****   /* Initialize the DCT4 length */
  74:.//Libraries/CMSIS/DSP/Source/TransformFunctions/arm_dct4_init_f32.c ****   S->N = N;
  35              		.loc 1 74 3 view .LVU2
  68:.//Libraries/CMSIS/DSP/Source/TransformFunctions/arm_dct4_init_f32.c ****   /* Initialize the default arm status */
  36              		.loc 1 68 1 is_stmt 0 view .LVU3
  37 0000 70B5     		push	{r4, r5, r6, lr}
  38              	.LCFI0:
  39              		.cfi_def_cfa_offset 16
  40              		.cfi_offset 4, -16
ARM GAS  /var/folders/wl/rshn8xbx1dsfj1zgryf4g1240000gn/T//cc47QWkd.s 			page 3


  41              		.cfi_offset 5, -12
  42              		.cfi_offset 6, -8
  43              		.cfi_offset 14, -4
  44 0002 82B0     		sub	sp, sp, #8
  45              	.LCFI1:
  46              		.cfi_def_cfa_offset 24
  68:.//Libraries/CMSIS/DSP/Source/TransformFunctions/arm_dct4_init_f32.c ****   /* Initialize the default arm status */
  47              		.loc 1 68 1 view .LVU4
  48 0004 0446     		mov	r4, r0
  75:.//Libraries/CMSIS/DSP/Source/TransformFunctions/arm_dct4_init_f32.c **** 
  76:.//Libraries/CMSIS/DSP/Source/TransformFunctions/arm_dct4_init_f32.c ****   /* Initialize the half of DCT4 length */
  77:.//Libraries/CMSIS/DSP/Source/TransformFunctions/arm_dct4_init_f32.c ****   S->Nby2 = Nby2;
  78:.//Libraries/CMSIS/DSP/Source/TransformFunctions/arm_dct4_init_f32.c **** 
  79:.//Libraries/CMSIS/DSP/Source/TransformFunctions/arm_dct4_init_f32.c ****   /* Initialize the DCT4 Normalizing factor */
  80:.//Libraries/CMSIS/DSP/Source/TransformFunctions/arm_dct4_init_f32.c ****   S->normalize = normalize;
  81:.//Libraries/CMSIS/DSP/Source/TransformFunctions/arm_dct4_init_f32.c **** 
  82:.//Libraries/CMSIS/DSP/Source/TransformFunctions/arm_dct4_init_f32.c ****   /* Initialize Real FFT Instance */
  83:.//Libraries/CMSIS/DSP/Source/TransformFunctions/arm_dct4_init_f32.c ****   S->pRfft = S_RFFT;
  84:.//Libraries/CMSIS/DSP/Source/TransformFunctions/arm_dct4_init_f32.c **** 
  85:.//Libraries/CMSIS/DSP/Source/TransformFunctions/arm_dct4_init_f32.c ****   /* Initialize Complex FFT Instance */
  86:.//Libraries/CMSIS/DSP/Source/TransformFunctions/arm_dct4_init_f32.c ****   S->pCfft = S_CFFT;
  87:.//Libraries/CMSIS/DSP/Source/TransformFunctions/arm_dct4_init_f32.c **** 
  88:.//Libraries/CMSIS/DSP/Source/TransformFunctions/arm_dct4_init_f32.c ****   switch (N)
  49              		.loc 1 88 3 view .LVU5
  50 0006 B3F5006F 		cmp	r3, #2048
  68:.//Libraries/CMSIS/DSP/Source/TransformFunctions/arm_dct4_init_f32.c ****   /* Initialize the default arm status */
  51              		.loc 1 68 1 view .LVU6
  52 000a 0846     		mov	r0, r1
  53              	.LVL1:
  68:.//Libraries/CMSIS/DSP/Source/TransformFunctions/arm_dct4_init_f32.c ****   /* Initialize the default arm status */
  54              		.loc 1 68 1 view .LVU7
  55 000c BDF81850 		ldrh	r5, [sp, #24]
  56 0010 1146     		mov	r1, r2
  57              	.LVL2:
  74:.//Libraries/CMSIS/DSP/Source/TransformFunctions/arm_dct4_init_f32.c **** 
  58              		.loc 1 74 8 view .LVU8
  59 0012 2380     		strh	r3, [r4]	@ movhi
  77:.//Libraries/CMSIS/DSP/Source/TransformFunctions/arm_dct4_init_f32.c **** 
  60              		.loc 1 77 3 is_stmt 1 view .LVU9
  77:.//Libraries/CMSIS/DSP/Source/TransformFunctions/arm_dct4_init_f32.c **** 
  61              		.loc 1 77 11 is_stmt 0 view .LVU10
  62 0014 6580     		strh	r5, [r4, #2]	@ movhi
  80:.//Libraries/CMSIS/DSP/Source/TransformFunctions/arm_dct4_init_f32.c **** 
  63              		.loc 1 80 3 is_stmt 1 view .LVU11
  80:.//Libraries/CMSIS/DSP/Source/TransformFunctions/arm_dct4_init_f32.c **** 
  64              		.loc 1 80 16 is_stmt 0 view .LVU12
  65 0016 84ED010A 		vstr.32	s0, [r4, #4]
  83:.//Libraries/CMSIS/DSP/Source/TransformFunctions/arm_dct4_init_f32.c **** 
  66              		.loc 1 83 3 is_stmt 1 view .LVU13
  86:.//Libraries/CMSIS/DSP/Source/TransformFunctions/arm_dct4_init_f32.c **** 
  67              		.loc 1 86 3 view .LVU14
  68              		.loc 1 88 3 view .LVU15
  86:.//Libraries/CMSIS/DSP/Source/TransformFunctions/arm_dct4_init_f32.c **** 
  69              		.loc 1 86 12 is_stmt 0 view .LVU16
  70 001a C4E90402 		strd	r0, r2, [r4, #16]
  71              		.loc 1 88 3 view .LVU17
  72 001e 25D0     		beq	.L2
ARM GAS  /var/folders/wl/rshn8xbx1dsfj1zgryf4g1240000gn/T//cc47QWkd.s 			page 4


  73 0020 12D8     		bhi	.L3
  74 0022 802B     		cmp	r3, #128
  75 0024 1CD0     		beq	.L4
  76 0026 B3F5007F 		cmp	r3, #512
  77 002a 16D1     		bne	.L7
  89:.//Libraries/CMSIS/DSP/Source/TransformFunctions/arm_dct4_init_f32.c ****   {
  90:.//Libraries/CMSIS/DSP/Source/TransformFunctions/arm_dct4_init_f32.c ****   #if !defined(ARM_DSP_CONFIG_TABLES) || defined(ARM_ALL_FFT_TABLES) || defined(ARM_TABLE_DCT4_F32_
  91:.//Libraries/CMSIS/DSP/Source/TransformFunctions/arm_dct4_init_f32.c ****     /* Initialize the table modifier values */
  92:.//Libraries/CMSIS/DSP/Source/TransformFunctions/arm_dct4_init_f32.c ****   case 8192U:
  93:.//Libraries/CMSIS/DSP/Source/TransformFunctions/arm_dct4_init_f32.c ****     S->pTwiddle = Weights_8192;
  94:.//Libraries/CMSIS/DSP/Source/TransformFunctions/arm_dct4_init_f32.c ****     S->pCosFactor = cos_factors_8192;
  95:.//Libraries/CMSIS/DSP/Source/TransformFunctions/arm_dct4_init_f32.c ****     break;
  96:.//Libraries/CMSIS/DSP/Source/TransformFunctions/arm_dct4_init_f32.c ****   #endif
  97:.//Libraries/CMSIS/DSP/Source/TransformFunctions/arm_dct4_init_f32.c **** 
  98:.//Libraries/CMSIS/DSP/Source/TransformFunctions/arm_dct4_init_f32.c ****   #if !defined(ARM_DSP_CONFIG_TABLES) || defined(ARM_ALL_FFT_TABLES) || defined(ARM_TABLE_DCT4_F32_
  99:.//Libraries/CMSIS/DSP/Source/TransformFunctions/arm_dct4_init_f32.c ****   case 2048U:
 100:.//Libraries/CMSIS/DSP/Source/TransformFunctions/arm_dct4_init_f32.c ****     S->pTwiddle = Weights_2048;
 101:.//Libraries/CMSIS/DSP/Source/TransformFunctions/arm_dct4_init_f32.c ****     S->pCosFactor = cos_factors_2048;
 102:.//Libraries/CMSIS/DSP/Source/TransformFunctions/arm_dct4_init_f32.c ****     break;
 103:.//Libraries/CMSIS/DSP/Source/TransformFunctions/arm_dct4_init_f32.c ****   #endif
 104:.//Libraries/CMSIS/DSP/Source/TransformFunctions/arm_dct4_init_f32.c **** 
 105:.//Libraries/CMSIS/DSP/Source/TransformFunctions/arm_dct4_init_f32.c ****   #if !defined(ARM_DSP_CONFIG_TABLES) || defined(ARM_ALL_FFT_TABLES) || defined(ARM_TABLE_DCT4_F32_
 106:.//Libraries/CMSIS/DSP/Source/TransformFunctions/arm_dct4_init_f32.c ****   case 512U:
 107:.//Libraries/CMSIS/DSP/Source/TransformFunctions/arm_dct4_init_f32.c ****     S->pTwiddle = Weights_512;
  78              		.loc 1 107 5 is_stmt 1 view .LVU18
  79              		.loc 1 107 17 is_stmt 0 view .LVU19
  80 002c 124E     		ldr	r6, .L10
  70:.//Libraries/CMSIS/DSP/Source/TransformFunctions/arm_dct4_init_f32.c **** 
  81              		.loc 1 70 14 view .LVU20
  82 002e 0025     		movs	r5, #0
 108:.//Libraries/CMSIS/DSP/Source/TransformFunctions/arm_dct4_init_f32.c ****     S->pCosFactor = cos_factors_512;
  83              		.loc 1 108 19 view .LVU21
  84 0030 124A     		ldr	r2, .L10+4
  85              	.LVL3:
  86              		.loc 1 108 19 view .LVU22
  87 0032 C4E90262 		strd	r6, r2, [r4, #8]
 109:.//Libraries/CMSIS/DSP/Source/TransformFunctions/arm_dct4_init_f32.c ****     break;
  88              		.loc 1 109 5 is_stmt 1 view .LVU23
  89              	.L6:
  90              	.LVL4:
 110:.//Libraries/CMSIS/DSP/Source/TransformFunctions/arm_dct4_init_f32.c ****   #endif
 111:.//Libraries/CMSIS/DSP/Source/TransformFunctions/arm_dct4_init_f32.c **** 
 112:.//Libraries/CMSIS/DSP/Source/TransformFunctions/arm_dct4_init_f32.c ****   #if !defined(ARM_DSP_CONFIG_TABLES) || defined(ARM_ALL_FFT_TABLES) || defined(ARM_TABLE_DCT4_F32_
 113:.//Libraries/CMSIS/DSP/Source/TransformFunctions/arm_dct4_init_f32.c ****   case 128U:
 114:.//Libraries/CMSIS/DSP/Source/TransformFunctions/arm_dct4_init_f32.c ****     S->pTwiddle = Weights_128;
 115:.//Libraries/CMSIS/DSP/Source/TransformFunctions/arm_dct4_init_f32.c ****     S->pCosFactor = cos_factors_128;
 116:.//Libraries/CMSIS/DSP/Source/TransformFunctions/arm_dct4_init_f32.c ****     break;
 117:.//Libraries/CMSIS/DSP/Source/TransformFunctions/arm_dct4_init_f32.c ****   #endif
 118:.//Libraries/CMSIS/DSP/Source/TransformFunctions/arm_dct4_init_f32.c ****   default:
 119:.//Libraries/CMSIS/DSP/Source/TransformFunctions/arm_dct4_init_f32.c ****     status = ARM_MATH_ARGUMENT_ERROR;
 120:.//Libraries/CMSIS/DSP/Source/TransformFunctions/arm_dct4_init_f32.c ****   }
 121:.//Libraries/CMSIS/DSP/Source/TransformFunctions/arm_dct4_init_f32.c **** 
 122:.//Libraries/CMSIS/DSP/Source/TransformFunctions/arm_dct4_init_f32.c ****   /* Initialize the RFFT/RIFFT Function */
 123:.//Libraries/CMSIS/DSP/Source/TransformFunctions/arm_dct4_init_f32.c ****   arm_rfft_init_f32(S->pRfft, S->pCfft, S->N, 0U, 1U);
  91              		.loc 1 123 3 view .LVU24
  92 0036 0124     		movs	r4, #1
  93              	.LVL5:
ARM GAS  /var/folders/wl/rshn8xbx1dsfj1zgryf4g1240000gn/T//cc47QWkd.s 			page 5


  94              		.loc 1 123 3 is_stmt 0 view .LVU25
  95 0038 1A46     		mov	r2, r3
  96 003a 0023     		movs	r3, #0
  97              	.LVL6:
  98              		.loc 1 123 3 view .LVU26
  99 003c 0094     		str	r4, [sp]
 100              	.LVL7:
 101              		.loc 1 123 3 view .LVU27
 102 003e FFF7FEFF 		bl	arm_rfft_init_f32
 103              	.LVL8:
 124:.//Libraries/CMSIS/DSP/Source/TransformFunctions/arm_dct4_init_f32.c **** 
 125:.//Libraries/CMSIS/DSP/Source/TransformFunctions/arm_dct4_init_f32.c ****   /* return the status of DCT4 Init function */
 126:.//Libraries/CMSIS/DSP/Source/TransformFunctions/arm_dct4_init_f32.c ****   return (status);
 104              		.loc 1 126 3 is_stmt 1 view .LVU28
 127:.//Libraries/CMSIS/DSP/Source/TransformFunctions/arm_dct4_init_f32.c **** }
 105              		.loc 1 127 1 is_stmt 0 view .LVU29
 106 0042 2846     		mov	r0, r5
 107 0044 02B0     		add	sp, sp, #8
 108              	.LCFI2:
 109              		.cfi_remember_state
 110              		.cfi_def_cfa_offset 16
 111              		@ sp needed
 112 0046 70BD     		pop	{r4, r5, r6, pc}
 113              	.LVL9:
 114              	.L3:
 115              	.LCFI3:
 116              		.cfi_restore_state
  88:.//Libraries/CMSIS/DSP/Source/TransformFunctions/arm_dct4_init_f32.c ****   {
 117              		.loc 1 88 3 view .LVU30
 118 0048 B3F5005F 		cmp	r3, #8192
 119 004c 05D1     		bne	.L7
  93:.//Libraries/CMSIS/DSP/Source/TransformFunctions/arm_dct4_init_f32.c ****     S->pCosFactor = cos_factors_8192;
 120              		.loc 1 93 5 is_stmt 1 view .LVU31
  93:.//Libraries/CMSIS/DSP/Source/TransformFunctions/arm_dct4_init_f32.c ****     S->pCosFactor = cos_factors_8192;
 121              		.loc 1 93 17 is_stmt 0 view .LVU32
 122 004e 0C4E     		ldr	r6, .L10+8
  70:.//Libraries/CMSIS/DSP/Source/TransformFunctions/arm_dct4_init_f32.c **** 
 123              		.loc 1 70 14 view .LVU33
 124 0050 0025     		movs	r5, #0
  94:.//Libraries/CMSIS/DSP/Source/TransformFunctions/arm_dct4_init_f32.c ****     break;
 125              		.loc 1 94 19 view .LVU34
 126 0052 0C4A     		ldr	r2, .L10+12
 127 0054 C4E90262 		strd	r6, r2, [r4, #8]
  95:.//Libraries/CMSIS/DSP/Source/TransformFunctions/arm_dct4_init_f32.c ****   #endif
 128              		.loc 1 95 5 is_stmt 1 view .LVU35
 129 0058 EDE7     		b	.L6
 130              	.L7:
  88:.//Libraries/CMSIS/DSP/Source/TransformFunctions/arm_dct4_init_f32.c ****   {
 131              		.loc 1 88 3 is_stmt 0 view .LVU36
 132 005a 4FF0FF35 		mov	r5, #-1
 133 005e EAE7     		b	.L6
 134              	.L4:
 114:.//Libraries/CMSIS/DSP/Source/TransformFunctions/arm_dct4_init_f32.c ****     S->pCosFactor = cos_factors_128;
 135              		.loc 1 114 5 is_stmt 1 view .LVU37
 114:.//Libraries/CMSIS/DSP/Source/TransformFunctions/arm_dct4_init_f32.c ****     S->pCosFactor = cos_factors_128;
 136              		.loc 1 114 17 is_stmt 0 view .LVU38
 137 0060 094E     		ldr	r6, .L10+16
ARM GAS  /var/folders/wl/rshn8xbx1dsfj1zgryf4g1240000gn/T//cc47QWkd.s 			page 6


  70:.//Libraries/CMSIS/DSP/Source/TransformFunctions/arm_dct4_init_f32.c **** 
 138              		.loc 1 70 14 view .LVU39
 139 0062 0025     		movs	r5, #0
 115:.//Libraries/CMSIS/DSP/Source/TransformFunctions/arm_dct4_init_f32.c ****     break;
 140              		.loc 1 115 19 view .LVU40
 141 0064 094A     		ldr	r2, .L10+20
 142 0066 C4E90262 		strd	r6, r2, [r4, #8]
 116:.//Libraries/CMSIS/DSP/Source/TransformFunctions/arm_dct4_init_f32.c ****   #endif
 143              		.loc 1 116 5 is_stmt 1 view .LVU41
 144 006a E4E7     		b	.L6
 145              	.L2:
 100:.//Libraries/CMSIS/DSP/Source/TransformFunctions/arm_dct4_init_f32.c ****     S->pCosFactor = cos_factors_2048;
 146              		.loc 1 100 5 view .LVU42
 100:.//Libraries/CMSIS/DSP/Source/TransformFunctions/arm_dct4_init_f32.c ****     S->pCosFactor = cos_factors_2048;
 147              		.loc 1 100 17 is_stmt 0 view .LVU43
 148 006c 084E     		ldr	r6, .L10+24
  70:.//Libraries/CMSIS/DSP/Source/TransformFunctions/arm_dct4_init_f32.c **** 
 149              		.loc 1 70 14 view .LVU44
 150 006e 0025     		movs	r5, #0
 101:.//Libraries/CMSIS/DSP/Source/TransformFunctions/arm_dct4_init_f32.c ****     break;
 151              		.loc 1 101 19 view .LVU45
 152 0070 084A     		ldr	r2, .L10+28
 153 0072 C4E90262 		strd	r6, r2, [r4, #8]
 102:.//Libraries/CMSIS/DSP/Source/TransformFunctions/arm_dct4_init_f32.c ****   #endif
 154              		.loc 1 102 5 is_stmt 1 view .LVU46
 155 0076 DEE7     		b	.L6
 156              	.L11:
 157              		.align	2
 158              	.L10:
 159 0078 00000000 		.word	Weights_512
 160 007c 00000000 		.word	cos_factors_512
 161 0080 00000000 		.word	Weights_8192
 162 0084 00000000 		.word	cos_factors_8192
 163 0088 00000000 		.word	Weights_128
 164 008c 00000000 		.word	cos_factors_128
 165 0090 00000000 		.word	Weights_2048
 166 0094 00000000 		.word	cos_factors_2048
 167              		.cfi_endproc
 168              	.LFE145:
 170              		.text
 171              	.Letext0:
 172              		.file 2 "/opt/homebrew/Cellar/arm-none-eabi-gcc/9-2019-q4-major/gcc/arm-none-eabi/include/machine/
 173              		.file 3 "/opt/homebrew/Cellar/arm-none-eabi-gcc/9-2019-q4-major/gcc/arm-none-eabi/include/sys/_std
 174              		.file 4 "/opt/homebrew/Cellar/arm-none-eabi-gcc/9-2019-q4-major/gcc/arm-none-eabi/include/sys/lock
 175              		.file 5 "/opt/homebrew/Cellar/arm-none-eabi-gcc/9-2019-q4-major/gcc/arm-none-eabi/include/sys/_typ
 176              		.file 6 "/opt/homebrew/Cellar/arm-none-eabi-gcc/9-2019-q4-major/gcc/lib/gcc/arm-none-eabi/9.2.1/in
 177              		.file 7 "/opt/homebrew/Cellar/arm-none-eabi-gcc/9-2019-q4-major/gcc/arm-none-eabi/include/sys/reen
 178              		.file 8 "/opt/homebrew/Cellar/arm-none-eabi-gcc/9-2019-q4-major/gcc/arm-none-eabi/include/math.h"
 179              		.file 9 ".//Libraries/CMSIS/DSP/Include/arm_math.h"
 180              		.file 10 ".//Libraries/CMSIS/DSP/Include/arm_common_tables.h"
ARM GAS  /var/folders/wl/rshn8xbx1dsfj1zgryf4g1240000gn/T//cc47QWkd.s 			page 7

