ARM GAS  /var/folders/wl/rshn8xbx1dsfj1zgryf4g1240000gn/T//ccaOHMDq.s 			page 1


   1              		.cpu cortex-m7
   2              		.eabi_attribute 28, 1
   3              		.eabi_attribute 20, 1
   4              		.eabi_attribute 21, 1
   5              		.eabi_attribute 23, 3
   6              		.eabi_attribute 24, 1
   7              		.eabi_attribute 25, 1
   8              		.eabi_attribute 26, 1
   9              		.eabi_attribute 30, 2
  10              		.eabi_attribute 34, 1
  11              		.eabi_attribute 18, 4
  12              		.file	"arm_cfft_radix4_init_q15.c"
  13              		.text
  14              	.Ltext0:
  15              		.cfi_sections	.debug_frame
  16              		.section	.text.arm_cfft_radix4_init_q15,"ax",%progbits
  17              		.align	1
  18              		.p2align 2,,3
  19              		.global	arm_cfft_radix4_init_q15
  20              		.arch armv7e-m
  21              		.syntax unified
  22              		.thumb
  23              		.thumb_func
  24              		.fpu fpv5-d16
  26              	arm_cfft_radix4_init_q15:
  27              	.LVL0:
  28              	.LFB145:
  29              		.file 1 ".//Libraries/CMSIS/DSP/Source/TransformFunctions/arm_cfft_radix4_init_q15.c"
   1:.//Libraries/CMSIS/DSP/Source/TransformFunctions/arm_cfft_radix4_init_q15.c **** /* ----------------------------------------------------------------------
   2:.//Libraries/CMSIS/DSP/Source/TransformFunctions/arm_cfft_radix4_init_q15.c ****  * Project:      CMSIS DSP Library
   3:.//Libraries/CMSIS/DSP/Source/TransformFunctions/arm_cfft_radix4_init_q15.c ****  * Title:        arm_cfft_radix4_init_q15.c
   4:.//Libraries/CMSIS/DSP/Source/TransformFunctions/arm_cfft_radix4_init_q15.c ****  * Description:  Radix-4 Decimation in Frequency Q15 FFT & IFFT initialization function
   5:.//Libraries/CMSIS/DSP/Source/TransformFunctions/arm_cfft_radix4_init_q15.c ****  *
   6:.//Libraries/CMSIS/DSP/Source/TransformFunctions/arm_cfft_radix4_init_q15.c ****  * $Date:        18. March 2019
   7:.//Libraries/CMSIS/DSP/Source/TransformFunctions/arm_cfft_radix4_init_q15.c ****  * $Revision:    V1.6.0
   8:.//Libraries/CMSIS/DSP/Source/TransformFunctions/arm_cfft_radix4_init_q15.c ****  *
   9:.//Libraries/CMSIS/DSP/Source/TransformFunctions/arm_cfft_radix4_init_q15.c ****  * Target Processor: Cortex-M cores
  10:.//Libraries/CMSIS/DSP/Source/TransformFunctions/arm_cfft_radix4_init_q15.c ****  * -------------------------------------------------------------------- */
  11:.//Libraries/CMSIS/DSP/Source/TransformFunctions/arm_cfft_radix4_init_q15.c **** /*
  12:.//Libraries/CMSIS/DSP/Source/TransformFunctions/arm_cfft_radix4_init_q15.c ****  * Copyright (C) 2010-2019 ARM Limited or its affiliates. All rights reserved.
  13:.//Libraries/CMSIS/DSP/Source/TransformFunctions/arm_cfft_radix4_init_q15.c ****  *
  14:.//Libraries/CMSIS/DSP/Source/TransformFunctions/arm_cfft_radix4_init_q15.c ****  * SPDX-License-Identifier: Apache-2.0
  15:.//Libraries/CMSIS/DSP/Source/TransformFunctions/arm_cfft_radix4_init_q15.c ****  *
  16:.//Libraries/CMSIS/DSP/Source/TransformFunctions/arm_cfft_radix4_init_q15.c ****  * Licensed under the Apache License, Version 2.0 (the License); you may
  17:.//Libraries/CMSIS/DSP/Source/TransformFunctions/arm_cfft_radix4_init_q15.c ****  * not use this file except in compliance with the License.
  18:.//Libraries/CMSIS/DSP/Source/TransformFunctions/arm_cfft_radix4_init_q15.c ****  * You may obtain a copy of the License at
  19:.//Libraries/CMSIS/DSP/Source/TransformFunctions/arm_cfft_radix4_init_q15.c ****  *
  20:.//Libraries/CMSIS/DSP/Source/TransformFunctions/arm_cfft_radix4_init_q15.c ****  * www.apache.org/licenses/LICENSE-2.0
  21:.//Libraries/CMSIS/DSP/Source/TransformFunctions/arm_cfft_radix4_init_q15.c ****  *
  22:.//Libraries/CMSIS/DSP/Source/TransformFunctions/arm_cfft_radix4_init_q15.c ****  * Unless required by applicable law or agreed to in writing, software
  23:.//Libraries/CMSIS/DSP/Source/TransformFunctions/arm_cfft_radix4_init_q15.c ****  * distributed under the License is distributed on an AS IS BASIS, WITHOUT
  24:.//Libraries/CMSIS/DSP/Source/TransformFunctions/arm_cfft_radix4_init_q15.c ****  * WARRANTIES OR CONDITIONS OF ANY KIND, either express or implied.
  25:.//Libraries/CMSIS/DSP/Source/TransformFunctions/arm_cfft_radix4_init_q15.c ****  * See the License for the specific language governing permissions and
  26:.//Libraries/CMSIS/DSP/Source/TransformFunctions/arm_cfft_radix4_init_q15.c ****  * limitations under the License.
  27:.//Libraries/CMSIS/DSP/Source/TransformFunctions/arm_cfft_radix4_init_q15.c ****  */
  28:.//Libraries/CMSIS/DSP/Source/TransformFunctions/arm_cfft_radix4_init_q15.c **** 
  29:.//Libraries/CMSIS/DSP/Source/TransformFunctions/arm_cfft_radix4_init_q15.c **** #include "arm_math.h"
ARM GAS  /var/folders/wl/rshn8xbx1dsfj1zgryf4g1240000gn/T//ccaOHMDq.s 			page 2


  30:.//Libraries/CMSIS/DSP/Source/TransformFunctions/arm_cfft_radix4_init_q15.c **** #include "arm_common_tables.h"
  31:.//Libraries/CMSIS/DSP/Source/TransformFunctions/arm_cfft_radix4_init_q15.c **** 
  32:.//Libraries/CMSIS/DSP/Source/TransformFunctions/arm_cfft_radix4_init_q15.c **** /**
  33:.//Libraries/CMSIS/DSP/Source/TransformFunctions/arm_cfft_radix4_init_q15.c ****   @ingroup groupTransforms
  34:.//Libraries/CMSIS/DSP/Source/TransformFunctions/arm_cfft_radix4_init_q15.c ****  */
  35:.//Libraries/CMSIS/DSP/Source/TransformFunctions/arm_cfft_radix4_init_q15.c **** 
  36:.//Libraries/CMSIS/DSP/Source/TransformFunctions/arm_cfft_radix4_init_q15.c **** 
  37:.//Libraries/CMSIS/DSP/Source/TransformFunctions/arm_cfft_radix4_init_q15.c **** /**
  38:.//Libraries/CMSIS/DSP/Source/TransformFunctions/arm_cfft_radix4_init_q15.c ****   @addtogroup ComplexFFT
  39:.//Libraries/CMSIS/DSP/Source/TransformFunctions/arm_cfft_radix4_init_q15.c ****   @{
  40:.//Libraries/CMSIS/DSP/Source/TransformFunctions/arm_cfft_radix4_init_q15.c ****  */
  41:.//Libraries/CMSIS/DSP/Source/TransformFunctions/arm_cfft_radix4_init_q15.c **** 
  42:.//Libraries/CMSIS/DSP/Source/TransformFunctions/arm_cfft_radix4_init_q15.c **** 
  43:.//Libraries/CMSIS/DSP/Source/TransformFunctions/arm_cfft_radix4_init_q15.c **** /**
  44:.//Libraries/CMSIS/DSP/Source/TransformFunctions/arm_cfft_radix4_init_q15.c ****   @brief Initialization function for the Q15 CFFT/CIFFT.
  45:.//Libraries/CMSIS/DSP/Source/TransformFunctions/arm_cfft_radix4_init_q15.c ****   @deprecated    Do not use this function. It has been superseded by \ref arm_cfft_q15 and will be 
  46:.//Libraries/CMSIS/DSP/Source/TransformFunctions/arm_cfft_radix4_init_q15.c ****   @param[in,out] S              points to an instance of the Q15 CFFT/CIFFT structure
  47:.//Libraries/CMSIS/DSP/Source/TransformFunctions/arm_cfft_radix4_init_q15.c ****   @param[in]     fftLen         length of the FFT
  48:.//Libraries/CMSIS/DSP/Source/TransformFunctions/arm_cfft_radix4_init_q15.c ****   @param[in]     ifftFlag       flag that selects transform direction
  49:.//Libraries/CMSIS/DSP/Source/TransformFunctions/arm_cfft_radix4_init_q15.c ****                    - value = 0: forward transform
  50:.//Libraries/CMSIS/DSP/Source/TransformFunctions/arm_cfft_radix4_init_q15.c ****                    - value = 1: inverse transform
  51:.//Libraries/CMSIS/DSP/Source/TransformFunctions/arm_cfft_radix4_init_q15.c ****   @param[in]     bitReverseFlag flag that enables / disables bit reversal of output
  52:.//Libraries/CMSIS/DSP/Source/TransformFunctions/arm_cfft_radix4_init_q15.c ****                    - value = 0: disables bit reversal of output
  53:.//Libraries/CMSIS/DSP/Source/TransformFunctions/arm_cfft_radix4_init_q15.c ****                    - value = 1: enables bit reversal of output
  54:.//Libraries/CMSIS/DSP/Source/TransformFunctions/arm_cfft_radix4_init_q15.c ****   @return        execution status
  55:.//Libraries/CMSIS/DSP/Source/TransformFunctions/arm_cfft_radix4_init_q15.c ****                    - \ref ARM_MATH_SUCCESS        : Operation successful
  56:.//Libraries/CMSIS/DSP/Source/TransformFunctions/arm_cfft_radix4_init_q15.c ****                    - \ref ARM_MATH_ARGUMENT_ERROR : <code>fftLen</code> is not a supported length
  57:.//Libraries/CMSIS/DSP/Source/TransformFunctions/arm_cfft_radix4_init_q15.c **** 
  58:.//Libraries/CMSIS/DSP/Source/TransformFunctions/arm_cfft_radix4_init_q15.c ****   @par           Details
  59:.//Libraries/CMSIS/DSP/Source/TransformFunctions/arm_cfft_radix4_init_q15.c ****                    The parameter <code>ifftFlag</code> controls whether a forward or inverse transf
  60:.//Libraries/CMSIS/DSP/Source/TransformFunctions/arm_cfft_radix4_init_q15.c ****                    Set(=1) ifftFlag for calculation of CIFFT otherwise  CFFT is calculated
  61:.//Libraries/CMSIS/DSP/Source/TransformFunctions/arm_cfft_radix4_init_q15.c ****   @par
  62:.//Libraries/CMSIS/DSP/Source/TransformFunctions/arm_cfft_radix4_init_q15.c ****                    The parameter <code>bitReverseFlag</code> controls whether output is in normal o
  63:.//Libraries/CMSIS/DSP/Source/TransformFunctions/arm_cfft_radix4_init_q15.c ****                    Set(=1) bitReverseFlag for output to be in normal order otherwise output is in b
  64:.//Libraries/CMSIS/DSP/Source/TransformFunctions/arm_cfft_radix4_init_q15.c ****   @par
  65:.//Libraries/CMSIS/DSP/Source/TransformFunctions/arm_cfft_radix4_init_q15.c ****                    The parameter <code>fftLen</code> Specifies length of CFFT/CIFFT process. Suppor
  66:.//Libraries/CMSIS/DSP/Source/TransformFunctions/arm_cfft_radix4_init_q15.c ****   @par
  67:.//Libraries/CMSIS/DSP/Source/TransformFunctions/arm_cfft_radix4_init_q15.c ****                    This Function also initializes Twiddle factor table pointer and Bit reversal tab
  68:.//Libraries/CMSIS/DSP/Source/TransformFunctions/arm_cfft_radix4_init_q15.c ****  */
  69:.//Libraries/CMSIS/DSP/Source/TransformFunctions/arm_cfft_radix4_init_q15.c **** 
  70:.//Libraries/CMSIS/DSP/Source/TransformFunctions/arm_cfft_radix4_init_q15.c **** arm_status arm_cfft_radix4_init_q15(
  71:.//Libraries/CMSIS/DSP/Source/TransformFunctions/arm_cfft_radix4_init_q15.c ****   arm_cfft_radix4_instance_q15 * S,
  72:.//Libraries/CMSIS/DSP/Source/TransformFunctions/arm_cfft_radix4_init_q15.c ****   uint16_t fftLen,
  73:.//Libraries/CMSIS/DSP/Source/TransformFunctions/arm_cfft_radix4_init_q15.c ****   uint8_t ifftFlag,
  74:.//Libraries/CMSIS/DSP/Source/TransformFunctions/arm_cfft_radix4_init_q15.c ****   uint8_t bitReverseFlag)
  75:.//Libraries/CMSIS/DSP/Source/TransformFunctions/arm_cfft_radix4_init_q15.c **** {
  30              		.loc 1 75 1 view -0
  31              		.cfi_startproc
  32              		@ args = 0, pretend = 0, frame = 0
  33              		@ frame_needed = 0, uses_anonymous_args = 0
  34              		@ link register save eliminated.
  76:.//Libraries/CMSIS/DSP/Source/TransformFunctions/arm_cfft_radix4_init_q15.c ****   /*  Initialise the default arm status */
  77:.//Libraries/CMSIS/DSP/Source/TransformFunctions/arm_cfft_radix4_init_q15.c ****   arm_status status = ARM_MATH_SUCCESS;
  35              		.loc 1 77 3 view .LVU1
  78:.//Libraries/CMSIS/DSP/Source/TransformFunctions/arm_cfft_radix4_init_q15.c ****   /*  Initialise the FFT length */
  79:.//Libraries/CMSIS/DSP/Source/TransformFunctions/arm_cfft_radix4_init_q15.c ****   S->fftLen = fftLen;
  36              		.loc 1 79 3 view .LVU2
ARM GAS  /var/folders/wl/rshn8xbx1dsfj1zgryf4g1240000gn/T//ccaOHMDq.s 			page 3


  75:.//Libraries/CMSIS/DSP/Source/TransformFunctions/arm_cfft_radix4_init_q15.c ****   /*  Initialise the default arm status */
  37              		.loc 1 75 1 is_stmt 0 view .LVU3
  38 0000 10B4     		push	{r4}
  39              	.LCFI0:
  40              		.cfi_def_cfa_offset 4
  41              		.cfi_offset 4, -4
  80:.//Libraries/CMSIS/DSP/Source/TransformFunctions/arm_cfft_radix4_init_q15.c ****   /*  Initialise the Twiddle coefficient pointer */
  81:.//Libraries/CMSIS/DSP/Source/TransformFunctions/arm_cfft_radix4_init_q15.c ****   S->pTwiddle = (q15_t *) twiddleCoef_4096_q15;
  82:.//Libraries/CMSIS/DSP/Source/TransformFunctions/arm_cfft_radix4_init_q15.c ****   /*  Initialise the Flag for selection of CFFT or CIFFT */
  83:.//Libraries/CMSIS/DSP/Source/TransformFunctions/arm_cfft_radix4_init_q15.c ****   S->ifftFlag = ifftFlag;
  84:.//Libraries/CMSIS/DSP/Source/TransformFunctions/arm_cfft_radix4_init_q15.c ****   /*  Initialise the Flag for calculation Bit reversal or not */
  85:.//Libraries/CMSIS/DSP/Source/TransformFunctions/arm_cfft_radix4_init_q15.c ****   S->bitReverseFlag = bitReverseFlag;
  86:.//Libraries/CMSIS/DSP/Source/TransformFunctions/arm_cfft_radix4_init_q15.c **** 
  87:.//Libraries/CMSIS/DSP/Source/TransformFunctions/arm_cfft_radix4_init_q15.c ****   /*  Initializations of structure parameters depending on the FFT length */
  88:.//Libraries/CMSIS/DSP/Source/TransformFunctions/arm_cfft_radix4_init_q15.c ****   switch (S->fftLen)
  42              		.loc 1 88 3 view .LVU4
  43 0002 B1F5807F 		cmp	r1, #256
  75:.//Libraries/CMSIS/DSP/Source/TransformFunctions/arm_cfft_radix4_init_q15.c ****   /*  Initialise the default arm status */
  44              		.loc 1 75 1 view .LVU5
  45 0006 0446     		mov	r4, r0
  81:.//Libraries/CMSIS/DSP/Source/TransformFunctions/arm_cfft_radix4_init_q15.c ****   /*  Initialise the Flag for selection of CFFT or CIFFT */
  46              		.loc 1 81 15 view .LVU6
  47 0008 2048     		ldr	r0, .L12
  48              	.LVL1:
  79:.//Libraries/CMSIS/DSP/Source/TransformFunctions/arm_cfft_radix4_init_q15.c ****   /*  Initialise the Twiddle coefficient pointer */
  49              		.loc 1 79 13 view .LVU7
  50 000a 2180     		strh	r1, [r4]	@ movhi
  81:.//Libraries/CMSIS/DSP/Source/TransformFunctions/arm_cfft_radix4_init_q15.c ****   /*  Initialise the Flag for selection of CFFT or CIFFT */
  51              		.loc 1 81 3 is_stmt 1 view .LVU8
  83:.//Libraries/CMSIS/DSP/Source/TransformFunctions/arm_cfft_radix4_init_q15.c ****   /*  Initialise the Flag for calculation Bit reversal or not */
  52              		.loc 1 83 15 is_stmt 0 view .LVU9
  53 000c A270     		strb	r2, [r4, #2]
  85:.//Libraries/CMSIS/DSP/Source/TransformFunctions/arm_cfft_radix4_init_q15.c **** 
  54              		.loc 1 85 21 view .LVU10
  55 000e E370     		strb	r3, [r4, #3]
  81:.//Libraries/CMSIS/DSP/Source/TransformFunctions/arm_cfft_radix4_init_q15.c ****   /*  Initialise the Flag for selection of CFFT or CIFFT */
  56              		.loc 1 81 15 view .LVU11
  57 0010 6060     		str	r0, [r4, #4]
  83:.//Libraries/CMSIS/DSP/Source/TransformFunctions/arm_cfft_radix4_init_q15.c ****   /*  Initialise the Flag for calculation Bit reversal or not */
  58              		.loc 1 83 3 is_stmt 1 view .LVU12
  85:.//Libraries/CMSIS/DSP/Source/TransformFunctions/arm_cfft_radix4_init_q15.c **** 
  59              		.loc 1 85 3 view .LVU13
  60              		.loc 1 88 3 view .LVU14
  61 0012 1CD0     		beq	.L2
  62 0014 0ED9     		bls	.L11
  63 0016 B1F5806F 		cmp	r1, #1024
  64 001a 21D0     		beq	.L7
  65 001c B1F5805F 		cmp	r1, #4096
  66 0020 30D1     		bne	.L8
  89:.//Libraries/CMSIS/DSP/Source/TransformFunctions/arm_cfft_radix4_init_q15.c ****   {
  90:.//Libraries/CMSIS/DSP/Source/TransformFunctions/arm_cfft_radix4_init_q15.c ****   case 4096U:
  91:.//Libraries/CMSIS/DSP/Source/TransformFunctions/arm_cfft_radix4_init_q15.c ****     /*  Initializations of structure parameters for 4096 point FFT */
  92:.//Libraries/CMSIS/DSP/Source/TransformFunctions/arm_cfft_radix4_init_q15.c **** 
  93:.//Libraries/CMSIS/DSP/Source/TransformFunctions/arm_cfft_radix4_init_q15.c ****     /*  Initialise the twiddle coef modifier value */
  94:.//Libraries/CMSIS/DSP/Source/TransformFunctions/arm_cfft_radix4_init_q15.c ****     S->twidCoefModifier = 1U;
  67              		.loc 1 94 5 view .LVU15
  95:.//Libraries/CMSIS/DSP/Source/TransformFunctions/arm_cfft_radix4_init_q15.c ****     /*  Initialise the bit reversal table modifier */
ARM GAS  /var/folders/wl/rshn8xbx1dsfj1zgryf4g1240000gn/T//ccaOHMDq.s 			page 4


  96:.//Libraries/CMSIS/DSP/Source/TransformFunctions/arm_cfft_radix4_init_q15.c ****     S->bitRevFactor = 1U;
  68              		.loc 1 96 5 view .LVU16
  94:.//Libraries/CMSIS/DSP/Source/TransformFunctions/arm_cfft_radix4_init_q15.c ****     /*  Initialise the bit reversal table modifier */
  69              		.loc 1 94 25 is_stmt 0 view .LVU17
  70 0022 4FF00112 		mov	r2, #65537
  71              	.LVL2:
  97:.//Libraries/CMSIS/DSP/Source/TransformFunctions/arm_cfft_radix4_init_q15.c ****     /*  Initialise the bit reversal table pointer */
  98:.//Libraries/CMSIS/DSP/Source/TransformFunctions/arm_cfft_radix4_init_q15.c ****     S->pBitRevTable = (uint16_t *) armBitRevTable;
  72              		.loc 1 98 21 view .LVU18
  73 0026 1A4B     		ldr	r3, .L12+4
  74              	.LVL3:
  77:.//Libraries/CMSIS/DSP/Source/TransformFunctions/arm_cfft_radix4_init_q15.c ****   /*  Initialise the FFT length */
  75              		.loc 1 77 14 view .LVU19
  76 0028 0020     		movs	r0, #0
  77              		.loc 1 98 21 view .LVU20
  78 002a C4E90232 		strd	r3, r2, [r4, #8]
  99:.//Libraries/CMSIS/DSP/Source/TransformFunctions/arm_cfft_radix4_init_q15.c **** 
 100:.//Libraries/CMSIS/DSP/Source/TransformFunctions/arm_cfft_radix4_init_q15.c ****     break;
  79              		.loc 1 100 5 is_stmt 1 view .LVU21
  80              	.L6:
  81              	.LVL4:
 101:.//Libraries/CMSIS/DSP/Source/TransformFunctions/arm_cfft_radix4_init_q15.c **** 
 102:.//Libraries/CMSIS/DSP/Source/TransformFunctions/arm_cfft_radix4_init_q15.c ****   case 1024U:
 103:.//Libraries/CMSIS/DSP/Source/TransformFunctions/arm_cfft_radix4_init_q15.c ****     /*  Initializations of structure parameters for 1024 point FFT */
 104:.//Libraries/CMSIS/DSP/Source/TransformFunctions/arm_cfft_radix4_init_q15.c ****     S->twidCoefModifier = 4U;
 105:.//Libraries/CMSIS/DSP/Source/TransformFunctions/arm_cfft_radix4_init_q15.c ****     S->bitRevFactor = 4U;
 106:.//Libraries/CMSIS/DSP/Source/TransformFunctions/arm_cfft_radix4_init_q15.c ****     S->pBitRevTable = (uint16_t *) & armBitRevTable[3];
 107:.//Libraries/CMSIS/DSP/Source/TransformFunctions/arm_cfft_radix4_init_q15.c **** 
 108:.//Libraries/CMSIS/DSP/Source/TransformFunctions/arm_cfft_radix4_init_q15.c ****     break;
 109:.//Libraries/CMSIS/DSP/Source/TransformFunctions/arm_cfft_radix4_init_q15.c **** 
 110:.//Libraries/CMSIS/DSP/Source/TransformFunctions/arm_cfft_radix4_init_q15.c ****   case 256U:
 111:.//Libraries/CMSIS/DSP/Source/TransformFunctions/arm_cfft_radix4_init_q15.c ****     /*  Initializations of structure parameters for 256 point FFT */
 112:.//Libraries/CMSIS/DSP/Source/TransformFunctions/arm_cfft_radix4_init_q15.c ****     S->twidCoefModifier = 16U;
 113:.//Libraries/CMSIS/DSP/Source/TransformFunctions/arm_cfft_radix4_init_q15.c ****     S->bitRevFactor = 16U;
 114:.//Libraries/CMSIS/DSP/Source/TransformFunctions/arm_cfft_radix4_init_q15.c ****     S->pBitRevTable = (uint16_t *) & armBitRevTable[15];
 115:.//Libraries/CMSIS/DSP/Source/TransformFunctions/arm_cfft_radix4_init_q15.c **** 
 116:.//Libraries/CMSIS/DSP/Source/TransformFunctions/arm_cfft_radix4_init_q15.c ****     break;
 117:.//Libraries/CMSIS/DSP/Source/TransformFunctions/arm_cfft_radix4_init_q15.c **** 
 118:.//Libraries/CMSIS/DSP/Source/TransformFunctions/arm_cfft_radix4_init_q15.c ****   case 64U:
 119:.//Libraries/CMSIS/DSP/Source/TransformFunctions/arm_cfft_radix4_init_q15.c ****     /*  Initializations of structure parameters for 64 point FFT */
 120:.//Libraries/CMSIS/DSP/Source/TransformFunctions/arm_cfft_radix4_init_q15.c ****     S->twidCoefModifier = 64U;
 121:.//Libraries/CMSIS/DSP/Source/TransformFunctions/arm_cfft_radix4_init_q15.c ****     S->bitRevFactor = 64U;
 122:.//Libraries/CMSIS/DSP/Source/TransformFunctions/arm_cfft_radix4_init_q15.c ****     S->pBitRevTable = (uint16_t *) & armBitRevTable[63];
 123:.//Libraries/CMSIS/DSP/Source/TransformFunctions/arm_cfft_radix4_init_q15.c **** 
 124:.//Libraries/CMSIS/DSP/Source/TransformFunctions/arm_cfft_radix4_init_q15.c ****     break;
 125:.//Libraries/CMSIS/DSP/Source/TransformFunctions/arm_cfft_radix4_init_q15.c **** 
 126:.//Libraries/CMSIS/DSP/Source/TransformFunctions/arm_cfft_radix4_init_q15.c ****   case 16U:
 127:.//Libraries/CMSIS/DSP/Source/TransformFunctions/arm_cfft_radix4_init_q15.c ****     /*  Initializations of structure parameters for 16 point FFT */
 128:.//Libraries/CMSIS/DSP/Source/TransformFunctions/arm_cfft_radix4_init_q15.c ****     S->twidCoefModifier = 256U;
 129:.//Libraries/CMSIS/DSP/Source/TransformFunctions/arm_cfft_radix4_init_q15.c ****     S->bitRevFactor = 256U;
 130:.//Libraries/CMSIS/DSP/Source/TransformFunctions/arm_cfft_radix4_init_q15.c ****     S->pBitRevTable = (uint16_t *) & armBitRevTable[255];
 131:.//Libraries/CMSIS/DSP/Source/TransformFunctions/arm_cfft_radix4_init_q15.c **** 
 132:.//Libraries/CMSIS/DSP/Source/TransformFunctions/arm_cfft_radix4_init_q15.c ****     break;
 133:.//Libraries/CMSIS/DSP/Source/TransformFunctions/arm_cfft_radix4_init_q15.c **** 
 134:.//Libraries/CMSIS/DSP/Source/TransformFunctions/arm_cfft_radix4_init_q15.c ****   default:
 135:.//Libraries/CMSIS/DSP/Source/TransformFunctions/arm_cfft_radix4_init_q15.c ****     /*  Reporting argument error if fftSize is not valid value */
 136:.//Libraries/CMSIS/DSP/Source/TransformFunctions/arm_cfft_radix4_init_q15.c ****     status = ARM_MATH_ARGUMENT_ERROR;
ARM GAS  /var/folders/wl/rshn8xbx1dsfj1zgryf4g1240000gn/T//ccaOHMDq.s 			page 5


 137:.//Libraries/CMSIS/DSP/Source/TransformFunctions/arm_cfft_radix4_init_q15.c ****     break;
 138:.//Libraries/CMSIS/DSP/Source/TransformFunctions/arm_cfft_radix4_init_q15.c ****   }
 139:.//Libraries/CMSIS/DSP/Source/TransformFunctions/arm_cfft_radix4_init_q15.c **** 
 140:.//Libraries/CMSIS/DSP/Source/TransformFunctions/arm_cfft_radix4_init_q15.c ****   return (status);
  82              		.loc 1 140 3 view .LVU22
 141:.//Libraries/CMSIS/DSP/Source/TransformFunctions/arm_cfft_radix4_init_q15.c **** }
  83              		.loc 1 141 1 is_stmt 0 view .LVU23
  84 002e 5DF8044B 		ldr	r4, [sp], #4
  85              	.LCFI1:
  86              		.cfi_remember_state
  87              		.cfi_restore 4
  88              		.cfi_def_cfa_offset 0
  89              	.LVL5:
  90              		.loc 1 141 1 view .LVU24
  91 0032 7047     		bx	lr
  92              	.LVL6:
  93              	.L11:
  94              	.LCFI2:
  95              		.cfi_restore_state
  88:.//Libraries/CMSIS/DSP/Source/TransformFunctions/arm_cfft_radix4_init_q15.c ****   {
  96              		.loc 1 88 3 view .LVU25
  97 0034 1029     		cmp	r1, #16
  98 0036 1CD0     		beq	.L4
  99 0038 4029     		cmp	r1, #64
 100 003a 23D1     		bne	.L8
 120:.//Libraries/CMSIS/DSP/Source/TransformFunctions/arm_cfft_radix4_init_q15.c ****     S->bitRevFactor = 64U;
 101              		.loc 1 120 5 is_stmt 1 view .LVU26
 121:.//Libraries/CMSIS/DSP/Source/TransformFunctions/arm_cfft_radix4_init_q15.c ****     S->pBitRevTable = (uint16_t *) & armBitRevTable[63];
 102              		.loc 1 121 5 view .LVU27
 120:.//Libraries/CMSIS/DSP/Source/TransformFunctions/arm_cfft_radix4_init_q15.c ****     S->bitRevFactor = 64U;
 103              		.loc 1 120 25 is_stmt 0 view .LVU28
 104 003c 4FF04012 		mov	r2, #4194368
 105              	.LVL7:
 122:.//Libraries/CMSIS/DSP/Source/TransformFunctions/arm_cfft_radix4_init_q15.c **** 
 106              		.loc 1 122 21 view .LVU29
 107 0040 144B     		ldr	r3, .L12+8
 108              	.LVL8:
  77:.//Libraries/CMSIS/DSP/Source/TransformFunctions/arm_cfft_radix4_init_q15.c ****   /*  Initialise the FFT length */
 109              		.loc 1 77 14 view .LVU30
 110 0042 0020     		movs	r0, #0
 122:.//Libraries/CMSIS/DSP/Source/TransformFunctions/arm_cfft_radix4_init_q15.c **** 
 111              		.loc 1 122 21 view .LVU31
 112 0044 C4E90232 		strd	r3, r2, [r4, #8]
 124:.//Libraries/CMSIS/DSP/Source/TransformFunctions/arm_cfft_radix4_init_q15.c **** 
 113              		.loc 1 124 5 is_stmt 1 view .LVU32
 114              	.LVL9:
 140:.//Libraries/CMSIS/DSP/Source/TransformFunctions/arm_cfft_radix4_init_q15.c **** }
 115              		.loc 1 140 3 view .LVU33
 116              		.loc 1 141 1 is_stmt 0 view .LVU34
 117 0048 5DF8044B 		ldr	r4, [sp], #4
 118              	.LCFI3:
 119              		.cfi_remember_state
 120              		.cfi_restore 4
 121              		.cfi_def_cfa_offset 0
 122              	.LVL10:
 123              		.loc 1 141 1 view .LVU35
 124 004c 7047     		bx	lr
ARM GAS  /var/folders/wl/rshn8xbx1dsfj1zgryf4g1240000gn/T//ccaOHMDq.s 			page 6


 125              	.LVL11:
 126              	.L2:
 127              	.LCFI4:
 128              		.cfi_restore_state
 112:.//Libraries/CMSIS/DSP/Source/TransformFunctions/arm_cfft_radix4_init_q15.c ****     S->bitRevFactor = 16U;
 129              		.loc 1 112 5 is_stmt 1 view .LVU36
 113:.//Libraries/CMSIS/DSP/Source/TransformFunctions/arm_cfft_radix4_init_q15.c ****     S->pBitRevTable = (uint16_t *) & armBitRevTable[15];
 130              		.loc 1 113 5 view .LVU37
 112:.//Libraries/CMSIS/DSP/Source/TransformFunctions/arm_cfft_radix4_init_q15.c ****     S->bitRevFactor = 16U;
 131              		.loc 1 112 25 is_stmt 0 view .LVU38
 132 004e 4FF01012 		mov	r2, #1048592
 133              	.LVL12:
 114:.//Libraries/CMSIS/DSP/Source/TransformFunctions/arm_cfft_radix4_init_q15.c **** 
 134              		.loc 1 114 21 view .LVU39
 135 0052 114B     		ldr	r3, .L12+12
 136              	.LVL13:
  77:.//Libraries/CMSIS/DSP/Source/TransformFunctions/arm_cfft_radix4_init_q15.c ****   /*  Initialise the FFT length */
 137              		.loc 1 77 14 view .LVU40
 138 0054 0020     		movs	r0, #0
 114:.//Libraries/CMSIS/DSP/Source/TransformFunctions/arm_cfft_radix4_init_q15.c **** 
 139              		.loc 1 114 21 view .LVU41
 140 0056 C4E90232 		strd	r3, r2, [r4, #8]
 116:.//Libraries/CMSIS/DSP/Source/TransformFunctions/arm_cfft_radix4_init_q15.c **** 
 141              		.loc 1 116 5 is_stmt 1 view .LVU42
 142              	.LVL14:
 140:.//Libraries/CMSIS/DSP/Source/TransformFunctions/arm_cfft_radix4_init_q15.c **** }
 143              		.loc 1 140 3 view .LVU43
 144              		.loc 1 141 1 is_stmt 0 view .LVU44
 145 005a 5DF8044B 		ldr	r4, [sp], #4
 146              	.LCFI5:
 147              		.cfi_remember_state
 148              		.cfi_restore 4
 149              		.cfi_def_cfa_offset 0
 150              	.LVL15:
 151              		.loc 1 141 1 view .LVU45
 152 005e 7047     		bx	lr
 153              	.LVL16:
 154              	.L7:
 155              	.LCFI6:
 156              		.cfi_restore_state
 104:.//Libraries/CMSIS/DSP/Source/TransformFunctions/arm_cfft_radix4_init_q15.c ****     S->bitRevFactor = 4U;
 157              		.loc 1 104 5 is_stmt 1 view .LVU46
 105:.//Libraries/CMSIS/DSP/Source/TransformFunctions/arm_cfft_radix4_init_q15.c ****     S->pBitRevTable = (uint16_t *) & armBitRevTable[3];
 158              		.loc 1 105 5 view .LVU47
 104:.//Libraries/CMSIS/DSP/Source/TransformFunctions/arm_cfft_radix4_init_q15.c ****     S->bitRevFactor = 4U;
 159              		.loc 1 104 25 is_stmt 0 view .LVU48
 160 0060 4FF00412 		mov	r2, #262148
 161              	.LVL17:
 106:.//Libraries/CMSIS/DSP/Source/TransformFunctions/arm_cfft_radix4_init_q15.c **** 
 162              		.loc 1 106 21 view .LVU49
 163 0064 0D4B     		ldr	r3, .L12+16
 164              	.LVL18:
  77:.//Libraries/CMSIS/DSP/Source/TransformFunctions/arm_cfft_radix4_init_q15.c ****   /*  Initialise the FFT length */
 165              		.loc 1 77 14 view .LVU50
 166 0066 0020     		movs	r0, #0
 106:.//Libraries/CMSIS/DSP/Source/TransformFunctions/arm_cfft_radix4_init_q15.c **** 
 167              		.loc 1 106 21 view .LVU51
ARM GAS  /var/folders/wl/rshn8xbx1dsfj1zgryf4g1240000gn/T//ccaOHMDq.s 			page 7


 168 0068 C4E90232 		strd	r3, r2, [r4, #8]
 108:.//Libraries/CMSIS/DSP/Source/TransformFunctions/arm_cfft_radix4_init_q15.c **** 
 169              		.loc 1 108 5 is_stmt 1 view .LVU52
 170              	.LVL19:
 140:.//Libraries/CMSIS/DSP/Source/TransformFunctions/arm_cfft_radix4_init_q15.c **** }
 171              		.loc 1 140 3 view .LVU53
 172              		.loc 1 141 1 is_stmt 0 view .LVU54
 173 006c 5DF8044B 		ldr	r4, [sp], #4
 174              	.LCFI7:
 175              		.cfi_remember_state
 176              		.cfi_restore 4
 177              		.cfi_def_cfa_offset 0
 178              	.LVL20:
 179              		.loc 1 141 1 view .LVU55
 180 0070 7047     		bx	lr
 181              	.LVL21:
 182              	.L4:
 183              	.LCFI8:
 184              		.cfi_restore_state
 128:.//Libraries/CMSIS/DSP/Source/TransformFunctions/arm_cfft_radix4_init_q15.c ****     S->bitRevFactor = 256U;
 185              		.loc 1 128 5 is_stmt 1 view .LVU56
 129:.//Libraries/CMSIS/DSP/Source/TransformFunctions/arm_cfft_radix4_init_q15.c ****     S->pBitRevTable = (uint16_t *) & armBitRevTable[255];
 186              		.loc 1 129 5 view .LVU57
 128:.//Libraries/CMSIS/DSP/Source/TransformFunctions/arm_cfft_radix4_init_q15.c ****     S->bitRevFactor = 256U;
 187              		.loc 1 128 25 is_stmt 0 view .LVU58
 188 0072 4FF00122 		mov	r2, #16777472
 189              	.LVL22:
 130:.//Libraries/CMSIS/DSP/Source/TransformFunctions/arm_cfft_radix4_init_q15.c **** 
 190              		.loc 1 130 21 view .LVU59
 191 0076 0A4B     		ldr	r3, .L12+20
 192              	.LVL23:
  77:.//Libraries/CMSIS/DSP/Source/TransformFunctions/arm_cfft_radix4_init_q15.c ****   /*  Initialise the FFT length */
 193              		.loc 1 77 14 view .LVU60
 194 0078 0020     		movs	r0, #0
 130:.//Libraries/CMSIS/DSP/Source/TransformFunctions/arm_cfft_radix4_init_q15.c **** 
 195              		.loc 1 130 21 view .LVU61
 196 007a C4E90232 		strd	r3, r2, [r4, #8]
 132:.//Libraries/CMSIS/DSP/Source/TransformFunctions/arm_cfft_radix4_init_q15.c **** 
 197              		.loc 1 132 5 is_stmt 1 view .LVU62
 198              	.LVL24:
 140:.//Libraries/CMSIS/DSP/Source/TransformFunctions/arm_cfft_radix4_init_q15.c **** }
 199              		.loc 1 140 3 view .LVU63
 200              		.loc 1 141 1 is_stmt 0 view .LVU64
 201 007e 5DF8044B 		ldr	r4, [sp], #4
 202              	.LCFI9:
 203              		.cfi_remember_state
 204              		.cfi_restore 4
 205              		.cfi_def_cfa_offset 0
 206              	.LVL25:
 207              		.loc 1 141 1 view .LVU65
 208 0082 7047     		bx	lr
 209              	.LVL26:
 210              	.L8:
 211              	.LCFI10:
 212              		.cfi_restore_state
  88:.//Libraries/CMSIS/DSP/Source/TransformFunctions/arm_cfft_radix4_init_q15.c ****   {
 213              		.loc 1 88 3 view .LVU66
ARM GAS  /var/folders/wl/rshn8xbx1dsfj1zgryf4g1240000gn/T//ccaOHMDq.s 			page 8


 214 0084 4FF0FF30 		mov	r0, #-1
 215 0088 D1E7     		b	.L6
 216              	.L13:
 217 008a 00BF     		.align	2
 218              	.L12:
 219 008c 00000000 		.word	twiddleCoef_4096_q15
 220 0090 00000000 		.word	armBitRevTable
 221 0094 7E000000 		.word	armBitRevTable+126
 222 0098 1E000000 		.word	armBitRevTable+30
 223 009c 06000000 		.word	armBitRevTable+6
 224 00a0 FE010000 		.word	armBitRevTable+510
 225              		.cfi_endproc
 226              	.LFE145:
 228              		.text
 229              	.Letext0:
 230              		.file 2 "/opt/homebrew/Cellar/arm-none-eabi-gcc/9-2019-q4-major/gcc/arm-none-eabi/include/machine/
 231              		.file 3 "/opt/homebrew/Cellar/arm-none-eabi-gcc/9-2019-q4-major/gcc/arm-none-eabi/include/sys/_std
 232              		.file 4 "/opt/homebrew/Cellar/arm-none-eabi-gcc/9-2019-q4-major/gcc/arm-none-eabi/include/sys/lock
 233              		.file 5 "/opt/homebrew/Cellar/arm-none-eabi-gcc/9-2019-q4-major/gcc/arm-none-eabi/include/sys/_typ
 234              		.file 6 "/opt/homebrew/Cellar/arm-none-eabi-gcc/9-2019-q4-major/gcc/lib/gcc/arm-none-eabi/9.2.1/in
 235              		.file 7 "/opt/homebrew/Cellar/arm-none-eabi-gcc/9-2019-q4-major/gcc/arm-none-eabi/include/sys/reen
 236              		.file 8 "/opt/homebrew/Cellar/arm-none-eabi-gcc/9-2019-q4-major/gcc/arm-none-eabi/include/math.h"
 237              		.file 9 ".//Libraries/CMSIS/DSP/Include/arm_math.h"
 238              		.file 10 ".//Libraries/CMSIS/DSP/Include/arm_common_tables.h"
ARM GAS  /var/folders/wl/rshn8xbx1dsfj1zgryf4g1240000gn/T//ccaOHMDq.s 			page 9

