ARM GAS  /var/folders/wl/rshn8xbx1dsfj1zgryf4g1240000gn/T//cc9X8JTk.s 			page 1


   1              		.cpu cortex-m7
   2              		.eabi_attribute 28, 1
   3              		.eabi_attribute 20, 1
   4              		.eabi_attribute 21, 1
   5              		.eabi_attribute 23, 3
   6              		.eabi_attribute 24, 1
   7              		.eabi_attribute 25, 1
   8              		.eabi_attribute 26, 1
   9              		.eabi_attribute 30, 2
  10              		.eabi_attribute 34, 1
  11              		.eabi_attribute 18, 4
  12              		.file	"arm_biquad_cascade_stereo_df2T_f32.c"
  13              		.text
  14              	.Ltext0:
  15              		.cfi_sections	.debug_frame
  16              		.section	.text.arm_biquad_cascade_stereo_df2T_f32,"ax",%progbits
  17              		.align	1
  18              		.p2align 2,,3
  19              		.global	arm_biquad_cascade_stereo_df2T_f32
  20              		.arch armv7e-m
  21              		.syntax unified
  22              		.thumb
  23              		.thumb_func
  24              		.fpu fpv5-d16
  26              	arm_biquad_cascade_stereo_df2T_f32:
  27              	.LVL0:
  28              	.LFB145:
  29              		.file 1 ".//Libraries/CMSIS/DSP/Source/FilteringFunctions/arm_biquad_cascade_stereo_df2T_f32.c"
   1:.//Libraries/CMSIS/DSP/Source/FilteringFunctions/arm_biquad_cascade_stereo_df2T_f32.c **** /* ----------------------------------------------------------------------
   2:.//Libraries/CMSIS/DSP/Source/FilteringFunctions/arm_biquad_cascade_stereo_df2T_f32.c ****  * Project:      CMSIS DSP Library
   3:.//Libraries/CMSIS/DSP/Source/FilteringFunctions/arm_biquad_cascade_stereo_df2T_f32.c ****  * Title:        arm_biquad_cascade_stereo_df2T_f32.c
   4:.//Libraries/CMSIS/DSP/Source/FilteringFunctions/arm_biquad_cascade_stereo_df2T_f32.c ****  * Description:  Processing function for floating-point transposed direct form II Biquad cascade fi
   5:.//Libraries/CMSIS/DSP/Source/FilteringFunctions/arm_biquad_cascade_stereo_df2T_f32.c ****  *
   6:.//Libraries/CMSIS/DSP/Source/FilteringFunctions/arm_biquad_cascade_stereo_df2T_f32.c ****  * $Date:        18. March 2019
   7:.//Libraries/CMSIS/DSP/Source/FilteringFunctions/arm_biquad_cascade_stereo_df2T_f32.c ****  * $Revision:    V1.6.0
   8:.//Libraries/CMSIS/DSP/Source/FilteringFunctions/arm_biquad_cascade_stereo_df2T_f32.c ****  *
   9:.//Libraries/CMSIS/DSP/Source/FilteringFunctions/arm_biquad_cascade_stereo_df2T_f32.c ****  * Target Processor: Cortex-M cores
  10:.//Libraries/CMSIS/DSP/Source/FilteringFunctions/arm_biquad_cascade_stereo_df2T_f32.c ****  * -------------------------------------------------------------------- */
  11:.//Libraries/CMSIS/DSP/Source/FilteringFunctions/arm_biquad_cascade_stereo_df2T_f32.c **** /*
  12:.//Libraries/CMSIS/DSP/Source/FilteringFunctions/arm_biquad_cascade_stereo_df2T_f32.c ****  * Copyright (C) 2010-2019 ARM Limited or its affiliates. All rights reserved.
  13:.//Libraries/CMSIS/DSP/Source/FilteringFunctions/arm_biquad_cascade_stereo_df2T_f32.c ****  *
  14:.//Libraries/CMSIS/DSP/Source/FilteringFunctions/arm_biquad_cascade_stereo_df2T_f32.c ****  * SPDX-License-Identifier: Apache-2.0
  15:.//Libraries/CMSIS/DSP/Source/FilteringFunctions/arm_biquad_cascade_stereo_df2T_f32.c ****  *
  16:.//Libraries/CMSIS/DSP/Source/FilteringFunctions/arm_biquad_cascade_stereo_df2T_f32.c ****  * Licensed under the Apache License, Version 2.0 (the License); you may
  17:.//Libraries/CMSIS/DSP/Source/FilteringFunctions/arm_biquad_cascade_stereo_df2T_f32.c ****  * not use this file except in compliance with the License.
  18:.//Libraries/CMSIS/DSP/Source/FilteringFunctions/arm_biquad_cascade_stereo_df2T_f32.c ****  * You may obtain a copy of the License at
  19:.//Libraries/CMSIS/DSP/Source/FilteringFunctions/arm_biquad_cascade_stereo_df2T_f32.c ****  *
  20:.//Libraries/CMSIS/DSP/Source/FilteringFunctions/arm_biquad_cascade_stereo_df2T_f32.c ****  * www.apache.org/licenses/LICENSE-2.0
  21:.//Libraries/CMSIS/DSP/Source/FilteringFunctions/arm_biquad_cascade_stereo_df2T_f32.c ****  *
  22:.//Libraries/CMSIS/DSP/Source/FilteringFunctions/arm_biquad_cascade_stereo_df2T_f32.c ****  * Unless required by applicable law or agreed to in writing, software
  23:.//Libraries/CMSIS/DSP/Source/FilteringFunctions/arm_biquad_cascade_stereo_df2T_f32.c ****  * distributed under the License is distributed on an AS IS BASIS, WITHOUT
  24:.//Libraries/CMSIS/DSP/Source/FilteringFunctions/arm_biquad_cascade_stereo_df2T_f32.c ****  * WARRANTIES OR CONDITIONS OF ANY KIND, either express or implied.
  25:.//Libraries/CMSIS/DSP/Source/FilteringFunctions/arm_biquad_cascade_stereo_df2T_f32.c ****  * See the License for the specific language governing permissions and
  26:.//Libraries/CMSIS/DSP/Source/FilteringFunctions/arm_biquad_cascade_stereo_df2T_f32.c ****  * limitations under the License.
  27:.//Libraries/CMSIS/DSP/Source/FilteringFunctions/arm_biquad_cascade_stereo_df2T_f32.c ****  */
  28:.//Libraries/CMSIS/DSP/Source/FilteringFunctions/arm_biquad_cascade_stereo_df2T_f32.c **** 
  29:.//Libraries/CMSIS/DSP/Source/FilteringFunctions/arm_biquad_cascade_stereo_df2T_f32.c **** #include "arm_math.h"
ARM GAS  /var/folders/wl/rshn8xbx1dsfj1zgryf4g1240000gn/T//cc9X8JTk.s 			page 2


  30:.//Libraries/CMSIS/DSP/Source/FilteringFunctions/arm_biquad_cascade_stereo_df2T_f32.c **** 
  31:.//Libraries/CMSIS/DSP/Source/FilteringFunctions/arm_biquad_cascade_stereo_df2T_f32.c **** /**
  32:.//Libraries/CMSIS/DSP/Source/FilteringFunctions/arm_biquad_cascade_stereo_df2T_f32.c ****   @ingroup groupFilters
  33:.//Libraries/CMSIS/DSP/Source/FilteringFunctions/arm_biquad_cascade_stereo_df2T_f32.c **** */
  34:.//Libraries/CMSIS/DSP/Source/FilteringFunctions/arm_biquad_cascade_stereo_df2T_f32.c **** 
  35:.//Libraries/CMSIS/DSP/Source/FilteringFunctions/arm_biquad_cascade_stereo_df2T_f32.c **** /**
  36:.//Libraries/CMSIS/DSP/Source/FilteringFunctions/arm_biquad_cascade_stereo_df2T_f32.c ****   @addtogroup BiquadCascadeDF2T
  37:.//Libraries/CMSIS/DSP/Source/FilteringFunctions/arm_biquad_cascade_stereo_df2T_f32.c ****   @{
  38:.//Libraries/CMSIS/DSP/Source/FilteringFunctions/arm_biquad_cascade_stereo_df2T_f32.c ****  */
  39:.//Libraries/CMSIS/DSP/Source/FilteringFunctions/arm_biquad_cascade_stereo_df2T_f32.c **** 
  40:.//Libraries/CMSIS/DSP/Source/FilteringFunctions/arm_biquad_cascade_stereo_df2T_f32.c **** /**
  41:.//Libraries/CMSIS/DSP/Source/FilteringFunctions/arm_biquad_cascade_stereo_df2T_f32.c ****   @brief         Processing function for the floating-point transposed direct form II Biquad cascad
  42:.//Libraries/CMSIS/DSP/Source/FilteringFunctions/arm_biquad_cascade_stereo_df2T_f32.c ****   @param[in]     S         points to an instance of the filter data structure
  43:.//Libraries/CMSIS/DSP/Source/FilteringFunctions/arm_biquad_cascade_stereo_df2T_f32.c ****   @param[in]     pSrc      points to the block of input data
  44:.//Libraries/CMSIS/DSP/Source/FilteringFunctions/arm_biquad_cascade_stereo_df2T_f32.c ****   @param[out]    pDst      points to the block of output data
  45:.//Libraries/CMSIS/DSP/Source/FilteringFunctions/arm_biquad_cascade_stereo_df2T_f32.c ****   @param[in]     blockSize number of samples to process
  46:.//Libraries/CMSIS/DSP/Source/FilteringFunctions/arm_biquad_cascade_stereo_df2T_f32.c ****   @return        none
  47:.//Libraries/CMSIS/DSP/Source/FilteringFunctions/arm_biquad_cascade_stereo_df2T_f32.c ****  */
  48:.//Libraries/CMSIS/DSP/Source/FilteringFunctions/arm_biquad_cascade_stereo_df2T_f32.c **** 
  49:.//Libraries/CMSIS/DSP/Source/FilteringFunctions/arm_biquad_cascade_stereo_df2T_f32.c **** LOW_OPTIMIZATION_ENTER
  50:.//Libraries/CMSIS/DSP/Source/FilteringFunctions/arm_biquad_cascade_stereo_df2T_f32.c **** void arm_biquad_cascade_stereo_df2T_f32(
  51:.//Libraries/CMSIS/DSP/Source/FilteringFunctions/arm_biquad_cascade_stereo_df2T_f32.c ****   const arm_biquad_cascade_stereo_df2T_instance_f32 * S,
  52:.//Libraries/CMSIS/DSP/Source/FilteringFunctions/arm_biquad_cascade_stereo_df2T_f32.c ****   const float32_t * pSrc,
  53:.//Libraries/CMSIS/DSP/Source/FilteringFunctions/arm_biquad_cascade_stereo_df2T_f32.c ****         float32_t * pDst,
  54:.//Libraries/CMSIS/DSP/Source/FilteringFunctions/arm_biquad_cascade_stereo_df2T_f32.c ****         uint32_t blockSize)
  55:.//Libraries/CMSIS/DSP/Source/FilteringFunctions/arm_biquad_cascade_stereo_df2T_f32.c **** {
  30              		.loc 1 55 1 view -0
  31              		.cfi_startproc
  32              		@ args = 0, pretend = 0, frame = 0
  33              		@ frame_needed = 0, uses_anonymous_args = 0
  34              		.loc 1 55 1 is_stmt 0 view .LVU1
  35 0000 F0B5     		push	{r4, r5, r6, r7, lr}
  36              	.LCFI0:
  37              		.cfi_def_cfa_offset 20
  38              		.cfi_offset 4, -20
  39              		.cfi_offset 5, -16
  40              		.cfi_offset 6, -12
  41              		.cfi_offset 7, -8
  42              		.cfi_offset 14, -4
  43 0002 0446     		mov	r4, r0
  44 0004 0846     		mov	r0, r1
  45              	.LVL1:
  56:.//Libraries/CMSIS/DSP/Source/FilteringFunctions/arm_biquad_cascade_stereo_df2T_f32.c ****   const float32_t *pIn = pSrc;                         /* Source pointer */
  46              		.loc 1 56 3 is_stmt 1 view .LVU2
  57:.//Libraries/CMSIS/DSP/Source/FilteringFunctions/arm_biquad_cascade_stereo_df2T_f32.c ****         float32_t *pOut = pDst;                        /* Destination pointer */
  47              		.loc 1 57 9 view .LVU3
  58:.//Libraries/CMSIS/DSP/Source/FilteringFunctions/arm_biquad_cascade_stereo_df2T_f32.c ****         float32_t *pState = S->pState;                 /* State pointer */
  48              		.loc 1 58 9 view .LVU4
  59:.//Libraries/CMSIS/DSP/Source/FilteringFunctions/arm_biquad_cascade_stereo_df2T_f32.c ****   const float32_t *pCoeffs = S->pCoeffs;               /* Coefficient pointer */
  49              		.loc 1 59 3 view .LVU5
  60:.//Libraries/CMSIS/DSP/Source/FilteringFunctions/arm_biquad_cascade_stereo_df2T_f32.c ****         float32_t acc1a, acc1b;                        /* Accumulator */
  50              		.loc 1 60 9 view .LVU6
  61:.//Libraries/CMSIS/DSP/Source/FilteringFunctions/arm_biquad_cascade_stereo_df2T_f32.c ****         float32_t b0, b1, b2, a1, a2;                  /* Filter coefficients */
  51              		.loc 1 61 9 view .LVU7
  62:.//Libraries/CMSIS/DSP/Source/FilteringFunctions/arm_biquad_cascade_stereo_df2T_f32.c ****         float32_t Xn1a, Xn1b;                          /* Temporary input */
  52              		.loc 1 62 9 view .LVU8
  63:.//Libraries/CMSIS/DSP/Source/FilteringFunctions/arm_biquad_cascade_stereo_df2T_f32.c ****         float32_t d1a, d2a, d1b, d2b;                  /* State variables */
ARM GAS  /var/folders/wl/rshn8xbx1dsfj1zgryf4g1240000gn/T//cc9X8JTk.s 			page 3


  53              		.loc 1 63 9 view .LVU9
  64:.//Libraries/CMSIS/DSP/Source/FilteringFunctions/arm_biquad_cascade_stereo_df2T_f32.c ****         uint32_t sample, stage = S->numStages;         /* Loop counters */
  54              		.loc 1 64 9 view .LVU10
  55              		.loc 1 64 26 is_stmt 0 view .LVU11
  56 0006 94F800C0 		ldrb	ip, [r4]	@ zero_extendqisi2
  57              	.LVL2:
  58              		.loc 1 64 26 view .LVU12
  59 000a A668     		ldr	r6, [r4, #8]
  60 000c 1436     		adds	r6, r6, #20
  61 000e 6568     		ldr	r5, [r4, #4]
  62 0010 1035     		adds	r5, r5, #16
  65:.//Libraries/CMSIS/DSP/Source/FilteringFunctions/arm_biquad_cascade_stereo_df2T_f32.c **** 
  66:.//Libraries/CMSIS/DSP/Source/FilteringFunctions/arm_biquad_cascade_stereo_df2T_f32.c ****     do
  67:.//Libraries/CMSIS/DSP/Source/FilteringFunctions/arm_biquad_cascade_stereo_df2T_f32.c ****     {
  68:.//Libraries/CMSIS/DSP/Source/FilteringFunctions/arm_biquad_cascade_stereo_df2T_f32.c ****         /* Reading the coefficients */
  69:.//Libraries/CMSIS/DSP/Source/FilteringFunctions/arm_biquad_cascade_stereo_df2T_f32.c ****         b0 = pCoeffs[0];
  70:.//Libraries/CMSIS/DSP/Source/FilteringFunctions/arm_biquad_cascade_stereo_df2T_f32.c ****         b1 = pCoeffs[1];
  71:.//Libraries/CMSIS/DSP/Source/FilteringFunctions/arm_biquad_cascade_stereo_df2T_f32.c ****         b2 = pCoeffs[2];
  72:.//Libraries/CMSIS/DSP/Source/FilteringFunctions/arm_biquad_cascade_stereo_df2T_f32.c ****         a1 = pCoeffs[3];
  73:.//Libraries/CMSIS/DSP/Source/FilteringFunctions/arm_biquad_cascade_stereo_df2T_f32.c ****         a2 = pCoeffs[4];
  74:.//Libraries/CMSIS/DSP/Source/FilteringFunctions/arm_biquad_cascade_stereo_df2T_f32.c **** 
  75:.//Libraries/CMSIS/DSP/Source/FilteringFunctions/arm_biquad_cascade_stereo_df2T_f32.c ****         /* Reading the state values */
  76:.//Libraries/CMSIS/DSP/Source/FilteringFunctions/arm_biquad_cascade_stereo_df2T_f32.c ****         d1a = pState[0];
  77:.//Libraries/CMSIS/DSP/Source/FilteringFunctions/arm_biquad_cascade_stereo_df2T_f32.c ****         d2a = pState[1];
  78:.//Libraries/CMSIS/DSP/Source/FilteringFunctions/arm_biquad_cascade_stereo_df2T_f32.c ****         d1b = pState[2];
  79:.//Libraries/CMSIS/DSP/Source/FilteringFunctions/arm_biquad_cascade_stereo_df2T_f32.c ****         d2b = pState[3];
  80:.//Libraries/CMSIS/DSP/Source/FilteringFunctions/arm_biquad_cascade_stereo_df2T_f32.c **** 
  81:.//Libraries/CMSIS/DSP/Source/FilteringFunctions/arm_biquad_cascade_stereo_df2T_f32.c ****         pCoeffs += 5U;
  82:.//Libraries/CMSIS/DSP/Source/FilteringFunctions/arm_biquad_cascade_stereo_df2T_f32.c **** 
  83:.//Libraries/CMSIS/DSP/Source/FilteringFunctions/arm_biquad_cascade_stereo_df2T_f32.c **** #if defined (ARM_MATH_LOOPUNROLL)
  84:.//Libraries/CMSIS/DSP/Source/FilteringFunctions/arm_biquad_cascade_stereo_df2T_f32.c **** 
  85:.//Libraries/CMSIS/DSP/Source/FilteringFunctions/arm_biquad_cascade_stereo_df2T_f32.c ****     /* Loop unrolling: Compute 8 outputs at a time */
  86:.//Libraries/CMSIS/DSP/Source/FilteringFunctions/arm_biquad_cascade_stereo_df2T_f32.c ****         sample = blockSize >> 3U;
  87:.//Libraries/CMSIS/DSP/Source/FilteringFunctions/arm_biquad_cascade_stereo_df2T_f32.c **** 
  88:.//Libraries/CMSIS/DSP/Source/FilteringFunctions/arm_biquad_cascade_stereo_df2T_f32.c ****         while (sample > 0U) {
  89:.//Libraries/CMSIS/DSP/Source/FilteringFunctions/arm_biquad_cascade_stereo_df2T_f32.c ****           /* y[n] = b0 * x[n] + d1 */
  90:.//Libraries/CMSIS/DSP/Source/FilteringFunctions/arm_biquad_cascade_stereo_df2T_f32.c ****           /* d1 = b1 * x[n] + a1 * y[n] + d2 */
  91:.//Libraries/CMSIS/DSP/Source/FilteringFunctions/arm_biquad_cascade_stereo_df2T_f32.c ****           /* d2 = b2 * x[n] + a2 * y[n] */
  92:.//Libraries/CMSIS/DSP/Source/FilteringFunctions/arm_biquad_cascade_stereo_df2T_f32.c **** 
  93:.//Libraries/CMSIS/DSP/Source/FilteringFunctions/arm_biquad_cascade_stereo_df2T_f32.c **** /*  1 */
  94:.//Libraries/CMSIS/DSP/Source/FilteringFunctions/arm_biquad_cascade_stereo_df2T_f32.c ****           Xn1a = *pIn++; /* Channel a */
  95:.//Libraries/CMSIS/DSP/Source/FilteringFunctions/arm_biquad_cascade_stereo_df2T_f32.c ****           Xn1b = *pIn++; /* Channel b */
  96:.//Libraries/CMSIS/DSP/Source/FilteringFunctions/arm_biquad_cascade_stereo_df2T_f32.c **** 
  97:.//Libraries/CMSIS/DSP/Source/FilteringFunctions/arm_biquad_cascade_stereo_df2T_f32.c ****           acc1a = (b0 * Xn1a) + d1a;
  98:.//Libraries/CMSIS/DSP/Source/FilteringFunctions/arm_biquad_cascade_stereo_df2T_f32.c ****           acc1b = (b0 * Xn1b) + d1b;
  99:.//Libraries/CMSIS/DSP/Source/FilteringFunctions/arm_biquad_cascade_stereo_df2T_f32.c **** 
 100:.//Libraries/CMSIS/DSP/Source/FilteringFunctions/arm_biquad_cascade_stereo_df2T_f32.c ****           *pOut++ = acc1a;
 101:.//Libraries/CMSIS/DSP/Source/FilteringFunctions/arm_biquad_cascade_stereo_df2T_f32.c ****           *pOut++ = acc1b;
 102:.//Libraries/CMSIS/DSP/Source/FilteringFunctions/arm_biquad_cascade_stereo_df2T_f32.c **** 
 103:.//Libraries/CMSIS/DSP/Source/FilteringFunctions/arm_biquad_cascade_stereo_df2T_f32.c ****           d1a = ((b1 * Xn1a) + (a1 * acc1a)) + d2a;
 104:.//Libraries/CMSIS/DSP/Source/FilteringFunctions/arm_biquad_cascade_stereo_df2T_f32.c ****           d1b = ((b1 * Xn1b) + (a1 * acc1b)) + d2b;
 105:.//Libraries/CMSIS/DSP/Source/FilteringFunctions/arm_biquad_cascade_stereo_df2T_f32.c **** 
 106:.//Libraries/CMSIS/DSP/Source/FilteringFunctions/arm_biquad_cascade_stereo_df2T_f32.c ****           d2a = (b2 * Xn1a) + (a2 * acc1a);
 107:.//Libraries/CMSIS/DSP/Source/FilteringFunctions/arm_biquad_cascade_stereo_df2T_f32.c ****           d2b = (b2 * Xn1b) + (a2 * acc1b);
 108:.//Libraries/CMSIS/DSP/Source/FilteringFunctions/arm_biquad_cascade_stereo_df2T_f32.c **** 
 109:.//Libraries/CMSIS/DSP/Source/FilteringFunctions/arm_biquad_cascade_stereo_df2T_f32.c **** /*  2 */
 110:.//Libraries/CMSIS/DSP/Source/FilteringFunctions/arm_biquad_cascade_stereo_df2T_f32.c ****           Xn1a = *pIn++; /* Channel a */
ARM GAS  /var/folders/wl/rshn8xbx1dsfj1zgryf4g1240000gn/T//cc9X8JTk.s 			page 4


 111:.//Libraries/CMSIS/DSP/Source/FilteringFunctions/arm_biquad_cascade_stereo_df2T_f32.c ****           Xn1b = *pIn++; /* Channel b */
 112:.//Libraries/CMSIS/DSP/Source/FilteringFunctions/arm_biquad_cascade_stereo_df2T_f32.c **** 
 113:.//Libraries/CMSIS/DSP/Source/FilteringFunctions/arm_biquad_cascade_stereo_df2T_f32.c ****           acc1a = (b0 * Xn1a) + d1a;
 114:.//Libraries/CMSIS/DSP/Source/FilteringFunctions/arm_biquad_cascade_stereo_df2T_f32.c ****           acc1b = (b0 * Xn1b) + d1b;
 115:.//Libraries/CMSIS/DSP/Source/FilteringFunctions/arm_biquad_cascade_stereo_df2T_f32.c **** 
 116:.//Libraries/CMSIS/DSP/Source/FilteringFunctions/arm_biquad_cascade_stereo_df2T_f32.c ****           *pOut++ = acc1a;
 117:.//Libraries/CMSIS/DSP/Source/FilteringFunctions/arm_biquad_cascade_stereo_df2T_f32.c ****           *pOut++ = acc1b;
 118:.//Libraries/CMSIS/DSP/Source/FilteringFunctions/arm_biquad_cascade_stereo_df2T_f32.c **** 
 119:.//Libraries/CMSIS/DSP/Source/FilteringFunctions/arm_biquad_cascade_stereo_df2T_f32.c ****           d1a = ((b1 * Xn1a) + (a1 * acc1a)) + d2a;
 120:.//Libraries/CMSIS/DSP/Source/FilteringFunctions/arm_biquad_cascade_stereo_df2T_f32.c ****           d1b = ((b1 * Xn1b) + (a1 * acc1b)) + d2b;
 121:.//Libraries/CMSIS/DSP/Source/FilteringFunctions/arm_biquad_cascade_stereo_df2T_f32.c **** 
 122:.//Libraries/CMSIS/DSP/Source/FilteringFunctions/arm_biquad_cascade_stereo_df2T_f32.c ****           d2a = (b2 * Xn1a) + (a2 * acc1a);
 123:.//Libraries/CMSIS/DSP/Source/FilteringFunctions/arm_biquad_cascade_stereo_df2T_f32.c ****           d2b = (b2 * Xn1b) + (a2 * acc1b);
 124:.//Libraries/CMSIS/DSP/Source/FilteringFunctions/arm_biquad_cascade_stereo_df2T_f32.c **** 
 125:.//Libraries/CMSIS/DSP/Source/FilteringFunctions/arm_biquad_cascade_stereo_df2T_f32.c **** /*  3 */
 126:.//Libraries/CMSIS/DSP/Source/FilteringFunctions/arm_biquad_cascade_stereo_df2T_f32.c ****           Xn1a = *pIn++; /* Channel a */
 127:.//Libraries/CMSIS/DSP/Source/FilteringFunctions/arm_biquad_cascade_stereo_df2T_f32.c ****           Xn1b = *pIn++; /* Channel b */
 128:.//Libraries/CMSIS/DSP/Source/FilteringFunctions/arm_biquad_cascade_stereo_df2T_f32.c **** 
 129:.//Libraries/CMSIS/DSP/Source/FilteringFunctions/arm_biquad_cascade_stereo_df2T_f32.c ****           acc1a = (b0 * Xn1a) + d1a;
 130:.//Libraries/CMSIS/DSP/Source/FilteringFunctions/arm_biquad_cascade_stereo_df2T_f32.c ****           acc1b = (b0 * Xn1b) + d1b;
 131:.//Libraries/CMSIS/DSP/Source/FilteringFunctions/arm_biquad_cascade_stereo_df2T_f32.c **** 
 132:.//Libraries/CMSIS/DSP/Source/FilteringFunctions/arm_biquad_cascade_stereo_df2T_f32.c ****           *pOut++ = acc1a;
 133:.//Libraries/CMSIS/DSP/Source/FilteringFunctions/arm_biquad_cascade_stereo_df2T_f32.c ****           *pOut++ = acc1b;
 134:.//Libraries/CMSIS/DSP/Source/FilteringFunctions/arm_biquad_cascade_stereo_df2T_f32.c **** 
 135:.//Libraries/CMSIS/DSP/Source/FilteringFunctions/arm_biquad_cascade_stereo_df2T_f32.c ****           d1a = ((b1 * Xn1a) + (a1 * acc1a)) + d2a;
 136:.//Libraries/CMSIS/DSP/Source/FilteringFunctions/arm_biquad_cascade_stereo_df2T_f32.c ****           d1b = ((b1 * Xn1b) + (a1 * acc1b)) + d2b;
 137:.//Libraries/CMSIS/DSP/Source/FilteringFunctions/arm_biquad_cascade_stereo_df2T_f32.c **** 
 138:.//Libraries/CMSIS/DSP/Source/FilteringFunctions/arm_biquad_cascade_stereo_df2T_f32.c ****           d2a = (b2 * Xn1a) + (a2 * acc1a);
 139:.//Libraries/CMSIS/DSP/Source/FilteringFunctions/arm_biquad_cascade_stereo_df2T_f32.c ****           d2b = (b2 * Xn1b) + (a2 * acc1b);
 140:.//Libraries/CMSIS/DSP/Source/FilteringFunctions/arm_biquad_cascade_stereo_df2T_f32.c **** 
 141:.//Libraries/CMSIS/DSP/Source/FilteringFunctions/arm_biquad_cascade_stereo_df2T_f32.c **** /*  4 */
 142:.//Libraries/CMSIS/DSP/Source/FilteringFunctions/arm_biquad_cascade_stereo_df2T_f32.c ****           Xn1a = *pIn++; /* Channel a */
 143:.//Libraries/CMSIS/DSP/Source/FilteringFunctions/arm_biquad_cascade_stereo_df2T_f32.c ****           Xn1b = *pIn++; /* Channel b */
 144:.//Libraries/CMSIS/DSP/Source/FilteringFunctions/arm_biquad_cascade_stereo_df2T_f32.c **** 
 145:.//Libraries/CMSIS/DSP/Source/FilteringFunctions/arm_biquad_cascade_stereo_df2T_f32.c ****           acc1a = (b0 * Xn1a) + d1a;
 146:.//Libraries/CMSIS/DSP/Source/FilteringFunctions/arm_biquad_cascade_stereo_df2T_f32.c ****           acc1b = (b0 * Xn1b) + d1b;
 147:.//Libraries/CMSIS/DSP/Source/FilteringFunctions/arm_biquad_cascade_stereo_df2T_f32.c **** 
 148:.//Libraries/CMSIS/DSP/Source/FilteringFunctions/arm_biquad_cascade_stereo_df2T_f32.c ****           *pOut++ = acc1a;
 149:.//Libraries/CMSIS/DSP/Source/FilteringFunctions/arm_biquad_cascade_stereo_df2T_f32.c ****           *pOut++ = acc1b;
 150:.//Libraries/CMSIS/DSP/Source/FilteringFunctions/arm_biquad_cascade_stereo_df2T_f32.c **** 
 151:.//Libraries/CMSIS/DSP/Source/FilteringFunctions/arm_biquad_cascade_stereo_df2T_f32.c ****           d1a = ((b1 * Xn1a) + (a1 * acc1a)) + d2a;
 152:.//Libraries/CMSIS/DSP/Source/FilteringFunctions/arm_biquad_cascade_stereo_df2T_f32.c ****           d1b = ((b1 * Xn1b) + (a1 * acc1b)) + d2b;
 153:.//Libraries/CMSIS/DSP/Source/FilteringFunctions/arm_biquad_cascade_stereo_df2T_f32.c **** 
 154:.//Libraries/CMSIS/DSP/Source/FilteringFunctions/arm_biquad_cascade_stereo_df2T_f32.c ****           d2a = (b2 * Xn1a) + (a2 * acc1a);
 155:.//Libraries/CMSIS/DSP/Source/FilteringFunctions/arm_biquad_cascade_stereo_df2T_f32.c ****           d2b = (b2 * Xn1b) + (a2 * acc1b);
 156:.//Libraries/CMSIS/DSP/Source/FilteringFunctions/arm_biquad_cascade_stereo_df2T_f32.c **** 
 157:.//Libraries/CMSIS/DSP/Source/FilteringFunctions/arm_biquad_cascade_stereo_df2T_f32.c **** /*  5 */
 158:.//Libraries/CMSIS/DSP/Source/FilteringFunctions/arm_biquad_cascade_stereo_df2T_f32.c ****           Xn1a = *pIn++; /* Channel a */
 159:.//Libraries/CMSIS/DSP/Source/FilteringFunctions/arm_biquad_cascade_stereo_df2T_f32.c ****           Xn1b = *pIn++; /* Channel b */
 160:.//Libraries/CMSIS/DSP/Source/FilteringFunctions/arm_biquad_cascade_stereo_df2T_f32.c **** 
 161:.//Libraries/CMSIS/DSP/Source/FilteringFunctions/arm_biquad_cascade_stereo_df2T_f32.c ****           acc1a = (b0 * Xn1a) + d1a;
 162:.//Libraries/CMSIS/DSP/Source/FilteringFunctions/arm_biquad_cascade_stereo_df2T_f32.c ****           acc1b = (b0 * Xn1b) + d1b;
 163:.//Libraries/CMSIS/DSP/Source/FilteringFunctions/arm_biquad_cascade_stereo_df2T_f32.c **** 
 164:.//Libraries/CMSIS/DSP/Source/FilteringFunctions/arm_biquad_cascade_stereo_df2T_f32.c ****           *pOut++ = acc1a;
 165:.//Libraries/CMSIS/DSP/Source/FilteringFunctions/arm_biquad_cascade_stereo_df2T_f32.c ****           *pOut++ = acc1b;
 166:.//Libraries/CMSIS/DSP/Source/FilteringFunctions/arm_biquad_cascade_stereo_df2T_f32.c **** 
 167:.//Libraries/CMSIS/DSP/Source/FilteringFunctions/arm_biquad_cascade_stereo_df2T_f32.c ****           d1a = ((b1 * Xn1a) + (a1 * acc1a)) + d2a;
ARM GAS  /var/folders/wl/rshn8xbx1dsfj1zgryf4g1240000gn/T//cc9X8JTk.s 			page 5


 168:.//Libraries/CMSIS/DSP/Source/FilteringFunctions/arm_biquad_cascade_stereo_df2T_f32.c ****           d1b = ((b1 * Xn1b) + (a1 * acc1b)) + d2b;
 169:.//Libraries/CMSIS/DSP/Source/FilteringFunctions/arm_biquad_cascade_stereo_df2T_f32.c **** 
 170:.//Libraries/CMSIS/DSP/Source/FilteringFunctions/arm_biquad_cascade_stereo_df2T_f32.c ****           d2a = (b2 * Xn1a) + (a2 * acc1a);
 171:.//Libraries/CMSIS/DSP/Source/FilteringFunctions/arm_biquad_cascade_stereo_df2T_f32.c ****           d2b = (b2 * Xn1b) + (a2 * acc1b);
 172:.//Libraries/CMSIS/DSP/Source/FilteringFunctions/arm_biquad_cascade_stereo_df2T_f32.c **** 
 173:.//Libraries/CMSIS/DSP/Source/FilteringFunctions/arm_biquad_cascade_stereo_df2T_f32.c **** /*  6 */
 174:.//Libraries/CMSIS/DSP/Source/FilteringFunctions/arm_biquad_cascade_stereo_df2T_f32.c ****           Xn1a = *pIn++; /* Channel a */
 175:.//Libraries/CMSIS/DSP/Source/FilteringFunctions/arm_biquad_cascade_stereo_df2T_f32.c ****           Xn1b = *pIn++; /* Channel b */
 176:.//Libraries/CMSIS/DSP/Source/FilteringFunctions/arm_biquad_cascade_stereo_df2T_f32.c **** 
 177:.//Libraries/CMSIS/DSP/Source/FilteringFunctions/arm_biquad_cascade_stereo_df2T_f32.c ****           acc1a = (b0 * Xn1a) + d1a;
 178:.//Libraries/CMSIS/DSP/Source/FilteringFunctions/arm_biquad_cascade_stereo_df2T_f32.c ****           acc1b = (b0 * Xn1b) + d1b;
 179:.//Libraries/CMSIS/DSP/Source/FilteringFunctions/arm_biquad_cascade_stereo_df2T_f32.c **** 
 180:.//Libraries/CMSIS/DSP/Source/FilteringFunctions/arm_biquad_cascade_stereo_df2T_f32.c ****           *pOut++ = acc1a;
 181:.//Libraries/CMSIS/DSP/Source/FilteringFunctions/arm_biquad_cascade_stereo_df2T_f32.c ****           *pOut++ = acc1b;
 182:.//Libraries/CMSIS/DSP/Source/FilteringFunctions/arm_biquad_cascade_stereo_df2T_f32.c **** 
 183:.//Libraries/CMSIS/DSP/Source/FilteringFunctions/arm_biquad_cascade_stereo_df2T_f32.c ****           d1a = ((b1 * Xn1a) + (a1 * acc1a)) + d2a;
 184:.//Libraries/CMSIS/DSP/Source/FilteringFunctions/arm_biquad_cascade_stereo_df2T_f32.c ****           d1b = ((b1 * Xn1b) + (a1 * acc1b)) + d2b;
 185:.//Libraries/CMSIS/DSP/Source/FilteringFunctions/arm_biquad_cascade_stereo_df2T_f32.c **** 
 186:.//Libraries/CMSIS/DSP/Source/FilteringFunctions/arm_biquad_cascade_stereo_df2T_f32.c ****           d2a = (b2 * Xn1a) + (a2 * acc1a);
 187:.//Libraries/CMSIS/DSP/Source/FilteringFunctions/arm_biquad_cascade_stereo_df2T_f32.c ****           d2b = (b2 * Xn1b) + (a2 * acc1b);
 188:.//Libraries/CMSIS/DSP/Source/FilteringFunctions/arm_biquad_cascade_stereo_df2T_f32.c **** 
 189:.//Libraries/CMSIS/DSP/Source/FilteringFunctions/arm_biquad_cascade_stereo_df2T_f32.c **** /*  7 */
 190:.//Libraries/CMSIS/DSP/Source/FilteringFunctions/arm_biquad_cascade_stereo_df2T_f32.c ****           Xn1a = *pIn++; /* Channel a */
 191:.//Libraries/CMSIS/DSP/Source/FilteringFunctions/arm_biquad_cascade_stereo_df2T_f32.c ****           Xn1b = *pIn++; /* Channel b */
 192:.//Libraries/CMSIS/DSP/Source/FilteringFunctions/arm_biquad_cascade_stereo_df2T_f32.c **** 
 193:.//Libraries/CMSIS/DSP/Source/FilteringFunctions/arm_biquad_cascade_stereo_df2T_f32.c ****           acc1a = (b0 * Xn1a) + d1a;
 194:.//Libraries/CMSIS/DSP/Source/FilteringFunctions/arm_biquad_cascade_stereo_df2T_f32.c ****           acc1b = (b0 * Xn1b) + d1b;
 195:.//Libraries/CMSIS/DSP/Source/FilteringFunctions/arm_biquad_cascade_stereo_df2T_f32.c **** 
 196:.//Libraries/CMSIS/DSP/Source/FilteringFunctions/arm_biquad_cascade_stereo_df2T_f32.c ****           *pOut++ = acc1a;
 197:.//Libraries/CMSIS/DSP/Source/FilteringFunctions/arm_biquad_cascade_stereo_df2T_f32.c ****           *pOut++ = acc1b;
 198:.//Libraries/CMSIS/DSP/Source/FilteringFunctions/arm_biquad_cascade_stereo_df2T_f32.c **** 
 199:.//Libraries/CMSIS/DSP/Source/FilteringFunctions/arm_biquad_cascade_stereo_df2T_f32.c ****           d1a = ((b1 * Xn1a) + (a1 * acc1a)) + d2a;
 200:.//Libraries/CMSIS/DSP/Source/FilteringFunctions/arm_biquad_cascade_stereo_df2T_f32.c ****           d1b = ((b1 * Xn1b) + (a1 * acc1b)) + d2b;
 201:.//Libraries/CMSIS/DSP/Source/FilteringFunctions/arm_biquad_cascade_stereo_df2T_f32.c **** 
 202:.//Libraries/CMSIS/DSP/Source/FilteringFunctions/arm_biquad_cascade_stereo_df2T_f32.c ****           d2a = (b2 * Xn1a) + (a2 * acc1a);
 203:.//Libraries/CMSIS/DSP/Source/FilteringFunctions/arm_biquad_cascade_stereo_df2T_f32.c ****           d2b = (b2 * Xn1b) + (a2 * acc1b);
 204:.//Libraries/CMSIS/DSP/Source/FilteringFunctions/arm_biquad_cascade_stereo_df2T_f32.c **** 
 205:.//Libraries/CMSIS/DSP/Source/FilteringFunctions/arm_biquad_cascade_stereo_df2T_f32.c **** /*  8 */
 206:.//Libraries/CMSIS/DSP/Source/FilteringFunctions/arm_biquad_cascade_stereo_df2T_f32.c ****           Xn1a = *pIn++; /* Channel a */
 207:.//Libraries/CMSIS/DSP/Source/FilteringFunctions/arm_biquad_cascade_stereo_df2T_f32.c ****           Xn1b = *pIn++; /* Channel b */
 208:.//Libraries/CMSIS/DSP/Source/FilteringFunctions/arm_biquad_cascade_stereo_df2T_f32.c **** 
 209:.//Libraries/CMSIS/DSP/Source/FilteringFunctions/arm_biquad_cascade_stereo_df2T_f32.c ****           acc1a = (b0 * Xn1a) + d1a;
 210:.//Libraries/CMSIS/DSP/Source/FilteringFunctions/arm_biquad_cascade_stereo_df2T_f32.c ****           acc1b = (b0 * Xn1b) + d1b;
 211:.//Libraries/CMSIS/DSP/Source/FilteringFunctions/arm_biquad_cascade_stereo_df2T_f32.c **** 
 212:.//Libraries/CMSIS/DSP/Source/FilteringFunctions/arm_biquad_cascade_stereo_df2T_f32.c ****           *pOut++ = acc1a;
 213:.//Libraries/CMSIS/DSP/Source/FilteringFunctions/arm_biquad_cascade_stereo_df2T_f32.c ****           *pOut++ = acc1b;
 214:.//Libraries/CMSIS/DSP/Source/FilteringFunctions/arm_biquad_cascade_stereo_df2T_f32.c **** 
 215:.//Libraries/CMSIS/DSP/Source/FilteringFunctions/arm_biquad_cascade_stereo_df2T_f32.c ****           d1a = ((b1 * Xn1a) + (a1 * acc1a)) + d2a;
 216:.//Libraries/CMSIS/DSP/Source/FilteringFunctions/arm_biquad_cascade_stereo_df2T_f32.c ****           d1b = ((b1 * Xn1b) + (a1 * acc1b)) + d2b;
 217:.//Libraries/CMSIS/DSP/Source/FilteringFunctions/arm_biquad_cascade_stereo_df2T_f32.c **** 
 218:.//Libraries/CMSIS/DSP/Source/FilteringFunctions/arm_biquad_cascade_stereo_df2T_f32.c ****           d2a = (b2 * Xn1a) + (a2 * acc1a);
 219:.//Libraries/CMSIS/DSP/Source/FilteringFunctions/arm_biquad_cascade_stereo_df2T_f32.c ****           d2b = (b2 * Xn1b) + (a2 * acc1b);
 220:.//Libraries/CMSIS/DSP/Source/FilteringFunctions/arm_biquad_cascade_stereo_df2T_f32.c **** 
 221:.//Libraries/CMSIS/DSP/Source/FilteringFunctions/arm_biquad_cascade_stereo_df2T_f32.c ****           /* decrement loop counter */
 222:.//Libraries/CMSIS/DSP/Source/FilteringFunctions/arm_biquad_cascade_stereo_df2T_f32.c ****           sample--;
 223:.//Libraries/CMSIS/DSP/Source/FilteringFunctions/arm_biquad_cascade_stereo_df2T_f32.c ****         }
 224:.//Libraries/CMSIS/DSP/Source/FilteringFunctions/arm_biquad_cascade_stereo_df2T_f32.c **** 
ARM GAS  /var/folders/wl/rshn8xbx1dsfj1zgryf4g1240000gn/T//cc9X8JTk.s 			page 6


 225:.//Libraries/CMSIS/DSP/Source/FilteringFunctions/arm_biquad_cascade_stereo_df2T_f32.c ****         /* Loop unrolling: Compute remaining outputs */
 226:.//Libraries/CMSIS/DSP/Source/FilteringFunctions/arm_biquad_cascade_stereo_df2T_f32.c ****         sample = blockSize & 0x7U;
 227:.//Libraries/CMSIS/DSP/Source/FilteringFunctions/arm_biquad_cascade_stereo_df2T_f32.c **** 
 228:.//Libraries/CMSIS/DSP/Source/FilteringFunctions/arm_biquad_cascade_stereo_df2T_f32.c **** #else
 229:.//Libraries/CMSIS/DSP/Source/FilteringFunctions/arm_biquad_cascade_stereo_df2T_f32.c **** 
 230:.//Libraries/CMSIS/DSP/Source/FilteringFunctions/arm_biquad_cascade_stereo_df2T_f32.c ****         /* Initialize blkCnt with number of samples */
 231:.//Libraries/CMSIS/DSP/Source/FilteringFunctions/arm_biquad_cascade_stereo_df2T_f32.c ****         sample = blockSize;
 232:.//Libraries/CMSIS/DSP/Source/FilteringFunctions/arm_biquad_cascade_stereo_df2T_f32.c **** 
 233:.//Libraries/CMSIS/DSP/Source/FilteringFunctions/arm_biquad_cascade_stereo_df2T_f32.c **** #endif /* #if defined (ARM_MATH_LOOPUNROLL) */
 234:.//Libraries/CMSIS/DSP/Source/FilteringFunctions/arm_biquad_cascade_stereo_df2T_f32.c **** 
 235:.//Libraries/CMSIS/DSP/Source/FilteringFunctions/arm_biquad_cascade_stereo_df2T_f32.c ****         while (sample > 0U) {
 236:.//Libraries/CMSIS/DSP/Source/FilteringFunctions/arm_biquad_cascade_stereo_df2T_f32.c ****           /* Read the input */
 237:.//Libraries/CMSIS/DSP/Source/FilteringFunctions/arm_biquad_cascade_stereo_df2T_f32.c ****           Xn1a = *pIn++; /* Channel a */
 238:.//Libraries/CMSIS/DSP/Source/FilteringFunctions/arm_biquad_cascade_stereo_df2T_f32.c ****           Xn1b = *pIn++; /* Channel b */
 239:.//Libraries/CMSIS/DSP/Source/FilteringFunctions/arm_biquad_cascade_stereo_df2T_f32.c **** 
 240:.//Libraries/CMSIS/DSP/Source/FilteringFunctions/arm_biquad_cascade_stereo_df2T_f32.c ****           /* y[n] = b0 * x[n] + d1 */
 241:.//Libraries/CMSIS/DSP/Source/FilteringFunctions/arm_biquad_cascade_stereo_df2T_f32.c ****           acc1a = (b0 * Xn1a) + d1a;
 242:.//Libraries/CMSIS/DSP/Source/FilteringFunctions/arm_biquad_cascade_stereo_df2T_f32.c ****           acc1b = (b0 * Xn1b) + d1b;
 243:.//Libraries/CMSIS/DSP/Source/FilteringFunctions/arm_biquad_cascade_stereo_df2T_f32.c **** 
 244:.//Libraries/CMSIS/DSP/Source/FilteringFunctions/arm_biquad_cascade_stereo_df2T_f32.c ****           /* Store the result in the accumulator in the destination buffer. */
 245:.//Libraries/CMSIS/DSP/Source/FilteringFunctions/arm_biquad_cascade_stereo_df2T_f32.c ****           *pOut++ = acc1a;
 246:.//Libraries/CMSIS/DSP/Source/FilteringFunctions/arm_biquad_cascade_stereo_df2T_f32.c ****           *pOut++ = acc1b;
 247:.//Libraries/CMSIS/DSP/Source/FilteringFunctions/arm_biquad_cascade_stereo_df2T_f32.c **** 
 248:.//Libraries/CMSIS/DSP/Source/FilteringFunctions/arm_biquad_cascade_stereo_df2T_f32.c ****           /* Every time after the output is computed state should be updated. */
 249:.//Libraries/CMSIS/DSP/Source/FilteringFunctions/arm_biquad_cascade_stereo_df2T_f32.c ****           /* d1 = b1 * x[n] + a1 * y[n] + d2 */
 250:.//Libraries/CMSIS/DSP/Source/FilteringFunctions/arm_biquad_cascade_stereo_df2T_f32.c ****           d1a = ((b1 * Xn1a) + (a1 * acc1a)) + d2a;
 251:.//Libraries/CMSIS/DSP/Source/FilteringFunctions/arm_biquad_cascade_stereo_df2T_f32.c ****           d1b = ((b1 * Xn1b) + (a1 * acc1b)) + d2b;
 252:.//Libraries/CMSIS/DSP/Source/FilteringFunctions/arm_biquad_cascade_stereo_df2T_f32.c **** 
 253:.//Libraries/CMSIS/DSP/Source/FilteringFunctions/arm_biquad_cascade_stereo_df2T_f32.c ****           /* d2 = b2 * x[n] + a2 * y[n] */
 254:.//Libraries/CMSIS/DSP/Source/FilteringFunctions/arm_biquad_cascade_stereo_df2T_f32.c ****           d2a = (b2 * Xn1a) + (a2 * acc1a);
 255:.//Libraries/CMSIS/DSP/Source/FilteringFunctions/arm_biquad_cascade_stereo_df2T_f32.c ****           d2b = (b2 * Xn1b) + (a2 * acc1b);
 256:.//Libraries/CMSIS/DSP/Source/FilteringFunctions/arm_biquad_cascade_stereo_df2T_f32.c **** 
 257:.//Libraries/CMSIS/DSP/Source/FilteringFunctions/arm_biquad_cascade_stereo_df2T_f32.c ****           /* decrement loop counter */
 258:.//Libraries/CMSIS/DSP/Source/FilteringFunctions/arm_biquad_cascade_stereo_df2T_f32.c ****           sample--;
 259:.//Libraries/CMSIS/DSP/Source/FilteringFunctions/arm_biquad_cascade_stereo_df2T_f32.c ****         }
 260:.//Libraries/CMSIS/DSP/Source/FilteringFunctions/arm_biquad_cascade_stereo_df2T_f32.c **** 
 261:.//Libraries/CMSIS/DSP/Source/FilteringFunctions/arm_biquad_cascade_stereo_df2T_f32.c ****         /* Store the updated state variables back into the state array */
 262:.//Libraries/CMSIS/DSP/Source/FilteringFunctions/arm_biquad_cascade_stereo_df2T_f32.c ****         pState[0] = d1a;
 263:.//Libraries/CMSIS/DSP/Source/FilteringFunctions/arm_biquad_cascade_stereo_df2T_f32.c ****         pState[1] = d2a;
 264:.//Libraries/CMSIS/DSP/Source/FilteringFunctions/arm_biquad_cascade_stereo_df2T_f32.c **** 
 265:.//Libraries/CMSIS/DSP/Source/FilteringFunctions/arm_biquad_cascade_stereo_df2T_f32.c ****         pState[2] = d1b;
 266:.//Libraries/CMSIS/DSP/Source/FilteringFunctions/arm_biquad_cascade_stereo_df2T_f32.c ****         pState[3] = d2b;
 267:.//Libraries/CMSIS/DSP/Source/FilteringFunctions/arm_biquad_cascade_stereo_df2T_f32.c **** 
 268:.//Libraries/CMSIS/DSP/Source/FilteringFunctions/arm_biquad_cascade_stereo_df2T_f32.c ****         pState += 4U;
 269:.//Libraries/CMSIS/DSP/Source/FilteringFunctions/arm_biquad_cascade_stereo_df2T_f32.c **** 
 270:.//Libraries/CMSIS/DSP/Source/FilteringFunctions/arm_biquad_cascade_stereo_df2T_f32.c ****         /* The current stage input is given as the output to the next stage */
 271:.//Libraries/CMSIS/DSP/Source/FilteringFunctions/arm_biquad_cascade_stereo_df2T_f32.c ****         pIn = pDst;
  63              		.loc 1 271 13 view .LVU13
  64 0012 9646     		mov	lr, r2
  65              	.LVL3:
  66              	.L4:
  66:.//Libraries/CMSIS/DSP/Source/FilteringFunctions/arm_biquad_cascade_stereo_df2T_f32.c ****     {
  67              		.loc 1 66 5 is_stmt 1 view .LVU14
  69:.//Libraries/CMSIS/DSP/Source/FilteringFunctions/arm_biquad_cascade_stereo_df2T_f32.c ****         b1 = pCoeffs[1];
  68              		.loc 1 69 9 view .LVU15
  69:.//Libraries/CMSIS/DSP/Source/FilteringFunctions/arm_biquad_cascade_stereo_df2T_f32.c ****         b1 = pCoeffs[1];
  69              		.loc 1 69 12 is_stmt 0 view .LVU16
ARM GAS  /var/folders/wl/rshn8xbx1dsfj1zgryf4g1240000gn/T//cc9X8JTk.s 			page 7


  70 0014 56ED053A 		vldr.32	s7, [r6, #-20]
  71              	.LVL4:
  70:.//Libraries/CMSIS/DSP/Source/FilteringFunctions/arm_biquad_cascade_stereo_df2T_f32.c ****         b2 = pCoeffs[2];
  72              		.loc 1 70 9 is_stmt 1 view .LVU17
  70:.//Libraries/CMSIS/DSP/Source/FilteringFunctions/arm_biquad_cascade_stereo_df2T_f32.c ****         b2 = pCoeffs[2];
  73              		.loc 1 70 12 is_stmt 0 view .LVU18
  74 0018 16ED043A 		vldr.32	s6, [r6, #-16]
  75              	.LVL5:
  71:.//Libraries/CMSIS/DSP/Source/FilteringFunctions/arm_biquad_cascade_stereo_df2T_f32.c ****         a1 = pCoeffs[3];
  76              		.loc 1 71 9 is_stmt 1 view .LVU19
  71:.//Libraries/CMSIS/DSP/Source/FilteringFunctions/arm_biquad_cascade_stereo_df2T_f32.c ****         a1 = pCoeffs[3];
  77              		.loc 1 71 12 is_stmt 0 view .LVU20
  78 001c 56ED032A 		vldr.32	s5, [r6, #-12]
  79              	.LVL6:
  72:.//Libraries/CMSIS/DSP/Source/FilteringFunctions/arm_biquad_cascade_stereo_df2T_f32.c ****         a2 = pCoeffs[4];
  80              		.loc 1 72 9 is_stmt 1 view .LVU21
  72:.//Libraries/CMSIS/DSP/Source/FilteringFunctions/arm_biquad_cascade_stereo_df2T_f32.c ****         a2 = pCoeffs[4];
  81              		.loc 1 72 12 is_stmt 0 view .LVU22
  82 0020 16ED022A 		vldr.32	s4, [r6, #-8]
  83              	.LVL7:
  73:.//Libraries/CMSIS/DSP/Source/FilteringFunctions/arm_biquad_cascade_stereo_df2T_f32.c **** 
  84              		.loc 1 73 9 is_stmt 1 view .LVU23
  73:.//Libraries/CMSIS/DSP/Source/FilteringFunctions/arm_biquad_cascade_stereo_df2T_f32.c **** 
  85              		.loc 1 73 12 is_stmt 0 view .LVU24
  86 0024 56ED011A 		vldr.32	s3, [r6, #-4]
  87              	.LVL8:
  76:.//Libraries/CMSIS/DSP/Source/FilteringFunctions/arm_biquad_cascade_stereo_df2T_f32.c ****         d2a = pState[1];
  88              		.loc 1 76 9 is_stmt 1 view .LVU25
  89 0028 2F46     		mov	r7, r5
  76:.//Libraries/CMSIS/DSP/Source/FilteringFunctions/arm_biquad_cascade_stereo_df2T_f32.c ****         d2a = pState[1];
  90              		.loc 1 76 13 is_stmt 0 view .LVU26
  91 002a 15ED046A 		vldr.32	s12, [r5, #-16]
  92              	.LVL9:
  77:.//Libraries/CMSIS/DSP/Source/FilteringFunctions/arm_biquad_cascade_stereo_df2T_f32.c ****         d1b = pState[2];
  93              		.loc 1 77 9 is_stmt 1 view .LVU27
  77:.//Libraries/CMSIS/DSP/Source/FilteringFunctions/arm_biquad_cascade_stereo_df2T_f32.c ****         d1b = pState[2];
  94              		.loc 1 77 13 is_stmt 0 view .LVU28
  95 002e 15ED034A 		vldr.32	s8, [r5, #-12]
  96              	.LVL10:
  78:.//Libraries/CMSIS/DSP/Source/FilteringFunctions/arm_biquad_cascade_stereo_df2T_f32.c ****         d2b = pState[3];
  97              		.loc 1 78 9 is_stmt 1 view .LVU29
  78:.//Libraries/CMSIS/DSP/Source/FilteringFunctions/arm_biquad_cascade_stereo_df2T_f32.c ****         d2b = pState[3];
  98              		.loc 1 78 13 is_stmt 0 view .LVU30
  99 0032 55ED026A 		vldr.32	s13, [r5, #-8]
 100              	.LVL11:
  79:.//Libraries/CMSIS/DSP/Source/FilteringFunctions/arm_biquad_cascade_stereo_df2T_f32.c **** 
 101              		.loc 1 79 9 is_stmt 1 view .LVU31
  79:.//Libraries/CMSIS/DSP/Source/FilteringFunctions/arm_biquad_cascade_stereo_df2T_f32.c **** 
 102              		.loc 1 79 13 is_stmt 0 view .LVU32
 103 0036 55ED014A 		vldr.32	s9, [r5, #-4]
 104              	.LVL12:
  81:.//Libraries/CMSIS/DSP/Source/FilteringFunctions/arm_biquad_cascade_stereo_df2T_f32.c **** 
 105              		.loc 1 81 9 is_stmt 1 view .LVU33
 231:.//Libraries/CMSIS/DSP/Source/FilteringFunctions/arm_biquad_cascade_stereo_df2T_f32.c **** 
 106              		.loc 1 231 9 view .LVU34
 235:.//Libraries/CMSIS/DSP/Source/FilteringFunctions/arm_biquad_cascade_stereo_df2T_f32.c ****           /* Read the input */
 107              		.loc 1 235 9 view .LVU35
ARM GAS  /var/folders/wl/rshn8xbx1dsfj1zgryf4g1240000gn/T//cc9X8JTk.s 			page 8


 235:.//Libraries/CMSIS/DSP/Source/FilteringFunctions/arm_biquad_cascade_stereo_df2T_f32.c ****           /* Read the input */
 108              		.loc 1 235 15 view .LVU36
 109 003a 9BB3     		cbz	r3, .L2
 235:.//Libraries/CMSIS/DSP/Source/FilteringFunctions/arm_biquad_cascade_stereo_df2T_f32.c ****           /* Read the input */
 110              		.loc 1 235 15 is_stmt 0 view .LVU37
 111 003c 0830     		adds	r0, r0, #8
 112 003e 02F10801 		add	r1, r2, #8
 231:.//Libraries/CMSIS/DSP/Source/FilteringFunctions/arm_biquad_cascade_stereo_df2T_f32.c **** 
 113              		.loc 1 231 16 view .LVU38
 114 0042 1C46     		mov	r4, r3
 115              	.LVL13:
 116              	.L3:
 237:.//Libraries/CMSIS/DSP/Source/FilteringFunctions/arm_biquad_cascade_stereo_df2T_f32.c ****           Xn1b = *pIn++; /* Channel b */
 117              		.loc 1 237 11 is_stmt 1 view .LVU39
 237:.//Libraries/CMSIS/DSP/Source/FilteringFunctions/arm_biquad_cascade_stereo_df2T_f32.c ****           Xn1b = *pIn++; /* Channel b */
 118              		.loc 1 237 16 is_stmt 0 view .LVU40
 119 0044 10ED025A 		vldr.32	s10, [r0, #-8]
 120              	.LVL14:
 238:.//Libraries/CMSIS/DSP/Source/FilteringFunctions/arm_biquad_cascade_stereo_df2T_f32.c **** 
 121              		.loc 1 238 11 is_stmt 1 view .LVU41
 238:.//Libraries/CMSIS/DSP/Source/FilteringFunctions/arm_biquad_cascade_stereo_df2T_f32.c **** 
 122              		.loc 1 238 16 is_stmt 0 view .LVU42
 123 0048 50ED015A 		vldr.32	s11, [r0, #-4]
 124              	.LVL15:
 241:.//Libraries/CMSIS/DSP/Source/FilteringFunctions/arm_biquad_cascade_stereo_df2T_f32.c ****           acc1b = (b0 * Xn1b) + d1b;
 125              		.loc 1 241 11 is_stmt 1 view .LVU43
 241:.//Libraries/CMSIS/DSP/Source/FilteringFunctions/arm_biquad_cascade_stereo_df2T_f32.c ****           acc1b = (b0 * Xn1b) + d1b;
 126              		.loc 1 241 23 is_stmt 0 view .LVU44
 127 004c 23EE857A 		vmul.f32	s14, s7, s10
 241:.//Libraries/CMSIS/DSP/Source/FilteringFunctions/arm_biquad_cascade_stereo_df2T_f32.c ****           acc1b = (b0 * Xn1b) + d1b;
 128              		.loc 1 241 17 view .LVU45
 129 0050 37EE067A 		vadd.f32	s14, s14, s12
 130              	.LVL16:
 242:.//Libraries/CMSIS/DSP/Source/FilteringFunctions/arm_biquad_cascade_stereo_df2T_f32.c **** 
 131              		.loc 1 242 11 is_stmt 1 view .LVU46
 242:.//Libraries/CMSIS/DSP/Source/FilteringFunctions/arm_biquad_cascade_stereo_df2T_f32.c **** 
 132              		.loc 1 242 23 is_stmt 0 view .LVU47
 133 0054 63EEA57A 		vmul.f32	s15, s7, s11
 242:.//Libraries/CMSIS/DSP/Source/FilteringFunctions/arm_biquad_cascade_stereo_df2T_f32.c **** 
 134              		.loc 1 242 17 view .LVU48
 135 0058 77EEA67A 		vadd.f32	s15, s15, s13
 136              	.LVL17:
 245:.//Libraries/CMSIS/DSP/Source/FilteringFunctions/arm_biquad_cascade_stereo_df2T_f32.c ****           *pOut++ = acc1b;
 137              		.loc 1 245 11 is_stmt 1 view .LVU49
 245:.//Libraries/CMSIS/DSP/Source/FilteringFunctions/arm_biquad_cascade_stereo_df2T_f32.c ****           *pOut++ = acc1b;
 138              		.loc 1 245 19 is_stmt 0 view .LVU50
 139 005c 01ED027A 		vstr.32	s14, [r1, #-8]
 246:.//Libraries/CMSIS/DSP/Source/FilteringFunctions/arm_biquad_cascade_stereo_df2T_f32.c **** 
 140              		.loc 1 246 11 is_stmt 1 view .LVU51
 246:.//Libraries/CMSIS/DSP/Source/FilteringFunctions/arm_biquad_cascade_stereo_df2T_f32.c **** 
 141              		.loc 1 246 19 is_stmt 0 view .LVU52
 142 0060 41ED017A 		vstr.32	s15, [r1, #-4]
 250:.//Libraries/CMSIS/DSP/Source/FilteringFunctions/arm_biquad_cascade_stereo_df2T_f32.c ****           d1b = ((b1 * Xn1b) + (a1 * acc1b)) + d2b;
 143              		.loc 1 250 11 is_stmt 1 view .LVU53
 250:.//Libraries/CMSIS/DSP/Source/FilteringFunctions/arm_biquad_cascade_stereo_df2T_f32.c ****           d1b = ((b1 * Xn1b) + (a1 * acc1b)) + d2b;
 144              		.loc 1 250 22 is_stmt 0 view .LVU54
 145 0064 23EE056A 		vmul.f32	s12, s6, s10
ARM GAS  /var/folders/wl/rshn8xbx1dsfj1zgryf4g1240000gn/T//cc9X8JTk.s 			page 9


 146              	.LVL18:
 250:.//Libraries/CMSIS/DSP/Source/FilteringFunctions/arm_biquad_cascade_stereo_df2T_f32.c ****           d1b = ((b1 * Xn1b) + (a1 * acc1b)) + d2b;
 147              		.loc 1 250 36 view .LVU55
 148 0068 62EE076A 		vmul.f32	s13, s4, s14
 149              	.LVL19:
 250:.//Libraries/CMSIS/DSP/Source/FilteringFunctions/arm_biquad_cascade_stereo_df2T_f32.c ****           d1b = ((b1 * Xn1b) + (a1 * acc1b)) + d2b;
 150              		.loc 1 250 30 view .LVU56
 151 006c 36EE266A 		vadd.f32	s12, s12, s13
 250:.//Libraries/CMSIS/DSP/Source/FilteringFunctions/arm_biquad_cascade_stereo_df2T_f32.c ****           d1b = ((b1 * Xn1b) + (a1 * acc1b)) + d2b;
 152              		.loc 1 250 15 view .LVU57
 153 0070 36EE046A 		vadd.f32	s12, s12, s8
 154              	.LVL20:
 251:.//Libraries/CMSIS/DSP/Source/FilteringFunctions/arm_biquad_cascade_stereo_df2T_f32.c **** 
 155              		.loc 1 251 11 is_stmt 1 view .LVU58
 251:.//Libraries/CMSIS/DSP/Source/FilteringFunctions/arm_biquad_cascade_stereo_df2T_f32.c **** 
 156              		.loc 1 251 22 is_stmt 0 view .LVU59
 157 0074 63EE256A 		vmul.f32	s13, s6, s11
 251:.//Libraries/CMSIS/DSP/Source/FilteringFunctions/arm_biquad_cascade_stereo_df2T_f32.c **** 
 158              		.loc 1 251 36 view .LVU60
 159 0078 22EE274A 		vmul.f32	s8, s4, s15
 160              	.LVL21:
 251:.//Libraries/CMSIS/DSP/Source/FilteringFunctions/arm_biquad_cascade_stereo_df2T_f32.c **** 
 161              		.loc 1 251 30 view .LVU61
 162 007c 76EE846A 		vadd.f32	s13, s13, s8
 251:.//Libraries/CMSIS/DSP/Source/FilteringFunctions/arm_biquad_cascade_stereo_df2T_f32.c **** 
 163              		.loc 1 251 15 view .LVU62
 164 0080 76EEA46A 		vadd.f32	s13, s13, s9
 165              	.LVL22:
 254:.//Libraries/CMSIS/DSP/Source/FilteringFunctions/arm_biquad_cascade_stereo_df2T_f32.c ****           d2b = (b2 * Xn1b) + (a2 * acc1b);
 166              		.loc 1 254 11 is_stmt 1 view .LVU63
 254:.//Libraries/CMSIS/DSP/Source/FilteringFunctions/arm_biquad_cascade_stereo_df2T_f32.c ****           d2b = (b2 * Xn1b) + (a2 * acc1b);
 167              		.loc 1 254 21 is_stmt 0 view .LVU64
 168 0084 22EE855A 		vmul.f32	s10, s5, s10
 169              	.LVL23:
 254:.//Libraries/CMSIS/DSP/Source/FilteringFunctions/arm_biquad_cascade_stereo_df2T_f32.c ****           d2b = (b2 * Xn1b) + (a2 * acc1b);
 170              		.loc 1 254 35 view .LVU65
 171 0088 21EE877A 		vmul.f32	s14, s3, s14
 172              	.LVL24:
 254:.//Libraries/CMSIS/DSP/Source/FilteringFunctions/arm_biquad_cascade_stereo_df2T_f32.c ****           d2b = (b2 * Xn1b) + (a2 * acc1b);
 173              		.loc 1 254 15 view .LVU66
 174 008c 35EE074A 		vadd.f32	s8, s10, s14
 175              	.LVL25:
 255:.//Libraries/CMSIS/DSP/Source/FilteringFunctions/arm_biquad_cascade_stereo_df2T_f32.c **** 
 176              		.loc 1 255 11 is_stmt 1 view .LVU67
 255:.//Libraries/CMSIS/DSP/Source/FilteringFunctions/arm_biquad_cascade_stereo_df2T_f32.c **** 
 177              		.loc 1 255 21 is_stmt 0 view .LVU68
 178 0090 62EEA55A 		vmul.f32	s11, s5, s11
 179              	.LVL26:
 255:.//Libraries/CMSIS/DSP/Source/FilteringFunctions/arm_biquad_cascade_stereo_df2T_f32.c **** 
 180              		.loc 1 255 35 view .LVU69
 181 0094 61EEA77A 		vmul.f32	s15, s3, s15
 182              	.LVL27:
 255:.//Libraries/CMSIS/DSP/Source/FilteringFunctions/arm_biquad_cascade_stereo_df2T_f32.c **** 
 183              		.loc 1 255 15 view .LVU70
 184 0098 75EEA74A 		vadd.f32	s9, s11, s15
 185              	.LVL28:
 258:.//Libraries/CMSIS/DSP/Source/FilteringFunctions/arm_biquad_cascade_stereo_df2T_f32.c ****         }
ARM GAS  /var/folders/wl/rshn8xbx1dsfj1zgryf4g1240000gn/T//cc9X8JTk.s 			page 10


 186              		.loc 1 258 11 is_stmt 1 view .LVU71
 235:.//Libraries/CMSIS/DSP/Source/FilteringFunctions/arm_biquad_cascade_stereo_df2T_f32.c ****           /* Read the input */
 187              		.loc 1 235 15 view .LVU72
 188 009c 0830     		adds	r0, r0, #8
 189              	.LVL29:
 235:.//Libraries/CMSIS/DSP/Source/FilteringFunctions/arm_biquad_cascade_stereo_df2T_f32.c ****           /* Read the input */
 190              		.loc 1 235 15 is_stmt 0 view .LVU73
 191 009e 0831     		adds	r1, r1, #8
 192              	.LVL30:
 235:.//Libraries/CMSIS/DSP/Source/FilteringFunctions/arm_biquad_cascade_stereo_df2T_f32.c ****           /* Read the input */
 193              		.loc 1 235 15 view .LVU74
 194 00a0 013C     		subs	r4, r4, #1
 195              	.LVL31:
 235:.//Libraries/CMSIS/DSP/Source/FilteringFunctions/arm_biquad_cascade_stereo_df2T_f32.c ****           /* Read the input */
 196              		.loc 1 235 15 view .LVU75
 197 00a2 CFD1     		bne	.L3
 198              	.LVL32:
 199              	.L2:
 262:.//Libraries/CMSIS/DSP/Source/FilteringFunctions/arm_biquad_cascade_stereo_df2T_f32.c ****         pState[1] = d2a;
 200              		.loc 1 262 9 is_stmt 1 view .LVU76
 262:.//Libraries/CMSIS/DSP/Source/FilteringFunctions/arm_biquad_cascade_stereo_df2T_f32.c ****         pState[1] = d2a;
 201              		.loc 1 262 19 is_stmt 0 view .LVU77
 202 00a4 07ED046A 		vstr.32	s12, [r7, #-16]
 263:.//Libraries/CMSIS/DSP/Source/FilteringFunctions/arm_biquad_cascade_stereo_df2T_f32.c **** 
 203              		.loc 1 263 9 is_stmt 1 view .LVU78
 263:.//Libraries/CMSIS/DSP/Source/FilteringFunctions/arm_biquad_cascade_stereo_df2T_f32.c **** 
 204              		.loc 1 263 19 is_stmt 0 view .LVU79
 205 00a8 07ED034A 		vstr.32	s8, [r7, #-12]
 265:.//Libraries/CMSIS/DSP/Source/FilteringFunctions/arm_biquad_cascade_stereo_df2T_f32.c ****         pState[3] = d2b;
 206              		.loc 1 265 9 is_stmt 1 view .LVU80
 265:.//Libraries/CMSIS/DSP/Source/FilteringFunctions/arm_biquad_cascade_stereo_df2T_f32.c ****         pState[3] = d2b;
 207              		.loc 1 265 19 is_stmt 0 view .LVU81
 208 00ac 47ED026A 		vstr.32	s13, [r7, #-8]
 266:.//Libraries/CMSIS/DSP/Source/FilteringFunctions/arm_biquad_cascade_stereo_df2T_f32.c **** 
 209              		.loc 1 266 9 is_stmt 1 view .LVU82
 266:.//Libraries/CMSIS/DSP/Source/FilteringFunctions/arm_biquad_cascade_stereo_df2T_f32.c **** 
 210              		.loc 1 266 19 is_stmt 0 view .LVU83
 211 00b0 47ED014A 		vstr.32	s9, [r7, #-4]
 268:.//Libraries/CMSIS/DSP/Source/FilteringFunctions/arm_biquad_cascade_stereo_df2T_f32.c **** 
 212              		.loc 1 268 9 is_stmt 1 view .LVU84
 213              	.LVL33:
 214              		.loc 1 271 9 view .LVU85
 272:.//Libraries/CMSIS/DSP/Source/FilteringFunctions/arm_biquad_cascade_stereo_df2T_f32.c **** 
 273:.//Libraries/CMSIS/DSP/Source/FilteringFunctions/arm_biquad_cascade_stereo_df2T_f32.c ****         /* Reset the output working pointer */
 274:.//Libraries/CMSIS/DSP/Source/FilteringFunctions/arm_biquad_cascade_stereo_df2T_f32.c ****         pOut = pDst;
 215              		.loc 1 274 9 view .LVU86
 275:.//Libraries/CMSIS/DSP/Source/FilteringFunctions/arm_biquad_cascade_stereo_df2T_f32.c **** 
 276:.//Libraries/CMSIS/DSP/Source/FilteringFunctions/arm_biquad_cascade_stereo_df2T_f32.c ****         /* Decrement the loop counter */
 277:.//Libraries/CMSIS/DSP/Source/FilteringFunctions/arm_biquad_cascade_stereo_df2T_f32.c ****         stage--;
 216              		.loc 1 277 9 view .LVU87
 278:.//Libraries/CMSIS/DSP/Source/FilteringFunctions/arm_biquad_cascade_stereo_df2T_f32.c **** 
 279:.//Libraries/CMSIS/DSP/Source/FilteringFunctions/arm_biquad_cascade_stereo_df2T_f32.c ****     } while (stage > 0U);
 217              		.loc 1 279 13 view .LVU88
 218 00b4 1436     		adds	r6, r6, #20
 219              	.LVL34:
 220              		.loc 1 279 13 is_stmt 0 view .LVU89
 221 00b6 1035     		adds	r5, r5, #16
ARM GAS  /var/folders/wl/rshn8xbx1dsfj1zgryf4g1240000gn/T//cc9X8JTk.s 			page 11


 222              	.LVL35:
 223              		.loc 1 279 5 view .LVU90
 224 00b8 BCF1010C 		subs	ip, ip, #1
 225              	.LVL36:
 226              		.loc 1 279 5 view .LVU91
 227 00bc 01D0     		beq	.L9
 271:.//Libraries/CMSIS/DSP/Source/FilteringFunctions/arm_biquad_cascade_stereo_df2T_f32.c **** 
 228              		.loc 1 271 13 view .LVU92
 229 00be 7046     		mov	r0, lr
 230 00c0 A8E7     		b	.L4
 231              	.L9:
 280:.//Libraries/CMSIS/DSP/Source/FilteringFunctions/arm_biquad_cascade_stereo_df2T_f32.c **** 
 281:.//Libraries/CMSIS/DSP/Source/FilteringFunctions/arm_biquad_cascade_stereo_df2T_f32.c **** }
 232              		.loc 1 281 1 view .LVU93
 233 00c2 F0BD     		pop	{r4, r5, r6, r7, pc}
 234              		.loc 1 281 1 view .LVU94
 235              		.cfi_endproc
 236              	.LFE145:
 238              		.text
 239              	.Letext0:
 240              		.file 2 "/opt/homebrew/Cellar/arm-none-eabi-gcc/9-2019-q4-major/gcc/arm-none-eabi/include/machine/
 241              		.file 3 "/opt/homebrew/Cellar/arm-none-eabi-gcc/9-2019-q4-major/gcc/arm-none-eabi/include/sys/_std
 242              		.file 4 "/opt/homebrew/Cellar/arm-none-eabi-gcc/9-2019-q4-major/gcc/arm-none-eabi/include/sys/lock
 243              		.file 5 "/opt/homebrew/Cellar/arm-none-eabi-gcc/9-2019-q4-major/gcc/arm-none-eabi/include/sys/_typ
 244              		.file 6 "/opt/homebrew/Cellar/arm-none-eabi-gcc/9-2019-q4-major/gcc/lib/gcc/arm-none-eabi/9.2.1/in
 245              		.file 7 "/opt/homebrew/Cellar/arm-none-eabi-gcc/9-2019-q4-major/gcc/arm-none-eabi/include/sys/reen
 246              		.file 8 "/opt/homebrew/Cellar/arm-none-eabi-gcc/9-2019-q4-major/gcc/arm-none-eabi/include/math.h"
 247              		.file 9 ".//Libraries/CMSIS/DSP/Include/arm_math.h"
ARM GAS  /var/folders/wl/rshn8xbx1dsfj1zgryf4g1240000gn/T//cc9X8JTk.s 			page 12

