ARM GAS  /tmp/ccoX4Cf7.s 			page 1


   1              		.cpu cortex-m7
   2              		.eabi_attribute 28, 1
   3              		.eabi_attribute 20, 1
   4              		.eabi_attribute 21, 1
   5              		.eabi_attribute 23, 3
   6              		.eabi_attribute 24, 1
   7              		.eabi_attribute 25, 1
   8              		.eabi_attribute 26, 1
   9              		.eabi_attribute 30, 2
  10              		.eabi_attribute 34, 1
  11              		.eabi_attribute 18, 4
  12              		.file	"arm_lms_norm_init_q15.c"
  13              		.text
  14              	.Ltext0:
  15              		.cfi_sections	.debug_frame
  16              		.section	.text.arm_lms_norm_init_q15,"ax",%progbits
  17              		.align	1
  18              		.p2align 2,,3
  19              		.global	arm_lms_norm_init_q15
  20              		.arch armv7e-m
  21              		.syntax unified
  22              		.thumb
  23              		.thumb_func
  24              		.fpu fpv5-d16
  26              	arm_lms_norm_init_q15:
  27              	.LVL0:
  28              	.LFB145:
  29              		.file 1 "./Libraries/CMSIS/DSP/Source/FilteringFunctions/arm_lms_norm_init_q15.c"
   1:./Libraries/CMSIS/DSP/Source/FilteringFunctions/arm_lms_norm_init_q15.c **** /* ----------------------------------------------------------------------
   2:./Libraries/CMSIS/DSP/Source/FilteringFunctions/arm_lms_norm_init_q15.c ****  * Project:      CMSIS DSP Library
   3:./Libraries/CMSIS/DSP/Source/FilteringFunctions/arm_lms_norm_init_q15.c ****  * Title:        arm_lms_norm_init_q15.c
   4:./Libraries/CMSIS/DSP/Source/FilteringFunctions/arm_lms_norm_init_q15.c ****  * Description:  Q15 NLMS filter initialization function
   5:./Libraries/CMSIS/DSP/Source/FilteringFunctions/arm_lms_norm_init_q15.c ****  *
   6:./Libraries/CMSIS/DSP/Source/FilteringFunctions/arm_lms_norm_init_q15.c ****  * $Date:        18. March 2019
   7:./Libraries/CMSIS/DSP/Source/FilteringFunctions/arm_lms_norm_init_q15.c ****  * $Revision:    V1.6.0
   8:./Libraries/CMSIS/DSP/Source/FilteringFunctions/arm_lms_norm_init_q15.c ****  *
   9:./Libraries/CMSIS/DSP/Source/FilteringFunctions/arm_lms_norm_init_q15.c ****  * Target Processor: Cortex-M cores
  10:./Libraries/CMSIS/DSP/Source/FilteringFunctions/arm_lms_norm_init_q15.c ****  * -------------------------------------------------------------------- */
  11:./Libraries/CMSIS/DSP/Source/FilteringFunctions/arm_lms_norm_init_q15.c **** /*
  12:./Libraries/CMSIS/DSP/Source/FilteringFunctions/arm_lms_norm_init_q15.c ****  * Copyright (C) 2010-2019 ARM Limited or its affiliates. All rights reserved.
  13:./Libraries/CMSIS/DSP/Source/FilteringFunctions/arm_lms_norm_init_q15.c ****  *
  14:./Libraries/CMSIS/DSP/Source/FilteringFunctions/arm_lms_norm_init_q15.c ****  * SPDX-License-Identifier: Apache-2.0
  15:./Libraries/CMSIS/DSP/Source/FilteringFunctions/arm_lms_norm_init_q15.c ****  *
  16:./Libraries/CMSIS/DSP/Source/FilteringFunctions/arm_lms_norm_init_q15.c ****  * Licensed under the Apache License, Version 2.0 (the License); you may
  17:./Libraries/CMSIS/DSP/Source/FilteringFunctions/arm_lms_norm_init_q15.c ****  * not use this file except in compliance with the License.
  18:./Libraries/CMSIS/DSP/Source/FilteringFunctions/arm_lms_norm_init_q15.c ****  * You may obtain a copy of the License at
  19:./Libraries/CMSIS/DSP/Source/FilteringFunctions/arm_lms_norm_init_q15.c ****  *
  20:./Libraries/CMSIS/DSP/Source/FilteringFunctions/arm_lms_norm_init_q15.c ****  * www.apache.org/licenses/LICENSE-2.0
  21:./Libraries/CMSIS/DSP/Source/FilteringFunctions/arm_lms_norm_init_q15.c ****  *
  22:./Libraries/CMSIS/DSP/Source/FilteringFunctions/arm_lms_norm_init_q15.c ****  * Unless required by applicable law or agreed to in writing, software
  23:./Libraries/CMSIS/DSP/Source/FilteringFunctions/arm_lms_norm_init_q15.c ****  * distributed under the License is distributed on an AS IS BASIS, WITHOUT
  24:./Libraries/CMSIS/DSP/Source/FilteringFunctions/arm_lms_norm_init_q15.c ****  * WARRANTIES OR CONDITIONS OF ANY KIND, either express or implied.
  25:./Libraries/CMSIS/DSP/Source/FilteringFunctions/arm_lms_norm_init_q15.c ****  * See the License for the specific language governing permissions and
  26:./Libraries/CMSIS/DSP/Source/FilteringFunctions/arm_lms_norm_init_q15.c ****  * limitations under the License.
  27:./Libraries/CMSIS/DSP/Source/FilteringFunctions/arm_lms_norm_init_q15.c ****  */
  28:./Libraries/CMSIS/DSP/Source/FilteringFunctions/arm_lms_norm_init_q15.c **** 
  29:./Libraries/CMSIS/DSP/Source/FilteringFunctions/arm_lms_norm_init_q15.c **** #include "arm_math.h"
ARM GAS  /tmp/ccoX4Cf7.s 			page 2


  30:./Libraries/CMSIS/DSP/Source/FilteringFunctions/arm_lms_norm_init_q15.c **** #include "arm_common_tables.h"
  31:./Libraries/CMSIS/DSP/Source/FilteringFunctions/arm_lms_norm_init_q15.c **** 
  32:./Libraries/CMSIS/DSP/Source/FilteringFunctions/arm_lms_norm_init_q15.c **** /**
  33:./Libraries/CMSIS/DSP/Source/FilteringFunctions/arm_lms_norm_init_q15.c ****   @addtogroup LMS_NORM
  34:./Libraries/CMSIS/DSP/Source/FilteringFunctions/arm_lms_norm_init_q15.c ****   @{
  35:./Libraries/CMSIS/DSP/Source/FilteringFunctions/arm_lms_norm_init_q15.c ****  */
  36:./Libraries/CMSIS/DSP/Source/FilteringFunctions/arm_lms_norm_init_q15.c **** 
  37:./Libraries/CMSIS/DSP/Source/FilteringFunctions/arm_lms_norm_init_q15.c **** /**
  38:./Libraries/CMSIS/DSP/Source/FilteringFunctions/arm_lms_norm_init_q15.c ****   @brief         Initialization function for Q15 normalized LMS filter.
  39:./Libraries/CMSIS/DSP/Source/FilteringFunctions/arm_lms_norm_init_q15.c ****   @param[in]     S         points to an instance of the Q15 normalized LMS filter structure.
  40:./Libraries/CMSIS/DSP/Source/FilteringFunctions/arm_lms_norm_init_q15.c ****   @param[in]     numTaps   number of filter coefficients.
  41:./Libraries/CMSIS/DSP/Source/FilteringFunctions/arm_lms_norm_init_q15.c ****   @param[in]     pCoeffs   points to coefficient buffer.
  42:./Libraries/CMSIS/DSP/Source/FilteringFunctions/arm_lms_norm_init_q15.c ****   @param[in]     pState    points to state buffer.
  43:./Libraries/CMSIS/DSP/Source/FilteringFunctions/arm_lms_norm_init_q15.c ****   @param[in]     mu        step size that controls filter coefficient updates.
  44:./Libraries/CMSIS/DSP/Source/FilteringFunctions/arm_lms_norm_init_q15.c ****   @param[in]     blockSize number of samples to process.
  45:./Libraries/CMSIS/DSP/Source/FilteringFunctions/arm_lms_norm_init_q15.c ****   @param[in]     postShift bit shift applied to coefficients.
  46:./Libraries/CMSIS/DSP/Source/FilteringFunctions/arm_lms_norm_init_q15.c ****   @return        none
  47:./Libraries/CMSIS/DSP/Source/FilteringFunctions/arm_lms_norm_init_q15.c **** 
  48:./Libraries/CMSIS/DSP/Source/FilteringFunctions/arm_lms_norm_init_q15.c ****   @par           Details
  49:./Libraries/CMSIS/DSP/Source/FilteringFunctions/arm_lms_norm_init_q15.c ****                    <code>pCoeffs</code> points to the array of filter coefficients stored in time r
  50:./Libraries/CMSIS/DSP/Source/FilteringFunctions/arm_lms_norm_init_q15.c ****   <pre>
  51:./Libraries/CMSIS/DSP/Source/FilteringFunctions/arm_lms_norm_init_q15.c ****      {b[numTaps-1], b[numTaps-2], b[N-2], ..., b[1], b[0]}
  52:./Libraries/CMSIS/DSP/Source/FilteringFunctions/arm_lms_norm_init_q15.c ****   </pre>
  53:./Libraries/CMSIS/DSP/Source/FilteringFunctions/arm_lms_norm_init_q15.c ****                    The initial filter coefficients serve as a starting point for the adaptive filte
  54:./Libraries/CMSIS/DSP/Source/FilteringFunctions/arm_lms_norm_init_q15.c ****                    <code>pState</code> points to the array of state variables and size of array is
  55:./Libraries/CMSIS/DSP/Source/FilteringFunctions/arm_lms_norm_init_q15.c ****                    <code>numTaps+blockSize-1</code> samples, where <code>blockSize</code> is the nu
  56:./Libraries/CMSIS/DSP/Source/FilteringFunctions/arm_lms_norm_init_q15.c ****                    by each call to <code>arm_lms_norm_q15()</code>.
  57:./Libraries/CMSIS/DSP/Source/FilteringFunctions/arm_lms_norm_init_q15.c ****  */
  58:./Libraries/CMSIS/DSP/Source/FilteringFunctions/arm_lms_norm_init_q15.c **** 
  59:./Libraries/CMSIS/DSP/Source/FilteringFunctions/arm_lms_norm_init_q15.c **** void arm_lms_norm_init_q15(
  60:./Libraries/CMSIS/DSP/Source/FilteringFunctions/arm_lms_norm_init_q15.c ****         arm_lms_norm_instance_q15 * S,
  61:./Libraries/CMSIS/DSP/Source/FilteringFunctions/arm_lms_norm_init_q15.c ****         uint16_t numTaps,
  62:./Libraries/CMSIS/DSP/Source/FilteringFunctions/arm_lms_norm_init_q15.c ****         q15_t * pCoeffs,
  63:./Libraries/CMSIS/DSP/Source/FilteringFunctions/arm_lms_norm_init_q15.c ****         q15_t * pState,
  64:./Libraries/CMSIS/DSP/Source/FilteringFunctions/arm_lms_norm_init_q15.c ****         q15_t mu,
  65:./Libraries/CMSIS/DSP/Source/FilteringFunctions/arm_lms_norm_init_q15.c ****         uint32_t blockSize,
  66:./Libraries/CMSIS/DSP/Source/FilteringFunctions/arm_lms_norm_init_q15.c ****         uint8_t postShift)
  67:./Libraries/CMSIS/DSP/Source/FilteringFunctions/arm_lms_norm_init_q15.c **** {
  30              		.loc 1 67 1 view -0
  31              		.cfi_startproc
  32              		@ args = 12, pretend = 0, frame = 0
  33              		@ frame_needed = 0, uses_anonymous_args = 0
  68:./Libraries/CMSIS/DSP/Source/FilteringFunctions/arm_lms_norm_init_q15.c ****   /* Assign filter taps */
  69:./Libraries/CMSIS/DSP/Source/FilteringFunctions/arm_lms_norm_init_q15.c ****   S->numTaps = numTaps;
  34              		.loc 1 69 3 view .LVU1
  67:./Libraries/CMSIS/DSP/Source/FilteringFunctions/arm_lms_norm_init_q15.c ****   /* Assign filter taps */
  35              		.loc 1 67 1 is_stmt 0 view .LVU2
  36 0000 70B5     		push	{r4, r5, r6, lr}
  37              	.LCFI0:
  38              		.cfi_def_cfa_offset 16
  39              		.cfi_offset 4, -16
  40              		.cfi_offset 5, -12
  41              		.cfi_offset 6, -8
  42              		.cfi_offset 14, -4
  67:./Libraries/CMSIS/DSP/Source/FilteringFunctions/arm_lms_norm_init_q15.c ****   /* Assign filter taps */
  43              		.loc 1 67 1 view .LVU3
  44 0002 059D     		ldr	r5, [sp, #20]
ARM GAS  /tmp/ccoX4Cf7.s 			page 3


  45 0004 0446     		mov	r4, r0
  46              		.loc 1 69 14 view .LVU4
  47 0006 0180     		strh	r1, [r0]	@ movhi
  70:./Libraries/CMSIS/DSP/Source/FilteringFunctions/arm_lms_norm_init_q15.c **** 
  71:./Libraries/CMSIS/DSP/Source/FilteringFunctions/arm_lms_norm_init_q15.c ****   /* Assign coefficient pointer */
  72:./Libraries/CMSIS/DSP/Source/FilteringFunctions/arm_lms_norm_init_q15.c ****   S->pCoeffs = pCoeffs;
  48              		.loc 1 72 3 is_stmt 1 view .LVU5
  73:./Libraries/CMSIS/DSP/Source/FilteringFunctions/arm_lms_norm_init_q15.c **** 
  74:./Libraries/CMSIS/DSP/Source/FilteringFunctions/arm_lms_norm_init_q15.c ****   /* Clear state buffer and size is always blockSize + numTaps - 1 */
  75:./Libraries/CMSIS/DSP/Source/FilteringFunctions/arm_lms_norm_init_q15.c ****   memset(pState, 0, (numTaps + (blockSize - 1U)) * sizeof(q15_t));
  49              		.loc 1 75 3 is_stmt 0 view .LVU6
  50 0008 1846     		mov	r0, r3
  51              	.LVL1:
  52              		.loc 1 75 30 view .LVU7
  53 000a 013D     		subs	r5, r5, #1
  72:./Libraries/CMSIS/DSP/Source/FilteringFunctions/arm_lms_norm_init_q15.c **** 
  54              		.loc 1 72 14 view .LVU8
  55 000c A260     		str	r2, [r4, #8]
  56              		.loc 1 75 3 is_stmt 1 view .LVU9
  67:./Libraries/CMSIS/DSP/Source/FilteringFunctions/arm_lms_norm_init_q15.c ****   /* Assign filter taps */
  57              		.loc 1 67 1 is_stmt 0 view .LVU10
  58 000e 9DF81860 		ldrb	r6, [sp, #24]	@ zero_extendqisi2
  59              		.loc 1 75 30 view .LVU11
  60 0012 0D44     		add	r5, r5, r1
  61              		.loc 1 75 3 view .LVU12
  62 0014 0021     		movs	r1, #0
  63              	.LVL2:
  64              		.loc 1 75 3 view .LVU13
  65 0016 6A00     		lsls	r2, r5, #1
  66              	.LVL3:
  67:./Libraries/CMSIS/DSP/Source/FilteringFunctions/arm_lms_norm_init_q15.c ****   /* Assign filter taps */
  67              		.loc 1 67 1 view .LVU14
  68 0018 BDF91050 		ldrsh	r5, [sp, #16]
  69              		.loc 1 75 3 view .LVU15
  70 001c FFF7FEFF 		bl	memset
  71              	.LVL4:
  76:./Libraries/CMSIS/DSP/Source/FilteringFunctions/arm_lms_norm_init_q15.c **** 
  77:./Libraries/CMSIS/DSP/Source/FilteringFunctions/arm_lms_norm_init_q15.c ****   /* Assign post Shift value applied to coefficients */
  78:./Libraries/CMSIS/DSP/Source/FilteringFunctions/arm_lms_norm_init_q15.c ****   S->postShift = postShift;
  72              		.loc 1 78 3 is_stmt 1 view .LVU16
  79:./Libraries/CMSIS/DSP/Source/FilteringFunctions/arm_lms_norm_init_q15.c **** 
  80:./Libraries/CMSIS/DSP/Source/FilteringFunctions/arm_lms_norm_init_q15.c ****   /* Assign state pointer */
  81:./Libraries/CMSIS/DSP/Source/FilteringFunctions/arm_lms_norm_init_q15.c ****   S->pState = pState;
  82:./Libraries/CMSIS/DSP/Source/FilteringFunctions/arm_lms_norm_init_q15.c **** 
  83:./Libraries/CMSIS/DSP/Source/FilteringFunctions/arm_lms_norm_init_q15.c ****   /* Assign Step size value */
  84:./Libraries/CMSIS/DSP/Source/FilteringFunctions/arm_lms_norm_init_q15.c ****   S->mu = mu;
  85:./Libraries/CMSIS/DSP/Source/FilteringFunctions/arm_lms_norm_init_q15.c **** 
  86:./Libraries/CMSIS/DSP/Source/FilteringFunctions/arm_lms_norm_init_q15.c ****   /* Initialize reciprocal pointer table */
  87:./Libraries/CMSIS/DSP/Source/FilteringFunctions/arm_lms_norm_init_q15.c ****   S->recipTable = (q15_t *) armRecipTableQ15;
  73              		.loc 1 87 17 is_stmt 0 view .LVU17
  74 0020 0349     		ldr	r1, .L4
  88:./Libraries/CMSIS/DSP/Source/FilteringFunctions/arm_lms_norm_init_q15.c **** 
  89:./Libraries/CMSIS/DSP/Source/FilteringFunctions/arm_lms_norm_init_q15.c ****   /* Initialise Energy to zero */
  90:./Libraries/CMSIS/DSP/Source/FilteringFunctions/arm_lms_norm_init_q15.c ****   S->energy = 0;
  75              		.loc 1 90 13 view .LVU18
  76 0022 0022     		movs	r2, #0
  78:./Libraries/CMSIS/DSP/Source/FilteringFunctions/arm_lms_norm_init_q15.c **** 
ARM GAS  /tmp/ccoX4Cf7.s 			page 4


  77              		.loc 1 78 16 view .LVU19
  78 0024 A673     		strb	r6, [r4, #14]
  81:./Libraries/CMSIS/DSP/Source/FilteringFunctions/arm_lms_norm_init_q15.c **** 
  79              		.loc 1 81 3 is_stmt 1 view .LVU20
  81:./Libraries/CMSIS/DSP/Source/FilteringFunctions/arm_lms_norm_init_q15.c **** 
  80              		.loc 1 81 13 is_stmt 0 view .LVU21
  81 0026 6060     		str	r0, [r4, #4]
  84:./Libraries/CMSIS/DSP/Source/FilteringFunctions/arm_lms_norm_init_q15.c **** 
  82              		.loc 1 84 3 is_stmt 1 view .LVU22
  84:./Libraries/CMSIS/DSP/Source/FilteringFunctions/arm_lms_norm_init_q15.c **** 
  83              		.loc 1 84 9 is_stmt 0 view .LVU23
  84 0028 A581     		strh	r5, [r4, #12]	@ movhi
  87:./Libraries/CMSIS/DSP/Source/FilteringFunctions/arm_lms_norm_init_q15.c **** 
  85              		.loc 1 87 3 is_stmt 1 view .LVU24
  86              		.loc 1 90 13 is_stmt 0 view .LVU25
  87 002a C4E90412 		strd	r1, r2, [r4, #16]
  91:./Libraries/CMSIS/DSP/Source/FilteringFunctions/arm_lms_norm_init_q15.c **** 
  92:./Libraries/CMSIS/DSP/Source/FilteringFunctions/arm_lms_norm_init_q15.c ****   /* Initialise x0 to zero */
  93:./Libraries/CMSIS/DSP/Source/FilteringFunctions/arm_lms_norm_init_q15.c ****   S->x0 = 0;
  94:./Libraries/CMSIS/DSP/Source/FilteringFunctions/arm_lms_norm_init_q15.c **** }
  88              		.loc 1 94 1 view .LVU26
  89 002e 70BD     		pop	{r4, r5, r6, pc}
  90              	.LVL5:
  91              	.L5:
  92              		.loc 1 94 1 view .LVU27
  93              		.align	2
  94              	.L4:
  95 0030 00000000 		.word	armRecipTableQ15
  96              		.cfi_endproc
  97              	.LFE145:
  99              		.text
 100              	.Letext0:
 101              		.file 2 "/usr/lib/gcc/arm-none-eabi/9.2.1/include/stdint.h"
 102              		.file 3 "/usr/lib/gcc/arm-none-eabi/9.2.1/include/stddef.h"
 103              		.file 4 "/usr/include/newlib/sys/_types.h"
 104              		.file 5 "/usr/include/newlib/sys/reent.h"
 105              		.file 6 "/usr/include/newlib/sys/lock.h"
 106              		.file 7 "/usr/include/newlib/math.h"
 107              		.file 8 "./Libraries/CMSIS/DSP/Include/arm_math.h"
 108              		.file 9 "./Libraries/CMSIS/DSP/Include/arm_common_tables.h"
 109              		.file 10 "<built-in>"
ARM GAS  /tmp/ccoX4Cf7.s 			page 5

