ARM GAS  /tmp/ccBb4BEn.s 			page 1


   1              		.cpu cortex-m7
   2              		.eabi_attribute 28, 1
   3              		.eabi_attribute 20, 1
   4              		.eabi_attribute 21, 1
   5              		.eabi_attribute 23, 3
   6              		.eabi_attribute 24, 1
   7              		.eabi_attribute 25, 1
   8              		.eabi_attribute 26, 1
   9              		.eabi_attribute 30, 2
  10              		.eabi_attribute 34, 1
  11              		.eabi_attribute 18, 4
  12              		.file	"arm_convolve_HWC_q7_RGB.c"
  13              		.text
  14              	.Ltext0:
  15              		.cfi_sections	.debug_frame
  16              		.section	.text.arm_convolve_HWC_q7_RGB,"ax",%progbits
  17              		.align	1
  18              		.p2align 2,,3
  19              		.global	arm_convolve_HWC_q7_RGB
  20              		.arch armv7e-m
  21              		.syntax unified
  22              		.thumb
  23              		.thumb_func
  24              		.fpu fpv5-d16
  26              	arm_convolve_HWC_q7_RGB:
  27              	.LVL0:
  28              	.LFB149:
  29              		.file 1 "./Libraries/CMSIS/NN/Source/ConvolutionFunctions/arm_convolve_HWC_q7_RGB.c"
   1:./Libraries/CMSIS/NN/Source/ConvolutionFunctions/arm_convolve_HWC_q7_RGB.c **** /*
   2:./Libraries/CMSIS/NN/Source/ConvolutionFunctions/arm_convolve_HWC_q7_RGB.c ****  * Copyright (C) 2010-2018 Arm Limited or its affiliates. All rights reserved.
   3:./Libraries/CMSIS/NN/Source/ConvolutionFunctions/arm_convolve_HWC_q7_RGB.c ****  *
   4:./Libraries/CMSIS/NN/Source/ConvolutionFunctions/arm_convolve_HWC_q7_RGB.c ****  * SPDX-License-Identifier: Apache-2.0
   5:./Libraries/CMSIS/NN/Source/ConvolutionFunctions/arm_convolve_HWC_q7_RGB.c ****  *
   6:./Libraries/CMSIS/NN/Source/ConvolutionFunctions/arm_convolve_HWC_q7_RGB.c ****  * Licensed under the Apache License, Version 2.0 (the License); you may
   7:./Libraries/CMSIS/NN/Source/ConvolutionFunctions/arm_convolve_HWC_q7_RGB.c ****  * not use this file except in compliance with the License.
   8:./Libraries/CMSIS/NN/Source/ConvolutionFunctions/arm_convolve_HWC_q7_RGB.c ****  * You may obtain a copy of the License at
   9:./Libraries/CMSIS/NN/Source/ConvolutionFunctions/arm_convolve_HWC_q7_RGB.c ****  *
  10:./Libraries/CMSIS/NN/Source/ConvolutionFunctions/arm_convolve_HWC_q7_RGB.c ****  * www.apache.org/licenses/LICENSE-2.0
  11:./Libraries/CMSIS/NN/Source/ConvolutionFunctions/arm_convolve_HWC_q7_RGB.c ****  *
  12:./Libraries/CMSIS/NN/Source/ConvolutionFunctions/arm_convolve_HWC_q7_RGB.c ****  * Unless required by applicable law or agreed to in writing, software
  13:./Libraries/CMSIS/NN/Source/ConvolutionFunctions/arm_convolve_HWC_q7_RGB.c ****  * distributed under the License is distributed on an AS IS BASIS, WITHOUT
  14:./Libraries/CMSIS/NN/Source/ConvolutionFunctions/arm_convolve_HWC_q7_RGB.c ****  * WARRANTIES OR CONDITIONS OF ANY KIND, either express or implied.
  15:./Libraries/CMSIS/NN/Source/ConvolutionFunctions/arm_convolve_HWC_q7_RGB.c ****  * See the License for the specific language governing permissions and
  16:./Libraries/CMSIS/NN/Source/ConvolutionFunctions/arm_convolve_HWC_q7_RGB.c ****  * limitations under the License.
  17:./Libraries/CMSIS/NN/Source/ConvolutionFunctions/arm_convolve_HWC_q7_RGB.c ****  */
  18:./Libraries/CMSIS/NN/Source/ConvolutionFunctions/arm_convolve_HWC_q7_RGB.c **** 
  19:./Libraries/CMSIS/NN/Source/ConvolutionFunctions/arm_convolve_HWC_q7_RGB.c **** /* ----------------------------------------------------------------------
  20:./Libraries/CMSIS/NN/Source/ConvolutionFunctions/arm_convolve_HWC_q7_RGB.c ****  * Project:      CMSIS NN Library
  21:./Libraries/CMSIS/NN/Source/ConvolutionFunctions/arm_convolve_HWC_q7_RGB.c ****  * Title:        arm_convolve_HWC_q7_RGB.c
  22:./Libraries/CMSIS/NN/Source/ConvolutionFunctions/arm_convolve_HWC_q7_RGB.c ****  * Description:  Q7 version of convolution for RGB image
  23:./Libraries/CMSIS/NN/Source/ConvolutionFunctions/arm_convolve_HWC_q7_RGB.c ****  *
  24:./Libraries/CMSIS/NN/Source/ConvolutionFunctions/arm_convolve_HWC_q7_RGB.c ****  * $Date:        17. January 2018
  25:./Libraries/CMSIS/NN/Source/ConvolutionFunctions/arm_convolve_HWC_q7_RGB.c ****  * $Revision:    V.1.0.0
  26:./Libraries/CMSIS/NN/Source/ConvolutionFunctions/arm_convolve_HWC_q7_RGB.c ****  *
  27:./Libraries/CMSIS/NN/Source/ConvolutionFunctions/arm_convolve_HWC_q7_RGB.c ****  * Target Processor:  Cortex-M cores
  28:./Libraries/CMSIS/NN/Source/ConvolutionFunctions/arm_convolve_HWC_q7_RGB.c ****  *
  29:./Libraries/CMSIS/NN/Source/ConvolutionFunctions/arm_convolve_HWC_q7_RGB.c ****  * -------------------------------------------------------------------- */
ARM GAS  /tmp/ccBb4BEn.s 			page 2


  30:./Libraries/CMSIS/NN/Source/ConvolutionFunctions/arm_convolve_HWC_q7_RGB.c **** #include "arm_math.h"
  31:./Libraries/CMSIS/NN/Source/ConvolutionFunctions/arm_convolve_HWC_q7_RGB.c **** #include "arm_nnfunctions.h"
  32:./Libraries/CMSIS/NN/Source/ConvolutionFunctions/arm_convolve_HWC_q7_RGB.c **** 
  33:./Libraries/CMSIS/NN/Source/ConvolutionFunctions/arm_convolve_HWC_q7_RGB.c **** /**
  34:./Libraries/CMSIS/NN/Source/ConvolutionFunctions/arm_convolve_HWC_q7_RGB.c ****  *  @ingroup groupNN
  35:./Libraries/CMSIS/NN/Source/ConvolutionFunctions/arm_convolve_HWC_q7_RGB.c ****  */
  36:./Libraries/CMSIS/NN/Source/ConvolutionFunctions/arm_convolve_HWC_q7_RGB.c **** 
  37:./Libraries/CMSIS/NN/Source/ConvolutionFunctions/arm_convolve_HWC_q7_RGB.c **** /**
  38:./Libraries/CMSIS/NN/Source/ConvolutionFunctions/arm_convolve_HWC_q7_RGB.c ****  * @addtogroup NNConv
  39:./Libraries/CMSIS/NN/Source/ConvolutionFunctions/arm_convolve_HWC_q7_RGB.c ****  * @{
  40:./Libraries/CMSIS/NN/Source/ConvolutionFunctions/arm_convolve_HWC_q7_RGB.c ****  */
  41:./Libraries/CMSIS/NN/Source/ConvolutionFunctions/arm_convolve_HWC_q7_RGB.c **** 
  42:./Libraries/CMSIS/NN/Source/ConvolutionFunctions/arm_convolve_HWC_q7_RGB.c ****   /**
  43:./Libraries/CMSIS/NN/Source/ConvolutionFunctions/arm_convolve_HWC_q7_RGB.c ****    * @brief Q7 convolution function for RGB image
  44:./Libraries/CMSIS/NN/Source/ConvolutionFunctions/arm_convolve_HWC_q7_RGB.c ****    * @param[in]       Im_in       pointer to input tensor
  45:./Libraries/CMSIS/NN/Source/ConvolutionFunctions/arm_convolve_HWC_q7_RGB.c ****    * @param[in]       dim_im_in   input tensor dimention
  46:./Libraries/CMSIS/NN/Source/ConvolutionFunctions/arm_convolve_HWC_q7_RGB.c ****    * @param[in]       ch_im_in    number of input tensor channels
  47:./Libraries/CMSIS/NN/Source/ConvolutionFunctions/arm_convolve_HWC_q7_RGB.c ****    * @param[in]       wt          pointer to kernel weights
  48:./Libraries/CMSIS/NN/Source/ConvolutionFunctions/arm_convolve_HWC_q7_RGB.c ****    * @param[in]       ch_im_out   number of filters, i.e., output tensor channels
  49:./Libraries/CMSIS/NN/Source/ConvolutionFunctions/arm_convolve_HWC_q7_RGB.c ****    * @param[in]       dim_kernel  filter kernel size
  50:./Libraries/CMSIS/NN/Source/ConvolutionFunctions/arm_convolve_HWC_q7_RGB.c ****    * @param[in]       padding     padding sizes
  51:./Libraries/CMSIS/NN/Source/ConvolutionFunctions/arm_convolve_HWC_q7_RGB.c ****    * @param[in]       stride      convolution stride
  52:./Libraries/CMSIS/NN/Source/ConvolutionFunctions/arm_convolve_HWC_q7_RGB.c ****    * @param[in]       bias        pointer to bias
  53:./Libraries/CMSIS/NN/Source/ConvolutionFunctions/arm_convolve_HWC_q7_RGB.c ****    * @param[in]       bias_shift  amount of left-shift for bias
  54:./Libraries/CMSIS/NN/Source/ConvolutionFunctions/arm_convolve_HWC_q7_RGB.c ****    * @param[in]       out_shift   amount of right-shift for output
  55:./Libraries/CMSIS/NN/Source/ConvolutionFunctions/arm_convolve_HWC_q7_RGB.c ****    * @param[in,out]   Im_out      pointer to output tensor
  56:./Libraries/CMSIS/NN/Source/ConvolutionFunctions/arm_convolve_HWC_q7_RGB.c ****    * @param[in]       dim_im_out  output tensor dimension
  57:./Libraries/CMSIS/NN/Source/ConvolutionFunctions/arm_convolve_HWC_q7_RGB.c ****    * @param[in,out]   bufferA     pointer to buffer space for input
  58:./Libraries/CMSIS/NN/Source/ConvolutionFunctions/arm_convolve_HWC_q7_RGB.c ****    * @param[in,out]   bufferB     pointer to buffer space for output
  59:./Libraries/CMSIS/NN/Source/ConvolutionFunctions/arm_convolve_HWC_q7_RGB.c ****    * @return     The function returns either
  60:./Libraries/CMSIS/NN/Source/ConvolutionFunctions/arm_convolve_HWC_q7_RGB.c ****    * <code>ARM_MATH_SIZE_MISMATCH</code> or <code>ARM_MATH_SUCCESS</code> based on the outcome of s
  61:./Libraries/CMSIS/NN/Source/ConvolutionFunctions/arm_convolve_HWC_q7_RGB.c ****    *
  62:./Libraries/CMSIS/NN/Source/ConvolutionFunctions/arm_convolve_HWC_q7_RGB.c ****    * @details
  63:./Libraries/CMSIS/NN/Source/ConvolutionFunctions/arm_convolve_HWC_q7_RGB.c ****    *
  64:./Libraries/CMSIS/NN/Source/ConvolutionFunctions/arm_convolve_HWC_q7_RGB.c ****    * <b>Buffer size:</b>
  65:./Libraries/CMSIS/NN/Source/ConvolutionFunctions/arm_convolve_HWC_q7_RGB.c ****    *
  66:./Libraries/CMSIS/NN/Source/ConvolutionFunctions/arm_convolve_HWC_q7_RGB.c ****    * bufferA size: 2*ch_im_in*dim_kernel*dim_kernel
  67:./Libraries/CMSIS/NN/Source/ConvolutionFunctions/arm_convolve_HWC_q7_RGB.c ****    *
  68:./Libraries/CMSIS/NN/Source/ConvolutionFunctions/arm_convolve_HWC_q7_RGB.c ****    * bufferB size: 0
  69:./Libraries/CMSIS/NN/Source/ConvolutionFunctions/arm_convolve_HWC_q7_RGB.c ****    *
  70:./Libraries/CMSIS/NN/Source/ConvolutionFunctions/arm_convolve_HWC_q7_RGB.c ****    * <b>Input dimension constraints:</b>
  71:./Libraries/CMSIS/NN/Source/ConvolutionFunctions/arm_convolve_HWC_q7_RGB.c ****    *
  72:./Libraries/CMSIS/NN/Source/ConvolutionFunctions/arm_convolve_HWC_q7_RGB.c ****    * ch_im_in equals 3
  73:./Libraries/CMSIS/NN/Source/ConvolutionFunctions/arm_convolve_HWC_q7_RGB.c ****    *
  74:./Libraries/CMSIS/NN/Source/ConvolutionFunctions/arm_convolve_HWC_q7_RGB.c ****    * This kernel is written exclusively for convolution with ch_im_in
  75:./Libraries/CMSIS/NN/Source/ConvolutionFunctions/arm_convolve_HWC_q7_RGB.c ****    * equals 3. This applies on the first layer of CNNs which has input
  76:./Libraries/CMSIS/NN/Source/ConvolutionFunctions/arm_convolve_HWC_q7_RGB.c ****    * image with RGB format.
  77:./Libraries/CMSIS/NN/Source/ConvolutionFunctions/arm_convolve_HWC_q7_RGB.c ****    */
  78:./Libraries/CMSIS/NN/Source/ConvolutionFunctions/arm_convolve_HWC_q7_RGB.c **** 
  79:./Libraries/CMSIS/NN/Source/ConvolutionFunctions/arm_convolve_HWC_q7_RGB.c **** arm_status
  80:./Libraries/CMSIS/NN/Source/ConvolutionFunctions/arm_convolve_HWC_q7_RGB.c **** arm_convolve_HWC_q7_RGB(const q7_t * Im_in,
  81:./Libraries/CMSIS/NN/Source/ConvolutionFunctions/arm_convolve_HWC_q7_RGB.c ****                         const uint16_t dim_im_in,
  82:./Libraries/CMSIS/NN/Source/ConvolutionFunctions/arm_convolve_HWC_q7_RGB.c ****                         const uint16_t ch_im_in,
  83:./Libraries/CMSIS/NN/Source/ConvolutionFunctions/arm_convolve_HWC_q7_RGB.c ****                         const q7_t * wt,
  84:./Libraries/CMSIS/NN/Source/ConvolutionFunctions/arm_convolve_HWC_q7_RGB.c ****                         const uint16_t ch_im_out,
  85:./Libraries/CMSIS/NN/Source/ConvolutionFunctions/arm_convolve_HWC_q7_RGB.c ****                         const uint16_t dim_kernel,
  86:./Libraries/CMSIS/NN/Source/ConvolutionFunctions/arm_convolve_HWC_q7_RGB.c ****                         const uint16_t padding,
ARM GAS  /tmp/ccBb4BEn.s 			page 3


  87:./Libraries/CMSIS/NN/Source/ConvolutionFunctions/arm_convolve_HWC_q7_RGB.c ****                         const uint16_t stride,
  88:./Libraries/CMSIS/NN/Source/ConvolutionFunctions/arm_convolve_HWC_q7_RGB.c ****                         const q7_t * bias,
  89:./Libraries/CMSIS/NN/Source/ConvolutionFunctions/arm_convolve_HWC_q7_RGB.c ****                         const uint16_t bias_shift,
  90:./Libraries/CMSIS/NN/Source/ConvolutionFunctions/arm_convolve_HWC_q7_RGB.c ****                         const uint16_t out_shift,
  91:./Libraries/CMSIS/NN/Source/ConvolutionFunctions/arm_convolve_HWC_q7_RGB.c ****                         q7_t * Im_out, const uint16_t dim_im_out, q15_t * bufferA, q7_t * bufferB)
  92:./Libraries/CMSIS/NN/Source/ConvolutionFunctions/arm_convolve_HWC_q7_RGB.c **** {
  30              		.loc 1 92 1 view -0
  31              		.cfi_startproc
  32              		@ args = 44, pretend = 0, frame = 72
  33              		@ frame_needed = 0, uses_anonymous_args = 0
  34              		.loc 1 92 1 is_stmt 0 view .LVU1
  35 0000 2DE9F04F 		push	{r4, r5, r6, r7, r8, r9, r10, fp, lr}
  36              	.LCFI0:
  37              		.cfi_def_cfa_offset 36
  38              		.cfi_offset 4, -36
  39              		.cfi_offset 5, -32
  40              		.cfi_offset 6, -28
  41              		.cfi_offset 7, -24
  42              		.cfi_offset 8, -20
  43              		.cfi_offset 9, -16
  44              		.cfi_offset 10, -12
  45              		.cfi_offset 11, -8
  46              		.cfi_offset 14, -4
  47 0004 2DED028B 		vpush.64	{d8}
  48              	.LCFI1:
  49              		.cfi_def_cfa_offset 44
  50              		.cfi_offset 80, -44
  51              		.cfi_offset 81, -40
  52 0008 97B0     		sub	sp, sp, #92
  53              	.LCFI2:
  54              		.cfi_def_cfa_offset 136
  93:./Libraries/CMSIS/NN/Source/ConvolutionFunctions/arm_convolve_HWC_q7_RGB.c **** 
  94:./Libraries/CMSIS/NN/Source/ConvolutionFunctions/arm_convolve_HWC_q7_RGB.c **** #if defined (ARM_MATH_DSP)
  95:./Libraries/CMSIS/NN/Source/ConvolutionFunctions/arm_convolve_HWC_q7_RGB.c ****     /* Run the following code for Cortex-M4 and Cortex-M7 */
  96:./Libraries/CMSIS/NN/Source/ConvolutionFunctions/arm_convolve_HWC_q7_RGB.c ****     int16_t   i_out_y, i_out_x, i_ker_y, i_ker_x;
  97:./Libraries/CMSIS/NN/Source/ConvolutionFunctions/arm_convolve_HWC_q7_RGB.c **** 
  98:./Libraries/CMSIS/NN/Source/ConvolutionFunctions/arm_convolve_HWC_q7_RGB.c ****     /*
  99:./Libraries/CMSIS/NN/Source/ConvolutionFunctions/arm_convolve_HWC_q7_RGB.c ****      *  Here we use bufferA as q15_t internally as computation are done with q15_t level
 100:./Libraries/CMSIS/NN/Source/ConvolutionFunctions/arm_convolve_HWC_q7_RGB.c ****      *  im2col are done to output in q15_t format from q7_t input
 101:./Libraries/CMSIS/NN/Source/ConvolutionFunctions/arm_convolve_HWC_q7_RGB.c ****      */
 102:./Libraries/CMSIS/NN/Source/ConvolutionFunctions/arm_convolve_HWC_q7_RGB.c ****     q15_t    *pBuffer = bufferA;
 103:./Libraries/CMSIS/NN/Source/ConvolutionFunctions/arm_convolve_HWC_q7_RGB.c ****     q7_t     *pOut = Im_out;
 104:./Libraries/CMSIS/NN/Source/ConvolutionFunctions/arm_convolve_HWC_q7_RGB.c **** 
 105:./Libraries/CMSIS/NN/Source/ConvolutionFunctions/arm_convolve_HWC_q7_RGB.c ****     // check if number of input channels is 3
 106:./Libraries/CMSIS/NN/Source/ConvolutionFunctions/arm_convolve_HWC_q7_RGB.c ****     if (ch_im_in != 3)
  55              		.loc 1 106 8 view .LVU2
  56 000a 032A     		cmp	r2, #3
  92:./Libraries/CMSIS/NN/Source/ConvolutionFunctions/arm_convolve_HWC_q7_RGB.c **** 
  57              		.loc 1 92 1 view .LVU3
  58 000c 1093     		str	r3, [sp, #64]
  59 000e BDF88830 		ldrh	r3, [sp, #136]
  60              	.LVL1:
  92:./Libraries/CMSIS/NN/Source/ConvolutionFunctions/arm_convolve_HWC_q7_RGB.c **** 
  61              		.loc 1 92 1 view .LVU4
  62 0012 0590     		str	r0, [sp, #20]
  63 0014 1193     		str	r3, [sp, #68]
  64 0016 BDF88C30 		ldrh	r3, [sp, #140]
ARM GAS  /tmp/ccBb4BEn.s 			page 4


  65 001a 0993     		str	r3, [sp, #36]
  66 001c BDF89030 		ldrh	r3, [sp, #144]
  67 0020 0A93     		str	r3, [sp, #40]
  68 0022 BDF89430 		ldrh	r3, [sp, #148]
  69 0026 0793     		str	r3, [sp, #28]
  96:./Libraries/CMSIS/NN/Source/ConvolutionFunctions/arm_convolve_HWC_q7_RGB.c **** 
  70              		.loc 1 96 5 is_stmt 1 view .LVU5
 102:./Libraries/CMSIS/NN/Source/ConvolutionFunctions/arm_convolve_HWC_q7_RGB.c ****     q7_t     *pOut = Im_out;
  71              		.loc 1 102 5 view .LVU6
  72              	.LVL2:
 103:./Libraries/CMSIS/NN/Source/ConvolutionFunctions/arm_convolve_HWC_q7_RGB.c **** 
  73              		.loc 1 103 5 view .LVU7
  74              		.loc 1 106 5 view .LVU8
  92:./Libraries/CMSIS/NN/Source/ConvolutionFunctions/arm_convolve_HWC_q7_RGB.c **** 
  75              		.loc 1 92 1 is_stmt 0 view .LVU9
  76 0028 BDF89C30 		ldrh	r3, [sp, #156]
  77 002c 1293     		str	r3, [sp, #72]
  78 002e BDF8A030 		ldrh	r3, [sp, #160]
  79 0032 0E93     		str	r3, [sp, #56]
  80 0034 BDF8A830 		ldrh	r3, [sp, #168]
  81 0038 0B93     		str	r3, [sp, #44]
  82              		.loc 1 106 8 view .LVU10
  83 003a 40F02381 		bne	.L22
  84              	.LVL3:
 107:./Libraries/CMSIS/NN/Source/ConvolutionFunctions/arm_convolve_HWC_q7_RGB.c ****     {
 108:./Libraries/CMSIS/NN/Source/ConvolutionFunctions/arm_convolve_HWC_q7_RGB.c ****         return ARM_MATH_SIZE_MISMATCH;
 109:./Libraries/CMSIS/NN/Source/ConvolutionFunctions/arm_convolve_HWC_q7_RGB.c ****     }
 110:./Libraries/CMSIS/NN/Source/ConvolutionFunctions/arm_convolve_HWC_q7_RGB.c ****     // This part implements the im2col function
 111:./Libraries/CMSIS/NN/Source/ConvolutionFunctions/arm_convolve_HWC_q7_RGB.c ****     for (i_out_y = 0; i_out_y < dim_im_out; i_out_y++)
  85              		.loc 1 111 23 is_stmt 1 view .LVU11
  86              		.loc 1 111 5 is_stmt 0 view .LVU12
  87 003e 002B     		cmp	r3, #0
  88 0040 00F0E780 		beq	.L16
 112:./Libraries/CMSIS/NN/Source/ConvolutionFunctions/arm_convolve_HWC_q7_RGB.c ****     {
 113:./Libraries/CMSIS/NN/Source/ConvolutionFunctions/arm_convolve_HWC_q7_RGB.c ****         for (i_out_x = 0; i_out_x < dim_im_out; i_out_x++)
 114:./Libraries/CMSIS/NN/Source/ConvolutionFunctions/arm_convolve_HWC_q7_RGB.c ****         {
 115:./Libraries/CMSIS/NN/Source/ConvolutionFunctions/arm_convolve_HWC_q7_RGB.c ****             for (i_ker_y = i_out_y * stride - padding; i_ker_y < i_out_y * stride - padding + dim_k
 116:./Libraries/CMSIS/NN/Source/ConvolutionFunctions/arm_convolve_HWC_q7_RGB.c ****             {
 117:./Libraries/CMSIS/NN/Source/ConvolutionFunctions/arm_convolve_HWC_q7_RGB.c ****                 for (i_ker_x = i_out_x * stride - padding; i_ker_x < i_out_x * stride - padding + d
 118:./Libraries/CMSIS/NN/Source/ConvolutionFunctions/arm_convolve_HWC_q7_RGB.c ****                 {
 119:./Libraries/CMSIS/NN/Source/ConvolutionFunctions/arm_convolve_HWC_q7_RGB.c ****                     if (i_ker_y < 0 || i_ker_y >= dim_im_in || i_ker_x < 0 || i_ker_x >= dim_im_in)
 120:./Libraries/CMSIS/NN/Source/ConvolutionFunctions/arm_convolve_HWC_q7_RGB.c ****                     {
 121:./Libraries/CMSIS/NN/Source/ConvolutionFunctions/arm_convolve_HWC_q7_RGB.c ****                         /* Equivalent to arm_fill_q15(0, pBuffer, ch_im_in) with assumption: ch_im_
 122:./Libraries/CMSIS/NN/Source/ConvolutionFunctions/arm_convolve_HWC_q7_RGB.c ****                         *__SIMD32(pBuffer) = 0x0;
 123:./Libraries/CMSIS/NN/Source/ConvolutionFunctions/arm_convolve_HWC_q7_RGB.c ****                         *(pBuffer + 2) = 0;
 124:./Libraries/CMSIS/NN/Source/ConvolutionFunctions/arm_convolve_HWC_q7_RGB.c ****                         pBuffer += 3;
 125:./Libraries/CMSIS/NN/Source/ConvolutionFunctions/arm_convolve_HWC_q7_RGB.c ****                     } else
 126:./Libraries/CMSIS/NN/Source/ConvolutionFunctions/arm_convolve_HWC_q7_RGB.c ****                     {
 127:./Libraries/CMSIS/NN/Source/ConvolutionFunctions/arm_convolve_HWC_q7_RGB.c ****                         /* 
 128:./Libraries/CMSIS/NN/Source/ConvolutionFunctions/arm_convolve_HWC_q7_RGB.c ****                          * Equivalent to:
 129:./Libraries/CMSIS/NN/Source/ConvolutionFunctions/arm_convolve_HWC_q7_RGB.c ****                          *  arm_q7_to_q15_no_shift( (q7_t*)Im_in+(i_ker_y*dim_im_in+i_ker_x)*3, pBu
 130:./Libraries/CMSIS/NN/Source/ConvolutionFunctions/arm_convolve_HWC_q7_RGB.c ****                          */
 131:./Libraries/CMSIS/NN/Source/ConvolutionFunctions/arm_convolve_HWC_q7_RGB.c **** 
 132:./Libraries/CMSIS/NN/Source/ConvolutionFunctions/arm_convolve_HWC_q7_RGB.c ****                         const q7_t *pPixel = Im_in + (i_ker_y * dim_im_in + i_ker_x) * 3;
 133:./Libraries/CMSIS/NN/Source/ConvolutionFunctions/arm_convolve_HWC_q7_RGB.c ****                         q31_t     buf = *__SIMD32(pPixel);
 134:./Libraries/CMSIS/NN/Source/ConvolutionFunctions/arm_convolve_HWC_q7_RGB.c **** 
 135:./Libraries/CMSIS/NN/Source/ConvolutionFunctions/arm_convolve_HWC_q7_RGB.c ****                         union arm_nnword top;
ARM GAS  /tmp/ccBb4BEn.s 			page 5


 136:./Libraries/CMSIS/NN/Source/ConvolutionFunctions/arm_convolve_HWC_q7_RGB.c ****                         union arm_nnword bottom;
 137:./Libraries/CMSIS/NN/Source/ConvolutionFunctions/arm_convolve_HWC_q7_RGB.c **** 
 138:./Libraries/CMSIS/NN/Source/ConvolutionFunctions/arm_convolve_HWC_q7_RGB.c ****                         top.word = __SXTB16(buf);
 139:./Libraries/CMSIS/NN/Source/ConvolutionFunctions/arm_convolve_HWC_q7_RGB.c ****                         bottom.word = __SXTB16(__ROR(buf, 8));
 140:./Libraries/CMSIS/NN/Source/ConvolutionFunctions/arm_convolve_HWC_q7_RGB.c **** 
 141:./Libraries/CMSIS/NN/Source/ConvolutionFunctions/arm_convolve_HWC_q7_RGB.c **** #ifndef ARM_MATH_BIG_ENDIAN
 142:./Libraries/CMSIS/NN/Source/ConvolutionFunctions/arm_convolve_HWC_q7_RGB.c ****                         /*
 143:./Libraries/CMSIS/NN/Source/ConvolutionFunctions/arm_convolve_HWC_q7_RGB.c ****                          *  little-endian, | omit | 3rd  | 2nd  | 1st  |
 144:./Libraries/CMSIS/NN/Source/ConvolutionFunctions/arm_convolve_HWC_q7_RGB.c ****                          *                MSB                         LSB
 145:./Libraries/CMSIS/NN/Source/ConvolutionFunctions/arm_convolve_HWC_q7_RGB.c ****                          *   top | 3rd | 1st |; bottom | omit | 2nd |
 146:./Libraries/CMSIS/NN/Source/ConvolutionFunctions/arm_convolve_HWC_q7_RGB.c ****                          *
 147:./Libraries/CMSIS/NN/Source/ConvolutionFunctions/arm_convolve_HWC_q7_RGB.c ****                          *  version 1, need to swap 2nd and 3rd weight
 148:./Libraries/CMSIS/NN/Source/ConvolutionFunctions/arm_convolve_HWC_q7_RGB.c ****                          * *__SIMD32(pBuffer) = top.word;
 149:./Libraries/CMSIS/NN/Source/ConvolutionFunctions/arm_convolve_HWC_q7_RGB.c ****                          * *(pBuffer+2) = bottom.half_words[0];
 150:./Libraries/CMSIS/NN/Source/ConvolutionFunctions/arm_convolve_HWC_q7_RGB.c ****                          *
 151:./Libraries/CMSIS/NN/Source/ConvolutionFunctions/arm_convolve_HWC_q7_RGB.c ****                          *  version 2, no weight shuffling required
 152:./Libraries/CMSIS/NN/Source/ConvolutionFunctions/arm_convolve_HWC_q7_RGB.c ****                          */
 153:./Libraries/CMSIS/NN/Source/ConvolutionFunctions/arm_convolve_HWC_q7_RGB.c ****                         *pBuffer++ = top.half_words[0];
 154:./Libraries/CMSIS/NN/Source/ConvolutionFunctions/arm_convolve_HWC_q7_RGB.c ****                         *__SIMD32(pBuffer) = __PKHBT(bottom.word, top.word, 0);
 155:./Libraries/CMSIS/NN/Source/ConvolutionFunctions/arm_convolve_HWC_q7_RGB.c **** #else
 156:./Libraries/CMSIS/NN/Source/ConvolutionFunctions/arm_convolve_HWC_q7_RGB.c ****                         /*
 157:./Libraries/CMSIS/NN/Source/ConvolutionFunctions/arm_convolve_HWC_q7_RGB.c ****                          *  big-endian,    | 1st  | 2nd  | 3rd  | omit | 
 158:./Libraries/CMSIS/NN/Source/ConvolutionFunctions/arm_convolve_HWC_q7_RGB.c ****                          *                MSB                         LSB
 159:./Libraries/CMSIS/NN/Source/ConvolutionFunctions/arm_convolve_HWC_q7_RGB.c ****                          *  top | 2nd | omit |; bottom | 1st | 3rd |
 160:./Libraries/CMSIS/NN/Source/ConvolutionFunctions/arm_convolve_HWC_q7_RGB.c ****                          * 
 161:./Libraries/CMSIS/NN/Source/ConvolutionFunctions/arm_convolve_HWC_q7_RGB.c ****                          *  version 1, need to swap 2nd and 3rd weight
 162:./Libraries/CMSIS/NN/Source/ConvolutionFunctions/arm_convolve_HWC_q7_RGB.c ****                          * *__SIMD32(pBuffer) = bottom.word;
 163:./Libraries/CMSIS/NN/Source/ConvolutionFunctions/arm_convolve_HWC_q7_RGB.c ****                          * *(pBuffer+2) = top.half_words[1];
 164:./Libraries/CMSIS/NN/Source/ConvolutionFunctions/arm_convolve_HWC_q7_RGB.c ****                          * 
 165:./Libraries/CMSIS/NN/Source/ConvolutionFunctions/arm_convolve_HWC_q7_RGB.c ****                          *  version 2, no weight shuffling required
 166:./Libraries/CMSIS/NN/Source/ConvolutionFunctions/arm_convolve_HWC_q7_RGB.c ****                          */
 167:./Libraries/CMSIS/NN/Source/ConvolutionFunctions/arm_convolve_HWC_q7_RGB.c ****                         *pBuffer++ = bottom.half_words[0];
 168:./Libraries/CMSIS/NN/Source/ConvolutionFunctions/arm_convolve_HWC_q7_RGB.c ****                         *__SIMD32(pBuffer) = __PKHTB(top.word, bottom.word, 0);
 169:./Libraries/CMSIS/NN/Source/ConvolutionFunctions/arm_convolve_HWC_q7_RGB.c **** #endif
 170:./Libraries/CMSIS/NN/Source/ConvolutionFunctions/arm_convolve_HWC_q7_RGB.c ****                         pBuffer += 2;
 171:./Libraries/CMSIS/NN/Source/ConvolutionFunctions/arm_convolve_HWC_q7_RGB.c ****                     }
 172:./Libraries/CMSIS/NN/Source/ConvolutionFunctions/arm_convolve_HWC_q7_RGB.c ****                 }
 173:./Libraries/CMSIS/NN/Source/ConvolutionFunctions/arm_convolve_HWC_q7_RGB.c ****             }
 174:./Libraries/CMSIS/NN/Source/ConvolutionFunctions/arm_convolve_HWC_q7_RGB.c **** 
 175:./Libraries/CMSIS/NN/Source/ConvolutionFunctions/arm_convolve_HWC_q7_RGB.c ****             if (pBuffer == bufferA + 2 * 3 * dim_kernel * dim_kernel)
  89              		.loc 1 175 57 view .LVU13
  90 0044 099B     		ldr	r3, [sp, #36]
  91 0046 0E46     		mov	r6, r1
  92 0048 0A9A     		ldr	r2, [sp, #40]
  93              	.LVL4:
  94              		.loc 1 175 57 view .LVU14
  95 004a 03FB03F1 		mul	r1, r3, r3
  96              	.LVL5:
 176:./Libraries/CMSIS/NN/Source/ConvolutionFunctions/arm_convolve_HWC_q7_RGB.c ****             {
 177:./Libraries/CMSIS/NN/Source/ConvolutionFunctions/arm_convolve_HWC_q7_RGB.c ****                 pOut =
 178:./Libraries/CMSIS/NN/Source/ConvolutionFunctions/arm_convolve_HWC_q7_RGB.c ****                     arm_nn_mat_mult_kernel_q7_q15(wt, bufferA,
  97              		.loc 1 178 21 view .LVU15
  98 004e DDF8AC90 		ldr	r9, [sp, #172]
  99 0052 5442     		rsbs	r4, r2, #0
 100 0054 13FB03F2 		smulbb	r2, r3, r3
 175:./Libraries/CMSIS/NN/Source/ConvolutionFunctions/arm_convolve_HWC_q7_RGB.c ****             {
 101              		.loc 1 175 36 view .LVU16
ARM GAS  /tmp/ccBb4BEn.s 			page 6


 102 0058 01EB4100 		add	r0, r1, r1, lsl #1
 103              	.LVL6:
 111:./Libraries/CMSIS/NN/Source/ConvolutionFunctions/arm_convolve_HWC_q7_RGB.c ****     {
 104              		.loc 1 111 18 view .LVU17
 105 005c 0023     		movs	r3, #0
 106 005e A4B2     		uxth	r4, r4
 107              		.loc 1 178 21 view .LVU18
 108 0060 02EB4202 		add	r2, r2, r2, lsl #1
 175:./Libraries/CMSIS/NN/Source/ConvolutionFunctions/arm_convolve_HWC_q7_RGB.c ****             {
 109              		.loc 1 175 57 view .LVU19
 110 0064 1591     		str	r1, [sp, #84]
 175:./Libraries/CMSIS/NN/Source/ConvolutionFunctions/arm_convolve_HWC_q7_RGB.c ****             {
 111              		.loc 1 175 36 view .LVU20
 112 0066 09EB8000 		add	r0, r9, r0, lsl #2
 111:./Libraries/CMSIS/NN/Source/ConvolutionFunctions/arm_convolve_HWC_q7_RGB.c ****     {
 113              		.loc 1 111 31 view .LVU21
 114 006a 1946     		mov	r1, r3
 115              		.loc 1 178 21 view .LVU22
 116 006c 92B2     		uxth	r2, r2
 113:./Libraries/CMSIS/NN/Source/ConvolutionFunctions/arm_convolve_HWC_q7_RGB.c ****         {
 117              		.loc 1 113 22 view .LVU23
 118 006e 1F46     		mov	r7, r3
 119 0070 1394     		str	r4, [sp, #76]
 120              		.loc 1 178 21 view .LVU24
 121 0072 08EE102A 		vmov	s16, r2	@ int
 175:./Libraries/CMSIS/NN/Source/ConvolutionFunctions/arm_convolve_HWC_q7_RGB.c ****             {
 122              		.loc 1 175 36 view .LVU25
 123 0076 0C90     		str	r0, [sp, #48]
 124              		.loc 1 178 21 view .LVU26
 125 0078 0F94     		str	r4, [sp, #60]
 126              	.LVL7:
 127              	.L4:
 113:./Libraries/CMSIS/NN/Source/ConvolutionFunctions/arm_convolve_HWC_q7_RGB.c ****         {
 128              		.loc 1 113 27 is_stmt 1 view .LVU27
 129 007a 9BB2     		uxth	r3, r3
 115:./Libraries/CMSIS/NN/Source/ConvolutionFunctions/arm_convolve_HWC_q7_RGB.c ****             {
 130              		.loc 1 115 83 is_stmt 0 view .LVU28
 131 007c 079A     		ldr	r2, [sp, #28]
 132 007e 0998     		ldr	r0, [sp, #36]
 113:./Libraries/CMSIS/NN/Source/ConvolutionFunctions/arm_convolve_HWC_q7_RGB.c ****         {
 133              		.loc 1 113 22 view .LVU29
 134 0080 0024     		movs	r4, #0
 135 0082 1493     		str	r3, [sp, #80]
 115:./Libraries/CMSIS/NN/Source/ConvolutionFunctions/arm_convolve_HWC_q7_RGB.c ****             {
 136              		.loc 1 115 93 view .LVU30
 137 0084 139B     		ldr	r3, [sp, #76]
 138              	.LVL8:
 115:./Libraries/CMSIS/NN/Source/ConvolutionFunctions/arm_convolve_HWC_q7_RGB.c ****             {
 139              		.loc 1 115 83 view .LVU31
 140 0086 01FB0201 		mla	r1, r1, r2, r0
 113:./Libraries/CMSIS/NN/Source/ConvolutionFunctions/arm_convolve_HWC_q7_RGB.c ****         {
 141              		.loc 1 113 22 view .LVU32
 142 008a 0894     		str	r4, [sp, #32]
 115:./Libraries/CMSIS/NN/Source/ConvolutionFunctions/arm_convolve_HWC_q7_RGB.c ****             {
 143              		.loc 1 115 93 view .LVU33
 144 008c 0693     		str	r3, [sp, #24]
 145 008e 0A9B     		ldr	r3, [sp, #40]
ARM GAS  /tmp/ccBb4BEn.s 			page 7


 146 0090 CD1A     		subs	r5, r1, r3
 115:./Libraries/CMSIS/NN/Source/ConvolutionFunctions/arm_convolve_HWC_q7_RGB.c ****             {
 147              		.loc 1 115 26 view .LVU34
 148 0092 BDF93C30 		ldrsh	r3, [sp, #60]
 149 0096 0D93     		str	r3, [sp, #52]
 150              	.LVL9:
 151              	.L14:
 115:./Libraries/CMSIS/NN/Source/ConvolutionFunctions/arm_convolve_HWC_q7_RGB.c ****             {
 152              		.loc 1 115 13 is_stmt 1 view .LVU35
 115:./Libraries/CMSIS/NN/Source/ConvolutionFunctions/arm_convolve_HWC_q7_RGB.c ****             {
 153              		.loc 1 115 56 view .LVU36
 115:./Libraries/CMSIS/NN/Source/ConvolutionFunctions/arm_convolve_HWC_q7_RGB.c ****             {
 154              		.loc 1 115 13 is_stmt 0 view .LVU37
 155 0098 0D9B     		ldr	r3, [sp, #52]
 156 009a AB42     		cmp	r3, r5
 157 009c 2EDA     		bge	.L5
 117:./Libraries/CMSIS/NN/Source/ConvolutionFunctions/arm_convolve_HWC_q7_RGB.c ****                 {
 158              		.loc 1 117 87 view .LVU38
 159 009e 079A     		ldr	r2, [sp, #28]
 115:./Libraries/CMSIS/NN/Source/ConvolutionFunctions/arm_convolve_HWC_q7_RGB.c ****             {
 160              		.loc 1 115 26 view .LVU39
 161 00a0 1846     		mov	r0, r3
 117:./Libraries/CMSIS/NN/Source/ConvolutionFunctions/arm_convolve_HWC_q7_RGB.c ****                 {
 162              		.loc 1 117 87 view .LVU40
 163 00a2 0999     		ldr	r1, [sp, #36]
 117:./Libraries/CMSIS/NN/Source/ConvolutionFunctions/arm_convolve_HWC_q7_RGB.c ****                 {
 164              		.loc 1 117 97 view .LVU41
 165 00a4 9E46     		mov	lr, r3
 166 00a6 0A9B     		ldr	r3, [sp, #40]
 117:./Libraries/CMSIS/NN/Source/ConvolutionFunctions/arm_convolve_HWC_q7_RGB.c ****                 {
 167              		.loc 1 117 87 view .LVU42
 168 00a8 04FB0214 		mla	r4, r4, r2, r1
 117:./Libraries/CMSIS/NN/Source/ConvolutionFunctions/arm_convolve_HWC_q7_RGB.c ****                 {
 169              		.loc 1 117 30 view .LVU43
 170 00ac BDF91880 		ldrsh	r8, [sp, #24]
 117:./Libraries/CMSIS/NN/Source/ConvolutionFunctions/arm_convolve_HWC_q7_RGB.c ****                 {
 171              		.loc 1 117 97 view .LVU44
 172 00b0 E41A     		subs	r4, r4, r3
 173              	.LVL10:
 174              	.L12:
 117:./Libraries/CMSIS/NN/Source/ConvolutionFunctions/arm_convolve_HWC_q7_RGB.c ****                 {
 175              		.loc 1 117 17 is_stmt 1 view .LVU45
 117:./Libraries/CMSIS/NN/Source/ConvolutionFunctions/arm_convolve_HWC_q7_RGB.c ****                 {
 176              		.loc 1 117 60 view .LVU46
 117:./Libraries/CMSIS/NN/Source/ConvolutionFunctions/arm_convolve_HWC_q7_RGB.c ****                 {
 177              		.loc 1 117 17 is_stmt 0 view .LVU47
 178 00b2 A045     		cmp	r8, r4
 179 00b4 1DDA     		bge	.L6
 117:./Libraries/CMSIS/NN/Source/ConvolutionFunctions/arm_convolve_HWC_q7_RGB.c ****                 {
 180              		.loc 1 117 17 view .LVU48
 181 00b6 4A46     		mov	r2, r9
 182              	.LBB32:
 132:./Libraries/CMSIS/NN/Source/ConvolutionFunctions/arm_convolve_HWC_q7_RGB.c ****                         q31_t     buf = *__SIMD32(pPixel);
 183              		.loc 1 132 63 view .LVU49
 184 00b8 0EFB06FA 		mul	r10, lr, r6
 185              	.LBE32:
 117:./Libraries/CMSIS/NN/Source/ConvolutionFunctions/arm_convolve_HWC_q7_RGB.c ****                 {
ARM GAS  /tmp/ccBb4BEn.s 			page 8


 186              		.loc 1 117 30 view .LVU50
 187 00bc 4346     		mov	r3, r8
 188              	.LBB43:
 132:./Libraries/CMSIS/NN/Source/ConvolutionFunctions/arm_convolve_HWC_q7_RGB.c ****                         q31_t     buf = *__SIMD32(pPixel);
 189              		.loc 1 132 63 view .LVU51
 190 00be C446     		mov	ip, r8
 191              	.LVL11:
 192              	.L11:
 132:./Libraries/CMSIS/NN/Source/ConvolutionFunctions/arm_convolve_HWC_q7_RGB.c ****                         q31_t     buf = *__SIMD32(pPixel);
 193              		.loc 1 132 63 view .LVU52
 194              	.LBE43:
 119:./Libraries/CMSIS/NN/Source/ConvolutionFunctions/arm_convolve_HWC_q7_RGB.c ****                     {
 195              		.loc 1 119 21 is_stmt 1 view .LVU53
 122:./Libraries/CMSIS/NN/Source/ConvolutionFunctions/arm_convolve_HWC_q7_RGB.c ****                         *(pBuffer + 2) = 0;
 196              		.loc 1 122 25 view .LVU54
 119:./Libraries/CMSIS/NN/Source/ConvolutionFunctions/arm_convolve_HWC_q7_RGB.c ****                     {
 197              		.loc 1 119 24 is_stmt 0 view .LVU55
 198 00c0 0028     		cmp	r0, #0
 199 00c2 02F10601 		add	r1, r2, #6
 200 00c6 0BDB     		blt	.L7
 119:./Libraries/CMSIS/NN/Source/ConvolutionFunctions/arm_convolve_HWC_q7_RGB.c ****                     {
 201              		.loc 1 119 76 discriminator 1 view .LVU56
 202 00c8 6645     		cmp	r6, ip
 203 00ca CCBF     		ite	gt
 204 00cc 4FF00009 		movgt	r9, #0
 205 00d0 4FF00109 		movle	r9, #1
 206 00d4 59EAD379 		orrs	r9, r9, r3, lsr #31
 207 00d8 02D1     		bne	.L7
 208 00da 7645     		cmp	r6, lr
 209 00dc 00F39F80 		bgt	.L8
 210              	.L7:
 211 00e0 8946     		mov	r9, r1
 122:./Libraries/CMSIS/NN/Source/ConvolutionFunctions/arm_convolve_HWC_q7_RGB.c ****                         *(pBuffer + 2) = 0;
 212              		.loc 1 122 44 view .LVU57
 213 00e2 1760     		str	r7, [r2]
 123:./Libraries/CMSIS/NN/Source/ConvolutionFunctions/arm_convolve_HWC_q7_RGB.c ****                         pBuffer += 3;
 214              		.loc 1 123 25 is_stmt 1 view .LVU58
 123:./Libraries/CMSIS/NN/Source/ConvolutionFunctions/arm_convolve_HWC_q7_RGB.c ****                         pBuffer += 3;
 215              		.loc 1 123 40 is_stmt 0 view .LVU59
 216 00e4 9780     		strh	r7, [r2, #4]	@ movhi
 124:./Libraries/CMSIS/NN/Source/ConvolutionFunctions/arm_convolve_HWC_q7_RGB.c ****                     } else
 217              		.loc 1 124 25 is_stmt 1 view .LVU60
 218              	.LVL12:
 219              	.L10:
 117:./Libraries/CMSIS/NN/Source/ConvolutionFunctions/arm_convolve_HWC_q7_RGB.c ****                 {
 220              		.loc 1 117 111 discriminator 2 view .LVU61
 221 00e6 0133     		adds	r3, r3, #1
 222              	.LVL13:
 117:./Libraries/CMSIS/NN/Source/ConvolutionFunctions/arm_convolve_HWC_q7_RGB.c ****                 {
 223              		.loc 1 117 111 is_stmt 0 discriminator 2 view .LVU62
 224 00e8 0A46     		mov	r2, r1
 225 00ea 1BB2     		sxth	r3, r3
 226              	.LVL14:
 117:./Libraries/CMSIS/NN/Source/ConvolutionFunctions/arm_convolve_HWC_q7_RGB.c ****                 {
 227              		.loc 1 117 60 is_stmt 1 discriminator 2 view .LVU63
 117:./Libraries/CMSIS/NN/Source/ConvolutionFunctions/arm_convolve_HWC_q7_RGB.c ****                 {
 228              		.loc 1 117 17 is_stmt 0 discriminator 2 view .LVU64
ARM GAS  /tmp/ccBb4BEn.s 			page 9


 229 00ec A342     		cmp	r3, r4
 117:./Libraries/CMSIS/NN/Source/ConvolutionFunctions/arm_convolve_HWC_q7_RGB.c ****                 {
 230              		.loc 1 117 68 discriminator 2 view .LVU65
 231 00ee 9C46     		mov	ip, r3
 117:./Libraries/CMSIS/NN/Source/ConvolutionFunctions/arm_convolve_HWC_q7_RGB.c ****                 {
 232              		.loc 1 117 17 discriminator 2 view .LVU66
 233 00f0 E6DB     		blt	.L11
 234              	.LVL15:
 235              	.L6:
 115:./Libraries/CMSIS/NN/Source/ConvolutionFunctions/arm_convolve_HWC_q7_RGB.c ****             {
 236              		.loc 1 115 107 is_stmt 1 discriminator 2 view .LVU67
 237 00f2 0130     		adds	r0, r0, #1
 238              	.LVL16:
 115:./Libraries/CMSIS/NN/Source/ConvolutionFunctions/arm_convolve_HWC_q7_RGB.c ****             {
 239              		.loc 1 115 107 is_stmt 0 discriminator 2 view .LVU68
 240 00f4 00B2     		sxth	r0, r0
 241              	.LVL17:
 115:./Libraries/CMSIS/NN/Source/ConvolutionFunctions/arm_convolve_HWC_q7_RGB.c ****             {
 242              		.loc 1 115 56 is_stmt 1 discriminator 2 view .LVU69
 115:./Libraries/CMSIS/NN/Source/ConvolutionFunctions/arm_convolve_HWC_q7_RGB.c ****             {
 243              		.loc 1 115 13 is_stmt 0 discriminator 2 view .LVU70
 244 00f6 A842     		cmp	r0, r5
 115:./Libraries/CMSIS/NN/Source/ConvolutionFunctions/arm_convolve_HWC_q7_RGB.c ****             {
 245              		.loc 1 115 64 discriminator 2 view .LVU71
 246 00f8 8646     		mov	lr, r0
 115:./Libraries/CMSIS/NN/Source/ConvolutionFunctions/arm_convolve_HWC_q7_RGB.c ****             {
 247              		.loc 1 115 13 discriminator 2 view .LVU72
 248 00fa DADB     		blt	.L12
 249              	.LVL18:
 250              	.L5:
 175:./Libraries/CMSIS/NN/Source/ConvolutionFunctions/arm_convolve_HWC_q7_RGB.c ****             {
 251              		.loc 1 175 13 is_stmt 1 view .LVU73
 175:./Libraries/CMSIS/NN/Source/ConvolutionFunctions/arm_convolve_HWC_q7_RGB.c ****             {
 252              		.loc 1 175 16 is_stmt 0 view .LVU74
 253 00fc 0C9B     		ldr	r3, [sp, #48]
 254 00fe 4B45     		cmp	r3, r9
 255 0100 00F0A880 		beq	.L36
 256              	.L13:
 113:./Libraries/CMSIS/NN/Source/ConvolutionFunctions/arm_convolve_HWC_q7_RGB.c ****         {
 257              		.loc 1 113 49 is_stmt 1 discriminator 2 view .LVU75
 258 0104 089A     		ldr	r2, [sp, #32]
 259 0106 DDE90631 		ldrd	r3, r1, [sp, #24]
 260 010a 0132     		adds	r2, r2, #1
 261 010c 0B44     		add	r3, r3, r1
 262 010e 12B2     		sxth	r2, r2
 263 0110 9BB2     		uxth	r3, r3
 113:./Libraries/CMSIS/NN/Source/ConvolutionFunctions/arm_convolve_HWC_q7_RGB.c ****         {
 264              		.loc 1 113 35 is_stmt 0 discriminator 2 view .LVU76
 265 0112 1446     		mov	r4, r2
 266 0114 0892     		str	r2, [sp, #32]
 267              	.LVL19:
 113:./Libraries/CMSIS/NN/Source/ConvolutionFunctions/arm_convolve_HWC_q7_RGB.c ****         {
 268              		.loc 1 113 27 is_stmt 1 discriminator 2 view .LVU77
 269 0116 0693     		str	r3, [sp, #24]
 113:./Libraries/CMSIS/NN/Source/ConvolutionFunctions/arm_convolve_HWC_q7_RGB.c ****         {
 270              		.loc 1 113 9 is_stmt 0 discriminator 2 view .LVU78
 271 0118 0B9B     		ldr	r3, [sp, #44]
ARM GAS  /tmp/ccBb4BEn.s 			page 10


 272 011a 9A42     		cmp	r2, r3
 273 011c BCDB     		blt	.L14
 111:./Libraries/CMSIS/NN/Source/ConvolutionFunctions/arm_convolve_HWC_q7_RGB.c ****     {
 274              		.loc 1 111 45 is_stmt 1 discriminator 2 view .LVU79
 275 011e 0F9A     		ldr	r2, [sp, #60]
 276              	.LVL20:
 111:./Libraries/CMSIS/NN/Source/ConvolutionFunctions/arm_convolve_HWC_q7_RGB.c ****     {
 277              		.loc 1 111 45 is_stmt 0 discriminator 2 view .LVU80
 278 0120 149B     		ldr	r3, [sp, #80]
 279 0122 0A44     		add	r2, r2, r1
 280 0124 0133     		adds	r3, r3, #1
 281 0126 92B2     		uxth	r2, r2
 282 0128 1BB2     		sxth	r3, r3
 283              	.LVL21:
 111:./Libraries/CMSIS/NN/Source/ConvolutionFunctions/arm_convolve_HWC_q7_RGB.c ****     {
 284              		.loc 1 111 23 is_stmt 1 discriminator 2 view .LVU81
 285 012a 0F92     		str	r2, [sp, #60]
 111:./Libraries/CMSIS/NN/Source/ConvolutionFunctions/arm_convolve_HWC_q7_RGB.c ****     {
 286              		.loc 1 111 5 is_stmt 0 discriminator 2 view .LVU82
 287 012c 0B9A     		ldr	r2, [sp, #44]
 111:./Libraries/CMSIS/NN/Source/ConvolutionFunctions/arm_convolve_HWC_q7_RGB.c ****     {
 288              		.loc 1 111 31 discriminator 2 view .LVU83
 289 012e 1946     		mov	r1, r3
 111:./Libraries/CMSIS/NN/Source/ConvolutionFunctions/arm_convolve_HWC_q7_RGB.c ****     {
 290              		.loc 1 111 5 discriminator 2 view .LVU84
 291 0130 9342     		cmp	r3, r2
 292 0132 A2DB     		blt	.L4
 179:./Libraries/CMSIS/NN/Source/ConvolutionFunctions/arm_convolve_HWC_q7_RGB.c ****                                                   ch_im_out,
 180:./Libraries/CMSIS/NN/Source/ConvolutionFunctions/arm_convolve_HWC_q7_RGB.c ****                                                   3 * dim_kernel * dim_kernel, bias_shift, out_shif
 181:./Libraries/CMSIS/NN/Source/ConvolutionFunctions/arm_convolve_HWC_q7_RGB.c **** 
 182:./Libraries/CMSIS/NN/Source/ConvolutionFunctions/arm_convolve_HWC_q7_RGB.c ****                 /* counter reset */
 183:./Libraries/CMSIS/NN/Source/ConvolutionFunctions/arm_convolve_HWC_q7_RGB.c ****                 pBuffer = bufferA;
 184:./Libraries/CMSIS/NN/Source/ConvolutionFunctions/arm_convolve_HWC_q7_RGB.c ****             }
 185:./Libraries/CMSIS/NN/Source/ConvolutionFunctions/arm_convolve_HWC_q7_RGB.c ****         }
 186:./Libraries/CMSIS/NN/Source/ConvolutionFunctions/arm_convolve_HWC_q7_RGB.c ****     }
 187:./Libraries/CMSIS/NN/Source/ConvolutionFunctions/arm_convolve_HWC_q7_RGB.c **** 
 188:./Libraries/CMSIS/NN/Source/ConvolutionFunctions/arm_convolve_HWC_q7_RGB.c ****     /* left-over because odd number of output pixels */
 189:./Libraries/CMSIS/NN/Source/ConvolutionFunctions/arm_convolve_HWC_q7_RGB.c ****     if (pBuffer != bufferA)
 293              		.loc 1 189 5 is_stmt 1 view .LVU85
 294              		.loc 1 189 8 is_stmt 0 view .LVU86
 295 0134 2B9B     		ldr	r3, [sp, #172]
 296              	.LVL22:
 297              		.loc 1 189 8 view .LVU87
 298 0136 4B45     		cmp	r3, r9
 299 0138 6BD0     		beq	.L16
 300              	.LVL23:
 301              	.LBB44:
 190:./Libraries/CMSIS/NN/Source/ConvolutionFunctions/arm_convolve_HWC_q7_RGB.c ****     {
 191:./Libraries/CMSIS/NN/Source/ConvolutionFunctions/arm_convolve_HWC_q7_RGB.c ****         const q7_t *pA = wt;
 192:./Libraries/CMSIS/NN/Source/ConvolutionFunctions/arm_convolve_HWC_q7_RGB.c ****         int       i;
 193:./Libraries/CMSIS/NN/Source/ConvolutionFunctions/arm_convolve_HWC_q7_RGB.c **** 
 194:./Libraries/CMSIS/NN/Source/ConvolutionFunctions/arm_convolve_HWC_q7_RGB.c ****         for (i = 0; i < ch_im_out; i++)
 302              		.loc 1 194 21 is_stmt 1 view .LVU88
 303              		.loc 1 194 9 is_stmt 0 view .LVU89
 304 013a 119B     		ldr	r3, [sp, #68]
 305 013c 002B     		cmp	r3, #0
 306 013e 68D0     		beq	.L16
ARM GAS  /tmp/ccBb4BEn.s 			page 11


 307              	.LBB45:
 195:./Libraries/CMSIS/NN/Source/ConvolutionFunctions/arm_convolve_HWC_q7_RGB.c ****         {
 196:./Libraries/CMSIS/NN/Source/ConvolutionFunctions/arm_convolve_HWC_q7_RGB.c ****             q31_t     sum = ((q31_t)bias[i] << bias_shift) + NN_ROUND(out_shift);
 197:./Libraries/CMSIS/NN/Source/ConvolutionFunctions/arm_convolve_HWC_q7_RGB.c ****             q15_t    *pB = bufferA;
 198:./Libraries/CMSIS/NN/Source/ConvolutionFunctions/arm_convolve_HWC_q7_RGB.c ****             /* basically each time it process 4 entries */
 199:./Libraries/CMSIS/NN/Source/ConvolutionFunctions/arm_convolve_HWC_q7_RGB.c ****             uint16_t  colCnt = 3 * dim_kernel * dim_kernel >> 2;
 308              		.loc 1 199 47 view .LVU90
 309 0140 159A     		ldr	r2, [sp, #84]
 196:./Libraries/CMSIS/NN/Source/ConvolutionFunctions/arm_convolve_HWC_q7_RGB.c ****             q15_t    *pB = bufferA;
 310              		.loc 1 196 62 view .LVU91
 311 0142 4FF0010A 		mov	r10, #1
 312              	.LBB46:
 313              	.LBB47:
 314              	.LBB48:
 315              		.file 2 "./Libraries/CMSIS/NN/Include/arm_nnsupportfunctions.h"
   1:./Libraries/CMSIS/NN/Include/arm_nnsupportfunctions.h **** /*
   2:./Libraries/CMSIS/NN/Include/arm_nnsupportfunctions.h ****  * Copyright (C) 2010-2018 Arm Limited or its affiliates. All rights reserved.
   3:./Libraries/CMSIS/NN/Include/arm_nnsupportfunctions.h ****  *
   4:./Libraries/CMSIS/NN/Include/arm_nnsupportfunctions.h ****  * SPDX-License-Identifier: Apache-2.0
   5:./Libraries/CMSIS/NN/Include/arm_nnsupportfunctions.h ****  *
   6:./Libraries/CMSIS/NN/Include/arm_nnsupportfunctions.h ****  * Licensed under the Apache License, Version 2.0 (the License); you may
   7:./Libraries/CMSIS/NN/Include/arm_nnsupportfunctions.h ****  * not use this file except in compliance with the License.
   8:./Libraries/CMSIS/NN/Include/arm_nnsupportfunctions.h ****  * You may obtain a copy of the License at
   9:./Libraries/CMSIS/NN/Include/arm_nnsupportfunctions.h ****  *
  10:./Libraries/CMSIS/NN/Include/arm_nnsupportfunctions.h ****  * www.apache.org/licenses/LICENSE-2.0
  11:./Libraries/CMSIS/NN/Include/arm_nnsupportfunctions.h ****  *
  12:./Libraries/CMSIS/NN/Include/arm_nnsupportfunctions.h ****  * Unless required by applicable law or agreed to in writing, software
  13:./Libraries/CMSIS/NN/Include/arm_nnsupportfunctions.h ****  * distributed under the License is distributed on an AS IS BASIS, WITHOUT
  14:./Libraries/CMSIS/NN/Include/arm_nnsupportfunctions.h ****  * WARRANTIES OR CONDITIONS OF ANY KIND, either express or implied.
  15:./Libraries/CMSIS/NN/Include/arm_nnsupportfunctions.h ****  * See the License for the specific language governing permissions and
  16:./Libraries/CMSIS/NN/Include/arm_nnsupportfunctions.h ****  * limitations under the License.
  17:./Libraries/CMSIS/NN/Include/arm_nnsupportfunctions.h ****  */
  18:./Libraries/CMSIS/NN/Include/arm_nnsupportfunctions.h **** 
  19:./Libraries/CMSIS/NN/Include/arm_nnsupportfunctions.h **** /* ----------------------------------------------------------------------
  20:./Libraries/CMSIS/NN/Include/arm_nnsupportfunctions.h ****  * Project:      CMSIS NN Library
  21:./Libraries/CMSIS/NN/Include/arm_nnsupportfunctions.h ****  * Title:        arm_nnsupportfunctions.h
  22:./Libraries/CMSIS/NN/Include/arm_nnsupportfunctions.h ****  * Description:  Public header file of support functions for CMSIS NN Library
  23:./Libraries/CMSIS/NN/Include/arm_nnsupportfunctions.h ****  *
  24:./Libraries/CMSIS/NN/Include/arm_nnsupportfunctions.h ****  * $Date:        13. July 2018
  25:./Libraries/CMSIS/NN/Include/arm_nnsupportfunctions.h ****  * $Revision:    V.1.0.0
  26:./Libraries/CMSIS/NN/Include/arm_nnsupportfunctions.h ****  *
  27:./Libraries/CMSIS/NN/Include/arm_nnsupportfunctions.h ****  * Target Processor:  Cortex-M cores
  28:./Libraries/CMSIS/NN/Include/arm_nnsupportfunctions.h ****  * -------------------------------------------------------------------- */
  29:./Libraries/CMSIS/NN/Include/arm_nnsupportfunctions.h **** 
  30:./Libraries/CMSIS/NN/Include/arm_nnsupportfunctions.h **** #ifndef _ARM_NNSUPPORTFUNCTIONS_H_
  31:./Libraries/CMSIS/NN/Include/arm_nnsupportfunctions.h **** #define _ARM_NNSUPPORTFUNCTIONS_H_
  32:./Libraries/CMSIS/NN/Include/arm_nnsupportfunctions.h **** 
  33:./Libraries/CMSIS/NN/Include/arm_nnsupportfunctions.h **** #include "arm_math.h"
  34:./Libraries/CMSIS/NN/Include/arm_nnsupportfunctions.h **** #include "arm_common_tables.h"
  35:./Libraries/CMSIS/NN/Include/arm_nnsupportfunctions.h **** 
  36:./Libraries/CMSIS/NN/Include/arm_nnsupportfunctions.h **** #ifdef __cplusplus
  37:./Libraries/CMSIS/NN/Include/arm_nnsupportfunctions.h **** extern    "C"
  38:./Libraries/CMSIS/NN/Include/arm_nnsupportfunctions.h **** {
  39:./Libraries/CMSIS/NN/Include/arm_nnsupportfunctions.h **** #endif
  40:./Libraries/CMSIS/NN/Include/arm_nnsupportfunctions.h **** 
  41:./Libraries/CMSIS/NN/Include/arm_nnsupportfunctions.h **** #define LEFT_SHIFT(_shift)  (_shift > 0 ? _shift : 0)
  42:./Libraries/CMSIS/NN/Include/arm_nnsupportfunctions.h **** #define RIGHT_SHIFT(_shift) (_shift > 0 ? 0 : -_shift)
ARM GAS  /tmp/ccBb4BEn.s 			page 12


  43:./Libraries/CMSIS/NN/Include/arm_nnsupportfunctions.h **** #define Q31_MIN (0x80000000L)
  44:./Libraries/CMSIS/NN/Include/arm_nnsupportfunctions.h **** #define Q31_MAX (0x7FFFFFFFL)
  45:./Libraries/CMSIS/NN/Include/arm_nnsupportfunctions.h **** 
  46:./Libraries/CMSIS/NN/Include/arm_nnsupportfunctions.h **** /**
  47:./Libraries/CMSIS/NN/Include/arm_nnsupportfunctions.h ****  * @brief Union for SIMD access of Q31/Q15/Q7 types
  48:./Libraries/CMSIS/NN/Include/arm_nnsupportfunctions.h ****  */
  49:./Libraries/CMSIS/NN/Include/arm_nnsupportfunctions.h **** union arm_nnword
  50:./Libraries/CMSIS/NN/Include/arm_nnsupportfunctions.h **** {
  51:./Libraries/CMSIS/NN/Include/arm_nnsupportfunctions.h ****     q31_t     word;
  52:./Libraries/CMSIS/NN/Include/arm_nnsupportfunctions.h ****                /**< Q31 type */
  53:./Libraries/CMSIS/NN/Include/arm_nnsupportfunctions.h ****     q15_t     half_words[2];
  54:./Libraries/CMSIS/NN/Include/arm_nnsupportfunctions.h ****                /**< Q15 type */
  55:./Libraries/CMSIS/NN/Include/arm_nnsupportfunctions.h ****     q7_t      bytes[4];
  56:./Libraries/CMSIS/NN/Include/arm_nnsupportfunctions.h ****                /**< Q7 type */
  57:./Libraries/CMSIS/NN/Include/arm_nnsupportfunctions.h **** };
  58:./Libraries/CMSIS/NN/Include/arm_nnsupportfunctions.h **** 
  59:./Libraries/CMSIS/NN/Include/arm_nnsupportfunctions.h **** /**
  60:./Libraries/CMSIS/NN/Include/arm_nnsupportfunctions.h ****  * @brief Struct for specifying activation function types
  61:./Libraries/CMSIS/NN/Include/arm_nnsupportfunctions.h ****  *
  62:./Libraries/CMSIS/NN/Include/arm_nnsupportfunctions.h ****  */
  63:./Libraries/CMSIS/NN/Include/arm_nnsupportfunctions.h **** typedef enum
  64:./Libraries/CMSIS/NN/Include/arm_nnsupportfunctions.h **** {
  65:./Libraries/CMSIS/NN/Include/arm_nnsupportfunctions.h ****     ARM_SIGMOID = 0,
  66:./Libraries/CMSIS/NN/Include/arm_nnsupportfunctions.h ****                 /**< Sigmoid activation function */
  67:./Libraries/CMSIS/NN/Include/arm_nnsupportfunctions.h ****     ARM_TANH = 1,
  68:./Libraries/CMSIS/NN/Include/arm_nnsupportfunctions.h ****              /**< Tanh activation function */
  69:./Libraries/CMSIS/NN/Include/arm_nnsupportfunctions.h **** } arm_nn_activation_type;
  70:./Libraries/CMSIS/NN/Include/arm_nnsupportfunctions.h **** 
  71:./Libraries/CMSIS/NN/Include/arm_nnsupportfunctions.h **** /**
  72:./Libraries/CMSIS/NN/Include/arm_nnsupportfunctions.h ****  * @defgroup nndata_convert Neural Network Data Conversion Functions
  73:./Libraries/CMSIS/NN/Include/arm_nnsupportfunctions.h ****  *
  74:./Libraries/CMSIS/NN/Include/arm_nnsupportfunctions.h ****  * Perform data type conversion in-between neural network operations
  75:./Libraries/CMSIS/NN/Include/arm_nnsupportfunctions.h ****  *
  76:./Libraries/CMSIS/NN/Include/arm_nnsupportfunctions.h ****  */
  77:./Libraries/CMSIS/NN/Include/arm_nnsupportfunctions.h **** 
  78:./Libraries/CMSIS/NN/Include/arm_nnsupportfunctions.h **** /**
  79:./Libraries/CMSIS/NN/Include/arm_nnsupportfunctions.h ****  * @brief Converts the elements of the Q7 vector to Q15 vector without left-shift
  80:./Libraries/CMSIS/NN/Include/arm_nnsupportfunctions.h ****  * @param[in]       *pSrc points to the Q7 input vector
  81:./Libraries/CMSIS/NN/Include/arm_nnsupportfunctions.h ****  * @param[out]      *pDst points to the Q15 output vector
  82:./Libraries/CMSIS/NN/Include/arm_nnsupportfunctions.h ****  * @param[in]       blockSize length of the input vector
  83:./Libraries/CMSIS/NN/Include/arm_nnsupportfunctions.h ****  * @return none.
  84:./Libraries/CMSIS/NN/Include/arm_nnsupportfunctions.h ****  *
  85:./Libraries/CMSIS/NN/Include/arm_nnsupportfunctions.h ****  */
  86:./Libraries/CMSIS/NN/Include/arm_nnsupportfunctions.h **** 
  87:./Libraries/CMSIS/NN/Include/arm_nnsupportfunctions.h **** void      arm_q7_to_q15_no_shift(const q7_t * pSrc, q15_t * pDst, uint32_t blockSize);
  88:./Libraries/CMSIS/NN/Include/arm_nnsupportfunctions.h **** 
  89:./Libraries/CMSIS/NN/Include/arm_nnsupportfunctions.h **** /**
  90:./Libraries/CMSIS/NN/Include/arm_nnsupportfunctions.h ****  * @brief  Converts the elements of the Q7 vector to reordered Q15 vector without left-shift
  91:./Libraries/CMSIS/NN/Include/arm_nnsupportfunctions.h ****  * @param[in]       *pSrc points to the Q7 input vector
  92:./Libraries/CMSIS/NN/Include/arm_nnsupportfunctions.h ****  * @param[out]      *pDst points to the Q15 output vector
  93:./Libraries/CMSIS/NN/Include/arm_nnsupportfunctions.h ****  * @param[in]       blockSize length of the input vector
  94:./Libraries/CMSIS/NN/Include/arm_nnsupportfunctions.h ****  * @return none.
  95:./Libraries/CMSIS/NN/Include/arm_nnsupportfunctions.h ****  *
  96:./Libraries/CMSIS/NN/Include/arm_nnsupportfunctions.h ****  */
  97:./Libraries/CMSIS/NN/Include/arm_nnsupportfunctions.h **** 
  98:./Libraries/CMSIS/NN/Include/arm_nnsupportfunctions.h **** void      arm_q7_to_q15_reordered_no_shift(const q7_t * pSrc, q15_t * pDst, uint32_t blockSize);
  99:./Libraries/CMSIS/NN/Include/arm_nnsupportfunctions.h **** 
ARM GAS  /tmp/ccBb4BEn.s 			page 13


 100:./Libraries/CMSIS/NN/Include/arm_nnsupportfunctions.h **** #if defined (ARM_MATH_DSP)
 101:./Libraries/CMSIS/NN/Include/arm_nnsupportfunctions.h **** 
 102:./Libraries/CMSIS/NN/Include/arm_nnsupportfunctions.h **** /**
 103:./Libraries/CMSIS/NN/Include/arm_nnsupportfunctions.h ****  * @brief read and expand one Q7 word into two Q15 words
 104:./Libraries/CMSIS/NN/Include/arm_nnsupportfunctions.h ****  */
 105:./Libraries/CMSIS/NN/Include/arm_nnsupportfunctions.h **** 
 106:./Libraries/CMSIS/NN/Include/arm_nnsupportfunctions.h **** __STATIC_FORCEINLINE void *read_and_pad(void *source, q31_t * out1, q31_t * out2)
 107:./Libraries/CMSIS/NN/Include/arm_nnsupportfunctions.h **** {
 108:./Libraries/CMSIS/NN/Include/arm_nnsupportfunctions.h ****         q31_t     inA = *__SIMD32(source)++;
 109:./Libraries/CMSIS/NN/Include/arm_nnsupportfunctions.h ****         q31_t     inAbuf1 = __SXTB16(__ROR(inA, 8));
 110:./Libraries/CMSIS/NN/Include/arm_nnsupportfunctions.h ****         q31_t     inAbuf2 = __SXTB16(inA);
 111:./Libraries/CMSIS/NN/Include/arm_nnsupportfunctions.h **** 
 112:./Libraries/CMSIS/NN/Include/arm_nnsupportfunctions.h **** #ifndef ARM_MATH_BIG_ENDIAN
 113:./Libraries/CMSIS/NN/Include/arm_nnsupportfunctions.h ****         *out2 = __PKHTB(inAbuf1, inAbuf2, 16);
 316              		.loc 2 113 17 view .LVU92
 317 0146 514F     		ldr	r7, .L37
 318              	.LBE48:
 319              	.LBE47:
 320              	.LBE46:
 321              		.loc 1 199 47 view .LVU93
 322 0148 02EB4208 		add	r8, r2, r2, lsl #1
 200:./Libraries/CMSIS/NN/Source/ConvolutionFunctions/arm_convolve_HWC_q7_RGB.c **** 
 201:./Libraries/CMSIS/NN/Source/ConvolutionFunctions/arm_convolve_HWC_q7_RGB.c ****             while (colCnt)
 202:./Libraries/CMSIS/NN/Source/ConvolutionFunctions/arm_convolve_HWC_q7_RGB.c ****             {
 203:./Libraries/CMSIS/NN/Source/ConvolutionFunctions/arm_convolve_HWC_q7_RGB.c **** 
 204:./Libraries/CMSIS/NN/Source/ConvolutionFunctions/arm_convolve_HWC_q7_RGB.c ****                 q31_t     inA1, inA2;
 205:./Libraries/CMSIS/NN/Source/ConvolutionFunctions/arm_convolve_HWC_q7_RGB.c ****                 q31_t     inB1, inB2;
 206:./Libraries/CMSIS/NN/Source/ConvolutionFunctions/arm_convolve_HWC_q7_RGB.c **** 
 207:./Libraries/CMSIS/NN/Source/ConvolutionFunctions/arm_convolve_HWC_q7_RGB.c ****                 pA = (q7_t *) read_and_pad((void *)pA, &inA1, &inA2);
 208:./Libraries/CMSIS/NN/Source/ConvolutionFunctions/arm_convolve_HWC_q7_RGB.c **** 
 209:./Libraries/CMSIS/NN/Source/ConvolutionFunctions/arm_convolve_HWC_q7_RGB.c ****                 inB1 = *__SIMD32(pB)++;
 210:./Libraries/CMSIS/NN/Source/ConvolutionFunctions/arm_convolve_HWC_q7_RGB.c ****                 sum = __SMLAD(inA1, inB1, sum);
 211:./Libraries/CMSIS/NN/Source/ConvolutionFunctions/arm_convolve_HWC_q7_RGB.c ****                 inB2 = *__SIMD32(pB)++;
 212:./Libraries/CMSIS/NN/Source/ConvolutionFunctions/arm_convolve_HWC_q7_RGB.c ****                 sum = __SMLAD(inA2, inB2, sum);
 213:./Libraries/CMSIS/NN/Source/ConvolutionFunctions/arm_convolve_HWC_q7_RGB.c **** 
 214:./Libraries/CMSIS/NN/Source/ConvolutionFunctions/arm_convolve_HWC_q7_RGB.c ****                 colCnt--;
 215:./Libraries/CMSIS/NN/Source/ConvolutionFunctions/arm_convolve_HWC_q7_RGB.c ****             }
 216:./Libraries/CMSIS/NN/Source/ConvolutionFunctions/arm_convolve_HWC_q7_RGB.c ****             colCnt = 3 * dim_kernel * dim_kernel & 0x3;
 323              		.loc 1 216 20 view .LVU94
 324 014c 18EE102A 		vmov	r2, s16	@ int
 325 0150 109C     		ldr	r4, [sp, #64]
 326              	.LVL24:
 327              		.loc 1 216 20 view .LVU95
 328 0152 02F0030E 		and	lr, r2, #3
 329 0156 269A     		ldr	r2, [sp, #152]
 199:./Libraries/CMSIS/NN/Source/ConvolutionFunctions/arm_convolve_HWC_q7_RGB.c **** 
 330              		.loc 1 199 23 view .LVU96
 331 0158 C8F38F08 		ubfx	r8, r8, #2, #16
 332 015c 561E     		subs	r6, r2, #1
 196:./Libraries/CMSIS/NN/Source/ConvolutionFunctions/arm_convolve_HWC_q7_RGB.c ****             q15_t    *pB = bufferA;
 333              		.loc 1 196 62 view .LVU97
 334 015e 0E9A     		ldr	r2, [sp, #56]
 335 0160 0EF1FF3B 		add	fp, lr, #-1
 336 0164 0AFA02FA 		lsl	r10, r10, r2
 337 0168 299A     		ldr	r2, [sp, #164]
 338 016a 1FFA8BFB 		uxth	fp, fp
 339 016e 1344     		add	r3, r3, r2
ARM GAS  /tmp/ccBb4BEn.s 			page 14


 340 0170 4FEA5A0A 		lsr	r10, r10, #1
 341 0174 0BF1010B 		add	fp, fp, #1
 342 0178 9946     		mov	r9, r3
 343              	.LVL25:
 196:./Libraries/CMSIS/NN/Source/ConvolutionFunctions/arm_convolve_HWC_q7_RGB.c ****             q15_t    *pB = bufferA;
 344              		.loc 1 196 62 view .LVU98
 345 017a 08F1FF33 		add	r3, r8, #-1
 346 017e 9BB2     		uxth	r3, r3
 347 0180 0133     		adds	r3, r3, #1
 348 0182 9A00     		lsls	r2, r3, #2
 349 0184 0592     		str	r2, [sp, #20]
 350              	.LVL26:
 196:./Libraries/CMSIS/NN/Source/ConvolutionFunctions/arm_convolve_HWC_q7_RGB.c ****             q15_t    *pB = bufferA;
 351              		.loc 1 196 62 view .LVU99
 352 0186 2B9A     		ldr	r2, [sp, #172]
 353 0188 02EBC303 		add	r3, r2, r3, lsl #3
 354 018c 0693     		str	r3, [sp, #24]
 355              	.LVL27:
 356              	.L21:
 196:./Libraries/CMSIS/NN/Source/ConvolutionFunctions/arm_convolve_HWC_q7_RGB.c ****             q15_t    *pB = bufferA;
 357              		.loc 1 196 13 is_stmt 1 view .LVU100
 196:./Libraries/CMSIS/NN/Source/ConvolutionFunctions/arm_convolve_HWC_q7_RGB.c ****             q15_t    *pB = bufferA;
 358              		.loc 1 196 30 is_stmt 0 view .LVU101
 359 018e 16F9013F 		ldrsb	r3, [r6, #1]!
 360              	.LVL28:
 196:./Libraries/CMSIS/NN/Source/ConvolutionFunctions/arm_convolve_HWC_q7_RGB.c ****             q15_t    *pB = bufferA;
 361              		.loc 1 196 45 view .LVU102
 362 0192 129A     		ldr	r2, [sp, #72]
 363 0194 9340     		lsls	r3, r3, r2
 196:./Libraries/CMSIS/NN/Source/ConvolutionFunctions/arm_convolve_HWC_q7_RGB.c ****             q15_t    *pB = bufferA;
 364              		.loc 1 196 60 view .LVU103
 365 0196 5344     		add	r3, r3, r10
 366              	.LVL29:
 197:./Libraries/CMSIS/NN/Source/ConvolutionFunctions/arm_convolve_HWC_q7_RGB.c ****             /* basically each time it process 4 entries */
 367              		.loc 1 197 13 is_stmt 1 view .LVU104
 199:./Libraries/CMSIS/NN/Source/ConvolutionFunctions/arm_convolve_HWC_q7_RGB.c **** 
 368              		.loc 1 199 13 view .LVU105
 201:./Libraries/CMSIS/NN/Source/ConvolutionFunctions/arm_convolve_HWC_q7_RGB.c ****             {
 369              		.loc 1 201 13 view .LVU106
 201:./Libraries/CMSIS/NN/Source/ConvolutionFunctions/arm_convolve_HWC_q7_RGB.c ****             {
 370              		.loc 1 201 19 view .LVU107
 371 0198 B8F1000F 		cmp	r8, #0
 372 019c 6FD0     		beq	.L23
 201:./Libraries/CMSIS/NN/Source/ConvolutionFunctions/arm_convolve_HWC_q7_RGB.c ****             {
 373              		.loc 1 201 19 is_stmt 0 view .LVU108
 374 019e 2B9A     		ldr	r2, [sp, #172]
 375 01a0 0796     		str	r6, [sp, #28]
 376 01a2 02F10800 		add	r0, r2, #8
 377 01a6 059A     		ldr	r2, [sp, #20]
 378 01a8 A518     		adds	r5, r4, r2
 379              	.LVL30:
 380              	.L18:
 381              	.LBB81:
 204:./Libraries/CMSIS/NN/Source/ConvolutionFunctions/arm_convolve_HWC_q7_RGB.c ****                 q31_t     inB1, inB2;
 382              		.loc 1 204 17 is_stmt 1 view .LVU109
 205:./Libraries/CMSIS/NN/Source/ConvolutionFunctions/arm_convolve_HWC_q7_RGB.c **** 
 383              		.loc 1 205 17 view .LVU110
ARM GAS  /tmp/ccBb4BEn.s 			page 15


 207:./Libraries/CMSIS/NN/Source/ConvolutionFunctions/arm_convolve_HWC_q7_RGB.c **** 
 384              		.loc 1 207 17 view .LVU111
 385              	.LBB64:
 386              	.LBI47:
 106:./Libraries/CMSIS/NN/Include/arm_nnsupportfunctions.h **** {
 387              		.loc 2 106 28 view .LVU112
 388              	.LBB59:
 108:./Libraries/CMSIS/NN/Include/arm_nnsupportfunctions.h ****         q31_t     inAbuf1 = __SXTB16(__ROR(inA, 8));
 389              		.loc 2 108 9 view .LVU113
 109:./Libraries/CMSIS/NN/Include/arm_nnsupportfunctions.h ****         q31_t     inAbuf2 = __SXTB16(inA);
 390              		.loc 2 109 9 view .LVU114
 109:./Libraries/CMSIS/NN/Include/arm_nnsupportfunctions.h ****         q31_t     inAbuf2 = __SXTB16(inA);
 391              		.loc 2 109 29 is_stmt 0 view .LVU115
 392 01aa 54F8041B 		ldr	r1, [r4], #4
 393              	.LVL31:
 394              	.LBB49:
 395              	.LBI49:
 396              		.file 3 "./Libraries/CMSIS/Core/Include/cmsis_gcc.h"
   1:./Libraries/CMSIS/Core/Include/cmsis_gcc.h **** /**************************************************************************//**
   2:./Libraries/CMSIS/Core/Include/cmsis_gcc.h ****  * @file     cmsis_gcc.h
   3:./Libraries/CMSIS/Core/Include/cmsis_gcc.h ****  * @brief    CMSIS compiler GCC header file
   4:./Libraries/CMSIS/Core/Include/cmsis_gcc.h ****  * @version  V5.2.0
   5:./Libraries/CMSIS/Core/Include/cmsis_gcc.h ****  * @date     08. May 2019
   6:./Libraries/CMSIS/Core/Include/cmsis_gcc.h ****  ******************************************************************************/
   7:./Libraries/CMSIS/Core/Include/cmsis_gcc.h **** /*
   8:./Libraries/CMSIS/Core/Include/cmsis_gcc.h ****  * Copyright (c) 2009-2019 Arm Limited. All rights reserved.
   9:./Libraries/CMSIS/Core/Include/cmsis_gcc.h ****  *
  10:./Libraries/CMSIS/Core/Include/cmsis_gcc.h ****  * SPDX-License-Identifier: Apache-2.0
  11:./Libraries/CMSIS/Core/Include/cmsis_gcc.h ****  *
  12:./Libraries/CMSIS/Core/Include/cmsis_gcc.h ****  * Licensed under the Apache License, Version 2.0 (the License); you may
  13:./Libraries/CMSIS/Core/Include/cmsis_gcc.h ****  * not use this file except in compliance with the License.
  14:./Libraries/CMSIS/Core/Include/cmsis_gcc.h ****  * You may obtain a copy of the License at
  15:./Libraries/CMSIS/Core/Include/cmsis_gcc.h ****  *
  16:./Libraries/CMSIS/Core/Include/cmsis_gcc.h ****  * www.apache.org/licenses/LICENSE-2.0
  17:./Libraries/CMSIS/Core/Include/cmsis_gcc.h ****  *
  18:./Libraries/CMSIS/Core/Include/cmsis_gcc.h ****  * Unless required by applicable law or agreed to in writing, software
  19:./Libraries/CMSIS/Core/Include/cmsis_gcc.h ****  * distributed under the License is distributed on an AS IS BASIS, WITHOUT
  20:./Libraries/CMSIS/Core/Include/cmsis_gcc.h ****  * WARRANTIES OR CONDITIONS OF ANY KIND, either express or implied.
  21:./Libraries/CMSIS/Core/Include/cmsis_gcc.h ****  * See the License for the specific language governing permissions and
  22:./Libraries/CMSIS/Core/Include/cmsis_gcc.h ****  * limitations under the License.
  23:./Libraries/CMSIS/Core/Include/cmsis_gcc.h ****  */
  24:./Libraries/CMSIS/Core/Include/cmsis_gcc.h **** 
  25:./Libraries/CMSIS/Core/Include/cmsis_gcc.h **** #ifndef __CMSIS_GCC_H
  26:./Libraries/CMSIS/Core/Include/cmsis_gcc.h **** #define __CMSIS_GCC_H
  27:./Libraries/CMSIS/Core/Include/cmsis_gcc.h **** 
  28:./Libraries/CMSIS/Core/Include/cmsis_gcc.h **** /* ignore some GCC warnings */
  29:./Libraries/CMSIS/Core/Include/cmsis_gcc.h **** #pragma GCC diagnostic push
  30:./Libraries/CMSIS/Core/Include/cmsis_gcc.h **** #pragma GCC diagnostic ignored "-Wsign-conversion"
  31:./Libraries/CMSIS/Core/Include/cmsis_gcc.h **** #pragma GCC diagnostic ignored "-Wconversion"
  32:./Libraries/CMSIS/Core/Include/cmsis_gcc.h **** #pragma GCC diagnostic ignored "-Wunused-parameter"
  33:./Libraries/CMSIS/Core/Include/cmsis_gcc.h **** 
  34:./Libraries/CMSIS/Core/Include/cmsis_gcc.h **** /* Fallback for __has_builtin */
  35:./Libraries/CMSIS/Core/Include/cmsis_gcc.h **** #ifndef __has_builtin
  36:./Libraries/CMSIS/Core/Include/cmsis_gcc.h ****   #define __has_builtin(x) (0)
  37:./Libraries/CMSIS/Core/Include/cmsis_gcc.h **** #endif
  38:./Libraries/CMSIS/Core/Include/cmsis_gcc.h **** 
  39:./Libraries/CMSIS/Core/Include/cmsis_gcc.h **** /* CMSIS compiler specific defines */
ARM GAS  /tmp/ccBb4BEn.s 			page 16


  40:./Libraries/CMSIS/Core/Include/cmsis_gcc.h **** #ifndef   __ASM
  41:./Libraries/CMSIS/Core/Include/cmsis_gcc.h ****   #define __ASM                                  __asm
  42:./Libraries/CMSIS/Core/Include/cmsis_gcc.h **** #endif
  43:./Libraries/CMSIS/Core/Include/cmsis_gcc.h **** #ifndef   __INLINE
  44:./Libraries/CMSIS/Core/Include/cmsis_gcc.h ****   #define __INLINE                               inline
  45:./Libraries/CMSIS/Core/Include/cmsis_gcc.h **** #endif
  46:./Libraries/CMSIS/Core/Include/cmsis_gcc.h **** #ifndef   __STATIC_INLINE
  47:./Libraries/CMSIS/Core/Include/cmsis_gcc.h ****   #define __STATIC_INLINE                        static inline
  48:./Libraries/CMSIS/Core/Include/cmsis_gcc.h **** #endif
  49:./Libraries/CMSIS/Core/Include/cmsis_gcc.h **** #ifndef   __STATIC_FORCEINLINE                 
  50:./Libraries/CMSIS/Core/Include/cmsis_gcc.h ****   #define __STATIC_FORCEINLINE                   __attribute__((always_inline)) static inline
  51:./Libraries/CMSIS/Core/Include/cmsis_gcc.h **** #endif                                           
  52:./Libraries/CMSIS/Core/Include/cmsis_gcc.h **** #ifndef   __NO_RETURN
  53:./Libraries/CMSIS/Core/Include/cmsis_gcc.h ****   #define __NO_RETURN                            __attribute__((__noreturn__))
  54:./Libraries/CMSIS/Core/Include/cmsis_gcc.h **** #endif
  55:./Libraries/CMSIS/Core/Include/cmsis_gcc.h **** #ifndef   __USED
  56:./Libraries/CMSIS/Core/Include/cmsis_gcc.h ****   #define __USED                                 __attribute__((used))
  57:./Libraries/CMSIS/Core/Include/cmsis_gcc.h **** #endif
  58:./Libraries/CMSIS/Core/Include/cmsis_gcc.h **** #ifndef   __WEAK
  59:./Libraries/CMSIS/Core/Include/cmsis_gcc.h ****   #define __WEAK                                 __attribute__((weak))
  60:./Libraries/CMSIS/Core/Include/cmsis_gcc.h **** #endif
  61:./Libraries/CMSIS/Core/Include/cmsis_gcc.h **** #ifndef   __PACKED
  62:./Libraries/CMSIS/Core/Include/cmsis_gcc.h ****   #define __PACKED                               __attribute__((packed, aligned(1)))
  63:./Libraries/CMSIS/Core/Include/cmsis_gcc.h **** #endif
  64:./Libraries/CMSIS/Core/Include/cmsis_gcc.h **** #ifndef   __PACKED_STRUCT
  65:./Libraries/CMSIS/Core/Include/cmsis_gcc.h ****   #define __PACKED_STRUCT                        struct __attribute__((packed, aligned(1)))
  66:./Libraries/CMSIS/Core/Include/cmsis_gcc.h **** #endif
  67:./Libraries/CMSIS/Core/Include/cmsis_gcc.h **** #ifndef   __PACKED_UNION
  68:./Libraries/CMSIS/Core/Include/cmsis_gcc.h ****   #define __PACKED_UNION                         union __attribute__((packed, aligned(1)))
  69:./Libraries/CMSIS/Core/Include/cmsis_gcc.h **** #endif
  70:./Libraries/CMSIS/Core/Include/cmsis_gcc.h **** #ifndef   __UNALIGNED_UINT32        /* deprecated */
  71:./Libraries/CMSIS/Core/Include/cmsis_gcc.h ****   #pragma GCC diagnostic push
  72:./Libraries/CMSIS/Core/Include/cmsis_gcc.h ****   #pragma GCC diagnostic ignored "-Wpacked"
  73:./Libraries/CMSIS/Core/Include/cmsis_gcc.h ****   #pragma GCC diagnostic ignored "-Wattributes"
  74:./Libraries/CMSIS/Core/Include/cmsis_gcc.h ****   struct __attribute__((packed)) T_UINT32 { uint32_t v; };
  75:./Libraries/CMSIS/Core/Include/cmsis_gcc.h ****   #pragma GCC diagnostic pop
  76:./Libraries/CMSIS/Core/Include/cmsis_gcc.h ****   #define __UNALIGNED_UINT32(x)                  (((struct T_UINT32 *)(x))->v)
  77:./Libraries/CMSIS/Core/Include/cmsis_gcc.h **** #endif
  78:./Libraries/CMSIS/Core/Include/cmsis_gcc.h **** #ifndef   __UNALIGNED_UINT16_WRITE
  79:./Libraries/CMSIS/Core/Include/cmsis_gcc.h ****   #pragma GCC diagnostic push
  80:./Libraries/CMSIS/Core/Include/cmsis_gcc.h ****   #pragma GCC diagnostic ignored "-Wpacked"
  81:./Libraries/CMSIS/Core/Include/cmsis_gcc.h ****   #pragma GCC diagnostic ignored "-Wattributes"
  82:./Libraries/CMSIS/Core/Include/cmsis_gcc.h ****   __PACKED_STRUCT T_UINT16_WRITE { uint16_t v; };
  83:./Libraries/CMSIS/Core/Include/cmsis_gcc.h ****   #pragma GCC diagnostic pop
  84:./Libraries/CMSIS/Core/Include/cmsis_gcc.h ****   #define __UNALIGNED_UINT16_WRITE(addr, val)    (void)((((struct T_UINT16_WRITE *)(void *)(addr))-
  85:./Libraries/CMSIS/Core/Include/cmsis_gcc.h **** #endif
  86:./Libraries/CMSIS/Core/Include/cmsis_gcc.h **** #ifndef   __UNALIGNED_UINT16_READ
  87:./Libraries/CMSIS/Core/Include/cmsis_gcc.h ****   #pragma GCC diagnostic push
  88:./Libraries/CMSIS/Core/Include/cmsis_gcc.h ****   #pragma GCC diagnostic ignored "-Wpacked"
  89:./Libraries/CMSIS/Core/Include/cmsis_gcc.h ****   #pragma GCC diagnostic ignored "-Wattributes"
  90:./Libraries/CMSIS/Core/Include/cmsis_gcc.h ****   __PACKED_STRUCT T_UINT16_READ { uint16_t v; };
  91:./Libraries/CMSIS/Core/Include/cmsis_gcc.h ****   #pragma GCC diagnostic pop
  92:./Libraries/CMSIS/Core/Include/cmsis_gcc.h ****   #define __UNALIGNED_UINT16_READ(addr)          (((const struct T_UINT16_READ *)(const void *)(add
  93:./Libraries/CMSIS/Core/Include/cmsis_gcc.h **** #endif
  94:./Libraries/CMSIS/Core/Include/cmsis_gcc.h **** #ifndef   __UNALIGNED_UINT32_WRITE
  95:./Libraries/CMSIS/Core/Include/cmsis_gcc.h ****   #pragma GCC diagnostic push
  96:./Libraries/CMSIS/Core/Include/cmsis_gcc.h ****   #pragma GCC diagnostic ignored "-Wpacked"
ARM GAS  /tmp/ccBb4BEn.s 			page 17


  97:./Libraries/CMSIS/Core/Include/cmsis_gcc.h ****   #pragma GCC diagnostic ignored "-Wattributes"
  98:./Libraries/CMSIS/Core/Include/cmsis_gcc.h ****   __PACKED_STRUCT T_UINT32_WRITE { uint32_t v; };
  99:./Libraries/CMSIS/Core/Include/cmsis_gcc.h ****   #pragma GCC diagnostic pop
 100:./Libraries/CMSIS/Core/Include/cmsis_gcc.h ****   #define __UNALIGNED_UINT32_WRITE(addr, val)    (void)((((struct T_UINT32_WRITE *)(void *)(addr))-
 101:./Libraries/CMSIS/Core/Include/cmsis_gcc.h **** #endif
 102:./Libraries/CMSIS/Core/Include/cmsis_gcc.h **** #ifndef   __UNALIGNED_UINT32_READ
 103:./Libraries/CMSIS/Core/Include/cmsis_gcc.h ****   #pragma GCC diagnostic push
 104:./Libraries/CMSIS/Core/Include/cmsis_gcc.h ****   #pragma GCC diagnostic ignored "-Wpacked"
 105:./Libraries/CMSIS/Core/Include/cmsis_gcc.h ****   #pragma GCC diagnostic ignored "-Wattributes"
 106:./Libraries/CMSIS/Core/Include/cmsis_gcc.h ****   __PACKED_STRUCT T_UINT32_READ { uint32_t v; };
 107:./Libraries/CMSIS/Core/Include/cmsis_gcc.h ****   #pragma GCC diagnostic pop
 108:./Libraries/CMSIS/Core/Include/cmsis_gcc.h ****   #define __UNALIGNED_UINT32_READ(addr)          (((const struct T_UINT32_READ *)(const void *)(add
 109:./Libraries/CMSIS/Core/Include/cmsis_gcc.h **** #endif
 110:./Libraries/CMSIS/Core/Include/cmsis_gcc.h **** #ifndef   __ALIGNED
 111:./Libraries/CMSIS/Core/Include/cmsis_gcc.h ****   #define __ALIGNED(x)                           __attribute__((aligned(x)))
 112:./Libraries/CMSIS/Core/Include/cmsis_gcc.h **** #endif
 113:./Libraries/CMSIS/Core/Include/cmsis_gcc.h **** #ifndef   __RESTRICT
 114:./Libraries/CMSIS/Core/Include/cmsis_gcc.h ****   #define __RESTRICT                             __restrict
 115:./Libraries/CMSIS/Core/Include/cmsis_gcc.h **** #endif
 116:./Libraries/CMSIS/Core/Include/cmsis_gcc.h **** #ifndef   __COMPILER_BARRIER
 117:./Libraries/CMSIS/Core/Include/cmsis_gcc.h ****   #define __COMPILER_BARRIER()                   __ASM volatile("":::"memory")
 118:./Libraries/CMSIS/Core/Include/cmsis_gcc.h **** #endif
 119:./Libraries/CMSIS/Core/Include/cmsis_gcc.h **** 
 120:./Libraries/CMSIS/Core/Include/cmsis_gcc.h **** /* #########################  Startup and Lowlevel Init  ######################## */
 121:./Libraries/CMSIS/Core/Include/cmsis_gcc.h **** 
 122:./Libraries/CMSIS/Core/Include/cmsis_gcc.h **** #ifndef __PROGRAM_START
 123:./Libraries/CMSIS/Core/Include/cmsis_gcc.h **** 
 124:./Libraries/CMSIS/Core/Include/cmsis_gcc.h **** /**
 125:./Libraries/CMSIS/Core/Include/cmsis_gcc.h ****   \brief   Initializes data and bss sections
 126:./Libraries/CMSIS/Core/Include/cmsis_gcc.h ****   \details This default implementations initialized all data and additional bss
 127:./Libraries/CMSIS/Core/Include/cmsis_gcc.h ****            sections relying on .copy.table and .zero.table specified properly
 128:./Libraries/CMSIS/Core/Include/cmsis_gcc.h ****            in the used linker script.
 129:./Libraries/CMSIS/Core/Include/cmsis_gcc.h ****   
 130:./Libraries/CMSIS/Core/Include/cmsis_gcc.h ****  */
 131:./Libraries/CMSIS/Core/Include/cmsis_gcc.h **** __STATIC_FORCEINLINE __NO_RETURN void __cmsis_start(void)
 132:./Libraries/CMSIS/Core/Include/cmsis_gcc.h **** {
 133:./Libraries/CMSIS/Core/Include/cmsis_gcc.h ****   extern void _start(void) __NO_RETURN;
 134:./Libraries/CMSIS/Core/Include/cmsis_gcc.h ****   
 135:./Libraries/CMSIS/Core/Include/cmsis_gcc.h ****   typedef struct {
 136:./Libraries/CMSIS/Core/Include/cmsis_gcc.h ****     uint32_t const* src;
 137:./Libraries/CMSIS/Core/Include/cmsis_gcc.h ****     uint32_t* dest;
 138:./Libraries/CMSIS/Core/Include/cmsis_gcc.h ****     uint32_t  wlen;
 139:./Libraries/CMSIS/Core/Include/cmsis_gcc.h ****   } __copy_table_t;
 140:./Libraries/CMSIS/Core/Include/cmsis_gcc.h ****   
 141:./Libraries/CMSIS/Core/Include/cmsis_gcc.h ****   typedef struct {
 142:./Libraries/CMSIS/Core/Include/cmsis_gcc.h ****     uint32_t* dest;
 143:./Libraries/CMSIS/Core/Include/cmsis_gcc.h ****     uint32_t  wlen;
 144:./Libraries/CMSIS/Core/Include/cmsis_gcc.h ****   } __zero_table_t;
 145:./Libraries/CMSIS/Core/Include/cmsis_gcc.h ****   
 146:./Libraries/CMSIS/Core/Include/cmsis_gcc.h ****   extern const __copy_table_t __copy_table_start__;
 147:./Libraries/CMSIS/Core/Include/cmsis_gcc.h ****   extern const __copy_table_t __copy_table_end__;
 148:./Libraries/CMSIS/Core/Include/cmsis_gcc.h ****   extern const __zero_table_t __zero_table_start__;
 149:./Libraries/CMSIS/Core/Include/cmsis_gcc.h ****   extern const __zero_table_t __zero_table_end__;
 150:./Libraries/CMSIS/Core/Include/cmsis_gcc.h **** 
 151:./Libraries/CMSIS/Core/Include/cmsis_gcc.h ****   for (__copy_table_t const* pTable = &__copy_table_start__; pTable < &__copy_table_end__; ++pTable
 152:./Libraries/CMSIS/Core/Include/cmsis_gcc.h ****     for(uint32_t i=0u; i<pTable->wlen; ++i) {
 153:./Libraries/CMSIS/Core/Include/cmsis_gcc.h ****       pTable->dest[i] = pTable->src[i];
ARM GAS  /tmp/ccBb4BEn.s 			page 18


 154:./Libraries/CMSIS/Core/Include/cmsis_gcc.h ****     }
 155:./Libraries/CMSIS/Core/Include/cmsis_gcc.h ****   }
 156:./Libraries/CMSIS/Core/Include/cmsis_gcc.h ****  
 157:./Libraries/CMSIS/Core/Include/cmsis_gcc.h ****   for (__zero_table_t const* pTable = &__zero_table_start__; pTable < &__zero_table_end__; ++pTable
 158:./Libraries/CMSIS/Core/Include/cmsis_gcc.h ****     for(uint32_t i=0u; i<pTable->wlen; ++i) {
 159:./Libraries/CMSIS/Core/Include/cmsis_gcc.h ****       pTable->dest[i] = 0u;
 160:./Libraries/CMSIS/Core/Include/cmsis_gcc.h ****     }
 161:./Libraries/CMSIS/Core/Include/cmsis_gcc.h ****   }
 162:./Libraries/CMSIS/Core/Include/cmsis_gcc.h ****  
 163:./Libraries/CMSIS/Core/Include/cmsis_gcc.h ****   _start();
 164:./Libraries/CMSIS/Core/Include/cmsis_gcc.h **** }
 165:./Libraries/CMSIS/Core/Include/cmsis_gcc.h ****   
 166:./Libraries/CMSIS/Core/Include/cmsis_gcc.h **** #define __PROGRAM_START           __cmsis_start
 167:./Libraries/CMSIS/Core/Include/cmsis_gcc.h **** #endif
 168:./Libraries/CMSIS/Core/Include/cmsis_gcc.h **** 
 169:./Libraries/CMSIS/Core/Include/cmsis_gcc.h **** #ifndef __INITIAL_SP
 170:./Libraries/CMSIS/Core/Include/cmsis_gcc.h **** #define __INITIAL_SP              __StackTop
 171:./Libraries/CMSIS/Core/Include/cmsis_gcc.h **** #endif
 172:./Libraries/CMSIS/Core/Include/cmsis_gcc.h **** 
 173:./Libraries/CMSIS/Core/Include/cmsis_gcc.h **** #ifndef __STACK_LIMIT
 174:./Libraries/CMSIS/Core/Include/cmsis_gcc.h **** #define __STACK_LIMIT             __StackLimit
 175:./Libraries/CMSIS/Core/Include/cmsis_gcc.h **** #endif
 176:./Libraries/CMSIS/Core/Include/cmsis_gcc.h **** 
 177:./Libraries/CMSIS/Core/Include/cmsis_gcc.h **** #ifndef __VECTOR_TABLE
 178:./Libraries/CMSIS/Core/Include/cmsis_gcc.h **** #define __VECTOR_TABLE            __Vectors
 179:./Libraries/CMSIS/Core/Include/cmsis_gcc.h **** #endif
 180:./Libraries/CMSIS/Core/Include/cmsis_gcc.h **** 
 181:./Libraries/CMSIS/Core/Include/cmsis_gcc.h **** #ifndef __VECTOR_TABLE_ATTRIBUTE
 182:./Libraries/CMSIS/Core/Include/cmsis_gcc.h **** #define __VECTOR_TABLE_ATTRIBUTE  __attribute((used, section(".vectors")))
 183:./Libraries/CMSIS/Core/Include/cmsis_gcc.h **** #endif
 184:./Libraries/CMSIS/Core/Include/cmsis_gcc.h **** 
 185:./Libraries/CMSIS/Core/Include/cmsis_gcc.h **** /* ###########################  Core Function Access  ########################### */
 186:./Libraries/CMSIS/Core/Include/cmsis_gcc.h **** /** \ingroup  CMSIS_Core_FunctionInterface
 187:./Libraries/CMSIS/Core/Include/cmsis_gcc.h ****     \defgroup CMSIS_Core_RegAccFunctions CMSIS Core Register Access Functions
 188:./Libraries/CMSIS/Core/Include/cmsis_gcc.h ****   @{
 189:./Libraries/CMSIS/Core/Include/cmsis_gcc.h ****  */
 190:./Libraries/CMSIS/Core/Include/cmsis_gcc.h **** 
 191:./Libraries/CMSIS/Core/Include/cmsis_gcc.h **** /**
 192:./Libraries/CMSIS/Core/Include/cmsis_gcc.h ****   \brief   Enable IRQ Interrupts
 193:./Libraries/CMSIS/Core/Include/cmsis_gcc.h ****   \details Enables IRQ interrupts by clearing the I-bit in the CPSR.
 194:./Libraries/CMSIS/Core/Include/cmsis_gcc.h ****            Can only be executed in Privileged modes.
 195:./Libraries/CMSIS/Core/Include/cmsis_gcc.h ****  */
 196:./Libraries/CMSIS/Core/Include/cmsis_gcc.h **** __STATIC_FORCEINLINE void __enable_irq(void)
 197:./Libraries/CMSIS/Core/Include/cmsis_gcc.h **** {
 198:./Libraries/CMSIS/Core/Include/cmsis_gcc.h ****   __ASM volatile ("cpsie i" : : : "memory");
 199:./Libraries/CMSIS/Core/Include/cmsis_gcc.h **** }
 200:./Libraries/CMSIS/Core/Include/cmsis_gcc.h **** 
 201:./Libraries/CMSIS/Core/Include/cmsis_gcc.h **** 
 202:./Libraries/CMSIS/Core/Include/cmsis_gcc.h **** /**
 203:./Libraries/CMSIS/Core/Include/cmsis_gcc.h ****   \brief   Disable IRQ Interrupts
 204:./Libraries/CMSIS/Core/Include/cmsis_gcc.h ****   \details Disables IRQ interrupts by setting the I-bit in the CPSR.
 205:./Libraries/CMSIS/Core/Include/cmsis_gcc.h ****            Can only be executed in Privileged modes.
 206:./Libraries/CMSIS/Core/Include/cmsis_gcc.h ****  */
 207:./Libraries/CMSIS/Core/Include/cmsis_gcc.h **** __STATIC_FORCEINLINE void __disable_irq(void)
 208:./Libraries/CMSIS/Core/Include/cmsis_gcc.h **** {
 209:./Libraries/CMSIS/Core/Include/cmsis_gcc.h ****   __ASM volatile ("cpsid i" : : : "memory");
 210:./Libraries/CMSIS/Core/Include/cmsis_gcc.h **** }
ARM GAS  /tmp/ccBb4BEn.s 			page 19


 211:./Libraries/CMSIS/Core/Include/cmsis_gcc.h **** 
 212:./Libraries/CMSIS/Core/Include/cmsis_gcc.h **** 
 213:./Libraries/CMSIS/Core/Include/cmsis_gcc.h **** /**
 214:./Libraries/CMSIS/Core/Include/cmsis_gcc.h ****   \brief   Get Control Register
 215:./Libraries/CMSIS/Core/Include/cmsis_gcc.h ****   \details Returns the content of the Control Register.
 216:./Libraries/CMSIS/Core/Include/cmsis_gcc.h ****   \return               Control Register value
 217:./Libraries/CMSIS/Core/Include/cmsis_gcc.h ****  */
 218:./Libraries/CMSIS/Core/Include/cmsis_gcc.h **** __STATIC_FORCEINLINE uint32_t __get_CONTROL(void)
 219:./Libraries/CMSIS/Core/Include/cmsis_gcc.h **** {
 220:./Libraries/CMSIS/Core/Include/cmsis_gcc.h ****   uint32_t result;
 221:./Libraries/CMSIS/Core/Include/cmsis_gcc.h **** 
 222:./Libraries/CMSIS/Core/Include/cmsis_gcc.h ****   __ASM volatile ("MRS %0, control" : "=r" (result) );
 223:./Libraries/CMSIS/Core/Include/cmsis_gcc.h ****   return(result);
 224:./Libraries/CMSIS/Core/Include/cmsis_gcc.h **** }
 225:./Libraries/CMSIS/Core/Include/cmsis_gcc.h **** 
 226:./Libraries/CMSIS/Core/Include/cmsis_gcc.h **** 
 227:./Libraries/CMSIS/Core/Include/cmsis_gcc.h **** #if (defined (__ARM_FEATURE_CMSE ) && (__ARM_FEATURE_CMSE == 3))
 228:./Libraries/CMSIS/Core/Include/cmsis_gcc.h **** /**
 229:./Libraries/CMSIS/Core/Include/cmsis_gcc.h ****   \brief   Get Control Register (non-secure)
 230:./Libraries/CMSIS/Core/Include/cmsis_gcc.h ****   \details Returns the content of the non-secure Control Register when in secure mode.
 231:./Libraries/CMSIS/Core/Include/cmsis_gcc.h ****   \return               non-secure Control Register value
 232:./Libraries/CMSIS/Core/Include/cmsis_gcc.h ****  */
 233:./Libraries/CMSIS/Core/Include/cmsis_gcc.h **** __STATIC_FORCEINLINE uint32_t __TZ_get_CONTROL_NS(void)
 234:./Libraries/CMSIS/Core/Include/cmsis_gcc.h **** {
 235:./Libraries/CMSIS/Core/Include/cmsis_gcc.h ****   uint32_t result;
 236:./Libraries/CMSIS/Core/Include/cmsis_gcc.h **** 
 237:./Libraries/CMSIS/Core/Include/cmsis_gcc.h ****   __ASM volatile ("MRS %0, control_ns" : "=r" (result) );
 238:./Libraries/CMSIS/Core/Include/cmsis_gcc.h ****   return(result);
 239:./Libraries/CMSIS/Core/Include/cmsis_gcc.h **** }
 240:./Libraries/CMSIS/Core/Include/cmsis_gcc.h **** #endif
 241:./Libraries/CMSIS/Core/Include/cmsis_gcc.h **** 
 242:./Libraries/CMSIS/Core/Include/cmsis_gcc.h **** 
 243:./Libraries/CMSIS/Core/Include/cmsis_gcc.h **** /**
 244:./Libraries/CMSIS/Core/Include/cmsis_gcc.h ****   \brief   Set Control Register
 245:./Libraries/CMSIS/Core/Include/cmsis_gcc.h ****   \details Writes the given value to the Control Register.
 246:./Libraries/CMSIS/Core/Include/cmsis_gcc.h ****   \param [in]    control  Control Register value to set
 247:./Libraries/CMSIS/Core/Include/cmsis_gcc.h ****  */
 248:./Libraries/CMSIS/Core/Include/cmsis_gcc.h **** __STATIC_FORCEINLINE void __set_CONTROL(uint32_t control)
 249:./Libraries/CMSIS/Core/Include/cmsis_gcc.h **** {
 250:./Libraries/CMSIS/Core/Include/cmsis_gcc.h ****   __ASM volatile ("MSR control, %0" : : "r" (control) : "memory");
 251:./Libraries/CMSIS/Core/Include/cmsis_gcc.h **** }
 252:./Libraries/CMSIS/Core/Include/cmsis_gcc.h **** 
 253:./Libraries/CMSIS/Core/Include/cmsis_gcc.h **** 
 254:./Libraries/CMSIS/Core/Include/cmsis_gcc.h **** #if (defined (__ARM_FEATURE_CMSE ) && (__ARM_FEATURE_CMSE == 3))
 255:./Libraries/CMSIS/Core/Include/cmsis_gcc.h **** /**
 256:./Libraries/CMSIS/Core/Include/cmsis_gcc.h ****   \brief   Set Control Register (non-secure)
 257:./Libraries/CMSIS/Core/Include/cmsis_gcc.h ****   \details Writes the given value to the non-secure Control Register when in secure state.
 258:./Libraries/CMSIS/Core/Include/cmsis_gcc.h ****   \param [in]    control  Control Register value to set
 259:./Libraries/CMSIS/Core/Include/cmsis_gcc.h ****  */
 260:./Libraries/CMSIS/Core/Include/cmsis_gcc.h **** __STATIC_FORCEINLINE void __TZ_set_CONTROL_NS(uint32_t control)
 261:./Libraries/CMSIS/Core/Include/cmsis_gcc.h **** {
 262:./Libraries/CMSIS/Core/Include/cmsis_gcc.h ****   __ASM volatile ("MSR control_ns, %0" : : "r" (control) : "memory");
 263:./Libraries/CMSIS/Core/Include/cmsis_gcc.h **** }
 264:./Libraries/CMSIS/Core/Include/cmsis_gcc.h **** #endif
 265:./Libraries/CMSIS/Core/Include/cmsis_gcc.h **** 
 266:./Libraries/CMSIS/Core/Include/cmsis_gcc.h **** 
 267:./Libraries/CMSIS/Core/Include/cmsis_gcc.h **** /**
ARM GAS  /tmp/ccBb4BEn.s 			page 20


 268:./Libraries/CMSIS/Core/Include/cmsis_gcc.h ****   \brief   Get IPSR Register
 269:./Libraries/CMSIS/Core/Include/cmsis_gcc.h ****   \details Returns the content of the IPSR Register.
 270:./Libraries/CMSIS/Core/Include/cmsis_gcc.h ****   \return               IPSR Register value
 271:./Libraries/CMSIS/Core/Include/cmsis_gcc.h ****  */
 272:./Libraries/CMSIS/Core/Include/cmsis_gcc.h **** __STATIC_FORCEINLINE uint32_t __get_IPSR(void)
 273:./Libraries/CMSIS/Core/Include/cmsis_gcc.h **** {
 274:./Libraries/CMSIS/Core/Include/cmsis_gcc.h ****   uint32_t result;
 275:./Libraries/CMSIS/Core/Include/cmsis_gcc.h **** 
 276:./Libraries/CMSIS/Core/Include/cmsis_gcc.h ****   __ASM volatile ("MRS %0, ipsr" : "=r" (result) );
 277:./Libraries/CMSIS/Core/Include/cmsis_gcc.h ****   return(result);
 278:./Libraries/CMSIS/Core/Include/cmsis_gcc.h **** }
 279:./Libraries/CMSIS/Core/Include/cmsis_gcc.h **** 
 280:./Libraries/CMSIS/Core/Include/cmsis_gcc.h **** 
 281:./Libraries/CMSIS/Core/Include/cmsis_gcc.h **** /**
 282:./Libraries/CMSIS/Core/Include/cmsis_gcc.h ****   \brief   Get APSR Register
 283:./Libraries/CMSIS/Core/Include/cmsis_gcc.h ****   \details Returns the content of the APSR Register.
 284:./Libraries/CMSIS/Core/Include/cmsis_gcc.h ****   \return               APSR Register value
 285:./Libraries/CMSIS/Core/Include/cmsis_gcc.h ****  */
 286:./Libraries/CMSIS/Core/Include/cmsis_gcc.h **** __STATIC_FORCEINLINE uint32_t __get_APSR(void)
 287:./Libraries/CMSIS/Core/Include/cmsis_gcc.h **** {
 288:./Libraries/CMSIS/Core/Include/cmsis_gcc.h ****   uint32_t result;
 289:./Libraries/CMSIS/Core/Include/cmsis_gcc.h **** 
 290:./Libraries/CMSIS/Core/Include/cmsis_gcc.h ****   __ASM volatile ("MRS %0, apsr" : "=r" (result) );
 291:./Libraries/CMSIS/Core/Include/cmsis_gcc.h ****   return(result);
 292:./Libraries/CMSIS/Core/Include/cmsis_gcc.h **** }
 293:./Libraries/CMSIS/Core/Include/cmsis_gcc.h **** 
 294:./Libraries/CMSIS/Core/Include/cmsis_gcc.h **** 
 295:./Libraries/CMSIS/Core/Include/cmsis_gcc.h **** /**
 296:./Libraries/CMSIS/Core/Include/cmsis_gcc.h ****   \brief   Get xPSR Register
 297:./Libraries/CMSIS/Core/Include/cmsis_gcc.h ****   \details Returns the content of the xPSR Register.
 298:./Libraries/CMSIS/Core/Include/cmsis_gcc.h ****   \return               xPSR Register value
 299:./Libraries/CMSIS/Core/Include/cmsis_gcc.h ****  */
 300:./Libraries/CMSIS/Core/Include/cmsis_gcc.h **** __STATIC_FORCEINLINE uint32_t __get_xPSR(void)
 301:./Libraries/CMSIS/Core/Include/cmsis_gcc.h **** {
 302:./Libraries/CMSIS/Core/Include/cmsis_gcc.h ****   uint32_t result;
 303:./Libraries/CMSIS/Core/Include/cmsis_gcc.h **** 
 304:./Libraries/CMSIS/Core/Include/cmsis_gcc.h ****   __ASM volatile ("MRS %0, xpsr" : "=r" (result) );
 305:./Libraries/CMSIS/Core/Include/cmsis_gcc.h ****   return(result);
 306:./Libraries/CMSIS/Core/Include/cmsis_gcc.h **** }
 307:./Libraries/CMSIS/Core/Include/cmsis_gcc.h **** 
 308:./Libraries/CMSIS/Core/Include/cmsis_gcc.h **** 
 309:./Libraries/CMSIS/Core/Include/cmsis_gcc.h **** /**
 310:./Libraries/CMSIS/Core/Include/cmsis_gcc.h ****   \brief   Get Process Stack Pointer
 311:./Libraries/CMSIS/Core/Include/cmsis_gcc.h ****   \details Returns the current value of the Process Stack Pointer (PSP).
 312:./Libraries/CMSIS/Core/Include/cmsis_gcc.h ****   \return               PSP Register value
 313:./Libraries/CMSIS/Core/Include/cmsis_gcc.h ****  */
 314:./Libraries/CMSIS/Core/Include/cmsis_gcc.h **** __STATIC_FORCEINLINE uint32_t __get_PSP(void)
 315:./Libraries/CMSIS/Core/Include/cmsis_gcc.h **** {
 316:./Libraries/CMSIS/Core/Include/cmsis_gcc.h ****   uint32_t result;
 317:./Libraries/CMSIS/Core/Include/cmsis_gcc.h **** 
 318:./Libraries/CMSIS/Core/Include/cmsis_gcc.h ****   __ASM volatile ("MRS %0, psp"  : "=r" (result) );
 319:./Libraries/CMSIS/Core/Include/cmsis_gcc.h ****   return(result);
 320:./Libraries/CMSIS/Core/Include/cmsis_gcc.h **** }
 321:./Libraries/CMSIS/Core/Include/cmsis_gcc.h **** 
 322:./Libraries/CMSIS/Core/Include/cmsis_gcc.h **** 
 323:./Libraries/CMSIS/Core/Include/cmsis_gcc.h **** #if (defined (__ARM_FEATURE_CMSE ) && (__ARM_FEATURE_CMSE == 3))
 324:./Libraries/CMSIS/Core/Include/cmsis_gcc.h **** /**
ARM GAS  /tmp/ccBb4BEn.s 			page 21


 325:./Libraries/CMSIS/Core/Include/cmsis_gcc.h ****   \brief   Get Process Stack Pointer (non-secure)
 326:./Libraries/CMSIS/Core/Include/cmsis_gcc.h ****   \details Returns the current value of the non-secure Process Stack Pointer (PSP) when in secure s
 327:./Libraries/CMSIS/Core/Include/cmsis_gcc.h ****   \return               PSP Register value
 328:./Libraries/CMSIS/Core/Include/cmsis_gcc.h ****  */
 329:./Libraries/CMSIS/Core/Include/cmsis_gcc.h **** __STATIC_FORCEINLINE uint32_t __TZ_get_PSP_NS(void)
 330:./Libraries/CMSIS/Core/Include/cmsis_gcc.h **** {
 331:./Libraries/CMSIS/Core/Include/cmsis_gcc.h ****   uint32_t result;
 332:./Libraries/CMSIS/Core/Include/cmsis_gcc.h **** 
 333:./Libraries/CMSIS/Core/Include/cmsis_gcc.h ****   __ASM volatile ("MRS %0, psp_ns"  : "=r" (result) );
 334:./Libraries/CMSIS/Core/Include/cmsis_gcc.h ****   return(result);
 335:./Libraries/CMSIS/Core/Include/cmsis_gcc.h **** }
 336:./Libraries/CMSIS/Core/Include/cmsis_gcc.h **** #endif
 337:./Libraries/CMSIS/Core/Include/cmsis_gcc.h **** 
 338:./Libraries/CMSIS/Core/Include/cmsis_gcc.h **** 
 339:./Libraries/CMSIS/Core/Include/cmsis_gcc.h **** /**
 340:./Libraries/CMSIS/Core/Include/cmsis_gcc.h ****   \brief   Set Process Stack Pointer
 341:./Libraries/CMSIS/Core/Include/cmsis_gcc.h ****   \details Assigns the given value to the Process Stack Pointer (PSP).
 342:./Libraries/CMSIS/Core/Include/cmsis_gcc.h ****   \param [in]    topOfProcStack  Process Stack Pointer value to set
 343:./Libraries/CMSIS/Core/Include/cmsis_gcc.h ****  */
 344:./Libraries/CMSIS/Core/Include/cmsis_gcc.h **** __STATIC_FORCEINLINE void __set_PSP(uint32_t topOfProcStack)
 345:./Libraries/CMSIS/Core/Include/cmsis_gcc.h **** {
 346:./Libraries/CMSIS/Core/Include/cmsis_gcc.h ****   __ASM volatile ("MSR psp, %0" : : "r" (topOfProcStack) : );
 347:./Libraries/CMSIS/Core/Include/cmsis_gcc.h **** }
 348:./Libraries/CMSIS/Core/Include/cmsis_gcc.h **** 
 349:./Libraries/CMSIS/Core/Include/cmsis_gcc.h **** 
 350:./Libraries/CMSIS/Core/Include/cmsis_gcc.h **** #if (defined (__ARM_FEATURE_CMSE ) && (__ARM_FEATURE_CMSE == 3))
 351:./Libraries/CMSIS/Core/Include/cmsis_gcc.h **** /**
 352:./Libraries/CMSIS/Core/Include/cmsis_gcc.h ****   \brief   Set Process Stack Pointer (non-secure)
 353:./Libraries/CMSIS/Core/Include/cmsis_gcc.h ****   \details Assigns the given value to the non-secure Process Stack Pointer (PSP) when in secure sta
 354:./Libraries/CMSIS/Core/Include/cmsis_gcc.h ****   \param [in]    topOfProcStack  Process Stack Pointer value to set
 355:./Libraries/CMSIS/Core/Include/cmsis_gcc.h ****  */
 356:./Libraries/CMSIS/Core/Include/cmsis_gcc.h **** __STATIC_FORCEINLINE void __TZ_set_PSP_NS(uint32_t topOfProcStack)
 357:./Libraries/CMSIS/Core/Include/cmsis_gcc.h **** {
 358:./Libraries/CMSIS/Core/Include/cmsis_gcc.h ****   __ASM volatile ("MSR psp_ns, %0" : : "r" (topOfProcStack) : );
 359:./Libraries/CMSIS/Core/Include/cmsis_gcc.h **** }
 360:./Libraries/CMSIS/Core/Include/cmsis_gcc.h **** #endif
 361:./Libraries/CMSIS/Core/Include/cmsis_gcc.h **** 
 362:./Libraries/CMSIS/Core/Include/cmsis_gcc.h **** 
 363:./Libraries/CMSIS/Core/Include/cmsis_gcc.h **** /**
 364:./Libraries/CMSIS/Core/Include/cmsis_gcc.h ****   \brief   Get Main Stack Pointer
 365:./Libraries/CMSIS/Core/Include/cmsis_gcc.h ****   \details Returns the current value of the Main Stack Pointer (MSP).
 366:./Libraries/CMSIS/Core/Include/cmsis_gcc.h ****   \return               MSP Register value
 367:./Libraries/CMSIS/Core/Include/cmsis_gcc.h ****  */
 368:./Libraries/CMSIS/Core/Include/cmsis_gcc.h **** __STATIC_FORCEINLINE uint32_t __get_MSP(void)
 369:./Libraries/CMSIS/Core/Include/cmsis_gcc.h **** {
 370:./Libraries/CMSIS/Core/Include/cmsis_gcc.h ****   uint32_t result;
 371:./Libraries/CMSIS/Core/Include/cmsis_gcc.h **** 
 372:./Libraries/CMSIS/Core/Include/cmsis_gcc.h ****   __ASM volatile ("MRS %0, msp" : "=r" (result) );
 373:./Libraries/CMSIS/Core/Include/cmsis_gcc.h ****   return(result);
 374:./Libraries/CMSIS/Core/Include/cmsis_gcc.h **** }
 375:./Libraries/CMSIS/Core/Include/cmsis_gcc.h **** 
 376:./Libraries/CMSIS/Core/Include/cmsis_gcc.h **** 
 377:./Libraries/CMSIS/Core/Include/cmsis_gcc.h **** #if (defined (__ARM_FEATURE_CMSE ) && (__ARM_FEATURE_CMSE == 3))
 378:./Libraries/CMSIS/Core/Include/cmsis_gcc.h **** /**
 379:./Libraries/CMSIS/Core/Include/cmsis_gcc.h ****   \brief   Get Main Stack Pointer (non-secure)
 380:./Libraries/CMSIS/Core/Include/cmsis_gcc.h ****   \details Returns the current value of the non-secure Main Stack Pointer (MSP) when in secure stat
 381:./Libraries/CMSIS/Core/Include/cmsis_gcc.h ****   \return               MSP Register value
ARM GAS  /tmp/ccBb4BEn.s 			page 22


 382:./Libraries/CMSIS/Core/Include/cmsis_gcc.h ****  */
 383:./Libraries/CMSIS/Core/Include/cmsis_gcc.h **** __STATIC_FORCEINLINE uint32_t __TZ_get_MSP_NS(void)
 384:./Libraries/CMSIS/Core/Include/cmsis_gcc.h **** {
 385:./Libraries/CMSIS/Core/Include/cmsis_gcc.h ****   uint32_t result;
 386:./Libraries/CMSIS/Core/Include/cmsis_gcc.h **** 
 387:./Libraries/CMSIS/Core/Include/cmsis_gcc.h ****   __ASM volatile ("MRS %0, msp_ns" : "=r" (result) );
 388:./Libraries/CMSIS/Core/Include/cmsis_gcc.h ****   return(result);
 389:./Libraries/CMSIS/Core/Include/cmsis_gcc.h **** }
 390:./Libraries/CMSIS/Core/Include/cmsis_gcc.h **** #endif
 391:./Libraries/CMSIS/Core/Include/cmsis_gcc.h **** 
 392:./Libraries/CMSIS/Core/Include/cmsis_gcc.h **** 
 393:./Libraries/CMSIS/Core/Include/cmsis_gcc.h **** /**
 394:./Libraries/CMSIS/Core/Include/cmsis_gcc.h ****   \brief   Set Main Stack Pointer
 395:./Libraries/CMSIS/Core/Include/cmsis_gcc.h ****   \details Assigns the given value to the Main Stack Pointer (MSP).
 396:./Libraries/CMSIS/Core/Include/cmsis_gcc.h ****   \param [in]    topOfMainStack  Main Stack Pointer value to set
 397:./Libraries/CMSIS/Core/Include/cmsis_gcc.h ****  */
 398:./Libraries/CMSIS/Core/Include/cmsis_gcc.h **** __STATIC_FORCEINLINE void __set_MSP(uint32_t topOfMainStack)
 399:./Libraries/CMSIS/Core/Include/cmsis_gcc.h **** {
 400:./Libraries/CMSIS/Core/Include/cmsis_gcc.h ****   __ASM volatile ("MSR msp, %0" : : "r" (topOfMainStack) : );
 401:./Libraries/CMSIS/Core/Include/cmsis_gcc.h **** }
 402:./Libraries/CMSIS/Core/Include/cmsis_gcc.h **** 
 403:./Libraries/CMSIS/Core/Include/cmsis_gcc.h **** 
 404:./Libraries/CMSIS/Core/Include/cmsis_gcc.h **** #if (defined (__ARM_FEATURE_CMSE ) && (__ARM_FEATURE_CMSE == 3))
 405:./Libraries/CMSIS/Core/Include/cmsis_gcc.h **** /**
 406:./Libraries/CMSIS/Core/Include/cmsis_gcc.h ****   \brief   Set Main Stack Pointer (non-secure)
 407:./Libraries/CMSIS/Core/Include/cmsis_gcc.h ****   \details Assigns the given value to the non-secure Main Stack Pointer (MSP) when in secure state.
 408:./Libraries/CMSIS/Core/Include/cmsis_gcc.h ****   \param [in]    topOfMainStack  Main Stack Pointer value to set
 409:./Libraries/CMSIS/Core/Include/cmsis_gcc.h ****  */
 410:./Libraries/CMSIS/Core/Include/cmsis_gcc.h **** __STATIC_FORCEINLINE void __TZ_set_MSP_NS(uint32_t topOfMainStack)
 411:./Libraries/CMSIS/Core/Include/cmsis_gcc.h **** {
 412:./Libraries/CMSIS/Core/Include/cmsis_gcc.h ****   __ASM volatile ("MSR msp_ns, %0" : : "r" (topOfMainStack) : );
 413:./Libraries/CMSIS/Core/Include/cmsis_gcc.h **** }
 414:./Libraries/CMSIS/Core/Include/cmsis_gcc.h **** #endif
 415:./Libraries/CMSIS/Core/Include/cmsis_gcc.h **** 
 416:./Libraries/CMSIS/Core/Include/cmsis_gcc.h **** 
 417:./Libraries/CMSIS/Core/Include/cmsis_gcc.h **** #if (defined (__ARM_FEATURE_CMSE ) && (__ARM_FEATURE_CMSE == 3))
 418:./Libraries/CMSIS/Core/Include/cmsis_gcc.h **** /**
 419:./Libraries/CMSIS/Core/Include/cmsis_gcc.h ****   \brief   Get Stack Pointer (non-secure)
 420:./Libraries/CMSIS/Core/Include/cmsis_gcc.h ****   \details Returns the current value of the non-secure Stack Pointer (SP) when in secure state.
 421:./Libraries/CMSIS/Core/Include/cmsis_gcc.h ****   \return               SP Register value
 422:./Libraries/CMSIS/Core/Include/cmsis_gcc.h ****  */
 423:./Libraries/CMSIS/Core/Include/cmsis_gcc.h **** __STATIC_FORCEINLINE uint32_t __TZ_get_SP_NS(void)
 424:./Libraries/CMSIS/Core/Include/cmsis_gcc.h **** {
 425:./Libraries/CMSIS/Core/Include/cmsis_gcc.h ****   uint32_t result;
 426:./Libraries/CMSIS/Core/Include/cmsis_gcc.h **** 
 427:./Libraries/CMSIS/Core/Include/cmsis_gcc.h ****   __ASM volatile ("MRS %0, sp_ns" : "=r" (result) );
 428:./Libraries/CMSIS/Core/Include/cmsis_gcc.h ****   return(result);
 429:./Libraries/CMSIS/Core/Include/cmsis_gcc.h **** }
 430:./Libraries/CMSIS/Core/Include/cmsis_gcc.h **** 
 431:./Libraries/CMSIS/Core/Include/cmsis_gcc.h **** 
 432:./Libraries/CMSIS/Core/Include/cmsis_gcc.h **** /**
 433:./Libraries/CMSIS/Core/Include/cmsis_gcc.h ****   \brief   Set Stack Pointer (non-secure)
 434:./Libraries/CMSIS/Core/Include/cmsis_gcc.h ****   \details Assigns the given value to the non-secure Stack Pointer (SP) when in secure state.
 435:./Libraries/CMSIS/Core/Include/cmsis_gcc.h ****   \param [in]    topOfStack  Stack Pointer value to set
 436:./Libraries/CMSIS/Core/Include/cmsis_gcc.h ****  */
 437:./Libraries/CMSIS/Core/Include/cmsis_gcc.h **** __STATIC_FORCEINLINE void __TZ_set_SP_NS(uint32_t topOfStack)
 438:./Libraries/CMSIS/Core/Include/cmsis_gcc.h **** {
ARM GAS  /tmp/ccBb4BEn.s 			page 23


 439:./Libraries/CMSIS/Core/Include/cmsis_gcc.h ****   __ASM volatile ("MSR sp_ns, %0" : : "r" (topOfStack) : );
 440:./Libraries/CMSIS/Core/Include/cmsis_gcc.h **** }
 441:./Libraries/CMSIS/Core/Include/cmsis_gcc.h **** #endif
 442:./Libraries/CMSIS/Core/Include/cmsis_gcc.h **** 
 443:./Libraries/CMSIS/Core/Include/cmsis_gcc.h **** 
 444:./Libraries/CMSIS/Core/Include/cmsis_gcc.h **** /**
 445:./Libraries/CMSIS/Core/Include/cmsis_gcc.h ****   \brief   Get Priority Mask
 446:./Libraries/CMSIS/Core/Include/cmsis_gcc.h ****   \details Returns the current state of the priority mask bit from the Priority Mask Register.
 447:./Libraries/CMSIS/Core/Include/cmsis_gcc.h ****   \return               Priority Mask value
 448:./Libraries/CMSIS/Core/Include/cmsis_gcc.h ****  */
 449:./Libraries/CMSIS/Core/Include/cmsis_gcc.h **** __STATIC_FORCEINLINE uint32_t __get_PRIMASK(void)
 450:./Libraries/CMSIS/Core/Include/cmsis_gcc.h **** {
 451:./Libraries/CMSIS/Core/Include/cmsis_gcc.h ****   uint32_t result;
 452:./Libraries/CMSIS/Core/Include/cmsis_gcc.h **** 
 453:./Libraries/CMSIS/Core/Include/cmsis_gcc.h ****   __ASM volatile ("MRS %0, primask" : "=r" (result) :: "memory");
 454:./Libraries/CMSIS/Core/Include/cmsis_gcc.h ****   return(result);
 455:./Libraries/CMSIS/Core/Include/cmsis_gcc.h **** }
 456:./Libraries/CMSIS/Core/Include/cmsis_gcc.h **** 
 457:./Libraries/CMSIS/Core/Include/cmsis_gcc.h **** 
 458:./Libraries/CMSIS/Core/Include/cmsis_gcc.h **** #if (defined (__ARM_FEATURE_CMSE ) && (__ARM_FEATURE_CMSE == 3))
 459:./Libraries/CMSIS/Core/Include/cmsis_gcc.h **** /**
 460:./Libraries/CMSIS/Core/Include/cmsis_gcc.h ****   \brief   Get Priority Mask (non-secure)
 461:./Libraries/CMSIS/Core/Include/cmsis_gcc.h ****   \details Returns the current state of the non-secure priority mask bit from the Priority Mask Reg
 462:./Libraries/CMSIS/Core/Include/cmsis_gcc.h ****   \return               Priority Mask value
 463:./Libraries/CMSIS/Core/Include/cmsis_gcc.h ****  */
 464:./Libraries/CMSIS/Core/Include/cmsis_gcc.h **** __STATIC_FORCEINLINE uint32_t __TZ_get_PRIMASK_NS(void)
 465:./Libraries/CMSIS/Core/Include/cmsis_gcc.h **** {
 466:./Libraries/CMSIS/Core/Include/cmsis_gcc.h ****   uint32_t result;
 467:./Libraries/CMSIS/Core/Include/cmsis_gcc.h **** 
 468:./Libraries/CMSIS/Core/Include/cmsis_gcc.h ****   __ASM volatile ("MRS %0, primask_ns" : "=r" (result) :: "memory");
 469:./Libraries/CMSIS/Core/Include/cmsis_gcc.h ****   return(result);
 470:./Libraries/CMSIS/Core/Include/cmsis_gcc.h **** }
 471:./Libraries/CMSIS/Core/Include/cmsis_gcc.h **** #endif
 472:./Libraries/CMSIS/Core/Include/cmsis_gcc.h **** 
 473:./Libraries/CMSIS/Core/Include/cmsis_gcc.h **** 
 474:./Libraries/CMSIS/Core/Include/cmsis_gcc.h **** /**
 475:./Libraries/CMSIS/Core/Include/cmsis_gcc.h ****   \brief   Set Priority Mask
 476:./Libraries/CMSIS/Core/Include/cmsis_gcc.h ****   \details Assigns the given value to the Priority Mask Register.
 477:./Libraries/CMSIS/Core/Include/cmsis_gcc.h ****   \param [in]    priMask  Priority Mask
 478:./Libraries/CMSIS/Core/Include/cmsis_gcc.h ****  */
 479:./Libraries/CMSIS/Core/Include/cmsis_gcc.h **** __STATIC_FORCEINLINE void __set_PRIMASK(uint32_t priMask)
 480:./Libraries/CMSIS/Core/Include/cmsis_gcc.h **** {
 481:./Libraries/CMSIS/Core/Include/cmsis_gcc.h ****   __ASM volatile ("MSR primask, %0" : : "r" (priMask) : "memory");
 482:./Libraries/CMSIS/Core/Include/cmsis_gcc.h **** }
 483:./Libraries/CMSIS/Core/Include/cmsis_gcc.h **** 
 484:./Libraries/CMSIS/Core/Include/cmsis_gcc.h **** 
 485:./Libraries/CMSIS/Core/Include/cmsis_gcc.h **** #if (defined (__ARM_FEATURE_CMSE ) && (__ARM_FEATURE_CMSE == 3))
 486:./Libraries/CMSIS/Core/Include/cmsis_gcc.h **** /**
 487:./Libraries/CMSIS/Core/Include/cmsis_gcc.h ****   \brief   Set Priority Mask (non-secure)
 488:./Libraries/CMSIS/Core/Include/cmsis_gcc.h ****   \details Assigns the given value to the non-secure Priority Mask Register when in secure state.
 489:./Libraries/CMSIS/Core/Include/cmsis_gcc.h ****   \param [in]    priMask  Priority Mask
 490:./Libraries/CMSIS/Core/Include/cmsis_gcc.h ****  */
 491:./Libraries/CMSIS/Core/Include/cmsis_gcc.h **** __STATIC_FORCEINLINE void __TZ_set_PRIMASK_NS(uint32_t priMask)
 492:./Libraries/CMSIS/Core/Include/cmsis_gcc.h **** {
 493:./Libraries/CMSIS/Core/Include/cmsis_gcc.h ****   __ASM volatile ("MSR primask_ns, %0" : : "r" (priMask) : "memory");
 494:./Libraries/CMSIS/Core/Include/cmsis_gcc.h **** }
 495:./Libraries/CMSIS/Core/Include/cmsis_gcc.h **** #endif
ARM GAS  /tmp/ccBb4BEn.s 			page 24


 496:./Libraries/CMSIS/Core/Include/cmsis_gcc.h **** 
 497:./Libraries/CMSIS/Core/Include/cmsis_gcc.h **** 
 498:./Libraries/CMSIS/Core/Include/cmsis_gcc.h **** #if ((defined (__ARM_ARCH_7M__      ) && (__ARM_ARCH_7M__      == 1)) || \
 499:./Libraries/CMSIS/Core/Include/cmsis_gcc.h ****      (defined (__ARM_ARCH_7EM__     ) && (__ARM_ARCH_7EM__     == 1)) || \
 500:./Libraries/CMSIS/Core/Include/cmsis_gcc.h ****      (defined (__ARM_ARCH_8M_MAIN__ ) && (__ARM_ARCH_8M_MAIN__ == 1))    )
 501:./Libraries/CMSIS/Core/Include/cmsis_gcc.h **** /**
 502:./Libraries/CMSIS/Core/Include/cmsis_gcc.h ****   \brief   Enable FIQ
 503:./Libraries/CMSIS/Core/Include/cmsis_gcc.h ****   \details Enables FIQ interrupts by clearing the F-bit in the CPSR.
 504:./Libraries/CMSIS/Core/Include/cmsis_gcc.h ****            Can only be executed in Privileged modes.
 505:./Libraries/CMSIS/Core/Include/cmsis_gcc.h ****  */
 506:./Libraries/CMSIS/Core/Include/cmsis_gcc.h **** __STATIC_FORCEINLINE void __enable_fault_irq(void)
 507:./Libraries/CMSIS/Core/Include/cmsis_gcc.h **** {
 508:./Libraries/CMSIS/Core/Include/cmsis_gcc.h ****   __ASM volatile ("cpsie f" : : : "memory");
 509:./Libraries/CMSIS/Core/Include/cmsis_gcc.h **** }
 510:./Libraries/CMSIS/Core/Include/cmsis_gcc.h **** 
 511:./Libraries/CMSIS/Core/Include/cmsis_gcc.h **** 
 512:./Libraries/CMSIS/Core/Include/cmsis_gcc.h **** /**
 513:./Libraries/CMSIS/Core/Include/cmsis_gcc.h ****   \brief   Disable FIQ
 514:./Libraries/CMSIS/Core/Include/cmsis_gcc.h ****   \details Disables FIQ interrupts by setting the F-bit in the CPSR.
 515:./Libraries/CMSIS/Core/Include/cmsis_gcc.h ****            Can only be executed in Privileged modes.
 516:./Libraries/CMSIS/Core/Include/cmsis_gcc.h ****  */
 517:./Libraries/CMSIS/Core/Include/cmsis_gcc.h **** __STATIC_FORCEINLINE void __disable_fault_irq(void)
 518:./Libraries/CMSIS/Core/Include/cmsis_gcc.h **** {
 519:./Libraries/CMSIS/Core/Include/cmsis_gcc.h ****   __ASM volatile ("cpsid f" : : : "memory");
 520:./Libraries/CMSIS/Core/Include/cmsis_gcc.h **** }
 521:./Libraries/CMSIS/Core/Include/cmsis_gcc.h **** 
 522:./Libraries/CMSIS/Core/Include/cmsis_gcc.h **** 
 523:./Libraries/CMSIS/Core/Include/cmsis_gcc.h **** /**
 524:./Libraries/CMSIS/Core/Include/cmsis_gcc.h ****   \brief   Get Base Priority
 525:./Libraries/CMSIS/Core/Include/cmsis_gcc.h ****   \details Returns the current value of the Base Priority register.
 526:./Libraries/CMSIS/Core/Include/cmsis_gcc.h ****   \return               Base Priority register value
 527:./Libraries/CMSIS/Core/Include/cmsis_gcc.h ****  */
 528:./Libraries/CMSIS/Core/Include/cmsis_gcc.h **** __STATIC_FORCEINLINE uint32_t __get_BASEPRI(void)
 529:./Libraries/CMSIS/Core/Include/cmsis_gcc.h **** {
 530:./Libraries/CMSIS/Core/Include/cmsis_gcc.h ****   uint32_t result;
 531:./Libraries/CMSIS/Core/Include/cmsis_gcc.h **** 
 532:./Libraries/CMSIS/Core/Include/cmsis_gcc.h ****   __ASM volatile ("MRS %0, basepri" : "=r" (result) );
 533:./Libraries/CMSIS/Core/Include/cmsis_gcc.h ****   return(result);
 534:./Libraries/CMSIS/Core/Include/cmsis_gcc.h **** }
 535:./Libraries/CMSIS/Core/Include/cmsis_gcc.h **** 
 536:./Libraries/CMSIS/Core/Include/cmsis_gcc.h **** 
 537:./Libraries/CMSIS/Core/Include/cmsis_gcc.h **** #if (defined (__ARM_FEATURE_CMSE ) && (__ARM_FEATURE_CMSE == 3))
 538:./Libraries/CMSIS/Core/Include/cmsis_gcc.h **** /**
 539:./Libraries/CMSIS/Core/Include/cmsis_gcc.h ****   \brief   Get Base Priority (non-secure)
 540:./Libraries/CMSIS/Core/Include/cmsis_gcc.h ****   \details Returns the current value of the non-secure Base Priority register when in secure state.
 541:./Libraries/CMSIS/Core/Include/cmsis_gcc.h ****   \return               Base Priority register value
 542:./Libraries/CMSIS/Core/Include/cmsis_gcc.h ****  */
 543:./Libraries/CMSIS/Core/Include/cmsis_gcc.h **** __STATIC_FORCEINLINE uint32_t __TZ_get_BASEPRI_NS(void)
 544:./Libraries/CMSIS/Core/Include/cmsis_gcc.h **** {
 545:./Libraries/CMSIS/Core/Include/cmsis_gcc.h ****   uint32_t result;
 546:./Libraries/CMSIS/Core/Include/cmsis_gcc.h **** 
 547:./Libraries/CMSIS/Core/Include/cmsis_gcc.h ****   __ASM volatile ("MRS %0, basepri_ns" : "=r" (result) );
 548:./Libraries/CMSIS/Core/Include/cmsis_gcc.h ****   return(result);
 549:./Libraries/CMSIS/Core/Include/cmsis_gcc.h **** }
 550:./Libraries/CMSIS/Core/Include/cmsis_gcc.h **** #endif
 551:./Libraries/CMSIS/Core/Include/cmsis_gcc.h **** 
 552:./Libraries/CMSIS/Core/Include/cmsis_gcc.h **** 
ARM GAS  /tmp/ccBb4BEn.s 			page 25


 553:./Libraries/CMSIS/Core/Include/cmsis_gcc.h **** /**
 554:./Libraries/CMSIS/Core/Include/cmsis_gcc.h ****   \brief   Set Base Priority
 555:./Libraries/CMSIS/Core/Include/cmsis_gcc.h ****   \details Assigns the given value to the Base Priority register.
 556:./Libraries/CMSIS/Core/Include/cmsis_gcc.h ****   \param [in]    basePri  Base Priority value to set
 557:./Libraries/CMSIS/Core/Include/cmsis_gcc.h ****  */
 558:./Libraries/CMSIS/Core/Include/cmsis_gcc.h **** __STATIC_FORCEINLINE void __set_BASEPRI(uint32_t basePri)
 559:./Libraries/CMSIS/Core/Include/cmsis_gcc.h **** {
 560:./Libraries/CMSIS/Core/Include/cmsis_gcc.h ****   __ASM volatile ("MSR basepri, %0" : : "r" (basePri) : "memory");
 561:./Libraries/CMSIS/Core/Include/cmsis_gcc.h **** }
 562:./Libraries/CMSIS/Core/Include/cmsis_gcc.h **** 
 563:./Libraries/CMSIS/Core/Include/cmsis_gcc.h **** 
 564:./Libraries/CMSIS/Core/Include/cmsis_gcc.h **** #if (defined (__ARM_FEATURE_CMSE ) && (__ARM_FEATURE_CMSE == 3))
 565:./Libraries/CMSIS/Core/Include/cmsis_gcc.h **** /**
 566:./Libraries/CMSIS/Core/Include/cmsis_gcc.h ****   \brief   Set Base Priority (non-secure)
 567:./Libraries/CMSIS/Core/Include/cmsis_gcc.h ****   \details Assigns the given value to the non-secure Base Priority register when in secure state.
 568:./Libraries/CMSIS/Core/Include/cmsis_gcc.h ****   \param [in]    basePri  Base Priority value to set
 569:./Libraries/CMSIS/Core/Include/cmsis_gcc.h ****  */
 570:./Libraries/CMSIS/Core/Include/cmsis_gcc.h **** __STATIC_FORCEINLINE void __TZ_set_BASEPRI_NS(uint32_t basePri)
 571:./Libraries/CMSIS/Core/Include/cmsis_gcc.h **** {
 572:./Libraries/CMSIS/Core/Include/cmsis_gcc.h ****   __ASM volatile ("MSR basepri_ns, %0" : : "r" (basePri) : "memory");
 573:./Libraries/CMSIS/Core/Include/cmsis_gcc.h **** }
 574:./Libraries/CMSIS/Core/Include/cmsis_gcc.h **** #endif
 575:./Libraries/CMSIS/Core/Include/cmsis_gcc.h **** 
 576:./Libraries/CMSIS/Core/Include/cmsis_gcc.h **** 
 577:./Libraries/CMSIS/Core/Include/cmsis_gcc.h **** /**
 578:./Libraries/CMSIS/Core/Include/cmsis_gcc.h ****   \brief   Set Base Priority with condition
 579:./Libraries/CMSIS/Core/Include/cmsis_gcc.h ****   \details Assigns the given value to the Base Priority register only if BASEPRI masking is disable
 580:./Libraries/CMSIS/Core/Include/cmsis_gcc.h ****            or the new value increases the BASEPRI priority level.
 581:./Libraries/CMSIS/Core/Include/cmsis_gcc.h ****   \param [in]    basePri  Base Priority value to set
 582:./Libraries/CMSIS/Core/Include/cmsis_gcc.h ****  */
 583:./Libraries/CMSIS/Core/Include/cmsis_gcc.h **** __STATIC_FORCEINLINE void __set_BASEPRI_MAX(uint32_t basePri)
 584:./Libraries/CMSIS/Core/Include/cmsis_gcc.h **** {
 585:./Libraries/CMSIS/Core/Include/cmsis_gcc.h ****   __ASM volatile ("MSR basepri_max, %0" : : "r" (basePri) : "memory");
 586:./Libraries/CMSIS/Core/Include/cmsis_gcc.h **** }
 587:./Libraries/CMSIS/Core/Include/cmsis_gcc.h **** 
 588:./Libraries/CMSIS/Core/Include/cmsis_gcc.h **** 
 589:./Libraries/CMSIS/Core/Include/cmsis_gcc.h **** /**
 590:./Libraries/CMSIS/Core/Include/cmsis_gcc.h ****   \brief   Get Fault Mask
 591:./Libraries/CMSIS/Core/Include/cmsis_gcc.h ****   \details Returns the current value of the Fault Mask register.
 592:./Libraries/CMSIS/Core/Include/cmsis_gcc.h ****   \return               Fault Mask register value
 593:./Libraries/CMSIS/Core/Include/cmsis_gcc.h ****  */
 594:./Libraries/CMSIS/Core/Include/cmsis_gcc.h **** __STATIC_FORCEINLINE uint32_t __get_FAULTMASK(void)
 595:./Libraries/CMSIS/Core/Include/cmsis_gcc.h **** {
 596:./Libraries/CMSIS/Core/Include/cmsis_gcc.h ****   uint32_t result;
 597:./Libraries/CMSIS/Core/Include/cmsis_gcc.h **** 
 598:./Libraries/CMSIS/Core/Include/cmsis_gcc.h ****   __ASM volatile ("MRS %0, faultmask" : "=r" (result) );
 599:./Libraries/CMSIS/Core/Include/cmsis_gcc.h ****   return(result);
 600:./Libraries/CMSIS/Core/Include/cmsis_gcc.h **** }
 601:./Libraries/CMSIS/Core/Include/cmsis_gcc.h **** 
 602:./Libraries/CMSIS/Core/Include/cmsis_gcc.h **** 
 603:./Libraries/CMSIS/Core/Include/cmsis_gcc.h **** #if (defined (__ARM_FEATURE_CMSE ) && (__ARM_FEATURE_CMSE == 3))
 604:./Libraries/CMSIS/Core/Include/cmsis_gcc.h **** /**
 605:./Libraries/CMSIS/Core/Include/cmsis_gcc.h ****   \brief   Get Fault Mask (non-secure)
 606:./Libraries/CMSIS/Core/Include/cmsis_gcc.h ****   \details Returns the current value of the non-secure Fault Mask register when in secure state.
 607:./Libraries/CMSIS/Core/Include/cmsis_gcc.h ****   \return               Fault Mask register value
 608:./Libraries/CMSIS/Core/Include/cmsis_gcc.h ****  */
 609:./Libraries/CMSIS/Core/Include/cmsis_gcc.h **** __STATIC_FORCEINLINE uint32_t __TZ_get_FAULTMASK_NS(void)
ARM GAS  /tmp/ccBb4BEn.s 			page 26


 610:./Libraries/CMSIS/Core/Include/cmsis_gcc.h **** {
 611:./Libraries/CMSIS/Core/Include/cmsis_gcc.h ****   uint32_t result;
 612:./Libraries/CMSIS/Core/Include/cmsis_gcc.h **** 
 613:./Libraries/CMSIS/Core/Include/cmsis_gcc.h ****   __ASM volatile ("MRS %0, faultmask_ns" : "=r" (result) );
 614:./Libraries/CMSIS/Core/Include/cmsis_gcc.h ****   return(result);
 615:./Libraries/CMSIS/Core/Include/cmsis_gcc.h **** }
 616:./Libraries/CMSIS/Core/Include/cmsis_gcc.h **** #endif
 617:./Libraries/CMSIS/Core/Include/cmsis_gcc.h **** 
 618:./Libraries/CMSIS/Core/Include/cmsis_gcc.h **** 
 619:./Libraries/CMSIS/Core/Include/cmsis_gcc.h **** /**
 620:./Libraries/CMSIS/Core/Include/cmsis_gcc.h ****   \brief   Set Fault Mask
 621:./Libraries/CMSIS/Core/Include/cmsis_gcc.h ****   \details Assigns the given value to the Fault Mask register.
 622:./Libraries/CMSIS/Core/Include/cmsis_gcc.h ****   \param [in]    faultMask  Fault Mask value to set
 623:./Libraries/CMSIS/Core/Include/cmsis_gcc.h ****  */
 624:./Libraries/CMSIS/Core/Include/cmsis_gcc.h **** __STATIC_FORCEINLINE void __set_FAULTMASK(uint32_t faultMask)
 625:./Libraries/CMSIS/Core/Include/cmsis_gcc.h **** {
 626:./Libraries/CMSIS/Core/Include/cmsis_gcc.h ****   __ASM volatile ("MSR faultmask, %0" : : "r" (faultMask) : "memory");
 627:./Libraries/CMSIS/Core/Include/cmsis_gcc.h **** }
 628:./Libraries/CMSIS/Core/Include/cmsis_gcc.h **** 
 629:./Libraries/CMSIS/Core/Include/cmsis_gcc.h **** 
 630:./Libraries/CMSIS/Core/Include/cmsis_gcc.h **** #if (defined (__ARM_FEATURE_CMSE ) && (__ARM_FEATURE_CMSE == 3))
 631:./Libraries/CMSIS/Core/Include/cmsis_gcc.h **** /**
 632:./Libraries/CMSIS/Core/Include/cmsis_gcc.h ****   \brief   Set Fault Mask (non-secure)
 633:./Libraries/CMSIS/Core/Include/cmsis_gcc.h ****   \details Assigns the given value to the non-secure Fault Mask register when in secure state.
 634:./Libraries/CMSIS/Core/Include/cmsis_gcc.h ****   \param [in]    faultMask  Fault Mask value to set
 635:./Libraries/CMSIS/Core/Include/cmsis_gcc.h ****  */
 636:./Libraries/CMSIS/Core/Include/cmsis_gcc.h **** __STATIC_FORCEINLINE void __TZ_set_FAULTMASK_NS(uint32_t faultMask)
 637:./Libraries/CMSIS/Core/Include/cmsis_gcc.h **** {
 638:./Libraries/CMSIS/Core/Include/cmsis_gcc.h ****   __ASM volatile ("MSR faultmask_ns, %0" : : "r" (faultMask) : "memory");
 639:./Libraries/CMSIS/Core/Include/cmsis_gcc.h **** }
 640:./Libraries/CMSIS/Core/Include/cmsis_gcc.h **** #endif
 641:./Libraries/CMSIS/Core/Include/cmsis_gcc.h **** 
 642:./Libraries/CMSIS/Core/Include/cmsis_gcc.h **** #endif /* ((defined (__ARM_ARCH_7M__      ) && (__ARM_ARCH_7M__      == 1)) || \
 643:./Libraries/CMSIS/Core/Include/cmsis_gcc.h ****            (defined (__ARM_ARCH_7EM__     ) && (__ARM_ARCH_7EM__     == 1)) || \
 644:./Libraries/CMSIS/Core/Include/cmsis_gcc.h ****            (defined (__ARM_ARCH_8M_MAIN__ ) && (__ARM_ARCH_8M_MAIN__ == 1))    ) */
 645:./Libraries/CMSIS/Core/Include/cmsis_gcc.h **** 
 646:./Libraries/CMSIS/Core/Include/cmsis_gcc.h **** 
 647:./Libraries/CMSIS/Core/Include/cmsis_gcc.h **** #if ((defined (__ARM_ARCH_8M_MAIN__ ) && (__ARM_ARCH_8M_MAIN__ == 1)) || \
 648:./Libraries/CMSIS/Core/Include/cmsis_gcc.h ****      (defined (__ARM_ARCH_8M_BASE__ ) && (__ARM_ARCH_8M_BASE__ == 1))    )
 649:./Libraries/CMSIS/Core/Include/cmsis_gcc.h **** 
 650:./Libraries/CMSIS/Core/Include/cmsis_gcc.h **** /**
 651:./Libraries/CMSIS/Core/Include/cmsis_gcc.h ****   \brief   Get Process Stack Pointer Limit
 652:./Libraries/CMSIS/Core/Include/cmsis_gcc.h ****   Devices without ARMv8-M Main Extensions (i.e. Cortex-M23) lack the non-secure
 653:./Libraries/CMSIS/Core/Include/cmsis_gcc.h ****   Stack Pointer Limit register hence zero is returned always in non-secure
 654:./Libraries/CMSIS/Core/Include/cmsis_gcc.h ****   mode.
 655:./Libraries/CMSIS/Core/Include/cmsis_gcc.h ****   
 656:./Libraries/CMSIS/Core/Include/cmsis_gcc.h ****   \details Returns the current value of the Process Stack Pointer Limit (PSPLIM).
 657:./Libraries/CMSIS/Core/Include/cmsis_gcc.h ****   \return               PSPLIM Register value
 658:./Libraries/CMSIS/Core/Include/cmsis_gcc.h ****  */
 659:./Libraries/CMSIS/Core/Include/cmsis_gcc.h **** __STATIC_FORCEINLINE uint32_t __get_PSPLIM(void)
 660:./Libraries/CMSIS/Core/Include/cmsis_gcc.h **** {
 661:./Libraries/CMSIS/Core/Include/cmsis_gcc.h **** #if (!(defined (__ARM_ARCH_8M_MAIN__ ) && (__ARM_ARCH_8M_MAIN__ == 1)) && \
 662:./Libraries/CMSIS/Core/Include/cmsis_gcc.h ****     (!defined (__ARM_FEATURE_CMSE) || (__ARM_FEATURE_CMSE < 3)))
 663:./Libraries/CMSIS/Core/Include/cmsis_gcc.h ****     // without main extensions, the non-secure PSPLIM is RAZ/WI
 664:./Libraries/CMSIS/Core/Include/cmsis_gcc.h ****   return 0U;
 665:./Libraries/CMSIS/Core/Include/cmsis_gcc.h **** #else
 666:./Libraries/CMSIS/Core/Include/cmsis_gcc.h ****   uint32_t result;
ARM GAS  /tmp/ccBb4BEn.s 			page 27


 667:./Libraries/CMSIS/Core/Include/cmsis_gcc.h ****   __ASM volatile ("MRS %0, psplim"  : "=r" (result) );
 668:./Libraries/CMSIS/Core/Include/cmsis_gcc.h ****   return result;
 669:./Libraries/CMSIS/Core/Include/cmsis_gcc.h **** #endif
 670:./Libraries/CMSIS/Core/Include/cmsis_gcc.h **** }
 671:./Libraries/CMSIS/Core/Include/cmsis_gcc.h **** 
 672:./Libraries/CMSIS/Core/Include/cmsis_gcc.h **** #if (defined (__ARM_FEATURE_CMSE) && (__ARM_FEATURE_CMSE == 3))
 673:./Libraries/CMSIS/Core/Include/cmsis_gcc.h **** /**
 674:./Libraries/CMSIS/Core/Include/cmsis_gcc.h ****   \brief   Get Process Stack Pointer Limit (non-secure)
 675:./Libraries/CMSIS/Core/Include/cmsis_gcc.h ****   Devices without ARMv8-M Main Extensions (i.e. Cortex-M23) lack the non-secure
 676:./Libraries/CMSIS/Core/Include/cmsis_gcc.h ****   Stack Pointer Limit register hence zero is returned always.
 677:./Libraries/CMSIS/Core/Include/cmsis_gcc.h **** 
 678:./Libraries/CMSIS/Core/Include/cmsis_gcc.h ****   \details Returns the current value of the non-secure Process Stack Pointer Limit (PSPLIM) when in
 679:./Libraries/CMSIS/Core/Include/cmsis_gcc.h ****   \return               PSPLIM Register value
 680:./Libraries/CMSIS/Core/Include/cmsis_gcc.h ****  */
 681:./Libraries/CMSIS/Core/Include/cmsis_gcc.h **** __STATIC_FORCEINLINE uint32_t __TZ_get_PSPLIM_NS(void)
 682:./Libraries/CMSIS/Core/Include/cmsis_gcc.h **** {
 683:./Libraries/CMSIS/Core/Include/cmsis_gcc.h **** #if (!(defined (__ARM_ARCH_8M_MAIN__ ) && (__ARM_ARCH_8M_MAIN__ == 1)))
 684:./Libraries/CMSIS/Core/Include/cmsis_gcc.h ****   // without main extensions, the non-secure PSPLIM is RAZ/WI
 685:./Libraries/CMSIS/Core/Include/cmsis_gcc.h ****   return 0U;
 686:./Libraries/CMSIS/Core/Include/cmsis_gcc.h **** #else
 687:./Libraries/CMSIS/Core/Include/cmsis_gcc.h ****   uint32_t result;
 688:./Libraries/CMSIS/Core/Include/cmsis_gcc.h ****   __ASM volatile ("MRS %0, psplim_ns"  : "=r" (result) );
 689:./Libraries/CMSIS/Core/Include/cmsis_gcc.h ****   return result;
 690:./Libraries/CMSIS/Core/Include/cmsis_gcc.h **** #endif
 691:./Libraries/CMSIS/Core/Include/cmsis_gcc.h **** }
 692:./Libraries/CMSIS/Core/Include/cmsis_gcc.h **** #endif
 693:./Libraries/CMSIS/Core/Include/cmsis_gcc.h **** 
 694:./Libraries/CMSIS/Core/Include/cmsis_gcc.h **** 
 695:./Libraries/CMSIS/Core/Include/cmsis_gcc.h **** /**
 696:./Libraries/CMSIS/Core/Include/cmsis_gcc.h ****   \brief   Set Process Stack Pointer Limit
 697:./Libraries/CMSIS/Core/Include/cmsis_gcc.h ****   Devices without ARMv8-M Main Extensions (i.e. Cortex-M23) lack the non-secure
 698:./Libraries/CMSIS/Core/Include/cmsis_gcc.h ****   Stack Pointer Limit register hence the write is silently ignored in non-secure
 699:./Libraries/CMSIS/Core/Include/cmsis_gcc.h ****   mode.
 700:./Libraries/CMSIS/Core/Include/cmsis_gcc.h ****   
 701:./Libraries/CMSIS/Core/Include/cmsis_gcc.h ****   \details Assigns the given value to the Process Stack Pointer Limit (PSPLIM).
 702:./Libraries/CMSIS/Core/Include/cmsis_gcc.h ****   \param [in]    ProcStackPtrLimit  Process Stack Pointer Limit value to set
 703:./Libraries/CMSIS/Core/Include/cmsis_gcc.h ****  */
 704:./Libraries/CMSIS/Core/Include/cmsis_gcc.h **** __STATIC_FORCEINLINE void __set_PSPLIM(uint32_t ProcStackPtrLimit)
 705:./Libraries/CMSIS/Core/Include/cmsis_gcc.h **** {
 706:./Libraries/CMSIS/Core/Include/cmsis_gcc.h **** #if (!(defined (__ARM_ARCH_8M_MAIN__ ) && (__ARM_ARCH_8M_MAIN__ == 1)) && \
 707:./Libraries/CMSIS/Core/Include/cmsis_gcc.h ****     (!defined (__ARM_FEATURE_CMSE) || (__ARM_FEATURE_CMSE < 3)))
 708:./Libraries/CMSIS/Core/Include/cmsis_gcc.h ****   // without main extensions, the non-secure PSPLIM is RAZ/WI
 709:./Libraries/CMSIS/Core/Include/cmsis_gcc.h ****   (void)ProcStackPtrLimit;
 710:./Libraries/CMSIS/Core/Include/cmsis_gcc.h **** #else
 711:./Libraries/CMSIS/Core/Include/cmsis_gcc.h ****   __ASM volatile ("MSR psplim, %0" : : "r" (ProcStackPtrLimit));
 712:./Libraries/CMSIS/Core/Include/cmsis_gcc.h **** #endif
 713:./Libraries/CMSIS/Core/Include/cmsis_gcc.h **** }
 714:./Libraries/CMSIS/Core/Include/cmsis_gcc.h **** 
 715:./Libraries/CMSIS/Core/Include/cmsis_gcc.h **** 
 716:./Libraries/CMSIS/Core/Include/cmsis_gcc.h **** #if (defined (__ARM_FEATURE_CMSE  ) && (__ARM_FEATURE_CMSE   == 3))
 717:./Libraries/CMSIS/Core/Include/cmsis_gcc.h **** /**
 718:./Libraries/CMSIS/Core/Include/cmsis_gcc.h ****   \brief   Set Process Stack Pointer (non-secure)
 719:./Libraries/CMSIS/Core/Include/cmsis_gcc.h ****   Devices without ARMv8-M Main Extensions (i.e. Cortex-M23) lack the non-secure
 720:./Libraries/CMSIS/Core/Include/cmsis_gcc.h ****   Stack Pointer Limit register hence the write is silently ignored.
 721:./Libraries/CMSIS/Core/Include/cmsis_gcc.h **** 
 722:./Libraries/CMSIS/Core/Include/cmsis_gcc.h ****   \details Assigns the given value to the non-secure Process Stack Pointer Limit (PSPLIM) when in s
 723:./Libraries/CMSIS/Core/Include/cmsis_gcc.h ****   \param [in]    ProcStackPtrLimit  Process Stack Pointer Limit value to set
ARM GAS  /tmp/ccBb4BEn.s 			page 28


 724:./Libraries/CMSIS/Core/Include/cmsis_gcc.h ****  */
 725:./Libraries/CMSIS/Core/Include/cmsis_gcc.h **** __STATIC_FORCEINLINE void __TZ_set_PSPLIM_NS(uint32_t ProcStackPtrLimit)
 726:./Libraries/CMSIS/Core/Include/cmsis_gcc.h **** {
 727:./Libraries/CMSIS/Core/Include/cmsis_gcc.h **** #if (!(defined (__ARM_ARCH_8M_MAIN__ ) && (__ARM_ARCH_8M_MAIN__ == 1)))
 728:./Libraries/CMSIS/Core/Include/cmsis_gcc.h ****   // without main extensions, the non-secure PSPLIM is RAZ/WI
 729:./Libraries/CMSIS/Core/Include/cmsis_gcc.h ****   (void)ProcStackPtrLimit;
 730:./Libraries/CMSIS/Core/Include/cmsis_gcc.h **** #else
 731:./Libraries/CMSIS/Core/Include/cmsis_gcc.h ****   __ASM volatile ("MSR psplim_ns, %0\n" : : "r" (ProcStackPtrLimit));
 732:./Libraries/CMSIS/Core/Include/cmsis_gcc.h **** #endif
 733:./Libraries/CMSIS/Core/Include/cmsis_gcc.h **** }
 734:./Libraries/CMSIS/Core/Include/cmsis_gcc.h **** #endif
 735:./Libraries/CMSIS/Core/Include/cmsis_gcc.h **** 
 736:./Libraries/CMSIS/Core/Include/cmsis_gcc.h **** 
 737:./Libraries/CMSIS/Core/Include/cmsis_gcc.h **** /**
 738:./Libraries/CMSIS/Core/Include/cmsis_gcc.h ****   \brief   Get Main Stack Pointer Limit
 739:./Libraries/CMSIS/Core/Include/cmsis_gcc.h ****   Devices without ARMv8-M Main Extensions (i.e. Cortex-M23) lack the non-secure
 740:./Libraries/CMSIS/Core/Include/cmsis_gcc.h ****   Stack Pointer Limit register hence zero is returned always in non-secure
 741:./Libraries/CMSIS/Core/Include/cmsis_gcc.h ****   mode.
 742:./Libraries/CMSIS/Core/Include/cmsis_gcc.h **** 
 743:./Libraries/CMSIS/Core/Include/cmsis_gcc.h ****   \details Returns the current value of the Main Stack Pointer Limit (MSPLIM).
 744:./Libraries/CMSIS/Core/Include/cmsis_gcc.h ****   \return               MSPLIM Register value
 745:./Libraries/CMSIS/Core/Include/cmsis_gcc.h ****  */
 746:./Libraries/CMSIS/Core/Include/cmsis_gcc.h **** __STATIC_FORCEINLINE uint32_t __get_MSPLIM(void)
 747:./Libraries/CMSIS/Core/Include/cmsis_gcc.h **** {
 748:./Libraries/CMSIS/Core/Include/cmsis_gcc.h **** #if (!(defined (__ARM_ARCH_8M_MAIN__ ) && (__ARM_ARCH_8M_MAIN__ == 1)) && \
 749:./Libraries/CMSIS/Core/Include/cmsis_gcc.h ****     (!defined (__ARM_FEATURE_CMSE) || (__ARM_FEATURE_CMSE < 3)))
 750:./Libraries/CMSIS/Core/Include/cmsis_gcc.h ****   // without main extensions, the non-secure MSPLIM is RAZ/WI
 751:./Libraries/CMSIS/Core/Include/cmsis_gcc.h ****   return 0U;
 752:./Libraries/CMSIS/Core/Include/cmsis_gcc.h **** #else
 753:./Libraries/CMSIS/Core/Include/cmsis_gcc.h ****   uint32_t result;
 754:./Libraries/CMSIS/Core/Include/cmsis_gcc.h ****   __ASM volatile ("MRS %0, msplim" : "=r" (result) );
 755:./Libraries/CMSIS/Core/Include/cmsis_gcc.h ****   return result;
 756:./Libraries/CMSIS/Core/Include/cmsis_gcc.h **** #endif
 757:./Libraries/CMSIS/Core/Include/cmsis_gcc.h **** }
 758:./Libraries/CMSIS/Core/Include/cmsis_gcc.h **** 
 759:./Libraries/CMSIS/Core/Include/cmsis_gcc.h **** 
 760:./Libraries/CMSIS/Core/Include/cmsis_gcc.h **** #if (defined (__ARM_FEATURE_CMSE  ) && (__ARM_FEATURE_CMSE   == 3))
 761:./Libraries/CMSIS/Core/Include/cmsis_gcc.h **** /**
 762:./Libraries/CMSIS/Core/Include/cmsis_gcc.h ****   \brief   Get Main Stack Pointer Limit (non-secure)
 763:./Libraries/CMSIS/Core/Include/cmsis_gcc.h ****   Devices without ARMv8-M Main Extensions (i.e. Cortex-M23) lack the non-secure
 764:./Libraries/CMSIS/Core/Include/cmsis_gcc.h ****   Stack Pointer Limit register hence zero is returned always.
 765:./Libraries/CMSIS/Core/Include/cmsis_gcc.h **** 
 766:./Libraries/CMSIS/Core/Include/cmsis_gcc.h ****   \details Returns the current value of the non-secure Main Stack Pointer Limit(MSPLIM) when in sec
 767:./Libraries/CMSIS/Core/Include/cmsis_gcc.h ****   \return               MSPLIM Register value
 768:./Libraries/CMSIS/Core/Include/cmsis_gcc.h ****  */
 769:./Libraries/CMSIS/Core/Include/cmsis_gcc.h **** __STATIC_FORCEINLINE uint32_t __TZ_get_MSPLIM_NS(void)
 770:./Libraries/CMSIS/Core/Include/cmsis_gcc.h **** {
 771:./Libraries/CMSIS/Core/Include/cmsis_gcc.h **** #if (!(defined (__ARM_ARCH_8M_MAIN__ ) && (__ARM_ARCH_8M_MAIN__ == 1)))
 772:./Libraries/CMSIS/Core/Include/cmsis_gcc.h ****   // without main extensions, the non-secure MSPLIM is RAZ/WI
 773:./Libraries/CMSIS/Core/Include/cmsis_gcc.h ****   return 0U;
 774:./Libraries/CMSIS/Core/Include/cmsis_gcc.h **** #else
 775:./Libraries/CMSIS/Core/Include/cmsis_gcc.h ****   uint32_t result;
 776:./Libraries/CMSIS/Core/Include/cmsis_gcc.h ****   __ASM volatile ("MRS %0, msplim_ns" : "=r" (result) );
 777:./Libraries/CMSIS/Core/Include/cmsis_gcc.h ****   return result;
 778:./Libraries/CMSIS/Core/Include/cmsis_gcc.h **** #endif
 779:./Libraries/CMSIS/Core/Include/cmsis_gcc.h **** }
 780:./Libraries/CMSIS/Core/Include/cmsis_gcc.h **** #endif
ARM GAS  /tmp/ccBb4BEn.s 			page 29


 781:./Libraries/CMSIS/Core/Include/cmsis_gcc.h **** 
 782:./Libraries/CMSIS/Core/Include/cmsis_gcc.h **** 
 783:./Libraries/CMSIS/Core/Include/cmsis_gcc.h **** /**
 784:./Libraries/CMSIS/Core/Include/cmsis_gcc.h ****   \brief   Set Main Stack Pointer Limit
 785:./Libraries/CMSIS/Core/Include/cmsis_gcc.h ****   Devices without ARMv8-M Main Extensions (i.e. Cortex-M23) lack the non-secure
 786:./Libraries/CMSIS/Core/Include/cmsis_gcc.h ****   Stack Pointer Limit register hence the write is silently ignored in non-secure
 787:./Libraries/CMSIS/Core/Include/cmsis_gcc.h ****   mode.
 788:./Libraries/CMSIS/Core/Include/cmsis_gcc.h **** 
 789:./Libraries/CMSIS/Core/Include/cmsis_gcc.h ****   \details Assigns the given value to the Main Stack Pointer Limit (MSPLIM).
 790:./Libraries/CMSIS/Core/Include/cmsis_gcc.h ****   \param [in]    MainStackPtrLimit  Main Stack Pointer Limit value to set
 791:./Libraries/CMSIS/Core/Include/cmsis_gcc.h ****  */
 792:./Libraries/CMSIS/Core/Include/cmsis_gcc.h **** __STATIC_FORCEINLINE void __set_MSPLIM(uint32_t MainStackPtrLimit)
 793:./Libraries/CMSIS/Core/Include/cmsis_gcc.h **** {
 794:./Libraries/CMSIS/Core/Include/cmsis_gcc.h **** #if (!(defined (__ARM_ARCH_8M_MAIN__ ) && (__ARM_ARCH_8M_MAIN__ == 1)) && \
 795:./Libraries/CMSIS/Core/Include/cmsis_gcc.h ****     (!defined (__ARM_FEATURE_CMSE) || (__ARM_FEATURE_CMSE < 3)))
 796:./Libraries/CMSIS/Core/Include/cmsis_gcc.h ****   // without main extensions, the non-secure MSPLIM is RAZ/WI
 797:./Libraries/CMSIS/Core/Include/cmsis_gcc.h ****   (void)MainStackPtrLimit;
 798:./Libraries/CMSIS/Core/Include/cmsis_gcc.h **** #else
 799:./Libraries/CMSIS/Core/Include/cmsis_gcc.h ****   __ASM volatile ("MSR msplim, %0" : : "r" (MainStackPtrLimit));
 800:./Libraries/CMSIS/Core/Include/cmsis_gcc.h **** #endif
 801:./Libraries/CMSIS/Core/Include/cmsis_gcc.h **** }
 802:./Libraries/CMSIS/Core/Include/cmsis_gcc.h **** 
 803:./Libraries/CMSIS/Core/Include/cmsis_gcc.h **** 
 804:./Libraries/CMSIS/Core/Include/cmsis_gcc.h **** #if (defined (__ARM_FEATURE_CMSE  ) && (__ARM_FEATURE_CMSE   == 3))
 805:./Libraries/CMSIS/Core/Include/cmsis_gcc.h **** /**
 806:./Libraries/CMSIS/Core/Include/cmsis_gcc.h ****   \brief   Set Main Stack Pointer Limit (non-secure)
 807:./Libraries/CMSIS/Core/Include/cmsis_gcc.h ****   Devices without ARMv8-M Main Extensions (i.e. Cortex-M23) lack the non-secure
 808:./Libraries/CMSIS/Core/Include/cmsis_gcc.h ****   Stack Pointer Limit register hence the write is silently ignored.
 809:./Libraries/CMSIS/Core/Include/cmsis_gcc.h **** 
 810:./Libraries/CMSIS/Core/Include/cmsis_gcc.h ****   \details Assigns the given value to the non-secure Main Stack Pointer Limit (MSPLIM) when in secu
 811:./Libraries/CMSIS/Core/Include/cmsis_gcc.h ****   \param [in]    MainStackPtrLimit  Main Stack Pointer value to set
 812:./Libraries/CMSIS/Core/Include/cmsis_gcc.h ****  */
 813:./Libraries/CMSIS/Core/Include/cmsis_gcc.h **** __STATIC_FORCEINLINE void __TZ_set_MSPLIM_NS(uint32_t MainStackPtrLimit)
 814:./Libraries/CMSIS/Core/Include/cmsis_gcc.h **** {
 815:./Libraries/CMSIS/Core/Include/cmsis_gcc.h **** #if (!(defined (__ARM_ARCH_8M_MAIN__ ) && (__ARM_ARCH_8M_MAIN__ == 1)))
 816:./Libraries/CMSIS/Core/Include/cmsis_gcc.h ****   // without main extensions, the non-secure MSPLIM is RAZ/WI
 817:./Libraries/CMSIS/Core/Include/cmsis_gcc.h ****   (void)MainStackPtrLimit;
 818:./Libraries/CMSIS/Core/Include/cmsis_gcc.h **** #else
 819:./Libraries/CMSIS/Core/Include/cmsis_gcc.h ****   __ASM volatile ("MSR msplim_ns, %0" : : "r" (MainStackPtrLimit));
 820:./Libraries/CMSIS/Core/Include/cmsis_gcc.h **** #endif
 821:./Libraries/CMSIS/Core/Include/cmsis_gcc.h **** }
 822:./Libraries/CMSIS/Core/Include/cmsis_gcc.h **** #endif
 823:./Libraries/CMSIS/Core/Include/cmsis_gcc.h **** 
 824:./Libraries/CMSIS/Core/Include/cmsis_gcc.h **** #endif /* ((defined (__ARM_ARCH_8M_MAIN__ ) && (__ARM_ARCH_8M_MAIN__ == 1)) || \
 825:./Libraries/CMSIS/Core/Include/cmsis_gcc.h ****            (defined (__ARM_ARCH_8M_BASE__ ) && (__ARM_ARCH_8M_BASE__ == 1))    ) */
 826:./Libraries/CMSIS/Core/Include/cmsis_gcc.h **** 
 827:./Libraries/CMSIS/Core/Include/cmsis_gcc.h **** 
 828:./Libraries/CMSIS/Core/Include/cmsis_gcc.h **** /**
 829:./Libraries/CMSIS/Core/Include/cmsis_gcc.h ****   \brief   Get FPSCR
 830:./Libraries/CMSIS/Core/Include/cmsis_gcc.h ****   \details Returns the current value of the Floating Point Status/Control register.
 831:./Libraries/CMSIS/Core/Include/cmsis_gcc.h ****   \return               Floating Point Status/Control register value
 832:./Libraries/CMSIS/Core/Include/cmsis_gcc.h ****  */
 833:./Libraries/CMSIS/Core/Include/cmsis_gcc.h **** __STATIC_FORCEINLINE uint32_t __get_FPSCR(void)
 834:./Libraries/CMSIS/Core/Include/cmsis_gcc.h **** {
 835:./Libraries/CMSIS/Core/Include/cmsis_gcc.h **** #if ((defined (__FPU_PRESENT) && (__FPU_PRESENT == 1U)) && \
 836:./Libraries/CMSIS/Core/Include/cmsis_gcc.h ****      (defined (__FPU_USED   ) && (__FPU_USED    == 1U))     )
 837:./Libraries/CMSIS/Core/Include/cmsis_gcc.h **** #if __has_builtin(__builtin_arm_get_fpscr) 
ARM GAS  /tmp/ccBb4BEn.s 			page 30


 838:./Libraries/CMSIS/Core/Include/cmsis_gcc.h **** // Re-enable using built-in when GCC has been fixed
 839:./Libraries/CMSIS/Core/Include/cmsis_gcc.h **** // || (__GNUC__ > 7) || (__GNUC__ == 7 && __GNUC_MINOR__ >= 2)
 840:./Libraries/CMSIS/Core/Include/cmsis_gcc.h ****   /* see https://gcc.gnu.org/ml/gcc-patches/2017-04/msg00443.html */
 841:./Libraries/CMSIS/Core/Include/cmsis_gcc.h ****   return __builtin_arm_get_fpscr();
 842:./Libraries/CMSIS/Core/Include/cmsis_gcc.h **** #else
 843:./Libraries/CMSIS/Core/Include/cmsis_gcc.h ****   uint32_t result;
 844:./Libraries/CMSIS/Core/Include/cmsis_gcc.h **** 
 845:./Libraries/CMSIS/Core/Include/cmsis_gcc.h ****   __ASM volatile ("VMRS %0, fpscr" : "=r" (result) );
 846:./Libraries/CMSIS/Core/Include/cmsis_gcc.h ****   return(result);
 847:./Libraries/CMSIS/Core/Include/cmsis_gcc.h **** #endif
 848:./Libraries/CMSIS/Core/Include/cmsis_gcc.h **** #else
 849:./Libraries/CMSIS/Core/Include/cmsis_gcc.h ****   return(0U);
 850:./Libraries/CMSIS/Core/Include/cmsis_gcc.h **** #endif
 851:./Libraries/CMSIS/Core/Include/cmsis_gcc.h **** }
 852:./Libraries/CMSIS/Core/Include/cmsis_gcc.h **** 
 853:./Libraries/CMSIS/Core/Include/cmsis_gcc.h **** 
 854:./Libraries/CMSIS/Core/Include/cmsis_gcc.h **** /**
 855:./Libraries/CMSIS/Core/Include/cmsis_gcc.h ****   \brief   Set FPSCR
 856:./Libraries/CMSIS/Core/Include/cmsis_gcc.h ****   \details Assigns the given value to the Floating Point Status/Control register.
 857:./Libraries/CMSIS/Core/Include/cmsis_gcc.h ****   \param [in]    fpscr  Floating Point Status/Control value to set
 858:./Libraries/CMSIS/Core/Include/cmsis_gcc.h ****  */
 859:./Libraries/CMSIS/Core/Include/cmsis_gcc.h **** __STATIC_FORCEINLINE void __set_FPSCR(uint32_t fpscr)
 860:./Libraries/CMSIS/Core/Include/cmsis_gcc.h **** {
 861:./Libraries/CMSIS/Core/Include/cmsis_gcc.h **** #if ((defined (__FPU_PRESENT) && (__FPU_PRESENT == 1U)) && \
 862:./Libraries/CMSIS/Core/Include/cmsis_gcc.h ****      (defined (__FPU_USED   ) && (__FPU_USED    == 1U))     )
 863:./Libraries/CMSIS/Core/Include/cmsis_gcc.h **** #if __has_builtin(__builtin_arm_set_fpscr)
 864:./Libraries/CMSIS/Core/Include/cmsis_gcc.h **** // Re-enable using built-in when GCC has been fixed
 865:./Libraries/CMSIS/Core/Include/cmsis_gcc.h **** // || (__GNUC__ > 7) || (__GNUC__ == 7 && __GNUC_MINOR__ >= 2)
 866:./Libraries/CMSIS/Core/Include/cmsis_gcc.h ****   /* see https://gcc.gnu.org/ml/gcc-patches/2017-04/msg00443.html */
 867:./Libraries/CMSIS/Core/Include/cmsis_gcc.h ****   __builtin_arm_set_fpscr(fpscr);
 868:./Libraries/CMSIS/Core/Include/cmsis_gcc.h **** #else
 869:./Libraries/CMSIS/Core/Include/cmsis_gcc.h ****   __ASM volatile ("VMSR fpscr, %0" : : "r" (fpscr) : "vfpcc", "memory");
 870:./Libraries/CMSIS/Core/Include/cmsis_gcc.h **** #endif
 871:./Libraries/CMSIS/Core/Include/cmsis_gcc.h **** #else
 872:./Libraries/CMSIS/Core/Include/cmsis_gcc.h ****   (void)fpscr;
 873:./Libraries/CMSIS/Core/Include/cmsis_gcc.h **** #endif
 874:./Libraries/CMSIS/Core/Include/cmsis_gcc.h **** }
 875:./Libraries/CMSIS/Core/Include/cmsis_gcc.h **** 
 876:./Libraries/CMSIS/Core/Include/cmsis_gcc.h **** 
 877:./Libraries/CMSIS/Core/Include/cmsis_gcc.h **** /*@} end of CMSIS_Core_RegAccFunctions */
 878:./Libraries/CMSIS/Core/Include/cmsis_gcc.h **** 
 879:./Libraries/CMSIS/Core/Include/cmsis_gcc.h **** 
 880:./Libraries/CMSIS/Core/Include/cmsis_gcc.h **** /* ##########################  Core Instruction Access  ######################### */
 881:./Libraries/CMSIS/Core/Include/cmsis_gcc.h **** /** \defgroup CMSIS_Core_InstructionInterface CMSIS Core Instruction Interface
 882:./Libraries/CMSIS/Core/Include/cmsis_gcc.h ****   Access to dedicated instructions
 883:./Libraries/CMSIS/Core/Include/cmsis_gcc.h ****   @{
 884:./Libraries/CMSIS/Core/Include/cmsis_gcc.h **** */
 885:./Libraries/CMSIS/Core/Include/cmsis_gcc.h **** 
 886:./Libraries/CMSIS/Core/Include/cmsis_gcc.h **** /* Define macros for porting to both thumb1 and thumb2.
 887:./Libraries/CMSIS/Core/Include/cmsis_gcc.h ****  * For thumb1, use low register (r0-r7), specified by constraint "l"
 888:./Libraries/CMSIS/Core/Include/cmsis_gcc.h ****  * Otherwise, use general registers, specified by constraint "r" */
 889:./Libraries/CMSIS/Core/Include/cmsis_gcc.h **** #if defined (__thumb__) && !defined (__thumb2__)
 890:./Libraries/CMSIS/Core/Include/cmsis_gcc.h **** #define __CMSIS_GCC_OUT_REG(r) "=l" (r)
 891:./Libraries/CMSIS/Core/Include/cmsis_gcc.h **** #define __CMSIS_GCC_RW_REG(r) "+l" (r)
 892:./Libraries/CMSIS/Core/Include/cmsis_gcc.h **** #define __CMSIS_GCC_USE_REG(r) "l" (r)
 893:./Libraries/CMSIS/Core/Include/cmsis_gcc.h **** #else
 894:./Libraries/CMSIS/Core/Include/cmsis_gcc.h **** #define __CMSIS_GCC_OUT_REG(r) "=r" (r)
ARM GAS  /tmp/ccBb4BEn.s 			page 31


 895:./Libraries/CMSIS/Core/Include/cmsis_gcc.h **** #define __CMSIS_GCC_RW_REG(r) "+r" (r)
 896:./Libraries/CMSIS/Core/Include/cmsis_gcc.h **** #define __CMSIS_GCC_USE_REG(r) "r" (r)
 897:./Libraries/CMSIS/Core/Include/cmsis_gcc.h **** #endif
 898:./Libraries/CMSIS/Core/Include/cmsis_gcc.h **** 
 899:./Libraries/CMSIS/Core/Include/cmsis_gcc.h **** /**
 900:./Libraries/CMSIS/Core/Include/cmsis_gcc.h ****   \brief   No Operation
 901:./Libraries/CMSIS/Core/Include/cmsis_gcc.h ****   \details No Operation does nothing. This instruction can be used for code alignment purposes.
 902:./Libraries/CMSIS/Core/Include/cmsis_gcc.h ****  */
 903:./Libraries/CMSIS/Core/Include/cmsis_gcc.h **** #define __NOP()                             __ASM volatile ("nop")
 904:./Libraries/CMSIS/Core/Include/cmsis_gcc.h **** 
 905:./Libraries/CMSIS/Core/Include/cmsis_gcc.h **** /**
 906:./Libraries/CMSIS/Core/Include/cmsis_gcc.h ****   \brief   Wait For Interrupt
 907:./Libraries/CMSIS/Core/Include/cmsis_gcc.h ****   \details Wait For Interrupt is a hint instruction that suspends execution until one of a number o
 908:./Libraries/CMSIS/Core/Include/cmsis_gcc.h ****  */
 909:./Libraries/CMSIS/Core/Include/cmsis_gcc.h **** #define __WFI()                             __ASM volatile ("wfi")
 910:./Libraries/CMSIS/Core/Include/cmsis_gcc.h **** 
 911:./Libraries/CMSIS/Core/Include/cmsis_gcc.h **** 
 912:./Libraries/CMSIS/Core/Include/cmsis_gcc.h **** /**
 913:./Libraries/CMSIS/Core/Include/cmsis_gcc.h ****   \brief   Wait For Event
 914:./Libraries/CMSIS/Core/Include/cmsis_gcc.h ****   \details Wait For Event is a hint instruction that permits the processor to enter
 915:./Libraries/CMSIS/Core/Include/cmsis_gcc.h ****            a low-power state until one of a number of events occurs.
 916:./Libraries/CMSIS/Core/Include/cmsis_gcc.h ****  */
 917:./Libraries/CMSIS/Core/Include/cmsis_gcc.h **** #define __WFE()                             __ASM volatile ("wfe")
 918:./Libraries/CMSIS/Core/Include/cmsis_gcc.h **** 
 919:./Libraries/CMSIS/Core/Include/cmsis_gcc.h **** 
 920:./Libraries/CMSIS/Core/Include/cmsis_gcc.h **** /**
 921:./Libraries/CMSIS/Core/Include/cmsis_gcc.h ****   \brief   Send Event
 922:./Libraries/CMSIS/Core/Include/cmsis_gcc.h ****   \details Send Event is a hint instruction. It causes an event to be signaled to the CPU.
 923:./Libraries/CMSIS/Core/Include/cmsis_gcc.h ****  */
 924:./Libraries/CMSIS/Core/Include/cmsis_gcc.h **** #define __SEV()                             __ASM volatile ("sev")
 925:./Libraries/CMSIS/Core/Include/cmsis_gcc.h **** 
 926:./Libraries/CMSIS/Core/Include/cmsis_gcc.h **** 
 927:./Libraries/CMSIS/Core/Include/cmsis_gcc.h **** /**
 928:./Libraries/CMSIS/Core/Include/cmsis_gcc.h ****   \brief   Instruction Synchronization Barrier
 929:./Libraries/CMSIS/Core/Include/cmsis_gcc.h ****   \details Instruction Synchronization Barrier flushes the pipeline in the processor,
 930:./Libraries/CMSIS/Core/Include/cmsis_gcc.h ****            so that all instructions following the ISB are fetched from cache or memory,
 931:./Libraries/CMSIS/Core/Include/cmsis_gcc.h ****            after the instruction has been completed.
 932:./Libraries/CMSIS/Core/Include/cmsis_gcc.h ****  */
 933:./Libraries/CMSIS/Core/Include/cmsis_gcc.h **** __STATIC_FORCEINLINE void __ISB(void)
 934:./Libraries/CMSIS/Core/Include/cmsis_gcc.h **** {
 935:./Libraries/CMSIS/Core/Include/cmsis_gcc.h ****   __ASM volatile ("isb 0xF":::"memory");
 936:./Libraries/CMSIS/Core/Include/cmsis_gcc.h **** }
 937:./Libraries/CMSIS/Core/Include/cmsis_gcc.h **** 
 938:./Libraries/CMSIS/Core/Include/cmsis_gcc.h **** 
 939:./Libraries/CMSIS/Core/Include/cmsis_gcc.h **** /**
 940:./Libraries/CMSIS/Core/Include/cmsis_gcc.h ****   \brief   Data Synchronization Barrier
 941:./Libraries/CMSIS/Core/Include/cmsis_gcc.h ****   \details Acts as a special kind of Data Memory Barrier.
 942:./Libraries/CMSIS/Core/Include/cmsis_gcc.h ****            It completes when all explicit memory accesses before this instruction complete.
 943:./Libraries/CMSIS/Core/Include/cmsis_gcc.h ****  */
 944:./Libraries/CMSIS/Core/Include/cmsis_gcc.h **** __STATIC_FORCEINLINE void __DSB(void)
 945:./Libraries/CMSIS/Core/Include/cmsis_gcc.h **** {
 946:./Libraries/CMSIS/Core/Include/cmsis_gcc.h ****   __ASM volatile ("dsb 0xF":::"memory");
 947:./Libraries/CMSIS/Core/Include/cmsis_gcc.h **** }
 948:./Libraries/CMSIS/Core/Include/cmsis_gcc.h **** 
 949:./Libraries/CMSIS/Core/Include/cmsis_gcc.h **** 
 950:./Libraries/CMSIS/Core/Include/cmsis_gcc.h **** /**
 951:./Libraries/CMSIS/Core/Include/cmsis_gcc.h ****   \brief   Data Memory Barrier
ARM GAS  /tmp/ccBb4BEn.s 			page 32


 952:./Libraries/CMSIS/Core/Include/cmsis_gcc.h ****   \details Ensures the apparent order of the explicit memory operations before
 953:./Libraries/CMSIS/Core/Include/cmsis_gcc.h ****            and after the instruction, without ensuring their completion.
 954:./Libraries/CMSIS/Core/Include/cmsis_gcc.h ****  */
 955:./Libraries/CMSIS/Core/Include/cmsis_gcc.h **** __STATIC_FORCEINLINE void __DMB(void)
 956:./Libraries/CMSIS/Core/Include/cmsis_gcc.h **** {
 957:./Libraries/CMSIS/Core/Include/cmsis_gcc.h ****   __ASM volatile ("dmb 0xF":::"memory");
 958:./Libraries/CMSIS/Core/Include/cmsis_gcc.h **** }
 959:./Libraries/CMSIS/Core/Include/cmsis_gcc.h **** 
 960:./Libraries/CMSIS/Core/Include/cmsis_gcc.h **** 
 961:./Libraries/CMSIS/Core/Include/cmsis_gcc.h **** /**
 962:./Libraries/CMSIS/Core/Include/cmsis_gcc.h ****   \brief   Reverse byte order (32 bit)
 963:./Libraries/CMSIS/Core/Include/cmsis_gcc.h ****   \details Reverses the byte order in unsigned integer value. For example, 0x12345678 becomes 0x785
 964:./Libraries/CMSIS/Core/Include/cmsis_gcc.h ****   \param [in]    value  Value to reverse
 965:./Libraries/CMSIS/Core/Include/cmsis_gcc.h ****   \return               Reversed value
 966:./Libraries/CMSIS/Core/Include/cmsis_gcc.h ****  */
 967:./Libraries/CMSIS/Core/Include/cmsis_gcc.h **** __STATIC_FORCEINLINE uint32_t __REV(uint32_t value)
 968:./Libraries/CMSIS/Core/Include/cmsis_gcc.h **** {
 969:./Libraries/CMSIS/Core/Include/cmsis_gcc.h **** #if (__GNUC__ > 4) || (__GNUC__ == 4 && __GNUC_MINOR__ >= 5)
 970:./Libraries/CMSIS/Core/Include/cmsis_gcc.h ****   return __builtin_bswap32(value);
 971:./Libraries/CMSIS/Core/Include/cmsis_gcc.h **** #else
 972:./Libraries/CMSIS/Core/Include/cmsis_gcc.h ****   uint32_t result;
 973:./Libraries/CMSIS/Core/Include/cmsis_gcc.h **** 
 974:./Libraries/CMSIS/Core/Include/cmsis_gcc.h ****   __ASM volatile ("rev %0, %1" : __CMSIS_GCC_OUT_REG (result) : __CMSIS_GCC_USE_REG (value) );
 975:./Libraries/CMSIS/Core/Include/cmsis_gcc.h ****   return result;
 976:./Libraries/CMSIS/Core/Include/cmsis_gcc.h **** #endif
 977:./Libraries/CMSIS/Core/Include/cmsis_gcc.h **** }
 978:./Libraries/CMSIS/Core/Include/cmsis_gcc.h **** 
 979:./Libraries/CMSIS/Core/Include/cmsis_gcc.h **** 
 980:./Libraries/CMSIS/Core/Include/cmsis_gcc.h **** /**
 981:./Libraries/CMSIS/Core/Include/cmsis_gcc.h ****   \brief   Reverse byte order (16 bit)
 982:./Libraries/CMSIS/Core/Include/cmsis_gcc.h ****   \details Reverses the byte order within each halfword of a word. For example, 0x12345678 becomes 
 983:./Libraries/CMSIS/Core/Include/cmsis_gcc.h ****   \param [in]    value  Value to reverse
 984:./Libraries/CMSIS/Core/Include/cmsis_gcc.h ****   \return               Reversed value
 985:./Libraries/CMSIS/Core/Include/cmsis_gcc.h ****  */
 986:./Libraries/CMSIS/Core/Include/cmsis_gcc.h **** __STATIC_FORCEINLINE uint32_t __REV16(uint32_t value)
 987:./Libraries/CMSIS/Core/Include/cmsis_gcc.h **** {
 988:./Libraries/CMSIS/Core/Include/cmsis_gcc.h ****   uint32_t result;
 989:./Libraries/CMSIS/Core/Include/cmsis_gcc.h **** 
 990:./Libraries/CMSIS/Core/Include/cmsis_gcc.h ****   __ASM volatile ("rev16 %0, %1" : __CMSIS_GCC_OUT_REG (result) : __CMSIS_GCC_USE_REG (value) );
 991:./Libraries/CMSIS/Core/Include/cmsis_gcc.h ****   return result;
 992:./Libraries/CMSIS/Core/Include/cmsis_gcc.h **** }
 993:./Libraries/CMSIS/Core/Include/cmsis_gcc.h **** 
 994:./Libraries/CMSIS/Core/Include/cmsis_gcc.h **** 
 995:./Libraries/CMSIS/Core/Include/cmsis_gcc.h **** /**
 996:./Libraries/CMSIS/Core/Include/cmsis_gcc.h ****   \brief   Reverse byte order (16 bit)
 997:./Libraries/CMSIS/Core/Include/cmsis_gcc.h ****   \details Reverses the byte order in a 16-bit value and returns the signed 16-bit result. For exam
 998:./Libraries/CMSIS/Core/Include/cmsis_gcc.h ****   \param [in]    value  Value to reverse
 999:./Libraries/CMSIS/Core/Include/cmsis_gcc.h ****   \return               Reversed value
1000:./Libraries/CMSIS/Core/Include/cmsis_gcc.h ****  */
1001:./Libraries/CMSIS/Core/Include/cmsis_gcc.h **** __STATIC_FORCEINLINE int16_t __REVSH(int16_t value)
1002:./Libraries/CMSIS/Core/Include/cmsis_gcc.h **** {
1003:./Libraries/CMSIS/Core/Include/cmsis_gcc.h **** #if (__GNUC__ > 4) || (__GNUC__ == 4 && __GNUC_MINOR__ >= 8)
1004:./Libraries/CMSIS/Core/Include/cmsis_gcc.h ****   return (int16_t)__builtin_bswap16(value);
1005:./Libraries/CMSIS/Core/Include/cmsis_gcc.h **** #else
1006:./Libraries/CMSIS/Core/Include/cmsis_gcc.h ****   int16_t result;
1007:./Libraries/CMSIS/Core/Include/cmsis_gcc.h **** 
1008:./Libraries/CMSIS/Core/Include/cmsis_gcc.h ****   __ASM volatile ("revsh %0, %1" : __CMSIS_GCC_OUT_REG (result) : __CMSIS_GCC_USE_REG (value) );
ARM GAS  /tmp/ccBb4BEn.s 			page 33


1009:./Libraries/CMSIS/Core/Include/cmsis_gcc.h ****   return result;
1010:./Libraries/CMSIS/Core/Include/cmsis_gcc.h **** #endif
1011:./Libraries/CMSIS/Core/Include/cmsis_gcc.h **** }
1012:./Libraries/CMSIS/Core/Include/cmsis_gcc.h **** 
1013:./Libraries/CMSIS/Core/Include/cmsis_gcc.h **** 
1014:./Libraries/CMSIS/Core/Include/cmsis_gcc.h **** /**
1015:./Libraries/CMSIS/Core/Include/cmsis_gcc.h ****   \brief   Rotate Right in unsigned value (32 bit)
1016:./Libraries/CMSIS/Core/Include/cmsis_gcc.h ****   \details Rotate Right (immediate) provides the value of the contents of a register rotated by a v
1017:./Libraries/CMSIS/Core/Include/cmsis_gcc.h ****   \param [in]    op1  Value to rotate
1018:./Libraries/CMSIS/Core/Include/cmsis_gcc.h ****   \param [in]    op2  Number of Bits to rotate
1019:./Libraries/CMSIS/Core/Include/cmsis_gcc.h ****   \return               Rotated value
1020:./Libraries/CMSIS/Core/Include/cmsis_gcc.h ****  */
1021:./Libraries/CMSIS/Core/Include/cmsis_gcc.h **** __STATIC_FORCEINLINE uint32_t __ROR(uint32_t op1, uint32_t op2)
 397              		.loc 3 1021 31 is_stmt 1 view .LVU116
 398              	.LBB50:
1022:./Libraries/CMSIS/Core/Include/cmsis_gcc.h **** {
1023:./Libraries/CMSIS/Core/Include/cmsis_gcc.h ****   op2 %= 32U;
 399              		.loc 3 1023 3 view .LVU117
1024:./Libraries/CMSIS/Core/Include/cmsis_gcc.h ****   if (op2 == 0U)
 400              		.loc 3 1024 3 view .LVU118
1025:./Libraries/CMSIS/Core/Include/cmsis_gcc.h ****   {
1026:./Libraries/CMSIS/Core/Include/cmsis_gcc.h ****     return op1;
1027:./Libraries/CMSIS/Core/Include/cmsis_gcc.h ****   }
1028:./Libraries/CMSIS/Core/Include/cmsis_gcc.h ****   return (op1 >> op2) | (op1 << (32U - op2));
 401              		.loc 3 1028 3 view .LVU119
 402              		.loc 3 1028 3 is_stmt 0 view .LVU120
 403              	.LBE50:
 404              	.LBE49:
 405              	.LBB52:
 406              	.LBI52:
1029:./Libraries/CMSIS/Core/Include/cmsis_gcc.h **** }
1030:./Libraries/CMSIS/Core/Include/cmsis_gcc.h **** 
1031:./Libraries/CMSIS/Core/Include/cmsis_gcc.h **** 
1032:./Libraries/CMSIS/Core/Include/cmsis_gcc.h **** /**
1033:./Libraries/CMSIS/Core/Include/cmsis_gcc.h ****   \brief   Breakpoint
1034:./Libraries/CMSIS/Core/Include/cmsis_gcc.h ****   \details Causes the processor to enter Debug state.
1035:./Libraries/CMSIS/Core/Include/cmsis_gcc.h ****            Debug tools can use this to investigate system state when the instruction at a particula
1036:./Libraries/CMSIS/Core/Include/cmsis_gcc.h ****   \param [in]    value  is ignored by the processor.
1037:./Libraries/CMSIS/Core/Include/cmsis_gcc.h ****                  If required, a debugger can use it to store additional information about the break
1038:./Libraries/CMSIS/Core/Include/cmsis_gcc.h ****  */
1039:./Libraries/CMSIS/Core/Include/cmsis_gcc.h **** #define __BKPT(value)                       __ASM volatile ("bkpt "#value)
1040:./Libraries/CMSIS/Core/Include/cmsis_gcc.h **** 
1041:./Libraries/CMSIS/Core/Include/cmsis_gcc.h **** 
1042:./Libraries/CMSIS/Core/Include/cmsis_gcc.h **** /**
1043:./Libraries/CMSIS/Core/Include/cmsis_gcc.h ****   \brief   Reverse bit order of value
1044:./Libraries/CMSIS/Core/Include/cmsis_gcc.h ****   \details Reverses the bit order of the given value.
1045:./Libraries/CMSIS/Core/Include/cmsis_gcc.h ****   \param [in]    value  Value to reverse
1046:./Libraries/CMSIS/Core/Include/cmsis_gcc.h ****   \return               Reversed value
1047:./Libraries/CMSIS/Core/Include/cmsis_gcc.h ****  */
1048:./Libraries/CMSIS/Core/Include/cmsis_gcc.h **** __STATIC_FORCEINLINE uint32_t __RBIT(uint32_t value)
1049:./Libraries/CMSIS/Core/Include/cmsis_gcc.h **** {
1050:./Libraries/CMSIS/Core/Include/cmsis_gcc.h ****   uint32_t result;
1051:./Libraries/CMSIS/Core/Include/cmsis_gcc.h **** 
1052:./Libraries/CMSIS/Core/Include/cmsis_gcc.h **** #if ((defined (__ARM_ARCH_7M__      ) && (__ARM_ARCH_7M__      == 1)) || \
1053:./Libraries/CMSIS/Core/Include/cmsis_gcc.h ****      (defined (__ARM_ARCH_7EM__     ) && (__ARM_ARCH_7EM__     == 1)) || \
1054:./Libraries/CMSIS/Core/Include/cmsis_gcc.h ****      (defined (__ARM_ARCH_8M_MAIN__ ) && (__ARM_ARCH_8M_MAIN__ == 1))    )
1055:./Libraries/CMSIS/Core/Include/cmsis_gcc.h ****    __ASM volatile ("rbit %0, %1" : "=r" (result) : "r" (value) );
ARM GAS  /tmp/ccBb4BEn.s 			page 34


1056:./Libraries/CMSIS/Core/Include/cmsis_gcc.h **** #else
1057:./Libraries/CMSIS/Core/Include/cmsis_gcc.h ****   uint32_t s = (4U /*sizeof(v)*/ * 8U) - 1U; /* extra shift needed at end */
1058:./Libraries/CMSIS/Core/Include/cmsis_gcc.h **** 
1059:./Libraries/CMSIS/Core/Include/cmsis_gcc.h ****   result = value;                      /* r will be reversed bits of v; first get LSB of v */
1060:./Libraries/CMSIS/Core/Include/cmsis_gcc.h ****   for (value >>= 1U; value != 0U; value >>= 1U)
1061:./Libraries/CMSIS/Core/Include/cmsis_gcc.h ****   {
1062:./Libraries/CMSIS/Core/Include/cmsis_gcc.h ****     result <<= 1U;
1063:./Libraries/CMSIS/Core/Include/cmsis_gcc.h ****     result |= value & 1U;
1064:./Libraries/CMSIS/Core/Include/cmsis_gcc.h ****     s--;
1065:./Libraries/CMSIS/Core/Include/cmsis_gcc.h ****   }
1066:./Libraries/CMSIS/Core/Include/cmsis_gcc.h ****   result <<= s;                        /* shift when v's highest bits are zero */
1067:./Libraries/CMSIS/Core/Include/cmsis_gcc.h **** #endif
1068:./Libraries/CMSIS/Core/Include/cmsis_gcc.h ****   return result;
1069:./Libraries/CMSIS/Core/Include/cmsis_gcc.h **** }
1070:./Libraries/CMSIS/Core/Include/cmsis_gcc.h **** 
1071:./Libraries/CMSIS/Core/Include/cmsis_gcc.h **** 
1072:./Libraries/CMSIS/Core/Include/cmsis_gcc.h **** /**
1073:./Libraries/CMSIS/Core/Include/cmsis_gcc.h ****   \brief   Count leading zeros
1074:./Libraries/CMSIS/Core/Include/cmsis_gcc.h ****   \details Counts the number of leading zeros of a data value.
1075:./Libraries/CMSIS/Core/Include/cmsis_gcc.h ****   \param [in]  value  Value to count the leading zeros
1076:./Libraries/CMSIS/Core/Include/cmsis_gcc.h ****   \return             number of leading zeros in value
1077:./Libraries/CMSIS/Core/Include/cmsis_gcc.h ****  */
1078:./Libraries/CMSIS/Core/Include/cmsis_gcc.h **** __STATIC_FORCEINLINE uint8_t __CLZ(uint32_t value)
1079:./Libraries/CMSIS/Core/Include/cmsis_gcc.h **** {
1080:./Libraries/CMSIS/Core/Include/cmsis_gcc.h ****   /* Even though __builtin_clz produces a CLZ instruction on ARM, formally
1081:./Libraries/CMSIS/Core/Include/cmsis_gcc.h ****      __builtin_clz(0) is undefined behaviour, so handle this case specially.
1082:./Libraries/CMSIS/Core/Include/cmsis_gcc.h ****      This guarantees ARM-compatible results if happening to compile on a non-ARM
1083:./Libraries/CMSIS/Core/Include/cmsis_gcc.h ****      target, and ensures the compiler doesn't decide to activate any
1084:./Libraries/CMSIS/Core/Include/cmsis_gcc.h ****      optimisations using the logic "value was passed to __builtin_clz, so it
1085:./Libraries/CMSIS/Core/Include/cmsis_gcc.h ****      is non-zero".
1086:./Libraries/CMSIS/Core/Include/cmsis_gcc.h ****      ARM GCC 7.3 and possibly earlier will optimise this test away, leaving a
1087:./Libraries/CMSIS/Core/Include/cmsis_gcc.h ****      single CLZ instruction.
1088:./Libraries/CMSIS/Core/Include/cmsis_gcc.h ****    */
1089:./Libraries/CMSIS/Core/Include/cmsis_gcc.h ****   if (value == 0U)
1090:./Libraries/CMSIS/Core/Include/cmsis_gcc.h ****   {
1091:./Libraries/CMSIS/Core/Include/cmsis_gcc.h ****     return 32U;
1092:./Libraries/CMSIS/Core/Include/cmsis_gcc.h ****   }
1093:./Libraries/CMSIS/Core/Include/cmsis_gcc.h ****   return __builtin_clz(value);
1094:./Libraries/CMSIS/Core/Include/cmsis_gcc.h **** }
1095:./Libraries/CMSIS/Core/Include/cmsis_gcc.h **** 
1096:./Libraries/CMSIS/Core/Include/cmsis_gcc.h **** 
1097:./Libraries/CMSIS/Core/Include/cmsis_gcc.h **** #if ((defined (__ARM_ARCH_7M__      ) && (__ARM_ARCH_7M__      == 1)) || \
1098:./Libraries/CMSIS/Core/Include/cmsis_gcc.h ****      (defined (__ARM_ARCH_7EM__     ) && (__ARM_ARCH_7EM__     == 1)) || \
1099:./Libraries/CMSIS/Core/Include/cmsis_gcc.h ****      (defined (__ARM_ARCH_8M_MAIN__ ) && (__ARM_ARCH_8M_MAIN__ == 1)) || \
1100:./Libraries/CMSIS/Core/Include/cmsis_gcc.h ****      (defined (__ARM_ARCH_8M_BASE__ ) && (__ARM_ARCH_8M_BASE__ == 1))    )
1101:./Libraries/CMSIS/Core/Include/cmsis_gcc.h **** /**
1102:./Libraries/CMSIS/Core/Include/cmsis_gcc.h ****   \brief   LDR Exclusive (8 bit)
1103:./Libraries/CMSIS/Core/Include/cmsis_gcc.h ****   \details Executes a exclusive LDR instruction for 8 bit value.
1104:./Libraries/CMSIS/Core/Include/cmsis_gcc.h ****   \param [in]    ptr  Pointer to data
1105:./Libraries/CMSIS/Core/Include/cmsis_gcc.h ****   \return             value of type uint8_t at (*ptr)
1106:./Libraries/CMSIS/Core/Include/cmsis_gcc.h ****  */
1107:./Libraries/CMSIS/Core/Include/cmsis_gcc.h **** __STATIC_FORCEINLINE uint8_t __LDREXB(volatile uint8_t *addr)
1108:./Libraries/CMSIS/Core/Include/cmsis_gcc.h **** {
1109:./Libraries/CMSIS/Core/Include/cmsis_gcc.h ****     uint32_t result;
1110:./Libraries/CMSIS/Core/Include/cmsis_gcc.h **** 
1111:./Libraries/CMSIS/Core/Include/cmsis_gcc.h **** #if (__GNUC__ > 4) || (__GNUC__ == 4 && __GNUC_MINOR__ >= 8)
1112:./Libraries/CMSIS/Core/Include/cmsis_gcc.h ****    __ASM volatile ("ldrexb %0, %1" : "=r" (result) : "Q" (*addr) );
ARM GAS  /tmp/ccBb4BEn.s 			page 35


1113:./Libraries/CMSIS/Core/Include/cmsis_gcc.h **** #else
1114:./Libraries/CMSIS/Core/Include/cmsis_gcc.h ****     /* Prior to GCC 4.8, "Q" will be expanded to [rx, #0] which is not
1115:./Libraries/CMSIS/Core/Include/cmsis_gcc.h ****        accepted by assembler. So has to use following less efficient pattern.
1116:./Libraries/CMSIS/Core/Include/cmsis_gcc.h ****     */
1117:./Libraries/CMSIS/Core/Include/cmsis_gcc.h ****    __ASM volatile ("ldrexb %0, [%1]" : "=r" (result) : "r" (addr) : "memory" );
1118:./Libraries/CMSIS/Core/Include/cmsis_gcc.h **** #endif
1119:./Libraries/CMSIS/Core/Include/cmsis_gcc.h ****    return ((uint8_t) result);    /* Add explicit type cast here */
1120:./Libraries/CMSIS/Core/Include/cmsis_gcc.h **** }
1121:./Libraries/CMSIS/Core/Include/cmsis_gcc.h **** 
1122:./Libraries/CMSIS/Core/Include/cmsis_gcc.h **** 
1123:./Libraries/CMSIS/Core/Include/cmsis_gcc.h **** /**
1124:./Libraries/CMSIS/Core/Include/cmsis_gcc.h ****   \brief   LDR Exclusive (16 bit)
1125:./Libraries/CMSIS/Core/Include/cmsis_gcc.h ****   \details Executes a exclusive LDR instruction for 16 bit values.
1126:./Libraries/CMSIS/Core/Include/cmsis_gcc.h ****   \param [in]    ptr  Pointer to data
1127:./Libraries/CMSIS/Core/Include/cmsis_gcc.h ****   \return        value of type uint16_t at (*ptr)
1128:./Libraries/CMSIS/Core/Include/cmsis_gcc.h ****  */
1129:./Libraries/CMSIS/Core/Include/cmsis_gcc.h **** __STATIC_FORCEINLINE uint16_t __LDREXH(volatile uint16_t *addr)
1130:./Libraries/CMSIS/Core/Include/cmsis_gcc.h **** {
1131:./Libraries/CMSIS/Core/Include/cmsis_gcc.h ****     uint32_t result;
1132:./Libraries/CMSIS/Core/Include/cmsis_gcc.h **** 
1133:./Libraries/CMSIS/Core/Include/cmsis_gcc.h **** #if (__GNUC__ > 4) || (__GNUC__ == 4 && __GNUC_MINOR__ >= 8)
1134:./Libraries/CMSIS/Core/Include/cmsis_gcc.h ****    __ASM volatile ("ldrexh %0, %1" : "=r" (result) : "Q" (*addr) );
1135:./Libraries/CMSIS/Core/Include/cmsis_gcc.h **** #else
1136:./Libraries/CMSIS/Core/Include/cmsis_gcc.h ****     /* Prior to GCC 4.8, "Q" will be expanded to [rx, #0] which is not
1137:./Libraries/CMSIS/Core/Include/cmsis_gcc.h ****        accepted by assembler. So has to use following less efficient pattern.
1138:./Libraries/CMSIS/Core/Include/cmsis_gcc.h ****     */
1139:./Libraries/CMSIS/Core/Include/cmsis_gcc.h ****    __ASM volatile ("ldrexh %0, [%1]" : "=r" (result) : "r" (addr) : "memory" );
1140:./Libraries/CMSIS/Core/Include/cmsis_gcc.h **** #endif
1141:./Libraries/CMSIS/Core/Include/cmsis_gcc.h ****    return ((uint16_t) result);    /* Add explicit type cast here */
1142:./Libraries/CMSIS/Core/Include/cmsis_gcc.h **** }
1143:./Libraries/CMSIS/Core/Include/cmsis_gcc.h **** 
1144:./Libraries/CMSIS/Core/Include/cmsis_gcc.h **** 
1145:./Libraries/CMSIS/Core/Include/cmsis_gcc.h **** /**
1146:./Libraries/CMSIS/Core/Include/cmsis_gcc.h ****   \brief   LDR Exclusive (32 bit)
1147:./Libraries/CMSIS/Core/Include/cmsis_gcc.h ****   \details Executes a exclusive LDR instruction for 32 bit values.
1148:./Libraries/CMSIS/Core/Include/cmsis_gcc.h ****   \param [in]    ptr  Pointer to data
1149:./Libraries/CMSIS/Core/Include/cmsis_gcc.h ****   \return        value of type uint32_t at (*ptr)
1150:./Libraries/CMSIS/Core/Include/cmsis_gcc.h ****  */
1151:./Libraries/CMSIS/Core/Include/cmsis_gcc.h **** __STATIC_FORCEINLINE uint32_t __LDREXW(volatile uint32_t *addr)
1152:./Libraries/CMSIS/Core/Include/cmsis_gcc.h **** {
1153:./Libraries/CMSIS/Core/Include/cmsis_gcc.h ****     uint32_t result;
1154:./Libraries/CMSIS/Core/Include/cmsis_gcc.h **** 
1155:./Libraries/CMSIS/Core/Include/cmsis_gcc.h ****    __ASM volatile ("ldrex %0, %1" : "=r" (result) : "Q" (*addr) );
1156:./Libraries/CMSIS/Core/Include/cmsis_gcc.h ****    return(result);
1157:./Libraries/CMSIS/Core/Include/cmsis_gcc.h **** }
1158:./Libraries/CMSIS/Core/Include/cmsis_gcc.h **** 
1159:./Libraries/CMSIS/Core/Include/cmsis_gcc.h **** 
1160:./Libraries/CMSIS/Core/Include/cmsis_gcc.h **** /**
1161:./Libraries/CMSIS/Core/Include/cmsis_gcc.h ****   \brief   STR Exclusive (8 bit)
1162:./Libraries/CMSIS/Core/Include/cmsis_gcc.h ****   \details Executes a exclusive STR instruction for 8 bit values.
1163:./Libraries/CMSIS/Core/Include/cmsis_gcc.h ****   \param [in]  value  Value to store
1164:./Libraries/CMSIS/Core/Include/cmsis_gcc.h ****   \param [in]    ptr  Pointer to location
1165:./Libraries/CMSIS/Core/Include/cmsis_gcc.h ****   \return          0  Function succeeded
1166:./Libraries/CMSIS/Core/Include/cmsis_gcc.h ****   \return          1  Function failed
1167:./Libraries/CMSIS/Core/Include/cmsis_gcc.h ****  */
1168:./Libraries/CMSIS/Core/Include/cmsis_gcc.h **** __STATIC_FORCEINLINE uint32_t __STREXB(uint8_t value, volatile uint8_t *addr)
1169:./Libraries/CMSIS/Core/Include/cmsis_gcc.h **** {
ARM GAS  /tmp/ccBb4BEn.s 			page 36


1170:./Libraries/CMSIS/Core/Include/cmsis_gcc.h ****    uint32_t result;
1171:./Libraries/CMSIS/Core/Include/cmsis_gcc.h **** 
1172:./Libraries/CMSIS/Core/Include/cmsis_gcc.h ****    __ASM volatile ("strexb %0, %2, %1" : "=&r" (result), "=Q" (*addr) : "r" ((uint32_t)value) );
1173:./Libraries/CMSIS/Core/Include/cmsis_gcc.h ****    return(result);
1174:./Libraries/CMSIS/Core/Include/cmsis_gcc.h **** }
1175:./Libraries/CMSIS/Core/Include/cmsis_gcc.h **** 
1176:./Libraries/CMSIS/Core/Include/cmsis_gcc.h **** 
1177:./Libraries/CMSIS/Core/Include/cmsis_gcc.h **** /**
1178:./Libraries/CMSIS/Core/Include/cmsis_gcc.h ****   \brief   STR Exclusive (16 bit)
1179:./Libraries/CMSIS/Core/Include/cmsis_gcc.h ****   \details Executes a exclusive STR instruction for 16 bit values.
1180:./Libraries/CMSIS/Core/Include/cmsis_gcc.h ****   \param [in]  value  Value to store
1181:./Libraries/CMSIS/Core/Include/cmsis_gcc.h ****   \param [in]    ptr  Pointer to location
1182:./Libraries/CMSIS/Core/Include/cmsis_gcc.h ****   \return          0  Function succeeded
1183:./Libraries/CMSIS/Core/Include/cmsis_gcc.h ****   \return          1  Function failed
1184:./Libraries/CMSIS/Core/Include/cmsis_gcc.h ****  */
1185:./Libraries/CMSIS/Core/Include/cmsis_gcc.h **** __STATIC_FORCEINLINE uint32_t __STREXH(uint16_t value, volatile uint16_t *addr)
1186:./Libraries/CMSIS/Core/Include/cmsis_gcc.h **** {
1187:./Libraries/CMSIS/Core/Include/cmsis_gcc.h ****    uint32_t result;
1188:./Libraries/CMSIS/Core/Include/cmsis_gcc.h **** 
1189:./Libraries/CMSIS/Core/Include/cmsis_gcc.h ****    __ASM volatile ("strexh %0, %2, %1" : "=&r" (result), "=Q" (*addr) : "r" ((uint32_t)value) );
1190:./Libraries/CMSIS/Core/Include/cmsis_gcc.h ****    return(result);
1191:./Libraries/CMSIS/Core/Include/cmsis_gcc.h **** }
1192:./Libraries/CMSIS/Core/Include/cmsis_gcc.h **** 
1193:./Libraries/CMSIS/Core/Include/cmsis_gcc.h **** 
1194:./Libraries/CMSIS/Core/Include/cmsis_gcc.h **** /**
1195:./Libraries/CMSIS/Core/Include/cmsis_gcc.h ****   \brief   STR Exclusive (32 bit)
1196:./Libraries/CMSIS/Core/Include/cmsis_gcc.h ****   \details Executes a exclusive STR instruction for 32 bit values.
1197:./Libraries/CMSIS/Core/Include/cmsis_gcc.h ****   \param [in]  value  Value to store
1198:./Libraries/CMSIS/Core/Include/cmsis_gcc.h ****   \param [in]    ptr  Pointer to location
1199:./Libraries/CMSIS/Core/Include/cmsis_gcc.h ****   \return          0  Function succeeded
1200:./Libraries/CMSIS/Core/Include/cmsis_gcc.h ****   \return          1  Function failed
1201:./Libraries/CMSIS/Core/Include/cmsis_gcc.h ****  */
1202:./Libraries/CMSIS/Core/Include/cmsis_gcc.h **** __STATIC_FORCEINLINE uint32_t __STREXW(uint32_t value, volatile uint32_t *addr)
1203:./Libraries/CMSIS/Core/Include/cmsis_gcc.h **** {
1204:./Libraries/CMSIS/Core/Include/cmsis_gcc.h ****    uint32_t result;
1205:./Libraries/CMSIS/Core/Include/cmsis_gcc.h **** 
1206:./Libraries/CMSIS/Core/Include/cmsis_gcc.h ****    __ASM volatile ("strex %0, %2, %1" : "=&r" (result), "=Q" (*addr) : "r" (value) );
1207:./Libraries/CMSIS/Core/Include/cmsis_gcc.h ****    return(result);
1208:./Libraries/CMSIS/Core/Include/cmsis_gcc.h **** }
1209:./Libraries/CMSIS/Core/Include/cmsis_gcc.h **** 
1210:./Libraries/CMSIS/Core/Include/cmsis_gcc.h **** 
1211:./Libraries/CMSIS/Core/Include/cmsis_gcc.h **** /**
1212:./Libraries/CMSIS/Core/Include/cmsis_gcc.h ****   \brief   Remove the exclusive lock
1213:./Libraries/CMSIS/Core/Include/cmsis_gcc.h ****   \details Removes the exclusive lock which is created by LDREX.
1214:./Libraries/CMSIS/Core/Include/cmsis_gcc.h ****  */
1215:./Libraries/CMSIS/Core/Include/cmsis_gcc.h **** __STATIC_FORCEINLINE void __CLREX(void)
1216:./Libraries/CMSIS/Core/Include/cmsis_gcc.h **** {
1217:./Libraries/CMSIS/Core/Include/cmsis_gcc.h ****   __ASM volatile ("clrex" ::: "memory");
1218:./Libraries/CMSIS/Core/Include/cmsis_gcc.h **** }
1219:./Libraries/CMSIS/Core/Include/cmsis_gcc.h **** 
1220:./Libraries/CMSIS/Core/Include/cmsis_gcc.h **** #endif /* ((defined (__ARM_ARCH_7M__      ) && (__ARM_ARCH_7M__      == 1)) || \
1221:./Libraries/CMSIS/Core/Include/cmsis_gcc.h ****            (defined (__ARM_ARCH_7EM__     ) && (__ARM_ARCH_7EM__     == 1)) || \
1222:./Libraries/CMSIS/Core/Include/cmsis_gcc.h ****            (defined (__ARM_ARCH_8M_MAIN__ ) && (__ARM_ARCH_8M_MAIN__ == 1)) || \
1223:./Libraries/CMSIS/Core/Include/cmsis_gcc.h ****            (defined (__ARM_ARCH_8M_BASE__ ) && (__ARM_ARCH_8M_BASE__ == 1))    ) */
1224:./Libraries/CMSIS/Core/Include/cmsis_gcc.h **** 
1225:./Libraries/CMSIS/Core/Include/cmsis_gcc.h **** 
1226:./Libraries/CMSIS/Core/Include/cmsis_gcc.h **** #if ((defined (__ARM_ARCH_7M__      ) && (__ARM_ARCH_7M__      == 1)) || \
ARM GAS  /tmp/ccBb4BEn.s 			page 37


1227:./Libraries/CMSIS/Core/Include/cmsis_gcc.h ****      (defined (__ARM_ARCH_7EM__     ) && (__ARM_ARCH_7EM__     == 1)) || \
1228:./Libraries/CMSIS/Core/Include/cmsis_gcc.h ****      (defined (__ARM_ARCH_8M_MAIN__ ) && (__ARM_ARCH_8M_MAIN__ == 1))    )
1229:./Libraries/CMSIS/Core/Include/cmsis_gcc.h **** /**
1230:./Libraries/CMSIS/Core/Include/cmsis_gcc.h ****   \brief   Signed Saturate
1231:./Libraries/CMSIS/Core/Include/cmsis_gcc.h ****   \details Saturates a signed value.
1232:./Libraries/CMSIS/Core/Include/cmsis_gcc.h ****   \param [in]  ARG1  Value to be saturated
1233:./Libraries/CMSIS/Core/Include/cmsis_gcc.h ****   \param [in]  ARG2  Bit position to saturate to (1..32)
1234:./Libraries/CMSIS/Core/Include/cmsis_gcc.h ****   \return             Saturated value
1235:./Libraries/CMSIS/Core/Include/cmsis_gcc.h ****  */
1236:./Libraries/CMSIS/Core/Include/cmsis_gcc.h **** #define __SSAT(ARG1,ARG2) \
1237:./Libraries/CMSIS/Core/Include/cmsis_gcc.h **** __extension__ \
1238:./Libraries/CMSIS/Core/Include/cmsis_gcc.h **** ({                          \
1239:./Libraries/CMSIS/Core/Include/cmsis_gcc.h ****   int32_t __RES, __ARG1 = (ARG1); \
1240:./Libraries/CMSIS/Core/Include/cmsis_gcc.h ****   __ASM ("ssat %0, %1, %2" : "=r" (__RES) :  "I" (ARG2), "r" (__ARG1) ); \
1241:./Libraries/CMSIS/Core/Include/cmsis_gcc.h ****   __RES; \
1242:./Libraries/CMSIS/Core/Include/cmsis_gcc.h ****  })
1243:./Libraries/CMSIS/Core/Include/cmsis_gcc.h **** 
1244:./Libraries/CMSIS/Core/Include/cmsis_gcc.h **** 
1245:./Libraries/CMSIS/Core/Include/cmsis_gcc.h **** /**
1246:./Libraries/CMSIS/Core/Include/cmsis_gcc.h ****   \brief   Unsigned Saturate
1247:./Libraries/CMSIS/Core/Include/cmsis_gcc.h ****   \details Saturates an unsigned value.
1248:./Libraries/CMSIS/Core/Include/cmsis_gcc.h ****   \param [in]  ARG1  Value to be saturated
1249:./Libraries/CMSIS/Core/Include/cmsis_gcc.h ****   \param [in]  ARG2  Bit position to saturate to (0..31)
1250:./Libraries/CMSIS/Core/Include/cmsis_gcc.h ****   \return             Saturated value
1251:./Libraries/CMSIS/Core/Include/cmsis_gcc.h ****  */
1252:./Libraries/CMSIS/Core/Include/cmsis_gcc.h **** #define __USAT(ARG1,ARG2) \
1253:./Libraries/CMSIS/Core/Include/cmsis_gcc.h ****  __extension__ \
1254:./Libraries/CMSIS/Core/Include/cmsis_gcc.h **** ({                          \
1255:./Libraries/CMSIS/Core/Include/cmsis_gcc.h ****   uint32_t __RES, __ARG1 = (ARG1); \
1256:./Libraries/CMSIS/Core/Include/cmsis_gcc.h ****   __ASM ("usat %0, %1, %2" : "=r" (__RES) :  "I" (ARG2), "r" (__ARG1) ); \
1257:./Libraries/CMSIS/Core/Include/cmsis_gcc.h ****   __RES; \
1258:./Libraries/CMSIS/Core/Include/cmsis_gcc.h ****  })
1259:./Libraries/CMSIS/Core/Include/cmsis_gcc.h **** 
1260:./Libraries/CMSIS/Core/Include/cmsis_gcc.h **** 
1261:./Libraries/CMSIS/Core/Include/cmsis_gcc.h **** /**
1262:./Libraries/CMSIS/Core/Include/cmsis_gcc.h ****   \brief   Rotate Right with Extend (32 bit)
1263:./Libraries/CMSIS/Core/Include/cmsis_gcc.h ****   \details Moves each bit of a bitstring right by one bit.
1264:./Libraries/CMSIS/Core/Include/cmsis_gcc.h ****            The carry input is shifted in at the left end of the bitstring.
1265:./Libraries/CMSIS/Core/Include/cmsis_gcc.h ****   \param [in]    value  Value to rotate
1266:./Libraries/CMSIS/Core/Include/cmsis_gcc.h ****   \return               Rotated value
1267:./Libraries/CMSIS/Core/Include/cmsis_gcc.h ****  */
1268:./Libraries/CMSIS/Core/Include/cmsis_gcc.h **** __STATIC_FORCEINLINE uint32_t __RRX(uint32_t value)
1269:./Libraries/CMSIS/Core/Include/cmsis_gcc.h **** {
1270:./Libraries/CMSIS/Core/Include/cmsis_gcc.h ****   uint32_t result;
1271:./Libraries/CMSIS/Core/Include/cmsis_gcc.h **** 
1272:./Libraries/CMSIS/Core/Include/cmsis_gcc.h ****   __ASM volatile ("rrx %0, %1" : __CMSIS_GCC_OUT_REG (result) : __CMSIS_GCC_USE_REG (value) );
1273:./Libraries/CMSIS/Core/Include/cmsis_gcc.h ****   return(result);
1274:./Libraries/CMSIS/Core/Include/cmsis_gcc.h **** }
1275:./Libraries/CMSIS/Core/Include/cmsis_gcc.h **** 
1276:./Libraries/CMSIS/Core/Include/cmsis_gcc.h **** 
1277:./Libraries/CMSIS/Core/Include/cmsis_gcc.h **** /**
1278:./Libraries/CMSIS/Core/Include/cmsis_gcc.h ****   \brief   LDRT Unprivileged (8 bit)
1279:./Libraries/CMSIS/Core/Include/cmsis_gcc.h ****   \details Executes a Unprivileged LDRT instruction for 8 bit value.
1280:./Libraries/CMSIS/Core/Include/cmsis_gcc.h ****   \param [in]    ptr  Pointer to data
1281:./Libraries/CMSIS/Core/Include/cmsis_gcc.h ****   \return             value of type uint8_t at (*ptr)
1282:./Libraries/CMSIS/Core/Include/cmsis_gcc.h ****  */
1283:./Libraries/CMSIS/Core/Include/cmsis_gcc.h **** __STATIC_FORCEINLINE uint8_t __LDRBT(volatile uint8_t *ptr)
ARM GAS  /tmp/ccBb4BEn.s 			page 38


1284:./Libraries/CMSIS/Core/Include/cmsis_gcc.h **** {
1285:./Libraries/CMSIS/Core/Include/cmsis_gcc.h ****     uint32_t result;
1286:./Libraries/CMSIS/Core/Include/cmsis_gcc.h **** 
1287:./Libraries/CMSIS/Core/Include/cmsis_gcc.h **** #if (__GNUC__ > 4) || (__GNUC__ == 4 && __GNUC_MINOR__ >= 8)
1288:./Libraries/CMSIS/Core/Include/cmsis_gcc.h ****    __ASM volatile ("ldrbt %0, %1" : "=r" (result) : "Q" (*ptr) );
1289:./Libraries/CMSIS/Core/Include/cmsis_gcc.h **** #else
1290:./Libraries/CMSIS/Core/Include/cmsis_gcc.h ****     /* Prior to GCC 4.8, "Q" will be expanded to [rx, #0] which is not
1291:./Libraries/CMSIS/Core/Include/cmsis_gcc.h ****        accepted by assembler. So has to use following less efficient pattern.
1292:./Libraries/CMSIS/Core/Include/cmsis_gcc.h ****     */
1293:./Libraries/CMSIS/Core/Include/cmsis_gcc.h ****    __ASM volatile ("ldrbt %0, [%1]" : "=r" (result) : "r" (ptr) : "memory" );
1294:./Libraries/CMSIS/Core/Include/cmsis_gcc.h **** #endif
1295:./Libraries/CMSIS/Core/Include/cmsis_gcc.h ****    return ((uint8_t) result);    /* Add explicit type cast here */
1296:./Libraries/CMSIS/Core/Include/cmsis_gcc.h **** }
1297:./Libraries/CMSIS/Core/Include/cmsis_gcc.h **** 
1298:./Libraries/CMSIS/Core/Include/cmsis_gcc.h **** 
1299:./Libraries/CMSIS/Core/Include/cmsis_gcc.h **** /**
1300:./Libraries/CMSIS/Core/Include/cmsis_gcc.h ****   \brief   LDRT Unprivileged (16 bit)
1301:./Libraries/CMSIS/Core/Include/cmsis_gcc.h ****   \details Executes a Unprivileged LDRT instruction for 16 bit values.
1302:./Libraries/CMSIS/Core/Include/cmsis_gcc.h ****   \param [in]    ptr  Pointer to data
1303:./Libraries/CMSIS/Core/Include/cmsis_gcc.h ****   \return        value of type uint16_t at (*ptr)
1304:./Libraries/CMSIS/Core/Include/cmsis_gcc.h ****  */
1305:./Libraries/CMSIS/Core/Include/cmsis_gcc.h **** __STATIC_FORCEINLINE uint16_t __LDRHT(volatile uint16_t *ptr)
1306:./Libraries/CMSIS/Core/Include/cmsis_gcc.h **** {
1307:./Libraries/CMSIS/Core/Include/cmsis_gcc.h ****     uint32_t result;
1308:./Libraries/CMSIS/Core/Include/cmsis_gcc.h **** 
1309:./Libraries/CMSIS/Core/Include/cmsis_gcc.h **** #if (__GNUC__ > 4) || (__GNUC__ == 4 && __GNUC_MINOR__ >= 8)
1310:./Libraries/CMSIS/Core/Include/cmsis_gcc.h ****    __ASM volatile ("ldrht %0, %1" : "=r" (result) : "Q" (*ptr) );
1311:./Libraries/CMSIS/Core/Include/cmsis_gcc.h **** #else
1312:./Libraries/CMSIS/Core/Include/cmsis_gcc.h ****     /* Prior to GCC 4.8, "Q" will be expanded to [rx, #0] which is not
1313:./Libraries/CMSIS/Core/Include/cmsis_gcc.h ****        accepted by assembler. So has to use following less efficient pattern.
1314:./Libraries/CMSIS/Core/Include/cmsis_gcc.h ****     */
1315:./Libraries/CMSIS/Core/Include/cmsis_gcc.h ****    __ASM volatile ("ldrht %0, [%1]" : "=r" (result) : "r" (ptr) : "memory" );
1316:./Libraries/CMSIS/Core/Include/cmsis_gcc.h **** #endif
1317:./Libraries/CMSIS/Core/Include/cmsis_gcc.h ****    return ((uint16_t) result);    /* Add explicit type cast here */
1318:./Libraries/CMSIS/Core/Include/cmsis_gcc.h **** }
1319:./Libraries/CMSIS/Core/Include/cmsis_gcc.h **** 
1320:./Libraries/CMSIS/Core/Include/cmsis_gcc.h **** 
1321:./Libraries/CMSIS/Core/Include/cmsis_gcc.h **** /**
1322:./Libraries/CMSIS/Core/Include/cmsis_gcc.h ****   \brief   LDRT Unprivileged (32 bit)
1323:./Libraries/CMSIS/Core/Include/cmsis_gcc.h ****   \details Executes a Unprivileged LDRT instruction for 32 bit values.
1324:./Libraries/CMSIS/Core/Include/cmsis_gcc.h ****   \param [in]    ptr  Pointer to data
1325:./Libraries/CMSIS/Core/Include/cmsis_gcc.h ****   \return        value of type uint32_t at (*ptr)
1326:./Libraries/CMSIS/Core/Include/cmsis_gcc.h ****  */
1327:./Libraries/CMSIS/Core/Include/cmsis_gcc.h **** __STATIC_FORCEINLINE uint32_t __LDRT(volatile uint32_t *ptr)
1328:./Libraries/CMSIS/Core/Include/cmsis_gcc.h **** {
1329:./Libraries/CMSIS/Core/Include/cmsis_gcc.h ****     uint32_t result;
1330:./Libraries/CMSIS/Core/Include/cmsis_gcc.h **** 
1331:./Libraries/CMSIS/Core/Include/cmsis_gcc.h ****    __ASM volatile ("ldrt %0, %1" : "=r" (result) : "Q" (*ptr) );
1332:./Libraries/CMSIS/Core/Include/cmsis_gcc.h ****    return(result);
1333:./Libraries/CMSIS/Core/Include/cmsis_gcc.h **** }
1334:./Libraries/CMSIS/Core/Include/cmsis_gcc.h **** 
1335:./Libraries/CMSIS/Core/Include/cmsis_gcc.h **** 
1336:./Libraries/CMSIS/Core/Include/cmsis_gcc.h **** /**
1337:./Libraries/CMSIS/Core/Include/cmsis_gcc.h ****   \brief   STRT Unprivileged (8 bit)
1338:./Libraries/CMSIS/Core/Include/cmsis_gcc.h ****   \details Executes a Unprivileged STRT instruction for 8 bit values.
1339:./Libraries/CMSIS/Core/Include/cmsis_gcc.h ****   \param [in]  value  Value to store
1340:./Libraries/CMSIS/Core/Include/cmsis_gcc.h ****   \param [in]    ptr  Pointer to location
ARM GAS  /tmp/ccBb4BEn.s 			page 39


1341:./Libraries/CMSIS/Core/Include/cmsis_gcc.h ****  */
1342:./Libraries/CMSIS/Core/Include/cmsis_gcc.h **** __STATIC_FORCEINLINE void __STRBT(uint8_t value, volatile uint8_t *ptr)
1343:./Libraries/CMSIS/Core/Include/cmsis_gcc.h **** {
1344:./Libraries/CMSIS/Core/Include/cmsis_gcc.h ****    __ASM volatile ("strbt %1, %0" : "=Q" (*ptr) : "r" ((uint32_t)value) );
1345:./Libraries/CMSIS/Core/Include/cmsis_gcc.h **** }
1346:./Libraries/CMSIS/Core/Include/cmsis_gcc.h **** 
1347:./Libraries/CMSIS/Core/Include/cmsis_gcc.h **** 
1348:./Libraries/CMSIS/Core/Include/cmsis_gcc.h **** /**
1349:./Libraries/CMSIS/Core/Include/cmsis_gcc.h ****   \brief   STRT Unprivileged (16 bit)
1350:./Libraries/CMSIS/Core/Include/cmsis_gcc.h ****   \details Executes a Unprivileged STRT instruction for 16 bit values.
1351:./Libraries/CMSIS/Core/Include/cmsis_gcc.h ****   \param [in]  value  Value to store
1352:./Libraries/CMSIS/Core/Include/cmsis_gcc.h ****   \param [in]    ptr  Pointer to location
1353:./Libraries/CMSIS/Core/Include/cmsis_gcc.h ****  */
1354:./Libraries/CMSIS/Core/Include/cmsis_gcc.h **** __STATIC_FORCEINLINE void __STRHT(uint16_t value, volatile uint16_t *ptr)
1355:./Libraries/CMSIS/Core/Include/cmsis_gcc.h **** {
1356:./Libraries/CMSIS/Core/Include/cmsis_gcc.h ****    __ASM volatile ("strht %1, %0" : "=Q" (*ptr) : "r" ((uint32_t)value) );
1357:./Libraries/CMSIS/Core/Include/cmsis_gcc.h **** }
1358:./Libraries/CMSIS/Core/Include/cmsis_gcc.h **** 
1359:./Libraries/CMSIS/Core/Include/cmsis_gcc.h **** 
1360:./Libraries/CMSIS/Core/Include/cmsis_gcc.h **** /**
1361:./Libraries/CMSIS/Core/Include/cmsis_gcc.h ****   \brief   STRT Unprivileged (32 bit)
1362:./Libraries/CMSIS/Core/Include/cmsis_gcc.h ****   \details Executes a Unprivileged STRT instruction for 32 bit values.
1363:./Libraries/CMSIS/Core/Include/cmsis_gcc.h ****   \param [in]  value  Value to store
1364:./Libraries/CMSIS/Core/Include/cmsis_gcc.h ****   \param [in]    ptr  Pointer to location
1365:./Libraries/CMSIS/Core/Include/cmsis_gcc.h ****  */
1366:./Libraries/CMSIS/Core/Include/cmsis_gcc.h **** __STATIC_FORCEINLINE void __STRT(uint32_t value, volatile uint32_t *ptr)
1367:./Libraries/CMSIS/Core/Include/cmsis_gcc.h **** {
1368:./Libraries/CMSIS/Core/Include/cmsis_gcc.h ****    __ASM volatile ("strt %1, %0" : "=Q" (*ptr) : "r" (value) );
1369:./Libraries/CMSIS/Core/Include/cmsis_gcc.h **** }
1370:./Libraries/CMSIS/Core/Include/cmsis_gcc.h **** 
1371:./Libraries/CMSIS/Core/Include/cmsis_gcc.h **** #else  /* ((defined (__ARM_ARCH_7M__      ) && (__ARM_ARCH_7M__      == 1)) || \
1372:./Libraries/CMSIS/Core/Include/cmsis_gcc.h ****            (defined (__ARM_ARCH_7EM__     ) && (__ARM_ARCH_7EM__     == 1)) || \
1373:./Libraries/CMSIS/Core/Include/cmsis_gcc.h ****            (defined (__ARM_ARCH_8M_MAIN__ ) && (__ARM_ARCH_8M_MAIN__ == 1))    ) */
1374:./Libraries/CMSIS/Core/Include/cmsis_gcc.h **** 
1375:./Libraries/CMSIS/Core/Include/cmsis_gcc.h **** /**
1376:./Libraries/CMSIS/Core/Include/cmsis_gcc.h ****   \brief   Signed Saturate
1377:./Libraries/CMSIS/Core/Include/cmsis_gcc.h ****   \details Saturates a signed value.
1378:./Libraries/CMSIS/Core/Include/cmsis_gcc.h ****   \param [in]  value  Value to be saturated
1379:./Libraries/CMSIS/Core/Include/cmsis_gcc.h ****   \param [in]    sat  Bit position to saturate to (1..32)
1380:./Libraries/CMSIS/Core/Include/cmsis_gcc.h ****   \return             Saturated value
1381:./Libraries/CMSIS/Core/Include/cmsis_gcc.h ****  */
1382:./Libraries/CMSIS/Core/Include/cmsis_gcc.h **** __STATIC_FORCEINLINE int32_t __SSAT(int32_t val, uint32_t sat)
1383:./Libraries/CMSIS/Core/Include/cmsis_gcc.h **** {
1384:./Libraries/CMSIS/Core/Include/cmsis_gcc.h ****   if ((sat >= 1U) && (sat <= 32U))
1385:./Libraries/CMSIS/Core/Include/cmsis_gcc.h ****   {
1386:./Libraries/CMSIS/Core/Include/cmsis_gcc.h ****     const int32_t max = (int32_t)((1U << (sat - 1U)) - 1U);
1387:./Libraries/CMSIS/Core/Include/cmsis_gcc.h ****     const int32_t min = -1 - max ;
1388:./Libraries/CMSIS/Core/Include/cmsis_gcc.h ****     if (val > max)
1389:./Libraries/CMSIS/Core/Include/cmsis_gcc.h ****     {
1390:./Libraries/CMSIS/Core/Include/cmsis_gcc.h ****       return max;
1391:./Libraries/CMSIS/Core/Include/cmsis_gcc.h ****     }
1392:./Libraries/CMSIS/Core/Include/cmsis_gcc.h ****     else if (val < min)
1393:./Libraries/CMSIS/Core/Include/cmsis_gcc.h ****     {
1394:./Libraries/CMSIS/Core/Include/cmsis_gcc.h ****       return min;
1395:./Libraries/CMSIS/Core/Include/cmsis_gcc.h ****     }
1396:./Libraries/CMSIS/Core/Include/cmsis_gcc.h ****   }
1397:./Libraries/CMSIS/Core/Include/cmsis_gcc.h ****   return val;
ARM GAS  /tmp/ccBb4BEn.s 			page 40


1398:./Libraries/CMSIS/Core/Include/cmsis_gcc.h **** }
1399:./Libraries/CMSIS/Core/Include/cmsis_gcc.h **** 
1400:./Libraries/CMSIS/Core/Include/cmsis_gcc.h **** /**
1401:./Libraries/CMSIS/Core/Include/cmsis_gcc.h ****   \brief   Unsigned Saturate
1402:./Libraries/CMSIS/Core/Include/cmsis_gcc.h ****   \details Saturates an unsigned value.
1403:./Libraries/CMSIS/Core/Include/cmsis_gcc.h ****   \param [in]  value  Value to be saturated
1404:./Libraries/CMSIS/Core/Include/cmsis_gcc.h ****   \param [in]    sat  Bit position to saturate to (0..31)
1405:./Libraries/CMSIS/Core/Include/cmsis_gcc.h ****   \return             Saturated value
1406:./Libraries/CMSIS/Core/Include/cmsis_gcc.h ****  */
1407:./Libraries/CMSIS/Core/Include/cmsis_gcc.h **** __STATIC_FORCEINLINE uint32_t __USAT(int32_t val, uint32_t sat)
1408:./Libraries/CMSIS/Core/Include/cmsis_gcc.h **** {
1409:./Libraries/CMSIS/Core/Include/cmsis_gcc.h ****   if (sat <= 31U)
1410:./Libraries/CMSIS/Core/Include/cmsis_gcc.h ****   {
1411:./Libraries/CMSIS/Core/Include/cmsis_gcc.h ****     const uint32_t max = ((1U << sat) - 1U);
1412:./Libraries/CMSIS/Core/Include/cmsis_gcc.h ****     if (val > (int32_t)max)
1413:./Libraries/CMSIS/Core/Include/cmsis_gcc.h ****     {
1414:./Libraries/CMSIS/Core/Include/cmsis_gcc.h ****       return max;
1415:./Libraries/CMSIS/Core/Include/cmsis_gcc.h ****     }
1416:./Libraries/CMSIS/Core/Include/cmsis_gcc.h ****     else if (val < 0)
1417:./Libraries/CMSIS/Core/Include/cmsis_gcc.h ****     {
1418:./Libraries/CMSIS/Core/Include/cmsis_gcc.h ****       return 0U;
1419:./Libraries/CMSIS/Core/Include/cmsis_gcc.h ****     }
1420:./Libraries/CMSIS/Core/Include/cmsis_gcc.h ****   }
1421:./Libraries/CMSIS/Core/Include/cmsis_gcc.h ****   return (uint32_t)val;
1422:./Libraries/CMSIS/Core/Include/cmsis_gcc.h **** }
1423:./Libraries/CMSIS/Core/Include/cmsis_gcc.h **** 
1424:./Libraries/CMSIS/Core/Include/cmsis_gcc.h **** #endif /* ((defined (__ARM_ARCH_7M__      ) && (__ARM_ARCH_7M__      == 1)) || \
1425:./Libraries/CMSIS/Core/Include/cmsis_gcc.h ****            (defined (__ARM_ARCH_7EM__     ) && (__ARM_ARCH_7EM__     == 1)) || \
1426:./Libraries/CMSIS/Core/Include/cmsis_gcc.h ****            (defined (__ARM_ARCH_8M_MAIN__ ) && (__ARM_ARCH_8M_MAIN__ == 1))    ) */
1427:./Libraries/CMSIS/Core/Include/cmsis_gcc.h **** 
1428:./Libraries/CMSIS/Core/Include/cmsis_gcc.h **** 
1429:./Libraries/CMSIS/Core/Include/cmsis_gcc.h **** #if ((defined (__ARM_ARCH_8M_MAIN__ ) && (__ARM_ARCH_8M_MAIN__ == 1)) || \
1430:./Libraries/CMSIS/Core/Include/cmsis_gcc.h ****      (defined (__ARM_ARCH_8M_BASE__ ) && (__ARM_ARCH_8M_BASE__ == 1))    )
1431:./Libraries/CMSIS/Core/Include/cmsis_gcc.h **** /**
1432:./Libraries/CMSIS/Core/Include/cmsis_gcc.h ****   \brief   Load-Acquire (8 bit)
1433:./Libraries/CMSIS/Core/Include/cmsis_gcc.h ****   \details Executes a LDAB instruction for 8 bit value.
1434:./Libraries/CMSIS/Core/Include/cmsis_gcc.h ****   \param [in]    ptr  Pointer to data
1435:./Libraries/CMSIS/Core/Include/cmsis_gcc.h ****   \return             value of type uint8_t at (*ptr)
1436:./Libraries/CMSIS/Core/Include/cmsis_gcc.h ****  */
1437:./Libraries/CMSIS/Core/Include/cmsis_gcc.h **** __STATIC_FORCEINLINE uint8_t __LDAB(volatile uint8_t *ptr)
1438:./Libraries/CMSIS/Core/Include/cmsis_gcc.h **** {
1439:./Libraries/CMSIS/Core/Include/cmsis_gcc.h ****     uint32_t result;
1440:./Libraries/CMSIS/Core/Include/cmsis_gcc.h **** 
1441:./Libraries/CMSIS/Core/Include/cmsis_gcc.h ****    __ASM volatile ("ldab %0, %1" : "=r" (result) : "Q" (*ptr) );
1442:./Libraries/CMSIS/Core/Include/cmsis_gcc.h ****    return ((uint8_t) result);
1443:./Libraries/CMSIS/Core/Include/cmsis_gcc.h **** }
1444:./Libraries/CMSIS/Core/Include/cmsis_gcc.h **** 
1445:./Libraries/CMSIS/Core/Include/cmsis_gcc.h **** 
1446:./Libraries/CMSIS/Core/Include/cmsis_gcc.h **** /**
1447:./Libraries/CMSIS/Core/Include/cmsis_gcc.h ****   \brief   Load-Acquire (16 bit)
1448:./Libraries/CMSIS/Core/Include/cmsis_gcc.h ****   \details Executes a LDAH instruction for 16 bit values.
1449:./Libraries/CMSIS/Core/Include/cmsis_gcc.h ****   \param [in]    ptr  Pointer to data
1450:./Libraries/CMSIS/Core/Include/cmsis_gcc.h ****   \return        value of type uint16_t at (*ptr)
1451:./Libraries/CMSIS/Core/Include/cmsis_gcc.h ****  */
1452:./Libraries/CMSIS/Core/Include/cmsis_gcc.h **** __STATIC_FORCEINLINE uint16_t __LDAH(volatile uint16_t *ptr)
1453:./Libraries/CMSIS/Core/Include/cmsis_gcc.h **** {
1454:./Libraries/CMSIS/Core/Include/cmsis_gcc.h ****     uint32_t result;
ARM GAS  /tmp/ccBb4BEn.s 			page 41


1455:./Libraries/CMSIS/Core/Include/cmsis_gcc.h **** 
1456:./Libraries/CMSIS/Core/Include/cmsis_gcc.h ****    __ASM volatile ("ldah %0, %1" : "=r" (result) : "Q" (*ptr) );
1457:./Libraries/CMSIS/Core/Include/cmsis_gcc.h ****    return ((uint16_t) result);
1458:./Libraries/CMSIS/Core/Include/cmsis_gcc.h **** }
1459:./Libraries/CMSIS/Core/Include/cmsis_gcc.h **** 
1460:./Libraries/CMSIS/Core/Include/cmsis_gcc.h **** 
1461:./Libraries/CMSIS/Core/Include/cmsis_gcc.h **** /**
1462:./Libraries/CMSIS/Core/Include/cmsis_gcc.h ****   \brief   Load-Acquire (32 bit)
1463:./Libraries/CMSIS/Core/Include/cmsis_gcc.h ****   \details Executes a LDA instruction for 32 bit values.
1464:./Libraries/CMSIS/Core/Include/cmsis_gcc.h ****   \param [in]    ptr  Pointer to data
1465:./Libraries/CMSIS/Core/Include/cmsis_gcc.h ****   \return        value of type uint32_t at (*ptr)
1466:./Libraries/CMSIS/Core/Include/cmsis_gcc.h ****  */
1467:./Libraries/CMSIS/Core/Include/cmsis_gcc.h **** __STATIC_FORCEINLINE uint32_t __LDA(volatile uint32_t *ptr)
1468:./Libraries/CMSIS/Core/Include/cmsis_gcc.h **** {
1469:./Libraries/CMSIS/Core/Include/cmsis_gcc.h ****     uint32_t result;
1470:./Libraries/CMSIS/Core/Include/cmsis_gcc.h **** 
1471:./Libraries/CMSIS/Core/Include/cmsis_gcc.h ****    __ASM volatile ("lda %0, %1" : "=r" (result) : "Q" (*ptr) );
1472:./Libraries/CMSIS/Core/Include/cmsis_gcc.h ****    return(result);
1473:./Libraries/CMSIS/Core/Include/cmsis_gcc.h **** }
1474:./Libraries/CMSIS/Core/Include/cmsis_gcc.h **** 
1475:./Libraries/CMSIS/Core/Include/cmsis_gcc.h **** 
1476:./Libraries/CMSIS/Core/Include/cmsis_gcc.h **** /**
1477:./Libraries/CMSIS/Core/Include/cmsis_gcc.h ****   \brief   Store-Release (8 bit)
1478:./Libraries/CMSIS/Core/Include/cmsis_gcc.h ****   \details Executes a STLB instruction for 8 bit values.
1479:./Libraries/CMSIS/Core/Include/cmsis_gcc.h ****   \param [in]  value  Value to store
1480:./Libraries/CMSIS/Core/Include/cmsis_gcc.h ****   \param [in]    ptr  Pointer to location
1481:./Libraries/CMSIS/Core/Include/cmsis_gcc.h ****  */
1482:./Libraries/CMSIS/Core/Include/cmsis_gcc.h **** __STATIC_FORCEINLINE void __STLB(uint8_t value, volatile uint8_t *ptr)
1483:./Libraries/CMSIS/Core/Include/cmsis_gcc.h **** {
1484:./Libraries/CMSIS/Core/Include/cmsis_gcc.h ****    __ASM volatile ("stlb %1, %0" : "=Q" (*ptr) : "r" ((uint32_t)value) );
1485:./Libraries/CMSIS/Core/Include/cmsis_gcc.h **** }
1486:./Libraries/CMSIS/Core/Include/cmsis_gcc.h **** 
1487:./Libraries/CMSIS/Core/Include/cmsis_gcc.h **** 
1488:./Libraries/CMSIS/Core/Include/cmsis_gcc.h **** /**
1489:./Libraries/CMSIS/Core/Include/cmsis_gcc.h ****   \brief   Store-Release (16 bit)
1490:./Libraries/CMSIS/Core/Include/cmsis_gcc.h ****   \details Executes a STLH instruction for 16 bit values.
1491:./Libraries/CMSIS/Core/Include/cmsis_gcc.h ****   \param [in]  value  Value to store
1492:./Libraries/CMSIS/Core/Include/cmsis_gcc.h ****   \param [in]    ptr  Pointer to location
1493:./Libraries/CMSIS/Core/Include/cmsis_gcc.h ****  */
1494:./Libraries/CMSIS/Core/Include/cmsis_gcc.h **** __STATIC_FORCEINLINE void __STLH(uint16_t value, volatile uint16_t *ptr)
1495:./Libraries/CMSIS/Core/Include/cmsis_gcc.h **** {
1496:./Libraries/CMSIS/Core/Include/cmsis_gcc.h ****    __ASM volatile ("stlh %1, %0" : "=Q" (*ptr) : "r" ((uint32_t)value) );
1497:./Libraries/CMSIS/Core/Include/cmsis_gcc.h **** }
1498:./Libraries/CMSIS/Core/Include/cmsis_gcc.h **** 
1499:./Libraries/CMSIS/Core/Include/cmsis_gcc.h **** 
1500:./Libraries/CMSIS/Core/Include/cmsis_gcc.h **** /**
1501:./Libraries/CMSIS/Core/Include/cmsis_gcc.h ****   \brief   Store-Release (32 bit)
1502:./Libraries/CMSIS/Core/Include/cmsis_gcc.h ****   \details Executes a STL instruction for 32 bit values.
1503:./Libraries/CMSIS/Core/Include/cmsis_gcc.h ****   \param [in]  value  Value to store
1504:./Libraries/CMSIS/Core/Include/cmsis_gcc.h ****   \param [in]    ptr  Pointer to location
1505:./Libraries/CMSIS/Core/Include/cmsis_gcc.h ****  */
1506:./Libraries/CMSIS/Core/Include/cmsis_gcc.h **** __STATIC_FORCEINLINE void __STL(uint32_t value, volatile uint32_t *ptr)
1507:./Libraries/CMSIS/Core/Include/cmsis_gcc.h **** {
1508:./Libraries/CMSIS/Core/Include/cmsis_gcc.h ****    __ASM volatile ("stl %1, %0" : "=Q" (*ptr) : "r" ((uint32_t)value) );
1509:./Libraries/CMSIS/Core/Include/cmsis_gcc.h **** }
1510:./Libraries/CMSIS/Core/Include/cmsis_gcc.h **** 
1511:./Libraries/CMSIS/Core/Include/cmsis_gcc.h **** 
ARM GAS  /tmp/ccBb4BEn.s 			page 42


1512:./Libraries/CMSIS/Core/Include/cmsis_gcc.h **** /**
1513:./Libraries/CMSIS/Core/Include/cmsis_gcc.h ****   \brief   Load-Acquire Exclusive (8 bit)
1514:./Libraries/CMSIS/Core/Include/cmsis_gcc.h ****   \details Executes a LDAB exclusive instruction for 8 bit value.
1515:./Libraries/CMSIS/Core/Include/cmsis_gcc.h ****   \param [in]    ptr  Pointer to data
1516:./Libraries/CMSIS/Core/Include/cmsis_gcc.h ****   \return             value of type uint8_t at (*ptr)
1517:./Libraries/CMSIS/Core/Include/cmsis_gcc.h ****  */
1518:./Libraries/CMSIS/Core/Include/cmsis_gcc.h **** __STATIC_FORCEINLINE uint8_t __LDAEXB(volatile uint8_t *ptr)
1519:./Libraries/CMSIS/Core/Include/cmsis_gcc.h **** {
1520:./Libraries/CMSIS/Core/Include/cmsis_gcc.h ****     uint32_t result;
1521:./Libraries/CMSIS/Core/Include/cmsis_gcc.h **** 
1522:./Libraries/CMSIS/Core/Include/cmsis_gcc.h ****    __ASM volatile ("ldaexb %0, %1" : "=r" (result) : "Q" (*ptr) );
1523:./Libraries/CMSIS/Core/Include/cmsis_gcc.h ****    return ((uint8_t) result);
1524:./Libraries/CMSIS/Core/Include/cmsis_gcc.h **** }
1525:./Libraries/CMSIS/Core/Include/cmsis_gcc.h **** 
1526:./Libraries/CMSIS/Core/Include/cmsis_gcc.h **** 
1527:./Libraries/CMSIS/Core/Include/cmsis_gcc.h **** /**
1528:./Libraries/CMSIS/Core/Include/cmsis_gcc.h ****   \brief   Load-Acquire Exclusive (16 bit)
1529:./Libraries/CMSIS/Core/Include/cmsis_gcc.h ****   \details Executes a LDAH exclusive instruction for 16 bit values.
1530:./Libraries/CMSIS/Core/Include/cmsis_gcc.h ****   \param [in]    ptr  Pointer to data
1531:./Libraries/CMSIS/Core/Include/cmsis_gcc.h ****   \return        value of type uint16_t at (*ptr)
1532:./Libraries/CMSIS/Core/Include/cmsis_gcc.h ****  */
1533:./Libraries/CMSIS/Core/Include/cmsis_gcc.h **** __STATIC_FORCEINLINE uint16_t __LDAEXH(volatile uint16_t *ptr)
1534:./Libraries/CMSIS/Core/Include/cmsis_gcc.h **** {
1535:./Libraries/CMSIS/Core/Include/cmsis_gcc.h ****     uint32_t result;
1536:./Libraries/CMSIS/Core/Include/cmsis_gcc.h **** 
1537:./Libraries/CMSIS/Core/Include/cmsis_gcc.h ****    __ASM volatile ("ldaexh %0, %1" : "=r" (result) : "Q" (*ptr) );
1538:./Libraries/CMSIS/Core/Include/cmsis_gcc.h ****    return ((uint16_t) result);
1539:./Libraries/CMSIS/Core/Include/cmsis_gcc.h **** }
1540:./Libraries/CMSIS/Core/Include/cmsis_gcc.h **** 
1541:./Libraries/CMSIS/Core/Include/cmsis_gcc.h **** 
1542:./Libraries/CMSIS/Core/Include/cmsis_gcc.h **** /**
1543:./Libraries/CMSIS/Core/Include/cmsis_gcc.h ****   \brief   Load-Acquire Exclusive (32 bit)
1544:./Libraries/CMSIS/Core/Include/cmsis_gcc.h ****   \details Executes a LDA exclusive instruction for 32 bit values.
1545:./Libraries/CMSIS/Core/Include/cmsis_gcc.h ****   \param [in]    ptr  Pointer to data
1546:./Libraries/CMSIS/Core/Include/cmsis_gcc.h ****   \return        value of type uint32_t at (*ptr)
1547:./Libraries/CMSIS/Core/Include/cmsis_gcc.h ****  */
1548:./Libraries/CMSIS/Core/Include/cmsis_gcc.h **** __STATIC_FORCEINLINE uint32_t __LDAEX(volatile uint32_t *ptr)
1549:./Libraries/CMSIS/Core/Include/cmsis_gcc.h **** {
1550:./Libraries/CMSIS/Core/Include/cmsis_gcc.h ****     uint32_t result;
1551:./Libraries/CMSIS/Core/Include/cmsis_gcc.h **** 
1552:./Libraries/CMSIS/Core/Include/cmsis_gcc.h ****    __ASM volatile ("ldaex %0, %1" : "=r" (result) : "Q" (*ptr) );
1553:./Libraries/CMSIS/Core/Include/cmsis_gcc.h ****    return(result);
1554:./Libraries/CMSIS/Core/Include/cmsis_gcc.h **** }
1555:./Libraries/CMSIS/Core/Include/cmsis_gcc.h **** 
1556:./Libraries/CMSIS/Core/Include/cmsis_gcc.h **** 
1557:./Libraries/CMSIS/Core/Include/cmsis_gcc.h **** /**
1558:./Libraries/CMSIS/Core/Include/cmsis_gcc.h ****   \brief   Store-Release Exclusive (8 bit)
1559:./Libraries/CMSIS/Core/Include/cmsis_gcc.h ****   \details Executes a STLB exclusive instruction for 8 bit values.
1560:./Libraries/CMSIS/Core/Include/cmsis_gcc.h ****   \param [in]  value  Value to store
1561:./Libraries/CMSIS/Core/Include/cmsis_gcc.h ****   \param [in]    ptr  Pointer to location
1562:./Libraries/CMSIS/Core/Include/cmsis_gcc.h ****   \return          0  Function succeeded
1563:./Libraries/CMSIS/Core/Include/cmsis_gcc.h ****   \return          1  Function failed
1564:./Libraries/CMSIS/Core/Include/cmsis_gcc.h ****  */
1565:./Libraries/CMSIS/Core/Include/cmsis_gcc.h **** __STATIC_FORCEINLINE uint32_t __STLEXB(uint8_t value, volatile uint8_t *ptr)
1566:./Libraries/CMSIS/Core/Include/cmsis_gcc.h **** {
1567:./Libraries/CMSIS/Core/Include/cmsis_gcc.h ****    uint32_t result;
1568:./Libraries/CMSIS/Core/Include/cmsis_gcc.h **** 
ARM GAS  /tmp/ccBb4BEn.s 			page 43


1569:./Libraries/CMSIS/Core/Include/cmsis_gcc.h ****    __ASM volatile ("stlexb %0, %2, %1" : "=&r" (result), "=Q" (*ptr) : "r" ((uint32_t)value) );
1570:./Libraries/CMSIS/Core/Include/cmsis_gcc.h ****    return(result);
1571:./Libraries/CMSIS/Core/Include/cmsis_gcc.h **** }
1572:./Libraries/CMSIS/Core/Include/cmsis_gcc.h **** 
1573:./Libraries/CMSIS/Core/Include/cmsis_gcc.h **** 
1574:./Libraries/CMSIS/Core/Include/cmsis_gcc.h **** /**
1575:./Libraries/CMSIS/Core/Include/cmsis_gcc.h ****   \brief   Store-Release Exclusive (16 bit)
1576:./Libraries/CMSIS/Core/Include/cmsis_gcc.h ****   \details Executes a STLH exclusive instruction for 16 bit values.
1577:./Libraries/CMSIS/Core/Include/cmsis_gcc.h ****   \param [in]  value  Value to store
1578:./Libraries/CMSIS/Core/Include/cmsis_gcc.h ****   \param [in]    ptr  Pointer to location
1579:./Libraries/CMSIS/Core/Include/cmsis_gcc.h ****   \return          0  Function succeeded
1580:./Libraries/CMSIS/Core/Include/cmsis_gcc.h ****   \return          1  Function failed
1581:./Libraries/CMSIS/Core/Include/cmsis_gcc.h ****  */
1582:./Libraries/CMSIS/Core/Include/cmsis_gcc.h **** __STATIC_FORCEINLINE uint32_t __STLEXH(uint16_t value, volatile uint16_t *ptr)
1583:./Libraries/CMSIS/Core/Include/cmsis_gcc.h **** {
1584:./Libraries/CMSIS/Core/Include/cmsis_gcc.h ****    uint32_t result;
1585:./Libraries/CMSIS/Core/Include/cmsis_gcc.h **** 
1586:./Libraries/CMSIS/Core/Include/cmsis_gcc.h ****    __ASM volatile ("stlexh %0, %2, %1" : "=&r" (result), "=Q" (*ptr) : "r" ((uint32_t)value) );
1587:./Libraries/CMSIS/Core/Include/cmsis_gcc.h ****    return(result);
1588:./Libraries/CMSIS/Core/Include/cmsis_gcc.h **** }
1589:./Libraries/CMSIS/Core/Include/cmsis_gcc.h **** 
1590:./Libraries/CMSIS/Core/Include/cmsis_gcc.h **** 
1591:./Libraries/CMSIS/Core/Include/cmsis_gcc.h **** /**
1592:./Libraries/CMSIS/Core/Include/cmsis_gcc.h ****   \brief   Store-Release Exclusive (32 bit)
1593:./Libraries/CMSIS/Core/Include/cmsis_gcc.h ****   \details Executes a STL exclusive instruction for 32 bit values.
1594:./Libraries/CMSIS/Core/Include/cmsis_gcc.h ****   \param [in]  value  Value to store
1595:./Libraries/CMSIS/Core/Include/cmsis_gcc.h ****   \param [in]    ptr  Pointer to location
1596:./Libraries/CMSIS/Core/Include/cmsis_gcc.h ****   \return          0  Function succeeded
1597:./Libraries/CMSIS/Core/Include/cmsis_gcc.h ****   \return          1  Function failed
1598:./Libraries/CMSIS/Core/Include/cmsis_gcc.h ****  */
1599:./Libraries/CMSIS/Core/Include/cmsis_gcc.h **** __STATIC_FORCEINLINE uint32_t __STLEX(uint32_t value, volatile uint32_t *ptr)
1600:./Libraries/CMSIS/Core/Include/cmsis_gcc.h **** {
1601:./Libraries/CMSIS/Core/Include/cmsis_gcc.h ****    uint32_t result;
1602:./Libraries/CMSIS/Core/Include/cmsis_gcc.h **** 
1603:./Libraries/CMSIS/Core/Include/cmsis_gcc.h ****    __ASM volatile ("stlex %0, %2, %1" : "=&r" (result), "=Q" (*ptr) : "r" ((uint32_t)value) );
1604:./Libraries/CMSIS/Core/Include/cmsis_gcc.h ****    return(result);
1605:./Libraries/CMSIS/Core/Include/cmsis_gcc.h **** }
1606:./Libraries/CMSIS/Core/Include/cmsis_gcc.h **** 
1607:./Libraries/CMSIS/Core/Include/cmsis_gcc.h **** #endif /* ((defined (__ARM_ARCH_8M_MAIN__ ) && (__ARM_ARCH_8M_MAIN__ == 1)) || \
1608:./Libraries/CMSIS/Core/Include/cmsis_gcc.h ****            (defined (__ARM_ARCH_8M_BASE__ ) && (__ARM_ARCH_8M_BASE__ == 1))    ) */
1609:./Libraries/CMSIS/Core/Include/cmsis_gcc.h **** 
1610:./Libraries/CMSIS/Core/Include/cmsis_gcc.h **** /*@}*/ /* end of group CMSIS_Core_InstructionInterface */
1611:./Libraries/CMSIS/Core/Include/cmsis_gcc.h **** 
1612:./Libraries/CMSIS/Core/Include/cmsis_gcc.h **** 
1613:./Libraries/CMSIS/Core/Include/cmsis_gcc.h **** /* ###################  Compiler specific Intrinsics  ########################### */
1614:./Libraries/CMSIS/Core/Include/cmsis_gcc.h **** /** \defgroup CMSIS_SIMD_intrinsics CMSIS SIMD Intrinsics
1615:./Libraries/CMSIS/Core/Include/cmsis_gcc.h ****   Access to dedicated SIMD instructions
1616:./Libraries/CMSIS/Core/Include/cmsis_gcc.h ****   @{
1617:./Libraries/CMSIS/Core/Include/cmsis_gcc.h **** */
1618:./Libraries/CMSIS/Core/Include/cmsis_gcc.h **** 
1619:./Libraries/CMSIS/Core/Include/cmsis_gcc.h **** #if (defined (__ARM_FEATURE_DSP) && (__ARM_FEATURE_DSP == 1))
1620:./Libraries/CMSIS/Core/Include/cmsis_gcc.h **** 
1621:./Libraries/CMSIS/Core/Include/cmsis_gcc.h **** __STATIC_FORCEINLINE uint32_t __SADD8(uint32_t op1, uint32_t op2)
1622:./Libraries/CMSIS/Core/Include/cmsis_gcc.h **** {
1623:./Libraries/CMSIS/Core/Include/cmsis_gcc.h ****   uint32_t result;
1624:./Libraries/CMSIS/Core/Include/cmsis_gcc.h **** 
1625:./Libraries/CMSIS/Core/Include/cmsis_gcc.h ****   __ASM volatile ("sadd8 %0, %1, %2" : "=r" (result) : "r" (op1), "r" (op2) );
ARM GAS  /tmp/ccBb4BEn.s 			page 44


1626:./Libraries/CMSIS/Core/Include/cmsis_gcc.h ****   return(result);
1627:./Libraries/CMSIS/Core/Include/cmsis_gcc.h **** }
1628:./Libraries/CMSIS/Core/Include/cmsis_gcc.h **** 
1629:./Libraries/CMSIS/Core/Include/cmsis_gcc.h **** __STATIC_FORCEINLINE uint32_t __QADD8(uint32_t op1, uint32_t op2)
1630:./Libraries/CMSIS/Core/Include/cmsis_gcc.h **** {
1631:./Libraries/CMSIS/Core/Include/cmsis_gcc.h ****   uint32_t result;
1632:./Libraries/CMSIS/Core/Include/cmsis_gcc.h **** 
1633:./Libraries/CMSIS/Core/Include/cmsis_gcc.h ****   __ASM volatile ("qadd8 %0, %1, %2" : "=r" (result) : "r" (op1), "r" (op2) );
1634:./Libraries/CMSIS/Core/Include/cmsis_gcc.h ****   return(result);
1635:./Libraries/CMSIS/Core/Include/cmsis_gcc.h **** }
1636:./Libraries/CMSIS/Core/Include/cmsis_gcc.h **** 
1637:./Libraries/CMSIS/Core/Include/cmsis_gcc.h **** __STATIC_FORCEINLINE uint32_t __SHADD8(uint32_t op1, uint32_t op2)
1638:./Libraries/CMSIS/Core/Include/cmsis_gcc.h **** {
1639:./Libraries/CMSIS/Core/Include/cmsis_gcc.h ****   uint32_t result;
1640:./Libraries/CMSIS/Core/Include/cmsis_gcc.h **** 
1641:./Libraries/CMSIS/Core/Include/cmsis_gcc.h ****   __ASM volatile ("shadd8 %0, %1, %2" : "=r" (result) : "r" (op1), "r" (op2) );
1642:./Libraries/CMSIS/Core/Include/cmsis_gcc.h ****   return(result);
1643:./Libraries/CMSIS/Core/Include/cmsis_gcc.h **** }
1644:./Libraries/CMSIS/Core/Include/cmsis_gcc.h **** 
1645:./Libraries/CMSIS/Core/Include/cmsis_gcc.h **** __STATIC_FORCEINLINE uint32_t __UADD8(uint32_t op1, uint32_t op2)
1646:./Libraries/CMSIS/Core/Include/cmsis_gcc.h **** {
1647:./Libraries/CMSIS/Core/Include/cmsis_gcc.h ****   uint32_t result;
1648:./Libraries/CMSIS/Core/Include/cmsis_gcc.h **** 
1649:./Libraries/CMSIS/Core/Include/cmsis_gcc.h ****   __ASM volatile ("uadd8 %0, %1, %2" : "=r" (result) : "r" (op1), "r" (op2) );
1650:./Libraries/CMSIS/Core/Include/cmsis_gcc.h ****   return(result);
1651:./Libraries/CMSIS/Core/Include/cmsis_gcc.h **** }
1652:./Libraries/CMSIS/Core/Include/cmsis_gcc.h **** 
1653:./Libraries/CMSIS/Core/Include/cmsis_gcc.h **** __STATIC_FORCEINLINE uint32_t __UQADD8(uint32_t op1, uint32_t op2)
1654:./Libraries/CMSIS/Core/Include/cmsis_gcc.h **** {
1655:./Libraries/CMSIS/Core/Include/cmsis_gcc.h ****   uint32_t result;
1656:./Libraries/CMSIS/Core/Include/cmsis_gcc.h **** 
1657:./Libraries/CMSIS/Core/Include/cmsis_gcc.h ****   __ASM volatile ("uqadd8 %0, %1, %2" : "=r" (result) : "r" (op1), "r" (op2) );
1658:./Libraries/CMSIS/Core/Include/cmsis_gcc.h ****   return(result);
1659:./Libraries/CMSIS/Core/Include/cmsis_gcc.h **** }
1660:./Libraries/CMSIS/Core/Include/cmsis_gcc.h **** 
1661:./Libraries/CMSIS/Core/Include/cmsis_gcc.h **** __STATIC_FORCEINLINE uint32_t __UHADD8(uint32_t op1, uint32_t op2)
1662:./Libraries/CMSIS/Core/Include/cmsis_gcc.h **** {
1663:./Libraries/CMSIS/Core/Include/cmsis_gcc.h ****   uint32_t result;
1664:./Libraries/CMSIS/Core/Include/cmsis_gcc.h **** 
1665:./Libraries/CMSIS/Core/Include/cmsis_gcc.h ****   __ASM volatile ("uhadd8 %0, %1, %2" : "=r" (result) : "r" (op1), "r" (op2) );
1666:./Libraries/CMSIS/Core/Include/cmsis_gcc.h ****   return(result);
1667:./Libraries/CMSIS/Core/Include/cmsis_gcc.h **** }
1668:./Libraries/CMSIS/Core/Include/cmsis_gcc.h **** 
1669:./Libraries/CMSIS/Core/Include/cmsis_gcc.h **** 
1670:./Libraries/CMSIS/Core/Include/cmsis_gcc.h **** __STATIC_FORCEINLINE uint32_t __SSUB8(uint32_t op1, uint32_t op2)
1671:./Libraries/CMSIS/Core/Include/cmsis_gcc.h **** {
1672:./Libraries/CMSIS/Core/Include/cmsis_gcc.h ****   uint32_t result;
1673:./Libraries/CMSIS/Core/Include/cmsis_gcc.h **** 
1674:./Libraries/CMSIS/Core/Include/cmsis_gcc.h ****   __ASM volatile ("ssub8 %0, %1, %2" : "=r" (result) : "r" (op1), "r" (op2) );
1675:./Libraries/CMSIS/Core/Include/cmsis_gcc.h ****   return(result);
1676:./Libraries/CMSIS/Core/Include/cmsis_gcc.h **** }
1677:./Libraries/CMSIS/Core/Include/cmsis_gcc.h **** 
1678:./Libraries/CMSIS/Core/Include/cmsis_gcc.h **** __STATIC_FORCEINLINE uint32_t __QSUB8(uint32_t op1, uint32_t op2)
1679:./Libraries/CMSIS/Core/Include/cmsis_gcc.h **** {
1680:./Libraries/CMSIS/Core/Include/cmsis_gcc.h ****   uint32_t result;
1681:./Libraries/CMSIS/Core/Include/cmsis_gcc.h **** 
1682:./Libraries/CMSIS/Core/Include/cmsis_gcc.h ****   __ASM volatile ("qsub8 %0, %1, %2" : "=r" (result) : "r" (op1), "r" (op2) );
ARM GAS  /tmp/ccBb4BEn.s 			page 45


1683:./Libraries/CMSIS/Core/Include/cmsis_gcc.h ****   return(result);
1684:./Libraries/CMSIS/Core/Include/cmsis_gcc.h **** }
1685:./Libraries/CMSIS/Core/Include/cmsis_gcc.h **** 
1686:./Libraries/CMSIS/Core/Include/cmsis_gcc.h **** __STATIC_FORCEINLINE uint32_t __SHSUB8(uint32_t op1, uint32_t op2)
1687:./Libraries/CMSIS/Core/Include/cmsis_gcc.h **** {
1688:./Libraries/CMSIS/Core/Include/cmsis_gcc.h ****   uint32_t result;
1689:./Libraries/CMSIS/Core/Include/cmsis_gcc.h **** 
1690:./Libraries/CMSIS/Core/Include/cmsis_gcc.h ****   __ASM volatile ("shsub8 %0, %1, %2" : "=r" (result) : "r" (op1), "r" (op2) );
1691:./Libraries/CMSIS/Core/Include/cmsis_gcc.h ****   return(result);
1692:./Libraries/CMSIS/Core/Include/cmsis_gcc.h **** }
1693:./Libraries/CMSIS/Core/Include/cmsis_gcc.h **** 
1694:./Libraries/CMSIS/Core/Include/cmsis_gcc.h **** __STATIC_FORCEINLINE uint32_t __USUB8(uint32_t op1, uint32_t op2)
1695:./Libraries/CMSIS/Core/Include/cmsis_gcc.h **** {
1696:./Libraries/CMSIS/Core/Include/cmsis_gcc.h ****   uint32_t result;
1697:./Libraries/CMSIS/Core/Include/cmsis_gcc.h **** 
1698:./Libraries/CMSIS/Core/Include/cmsis_gcc.h ****   __ASM volatile ("usub8 %0, %1, %2" : "=r" (result) : "r" (op1), "r" (op2) );
1699:./Libraries/CMSIS/Core/Include/cmsis_gcc.h ****   return(result);
1700:./Libraries/CMSIS/Core/Include/cmsis_gcc.h **** }
1701:./Libraries/CMSIS/Core/Include/cmsis_gcc.h **** 
1702:./Libraries/CMSIS/Core/Include/cmsis_gcc.h **** __STATIC_FORCEINLINE uint32_t __UQSUB8(uint32_t op1, uint32_t op2)
1703:./Libraries/CMSIS/Core/Include/cmsis_gcc.h **** {
1704:./Libraries/CMSIS/Core/Include/cmsis_gcc.h ****   uint32_t result;
1705:./Libraries/CMSIS/Core/Include/cmsis_gcc.h **** 
1706:./Libraries/CMSIS/Core/Include/cmsis_gcc.h ****   __ASM volatile ("uqsub8 %0, %1, %2" : "=r" (result) : "r" (op1), "r" (op2) );
1707:./Libraries/CMSIS/Core/Include/cmsis_gcc.h ****   return(result);
1708:./Libraries/CMSIS/Core/Include/cmsis_gcc.h **** }
1709:./Libraries/CMSIS/Core/Include/cmsis_gcc.h **** 
1710:./Libraries/CMSIS/Core/Include/cmsis_gcc.h **** __STATIC_FORCEINLINE uint32_t __UHSUB8(uint32_t op1, uint32_t op2)
1711:./Libraries/CMSIS/Core/Include/cmsis_gcc.h **** {
1712:./Libraries/CMSIS/Core/Include/cmsis_gcc.h ****   uint32_t result;
1713:./Libraries/CMSIS/Core/Include/cmsis_gcc.h **** 
1714:./Libraries/CMSIS/Core/Include/cmsis_gcc.h ****   __ASM volatile ("uhsub8 %0, %1, %2" : "=r" (result) : "r" (op1), "r" (op2) );
1715:./Libraries/CMSIS/Core/Include/cmsis_gcc.h ****   return(result);
1716:./Libraries/CMSIS/Core/Include/cmsis_gcc.h **** }
1717:./Libraries/CMSIS/Core/Include/cmsis_gcc.h **** 
1718:./Libraries/CMSIS/Core/Include/cmsis_gcc.h **** 
1719:./Libraries/CMSIS/Core/Include/cmsis_gcc.h **** __STATIC_FORCEINLINE uint32_t __SADD16(uint32_t op1, uint32_t op2)
1720:./Libraries/CMSIS/Core/Include/cmsis_gcc.h **** {
1721:./Libraries/CMSIS/Core/Include/cmsis_gcc.h ****   uint32_t result;
1722:./Libraries/CMSIS/Core/Include/cmsis_gcc.h **** 
1723:./Libraries/CMSIS/Core/Include/cmsis_gcc.h ****   __ASM volatile ("sadd16 %0, %1, %2" : "=r" (result) : "r" (op1), "r" (op2) );
1724:./Libraries/CMSIS/Core/Include/cmsis_gcc.h ****   return(result);
1725:./Libraries/CMSIS/Core/Include/cmsis_gcc.h **** }
1726:./Libraries/CMSIS/Core/Include/cmsis_gcc.h **** 
1727:./Libraries/CMSIS/Core/Include/cmsis_gcc.h **** __STATIC_FORCEINLINE uint32_t __QADD16(uint32_t op1, uint32_t op2)
1728:./Libraries/CMSIS/Core/Include/cmsis_gcc.h **** {
1729:./Libraries/CMSIS/Core/Include/cmsis_gcc.h ****   uint32_t result;
1730:./Libraries/CMSIS/Core/Include/cmsis_gcc.h **** 
1731:./Libraries/CMSIS/Core/Include/cmsis_gcc.h ****   __ASM volatile ("qadd16 %0, %1, %2" : "=r" (result) : "r" (op1), "r" (op2) );
1732:./Libraries/CMSIS/Core/Include/cmsis_gcc.h ****   return(result);
1733:./Libraries/CMSIS/Core/Include/cmsis_gcc.h **** }
1734:./Libraries/CMSIS/Core/Include/cmsis_gcc.h **** 
1735:./Libraries/CMSIS/Core/Include/cmsis_gcc.h **** __STATIC_FORCEINLINE uint32_t __SHADD16(uint32_t op1, uint32_t op2)
1736:./Libraries/CMSIS/Core/Include/cmsis_gcc.h **** {
1737:./Libraries/CMSIS/Core/Include/cmsis_gcc.h ****   uint32_t result;
1738:./Libraries/CMSIS/Core/Include/cmsis_gcc.h **** 
1739:./Libraries/CMSIS/Core/Include/cmsis_gcc.h ****   __ASM volatile ("shadd16 %0, %1, %2" : "=r" (result) : "r" (op1), "r" (op2) );
ARM GAS  /tmp/ccBb4BEn.s 			page 46


1740:./Libraries/CMSIS/Core/Include/cmsis_gcc.h ****   return(result);
1741:./Libraries/CMSIS/Core/Include/cmsis_gcc.h **** }
1742:./Libraries/CMSIS/Core/Include/cmsis_gcc.h **** 
1743:./Libraries/CMSIS/Core/Include/cmsis_gcc.h **** __STATIC_FORCEINLINE uint32_t __UADD16(uint32_t op1, uint32_t op2)
1744:./Libraries/CMSIS/Core/Include/cmsis_gcc.h **** {
1745:./Libraries/CMSIS/Core/Include/cmsis_gcc.h ****   uint32_t result;
1746:./Libraries/CMSIS/Core/Include/cmsis_gcc.h **** 
1747:./Libraries/CMSIS/Core/Include/cmsis_gcc.h ****   __ASM volatile ("uadd16 %0, %1, %2" : "=r" (result) : "r" (op1), "r" (op2) );
1748:./Libraries/CMSIS/Core/Include/cmsis_gcc.h ****   return(result);
1749:./Libraries/CMSIS/Core/Include/cmsis_gcc.h **** }
1750:./Libraries/CMSIS/Core/Include/cmsis_gcc.h **** 
1751:./Libraries/CMSIS/Core/Include/cmsis_gcc.h **** __STATIC_FORCEINLINE uint32_t __UQADD16(uint32_t op1, uint32_t op2)
1752:./Libraries/CMSIS/Core/Include/cmsis_gcc.h **** {
1753:./Libraries/CMSIS/Core/Include/cmsis_gcc.h ****   uint32_t result;
1754:./Libraries/CMSIS/Core/Include/cmsis_gcc.h **** 
1755:./Libraries/CMSIS/Core/Include/cmsis_gcc.h ****   __ASM volatile ("uqadd16 %0, %1, %2" : "=r" (result) : "r" (op1), "r" (op2) );
1756:./Libraries/CMSIS/Core/Include/cmsis_gcc.h ****   return(result);
1757:./Libraries/CMSIS/Core/Include/cmsis_gcc.h **** }
1758:./Libraries/CMSIS/Core/Include/cmsis_gcc.h **** 
1759:./Libraries/CMSIS/Core/Include/cmsis_gcc.h **** __STATIC_FORCEINLINE uint32_t __UHADD16(uint32_t op1, uint32_t op2)
1760:./Libraries/CMSIS/Core/Include/cmsis_gcc.h **** {
1761:./Libraries/CMSIS/Core/Include/cmsis_gcc.h ****   uint32_t result;
1762:./Libraries/CMSIS/Core/Include/cmsis_gcc.h **** 
1763:./Libraries/CMSIS/Core/Include/cmsis_gcc.h ****   __ASM volatile ("uhadd16 %0, %1, %2" : "=r" (result) : "r" (op1), "r" (op2) );
1764:./Libraries/CMSIS/Core/Include/cmsis_gcc.h ****   return(result);
1765:./Libraries/CMSIS/Core/Include/cmsis_gcc.h **** }
1766:./Libraries/CMSIS/Core/Include/cmsis_gcc.h **** 
1767:./Libraries/CMSIS/Core/Include/cmsis_gcc.h **** __STATIC_FORCEINLINE uint32_t __SSUB16(uint32_t op1, uint32_t op2)
1768:./Libraries/CMSIS/Core/Include/cmsis_gcc.h **** {
1769:./Libraries/CMSIS/Core/Include/cmsis_gcc.h ****   uint32_t result;
1770:./Libraries/CMSIS/Core/Include/cmsis_gcc.h **** 
1771:./Libraries/CMSIS/Core/Include/cmsis_gcc.h ****   __ASM volatile ("ssub16 %0, %1, %2" : "=r" (result) : "r" (op1), "r" (op2) );
1772:./Libraries/CMSIS/Core/Include/cmsis_gcc.h ****   return(result);
1773:./Libraries/CMSIS/Core/Include/cmsis_gcc.h **** }
1774:./Libraries/CMSIS/Core/Include/cmsis_gcc.h **** 
1775:./Libraries/CMSIS/Core/Include/cmsis_gcc.h **** __STATIC_FORCEINLINE uint32_t __QSUB16(uint32_t op1, uint32_t op2)
1776:./Libraries/CMSIS/Core/Include/cmsis_gcc.h **** {
1777:./Libraries/CMSIS/Core/Include/cmsis_gcc.h ****   uint32_t result;
1778:./Libraries/CMSIS/Core/Include/cmsis_gcc.h **** 
1779:./Libraries/CMSIS/Core/Include/cmsis_gcc.h ****   __ASM volatile ("qsub16 %0, %1, %2" : "=r" (result) : "r" (op1), "r" (op2) );
1780:./Libraries/CMSIS/Core/Include/cmsis_gcc.h ****   return(result);
1781:./Libraries/CMSIS/Core/Include/cmsis_gcc.h **** }
1782:./Libraries/CMSIS/Core/Include/cmsis_gcc.h **** 
1783:./Libraries/CMSIS/Core/Include/cmsis_gcc.h **** __STATIC_FORCEINLINE uint32_t __SHSUB16(uint32_t op1, uint32_t op2)
1784:./Libraries/CMSIS/Core/Include/cmsis_gcc.h **** {
1785:./Libraries/CMSIS/Core/Include/cmsis_gcc.h ****   uint32_t result;
1786:./Libraries/CMSIS/Core/Include/cmsis_gcc.h **** 
1787:./Libraries/CMSIS/Core/Include/cmsis_gcc.h ****   __ASM volatile ("shsub16 %0, %1, %2" : "=r" (result) : "r" (op1), "r" (op2) );
1788:./Libraries/CMSIS/Core/Include/cmsis_gcc.h ****   return(result);
1789:./Libraries/CMSIS/Core/Include/cmsis_gcc.h **** }
1790:./Libraries/CMSIS/Core/Include/cmsis_gcc.h **** 
1791:./Libraries/CMSIS/Core/Include/cmsis_gcc.h **** __STATIC_FORCEINLINE uint32_t __USUB16(uint32_t op1, uint32_t op2)
1792:./Libraries/CMSIS/Core/Include/cmsis_gcc.h **** {
1793:./Libraries/CMSIS/Core/Include/cmsis_gcc.h ****   uint32_t result;
1794:./Libraries/CMSIS/Core/Include/cmsis_gcc.h **** 
1795:./Libraries/CMSIS/Core/Include/cmsis_gcc.h ****   __ASM volatile ("usub16 %0, %1, %2" : "=r" (result) : "r" (op1), "r" (op2) );
1796:./Libraries/CMSIS/Core/Include/cmsis_gcc.h ****   return(result);
ARM GAS  /tmp/ccBb4BEn.s 			page 47


1797:./Libraries/CMSIS/Core/Include/cmsis_gcc.h **** }
1798:./Libraries/CMSIS/Core/Include/cmsis_gcc.h **** 
1799:./Libraries/CMSIS/Core/Include/cmsis_gcc.h **** __STATIC_FORCEINLINE uint32_t __UQSUB16(uint32_t op1, uint32_t op2)
1800:./Libraries/CMSIS/Core/Include/cmsis_gcc.h **** {
1801:./Libraries/CMSIS/Core/Include/cmsis_gcc.h ****   uint32_t result;
1802:./Libraries/CMSIS/Core/Include/cmsis_gcc.h **** 
1803:./Libraries/CMSIS/Core/Include/cmsis_gcc.h ****   __ASM volatile ("uqsub16 %0, %1, %2" : "=r" (result) : "r" (op1), "r" (op2) );
1804:./Libraries/CMSIS/Core/Include/cmsis_gcc.h ****   return(result);
1805:./Libraries/CMSIS/Core/Include/cmsis_gcc.h **** }
1806:./Libraries/CMSIS/Core/Include/cmsis_gcc.h **** 
1807:./Libraries/CMSIS/Core/Include/cmsis_gcc.h **** __STATIC_FORCEINLINE uint32_t __UHSUB16(uint32_t op1, uint32_t op2)
1808:./Libraries/CMSIS/Core/Include/cmsis_gcc.h **** {
1809:./Libraries/CMSIS/Core/Include/cmsis_gcc.h ****   uint32_t result;
1810:./Libraries/CMSIS/Core/Include/cmsis_gcc.h **** 
1811:./Libraries/CMSIS/Core/Include/cmsis_gcc.h ****   __ASM volatile ("uhsub16 %0, %1, %2" : "=r" (result) : "r" (op1), "r" (op2) );
1812:./Libraries/CMSIS/Core/Include/cmsis_gcc.h ****   return(result);
1813:./Libraries/CMSIS/Core/Include/cmsis_gcc.h **** }
1814:./Libraries/CMSIS/Core/Include/cmsis_gcc.h **** 
1815:./Libraries/CMSIS/Core/Include/cmsis_gcc.h **** __STATIC_FORCEINLINE uint32_t __SASX(uint32_t op1, uint32_t op2)
1816:./Libraries/CMSIS/Core/Include/cmsis_gcc.h **** {
1817:./Libraries/CMSIS/Core/Include/cmsis_gcc.h ****   uint32_t result;
1818:./Libraries/CMSIS/Core/Include/cmsis_gcc.h **** 
1819:./Libraries/CMSIS/Core/Include/cmsis_gcc.h ****   __ASM volatile ("sasx %0, %1, %2" : "=r" (result) : "r" (op1), "r" (op2) );
1820:./Libraries/CMSIS/Core/Include/cmsis_gcc.h ****   return(result);
1821:./Libraries/CMSIS/Core/Include/cmsis_gcc.h **** }
1822:./Libraries/CMSIS/Core/Include/cmsis_gcc.h **** 
1823:./Libraries/CMSIS/Core/Include/cmsis_gcc.h **** __STATIC_FORCEINLINE uint32_t __QASX(uint32_t op1, uint32_t op2)
1824:./Libraries/CMSIS/Core/Include/cmsis_gcc.h **** {
1825:./Libraries/CMSIS/Core/Include/cmsis_gcc.h ****   uint32_t result;
1826:./Libraries/CMSIS/Core/Include/cmsis_gcc.h **** 
1827:./Libraries/CMSIS/Core/Include/cmsis_gcc.h ****   __ASM volatile ("qasx %0, %1, %2" : "=r" (result) : "r" (op1), "r" (op2) );
1828:./Libraries/CMSIS/Core/Include/cmsis_gcc.h ****   return(result);
1829:./Libraries/CMSIS/Core/Include/cmsis_gcc.h **** }
1830:./Libraries/CMSIS/Core/Include/cmsis_gcc.h **** 
1831:./Libraries/CMSIS/Core/Include/cmsis_gcc.h **** __STATIC_FORCEINLINE uint32_t __SHASX(uint32_t op1, uint32_t op2)
1832:./Libraries/CMSIS/Core/Include/cmsis_gcc.h **** {
1833:./Libraries/CMSIS/Core/Include/cmsis_gcc.h ****   uint32_t result;
1834:./Libraries/CMSIS/Core/Include/cmsis_gcc.h **** 
1835:./Libraries/CMSIS/Core/Include/cmsis_gcc.h ****   __ASM volatile ("shasx %0, %1, %2" : "=r" (result) : "r" (op1), "r" (op2) );
1836:./Libraries/CMSIS/Core/Include/cmsis_gcc.h ****   return(result);
1837:./Libraries/CMSIS/Core/Include/cmsis_gcc.h **** }
1838:./Libraries/CMSIS/Core/Include/cmsis_gcc.h **** 
1839:./Libraries/CMSIS/Core/Include/cmsis_gcc.h **** __STATIC_FORCEINLINE uint32_t __UASX(uint32_t op1, uint32_t op2)
1840:./Libraries/CMSIS/Core/Include/cmsis_gcc.h **** {
1841:./Libraries/CMSIS/Core/Include/cmsis_gcc.h ****   uint32_t result;
1842:./Libraries/CMSIS/Core/Include/cmsis_gcc.h **** 
1843:./Libraries/CMSIS/Core/Include/cmsis_gcc.h ****   __ASM volatile ("uasx %0, %1, %2" : "=r" (result) : "r" (op1), "r" (op2) );
1844:./Libraries/CMSIS/Core/Include/cmsis_gcc.h ****   return(result);
1845:./Libraries/CMSIS/Core/Include/cmsis_gcc.h **** }
1846:./Libraries/CMSIS/Core/Include/cmsis_gcc.h **** 
1847:./Libraries/CMSIS/Core/Include/cmsis_gcc.h **** __STATIC_FORCEINLINE uint32_t __UQASX(uint32_t op1, uint32_t op2)
1848:./Libraries/CMSIS/Core/Include/cmsis_gcc.h **** {
1849:./Libraries/CMSIS/Core/Include/cmsis_gcc.h ****   uint32_t result;
1850:./Libraries/CMSIS/Core/Include/cmsis_gcc.h **** 
1851:./Libraries/CMSIS/Core/Include/cmsis_gcc.h ****   __ASM volatile ("uqasx %0, %1, %2" : "=r" (result) : "r" (op1), "r" (op2) );
1852:./Libraries/CMSIS/Core/Include/cmsis_gcc.h ****   return(result);
1853:./Libraries/CMSIS/Core/Include/cmsis_gcc.h **** }
ARM GAS  /tmp/ccBb4BEn.s 			page 48


1854:./Libraries/CMSIS/Core/Include/cmsis_gcc.h **** 
1855:./Libraries/CMSIS/Core/Include/cmsis_gcc.h **** __STATIC_FORCEINLINE uint32_t __UHASX(uint32_t op1, uint32_t op2)
1856:./Libraries/CMSIS/Core/Include/cmsis_gcc.h **** {
1857:./Libraries/CMSIS/Core/Include/cmsis_gcc.h ****   uint32_t result;
1858:./Libraries/CMSIS/Core/Include/cmsis_gcc.h **** 
1859:./Libraries/CMSIS/Core/Include/cmsis_gcc.h ****   __ASM volatile ("uhasx %0, %1, %2" : "=r" (result) : "r" (op1), "r" (op2) );
1860:./Libraries/CMSIS/Core/Include/cmsis_gcc.h ****   return(result);
1861:./Libraries/CMSIS/Core/Include/cmsis_gcc.h **** }
1862:./Libraries/CMSIS/Core/Include/cmsis_gcc.h **** 
1863:./Libraries/CMSIS/Core/Include/cmsis_gcc.h **** __STATIC_FORCEINLINE uint32_t __SSAX(uint32_t op1, uint32_t op2)
1864:./Libraries/CMSIS/Core/Include/cmsis_gcc.h **** {
1865:./Libraries/CMSIS/Core/Include/cmsis_gcc.h ****   uint32_t result;
1866:./Libraries/CMSIS/Core/Include/cmsis_gcc.h **** 
1867:./Libraries/CMSIS/Core/Include/cmsis_gcc.h ****   __ASM volatile ("ssax %0, %1, %2" : "=r" (result) : "r" (op1), "r" (op2) );
1868:./Libraries/CMSIS/Core/Include/cmsis_gcc.h ****   return(result);
1869:./Libraries/CMSIS/Core/Include/cmsis_gcc.h **** }
1870:./Libraries/CMSIS/Core/Include/cmsis_gcc.h **** 
1871:./Libraries/CMSIS/Core/Include/cmsis_gcc.h **** __STATIC_FORCEINLINE uint32_t __QSAX(uint32_t op1, uint32_t op2)
1872:./Libraries/CMSIS/Core/Include/cmsis_gcc.h **** {
1873:./Libraries/CMSIS/Core/Include/cmsis_gcc.h ****   uint32_t result;
1874:./Libraries/CMSIS/Core/Include/cmsis_gcc.h **** 
1875:./Libraries/CMSIS/Core/Include/cmsis_gcc.h ****   __ASM volatile ("qsax %0, %1, %2" : "=r" (result) : "r" (op1), "r" (op2) );
1876:./Libraries/CMSIS/Core/Include/cmsis_gcc.h ****   return(result);
1877:./Libraries/CMSIS/Core/Include/cmsis_gcc.h **** }
1878:./Libraries/CMSIS/Core/Include/cmsis_gcc.h **** 
1879:./Libraries/CMSIS/Core/Include/cmsis_gcc.h **** __STATIC_FORCEINLINE uint32_t __SHSAX(uint32_t op1, uint32_t op2)
1880:./Libraries/CMSIS/Core/Include/cmsis_gcc.h **** {
1881:./Libraries/CMSIS/Core/Include/cmsis_gcc.h ****   uint32_t result;
1882:./Libraries/CMSIS/Core/Include/cmsis_gcc.h **** 
1883:./Libraries/CMSIS/Core/Include/cmsis_gcc.h ****   __ASM volatile ("shsax %0, %1, %2" : "=r" (result) : "r" (op1), "r" (op2) );
1884:./Libraries/CMSIS/Core/Include/cmsis_gcc.h ****   return(result);
1885:./Libraries/CMSIS/Core/Include/cmsis_gcc.h **** }
1886:./Libraries/CMSIS/Core/Include/cmsis_gcc.h **** 
1887:./Libraries/CMSIS/Core/Include/cmsis_gcc.h **** __STATIC_FORCEINLINE uint32_t __USAX(uint32_t op1, uint32_t op2)
1888:./Libraries/CMSIS/Core/Include/cmsis_gcc.h **** {
1889:./Libraries/CMSIS/Core/Include/cmsis_gcc.h ****   uint32_t result;
1890:./Libraries/CMSIS/Core/Include/cmsis_gcc.h **** 
1891:./Libraries/CMSIS/Core/Include/cmsis_gcc.h ****   __ASM volatile ("usax %0, %1, %2" : "=r" (result) : "r" (op1), "r" (op2) );
1892:./Libraries/CMSIS/Core/Include/cmsis_gcc.h ****   return(result);
1893:./Libraries/CMSIS/Core/Include/cmsis_gcc.h **** }
1894:./Libraries/CMSIS/Core/Include/cmsis_gcc.h **** 
1895:./Libraries/CMSIS/Core/Include/cmsis_gcc.h **** __STATIC_FORCEINLINE uint32_t __UQSAX(uint32_t op1, uint32_t op2)
1896:./Libraries/CMSIS/Core/Include/cmsis_gcc.h **** {
1897:./Libraries/CMSIS/Core/Include/cmsis_gcc.h ****   uint32_t result;
1898:./Libraries/CMSIS/Core/Include/cmsis_gcc.h **** 
1899:./Libraries/CMSIS/Core/Include/cmsis_gcc.h ****   __ASM volatile ("uqsax %0, %1, %2" : "=r" (result) : "r" (op1), "r" (op2) );
1900:./Libraries/CMSIS/Core/Include/cmsis_gcc.h ****   return(result);
1901:./Libraries/CMSIS/Core/Include/cmsis_gcc.h **** }
1902:./Libraries/CMSIS/Core/Include/cmsis_gcc.h **** 
1903:./Libraries/CMSIS/Core/Include/cmsis_gcc.h **** __STATIC_FORCEINLINE uint32_t __UHSAX(uint32_t op1, uint32_t op2)
1904:./Libraries/CMSIS/Core/Include/cmsis_gcc.h **** {
1905:./Libraries/CMSIS/Core/Include/cmsis_gcc.h ****   uint32_t result;
1906:./Libraries/CMSIS/Core/Include/cmsis_gcc.h **** 
1907:./Libraries/CMSIS/Core/Include/cmsis_gcc.h ****   __ASM volatile ("uhsax %0, %1, %2" : "=r" (result) : "r" (op1), "r" (op2) );
1908:./Libraries/CMSIS/Core/Include/cmsis_gcc.h ****   return(result);
1909:./Libraries/CMSIS/Core/Include/cmsis_gcc.h **** }
1910:./Libraries/CMSIS/Core/Include/cmsis_gcc.h **** 
ARM GAS  /tmp/ccBb4BEn.s 			page 49


1911:./Libraries/CMSIS/Core/Include/cmsis_gcc.h **** __STATIC_FORCEINLINE uint32_t __USAD8(uint32_t op1, uint32_t op2)
1912:./Libraries/CMSIS/Core/Include/cmsis_gcc.h **** {
1913:./Libraries/CMSIS/Core/Include/cmsis_gcc.h ****   uint32_t result;
1914:./Libraries/CMSIS/Core/Include/cmsis_gcc.h **** 
1915:./Libraries/CMSIS/Core/Include/cmsis_gcc.h ****   __ASM volatile ("usad8 %0, %1, %2" : "=r" (result) : "r" (op1), "r" (op2) );
1916:./Libraries/CMSIS/Core/Include/cmsis_gcc.h ****   return(result);
1917:./Libraries/CMSIS/Core/Include/cmsis_gcc.h **** }
1918:./Libraries/CMSIS/Core/Include/cmsis_gcc.h **** 
1919:./Libraries/CMSIS/Core/Include/cmsis_gcc.h **** __STATIC_FORCEINLINE uint32_t __USADA8(uint32_t op1, uint32_t op2, uint32_t op3)
1920:./Libraries/CMSIS/Core/Include/cmsis_gcc.h **** {
1921:./Libraries/CMSIS/Core/Include/cmsis_gcc.h ****   uint32_t result;
1922:./Libraries/CMSIS/Core/Include/cmsis_gcc.h **** 
1923:./Libraries/CMSIS/Core/Include/cmsis_gcc.h ****   __ASM volatile ("usada8 %0, %1, %2, %3" : "=r" (result) : "r" (op1), "r" (op2), "r" (op3) );
1924:./Libraries/CMSIS/Core/Include/cmsis_gcc.h ****   return(result);
1925:./Libraries/CMSIS/Core/Include/cmsis_gcc.h **** }
1926:./Libraries/CMSIS/Core/Include/cmsis_gcc.h **** 
1927:./Libraries/CMSIS/Core/Include/cmsis_gcc.h **** #define __SSAT16(ARG1,ARG2) \
1928:./Libraries/CMSIS/Core/Include/cmsis_gcc.h **** ({                          \
1929:./Libraries/CMSIS/Core/Include/cmsis_gcc.h ****   int32_t __RES, __ARG1 = (ARG1); \
1930:./Libraries/CMSIS/Core/Include/cmsis_gcc.h ****   __ASM ("ssat16 %0, %1, %2" : "=r" (__RES) :  "I" (ARG2), "r" (__ARG1) ); \
1931:./Libraries/CMSIS/Core/Include/cmsis_gcc.h ****   __RES; \
1932:./Libraries/CMSIS/Core/Include/cmsis_gcc.h ****  })
1933:./Libraries/CMSIS/Core/Include/cmsis_gcc.h **** 
1934:./Libraries/CMSIS/Core/Include/cmsis_gcc.h **** #define __USAT16(ARG1,ARG2) \
1935:./Libraries/CMSIS/Core/Include/cmsis_gcc.h **** ({                          \
1936:./Libraries/CMSIS/Core/Include/cmsis_gcc.h ****   uint32_t __RES, __ARG1 = (ARG1); \
1937:./Libraries/CMSIS/Core/Include/cmsis_gcc.h ****   __ASM ("usat16 %0, %1, %2" : "=r" (__RES) :  "I" (ARG2), "r" (__ARG1) ); \
1938:./Libraries/CMSIS/Core/Include/cmsis_gcc.h ****   __RES; \
1939:./Libraries/CMSIS/Core/Include/cmsis_gcc.h ****  })
1940:./Libraries/CMSIS/Core/Include/cmsis_gcc.h **** 
1941:./Libraries/CMSIS/Core/Include/cmsis_gcc.h **** __STATIC_FORCEINLINE uint32_t __UXTB16(uint32_t op1)
1942:./Libraries/CMSIS/Core/Include/cmsis_gcc.h **** {
1943:./Libraries/CMSIS/Core/Include/cmsis_gcc.h ****   uint32_t result;
1944:./Libraries/CMSIS/Core/Include/cmsis_gcc.h **** 
1945:./Libraries/CMSIS/Core/Include/cmsis_gcc.h ****   __ASM volatile ("uxtb16 %0, %1" : "=r" (result) : "r" (op1));
1946:./Libraries/CMSIS/Core/Include/cmsis_gcc.h ****   return(result);
1947:./Libraries/CMSIS/Core/Include/cmsis_gcc.h **** }
1948:./Libraries/CMSIS/Core/Include/cmsis_gcc.h **** 
1949:./Libraries/CMSIS/Core/Include/cmsis_gcc.h **** __STATIC_FORCEINLINE uint32_t __UXTAB16(uint32_t op1, uint32_t op2)
1950:./Libraries/CMSIS/Core/Include/cmsis_gcc.h **** {
1951:./Libraries/CMSIS/Core/Include/cmsis_gcc.h ****   uint32_t result;
1952:./Libraries/CMSIS/Core/Include/cmsis_gcc.h **** 
1953:./Libraries/CMSIS/Core/Include/cmsis_gcc.h ****   __ASM volatile ("uxtab16 %0, %1, %2" : "=r" (result) : "r" (op1), "r" (op2) );
1954:./Libraries/CMSIS/Core/Include/cmsis_gcc.h ****   return(result);
1955:./Libraries/CMSIS/Core/Include/cmsis_gcc.h **** }
1956:./Libraries/CMSIS/Core/Include/cmsis_gcc.h **** 
1957:./Libraries/CMSIS/Core/Include/cmsis_gcc.h **** __STATIC_FORCEINLINE uint32_t __SXTB16(uint32_t op1)
 407              		.loc 3 1957 31 is_stmt 1 view .LVU121
 408              	.LBB53:
1958:./Libraries/CMSIS/Core/Include/cmsis_gcc.h **** {
1959:./Libraries/CMSIS/Core/Include/cmsis_gcc.h ****   uint32_t result;
 409              		.loc 3 1959 3 view .LVU122
1960:./Libraries/CMSIS/Core/Include/cmsis_gcc.h **** 
1961:./Libraries/CMSIS/Core/Include/cmsis_gcc.h ****   __ASM volatile ("sxtb16 %0, %1" : "=r" (result) : "r" (op1));
 410              		.loc 3 1961 3 view .LVU123
 411              	.LBE53:
 412              	.LBE52:
ARM GAS  /tmp/ccBb4BEn.s 			page 50


 413              	.LBB55:
 414              	.LBB51:
1028:./Libraries/CMSIS/Core/Include/cmsis_gcc.h **** }
 415              		.loc 3 1028 23 is_stmt 0 view .LVU124
 416 01ae 4FEA3122 		ror	r2, r1, #8
 417              	.LVL32:
1028:./Libraries/CMSIS/Core/Include/cmsis_gcc.h **** }
 418              		.loc 3 1028 23 view .LVU125
 419              	.LBE51:
 420              	.LBE55:
 421              	.LBB56:
 422              	.LBB54:
 423              		.loc 3 1961 3 view .LVU126
 424              		.syntax unified
 425              	@ 1961 "./Libraries/CMSIS/Core/Include/cmsis_gcc.h" 1
 426 01b2 2FFA82F2 		sxtb16 r2, r2
 427              	@ 0 "" 2
 428              	.LVL33:
1962:./Libraries/CMSIS/Core/Include/cmsis_gcc.h ****   return(result);
 429              		.loc 3 1962 3 is_stmt 1 view .LVU127
 430              		.loc 3 1962 3 is_stmt 0 view .LVU128
 431              		.thumb
 432              		.syntax unified
 433              	.LBE54:
 434              	.LBE56:
 110:./Libraries/CMSIS/NN/Include/arm_nnsupportfunctions.h **** 
 435              		.loc 2 110 9 is_stmt 1 view .LVU129
 436              	.LBB57:
 437              	.LBI57:
1957:./Libraries/CMSIS/Core/Include/cmsis_gcc.h **** {
 438              		.loc 3 1957 31 view .LVU130
 439              	.LBB58:
1959:./Libraries/CMSIS/Core/Include/cmsis_gcc.h **** 
 440              		.loc 3 1959 3 view .LVU131
1961:./Libraries/CMSIS/Core/Include/cmsis_gcc.h ****   return(result);
 441              		.loc 3 1961 3 view .LVU132
 442              		.syntax unified
 443              	@ 1961 "./Libraries/CMSIS/Core/Include/cmsis_gcc.h" 1
 444 01b6 2FFA81FC 		sxtb16 ip, r1
 445              	@ 0 "" 2
 446              	.LVL34:
 447              		.loc 3 1962 3 view .LVU133
 448              		.loc 3 1962 3 is_stmt 0 view .LVU134
 449              		.thumb
 450              		.syntax unified
 451              	.LBE58:
 452              	.LBE57:
 453              		.loc 2 113 9 is_stmt 1 view .LVU135
 114:./Libraries/CMSIS/NN/Include/arm_nnsupportfunctions.h ****         *out1 = __PKHBT(inAbuf2, inAbuf1, 16);
 454              		.loc 2 114 9 view .LVU136
 115:./Libraries/CMSIS/NN/Include/arm_nnsupportfunctions.h **** #else
 116:./Libraries/CMSIS/NN/Include/arm_nnsupportfunctions.h ****         *out1 = __PKHTB(inAbuf1, inAbuf2, 16);
 117:./Libraries/CMSIS/NN/Include/arm_nnsupportfunctions.h ****         *out2 = __PKHBT(inAbuf2, inAbuf1, 16);
 118:./Libraries/CMSIS/NN/Include/arm_nnsupportfunctions.h **** #endif
 119:./Libraries/CMSIS/NN/Include/arm_nnsupportfunctions.h **** 
 120:./Libraries/CMSIS/NN/Include/arm_nnsupportfunctions.h ****         return source;
 455              		.loc 2 120 9 view .LVU137
ARM GAS  /tmp/ccBb4BEn.s 			page 51


 456              		.loc 2 120 9 is_stmt 0 view .LVU138
 457              	.LBE59:
 458              	.LBE64:
 209:./Libraries/CMSIS/NN/Source/ConvolutionFunctions/arm_convolve_HWC_q7_RGB.c ****                 sum = __SMLAD(inA1, inB1, sum);
 459              		.loc 1 209 17 is_stmt 1 view .LVU139
 210:./Libraries/CMSIS/NN/Source/ConvolutionFunctions/arm_convolve_HWC_q7_RGB.c ****                 inB2 = *__SIMD32(pB)++;
 460              		.loc 1 210 17 view .LVU140
 461              	.LBB65:
 462              	.LBI65:
1963:./Libraries/CMSIS/Core/Include/cmsis_gcc.h **** }
1964:./Libraries/CMSIS/Core/Include/cmsis_gcc.h **** 
1965:./Libraries/CMSIS/Core/Include/cmsis_gcc.h **** __STATIC_FORCEINLINE uint32_t __SXTAB16(uint32_t op1, uint32_t op2)
1966:./Libraries/CMSIS/Core/Include/cmsis_gcc.h **** {
1967:./Libraries/CMSIS/Core/Include/cmsis_gcc.h ****   uint32_t result;
1968:./Libraries/CMSIS/Core/Include/cmsis_gcc.h **** 
1969:./Libraries/CMSIS/Core/Include/cmsis_gcc.h ****   __ASM volatile ("sxtab16 %0, %1, %2" : "=r" (result) : "r" (op1), "r" (op2) );
1970:./Libraries/CMSIS/Core/Include/cmsis_gcc.h ****   return(result);
1971:./Libraries/CMSIS/Core/Include/cmsis_gcc.h **** }
1972:./Libraries/CMSIS/Core/Include/cmsis_gcc.h **** 
1973:./Libraries/CMSIS/Core/Include/cmsis_gcc.h **** __STATIC_FORCEINLINE uint32_t __SMUAD  (uint32_t op1, uint32_t op2)
1974:./Libraries/CMSIS/Core/Include/cmsis_gcc.h **** {
1975:./Libraries/CMSIS/Core/Include/cmsis_gcc.h ****   uint32_t result;
1976:./Libraries/CMSIS/Core/Include/cmsis_gcc.h **** 
1977:./Libraries/CMSIS/Core/Include/cmsis_gcc.h ****   __ASM volatile ("smuad %0, %1, %2" : "=r" (result) : "r" (op1), "r" (op2) );
1978:./Libraries/CMSIS/Core/Include/cmsis_gcc.h ****   return(result);
1979:./Libraries/CMSIS/Core/Include/cmsis_gcc.h **** }
1980:./Libraries/CMSIS/Core/Include/cmsis_gcc.h **** 
1981:./Libraries/CMSIS/Core/Include/cmsis_gcc.h **** __STATIC_FORCEINLINE uint32_t __SMUADX (uint32_t op1, uint32_t op2)
1982:./Libraries/CMSIS/Core/Include/cmsis_gcc.h **** {
1983:./Libraries/CMSIS/Core/Include/cmsis_gcc.h ****   uint32_t result;
1984:./Libraries/CMSIS/Core/Include/cmsis_gcc.h **** 
1985:./Libraries/CMSIS/Core/Include/cmsis_gcc.h ****   __ASM volatile ("smuadx %0, %1, %2" : "=r" (result) : "r" (op1), "r" (op2) );
1986:./Libraries/CMSIS/Core/Include/cmsis_gcc.h ****   return(result);
1987:./Libraries/CMSIS/Core/Include/cmsis_gcc.h **** }
1988:./Libraries/CMSIS/Core/Include/cmsis_gcc.h **** 
1989:./Libraries/CMSIS/Core/Include/cmsis_gcc.h **** __STATIC_FORCEINLINE uint32_t __SMLAD (uint32_t op1, uint32_t op2, uint32_t op3)
 463              		.loc 3 1989 31 view .LVU141
 464              	.LBB66:
1990:./Libraries/CMSIS/Core/Include/cmsis_gcc.h **** {
1991:./Libraries/CMSIS/Core/Include/cmsis_gcc.h ****   uint32_t result;
 465              		.loc 3 1991 3 view .LVU142
1992:./Libraries/CMSIS/Core/Include/cmsis_gcc.h **** 
1993:./Libraries/CMSIS/Core/Include/cmsis_gcc.h ****   __ASM volatile ("smlad %0, %1, %2, %3" : "=r" (result) : "r" (op1), "r" (op2), "r" (op3) );
 466              		.loc 3 1993 3 view .LVU143
 467              	.LBE66:
 468              	.LBE65:
 469              	.LBB69:
 470              	.LBB60:
 114:./Libraries/CMSIS/NN/Include/arm_nnsupportfunctions.h **** #else
 471              		.loc 2 114 17 is_stmt 0 view .LVU144
 472 01ba 1FFA8CF1 		uxth	r1, ip
 473              	.LBE60:
 474              	.LBE69:
 475              	.LBB70:
 476              	.LBB67:
 477              		.loc 3 1993 3 view .LVU145
 478 01be 50F8086C 		ldr	r6, [r0, #-8]
ARM GAS  /tmp/ccBb4BEn.s 			page 52


 479              	.LBE67:
 480              	.LBE70:
 481              	.LBB71:
 482              	.LBB61:
 114:./Libraries/CMSIS/NN/Include/arm_nnsupportfunctions.h **** #else
 483              		.loc 2 114 17 view .LVU146
 484 01c2 41EA0241 		orr	r1, r1, r2, lsl #16
 485              	.LBE61:
 486              	.LBE71:
 487              	.LBB72:
 488              	.LBB68:
 489              		.loc 3 1993 3 view .LVU147
 490              		.syntax unified
 491              	@ 1993 "./Libraries/CMSIS/Core/Include/cmsis_gcc.h" 1
 492 01c6 21FB0631 		smlad r1, r1, r6, r3
 493              	@ 0 "" 2
 494              	.LVL35:
1994:./Libraries/CMSIS/Core/Include/cmsis_gcc.h ****   return(result);
 495              		.loc 3 1994 3 is_stmt 1 view .LVU148
 496              		.loc 3 1994 3 is_stmt 0 view .LVU149
 497              		.thumb
 498              		.syntax unified
 499              	.LBE68:
 500              	.LBE72:
 211:./Libraries/CMSIS/NN/Source/ConvolutionFunctions/arm_convolve_HWC_q7_RGB.c ****                 sum = __SMLAD(inA2, inB2, sum);
 501              		.loc 1 211 17 is_stmt 1 view .LVU150
 212:./Libraries/CMSIS/NN/Source/ConvolutionFunctions/arm_convolve_HWC_q7_RGB.c **** 
 502              		.loc 1 212 17 view .LVU151
 503              	.LBB73:
 504              	.LBI73:
1989:./Libraries/CMSIS/Core/Include/cmsis_gcc.h **** {
 505              		.loc 3 1989 31 view .LVU152
 506              	.LBB74:
1991:./Libraries/CMSIS/Core/Include/cmsis_gcc.h **** 
 507              		.loc 3 1991 3 view .LVU153
1993:./Libraries/CMSIS/Core/Include/cmsis_gcc.h ****   return(result);
 508              		.loc 3 1993 3 view .LVU154
 509              	.LBE74:
 510              	.LBE73:
 511              	.LBB77:
 512              	.LBB62:
 113:./Libraries/CMSIS/NN/Include/arm_nnsupportfunctions.h ****         *out1 = __PKHBT(inAbuf2, inAbuf1, 16);
 513              		.loc 2 113 17 is_stmt 0 view .LVU155
 514 01ca 3A40     		ands	r2, r2, r7
 515              	.LVL36:
 113:./Libraries/CMSIS/NN/Include/arm_nnsupportfunctions.h ****         *out1 = __PKHBT(inAbuf2, inAbuf1, 16);
 516              		.loc 2 113 17 view .LVU156
 517              	.LBE62:
 518              	.LBE77:
 519              	.LBB78:
 520              	.LBB75:
1993:./Libraries/CMSIS/Core/Include/cmsis_gcc.h ****   return(result);
 521              		.loc 3 1993 3 view .LVU157
 522 01cc 50F8043C 		ldr	r3, [r0, #-4]
 523              	.LBE75:
 524              	.LBE78:
 525              	.LBB79:
ARM GAS  /tmp/ccBb4BEn.s 			page 53


 526              	.LBB63:
 113:./Libraries/CMSIS/NN/Include/arm_nnsupportfunctions.h ****         *out1 = __PKHBT(inAbuf2, inAbuf1, 16);
 527              		.loc 2 113 17 view .LVU158
 528 01d0 42EA1C4C 		orr	ip, r2, ip, lsr #16
 529              	.LVL37:
 113:./Libraries/CMSIS/NN/Include/arm_nnsupportfunctions.h ****         *out1 = __PKHBT(inAbuf2, inAbuf1, 16);
 530              		.loc 2 113 17 view .LVU159
 531              	.LBE63:
 532              	.LBE79:
 533              	.LBB80:
 534              	.LBB76:
1993:./Libraries/CMSIS/Core/Include/cmsis_gcc.h ****   return(result);
 535              		.loc 3 1993 3 view .LVU160
 536              		.syntax unified
 537              	@ 1993 "./Libraries/CMSIS/Core/Include/cmsis_gcc.h" 1
 538 01d4 2CFB0313 		smlad r3, ip, r3, r1
 539              	@ 0 "" 2
 540              	.LVL38:
 541              		.loc 3 1994 3 is_stmt 1 view .LVU161
 542              		.loc 3 1994 3 is_stmt 0 view .LVU162
 543              		.thumb
 544              		.syntax unified
 545              	.LBE76:
 546              	.LBE80:
 214:./Libraries/CMSIS/NN/Source/ConvolutionFunctions/arm_convolve_HWC_q7_RGB.c ****             }
 547              		.loc 1 214 17 is_stmt 1 view .LVU163
 214:./Libraries/CMSIS/NN/Source/ConvolutionFunctions/arm_convolve_HWC_q7_RGB.c ****             }
 548              		.loc 1 214 17 is_stmt 0 view .LVU164
 549              	.LBE81:
 201:./Libraries/CMSIS/NN/Source/ConvolutionFunctions/arm_convolve_HWC_q7_RGB.c ****             {
 550              		.loc 1 201 19 is_stmt 1 view .LVU165
 551 01d8 A542     		cmp	r5, r4
 552 01da 00F10800 		add	r0, r0, #8
 553              	.LVL39:
 201:./Libraries/CMSIS/NN/Source/ConvolutionFunctions/arm_convolve_HWC_q7_RGB.c ****             {
 554              		.loc 1 201 19 is_stmt 0 view .LVU166
 555 01de E4D1     		bne	.L18
 556              	.LBB82:
 211:./Libraries/CMSIS/NN/Source/ConvolutionFunctions/arm_convolve_HWC_q7_RGB.c ****                 sum = __SMLAD(inA2, inB2, sum);
 557              		.loc 1 211 37 view .LVU167
 558 01e0 DDE90626 		ldrd	r2, r6, [sp, #24]
 559              	.LVL40:
 560              	.L17:
 211:./Libraries/CMSIS/NN/Source/ConvolutionFunctions/arm_convolve_HWC_q7_RGB.c ****                 sum = __SMLAD(inA2, inB2, sum);
 561              		.loc 1 211 37 view .LVU168
 562              	.LBE82:
 563              		.loc 1 216 13 is_stmt 1 view .LVU169
 217:./Libraries/CMSIS/NN/Source/ConvolutionFunctions/arm_convolve_HWC_q7_RGB.c ****             while (colCnt)
 564              		.loc 1 217 13 view .LVU170
 565              		.loc 1 217 19 view .LVU171
 566 01e4 BEF1000F 		cmp	lr, #0
 567 01e8 47D0     		beq	.L24
 568 01ea 05EB0B04 		add	r4, r5, fp
 569              	.LVL41:
 570              	.L20:
 571              	.LBB83:
 218:./Libraries/CMSIS/NN/Source/ConvolutionFunctions/arm_convolve_HWC_q7_RGB.c ****             {
ARM GAS  /tmp/ccBb4BEn.s 			page 54


 219:./Libraries/CMSIS/NN/Source/ConvolutionFunctions/arm_convolve_HWC_q7_RGB.c ****                 q7_t      inA1 = *pA++;
 572              		.loc 1 219 17 view .LVU172
 220:./Libraries/CMSIS/NN/Source/ConvolutionFunctions/arm_convolve_HWC_q7_RGB.c ****                 q15_t     inB1 = *pB++;
 573              		.loc 1 220 17 view .LVU173
 221:./Libraries/CMSIS/NN/Source/ConvolutionFunctions/arm_convolve_HWC_q7_RGB.c ****                 sum += inA1 * inB1;
 574              		.loc 1 221 17 view .LVU174
 575              		.loc 1 221 21 is_stmt 0 view .LVU175
 576 01ee 15F9011B 		ldrsb	r1, [r5], #1
 577              	.LVL42:
 578              		.loc 1 221 21 view .LVU176
 579 01f2 32F8020B 		ldrh	r0, [r2], #2
 580              	.LVL43:
 581              		.loc 1 221 21 view .LVU177
 582              	.LBE83:
 217:./Libraries/CMSIS/NN/Source/ConvolutionFunctions/arm_convolve_HWC_q7_RGB.c ****             {
 583              		.loc 1 217 19 view .LVU178
 584 01f6 A542     		cmp	r5, r4
 585              	.LBB84:
 586              		.loc 1 221 21 view .LVU179
 587 01f8 10FB0133 		smlabb	r3, r0, r1, r3
 588              	.LVL44:
 222:./Libraries/CMSIS/NN/Source/ConvolutionFunctions/arm_convolve_HWC_q7_RGB.c ****                 colCnt--;
 589              		.loc 1 222 17 is_stmt 1 view .LVU180
 590              		.loc 1 222 17 is_stmt 0 view .LVU181
 591              	.LBE84:
 217:./Libraries/CMSIS/NN/Source/ConvolutionFunctions/arm_convolve_HWC_q7_RGB.c ****             {
 592              		.loc 1 217 19 is_stmt 1 view .LVU182
 593 01fc F7D1     		bne	.L20
 594              	.LVL45:
 595              	.L19:
 223:./Libraries/CMSIS/NN/Source/ConvolutionFunctions/arm_convolve_HWC_q7_RGB.c ****             }
 224:./Libraries/CMSIS/NN/Source/ConvolutionFunctions/arm_convolve_HWC_q7_RGB.c ****             *pOut++ = (q7_t) __SSAT((sum >> out_shift), 8);
 596              		.loc 1 224 13 discriminator 2 view .LVU183
 597              	.LBB85:
 598              		.loc 1 224 30 discriminator 2 view .LVU184
 599              		.loc 1 224 30 discriminator 2 view .LVU185
 600 01fe 0E9A     		ldr	r2, [sp, #56]
 601              	.LVL46:
 602              		.loc 1 224 30 is_stmt 0 discriminator 2 view .LVU186
 603 0200 1341     		asrs	r3, r3, r2
 604              	.LVL47:
 605              		.loc 1 224 30 discriminator 2 view .LVU187
 606              	.LBE85:
 607              		.loc 1 224 23 discriminator 2 view .LVU188
 608 0202 299A     		ldr	r2, [sp, #164]
 609              	.LBB86:
 610              		.loc 1 224 30 discriminator 2 view .LVU189
 611              		.syntax unified
 612              	@ 224 "./Libraries/CMSIS/NN/Source/ConvolutionFunctions/arm_convolve_HWC_q7_RGB.c" 1
 613 0204 03F30703 		ssat r3, #8, r3
 614              	@ 0 "" 2
 615              	.LVL48:
 616              		.loc 1 224 30 is_stmt 1 discriminator 2 view .LVU190
 617              		.loc 1 224 30 is_stmt 0 discriminator 2 view .LVU191
 618              		.thumb
 619              		.syntax unified
 620              	.LBE86:
ARM GAS  /tmp/ccBb4BEn.s 			page 55


 621              		.loc 1 224 23 discriminator 2 view .LVU192
 622 0208 02F8013B 		strb	r3, [r2], #1
 623              	.LVL49:
 624              		.loc 1 224 23 discriminator 2 view .LVU193
 625              	.LBE45:
 194:./Libraries/CMSIS/NN/Source/ConvolutionFunctions/arm_convolve_HWC_q7_RGB.c ****         {
 626              		.loc 1 194 9 discriminator 2 view .LVU194
 627 020c 9145     		cmp	r9, r2
 628              	.LBB87:
 629              		.loc 1 224 23 discriminator 2 view .LVU195
 630 020e 2992     		str	r2, [sp, #164]
 631              		.loc 1 224 23 discriminator 2 view .LVU196
 632              	.LBE87:
 194:./Libraries/CMSIS/NN/Source/ConvolutionFunctions/arm_convolve_HWC_q7_RGB.c ****         {
 633              		.loc 1 194 36 is_stmt 1 discriminator 2 view .LVU197
 634              	.LVL50:
 194:./Libraries/CMSIS/NN/Source/ConvolutionFunctions/arm_convolve_HWC_q7_RGB.c ****         {
 635              		.loc 1 194 21 discriminator 2 view .LVU198
 194:./Libraries/CMSIS/NN/Source/ConvolutionFunctions/arm_convolve_HWC_q7_RGB.c ****         {
 636              		.loc 1 194 9 is_stmt 0 discriminator 2 view .LVU199
 637 0210 BDD1     		bne	.L21
 638              	.LVL51:
 639              	.L16:
 194:./Libraries/CMSIS/NN/Source/ConvolutionFunctions/arm_convolve_HWC_q7_RGB.c ****         {
 640              		.loc 1 194 9 discriminator 2 view .LVU200
 641              	.LBE44:
 225:./Libraries/CMSIS/NN/Source/ConvolutionFunctions/arm_convolve_HWC_q7_RGB.c ****         }
 226:./Libraries/CMSIS/NN/Source/ConvolutionFunctions/arm_convolve_HWC_q7_RGB.c ****     }
 227:./Libraries/CMSIS/NN/Source/ConvolutionFunctions/arm_convolve_HWC_q7_RGB.c **** #else
 228:./Libraries/CMSIS/NN/Source/ConvolutionFunctions/arm_convolve_HWC_q7_RGB.c ****     /* Run the following code as reference implementation for Cortex-M0 and Cortex-M3 */
 229:./Libraries/CMSIS/NN/Source/ConvolutionFunctions/arm_convolve_HWC_q7_RGB.c **** 
 230:./Libraries/CMSIS/NN/Source/ConvolutionFunctions/arm_convolve_HWC_q7_RGB.c ****     uint16_t  i, j, k, l, m, n;
 231:./Libraries/CMSIS/NN/Source/ConvolutionFunctions/arm_convolve_HWC_q7_RGB.c ****     int       conv_out;
 232:./Libraries/CMSIS/NN/Source/ConvolutionFunctions/arm_convolve_HWC_q7_RGB.c ****     signed char in_row, in_col;
 233:./Libraries/CMSIS/NN/Source/ConvolutionFunctions/arm_convolve_HWC_q7_RGB.c **** 
 234:./Libraries/CMSIS/NN/Source/ConvolutionFunctions/arm_convolve_HWC_q7_RGB.c ****     // check if number of input channels is 3
 235:./Libraries/CMSIS/NN/Source/ConvolutionFunctions/arm_convolve_HWC_q7_RGB.c ****     if (ch_im_in != 3)
 236:./Libraries/CMSIS/NN/Source/ConvolutionFunctions/arm_convolve_HWC_q7_RGB.c ****     {
 237:./Libraries/CMSIS/NN/Source/ConvolutionFunctions/arm_convolve_HWC_q7_RGB.c ****         return ARM_MATH_SIZE_MISMATCH;
 238:./Libraries/CMSIS/NN/Source/ConvolutionFunctions/arm_convolve_HWC_q7_RGB.c ****     }
 239:./Libraries/CMSIS/NN/Source/ConvolutionFunctions/arm_convolve_HWC_q7_RGB.c **** 
 240:./Libraries/CMSIS/NN/Source/ConvolutionFunctions/arm_convolve_HWC_q7_RGB.c ****     for (i = 0; i < ch_im_out; i++)
 241:./Libraries/CMSIS/NN/Source/ConvolutionFunctions/arm_convolve_HWC_q7_RGB.c ****     {
 242:./Libraries/CMSIS/NN/Source/ConvolutionFunctions/arm_convolve_HWC_q7_RGB.c ****         for (j = 0; j < dim_im_out; j++)
 243:./Libraries/CMSIS/NN/Source/ConvolutionFunctions/arm_convolve_HWC_q7_RGB.c ****         {
 244:./Libraries/CMSIS/NN/Source/ConvolutionFunctions/arm_convolve_HWC_q7_RGB.c ****             for (k = 0; k < dim_im_out; k++)
 245:./Libraries/CMSIS/NN/Source/ConvolutionFunctions/arm_convolve_HWC_q7_RGB.c ****             {
 246:./Libraries/CMSIS/NN/Source/ConvolutionFunctions/arm_convolve_HWC_q7_RGB.c ****                 conv_out = (bias[i] << bias_shift) + NN_ROUND(out_shift);
 247:./Libraries/CMSIS/NN/Source/ConvolutionFunctions/arm_convolve_HWC_q7_RGB.c ****                 for (m = 0; m < dim_kernel; m++)
 248:./Libraries/CMSIS/NN/Source/ConvolutionFunctions/arm_convolve_HWC_q7_RGB.c ****                 {
 249:./Libraries/CMSIS/NN/Source/ConvolutionFunctions/arm_convolve_HWC_q7_RGB.c ****                     for (n = 0; n < dim_kernel; n++)
 250:./Libraries/CMSIS/NN/Source/ConvolutionFunctions/arm_convolve_HWC_q7_RGB.c ****                     {
 251:./Libraries/CMSIS/NN/Source/ConvolutionFunctions/arm_convolve_HWC_q7_RGB.c ****                         /* if-for implementation */
 252:./Libraries/CMSIS/NN/Source/ConvolutionFunctions/arm_convolve_HWC_q7_RGB.c ****                         in_row = stride * j + m - padding;
 253:./Libraries/CMSIS/NN/Source/ConvolutionFunctions/arm_convolve_HWC_q7_RGB.c ****                         in_col = stride * k + n - padding;
 254:./Libraries/CMSIS/NN/Source/ConvolutionFunctions/arm_convolve_HWC_q7_RGB.c ****                         if (in_row >= 0 && in_col >= 0 && in_row < dim_im_in && in_col < dim_im_in)
 255:./Libraries/CMSIS/NN/Source/ConvolutionFunctions/arm_convolve_HWC_q7_RGB.c ****                         {
ARM GAS  /tmp/ccBb4BEn.s 			page 56


 256:./Libraries/CMSIS/NN/Source/ConvolutionFunctions/arm_convolve_HWC_q7_RGB.c ****                             for (l = 0; l < ch_im_in; l++)
 257:./Libraries/CMSIS/NN/Source/ConvolutionFunctions/arm_convolve_HWC_q7_RGB.c ****                             {
 258:./Libraries/CMSIS/NN/Source/ConvolutionFunctions/arm_convolve_HWC_q7_RGB.c ****                                 conv_out +=
 259:./Libraries/CMSIS/NN/Source/ConvolutionFunctions/arm_convolve_HWC_q7_RGB.c ****                                     Im_in[(in_row * dim_im_in + in_col) * ch_im_in +
 260:./Libraries/CMSIS/NN/Source/ConvolutionFunctions/arm_convolve_HWC_q7_RGB.c ****                                           l] * wt[i * ch_im_in * dim_kernel * dim_kernel + (m * dim
 261:./Libraries/CMSIS/NN/Source/ConvolutionFunctions/arm_convolve_HWC_q7_RGB.c ****                                                                                             n) * ch
 262:./Libraries/CMSIS/NN/Source/ConvolutionFunctions/arm_convolve_HWC_q7_RGB.c ****                             }
 263:./Libraries/CMSIS/NN/Source/ConvolutionFunctions/arm_convolve_HWC_q7_RGB.c ****                         }
 264:./Libraries/CMSIS/NN/Source/ConvolutionFunctions/arm_convolve_HWC_q7_RGB.c ****                     }
 265:./Libraries/CMSIS/NN/Source/ConvolutionFunctions/arm_convolve_HWC_q7_RGB.c ****                 }
 266:./Libraries/CMSIS/NN/Source/ConvolutionFunctions/arm_convolve_HWC_q7_RGB.c ****                 Im_out[i + (j * dim_im_out + k) * ch_im_out] = (q7_t) __SSAT((conv_out >> out_shift
 267:./Libraries/CMSIS/NN/Source/ConvolutionFunctions/arm_convolve_HWC_q7_RGB.c ****             }
 268:./Libraries/CMSIS/NN/Source/ConvolutionFunctions/arm_convolve_HWC_q7_RGB.c ****         }
 269:./Libraries/CMSIS/NN/Source/ConvolutionFunctions/arm_convolve_HWC_q7_RGB.c ****     }
 270:./Libraries/CMSIS/NN/Source/ConvolutionFunctions/arm_convolve_HWC_q7_RGB.c **** 
 271:./Libraries/CMSIS/NN/Source/ConvolutionFunctions/arm_convolve_HWC_q7_RGB.c **** #endif                          /* ARM_MATH_DSP */
 272:./Libraries/CMSIS/NN/Source/ConvolutionFunctions/arm_convolve_HWC_q7_RGB.c **** 
 273:./Libraries/CMSIS/NN/Source/ConvolutionFunctions/arm_convolve_HWC_q7_RGB.c ****     /* Return to application */
 274:./Libraries/CMSIS/NN/Source/ConvolutionFunctions/arm_convolve_HWC_q7_RGB.c ****     return (ARM_MATH_SUCCESS);
 642              		.loc 1 274 12 view .LVU201
 643 0212 0020     		movs	r0, #0
 644              	.L2:
 275:./Libraries/CMSIS/NN/Source/ConvolutionFunctions/arm_convolve_HWC_q7_RGB.c **** }
 645              		.loc 1 275 1 view .LVU202
 646 0214 17B0     		add	sp, sp, #92
 647              	.LCFI3:
 648              		.cfi_remember_state
 649              		.cfi_def_cfa_offset 44
 650              		@ sp needed
 651 0216 BDEC028B 		vldm	sp!, {d8}
 652              	.LCFI4:
 653              		.cfi_restore 80
 654              		.cfi_restore 81
 655              		.cfi_def_cfa_offset 36
 656 021a BDE8F08F 		pop	{r4, r5, r6, r7, r8, r9, r10, fp, pc}
 657              	.LVL52:
 658              	.L8:
 659              	.LCFI5:
 660              		.cfi_restore_state
 661              	.LBB89:
 132:./Libraries/CMSIS/NN/Source/ConvolutionFunctions/arm_convolve_HWC_q7_RGB.c ****                         q31_t     buf = *__SIMD32(pPixel);
 662              		.loc 1 132 25 is_stmt 1 view .LVU203
 133:./Libraries/CMSIS/NN/Source/ConvolutionFunctions/arm_convolve_HWC_q7_RGB.c **** 
 663              		.loc 1 133 25 view .LVU204
 135:./Libraries/CMSIS/NN/Source/ConvolutionFunctions/arm_convolve_HWC_q7_RGB.c ****                         union arm_nnword bottom;
 664              		.loc 1 135 25 view .LVU205
 136:./Libraries/CMSIS/NN/Source/ConvolutionFunctions/arm_convolve_HWC_q7_RGB.c **** 
 665              		.loc 1 136 25 view .LVU206
 138:./Libraries/CMSIS/NN/Source/ConvolutionFunctions/arm_convolve_HWC_q7_RGB.c ****                         bottom.word = __SXTB16(__ROR(buf, 8));
 666              		.loc 1 138 25 view .LVU207
 132:./Libraries/CMSIS/NN/Source/ConvolutionFunctions/arm_convolve_HWC_q7_RGB.c ****                         q31_t     buf = *__SIMD32(pPixel);
 667              		.loc 1 132 86 is_stmt 0 view .LVU208
 668 021e D444     		add	ip, ip, r10
 669              	.LVL53:
 138:./Libraries/CMSIS/NN/Source/ConvolutionFunctions/arm_convolve_HWC_q7_RGB.c ****                         bottom.word = __SXTB16(__ROR(buf, 8));
 670              		.loc 1 138 36 view .LVU209
 671 0220 0599     		ldr	r1, [sp, #20]
ARM GAS  /tmp/ccBb4BEn.s 			page 57


 133:./Libraries/CMSIS/NN/Source/ConvolutionFunctions/arm_convolve_HWC_q7_RGB.c **** 
