ARM GAS  /tmp/ccWpuuii.s 			page 1


   1              		.cpu cortex-m7
   2              		.eabi_attribute 28, 1
   3              		.eabi_attribute 20, 1
   4              		.eabi_attribute 21, 1
   5              		.eabi_attribute 23, 3
   6              		.eabi_attribute 24, 1
   7              		.eabi_attribute 25, 1
   8              		.eabi_attribute 26, 1
   9              		.eabi_attribute 30, 2
  10              		.eabi_attribute 34, 1
  11              		.eabi_attribute 18, 4
  12              		.file	"arm_cfft_radix4_f32.c"
  13              		.text
  14              	.Ltext0:
  15              		.cfi_sections	.debug_frame
  16              		.section	.text.arm_radix4_butterfly_f32,"ax",%progbits
  17              		.align	1
  18              		.p2align 2,,3
  19              		.global	arm_radix4_butterfly_f32
  20              		.arch armv7e-m
  21              		.syntax unified
  22              		.thumb
  23              		.thumb_func
  24              		.fpu fpv5-d16
  26              	arm_radix4_butterfly_f32:
  27              	.LVL0:
  28              	.LFB146:
  29              		.file 1 "./Libraries/CMSIS/DSP/Source/TransformFunctions/arm_cfft_radix4_f32.c"
   1:./Libraries/CMSIS/DSP/Source/TransformFunctions/arm_cfft_radix4_f32.c **** /* ----------------------------------------------------------------------
   2:./Libraries/CMSIS/DSP/Source/TransformFunctions/arm_cfft_radix4_f32.c ****  * Project:      CMSIS DSP Library
   3:./Libraries/CMSIS/DSP/Source/TransformFunctions/arm_cfft_radix4_f32.c ****  * Title:        arm_cfft_radix4_f32.c
   4:./Libraries/CMSIS/DSP/Source/TransformFunctions/arm_cfft_radix4_f32.c ****  * Description:  Radix-4 Decimation in Frequency CFFT & CIFFT Floating point processing function
   5:./Libraries/CMSIS/DSP/Source/TransformFunctions/arm_cfft_radix4_f32.c ****  *
   6:./Libraries/CMSIS/DSP/Source/TransformFunctions/arm_cfft_radix4_f32.c ****  * $Date:        18. March 2019
   7:./Libraries/CMSIS/DSP/Source/TransformFunctions/arm_cfft_radix4_f32.c ****  * $Revision:    V1.6.0
   8:./Libraries/CMSIS/DSP/Source/TransformFunctions/arm_cfft_radix4_f32.c ****  *
   9:./Libraries/CMSIS/DSP/Source/TransformFunctions/arm_cfft_radix4_f32.c ****  * Target Processor: Cortex-M cores
  10:./Libraries/CMSIS/DSP/Source/TransformFunctions/arm_cfft_radix4_f32.c ****  * -------------------------------------------------------------------- */
  11:./Libraries/CMSIS/DSP/Source/TransformFunctions/arm_cfft_radix4_f32.c **** /*
  12:./Libraries/CMSIS/DSP/Source/TransformFunctions/arm_cfft_radix4_f32.c ****  * Copyright (C) 2010-2019 ARM Limited or its affiliates. All rights reserved.
  13:./Libraries/CMSIS/DSP/Source/TransformFunctions/arm_cfft_radix4_f32.c ****  *
  14:./Libraries/CMSIS/DSP/Source/TransformFunctions/arm_cfft_radix4_f32.c ****  * SPDX-License-Identifier: Apache-2.0
  15:./Libraries/CMSIS/DSP/Source/TransformFunctions/arm_cfft_radix4_f32.c ****  *
  16:./Libraries/CMSIS/DSP/Source/TransformFunctions/arm_cfft_radix4_f32.c ****  * Licensed under the Apache License, Version 2.0 (the License); you may
  17:./Libraries/CMSIS/DSP/Source/TransformFunctions/arm_cfft_radix4_f32.c ****  * not use this file except in compliance with the License.
  18:./Libraries/CMSIS/DSP/Source/TransformFunctions/arm_cfft_radix4_f32.c ****  * You may obtain a copy of the License at
  19:./Libraries/CMSIS/DSP/Source/TransformFunctions/arm_cfft_radix4_f32.c ****  *
  20:./Libraries/CMSIS/DSP/Source/TransformFunctions/arm_cfft_radix4_f32.c ****  * www.apache.org/licenses/LICENSE-2.0
  21:./Libraries/CMSIS/DSP/Source/TransformFunctions/arm_cfft_radix4_f32.c ****  *
  22:./Libraries/CMSIS/DSP/Source/TransformFunctions/arm_cfft_radix4_f32.c ****  * Unless required by applicable law or agreed to in writing, software
  23:./Libraries/CMSIS/DSP/Source/TransformFunctions/arm_cfft_radix4_f32.c ****  * distributed under the License is distributed on an AS IS BASIS, WITHOUT
  24:./Libraries/CMSIS/DSP/Source/TransformFunctions/arm_cfft_radix4_f32.c ****  * WARRANTIES OR CONDITIONS OF ANY KIND, either express or implied.
  25:./Libraries/CMSIS/DSP/Source/TransformFunctions/arm_cfft_radix4_f32.c ****  * See the License for the specific language governing permissions and
  26:./Libraries/CMSIS/DSP/Source/TransformFunctions/arm_cfft_radix4_f32.c ****  * limitations under the License.
  27:./Libraries/CMSIS/DSP/Source/TransformFunctions/arm_cfft_radix4_f32.c ****  */
  28:./Libraries/CMSIS/DSP/Source/TransformFunctions/arm_cfft_radix4_f32.c **** 
  29:./Libraries/CMSIS/DSP/Source/TransformFunctions/arm_cfft_radix4_f32.c **** #include "arm_math.h"
ARM GAS  /tmp/ccWpuuii.s 			page 2


  30:./Libraries/CMSIS/DSP/Source/TransformFunctions/arm_cfft_radix4_f32.c **** 
  31:./Libraries/CMSIS/DSP/Source/TransformFunctions/arm_cfft_radix4_f32.c **** extern void arm_bitreversal_f32(
  32:./Libraries/CMSIS/DSP/Source/TransformFunctions/arm_cfft_radix4_f32.c ****         float32_t * pSrc,
  33:./Libraries/CMSIS/DSP/Source/TransformFunctions/arm_cfft_radix4_f32.c ****         uint16_t fftSize,
  34:./Libraries/CMSIS/DSP/Source/TransformFunctions/arm_cfft_radix4_f32.c ****         uint16_t bitRevFactor,
  35:./Libraries/CMSIS/DSP/Source/TransformFunctions/arm_cfft_radix4_f32.c ****   const uint16_t * pBitRevTab);
  36:./Libraries/CMSIS/DSP/Source/TransformFunctions/arm_cfft_radix4_f32.c **** 
  37:./Libraries/CMSIS/DSP/Source/TransformFunctions/arm_cfft_radix4_f32.c **** void arm_radix4_butterfly_f32(
  38:./Libraries/CMSIS/DSP/Source/TransformFunctions/arm_cfft_radix4_f32.c ****         float32_t * pSrc,
  39:./Libraries/CMSIS/DSP/Source/TransformFunctions/arm_cfft_radix4_f32.c ****         uint16_t fftLen,
  40:./Libraries/CMSIS/DSP/Source/TransformFunctions/arm_cfft_radix4_f32.c ****   const float32_t * pCoef,
  41:./Libraries/CMSIS/DSP/Source/TransformFunctions/arm_cfft_radix4_f32.c ****         uint16_t twidCoefModifier);
  42:./Libraries/CMSIS/DSP/Source/TransformFunctions/arm_cfft_radix4_f32.c **** 
  43:./Libraries/CMSIS/DSP/Source/TransformFunctions/arm_cfft_radix4_f32.c **** void arm_radix4_butterfly_inverse_f32(
  44:./Libraries/CMSIS/DSP/Source/TransformFunctions/arm_cfft_radix4_f32.c ****         float32_t * pSrc,
  45:./Libraries/CMSIS/DSP/Source/TransformFunctions/arm_cfft_radix4_f32.c ****         uint16_t fftLen,
  46:./Libraries/CMSIS/DSP/Source/TransformFunctions/arm_cfft_radix4_f32.c ****   const float32_t * pCoef,
  47:./Libraries/CMSIS/DSP/Source/TransformFunctions/arm_cfft_radix4_f32.c ****         uint16_t twidCoefModifier,
  48:./Libraries/CMSIS/DSP/Source/TransformFunctions/arm_cfft_radix4_f32.c ****         float32_t onebyfftLen);
  49:./Libraries/CMSIS/DSP/Source/TransformFunctions/arm_cfft_radix4_f32.c **** 
  50:./Libraries/CMSIS/DSP/Source/TransformFunctions/arm_cfft_radix4_f32.c **** 
  51:./Libraries/CMSIS/DSP/Source/TransformFunctions/arm_cfft_radix4_f32.c **** /**
  52:./Libraries/CMSIS/DSP/Source/TransformFunctions/arm_cfft_radix4_f32.c ****   @ingroup groupTransforms
  53:./Libraries/CMSIS/DSP/Source/TransformFunctions/arm_cfft_radix4_f32.c ****  */
  54:./Libraries/CMSIS/DSP/Source/TransformFunctions/arm_cfft_radix4_f32.c **** 
  55:./Libraries/CMSIS/DSP/Source/TransformFunctions/arm_cfft_radix4_f32.c **** /**
  56:./Libraries/CMSIS/DSP/Source/TransformFunctions/arm_cfft_radix4_f32.c ****   @addtogroup ComplexFFT
  57:./Libraries/CMSIS/DSP/Source/TransformFunctions/arm_cfft_radix4_f32.c ****   @{
  58:./Libraries/CMSIS/DSP/Source/TransformFunctions/arm_cfft_radix4_f32.c ****  */
  59:./Libraries/CMSIS/DSP/Source/TransformFunctions/arm_cfft_radix4_f32.c **** 
  60:./Libraries/CMSIS/DSP/Source/TransformFunctions/arm_cfft_radix4_f32.c **** /**
  61:./Libraries/CMSIS/DSP/Source/TransformFunctions/arm_cfft_radix4_f32.c ****   @brief         Processing function for the floating-point Radix-4 CFFT/CIFFT.
  62:./Libraries/CMSIS/DSP/Source/TransformFunctions/arm_cfft_radix4_f32.c ****   @deprecated    Do not use this function. It has been superseded by \ref arm_cfft_f32 and will be 
  63:./Libraries/CMSIS/DSP/Source/TransformFunctions/arm_cfft_radix4_f32.c ****   @param[in]     S    points to an instance of the floating-point Radix-4 CFFT/CIFFT structure
  64:./Libraries/CMSIS/DSP/Source/TransformFunctions/arm_cfft_radix4_f32.c ****   @param[in,out] pSrc points to the complex data buffer of size <code>2*fftLen</code>. Processing o
  65:./Libraries/CMSIS/DSP/Source/TransformFunctions/arm_cfft_radix4_f32.c ****   @return        none
  66:./Libraries/CMSIS/DSP/Source/TransformFunctions/arm_cfft_radix4_f32.c ****  */
  67:./Libraries/CMSIS/DSP/Source/TransformFunctions/arm_cfft_radix4_f32.c **** 
  68:./Libraries/CMSIS/DSP/Source/TransformFunctions/arm_cfft_radix4_f32.c **** void arm_cfft_radix4_f32(
  69:./Libraries/CMSIS/DSP/Source/TransformFunctions/arm_cfft_radix4_f32.c ****   const arm_cfft_radix4_instance_f32 * S,
  70:./Libraries/CMSIS/DSP/Source/TransformFunctions/arm_cfft_radix4_f32.c ****         float32_t * pSrc)
  71:./Libraries/CMSIS/DSP/Source/TransformFunctions/arm_cfft_radix4_f32.c **** {
  72:./Libraries/CMSIS/DSP/Source/TransformFunctions/arm_cfft_radix4_f32.c ****    if (S->ifftFlag == 1U)
  73:./Libraries/CMSIS/DSP/Source/TransformFunctions/arm_cfft_radix4_f32.c ****    {
  74:./Libraries/CMSIS/DSP/Source/TransformFunctions/arm_cfft_radix4_f32.c ****       /*  Complex IFFT radix-4  */
  75:./Libraries/CMSIS/DSP/Source/TransformFunctions/arm_cfft_radix4_f32.c ****       arm_radix4_butterfly_inverse_f32(pSrc, S->fftLen, S->pTwiddle, S->twidCoefModifier, S->onebyf
  76:./Libraries/CMSIS/DSP/Source/TransformFunctions/arm_cfft_radix4_f32.c ****    }
  77:./Libraries/CMSIS/DSP/Source/TransformFunctions/arm_cfft_radix4_f32.c ****    else
  78:./Libraries/CMSIS/DSP/Source/TransformFunctions/arm_cfft_radix4_f32.c ****    {
  79:./Libraries/CMSIS/DSP/Source/TransformFunctions/arm_cfft_radix4_f32.c ****       /*  Complex FFT radix-4  */
  80:./Libraries/CMSIS/DSP/Source/TransformFunctions/arm_cfft_radix4_f32.c ****       arm_radix4_butterfly_f32(pSrc, S->fftLen, S->pTwiddle, S->twidCoefModifier);
  81:./Libraries/CMSIS/DSP/Source/TransformFunctions/arm_cfft_radix4_f32.c ****    }
  82:./Libraries/CMSIS/DSP/Source/TransformFunctions/arm_cfft_radix4_f32.c **** 
  83:./Libraries/CMSIS/DSP/Source/TransformFunctions/arm_cfft_radix4_f32.c ****    if (S->bitReverseFlag == 1U)
  84:./Libraries/CMSIS/DSP/Source/TransformFunctions/arm_cfft_radix4_f32.c ****    {
  85:./Libraries/CMSIS/DSP/Source/TransformFunctions/arm_cfft_radix4_f32.c ****       /*  Bit Reversal */
  86:./Libraries/CMSIS/DSP/Source/TransformFunctions/arm_cfft_radix4_f32.c ****       arm_bitreversal_f32(pSrc, S->fftLen, S->bitRevFactor, S->pBitRevTable);
ARM GAS  /tmp/ccWpuuii.s 			page 3


  87:./Libraries/CMSIS/DSP/Source/TransformFunctions/arm_cfft_radix4_f32.c ****    }
  88:./Libraries/CMSIS/DSP/Source/TransformFunctions/arm_cfft_radix4_f32.c **** 
  89:./Libraries/CMSIS/DSP/Source/TransformFunctions/arm_cfft_radix4_f32.c **** }
  90:./Libraries/CMSIS/DSP/Source/TransformFunctions/arm_cfft_radix4_f32.c **** 
  91:./Libraries/CMSIS/DSP/Source/TransformFunctions/arm_cfft_radix4_f32.c **** /**
  92:./Libraries/CMSIS/DSP/Source/TransformFunctions/arm_cfft_radix4_f32.c ****   @} end of ComplexFFT group
  93:./Libraries/CMSIS/DSP/Source/TransformFunctions/arm_cfft_radix4_f32.c ****  */
  94:./Libraries/CMSIS/DSP/Source/TransformFunctions/arm_cfft_radix4_f32.c **** 
  95:./Libraries/CMSIS/DSP/Source/TransformFunctions/arm_cfft_radix4_f32.c **** /* ----------------------------------------------------------------------
  96:./Libraries/CMSIS/DSP/Source/TransformFunctions/arm_cfft_radix4_f32.c ****  * Internal helper function used by the FFTs
  97:./Libraries/CMSIS/DSP/Source/TransformFunctions/arm_cfft_radix4_f32.c ****  * ---------------------------------------------------------------------- */
  98:./Libraries/CMSIS/DSP/Source/TransformFunctions/arm_cfft_radix4_f32.c **** 
  99:./Libraries/CMSIS/DSP/Source/TransformFunctions/arm_cfft_radix4_f32.c **** /**
 100:./Libraries/CMSIS/DSP/Source/TransformFunctions/arm_cfft_radix4_f32.c ****   brief         Core function for the floating-point CFFT butterfly process.
 101:./Libraries/CMSIS/DSP/Source/TransformFunctions/arm_cfft_radix4_f32.c ****   param[in,out] pSrc             points to the in-place buffer of floating-point data type
 102:./Libraries/CMSIS/DSP/Source/TransformFunctions/arm_cfft_radix4_f32.c ****   param[in]     fftLen           length of the FFT
 103:./Libraries/CMSIS/DSP/Source/TransformFunctions/arm_cfft_radix4_f32.c ****   param[in]     pCoef            points to the twiddle coefficient buffer
 104:./Libraries/CMSIS/DSP/Source/TransformFunctions/arm_cfft_radix4_f32.c ****   param[in]     twidCoefModifier twiddle coefficient modifier that supports different size FFTs wit
 105:./Libraries/CMSIS/DSP/Source/TransformFunctions/arm_cfft_radix4_f32.c ****   return        none
 106:./Libraries/CMSIS/DSP/Source/TransformFunctions/arm_cfft_radix4_f32.c ****  */
 107:./Libraries/CMSIS/DSP/Source/TransformFunctions/arm_cfft_radix4_f32.c **** 
 108:./Libraries/CMSIS/DSP/Source/TransformFunctions/arm_cfft_radix4_f32.c **** void arm_radix4_butterfly_f32(
 109:./Libraries/CMSIS/DSP/Source/TransformFunctions/arm_cfft_radix4_f32.c ****         float32_t * pSrc,
 110:./Libraries/CMSIS/DSP/Source/TransformFunctions/arm_cfft_radix4_f32.c ****         uint16_t fftLen,
 111:./Libraries/CMSIS/DSP/Source/TransformFunctions/arm_cfft_radix4_f32.c ****   const float32_t * pCoef,
 112:./Libraries/CMSIS/DSP/Source/TransformFunctions/arm_cfft_radix4_f32.c ****         uint16_t twidCoefModifier)
 113:./Libraries/CMSIS/DSP/Source/TransformFunctions/arm_cfft_radix4_f32.c **** {
  30              		.loc 1 113 1 view -0
  31              		.cfi_startproc
  32              		@ args = 0, pretend = 0, frame = 40
  33              		@ frame_needed = 0, uses_anonymous_args = 0
 114:./Libraries/CMSIS/DSP/Source/TransformFunctions/arm_cfft_radix4_f32.c ****         float32_t co1, co2, co3, si1, si2, si3;
  34              		.loc 1 114 9 view .LVU1
 115:./Libraries/CMSIS/DSP/Source/TransformFunctions/arm_cfft_radix4_f32.c ****         uint32_t ia1, ia2, ia3;
  35              		.loc 1 115 9 view .LVU2
 116:./Libraries/CMSIS/DSP/Source/TransformFunctions/arm_cfft_radix4_f32.c ****         uint32_t i0, i1, i2, i3;
  36              		.loc 1 116 9 view .LVU3
 117:./Libraries/CMSIS/DSP/Source/TransformFunctions/arm_cfft_radix4_f32.c ****         uint32_t n1, n2, j, k;
  37              		.loc 1 117 9 view .LVU4
 118:./Libraries/CMSIS/DSP/Source/TransformFunctions/arm_cfft_radix4_f32.c **** 
 119:./Libraries/CMSIS/DSP/Source/TransformFunctions/arm_cfft_radix4_f32.c **** #if defined (ARM_MATH_LOOPUNROLL)
 120:./Libraries/CMSIS/DSP/Source/TransformFunctions/arm_cfft_radix4_f32.c **** 
 121:./Libraries/CMSIS/DSP/Source/TransformFunctions/arm_cfft_radix4_f32.c ****         float32_t xaIn, yaIn, xbIn, ybIn, xcIn, ycIn, xdIn, ydIn;
 122:./Libraries/CMSIS/DSP/Source/TransformFunctions/arm_cfft_radix4_f32.c ****         float32_t Xaplusc, Xbplusd, Yaplusc, Ybplusd, Xaminusc, Xbminusd, Yaminusc,
 123:./Libraries/CMSIS/DSP/Source/TransformFunctions/arm_cfft_radix4_f32.c ****         Ybminusd;
 124:./Libraries/CMSIS/DSP/Source/TransformFunctions/arm_cfft_radix4_f32.c ****         float32_t Xb12C_out, Yb12C_out, Xc12C_out, Yc12C_out, Xd12C_out, Yd12C_out;
 125:./Libraries/CMSIS/DSP/Source/TransformFunctions/arm_cfft_radix4_f32.c ****         float32_t Xb12_out, Yb12_out, Xc12_out, Yc12_out, Xd12_out, Yd12_out;
 126:./Libraries/CMSIS/DSP/Source/TransformFunctions/arm_cfft_radix4_f32.c ****         float32_t *ptr1;
 127:./Libraries/CMSIS/DSP/Source/TransformFunctions/arm_cfft_radix4_f32.c ****         float32_t p0,p1,p2,p3,p4,p5;
 128:./Libraries/CMSIS/DSP/Source/TransformFunctions/arm_cfft_radix4_f32.c ****         float32_t a0,a1,a2,a3,a4,a5,a6,a7;
 129:./Libraries/CMSIS/DSP/Source/TransformFunctions/arm_cfft_radix4_f32.c **** 
 130:./Libraries/CMSIS/DSP/Source/TransformFunctions/arm_cfft_radix4_f32.c ****    /*  Initializations for the first stage */
 131:./Libraries/CMSIS/DSP/Source/TransformFunctions/arm_cfft_radix4_f32.c ****    n2 = fftLen;
 132:./Libraries/CMSIS/DSP/Source/TransformFunctions/arm_cfft_radix4_f32.c ****    n1 = n2;
 133:./Libraries/CMSIS/DSP/Source/TransformFunctions/arm_cfft_radix4_f32.c **** 
 134:./Libraries/CMSIS/DSP/Source/TransformFunctions/arm_cfft_radix4_f32.c ****    /* n2 = fftLen/4 */
 135:./Libraries/CMSIS/DSP/Source/TransformFunctions/arm_cfft_radix4_f32.c ****    n2 >>= 2U;
ARM GAS  /tmp/ccWpuuii.s 			page 4


 136:./Libraries/CMSIS/DSP/Source/TransformFunctions/arm_cfft_radix4_f32.c ****    i0 = 0U;
 137:./Libraries/CMSIS/DSP/Source/TransformFunctions/arm_cfft_radix4_f32.c ****    ia1 = 0U;
 138:./Libraries/CMSIS/DSP/Source/TransformFunctions/arm_cfft_radix4_f32.c **** 
 139:./Libraries/CMSIS/DSP/Source/TransformFunctions/arm_cfft_radix4_f32.c ****    j = n2;
 140:./Libraries/CMSIS/DSP/Source/TransformFunctions/arm_cfft_radix4_f32.c **** 
 141:./Libraries/CMSIS/DSP/Source/TransformFunctions/arm_cfft_radix4_f32.c ****    /*  Calculation of first stage */
 142:./Libraries/CMSIS/DSP/Source/TransformFunctions/arm_cfft_radix4_f32.c ****    do
 143:./Libraries/CMSIS/DSP/Source/TransformFunctions/arm_cfft_radix4_f32.c ****    {
 144:./Libraries/CMSIS/DSP/Source/TransformFunctions/arm_cfft_radix4_f32.c ****       /*  index calculation for the input as, */
 145:./Libraries/CMSIS/DSP/Source/TransformFunctions/arm_cfft_radix4_f32.c ****       /*  pSrc[i0 + 0], pSrc[i0 + fftLen/4], pSrc[i0 + fftLen/2], pSrc[i0 + 3fftLen/4] */
 146:./Libraries/CMSIS/DSP/Source/TransformFunctions/arm_cfft_radix4_f32.c ****       i1 = i0 + n2;
 147:./Libraries/CMSIS/DSP/Source/TransformFunctions/arm_cfft_radix4_f32.c ****       i2 = i1 + n2;
 148:./Libraries/CMSIS/DSP/Source/TransformFunctions/arm_cfft_radix4_f32.c ****       i3 = i2 + n2;
 149:./Libraries/CMSIS/DSP/Source/TransformFunctions/arm_cfft_radix4_f32.c **** 
 150:./Libraries/CMSIS/DSP/Source/TransformFunctions/arm_cfft_radix4_f32.c ****       xaIn = pSrc[(2U * i0)];
 151:./Libraries/CMSIS/DSP/Source/TransformFunctions/arm_cfft_radix4_f32.c ****       yaIn = pSrc[(2U * i0) + 1U];
 152:./Libraries/CMSIS/DSP/Source/TransformFunctions/arm_cfft_radix4_f32.c **** 
 153:./Libraries/CMSIS/DSP/Source/TransformFunctions/arm_cfft_radix4_f32.c ****       xbIn = pSrc[(2U * i1)];
 154:./Libraries/CMSIS/DSP/Source/TransformFunctions/arm_cfft_radix4_f32.c ****       ybIn = pSrc[(2U * i1) + 1U];
 155:./Libraries/CMSIS/DSP/Source/TransformFunctions/arm_cfft_radix4_f32.c **** 
 156:./Libraries/CMSIS/DSP/Source/TransformFunctions/arm_cfft_radix4_f32.c ****       xcIn = pSrc[(2U * i2)];
 157:./Libraries/CMSIS/DSP/Source/TransformFunctions/arm_cfft_radix4_f32.c ****       ycIn = pSrc[(2U * i2) + 1U];
 158:./Libraries/CMSIS/DSP/Source/TransformFunctions/arm_cfft_radix4_f32.c **** 
 159:./Libraries/CMSIS/DSP/Source/TransformFunctions/arm_cfft_radix4_f32.c ****       xdIn = pSrc[(2U * i3)];
 160:./Libraries/CMSIS/DSP/Source/TransformFunctions/arm_cfft_radix4_f32.c ****       ydIn = pSrc[(2U * i3) + 1U];
 161:./Libraries/CMSIS/DSP/Source/TransformFunctions/arm_cfft_radix4_f32.c **** 
 162:./Libraries/CMSIS/DSP/Source/TransformFunctions/arm_cfft_radix4_f32.c ****       /* xa + xc */
 163:./Libraries/CMSIS/DSP/Source/TransformFunctions/arm_cfft_radix4_f32.c ****       Xaplusc = xaIn + xcIn;
 164:./Libraries/CMSIS/DSP/Source/TransformFunctions/arm_cfft_radix4_f32.c ****       /* xb + xd */
 165:./Libraries/CMSIS/DSP/Source/TransformFunctions/arm_cfft_radix4_f32.c ****       Xbplusd = xbIn + xdIn;
 166:./Libraries/CMSIS/DSP/Source/TransformFunctions/arm_cfft_radix4_f32.c ****       /* ya + yc */
 167:./Libraries/CMSIS/DSP/Source/TransformFunctions/arm_cfft_radix4_f32.c ****       Yaplusc = yaIn + ycIn;
 168:./Libraries/CMSIS/DSP/Source/TransformFunctions/arm_cfft_radix4_f32.c ****       /* yb + yd */
 169:./Libraries/CMSIS/DSP/Source/TransformFunctions/arm_cfft_radix4_f32.c ****       Ybplusd = ybIn + ydIn;
 170:./Libraries/CMSIS/DSP/Source/TransformFunctions/arm_cfft_radix4_f32.c **** 
 171:./Libraries/CMSIS/DSP/Source/TransformFunctions/arm_cfft_radix4_f32.c ****       /*  index calculation for the coefficients */
 172:./Libraries/CMSIS/DSP/Source/TransformFunctions/arm_cfft_radix4_f32.c ****       ia2 = ia1 + ia1;
 173:./Libraries/CMSIS/DSP/Source/TransformFunctions/arm_cfft_radix4_f32.c ****       co2 = pCoef[ia2 * 2U];
 174:./Libraries/CMSIS/DSP/Source/TransformFunctions/arm_cfft_radix4_f32.c ****       si2 = pCoef[(ia2 * 2U) + 1U];
 175:./Libraries/CMSIS/DSP/Source/TransformFunctions/arm_cfft_radix4_f32.c **** 
 176:./Libraries/CMSIS/DSP/Source/TransformFunctions/arm_cfft_radix4_f32.c ****       /* xa - xc */
 177:./Libraries/CMSIS/DSP/Source/TransformFunctions/arm_cfft_radix4_f32.c ****       Xaminusc = xaIn - xcIn;
 178:./Libraries/CMSIS/DSP/Source/TransformFunctions/arm_cfft_radix4_f32.c ****       /* xb - xd */
 179:./Libraries/CMSIS/DSP/Source/TransformFunctions/arm_cfft_radix4_f32.c ****       Xbminusd = xbIn - xdIn;
 180:./Libraries/CMSIS/DSP/Source/TransformFunctions/arm_cfft_radix4_f32.c ****       /* ya - yc */
 181:./Libraries/CMSIS/DSP/Source/TransformFunctions/arm_cfft_radix4_f32.c ****       Yaminusc = yaIn - ycIn;
 182:./Libraries/CMSIS/DSP/Source/TransformFunctions/arm_cfft_radix4_f32.c ****       /* yb - yd */
 183:./Libraries/CMSIS/DSP/Source/TransformFunctions/arm_cfft_radix4_f32.c ****       Ybminusd = ybIn - ydIn;
 184:./Libraries/CMSIS/DSP/Source/TransformFunctions/arm_cfft_radix4_f32.c **** 
 185:./Libraries/CMSIS/DSP/Source/TransformFunctions/arm_cfft_radix4_f32.c ****       /* xa' = xa + xb + xc + xd */
 186:./Libraries/CMSIS/DSP/Source/TransformFunctions/arm_cfft_radix4_f32.c ****       pSrc[(2U * i0)] = Xaplusc + Xbplusd;
 187:./Libraries/CMSIS/DSP/Source/TransformFunctions/arm_cfft_radix4_f32.c ****       /* ya' = ya + yb + yc + yd */
 188:./Libraries/CMSIS/DSP/Source/TransformFunctions/arm_cfft_radix4_f32.c ****       pSrc[(2U * i0) + 1U] = Yaplusc + Ybplusd;
 189:./Libraries/CMSIS/DSP/Source/TransformFunctions/arm_cfft_radix4_f32.c **** 
 190:./Libraries/CMSIS/DSP/Source/TransformFunctions/arm_cfft_radix4_f32.c ****       /* (xa - xc) + (yb - yd) */
 191:./Libraries/CMSIS/DSP/Source/TransformFunctions/arm_cfft_radix4_f32.c ****       Xb12C_out = (Xaminusc + Ybminusd);
 192:./Libraries/CMSIS/DSP/Source/TransformFunctions/arm_cfft_radix4_f32.c ****       /* (ya - yc) + (xb - xd) */
ARM GAS  /tmp/ccWpuuii.s 			page 5


 193:./Libraries/CMSIS/DSP/Source/TransformFunctions/arm_cfft_radix4_f32.c ****       Yb12C_out = (Yaminusc - Xbminusd);
 194:./Libraries/CMSIS/DSP/Source/TransformFunctions/arm_cfft_radix4_f32.c ****       /* (xa + xc) - (xb + xd) */
 195:./Libraries/CMSIS/DSP/Source/TransformFunctions/arm_cfft_radix4_f32.c ****       Xc12C_out = (Xaplusc - Xbplusd);
 196:./Libraries/CMSIS/DSP/Source/TransformFunctions/arm_cfft_radix4_f32.c ****       /* (ya + yc) - (yb + yd) */
 197:./Libraries/CMSIS/DSP/Source/TransformFunctions/arm_cfft_radix4_f32.c ****       Yc12C_out = (Yaplusc - Ybplusd);
 198:./Libraries/CMSIS/DSP/Source/TransformFunctions/arm_cfft_radix4_f32.c ****       /* (xa - xc) - (yb - yd) */
 199:./Libraries/CMSIS/DSP/Source/TransformFunctions/arm_cfft_radix4_f32.c ****       Xd12C_out = (Xaminusc - Ybminusd);
 200:./Libraries/CMSIS/DSP/Source/TransformFunctions/arm_cfft_radix4_f32.c ****       /* (ya - yc) + (xb - xd) */
 201:./Libraries/CMSIS/DSP/Source/TransformFunctions/arm_cfft_radix4_f32.c ****       Yd12C_out = (Xbminusd + Yaminusc);
 202:./Libraries/CMSIS/DSP/Source/TransformFunctions/arm_cfft_radix4_f32.c **** 
 203:./Libraries/CMSIS/DSP/Source/TransformFunctions/arm_cfft_radix4_f32.c ****       co1 = pCoef[ia1 * 2U];
 204:./Libraries/CMSIS/DSP/Source/TransformFunctions/arm_cfft_radix4_f32.c ****       si1 = pCoef[(ia1 * 2U) + 1U];
 205:./Libraries/CMSIS/DSP/Source/TransformFunctions/arm_cfft_radix4_f32.c **** 
 206:./Libraries/CMSIS/DSP/Source/TransformFunctions/arm_cfft_radix4_f32.c ****       /*  index calculation for the coefficients */
 207:./Libraries/CMSIS/DSP/Source/TransformFunctions/arm_cfft_radix4_f32.c ****       ia3 = ia2 + ia1;
 208:./Libraries/CMSIS/DSP/Source/TransformFunctions/arm_cfft_radix4_f32.c ****       co3 = pCoef[ia3 * 2U];
 209:./Libraries/CMSIS/DSP/Source/TransformFunctions/arm_cfft_radix4_f32.c ****       si3 = pCoef[(ia3 * 2U) + 1U];
 210:./Libraries/CMSIS/DSP/Source/TransformFunctions/arm_cfft_radix4_f32.c **** 
 211:./Libraries/CMSIS/DSP/Source/TransformFunctions/arm_cfft_radix4_f32.c ****       Xb12_out = Xb12C_out * co1;
 212:./Libraries/CMSIS/DSP/Source/TransformFunctions/arm_cfft_radix4_f32.c ****       Yb12_out = Yb12C_out * co1;
 213:./Libraries/CMSIS/DSP/Source/TransformFunctions/arm_cfft_radix4_f32.c ****       Xc12_out = Xc12C_out * co2;
 214:./Libraries/CMSIS/DSP/Source/TransformFunctions/arm_cfft_radix4_f32.c ****       Yc12_out = Yc12C_out * co2;
 215:./Libraries/CMSIS/DSP/Source/TransformFunctions/arm_cfft_radix4_f32.c ****       Xd12_out = Xd12C_out * co3;
 216:./Libraries/CMSIS/DSP/Source/TransformFunctions/arm_cfft_radix4_f32.c ****       Yd12_out = Yd12C_out * co3;
 217:./Libraries/CMSIS/DSP/Source/TransformFunctions/arm_cfft_radix4_f32.c **** 
 218:./Libraries/CMSIS/DSP/Source/TransformFunctions/arm_cfft_radix4_f32.c ****       /* xb' = (xa+yb-xc-yd)co1 - (ya-xb-yc+xd)(si1) */
 219:./Libraries/CMSIS/DSP/Source/TransformFunctions/arm_cfft_radix4_f32.c ****       //Xb12_out -= Yb12C_out * si1;
 220:./Libraries/CMSIS/DSP/Source/TransformFunctions/arm_cfft_radix4_f32.c ****       p0 = Yb12C_out * si1;
 221:./Libraries/CMSIS/DSP/Source/TransformFunctions/arm_cfft_radix4_f32.c ****       /* yb' = (ya-xb-yc+xd)co1 + (xa+yb-xc-yd)(si1) */
 222:./Libraries/CMSIS/DSP/Source/TransformFunctions/arm_cfft_radix4_f32.c ****       //Yb12_out += Xb12C_out * si1;
 223:./Libraries/CMSIS/DSP/Source/TransformFunctions/arm_cfft_radix4_f32.c ****       p1 = Xb12C_out * si1;
 224:./Libraries/CMSIS/DSP/Source/TransformFunctions/arm_cfft_radix4_f32.c ****       /* xc' = (xa-xb+xc-xd)co2 - (ya-yb+yc-yd)(si2) */
 225:./Libraries/CMSIS/DSP/Source/TransformFunctions/arm_cfft_radix4_f32.c ****       //Xc12_out -= Yc12C_out * si2;
 226:./Libraries/CMSIS/DSP/Source/TransformFunctions/arm_cfft_radix4_f32.c ****       p2 = Yc12C_out * si2;
 227:./Libraries/CMSIS/DSP/Source/TransformFunctions/arm_cfft_radix4_f32.c ****       /* yc' = (ya-yb+yc-yd)co2 + (xa-xb+xc-xd)(si2) */
 228:./Libraries/CMSIS/DSP/Source/TransformFunctions/arm_cfft_radix4_f32.c ****       //Yc12_out += Xc12C_out * si2;
 229:./Libraries/CMSIS/DSP/Source/TransformFunctions/arm_cfft_radix4_f32.c ****       p3 = Xc12C_out * si2;
 230:./Libraries/CMSIS/DSP/Source/TransformFunctions/arm_cfft_radix4_f32.c ****       /* xd' = (xa-yb-xc+yd)co3 - (ya+xb-yc-xd)(si3) */
 231:./Libraries/CMSIS/DSP/Source/TransformFunctions/arm_cfft_radix4_f32.c ****       //Xd12_out -= Yd12C_out * si3;
 232:./Libraries/CMSIS/DSP/Source/TransformFunctions/arm_cfft_radix4_f32.c ****       p4 = Yd12C_out * si3;
 233:./Libraries/CMSIS/DSP/Source/TransformFunctions/arm_cfft_radix4_f32.c ****       /* yd' = (ya+xb-yc-xd)co3 + (xa-yb-xc+yd)(si3) */
 234:./Libraries/CMSIS/DSP/Source/TransformFunctions/arm_cfft_radix4_f32.c ****       //Yd12_out += Xd12C_out * si3;
 235:./Libraries/CMSIS/DSP/Source/TransformFunctions/arm_cfft_radix4_f32.c ****       p5 = Xd12C_out * si3;
 236:./Libraries/CMSIS/DSP/Source/TransformFunctions/arm_cfft_radix4_f32.c **** 
 237:./Libraries/CMSIS/DSP/Source/TransformFunctions/arm_cfft_radix4_f32.c ****       Xb12_out += p0;
 238:./Libraries/CMSIS/DSP/Source/TransformFunctions/arm_cfft_radix4_f32.c ****       Yb12_out -= p1;
 239:./Libraries/CMSIS/DSP/Source/TransformFunctions/arm_cfft_radix4_f32.c ****       Xc12_out += p2;
 240:./Libraries/CMSIS/DSP/Source/TransformFunctions/arm_cfft_radix4_f32.c ****       Yc12_out -= p3;
 241:./Libraries/CMSIS/DSP/Source/TransformFunctions/arm_cfft_radix4_f32.c ****       Xd12_out += p4;
 242:./Libraries/CMSIS/DSP/Source/TransformFunctions/arm_cfft_radix4_f32.c ****       Yd12_out -= p5;
 243:./Libraries/CMSIS/DSP/Source/TransformFunctions/arm_cfft_radix4_f32.c **** 
 244:./Libraries/CMSIS/DSP/Source/TransformFunctions/arm_cfft_radix4_f32.c ****       /* xc' = (xa-xb+xc-xd)co2 + (ya-yb+yc-yd)(si2) */
 245:./Libraries/CMSIS/DSP/Source/TransformFunctions/arm_cfft_radix4_f32.c ****       pSrc[2U * i1] = Xc12_out;
 246:./Libraries/CMSIS/DSP/Source/TransformFunctions/arm_cfft_radix4_f32.c **** 
 247:./Libraries/CMSIS/DSP/Source/TransformFunctions/arm_cfft_radix4_f32.c ****       /* yc' = (ya-yb+yc-yd)co2 - (xa-xb+xc-xd)(si2) */
 248:./Libraries/CMSIS/DSP/Source/TransformFunctions/arm_cfft_radix4_f32.c ****       pSrc[(2U * i1) + 1U] = Yc12_out;
 249:./Libraries/CMSIS/DSP/Source/TransformFunctions/arm_cfft_radix4_f32.c **** 
ARM GAS  /tmp/ccWpuuii.s 			page 6


 250:./Libraries/CMSIS/DSP/Source/TransformFunctions/arm_cfft_radix4_f32.c ****       /* xb' = (xa+yb-xc-yd)co1 + (ya-xb-yc+xd)(si1) */
 251:./Libraries/CMSIS/DSP/Source/TransformFunctions/arm_cfft_radix4_f32.c ****       pSrc[2U * i2] = Xb12_out;
 252:./Libraries/CMSIS/DSP/Source/TransformFunctions/arm_cfft_radix4_f32.c **** 
 253:./Libraries/CMSIS/DSP/Source/TransformFunctions/arm_cfft_radix4_f32.c ****       /* yb' = (ya-xb-yc+xd)co1 - (xa+yb-xc-yd)(si1) */
 254:./Libraries/CMSIS/DSP/Source/TransformFunctions/arm_cfft_radix4_f32.c ****       pSrc[(2U * i2) + 1U] = Yb12_out;
 255:./Libraries/CMSIS/DSP/Source/TransformFunctions/arm_cfft_radix4_f32.c **** 
 256:./Libraries/CMSIS/DSP/Source/TransformFunctions/arm_cfft_radix4_f32.c ****       /* xd' = (xa-yb-xc+yd)co3 + (ya+xb-yc-xd)(si3) */
 257:./Libraries/CMSIS/DSP/Source/TransformFunctions/arm_cfft_radix4_f32.c ****       pSrc[2U * i3] = Xd12_out;
 258:./Libraries/CMSIS/DSP/Source/TransformFunctions/arm_cfft_radix4_f32.c **** 
 259:./Libraries/CMSIS/DSP/Source/TransformFunctions/arm_cfft_radix4_f32.c ****       /* yd' = (ya+xb-yc-xd)co3 - (xa-yb-xc+yd)(si3) */
 260:./Libraries/CMSIS/DSP/Source/TransformFunctions/arm_cfft_radix4_f32.c ****       pSrc[(2U * i3) + 1U] = Yd12_out;
 261:./Libraries/CMSIS/DSP/Source/TransformFunctions/arm_cfft_radix4_f32.c **** 
 262:./Libraries/CMSIS/DSP/Source/TransformFunctions/arm_cfft_radix4_f32.c ****       /*  Twiddle coefficients index modifier */
 263:./Libraries/CMSIS/DSP/Source/TransformFunctions/arm_cfft_radix4_f32.c ****       ia1 += twidCoefModifier;
 264:./Libraries/CMSIS/DSP/Source/TransformFunctions/arm_cfft_radix4_f32.c **** 
 265:./Libraries/CMSIS/DSP/Source/TransformFunctions/arm_cfft_radix4_f32.c ****       /*  Updating input index */
 266:./Libraries/CMSIS/DSP/Source/TransformFunctions/arm_cfft_radix4_f32.c ****       i0++;
 267:./Libraries/CMSIS/DSP/Source/TransformFunctions/arm_cfft_radix4_f32.c **** 
 268:./Libraries/CMSIS/DSP/Source/TransformFunctions/arm_cfft_radix4_f32.c ****    }
 269:./Libraries/CMSIS/DSP/Source/TransformFunctions/arm_cfft_radix4_f32.c ****    while (--j);
 270:./Libraries/CMSIS/DSP/Source/TransformFunctions/arm_cfft_radix4_f32.c **** 
 271:./Libraries/CMSIS/DSP/Source/TransformFunctions/arm_cfft_radix4_f32.c ****    twidCoefModifier <<= 2U;
 272:./Libraries/CMSIS/DSP/Source/TransformFunctions/arm_cfft_radix4_f32.c **** 
 273:./Libraries/CMSIS/DSP/Source/TransformFunctions/arm_cfft_radix4_f32.c ****    /*  Calculation of second stage to excluding last stage */
 274:./Libraries/CMSIS/DSP/Source/TransformFunctions/arm_cfft_radix4_f32.c ****    for (k = fftLen >> 2U; k > 4U; k >>= 2U)
 275:./Libraries/CMSIS/DSP/Source/TransformFunctions/arm_cfft_radix4_f32.c ****    {
 276:./Libraries/CMSIS/DSP/Source/TransformFunctions/arm_cfft_radix4_f32.c ****       /*  Initializations for the first stage */
 277:./Libraries/CMSIS/DSP/Source/TransformFunctions/arm_cfft_radix4_f32.c ****       n1 = n2;
 278:./Libraries/CMSIS/DSP/Source/TransformFunctions/arm_cfft_radix4_f32.c ****       n2 >>= 2U;
 279:./Libraries/CMSIS/DSP/Source/TransformFunctions/arm_cfft_radix4_f32.c ****       ia1 = 0U;
 280:./Libraries/CMSIS/DSP/Source/TransformFunctions/arm_cfft_radix4_f32.c **** 
 281:./Libraries/CMSIS/DSP/Source/TransformFunctions/arm_cfft_radix4_f32.c ****       /*  Calculation of first stage */
 282:./Libraries/CMSIS/DSP/Source/TransformFunctions/arm_cfft_radix4_f32.c ****       j = 0;
 283:./Libraries/CMSIS/DSP/Source/TransformFunctions/arm_cfft_radix4_f32.c ****       do
 284:./Libraries/CMSIS/DSP/Source/TransformFunctions/arm_cfft_radix4_f32.c ****       {
 285:./Libraries/CMSIS/DSP/Source/TransformFunctions/arm_cfft_radix4_f32.c ****          /*  index calculation for the coefficients */
 286:./Libraries/CMSIS/DSP/Source/TransformFunctions/arm_cfft_radix4_f32.c ****          ia2 = ia1 + ia1;
 287:./Libraries/CMSIS/DSP/Source/TransformFunctions/arm_cfft_radix4_f32.c ****          ia3 = ia2 + ia1;
 288:./Libraries/CMSIS/DSP/Source/TransformFunctions/arm_cfft_radix4_f32.c ****          co1 = pCoef[(ia1 * 2U)];
 289:./Libraries/CMSIS/DSP/Source/TransformFunctions/arm_cfft_radix4_f32.c ****          si1 = pCoef[(ia1 * 2U) + 1U];
 290:./Libraries/CMSIS/DSP/Source/TransformFunctions/arm_cfft_radix4_f32.c ****          co2 = pCoef[(ia2 * 2U)];
 291:./Libraries/CMSIS/DSP/Source/TransformFunctions/arm_cfft_radix4_f32.c ****          si2 = pCoef[(ia2 * 2U) + 1U];
 292:./Libraries/CMSIS/DSP/Source/TransformFunctions/arm_cfft_radix4_f32.c ****          co3 = pCoef[(ia3 * 2U)];
 293:./Libraries/CMSIS/DSP/Source/TransformFunctions/arm_cfft_radix4_f32.c ****          si3 = pCoef[(ia3 * 2U) + 1U];
 294:./Libraries/CMSIS/DSP/Source/TransformFunctions/arm_cfft_radix4_f32.c **** 
 295:./Libraries/CMSIS/DSP/Source/TransformFunctions/arm_cfft_radix4_f32.c ****          /*  Twiddle coefficients index modifier */
 296:./Libraries/CMSIS/DSP/Source/TransformFunctions/arm_cfft_radix4_f32.c ****          ia1 += twidCoefModifier;
 297:./Libraries/CMSIS/DSP/Source/TransformFunctions/arm_cfft_radix4_f32.c **** 
 298:./Libraries/CMSIS/DSP/Source/TransformFunctions/arm_cfft_radix4_f32.c ****          i0 = j;
 299:./Libraries/CMSIS/DSP/Source/TransformFunctions/arm_cfft_radix4_f32.c ****          do
 300:./Libraries/CMSIS/DSP/Source/TransformFunctions/arm_cfft_radix4_f32.c ****          {
 301:./Libraries/CMSIS/DSP/Source/TransformFunctions/arm_cfft_radix4_f32.c ****             /*  index calculation for the input as, */
 302:./Libraries/CMSIS/DSP/Source/TransformFunctions/arm_cfft_radix4_f32.c ****             /*  pSrc[i0 + 0], pSrc[i0 + fftLen/4], pSrc[i0 + fftLen/2], pSrc[i0 + 3fftLen/4] */
 303:./Libraries/CMSIS/DSP/Source/TransformFunctions/arm_cfft_radix4_f32.c ****             i1 = i0 + n2;
 304:./Libraries/CMSIS/DSP/Source/TransformFunctions/arm_cfft_radix4_f32.c ****             i2 = i1 + n2;
 305:./Libraries/CMSIS/DSP/Source/TransformFunctions/arm_cfft_radix4_f32.c ****             i3 = i2 + n2;
 306:./Libraries/CMSIS/DSP/Source/TransformFunctions/arm_cfft_radix4_f32.c **** 
ARM GAS  /tmp/ccWpuuii.s 			page 7


 307:./Libraries/CMSIS/DSP/Source/TransformFunctions/arm_cfft_radix4_f32.c ****             xaIn = pSrc[(2U * i0)];
 308:./Libraries/CMSIS/DSP/Source/TransformFunctions/arm_cfft_radix4_f32.c ****             yaIn = pSrc[(2U * i0) + 1U];
 309:./Libraries/CMSIS/DSP/Source/TransformFunctions/arm_cfft_radix4_f32.c **** 
 310:./Libraries/CMSIS/DSP/Source/TransformFunctions/arm_cfft_radix4_f32.c ****             xbIn = pSrc[(2U * i1)];
 311:./Libraries/CMSIS/DSP/Source/TransformFunctions/arm_cfft_radix4_f32.c ****             ybIn = pSrc[(2U * i1) + 1U];
 312:./Libraries/CMSIS/DSP/Source/TransformFunctions/arm_cfft_radix4_f32.c **** 
 313:./Libraries/CMSIS/DSP/Source/TransformFunctions/arm_cfft_radix4_f32.c ****             xcIn = pSrc[(2U * i2)];
 314:./Libraries/CMSIS/DSP/Source/TransformFunctions/arm_cfft_radix4_f32.c ****             ycIn = pSrc[(2U * i2) + 1U];
 315:./Libraries/CMSIS/DSP/Source/TransformFunctions/arm_cfft_radix4_f32.c **** 
 316:./Libraries/CMSIS/DSP/Source/TransformFunctions/arm_cfft_radix4_f32.c ****             xdIn = pSrc[(2U * i3)];
 317:./Libraries/CMSIS/DSP/Source/TransformFunctions/arm_cfft_radix4_f32.c ****             ydIn = pSrc[(2U * i3) + 1U];
 318:./Libraries/CMSIS/DSP/Source/TransformFunctions/arm_cfft_radix4_f32.c **** 
 319:./Libraries/CMSIS/DSP/Source/TransformFunctions/arm_cfft_radix4_f32.c ****             /* xa - xc */
 320:./Libraries/CMSIS/DSP/Source/TransformFunctions/arm_cfft_radix4_f32.c ****             Xaminusc = xaIn - xcIn;
 321:./Libraries/CMSIS/DSP/Source/TransformFunctions/arm_cfft_radix4_f32.c ****             /* (xb - xd) */
 322:./Libraries/CMSIS/DSP/Source/TransformFunctions/arm_cfft_radix4_f32.c ****             Xbminusd = xbIn - xdIn;
 323:./Libraries/CMSIS/DSP/Source/TransformFunctions/arm_cfft_radix4_f32.c ****             /* ya - yc */
 324:./Libraries/CMSIS/DSP/Source/TransformFunctions/arm_cfft_radix4_f32.c ****             Yaminusc = yaIn - ycIn;
 325:./Libraries/CMSIS/DSP/Source/TransformFunctions/arm_cfft_radix4_f32.c ****             /* (yb - yd) */
 326:./Libraries/CMSIS/DSP/Source/TransformFunctions/arm_cfft_radix4_f32.c ****             Ybminusd = ybIn - ydIn;
 327:./Libraries/CMSIS/DSP/Source/TransformFunctions/arm_cfft_radix4_f32.c **** 
 328:./Libraries/CMSIS/DSP/Source/TransformFunctions/arm_cfft_radix4_f32.c ****             /* xa + xc */
 329:./Libraries/CMSIS/DSP/Source/TransformFunctions/arm_cfft_radix4_f32.c ****             Xaplusc = xaIn + xcIn;
 330:./Libraries/CMSIS/DSP/Source/TransformFunctions/arm_cfft_radix4_f32.c ****             /* xb + xd */
 331:./Libraries/CMSIS/DSP/Source/TransformFunctions/arm_cfft_radix4_f32.c ****             Xbplusd = xbIn + xdIn;
 332:./Libraries/CMSIS/DSP/Source/TransformFunctions/arm_cfft_radix4_f32.c ****             /* ya + yc */
 333:./Libraries/CMSIS/DSP/Source/TransformFunctions/arm_cfft_radix4_f32.c ****             Yaplusc = yaIn + ycIn;
 334:./Libraries/CMSIS/DSP/Source/TransformFunctions/arm_cfft_radix4_f32.c ****             /* yb + yd */
 335:./Libraries/CMSIS/DSP/Source/TransformFunctions/arm_cfft_radix4_f32.c ****             Ybplusd = ybIn + ydIn;
 336:./Libraries/CMSIS/DSP/Source/TransformFunctions/arm_cfft_radix4_f32.c **** 
 337:./Libraries/CMSIS/DSP/Source/TransformFunctions/arm_cfft_radix4_f32.c ****             /* (xa - xc) + (yb - yd) */
 338:./Libraries/CMSIS/DSP/Source/TransformFunctions/arm_cfft_radix4_f32.c ****             Xb12C_out = (Xaminusc + Ybminusd);
 339:./Libraries/CMSIS/DSP/Source/TransformFunctions/arm_cfft_radix4_f32.c ****             /* (ya - yc) -  (xb - xd) */
 340:./Libraries/CMSIS/DSP/Source/TransformFunctions/arm_cfft_radix4_f32.c ****             Yb12C_out = (Yaminusc - Xbminusd);
 341:./Libraries/CMSIS/DSP/Source/TransformFunctions/arm_cfft_radix4_f32.c ****             /* xa + xc -(xb + xd) */
 342:./Libraries/CMSIS/DSP/Source/TransformFunctions/arm_cfft_radix4_f32.c ****             Xc12C_out = (Xaplusc - Xbplusd);
 343:./Libraries/CMSIS/DSP/Source/TransformFunctions/arm_cfft_radix4_f32.c ****             /* (ya + yc) - (yb + yd) */
 344:./Libraries/CMSIS/DSP/Source/TransformFunctions/arm_cfft_radix4_f32.c ****             Yc12C_out = (Yaplusc - Ybplusd);
 345:./Libraries/CMSIS/DSP/Source/TransformFunctions/arm_cfft_radix4_f32.c ****             /* (xa - xc) - (yb - yd) */
 346:./Libraries/CMSIS/DSP/Source/TransformFunctions/arm_cfft_radix4_f32.c ****             Xd12C_out = (Xaminusc - Ybminusd);
 347:./Libraries/CMSIS/DSP/Source/TransformFunctions/arm_cfft_radix4_f32.c ****             /* (ya - yc) +  (xb - xd) */
 348:./Libraries/CMSIS/DSP/Source/TransformFunctions/arm_cfft_radix4_f32.c ****             Yd12C_out = (Xbminusd + Yaminusc);
 349:./Libraries/CMSIS/DSP/Source/TransformFunctions/arm_cfft_radix4_f32.c **** 
 350:./Libraries/CMSIS/DSP/Source/TransformFunctions/arm_cfft_radix4_f32.c ****             pSrc[(2U * i0)] = Xaplusc + Xbplusd;
 351:./Libraries/CMSIS/DSP/Source/TransformFunctions/arm_cfft_radix4_f32.c ****             pSrc[(2U * i0) + 1U] = Yaplusc + Ybplusd;
 352:./Libraries/CMSIS/DSP/Source/TransformFunctions/arm_cfft_radix4_f32.c **** 
 353:./Libraries/CMSIS/DSP/Source/TransformFunctions/arm_cfft_radix4_f32.c ****             Xb12_out = Xb12C_out * co1;
 354:./Libraries/CMSIS/DSP/Source/TransformFunctions/arm_cfft_radix4_f32.c ****             Yb12_out = Yb12C_out * co1;
 355:./Libraries/CMSIS/DSP/Source/TransformFunctions/arm_cfft_radix4_f32.c ****             Xc12_out = Xc12C_out * co2;
 356:./Libraries/CMSIS/DSP/Source/TransformFunctions/arm_cfft_radix4_f32.c ****             Yc12_out = Yc12C_out * co2;
 357:./Libraries/CMSIS/DSP/Source/TransformFunctions/arm_cfft_radix4_f32.c ****             Xd12_out = Xd12C_out * co3;
 358:./Libraries/CMSIS/DSP/Source/TransformFunctions/arm_cfft_radix4_f32.c ****             Yd12_out = Yd12C_out * co3;
 359:./Libraries/CMSIS/DSP/Source/TransformFunctions/arm_cfft_radix4_f32.c **** 
 360:./Libraries/CMSIS/DSP/Source/TransformFunctions/arm_cfft_radix4_f32.c ****             /* xb' = (xa+yb-xc-yd)co1 - (ya-xb-yc+xd)(si1) */
 361:./Libraries/CMSIS/DSP/Source/TransformFunctions/arm_cfft_radix4_f32.c ****             //Xb12_out -= Yb12C_out * si1;
 362:./Libraries/CMSIS/DSP/Source/TransformFunctions/arm_cfft_radix4_f32.c ****             p0 = Yb12C_out * si1;
 363:./Libraries/CMSIS/DSP/Source/TransformFunctions/arm_cfft_radix4_f32.c ****             /* yb' = (ya-xb-yc+xd)co1 + (xa+yb-xc-yd)(si1) */
ARM GAS  /tmp/ccWpuuii.s 			page 8


 364:./Libraries/CMSIS/DSP/Source/TransformFunctions/arm_cfft_radix4_f32.c ****             //Yb12_out += Xb12C_out * si1;
 365:./Libraries/CMSIS/DSP/Source/TransformFunctions/arm_cfft_radix4_f32.c ****             p1 = Xb12C_out * si1;
 366:./Libraries/CMSIS/DSP/Source/TransformFunctions/arm_cfft_radix4_f32.c ****             /* xc' = (xa-xb+xc-xd)co2 - (ya-yb+yc-yd)(si2) */
 367:./Libraries/CMSIS/DSP/Source/TransformFunctions/arm_cfft_radix4_f32.c ****             //Xc12_out -= Yc12C_out * si2;
 368:./Libraries/CMSIS/DSP/Source/TransformFunctions/arm_cfft_radix4_f32.c ****             p2 = Yc12C_out * si2;
 369:./Libraries/CMSIS/DSP/Source/TransformFunctions/arm_cfft_radix4_f32.c ****             /* yc' = (ya-yb+yc-yd)co2 + (xa-xb+xc-xd)(si2) */
 370:./Libraries/CMSIS/DSP/Source/TransformFunctions/arm_cfft_radix4_f32.c ****             //Yc12_out += Xc12C_out * si2;
 371:./Libraries/CMSIS/DSP/Source/TransformFunctions/arm_cfft_radix4_f32.c ****             p3 = Xc12C_out * si2;
 372:./Libraries/CMSIS/DSP/Source/TransformFunctions/arm_cfft_radix4_f32.c ****             /* xd' = (xa-yb-xc+yd)co3 - (ya+xb-yc-xd)(si3) */
 373:./Libraries/CMSIS/DSP/Source/TransformFunctions/arm_cfft_radix4_f32.c ****             //Xd12_out -= Yd12C_out * si3;
 374:./Libraries/CMSIS/DSP/Source/TransformFunctions/arm_cfft_radix4_f32.c ****             p4 = Yd12C_out * si3;
 375:./Libraries/CMSIS/DSP/Source/TransformFunctions/arm_cfft_radix4_f32.c ****             /* yd' = (ya+xb-yc-xd)co3 + (xa-yb-xc+yd)(si3) */
 376:./Libraries/CMSIS/DSP/Source/TransformFunctions/arm_cfft_radix4_f32.c ****             //Yd12_out += Xd12C_out * si3;
 377:./Libraries/CMSIS/DSP/Source/TransformFunctions/arm_cfft_radix4_f32.c ****             p5 = Xd12C_out * si3;
 378:./Libraries/CMSIS/DSP/Source/TransformFunctions/arm_cfft_radix4_f32.c **** 
 379:./Libraries/CMSIS/DSP/Source/TransformFunctions/arm_cfft_radix4_f32.c ****             Xb12_out += p0;
 380:./Libraries/CMSIS/DSP/Source/TransformFunctions/arm_cfft_radix4_f32.c ****             Yb12_out -= p1;
 381:./Libraries/CMSIS/DSP/Source/TransformFunctions/arm_cfft_radix4_f32.c ****             Xc12_out += p2;
 382:./Libraries/CMSIS/DSP/Source/TransformFunctions/arm_cfft_radix4_f32.c ****             Yc12_out -= p3;
 383:./Libraries/CMSIS/DSP/Source/TransformFunctions/arm_cfft_radix4_f32.c ****             Xd12_out += p4;
 384:./Libraries/CMSIS/DSP/Source/TransformFunctions/arm_cfft_radix4_f32.c ****             Yd12_out -= p5;
 385:./Libraries/CMSIS/DSP/Source/TransformFunctions/arm_cfft_radix4_f32.c **** 
 386:./Libraries/CMSIS/DSP/Source/TransformFunctions/arm_cfft_radix4_f32.c ****             /* xc' = (xa-xb+xc-xd)co2 + (ya-yb+yc-yd)(si2) */
 387:./Libraries/CMSIS/DSP/Source/TransformFunctions/arm_cfft_radix4_f32.c ****             pSrc[2U * i1] = Xc12_out;
 388:./Libraries/CMSIS/DSP/Source/TransformFunctions/arm_cfft_radix4_f32.c **** 
 389:./Libraries/CMSIS/DSP/Source/TransformFunctions/arm_cfft_radix4_f32.c ****             /* yc' = (ya-yb+yc-yd)co2 - (xa-xb+xc-xd)(si2) */
 390:./Libraries/CMSIS/DSP/Source/TransformFunctions/arm_cfft_radix4_f32.c ****             pSrc[(2U * i1) + 1U] = Yc12_out;
 391:./Libraries/CMSIS/DSP/Source/TransformFunctions/arm_cfft_radix4_f32.c **** 
 392:./Libraries/CMSIS/DSP/Source/TransformFunctions/arm_cfft_radix4_f32.c ****             /* xb' = (xa+yb-xc-yd)co1 + (ya-xb-yc+xd)(si1) */
 393:./Libraries/CMSIS/DSP/Source/TransformFunctions/arm_cfft_radix4_f32.c ****             pSrc[2U * i2] = Xb12_out;
 394:./Libraries/CMSIS/DSP/Source/TransformFunctions/arm_cfft_radix4_f32.c **** 
 395:./Libraries/CMSIS/DSP/Source/TransformFunctions/arm_cfft_radix4_f32.c ****             /* yb' = (ya-xb-yc+xd)co1 - (xa+yb-xc-yd)(si1) */
 396:./Libraries/CMSIS/DSP/Source/TransformFunctions/arm_cfft_radix4_f32.c ****             pSrc[(2U * i2) + 1U] = Yb12_out;
 397:./Libraries/CMSIS/DSP/Source/TransformFunctions/arm_cfft_radix4_f32.c **** 
 398:./Libraries/CMSIS/DSP/Source/TransformFunctions/arm_cfft_radix4_f32.c ****             /* xd' = (xa-yb-xc+yd)co3 + (ya+xb-yc-xd)(si3) */
 399:./Libraries/CMSIS/DSP/Source/TransformFunctions/arm_cfft_radix4_f32.c ****             pSrc[2U * i3] = Xd12_out;
 400:./Libraries/CMSIS/DSP/Source/TransformFunctions/arm_cfft_radix4_f32.c **** 
 401:./Libraries/CMSIS/DSP/Source/TransformFunctions/arm_cfft_radix4_f32.c ****             /* yd' = (ya+xb-yc-xd)co3 - (xa-yb-xc+yd)(si3) */
 402:./Libraries/CMSIS/DSP/Source/TransformFunctions/arm_cfft_radix4_f32.c ****             pSrc[(2U * i3) + 1U] = Yd12_out;
 403:./Libraries/CMSIS/DSP/Source/TransformFunctions/arm_cfft_radix4_f32.c **** 
 404:./Libraries/CMSIS/DSP/Source/TransformFunctions/arm_cfft_radix4_f32.c ****             i0 += n1;
 405:./Libraries/CMSIS/DSP/Source/TransformFunctions/arm_cfft_radix4_f32.c ****          } while (i0 < fftLen);
 406:./Libraries/CMSIS/DSP/Source/TransformFunctions/arm_cfft_radix4_f32.c ****          j++;
 407:./Libraries/CMSIS/DSP/Source/TransformFunctions/arm_cfft_radix4_f32.c ****       } while (j <= (n2 - 1U));
 408:./Libraries/CMSIS/DSP/Source/TransformFunctions/arm_cfft_radix4_f32.c ****       twidCoefModifier <<= 2U;
 409:./Libraries/CMSIS/DSP/Source/TransformFunctions/arm_cfft_radix4_f32.c ****    }
 410:./Libraries/CMSIS/DSP/Source/TransformFunctions/arm_cfft_radix4_f32.c **** 
 411:./Libraries/CMSIS/DSP/Source/TransformFunctions/arm_cfft_radix4_f32.c ****    j = fftLen >> 2;
 412:./Libraries/CMSIS/DSP/Source/TransformFunctions/arm_cfft_radix4_f32.c ****    ptr1 = &pSrc[0];
 413:./Libraries/CMSIS/DSP/Source/TransformFunctions/arm_cfft_radix4_f32.c **** 
 414:./Libraries/CMSIS/DSP/Source/TransformFunctions/arm_cfft_radix4_f32.c ****    /*  Calculations of last stage */
 415:./Libraries/CMSIS/DSP/Source/TransformFunctions/arm_cfft_radix4_f32.c ****    do
 416:./Libraries/CMSIS/DSP/Source/TransformFunctions/arm_cfft_radix4_f32.c ****    {
 417:./Libraries/CMSIS/DSP/Source/TransformFunctions/arm_cfft_radix4_f32.c ****       xaIn = ptr1[0];
 418:./Libraries/CMSIS/DSP/Source/TransformFunctions/arm_cfft_radix4_f32.c ****       yaIn = ptr1[1];
 419:./Libraries/CMSIS/DSP/Source/TransformFunctions/arm_cfft_radix4_f32.c ****       xbIn = ptr1[2];
 420:./Libraries/CMSIS/DSP/Source/TransformFunctions/arm_cfft_radix4_f32.c ****       ybIn = ptr1[3];
ARM GAS  /tmp/ccWpuuii.s 			page 9


 421:./Libraries/CMSIS/DSP/Source/TransformFunctions/arm_cfft_radix4_f32.c ****       xcIn = ptr1[4];
 422:./Libraries/CMSIS/DSP/Source/TransformFunctions/arm_cfft_radix4_f32.c ****       ycIn = ptr1[5];
 423:./Libraries/CMSIS/DSP/Source/TransformFunctions/arm_cfft_radix4_f32.c ****       xdIn = ptr1[6];
 424:./Libraries/CMSIS/DSP/Source/TransformFunctions/arm_cfft_radix4_f32.c ****       ydIn = ptr1[7];
 425:./Libraries/CMSIS/DSP/Source/TransformFunctions/arm_cfft_radix4_f32.c **** 
 426:./Libraries/CMSIS/DSP/Source/TransformFunctions/arm_cfft_radix4_f32.c ****       /* xa + xc */
 427:./Libraries/CMSIS/DSP/Source/TransformFunctions/arm_cfft_radix4_f32.c ****       Xaplusc = xaIn + xcIn;
 428:./Libraries/CMSIS/DSP/Source/TransformFunctions/arm_cfft_radix4_f32.c **** 
 429:./Libraries/CMSIS/DSP/Source/TransformFunctions/arm_cfft_radix4_f32.c ****       /* xa - xc */
 430:./Libraries/CMSIS/DSP/Source/TransformFunctions/arm_cfft_radix4_f32.c ****       Xaminusc = xaIn - xcIn;
 431:./Libraries/CMSIS/DSP/Source/TransformFunctions/arm_cfft_radix4_f32.c **** 
 432:./Libraries/CMSIS/DSP/Source/TransformFunctions/arm_cfft_radix4_f32.c ****       /* ya + yc */
 433:./Libraries/CMSIS/DSP/Source/TransformFunctions/arm_cfft_radix4_f32.c ****       Yaplusc = yaIn + ycIn;
 434:./Libraries/CMSIS/DSP/Source/TransformFunctions/arm_cfft_radix4_f32.c **** 
 435:./Libraries/CMSIS/DSP/Source/TransformFunctions/arm_cfft_radix4_f32.c ****       /* ya - yc */
 436:./Libraries/CMSIS/DSP/Source/TransformFunctions/arm_cfft_radix4_f32.c ****       Yaminusc = yaIn - ycIn;
 437:./Libraries/CMSIS/DSP/Source/TransformFunctions/arm_cfft_radix4_f32.c **** 
 438:./Libraries/CMSIS/DSP/Source/TransformFunctions/arm_cfft_radix4_f32.c ****       /* xb + xd */
 439:./Libraries/CMSIS/DSP/Source/TransformFunctions/arm_cfft_radix4_f32.c ****       Xbplusd = xbIn + xdIn;
 440:./Libraries/CMSIS/DSP/Source/TransformFunctions/arm_cfft_radix4_f32.c **** 
 441:./Libraries/CMSIS/DSP/Source/TransformFunctions/arm_cfft_radix4_f32.c ****       /* yb + yd */
 442:./Libraries/CMSIS/DSP/Source/TransformFunctions/arm_cfft_radix4_f32.c ****       Ybplusd = ybIn + ydIn;
 443:./Libraries/CMSIS/DSP/Source/TransformFunctions/arm_cfft_radix4_f32.c **** 
 444:./Libraries/CMSIS/DSP/Source/TransformFunctions/arm_cfft_radix4_f32.c ****       /* (xb-xd) */
 445:./Libraries/CMSIS/DSP/Source/TransformFunctions/arm_cfft_radix4_f32.c ****       Xbminusd = xbIn - xdIn;
 446:./Libraries/CMSIS/DSP/Source/TransformFunctions/arm_cfft_radix4_f32.c **** 
 447:./Libraries/CMSIS/DSP/Source/TransformFunctions/arm_cfft_radix4_f32.c ****       /* (yb-yd) */
 448:./Libraries/CMSIS/DSP/Source/TransformFunctions/arm_cfft_radix4_f32.c ****       Ybminusd = ybIn - ydIn;
 449:./Libraries/CMSIS/DSP/Source/TransformFunctions/arm_cfft_radix4_f32.c **** 
 450:./Libraries/CMSIS/DSP/Source/TransformFunctions/arm_cfft_radix4_f32.c ****       /* xa' = xa + xb + xc + xd */
 451:./Libraries/CMSIS/DSP/Source/TransformFunctions/arm_cfft_radix4_f32.c ****       a0 = (Xaplusc + Xbplusd);
 452:./Libraries/CMSIS/DSP/Source/TransformFunctions/arm_cfft_radix4_f32.c ****       /* ya' = ya + yb + yc + yd */
 453:./Libraries/CMSIS/DSP/Source/TransformFunctions/arm_cfft_radix4_f32.c ****       a1 = (Yaplusc + Ybplusd);
 454:./Libraries/CMSIS/DSP/Source/TransformFunctions/arm_cfft_radix4_f32.c ****       /* xc' = (xa-xb+xc-xd) */
 455:./Libraries/CMSIS/DSP/Source/TransformFunctions/arm_cfft_radix4_f32.c ****       a2 = (Xaplusc - Xbplusd);
 456:./Libraries/CMSIS/DSP/Source/TransformFunctions/arm_cfft_radix4_f32.c ****       /* yc' = (ya-yb+yc-yd) */
 457:./Libraries/CMSIS/DSP/Source/TransformFunctions/arm_cfft_radix4_f32.c ****       a3 = (Yaplusc - Ybplusd);
 458:./Libraries/CMSIS/DSP/Source/TransformFunctions/arm_cfft_radix4_f32.c ****       /* xb' = (xa+yb-xc-yd) */
 459:./Libraries/CMSIS/DSP/Source/TransformFunctions/arm_cfft_radix4_f32.c ****       a4 = (Xaminusc + Ybminusd);
 460:./Libraries/CMSIS/DSP/Source/TransformFunctions/arm_cfft_radix4_f32.c ****       /* yb' = (ya-xb-yc+xd) */
 461:./Libraries/CMSIS/DSP/Source/TransformFunctions/arm_cfft_radix4_f32.c ****       a5 = (Yaminusc - Xbminusd);
 462:./Libraries/CMSIS/DSP/Source/TransformFunctions/arm_cfft_radix4_f32.c ****       /* xd' = (xa-yb-xc+yd)) */
 463:./Libraries/CMSIS/DSP/Source/TransformFunctions/arm_cfft_radix4_f32.c ****       a6 = (Xaminusc - Ybminusd);
 464:./Libraries/CMSIS/DSP/Source/TransformFunctions/arm_cfft_radix4_f32.c ****       /* yd' = (ya+xb-yc-xd) */
 465:./Libraries/CMSIS/DSP/Source/TransformFunctions/arm_cfft_radix4_f32.c ****       a7 = (Xbminusd + Yaminusc);
 466:./Libraries/CMSIS/DSP/Source/TransformFunctions/arm_cfft_radix4_f32.c **** 
 467:./Libraries/CMSIS/DSP/Source/TransformFunctions/arm_cfft_radix4_f32.c ****       ptr1[0] = a0;
 468:./Libraries/CMSIS/DSP/Source/TransformFunctions/arm_cfft_radix4_f32.c ****       ptr1[1] = a1;
 469:./Libraries/CMSIS/DSP/Source/TransformFunctions/arm_cfft_radix4_f32.c ****       ptr1[2] = a2;
 470:./Libraries/CMSIS/DSP/Source/TransformFunctions/arm_cfft_radix4_f32.c ****       ptr1[3] = a3;
 471:./Libraries/CMSIS/DSP/Source/TransformFunctions/arm_cfft_radix4_f32.c ****       ptr1[4] = a4;
 472:./Libraries/CMSIS/DSP/Source/TransformFunctions/arm_cfft_radix4_f32.c ****       ptr1[5] = a5;
 473:./Libraries/CMSIS/DSP/Source/TransformFunctions/arm_cfft_radix4_f32.c ****       ptr1[6] = a6;
 474:./Libraries/CMSIS/DSP/Source/TransformFunctions/arm_cfft_radix4_f32.c ****       ptr1[7] = a7;
 475:./Libraries/CMSIS/DSP/Source/TransformFunctions/arm_cfft_radix4_f32.c **** 
 476:./Libraries/CMSIS/DSP/Source/TransformFunctions/arm_cfft_radix4_f32.c ****       /* increment pointer by 8 */
 477:./Libraries/CMSIS/DSP/Source/TransformFunctions/arm_cfft_radix4_f32.c ****       ptr1 += 8U;
ARM GAS  /tmp/ccWpuuii.s 			page 10


 478:./Libraries/CMSIS/DSP/Source/TransformFunctions/arm_cfft_radix4_f32.c ****    } while (--j);
 479:./Libraries/CMSIS/DSP/Source/TransformFunctions/arm_cfft_radix4_f32.c **** 
 480:./Libraries/CMSIS/DSP/Source/TransformFunctions/arm_cfft_radix4_f32.c **** #else
 481:./Libraries/CMSIS/DSP/Source/TransformFunctions/arm_cfft_radix4_f32.c **** 
 482:./Libraries/CMSIS/DSP/Source/TransformFunctions/arm_cfft_radix4_f32.c ****         float32_t t1, t2, r1, r2, s1, s2;
  38              		.loc 1 482 9 view .LVU5
 483:./Libraries/CMSIS/DSP/Source/TransformFunctions/arm_cfft_radix4_f32.c **** 
 484:./Libraries/CMSIS/DSP/Source/TransformFunctions/arm_cfft_radix4_f32.c ****    /* Initializations for the fft calculation */
 485:./Libraries/CMSIS/DSP/Source/TransformFunctions/arm_cfft_radix4_f32.c ****    n2 = fftLen;
  39              		.loc 1 485 4 view .LVU6
 486:./Libraries/CMSIS/DSP/Source/TransformFunctions/arm_cfft_radix4_f32.c ****    n1 = n2;
  40              		.loc 1 486 4 view .LVU7
 487:./Libraries/CMSIS/DSP/Source/TransformFunctions/arm_cfft_radix4_f32.c ****    for (k = fftLen; k > 1U; k >>= 2U)
  41              		.loc 1 487 4 view .LVU8
 113:./Libraries/CMSIS/DSP/Source/TransformFunctions/arm_cfft_radix4_f32.c ****         float32_t co1, co2, co3, si1, si2, si3;
  42              		.loc 1 113 1 is_stmt 0 view .LVU9
  43 0000 2DE9F04F 		push	{r4, r5, r6, r7, r8, r9, r10, fp, lr}
  44              	.LCFI0:
  45              		.cfi_def_cfa_offset 36
  46              		.cfi_offset 4, -36
  47              		.cfi_offset 5, -32
  48              		.cfi_offset 6, -28
  49              		.cfi_offset 7, -24
  50              		.cfi_offset 8, -20
  51              		.cfi_offset 9, -16
  52              		.cfi_offset 10, -12
  53              		.cfi_offset 11, -8
  54              		.cfi_offset 14, -4
  55              		.loc 1 487 4 view .LVU10
  56 0004 0129     		cmp	r1, #1
 113:./Libraries/CMSIS/DSP/Source/TransformFunctions/arm_cfft_radix4_f32.c ****         float32_t co1, co2, co3, si1, si2, si3;
  57              		.loc 1 113 1 view .LVU11
  58 0006 8BB0     		sub	sp, sp, #44
  59              	.LCFI1:
  60              		.cfi_def_cfa_offset 80
 113:./Libraries/CMSIS/DSP/Source/TransformFunctions/arm_cfft_radix4_f32.c ****         float32_t co1, co2, co3, si1, si2, si3;
  61              		.loc 1 113 1 view .LVU12
  62 0008 0390     		str	r0, [sp, #12]
  63 000a 0893     		str	r3, [sp, #32]
  64              	.LVL1:
  65              		.loc 1 487 21 is_stmt 1 view .LVU13
  66              		.loc 1 487 4 is_stmt 0 view .LVU14
  67 000c 40F2C280 		bls	.L1
  68 0010 131D     		adds	r3, r2, #4
  69 0012 8946     		mov	r9, r1
  70 0014 0291     		str	r1, [sp, #8]
  71 0016 0993     		str	r3, [sp, #36]
  72              	.LVL2:
  73              	.L2:
 488:./Libraries/CMSIS/DSP/Source/TransformFunctions/arm_cfft_radix4_f32.c ****    {
 489:./Libraries/CMSIS/DSP/Source/TransformFunctions/arm_cfft_radix4_f32.c ****       /*  Initializations for the fft calculation */
 490:./Libraries/CMSIS/DSP/Source/TransformFunctions/arm_cfft_radix4_f32.c ****       n1 = n2;
  74              		.loc 1 490 7 is_stmt 1 view .LVU15
 491:./Libraries/CMSIS/DSP/Source/TransformFunctions/arm_cfft_radix4_f32.c ****       n2 >>= 2U;
  75              		.loc 1 491 7 view .LVU16
  76 0018 029B     		ldr	r3, [sp, #8]
 492:./Libraries/CMSIS/DSP/Source/TransformFunctions/arm_cfft_radix4_f32.c ****       ia1 = 0U;
ARM GAS  /tmp/ccWpuuii.s 			page 11


 493:./Libraries/CMSIS/DSP/Source/TransformFunctions/arm_cfft_radix4_f32.c **** 
 494:./Libraries/CMSIS/DSP/Source/TransformFunctions/arm_cfft_radix4_f32.c ****       /*  FFT Calculation */
 495:./Libraries/CMSIS/DSP/Source/TransformFunctions/arm_cfft_radix4_f32.c ****       j = 0;
  77              		.loc 1 495 9 is_stmt 0 view .LVU17
  78 001a 4FF00008 		mov	r8, #0
  79 001e 0898     		ldr	r0, [sp, #32]
 491:./Libraries/CMSIS/DSP/Source/TransformFunctions/arm_cfft_radix4_f32.c ****       n2 >>= 2U;
  80              		.loc 1 491 10 view .LVU18
  81 0020 9A08     		lsrs	r2, r3, #2
  82 0022 9C46     		mov	ip, r3
  83 0024 039C     		ldr	r4, [sp, #12]
  84 0026 00EB4003 		add	r3, r0, r0, lsl #1
  85 002a 099D     		ldr	r5, [sp, #36]
  86 002c 02EB420E 		add	lr, r2, r2, lsl #1
  87 0030 04EBC201 		add	r1, r4, r2, lsl #3
  88 0034 0292     		str	r2, [sp, #8]
  89              	.LVL3:
 492:./Libraries/CMSIS/DSP/Source/TransformFunctions/arm_cfft_radix4_f32.c ****       ia1 = 0U;
  90              		.loc 1 492 7 is_stmt 1 view .LVU19
  91              		.loc 1 495 7 view .LVU20
  92              		.loc 1 495 7 is_stmt 0 view .LVU21
  93 0036 DB00     		lsls	r3, r3, #3
  94 0038 AB46     		mov	fp, r5
  95 003a 0431     		adds	r1, r1, #4
  96 003c C2EB4272 		rsb	r2, r2, r2, lsl #29
  97              	.LVL4:
  98              		.loc 1 495 7 view .LVU22
  99 0040 0693     		str	r3, [sp, #24]
 100 0042 C300     		lsls	r3, r0, #3
 101 0044 D200     		lsls	r2, r2, #3
 102 0046 0191     		str	r1, [sp, #4]
 103 0048 0593     		str	r3, [sp, #20]
 491:./Libraries/CMSIS/DSP/Source/TransformFunctions/arm_cfft_radix4_f32.c ****       n2 >>= 2U;
 104              		.loc 1 491 10 view .LVU23
 105 004a AA46     		mov	r10, r5
 106 004c 0301     		lsls	r3, r0, #4
 107 004e 0095     		str	r5, [sp]
 108 0050 04EBCE0E 		add	lr, r4, lr, lsl #3
 109 0054 0792     		str	r2, [sp, #28]
 110 0056 4FEACC01 		lsl	r1, ip, #3
 111 005a 0493     		str	r3, [sp, #16]
 112              	.LVL5:
 113              	.L4:
 496:./Libraries/CMSIS/DSP/Source/TransformFunctions/arm_cfft_radix4_f32.c ****       do
 114              		.loc 1 496 7 is_stmt 1 view .LVU24
 497:./Libraries/CMSIS/DSP/Source/TransformFunctions/arm_cfft_radix4_f32.c ****       {
 498:./Libraries/CMSIS/DSP/Source/TransformFunctions/arm_cfft_radix4_f32.c ****          /*  index calculation for the coefficients */
 499:./Libraries/CMSIS/DSP/Source/TransformFunctions/arm_cfft_radix4_f32.c ****          ia2 = ia1 + ia1;
 115              		.loc 1 499 10 view .LVU25
 500:./Libraries/CMSIS/DSP/Source/TransformFunctions/arm_cfft_radix4_f32.c ****          ia3 = ia2 + ia1;
 116              		.loc 1 500 10 view .LVU26
 501:./Libraries/CMSIS/DSP/Source/TransformFunctions/arm_cfft_radix4_f32.c ****          co1 = pCoef[ia1 * 2U];
 117              		.loc 1 501 10 view .LVU27
 118 005c 039B     		ldr	r3, [sp, #12]
 119 005e 0EF10405 		add	r5, lr, #4
 502:./Libraries/CMSIS/DSP/Source/TransformFunctions/arm_cfft_radix4_f32.c ****          si1 = pCoef[(ia1 * 2U) + 1U];
 503:./Libraries/CMSIS/DSP/Source/TransformFunctions/arm_cfft_radix4_f32.c ****          co2 = pCoef[ia2 * 2U];
ARM GAS  /tmp/ccWpuuii.s 			page 12


 120              		.loc 1 503 14 is_stmt 0 view .LVU28
 121 0062 0098     		ldr	r0, [sp]
 504:./Libraries/CMSIS/DSP/Source/TransformFunctions/arm_cfft_radix4_f32.c ****          si2 = pCoef[(ia2 * 2U) + 1U];
 505:./Libraries/CMSIS/DSP/Source/TransformFunctions/arm_cfft_radix4_f32.c ****          co3 = pCoef[ia3 * 2U];
 506:./Libraries/CMSIS/DSP/Source/TransformFunctions/arm_cfft_radix4_f32.c ****          si3 = pCoef[(ia3 * 2U) + 1U];
 507:./Libraries/CMSIS/DSP/Source/TransformFunctions/arm_cfft_radix4_f32.c **** 
 508:./Libraries/CMSIS/DSP/Source/TransformFunctions/arm_cfft_radix4_f32.c ****          /*  Twiddle coefficients index modifier */
 509:./Libraries/CMSIS/DSP/Source/TransformFunctions/arm_cfft_radix4_f32.c ****          ia1 = ia1 + twidCoefModifier;
 510:./Libraries/CMSIS/DSP/Source/TransformFunctions/arm_cfft_radix4_f32.c **** 
 511:./Libraries/CMSIS/DSP/Source/TransformFunctions/arm_cfft_radix4_f32.c ****          i0 = j;
 122              		.loc 1 511 13 view .LVU29
 123 0064 4746     		mov	r7, r8
 124 0066 03EBC802 		add	r2, r3, r8, lsl #3
 125 006a 019C     		ldr	r4, [sp, #4]
 126 006c 079B     		ldr	r3, [sp, #28]
 503:./Libraries/CMSIS/DSP/Source/TransformFunctions/arm_cfft_radix4_f32.c ****          si2 = pCoef[(ia2 * 2U) + 1U];
 127              		.loc 1 503 14 view .LVU30
 128 006e 50ED012A 		vldr.32	s5, [r0, #-4]
 129 0072 261F     		subs	r6, r4, #4
 504:./Libraries/CMSIS/DSP/Source/TransformFunctions/arm_cfft_radix4_f32.c ****          si2 = pCoef[(ia2 * 2U) + 1U];
 130              		.loc 1 504 14 view .LVU31
 131 0074 90ED003A 		vldr.32	s6, [r0]
 132 0078 7344     		add	r3, r3, lr
 501:./Libraries/CMSIS/DSP/Source/TransformFunctions/arm_cfft_radix4_f32.c ****          si1 = pCoef[(ia1 * 2U) + 1U];
 133              		.loc 1 501 14 view .LVU32
 134 007a 5BED011A 		vldr.32	s3, [fp, #-4]
 135              	.LVL6:
 502:./Libraries/CMSIS/DSP/Source/TransformFunctions/arm_cfft_radix4_f32.c ****          co2 = pCoef[ia2 * 2U];
 136              		.loc 1 502 10 is_stmt 1 view .LVU33
 506:./Libraries/CMSIS/DSP/Source/TransformFunctions/arm_cfft_radix4_f32.c **** 
 137              		.loc 1 506 14 is_stmt 0 view .LVU34
 138 007e 7046     		mov	r0, lr
 502:./Libraries/CMSIS/DSP/Source/TransformFunctions/arm_cfft_radix4_f32.c ****          co2 = pCoef[ia2 * 2U];
 139              		.loc 1 502 14 view .LVU35
 140 0080 9BED002A 		vldr.32	s4, [fp]
 141              	.LVL7:
 503:./Libraries/CMSIS/DSP/Source/TransformFunctions/arm_cfft_radix4_f32.c ****          si2 = pCoef[(ia2 * 2U) + 1U];
 142              		.loc 1 503 10 is_stmt 1 view .LVU36
 504:./Libraries/CMSIS/DSP/Source/TransformFunctions/arm_cfft_radix4_f32.c ****          co3 = pCoef[ia3 * 2U];
 143              		.loc 1 504 10 view .LVU37
 505:./Libraries/CMSIS/DSP/Source/TransformFunctions/arm_cfft_radix4_f32.c ****          si3 = pCoef[(ia3 * 2U) + 1U];
 144              		.loc 1 505 10 view .LVU38
 505:./Libraries/CMSIS/DSP/Source/TransformFunctions/arm_cfft_radix4_f32.c ****          si3 = pCoef[(ia3 * 2U) + 1U];
 145              		.loc 1 505 14 is_stmt 0 view .LVU39
 146 0084 5AED013A 		vldr.32	s7, [r10, #-4]
 147              	.LVL8:
 506:./Libraries/CMSIS/DSP/Source/TransformFunctions/arm_cfft_radix4_f32.c **** 
 148              		.loc 1 506 10 is_stmt 1 view .LVU40
 506:./Libraries/CMSIS/DSP/Source/TransformFunctions/arm_cfft_radix4_f32.c **** 
 149              		.loc 1 506 14 is_stmt 0 view .LVU41
 150 0088 9AED004A 		vldr.32	s8, [r10]
 151              	.LVL9:
 509:./Libraries/CMSIS/DSP/Source/TransformFunctions/arm_cfft_radix4_f32.c **** 
 152              		.loc 1 509 10 is_stmt 1 view .LVU42
 153              		.loc 1 511 10 view .LVU43
 154              	.L3:
 512:./Libraries/CMSIS/DSP/Source/TransformFunctions/arm_cfft_radix4_f32.c ****          do
ARM GAS  /tmp/ccWpuuii.s 			page 13


 155              		.loc 1 512 10 discriminator 1 view .LVU44
 513:./Libraries/CMSIS/DSP/Source/TransformFunctions/arm_cfft_radix4_f32.c ****          {
 514:./Libraries/CMSIS/DSP/Source/TransformFunctions/arm_cfft_radix4_f32.c ****             /*  index calculation for the input as, */
 515:./Libraries/CMSIS/DSP/Source/TransformFunctions/arm_cfft_radix4_f32.c ****             /*  pSrc[i0 + 0], pSrc[i0 + fftLen/4], pSrc[i0 + fftLen/2], pSrc[i0 + 3fftLen/4] */
 516:./Libraries/CMSIS/DSP/Source/TransformFunctions/arm_cfft_radix4_f32.c ****             i1 = i0 + n2;
 156              		.loc 1 516 13 discriminator 1 view .LVU45
 517:./Libraries/CMSIS/DSP/Source/TransformFunctions/arm_cfft_radix4_f32.c ****             i2 = i1 + n2;
 157              		.loc 1 517 13 discriminator 1 view .LVU46
 518:./Libraries/CMSIS/DSP/Source/TransformFunctions/arm_cfft_radix4_f32.c ****             i3 = i2 + n2;
 158              		.loc 1 518 13 discriminator 1 view .LVU47
 519:./Libraries/CMSIS/DSP/Source/TransformFunctions/arm_cfft_radix4_f32.c **** 
 520:./Libraries/CMSIS/DSP/Source/TransformFunctions/arm_cfft_radix4_f32.c ****             /* xa + xc */
 521:./Libraries/CMSIS/DSP/Source/TransformFunctions/arm_cfft_radix4_f32.c ****             r1 = pSrc[(2U * i0)] + pSrc[(2U * i2)];
 159              		.loc 1 521 13 discriminator 1 view .LVU48
 160              		.loc 1 521 40 is_stmt 0 discriminator 1 view .LVU49
 161 008c D3ED007A 		vldr.32	s15, [r3]
 522:./Libraries/CMSIS/DSP/Source/TransformFunctions/arm_cfft_radix4_f32.c **** 
 523:./Libraries/CMSIS/DSP/Source/TransformFunctions/arm_cfft_radix4_f32.c ****             /* xa - xc */
 524:./Libraries/CMSIS/DSP/Source/TransformFunctions/arm_cfft_radix4_f32.c ****             r2 = pSrc[(2U * i0)] - pSrc[(2U * i2)];
 525:./Libraries/CMSIS/DSP/Source/TransformFunctions/arm_cfft_radix4_f32.c **** 
 526:./Libraries/CMSIS/DSP/Source/TransformFunctions/arm_cfft_radix4_f32.c ****             /* ya + yc */
 527:./Libraries/CMSIS/DSP/Source/TransformFunctions/arm_cfft_radix4_f32.c ****             s1 = pSrc[(2U * i0) + 1U] + pSrc[(2U * i2) + 1U];
 528:./Libraries/CMSIS/DSP/Source/TransformFunctions/arm_cfft_radix4_f32.c **** 
 529:./Libraries/CMSIS/DSP/Source/TransformFunctions/arm_cfft_radix4_f32.c ****             /* ya - yc */
 530:./Libraries/CMSIS/DSP/Source/TransformFunctions/arm_cfft_radix4_f32.c ****             s2 = pSrc[(2U * i0) + 1U] - pSrc[(2U * i2) + 1U];
 531:./Libraries/CMSIS/DSP/Source/TransformFunctions/arm_cfft_radix4_f32.c **** 
 532:./Libraries/CMSIS/DSP/Source/TransformFunctions/arm_cfft_radix4_f32.c ****             /* xb + xd */
 533:./Libraries/CMSIS/DSP/Source/TransformFunctions/arm_cfft_radix4_f32.c ****             t1 = pSrc[2U * i1] + pSrc[2U * i3];
 534:./Libraries/CMSIS/DSP/Source/TransformFunctions/arm_cfft_radix4_f32.c **** 
 535:./Libraries/CMSIS/DSP/Source/TransformFunctions/arm_cfft_radix4_f32.c ****             /* xa' = xa + xb + xc + xd */
 536:./Libraries/CMSIS/DSP/Source/TransformFunctions/arm_cfft_radix4_f32.c ****             pSrc[2U * i0] = r1 + t1;
 537:./Libraries/CMSIS/DSP/Source/TransformFunctions/arm_cfft_radix4_f32.c **** 
 538:./Libraries/CMSIS/DSP/Source/TransformFunctions/arm_cfft_radix4_f32.c ****             /* xa + xc -(xb + xd) */
 539:./Libraries/CMSIS/DSP/Source/TransformFunctions/arm_cfft_radix4_f32.c ****             r1 = r1 - t1;
 540:./Libraries/CMSIS/DSP/Source/TransformFunctions/arm_cfft_radix4_f32.c **** 
 541:./Libraries/CMSIS/DSP/Source/TransformFunctions/arm_cfft_radix4_f32.c ****             /* yb + yd */
 542:./Libraries/CMSIS/DSP/Source/TransformFunctions/arm_cfft_radix4_f32.c ****             t2 = pSrc[(2U * i1) + 1U] + pSrc[(2U * i3) + 1U];
 543:./Libraries/CMSIS/DSP/Source/TransformFunctions/arm_cfft_radix4_f32.c **** 
 544:./Libraries/CMSIS/DSP/Source/TransformFunctions/arm_cfft_radix4_f32.c ****             /* ya' = ya + yb + yc + yd */
 545:./Libraries/CMSIS/DSP/Source/TransformFunctions/arm_cfft_radix4_f32.c ****             pSrc[(2U * i0) + 1U] = s1 + t2;
 546:./Libraries/CMSIS/DSP/Source/TransformFunctions/arm_cfft_radix4_f32.c **** 
 547:./Libraries/CMSIS/DSP/Source/TransformFunctions/arm_cfft_radix4_f32.c ****             /* (ya + yc) - (yb + yd) */
 548:./Libraries/CMSIS/DSP/Source/TransformFunctions/arm_cfft_radix4_f32.c ****             s1 = s1 - t2;
 549:./Libraries/CMSIS/DSP/Source/TransformFunctions/arm_cfft_radix4_f32.c **** 
 550:./Libraries/CMSIS/DSP/Source/TransformFunctions/arm_cfft_radix4_f32.c ****             /* (yb - yd) */
 551:./Libraries/CMSIS/DSP/Source/TransformFunctions/arm_cfft_radix4_f32.c ****             t1 = pSrc[(2U * i1) + 1U] - pSrc[(2U * i3) + 1U];
 552:./Libraries/CMSIS/DSP/Source/TransformFunctions/arm_cfft_radix4_f32.c **** 
 553:./Libraries/CMSIS/DSP/Source/TransformFunctions/arm_cfft_radix4_f32.c ****             /* (xb - xd) */
 554:./Libraries/CMSIS/DSP/Source/TransformFunctions/arm_cfft_radix4_f32.c ****             t2 = pSrc[2U * i1] - pSrc[2U * i3];
 555:./Libraries/CMSIS/DSP/Source/TransformFunctions/arm_cfft_radix4_f32.c **** 
 556:./Libraries/CMSIS/DSP/Source/TransformFunctions/arm_cfft_radix4_f32.c ****             /* xc' = (xa-xb+xc-xd)co2 + (ya-yb+yc-yd)(si2) */
 557:./Libraries/CMSIS/DSP/Source/TransformFunctions/arm_cfft_radix4_f32.c ****             pSrc[2U * i1] = (r1 * co2) + (s1 * si2);
 558:./Libraries/CMSIS/DSP/Source/TransformFunctions/arm_cfft_radix4_f32.c **** 
 559:./Libraries/CMSIS/DSP/Source/TransformFunctions/arm_cfft_radix4_f32.c ****             /* yc' = (ya-yb+yc-yd)co2 - (xa-xb+xc-xd)(si2) */
 560:./Libraries/CMSIS/DSP/Source/TransformFunctions/arm_cfft_radix4_f32.c ****             pSrc[(2U * i1) + 1U] = (s1 * co2) - (r1 * si2);
 561:./Libraries/CMSIS/DSP/Source/TransformFunctions/arm_cfft_radix4_f32.c **** 
 562:./Libraries/CMSIS/DSP/Source/TransformFunctions/arm_cfft_radix4_f32.c ****             /* (xa - xc) + (yb - yd) */
ARM GAS  /tmp/ccWpuuii.s 			page 14


 563:./Libraries/CMSIS/DSP/Source/TransformFunctions/arm_cfft_radix4_f32.c ****             r1 = r2 + t1;
 564:./Libraries/CMSIS/DSP/Source/TransformFunctions/arm_cfft_radix4_f32.c **** 
 565:./Libraries/CMSIS/DSP/Source/TransformFunctions/arm_cfft_radix4_f32.c ****             /* (xa - xc) - (yb - yd) */
 566:./Libraries/CMSIS/DSP/Source/TransformFunctions/arm_cfft_radix4_f32.c ****             r2 = r2 - t1;
 567:./Libraries/CMSIS/DSP/Source/TransformFunctions/arm_cfft_radix4_f32.c **** 
 568:./Libraries/CMSIS/DSP/Source/TransformFunctions/arm_cfft_radix4_f32.c ****             /* (ya - yc) -  (xb - xd) */
 569:./Libraries/CMSIS/DSP/Source/TransformFunctions/arm_cfft_radix4_f32.c ****             s1 = s2 - t2;
 570:./Libraries/CMSIS/DSP/Source/TransformFunctions/arm_cfft_radix4_f32.c **** 
 571:./Libraries/CMSIS/DSP/Source/TransformFunctions/arm_cfft_radix4_f32.c ****             /* (ya - yc) +  (xb - xd) */
 572:./Libraries/CMSIS/DSP/Source/TransformFunctions/arm_cfft_radix4_f32.c ****             s2 = s2 + t2;
 573:./Libraries/CMSIS/DSP/Source/TransformFunctions/arm_cfft_radix4_f32.c **** 
 574:./Libraries/CMSIS/DSP/Source/TransformFunctions/arm_cfft_radix4_f32.c ****             /* xb' = (xa+yb-xc-yd)co1 + (ya-xb-yc+xd)(si1) */
 575:./Libraries/CMSIS/DSP/Source/TransformFunctions/arm_cfft_radix4_f32.c ****             pSrc[2U * i2] = (r1 * co1) + (s1 * si1);
 576:./Libraries/CMSIS/DSP/Source/TransformFunctions/arm_cfft_radix4_f32.c **** 
 577:./Libraries/CMSIS/DSP/Source/TransformFunctions/arm_cfft_radix4_f32.c ****             /* yb' = (ya-xb-yc+xd)co1 - (xa+yb-xc-yd)(si1) */
 578:./Libraries/CMSIS/DSP/Source/TransformFunctions/arm_cfft_radix4_f32.c ****             pSrc[(2U * i2) + 1U] = (s1 * co1) - (r1 * si1);
 579:./Libraries/CMSIS/DSP/Source/TransformFunctions/arm_cfft_radix4_f32.c **** 
 580:./Libraries/CMSIS/DSP/Source/TransformFunctions/arm_cfft_radix4_f32.c ****             /* xd' = (xa-yb-xc+yd)co3 + (ya+xb-yc-xd)(si3) */
 581:./Libraries/CMSIS/DSP/Source/TransformFunctions/arm_cfft_radix4_f32.c ****             pSrc[2U * i3] = (r2 * co3) + (s2 * si3);
 582:./Libraries/CMSIS/DSP/Source/TransformFunctions/arm_cfft_radix4_f32.c **** 
 583:./Libraries/CMSIS/DSP/Source/TransformFunctions/arm_cfft_radix4_f32.c ****             /* yd' = (ya+xb-yc-xd)co3 - (xa-yb-xc+yd)(si3) */
 584:./Libraries/CMSIS/DSP/Source/TransformFunctions/arm_cfft_radix4_f32.c ****             pSrc[(2U * i3) + 1U] = (s2 * co3) - (r2 * si3);
 585:./Libraries/CMSIS/DSP/Source/TransformFunctions/arm_cfft_radix4_f32.c **** 
 586:./Libraries/CMSIS/DSP/Source/TransformFunctions/arm_cfft_radix4_f32.c ****             i0 += n1;
 162              		.loc 1 586 16 discriminator 1 view .LVU50
 163 0090 6744     		add	r7, r7, ip
 164              	.LVL10:
 533:./Libraries/CMSIS/DSP/Source/TransformFunctions/arm_cfft_radix4_f32.c **** 
 165              		.loc 1 533 16 discriminator 1 view .LVU51
 166 0092 15ED016A 		vldr.32	s12, [r5, #-4]
 521:./Libraries/CMSIS/DSP/Source/TransformFunctions/arm_cfft_radix4_f32.c **** 
 167              		.loc 1 521 22 discriminator 1 view .LVU52
 168 0096 92ED007A 		vldr.32	s14, [r2]
 587:./Libraries/CMSIS/DSP/Source/TransformFunctions/arm_cfft_radix4_f32.c ****          } while ( i0 < fftLen);
 169              		.loc 1 587 10 discriminator 1 view .LVU53
 170 009a B945     		cmp	r9, r7
 533:./Libraries/CMSIS/DSP/Source/TransformFunctions/arm_cfft_radix4_f32.c **** 
 171              		.loc 1 533 16 discriminator 1 view .LVU54
 172 009c 54ED015A 		vldr.32	s11, [r4, #-4]
 521:./Libraries/CMSIS/DSP/Source/TransformFunctions/arm_cfft_radix4_f32.c **** 
 173              		.loc 1 521 16 discriminator 1 view .LVU55
 174 00a0 77EE276A 		vadd.f32	s13, s14, s15
 175              	.LVL11:
 524:./Libraries/CMSIS/DSP/Source/TransformFunctions/arm_cfft_radix4_f32.c **** 
 176              		.loc 1 524 13 is_stmt 1 discriminator 1 view .LVU56
 527:./Libraries/CMSIS/DSP/Source/TransformFunctions/arm_cfft_radix4_f32.c **** 
 177              		.loc 1 527 45 is_stmt 0 discriminator 1 view .LVU57
 178 00a4 93ED015A 		vldr.32	s10, [r3, #4]
 533:./Libraries/CMSIS/DSP/Source/TransformFunctions/arm_cfft_radix4_f32.c **** 
 179              		.loc 1 533 16 discriminator 1 view .LVU58
 180 00a8 75EE865A 		vadd.f32	s11, s11, s12
 524:./Libraries/CMSIS/DSP/Source/TransformFunctions/arm_cfft_radix4_f32.c **** 
 181              		.loc 1 524 16 discriminator 1 view .LVU59
 182 00ac 37EE677A 		vsub.f32	s14, s14, s15
 183              	.LVL12:
 527:./Libraries/CMSIS/DSP/Source/TransformFunctions/arm_cfft_radix4_f32.c **** 
 184              		.loc 1 527 13 is_stmt 1 discriminator 1 view .LVU60
ARM GAS  /tmp/ccWpuuii.s 			page 15


 527:./Libraries/CMSIS/DSP/Source/TransformFunctions/arm_cfft_radix4_f32.c **** 
 185              		.loc 1 527 22 is_stmt 0 discriminator 1 view .LVU61
 186 00b0 D2ED017A 		vldr.32	s15, [r2, #4]
 536:./Libraries/CMSIS/DSP/Source/TransformFunctions/arm_cfft_radix4_f32.c **** 
 187              		.loc 1 536 32 discriminator 1 view .LVU62
 188 00b4 76EEA54A 		vadd.f32	s9, s13, s11
 527:./Libraries/CMSIS/DSP/Source/TransformFunctions/arm_cfft_radix4_f32.c **** 
 189              		.loc 1 527 16 discriminator 1 view .LVU63
 190 00b8 37EE856A 		vadd.f32	s12, s15, s10
 191              	.LVL13:
 530:./Libraries/CMSIS/DSP/Source/TransformFunctions/arm_cfft_radix4_f32.c **** 
 192              		.loc 1 530 13 is_stmt 1 discriminator 1 view .LVU64
 539:./Libraries/CMSIS/DSP/Source/TransformFunctions/arm_cfft_radix4_f32.c **** 
 193              		.loc 1 539 16 is_stmt 0 discriminator 1 view .LVU65
 194 00bc 76EEE56A 		vsub.f32	s13, s13, s11
 195              	.LVL14:
 536:./Libraries/CMSIS/DSP/Source/TransformFunctions/arm_cfft_radix4_f32.c **** 
 196              		.loc 1 536 27 discriminator 1 view .LVU66
 197 00c0 C2ED004A 		vstr.32	s9, [r2]
 198              	.LVL15:
 530:./Libraries/CMSIS/DSP/Source/TransformFunctions/arm_cfft_radix4_f32.c **** 
 199              		.loc 1 530 16 discriminator 1 view .LVU67
 200 00c4 77EEC57A 		vsub.f32	s15, s15, s10
 201              	.LVL16:
 533:./Libraries/CMSIS/DSP/Source/TransformFunctions/arm_cfft_radix4_f32.c **** 
 202              		.loc 1 533 13 is_stmt 1 discriminator 1 view .LVU68
 536:./Libraries/CMSIS/DSP/Source/TransformFunctions/arm_cfft_radix4_f32.c **** 
 203              		.loc 1 536 13 discriminator 1 view .LVU69
 539:./Libraries/CMSIS/DSP/Source/TransformFunctions/arm_cfft_radix4_f32.c **** 
 204              		.loc 1 539 13 discriminator 1 view .LVU70
 542:./Libraries/CMSIS/DSP/Source/TransformFunctions/arm_cfft_radix4_f32.c **** 
 205              		.loc 1 542 13 discriminator 1 view .LVU71
 542:./Libraries/CMSIS/DSP/Source/TransformFunctions/arm_cfft_radix4_f32.c **** 
 206              		.loc 1 542 16 is_stmt 0 discriminator 1 view .LVU72
 207 00c8 D6ED015A 		vldr.32	s11, [r6, #4]
 208              	.LVL17:
 542:./Libraries/CMSIS/DSP/Source/TransformFunctions/arm_cfft_radix4_f32.c **** 
 209              		.loc 1 542 16 discriminator 1 view .LVU73
 210 00cc 90ED015A 		vldr.32	s10, [r0, #4]
 560:./Libraries/CMSIS/DSP/Source/TransformFunctions/arm_cfft_radix4_f32.c **** 
 211              		.loc 1 560 47 discriminator 1 view .LVU74
 212 00d0 66EEC34A 		vnmul.f32	s9, s13, s6
 542:./Libraries/CMSIS/DSP/Source/TransformFunctions/arm_cfft_radix4_f32.c **** 
 213              		.loc 1 542 16 discriminator 1 view .LVU75
 214 00d4 75EE855A 		vadd.f32	s11, s11, s10
 215              	.LVL18:
 545:./Libraries/CMSIS/DSP/Source/TransformFunctions/arm_cfft_radix4_f32.c **** 
 216              		.loc 1 545 13 is_stmt 1 discriminator 1 view .LVU76
 545:./Libraries/CMSIS/DSP/Source/TransformFunctions/arm_cfft_radix4_f32.c **** 
 217              		.loc 1 545 39 is_stmt 0 discriminator 1 view .LVU77
 218 00d8 36EE255A 		vadd.f32	s10, s12, s11
 548:./Libraries/CMSIS/DSP/Source/TransformFunctions/arm_cfft_radix4_f32.c **** 
 219              		.loc 1 548 16 discriminator 1 view .LVU78
 220 00dc 36EE656A 		vsub.f32	s12, s12, s11
 221              	.LVL19:
 545:./Libraries/CMSIS/DSP/Source/TransformFunctions/arm_cfft_radix4_f32.c **** 
 222              		.loc 1 545 34 discriminator 1 view .LVU79
ARM GAS  /tmp/ccWpuuii.s 			page 16


 223 00e0 82ED015A 		vstr.32	s10, [r2, #4]
 548:./Libraries/CMSIS/DSP/Source/TransformFunctions/arm_cfft_radix4_f32.c **** 
 224              		.loc 1 548 13 is_stmt 1 discriminator 1 view .LVU80
 225              	.LVL20:
 551:./Libraries/CMSIS/DSP/Source/TransformFunctions/arm_cfft_radix4_f32.c **** 
 226              		.loc 1 551 13 discriminator 1 view .LVU81
 227 00e4 0A44     		add	r2, r2, r1
 557:./Libraries/CMSIS/DSP/Source/TransformFunctions/arm_cfft_radix4_f32.c **** 
 228              		.loc 1 557 46 is_stmt 0 discriminator 1 view .LVU82
 229 00e6 23EE061A 		vmul.f32	s2, s6, s12
 551:./Libraries/CMSIS/DSP/Source/TransformFunctions/arm_cfft_radix4_f32.c **** 
 230              		.loc 1 551 16 discriminator 1 view .LVU83
 231 00ea D0ED010A 		vldr.32	s1, [r0, #4]
 554:./Libraries/CMSIS/DSP/Source/TransformFunctions/arm_cfft_radix4_f32.c **** 
 232              		.loc 1 554 16 discriminator 1 view .LVU84
 233 00ee 15ED015A 		vldr.32	s10, [r5, #-4]
 560:./Libraries/CMSIS/DSP/Source/TransformFunctions/arm_cfft_radix4_f32.c **** 
 234              		.loc 1 560 47 discriminator 1 view .LVU85
 235 00f2 E2EE864A 		vfma.f32	s9, s5, s12
 551:./Libraries/CMSIS/DSP/Source/TransformFunctions/arm_cfft_radix4_f32.c **** 
 236              		.loc 1 551 16 discriminator 1 view .LVU86
 237 00f6 D6ED015A 		vldr.32	s11, [r6, #4]
 238              	.LVL21:
 554:./Libraries/CMSIS/DSP/Source/TransformFunctions/arm_cfft_radix4_f32.c **** 
 239              		.loc 1 554 16 discriminator 1 view .LVU87
 240 00fa 14ED016A 		vldr.32	s12, [r4, #-4]
 241              	.LVL22:
 557:./Libraries/CMSIS/DSP/Source/TransformFunctions/arm_cfft_radix4_f32.c **** 
 242              		.loc 1 557 40 discriminator 1 view .LVU88
 243 00fe A2EEA61A 		vfma.f32	s2, s5, s13
 551:./Libraries/CMSIS/DSP/Source/TransformFunctions/arm_cfft_radix4_f32.c **** 
 244              		.loc 1 551 16 discriminator 1 view .LVU89
 245 0102 75EEE05A 		vsub.f32	s11, s11, s1
 246              	.LVL23:
 554:./Libraries/CMSIS/DSP/Source/TransformFunctions/arm_cfft_radix4_f32.c **** 
 247              		.loc 1 554 13 is_stmt 1 discriminator 1 view .LVU90
 554:./Libraries/CMSIS/DSP/Source/TransformFunctions/arm_cfft_radix4_f32.c **** 
 248              		.loc 1 554 16 is_stmt 0 discriminator 1 view .LVU91
 249 0106 76EE456A 		vsub.f32	s13, s12, s10
 250              	.LVL24:
 557:./Libraries/CMSIS/DSP/Source/TransformFunctions/arm_cfft_radix4_f32.c **** 
 251              		.loc 1 557 13 is_stmt 1 discriminator 1 view .LVU92
 563:./Libraries/CMSIS/DSP/Source/TransformFunctions/arm_cfft_radix4_f32.c **** 
 252              		.loc 1 563 16 is_stmt 0 discriminator 1 view .LVU93
 253 010a 77EE250A 		vadd.f32	s1, s14, s11
 569:./Libraries/CMSIS/DSP/Source/TransformFunctions/arm_cfft_radix4_f32.c **** 
 254              		.loc 1 569 16 discriminator 1 view .LVU94
 255 010e 37EEE60A 		vsub.f32	s0, s15, s13
 566:./Libraries/CMSIS/DSP/Source/TransformFunctions/arm_cfft_radix4_f32.c **** 
 256              		.loc 1 566 16 discriminator 1 view .LVU95
 257 0112 37EE657A 		vsub.f32	s14, s14, s11
 258              	.LVL25:
 557:./Libraries/CMSIS/DSP/Source/TransformFunctions/arm_cfft_radix4_f32.c **** 
 259              		.loc 1 557 27 discriminator 1 view .LVU96
 260 0116 04ED011A 		vstr.32	s2, [r4, #-4]
 560:./Libraries/CMSIS/DSP/Source/TransformFunctions/arm_cfft_radix4_f32.c **** 
 261              		.loc 1 560 13 is_stmt 1 discriminator 1 view .LVU97
ARM GAS  /tmp/ccWpuuii.s 			page 17


 572:./Libraries/CMSIS/DSP/Source/TransformFunctions/arm_cfft_radix4_f32.c **** 
 262              		.loc 1 572 16 is_stmt 0 discriminator 1 view .LVU98
 263 011a 77EEA67A 		vadd.f32	s15, s15, s13
 264              	.LVL26:
 560:./Libraries/CMSIS/DSP/Source/TransformFunctions/arm_cfft_radix4_f32.c **** 
 265              		.loc 1 560 34 discriminator 1 view .LVU99
 266 011e C6ED014A 		vstr.32	s9, [r6, #4]
 563:./Libraries/CMSIS/DSP/Source/TransformFunctions/arm_cfft_radix4_f32.c **** 
 267              		.loc 1 563 13 is_stmt 1 discriminator 1 view .LVU100
 268              	.LVL27:
 566:./Libraries/CMSIS/DSP/Source/TransformFunctions/arm_cfft_radix4_f32.c **** 
 269              		.loc 1 566 13 discriminator 1 view .LVU101
 569:./Libraries/CMSIS/DSP/Source/TransformFunctions/arm_cfft_radix4_f32.c **** 
 270              		.loc 1 569 13 discriminator 1 view .LVU102
 572:./Libraries/CMSIS/DSP/Source/TransformFunctions/arm_cfft_radix4_f32.c **** 
 271              		.loc 1 572 13 discriminator 1 view .LVU103
 575:./Libraries/CMSIS/DSP/Source/TransformFunctions/arm_cfft_radix4_f32.c **** 
 272              		.loc 1 575 13 discriminator 1 view .LVU104
 578:./Libraries/CMSIS/DSP/Source/TransformFunctions/arm_cfft_radix4_f32.c **** 
 273              		.loc 1 578 47 is_stmt 0 discriminator 1 view .LVU105
 274 0122 20EEC25A 		vnmul.f32	s10, s1, s4
 275 0126 0E44     		add	r6, r6, r1
 575:./Libraries/CMSIS/DSP/Source/TransformFunctions/arm_cfft_radix4_f32.c **** 
 276              		.loc 1 575 46 discriminator 1 view .LVU106
 277 0128 62EE005A 		vmul.f32	s11, s4, s0
 278              	.LVL28:
 575:./Libraries/CMSIS/DSP/Source/TransformFunctions/arm_cfft_radix4_f32.c **** 
 279              		.loc 1 575 46 discriminator 1 view .LVU107
 280 012c 0C44     		add	r4, r4, r1
 581:./Libraries/CMSIS/DSP/Source/TransformFunctions/arm_cfft_radix4_f32.c **** 
 281              		.loc 1 581 46 discriminator 1 view .LVU108
 282 012e 24EE276A 		vmul.f32	s12, s8, s15
 584:./Libraries/CMSIS/DSP/Source/TransformFunctions/arm_cfft_radix4_f32.c **** 
 283              		.loc 1 584 47 discriminator 1 view .LVU109
 284 0132 67EE446A 		vnmul.f32	s13, s14, s8
 285              	.LVL29:
 578:./Libraries/CMSIS/DSP/Source/TransformFunctions/arm_cfft_radix4_f32.c **** 
 286              		.loc 1 578 47 discriminator 1 view .LVU110
 287 0136 A1EE805A 		vfma.f32	s10, s3, s0
 575:./Libraries/CMSIS/DSP/Source/TransformFunctions/arm_cfft_radix4_f32.c **** 
 288              		.loc 1 575 40 discriminator 1 view .LVU111
 289 013a E1EEA05A 		vfma.f32	s11, s3, s1
 581:./Libraries/CMSIS/DSP/Source/TransformFunctions/arm_cfft_radix4_f32.c **** 
 290              		.loc 1 581 40 discriminator 1 view .LVU112
 291 013e A3EE876A 		vfma.f32	s12, s7, s14
 584:./Libraries/CMSIS/DSP/Source/TransformFunctions/arm_cfft_radix4_f32.c **** 
 292              		.loc 1 584 47 discriminator 1 view .LVU113
 293 0142 E3EEA76A 		vfma.f32	s13, s7, s15
 578:./Libraries/CMSIS/DSP/Source/TransformFunctions/arm_cfft_radix4_f32.c **** 
 294              		.loc 1 578 34 discriminator 1 view .LVU114
 295 0146 83ED015A 		vstr.32	s10, [r3, #4]
 575:./Libraries/CMSIS/DSP/Source/TransformFunctions/arm_cfft_radix4_f32.c **** 
 296              		.loc 1 575 27 discriminator 1 view .LVU115
 297 014a C3ED005A 		vstr.32	s11, [r3]
 578:./Libraries/CMSIS/DSP/Source/TransformFunctions/arm_cfft_radix4_f32.c **** 
 298              		.loc 1 578 13 is_stmt 1 discriminator 1 view .LVU116
 581:./Libraries/CMSIS/DSP/Source/TransformFunctions/arm_cfft_radix4_f32.c **** 
ARM GAS  /tmp/ccWpuuii.s 			page 18


 299              		.loc 1 581 13 discriminator 1 view .LVU117
 300 014e 0B44     		add	r3, r3, r1
 581:./Libraries/CMSIS/DSP/Source/TransformFunctions/arm_cfft_radix4_f32.c **** 
 301              		.loc 1 581 27 is_stmt 0 discriminator 1 view .LVU118
 302 0150 05ED016A 		vstr.32	s12, [r5, #-4]
 584:./Libraries/CMSIS/DSP/Source/TransformFunctions/arm_cfft_radix4_f32.c **** 
 303              		.loc 1 584 13 is_stmt 1 discriminator 1 view .LVU119
 304 0154 0D44     		add	r5, r5, r1
 584:./Libraries/CMSIS/DSP/Source/TransformFunctions/arm_cfft_radix4_f32.c **** 
 305              		.loc 1 584 34 is_stmt 0 discriminator 1 view .LVU120
 306 0156 C0ED016A 		vstr.32	s13, [r0, #4]
 586:./Libraries/CMSIS/DSP/Source/TransformFunctions/arm_cfft_radix4_f32.c ****          } while ( i0 < fftLen);
 307              		.loc 1 586 13 is_stmt 1 discriminator 1 view .LVU121
 308              	.LVL30:
 309              		.loc 1 587 18 discriminator 1 view .LVU122
 310 015a 0844     		add	r0, r0, r1
 311              		.loc 1 587 10 is_stmt 0 discriminator 1 view .LVU123
 312 015c 96D8     		bhi	.L3
 588:./Libraries/CMSIS/DSP/Source/TransformFunctions/arm_cfft_radix4_f32.c ****          j++;
 313              		.loc 1 588 10 is_stmt 1 view .LVU124
 314 015e 019B     		ldr	r3, [sp, #4]
 315              		.loc 1 588 11 is_stmt 0 view .LVU125
 316 0160 08F10108 		add	r8, r8, #1
 317              	.LVL31:
 589:./Libraries/CMSIS/DSP/Source/TransformFunctions/arm_cfft_radix4_f32.c ****       } while (j <= (n2 - 1U));
 318              		.loc 1 589 15 is_stmt 1 view .LVU126
 319 0164 049A     		ldr	r2, [sp, #16]
 320 0166 0EF1080E 		add	lr, lr, #8
 321 016a 0833     		adds	r3, r3, #8
 322 016c 0193     		str	r3, [sp, #4]
 323 016e 059B     		ldr	r3, [sp, #20]
 324 0170 9B44     		add	fp, fp, r3
 325 0172 009B     		ldr	r3, [sp]
 326 0174 1344     		add	r3, r3, r2
 327 0176 0093     		str	r3, [sp]
 328 0178 069B     		ldr	r3, [sp, #24]
 329 017a 9A44     		add	r10, r10, r3
 330              		.loc 1 589 7 is_stmt 0 view .LVU127
 331 017c 029B     		ldr	r3, [sp, #8]
 332 017e 4345     		cmp	r3, r8
 333 0180 7FF46CAF 		bne	.L4
 590:./Libraries/CMSIS/DSP/Source/TransformFunctions/arm_cfft_radix4_f32.c ****       twidCoefModifier <<= 2U;
 334              		.loc 1 590 7 is_stmt 1 discriminator 2 view .LVU128
 335              		.loc 1 590 24 is_stmt 0 discriminator 2 view .LVU129
 336 0184 089B     		ldr	r3, [sp, #32]
 337 0186 9B00     		lsls	r3, r3, #2
 338 0188 9BB2     		uxth	r3, r3
 339 018a 0893     		str	r3, [sp, #32]
 340              	.LVL32:
 487:./Libraries/CMSIS/DSP/Source/TransformFunctions/arm_cfft_radix4_f32.c ****    {
 341              		.loc 1 487 29 is_stmt 1 discriminator 2 view .LVU130
 487:./Libraries/CMSIS/DSP/Source/TransformFunctions/arm_cfft_radix4_f32.c ****    {
 342              		.loc 1 487 21 discriminator 2 view .LVU131
 487:./Libraries/CMSIS/DSP/Source/TransformFunctions/arm_cfft_radix4_f32.c ****    {
 343              		.loc 1 487 4 is_stmt 0 discriminator 2 view .LVU132
 344 018c 029B     		ldr	r3, [sp, #8]
 345 018e 012B     		cmp	r3, #1
ARM GAS  /tmp/ccWpuuii.s 			page 19


 346 0190 7FF442AF 		bne	.L2
 347              	.LVL33:
 348              	.L1:
 591:./Libraries/CMSIS/DSP/Source/TransformFunctions/arm_cfft_radix4_f32.c ****    }
 592:./Libraries/CMSIS/DSP/Source/TransformFunctions/arm_cfft_radix4_f32.c **** 
 593:./Libraries/CMSIS/DSP/Source/TransformFunctions/arm_cfft_radix4_f32.c **** #endif /* #if defined (ARM_MATH_LOOPUNROLL) */
 594:./Libraries/CMSIS/DSP/Source/TransformFunctions/arm_cfft_radix4_f32.c **** 
 595:./Libraries/CMSIS/DSP/Source/TransformFunctions/arm_cfft_radix4_f32.c **** }
 349              		.loc 1 595 1 view .LVU133
 350 0194 0BB0     		add	sp, sp, #44
 351              	.LCFI2:
 352              		.cfi_def_cfa_offset 36
 353              		@ sp needed
 354 0196 BDE8F08F 		pop	{r4, r5, r6, r7, r8, r9, r10, fp, pc}
 355              		.loc 1 595 1 view .LVU134
 356              		.cfi_endproc
 357              	.LFE146:
 359 019a 00BF     		.section	.text.arm_radix4_butterfly_inverse_f32,"ax",%progbits
 360              		.align	1
 361              		.p2align 2,,3
 362              		.global	arm_radix4_butterfly_inverse_f32
 363              		.syntax unified
 364              		.thumb
 365              		.thumb_func
 366              		.fpu fpv5-d16
 368              	arm_radix4_butterfly_inverse_f32:
 369              	.LVL34:
 370              	.LFB147:
 596:./Libraries/CMSIS/DSP/Source/TransformFunctions/arm_cfft_radix4_f32.c **** 
 597:./Libraries/CMSIS/DSP/Source/TransformFunctions/arm_cfft_radix4_f32.c **** /**
 598:./Libraries/CMSIS/DSP/Source/TransformFunctions/arm_cfft_radix4_f32.c ****   brief         Core function for the floating-point CIFFT butterfly process.
 599:./Libraries/CMSIS/DSP/Source/TransformFunctions/arm_cfft_radix4_f32.c ****   param[in,out] pSrc             points to the in-place buffer of floating-point data type
 600:./Libraries/CMSIS/DSP/Source/TransformFunctions/arm_cfft_radix4_f32.c ****   param[in]     fftLen           length of the FFT
 601:./Libraries/CMSIS/DSP/Source/TransformFunctions/arm_cfft_radix4_f32.c ****   param[in]     pCoef            points to twiddle coefficient buffer
 602:./Libraries/CMSIS/DSP/Source/TransformFunctions/arm_cfft_radix4_f32.c ****   param[in]     twidCoefModifier twiddle coefficient modifier that supports different size FFTs wit
 603:./Libraries/CMSIS/DSP/Source/TransformFunctions/arm_cfft_radix4_f32.c ****   param[in]     onebyfftLen      value of 1/fftLen
 604:./Libraries/CMSIS/DSP/Source/TransformFunctions/arm_cfft_radix4_f32.c ****   return        none
 605:./Libraries/CMSIS/DSP/Source/TransformFunctions/arm_cfft_radix4_f32.c ****  */
 606:./Libraries/CMSIS/DSP/Source/TransformFunctions/arm_cfft_radix4_f32.c **** 
 607:./Libraries/CMSIS/DSP/Source/TransformFunctions/arm_cfft_radix4_f32.c **** void arm_radix4_butterfly_inverse_f32(
 608:./Libraries/CMSIS/DSP/Source/TransformFunctions/arm_cfft_radix4_f32.c ****         float32_t * pSrc,
 609:./Libraries/CMSIS/DSP/Source/TransformFunctions/arm_cfft_radix4_f32.c ****         uint16_t fftLen,
 610:./Libraries/CMSIS/DSP/Source/TransformFunctions/arm_cfft_radix4_f32.c ****   const float32_t * pCoef,
 611:./Libraries/CMSIS/DSP/Source/TransformFunctions/arm_cfft_radix4_f32.c ****         uint16_t twidCoefModifier,
 612:./Libraries/CMSIS/DSP/Source/TransformFunctions/arm_cfft_radix4_f32.c ****         float32_t onebyfftLen)
 613:./Libraries/CMSIS/DSP/Source/TransformFunctions/arm_cfft_radix4_f32.c **** {
 371              		.loc 1 613 1 is_stmt 1 view -0
 372              		.cfi_startproc
 373              		@ args = 0, pretend = 0, frame = 48
 374              		@ frame_needed = 0, uses_anonymous_args = 0
 614:./Libraries/CMSIS/DSP/Source/TransformFunctions/arm_cfft_radix4_f32.c ****         float32_t co1, co2, co3, si1, si2, si3;
 375              		.loc 1 614 9 view .LVU136
 615:./Libraries/CMSIS/DSP/Source/TransformFunctions/arm_cfft_radix4_f32.c ****         uint32_t ia1, ia2, ia3;
 376              		.loc 1 615 9 view .LVU137
 616:./Libraries/CMSIS/DSP/Source/TransformFunctions/arm_cfft_radix4_f32.c ****         uint32_t i0, i1, i2, i3;
 377              		.loc 1 616 9 view .LVU138
 617:./Libraries/CMSIS/DSP/Source/TransformFunctions/arm_cfft_radix4_f32.c ****         uint32_t n1, n2, j, k;
ARM GAS  /tmp/ccWpuuii.s 			page 20


 378              		.loc 1 617 9 view .LVU139
 618:./Libraries/CMSIS/DSP/Source/TransformFunctions/arm_cfft_radix4_f32.c **** 
 619:./Libraries/CMSIS/DSP/Source/TransformFunctions/arm_cfft_radix4_f32.c **** #if defined (ARM_MATH_LOOPUNROLL)
 620:./Libraries/CMSIS/DSP/Source/TransformFunctions/arm_cfft_radix4_f32.c **** 
 621:./Libraries/CMSIS/DSP/Source/TransformFunctions/arm_cfft_radix4_f32.c ****         float32_t xaIn, yaIn, xbIn, ybIn, xcIn, ycIn, xdIn, ydIn;
 622:./Libraries/CMSIS/DSP/Source/TransformFunctions/arm_cfft_radix4_f32.c ****         float32_t Xaplusc, Xbplusd, Yaplusc, Ybplusd, Xaminusc, Xbminusd, Yaminusc,
 623:./Libraries/CMSIS/DSP/Source/TransformFunctions/arm_cfft_radix4_f32.c ****         Ybminusd;
 624:./Libraries/CMSIS/DSP/Source/TransformFunctions/arm_cfft_radix4_f32.c ****         float32_t Xb12C_out, Yb12C_out, Xc12C_out, Yc12C_out, Xd12C_out, Yd12C_out;
 625:./Libraries/CMSIS/DSP/Source/TransformFunctions/arm_cfft_radix4_f32.c ****         float32_t Xb12_out, Yb12_out, Xc12_out, Yc12_out, Xd12_out, Yd12_out;
 626:./Libraries/CMSIS/DSP/Source/TransformFunctions/arm_cfft_radix4_f32.c ****         float32_t *ptr1;
 627:./Libraries/CMSIS/DSP/Source/TransformFunctions/arm_cfft_radix4_f32.c ****         float32_t p0,p1,p2,p3,p4,p5,p6,p7;
 628:./Libraries/CMSIS/DSP/Source/TransformFunctions/arm_cfft_radix4_f32.c ****         float32_t a0,a1,a2,a3,a4,a5,a6,a7;
 629:./Libraries/CMSIS/DSP/Source/TransformFunctions/arm_cfft_radix4_f32.c **** 
 630:./Libraries/CMSIS/DSP/Source/TransformFunctions/arm_cfft_radix4_f32.c **** 
 631:./Libraries/CMSIS/DSP/Source/TransformFunctions/arm_cfft_radix4_f32.c ****    /*  Initializations for the first stage */
 632:./Libraries/CMSIS/DSP/Source/TransformFunctions/arm_cfft_radix4_f32.c ****    n2 = fftLen;
 633:./Libraries/CMSIS/DSP/Source/TransformFunctions/arm_cfft_radix4_f32.c ****    n1 = n2;
 634:./Libraries/CMSIS/DSP/Source/TransformFunctions/arm_cfft_radix4_f32.c **** 
 635:./Libraries/CMSIS/DSP/Source/TransformFunctions/arm_cfft_radix4_f32.c ****    /* n2 = fftLen/4 */
 636:./Libraries/CMSIS/DSP/Source/TransformFunctions/arm_cfft_radix4_f32.c ****    n2 >>= 2U;
 637:./Libraries/CMSIS/DSP/Source/TransformFunctions/arm_cfft_radix4_f32.c ****    i0 = 0U;
 638:./Libraries/CMSIS/DSP/Source/TransformFunctions/arm_cfft_radix4_f32.c ****    ia1 = 0U;
 639:./Libraries/CMSIS/DSP/Source/TransformFunctions/arm_cfft_radix4_f32.c **** 
 640:./Libraries/CMSIS/DSP/Source/TransformFunctions/arm_cfft_radix4_f32.c ****    j = n2;
 641:./Libraries/CMSIS/DSP/Source/TransformFunctions/arm_cfft_radix4_f32.c **** 
 642:./Libraries/CMSIS/DSP/Source/TransformFunctions/arm_cfft_radix4_f32.c ****    /*  Calculation of first stage */
 643:./Libraries/CMSIS/DSP/Source/TransformFunctions/arm_cfft_radix4_f32.c ****    do
 644:./Libraries/CMSIS/DSP/Source/TransformFunctions/arm_cfft_radix4_f32.c ****    {
 645:./Libraries/CMSIS/DSP/Source/TransformFunctions/arm_cfft_radix4_f32.c ****       /*  index calculation for the input as, */
 646:./Libraries/CMSIS/DSP/Source/TransformFunctions/arm_cfft_radix4_f32.c ****       /*  pSrc[i0 + 0], pSrc[i0 + fftLen/4], pSrc[i0 + fftLen/2], pSrc[i0 + 3fftLen/4] */
 647:./Libraries/CMSIS/DSP/Source/TransformFunctions/arm_cfft_radix4_f32.c ****       i1 = i0 + n2;
 648:./Libraries/CMSIS/DSP/Source/TransformFunctions/arm_cfft_radix4_f32.c ****       i2 = i1 + n2;
 649:./Libraries/CMSIS/DSP/Source/TransformFunctions/arm_cfft_radix4_f32.c ****       i3 = i2 + n2;
 650:./Libraries/CMSIS/DSP/Source/TransformFunctions/arm_cfft_radix4_f32.c **** 
 651:./Libraries/CMSIS/DSP/Source/TransformFunctions/arm_cfft_radix4_f32.c ****       /*  Butterfly implementation */
 652:./Libraries/CMSIS/DSP/Source/TransformFunctions/arm_cfft_radix4_f32.c ****       xaIn = pSrc[(2U * i0)];
 653:./Libraries/CMSIS/DSP/Source/TransformFunctions/arm_cfft_radix4_f32.c ****       yaIn = pSrc[(2U * i0) + 1U];
 654:./Libraries/CMSIS/DSP/Source/TransformFunctions/arm_cfft_radix4_f32.c **** 
 655:./Libraries/CMSIS/DSP/Source/TransformFunctions/arm_cfft_radix4_f32.c ****       xcIn = pSrc[(2U * i2)];
 656:./Libraries/CMSIS/DSP/Source/TransformFunctions/arm_cfft_radix4_f32.c ****       ycIn = pSrc[(2U * i2) + 1U];
 657:./Libraries/CMSIS/DSP/Source/TransformFunctions/arm_cfft_radix4_f32.c **** 
 658:./Libraries/CMSIS/DSP/Source/TransformFunctions/arm_cfft_radix4_f32.c ****       xbIn = pSrc[(2U * i1)];
 659:./Libraries/CMSIS/DSP/Source/TransformFunctions/arm_cfft_radix4_f32.c ****       ybIn = pSrc[(2U * i1) + 1U];
 660:./Libraries/CMSIS/DSP/Source/TransformFunctions/arm_cfft_radix4_f32.c **** 
 661:./Libraries/CMSIS/DSP/Source/TransformFunctions/arm_cfft_radix4_f32.c ****       xdIn = pSrc[(2U * i3)];
 662:./Libraries/CMSIS/DSP/Source/TransformFunctions/arm_cfft_radix4_f32.c ****       ydIn = pSrc[(2U * i3) + 1U];
 663:./Libraries/CMSIS/DSP/Source/TransformFunctions/arm_cfft_radix4_f32.c **** 
 664:./Libraries/CMSIS/DSP/Source/TransformFunctions/arm_cfft_radix4_f32.c ****       /* xa + xc */
 665:./Libraries/CMSIS/DSP/Source/TransformFunctions/arm_cfft_radix4_f32.c ****       Xaplusc = xaIn + xcIn;
 666:./Libraries/CMSIS/DSP/Source/TransformFunctions/arm_cfft_radix4_f32.c ****       /* xb + xd */
 667:./Libraries/CMSIS/DSP/Source/TransformFunctions/arm_cfft_radix4_f32.c ****       Xbplusd = xbIn + xdIn;
 668:./Libraries/CMSIS/DSP/Source/TransformFunctions/arm_cfft_radix4_f32.c ****       /* ya + yc */
 669:./Libraries/CMSIS/DSP/Source/TransformFunctions/arm_cfft_radix4_f32.c ****       Yaplusc = yaIn + ycIn;
 670:./Libraries/CMSIS/DSP/Source/TransformFunctions/arm_cfft_radix4_f32.c ****       /* yb + yd */
 671:./Libraries/CMSIS/DSP/Source/TransformFunctions/arm_cfft_radix4_f32.c ****       Ybplusd = ybIn + ydIn;
 672:./Libraries/CMSIS/DSP/Source/TransformFunctions/arm_cfft_radix4_f32.c **** 
 673:./Libraries/CMSIS/DSP/Source/TransformFunctions/arm_cfft_radix4_f32.c ****       /*  index calculation for the coefficients */
ARM GAS  /tmp/ccWpuuii.s 			page 21


 674:./Libraries/CMSIS/DSP/Source/TransformFunctions/arm_cfft_radix4_f32.c ****       ia2 = ia1 + ia1;
 675:./Libraries/CMSIS/DSP/Source/TransformFunctions/arm_cfft_radix4_f32.c ****       co2 = pCoef[ia2 * 2U];
 676:./Libraries/CMSIS/DSP/Source/TransformFunctions/arm_cfft_radix4_f32.c ****       si2 = pCoef[(ia2 * 2U) + 1U];
 677:./Libraries/CMSIS/DSP/Source/TransformFunctions/arm_cfft_radix4_f32.c **** 
 678:./Libraries/CMSIS/DSP/Source/TransformFunctions/arm_cfft_radix4_f32.c ****       /* xa - xc */
 679:./Libraries/CMSIS/DSP/Source/TransformFunctions/arm_cfft_radix4_f32.c ****       Xaminusc = xaIn - xcIn;
 680:./Libraries/CMSIS/DSP/Source/TransformFunctions/arm_cfft_radix4_f32.c ****       /* xb - xd */
 681:./Libraries/CMSIS/DSP/Source/TransformFunctions/arm_cfft_radix4_f32.c ****       Xbminusd = xbIn - xdIn;
 682:./Libraries/CMSIS/DSP/Source/TransformFunctions/arm_cfft_radix4_f32.c ****       /* ya - yc */
 683:./Libraries/CMSIS/DSP/Source/TransformFunctions/arm_cfft_radix4_f32.c ****       Yaminusc = yaIn - ycIn;
 684:./Libraries/CMSIS/DSP/Source/TransformFunctions/arm_cfft_radix4_f32.c ****       /* yb - yd */
 685:./Libraries/CMSIS/DSP/Source/TransformFunctions/arm_cfft_radix4_f32.c ****       Ybminusd = ybIn - ydIn;
 686:./Libraries/CMSIS/DSP/Source/TransformFunctions/arm_cfft_radix4_f32.c **** 
 687:./Libraries/CMSIS/DSP/Source/TransformFunctions/arm_cfft_radix4_f32.c ****       /* xa' = xa + xb + xc + xd */
 688:./Libraries/CMSIS/DSP/Source/TransformFunctions/arm_cfft_radix4_f32.c ****       pSrc[(2U * i0)] = Xaplusc + Xbplusd;
 689:./Libraries/CMSIS/DSP/Source/TransformFunctions/arm_cfft_radix4_f32.c **** 
 690:./Libraries/CMSIS/DSP/Source/TransformFunctions/arm_cfft_radix4_f32.c ****       /* ya' = ya + yb + yc + yd */
 691:./Libraries/CMSIS/DSP/Source/TransformFunctions/arm_cfft_radix4_f32.c ****       pSrc[(2U * i0) + 1U] = Yaplusc + Ybplusd;
 692:./Libraries/CMSIS/DSP/Source/TransformFunctions/arm_cfft_radix4_f32.c **** 
 693:./Libraries/CMSIS/DSP/Source/TransformFunctions/arm_cfft_radix4_f32.c ****       /* (xa - xc) - (yb - yd) */
 694:./Libraries/CMSIS/DSP/Source/TransformFunctions/arm_cfft_radix4_f32.c ****       Xb12C_out = (Xaminusc - Ybminusd);
 695:./Libraries/CMSIS/DSP/Source/TransformFunctions/arm_cfft_radix4_f32.c ****       /* (ya - yc) + (xb - xd) */
 696:./Libraries/CMSIS/DSP/Source/TransformFunctions/arm_cfft_radix4_f32.c ****       Yb12C_out = (Yaminusc + Xbminusd);
 697:./Libraries/CMSIS/DSP/Source/TransformFunctions/arm_cfft_radix4_f32.c ****       /* (xa + xc) - (xb + xd) */
 698:./Libraries/CMSIS/DSP/Source/TransformFunctions/arm_cfft_radix4_f32.c ****       Xc12C_out = (Xaplusc - Xbplusd);
 699:./Libraries/CMSIS/DSP/Source/TransformFunctions/arm_cfft_radix4_f32.c ****       /* (ya + yc) - (yb + yd) */
 700:./Libraries/CMSIS/DSP/Source/TransformFunctions/arm_cfft_radix4_f32.c ****       Yc12C_out = (Yaplusc - Ybplusd);
 701:./Libraries/CMSIS/DSP/Source/TransformFunctions/arm_cfft_radix4_f32.c ****       /* (xa - xc) + (yb - yd) */
 702:./Libraries/CMSIS/DSP/Source/TransformFunctions/arm_cfft_radix4_f32.c ****       Xd12C_out = (Xaminusc + Ybminusd);
 703:./Libraries/CMSIS/DSP/Source/TransformFunctions/arm_cfft_radix4_f32.c ****       /* (ya - yc) - (xb - xd) */
 704:./Libraries/CMSIS/DSP/Source/TransformFunctions/arm_cfft_radix4_f32.c ****       Yd12C_out = (Yaminusc - Xbminusd);
 705:./Libraries/CMSIS/DSP/Source/TransformFunctions/arm_cfft_radix4_f32.c **** 
 706:./Libraries/CMSIS/DSP/Source/TransformFunctions/arm_cfft_radix4_f32.c ****       co1 = pCoef[ia1 * 2U];
 707:./Libraries/CMSIS/DSP/Source/TransformFunctions/arm_cfft_radix4_f32.c ****       si1 = pCoef[(ia1 * 2U) + 1U];
 708:./Libraries/CMSIS/DSP/Source/TransformFunctions/arm_cfft_radix4_f32.c **** 
 709:./Libraries/CMSIS/DSP/Source/TransformFunctions/arm_cfft_radix4_f32.c ****       /*  index calculation for the coefficients */
 710:./Libraries/CMSIS/DSP/Source/TransformFunctions/arm_cfft_radix4_f32.c ****       ia3 = ia2 + ia1;
 711:./Libraries/CMSIS/DSP/Source/TransformFunctions/arm_cfft_radix4_f32.c ****       co3 = pCoef[ia3 * 2U];
 712:./Libraries/CMSIS/DSP/Source/TransformFunctions/arm_cfft_radix4_f32.c ****       si3 = pCoef[(ia3 * 2U) + 1U];
 713:./Libraries/CMSIS/DSP/Source/TransformFunctions/arm_cfft_radix4_f32.c **** 
 714:./Libraries/CMSIS/DSP/Source/TransformFunctions/arm_cfft_radix4_f32.c ****       Xb12_out = Xb12C_out * co1;
 715:./Libraries/CMSIS/DSP/Source/TransformFunctions/arm_cfft_radix4_f32.c ****       Yb12_out = Yb12C_out * co1;
 716:./Libraries/CMSIS/DSP/Source/TransformFunctions/arm_cfft_radix4_f32.c ****       Xc12_out = Xc12C_out * co2;
 717:./Libraries/CMSIS/DSP/Source/TransformFunctions/arm_cfft_radix4_f32.c ****       Yc12_out = Yc12C_out * co2;
 718:./Libraries/CMSIS/DSP/Source/TransformFunctions/arm_cfft_radix4_f32.c ****       Xd12_out = Xd12C_out * co3;
 719:./Libraries/CMSIS/DSP/Source/TransformFunctions/arm_cfft_radix4_f32.c ****       Yd12_out = Yd12C_out * co3;
 720:./Libraries/CMSIS/DSP/Source/TransformFunctions/arm_cfft_radix4_f32.c **** 
 721:./Libraries/CMSIS/DSP/Source/TransformFunctions/arm_cfft_radix4_f32.c ****       /* xb' = (xa+yb-xc-yd)co1 - (ya-xb-yc+xd)(si1) */
 722:./Libraries/CMSIS/DSP/Source/TransformFunctions/arm_cfft_radix4_f32.c ****       //Xb12_out -= Yb12C_out * si1;
 723:./Libraries/CMSIS/DSP/Source/TransformFunctions/arm_cfft_radix4_f32.c ****       p0 = Yb12C_out * si1;
 724:./Libraries/CMSIS/DSP/Source/TransformFunctions/arm_cfft_radix4_f32.c ****       /* yb' = (ya-xb-yc+xd)co1 + (xa+yb-xc-yd)(si1) */
 725:./Libraries/CMSIS/DSP/Source/TransformFunctions/arm_cfft_radix4_f32.c ****       //Yb12_out += Xb12C_out * si1;
 726:./Libraries/CMSIS/DSP/Source/TransformFunctions/arm_cfft_radix4_f32.c ****       p1 = Xb12C_out * si1;
 727:./Libraries/CMSIS/DSP/Source/TransformFunctions/arm_cfft_radix4_f32.c ****       /* xc' = (xa-xb+xc-xd)co2 - (ya-yb+yc-yd)(si2) */
 728:./Libraries/CMSIS/DSP/Source/TransformFunctions/arm_cfft_radix4_f32.c ****       //Xc12_out -= Yc12C_out * si2;
 729:./Libraries/CMSIS/DSP/Source/TransformFunctions/arm_cfft_radix4_f32.c ****       p2 = Yc12C_out * si2;
 730:./Libraries/CMSIS/DSP/Source/TransformFunctions/arm_cfft_radix4_f32.c ****       /* yc' = (ya-yb+yc-yd)co2 + (xa-xb+xc-xd)(si2) */
ARM GAS  /tmp/ccWpuuii.s 			page 22


 731:./Libraries/CMSIS/DSP/Source/TransformFunctions/arm_cfft_radix4_f32.c ****       //Yc12_out += Xc12C_out * si2;
 732:./Libraries/CMSIS/DSP/Source/TransformFunctions/arm_cfft_radix4_f32.c ****       p3 = Xc12C_out * si2;
 733:./Libraries/CMSIS/DSP/Source/TransformFunctions/arm_cfft_radix4_f32.c ****       /* xd' = (xa-yb-xc+yd)co3 - (ya+xb-yc-xd)(si3) */
 734:./Libraries/CMSIS/DSP/Source/TransformFunctions/arm_cfft_radix4_f32.c ****       //Xd12_out -= Yd12C_out * si3;
 735:./Libraries/CMSIS/DSP/Source/TransformFunctions/arm_cfft_radix4_f32.c ****       p4 = Yd12C_out * si3;
 736:./Libraries/CMSIS/DSP/Source/TransformFunctions/arm_cfft_radix4_f32.c ****       /* yd' = (ya+xb-yc-xd)co3 + (xa-yb-xc+yd)(si3) */
 737:./Libraries/CMSIS/DSP/Source/TransformFunctions/arm_cfft_radix4_f32.c ****       //Yd12_out += Xd12C_out * si3;
 738:./Libraries/CMSIS/DSP/Source/TransformFunctions/arm_cfft_radix4_f32.c ****       p5 = Xd12C_out * si3;
 739:./Libraries/CMSIS/DSP/Source/TransformFunctions/arm_cfft_radix4_f32.c **** 
 740:./Libraries/CMSIS/DSP/Source/TransformFunctions/arm_cfft_radix4_f32.c ****       Xb12_out -= p0;
 741:./Libraries/CMSIS/DSP/Source/TransformFunctions/arm_cfft_radix4_f32.c ****       Yb12_out += p1;
 742:./Libraries/CMSIS/DSP/Source/TransformFunctions/arm_cfft_radix4_f32.c ****       Xc12_out -= p2;
 743:./Libraries/CMSIS/DSP/Source/TransformFunctions/arm_cfft_radix4_f32.c ****       Yc12_out += p3;
 744:./Libraries/CMSIS/DSP/Source/TransformFunctions/arm_cfft_radix4_f32.c ****       Xd12_out -= p4;
 745:./Libraries/CMSIS/DSP/Source/TransformFunctions/arm_cfft_radix4_f32.c ****       Yd12_out += p5;
 746:./Libraries/CMSIS/DSP/Source/TransformFunctions/arm_cfft_radix4_f32.c **** 
 747:./Libraries/CMSIS/DSP/Source/TransformFunctions/arm_cfft_radix4_f32.c ****       /* xc' = (xa-xb+xc-xd)co2 - (ya-yb+yc-yd)(si2) */
 748:./Libraries/CMSIS/DSP/Source/TransformFunctions/arm_cfft_radix4_f32.c ****       pSrc[2U * i1] = Xc12_out;
 749:./Libraries/CMSIS/DSP/Source/TransformFunctions/arm_cfft_radix4_f32.c **** 
 750:./Libraries/CMSIS/DSP/Source/TransformFunctions/arm_cfft_radix4_f32.c ****       /* yc' = (ya-yb+yc-yd)co2 + (xa-xb+xc-xd)(si2) */
 751:./Libraries/CMSIS/DSP/Source/TransformFunctions/arm_cfft_radix4_f32.c ****       pSrc[(2U * i1) + 1U] = Yc12_out;
 752:./Libraries/CMSIS/DSP/Source/TransformFunctions/arm_cfft_radix4_f32.c **** 
 753:./Libraries/CMSIS/DSP/Source/TransformFunctions/arm_cfft_radix4_f32.c ****       /* xb' = (xa+yb-xc-yd)co1 - (ya-xb-yc+xd)(si1) */
 754:./Libraries/CMSIS/DSP/Source/TransformFunctions/arm_cfft_radix4_f32.c ****       pSrc[2U * i2] = Xb12_out;
 755:./Libraries/CMSIS/DSP/Source/TransformFunctions/arm_cfft_radix4_f32.c **** 
 756:./Libraries/CMSIS/DSP/Source/TransformFunctions/arm_cfft_radix4_f32.c ****       /* yb' = (ya-xb-yc+xd)co1 + (xa+yb-xc-yd)(si1) */
 757:./Libraries/CMSIS/DSP/Source/TransformFunctions/arm_cfft_radix4_f32.c ****       pSrc[(2U * i2) + 1U] = Yb12_out;
 758:./Libraries/CMSIS/DSP/Source/TransformFunctions/arm_cfft_radix4_f32.c **** 
 759:./Libraries/CMSIS/DSP/Source/TransformFunctions/arm_cfft_radix4_f32.c ****       /* xd' = (xa-yb-xc+yd)co3 - (ya+xb-yc-xd)(si3) */
 760:./Libraries/CMSIS/DSP/Source/TransformFunctions/arm_cfft_radix4_f32.c ****       pSrc[2U * i3] = Xd12_out;
 761:./Libraries/CMSIS/DSP/Source/TransformFunctions/arm_cfft_radix4_f32.c **** 
 762:./Libraries/CMSIS/DSP/Source/TransformFunctions/arm_cfft_radix4_f32.c ****       /* yd' = (ya+xb-yc-xd)co3 + (xa-yb-xc+yd)(si3) */
 763:./Libraries/CMSIS/DSP/Source/TransformFunctions/arm_cfft_radix4_f32.c ****       pSrc[(2U * i3) + 1U] = Yd12_out;
 764:./Libraries/CMSIS/DSP/Source/TransformFunctions/arm_cfft_radix4_f32.c **** 
 765:./Libraries/CMSIS/DSP/Source/TransformFunctions/arm_cfft_radix4_f32.c ****       /*  Twiddle coefficients index modifier */
 766:./Libraries/CMSIS/DSP/Source/TransformFunctions/arm_cfft_radix4_f32.c ****       ia1 = ia1 + twidCoefModifier;
 767:./Libraries/CMSIS/DSP/Source/TransformFunctions/arm_cfft_radix4_f32.c **** 
 768:./Libraries/CMSIS/DSP/Source/TransformFunctions/arm_cfft_radix4_f32.c ****       /*  Updating input index */
 769:./Libraries/CMSIS/DSP/Source/TransformFunctions/arm_cfft_radix4_f32.c ****       i0 = i0 + 1U;
 770:./Libraries/CMSIS/DSP/Source/TransformFunctions/arm_cfft_radix4_f32.c **** 
 771:./Libraries/CMSIS/DSP/Source/TransformFunctions/arm_cfft_radix4_f32.c ****    } while (--j);
 772:./Libraries/CMSIS/DSP/Source/TransformFunctions/arm_cfft_radix4_f32.c **** 
 773:./Libraries/CMSIS/DSP/Source/TransformFunctions/arm_cfft_radix4_f32.c ****    twidCoefModifier <<= 2U;
 774:./Libraries/CMSIS/DSP/Source/TransformFunctions/arm_cfft_radix4_f32.c **** 
 775:./Libraries/CMSIS/DSP/Source/TransformFunctions/arm_cfft_radix4_f32.c ****    /*  Calculation of second stage to excluding last stage */
 776:./Libraries/CMSIS/DSP/Source/TransformFunctions/arm_cfft_radix4_f32.c ****    for (k = fftLen >> 2U; k > 4U; k >>= 2U)
 777:./Libraries/CMSIS/DSP/Source/TransformFunctions/arm_cfft_radix4_f32.c ****    {
 778:./Libraries/CMSIS/DSP/Source/TransformFunctions/arm_cfft_radix4_f32.c ****       /*  Initializations for the first stage */
 779:./Libraries/CMSIS/DSP/Source/TransformFunctions/arm_cfft_radix4_f32.c ****       n1 = n2;
 780:./Libraries/CMSIS/DSP/Source/TransformFunctions/arm_cfft_radix4_f32.c ****       n2 >>= 2U;
 781:./Libraries/CMSIS/DSP/Source/TransformFunctions/arm_cfft_radix4_f32.c ****       ia1 = 0U;
 782:./Libraries/CMSIS/DSP/Source/TransformFunctions/arm_cfft_radix4_f32.c **** 
 783:./Libraries/CMSIS/DSP/Source/TransformFunctions/arm_cfft_radix4_f32.c ****       /*  Calculation of first stage */
 784:./Libraries/CMSIS/DSP/Source/TransformFunctions/arm_cfft_radix4_f32.c ****       j = 0;
 785:./Libraries/CMSIS/DSP/Source/TransformFunctions/arm_cfft_radix4_f32.c ****       do
 786:./Libraries/CMSIS/DSP/Source/TransformFunctions/arm_cfft_radix4_f32.c ****       {
 787:./Libraries/CMSIS/DSP/Source/TransformFunctions/arm_cfft_radix4_f32.c ****          /*  index calculation for the coefficients */
ARM GAS  /tmp/ccWpuuii.s 			page 23


 788:./Libraries/CMSIS/DSP/Source/TransformFunctions/arm_cfft_radix4_f32.c ****          ia2 = ia1 + ia1;
 789:./Libraries/CMSIS/DSP/Source/TransformFunctions/arm_cfft_radix4_f32.c ****          ia3 = ia2 + ia1;
 790:./Libraries/CMSIS/DSP/Source/TransformFunctions/arm_cfft_radix4_f32.c ****          co1 = pCoef[ia1 * 2U];
 791:./Libraries/CMSIS/DSP/Source/TransformFunctions/arm_cfft_radix4_f32.c ****          si1 = pCoef[(ia1 * 2U) + 1U];
 792:./Libraries/CMSIS/DSP/Source/TransformFunctions/arm_cfft_radix4_f32.c ****          co2 = pCoef[ia2 * 2U];
 793:./Libraries/CMSIS/DSP/Source/TransformFunctions/arm_cfft_radix4_f32.c ****          si2 = pCoef[(ia2 * 2U) + 1U];
 794:./Libraries/CMSIS/DSP/Source/TransformFunctions/arm_cfft_radix4_f32.c ****          co3 = pCoef[ia3 * 2U];
 795:./Libraries/CMSIS/DSP/Source/TransformFunctions/arm_cfft_radix4_f32.c ****          si3 = pCoef[(ia3 * 2U) + 1U];
 796:./Libraries/CMSIS/DSP/Source/TransformFunctions/arm_cfft_radix4_f32.c **** 
 797:./Libraries/CMSIS/DSP/Source/TransformFunctions/arm_cfft_radix4_f32.c ****          /*  Twiddle coefficients index modifier */
 798:./Libraries/CMSIS/DSP/Source/TransformFunctions/arm_cfft_radix4_f32.c ****          ia1 = ia1 + twidCoefModifier;
 799:./Libraries/CMSIS/DSP/Source/TransformFunctions/arm_cfft_radix4_f32.c **** 
 800:./Libraries/CMSIS/DSP/Source/TransformFunctions/arm_cfft_radix4_f32.c ****          i0 = j;
 801:./Libraries/CMSIS/DSP/Source/TransformFunctions/arm_cfft_radix4_f32.c ****          do
 802:./Libraries/CMSIS/DSP/Source/TransformFunctions/arm_cfft_radix4_f32.c ****          {
 803:./Libraries/CMSIS/DSP/Source/TransformFunctions/arm_cfft_radix4_f32.c ****             /*  index calculation for the input as, */
 804:./Libraries/CMSIS/DSP/Source/TransformFunctions/arm_cfft_radix4_f32.c ****             /*  pSrc[i0 + 0], pSrc[i0 + fftLen/4], pSrc[i0 + fftLen/2], pSrc[i0 + 3fftLen/4] */
 805:./Libraries/CMSIS/DSP/Source/TransformFunctions/arm_cfft_radix4_f32.c ****             i1 = i0 + n2;
 806:./Libraries/CMSIS/DSP/Source/TransformFunctions/arm_cfft_radix4_f32.c ****             i2 = i1 + n2;
 807:./Libraries/CMSIS/DSP/Source/TransformFunctions/arm_cfft_radix4_f32.c ****             i3 = i2 + n2;
 808:./Libraries/CMSIS/DSP/Source/TransformFunctions/arm_cfft_radix4_f32.c **** 
 809:./Libraries/CMSIS/DSP/Source/TransformFunctions/arm_cfft_radix4_f32.c ****             xaIn = pSrc[(2U * i0)];
 810:./Libraries/CMSIS/DSP/Source/TransformFunctions/arm_cfft_radix4_f32.c ****             yaIn = pSrc[(2U * i0) + 1U];
 811:./Libraries/CMSIS/DSP/Source/TransformFunctions/arm_cfft_radix4_f32.c **** 
 812:./Libraries/CMSIS/DSP/Source/TransformFunctions/arm_cfft_radix4_f32.c ****             xbIn = pSrc[(2U * i1)];
 813:./Libraries/CMSIS/DSP/Source/TransformFunctions/arm_cfft_radix4_f32.c ****             ybIn = pSrc[(2U * i1) + 1U];
 814:./Libraries/CMSIS/DSP/Source/TransformFunctions/arm_cfft_radix4_f32.c **** 
 815:./Libraries/CMSIS/DSP/Source/TransformFunctions/arm_cfft_radix4_f32.c ****             xcIn = pSrc[(2U * i2)];
 816:./Libraries/CMSIS/DSP/Source/TransformFunctions/arm_cfft_radix4_f32.c ****             ycIn = pSrc[(2U * i2) + 1U];
 817:./Libraries/CMSIS/DSP/Source/TransformFunctions/arm_cfft_radix4_f32.c **** 
 818:./Libraries/CMSIS/DSP/Source/TransformFunctions/arm_cfft_radix4_f32.c ****             xdIn = pSrc[(2U * i3)];
 819:./Libraries/CMSIS/DSP/Source/TransformFunctions/arm_cfft_radix4_f32.c ****             ydIn = pSrc[(2U * i3) + 1U];
 820:./Libraries/CMSIS/DSP/Source/TransformFunctions/arm_cfft_radix4_f32.c **** 
 821:./Libraries/CMSIS/DSP/Source/TransformFunctions/arm_cfft_radix4_f32.c ****             /* xa - xc */
 822:./Libraries/CMSIS/DSP/Source/TransformFunctions/arm_cfft_radix4_f32.c ****             Xaminusc = xaIn - xcIn;
 823:./Libraries/CMSIS/DSP/Source/TransformFunctions/arm_cfft_radix4_f32.c ****             /* (xb - xd) */
 824:./Libraries/CMSIS/DSP/Source/TransformFunctions/arm_cfft_radix4_f32.c ****             Xbminusd = xbIn - xdIn;
 825:./Libraries/CMSIS/DSP/Source/TransformFunctions/arm_cfft_radix4_f32.c ****             /* ya - yc */
 826:./Libraries/CMSIS/DSP/Source/TransformFunctions/arm_cfft_radix4_f32.c ****             Yaminusc = yaIn - ycIn;
 827:./Libraries/CMSIS/DSP/Source/TransformFunctions/arm_cfft_radix4_f32.c ****             /* (yb - yd) */
 828:./Libraries/CMSIS/DSP/Source/TransformFunctions/arm_cfft_radix4_f32.c ****             Ybminusd = ybIn - ydIn;
 829:./Libraries/CMSIS/DSP/Source/TransformFunctions/arm_cfft_radix4_f32.c **** 
 830:./Libraries/CMSIS/DSP/Source/TransformFunctions/arm_cfft_radix4_f32.c ****             /* xa + xc */
 831:./Libraries/CMSIS/DSP/Source/TransformFunctions/arm_cfft_radix4_f32.c ****             Xaplusc = xaIn + xcIn;
 832:./Libraries/CMSIS/DSP/Source/TransformFunctions/arm_cfft_radix4_f32.c ****             /* xb + xd */
 833:./Libraries/CMSIS/DSP/Source/TransformFunctions/arm_cfft_radix4_f32.c ****             Xbplusd = xbIn + xdIn;
 834:./Libraries/CMSIS/DSP/Source/TransformFunctions/arm_cfft_radix4_f32.c ****             /* ya + yc */
 835:./Libraries/CMSIS/DSP/Source/TransformFunctions/arm_cfft_radix4_f32.c ****             Yaplusc = yaIn + ycIn;
 836:./Libraries/CMSIS/DSP/Source/TransformFunctions/arm_cfft_radix4_f32.c ****             /* yb + yd */
 837:./Libraries/CMSIS/DSP/Source/TransformFunctions/arm_cfft_radix4_f32.c ****             Ybplusd = ybIn + ydIn;
 838:./Libraries/CMSIS/DSP/Source/TransformFunctions/arm_cfft_radix4_f32.c **** 
 839:./Libraries/CMSIS/DSP/Source/TransformFunctions/arm_cfft_radix4_f32.c ****             /* (xa - xc) - (yb - yd) */
 840:./Libraries/CMSIS/DSP/Source/TransformFunctions/arm_cfft_radix4_f32.c ****             Xb12C_out = (Xaminusc - Ybminusd);
 841:./Libraries/CMSIS/DSP/Source/TransformFunctions/arm_cfft_radix4_f32.c ****             /* (ya - yc) +  (xb - xd) */
 842:./Libraries/CMSIS/DSP/Source/TransformFunctions/arm_cfft_radix4_f32.c ****             Yb12C_out = (Yaminusc + Xbminusd);
 843:./Libraries/CMSIS/DSP/Source/TransformFunctions/arm_cfft_radix4_f32.c ****             /* xa + xc -(xb + xd) */
 844:./Libraries/CMSIS/DSP/Source/TransformFunctions/arm_cfft_radix4_f32.c ****             Xc12C_out = (Xaplusc - Xbplusd);
ARM GAS  /tmp/ccWpuuii.s 			page 24


 845:./Libraries/CMSIS/DSP/Source/TransformFunctions/arm_cfft_radix4_f32.c ****             /* (ya + yc) - (yb + yd) */
 846:./Libraries/CMSIS/DSP/Source/TransformFunctions/arm_cfft_radix4_f32.c ****             Yc12C_out = (Yaplusc - Ybplusd);
 847:./Libraries/CMSIS/DSP/Source/TransformFunctions/arm_cfft_radix4_f32.c ****             /* (xa - xc) + (yb - yd) */
 848:./Libraries/CMSIS/DSP/Source/TransformFunctions/arm_cfft_radix4_f32.c ****             Xd12C_out = (Xaminusc + Ybminusd);
 849:./Libraries/CMSIS/DSP/Source/TransformFunctions/arm_cfft_radix4_f32.c ****             /* (ya - yc) -  (xb - xd) */
 850:./Libraries/CMSIS/DSP/Source/TransformFunctions/arm_cfft_radix4_f32.c ****             Yd12C_out = (Yaminusc - Xbminusd);
 851:./Libraries/CMSIS/DSP/Source/TransformFunctions/arm_cfft_radix4_f32.c **** 
 852:./Libraries/CMSIS/DSP/Source/TransformFunctions/arm_cfft_radix4_f32.c ****             pSrc[(2U * i0)] = Xaplusc + Xbplusd;
 853:./Libraries/CMSIS/DSP/Source/TransformFunctions/arm_cfft_radix4_f32.c ****             pSrc[(2U * i0) + 1U] = Yaplusc + Ybplusd;
 854:./Libraries/CMSIS/DSP/Source/TransformFunctions/arm_cfft_radix4_f32.c **** 
 855:./Libraries/CMSIS/DSP/Source/TransformFunctions/arm_cfft_radix4_f32.c ****             Xb12_out = Xb12C_out * co1;
 856:./Libraries/CMSIS/DSP/Source/TransformFunctions/arm_cfft_radix4_f32.c ****             Yb12_out = Yb12C_out * co1;
 857:./Libraries/CMSIS/DSP/Source/TransformFunctions/arm_cfft_radix4_f32.c ****             Xc12_out = Xc12C_out * co2;
 858:./Libraries/CMSIS/DSP/Source/TransformFunctions/arm_cfft_radix4_f32.c ****             Yc12_out = Yc12C_out * co2;
 859:./Libraries/CMSIS/DSP/Source/TransformFunctions/arm_cfft_radix4_f32.c ****             Xd12_out = Xd12C_out * co3;
 860:./Libraries/CMSIS/DSP/Source/TransformFunctions/arm_cfft_radix4_f32.c ****             Yd12_out = Yd12C_out * co3;
 861:./Libraries/CMSIS/DSP/Source/TransformFunctions/arm_cfft_radix4_f32.c **** 
 862:./Libraries/CMSIS/DSP/Source/TransformFunctions/arm_cfft_radix4_f32.c ****             /* xb' = (xa+yb-xc-yd)co1 - (ya-xb-yc+xd)(si1) */
 863:./Libraries/CMSIS/DSP/Source/TransformFunctions/arm_cfft_radix4_f32.c ****             //Xb12_out -= Yb12C_out * si1;
 864:./Libraries/CMSIS/DSP/Source/TransformFunctions/arm_cfft_radix4_f32.c ****             p0 = Yb12C_out * si1;
 865:./Libraries/CMSIS/DSP/Source/TransformFunctions/arm_cfft_radix4_f32.c ****             /* yb' = (ya-xb-yc+xd)co1 + (xa+yb-xc-yd)(si1) */
 866:./Libraries/CMSIS/DSP/Source/TransformFunctions/arm_cfft_radix4_f32.c ****             //Yb12_out += Xb12C_out * si1;
 867:./Libraries/CMSIS/DSP/Source/TransformFunctions/arm_cfft_radix4_f32.c ****             p1 = Xb12C_out * si1;
 868:./Libraries/CMSIS/DSP/Source/TransformFunctions/arm_cfft_radix4_f32.c ****             /* xc' = (xa-xb+xc-xd)co2 - (ya-yb+yc-yd)(si2) */
 869:./Libraries/CMSIS/DSP/Source/TransformFunctions/arm_cfft_radix4_f32.c ****             //Xc12_out -= Yc12C_out * si2;
 870:./Libraries/CMSIS/DSP/Source/TransformFunctions/arm_cfft_radix4_f32.c ****             p2 = Yc12C_out * si2;
 871:./Libraries/CMSIS/DSP/Source/TransformFunctions/arm_cfft_radix4_f32.c ****             /* yc' = (ya-yb+yc-yd)co2 + (xa-xb+xc-xd)(si2) */
 872:./Libraries/CMSIS/DSP/Source/TransformFunctions/arm_cfft_radix4_f32.c ****             //Yc12_out += Xc12C_out * si2;
 873:./Libraries/CMSIS/DSP/Source/TransformFunctions/arm_cfft_radix4_f32.c ****             p3 = Xc12C_out * si2;
 874:./Libraries/CMSIS/DSP/Source/TransformFunctions/arm_cfft_radix4_f32.c ****             /* xd' = (xa-yb-xc+yd)co3 - (ya+xb-yc-xd)(si3) */
 875:./Libraries/CMSIS/DSP/Source/TransformFunctions/arm_cfft_radix4_f32.c ****             //Xd12_out -= Yd12C_out * si3;
 876:./Libraries/CMSIS/DSP/Source/TransformFunctions/arm_cfft_radix4_f32.c ****             p4 = Yd12C_out * si3;
 877:./Libraries/CMSIS/DSP/Source/TransformFunctions/arm_cfft_radix4_f32.c ****             /* yd' = (ya+xb-yc-xd)co3 + (xa-yb-xc+yd)(si3) */
 878:./Libraries/CMSIS/DSP/Source/TransformFunctions/arm_cfft_radix4_f32.c ****             //Yd12_out += Xd12C_out * si3;
 879:./Libraries/CMSIS/DSP/Source/TransformFunctions/arm_cfft_radix4_f32.c ****             p5 = Xd12C_out * si3;
 880:./Libraries/CMSIS/DSP/Source/TransformFunctions/arm_cfft_radix4_f32.c **** 
 881:./Libraries/CMSIS/DSP/Source/TransformFunctions/arm_cfft_radix4_f32.c ****             Xb12_out -= p0;
 882:./Libraries/CMSIS/DSP/Source/TransformFunctions/arm_cfft_radix4_f32.c ****             Yb12_out += p1;
 883:./Libraries/CMSIS/DSP/Source/TransformFunctions/arm_cfft_radix4_f32.c ****             Xc12_out -= p2;
 884:./Libraries/CMSIS/DSP/Source/TransformFunctions/arm_cfft_radix4_f32.c ****             Yc12_out += p3;
 885:./Libraries/CMSIS/DSP/Source/TransformFunctions/arm_cfft_radix4_f32.c ****             Xd12_out -= p4;
 886:./Libraries/CMSIS/DSP/Source/TransformFunctions/arm_cfft_radix4_f32.c ****             Yd12_out += p5;
 887:./Libraries/CMSIS/DSP/Source/TransformFunctions/arm_cfft_radix4_f32.c **** 
 888:./Libraries/CMSIS/DSP/Source/TransformFunctions/arm_cfft_radix4_f32.c ****             /* xc' = (xa-xb+xc-xd)co2 - (ya-yb+yc-yd)(si2) */
 889:./Libraries/CMSIS/DSP/Source/TransformFunctions/arm_cfft_radix4_f32.c ****             pSrc[2U * i1] = Xc12_out;
 890:./Libraries/CMSIS/DSP/Source/TransformFunctions/arm_cfft_radix4_f32.c **** 
 891:./Libraries/CMSIS/DSP/Source/TransformFunctions/arm_cfft_radix4_f32.c ****             /* yc' = (ya-yb+yc-yd)co2 + (xa-xb+xc-xd)(si2) */
 892:./Libraries/CMSIS/DSP/Source/TransformFunctions/arm_cfft_radix4_f32.c ****             pSrc[(2U * i1) + 1U] = Yc12_out;
 893:./Libraries/CMSIS/DSP/Source/TransformFunctions/arm_cfft_radix4_f32.c **** 
 894:./Libraries/CMSIS/DSP/Source/TransformFunctions/arm_cfft_radix4_f32.c ****             /* xb' = (xa+yb-xc-yd)co1 - (ya-xb-yc+xd)(si1) */
 895:./Libraries/CMSIS/DSP/Source/TransformFunctions/arm_cfft_radix4_f32.c ****             pSrc[2U * i2] = Xb12_out;
 896:./Libraries/CMSIS/DSP/Source/TransformFunctions/arm_cfft_radix4_f32.c **** 
 897:./Libraries/CMSIS/DSP/Source/TransformFunctions/arm_cfft_radix4_f32.c ****             /* yb' = (ya-xb-yc+xd)co1 + (xa+yb-xc-yd)(si1) */
 898:./Libraries/CMSIS/DSP/Source/TransformFunctions/arm_cfft_radix4_f32.c ****             pSrc[(2U * i2) + 1U] = Yb12_out;
 899:./Libraries/CMSIS/DSP/Source/TransformFunctions/arm_cfft_radix4_f32.c **** 
 900:./Libraries/CMSIS/DSP/Source/TransformFunctions/arm_cfft_radix4_f32.c ****             /* xd' = (xa-yb-xc+yd)co3 - (ya+xb-yc-xd)(si3) */
 901:./Libraries/CMSIS/DSP/Source/TransformFunctions/arm_cfft_radix4_f32.c ****             pSrc[2U * i3] = Xd12_out;
ARM GAS  /tmp/ccWpuuii.s 			page 25


 902:./Libraries/CMSIS/DSP/Source/TransformFunctions/arm_cfft_radix4_f32.c **** 
 903:./Libraries/CMSIS/DSP/Source/TransformFunctions/arm_cfft_radix4_f32.c ****             /* yd' = (ya+xb-yc-xd)co3 + (xa-yb-xc+yd)(si3) */
 904:./Libraries/CMSIS/DSP/Source/TransformFunctions/arm_cfft_radix4_f32.c ****             pSrc[(2U * i3) + 1U] = Yd12_out;
 905:./Libraries/CMSIS/DSP/Source/TransformFunctions/arm_cfft_radix4_f32.c **** 
 906:./Libraries/CMSIS/DSP/Source/TransformFunctions/arm_cfft_radix4_f32.c ****             i0 += n1;
 907:./Libraries/CMSIS/DSP/Source/TransformFunctions/arm_cfft_radix4_f32.c ****          } while (i0 < fftLen);
 908:./Libraries/CMSIS/DSP/Source/TransformFunctions/arm_cfft_radix4_f32.c ****          j++;
 909:./Libraries/CMSIS/DSP/Source/TransformFunctions/arm_cfft_radix4_f32.c ****       } while (j <= (n2 - 1U));
 910:./Libraries/CMSIS/DSP/Source/TransformFunctions/arm_cfft_radix4_f32.c ****       twidCoefModifier <<= 2U;
 911:./Libraries/CMSIS/DSP/Source/TransformFunctions/arm_cfft_radix4_f32.c ****    }
 912:./Libraries/CMSIS/DSP/Source/TransformFunctions/arm_cfft_radix4_f32.c ****    /*  Initializations of last stage */
 913:./Libraries/CMSIS/DSP/Source/TransformFunctions/arm_cfft_radix4_f32.c **** 
 914:./Libraries/CMSIS/DSP/Source/TransformFunctions/arm_cfft_radix4_f32.c ****    j = fftLen >> 2;
 915:./Libraries/CMSIS/DSP/Source/TransformFunctions/arm_cfft_radix4_f32.c ****    ptr1 = &pSrc[0];
 916:./Libraries/CMSIS/DSP/Source/TransformFunctions/arm_cfft_radix4_f32.c **** 
 917:./Libraries/CMSIS/DSP/Source/TransformFunctions/arm_cfft_radix4_f32.c ****    /*  Calculations of last stage */
 918:./Libraries/CMSIS/DSP/Source/TransformFunctions/arm_cfft_radix4_f32.c ****    do
 919:./Libraries/CMSIS/DSP/Source/TransformFunctions/arm_cfft_radix4_f32.c ****    {
 920:./Libraries/CMSIS/DSP/Source/TransformFunctions/arm_cfft_radix4_f32.c ****       xaIn = ptr1[0];
 921:./Libraries/CMSIS/DSP/Source/TransformFunctions/arm_cfft_radix4_f32.c ****       yaIn = ptr1[1];
 922:./Libraries/CMSIS/DSP/Source/TransformFunctions/arm_cfft_radix4_f32.c ****       xbIn = ptr1[2];
 923:./Libraries/CMSIS/DSP/Source/TransformFunctions/arm_cfft_radix4_f32.c ****       ybIn = ptr1[3];
 924:./Libraries/CMSIS/DSP/Source/TransformFunctions/arm_cfft_radix4_f32.c ****       xcIn = ptr1[4];
 925:./Libraries/CMSIS/DSP/Source/TransformFunctions/arm_cfft_radix4_f32.c ****       ycIn = ptr1[5];
 926:./Libraries/CMSIS/DSP/Source/TransformFunctions/arm_cfft_radix4_f32.c ****       xdIn = ptr1[6];
 927:./Libraries/CMSIS/DSP/Source/TransformFunctions/arm_cfft_radix4_f32.c ****       ydIn = ptr1[7];
 928:./Libraries/CMSIS/DSP/Source/TransformFunctions/arm_cfft_radix4_f32.c **** 
 929:./Libraries/CMSIS/DSP/Source/TransformFunctions/arm_cfft_radix4_f32.c ****       /*  Butterfly implementation */
 930:./Libraries/CMSIS/DSP/Source/TransformFunctions/arm_cfft_radix4_f32.c ****       /* xa + xc */
 931:./Libraries/CMSIS/DSP/Source/TransformFunctions/arm_cfft_radix4_f32.c ****       Xaplusc = xaIn + xcIn;
 932:./Libraries/CMSIS/DSP/Source/TransformFunctions/arm_cfft_radix4_f32.c **** 
 933:./Libraries/CMSIS/DSP/Source/TransformFunctions/arm_cfft_radix4_f32.c ****       /* xa - xc */
 934:./Libraries/CMSIS/DSP/Source/TransformFunctions/arm_cfft_radix4_f32.c ****       Xaminusc = xaIn - xcIn;
 935:./Libraries/CMSIS/DSP/Source/TransformFunctions/arm_cfft_radix4_f32.c **** 
 936:./Libraries/CMSIS/DSP/Source/TransformFunctions/arm_cfft_radix4_f32.c ****       /* ya + yc */
 937:./Libraries/CMSIS/DSP/Source/TransformFunctions/arm_cfft_radix4_f32.c ****       Yaplusc = yaIn + ycIn;
 938:./Libraries/CMSIS/DSP/Source/TransformFunctions/arm_cfft_radix4_f32.c **** 
 939:./Libraries/CMSIS/DSP/Source/TransformFunctions/arm_cfft_radix4_f32.c ****       /* ya - yc */
 940:./Libraries/CMSIS/DSP/Source/TransformFunctions/arm_cfft_radix4_f32.c ****       Yaminusc = yaIn - ycIn;
 941:./Libraries/CMSIS/DSP/Source/TransformFunctions/arm_cfft_radix4_f32.c **** 
 942:./Libraries/CMSIS/DSP/Source/TransformFunctions/arm_cfft_radix4_f32.c ****       /* xb + xd */
 943:./Libraries/CMSIS/DSP/Source/TransformFunctions/arm_cfft_radix4_f32.c ****       Xbplusd = xbIn + xdIn;
 944:./Libraries/CMSIS/DSP/Source/TransformFunctions/arm_cfft_radix4_f32.c **** 
 945:./Libraries/CMSIS/DSP/Source/TransformFunctions/arm_cfft_radix4_f32.c ****       /* yb + yd */
 946:./Libraries/CMSIS/DSP/Source/TransformFunctions/arm_cfft_radix4_f32.c ****       Ybplusd = ybIn + ydIn;
 947:./Libraries/CMSIS/DSP/Source/TransformFunctions/arm_cfft_radix4_f32.c **** 
 948:./Libraries/CMSIS/DSP/Source/TransformFunctions/arm_cfft_radix4_f32.c ****       /* (xb-xd) */
 949:./Libraries/CMSIS/DSP/Source/TransformFunctions/arm_cfft_radix4_f32.c ****       Xbminusd = xbIn - xdIn;
 950:./Libraries/CMSIS/DSP/Source/TransformFunctions/arm_cfft_radix4_f32.c **** 
 951:./Libraries/CMSIS/DSP/Source/TransformFunctions/arm_cfft_radix4_f32.c ****       /* (yb-yd) */
 952:./Libraries/CMSIS/DSP/Source/TransformFunctions/arm_cfft_radix4_f32.c ****       Ybminusd = ybIn - ydIn;
 953:./Libraries/CMSIS/DSP/Source/TransformFunctions/arm_cfft_radix4_f32.c **** 
 954:./Libraries/CMSIS/DSP/Source/TransformFunctions/arm_cfft_radix4_f32.c ****       /* xa' = (xa+xb+xc+xd) * onebyfftLen */
 955:./Libraries/CMSIS/DSP/Source/TransformFunctions/arm_cfft_radix4_f32.c ****       a0 = (Xaplusc + Xbplusd);
 956:./Libraries/CMSIS/DSP/Source/TransformFunctions/arm_cfft_radix4_f32.c ****       /* ya' = (ya+yb+yc+yd) * onebyfftLen */
 957:./Libraries/CMSIS/DSP/Source/TransformFunctions/arm_cfft_radix4_f32.c ****       a1 = (Yaplusc + Ybplusd);
 958:./Libraries/CMSIS/DSP/Source/TransformFunctions/arm_cfft_radix4_f32.c ****       /* xc' = (xa-xb+xc-xd) * onebyfftLen */
ARM GAS  /tmp/ccWpuuii.s 			page 26


 959:./Libraries/CMSIS/DSP/Source/TransformFunctions/arm_cfft_radix4_f32.c ****       a2 = (Xaplusc - Xbplusd);
 960:./Libraries/CMSIS/DSP/Source/TransformFunctions/arm_cfft_radix4_f32.c ****       /* yc' = (ya-yb+yc-yd) * onebyfftLen  */
 961:./Libraries/CMSIS/DSP/Source/TransformFunctions/arm_cfft_radix4_f32.c ****       a3 = (Yaplusc - Ybplusd);
 962:./Libraries/CMSIS/DSP/Source/TransformFunctions/arm_cfft_radix4_f32.c ****       /* xb' = (xa-yb-xc+yd) * onebyfftLen */
 963:./Libraries/CMSIS/DSP/Source/TransformFunctions/arm_cfft_radix4_f32.c ****       a4 = (Xaminusc - Ybminusd);
 964:./Libraries/CMSIS/DSP/Source/TransformFunctions/arm_cfft_radix4_f32.c ****       /* yb' = (ya+xb-yc-xd) * onebyfftLen */
 965:./Libraries/CMSIS/DSP/Source/TransformFunctions/arm_cfft_radix4_f32.c ****       a5 = (Yaminusc + Xbminusd);
 966:./Libraries/CMSIS/DSP/Source/TransformFunctions/arm_cfft_radix4_f32.c ****       /* xd' = (xa-yb-xc+yd) * onebyfftLen */
 967:./Libraries/CMSIS/DSP/Source/TransformFunctions/arm_cfft_radix4_f32.c ****       a6 = (Xaminusc + Ybminusd);
 968:./Libraries/CMSIS/DSP/Source/TransformFunctions/arm_cfft_radix4_f32.c ****       /* yd' = (ya-xb-yc+xd) * onebyfftLen */
 969:./Libraries/CMSIS/DSP/Source/TransformFunctions/arm_cfft_radix4_f32.c ****       a7 = (Yaminusc - Xbminusd);
 970:./Libraries/CMSIS/DSP/Source/TransformFunctions/arm_cfft_radix4_f32.c **** 
 971:./Libraries/CMSIS/DSP/Source/TransformFunctions/arm_cfft_radix4_f32.c ****       p0 = a0 * onebyfftLen;
 972:./Libraries/CMSIS/DSP/Source/TransformFunctions/arm_cfft_radix4_f32.c ****       p1 = a1 * onebyfftLen;
 973:./Libraries/CMSIS/DSP/Source/TransformFunctions/arm_cfft_radix4_f32.c ****       p2 = a2 * onebyfftLen;
 974:./Libraries/CMSIS/DSP/Source/TransformFunctions/arm_cfft_radix4_f32.c ****       p3 = a3 * onebyfftLen;
 975:./Libraries/CMSIS/DSP/Source/TransformFunctions/arm_cfft_radix4_f32.c ****       p4 = a4 * onebyfftLen;
 976:./Libraries/CMSIS/DSP/Source/TransformFunctions/arm_cfft_radix4_f32.c ****       p5 = a5 * onebyfftLen;
 977:./Libraries/CMSIS/DSP/Source/TransformFunctions/arm_cfft_radix4_f32.c ****       p6 = a6 * onebyfftLen;
 978:./Libraries/CMSIS/DSP/Source/TransformFunctions/arm_cfft_radix4_f32.c ****       p7 = a7 * onebyfftLen;
 979:./Libraries/CMSIS/DSP/Source/TransformFunctions/arm_cfft_radix4_f32.c **** 
 980:./Libraries/CMSIS/DSP/Source/TransformFunctions/arm_cfft_radix4_f32.c ****       /* xa' = (xa+xb+xc+xd) * onebyfftLen */
 981:./Libraries/CMSIS/DSP/Source/TransformFunctions/arm_cfft_radix4_f32.c ****       ptr1[0] = p0;
 982:./Libraries/CMSIS/DSP/Source/TransformFunctions/arm_cfft_radix4_f32.c ****       /* ya' = (ya+yb+yc+yd) * onebyfftLen */
 983:./Libraries/CMSIS/DSP/Source/TransformFunctions/arm_cfft_radix4_f32.c ****       ptr1[1] = p1;
 984:./Libraries/CMSIS/DSP/Source/TransformFunctions/arm_cfft_radix4_f32.c ****       /* xc' = (xa-xb+xc-xd) * onebyfftLen */
 985:./Libraries/CMSIS/DSP/Source/TransformFunctions/arm_cfft_radix4_f32.c ****       ptr1[2] = p2;
 986:./Libraries/CMSIS/DSP/Source/TransformFunctions/arm_cfft_radix4_f32.c ****       /* yc' = (ya-yb+yc-yd) * onebyfftLen  */
 987:./Libraries/CMSIS/DSP/Source/TransformFunctions/arm_cfft_radix4_f32.c ****       ptr1[3] = p3;
 988:./Libraries/CMSIS/DSP/Source/TransformFunctions/arm_cfft_radix4_f32.c ****       /* xb' = (xa-yb-xc+yd) * onebyfftLen */
 989:./Libraries/CMSIS/DSP/Source/TransformFunctions/arm_cfft_radix4_f32.c ****       ptr1[4] = p4;
 990:./Libraries/CMSIS/DSP/Source/TransformFunctions/arm_cfft_radix4_f32.c ****       /* yb' = (ya+xb-yc-xd) * onebyfftLen */
 991:./Libraries/CMSIS/DSP/Source/TransformFunctions/arm_cfft_radix4_f32.c ****       ptr1[5] = p5;
 992:./Libraries/CMSIS/DSP/Source/TransformFunctions/arm_cfft_radix4_f32.c ****       /* xd' = (xa-yb-xc+yd) * onebyfftLen */
 993:./Libraries/CMSIS/DSP/Source/TransformFunctions/arm_cfft_radix4_f32.c ****       ptr1[6] = p6;
 994:./Libraries/CMSIS/DSP/Source/TransformFunctions/arm_cfft_radix4_f32.c ****       /* yd' = (ya-xb-yc+xd) * onebyfftLen */
 995:./Libraries/CMSIS/DSP/Source/TransformFunctions/arm_cfft_radix4_f32.c ****       ptr1[7] = p7;
 996:./Libraries/CMSIS/DSP/Source/TransformFunctions/arm_cfft_radix4_f32.c **** 
 997:./Libraries/CMSIS/DSP/Source/TransformFunctions/arm_cfft_radix4_f32.c ****       /* increment source pointer by 8 for next calculations */
 998:./Libraries/CMSIS/DSP/Source/TransformFunctions/arm_cfft_radix4_f32.c ****       ptr1 = ptr1 + 8U;
 999:./Libraries/CMSIS/DSP/Source/TransformFunctions/arm_cfft_radix4_f32.c **** 
1000:./Libraries/CMSIS/DSP/Source/TransformFunctions/arm_cfft_radix4_f32.c ****    } while (--j);
1001:./Libraries/CMSIS/DSP/Source/TransformFunctions/arm_cfft_radix4_f32.c **** 
1002:./Libraries/CMSIS/DSP/Source/TransformFunctions/arm_cfft_radix4_f32.c **** #else
1003:./Libraries/CMSIS/DSP/Source/TransformFunctions/arm_cfft_radix4_f32.c **** 
1004:./Libraries/CMSIS/DSP/Source/TransformFunctions/arm_cfft_radix4_f32.c ****         float32_t t1, t2, r1, r2, s1, s2;
 379              		.loc 1 1004 9 view .LVU140
1005:./Libraries/CMSIS/DSP/Source/TransformFunctions/arm_cfft_radix4_f32.c **** 
1006:./Libraries/CMSIS/DSP/Source/TransformFunctions/arm_cfft_radix4_f32.c ****    /*  Initializations for the first stage */
1007:./Libraries/CMSIS/DSP/Source/TransformFunctions/arm_cfft_radix4_f32.c ****    n2 = fftLen;
 380              		.loc 1 1007 4 view .LVU141
 613:./Libraries/CMSIS/DSP/Source/TransformFunctions/arm_cfft_radix4_f32.c ****         float32_t co1, co2, co3, si1, si2, si3;
 381              		.loc 1 613 1 is_stmt 0 view .LVU142
 382 0000 2DE9F04F 		push	{r4, r5, r6, r7, r8, r9, r10, fp, lr}
 383              	.LCFI3:
 384              		.cfi_def_cfa_offset 36
 385              		.cfi_offset 4, -36
ARM GAS  /tmp/ccWpuuii.s 			page 27


 386              		.cfi_offset 5, -32
 387              		.cfi_offset 6, -28
 388              		.cfi_offset 7, -24
 389              		.cfi_offset 8, -20
 390              		.cfi_offset 9, -16
 391              		.cfi_offset 10, -12
 392              		.cfi_offset 11, -8
 393              		.cfi_offset 14, -4
1008:./Libraries/CMSIS/DSP/Source/TransformFunctions/arm_cfft_radix4_f32.c ****    n1 = n2;
1009:./Libraries/CMSIS/DSP/Source/TransformFunctions/arm_cfft_radix4_f32.c **** 
1010:./Libraries/CMSIS/DSP/Source/TransformFunctions/arm_cfft_radix4_f32.c ****    /*  Calculation of first stage */
1011:./Libraries/CMSIS/DSP/Source/TransformFunctions/arm_cfft_radix4_f32.c ****    for (k = fftLen; k > 4U; k >>= 2U)
 394              		.loc 1 1011 4 view .LVU143
 395 0004 0429     		cmp	r1, #4
 613:./Libraries/CMSIS/DSP/Source/TransformFunctions/arm_cfft_radix4_f32.c ****         float32_t co1, co2, co3, si1, si2, si3;
 396              		.loc 1 613 1 view .LVU144
 397 0006 8946     		mov	r9, r1
 398              	.LVL35:
1008:./Libraries/CMSIS/DSP/Source/TransformFunctions/arm_cfft_radix4_f32.c ****    n1 = n2;
 399              		.loc 1 1008 4 is_stmt 1 view .LVU145
 400              		.loc 1 1011 4 view .LVU146
 613:./Libraries/CMSIS/DSP/Source/TransformFunctions/arm_cfft_radix4_f32.c ****         float32_t co1, co2, co3, si1, si2, si3;
 401              		.loc 1 613 1 is_stmt 0 view .LVU147
 402 0008 2DED028B 		vpush.64	{d8}
 403              	.LCFI4:
 404              		.cfi_def_cfa_offset 44
 405              		.cfi_offset 80, -44
 406              		.cfi_offset 81, -40
 407 000c 8DB0     		sub	sp, sp, #52
 408              	.LCFI5:
 409              		.cfi_def_cfa_offset 96
 613:./Libraries/CMSIS/DSP/Source/TransformFunctions/arm_cfft_radix4_f32.c ****         float32_t co1, co2, co3, si1, si2, si3;
 410              		.loc 1 613 1 view .LVU148
 411 000e 0490     		str	r0, [sp, #16]
 412 0010 0993     		str	r3, [sp, #36]
 413              	.LVL36:
 414              		.loc 1 1011 21 is_stmt 1 view .LVU149
 415              		.loc 1 1011 4 is_stmt 0 view .LVU150
 416 0012 40F23F81 		bls	.L18
 417 0016 131D     		adds	r3, r2, #4
 418 0018 0391     		str	r1, [sp, #12]
 419 001a 0B93     		str	r3, [sp, #44]
 420              	.LVL37:
 421              	.L16:
1012:./Libraries/CMSIS/DSP/Source/TransformFunctions/arm_cfft_radix4_f32.c ****    {
1013:./Libraries/CMSIS/DSP/Source/TransformFunctions/arm_cfft_radix4_f32.c ****       /*  Initializations for the first stage */
1014:./Libraries/CMSIS/DSP/Source/TransformFunctions/arm_cfft_radix4_f32.c ****       n1 = n2;
 422              		.loc 1 1014 7 is_stmt 1 view .LVU151
1015:./Libraries/CMSIS/DSP/Source/TransformFunctions/arm_cfft_radix4_f32.c ****       n2 >>= 2U;
 423              		.loc 1 1015 7 view .LVU152
 424 001c 039B     		ldr	r3, [sp, #12]
1016:./Libraries/CMSIS/DSP/Source/TransformFunctions/arm_cfft_radix4_f32.c ****       ia1 = 0U;
1017:./Libraries/CMSIS/DSP/Source/TransformFunctions/arm_cfft_radix4_f32.c **** 
1018:./Libraries/CMSIS/DSP/Source/TransformFunctions/arm_cfft_radix4_f32.c ****       /*  Calculation of first stage */
1019:./Libraries/CMSIS/DSP/Source/TransformFunctions/arm_cfft_radix4_f32.c ****       j = 0;
 425              		.loc 1 1019 9 is_stmt 0 view .LVU153
 426 001e 4FF00008 		mov	r8, #0
ARM GAS  /tmp/ccWpuuii.s 			page 28


 427 0022 0998     		ldr	r0, [sp, #36]
1015:./Libraries/CMSIS/DSP/Source/TransformFunctions/arm_cfft_radix4_f32.c ****       n2 >>= 2U;
 428              		.loc 1 1015 10 view .LVU154
 429 0024 9A08     		lsrs	r2, r3, #2
 430 0026 9C46     		mov	ip, r3
 431 0028 00EB4003 		add	r3, r0, r0, lsl #1
 432 002c 0B9D     		ldr	r5, [sp, #44]
 433 002e D400     		lsls	r4, r2, #3
 434 0030 0392     		str	r2, [sp, #12]
 435              	.LVL38:
1016:./Libraries/CMSIS/DSP/Source/TransformFunctions/arm_cfft_radix4_f32.c ****       ia1 = 0U;
 436              		.loc 1 1016 7 is_stmt 1 view .LVU155
 437              		.loc 1 1019 7 view .LVU156
 438              		.loc 1 1019 7 is_stmt 0 view .LVU157
 439 0032 DB00     		lsls	r3, r3, #3
 440 0034 AB46     		mov	fp, r5
 441 0036 211D     		adds	r1, r4, #4
 442 0038 0A94     		str	r4, [sp, #40]
 443 003a 049C     		ldr	r4, [sp, #16]
 444 003c 02EB420E 		add	lr, r2, r2, lsl #1
 445 0040 0793     		str	r3, [sp, #28]
 446 0042 C2EB4272 		rsb	r2, r2, r2, lsl #29
 447              	.LVL39:
 448              		.loc 1 1019 7 view .LVU158
 449 0046 6118     		adds	r1, r4, r1
 450 0048 C300     		lsls	r3, r0, #3
 451 004a D200     		lsls	r2, r2, #3
1015:./Libraries/CMSIS/DSP/Source/TransformFunctions/arm_cfft_radix4_f32.c ****       n2 >>= 2U;
 452              		.loc 1 1015 10 view .LVU159
 453 004c AA46     		mov	r10, r5
 454 004e 0291     		str	r1, [sp, #8]
 455 0050 04EBCE0E 		add	lr, r4, lr, lsl #3
 456 0054 0693     		str	r3, [sp, #24]
 457 0056 4FEACC01 		lsl	r1, ip, #3
 458 005a 0301     		lsls	r3, r0, #4
 459 005c 0195     		str	r5, [sp, #4]
 460 005e 0892     		str	r2, [sp, #32]
 461 0060 0593     		str	r3, [sp, #20]
 462              	.LVL40:
 463              	.L15:
1020:./Libraries/CMSIS/DSP/Source/TransformFunctions/arm_cfft_radix4_f32.c ****       do
 464              		.loc 1 1020 7 is_stmt 1 view .LVU160
1021:./Libraries/CMSIS/DSP/Source/TransformFunctions/arm_cfft_radix4_f32.c ****       {
1022:./Libraries/CMSIS/DSP/Source/TransformFunctions/arm_cfft_radix4_f32.c ****          /*  index calculation for the coefficients */
1023:./Libraries/CMSIS/DSP/Source/TransformFunctions/arm_cfft_radix4_f32.c ****          ia2 = ia1 + ia1;
 465              		.loc 1 1023 10 view .LVU161
1024:./Libraries/CMSIS/DSP/Source/TransformFunctions/arm_cfft_radix4_f32.c ****          ia3 = ia2 + ia1;
 466              		.loc 1 1024 10 view .LVU162
1025:./Libraries/CMSIS/DSP/Source/TransformFunctions/arm_cfft_radix4_f32.c ****          co1 = pCoef[ia1 * 2U];
 467              		.loc 1 1025 10 view .LVU163
 468 0062 049B     		ldr	r3, [sp, #16]
 469 0064 0EF10405 		add	r5, lr, #4
1026:./Libraries/CMSIS/DSP/Source/TransformFunctions/arm_cfft_radix4_f32.c ****          si1 = pCoef[(ia1 * 2U) + 1U];
1027:./Libraries/CMSIS/DSP/Source/TransformFunctions/arm_cfft_radix4_f32.c ****          co2 = pCoef[ia2 * 2U];
 470              		.loc 1 1027 14 is_stmt 0 view .LVU164
 471 0068 0198     		ldr	r0, [sp, #4]
1028:./Libraries/CMSIS/DSP/Source/TransformFunctions/arm_cfft_radix4_f32.c ****          si2 = pCoef[(ia2 * 2U) + 1U];
ARM GAS  /tmp/ccWpuuii.s 			page 29


1029:./Libraries/CMSIS/DSP/Source/TransformFunctions/arm_cfft_radix4_f32.c ****          co3 = pCoef[ia3 * 2U];
1030:./Libraries/CMSIS/DSP/Source/TransformFunctions/arm_cfft_radix4_f32.c ****          si3 = pCoef[(ia3 * 2U) + 1U];
1031:./Libraries/CMSIS/DSP/Source/TransformFunctions/arm_cfft_radix4_f32.c **** 
1032:./Libraries/CMSIS/DSP/Source/TransformFunctions/arm_cfft_radix4_f32.c ****          /*  Twiddle coefficients index modifier */
1033:./Libraries/CMSIS/DSP/Source/TransformFunctions/arm_cfft_radix4_f32.c ****          ia1 = ia1 + twidCoefModifier;
1034:./Libraries/CMSIS/DSP/Source/TransformFunctions/arm_cfft_radix4_f32.c **** 
1035:./Libraries/CMSIS/DSP/Source/TransformFunctions/arm_cfft_radix4_f32.c ****          i0 = j;
 472              		.loc 1 1035 13 view .LVU165
 473 006a 4746     		mov	r7, r8
 474 006c 03EBC802 		add	r2, r3, r8, lsl #3
 475 0070 029C     		ldr	r4, [sp, #8]
 476 0072 089B     		ldr	r3, [sp, #32]
1027:./Libraries/CMSIS/DSP/Source/TransformFunctions/arm_cfft_radix4_f32.c ****          si2 = pCoef[(ia2 * 2U) + 1U];
 477              		.loc 1 1027 14 view .LVU166
 478 0074 10ED013A 		vldr.32	s6, [r0, #-4]
 479 0078 261F     		subs	r6, r4, #4
1028:./Libraries/CMSIS/DSP/Source/TransformFunctions/arm_cfft_radix4_f32.c ****          si2 = pCoef[(ia2 * 2U) + 1U];
 480              		.loc 1 1028 14 view .LVU167
 481 007a D0ED003A 		vldr.32	s7, [r0]
 482 007e 7344     		add	r3, r3, lr
1025:./Libraries/CMSIS/DSP/Source/TransformFunctions/arm_cfft_radix4_f32.c ****          si1 = pCoef[(ia1 * 2U) + 1U];
 483              		.loc 1 1025 14 view .LVU168
 484 0080 1BED012A 		vldr.32	s4, [fp, #-4]
 485              	.LVL41:
1026:./Libraries/CMSIS/DSP/Source/TransformFunctions/arm_cfft_radix4_f32.c ****          co2 = pCoef[ia2 * 2U];
 486              		.loc 1 1026 10 is_stmt 1 view .LVU169
1030:./Libraries/CMSIS/DSP/Source/TransformFunctions/arm_cfft_radix4_f32.c **** 
 487              		.loc 1 1030 14 is_stmt 0 view .LVU170
 488 0084 7046     		mov	r0, lr
1026:./Libraries/CMSIS/DSP/Source/TransformFunctions/arm_cfft_radix4_f32.c ****          co2 = pCoef[ia2 * 2U];
 489              		.loc 1 1026 14 view .LVU171
 490 0086 DBED002A 		vldr.32	s5, [fp]
 491              	.LVL42:
1027:./Libraries/CMSIS/DSP/Source/TransformFunctions/arm_cfft_radix4_f32.c ****          si2 = pCoef[(ia2 * 2U) + 1U];
 492              		.loc 1 1027 10 is_stmt 1 view .LVU172
1028:./Libraries/CMSIS/DSP/Source/TransformFunctions/arm_cfft_radix4_f32.c ****          co3 = pCoef[ia3 * 2U];
 493              		.loc 1 1028 10 view .LVU173
1029:./Libraries/CMSIS/DSP/Source/TransformFunctions/arm_cfft_radix4_f32.c ****          si3 = pCoef[(ia3 * 2U) + 1U];
 494              		.loc 1 1029 10 view .LVU174
1029:./Libraries/CMSIS/DSP/Source/TransformFunctions/arm_cfft_radix4_f32.c ****          si3 = pCoef[(ia3 * 2U) + 1U];
 495              		.loc 1 1029 14 is_stmt 0 view .LVU175
 496 008a 1AED014A 		vldr.32	s8, [r10, #-4]
 497              	.LVL43:
1030:./Libraries/CMSIS/DSP/Source/TransformFunctions/arm_cfft_radix4_f32.c **** 
 498              		.loc 1 1030 10 is_stmt 1 view .LVU176
1030:./Libraries/CMSIS/DSP/Source/TransformFunctions/arm_cfft_radix4_f32.c **** 
 499              		.loc 1 1030 14 is_stmt 0 view .LVU177
 500 008e DAED004A 		vldr.32	s9, [r10]
 501              	.LVL44:
1033:./Libraries/CMSIS/DSP/Source/TransformFunctions/arm_cfft_radix4_f32.c **** 
 502              		.loc 1 1033 10 is_stmt 1 view .LVU178
 503              		.loc 1 1035 10 view .LVU179
 504              	.L14:
1036:./Libraries/CMSIS/DSP/Source/TransformFunctions/arm_cfft_radix4_f32.c ****          do
 505              		.loc 1 1036 10 discriminator 1 view .LVU180
1037:./Libraries/CMSIS/DSP/Source/TransformFunctions/arm_cfft_radix4_f32.c ****          {
1038:./Libraries/CMSIS/DSP/Source/TransformFunctions/arm_cfft_radix4_f32.c ****             /*  index calculation for the input as, */
ARM GAS  /tmp/ccWpuuii.s 			page 30


1039:./Libraries/CMSIS/DSP/Source/TransformFunctions/arm_cfft_radix4_f32.c ****             /*  pSrc[i0 + 0], pSrc[i0 + fftLen/4], pSrc[i0 + fftLen/2], pSrc[i0 + 3fftLen/4] */
1040:./Libraries/CMSIS/DSP/Source/TransformFunctions/arm_cfft_radix4_f32.c ****             i1 = i0 + n2;
 506              		.loc 1 1040 13 discriminator 1 view .LVU181
1041:./Libraries/CMSIS/DSP/Source/TransformFunctions/arm_cfft_radix4_f32.c ****             i2 = i1 + n2;
 507              		.loc 1 1041 13 discriminator 1 view .LVU182
1042:./Libraries/CMSIS/DSP/Source/TransformFunctions/arm_cfft_radix4_f32.c ****             i3 = i2 + n2;
 508              		.loc 1 1042 13 discriminator 1 view .LVU183
1043:./Libraries/CMSIS/DSP/Source/TransformFunctions/arm_cfft_radix4_f32.c **** 
1044:./Libraries/CMSIS/DSP/Source/TransformFunctions/arm_cfft_radix4_f32.c ****             /* xa + xc */
1045:./Libraries/CMSIS/DSP/Source/TransformFunctions/arm_cfft_radix4_f32.c ****             r1 = pSrc[(2U * i0)] + pSrc[(2U * i2)];
 509              		.loc 1 1045 13 discriminator 1 view .LVU184
 510              		.loc 1 1045 40 is_stmt 0 discriminator 1 view .LVU185
 511 0092 D3ED007A 		vldr.32	s15, [r3]
1046:./Libraries/CMSIS/DSP/Source/TransformFunctions/arm_cfft_radix4_f32.c **** 
1047:./Libraries/CMSIS/DSP/Source/TransformFunctions/arm_cfft_radix4_f32.c ****             /* xa - xc */
1048:./Libraries/CMSIS/DSP/Source/TransformFunctions/arm_cfft_radix4_f32.c ****             r2 = pSrc[(2U * i0)] - pSrc[(2U * i2)];
1049:./Libraries/CMSIS/DSP/Source/TransformFunctions/arm_cfft_radix4_f32.c **** 
1050:./Libraries/CMSIS/DSP/Source/TransformFunctions/arm_cfft_radix4_f32.c ****             /* ya + yc */
1051:./Libraries/CMSIS/DSP/Source/TransformFunctions/arm_cfft_radix4_f32.c ****             s1 = pSrc[(2U * i0) + 1U] + pSrc[(2U * i2) + 1U];
1052:./Libraries/CMSIS/DSP/Source/TransformFunctions/arm_cfft_radix4_f32.c **** 
1053:./Libraries/CMSIS/DSP/Source/TransformFunctions/arm_cfft_radix4_f32.c ****             /* ya - yc */
1054:./Libraries/CMSIS/DSP/Source/TransformFunctions/arm_cfft_radix4_f32.c ****             s2 = pSrc[(2U * i0) + 1U] - pSrc[(2U * i2) + 1U];
1055:./Libraries/CMSIS/DSP/Source/TransformFunctions/arm_cfft_radix4_f32.c **** 
1056:./Libraries/CMSIS/DSP/Source/TransformFunctions/arm_cfft_radix4_f32.c ****             /* xb + xd */
1057:./Libraries/CMSIS/DSP/Source/TransformFunctions/arm_cfft_radix4_f32.c ****             t1 = pSrc[2U * i1] + pSrc[2U * i3];
1058:./Libraries/CMSIS/DSP/Source/TransformFunctions/arm_cfft_radix4_f32.c **** 
1059:./Libraries/CMSIS/DSP/Source/TransformFunctions/arm_cfft_radix4_f32.c ****             /* xa' = xa + xb + xc + xd */
1060:./Libraries/CMSIS/DSP/Source/TransformFunctions/arm_cfft_radix4_f32.c ****             pSrc[2U * i0] = r1 + t1;
1061:./Libraries/CMSIS/DSP/Source/TransformFunctions/arm_cfft_radix4_f32.c **** 
1062:./Libraries/CMSIS/DSP/Source/TransformFunctions/arm_cfft_radix4_f32.c ****             /* xa + xc -(xb + xd) */
1063:./Libraries/CMSIS/DSP/Source/TransformFunctions/arm_cfft_radix4_f32.c ****             r1 = r1 - t1;
1064:./Libraries/CMSIS/DSP/Source/TransformFunctions/arm_cfft_radix4_f32.c **** 
1065:./Libraries/CMSIS/DSP/Source/TransformFunctions/arm_cfft_radix4_f32.c ****             /* yb + yd */
1066:./Libraries/CMSIS/DSP/Source/TransformFunctions/arm_cfft_radix4_f32.c ****             t2 = pSrc[(2U * i1) + 1U] + pSrc[(2U * i3) + 1U];
1067:./Libraries/CMSIS/DSP/Source/TransformFunctions/arm_cfft_radix4_f32.c **** 
1068:./Libraries/CMSIS/DSP/Source/TransformFunctions/arm_cfft_radix4_f32.c ****             /* ya' = ya + yb + yc + yd */
1069:./Libraries/CMSIS/DSP/Source/TransformFunctions/arm_cfft_radix4_f32.c ****             pSrc[(2U * i0) + 1U] = s1 + t2;
1070:./Libraries/CMSIS/DSP/Source/TransformFunctions/arm_cfft_radix4_f32.c **** 
1071:./Libraries/CMSIS/DSP/Source/TransformFunctions/arm_cfft_radix4_f32.c ****             /* (ya + yc) - (yb + yd) */
1072:./Libraries/CMSIS/DSP/Source/TransformFunctions/arm_cfft_radix4_f32.c ****             s1 = s1 - t2;
1073:./Libraries/CMSIS/DSP/Source/TransformFunctions/arm_cfft_radix4_f32.c **** 
1074:./Libraries/CMSIS/DSP/Source/TransformFunctions/arm_cfft_radix4_f32.c ****             /* (yb - yd) */
1075:./Libraries/CMSIS/DSP/Source/TransformFunctions/arm_cfft_radix4_f32.c ****             t1 = pSrc[(2U * i1) + 1U] - pSrc[(2U * i3) + 1U];
1076:./Libraries/CMSIS/DSP/Source/TransformFunctions/arm_cfft_radix4_f32.c **** 
1077:./Libraries/CMSIS/DSP/Source/TransformFunctions/arm_cfft_radix4_f32.c ****             /* (xb - xd) */
1078:./Libraries/CMSIS/DSP/Source/TransformFunctions/arm_cfft_radix4_f32.c ****             t2 = pSrc[2U * i1] - pSrc[2U * i3];
1079:./Libraries/CMSIS/DSP/Source/TransformFunctions/arm_cfft_radix4_f32.c **** 
1080:./Libraries/CMSIS/DSP/Source/TransformFunctions/arm_cfft_radix4_f32.c ****             /* xc' = (xa-xb+xc-xd)co2 - (ya-yb+yc-yd)(si2) */
1081:./Libraries/CMSIS/DSP/Source/TransformFunctions/arm_cfft_radix4_f32.c ****             pSrc[2U * i1] = (r1 * co2) - (s1 * si2);
1082:./Libraries/CMSIS/DSP/Source/TransformFunctions/arm_cfft_radix4_f32.c **** 
1083:./Libraries/CMSIS/DSP/Source/TransformFunctions/arm_cfft_radix4_f32.c ****             /* yc' = (ya-yb+yc-yd)co2 + (xa-xb+xc-xd)(si2) */
1084:./Libraries/CMSIS/DSP/Source/TransformFunctions/arm_cfft_radix4_f32.c ****             pSrc[(2U * i1) + 1U] = (s1 * co2) + (r1 * si2);
1085:./Libraries/CMSIS/DSP/Source/TransformFunctions/arm_cfft_radix4_f32.c **** 
1086:./Libraries/CMSIS/DSP/Source/TransformFunctions/arm_cfft_radix4_f32.c ****             /* (xa - xc) - (yb - yd) */
1087:./Libraries/CMSIS/DSP/Source/TransformFunctions/arm_cfft_radix4_f32.c ****             r1 = r2 - t1;
1088:./Libraries/CMSIS/DSP/Source/TransformFunctions/arm_cfft_radix4_f32.c **** 
1089:./Libraries/CMSIS/DSP/Source/TransformFunctions/arm_cfft_radix4_f32.c ****             /* (xa - xc) + (yb - yd) */
ARM GAS  /tmp/ccWpuuii.s 			page 31


1090:./Libraries/CMSIS/DSP/Source/TransformFunctions/arm_cfft_radix4_f32.c ****             r2 = r2 + t1;
1091:./Libraries/CMSIS/DSP/Source/TransformFunctions/arm_cfft_radix4_f32.c **** 
1092:./Libraries/CMSIS/DSP/Source/TransformFunctions/arm_cfft_radix4_f32.c ****             /* (ya - yc) +  (xb - xd) */
1093:./Libraries/CMSIS/DSP/Source/TransformFunctions/arm_cfft_radix4_f32.c ****             s1 = s2 + t2;
1094:./Libraries/CMSIS/DSP/Source/TransformFunctions/arm_cfft_radix4_f32.c **** 
1095:./Libraries/CMSIS/DSP/Source/TransformFunctions/arm_cfft_radix4_f32.c ****             /* (ya - yc) -  (xb - xd) */
1096:./Libraries/CMSIS/DSP/Source/TransformFunctions/arm_cfft_radix4_f32.c ****             s2 = s2 - t2;
1097:./Libraries/CMSIS/DSP/Source/TransformFunctions/arm_cfft_radix4_f32.c **** 
1098:./Libraries/CMSIS/DSP/Source/TransformFunctions/arm_cfft_radix4_f32.c ****             /* xb' = (xa+yb-xc-yd)co1 - (ya-xb-yc+xd)(si1) */
1099:./Libraries/CMSIS/DSP/Source/TransformFunctions/arm_cfft_radix4_f32.c ****             pSrc[2U * i2] = (r1 * co1) - (s1 * si1);
1100:./Libraries/CMSIS/DSP/Source/TransformFunctions/arm_cfft_radix4_f32.c **** 
1101:./Libraries/CMSIS/DSP/Source/TransformFunctions/arm_cfft_radix4_f32.c ****             /* yb' = (ya-xb-yc+xd)co1 + (xa+yb-xc-yd)(si1) */
1102:./Libraries/CMSIS/DSP/Source/TransformFunctions/arm_cfft_radix4_f32.c ****             pSrc[(2U * i2) + 1U] = (s1 * co1) + (r1 * si1);
1103:./Libraries/CMSIS/DSP/Source/TransformFunctions/arm_cfft_radix4_f32.c **** 
1104:./Libraries/CMSIS/DSP/Source/TransformFunctions/arm_cfft_radix4_f32.c ****             /* xd' = (xa-yb-xc+yd)co3 - (ya+xb-yc-xd)(si3) */
1105:./Libraries/CMSIS/DSP/Source/TransformFunctions/arm_cfft_radix4_f32.c ****             pSrc[2U * i3] = (r2 * co3) - (s2 * si3);
1106:./Libraries/CMSIS/DSP/Source/TransformFunctions/arm_cfft_radix4_f32.c **** 
1107:./Libraries/CMSIS/DSP/Source/TransformFunctions/arm_cfft_radix4_f32.c ****             /* yd' = (ya+xb-yc-xd)co3 + (xa-yb-xc+yd)(si3) */
1108:./Libraries/CMSIS/DSP/Source/TransformFunctions/arm_cfft_radix4_f32.c ****             pSrc[(2U * i3) + 1U] = (s2 * co3) + (r2 * si3);
1109:./Libraries/CMSIS/DSP/Source/TransformFunctions/arm_cfft_radix4_f32.c **** 
1110:./Libraries/CMSIS/DSP/Source/TransformFunctions/arm_cfft_radix4_f32.c ****             i0 += n1;
 512              		.loc 1 1110 16 discriminator 1 view .LVU186
 513 0096 6744     		add	r7, r7, ip
 514              	.LVL45:
1057:./Libraries/CMSIS/DSP/Source/TransformFunctions/arm_cfft_radix4_f32.c **** 
 515              		.loc 1 1057 16 discriminator 1 view .LVU187
 516 0098 15ED016A 		vldr.32	s12, [r5, #-4]
1045:./Libraries/CMSIS/DSP/Source/TransformFunctions/arm_cfft_radix4_f32.c **** 
 517              		.loc 1 1045 22 discriminator 1 view .LVU188
 518 009c 92ED007A 		vldr.32	s14, [r2]
1111:./Libraries/CMSIS/DSP/Source/TransformFunctions/arm_cfft_radix4_f32.c ****          } while ( i0 < fftLen);
 519              		.loc 1 1111 10 discriminator 1 view .LVU189
 520 00a0 B945     		cmp	r9, r7
1057:./Libraries/CMSIS/DSP/Source/TransformFunctions/arm_cfft_radix4_f32.c **** 
 521              		.loc 1 1057 16 discriminator 1 view .LVU190
 522 00a2 54ED015A 		vldr.32	s11, [r4, #-4]
1045:./Libraries/CMSIS/DSP/Source/TransformFunctions/arm_cfft_radix4_f32.c **** 
 523              		.loc 1 1045 16 discriminator 1 view .LVU191
 524 00a6 77EE276A 		vadd.f32	s13, s14, s15
 525              	.LVL46:
1048:./Libraries/CMSIS/DSP/Source/TransformFunctions/arm_cfft_radix4_f32.c **** 
 526              		.loc 1 1048 13 is_stmt 1 discriminator 1 view .LVU192
1051:./Libraries/CMSIS/DSP/Source/TransformFunctions/arm_cfft_radix4_f32.c **** 
 527              		.loc 1 1051 45 is_stmt 0 discriminator 1 view .LVU193
 528 00aa 93ED015A 		vldr.32	s10, [r3, #4]
1057:./Libraries/CMSIS/DSP/Source/TransformFunctions/arm_cfft_radix4_f32.c **** 
 529              		.loc 1 1057 16 discriminator 1 view .LVU194
 530 00ae 75EE865A 		vadd.f32	s11, s11, s12
1048:./Libraries/CMSIS/DSP/Source/TransformFunctions/arm_cfft_radix4_f32.c **** 
 531              		.loc 1 1048 16 discriminator 1 view .LVU195
 532 00b2 37EE677A 		vsub.f32	s14, s14, s15
 533              	.LVL47:
1051:./Libraries/CMSIS/DSP/Source/TransformFunctions/arm_cfft_radix4_f32.c **** 
 534              		.loc 1 1051 13 is_stmt 1 discriminator 1 view .LVU196
1051:./Libraries/CMSIS/DSP/Source/TransformFunctions/arm_cfft_radix4_f32.c **** 
 535              		.loc 1 1051 22 is_stmt 0 discriminator 1 view .LVU197
 536 00b6 D2ED017A 		vldr.32	s15, [r2, #4]
ARM GAS  /tmp/ccWpuuii.s 			page 32


1060:./Libraries/CMSIS/DSP/Source/TransformFunctions/arm_cfft_radix4_f32.c **** 
 537              		.loc 1 1060 32 discriminator 1 view .LVU198
 538 00ba 76EEA51A 		vadd.f32	s3, s13, s11
1051:./Libraries/CMSIS/DSP/Source/TransformFunctions/arm_cfft_radix4_f32.c **** 
 539              		.loc 1 1051 16 discriminator 1 view .LVU199
 540 00be 37EE856A 		vadd.f32	s12, s15, s10
 541              	.LVL48:
1054:./Libraries/CMSIS/DSP/Source/TransformFunctions/arm_cfft_radix4_f32.c **** 
 542              		.loc 1 1054 13 is_stmt 1 discriminator 1 view .LVU200
1063:./Libraries/CMSIS/DSP/Source/TransformFunctions/arm_cfft_radix4_f32.c **** 
 543              		.loc 1 1063 16 is_stmt 0 discriminator 1 view .LVU201
 544 00c2 76EEE56A 		vsub.f32	s13, s13, s11
 545              	.LVL49:
1060:./Libraries/CMSIS/DSP/Source/TransformFunctions/arm_cfft_radix4_f32.c **** 
 546              		.loc 1 1060 27 discriminator 1 view .LVU202
 547 00c6 C2ED001A 		vstr.32	s3, [r2]
 548              	.LVL50:
1054:./Libraries/CMSIS/DSP/Source/TransformFunctions/arm_cfft_radix4_f32.c **** 
 549              		.loc 1 1054 16 discriminator 1 view .LVU203
 550 00ca 77EEC57A 		vsub.f32	s15, s15, s10
 551              	.LVL51:
1057:./Libraries/CMSIS/DSP/Source/TransformFunctions/arm_cfft_radix4_f32.c **** 
 552              		.loc 1 1057 13 is_stmt 1 discriminator 1 view .LVU204
1060:./Libraries/CMSIS/DSP/Source/TransformFunctions/arm_cfft_radix4_f32.c **** 
 553              		.loc 1 1060 13 discriminator 1 view .LVU205
1063:./Libraries/CMSIS/DSP/Source/TransformFunctions/arm_cfft_radix4_f32.c **** 
 554              		.loc 1 1063 13 discriminator 1 view .LVU206
1066:./Libraries/CMSIS/DSP/Source/TransformFunctions/arm_cfft_radix4_f32.c **** 
 555              		.loc 1 1066 13 discriminator 1 view .LVU207
1066:./Libraries/CMSIS/DSP/Source/TransformFunctions/arm_cfft_radix4_f32.c **** 
 556              		.loc 1 1066 16 is_stmt 0 discriminator 1 view .LVU208
 557 00ce D6ED015A 		vldr.32	s11, [r6, #4]
 558              	.LVL52:
1066:./Libraries/CMSIS/DSP/Source/TransformFunctions/arm_cfft_radix4_f32.c **** 
 559              		.loc 1 1066 16 discriminator 1 view .LVU209
 560 00d2 90ED015A 		vldr.32	s10, [r0, #4]
1084:./Libraries/CMSIS/DSP/Source/TransformFunctions/arm_cfft_radix4_f32.c **** 
 561              		.loc 1 1084 53 discriminator 1 view .LVU210
 562 00d6 63EEA61A 		vmul.f32	s3, s7, s13
1066:./Libraries/CMSIS/DSP/Source/TransformFunctions/arm_cfft_radix4_f32.c **** 
 563              		.loc 1 1066 16 discriminator 1 view .LVU211
 564 00da 75EE855A 		vadd.f32	s11, s11, s10
 565              	.LVL53:
1069:./Libraries/CMSIS/DSP/Source/TransformFunctions/arm_cfft_radix4_f32.c **** 
 566              		.loc 1 1069 13 is_stmt 1 discriminator 1 view .LVU212
1069:./Libraries/CMSIS/DSP/Source/TransformFunctions/arm_cfft_radix4_f32.c **** 
 567              		.loc 1 1069 39 is_stmt 0 discriminator 1 view .LVU213
 568 00de 36EE255A 		vadd.f32	s10, s12, s11
1072:./Libraries/CMSIS/DSP/Source/TransformFunctions/arm_cfft_radix4_f32.c **** 
 569              		.loc 1 1072 16 discriminator 1 view .LVU214
 570 00e2 36EE656A 		vsub.f32	s12, s12, s11
 571              	.LVL54:
1069:./Libraries/CMSIS/DSP/Source/TransformFunctions/arm_cfft_radix4_f32.c **** 
 572              		.loc 1 1069 34 discriminator 1 view .LVU215
 573 00e6 82ED015A 		vstr.32	s10, [r2, #4]
1072:./Libraries/CMSIS/DSP/Source/TransformFunctions/arm_cfft_radix4_f32.c **** 
 574              		.loc 1 1072 13 is_stmt 1 discriminator 1 view .LVU216
ARM GAS  /tmp/ccWpuuii.s 			page 33


 575              	.LVL55:
1075:./Libraries/CMSIS/DSP/Source/TransformFunctions/arm_cfft_radix4_f32.c **** 
 576              		.loc 1 1075 13 discriminator 1 view .LVU217
 577 00ea 0A44     		add	r2, r2, r1
1081:./Libraries/CMSIS/DSP/Source/TransformFunctions/arm_cfft_radix4_f32.c **** 
 578              		.loc 1 1081 40 is_stmt 0 discriminator 1 view .LVU218
 579 00ec 26EE631A 		vnmul.f32	s2, s12, s7
1075:./Libraries/CMSIS/DSP/Source/TransformFunctions/arm_cfft_radix4_f32.c **** 
 580              		.loc 1 1075 16 discriminator 1 view .LVU219
 581 00f0 D0ED010A 		vldr.32	s1, [r0, #4]
1078:./Libraries/CMSIS/DSP/Source/TransformFunctions/arm_cfft_radix4_f32.c **** 
 582              		.loc 1 1078 16 discriminator 1 view .LVU220
 583 00f4 15ED015A 		vldr.32	s10, [r5, #-4]
1084:./Libraries/CMSIS/DSP/Source/TransformFunctions/arm_cfft_radix4_f32.c **** 
 584              		.loc 1 1084 47 discriminator 1 view .LVU221
 585 00f8 E3EE061A 		vfma.f32	s3, s6, s12
1075:./Libraries/CMSIS/DSP/Source/TransformFunctions/arm_cfft_radix4_f32.c **** 
 586              		.loc 1 1075 16 discriminator 1 view .LVU222
 587 00fc D6ED015A 		vldr.32	s11, [r6, #4]
 588              	.LVL56:
1078:./Libraries/CMSIS/DSP/Source/TransformFunctions/arm_cfft_radix4_f32.c **** 
 589              		.loc 1 1078 16 discriminator 1 view .LVU223
 590 0100 14ED016A 		vldr.32	s12, [r4, #-4]
 591              	.LVL57:
1081:./Libraries/CMSIS/DSP/Source/TransformFunctions/arm_cfft_radix4_f32.c **** 
 592              		.loc 1 1081 40 discriminator 1 view .LVU224
 593 0104 A3EE261A 		vfma.f32	s2, s6, s13
1075:./Libraries/CMSIS/DSP/Source/TransformFunctions/arm_cfft_radix4_f32.c **** 
 594              		.loc 1 1075 16 discriminator 1 view .LVU225
 595 0108 75EEE05A 		vsub.f32	s11, s11, s1
 596              	.LVL58:
1078:./Libraries/CMSIS/DSP/Source/TransformFunctions/arm_cfft_radix4_f32.c **** 
 597              		.loc 1 1078 13 is_stmt 1 discriminator 1 view .LVU226
1078:./Libraries/CMSIS/DSP/Source/TransformFunctions/arm_cfft_radix4_f32.c **** 
 598              		.loc 1 1078 16 is_stmt 0 discriminator 1 view .LVU227
 599 010c 76EE456A 		vsub.f32	s13, s12, s10
 600              	.LVL59:
1081:./Libraries/CMSIS/DSP/Source/TransformFunctions/arm_cfft_radix4_f32.c **** 
 601              		.loc 1 1081 13 is_stmt 1 discriminator 1 view .LVU228
1087:./Libraries/CMSIS/DSP/Source/TransformFunctions/arm_cfft_radix4_f32.c **** 
 602              		.loc 1 1087 16 is_stmt 0 discriminator 1 view .LVU229
 603 0110 77EE650A 		vsub.f32	s1, s14, s11
1093:./Libraries/CMSIS/DSP/Source/TransformFunctions/arm_cfft_radix4_f32.c **** 
 604              		.loc 1 1093 16 discriminator 1 view .LVU230
 605 0114 37EEA68A 		vadd.f32	s16, s15, s13
1090:./Libraries/CMSIS/DSP/Source/TransformFunctions/arm_cfft_radix4_f32.c **** 
 606              		.loc 1 1090 16 discriminator 1 view .LVU231
 607 0118 37EE257A 		vadd.f32	s14, s14, s11
 608              	.LVL60:
1081:./Libraries/CMSIS/DSP/Source/TransformFunctions/arm_cfft_radix4_f32.c **** 
 609              		.loc 1 1081 27 discriminator 1 view .LVU232
 610 011c 04ED011A 		vstr.32	s2, [r4, #-4]
1084:./Libraries/CMSIS/DSP/Source/TransformFunctions/arm_cfft_radix4_f32.c **** 
 611              		.loc 1 1084 13 is_stmt 1 discriminator 1 view .LVU233
1096:./Libraries/CMSIS/DSP/Source/TransformFunctions/arm_cfft_radix4_f32.c **** 
 612              		.loc 1 1096 16 is_stmt 0 discriminator 1 view .LVU234
 613 0120 77EEE67A 		vsub.f32	s15, s15, s13
ARM GAS  /tmp/ccWpuuii.s 			page 34


 614              	.LVL61:
1084:./Libraries/CMSIS/DSP/Source/TransformFunctions/arm_cfft_radix4_f32.c **** 
 615              		.loc 1 1084 34 discriminator 1 view .LVU235
 616 0124 C6ED011A 		vstr.32	s3, [r6, #4]
1087:./Libraries/CMSIS/DSP/Source/TransformFunctions/arm_cfft_radix4_f32.c **** 
 617              		.loc 1 1087 13 is_stmt 1 discriminator 1 view .LVU236
 618              	.LVL62:
1090:./Libraries/CMSIS/DSP/Source/TransformFunctions/arm_cfft_radix4_f32.c **** 
 619              		.loc 1 1090 13 discriminator 1 view .LVU237
1093:./Libraries/CMSIS/DSP/Source/TransformFunctions/arm_cfft_radix4_f32.c **** 
 620              		.loc 1 1093 13 discriminator 1 view .LVU238
1096:./Libraries/CMSIS/DSP/Source/TransformFunctions/arm_cfft_radix4_f32.c **** 
 621              		.loc 1 1096 13 discriminator 1 view .LVU239
1099:./Libraries/CMSIS/DSP/Source/TransformFunctions/arm_cfft_radix4_f32.c **** 
 622              		.loc 1 1099 13 discriminator 1 view .LVU240
1102:./Libraries/CMSIS/DSP/Source/TransformFunctions/arm_cfft_radix4_f32.c **** 
 623              		.loc 1 1102 53 is_stmt 0 discriminator 1 view .LVU241
 624 0128 22EEA05A 		vmul.f32	s10, s5, s1
 625 012c 0E44     		add	r6, r6, r1
1099:./Libraries/CMSIS/DSP/Source/TransformFunctions/arm_cfft_radix4_f32.c **** 
 626              		.loc 1 1099 40 discriminator 1 view .LVU242
 627 012e 68EE625A 		vnmul.f32	s11, s16, s5
 628              	.LVL63:
1099:./Libraries/CMSIS/DSP/Source/TransformFunctions/arm_cfft_radix4_f32.c **** 
 629              		.loc 1 1099 40 discriminator 1 view .LVU243
 630 0132 0C44     		add	r4, r4, r1
1105:./Libraries/CMSIS/DSP/Source/TransformFunctions/arm_cfft_radix4_f32.c **** 
 631              		.loc 1 1105 40 discriminator 1 view .LVU244
 632 0134 27EEE46A 		vnmul.f32	s12, s15, s9
1108:./Libraries/CMSIS/DSP/Source/TransformFunctions/arm_cfft_radix4_f32.c **** 
 633              		.loc 1 1108 53 discriminator 1 view .LVU245
 634 0138 64EE876A 		vmul.f32	s13, s9, s14
 635              	.LVL64:
1102:./Libraries/CMSIS/DSP/Source/TransformFunctions/arm_cfft_radix4_f32.c **** 
 636              		.loc 1 1102 47 discriminator 1 view .LVU246
 637 013c A2EE085A 		vfma.f32	s10, s4, s16
1099:./Libraries/CMSIS/DSP/Source/TransformFunctions/arm_cfft_radix4_f32.c **** 
 638              		.loc 1 1099 40 discriminator 1 view .LVU247
 639 0140 E2EE205A 		vfma.f32	s11, s4, s1
1105:./Libraries/CMSIS/DSP/Source/TransformFunctions/arm_cfft_radix4_f32.c **** 
 640              		.loc 1 1105 40 discriminator 1 view .LVU248
 641 0144 A4EE076A 		vfma.f32	s12, s8, s14
1108:./Libraries/CMSIS/DSP/Source/TransformFunctions/arm_cfft_radix4_f32.c **** 
 642              		.loc 1 1108 47 discriminator 1 view .LVU249
 643 0148 E4EE276A 		vfma.f32	s13, s8, s15
1102:./Libraries/CMSIS/DSP/Source/TransformFunctions/arm_cfft_radix4_f32.c **** 
 644              		.loc 1 1102 34 discriminator 1 view .LVU250
 645 014c 83ED015A 		vstr.32	s10, [r3, #4]
1099:./Libraries/CMSIS/DSP/Source/TransformFunctions/arm_cfft_radix4_f32.c **** 
 646              		.loc 1 1099 27 discriminator 1 view .LVU251
 647 0150 C3ED005A 		vstr.32	s11, [r3]
1102:./Libraries/CMSIS/DSP/Source/TransformFunctions/arm_cfft_radix4_f32.c **** 
 648              		.loc 1 1102 13 is_stmt 1 discriminator 1 view .LVU252
1105:./Libraries/CMSIS/DSP/Source/TransformFunctions/arm_cfft_radix4_f32.c **** 
 649              		.loc 1 1105 13 discriminator 1 view .LVU253
 650 0154 0B44     		add	r3, r3, r1
1105:./Libraries/CMSIS/DSP/Source/TransformFunctions/arm_cfft_radix4_f32.c **** 
ARM GAS  /tmp/ccWpuuii.s 			page 35


 651              		.loc 1 1105 27 is_stmt 0 discriminator 1 view .LVU254
 652 0156 05ED016A 		vstr.32	s12, [r5, #-4]
1108:./Libraries/CMSIS/DSP/Source/TransformFunctions/arm_cfft_radix4_f32.c **** 
 653              		.loc 1 1108 13 is_stmt 1 discriminator 1 view .LVU255
 654 015a 0D44     		add	r5, r5, r1
1108:./Libraries/CMSIS/DSP/Source/TransformFunctions/arm_cfft_radix4_f32.c **** 
 655              		.loc 1 1108 34 is_stmt 0 discriminator 1 view .LVU256
 656 015c C0ED016A 		vstr.32	s13, [r0, #4]
1110:./Libraries/CMSIS/DSP/Source/TransformFunctions/arm_cfft_radix4_f32.c ****          } while ( i0 < fftLen);
 657              		.loc 1 1110 13 is_stmt 1 discriminator 1 view .LVU257
 658              	.LVL65:
 659              		.loc 1 1111 18 discriminator 1 view .LVU258
 660 0160 0844     		add	r0, r0, r1
 661              		.loc 1 1111 10 is_stmt 0 discriminator 1 view .LVU259
 662 0162 96D8     		bhi	.L14
1112:./Libraries/CMSIS/DSP/Source/TransformFunctions/arm_cfft_radix4_f32.c ****          j++;
 663              		.loc 1 1112 10 is_stmt 1 view .LVU260
 664 0164 029B     		ldr	r3, [sp, #8]
 665              		.loc 1 1112 11 is_stmt 0 view .LVU261
 666 0166 08F10108 		add	r8, r8, #1
 667              	.LVL66:
1113:./Libraries/CMSIS/DSP/Source/TransformFunctions/arm_cfft_radix4_f32.c ****       } while (j <= (n2 - 1U));
 668              		.loc 1 1113 15 is_stmt 1 view .LVU262
 669 016a 059A     		ldr	r2, [sp, #20]
 670 016c 0EF1080E 		add	lr, lr, #8
 671 0170 0833     		adds	r3, r3, #8
 672 0172 0293     		str	r3, [sp, #8]
 673 0174 069B     		ldr	r3, [sp, #24]
 674 0176 9B44     		add	fp, fp, r3
 675 0178 019B     		ldr	r3, [sp, #4]
 676 017a 1344     		add	r3, r3, r2
 677 017c 0193     		str	r3, [sp, #4]
 678 017e 079B     		ldr	r3, [sp, #28]
 679 0180 9A44     		add	r10, r10, r3
 680              		.loc 1 1113 7 is_stmt 0 view .LVU263
 681 0182 039B     		ldr	r3, [sp, #12]
 682 0184 4345     		cmp	r3, r8
 683 0186 7FF46CAF 		bne	.L15
1114:./Libraries/CMSIS/DSP/Source/TransformFunctions/arm_cfft_radix4_f32.c ****       twidCoefModifier <<= 2U;
 684              		.loc 1 1114 7 is_stmt 1 discriminator 2 view .LVU264
 685              		.loc 1 1114 24 is_stmt 0 discriminator 2 view .LVU265
 686 018a 099B     		ldr	r3, [sp, #36]
 687 018c 9B00     		lsls	r3, r3, #2
 688 018e 9BB2     		uxth	r3, r3
 689 0190 0993     		str	r3, [sp, #36]
 690              	.LVL67:
1011:./Libraries/CMSIS/DSP/Source/TransformFunctions/arm_cfft_radix4_f32.c ****    {
 691              		.loc 1 1011 29 is_stmt 1 discriminator 2 view .LVU266
1011:./Libraries/CMSIS/DSP/Source/TransformFunctions/arm_cfft_radix4_f32.c ****    {
 692              		.loc 1 1011 21 discriminator 2 view .LVU267
1011:./Libraries/CMSIS/DSP/Source/TransformFunctions/arm_cfft_radix4_f32.c ****    {
 693              		.loc 1 1011 4 is_stmt 0 discriminator 2 view .LVU268
 694 0192 039B     		ldr	r3, [sp, #12]
 695 0194 042B     		cmp	r3, #4
 696 0196 3FF641AF 		bhi	.L16
 697 019a A9EB0305 		sub	r5, r9, r3
 698              	.LVL68:
ARM GAS  /tmp/ccWpuuii.s 			page 36


 699              	.L13:
1115:./Libraries/CMSIS/DSP/Source/TransformFunctions/arm_cfft_radix4_f32.c ****    }
1116:./Libraries/CMSIS/DSP/Source/TransformFunctions/arm_cfft_radix4_f32.c ****    /*  Initializations of last stage */
1117:./Libraries/CMSIS/DSP/Source/TransformFunctions/arm_cfft_radix4_f32.c ****    n1 = n2;
 700              		.loc 1 1117 4 is_stmt 1 view .LVU269
1118:./Libraries/CMSIS/DSP/Source/TransformFunctions/arm_cfft_radix4_f32.c ****    n2 >>= 2U;
 701              		.loc 1 1118 4 view .LVU270
 702              		.loc 1 1118 7 is_stmt 0 view .LVU271
 703 019e 039B     		ldr	r3, [sp, #12]
1119:./Libraries/CMSIS/DSP/Source/TransformFunctions/arm_cfft_radix4_f32.c **** 
1120:./Libraries/CMSIS/DSP/Source/TransformFunctions/arm_cfft_radix4_f32.c ****    /*  Calculations of last stage */
1121:./Libraries/CMSIS/DSP/Source/TransformFunctions/arm_cfft_radix4_f32.c ****    for (i0 = 0U; i0 <= (fftLen - n1); i0 += n1)
 704              		.loc 1 1121 12 view .LVU272
 705 01a0 0026     		movs	r6, #0
 706 01a2 049A     		ldr	r2, [sp, #16]
1118:./Libraries/CMSIS/DSP/Source/TransformFunctions/arm_cfft_radix4_f32.c ****    n2 >>= 2U;
 707              		.loc 1 1118 7 view .LVU273
 708 01a4 9B08     		lsrs	r3, r3, #2
 709              	.LVL69:
 710              		.loc 1 1121 4 is_stmt 1 view .LVU274
 711              		.loc 1 1121 18 view .LVU275
 712 01a6 DDF80CE0 		ldr	lr, [sp, #12]
 713 01aa DDF828C0 		ldr	ip, [sp, #40]
 714 01ae 02EBC304 		add	r4, r2, r3, lsl #3
 715 01b2 03EB4301 		add	r1, r3, r3, lsl #1
 716 01b6 2046     		mov	r0, r4
 717 01b8 04EB0317 		add	r7, r4, r3, lsl #4
 718 01bc 02EBC101 		add	r1, r2, r1, lsl #3
 719 01c0 0430     		adds	r0, r0, #4
 720 01c2 02EB0313 		add	r3, r2, r3, lsl #4
 721              	.LVL70:
 722              		.loc 1 1121 18 is_stmt 0 view .LVU276
 723 01c6 0431     		adds	r1, r1, #4
 724              	.LVL71:
 725              	.L17:
1122:./Libraries/CMSIS/DSP/Source/TransformFunctions/arm_cfft_radix4_f32.c ****    {
1123:./Libraries/CMSIS/DSP/Source/TransformFunctions/arm_cfft_radix4_f32.c ****       /*  index calculation for the input as, */
1124:./Libraries/CMSIS/DSP/Source/TransformFunctions/arm_cfft_radix4_f32.c ****       /*  pSrc[i0 + 0], pSrc[i0 + fftLen/4], pSrc[i0 + fftLen/2], pSrc[i0 + 3fftLen/4] */
1125:./Libraries/CMSIS/DSP/Source/TransformFunctions/arm_cfft_radix4_f32.c ****       i1 = i0 + n2;
 726              		.loc 1 1125 7 is_stmt 1 discriminator 3 view .LVU277
1126:./Libraries/CMSIS/DSP/Source/TransformFunctions/arm_cfft_radix4_f32.c ****       i2 = i1 + n2;
 727              		.loc 1 1126 7 discriminator 3 view .LVU278
1127:./Libraries/CMSIS/DSP/Source/TransformFunctions/arm_cfft_radix4_f32.c ****       i3 = i2 + n2;
 728              		.loc 1 1127 7 discriminator 3 view .LVU279
1128:./Libraries/CMSIS/DSP/Source/TransformFunctions/arm_cfft_radix4_f32.c **** 
1129:./Libraries/CMSIS/DSP/Source/TransformFunctions/arm_cfft_radix4_f32.c ****       /*  Butterfly implementation */
1130:./Libraries/CMSIS/DSP/Source/TransformFunctions/arm_cfft_radix4_f32.c ****       /* xa + xc */
1131:./Libraries/CMSIS/DSP/Source/TransformFunctions/arm_cfft_radix4_f32.c ****       r1 = pSrc[2U * i0] + pSrc[2U * i2];
 729              		.loc 1 1131 7 discriminator 3 view .LVU280
 730              		.loc 1 1131 32 is_stmt 0 discriminator 3 view .LVU281
 731 01c8 D3ED007A 		vldr.32	s15, [r3]
1121:./Libraries/CMSIS/DSP/Source/TransformFunctions/arm_cfft_radix4_f32.c ****    {
 732              		.loc 1 1121 42 discriminator 3 view .LVU282
 733 01cc 7644     		add	r6, r6, lr
 734              	.LVL72:
1132:./Libraries/CMSIS/DSP/Source/TransformFunctions/arm_cfft_radix4_f32.c **** 
1133:./Libraries/CMSIS/DSP/Source/TransformFunctions/arm_cfft_radix4_f32.c ****       /* xa - xc */
ARM GAS  /tmp/ccWpuuii.s 			page 37


1134:./Libraries/CMSIS/DSP/Source/TransformFunctions/arm_cfft_radix4_f32.c ****       r2 = pSrc[2U * i0] - pSrc[2U * i2];
1135:./Libraries/CMSIS/DSP/Source/TransformFunctions/arm_cfft_radix4_f32.c **** 
1136:./Libraries/CMSIS/DSP/Source/TransformFunctions/arm_cfft_radix4_f32.c ****       /* ya + yc */
1137:./Libraries/CMSIS/DSP/Source/TransformFunctions/arm_cfft_radix4_f32.c ****       s1 = pSrc[(2U * i0) + 1U] + pSrc[(2U * i2) + 1U];
1138:./Libraries/CMSIS/DSP/Source/TransformFunctions/arm_cfft_radix4_f32.c **** 
1139:./Libraries/CMSIS/DSP/Source/TransformFunctions/arm_cfft_radix4_f32.c ****       /* ya - yc */
1140:./Libraries/CMSIS/DSP/Source/TransformFunctions/arm_cfft_radix4_f32.c ****       s2 = pSrc[(2U * i0) + 1U] - pSrc[(2U * i2) + 1U];
1141:./Libraries/CMSIS/DSP/Source/TransformFunctions/arm_cfft_radix4_f32.c **** 
1142:./Libraries/CMSIS/DSP/Source/TransformFunctions/arm_cfft_radix4_f32.c ****       /* xc + xd */
1143:./Libraries/CMSIS/DSP/Source/TransformFunctions/arm_cfft_radix4_f32.c ****       t1 = pSrc[2U * i1] + pSrc[2U * i3];
 735              		.loc 1 1143 10 discriminator 3 view .LVU283
 736 01ce 51ED016A 		vldr.32	s13, [r1, #-4]
1131:./Libraries/CMSIS/DSP/Source/TransformFunctions/arm_cfft_radix4_f32.c **** 
 737              		.loc 1 1131 16 discriminator 3 view .LVU284
 738 01d2 92ED007A 		vldr.32	s14, [r2]
1121:./Libraries/CMSIS/DSP/Source/TransformFunctions/arm_cfft_radix4_f32.c ****    {
 739              		.loc 1 1121 4 discriminator 3 view .LVU285
 740 01d6 AE42     		cmp	r6, r5
 741              		.loc 1 1143 10 discriminator 3 view .LVU286
 742 01d8 50ED015A 		vldr.32	s11, [r0, #-4]
1131:./Libraries/CMSIS/DSP/Source/TransformFunctions/arm_cfft_radix4_f32.c **** 
 743              		.loc 1 1131 10 discriminator 3 view .LVU287
 744 01dc 37EE276A 		vadd.f32	s12, s14, s15
 745              	.LVL73:
1134:./Libraries/CMSIS/DSP/Source/TransformFunctions/arm_cfft_radix4_f32.c **** 
 746              		.loc 1 1134 7 is_stmt 1 discriminator 3 view .LVU288
1137:./Libraries/CMSIS/DSP/Source/TransformFunctions/arm_cfft_radix4_f32.c **** 
 747              		.loc 1 1137 39 is_stmt 0 discriminator 3 view .LVU289
 748 01e0 D3ED014A 		vldr.32	s9, [r3, #4]
 749              		.loc 1 1143 10 discriminator 3 view .LVU290
 750 01e4 75EEA65A 		vadd.f32	s11, s11, s13
1134:./Libraries/CMSIS/DSP/Source/TransformFunctions/arm_cfft_radix4_f32.c **** 
 751              		.loc 1 1134 10 discriminator 3 view .LVU291
 752 01e8 37EE677A 		vsub.f32	s14, s14, s15
 753              	.LVL74:
1137:./Libraries/CMSIS/DSP/Source/TransformFunctions/arm_cfft_radix4_f32.c **** 
 754              		.loc 1 1137 7 is_stmt 1 discriminator 3 view .LVU292
1137:./Libraries/CMSIS/DSP/Source/TransformFunctions/arm_cfft_radix4_f32.c **** 
 755              		.loc 1 1137 16 is_stmt 0 discriminator 3 view .LVU293
 756 01ec D2ED017A 		vldr.32	s15, [r2, #4]
1144:./Libraries/CMSIS/DSP/Source/TransformFunctions/arm_cfft_radix4_f32.c **** 
1145:./Libraries/CMSIS/DSP/Source/TransformFunctions/arm_cfft_radix4_f32.c ****       /* xa' = xa + xb + xc + xd */
1146:./Libraries/CMSIS/DSP/Source/TransformFunctions/arm_cfft_radix4_f32.c ****       pSrc[2U * i0] = (r1 + t1) * onebyfftLen;
 757              		.loc 1 1146 27 discriminator 3 view .LVU294
 758 01f0 36EE255A 		vadd.f32	s10, s12, s11
1147:./Libraries/CMSIS/DSP/Source/TransformFunctions/arm_cfft_radix4_f32.c **** 
1148:./Libraries/CMSIS/DSP/Source/TransformFunctions/arm_cfft_radix4_f32.c ****       /* (xa + xb) - (xc + xd) */
1149:./Libraries/CMSIS/DSP/Source/TransformFunctions/arm_cfft_radix4_f32.c ****       r1 = r1 - t1;
 759              		.loc 1 1149 10 discriminator 3 view .LVU295
 760 01f4 36EE656A 		vsub.f32	s12, s12, s11
 761              	.LVL75:
1137:./Libraries/CMSIS/DSP/Source/TransformFunctions/arm_cfft_radix4_f32.c **** 
 762              		.loc 1 1137 10 discriminator 3 view .LVU296
 763 01f8 77EEA46A 		vadd.f32	s13, s15, s9
 764              	.LVL76:
1140:./Libraries/CMSIS/DSP/Source/TransformFunctions/arm_cfft_radix4_f32.c **** 
 765              		.loc 1 1140 7 is_stmt 1 discriminator 3 view .LVU297
ARM GAS  /tmp/ccWpuuii.s 			page 38


1146:./Libraries/CMSIS/DSP/Source/TransformFunctions/arm_cfft_radix4_f32.c **** 
 766              		.loc 1 1146 33 is_stmt 0 discriminator 3 view .LVU298
 767 01fc 65EE005A 		vmul.f32	s11, s10, s0
1150:./Libraries/CMSIS/DSP/Source/TransformFunctions/arm_cfft_radix4_f32.c **** 
1151:./Libraries/CMSIS/DSP/Source/TransformFunctions/arm_cfft_radix4_f32.c ****       /* yb + yd */
1152:./Libraries/CMSIS/DSP/Source/TransformFunctions/arm_cfft_radix4_f32.c ****       t2 = pSrc[(2U * i1) + 1U] + pSrc[(2U * i3) + 1U];
1153:./Libraries/CMSIS/DSP/Source/TransformFunctions/arm_cfft_radix4_f32.c **** 
1154:./Libraries/CMSIS/DSP/Source/TransformFunctions/arm_cfft_radix4_f32.c ****       /* ya' = ya + yb + yc + yd */
1155:./Libraries/CMSIS/DSP/Source/TransformFunctions/arm_cfft_radix4_f32.c ****       pSrc[(2U * i0) + 1U] = (s1 + t2) * onebyfftLen;
1156:./Libraries/CMSIS/DSP/Source/TransformFunctions/arm_cfft_radix4_f32.c **** 
1157:./Libraries/CMSIS/DSP/Source/TransformFunctions/arm_cfft_radix4_f32.c ****       /* (ya + yc) - (yb + yd) */
1158:./Libraries/CMSIS/DSP/Source/TransformFunctions/arm_cfft_radix4_f32.c ****       s1 = s1 - t2;
1159:./Libraries/CMSIS/DSP/Source/TransformFunctions/arm_cfft_radix4_f32.c **** 
1160:./Libraries/CMSIS/DSP/Source/TransformFunctions/arm_cfft_radix4_f32.c ****       /* (yb-yd) */
1161:./Libraries/CMSIS/DSP/Source/TransformFunctions/arm_cfft_radix4_f32.c ****       t1 = pSrc[(2U * i1) + 1U] - pSrc[(2U * i3) + 1U];
1162:./Libraries/CMSIS/DSP/Source/TransformFunctions/arm_cfft_radix4_f32.c **** 
1163:./Libraries/CMSIS/DSP/Source/TransformFunctions/arm_cfft_radix4_f32.c ****       /* (xb-xd) */
1164:./Libraries/CMSIS/DSP/Source/TransformFunctions/arm_cfft_radix4_f32.c ****       t2 = pSrc[2U * i1] - pSrc[2U * i3];
1165:./Libraries/CMSIS/DSP/Source/TransformFunctions/arm_cfft_radix4_f32.c **** 
1166:./Libraries/CMSIS/DSP/Source/TransformFunctions/arm_cfft_radix4_f32.c ****       /* xc' = (xa-xb+xc-xd)co2 - (ya-yb+yc-yd)(si2) */
1167:./Libraries/CMSIS/DSP/Source/TransformFunctions/arm_cfft_radix4_f32.c ****       pSrc[2U * i1] = r1 * onebyfftLen;
 768              		.loc 1 1167 26 discriminator 3 view .LVU299
 769 0200 26EE006A 		vmul.f32	s12, s12, s0
1140:./Libraries/CMSIS/DSP/Source/TransformFunctions/arm_cfft_radix4_f32.c **** 
 770              		.loc 1 1140 10 discriminator 3 view .LVU300
 771 0204 77EEE47A 		vsub.f32	s15, s15, s9
 772              	.LVL77:
1143:./Libraries/CMSIS/DSP/Source/TransformFunctions/arm_cfft_radix4_f32.c **** 
 773              		.loc 1 1143 7 is_stmt 1 discriminator 3 view .LVU301
1146:./Libraries/CMSIS/DSP/Source/TransformFunctions/arm_cfft_radix4_f32.c **** 
 774              		.loc 1 1146 7 discriminator 3 view .LVU302
1146:./Libraries/CMSIS/DSP/Source/TransformFunctions/arm_cfft_radix4_f32.c **** 
 775              		.loc 1 1146 21 is_stmt 0 discriminator 3 view .LVU303
 776 0208 C2ED005A 		vstr.32	s11, [r2]
 777              	.LVL78:
1149:./Libraries/CMSIS/DSP/Source/TransformFunctions/arm_cfft_radix4_f32.c **** 
 778              		.loc 1 1149 7 is_stmt 1 discriminator 3 view .LVU304
1152:./Libraries/CMSIS/DSP/Source/TransformFunctions/arm_cfft_radix4_f32.c **** 
 779              		.loc 1 1152 7 discriminator 3 view .LVU305
1152:./Libraries/CMSIS/DSP/Source/TransformFunctions/arm_cfft_radix4_f32.c **** 
 780              		.loc 1 1152 10 is_stmt 0 discriminator 3 view .LVU306
 781 020c 97ED015A 		vldr.32	s10, [r7, #4]
 782 0210 D4ED015A 		vldr.32	s11, [r4, #4]
 783 0214 75EE855A 		vadd.f32	s11, s11, s10
 784              	.LVL79:
1155:./Libraries/CMSIS/DSP/Source/TransformFunctions/arm_cfft_radix4_f32.c **** 
 785              		.loc 1 1155 7 is_stmt 1 discriminator 3 view .LVU307
1155:./Libraries/CMSIS/DSP/Source/TransformFunctions/arm_cfft_radix4_f32.c **** 
 786              		.loc 1 1155 34 is_stmt 0 discriminator 3 view .LVU308
 787 0218 36EEA55A 		vadd.f32	s10, s13, s11
1158:./Libraries/CMSIS/DSP/Source/TransformFunctions/arm_cfft_radix4_f32.c **** 
 788              		.loc 1 1158 10 discriminator 3 view .LVU309
 789 021c 76EEE56A 		vsub.f32	s13, s13, s11
 790              	.LVL80:
1155:./Libraries/CMSIS/DSP/Source/TransformFunctions/arm_cfft_radix4_f32.c **** 
 791              		.loc 1 1155 40 discriminator 3 view .LVU310
 792 0220 65EE005A 		vmul.f32	s11, s10, s0
ARM GAS  /tmp/ccWpuuii.s 			page 39


 793              	.LVL81:
1168:./Libraries/CMSIS/DSP/Source/TransformFunctions/arm_cfft_radix4_f32.c **** 
1169:./Libraries/CMSIS/DSP/Source/TransformFunctions/arm_cfft_radix4_f32.c ****       /* yc' = (ya-yb+yc-yd)co2 + (xa-xb+xc-xd)(si2) */
1170:./Libraries/CMSIS/DSP/Source/TransformFunctions/arm_cfft_radix4_f32.c ****       pSrc[(2U * i1) + 1U] = s1 * onebyfftLen;
 794              		.loc 1 1170 33 discriminator 3 view .LVU311
 795 0224 66EE806A 		vmul.f32	s13, s13, s0
1155:./Libraries/CMSIS/DSP/Source/TransformFunctions/arm_cfft_radix4_f32.c **** 
 796              		.loc 1 1155 28 discriminator 3 view .LVU312
 797 0228 C2ED015A 		vstr.32	s11, [r2, #4]
 798              	.LVL82:
1158:./Libraries/CMSIS/DSP/Source/TransformFunctions/arm_cfft_radix4_f32.c **** 
 799              		.loc 1 1158 7 is_stmt 1 discriminator 3 view .LVU313
1161:./Libraries/CMSIS/DSP/Source/TransformFunctions/arm_cfft_radix4_f32.c **** 
 800              		.loc 1 1161 7 discriminator 3 view .LVU314
 801 022c 6244     		add	r2, r2, ip
1164:./Libraries/CMSIS/DSP/Source/TransformFunctions/arm_cfft_radix4_f32.c **** 
 802              		.loc 1 1164 10 is_stmt 0 discriminator 3 view .LVU315
 803 022e 50ED015A 		vldr.32	s11, [r0, #-4]
1161:./Libraries/CMSIS/DSP/Source/TransformFunctions/arm_cfft_radix4_f32.c **** 
 804              		.loc 1 1161 10 discriminator 3 view .LVU316
 805 0232 94ED015A 		vldr.32	s10, [r4, #4]
 806 0236 97ED014A 		vldr.32	s8, [r7, #4]
1164:./Libraries/CMSIS/DSP/Source/TransformFunctions/arm_cfft_radix4_f32.c **** 
 807              		.loc 1 1164 10 discriminator 3 view .LVU317
 808 023a 51ED014A 		vldr.32	s9, [r1, #-4]
1161:./Libraries/CMSIS/DSP/Source/TransformFunctions/arm_cfft_radix4_f32.c **** 
 809              		.loc 1 1161 10 discriminator 3 view .LVU318
 810 023e 35EE445A 		vsub.f32	s10, s10, s8
 811              	.LVL83:
1164:./Libraries/CMSIS/DSP/Source/TransformFunctions/arm_cfft_radix4_f32.c **** 
 812              		.loc 1 1164 7 is_stmt 1 discriminator 3 view .LVU319
1167:./Libraries/CMSIS/DSP/Source/TransformFunctions/arm_cfft_radix4_f32.c **** 
 813              		.loc 1 1167 21 is_stmt 0 discriminator 3 view .LVU320
 814 0242 00ED016A 		vstr.32	s12, [r0, #-4]
1164:./Libraries/CMSIS/DSP/Source/TransformFunctions/arm_cfft_radix4_f32.c **** 
 815              		.loc 1 1164 10 discriminator 3 view .LVU321
 816 0246 35EEE46A 		vsub.f32	s12, s11, s9
 817              	.LVL84:
1167:./Libraries/CMSIS/DSP/Source/TransformFunctions/arm_cfft_radix4_f32.c **** 
 818              		.loc 1 1167 7 is_stmt 1 discriminator 3 view .LVU322
 819              		.loc 1 1170 7 discriminator 3 view .LVU323
 820              		.loc 1 1170 28 is_stmt 0 discriminator 3 view .LVU324
 821 024a C4ED016A 		vstr.32	s13, [r4, #4]
1171:./Libraries/CMSIS/DSP/Source/TransformFunctions/arm_cfft_radix4_f32.c **** 
1172:./Libraries/CMSIS/DSP/Source/TransformFunctions/arm_cfft_radix4_f32.c ****       /* (xa - xc) - (yb-yd) */
1173:./Libraries/CMSIS/DSP/Source/TransformFunctions/arm_cfft_radix4_f32.c ****       r1 = r2 - t1;
 822              		.loc 1 1173 7 is_stmt 1 discriminator 3 view .LVU325
 823              	.LVL85:
1174:./Libraries/CMSIS/DSP/Source/TransformFunctions/arm_cfft_radix4_f32.c **** 
1175:./Libraries/CMSIS/DSP/Source/TransformFunctions/arm_cfft_radix4_f32.c ****       /* (xa - xc) + (yb-yd) */
1176:./Libraries/CMSIS/DSP/Source/TransformFunctions/arm_cfft_radix4_f32.c ****       r2 = r2 + t1;
 824              		.loc 1 1176 7 discriminator 3 view .LVU326
1177:./Libraries/CMSIS/DSP/Source/TransformFunctions/arm_cfft_radix4_f32.c **** 
1178:./Libraries/CMSIS/DSP/Source/TransformFunctions/arm_cfft_radix4_f32.c ****       /* (ya - yc) + (xb-xd) */
1179:./Libraries/CMSIS/DSP/Source/TransformFunctions/arm_cfft_radix4_f32.c ****       s1 = s2 + t2;
 825              		.loc 1 1179 7 discriminator 3 view .LVU327
1180:./Libraries/CMSIS/DSP/Source/TransformFunctions/arm_cfft_radix4_f32.c **** 
ARM GAS  /tmp/ccWpuuii.s 			page 40


1181:./Libraries/CMSIS/DSP/Source/TransformFunctions/arm_cfft_radix4_f32.c ****       /* (ya - yc) - (xb-xd) */
1182:./Libraries/CMSIS/DSP/Source/TransformFunctions/arm_cfft_radix4_f32.c ****       s2 = s2 - t2;
 826              		.loc 1 1182 7 discriminator 3 view .LVU328
1183:./Libraries/CMSIS/DSP/Source/TransformFunctions/arm_cfft_radix4_f32.c **** 
1184:./Libraries/CMSIS/DSP/Source/TransformFunctions/arm_cfft_radix4_f32.c ****       /* xb' = (xa+yb-xc-yd)co1 - (ya-xb-yc+xd)(si1) */
1185:./Libraries/CMSIS/DSP/Source/TransformFunctions/arm_cfft_radix4_f32.c ****       pSrc[2U * i2] = r1 * onebyfftLen;
 827              		.loc 1 1185 7 discriminator 3 view .LVU329
 828 024e 6044     		add	r0, r0, ip
 829 0250 6444     		add	r4, r4, ip
1173:./Libraries/CMSIS/DSP/Source/TransformFunctions/arm_cfft_radix4_f32.c **** 
 830              		.loc 1 1173 10 is_stmt 0 discriminator 3 view .LVU330
 831 0252 77EE455A 		vsub.f32	s11, s14, s10
 832              	.LVL86:
1179:./Libraries/CMSIS/DSP/Source/TransformFunctions/arm_cfft_radix4_f32.c **** 
 833              		.loc 1 1179 10 discriminator 3 view .LVU331
 834 0256 77EE866A 		vadd.f32	s13, s15, s12
 835              	.LVL87:
1176:./Libraries/CMSIS/DSP/Source/TransformFunctions/arm_cfft_radix4_f32.c **** 
 836              		.loc 1 1176 10 discriminator 3 view .LVU332
 837 025a 37EE057A 		vadd.f32	s14, s14, s10
 838              	.LVL88:
1182:./Libraries/CMSIS/DSP/Source/TransformFunctions/arm_cfft_radix4_f32.c **** 
 839              		.loc 1 1182 10 discriminator 3 view .LVU333
 840 025e 77EEC67A 		vsub.f32	s15, s15, s12
 841              	.LVL89:
1186:./Libraries/CMSIS/DSP/Source/TransformFunctions/arm_cfft_radix4_f32.c **** 
1187:./Libraries/CMSIS/DSP/Source/TransformFunctions/arm_cfft_radix4_f32.c ****       /* yb' = (ya-xb-yc+xd)co1 + (xa+yb-xc-yd)(si1) */
1188:./Libraries/CMSIS/DSP/Source/TransformFunctions/arm_cfft_radix4_f32.c ****       pSrc[(2U * i2) + 1U] = s1 * onebyfftLen;
 842              		.loc 1 1188 33 discriminator 3 view .LVU334
 843 0262 66EE806A 		vmul.f32	s13, s13, s0
 844              	.LVL90:
1185:./Libraries/CMSIS/DSP/Source/TransformFunctions/arm_cfft_radix4_f32.c **** 
 845              		.loc 1 1185 26 discriminator 3 view .LVU335
 846 0266 25EE806A 		vmul.f32	s12, s11, s0
 847              	.LVL91:
1189:./Libraries/CMSIS/DSP/Source/TransformFunctions/arm_cfft_radix4_f32.c **** 
1190:./Libraries/CMSIS/DSP/Source/TransformFunctions/arm_cfft_radix4_f32.c ****       /* xd' = (xa-yb-xc+yd)co3 - (ya+xb-yc-xd)(si3) */
1191:./Libraries/CMSIS/DSP/Source/TransformFunctions/arm_cfft_radix4_f32.c ****       pSrc[2U * i3] = r2 * onebyfftLen;
 848              		.loc 1 1191 26 discriminator 3 view .LVU336
 849 026a 27EE007A 		vmul.f32	s14, s14, s0
 850              	.LVL92:
1192:./Libraries/CMSIS/DSP/Source/TransformFunctions/arm_cfft_radix4_f32.c **** 
1193:./Libraries/CMSIS/DSP/Source/TransformFunctions/arm_cfft_radix4_f32.c ****       /* yd' = (ya+xb-yc-xd)co3 + (xa-yb-xc+yd)(si3) */
1194:./Libraries/CMSIS/DSP/Source/TransformFunctions/arm_cfft_radix4_f32.c ****       pSrc[(2U * i3) + 1U] = s2 * onebyfftLen;
 851              		.loc 1 1194 33 discriminator 3 view .LVU337
 852 026e 67EE807A 		vmul.f32	s15, s15, s0
 853              	.LVL93:
1188:./Libraries/CMSIS/DSP/Source/TransformFunctions/arm_cfft_radix4_f32.c **** 
 854              		.loc 1 1188 28 discriminator 3 view .LVU338
 855 0272 C3ED016A 		vstr.32	s13, [r3, #4]
1185:./Libraries/CMSIS/DSP/Source/TransformFunctions/arm_cfft_radix4_f32.c **** 
 856              		.loc 1 1185 21 discriminator 3 view .LVU339
 857 0276 83ED006A 		vstr.32	s12, [r3]
1188:./Libraries/CMSIS/DSP/Source/TransformFunctions/arm_cfft_radix4_f32.c **** 
 858              		.loc 1 1188 7 is_stmt 1 discriminator 3 view .LVU340
1191:./Libraries/CMSIS/DSP/Source/TransformFunctions/arm_cfft_radix4_f32.c **** 
 859              		.loc 1 1191 7 discriminator 3 view .LVU341
ARM GAS  /tmp/ccWpuuii.s 			page 41


 860 027a 6344     		add	r3, r3, ip
1191:./Libraries/CMSIS/DSP/Source/TransformFunctions/arm_cfft_radix4_f32.c **** 
 861              		.loc 1 1191 21 is_stmt 0 discriminator 3 view .LVU342
 862 027c 01ED017A 		vstr.32	s14, [r1, #-4]
 863              		.loc 1 1194 7 is_stmt 1 discriminator 3 view .LVU343
 864 0280 6144     		add	r1, r1, ip
 865              		.loc 1 1194 28 is_stmt 0 discriminator 3 view .LVU344
 866 0282 C7ED017A 		vstr.32	s15, [r7, #4]
1121:./Libraries/CMSIS/DSP/Source/TransformFunctions/arm_cfft_radix4_f32.c ****    {
 867              		.loc 1 1121 39 is_stmt 1 discriminator 3 view .LVU345
 868              	.LVL94:
1121:./Libraries/CMSIS/DSP/Source/TransformFunctions/arm_cfft_radix4_f32.c ****    {
 869              		.loc 1 1121 18 discriminator 3 view .LVU346
 870 0286 6744     		add	r7, r7, ip
1121:./Libraries/CMSIS/DSP/Source/TransformFunctions/arm_cfft_radix4_f32.c ****    {
 871              		.loc 1 1121 4 is_stmt 0 discriminator 3 view .LVU347
 872 0288 9ED9     		bls	.L17
1195:./Libraries/CMSIS/DSP/Source/TransformFunctions/arm_cfft_radix4_f32.c ****    }
1196:./Libraries/CMSIS/DSP/Source/TransformFunctions/arm_cfft_radix4_f32.c **** 
1197:./Libraries/CMSIS/DSP/Source/TransformFunctions/arm_cfft_radix4_f32.c **** #endif /* #if defined (ARM_MATH_LOOPUNROLL) */
1198:./Libraries/CMSIS/DSP/Source/TransformFunctions/arm_cfft_radix4_f32.c **** }
 873              		.loc 1 1198 1 view .LVU348
 874 028a 0DB0     		add	sp, sp, #52
 875              	.LCFI6:
 876              		.cfi_remember_state
 877              		.cfi_def_cfa_offset 44
 878              		@ sp needed
 879 028c BDEC028B 		vldm	sp!, {d8}
 880              	.LCFI7:
 881              		.cfi_restore 80
 882              		.cfi_restore 81
 883              		.cfi_def_cfa_offset 36
 884 0290 BDE8F08F 		pop	{r4, r5, r6, r7, r8, r9, r10, fp, pc}
 885              	.LVL95:
 886              	.L18:
 887              	.LCFI8:
 888              		.cfi_restore_state
 889              		.loc 1 1198 1 view .LVU349
 890 0294 CB00     		lsls	r3, r1, #3
1011:./Libraries/CMSIS/DSP/Source/TransformFunctions/arm_cfft_radix4_f32.c ****    {
 891              		.loc 1 1011 4 view .LVU350
 892 0296 0025     		movs	r5, #0
 893 0298 0391     		str	r1, [sp, #12]
 894 029a 0A93     		str	r3, [sp, #40]
 895 029c 7FE7     		b	.L13
 896              		.cfi_endproc
 897              	.LFE147:
 899 029e 00BF     		.section	.text.arm_cfft_radix4_f32,"ax",%progbits
 900              		.align	1
 901              		.p2align 2,,3
 902              		.global	arm_cfft_radix4_f32
 903              		.syntax unified
 904              		.thumb
 905              		.thumb_func
 906              		.fpu fpv5-d16
 908              	arm_cfft_radix4_f32:
 909              	.LVL96:
ARM GAS  /tmp/ccWpuuii.s 			page 42


 910              	.LFB145:
  71:./Libraries/CMSIS/DSP/Source/TransformFunctions/arm_cfft_radix4_f32.c ****    if (S->ifftFlag == 1U)
 911              		.loc 1 71 1 is_stmt 1 view -0
 912              		.cfi_startproc
 913              		@ args = 0, pretend = 0, frame = 8
 914              		@ frame_needed = 0, uses_anonymous_args = 0
  72:./Libraries/CMSIS/DSP/Source/TransformFunctions/arm_cfft_radix4_f32.c ****    {
 915              		.loc 1 72 4 view .LVU352
  71:./Libraries/CMSIS/DSP/Source/TransformFunctions/arm_cfft_radix4_f32.c ****    if (S->ifftFlag == 1U)
 916              		.loc 1 71 1 is_stmt 0 view .LVU353
 917 0000 10B5     		push	{r4, lr}
 918              	.LCFI9:
 919              		.cfi_def_cfa_offset 8
 920              		.cfi_offset 4, -8
 921              		.cfi_offset 14, -4
 922 0002 0446     		mov	r4, r0
 923 0004 82B0     		sub	sp, sp, #8
 924              	.LCFI10:
 925              		.cfi_def_cfa_offset 16
  71:./Libraries/CMSIS/DSP/Source/TransformFunctions/arm_cfft_radix4_f32.c ****    if (S->ifftFlag == 1U)
 926              		.loc 1 71 1 view .LVU354
 927 0006 0846     		mov	r0, r1
 928              	.LVL97:
  72:./Libraries/CMSIS/DSP/Source/TransformFunctions/arm_cfft_radix4_f32.c ****    {
 929              		.loc 1 72 7 view .LVU355
 930 0008 A378     		ldrb	r3, [r4, #2]	@ zero_extendqisi2
 931 000a 012B     		cmp	r3, #1
 932 000c 0BD0     		beq	.L29
  80:./Libraries/CMSIS/DSP/Source/TransformFunctions/arm_cfft_radix4_f32.c ****    }
 933              		.loc 1 80 7 is_stmt 1 view .LVU356
 934 000e A389     		ldrh	r3, [r4, #12]
 935 0010 0191     		str	r1, [sp, #4]
 936 0012 6268     		ldr	r2, [r4, #4]
 937 0014 2188     		ldrh	r1, [r4]
 938              	.LVL98:
  80:./Libraries/CMSIS/DSP/Source/TransformFunctions/arm_cfft_radix4_f32.c ****    }
 939              		.loc 1 80 7 is_stmt 0 view .LVU357
 940 0016 FFF7FEFF 		bl	arm_radix4_butterfly_f32
 941              	.LVL99:
  83:./Libraries/CMSIS/DSP/Source/TransformFunctions/arm_cfft_radix4_f32.c ****    {
 942              		.loc 1 83 7 view .LVU358
 943 001a E378     		ldrb	r3, [r4, #3]	@ zero_extendqisi2
  80:./Libraries/CMSIS/DSP/Source/TransformFunctions/arm_cfft_radix4_f32.c ****    }
 944              		.loc 1 80 7 view .LVU359
 945 001c 0198     		ldr	r0, [sp, #4]
  83:./Libraries/CMSIS/DSP/Source/TransformFunctions/arm_cfft_radix4_f32.c ****    {
 946              		.loc 1 83 4 is_stmt 1 view .LVU360
  83:./Libraries/CMSIS/DSP/Source/TransformFunctions/arm_cfft_radix4_f32.c ****    {
 947              		.loc 1 83 7 is_stmt 0 view .LVU361
 948 001e 012B     		cmp	r3, #1
 949 0020 0DD0     		beq	.L30
 950              	.L24:
  89:./Libraries/CMSIS/DSP/Source/TransformFunctions/arm_cfft_radix4_f32.c **** 
 951              		.loc 1 89 1 view .LVU362
 952 0022 02B0     		add	sp, sp, #8
 953              	.LCFI11:
 954              		.cfi_remember_state
ARM GAS  /tmp/ccWpuuii.s 			page 43


 955              		.cfi_def_cfa_offset 8
 956              		@ sp needed
 957 0024 10BD     		pop	{r4, pc}
 958              	.LVL100:
 959              	.L29:
 960              	.LCFI12:
 961              		.cfi_restore_state
  75:./Libraries/CMSIS/DSP/Source/TransformFunctions/arm_cfft_radix4_f32.c ****    }
 962              		.loc 1 75 7 is_stmt 1 view .LVU363
 963 0026 A389     		ldrh	r3, [r4, #12]
 964 0028 0191     		str	r1, [sp, #4]
 965 002a 94ED040A 		vldr.32	s0, [r4, #16]
 966 002e 6268     		ldr	r2, [r4, #4]
 967 0030 2188     		ldrh	r1, [r4]
 968 0032 FFF7FEFF 		bl	arm_radix4_butterfly_inverse_f32
 969              	.LVL101:
  83:./Libraries/CMSIS/DSP/Source/TransformFunctions/arm_cfft_radix4_f32.c ****    {
 970              		.loc 1 83 7 is_stmt 0 view .LVU364
 971 0036 E378     		ldrb	r3, [r4, #3]	@ zero_extendqisi2
 972 0038 0198     		ldr	r0, [sp, #4]
  83:./Libraries/CMSIS/DSP/Source/TransformFunctions/arm_cfft_radix4_f32.c ****    {
 973              		.loc 1 83 4 is_stmt 1 view .LVU365
  83:./Libraries/CMSIS/DSP/Source/TransformFunctions/arm_cfft_radix4_f32.c ****    {
 974              		.loc 1 83 7 is_stmt 0 view .LVU366
 975 003a 012B     		cmp	r3, #1
 976 003c F1D1     		bne	.L24
 977              	.L30:
  86:./Libraries/CMSIS/DSP/Source/TransformFunctions/arm_cfft_radix4_f32.c ****    }
 978              		.loc 1 86 7 is_stmt 1 view .LVU367
 979 003e A368     		ldr	r3, [r4, #8]
 980 0040 E289     		ldrh	r2, [r4, #14]
 981 0042 2188     		ldrh	r1, [r4]
  89:./Libraries/CMSIS/DSP/Source/TransformFunctions/arm_cfft_radix4_f32.c **** 
 982              		.loc 1 89 1 is_stmt 0 view .LVU368
 983 0044 02B0     		add	sp, sp, #8
 984              	.LCFI13:
 985              		.cfi_def_cfa_offset 8
 986              		@ sp needed
 987 0046 BDE81040 		pop	{r4, lr}
 988              	.LCFI14:
 989              		.cfi_restore 14
 990              		.cfi_restore 4
 991              		.cfi_def_cfa_offset 0
 992              	.LVL102:
  86:./Libraries/CMSIS/DSP/Source/TransformFunctions/arm_cfft_radix4_f32.c ****    }
 993              		.loc 1 86 7 view .LVU369
 994 004a FFF7FEBF 		b	arm_bitreversal_f32
 995              	.LVL103:
 996              		.cfi_endproc
 997              	.LFE145:
 999 004e 00BF     		.text
 1000              	.Letext0:
 1001              		.file 2 "/usr/lib/gcc/arm-none-eabi/9.2.1/include/stdint.h"
 1002              		.file 3 "/usr/lib/gcc/arm-none-eabi/9.2.1/include/stddef.h"
 1003              		.file 4 "/usr/include/newlib/sys/_types.h"
 1004              		.file 5 "/usr/include/newlib/sys/reent.h"
 1005              		.file 6 "/usr/include/newlib/sys/lock.h"
ARM GAS  /tmp/ccWpuuii.s 			page 44


 1006              		.file 7 "/usr/include/newlib/math.h"
 1007              		.file 8 "./Libraries/CMSIS/DSP/Include/arm_math.h"
ARM GAS  /tmp/ccWpuuii.s 			page 45

