ARM GAS  /tmp/ccGxUirx.s 			page 1


   1              		.cpu cortex-m7
   2              		.eabi_attribute 28, 1
   3              		.eabi_attribute 20, 1
   4              		.eabi_attribute 21, 1
   5              		.eabi_attribute 23, 3
   6              		.eabi_attribute 24, 1
   7              		.eabi_attribute 25, 1
   8              		.eabi_attribute 26, 1
   9              		.eabi_attribute 30, 2
  10              		.eabi_attribute 34, 1
  11              		.eabi_attribute 18, 4
  12              		.file	"arm_mean_q7.c"
  13              		.text
  14              	.Ltext0:
  15              		.cfi_sections	.debug_frame
  16              		.section	.text.arm_mean_q7,"ax",%progbits
  17              		.align	1
  18              		.p2align 2,,3
  19              		.global	arm_mean_q7
  20              		.arch armv7e-m
  21              		.syntax unified
  22              		.thumb
  23              		.thumb_func
  24              		.fpu fpv5-d16
  26              	arm_mean_q7:
  27              	.LVL0:
  28              	.LFB145:
  29              		.file 1 "./Libraries/CMSIS/DSP/Source/StatisticsFunctions/arm_mean_q7.c"
   1:./Libraries/CMSIS/DSP/Source/StatisticsFunctions/arm_mean_q7.c **** /* ----------------------------------------------------------------------
   2:./Libraries/CMSIS/DSP/Source/StatisticsFunctions/arm_mean_q7.c ****  * Project:      CMSIS DSP Library
   3:./Libraries/CMSIS/DSP/Source/StatisticsFunctions/arm_mean_q7.c ****  * Title:        arm_mean_q7.c
   4:./Libraries/CMSIS/DSP/Source/StatisticsFunctions/arm_mean_q7.c ****  * Description:  Mean value of a Q7 vector
   5:./Libraries/CMSIS/DSP/Source/StatisticsFunctions/arm_mean_q7.c ****  *
   6:./Libraries/CMSIS/DSP/Source/StatisticsFunctions/arm_mean_q7.c ****  * $Date:        18. March 2019
   7:./Libraries/CMSIS/DSP/Source/StatisticsFunctions/arm_mean_q7.c ****  * $Revision:    V1.6.0
   8:./Libraries/CMSIS/DSP/Source/StatisticsFunctions/arm_mean_q7.c ****  *
   9:./Libraries/CMSIS/DSP/Source/StatisticsFunctions/arm_mean_q7.c ****  * Target Processor: Cortex-M cores
  10:./Libraries/CMSIS/DSP/Source/StatisticsFunctions/arm_mean_q7.c ****  * -------------------------------------------------------------------- */
  11:./Libraries/CMSIS/DSP/Source/StatisticsFunctions/arm_mean_q7.c **** /*
  12:./Libraries/CMSIS/DSP/Source/StatisticsFunctions/arm_mean_q7.c ****  * Copyright (C) 2010-2019 ARM Limited or its affiliates. All rights reserved.
  13:./Libraries/CMSIS/DSP/Source/StatisticsFunctions/arm_mean_q7.c ****  *
  14:./Libraries/CMSIS/DSP/Source/StatisticsFunctions/arm_mean_q7.c ****  * SPDX-License-Identifier: Apache-2.0
  15:./Libraries/CMSIS/DSP/Source/StatisticsFunctions/arm_mean_q7.c ****  *
  16:./Libraries/CMSIS/DSP/Source/StatisticsFunctions/arm_mean_q7.c ****  * Licensed under the Apache License, Version 2.0 (the License); you may
  17:./Libraries/CMSIS/DSP/Source/StatisticsFunctions/arm_mean_q7.c ****  * not use this file except in compliance with the License.
  18:./Libraries/CMSIS/DSP/Source/StatisticsFunctions/arm_mean_q7.c ****  * You may obtain a copy of the License at
  19:./Libraries/CMSIS/DSP/Source/StatisticsFunctions/arm_mean_q7.c ****  *
  20:./Libraries/CMSIS/DSP/Source/StatisticsFunctions/arm_mean_q7.c ****  * www.apache.org/licenses/LICENSE-2.0
  21:./Libraries/CMSIS/DSP/Source/StatisticsFunctions/arm_mean_q7.c ****  *
  22:./Libraries/CMSIS/DSP/Source/StatisticsFunctions/arm_mean_q7.c ****  * Unless required by applicable law or agreed to in writing, software
  23:./Libraries/CMSIS/DSP/Source/StatisticsFunctions/arm_mean_q7.c ****  * distributed under the License is distributed on an AS IS BASIS, WITHOUT
  24:./Libraries/CMSIS/DSP/Source/StatisticsFunctions/arm_mean_q7.c ****  * WARRANTIES OR CONDITIONS OF ANY KIND, either express or implied.
  25:./Libraries/CMSIS/DSP/Source/StatisticsFunctions/arm_mean_q7.c ****  * See the License for the specific language governing permissions and
  26:./Libraries/CMSIS/DSP/Source/StatisticsFunctions/arm_mean_q7.c ****  * limitations under the License.
  27:./Libraries/CMSIS/DSP/Source/StatisticsFunctions/arm_mean_q7.c ****  */
  28:./Libraries/CMSIS/DSP/Source/StatisticsFunctions/arm_mean_q7.c **** 
  29:./Libraries/CMSIS/DSP/Source/StatisticsFunctions/arm_mean_q7.c **** #include "arm_math.h"
ARM GAS  /tmp/ccGxUirx.s 			page 2


  30:./Libraries/CMSIS/DSP/Source/StatisticsFunctions/arm_mean_q7.c **** 
  31:./Libraries/CMSIS/DSP/Source/StatisticsFunctions/arm_mean_q7.c **** /**
  32:./Libraries/CMSIS/DSP/Source/StatisticsFunctions/arm_mean_q7.c ****   @ingroup groupStats
  33:./Libraries/CMSIS/DSP/Source/StatisticsFunctions/arm_mean_q7.c ****  */
  34:./Libraries/CMSIS/DSP/Source/StatisticsFunctions/arm_mean_q7.c **** 
  35:./Libraries/CMSIS/DSP/Source/StatisticsFunctions/arm_mean_q7.c **** /**
  36:./Libraries/CMSIS/DSP/Source/StatisticsFunctions/arm_mean_q7.c ****   @addtogroup mean
  37:./Libraries/CMSIS/DSP/Source/StatisticsFunctions/arm_mean_q7.c ****   @{
  38:./Libraries/CMSIS/DSP/Source/StatisticsFunctions/arm_mean_q7.c ****  */
  39:./Libraries/CMSIS/DSP/Source/StatisticsFunctions/arm_mean_q7.c **** 
  40:./Libraries/CMSIS/DSP/Source/StatisticsFunctions/arm_mean_q7.c **** /**
  41:./Libraries/CMSIS/DSP/Source/StatisticsFunctions/arm_mean_q7.c ****   @brief         Mean value of a Q7 vector.
  42:./Libraries/CMSIS/DSP/Source/StatisticsFunctions/arm_mean_q7.c ****   @param[in]     pSrc       points to the input vector
  43:./Libraries/CMSIS/DSP/Source/StatisticsFunctions/arm_mean_q7.c ****   @param[in]     blockSize  number of samples in input vector
  44:./Libraries/CMSIS/DSP/Source/StatisticsFunctions/arm_mean_q7.c ****   @param[out]    pResult    mean value returned here
  45:./Libraries/CMSIS/DSP/Source/StatisticsFunctions/arm_mean_q7.c ****   @return        none
  46:./Libraries/CMSIS/DSP/Source/StatisticsFunctions/arm_mean_q7.c **** 
  47:./Libraries/CMSIS/DSP/Source/StatisticsFunctions/arm_mean_q7.c ****   @par           Scaling and Overflow Behavior
  48:./Libraries/CMSIS/DSP/Source/StatisticsFunctions/arm_mean_q7.c ****                    The function is implemented using a 32-bit internal accumulator.
  49:./Libraries/CMSIS/DSP/Source/StatisticsFunctions/arm_mean_q7.c ****                    The input is represented in 1.7 format and is accumulated in a 32-bit
  50:./Libraries/CMSIS/DSP/Source/StatisticsFunctions/arm_mean_q7.c ****                    accumulator in 25.7 format.
  51:./Libraries/CMSIS/DSP/Source/StatisticsFunctions/arm_mean_q7.c ****                    There is no risk of internal overflow with this approach, and the
  52:./Libraries/CMSIS/DSP/Source/StatisticsFunctions/arm_mean_q7.c ****                    full precision of intermediate result is preserved.
  53:./Libraries/CMSIS/DSP/Source/StatisticsFunctions/arm_mean_q7.c ****                    Finally, the accumulator is truncated to yield a result of 1.7 format.
  54:./Libraries/CMSIS/DSP/Source/StatisticsFunctions/arm_mean_q7.c ****  */
  55:./Libraries/CMSIS/DSP/Source/StatisticsFunctions/arm_mean_q7.c **** 
  56:./Libraries/CMSIS/DSP/Source/StatisticsFunctions/arm_mean_q7.c **** void arm_mean_q7(
  57:./Libraries/CMSIS/DSP/Source/StatisticsFunctions/arm_mean_q7.c ****   const q7_t * pSrc,
  58:./Libraries/CMSIS/DSP/Source/StatisticsFunctions/arm_mean_q7.c ****         uint32_t blockSize,
  59:./Libraries/CMSIS/DSP/Source/StatisticsFunctions/arm_mean_q7.c ****         q7_t * pResult)
  60:./Libraries/CMSIS/DSP/Source/StatisticsFunctions/arm_mean_q7.c **** {
  30              		.loc 1 60 1 view -0
  31              		.cfi_startproc
  32              		@ args = 0, pretend = 0, frame = 0
  33              		@ frame_needed = 0, uses_anonymous_args = 0
  34              		@ link register save eliminated.
  61:./Libraries/CMSIS/DSP/Source/StatisticsFunctions/arm_mean_q7.c ****         uint32_t blkCnt;                               /* Loop counter */
  35              		.loc 1 61 9 view .LVU1
  62:./Libraries/CMSIS/DSP/Source/StatisticsFunctions/arm_mean_q7.c ****         q31_t sum = 0;                                 /* Temporary result storage */
  36              		.loc 1 62 9 view .LVU2
  63:./Libraries/CMSIS/DSP/Source/StatisticsFunctions/arm_mean_q7.c **** 
  64:./Libraries/CMSIS/DSP/Source/StatisticsFunctions/arm_mean_q7.c **** #if defined (ARM_MATH_LOOPUNROLL)
  65:./Libraries/CMSIS/DSP/Source/StatisticsFunctions/arm_mean_q7.c ****         q31_t in;
  66:./Libraries/CMSIS/DSP/Source/StatisticsFunctions/arm_mean_q7.c **** #endif
  67:./Libraries/CMSIS/DSP/Source/StatisticsFunctions/arm_mean_q7.c **** 
  68:./Libraries/CMSIS/DSP/Source/StatisticsFunctions/arm_mean_q7.c **** #if defined (ARM_MATH_LOOPUNROLL)
  69:./Libraries/CMSIS/DSP/Source/StatisticsFunctions/arm_mean_q7.c **** 
  70:./Libraries/CMSIS/DSP/Source/StatisticsFunctions/arm_mean_q7.c ****   /* Loop unrolling: Compute 4 outputs at a time */
  71:./Libraries/CMSIS/DSP/Source/StatisticsFunctions/arm_mean_q7.c ****   blkCnt = blockSize >> 2U;
  72:./Libraries/CMSIS/DSP/Source/StatisticsFunctions/arm_mean_q7.c **** 
  73:./Libraries/CMSIS/DSP/Source/StatisticsFunctions/arm_mean_q7.c ****   while (blkCnt > 0U)
  74:./Libraries/CMSIS/DSP/Source/StatisticsFunctions/arm_mean_q7.c ****   {
  75:./Libraries/CMSIS/DSP/Source/StatisticsFunctions/arm_mean_q7.c ****     /* C = (A[0] + A[1] + A[2] + ... + A[blockSize-1]) */
  76:./Libraries/CMSIS/DSP/Source/StatisticsFunctions/arm_mean_q7.c ****     in = read_q7x4_ia ((q7_t **) &pSrc);
  77:./Libraries/CMSIS/DSP/Source/StatisticsFunctions/arm_mean_q7.c ****     sum += ((in << 24U) >> 24U);
  78:./Libraries/CMSIS/DSP/Source/StatisticsFunctions/arm_mean_q7.c ****     sum += ((in << 16U) >> 24U);
  79:./Libraries/CMSIS/DSP/Source/StatisticsFunctions/arm_mean_q7.c ****     sum += ((in <<  8U) >> 24U);
ARM GAS  /tmp/ccGxUirx.s 			page 3


  80:./Libraries/CMSIS/DSP/Source/StatisticsFunctions/arm_mean_q7.c ****     sum +=  (in >> 24U);
  81:./Libraries/CMSIS/DSP/Source/StatisticsFunctions/arm_mean_q7.c **** 
  82:./Libraries/CMSIS/DSP/Source/StatisticsFunctions/arm_mean_q7.c ****     /* Decrement the loop counter */
  83:./Libraries/CMSIS/DSP/Source/StatisticsFunctions/arm_mean_q7.c ****     blkCnt--;
  84:./Libraries/CMSIS/DSP/Source/StatisticsFunctions/arm_mean_q7.c ****   }
  85:./Libraries/CMSIS/DSP/Source/StatisticsFunctions/arm_mean_q7.c **** 
  86:./Libraries/CMSIS/DSP/Source/StatisticsFunctions/arm_mean_q7.c ****   /* Loop unrolling: Compute remaining outputs */
  87:./Libraries/CMSIS/DSP/Source/StatisticsFunctions/arm_mean_q7.c ****   blkCnt = blockSize % 0x4U;
  88:./Libraries/CMSIS/DSP/Source/StatisticsFunctions/arm_mean_q7.c **** 
  89:./Libraries/CMSIS/DSP/Source/StatisticsFunctions/arm_mean_q7.c **** #else
  90:./Libraries/CMSIS/DSP/Source/StatisticsFunctions/arm_mean_q7.c **** 
  91:./Libraries/CMSIS/DSP/Source/StatisticsFunctions/arm_mean_q7.c ****   /* Initialize blkCnt with number of samples */
  92:./Libraries/CMSIS/DSP/Source/StatisticsFunctions/arm_mean_q7.c ****   blkCnt = blockSize;
  37              		.loc 1 92 3 view .LVU3
  93:./Libraries/CMSIS/DSP/Source/StatisticsFunctions/arm_mean_q7.c **** 
  94:./Libraries/CMSIS/DSP/Source/StatisticsFunctions/arm_mean_q7.c **** #endif /* #if defined (ARM_MATH_LOOPUNROLL) */
  95:./Libraries/CMSIS/DSP/Source/StatisticsFunctions/arm_mean_q7.c **** 
  96:./Libraries/CMSIS/DSP/Source/StatisticsFunctions/arm_mean_q7.c ****   while (blkCnt > 0U)
  38              		.loc 1 96 3 view .LVU4
  39              		.loc 1 96 9 view .LVU5
  40 0000 69B1     		cbz	r1, .L4
  62:./Libraries/CMSIS/DSP/Source/StatisticsFunctions/arm_mean_q7.c **** 
  41              		.loc 1 62 15 is_stmt 0 view .LVU6
  42 0002 0023     		movs	r3, #0
  60:./Libraries/CMSIS/DSP/Source/StatisticsFunctions/arm_mean_q7.c ****         uint32_t blkCnt;                               /* Loop counter */
  43              		.loc 1 60 1 view .LVU7
  44 0004 30B4     		push	{r4, r5}
  45              	.LCFI0:
  46              		.cfi_def_cfa_offset 8
  47              		.cfi_offset 4, -8
  48              		.cfi_offset 5, -4
  49 0006 4518     		adds	r5, r0, r1
  50              	.LVL1:
  51              	.L3:
  97:./Libraries/CMSIS/DSP/Source/StatisticsFunctions/arm_mean_q7.c ****   {
  98:./Libraries/CMSIS/DSP/Source/StatisticsFunctions/arm_mean_q7.c ****     /* C = (A[0] + A[1] + A[2] + ... + A[blockSize-1]) */
  99:./Libraries/CMSIS/DSP/Source/StatisticsFunctions/arm_mean_q7.c ****     sum += *pSrc++;
  52              		.loc 1 99 5 is_stmt 1 view .LVU8
  53              		.loc 1 99 12 is_stmt 0 view .LVU9
  54 0008 10F9014B 		ldrsb	r4, [r0], #1
  55              	.LVL2:
  96:./Libraries/CMSIS/DSP/Source/StatisticsFunctions/arm_mean_q7.c ****   {
  56              		.loc 1 96 9 view .LVU10
  57 000c A842     		cmp	r0, r5
  58              		.loc 1 99 9 view .LVU11
  59 000e 2344     		add	r3, r3, r4
  60              	.LVL3:
 100:./Libraries/CMSIS/DSP/Source/StatisticsFunctions/arm_mean_q7.c **** 
 101:./Libraries/CMSIS/DSP/Source/StatisticsFunctions/arm_mean_q7.c ****     /* Decrement loop counter */
 102:./Libraries/CMSIS/DSP/Source/StatisticsFunctions/arm_mean_q7.c ****     blkCnt--;
  61              		.loc 1 102 5 is_stmt 1 view .LVU12
  96:./Libraries/CMSIS/DSP/Source/StatisticsFunctions/arm_mean_q7.c ****   {
  62              		.loc 1 96 9 view .LVU13
  63 0010 FAD1     		bne	.L3
  64 0012 93FBF1F3 		sdiv	r3, r3, r1
  65              	.LVL4:
  96:./Libraries/CMSIS/DSP/Source/StatisticsFunctions/arm_mean_q7.c ****   {
ARM GAS  /tmp/ccGxUirx.s 			page 4


  66              		.loc 1 96 9 is_stmt 0 view .LVU14
  67 0016 5BB2     		sxtb	r3, r3
 103:./Libraries/CMSIS/DSP/Source/StatisticsFunctions/arm_mean_q7.c ****   }
 104:./Libraries/CMSIS/DSP/Source/StatisticsFunctions/arm_mean_q7.c **** 
 105:./Libraries/CMSIS/DSP/Source/StatisticsFunctions/arm_mean_q7.c ****   /* C = (A[0] + A[1] + A[2] + ... + A[blockSize-1]) / blockSize  */
 106:./Libraries/CMSIS/DSP/Source/StatisticsFunctions/arm_mean_q7.c ****   /* Store result to destination */
 107:./Libraries/CMSIS/DSP/Source/StatisticsFunctions/arm_mean_q7.c ****   *pResult = (q7_t) (sum / (int32_t) blockSize);
  68              		.loc 1 107 3 is_stmt 1 view .LVU15
 108:./Libraries/CMSIS/DSP/Source/StatisticsFunctions/arm_mean_q7.c **** }
  69              		.loc 1 108 1 is_stmt 0 view .LVU16
  70 0018 30BC     		pop	{r4, r5}
  71              	.LCFI1:
  72              		.cfi_restore 5
  73              		.cfi_restore 4
  74              		.cfi_def_cfa_offset 0
 107:./Libraries/CMSIS/DSP/Source/StatisticsFunctions/arm_mean_q7.c **** }
  75              		.loc 1 107 12 view .LVU17
  76 001a 1370     		strb	r3, [r2]
  77              		.loc 1 108 1 view .LVU18
  78 001c 7047     		bx	lr
  79              	.LVL5:
  80              	.L4:
 107:./Libraries/CMSIS/DSP/Source/StatisticsFunctions/arm_mean_q7.c **** }
  81              		.loc 1 107 3 is_stmt 1 view .LVU19
 107:./Libraries/CMSIS/DSP/Source/StatisticsFunctions/arm_mean_q7.c **** }
  82              		.loc 1 107 12 is_stmt 0 view .LVU20
  83 001e 1170     		strb	r1, [r2]
  84 0020 7047     		bx	lr
  85              		.cfi_endproc
  86              	.LFE145:
  88 0022 00BF     		.text
  89              	.Letext0:
  90              		.file 2 "/usr/lib/gcc/arm-none-eabi/9.2.1/include/stdint.h"
  91              		.file 3 "/usr/lib/gcc/arm-none-eabi/9.2.1/include/stddef.h"
  92              		.file 4 "/usr/include/newlib/sys/_types.h"
  93              		.file 5 "/usr/include/newlib/sys/reent.h"
  94              		.file 6 "/usr/include/newlib/sys/lock.h"
  95              		.file 7 "/usr/include/newlib/math.h"
  96              		.file 8 "./Libraries/CMSIS/DSP/Include/arm_math.h"
ARM GAS  /tmp/ccGxUirx.s 			page 5

