ARM GAS  /var/folders/wl/rshn8xbx1dsfj1zgryf4g1240000gn/T//ccv2Jbhb.s 			page 1


   1              		.cpu cortex-m7
   2              		.eabi_attribute 28, 1
   3              		.eabi_attribute 20, 1
   4              		.eabi_attribute 21, 1
   5              		.eabi_attribute 23, 3
   6              		.eabi_attribute 24, 1
   7              		.eabi_attribute 25, 1
   8              		.eabi_attribute 26, 1
   9              		.eabi_attribute 30, 2
  10              		.eabi_attribute 34, 1
  11              		.eabi_attribute 18, 4
  12              		.file	"arm_mat_trans_f32.c"
  13              		.text
  14              	.Ltext0:
  15              		.cfi_sections	.debug_frame
  16              		.section	.text.arm_mat_trans_f32,"ax",%progbits
  17              		.align	1
  18              		.p2align 2,,3
  19              		.global	arm_mat_trans_f32
  20              		.arch armv7e-m
  21              		.syntax unified
  22              		.thumb
  23              		.thumb_func
  24              		.fpu fpv5-d16
  26              	arm_mat_trans_f32:
  27              	.LVL0:
  28              	.LFB145:
  29              		.file 1 ".//Libraries/CMSIS/DSP/Source/MatrixFunctions/arm_mat_trans_f32.c"
   1:.//Libraries/CMSIS/DSP/Source/MatrixFunctions/arm_mat_trans_f32.c **** /* ----------------------------------------------------------------------
   2:.//Libraries/CMSIS/DSP/Source/MatrixFunctions/arm_mat_trans_f32.c ****  * Project:      CMSIS DSP Library
   3:.//Libraries/CMSIS/DSP/Source/MatrixFunctions/arm_mat_trans_f32.c ****  * Title:        arm_mat_trans_f32.c
   4:.//Libraries/CMSIS/DSP/Source/MatrixFunctions/arm_mat_trans_f32.c ****  * Description:  Floating-point matrix transpose
   5:.//Libraries/CMSIS/DSP/Source/MatrixFunctions/arm_mat_trans_f32.c ****  *
   6:.//Libraries/CMSIS/DSP/Source/MatrixFunctions/arm_mat_trans_f32.c ****  * $Date:        18. March 2019
   7:.//Libraries/CMSIS/DSP/Source/MatrixFunctions/arm_mat_trans_f32.c ****  * $Revision:    V1.6.0
   8:.//Libraries/CMSIS/DSP/Source/MatrixFunctions/arm_mat_trans_f32.c ****  *
   9:.//Libraries/CMSIS/DSP/Source/MatrixFunctions/arm_mat_trans_f32.c ****  * Target Processor: Cortex-M cores
  10:.//Libraries/CMSIS/DSP/Source/MatrixFunctions/arm_mat_trans_f32.c ****  * -------------------------------------------------------------------- */
  11:.//Libraries/CMSIS/DSP/Source/MatrixFunctions/arm_mat_trans_f32.c **** /*
  12:.//Libraries/CMSIS/DSP/Source/MatrixFunctions/arm_mat_trans_f32.c ****  * Copyright (C) 2010-2017 ARM Limited or its affiliates. All rights reserved.
  13:.//Libraries/CMSIS/DSP/Source/MatrixFunctions/arm_mat_trans_f32.c ****  *
  14:.//Libraries/CMSIS/DSP/Source/MatrixFunctions/arm_mat_trans_f32.c ****  * SPDX-License-Identifier: Apache-2.0
  15:.//Libraries/CMSIS/DSP/Source/MatrixFunctions/arm_mat_trans_f32.c ****  *
  16:.//Libraries/CMSIS/DSP/Source/MatrixFunctions/arm_mat_trans_f32.c ****  * Licensed under the Apache License, Version 2.0 (the License); you may
  17:.//Libraries/CMSIS/DSP/Source/MatrixFunctions/arm_mat_trans_f32.c ****  * not use this file except in compliance with the License.
  18:.//Libraries/CMSIS/DSP/Source/MatrixFunctions/arm_mat_trans_f32.c ****  * You may obtain a copy of the License at
  19:.//Libraries/CMSIS/DSP/Source/MatrixFunctions/arm_mat_trans_f32.c ****  *
  20:.//Libraries/CMSIS/DSP/Source/MatrixFunctions/arm_mat_trans_f32.c ****  * www.apache.org/licenses/LICENSE-2.0
  21:.//Libraries/CMSIS/DSP/Source/MatrixFunctions/arm_mat_trans_f32.c ****  *
  22:.//Libraries/CMSIS/DSP/Source/MatrixFunctions/arm_mat_trans_f32.c ****  * Unless required by applicable law or agreed to in writing, software
  23:.//Libraries/CMSIS/DSP/Source/MatrixFunctions/arm_mat_trans_f32.c ****  * distributed under the License is distributed on an AS IS BASIS, WITHOUT
  24:.//Libraries/CMSIS/DSP/Source/MatrixFunctions/arm_mat_trans_f32.c ****  * WARRANTIES OR CONDITIONS OF ANY KIND, either express or implied.
  25:.//Libraries/CMSIS/DSP/Source/MatrixFunctions/arm_mat_trans_f32.c ****  * See the License for the specific language governing permissions and
  26:.//Libraries/CMSIS/DSP/Source/MatrixFunctions/arm_mat_trans_f32.c ****  * limitations under the License.
  27:.//Libraries/CMSIS/DSP/Source/MatrixFunctions/arm_mat_trans_f32.c ****  */
  28:.//Libraries/CMSIS/DSP/Source/MatrixFunctions/arm_mat_trans_f32.c **** 
  29:.//Libraries/CMSIS/DSP/Source/MatrixFunctions/arm_mat_trans_f32.c **** #include "arm_math.h"
ARM GAS  /var/folders/wl/rshn8xbx1dsfj1zgryf4g1240000gn/T//ccv2Jbhb.s 			page 2


  30:.//Libraries/CMSIS/DSP/Source/MatrixFunctions/arm_mat_trans_f32.c **** 
  31:.//Libraries/CMSIS/DSP/Source/MatrixFunctions/arm_mat_trans_f32.c **** /**
  32:.//Libraries/CMSIS/DSP/Source/MatrixFunctions/arm_mat_trans_f32.c ****   @ingroup groupMatrix
  33:.//Libraries/CMSIS/DSP/Source/MatrixFunctions/arm_mat_trans_f32.c ****  */
  34:.//Libraries/CMSIS/DSP/Source/MatrixFunctions/arm_mat_trans_f32.c **** 
  35:.//Libraries/CMSIS/DSP/Source/MatrixFunctions/arm_mat_trans_f32.c **** /**
  36:.//Libraries/CMSIS/DSP/Source/MatrixFunctions/arm_mat_trans_f32.c ****   @defgroup MatrixTrans Matrix Transpose
  37:.//Libraries/CMSIS/DSP/Source/MatrixFunctions/arm_mat_trans_f32.c **** 
  38:.//Libraries/CMSIS/DSP/Source/MatrixFunctions/arm_mat_trans_f32.c ****   Tranposes a matrix.
  39:.//Libraries/CMSIS/DSP/Source/MatrixFunctions/arm_mat_trans_f32.c **** 
  40:.//Libraries/CMSIS/DSP/Source/MatrixFunctions/arm_mat_trans_f32.c ****   Transposing an <code>M x N</code> matrix flips it around the center diagonal and results in an <c
  41:.//Libraries/CMSIS/DSP/Source/MatrixFunctions/arm_mat_trans_f32.c ****   \image html MatrixTranspose.gif "Transpose of a 3 x 3 matrix"
  42:.//Libraries/CMSIS/DSP/Source/MatrixFunctions/arm_mat_trans_f32.c ****  */
  43:.//Libraries/CMSIS/DSP/Source/MatrixFunctions/arm_mat_trans_f32.c **** 
  44:.//Libraries/CMSIS/DSP/Source/MatrixFunctions/arm_mat_trans_f32.c **** /**
  45:.//Libraries/CMSIS/DSP/Source/MatrixFunctions/arm_mat_trans_f32.c ****   @addtogroup MatrixTrans
  46:.//Libraries/CMSIS/DSP/Source/MatrixFunctions/arm_mat_trans_f32.c ****   @{
  47:.//Libraries/CMSIS/DSP/Source/MatrixFunctions/arm_mat_trans_f32.c ****  */
  48:.//Libraries/CMSIS/DSP/Source/MatrixFunctions/arm_mat_trans_f32.c **** 
  49:.//Libraries/CMSIS/DSP/Source/MatrixFunctions/arm_mat_trans_f32.c **** /**
  50:.//Libraries/CMSIS/DSP/Source/MatrixFunctions/arm_mat_trans_f32.c ****   @brief         Floating-point matrix transpose.
  51:.//Libraries/CMSIS/DSP/Source/MatrixFunctions/arm_mat_trans_f32.c ****   @param[in]     pSrc      points to input matrix
  52:.//Libraries/CMSIS/DSP/Source/MatrixFunctions/arm_mat_trans_f32.c ****   @param[out]    pDst      points to output matrix
  53:.//Libraries/CMSIS/DSP/Source/MatrixFunctions/arm_mat_trans_f32.c ****   @return        execution status
  54:.//Libraries/CMSIS/DSP/Source/MatrixFunctions/arm_mat_trans_f32.c ****                    - \ref ARM_MATH_SUCCESS       : Operation successful
  55:.//Libraries/CMSIS/DSP/Source/MatrixFunctions/arm_mat_trans_f32.c ****                    - \ref ARM_MATH_SIZE_MISMATCH : Matrix size check failed
  56:.//Libraries/CMSIS/DSP/Source/MatrixFunctions/arm_mat_trans_f32.c ****  */
  57:.//Libraries/CMSIS/DSP/Source/MatrixFunctions/arm_mat_trans_f32.c **** 
  58:.//Libraries/CMSIS/DSP/Source/MatrixFunctions/arm_mat_trans_f32.c **** #if defined(ARM_MATH_NEON)
  59:.//Libraries/CMSIS/DSP/Source/MatrixFunctions/arm_mat_trans_f32.c **** 
  60:.//Libraries/CMSIS/DSP/Source/MatrixFunctions/arm_mat_trans_f32.c **** arm_status arm_mat_trans_f32(
  61:.//Libraries/CMSIS/DSP/Source/MatrixFunctions/arm_mat_trans_f32.c ****   const arm_matrix_instance_f32 * pSrc,
  62:.//Libraries/CMSIS/DSP/Source/MatrixFunctions/arm_mat_trans_f32.c ****   arm_matrix_instance_f32 * pDst)
  63:.//Libraries/CMSIS/DSP/Source/MatrixFunctions/arm_mat_trans_f32.c **** {
  64:.//Libraries/CMSIS/DSP/Source/MatrixFunctions/arm_mat_trans_f32.c ****   float32_t *pIn = pSrc->pData;                  /* input data matrix pointer */
  65:.//Libraries/CMSIS/DSP/Source/MatrixFunctions/arm_mat_trans_f32.c ****   float32_t *pOut = pDst->pData;                 /* output data matrix pointer */
  66:.//Libraries/CMSIS/DSP/Source/MatrixFunctions/arm_mat_trans_f32.c ****   float32_t *px;                                 /* Temporary output data matrix pointer */
  67:.//Libraries/CMSIS/DSP/Source/MatrixFunctions/arm_mat_trans_f32.c ****   uint16_t nRows = pSrc->numRows;                /* number of rows */
  68:.//Libraries/CMSIS/DSP/Source/MatrixFunctions/arm_mat_trans_f32.c ****   uint16_t nColumns = pSrc->numCols;             /* number of columns */
  69:.//Libraries/CMSIS/DSP/Source/MatrixFunctions/arm_mat_trans_f32.c **** 
  70:.//Libraries/CMSIS/DSP/Source/MatrixFunctions/arm_mat_trans_f32.c ****   uint16_t blkCnt, rowCnt, i = 0U, row = nRows;          /* loop counters */
  71:.//Libraries/CMSIS/DSP/Source/MatrixFunctions/arm_mat_trans_f32.c ****   arm_status status;                             /* status of matrix transpose  */
  72:.//Libraries/CMSIS/DSP/Source/MatrixFunctions/arm_mat_trans_f32.c **** 
  73:.//Libraries/CMSIS/DSP/Source/MatrixFunctions/arm_mat_trans_f32.c **** #ifdef ARM_MATH_MATRIX_CHECK
  74:.//Libraries/CMSIS/DSP/Source/MatrixFunctions/arm_mat_trans_f32.c **** 
  75:.//Libraries/CMSIS/DSP/Source/MatrixFunctions/arm_mat_trans_f32.c ****   /* Check for matrix mismatch condition */
  76:.//Libraries/CMSIS/DSP/Source/MatrixFunctions/arm_mat_trans_f32.c ****   if ((pSrc->numRows != pDst->numCols) || (pSrc->numCols != pDst->numRows))
  77:.//Libraries/CMSIS/DSP/Source/MatrixFunctions/arm_mat_trans_f32.c ****   {
  78:.//Libraries/CMSIS/DSP/Source/MatrixFunctions/arm_mat_trans_f32.c ****     /* Set status as ARM_MATH_SIZE_MISMATCH */
  79:.//Libraries/CMSIS/DSP/Source/MatrixFunctions/arm_mat_trans_f32.c ****     status = ARM_MATH_SIZE_MISMATCH;
  80:.//Libraries/CMSIS/DSP/Source/MatrixFunctions/arm_mat_trans_f32.c ****   }
  81:.//Libraries/CMSIS/DSP/Source/MatrixFunctions/arm_mat_trans_f32.c ****   else
  82:.//Libraries/CMSIS/DSP/Source/MatrixFunctions/arm_mat_trans_f32.c **** #endif /*    #ifdef ARM_MATH_MATRIX_CHECK    */
  83:.//Libraries/CMSIS/DSP/Source/MatrixFunctions/arm_mat_trans_f32.c **** 
  84:.//Libraries/CMSIS/DSP/Source/MatrixFunctions/arm_mat_trans_f32.c ****   {
  85:.//Libraries/CMSIS/DSP/Source/MatrixFunctions/arm_mat_trans_f32.c ****     /* Matrix transpose by exchanging the rows with columns */
  86:.//Libraries/CMSIS/DSP/Source/MatrixFunctions/arm_mat_trans_f32.c ****     /* Row loop */
ARM GAS  /var/folders/wl/rshn8xbx1dsfj1zgryf4g1240000gn/T//ccv2Jbhb.s 			page 3


  87:.//Libraries/CMSIS/DSP/Source/MatrixFunctions/arm_mat_trans_f32.c ****     rowCnt = row >> 2;
  88:.//Libraries/CMSIS/DSP/Source/MatrixFunctions/arm_mat_trans_f32.c ****     while (rowCnt > 0U)
  89:.//Libraries/CMSIS/DSP/Source/MatrixFunctions/arm_mat_trans_f32.c ****     {
  90:.//Libraries/CMSIS/DSP/Source/MatrixFunctions/arm_mat_trans_f32.c ****       float32x4_t row0V,row1V,row2V,row3V;
  91:.//Libraries/CMSIS/DSP/Source/MatrixFunctions/arm_mat_trans_f32.c ****       float32x4x2_t ra0,ra1,rb0,rb1;
  92:.//Libraries/CMSIS/DSP/Source/MatrixFunctions/arm_mat_trans_f32.c **** 
  93:.//Libraries/CMSIS/DSP/Source/MatrixFunctions/arm_mat_trans_f32.c ****       blkCnt = nColumns >> 2;
  94:.//Libraries/CMSIS/DSP/Source/MatrixFunctions/arm_mat_trans_f32.c **** 
  95:.//Libraries/CMSIS/DSP/Source/MatrixFunctions/arm_mat_trans_f32.c ****       /* The pointer px is set to starting address of the column being processed */
  96:.//Libraries/CMSIS/DSP/Source/MatrixFunctions/arm_mat_trans_f32.c ****       px = pOut + i;
  97:.//Libraries/CMSIS/DSP/Source/MatrixFunctions/arm_mat_trans_f32.c **** 
  98:.//Libraries/CMSIS/DSP/Source/MatrixFunctions/arm_mat_trans_f32.c ****       /* Compute 4 outputs at a time.
  99:.//Libraries/CMSIS/DSP/Source/MatrixFunctions/arm_mat_trans_f32.c ****        ** a second loop below computes the remaining 1 to 3 samples. */
 100:.//Libraries/CMSIS/DSP/Source/MatrixFunctions/arm_mat_trans_f32.c ****       while (blkCnt > 0U)        /* Column loop */
 101:.//Libraries/CMSIS/DSP/Source/MatrixFunctions/arm_mat_trans_f32.c ****       {
 102:.//Libraries/CMSIS/DSP/Source/MatrixFunctions/arm_mat_trans_f32.c ****         row0V = vld1q_f32(pIn);
 103:.//Libraries/CMSIS/DSP/Source/MatrixFunctions/arm_mat_trans_f32.c ****         row1V = vld1q_f32(pIn + 1 * nColumns);
 104:.//Libraries/CMSIS/DSP/Source/MatrixFunctions/arm_mat_trans_f32.c ****         row2V = vld1q_f32(pIn + 2 * nColumns);
 105:.//Libraries/CMSIS/DSP/Source/MatrixFunctions/arm_mat_trans_f32.c ****         row3V = vld1q_f32(pIn + 3 * nColumns);
 106:.//Libraries/CMSIS/DSP/Source/MatrixFunctions/arm_mat_trans_f32.c ****         pIn += 4;
 107:.//Libraries/CMSIS/DSP/Source/MatrixFunctions/arm_mat_trans_f32.c **** 
 108:.//Libraries/CMSIS/DSP/Source/MatrixFunctions/arm_mat_trans_f32.c ****         ra0 = vzipq_f32(row0V,row2V);
 109:.//Libraries/CMSIS/DSP/Source/MatrixFunctions/arm_mat_trans_f32.c ****         ra1 = vzipq_f32(row1V,row3V);
 110:.//Libraries/CMSIS/DSP/Source/MatrixFunctions/arm_mat_trans_f32.c **** 
 111:.//Libraries/CMSIS/DSP/Source/MatrixFunctions/arm_mat_trans_f32.c ****         rb0 = vzipq_f32(ra0.val[0],ra1.val[0]);
 112:.//Libraries/CMSIS/DSP/Source/MatrixFunctions/arm_mat_trans_f32.c ****         rb1 = vzipq_f32(ra0.val[1],ra1.val[1]);
 113:.//Libraries/CMSIS/DSP/Source/MatrixFunctions/arm_mat_trans_f32.c **** 
 114:.//Libraries/CMSIS/DSP/Source/MatrixFunctions/arm_mat_trans_f32.c ****         vst1q_f32(px,rb0.val[0]);
 115:.//Libraries/CMSIS/DSP/Source/MatrixFunctions/arm_mat_trans_f32.c ****         px += nRows;
 116:.//Libraries/CMSIS/DSP/Source/MatrixFunctions/arm_mat_trans_f32.c **** 
 117:.//Libraries/CMSIS/DSP/Source/MatrixFunctions/arm_mat_trans_f32.c ****         vst1q_f32(px,rb0.val[1]);
 118:.//Libraries/CMSIS/DSP/Source/MatrixFunctions/arm_mat_trans_f32.c ****         px += nRows;
 119:.//Libraries/CMSIS/DSP/Source/MatrixFunctions/arm_mat_trans_f32.c **** 
 120:.//Libraries/CMSIS/DSP/Source/MatrixFunctions/arm_mat_trans_f32.c ****         vst1q_f32(px,rb1.val[0]);
 121:.//Libraries/CMSIS/DSP/Source/MatrixFunctions/arm_mat_trans_f32.c ****         px += nRows;
 122:.//Libraries/CMSIS/DSP/Source/MatrixFunctions/arm_mat_trans_f32.c **** 
 123:.//Libraries/CMSIS/DSP/Source/MatrixFunctions/arm_mat_trans_f32.c ****         vst1q_f32(px,rb1.val[1]);
 124:.//Libraries/CMSIS/DSP/Source/MatrixFunctions/arm_mat_trans_f32.c ****         px += nRows;
 125:.//Libraries/CMSIS/DSP/Source/MatrixFunctions/arm_mat_trans_f32.c **** 
 126:.//Libraries/CMSIS/DSP/Source/MatrixFunctions/arm_mat_trans_f32.c ****         /* Decrement the column loop counter */
 127:.//Libraries/CMSIS/DSP/Source/MatrixFunctions/arm_mat_trans_f32.c ****         blkCnt--;
 128:.//Libraries/CMSIS/DSP/Source/MatrixFunctions/arm_mat_trans_f32.c ****       }
 129:.//Libraries/CMSIS/DSP/Source/MatrixFunctions/arm_mat_trans_f32.c **** 
 130:.//Libraries/CMSIS/DSP/Source/MatrixFunctions/arm_mat_trans_f32.c ****       /* Perform matrix transpose for last 3 samples here. */
 131:.//Libraries/CMSIS/DSP/Source/MatrixFunctions/arm_mat_trans_f32.c ****       blkCnt = nColumns % 0x4U;
 132:.//Libraries/CMSIS/DSP/Source/MatrixFunctions/arm_mat_trans_f32.c **** 
 133:.//Libraries/CMSIS/DSP/Source/MatrixFunctions/arm_mat_trans_f32.c ****       while (blkCnt > 0U)
 134:.//Libraries/CMSIS/DSP/Source/MatrixFunctions/arm_mat_trans_f32.c ****       {
 135:.//Libraries/CMSIS/DSP/Source/MatrixFunctions/arm_mat_trans_f32.c ****         /* Read and store the input element in the destination */
 136:.//Libraries/CMSIS/DSP/Source/MatrixFunctions/arm_mat_trans_f32.c ****         *px++ = *pIn;
 137:.//Libraries/CMSIS/DSP/Source/MatrixFunctions/arm_mat_trans_f32.c ****         *px++ = *(pIn + 1 * nColumns);
 138:.//Libraries/CMSIS/DSP/Source/MatrixFunctions/arm_mat_trans_f32.c ****         *px++ = *(pIn + 2 * nColumns);
 139:.//Libraries/CMSIS/DSP/Source/MatrixFunctions/arm_mat_trans_f32.c ****         *px++ = *(pIn + 3 * nColumns);
 140:.//Libraries/CMSIS/DSP/Source/MatrixFunctions/arm_mat_trans_f32.c ****         
 141:.//Libraries/CMSIS/DSP/Source/MatrixFunctions/arm_mat_trans_f32.c ****         px += (nRows - 4);
 142:.//Libraries/CMSIS/DSP/Source/MatrixFunctions/arm_mat_trans_f32.c ****         pIn++;
 143:.//Libraries/CMSIS/DSP/Source/MatrixFunctions/arm_mat_trans_f32.c **** 
ARM GAS  /var/folders/wl/rshn8xbx1dsfj1zgryf4g1240000gn/T//ccv2Jbhb.s 			page 4


 144:.//Libraries/CMSIS/DSP/Source/MatrixFunctions/arm_mat_trans_f32.c ****         /* Decrement the column loop counter */
 145:.//Libraries/CMSIS/DSP/Source/MatrixFunctions/arm_mat_trans_f32.c ****         blkCnt--;
 146:.//Libraries/CMSIS/DSP/Source/MatrixFunctions/arm_mat_trans_f32.c ****       }
 147:.//Libraries/CMSIS/DSP/Source/MatrixFunctions/arm_mat_trans_f32.c **** 
 148:.//Libraries/CMSIS/DSP/Source/MatrixFunctions/arm_mat_trans_f32.c ****       i += 4;
 149:.//Libraries/CMSIS/DSP/Source/MatrixFunctions/arm_mat_trans_f32.c ****       pIn += 3 * nColumns;
 150:.//Libraries/CMSIS/DSP/Source/MatrixFunctions/arm_mat_trans_f32.c **** 
 151:.//Libraries/CMSIS/DSP/Source/MatrixFunctions/arm_mat_trans_f32.c ****       /* Decrement the row loop counter */
 152:.//Libraries/CMSIS/DSP/Source/MatrixFunctions/arm_mat_trans_f32.c ****       rowCnt--;
 153:.//Libraries/CMSIS/DSP/Source/MatrixFunctions/arm_mat_trans_f32.c **** 
 154:.//Libraries/CMSIS/DSP/Source/MatrixFunctions/arm_mat_trans_f32.c ****     }         /* Row loop end  */
 155:.//Libraries/CMSIS/DSP/Source/MatrixFunctions/arm_mat_trans_f32.c **** 
 156:.//Libraries/CMSIS/DSP/Source/MatrixFunctions/arm_mat_trans_f32.c ****     rowCnt = row & 3;
 157:.//Libraries/CMSIS/DSP/Source/MatrixFunctions/arm_mat_trans_f32.c ****     while (rowCnt > 0U)
 158:.//Libraries/CMSIS/DSP/Source/MatrixFunctions/arm_mat_trans_f32.c ****     {
 159:.//Libraries/CMSIS/DSP/Source/MatrixFunctions/arm_mat_trans_f32.c ****       blkCnt = nColumns ;
 160:.//Libraries/CMSIS/DSP/Source/MatrixFunctions/arm_mat_trans_f32.c ****       /* The pointer px is set to starting address of the column being processed */
 161:.//Libraries/CMSIS/DSP/Source/MatrixFunctions/arm_mat_trans_f32.c ****       px = pOut + i;
 162:.//Libraries/CMSIS/DSP/Source/MatrixFunctions/arm_mat_trans_f32.c **** 
 163:.//Libraries/CMSIS/DSP/Source/MatrixFunctions/arm_mat_trans_f32.c ****       while (blkCnt > 0U)
 164:.//Libraries/CMSIS/DSP/Source/MatrixFunctions/arm_mat_trans_f32.c ****       {
 165:.//Libraries/CMSIS/DSP/Source/MatrixFunctions/arm_mat_trans_f32.c ****         /* Read and store the input element in the destination */
 166:.//Libraries/CMSIS/DSP/Source/MatrixFunctions/arm_mat_trans_f32.c ****         *px = *pIn++;
 167:.//Libraries/CMSIS/DSP/Source/MatrixFunctions/arm_mat_trans_f32.c **** 
 168:.//Libraries/CMSIS/DSP/Source/MatrixFunctions/arm_mat_trans_f32.c ****         /* Update the pointer px to point to the next row of the transposed matrix */
 169:.//Libraries/CMSIS/DSP/Source/MatrixFunctions/arm_mat_trans_f32.c ****         px += nRows;
 170:.//Libraries/CMSIS/DSP/Source/MatrixFunctions/arm_mat_trans_f32.c **** 
 171:.//Libraries/CMSIS/DSP/Source/MatrixFunctions/arm_mat_trans_f32.c ****         /* Decrement the column loop counter */
 172:.//Libraries/CMSIS/DSP/Source/MatrixFunctions/arm_mat_trans_f32.c ****         blkCnt--;
 173:.//Libraries/CMSIS/DSP/Source/MatrixFunctions/arm_mat_trans_f32.c ****       }
 174:.//Libraries/CMSIS/DSP/Source/MatrixFunctions/arm_mat_trans_f32.c ****       i++;
 175:.//Libraries/CMSIS/DSP/Source/MatrixFunctions/arm_mat_trans_f32.c ****       rowCnt -- ;
 176:.//Libraries/CMSIS/DSP/Source/MatrixFunctions/arm_mat_trans_f32.c ****     }
 177:.//Libraries/CMSIS/DSP/Source/MatrixFunctions/arm_mat_trans_f32.c **** 
 178:.//Libraries/CMSIS/DSP/Source/MatrixFunctions/arm_mat_trans_f32.c ****     /* Set status as ARM_MATH_SUCCESS */
 179:.//Libraries/CMSIS/DSP/Source/MatrixFunctions/arm_mat_trans_f32.c ****     status = ARM_MATH_SUCCESS;
 180:.//Libraries/CMSIS/DSP/Source/MatrixFunctions/arm_mat_trans_f32.c ****   }
 181:.//Libraries/CMSIS/DSP/Source/MatrixFunctions/arm_mat_trans_f32.c **** 
 182:.//Libraries/CMSIS/DSP/Source/MatrixFunctions/arm_mat_trans_f32.c ****   /* Return to application */
 183:.//Libraries/CMSIS/DSP/Source/MatrixFunctions/arm_mat_trans_f32.c ****   return (status);
 184:.//Libraries/CMSIS/DSP/Source/MatrixFunctions/arm_mat_trans_f32.c **** }
 185:.//Libraries/CMSIS/DSP/Source/MatrixFunctions/arm_mat_trans_f32.c **** #else
 186:.//Libraries/CMSIS/DSP/Source/MatrixFunctions/arm_mat_trans_f32.c **** arm_status arm_mat_trans_f32(
 187:.//Libraries/CMSIS/DSP/Source/MatrixFunctions/arm_mat_trans_f32.c ****   const arm_matrix_instance_f32 * pSrc,
 188:.//Libraries/CMSIS/DSP/Source/MatrixFunctions/arm_mat_trans_f32.c ****         arm_matrix_instance_f32 * pDst)
 189:.//Libraries/CMSIS/DSP/Source/MatrixFunctions/arm_mat_trans_f32.c **** {
  30              		.loc 1 189 1 view -0
  31              		.cfi_startproc
  32              		@ args = 0, pretend = 0, frame = 0
  33              		@ frame_needed = 0, uses_anonymous_args = 0
 190:.//Libraries/CMSIS/DSP/Source/MatrixFunctions/arm_mat_trans_f32.c ****   float32_t *pIn = pSrc->pData;                  /* input data matrix pointer */
  34              		.loc 1 190 3 view .LVU1
 189:.//Libraries/CMSIS/DSP/Source/MatrixFunctions/arm_mat_trans_f32.c ****   float32_t *pIn = pSrc->pData;                  /* input data matrix pointer */
  35              		.loc 1 189 1 is_stmt 0 view .LVU2
  36 0000 F0B5     		push	{r4, r5, r6, r7, lr}
  37              	.LCFI0:
  38              		.cfi_def_cfa_offset 20
ARM GAS  /var/folders/wl/rshn8xbx1dsfj1zgryf4g1240000gn/T//ccv2Jbhb.s 			page 5


  39              		.cfi_offset 4, -20
  40              		.cfi_offset 5, -16
  41              		.cfi_offset 6, -12
  42              		.cfi_offset 7, -8
  43              		.cfi_offset 14, -4
 191:.//Libraries/CMSIS/DSP/Source/MatrixFunctions/arm_mat_trans_f32.c ****   float32_t *pOut = pDst->pData;                 /* output data matrix pointer */
 192:.//Libraries/CMSIS/DSP/Source/MatrixFunctions/arm_mat_trans_f32.c ****   float32_t *px;                                 /* Temporary output data matrix pointer */
 193:.//Libraries/CMSIS/DSP/Source/MatrixFunctions/arm_mat_trans_f32.c ****   uint16_t nRows = pSrc->numRows;                /* number of rows */
 194:.//Libraries/CMSIS/DSP/Source/MatrixFunctions/arm_mat_trans_f32.c ****   uint16_t nCols = pSrc->numCols;                /* number of columns */
 195:.//Libraries/CMSIS/DSP/Source/MatrixFunctions/arm_mat_trans_f32.c ****   uint32_t col, row = nRows, i = 0U;             /* Loop counters */
  44              		.loc 1 195 17 view .LVU3
  45 0002 B0F800C0 		ldrh	ip, [r0]
  46 0006 4D68     		ldr	r5, [r1, #4]
  47 0008 4788     		ldrh	r7, [r0, #2]
 196:.//Libraries/CMSIS/DSP/Source/MatrixFunctions/arm_mat_trans_f32.c ****   arm_status status;                             /* status of matrix transpose */
 197:.//Libraries/CMSIS/DSP/Source/MatrixFunctions/arm_mat_trans_f32.c **** 
 198:.//Libraries/CMSIS/DSP/Source/MatrixFunctions/arm_mat_trans_f32.c **** #ifdef ARM_MATH_MATRIX_CHECK
 199:.//Libraries/CMSIS/DSP/Source/MatrixFunctions/arm_mat_trans_f32.c **** 
 200:.//Libraries/CMSIS/DSP/Source/MatrixFunctions/arm_mat_trans_f32.c ****   /* Check for matrix mismatch condition */
 201:.//Libraries/CMSIS/DSP/Source/MatrixFunctions/arm_mat_trans_f32.c ****   if ((pSrc->numRows != pDst->numCols) ||
 202:.//Libraries/CMSIS/DSP/Source/MatrixFunctions/arm_mat_trans_f32.c ****       (pSrc->numCols != pDst->numRows)   )
 203:.//Libraries/CMSIS/DSP/Source/MatrixFunctions/arm_mat_trans_f32.c ****   {
 204:.//Libraries/CMSIS/DSP/Source/MatrixFunctions/arm_mat_trans_f32.c ****     /* Set status as ARM_MATH_SIZE_MISMATCH */
 205:.//Libraries/CMSIS/DSP/Source/MatrixFunctions/arm_mat_trans_f32.c ****     status = ARM_MATH_SIZE_MISMATCH;
 206:.//Libraries/CMSIS/DSP/Source/MatrixFunctions/arm_mat_trans_f32.c ****   }
 207:.//Libraries/CMSIS/DSP/Source/MatrixFunctions/arm_mat_trans_f32.c ****   else
 208:.//Libraries/CMSIS/DSP/Source/MatrixFunctions/arm_mat_trans_f32.c **** 
 209:.//Libraries/CMSIS/DSP/Source/MatrixFunctions/arm_mat_trans_f32.c **** #endif /* #ifdef ARM_MATH_MATRIX_CHECK */
 210:.//Libraries/CMSIS/DSP/Source/MatrixFunctions/arm_mat_trans_f32.c **** 
 211:.//Libraries/CMSIS/DSP/Source/MatrixFunctions/arm_mat_trans_f32.c ****   {
 212:.//Libraries/CMSIS/DSP/Source/MatrixFunctions/arm_mat_trans_f32.c ****     /* Matrix transpose by exchanging the rows with columns */
 213:.//Libraries/CMSIS/DSP/Source/MatrixFunctions/arm_mat_trans_f32.c ****     /* row loop */
 214:.//Libraries/CMSIS/DSP/Source/MatrixFunctions/arm_mat_trans_f32.c ****     do
 215:.//Libraries/CMSIS/DSP/Source/MatrixFunctions/arm_mat_trans_f32.c ****     {
 216:.//Libraries/CMSIS/DSP/Source/MatrixFunctions/arm_mat_trans_f32.c ****       /* Pointer px is set to starting address of column being processed */
 217:.//Libraries/CMSIS/DSP/Source/MatrixFunctions/arm_mat_trans_f32.c ****       px = pOut + i;
 218:.//Libraries/CMSIS/DSP/Source/MatrixFunctions/arm_mat_trans_f32.c **** 
 219:.//Libraries/CMSIS/DSP/Source/MatrixFunctions/arm_mat_trans_f32.c **** #if defined (ARM_MATH_LOOPUNROLL)
 220:.//Libraries/CMSIS/DSP/Source/MatrixFunctions/arm_mat_trans_f32.c **** 
 221:.//Libraries/CMSIS/DSP/Source/MatrixFunctions/arm_mat_trans_f32.c ****       /* Loop unrolling: Compute 4 outputs at a time */
 222:.//Libraries/CMSIS/DSP/Source/MatrixFunctions/arm_mat_trans_f32.c ****       col = nCols >> 2U;
 223:.//Libraries/CMSIS/DSP/Source/MatrixFunctions/arm_mat_trans_f32.c **** 
 224:.//Libraries/CMSIS/DSP/Source/MatrixFunctions/arm_mat_trans_f32.c ****       while (col > 0U)        /* column loop */
 225:.//Libraries/CMSIS/DSP/Source/MatrixFunctions/arm_mat_trans_f32.c ****       {
 226:.//Libraries/CMSIS/DSP/Source/MatrixFunctions/arm_mat_trans_f32.c ****         /* Read and store input element in destination */
 227:.//Libraries/CMSIS/DSP/Source/MatrixFunctions/arm_mat_trans_f32.c ****         *px = *pIn++;
 228:.//Libraries/CMSIS/DSP/Source/MatrixFunctions/arm_mat_trans_f32.c ****         /* Update pointer px to point to next row of transposed matrix */
 229:.//Libraries/CMSIS/DSP/Source/MatrixFunctions/arm_mat_trans_f32.c ****         px += nRows;
 230:.//Libraries/CMSIS/DSP/Source/MatrixFunctions/arm_mat_trans_f32.c **** 
 231:.//Libraries/CMSIS/DSP/Source/MatrixFunctions/arm_mat_trans_f32.c ****         *px = *pIn++;
 232:.//Libraries/CMSIS/DSP/Source/MatrixFunctions/arm_mat_trans_f32.c ****         px += nRows;
 233:.//Libraries/CMSIS/DSP/Source/MatrixFunctions/arm_mat_trans_f32.c **** 
 234:.//Libraries/CMSIS/DSP/Source/MatrixFunctions/arm_mat_trans_f32.c ****         *px = *pIn++;
 235:.//Libraries/CMSIS/DSP/Source/MatrixFunctions/arm_mat_trans_f32.c ****         px += nRows;
 236:.//Libraries/CMSIS/DSP/Source/MatrixFunctions/arm_mat_trans_f32.c **** 
 237:.//Libraries/CMSIS/DSP/Source/MatrixFunctions/arm_mat_trans_f32.c ****         *px = *pIn++;
 238:.//Libraries/CMSIS/DSP/Source/MatrixFunctions/arm_mat_trans_f32.c ****         px += nRows;
ARM GAS  /var/folders/wl/rshn8xbx1dsfj1zgryf4g1240000gn/T//ccv2Jbhb.s 			page 6


 239:.//Libraries/CMSIS/DSP/Source/MatrixFunctions/arm_mat_trans_f32.c **** 
 240:.//Libraries/CMSIS/DSP/Source/MatrixFunctions/arm_mat_trans_f32.c ****         /* Decrement column loop counter */
 241:.//Libraries/CMSIS/DSP/Source/MatrixFunctions/arm_mat_trans_f32.c ****         col--;
 242:.//Libraries/CMSIS/DSP/Source/MatrixFunctions/arm_mat_trans_f32.c ****       }
 243:.//Libraries/CMSIS/DSP/Source/MatrixFunctions/arm_mat_trans_f32.c **** 
 244:.//Libraries/CMSIS/DSP/Source/MatrixFunctions/arm_mat_trans_f32.c ****       /* Loop unrolling: Compute remaining outputs */
 245:.//Libraries/CMSIS/DSP/Source/MatrixFunctions/arm_mat_trans_f32.c ****       col = nCols % 0x4U;
 246:.//Libraries/CMSIS/DSP/Source/MatrixFunctions/arm_mat_trans_f32.c **** 
 247:.//Libraries/CMSIS/DSP/Source/MatrixFunctions/arm_mat_trans_f32.c **** #else
 248:.//Libraries/CMSIS/DSP/Source/MatrixFunctions/arm_mat_trans_f32.c **** 
 249:.//Libraries/CMSIS/DSP/Source/MatrixFunctions/arm_mat_trans_f32.c ****       /* Initialize col with number of samples */
 250:.//Libraries/CMSIS/DSP/Source/MatrixFunctions/arm_mat_trans_f32.c ****       col = nCols;
 251:.//Libraries/CMSIS/DSP/Source/MatrixFunctions/arm_mat_trans_f32.c **** 
 252:.//Libraries/CMSIS/DSP/Source/MatrixFunctions/arm_mat_trans_f32.c **** #endif /* #if defined (ARM_MATH_LOOPUNROLL) */
 253:.//Libraries/CMSIS/DSP/Source/MatrixFunctions/arm_mat_trans_f32.c **** 
 254:.//Libraries/CMSIS/DSP/Source/MatrixFunctions/arm_mat_trans_f32.c ****       while (col > 0U)
 255:.//Libraries/CMSIS/DSP/Source/MatrixFunctions/arm_mat_trans_f32.c ****       {
 256:.//Libraries/CMSIS/DSP/Source/MatrixFunctions/arm_mat_trans_f32.c ****         /* Read and store input element in destination */
 257:.//Libraries/CMSIS/DSP/Source/MatrixFunctions/arm_mat_trans_f32.c ****         *px = *pIn++;
 258:.//Libraries/CMSIS/DSP/Source/MatrixFunctions/arm_mat_trans_f32.c **** 
 259:.//Libraries/CMSIS/DSP/Source/MatrixFunctions/arm_mat_trans_f32.c ****         /* Update pointer px to point to next row of transposed matrix */
 260:.//Libraries/CMSIS/DSP/Source/MatrixFunctions/arm_mat_trans_f32.c ****         px += nRows;
  48              		.loc 1 260 12 view .LVU4
  49 000a 4FEA8C04 		lsl	r4, ip, #2
 190:.//Libraries/CMSIS/DSP/Source/MatrixFunctions/arm_mat_trans_f32.c ****   float32_t *pOut = pDst->pData;                 /* output data matrix pointer */
  50              		.loc 1 190 14 view .LVU5
  51 000e 4668     		ldr	r6, [r0, #4]
  52              	.LVL1:
 191:.//Libraries/CMSIS/DSP/Source/MatrixFunctions/arm_mat_trans_f32.c ****   float32_t *pOut = pDst->pData;                 /* output data matrix pointer */
  53              		.loc 1 191 3 is_stmt 1 view .LVU6
 192:.//Libraries/CMSIS/DSP/Source/MatrixFunctions/arm_mat_trans_f32.c ****   uint16_t nRows = pSrc->numRows;                /* number of rows */
  54              		.loc 1 192 3 view .LVU7
 193:.//Libraries/CMSIS/DSP/Source/MatrixFunctions/arm_mat_trans_f32.c ****   uint16_t nCols = pSrc->numCols;                /* number of columns */
  55              		.loc 1 193 3 view .LVU8
 194:.//Libraries/CMSIS/DSP/Source/MatrixFunctions/arm_mat_trans_f32.c ****   uint32_t col, row = nRows, i = 0U;             /* Loop counters */
  56              		.loc 1 194 3 view .LVU9
 195:.//Libraries/CMSIS/DSP/Source/MatrixFunctions/arm_mat_trans_f32.c ****   arm_status status;                             /* status of matrix transpose */
  57              		.loc 1 195 3 view .LVU10
 195:.//Libraries/CMSIS/DSP/Source/MatrixFunctions/arm_mat_trans_f32.c ****   arm_status status;                             /* status of matrix transpose */
  58              		.loc 1 195 3 is_stmt 0 view .LVU11
  59 0010 05EB8C0C 		add	ip, r5, ip, lsl #2
  60 0014 4FEA870E 		lsl	lr, r7, #2
  61              	.LVL2:
  62              	.L4:
 196:.//Libraries/CMSIS/DSP/Source/MatrixFunctions/arm_mat_trans_f32.c **** 
  63              		.loc 1 196 3 is_stmt 1 view .LVU12
 214:.//Libraries/CMSIS/DSP/Source/MatrixFunctions/arm_mat_trans_f32.c ****     {
  64              		.loc 1 214 5 view .LVU13
 217:.//Libraries/CMSIS/DSP/Source/MatrixFunctions/arm_mat_trans_f32.c **** 
  65              		.loc 1 217 7 view .LVU14
 217:.//Libraries/CMSIS/DSP/Source/MatrixFunctions/arm_mat_trans_f32.c **** 
  66              		.loc 1 217 10 is_stmt 0 view .LVU15
  67 0018 2B46     		mov	r3, r5
  68              	.LVL3:
 250:.//Libraries/CMSIS/DSP/Source/MatrixFunctions/arm_mat_trans_f32.c **** 
  69              		.loc 1 250 7 is_stmt 1 view .LVU16
 254:.//Libraries/CMSIS/DSP/Source/MatrixFunctions/arm_mat_trans_f32.c ****       {
ARM GAS  /var/folders/wl/rshn8xbx1dsfj1zgryf4g1240000gn/T//ccv2Jbhb.s 			page 7


  70              		.loc 1 254 7 view .LVU17
 254:.//Libraries/CMSIS/DSP/Source/MatrixFunctions/arm_mat_trans_f32.c ****       {
  71              		.loc 1 254 13 view .LVU18
  72 001a 47B1     		cbz	r7, .L2
  73 001c 3A46     		mov	r2, r7
  74 001e 3146     		mov	r1, r6
  75              	.LVL4:
  76              	.L3:
 257:.//Libraries/CMSIS/DSP/Source/MatrixFunctions/arm_mat_trans_f32.c **** 
  77              		.loc 1 257 9 view .LVU19
 257:.//Libraries/CMSIS/DSP/Source/MatrixFunctions/arm_mat_trans_f32.c **** 
  78              		.loc 1 257 15 is_stmt 0 view .LVU20
  79 0020 51F8040B 		ldr	r0, [r1], #4	@ float
  80              	.LVL5:
 254:.//Libraries/CMSIS/DSP/Source/MatrixFunctions/arm_mat_trans_f32.c ****       {
  81              		.loc 1 254 13 view .LVU21
  82 0024 013A     		subs	r2, r2, #1
  83              	.LVL6:
 257:.//Libraries/CMSIS/DSP/Source/MatrixFunctions/arm_mat_trans_f32.c **** 
  84              		.loc 1 257 13 view .LVU22
  85 0026 1860     		str	r0, [r3]	@ float
  86              		.loc 1 260 9 is_stmt 1 view .LVU23
  87              		.loc 1 260 12 is_stmt 0 view .LVU24
  88 0028 2344     		add	r3, r3, r4
  89              	.LVL7:
 261:.//Libraries/CMSIS/DSP/Source/MatrixFunctions/arm_mat_trans_f32.c **** 
 262:.//Libraries/CMSIS/DSP/Source/MatrixFunctions/arm_mat_trans_f32.c ****         /* Decrement column loop counter */
 263:.//Libraries/CMSIS/DSP/Source/MatrixFunctions/arm_mat_trans_f32.c ****         col--;
  90              		.loc 1 263 9 is_stmt 1 view .LVU25
 254:.//Libraries/CMSIS/DSP/Source/MatrixFunctions/arm_mat_trans_f32.c ****       {
  91              		.loc 1 254 13 view .LVU26
  92 002a F9D1     		bne	.L3
  93 002c 7644     		add	r6, r6, lr
  94              	.LVL8:
  95              	.L2:
 264:.//Libraries/CMSIS/DSP/Source/MatrixFunctions/arm_mat_trans_f32.c ****       }
 265:.//Libraries/CMSIS/DSP/Source/MatrixFunctions/arm_mat_trans_f32.c **** 
 266:.//Libraries/CMSIS/DSP/Source/MatrixFunctions/arm_mat_trans_f32.c ****       i++;
  96              		.loc 1 266 7 view .LVU27
 267:.//Libraries/CMSIS/DSP/Source/MatrixFunctions/arm_mat_trans_f32.c **** 
 268:.//Libraries/CMSIS/DSP/Source/MatrixFunctions/arm_mat_trans_f32.c ****       /* Decrement row loop counter */
 269:.//Libraries/CMSIS/DSP/Source/MatrixFunctions/arm_mat_trans_f32.c ****       row--;
  97              		.loc 1 269 7 view .LVU28
 270:.//Libraries/CMSIS/DSP/Source/MatrixFunctions/arm_mat_trans_f32.c **** 
 271:.//Libraries/CMSIS/DSP/Source/MatrixFunctions/arm_mat_trans_f32.c ****     } while (row > 0U);          /* row loop end */
  98              		.loc 1 271 13 view .LVU29
  99 002e 0435     		adds	r5, r5, #4
 100              		.loc 1 271 5 is_stmt 0 view .LVU30
 101 0030 6545     		cmp	r5, ip
 102 0032 F1D1     		bne	.L4
 272:.//Libraries/CMSIS/DSP/Source/MatrixFunctions/arm_mat_trans_f32.c **** 
 273:.//Libraries/CMSIS/DSP/Source/MatrixFunctions/arm_mat_trans_f32.c ****     /* Set status as ARM_MATH_SUCCESS */
 274:.//Libraries/CMSIS/DSP/Source/MatrixFunctions/arm_mat_trans_f32.c ****     status = ARM_MATH_SUCCESS;
 103              		.loc 1 274 5 is_stmt 1 view .LVU31
 104              	.LVL9:
 275:.//Libraries/CMSIS/DSP/Source/MatrixFunctions/arm_mat_trans_f32.c ****   }
 276:.//Libraries/CMSIS/DSP/Source/MatrixFunctions/arm_mat_trans_f32.c **** 
ARM GAS  /var/folders/wl/rshn8xbx1dsfj1zgryf4g1240000gn/T//ccv2Jbhb.s 			page 8


 277:.//Libraries/CMSIS/DSP/Source/MatrixFunctions/arm_mat_trans_f32.c ****   /* Return to application */
 278:.//Libraries/CMSIS/DSP/Source/MatrixFunctions/arm_mat_trans_f32.c ****   return (status);
 105              		.loc 1 278 3 view .LVU32
 279:.//Libraries/CMSIS/DSP/Source/MatrixFunctions/arm_mat_trans_f32.c **** }
 106              		.loc 1 279 1 is_stmt 0 view .LVU33
 107 0034 0020     		movs	r0, #0
 108 0036 F0BD     		pop	{r4, r5, r6, r7, pc}
 109              		.cfi_endproc
 110              	.LFE145:
 112              		.text
 113              	.Letext0:
 114              		.file 2 "/opt/homebrew/Cellar/arm-none-eabi-gcc/9-2019-q4-major/gcc/arm-none-eabi/include/machine/
 115              		.file 3 "/opt/homebrew/Cellar/arm-none-eabi-gcc/9-2019-q4-major/gcc/arm-none-eabi/include/sys/_std
 116              		.file 4 "/opt/homebrew/Cellar/arm-none-eabi-gcc/9-2019-q4-major/gcc/arm-none-eabi/include/sys/lock
 117              		.file 5 "/opt/homebrew/Cellar/arm-none-eabi-gcc/9-2019-q4-major/gcc/arm-none-eabi/include/sys/_typ
 118              		.file 6 "/opt/homebrew/Cellar/arm-none-eabi-gcc/9-2019-q4-major/gcc/lib/gcc/arm-none-eabi/9.2.1/in
 119              		.file 7 "/opt/homebrew/Cellar/arm-none-eabi-gcc/9-2019-q4-major/gcc/arm-none-eabi/include/sys/reen
 120              		.file 8 "/opt/homebrew/Cellar/arm-none-eabi-gcc/9-2019-q4-major/gcc/arm-none-eabi/include/math.h"
 121              		.file 9 ".//Libraries/CMSIS/DSP/Include/arm_math.h"
ARM GAS  /var/folders/wl/rshn8xbx1dsfj1zgryf4g1240000gn/T//ccv2Jbhb.s 			page 9

