ARM GAS  /var/folders/wl/rshn8xbx1dsfj1zgryf4g1240000gn/T//ccj664yT.s 			page 1


   1              		.cpu cortex-m7
   2              		.eabi_attribute 28, 1
   3              		.eabi_attribute 20, 1
   4              		.eabi_attribute 21, 1
   5              		.eabi_attribute 23, 3
   6              		.eabi_attribute 24, 1
   7              		.eabi_attribute 25, 1
   8              		.eabi_attribute 26, 1
   9              		.eabi_attribute 30, 2
  10              		.eabi_attribute 34, 1
  11              		.eabi_attribute 18, 4
  12              		.file	"arm_var_q31.c"
  13              		.text
  14              	.Ltext0:
  15              		.cfi_sections	.debug_frame
  16              		.global	__aeabi_ldivmod
  17              		.global	__aeabi_uldivmod
  18              		.section	.text.arm_var_q31,"ax",%progbits
  19              		.align	1
  20              		.p2align 2,,3
  21              		.global	arm_var_q31
  22              		.arch armv7e-m
  23              		.syntax unified
  24              		.thumb
  25              		.thumb_func
  26              		.fpu fpv5-d16
  28              	arm_var_q31:
  29              	.LVL0:
  30              	.LFB145:
  31              		.file 1 ".//Libraries/CMSIS/DSP/Source/StatisticsFunctions/arm_var_q31.c"
   1:.//Libraries/CMSIS/DSP/Source/StatisticsFunctions/arm_var_q31.c **** /* ----------------------------------------------------------------------
   2:.//Libraries/CMSIS/DSP/Source/StatisticsFunctions/arm_var_q31.c ****  * Project:      CMSIS DSP Library
   3:.//Libraries/CMSIS/DSP/Source/StatisticsFunctions/arm_var_q31.c ****  * Title:        arm_var_q31.c
   4:.//Libraries/CMSIS/DSP/Source/StatisticsFunctions/arm_var_q31.c ****  * Description:  Variance of an array of Q31 type
   5:.//Libraries/CMSIS/DSP/Source/StatisticsFunctions/arm_var_q31.c ****  *
   6:.//Libraries/CMSIS/DSP/Source/StatisticsFunctions/arm_var_q31.c ****  * $Date:        18. March 2019
   7:.//Libraries/CMSIS/DSP/Source/StatisticsFunctions/arm_var_q31.c ****  * $Revision:    V1.6.0
   8:.//Libraries/CMSIS/DSP/Source/StatisticsFunctions/arm_var_q31.c ****  *
   9:.//Libraries/CMSIS/DSP/Source/StatisticsFunctions/arm_var_q31.c ****  * Target Processor: Cortex-M cores
  10:.//Libraries/CMSIS/DSP/Source/StatisticsFunctions/arm_var_q31.c ****  * -------------------------------------------------------------------- */
  11:.//Libraries/CMSIS/DSP/Source/StatisticsFunctions/arm_var_q31.c **** /*
  12:.//Libraries/CMSIS/DSP/Source/StatisticsFunctions/arm_var_q31.c ****  * Copyright (C) 2010-2019 ARM Limited or its affiliates. All rights reserved.
  13:.//Libraries/CMSIS/DSP/Source/StatisticsFunctions/arm_var_q31.c ****  *
  14:.//Libraries/CMSIS/DSP/Source/StatisticsFunctions/arm_var_q31.c ****  * SPDX-License-Identifier: Apache-2.0
  15:.//Libraries/CMSIS/DSP/Source/StatisticsFunctions/arm_var_q31.c ****  *
  16:.//Libraries/CMSIS/DSP/Source/StatisticsFunctions/arm_var_q31.c ****  * Licensed under the Apache License, Version 2.0 (the License); you may
  17:.//Libraries/CMSIS/DSP/Source/StatisticsFunctions/arm_var_q31.c ****  * not use this file except in compliance with the License.
  18:.//Libraries/CMSIS/DSP/Source/StatisticsFunctions/arm_var_q31.c ****  * You may obtain a copy of the License at
  19:.//Libraries/CMSIS/DSP/Source/StatisticsFunctions/arm_var_q31.c ****  *
  20:.//Libraries/CMSIS/DSP/Source/StatisticsFunctions/arm_var_q31.c ****  * www.apache.org/licenses/LICENSE-2.0
  21:.//Libraries/CMSIS/DSP/Source/StatisticsFunctions/arm_var_q31.c ****  *
  22:.//Libraries/CMSIS/DSP/Source/StatisticsFunctions/arm_var_q31.c ****  * Unless required by applicable law or agreed to in writing, software
  23:.//Libraries/CMSIS/DSP/Source/StatisticsFunctions/arm_var_q31.c ****  * distributed under the License is distributed on an AS IS BASIS, WITHOUT
  24:.//Libraries/CMSIS/DSP/Source/StatisticsFunctions/arm_var_q31.c ****  * WARRANTIES OR CONDITIONS OF ANY KIND, either express or implied.
  25:.//Libraries/CMSIS/DSP/Source/StatisticsFunctions/arm_var_q31.c ****  * See the License for the specific language governing permissions and
  26:.//Libraries/CMSIS/DSP/Source/StatisticsFunctions/arm_var_q31.c ****  * limitations under the License.
  27:.//Libraries/CMSIS/DSP/Source/StatisticsFunctions/arm_var_q31.c ****  */
ARM GAS  /var/folders/wl/rshn8xbx1dsfj1zgryf4g1240000gn/T//ccj664yT.s 			page 2


  28:.//Libraries/CMSIS/DSP/Source/StatisticsFunctions/arm_var_q31.c **** 
  29:.//Libraries/CMSIS/DSP/Source/StatisticsFunctions/arm_var_q31.c **** #include "arm_math.h"
  30:.//Libraries/CMSIS/DSP/Source/StatisticsFunctions/arm_var_q31.c **** 
  31:.//Libraries/CMSIS/DSP/Source/StatisticsFunctions/arm_var_q31.c **** /**
  32:.//Libraries/CMSIS/DSP/Source/StatisticsFunctions/arm_var_q31.c ****   @ingroup groupStats
  33:.//Libraries/CMSIS/DSP/Source/StatisticsFunctions/arm_var_q31.c ****  */
  34:.//Libraries/CMSIS/DSP/Source/StatisticsFunctions/arm_var_q31.c **** 
  35:.//Libraries/CMSIS/DSP/Source/StatisticsFunctions/arm_var_q31.c **** /**
  36:.//Libraries/CMSIS/DSP/Source/StatisticsFunctions/arm_var_q31.c ****   @addtogroup variance
  37:.//Libraries/CMSIS/DSP/Source/StatisticsFunctions/arm_var_q31.c ****   @{
  38:.//Libraries/CMSIS/DSP/Source/StatisticsFunctions/arm_var_q31.c ****  */
  39:.//Libraries/CMSIS/DSP/Source/StatisticsFunctions/arm_var_q31.c **** 
  40:.//Libraries/CMSIS/DSP/Source/StatisticsFunctions/arm_var_q31.c **** /**
  41:.//Libraries/CMSIS/DSP/Source/StatisticsFunctions/arm_var_q31.c ****   @brief         Variance of the elements of a Q31 vector.
  42:.//Libraries/CMSIS/DSP/Source/StatisticsFunctions/arm_var_q31.c ****   @param[in]     pSrc       points to the input vector
  43:.//Libraries/CMSIS/DSP/Source/StatisticsFunctions/arm_var_q31.c ****   @param[in]     blockSize  number of samples in input vector
  44:.//Libraries/CMSIS/DSP/Source/StatisticsFunctions/arm_var_q31.c ****   @param[out]    pResult    variance value returned here
  45:.//Libraries/CMSIS/DSP/Source/StatisticsFunctions/arm_var_q31.c ****   @return        none
  46:.//Libraries/CMSIS/DSP/Source/StatisticsFunctions/arm_var_q31.c **** 
  47:.//Libraries/CMSIS/DSP/Source/StatisticsFunctions/arm_var_q31.c ****   @par           Scaling and Overflow Behavior
  48:.//Libraries/CMSIS/DSP/Source/StatisticsFunctions/arm_var_q31.c ****                    The function is implemented using an internal 64-bit accumulator.
  49:.//Libraries/CMSIS/DSP/Source/StatisticsFunctions/arm_var_q31.c ****                    The input is represented in 1.31 format, which is then downshifted by 8 bits
  50:.//Libraries/CMSIS/DSP/Source/StatisticsFunctions/arm_var_q31.c ****                    which yields 1.23, and intermediate multiplication yields a 2.46 format.
  51:.//Libraries/CMSIS/DSP/Source/StatisticsFunctions/arm_var_q31.c ****                    The accumulator maintains full precision of the intermediate multiplication resu
  52:.//Libraries/CMSIS/DSP/Source/StatisticsFunctions/arm_var_q31.c ****                    but provides only a 16 guard bits.
  53:.//Libraries/CMSIS/DSP/Source/StatisticsFunctions/arm_var_q31.c ****                    There is no saturation on intermediate additions.
  54:.//Libraries/CMSIS/DSP/Source/StatisticsFunctions/arm_var_q31.c ****                    If the accumulator overflows it wraps around and distorts the result.
  55:.//Libraries/CMSIS/DSP/Source/StatisticsFunctions/arm_var_q31.c ****                    In order to avoid overflows completely the input signal must be scaled down by
  56:.//Libraries/CMSIS/DSP/Source/StatisticsFunctions/arm_var_q31.c ****                    log2(blockSize)-8 bits, as a total of blockSize additions are performed internal
  57:.//Libraries/CMSIS/DSP/Source/StatisticsFunctions/arm_var_q31.c ****                    After division, internal variables should be Q18.46
  58:.//Libraries/CMSIS/DSP/Source/StatisticsFunctions/arm_var_q31.c ****                    Finally, the 18.46 accumulator is right shifted by 15 bits to yield a 1.31 forma
  59:.//Libraries/CMSIS/DSP/Source/StatisticsFunctions/arm_var_q31.c ****  */
  60:.//Libraries/CMSIS/DSP/Source/StatisticsFunctions/arm_var_q31.c **** 
  61:.//Libraries/CMSIS/DSP/Source/StatisticsFunctions/arm_var_q31.c **** void arm_var_q31(
  62:.//Libraries/CMSIS/DSP/Source/StatisticsFunctions/arm_var_q31.c ****   const q31_t * pSrc,
  63:.//Libraries/CMSIS/DSP/Source/StatisticsFunctions/arm_var_q31.c ****         uint32_t blockSize,
  64:.//Libraries/CMSIS/DSP/Source/StatisticsFunctions/arm_var_q31.c ****         q31_t * pResult)
  65:.//Libraries/CMSIS/DSP/Source/StatisticsFunctions/arm_var_q31.c **** {
  32              		.loc 1 65 1 view -0
  33              		.cfi_startproc
  34              		@ args = 0, pretend = 0, frame = 0
  35              		@ frame_needed = 0, uses_anonymous_args = 0
  66:.//Libraries/CMSIS/DSP/Source/StatisticsFunctions/arm_var_q31.c ****         uint32_t blkCnt;                               /* Loop counter */
  36              		.loc 1 66 9 view .LVU1
  67:.//Libraries/CMSIS/DSP/Source/StatisticsFunctions/arm_var_q31.c ****         q63_t sum = 0;                                 /* Temporary result storage */
  37              		.loc 1 67 9 view .LVU2
  68:.//Libraries/CMSIS/DSP/Source/StatisticsFunctions/arm_var_q31.c ****         q63_t meanOfSquares, squareOfMean;             /* Square of mean and mean of square */
  38              		.loc 1 68 9 view .LVU3
  69:.//Libraries/CMSIS/DSP/Source/StatisticsFunctions/arm_var_q31.c ****         q63_t sumOfSquares = 0;                        /* Sum of squares */
  39              		.loc 1 69 9 view .LVU4
  70:.//Libraries/CMSIS/DSP/Source/StatisticsFunctions/arm_var_q31.c ****         q31_t in;                                      /* Temporary variable to store input value *
  40              		.loc 1 70 9 view .LVU5
  71:.//Libraries/CMSIS/DSP/Source/StatisticsFunctions/arm_var_q31.c **** 
  72:.//Libraries/CMSIS/DSP/Source/StatisticsFunctions/arm_var_q31.c ****   if (blockSize <= 1U)
  41              		.loc 1 72 3 view .LVU6
  42              		.loc 1 72 6 is_stmt 0 view .LVU7
  43 0000 0129     		cmp	r1, #1
ARM GAS  /var/folders/wl/rshn8xbx1dsfj1zgryf4g1240000gn/T//ccj664yT.s 			page 3


  65:.//Libraries/CMSIS/DSP/Source/StatisticsFunctions/arm_var_q31.c ****         uint32_t blkCnt;                               /* Loop counter */
  44              		.loc 1 65 1 view .LVU8
  45 0002 2DE9F84F 		push	{r3, r4, r5, r6, r7, r8, r9, r10, fp, lr}
  46              	.LCFI0:
  47              		.cfi_def_cfa_offset 40
  48              		.cfi_offset 3, -40
  49              		.cfi_offset 4, -36
  50              		.cfi_offset 5, -32
  51              		.cfi_offset 6, -28
  52              		.cfi_offset 7, -24
  53              		.cfi_offset 8, -20
  54              		.cfi_offset 9, -16
  55              		.cfi_offset 10, -12
  56              		.cfi_offset 11, -8
  57              		.cfi_offset 14, -4
  65:.//Libraries/CMSIS/DSP/Source/StatisticsFunctions/arm_var_q31.c ****         uint32_t blkCnt;                               /* Loop counter */
  58              		.loc 1 65 1 view .LVU9
  59 0006 9246     		mov	r10, r2
  60              		.loc 1 72 6 view .LVU10
  61 0008 33D9     		bls	.L8
  69:.//Libraries/CMSIS/DSP/Source/StatisticsFunctions/arm_var_q31.c ****         q31_t in;                                      /* Temporary variable to store input value *
  62              		.loc 1 69 15 view .LVU11
  63 000a 4FF00008 		mov	r8, #0
  64 000e 4FF00009 		mov	r9, #0
  65 0012 0D46     		mov	r5, r1
  66 0014 8B46     		mov	fp, r1
  67:.//Libraries/CMSIS/DSP/Source/StatisticsFunctions/arm_var_q31.c ****         q63_t meanOfSquares, squareOfMean;             /* Square of mean and mean of square */
  67              		.loc 1 67 15 view .LVU12
  68 0016 4646     		mov	r6, r8
  69 0018 4F46     		mov	r7, r9
  70              	.LVL1:
  71              	.L2:
  73:.//Libraries/CMSIS/DSP/Source/StatisticsFunctions/arm_var_q31.c ****   {
  74:.//Libraries/CMSIS/DSP/Source/StatisticsFunctions/arm_var_q31.c ****     *pResult = 0;
  75:.//Libraries/CMSIS/DSP/Source/StatisticsFunctions/arm_var_q31.c ****     return;
  76:.//Libraries/CMSIS/DSP/Source/StatisticsFunctions/arm_var_q31.c ****   }
  77:.//Libraries/CMSIS/DSP/Source/StatisticsFunctions/arm_var_q31.c **** 
  78:.//Libraries/CMSIS/DSP/Source/StatisticsFunctions/arm_var_q31.c **** #if defined (ARM_MATH_LOOPUNROLL)
  79:.//Libraries/CMSIS/DSP/Source/StatisticsFunctions/arm_var_q31.c **** 
  80:.//Libraries/CMSIS/DSP/Source/StatisticsFunctions/arm_var_q31.c ****   /* Loop unrolling: Compute 4 outputs at a time */
  81:.//Libraries/CMSIS/DSP/Source/StatisticsFunctions/arm_var_q31.c ****   blkCnt = blockSize >> 2U;
  82:.//Libraries/CMSIS/DSP/Source/StatisticsFunctions/arm_var_q31.c **** 
  83:.//Libraries/CMSIS/DSP/Source/StatisticsFunctions/arm_var_q31.c ****   while (blkCnt > 0U)
  84:.//Libraries/CMSIS/DSP/Source/StatisticsFunctions/arm_var_q31.c ****   {
  85:.//Libraries/CMSIS/DSP/Source/StatisticsFunctions/arm_var_q31.c ****     /* C = A[0] * A[0] + A[1] * A[1] + ... + A[blockSize-1] * A[blockSize-1] */
  86:.//Libraries/CMSIS/DSP/Source/StatisticsFunctions/arm_var_q31.c ****     /* C = A[0] + A[1] + ... + A[blockSize-1] */
  87:.//Libraries/CMSIS/DSP/Source/StatisticsFunctions/arm_var_q31.c **** 
  88:.//Libraries/CMSIS/DSP/Source/StatisticsFunctions/arm_var_q31.c ****     in = *pSrc++ >> 8U;
  89:.//Libraries/CMSIS/DSP/Source/StatisticsFunctions/arm_var_q31.c ****     /* Compute sum of squares and store result in a temporary variable, sumOfSquares. */
  90:.//Libraries/CMSIS/DSP/Source/StatisticsFunctions/arm_var_q31.c ****     sumOfSquares += ((q63_t) (in) * (in));
  91:.//Libraries/CMSIS/DSP/Source/StatisticsFunctions/arm_var_q31.c ****     /* Compute sum and store result in a temporary variable, sum. */
  92:.//Libraries/CMSIS/DSP/Source/StatisticsFunctions/arm_var_q31.c ****     sum += in;
  93:.//Libraries/CMSIS/DSP/Source/StatisticsFunctions/arm_var_q31.c **** 
  94:.//Libraries/CMSIS/DSP/Source/StatisticsFunctions/arm_var_q31.c ****     in = *pSrc++ >> 8U;
  95:.//Libraries/CMSIS/DSP/Source/StatisticsFunctions/arm_var_q31.c ****     sumOfSquares += ((q63_t) (in) * (in));
  96:.//Libraries/CMSIS/DSP/Source/StatisticsFunctions/arm_var_q31.c ****     sum += in;
  97:.//Libraries/CMSIS/DSP/Source/StatisticsFunctions/arm_var_q31.c **** 
ARM GAS  /var/folders/wl/rshn8xbx1dsfj1zgryf4g1240000gn/T//ccj664yT.s 			page 4


  98:.//Libraries/CMSIS/DSP/Source/StatisticsFunctions/arm_var_q31.c ****     in = *pSrc++ >> 8U;
  99:.//Libraries/CMSIS/DSP/Source/StatisticsFunctions/arm_var_q31.c ****     sumOfSquares += ((q63_t) (in) * (in));
 100:.//Libraries/CMSIS/DSP/Source/StatisticsFunctions/arm_var_q31.c ****     sum += in;
 101:.//Libraries/CMSIS/DSP/Source/StatisticsFunctions/arm_var_q31.c **** 
 102:.//Libraries/CMSIS/DSP/Source/StatisticsFunctions/arm_var_q31.c ****     in = *pSrc++ >> 8U;
 103:.//Libraries/CMSIS/DSP/Source/StatisticsFunctions/arm_var_q31.c ****     sumOfSquares += ((q63_t) (in) * (in));
 104:.//Libraries/CMSIS/DSP/Source/StatisticsFunctions/arm_var_q31.c ****     sum += in;
 105:.//Libraries/CMSIS/DSP/Source/StatisticsFunctions/arm_var_q31.c **** 
 106:.//Libraries/CMSIS/DSP/Source/StatisticsFunctions/arm_var_q31.c ****     /* Decrement loop counter */
 107:.//Libraries/CMSIS/DSP/Source/StatisticsFunctions/arm_var_q31.c ****     blkCnt--;
 108:.//Libraries/CMSIS/DSP/Source/StatisticsFunctions/arm_var_q31.c ****   }
 109:.//Libraries/CMSIS/DSP/Source/StatisticsFunctions/arm_var_q31.c **** 
 110:.//Libraries/CMSIS/DSP/Source/StatisticsFunctions/arm_var_q31.c ****   /* Loop unrolling: Compute remaining outputs */
 111:.//Libraries/CMSIS/DSP/Source/StatisticsFunctions/arm_var_q31.c ****   blkCnt = blockSize % 0x4U;
 112:.//Libraries/CMSIS/DSP/Source/StatisticsFunctions/arm_var_q31.c **** 
 113:.//Libraries/CMSIS/DSP/Source/StatisticsFunctions/arm_var_q31.c **** #else
 114:.//Libraries/CMSIS/DSP/Source/StatisticsFunctions/arm_var_q31.c **** 
 115:.//Libraries/CMSIS/DSP/Source/StatisticsFunctions/arm_var_q31.c ****   /* Initialize blkCnt with number of samples */
 116:.//Libraries/CMSIS/DSP/Source/StatisticsFunctions/arm_var_q31.c ****   blkCnt = blockSize;
 117:.//Libraries/CMSIS/DSP/Source/StatisticsFunctions/arm_var_q31.c **** 
 118:.//Libraries/CMSIS/DSP/Source/StatisticsFunctions/arm_var_q31.c **** #endif /* #if defined (ARM_MATH_LOOPUNROLL) */
 119:.//Libraries/CMSIS/DSP/Source/StatisticsFunctions/arm_var_q31.c **** 
 120:.//Libraries/CMSIS/DSP/Source/StatisticsFunctions/arm_var_q31.c ****   while (blkCnt > 0U)
 121:.//Libraries/CMSIS/DSP/Source/StatisticsFunctions/arm_var_q31.c ****   {
 122:.//Libraries/CMSIS/DSP/Source/StatisticsFunctions/arm_var_q31.c ****     /* C = A[0] * A[0] + A[1] * A[1] + ... + A[blockSize-1] * A[blockSize-1] */
 123:.//Libraries/CMSIS/DSP/Source/StatisticsFunctions/arm_var_q31.c ****     /* C = A[0] + A[1] + ... + A[blockSize-1] */
 124:.//Libraries/CMSIS/DSP/Source/StatisticsFunctions/arm_var_q31.c **** 
 125:.//Libraries/CMSIS/DSP/Source/StatisticsFunctions/arm_var_q31.c ****     in = *pSrc++ >> 8U;
  72              		.loc 1 125 5 is_stmt 1 view .LVU13
  73              		.loc 1 125 8 is_stmt 0 view .LVU14
  74 001a 50F8044B 		ldr	r4, [r0], #4
  75              	.LVL2:
  76              		.loc 1 125 8 view .LVU15
  77 001e 2412     		asrs	r4, r4, #8
  78              	.LVL3:
 126:.//Libraries/CMSIS/DSP/Source/StatisticsFunctions/arm_var_q31.c ****     /* Compute sum of squares and store result in a temporary variable, sumOfSquares. */
 127:.//Libraries/CMSIS/DSP/Source/StatisticsFunctions/arm_var_q31.c ****     sumOfSquares += ((q63_t) (in) * (in));
  79              		.loc 1 127 5 is_stmt 1 view .LVU16
 128:.//Libraries/CMSIS/DSP/Source/StatisticsFunctions/arm_var_q31.c ****     /* Compute sum and store result in a temporary variable, sum. */
 129:.//Libraries/CMSIS/DSP/Source/StatisticsFunctions/arm_var_q31.c ****     sum += in;
  80              		.loc 1 129 9 is_stmt 0 view .LVU17
  81 0020 3619     		adds	r6, r6, r4
  82              	.LVL4:
 127:.//Libraries/CMSIS/DSP/Source/StatisticsFunctions/arm_var_q31.c ****     /* Compute sum and store result in a temporary variable, sum. */
  83              		.loc 1 127 18 view .LVU18
  84 0022 C4FB0489 		smlal	r8, r9, r4, r4
  85              	.LVL5:
  86              		.loc 1 129 5 is_stmt 1 view .LVU19
  87              		.loc 1 129 9 is_stmt 0 view .LVU20
  88 0026 47EBE477 		adc	r7, r7, r4, asr #31
  89              	.LVL6:
 130:.//Libraries/CMSIS/DSP/Source/StatisticsFunctions/arm_var_q31.c **** 
 131:.//Libraries/CMSIS/DSP/Source/StatisticsFunctions/arm_var_q31.c ****     /* Decrement loop counter */
 132:.//Libraries/CMSIS/DSP/Source/StatisticsFunctions/arm_var_q31.c ****     blkCnt--;
  90              		.loc 1 132 5 is_stmt 1 view .LVU21
 120:.//Libraries/CMSIS/DSP/Source/StatisticsFunctions/arm_var_q31.c ****   {
  91              		.loc 1 120 9 view .LVU22
ARM GAS  /var/folders/wl/rshn8xbx1dsfj1zgryf4g1240000gn/T//ccj664yT.s 			page 5


  92 002a BBF1010B 		subs	fp, fp, #1
  93              	.LVL7:
 120:.//Libraries/CMSIS/DSP/Source/StatisticsFunctions/arm_var_q31.c ****   {
  94              		.loc 1 120 9 is_stmt 0 view .LVU23
  95 002e F4D1     		bne	.L2
 133:.//Libraries/CMSIS/DSP/Source/StatisticsFunctions/arm_var_q31.c ****   }
 134:.//Libraries/CMSIS/DSP/Source/StatisticsFunctions/arm_var_q31.c **** 
 135:.//Libraries/CMSIS/DSP/Source/StatisticsFunctions/arm_var_q31.c ****   /* Compute Mean of squares and store result in a temporary variable, meanOfSquares. */
 136:.//Libraries/CMSIS/DSP/Source/StatisticsFunctions/arm_var_q31.c ****   meanOfSquares = (sumOfSquares / (q63_t)(blockSize - 1U));
  96              		.loc 1 136 3 is_stmt 1 view .LVU24
  97              		.loc 1 136 53 is_stmt 0 view .LVU25
  98 0030 6C1E     		subs	r4, r5, #1
  99              	.LVL8:
 137:.//Libraries/CMSIS/DSP/Source/StatisticsFunctions/arm_var_q31.c **** 
 138:.//Libraries/CMSIS/DSP/Source/StatisticsFunctions/arm_var_q31.c ****   /* Compute square of mean */
 139:.//Libraries/CMSIS/DSP/Source/StatisticsFunctions/arm_var_q31.c ****   squareOfMean = ( sum * sum / (q63_t)(blockSize * (blockSize - 1U)));
 100              		.loc 1 139 3 is_stmt 1 view .LVU26
 140:.//Libraries/CMSIS/DSP/Source/StatisticsFunctions/arm_var_q31.c **** 
 141:.//Libraries/CMSIS/DSP/Source/StatisticsFunctions/arm_var_q31.c ****   /* Compute variance and store result in destination */
 142:.//Libraries/CMSIS/DSP/Source/StatisticsFunctions/arm_var_q31.c ****   *pResult = (meanOfSquares - squareOfMean) >> 15U;
 101              		.loc 1 142 3 view .LVU27
 136:.//Libraries/CMSIS/DSP/Source/StatisticsFunctions/arm_var_q31.c **** 
 102              		.loc 1 136 17 is_stmt 0 view .LVU28
 103 0032 5B46     		mov	r3, fp
 104 0034 4046     		mov	r0, r8
 105              	.LVL9:
 136:.//Libraries/CMSIS/DSP/Source/StatisticsFunctions/arm_var_q31.c **** 
 106              		.loc 1 136 17 view .LVU29
 107 0036 4946     		mov	r1, r9
 108              	.LVL10:
 136:.//Libraries/CMSIS/DSP/Source/StatisticsFunctions/arm_var_q31.c **** 
 109              		.loc 1 136 17 view .LVU30
 110 0038 2246     		mov	r2, r4
 111              	.LVL11:
 136:.//Libraries/CMSIS/DSP/Source/StatisticsFunctions/arm_var_q31.c **** 
 112              		.loc 1 136 17 view .LVU31
 113 003a FFF7FEFF 		bl	__aeabi_ldivmod
 114              	.LVL12:
 139:.//Libraries/CMSIS/DSP/Source/StatisticsFunctions/arm_var_q31.c **** 
 115              		.loc 1 139 24 view .LVU32
 116 003e 06FB07FC 		mul	ip, r6, r7
 117 0042 A6FB0667 		umull	r6, r7, r6, r6
 118              	.LVL13:
 139:.//Libraries/CMSIS/DSP/Source/StatisticsFunctions/arm_var_q31.c **** 
 119              		.loc 1 139 16 view .LVU33
 120 0046 5B46     		mov	r3, fp
 121 0048 05FB04F2 		mul	r2, r5, r4
 136:.//Libraries/CMSIS/DSP/Source/StatisticsFunctions/arm_var_q31.c **** 
 122              		.loc 1 136 17 view .LVU34
 123 004c 0446     		mov	r4, r0
 124              	.LVL14:
 139:.//Libraries/CMSIS/DSP/Source/StatisticsFunctions/arm_var_q31.c **** 
 125              		.loc 1 139 24 view .LVU35
 126 004e 07EB4C07 		add	r7, r7, ip, lsl #1
 136:.//Libraries/CMSIS/DSP/Source/StatisticsFunctions/arm_var_q31.c **** 
 127              		.loc 1 136 17 view .LVU36
 128 0052 0D46     		mov	r5, r1
ARM GAS  /var/folders/wl/rshn8xbx1dsfj1zgryf4g1240000gn/T//ccj664yT.s 			page 6


 129              	.LVL15:
 139:.//Libraries/CMSIS/DSP/Source/StatisticsFunctions/arm_var_q31.c **** 
 130              		.loc 1 139 16 view .LVU37
 131 0054 3046     		mov	r0, r6
 132 0056 3946     		mov	r1, r7
 133 0058 FFF7FEFF 		bl	__aeabi_ldivmod
 134              	.LVL16:
 135              		.loc 1 142 29 view .LVU38
 136 005c 201A     		subs	r0, r4, r0
 137              		.loc 1 142 45 view .LVU39
 138 005e 4FEAD030 		lsr	r0, r0, #15
 139              		.loc 1 142 29 view .LVU40
 140 0062 65EB0101 		sbc	r1, r5, r1
 141              		.loc 1 142 45 view .LVU41
 142 0066 40EA4140 		orr	r0, r0, r1, lsl #17
 143              		.loc 1 142 12 view .LVU42
 144 006a CAF80000 		str	r0, [r10]
 143:.//Libraries/CMSIS/DSP/Source/StatisticsFunctions/arm_var_q31.c **** }
 145              		.loc 1 143 1 view .LVU43
 146 006e BDE8F88F 		pop	{r3, r4, r5, r6, r7, r8, r9, r10, fp, pc}
 147              	.LVL17:
 148              	.L8:
  74:.//Libraries/CMSIS/DSP/Source/StatisticsFunctions/arm_var_q31.c ****     return;
 149              		.loc 1 74 5 is_stmt 1 view .LVU44
  74:.//Libraries/CMSIS/DSP/Source/StatisticsFunctions/arm_var_q31.c ****     return;
 150              		.loc 1 74 14 is_stmt 0 view .LVU45
 151 0072 0023     		movs	r3, #0
 152 0074 1360     		str	r3, [r2]
  75:.//Libraries/CMSIS/DSP/Source/StatisticsFunctions/arm_var_q31.c ****   }
 153              		.loc 1 75 5 is_stmt 1 view .LVU46
 154              		.loc 1 143 1 is_stmt 0 view .LVU47
 155 0076 BDE8F88F 		pop	{r3, r4, r5, r6, r7, r8, r9, r10, fp, pc}
 156              		.cfi_endproc
 157              	.LFE145:
 159 007a 00BF     		.text
 160              	.Letext0:
 161              		.file 2 "/opt/homebrew/Cellar/arm-none-eabi-gcc/9-2019-q4-major/gcc/arm-none-eabi/include/machine/
 162              		.file 3 "/opt/homebrew/Cellar/arm-none-eabi-gcc/9-2019-q4-major/gcc/arm-none-eabi/include/sys/_std
 163              		.file 4 "/opt/homebrew/Cellar/arm-none-eabi-gcc/9-2019-q4-major/gcc/arm-none-eabi/include/sys/lock
 164              		.file 5 "/opt/homebrew/Cellar/arm-none-eabi-gcc/9-2019-q4-major/gcc/arm-none-eabi/include/sys/_typ
 165              		.file 6 "/opt/homebrew/Cellar/arm-none-eabi-gcc/9-2019-q4-major/gcc/lib/gcc/arm-none-eabi/9.2.1/in
 166              		.file 7 "/opt/homebrew/Cellar/arm-none-eabi-gcc/9-2019-q4-major/gcc/arm-none-eabi/include/sys/reen
 167              		.file 8 "/opt/homebrew/Cellar/arm-none-eabi-gcc/9-2019-q4-major/gcc/arm-none-eabi/include/math.h"
 168              		.file 9 ".//Libraries/CMSIS/DSP/Include/arm_math.h"
ARM GAS  /var/folders/wl/rshn8xbx1dsfj1zgryf4g1240000gn/T//ccj664yT.s 			page 7

