ARM GAS  /var/folders/wl/rshn8xbx1dsfj1zgryf4g1240000gn/T//ccLYU4tQ.s 			page 1


   1              		.cpu cortex-m7
   2              		.eabi_attribute 28, 1
   3              		.eabi_attribute 20, 1
   4              		.eabi_attribute 21, 1
   5              		.eabi_attribute 23, 3
   6              		.eabi_attribute 24, 1
   7              		.eabi_attribute 25, 1
   8              		.eabi_attribute 26, 1
   9              		.eabi_attribute 30, 2
  10              		.eabi_attribute 34, 1
  11              		.eabi_attribute 18, 4
  12              		.file	"arm_scale_q15.c"
  13              		.text
  14              	.Ltext0:
  15              		.cfi_sections	.debug_frame
  16              		.section	.text.arm_scale_q15,"ax",%progbits
  17              		.align	1
  18              		.p2align 2,,3
  19              		.global	arm_scale_q15
  20              		.arch armv7e-m
  21              		.syntax unified
  22              		.thumb
  23              		.thumb_func
  24              		.fpu fpv5-d16
  26              	arm_scale_q15:
  27              	.LVL0:
  28              	.LFB145:
  29              		.file 1 ".//Libraries/CMSIS/DSP/Source/BasicMathFunctions/arm_scale_q15.c"
   1:.//Libraries/CMSIS/DSP/Source/BasicMathFunctions/arm_scale_q15.c **** /* ----------------------------------------------------------------------
   2:.//Libraries/CMSIS/DSP/Source/BasicMathFunctions/arm_scale_q15.c ****  * Project:      CMSIS DSP Library
   3:.//Libraries/CMSIS/DSP/Source/BasicMathFunctions/arm_scale_q15.c ****  * Title:        arm_scale_q15.c
   4:.//Libraries/CMSIS/DSP/Source/BasicMathFunctions/arm_scale_q15.c ****  * Description:  Multiplies a Q15 vector by a scalar
   5:.//Libraries/CMSIS/DSP/Source/BasicMathFunctions/arm_scale_q15.c ****  *
   6:.//Libraries/CMSIS/DSP/Source/BasicMathFunctions/arm_scale_q15.c ****  * $Date:        18. March 2019
   7:.//Libraries/CMSIS/DSP/Source/BasicMathFunctions/arm_scale_q15.c ****  * $Revision:    V1.6.0
   8:.//Libraries/CMSIS/DSP/Source/BasicMathFunctions/arm_scale_q15.c ****  *
   9:.//Libraries/CMSIS/DSP/Source/BasicMathFunctions/arm_scale_q15.c ****  * Target Processor: Cortex-M cores
  10:.//Libraries/CMSIS/DSP/Source/BasicMathFunctions/arm_scale_q15.c ****  * -------------------------------------------------------------------- */
  11:.//Libraries/CMSIS/DSP/Source/BasicMathFunctions/arm_scale_q15.c **** /*
  12:.//Libraries/CMSIS/DSP/Source/BasicMathFunctions/arm_scale_q15.c ****  * Copyright (C) 2010-2019 ARM Limited or its affiliates. All rights reserved.
  13:.//Libraries/CMSIS/DSP/Source/BasicMathFunctions/arm_scale_q15.c ****  *
  14:.//Libraries/CMSIS/DSP/Source/BasicMathFunctions/arm_scale_q15.c ****  * SPDX-License-Identifier: Apache-2.0
  15:.//Libraries/CMSIS/DSP/Source/BasicMathFunctions/arm_scale_q15.c ****  *
  16:.//Libraries/CMSIS/DSP/Source/BasicMathFunctions/arm_scale_q15.c ****  * Licensed under the Apache License, Version 2.0 (the License); you may
  17:.//Libraries/CMSIS/DSP/Source/BasicMathFunctions/arm_scale_q15.c ****  * not use this file except in compliance with the License.
  18:.//Libraries/CMSIS/DSP/Source/BasicMathFunctions/arm_scale_q15.c ****  * You may obtain a copy of the License at
  19:.//Libraries/CMSIS/DSP/Source/BasicMathFunctions/arm_scale_q15.c ****  *
  20:.//Libraries/CMSIS/DSP/Source/BasicMathFunctions/arm_scale_q15.c ****  * www.apache.org/licenses/LICENSE-2.0
  21:.//Libraries/CMSIS/DSP/Source/BasicMathFunctions/arm_scale_q15.c ****  *
  22:.//Libraries/CMSIS/DSP/Source/BasicMathFunctions/arm_scale_q15.c ****  * Unless required by applicable law or agreed to in writing, software
  23:.//Libraries/CMSIS/DSP/Source/BasicMathFunctions/arm_scale_q15.c ****  * distributed under the License is distributed on an AS IS BASIS, WITHOUT
  24:.//Libraries/CMSIS/DSP/Source/BasicMathFunctions/arm_scale_q15.c ****  * WARRANTIES OR CONDITIONS OF ANY KIND, either express or implied.
  25:.//Libraries/CMSIS/DSP/Source/BasicMathFunctions/arm_scale_q15.c ****  * See the License for the specific language governing permissions and
  26:.//Libraries/CMSIS/DSP/Source/BasicMathFunctions/arm_scale_q15.c ****  * limitations under the License.
  27:.//Libraries/CMSIS/DSP/Source/BasicMathFunctions/arm_scale_q15.c ****  */
  28:.//Libraries/CMSIS/DSP/Source/BasicMathFunctions/arm_scale_q15.c **** 
  29:.//Libraries/CMSIS/DSP/Source/BasicMathFunctions/arm_scale_q15.c **** #include "arm_math.h"
ARM GAS  /var/folders/wl/rshn8xbx1dsfj1zgryf4g1240000gn/T//ccLYU4tQ.s 			page 2


  30:.//Libraries/CMSIS/DSP/Source/BasicMathFunctions/arm_scale_q15.c **** 
  31:.//Libraries/CMSIS/DSP/Source/BasicMathFunctions/arm_scale_q15.c **** /**
  32:.//Libraries/CMSIS/DSP/Source/BasicMathFunctions/arm_scale_q15.c ****   @ingroup groupMath
  33:.//Libraries/CMSIS/DSP/Source/BasicMathFunctions/arm_scale_q15.c ****  */
  34:.//Libraries/CMSIS/DSP/Source/BasicMathFunctions/arm_scale_q15.c **** 
  35:.//Libraries/CMSIS/DSP/Source/BasicMathFunctions/arm_scale_q15.c **** /**
  36:.//Libraries/CMSIS/DSP/Source/BasicMathFunctions/arm_scale_q15.c ****   @addtogroup BasicScale
  37:.//Libraries/CMSIS/DSP/Source/BasicMathFunctions/arm_scale_q15.c ****   @{
  38:.//Libraries/CMSIS/DSP/Source/BasicMathFunctions/arm_scale_q15.c ****  */
  39:.//Libraries/CMSIS/DSP/Source/BasicMathFunctions/arm_scale_q15.c **** 
  40:.//Libraries/CMSIS/DSP/Source/BasicMathFunctions/arm_scale_q15.c **** /**
  41:.//Libraries/CMSIS/DSP/Source/BasicMathFunctions/arm_scale_q15.c ****   @brief         Multiplies a Q15 vector by a scalar.
  42:.//Libraries/CMSIS/DSP/Source/BasicMathFunctions/arm_scale_q15.c ****   @param[in]     pSrc       points to the input vector
  43:.//Libraries/CMSIS/DSP/Source/BasicMathFunctions/arm_scale_q15.c ****   @param[in]     scaleFract fractional portion of the scale value
  44:.//Libraries/CMSIS/DSP/Source/BasicMathFunctions/arm_scale_q15.c ****   @param[in]     shift      number of bits to shift the result by
  45:.//Libraries/CMSIS/DSP/Source/BasicMathFunctions/arm_scale_q15.c ****   @param[out]    pDst       points to the output vector
  46:.//Libraries/CMSIS/DSP/Source/BasicMathFunctions/arm_scale_q15.c ****   @param[in]     blockSize  number of samples in each vector
  47:.//Libraries/CMSIS/DSP/Source/BasicMathFunctions/arm_scale_q15.c ****   @return        none
  48:.//Libraries/CMSIS/DSP/Source/BasicMathFunctions/arm_scale_q15.c **** 
  49:.//Libraries/CMSIS/DSP/Source/BasicMathFunctions/arm_scale_q15.c ****   @par           Scaling and Overflow Behavior
  50:.//Libraries/CMSIS/DSP/Source/BasicMathFunctions/arm_scale_q15.c ****                    The input data <code>*pSrc</code> and <code>scaleFract</code> are in 1.15 format
  51:.//Libraries/CMSIS/DSP/Source/BasicMathFunctions/arm_scale_q15.c ****                    These are multiplied to yield a 2.30 intermediate result and this is shifted wit
  52:.//Libraries/CMSIS/DSP/Source/BasicMathFunctions/arm_scale_q15.c ****  */
  53:.//Libraries/CMSIS/DSP/Source/BasicMathFunctions/arm_scale_q15.c **** 
  54:.//Libraries/CMSIS/DSP/Source/BasicMathFunctions/arm_scale_q15.c **** void arm_scale_q15(
  55:.//Libraries/CMSIS/DSP/Source/BasicMathFunctions/arm_scale_q15.c ****   const q15_t *pSrc,
  56:.//Libraries/CMSIS/DSP/Source/BasicMathFunctions/arm_scale_q15.c ****         q15_t scaleFract,
  57:.//Libraries/CMSIS/DSP/Source/BasicMathFunctions/arm_scale_q15.c ****         int8_t shift,
  58:.//Libraries/CMSIS/DSP/Source/BasicMathFunctions/arm_scale_q15.c ****         q15_t *pDst,
  59:.//Libraries/CMSIS/DSP/Source/BasicMathFunctions/arm_scale_q15.c ****         uint32_t blockSize)
  60:.//Libraries/CMSIS/DSP/Source/BasicMathFunctions/arm_scale_q15.c **** {
  30              		.loc 1 60 1 view -0
  31              		.cfi_startproc
  32              		@ args = 4, pretend = 0, frame = 0
  33              		@ frame_needed = 0, uses_anonymous_args = 0
  34              		@ link register save eliminated.
  61:.//Libraries/CMSIS/DSP/Source/BasicMathFunctions/arm_scale_q15.c ****         uint32_t blkCnt;                               /* Loop counter */
  35              		.loc 1 61 9 view .LVU1
  62:.//Libraries/CMSIS/DSP/Source/BasicMathFunctions/arm_scale_q15.c ****         int8_t kShift = 15 - shift;                    /* Shift to apply after scaling */
  36              		.loc 1 62 9 view .LVU2
  60:.//Libraries/CMSIS/DSP/Source/BasicMathFunctions/arm_scale_q15.c ****         uint32_t blkCnt;                               /* Loop counter */
  37              		.loc 1 60 1 is_stmt 0 view .LVU3
  38 0000 30B4     		push	{r4, r5}
  39              	.LCFI0:
  40              		.cfi_def_cfa_offset 8
  41              		.cfi_offset 4, -8
  42              		.cfi_offset 5, -4
  60:.//Libraries/CMSIS/DSP/Source/BasicMathFunctions/arm_scale_q15.c ****         uint32_t blkCnt;                               /* Loop counter */
  43              		.loc 1 60 1 view .LVU4
  44 0002 029C     		ldr	r4, [sp, #8]
  45              	.LVL1:
  63:.//Libraries/CMSIS/DSP/Source/BasicMathFunctions/arm_scale_q15.c **** 
  64:.//Libraries/CMSIS/DSP/Source/BasicMathFunctions/arm_scale_q15.c **** #if defined (ARM_MATH_LOOPUNROLL)
  65:.//Libraries/CMSIS/DSP/Source/BasicMathFunctions/arm_scale_q15.c **** #if defined (ARM_MATH_DSP)
  66:.//Libraries/CMSIS/DSP/Source/BasicMathFunctions/arm_scale_q15.c ****   q31_t inA1, inA2;
  67:.//Libraries/CMSIS/DSP/Source/BasicMathFunctions/arm_scale_q15.c ****   q31_t out1, out2, out3, out4;                  /* Temporary output variables */
  68:.//Libraries/CMSIS/DSP/Source/BasicMathFunctions/arm_scale_q15.c ****   q15_t in1, in2, in3, in4;                      /* Temporary input variables */
ARM GAS  /var/folders/wl/rshn8xbx1dsfj1zgryf4g1240000gn/T//ccLYU4tQ.s 			page 3


  69:.//Libraries/CMSIS/DSP/Source/BasicMathFunctions/arm_scale_q15.c **** #endif
  70:.//Libraries/CMSIS/DSP/Source/BasicMathFunctions/arm_scale_q15.c **** #endif
  71:.//Libraries/CMSIS/DSP/Source/BasicMathFunctions/arm_scale_q15.c **** 
  72:.//Libraries/CMSIS/DSP/Source/BasicMathFunctions/arm_scale_q15.c **** #if defined (ARM_MATH_LOOPUNROLL)
  73:.//Libraries/CMSIS/DSP/Source/BasicMathFunctions/arm_scale_q15.c **** 
  74:.//Libraries/CMSIS/DSP/Source/BasicMathFunctions/arm_scale_q15.c ****   /* Loop unrolling: Compute 4 outputs at a time */
  75:.//Libraries/CMSIS/DSP/Source/BasicMathFunctions/arm_scale_q15.c ****   blkCnt = blockSize >> 2U;
  76:.//Libraries/CMSIS/DSP/Source/BasicMathFunctions/arm_scale_q15.c **** 
  77:.//Libraries/CMSIS/DSP/Source/BasicMathFunctions/arm_scale_q15.c ****   while (blkCnt > 0U)
  78:.//Libraries/CMSIS/DSP/Source/BasicMathFunctions/arm_scale_q15.c ****   {
  79:.//Libraries/CMSIS/DSP/Source/BasicMathFunctions/arm_scale_q15.c ****     /* C = A * scale */
  80:.//Libraries/CMSIS/DSP/Source/BasicMathFunctions/arm_scale_q15.c **** 
  81:.//Libraries/CMSIS/DSP/Source/BasicMathFunctions/arm_scale_q15.c **** #if defined (ARM_MATH_DSP)
  82:.//Libraries/CMSIS/DSP/Source/BasicMathFunctions/arm_scale_q15.c ****     /* read 2 times 2 samples at a time from source */
  83:.//Libraries/CMSIS/DSP/Source/BasicMathFunctions/arm_scale_q15.c ****     inA1 = read_q15x2_ia ((q15_t **) &pSrc);
  84:.//Libraries/CMSIS/DSP/Source/BasicMathFunctions/arm_scale_q15.c ****     inA2 = read_q15x2_ia ((q15_t **) &pSrc);
  85:.//Libraries/CMSIS/DSP/Source/BasicMathFunctions/arm_scale_q15.c **** 
  86:.//Libraries/CMSIS/DSP/Source/BasicMathFunctions/arm_scale_q15.c ****     /* Scale inputs and store result in temporary variables
  87:.//Libraries/CMSIS/DSP/Source/BasicMathFunctions/arm_scale_q15.c ****      * in single cycle by packing the outputs */
  88:.//Libraries/CMSIS/DSP/Source/BasicMathFunctions/arm_scale_q15.c ****     out1 = (q31_t) ((q15_t) (inA1 >> 16) * scaleFract);
  89:.//Libraries/CMSIS/DSP/Source/BasicMathFunctions/arm_scale_q15.c ****     out2 = (q31_t) ((q15_t) (inA1      ) * scaleFract);
  90:.//Libraries/CMSIS/DSP/Source/BasicMathFunctions/arm_scale_q15.c ****     out3 = (q31_t) ((q15_t) (inA2 >> 16) * scaleFract);
  91:.//Libraries/CMSIS/DSP/Source/BasicMathFunctions/arm_scale_q15.c ****     out4 = (q31_t) ((q15_t) (inA2      ) * scaleFract);
  92:.//Libraries/CMSIS/DSP/Source/BasicMathFunctions/arm_scale_q15.c **** 
  93:.//Libraries/CMSIS/DSP/Source/BasicMathFunctions/arm_scale_q15.c ****     /* apply shifting */
  94:.//Libraries/CMSIS/DSP/Source/BasicMathFunctions/arm_scale_q15.c ****     out1 = out1 >> kShift;
  95:.//Libraries/CMSIS/DSP/Source/BasicMathFunctions/arm_scale_q15.c ****     out2 = out2 >> kShift;
  96:.//Libraries/CMSIS/DSP/Source/BasicMathFunctions/arm_scale_q15.c ****     out3 = out3 >> kShift;
  97:.//Libraries/CMSIS/DSP/Source/BasicMathFunctions/arm_scale_q15.c ****     out4 = out4 >> kShift;
  98:.//Libraries/CMSIS/DSP/Source/BasicMathFunctions/arm_scale_q15.c **** 
  99:.//Libraries/CMSIS/DSP/Source/BasicMathFunctions/arm_scale_q15.c ****     /* saturate the output */
 100:.//Libraries/CMSIS/DSP/Source/BasicMathFunctions/arm_scale_q15.c ****     in1 = (q15_t) (__SSAT(out1, 16));
 101:.//Libraries/CMSIS/DSP/Source/BasicMathFunctions/arm_scale_q15.c ****     in2 = (q15_t) (__SSAT(out2, 16));
 102:.//Libraries/CMSIS/DSP/Source/BasicMathFunctions/arm_scale_q15.c ****     in3 = (q15_t) (__SSAT(out3, 16));
 103:.//Libraries/CMSIS/DSP/Source/BasicMathFunctions/arm_scale_q15.c ****     in4 = (q15_t) (__SSAT(out4, 16));
 104:.//Libraries/CMSIS/DSP/Source/BasicMathFunctions/arm_scale_q15.c **** 
 105:.//Libraries/CMSIS/DSP/Source/BasicMathFunctions/arm_scale_q15.c ****     /* store result to destination */
 106:.//Libraries/CMSIS/DSP/Source/BasicMathFunctions/arm_scale_q15.c ****     write_q15x2_ia (&pDst, __PKHBT(in2, in1, 16));
 107:.//Libraries/CMSIS/DSP/Source/BasicMathFunctions/arm_scale_q15.c ****     write_q15x2_ia (&pDst, __PKHBT(in4, in3, 16));
 108:.//Libraries/CMSIS/DSP/Source/BasicMathFunctions/arm_scale_q15.c **** #else
 109:.//Libraries/CMSIS/DSP/Source/BasicMathFunctions/arm_scale_q15.c ****     *pDst++ = (q15_t) (__SSAT(((q31_t) *pSrc++ * scaleFract) >> kShift, 16));
 110:.//Libraries/CMSIS/DSP/Source/BasicMathFunctions/arm_scale_q15.c ****     *pDst++ = (q15_t) (__SSAT(((q31_t) *pSrc++ * scaleFract) >> kShift, 16));
 111:.//Libraries/CMSIS/DSP/Source/BasicMathFunctions/arm_scale_q15.c ****     *pDst++ = (q15_t) (__SSAT(((q31_t) *pSrc++ * scaleFract) >> kShift, 16));
 112:.//Libraries/CMSIS/DSP/Source/BasicMathFunctions/arm_scale_q15.c ****     *pDst++ = (q15_t) (__SSAT(((q31_t) *pSrc++ * scaleFract) >> kShift, 16));
 113:.//Libraries/CMSIS/DSP/Source/BasicMathFunctions/arm_scale_q15.c **** #endif
 114:.//Libraries/CMSIS/DSP/Source/BasicMathFunctions/arm_scale_q15.c **** 
 115:.//Libraries/CMSIS/DSP/Source/BasicMathFunctions/arm_scale_q15.c ****     /* Decrement loop counter */
 116:.//Libraries/CMSIS/DSP/Source/BasicMathFunctions/arm_scale_q15.c ****     blkCnt--;
 117:.//Libraries/CMSIS/DSP/Source/BasicMathFunctions/arm_scale_q15.c ****   }
 118:.//Libraries/CMSIS/DSP/Source/BasicMathFunctions/arm_scale_q15.c **** 
 119:.//Libraries/CMSIS/DSP/Source/BasicMathFunctions/arm_scale_q15.c ****   /* Loop unrolling: Compute remaining outputs */
 120:.//Libraries/CMSIS/DSP/Source/BasicMathFunctions/arm_scale_q15.c ****   blkCnt = blockSize % 0x4U;
 121:.//Libraries/CMSIS/DSP/Source/BasicMathFunctions/arm_scale_q15.c **** 
 122:.//Libraries/CMSIS/DSP/Source/BasicMathFunctions/arm_scale_q15.c **** #else
 123:.//Libraries/CMSIS/DSP/Source/BasicMathFunctions/arm_scale_q15.c **** 
 124:.//Libraries/CMSIS/DSP/Source/BasicMathFunctions/arm_scale_q15.c ****   /* Initialize blkCnt with number of samples */
 125:.//Libraries/CMSIS/DSP/Source/BasicMathFunctions/arm_scale_q15.c ****   blkCnt = blockSize;
ARM GAS  /var/folders/wl/rshn8xbx1dsfj1zgryf4g1240000gn/T//ccLYU4tQ.s 			page 4


  46              		.loc 1 125 3 is_stmt 1 view .LVU5
 126:.//Libraries/CMSIS/DSP/Source/BasicMathFunctions/arm_scale_q15.c **** 
 127:.//Libraries/CMSIS/DSP/Source/BasicMathFunctions/arm_scale_q15.c **** #endif /* #if defined (ARM_MATH_LOOPUNROLL) */
 128:.//Libraries/CMSIS/DSP/Source/BasicMathFunctions/arm_scale_q15.c **** 
 129:.//Libraries/CMSIS/DSP/Source/BasicMathFunctions/arm_scale_q15.c ****   while (blkCnt > 0U)
  47              		.loc 1 129 3 view .LVU6
  48              		.loc 1 129 9 view .LVU7
  49 0004 74B1     		cbz	r4, .L1
  50 0006 C2F10F02 		rsb	r2, r2, #15
  51              	.LVL2:
  52              		.loc 1 129 9 is_stmt 0 view .LVU8
  53 000a 55B2     		sxtb	r5, r2
  54              	.LVL3:
  55              	.L3:
 130:.//Libraries/CMSIS/DSP/Source/BasicMathFunctions/arm_scale_q15.c ****   {
 131:.//Libraries/CMSIS/DSP/Source/BasicMathFunctions/arm_scale_q15.c ****     /* C = A * scale */
 132:.//Libraries/CMSIS/DSP/Source/BasicMathFunctions/arm_scale_q15.c **** 
 133:.//Libraries/CMSIS/DSP/Source/BasicMathFunctions/arm_scale_q15.c ****     /* Scale input and store result in destination buffer. */
 134:.//Libraries/CMSIS/DSP/Source/BasicMathFunctions/arm_scale_q15.c ****     *pDst++ = (q15_t) (__SSAT(((q31_t) *pSrc++ * scaleFract) >> kShift, 16));
  56              		.loc 1 134 5 is_stmt 1 view .LVU9
  57              	.LBB2:
  58              		.loc 1 134 24 view .LVU10
  59              		.loc 1 134 24 view .LVU11
  60 000c 30F8022B 		ldrh	r2, [r0], #2
  61              	.LVL4:
  62              		.loc 1 134 24 is_stmt 0 view .LVU12
  63              	.LBE2:
 129:.//Libraries/CMSIS/DSP/Source/BasicMathFunctions/arm_scale_q15.c ****   {
  64              		.loc 1 129 9 view .LVU13
  65 0010 013C     		subs	r4, r4, #1
  66              	.LVL5:
  67              	.LBB3:
  68              		.loc 1 134 24 view .LVU14
  69 0012 12FB01F2 		smulbb	r2, r2, r1
  70 0016 42FA05F2 		asr	r2, r2, r5
  71              		.syntax unified
  72              	@ 134 ".//Libraries/CMSIS/DSP/Source/BasicMathFunctions/arm_scale_q15.c" 1
  73 001a 02F30F02 		ssat r2, #16, r2
  74              	@ 0 "" 2
  75              	.LVL6:
  76              		.loc 1 134 24 is_stmt 1 view .LVU15
  77              		.loc 1 134 24 is_stmt 0 view .LVU16
  78              		.thumb
  79              		.syntax unified
  80              	.LBE3:
  81              		.loc 1 134 15 view .LVU17
  82 001e 23F8022B 		strh	r2, [r3], #2	@ movhi
  83              	.LVL7:
 135:.//Libraries/CMSIS/DSP/Source/BasicMathFunctions/arm_scale_q15.c **** 
 136:.//Libraries/CMSIS/DSP/Source/BasicMathFunctions/arm_scale_q15.c ****     /* Decrement loop counter */
 137:.//Libraries/CMSIS/DSP/Source/BasicMathFunctions/arm_scale_q15.c ****     blkCnt--;
  84              		.loc 1 137 5 is_stmt 1 view .LVU18
 129:.//Libraries/CMSIS/DSP/Source/BasicMathFunctions/arm_scale_q15.c ****   {
  85              		.loc 1 129 9 view .LVU19
  86 0022 F3D1     		bne	.L3
  87              	.LVL8:
  88              	.L1:
ARM GAS  /var/folders/wl/rshn8xbx1dsfj1zgryf4g1240000gn/T//ccLYU4tQ.s 			page 5


 138:.//Libraries/CMSIS/DSP/Source/BasicMathFunctions/arm_scale_q15.c ****   }
 139:.//Libraries/CMSIS/DSP/Source/BasicMathFunctions/arm_scale_q15.c **** 
 140:.//Libraries/CMSIS/DSP/Source/BasicMathFunctions/arm_scale_q15.c **** }
  89              		.loc 1 140 1 is_stmt 0 view .LVU20
  90 0024 30BC     		pop	{r4, r5}
  91              	.LCFI1:
  92              		.cfi_restore 5
  93              		.cfi_restore 4
  94              		.cfi_def_cfa_offset 0
  95              	.LVL9:
  96              		.loc 1 140 1 view .LVU21
  97 0026 7047     		bx	lr
  98              		.cfi_endproc
  99              	.LFE145:
 101              		.text
 102              	.Letext0:
 103              		.file 2 "/opt/homebrew/Cellar/arm-none-eabi-gcc/9-2019-q4-major/gcc/arm-none-eabi/include/machine/
 104              		.file 3 "/opt/homebrew/Cellar/arm-none-eabi-gcc/9-2019-q4-major/gcc/arm-none-eabi/include/sys/_std
 105              		.file 4 "/opt/homebrew/Cellar/arm-none-eabi-gcc/9-2019-q4-major/gcc/arm-none-eabi/include/sys/lock
 106              		.file 5 "/opt/homebrew/Cellar/arm-none-eabi-gcc/9-2019-q4-major/gcc/arm-none-eabi/include/sys/_typ
 107              		.file 6 "/opt/homebrew/Cellar/arm-none-eabi-gcc/9-2019-q4-major/gcc/lib/gcc/arm-none-eabi/9.2.1/in
 108              		.file 7 "/opt/homebrew/Cellar/arm-none-eabi-gcc/9-2019-q4-major/gcc/arm-none-eabi/include/sys/reen
 109              		.file 8 "/opt/homebrew/Cellar/arm-none-eabi-gcc/9-2019-q4-major/gcc/arm-none-eabi/include/math.h"
 110              		.file 9 ".//Libraries/CMSIS/DSP/Include/arm_math.h"
ARM GAS  /var/folders/wl/rshn8xbx1dsfj1zgryf4g1240000gn/T//ccLYU4tQ.s 			page 6

