ARM GAS  /tmp/cc9WBzb6.s 			page 1


   1              		.cpu cortex-m7
   2              		.eabi_attribute 28, 1
   3              		.eabi_attribute 20, 1
   4              		.eabi_attribute 21, 1
   5              		.eabi_attribute 23, 3
   6              		.eabi_attribute 24, 1
   7              		.eabi_attribute 25, 1
   8              		.eabi_attribute 26, 1
   9              		.eabi_attribute 30, 2
  10              		.eabi_attribute 34, 1
  11              		.eabi_attribute 18, 4
  12              		.file	"arm_rfft_fast_init_f32.c"
  13              		.text
  14              	.Ltext0:
  15              		.cfi_sections	.debug_frame
  16              		.section	.text.arm_rfft_32_fast_init_f32,"ax",%progbits
  17              		.align	1
  18              		.p2align 2,,3
  19              		.global	arm_rfft_32_fast_init_f32
  20              		.arch armv7e-m
  21              		.syntax unified
  22              		.thumb
  23              		.thumb_func
  24              		.fpu fpv5-d16
  26              	arm_rfft_32_fast_init_f32:
  27              	.LVL0:
  28              	.LFB145:
  29              		.file 1 "./Libraries/CMSIS/DSP/Source/TransformFunctions/arm_rfft_fast_init_f32.c"
   1:./Libraries/CMSIS/DSP/Source/TransformFunctions/arm_rfft_fast_init_f32.c **** /* ----------------------------------------------------------------------
   2:./Libraries/CMSIS/DSP/Source/TransformFunctions/arm_rfft_fast_init_f32.c ****  * Project:      CMSIS DSP Library
   3:./Libraries/CMSIS/DSP/Source/TransformFunctions/arm_rfft_fast_init_f32.c ****  * Title:        arm_cfft_init_f32.c
   4:./Libraries/CMSIS/DSP/Source/TransformFunctions/arm_rfft_fast_init_f32.c ****  * Description:  Split Radix Decimation in Frequency CFFT Floating point processing function
   5:./Libraries/CMSIS/DSP/Source/TransformFunctions/arm_rfft_fast_init_f32.c ****  *
   6:./Libraries/CMSIS/DSP/Source/TransformFunctions/arm_rfft_fast_init_f32.c ****  * $Date:        18. March 2019
   7:./Libraries/CMSIS/DSP/Source/TransformFunctions/arm_rfft_fast_init_f32.c ****  * $Revision:    V1.6.0
   8:./Libraries/CMSIS/DSP/Source/TransformFunctions/arm_rfft_fast_init_f32.c ****  *
   9:./Libraries/CMSIS/DSP/Source/TransformFunctions/arm_rfft_fast_init_f32.c ****  * Target Processor: Cortex-M cores
  10:./Libraries/CMSIS/DSP/Source/TransformFunctions/arm_rfft_fast_init_f32.c ****  * -------------------------------------------------------------------- */
  11:./Libraries/CMSIS/DSP/Source/TransformFunctions/arm_rfft_fast_init_f32.c **** /*
  12:./Libraries/CMSIS/DSP/Source/TransformFunctions/arm_rfft_fast_init_f32.c ****  * Copyright (C) 2010-2019 ARM Limited or its affiliates. All rights reserved.
  13:./Libraries/CMSIS/DSP/Source/TransformFunctions/arm_rfft_fast_init_f32.c ****  *
  14:./Libraries/CMSIS/DSP/Source/TransformFunctions/arm_rfft_fast_init_f32.c ****  * SPDX-License-Identifier: Apache-2.0
  15:./Libraries/CMSIS/DSP/Source/TransformFunctions/arm_rfft_fast_init_f32.c ****  *
  16:./Libraries/CMSIS/DSP/Source/TransformFunctions/arm_rfft_fast_init_f32.c ****  * Licensed under the Apache License, Version 2.0 (the License); you may
  17:./Libraries/CMSIS/DSP/Source/TransformFunctions/arm_rfft_fast_init_f32.c ****  * not use this file except in compliance with the License.
  18:./Libraries/CMSIS/DSP/Source/TransformFunctions/arm_rfft_fast_init_f32.c ****  * You may obtain a copy of the License at
  19:./Libraries/CMSIS/DSP/Source/TransformFunctions/arm_rfft_fast_init_f32.c ****  *
  20:./Libraries/CMSIS/DSP/Source/TransformFunctions/arm_rfft_fast_init_f32.c ****  * www.apache.org/licenses/LICENSE-2.0
  21:./Libraries/CMSIS/DSP/Source/TransformFunctions/arm_rfft_fast_init_f32.c ****  *
  22:./Libraries/CMSIS/DSP/Source/TransformFunctions/arm_rfft_fast_init_f32.c ****  * Unless required by applicable law or agreed to in writing, software
  23:./Libraries/CMSIS/DSP/Source/TransformFunctions/arm_rfft_fast_init_f32.c ****  * distributed under the License is distributed on an AS IS BASIS, WITHOUT
  24:./Libraries/CMSIS/DSP/Source/TransformFunctions/arm_rfft_fast_init_f32.c ****  * WARRANTIES OR CONDITIONS OF ANY KIND, either express or implied.
  25:./Libraries/CMSIS/DSP/Source/TransformFunctions/arm_rfft_fast_init_f32.c ****  * See the License for the specific language governing permissions and
  26:./Libraries/CMSIS/DSP/Source/TransformFunctions/arm_rfft_fast_init_f32.c ****  * limitations under the License.
  27:./Libraries/CMSIS/DSP/Source/TransformFunctions/arm_rfft_fast_init_f32.c ****  */
  28:./Libraries/CMSIS/DSP/Source/TransformFunctions/arm_rfft_fast_init_f32.c **** 
  29:./Libraries/CMSIS/DSP/Source/TransformFunctions/arm_rfft_fast_init_f32.c **** #include "arm_math.h"
ARM GAS  /tmp/cc9WBzb6.s 			page 2


  30:./Libraries/CMSIS/DSP/Source/TransformFunctions/arm_rfft_fast_init_f32.c **** #include "arm_common_tables.h"
  31:./Libraries/CMSIS/DSP/Source/TransformFunctions/arm_rfft_fast_init_f32.c **** 
  32:./Libraries/CMSIS/DSP/Source/TransformFunctions/arm_rfft_fast_init_f32.c **** /**
  33:./Libraries/CMSIS/DSP/Source/TransformFunctions/arm_rfft_fast_init_f32.c ****   @ingroup groupTransforms
  34:./Libraries/CMSIS/DSP/Source/TransformFunctions/arm_rfft_fast_init_f32.c ****  */
  35:./Libraries/CMSIS/DSP/Source/TransformFunctions/arm_rfft_fast_init_f32.c **** 
  36:./Libraries/CMSIS/DSP/Source/TransformFunctions/arm_rfft_fast_init_f32.c **** /**
  37:./Libraries/CMSIS/DSP/Source/TransformFunctions/arm_rfft_fast_init_f32.c ****   @addtogroup RealFFT
  38:./Libraries/CMSIS/DSP/Source/TransformFunctions/arm_rfft_fast_init_f32.c ****   @{
  39:./Libraries/CMSIS/DSP/Source/TransformFunctions/arm_rfft_fast_init_f32.c ****  */
  40:./Libraries/CMSIS/DSP/Source/TransformFunctions/arm_rfft_fast_init_f32.c **** 
  41:./Libraries/CMSIS/DSP/Source/TransformFunctions/arm_rfft_fast_init_f32.c **** #if !defined(ARM_DSP_CONFIG_TABLES) || defined(ARM_ALL_FFT_TABLES) || (defined(ARM_TABLE_TWIDDLECOE
  42:./Libraries/CMSIS/DSP/Source/TransformFunctions/arm_rfft_fast_init_f32.c **** 
  43:./Libraries/CMSIS/DSP/Source/TransformFunctions/arm_rfft_fast_init_f32.c **** /**
  44:./Libraries/CMSIS/DSP/Source/TransformFunctions/arm_rfft_fast_init_f32.c ****   @brief         Initialization function for the 32pt floating-point real FFT.
  45:./Libraries/CMSIS/DSP/Source/TransformFunctions/arm_rfft_fast_init_f32.c ****   @param[in,out] S  points to an arm_rfft_fast_instance_f32 structure
  46:./Libraries/CMSIS/DSP/Source/TransformFunctions/arm_rfft_fast_init_f32.c ****   @return        execution status
  47:./Libraries/CMSIS/DSP/Source/TransformFunctions/arm_rfft_fast_init_f32.c ****                    - \ref ARM_MATH_SUCCESS        : Operation successful
  48:./Libraries/CMSIS/DSP/Source/TransformFunctions/arm_rfft_fast_init_f32.c ****                    - \ref ARM_MATH_ARGUMENT_ERROR : an error is detected
  49:./Libraries/CMSIS/DSP/Source/TransformFunctions/arm_rfft_fast_init_f32.c ****  */
  50:./Libraries/CMSIS/DSP/Source/TransformFunctions/arm_rfft_fast_init_f32.c **** 
  51:./Libraries/CMSIS/DSP/Source/TransformFunctions/arm_rfft_fast_init_f32.c **** arm_status arm_rfft_32_fast_init_f32( arm_rfft_fast_instance_f32 * S ) {
  30              		.loc 1 51 72 view -0
  31              		.cfi_startproc
  32              		@ args = 0, pretend = 0, frame = 0
  33              		@ frame_needed = 0, uses_anonymous_args = 0
  34              		@ link register save eliminated.
  52:./Libraries/CMSIS/DSP/Source/TransformFunctions/arm_rfft_fast_init_f32.c **** 
  53:./Libraries/CMSIS/DSP/Source/TransformFunctions/arm_rfft_fast_init_f32.c ****   arm_cfft_instance_f32 * Sint;
  35              		.loc 1 53 3 view .LVU1
  54:./Libraries/CMSIS/DSP/Source/TransformFunctions/arm_rfft_fast_init_f32.c **** 
  55:./Libraries/CMSIS/DSP/Source/TransformFunctions/arm_rfft_fast_init_f32.c ****   if( !S ) return ARM_MATH_ARGUMENT_ERROR;
  36              		.loc 1 55 3 view .LVU2
  37              		.loc 1 55 5 is_stmt 0 view .LVU3
  38 0000 80B1     		cbz	r0, .L3
  39 0002 0346     		mov	r3, r0
  56:./Libraries/CMSIS/DSP/Source/TransformFunctions/arm_rfft_fast_init_f32.c **** 
  57:./Libraries/CMSIS/DSP/Source/TransformFunctions/arm_rfft_fast_init_f32.c ****   Sint = &(S->Sint);
  40              		.loc 1 57 3 is_stmt 1 view .LVU4
  41              	.LVL1:
  58:./Libraries/CMSIS/DSP/Source/TransformFunctions/arm_rfft_fast_init_f32.c ****   Sint->fftLen = 16U;
  42              		.loc 1 58 3 view .LVU5
  59:./Libraries/CMSIS/DSP/Source/TransformFunctions/arm_rfft_fast_init_f32.c ****   S->fftLenRFFT = 32U;
  43              		.loc 1 59 17 is_stmt 0 view .LVU6
  44 0004 2022     		movs	r2, #32
  58:./Libraries/CMSIS/DSP/Source/TransformFunctions/arm_rfft_fast_init_f32.c ****   Sint->fftLen = 16U;
  45              		.loc 1 58 16 view .LVU7
  46 0006 1020     		movs	r0, #16
  47              	.LVL2:
  60:./Libraries/CMSIS/DSP/Source/TransformFunctions/arm_rfft_fast_init_f32.c **** 
  61:./Libraries/CMSIS/DSP/Source/TransformFunctions/arm_rfft_fast_init_f32.c ****   Sint->bitRevLength = ARMBITREVINDEXTABLE_16_TABLE_LENGTH;
  62:./Libraries/CMSIS/DSP/Source/TransformFunctions/arm_rfft_fast_init_f32.c ****   Sint->pBitRevTable = (uint16_t *)armBitRevIndexTable16;
  63:./Libraries/CMSIS/DSP/Source/TransformFunctions/arm_rfft_fast_init_f32.c ****   Sint->pTwiddle     = (float32_t *) twiddleCoef_16;
  48              		.loc 1 63 22 view .LVU8
  49 0008 0849     		ldr	r1, .L9
  51:./Libraries/CMSIS/DSP/Source/TransformFunctions/arm_rfft_fast_init_f32.c **** 
  50              		.loc 1 51 72 view .LVU9
ARM GAS  /tmp/cc9WBzb6.s 			page 3


  51 000a 30B4     		push	{r4, r5}
  52              	.LCFI0:
  53              		.cfi_def_cfa_offset 8
  54              		.cfi_offset 4, -8
  55              		.cfi_offset 5, -4
  61:./Libraries/CMSIS/DSP/Source/TransformFunctions/arm_rfft_fast_init_f32.c ****   Sint->pBitRevTable = (uint16_t *)armBitRevIndexTable16;
  56              		.loc 1 61 22 view .LVU10
  57 000c 1425     		movs	r5, #20
  62:./Libraries/CMSIS/DSP/Source/TransformFunctions/arm_rfft_fast_init_f32.c ****   Sint->pTwiddle     = (float32_t *) twiddleCoef_16;
  58              		.loc 1 62 22 view .LVU11
  59 000e 084C     		ldr	r4, .L9+4
  59:./Libraries/CMSIS/DSP/Source/TransformFunctions/arm_rfft_fast_init_f32.c **** 
  60              		.loc 1 59 17 view .LVU12
  61 0010 1A82     		strh	r2, [r3, #16]	@ movhi
  64:./Libraries/CMSIS/DSP/Source/TransformFunctions/arm_rfft_fast_init_f32.c ****   S->pTwiddleRFFT    = (float32_t *) twiddleCoef_rfft_32;
  62              		.loc 1 64 22 view .LVU13
  63 0012 084A     		ldr	r2, .L9+8
  58:./Libraries/CMSIS/DSP/Source/TransformFunctions/arm_rfft_fast_init_f32.c ****   S->fftLenRFFT = 32U;
  64              		.loc 1 58 16 view .LVU14
  65 0014 1880     		strh	r0, [r3]	@ movhi
  59:./Libraries/CMSIS/DSP/Source/TransformFunctions/arm_rfft_fast_init_f32.c **** 
  66              		.loc 1 59 3 is_stmt 1 view .LVU15
  61:./Libraries/CMSIS/DSP/Source/TransformFunctions/arm_rfft_fast_init_f32.c ****   Sint->pBitRevTable = (uint16_t *)armBitRevIndexTable16;
  67              		.loc 1 61 3 view .LVU16
  65:./Libraries/CMSIS/DSP/Source/TransformFunctions/arm_rfft_fast_init_f32.c **** 
  66:./Libraries/CMSIS/DSP/Source/TransformFunctions/arm_rfft_fast_init_f32.c ****   return ARM_MATH_SUCCESS;
  68              		.loc 1 66 10 is_stmt 0 view .LVU17
  69 0016 0020     		movs	r0, #0
  61:./Libraries/CMSIS/DSP/Source/TransformFunctions/arm_rfft_fast_init_f32.c ****   Sint->pBitRevTable = (uint16_t *)armBitRevIndexTable16;
  70              		.loc 1 61 22 view .LVU18
  71 0018 9D81     		strh	r5, [r3, #12]	@ movhi
  62:./Libraries/CMSIS/DSP/Source/TransformFunctions/arm_rfft_fast_init_f32.c ****   Sint->pTwiddle     = (float32_t *) twiddleCoef_16;
  72              		.loc 1 62 3 is_stmt 1 view .LVU19
  64:./Libraries/CMSIS/DSP/Source/TransformFunctions/arm_rfft_fast_init_f32.c **** 
  73              		.loc 1 64 22 is_stmt 0 view .LVU20
  74 001a 5A61     		str	r2, [r3, #20]
  63:./Libraries/CMSIS/DSP/Source/TransformFunctions/arm_rfft_fast_init_f32.c ****   S->pTwiddleRFFT    = (float32_t *) twiddleCoef_rfft_32;
  75              		.loc 1 63 22 view .LVU21
  76 001c C3E90114 		strd	r1, r4, [r3, #4]
  64:./Libraries/CMSIS/DSP/Source/TransformFunctions/arm_rfft_fast_init_f32.c **** 
  77              		.loc 1 64 3 is_stmt 1 view .LVU22
  78              		.loc 1 66 3 view .LVU23
  67:./Libraries/CMSIS/DSP/Source/TransformFunctions/arm_rfft_fast_init_f32.c **** }
  79              		.loc 1 67 1 is_stmt 0 view .LVU24
  80 0020 30BC     		pop	{r4, r5}
  81              	.LCFI1:
  82              		.cfi_restore 5
  83              		.cfi_restore 4
  84              		.cfi_def_cfa_offset 0
  85 0022 7047     		bx	lr
  86              	.LVL3:
  87              	.L3:
  55:./Libraries/CMSIS/DSP/Source/TransformFunctions/arm_rfft_fast_init_f32.c **** 
  88              		.loc 1 55 19 view .LVU25
  89 0024 4FF0FF30 		mov	r0, #-1
  90              	.LVL4:
  91              		.loc 1 67 1 view .LVU26
ARM GAS  /tmp/cc9WBzb6.s 			page 4


  92 0028 7047     		bx	lr
  93              	.L10:
  94 002a 00BF     		.align	2
  95              	.L9:
  96 002c 00000000 		.word	twiddleCoef_16
  97 0030 00000000 		.word	armBitRevIndexTable16
  98 0034 00000000 		.word	twiddleCoef_rfft_32
  99              		.cfi_endproc
 100              	.LFE145:
 102              		.section	.text.arm_rfft_64_fast_init_f32,"ax",%progbits
 103              		.align	1
 104              		.p2align 2,,3
 105              		.global	arm_rfft_64_fast_init_f32
 106              		.syntax unified
 107              		.thumb
 108              		.thumb_func
 109              		.fpu fpv5-d16
 111              	arm_rfft_64_fast_init_f32:
 112              	.LVL5:
 113              	.LFB146:
  68:./Libraries/CMSIS/DSP/Source/TransformFunctions/arm_rfft_fast_init_f32.c **** #endif 
  69:./Libraries/CMSIS/DSP/Source/TransformFunctions/arm_rfft_fast_init_f32.c **** 
  70:./Libraries/CMSIS/DSP/Source/TransformFunctions/arm_rfft_fast_init_f32.c **** #if !defined(ARM_DSP_CONFIG_TABLES) || defined(ARM_ALL_FFT_TABLES) || (defined(ARM_TABLE_TWIDDLECOE
  71:./Libraries/CMSIS/DSP/Source/TransformFunctions/arm_rfft_fast_init_f32.c **** 
  72:./Libraries/CMSIS/DSP/Source/TransformFunctions/arm_rfft_fast_init_f32.c **** /**
  73:./Libraries/CMSIS/DSP/Source/TransformFunctions/arm_rfft_fast_init_f32.c ****   @brief         Initialization function for the 64pt floating-point real FFT.
  74:./Libraries/CMSIS/DSP/Source/TransformFunctions/arm_rfft_fast_init_f32.c ****   @param[in,out] S  points to an arm_rfft_fast_instance_f32 structure
  75:./Libraries/CMSIS/DSP/Source/TransformFunctions/arm_rfft_fast_init_f32.c ****   @return        execution status
  76:./Libraries/CMSIS/DSP/Source/TransformFunctions/arm_rfft_fast_init_f32.c ****                    - \ref ARM_MATH_SUCCESS        : Operation successful
  77:./Libraries/CMSIS/DSP/Source/TransformFunctions/arm_rfft_fast_init_f32.c ****                    - \ref ARM_MATH_ARGUMENT_ERROR : an error is detected
  78:./Libraries/CMSIS/DSP/Source/TransformFunctions/arm_rfft_fast_init_f32.c ****  */
  79:./Libraries/CMSIS/DSP/Source/TransformFunctions/arm_rfft_fast_init_f32.c **** 
  80:./Libraries/CMSIS/DSP/Source/TransformFunctions/arm_rfft_fast_init_f32.c **** arm_status arm_rfft_64_fast_init_f32( arm_rfft_fast_instance_f32 * S ) {
 114              		.loc 1 80 72 is_stmt 1 view -0
 115              		.cfi_startproc
 116              		@ args = 0, pretend = 0, frame = 0
 117              		@ frame_needed = 0, uses_anonymous_args = 0
 118              		@ link register save eliminated.
  81:./Libraries/CMSIS/DSP/Source/TransformFunctions/arm_rfft_fast_init_f32.c **** 
  82:./Libraries/CMSIS/DSP/Source/TransformFunctions/arm_rfft_fast_init_f32.c ****   arm_cfft_instance_f32 * Sint;
 119              		.loc 1 82 3 view .LVU28
  83:./Libraries/CMSIS/DSP/Source/TransformFunctions/arm_rfft_fast_init_f32.c **** 
  84:./Libraries/CMSIS/DSP/Source/TransformFunctions/arm_rfft_fast_init_f32.c ****   if( !S ) return ARM_MATH_ARGUMENT_ERROR;
 120              		.loc 1 84 3 view .LVU29
 121              		.loc 1 84 5 is_stmt 0 view .LVU30
 122 0000 80B1     		cbz	r0, .L13
 123 0002 0346     		mov	r3, r0
  85:./Libraries/CMSIS/DSP/Source/TransformFunctions/arm_rfft_fast_init_f32.c **** 
  86:./Libraries/CMSIS/DSP/Source/TransformFunctions/arm_rfft_fast_init_f32.c ****   Sint = &(S->Sint);
 124              		.loc 1 86 3 is_stmt 1 view .LVU31
 125              	.LVL6:
  87:./Libraries/CMSIS/DSP/Source/TransformFunctions/arm_rfft_fast_init_f32.c ****   Sint->fftLen = 32U;
 126              		.loc 1 87 3 view .LVU32
  88:./Libraries/CMSIS/DSP/Source/TransformFunctions/arm_rfft_fast_init_f32.c ****   S->fftLenRFFT = 64U;
 127              		.loc 1 88 17 is_stmt 0 view .LVU33
 128 0004 4022     		movs	r2, #64
  87:./Libraries/CMSIS/DSP/Source/TransformFunctions/arm_rfft_fast_init_f32.c ****   Sint->fftLen = 32U;
ARM GAS  /tmp/cc9WBzb6.s 			page 5


 129              		.loc 1 87 16 view .LVU34
 130 0006 2020     		movs	r0, #32
 131              	.LVL7:
  89:./Libraries/CMSIS/DSP/Source/TransformFunctions/arm_rfft_fast_init_f32.c **** 
  90:./Libraries/CMSIS/DSP/Source/TransformFunctions/arm_rfft_fast_init_f32.c ****   Sint->bitRevLength = ARMBITREVINDEXTABLE_32_TABLE_LENGTH;
  91:./Libraries/CMSIS/DSP/Source/TransformFunctions/arm_rfft_fast_init_f32.c ****   Sint->pBitRevTable = (uint16_t *)armBitRevIndexTable32;
  92:./Libraries/CMSIS/DSP/Source/TransformFunctions/arm_rfft_fast_init_f32.c ****   Sint->pTwiddle     = (float32_t *) twiddleCoef_32;
 132              		.loc 1 92 22 view .LVU35
 133 0008 0849     		ldr	r1, .L18
  80:./Libraries/CMSIS/DSP/Source/TransformFunctions/arm_rfft_fast_init_f32.c **** 
 134              		.loc 1 80 72 view .LVU36
 135 000a 30B4     		push	{r4, r5}
 136              	.LCFI2:
 137              		.cfi_def_cfa_offset 8
 138              		.cfi_offset 4, -8
 139              		.cfi_offset 5, -4
  90:./Libraries/CMSIS/DSP/Source/TransformFunctions/arm_rfft_fast_init_f32.c ****   Sint->pBitRevTable = (uint16_t *)armBitRevIndexTable32;
 140              		.loc 1 90 22 view .LVU37
 141 000c 3025     		movs	r5, #48
  91:./Libraries/CMSIS/DSP/Source/TransformFunctions/arm_rfft_fast_init_f32.c ****   Sint->pTwiddle     = (float32_t *) twiddleCoef_32;
 142              		.loc 1 91 22 view .LVU38
 143 000e 084C     		ldr	r4, .L18+4
  88:./Libraries/CMSIS/DSP/Source/TransformFunctions/arm_rfft_fast_init_f32.c **** 
 144              		.loc 1 88 17 view .LVU39
 145 0010 1A82     		strh	r2, [r3, #16]	@ movhi
  93:./Libraries/CMSIS/DSP/Source/TransformFunctions/arm_rfft_fast_init_f32.c ****   S->pTwiddleRFFT    = (float32_t *) twiddleCoef_rfft_64;
 146              		.loc 1 93 22 view .LVU40
 147 0012 084A     		ldr	r2, .L18+8
  87:./Libraries/CMSIS/DSP/Source/TransformFunctions/arm_rfft_fast_init_f32.c ****   S->fftLenRFFT = 64U;
 148              		.loc 1 87 16 view .LVU41
 149 0014 1880     		strh	r0, [r3]	@ movhi
  88:./Libraries/CMSIS/DSP/Source/TransformFunctions/arm_rfft_fast_init_f32.c **** 
 150              		.loc 1 88 3 is_stmt 1 view .LVU42
  90:./Libraries/CMSIS/DSP/Source/TransformFunctions/arm_rfft_fast_init_f32.c ****   Sint->pBitRevTable = (uint16_t *)armBitRevIndexTable32;
 151              		.loc 1 90 3 view .LVU43
  94:./Libraries/CMSIS/DSP/Source/TransformFunctions/arm_rfft_fast_init_f32.c **** 
  95:./Libraries/CMSIS/DSP/Source/TransformFunctions/arm_rfft_fast_init_f32.c ****   return ARM_MATH_SUCCESS;
 152              		.loc 1 95 10 is_stmt 0 view .LVU44
 153 0016 0020     		movs	r0, #0
  90:./Libraries/CMSIS/DSP/Source/TransformFunctions/arm_rfft_fast_init_f32.c ****   Sint->pBitRevTable = (uint16_t *)armBitRevIndexTable32;
 154              		.loc 1 90 22 view .LVU45
 155 0018 9D81     		strh	r5, [r3, #12]	@ movhi
  91:./Libraries/CMSIS/DSP/Source/TransformFunctions/arm_rfft_fast_init_f32.c ****   Sint->pTwiddle     = (float32_t *) twiddleCoef_32;
 156              		.loc 1 91 3 is_stmt 1 view .LVU46
  93:./Libraries/CMSIS/DSP/Source/TransformFunctions/arm_rfft_fast_init_f32.c **** 
 157              		.loc 1 93 22 is_stmt 0 view .LVU47
 158 001a 5A61     		str	r2, [r3, #20]
  92:./Libraries/CMSIS/DSP/Source/TransformFunctions/arm_rfft_fast_init_f32.c ****   S->pTwiddleRFFT    = (float32_t *) twiddleCoef_rfft_64;
 159              		.loc 1 92 22 view .LVU48
 160 001c C3E90114 		strd	r1, r4, [r3, #4]
  93:./Libraries/CMSIS/DSP/Source/TransformFunctions/arm_rfft_fast_init_f32.c **** 
 161              		.loc 1 93 3 is_stmt 1 view .LVU49
 162              		.loc 1 95 3 view .LVU50
  96:./Libraries/CMSIS/DSP/Source/TransformFunctions/arm_rfft_fast_init_f32.c **** }
 163              		.loc 1 96 1 is_stmt 0 view .LVU51
 164 0020 30BC     		pop	{r4, r5}
 165              	.LCFI3:
ARM GAS  /tmp/cc9WBzb6.s 			page 6


 166              		.cfi_restore 5
 167              		.cfi_restore 4
 168              		.cfi_def_cfa_offset 0
 169 0022 7047     		bx	lr
 170              	.LVL8:
 171              	.L13:
  84:./Libraries/CMSIS/DSP/Source/TransformFunctions/arm_rfft_fast_init_f32.c **** 
 172              		.loc 1 84 19 view .LVU52
 173 0024 4FF0FF30 		mov	r0, #-1
 174              	.LVL9:
 175              		.loc 1 96 1 view .LVU53
 176 0028 7047     		bx	lr
 177              	.L19:
 178 002a 00BF     		.align	2
 179              	.L18:
 180 002c 00000000 		.word	twiddleCoef_32
 181 0030 00000000 		.word	armBitRevIndexTable32
 182 0034 00000000 		.word	twiddleCoef_rfft_64
 183              		.cfi_endproc
 184              	.LFE146:
 186              		.section	.text.arm_rfft_256_fast_init_f32,"ax",%progbits
 187              		.align	1
 188              		.p2align 2,,3
 189              		.global	arm_rfft_256_fast_init_f32
 190              		.syntax unified
 191              		.thumb
 192              		.thumb_func
 193              		.fpu fpv5-d16
 195              	arm_rfft_256_fast_init_f32:
 196              	.LVL10:
 197              	.LFB148:
  97:./Libraries/CMSIS/DSP/Source/TransformFunctions/arm_rfft_fast_init_f32.c **** #endif 
  98:./Libraries/CMSIS/DSP/Source/TransformFunctions/arm_rfft_fast_init_f32.c **** 
  99:./Libraries/CMSIS/DSP/Source/TransformFunctions/arm_rfft_fast_init_f32.c **** #if !defined(ARM_DSP_CONFIG_TABLES) || defined(ARM_ALL_FFT_TABLES) || (defined(ARM_TABLE_TWIDDLECOE
 100:./Libraries/CMSIS/DSP/Source/TransformFunctions/arm_rfft_fast_init_f32.c **** 
 101:./Libraries/CMSIS/DSP/Source/TransformFunctions/arm_rfft_fast_init_f32.c **** /**
 102:./Libraries/CMSIS/DSP/Source/TransformFunctions/arm_rfft_fast_init_f32.c ****   @brief         Initialization function for the 128pt floating-point real FFT.
 103:./Libraries/CMSIS/DSP/Source/TransformFunctions/arm_rfft_fast_init_f32.c ****   @param[in,out] S  points to an arm_rfft_fast_instance_f32 structure
 104:./Libraries/CMSIS/DSP/Source/TransformFunctions/arm_rfft_fast_init_f32.c ****   @return        execution status
 105:./Libraries/CMSIS/DSP/Source/TransformFunctions/arm_rfft_fast_init_f32.c ****                    - \ref ARM_MATH_SUCCESS        : Operation successful
 106:./Libraries/CMSIS/DSP/Source/TransformFunctions/arm_rfft_fast_init_f32.c ****                    - \ref ARM_MATH_ARGUMENT_ERROR : an error is detected
 107:./Libraries/CMSIS/DSP/Source/TransformFunctions/arm_rfft_fast_init_f32.c ****  */
 108:./Libraries/CMSIS/DSP/Source/TransformFunctions/arm_rfft_fast_init_f32.c **** 
 109:./Libraries/CMSIS/DSP/Source/TransformFunctions/arm_rfft_fast_init_f32.c **** arm_status arm_rfft_128_fast_init_f32( arm_rfft_fast_instance_f32 * S ) {
 110:./Libraries/CMSIS/DSP/Source/TransformFunctions/arm_rfft_fast_init_f32.c **** 
 111:./Libraries/CMSIS/DSP/Source/TransformFunctions/arm_rfft_fast_init_f32.c ****   arm_cfft_instance_f32 * Sint;
 112:./Libraries/CMSIS/DSP/Source/TransformFunctions/arm_rfft_fast_init_f32.c **** 
 113:./Libraries/CMSIS/DSP/Source/TransformFunctions/arm_rfft_fast_init_f32.c ****   if( !S ) return ARM_MATH_ARGUMENT_ERROR;
 114:./Libraries/CMSIS/DSP/Source/TransformFunctions/arm_rfft_fast_init_f32.c **** 
 115:./Libraries/CMSIS/DSP/Source/TransformFunctions/arm_rfft_fast_init_f32.c ****   Sint = &(S->Sint);
 116:./Libraries/CMSIS/DSP/Source/TransformFunctions/arm_rfft_fast_init_f32.c ****   Sint->fftLen = 64U;
 117:./Libraries/CMSIS/DSP/Source/TransformFunctions/arm_rfft_fast_init_f32.c ****   S->fftLenRFFT = 128U;
 118:./Libraries/CMSIS/DSP/Source/TransformFunctions/arm_rfft_fast_init_f32.c **** 
 119:./Libraries/CMSIS/DSP/Source/TransformFunctions/arm_rfft_fast_init_f32.c ****   Sint->bitRevLength = ARMBITREVINDEXTABLE_64_TABLE_LENGTH;
 120:./Libraries/CMSIS/DSP/Source/TransformFunctions/arm_rfft_fast_init_f32.c ****   Sint->pBitRevTable = (uint16_t *)armBitRevIndexTable64;
 121:./Libraries/CMSIS/DSP/Source/TransformFunctions/arm_rfft_fast_init_f32.c ****   Sint->pTwiddle     = (float32_t *) twiddleCoef_64;
 122:./Libraries/CMSIS/DSP/Source/TransformFunctions/arm_rfft_fast_init_f32.c ****   S->pTwiddleRFFT    = (float32_t *) twiddleCoef_rfft_128;
ARM GAS  /tmp/cc9WBzb6.s 			page 7


 123:./Libraries/CMSIS/DSP/Source/TransformFunctions/arm_rfft_fast_init_f32.c **** 
 124:./Libraries/CMSIS/DSP/Source/TransformFunctions/arm_rfft_fast_init_f32.c ****   return ARM_MATH_SUCCESS;
 125:./Libraries/CMSIS/DSP/Source/TransformFunctions/arm_rfft_fast_init_f32.c **** }
 126:./Libraries/CMSIS/DSP/Source/TransformFunctions/arm_rfft_fast_init_f32.c **** #endif 
 127:./Libraries/CMSIS/DSP/Source/TransformFunctions/arm_rfft_fast_init_f32.c **** 
 128:./Libraries/CMSIS/DSP/Source/TransformFunctions/arm_rfft_fast_init_f32.c **** #if !defined(ARM_DSP_CONFIG_TABLES) || defined(ARM_ALL_FFT_TABLES) || (defined(ARM_TABLE_TWIDDLECOE
 129:./Libraries/CMSIS/DSP/Source/TransformFunctions/arm_rfft_fast_init_f32.c **** 
 130:./Libraries/CMSIS/DSP/Source/TransformFunctions/arm_rfft_fast_init_f32.c **** /**
 131:./Libraries/CMSIS/DSP/Source/TransformFunctions/arm_rfft_fast_init_f32.c ****   @brief         Initialization function for the 256pt floating-point real FFT.
 132:./Libraries/CMSIS/DSP/Source/TransformFunctions/arm_rfft_fast_init_f32.c ****   @param[in,out] S  points to an arm_rfft_fast_instance_f32 structure
 133:./Libraries/CMSIS/DSP/Source/TransformFunctions/arm_rfft_fast_init_f32.c ****   @return        execution status
 134:./Libraries/CMSIS/DSP/Source/TransformFunctions/arm_rfft_fast_init_f32.c ****                    - \ref ARM_MATH_SUCCESS        : Operation successful
 135:./Libraries/CMSIS/DSP/Source/TransformFunctions/arm_rfft_fast_init_f32.c ****                    - \ref ARM_MATH_ARGUMENT_ERROR : an error is detected
 136:./Libraries/CMSIS/DSP/Source/TransformFunctions/arm_rfft_fast_init_f32.c **** */
 137:./Libraries/CMSIS/DSP/Source/TransformFunctions/arm_rfft_fast_init_f32.c **** 
 138:./Libraries/CMSIS/DSP/Source/TransformFunctions/arm_rfft_fast_init_f32.c **** arm_status arm_rfft_256_fast_init_f32( arm_rfft_fast_instance_f32 * S ) {
 198              		.loc 1 138 73 is_stmt 1 view -0
 199              		.cfi_startproc
 200              		@ args = 0, pretend = 0, frame = 0
 201              		@ frame_needed = 0, uses_anonymous_args = 0
 202              		@ link register save eliminated.
 139:./Libraries/CMSIS/DSP/Source/TransformFunctions/arm_rfft_fast_init_f32.c **** 
 140:./Libraries/CMSIS/DSP/Source/TransformFunctions/arm_rfft_fast_init_f32.c ****   arm_cfft_instance_f32 * Sint;
 203              		.loc 1 140 3 view .LVU55
 141:./Libraries/CMSIS/DSP/Source/TransformFunctions/arm_rfft_fast_init_f32.c **** 
 142:./Libraries/CMSIS/DSP/Source/TransformFunctions/arm_rfft_fast_init_f32.c ****   if( !S ) return ARM_MATH_ARGUMENT_ERROR;
 204              		.loc 1 142 3 view .LVU56
 205              		.loc 1 142 5 is_stmt 0 view .LVU57
 206 0000 88B1     		cbz	r0, .L22
 207 0002 0346     		mov	r3, r0
 143:./Libraries/CMSIS/DSP/Source/TransformFunctions/arm_rfft_fast_init_f32.c **** 
 144:./Libraries/CMSIS/DSP/Source/TransformFunctions/arm_rfft_fast_init_f32.c ****   Sint = &(S->Sint);
 208              		.loc 1 144 3 is_stmt 1 view .LVU58
 209              	.LVL11:
 145:./Libraries/CMSIS/DSP/Source/TransformFunctions/arm_rfft_fast_init_f32.c ****   Sint->fftLen = 128U;
 210              		.loc 1 145 3 view .LVU59
 146:./Libraries/CMSIS/DSP/Source/TransformFunctions/arm_rfft_fast_init_f32.c ****   S->fftLenRFFT = 256U;
 211              		.loc 1 146 17 is_stmt 0 view .LVU60
 212 0004 4FF48072 		mov	r2, #256
 145:./Libraries/CMSIS/DSP/Source/TransformFunctions/arm_rfft_fast_init_f32.c ****   Sint->fftLen = 128U;
 213              		.loc 1 145 16 view .LVU61
 214 0008 8020     		movs	r0, #128
 215              	.LVL12:
 147:./Libraries/CMSIS/DSP/Source/TransformFunctions/arm_rfft_fast_init_f32.c **** 
 148:./Libraries/CMSIS/DSP/Source/TransformFunctions/arm_rfft_fast_init_f32.c ****   Sint->bitRevLength = ARMBITREVINDEXTABLE_128_TABLE_LENGTH;
 149:./Libraries/CMSIS/DSP/Source/TransformFunctions/arm_rfft_fast_init_f32.c ****   Sint->pBitRevTable = (uint16_t *)armBitRevIndexTable128;
 150:./Libraries/CMSIS/DSP/Source/TransformFunctions/arm_rfft_fast_init_f32.c ****   Sint->pTwiddle     = (float32_t *) twiddleCoef_128;
 216              		.loc 1 150 22 view .LVU62
 217 000a 0849     		ldr	r1, .L27
 138:./Libraries/CMSIS/DSP/Source/TransformFunctions/arm_rfft_fast_init_f32.c **** 
 218              		.loc 1 138 73 view .LVU63
 219 000c 30B4     		push	{r4, r5}
 220              	.LCFI4:
 221              		.cfi_def_cfa_offset 8
 222              		.cfi_offset 4, -8
 223              		.cfi_offset 5, -4
 148:./Libraries/CMSIS/DSP/Source/TransformFunctions/arm_rfft_fast_init_f32.c ****   Sint->pBitRevTable = (uint16_t *)armBitRevIndexTable128;
ARM GAS  /tmp/cc9WBzb6.s 			page 8


 224              		.loc 1 148 22 view .LVU64
 225 000e D025     		movs	r5, #208
 149:./Libraries/CMSIS/DSP/Source/TransformFunctions/arm_rfft_fast_init_f32.c ****   Sint->pTwiddle     = (float32_t *) twiddleCoef_128;
 226              		.loc 1 149 22 view .LVU65
 227 0010 074C     		ldr	r4, .L27+4
 146:./Libraries/CMSIS/DSP/Source/TransformFunctions/arm_rfft_fast_init_f32.c **** 
 228              		.loc 1 146 17 view .LVU66
 229 0012 1A82     		strh	r2, [r3, #16]	@ movhi
 151:./Libraries/CMSIS/DSP/Source/TransformFunctions/arm_rfft_fast_init_f32.c ****   S->pTwiddleRFFT    = (float32_t *) twiddleCoef_rfft_256;
 230              		.loc 1 151 22 view .LVU67
 231 0014 074A     		ldr	r2, .L27+8
 145:./Libraries/CMSIS/DSP/Source/TransformFunctions/arm_rfft_fast_init_f32.c ****   S->fftLenRFFT = 256U;
 232              		.loc 1 145 16 view .LVU68
 233 0016 1880     		strh	r0, [r3]	@ movhi
 146:./Libraries/CMSIS/DSP/Source/TransformFunctions/arm_rfft_fast_init_f32.c **** 
 234              		.loc 1 146 3 is_stmt 1 view .LVU69
 148:./Libraries/CMSIS/DSP/Source/TransformFunctions/arm_rfft_fast_init_f32.c ****   Sint->pBitRevTable = (uint16_t *)armBitRevIndexTable128;
 235              		.loc 1 148 3 view .LVU70
 152:./Libraries/CMSIS/DSP/Source/TransformFunctions/arm_rfft_fast_init_f32.c **** 
 153:./Libraries/CMSIS/DSP/Source/TransformFunctions/arm_rfft_fast_init_f32.c ****   return ARM_MATH_SUCCESS;
 236              		.loc 1 153 10 is_stmt 0 view .LVU71
 237 0018 0020     		movs	r0, #0
 148:./Libraries/CMSIS/DSP/Source/TransformFunctions/arm_rfft_fast_init_f32.c ****   Sint->pBitRevTable = (uint16_t *)armBitRevIndexTable128;
 238              		.loc 1 148 22 view .LVU72
 239 001a 9D81     		strh	r5, [r3, #12]	@ movhi
 149:./Libraries/CMSIS/DSP/Source/TransformFunctions/arm_rfft_fast_init_f32.c ****   Sint->pTwiddle     = (float32_t *) twiddleCoef_128;
 240              		.loc 1 149 3 is_stmt 1 view .LVU73
 151:./Libraries/CMSIS/DSP/Source/TransformFunctions/arm_rfft_fast_init_f32.c **** 
 241              		.loc 1 151 22 is_stmt 0 view .LVU74
 242 001c 5A61     		str	r2, [r3, #20]
 150:./Libraries/CMSIS/DSP/Source/TransformFunctions/arm_rfft_fast_init_f32.c ****   S->pTwiddleRFFT    = (float32_t *) twiddleCoef_rfft_256;
 243              		.loc 1 150 22 view .LVU75
 244 001e C3E90114 		strd	r1, r4, [r3, #4]
 151:./Libraries/CMSIS/DSP/Source/TransformFunctions/arm_rfft_fast_init_f32.c **** 
 245              		.loc 1 151 3 is_stmt 1 view .LVU76
 246              		.loc 1 153 3 view .LVU77
 154:./Libraries/CMSIS/DSP/Source/TransformFunctions/arm_rfft_fast_init_f32.c **** }
 247              		.loc 1 154 1 is_stmt 0 view .LVU78
 248 0022 30BC     		pop	{r4, r5}
 249              	.LCFI5:
 250              		.cfi_restore 5
 251              		.cfi_restore 4
 252              		.cfi_def_cfa_offset 0
 253 0024 7047     		bx	lr
 254              	.LVL13:
 255              	.L22:
 142:./Libraries/CMSIS/DSP/Source/TransformFunctions/arm_rfft_fast_init_f32.c **** 
 256              		.loc 1 142 19 view .LVU79
 257 0026 4FF0FF30 		mov	r0, #-1
 258              	.LVL14:
 259              		.loc 1 154 1 view .LVU80
 260 002a 7047     		bx	lr
 261              	.L28:
 262              		.align	2
 263              	.L27:
 264 002c 00000000 		.word	twiddleCoef_128
 265 0030 00000000 		.word	armBitRevIndexTable128
ARM GAS  /tmp/cc9WBzb6.s 			page 9


 266 0034 00000000 		.word	twiddleCoef_rfft_256
 267              		.cfi_endproc
 268              	.LFE148:
 270              		.section	.text.arm_rfft_512_fast_init_f32,"ax",%progbits
 271              		.align	1
 272              		.p2align 2,,3
 273              		.global	arm_rfft_512_fast_init_f32
 274              		.syntax unified
 275              		.thumb
 276              		.thumb_func
 277              		.fpu fpv5-d16
 279              	arm_rfft_512_fast_init_f32:
 280              	.LVL15:
 281              	.LFB149:
 155:./Libraries/CMSIS/DSP/Source/TransformFunctions/arm_rfft_fast_init_f32.c **** #endif 
 156:./Libraries/CMSIS/DSP/Source/TransformFunctions/arm_rfft_fast_init_f32.c **** 
 157:./Libraries/CMSIS/DSP/Source/TransformFunctions/arm_rfft_fast_init_f32.c **** #if !defined(ARM_DSP_CONFIG_TABLES) || defined(ARM_ALL_FFT_TABLES) || (defined(ARM_TABLE_TWIDDLECOE
 158:./Libraries/CMSIS/DSP/Source/TransformFunctions/arm_rfft_fast_init_f32.c **** 
 159:./Libraries/CMSIS/DSP/Source/TransformFunctions/arm_rfft_fast_init_f32.c **** /**
 160:./Libraries/CMSIS/DSP/Source/TransformFunctions/arm_rfft_fast_init_f32.c ****   @brief         Initialization function for the 512pt floating-point real FFT.
 161:./Libraries/CMSIS/DSP/Source/TransformFunctions/arm_rfft_fast_init_f32.c ****   @param[in,out] S  points to an arm_rfft_fast_instance_f32 structure
 162:./Libraries/CMSIS/DSP/Source/TransformFunctions/arm_rfft_fast_init_f32.c ****   @return        execution status
 163:./Libraries/CMSIS/DSP/Source/TransformFunctions/arm_rfft_fast_init_f32.c ****                    - \ref ARM_MATH_SUCCESS        : Operation successful
 164:./Libraries/CMSIS/DSP/Source/TransformFunctions/arm_rfft_fast_init_f32.c ****                    - \ref ARM_MATH_ARGUMENT_ERROR : an error is detected
 165:./Libraries/CMSIS/DSP/Source/TransformFunctions/arm_rfft_fast_init_f32.c ****  */
 166:./Libraries/CMSIS/DSP/Source/TransformFunctions/arm_rfft_fast_init_f32.c **** 
 167:./Libraries/CMSIS/DSP/Source/TransformFunctions/arm_rfft_fast_init_f32.c **** arm_status arm_rfft_512_fast_init_f32( arm_rfft_fast_instance_f32 * S ) {
 282              		.loc 1 167 73 is_stmt 1 view -0
 283              		.cfi_startproc
 284              		@ args = 0, pretend = 0, frame = 0
 285              		@ frame_needed = 0, uses_anonymous_args = 0
 286              		@ link register save eliminated.
 168:./Libraries/CMSIS/DSP/Source/TransformFunctions/arm_rfft_fast_init_f32.c **** 
 169:./Libraries/CMSIS/DSP/Source/TransformFunctions/arm_rfft_fast_init_f32.c ****   arm_cfft_instance_f32 * Sint;
 287              		.loc 1 169 3 view .LVU82
 170:./Libraries/CMSIS/DSP/Source/TransformFunctions/arm_rfft_fast_init_f32.c **** 
 171:./Libraries/CMSIS/DSP/Source/TransformFunctions/arm_rfft_fast_init_f32.c ****   if( !S ) return ARM_MATH_ARGUMENT_ERROR;
 288              		.loc 1 171 3 view .LVU83
 289              		.loc 1 171 5 is_stmt 0 view .LVU84
 290 0000 98B1     		cbz	r0, .L31
 291 0002 0346     		mov	r3, r0
 172:./Libraries/CMSIS/DSP/Source/TransformFunctions/arm_rfft_fast_init_f32.c **** 
 173:./Libraries/CMSIS/DSP/Source/TransformFunctions/arm_rfft_fast_init_f32.c ****   Sint = &(S->Sint);
 292              		.loc 1 173 3 is_stmt 1 view .LVU85
 293              	.LVL16:
 174:./Libraries/CMSIS/DSP/Source/TransformFunctions/arm_rfft_fast_init_f32.c ****   Sint->fftLen = 256U;
 294              		.loc 1 174 3 view .LVU86
 175:./Libraries/CMSIS/DSP/Source/TransformFunctions/arm_rfft_fast_init_f32.c ****   S->fftLenRFFT = 512U;
 295              		.loc 1 175 17 is_stmt 0 view .LVU87
 296 0004 4FF40072 		mov	r2, #512
 174:./Libraries/CMSIS/DSP/Source/TransformFunctions/arm_rfft_fast_init_f32.c ****   Sint->fftLen = 256U;
 297              		.loc 1 174 16 view .LVU88
 298 0008 4FF48070 		mov	r0, #256
 299              	.LVL17:
 176:./Libraries/CMSIS/DSP/Source/TransformFunctions/arm_rfft_fast_init_f32.c **** 
 177:./Libraries/CMSIS/DSP/Source/TransformFunctions/arm_rfft_fast_init_f32.c ****   Sint->bitRevLength = ARMBITREVINDEXTABLE_256_TABLE_LENGTH;
 178:./Libraries/CMSIS/DSP/Source/TransformFunctions/arm_rfft_fast_init_f32.c ****   Sint->pBitRevTable = (uint16_t *)armBitRevIndexTable256;
ARM GAS  /tmp/cc9WBzb6.s 			page 10


 179:./Libraries/CMSIS/DSP/Source/TransformFunctions/arm_rfft_fast_init_f32.c ****   Sint->pTwiddle     = (float32_t *) twiddleCoef_256;
 300              		.loc 1 179 22 view .LVU89
 301 000c 0849     		ldr	r1, .L36
 167:./Libraries/CMSIS/DSP/Source/TransformFunctions/arm_rfft_fast_init_f32.c **** 
 302              		.loc 1 167 73 view .LVU90
 303 000e 30B4     		push	{r4, r5}
 304              	.LCFI6:
 305              		.cfi_def_cfa_offset 8
 306              		.cfi_offset 4, -8
 307              		.cfi_offset 5, -4
 177:./Libraries/CMSIS/DSP/Source/TransformFunctions/arm_rfft_fast_init_f32.c ****   Sint->pBitRevTable = (uint16_t *)armBitRevIndexTable256;
 308              		.loc 1 177 22 view .LVU91
 309 0010 4FF4DC75 		mov	r5, #440
 178:./Libraries/CMSIS/DSP/Source/TransformFunctions/arm_rfft_fast_init_f32.c ****   Sint->pTwiddle     = (float32_t *) twiddleCoef_256;
 310              		.loc 1 178 22 view .LVU92
 311 0014 074C     		ldr	r4, .L36+4
 175:./Libraries/CMSIS/DSP/Source/TransformFunctions/arm_rfft_fast_init_f32.c **** 
 312              		.loc 1 175 17 view .LVU93
 313 0016 1A82     		strh	r2, [r3, #16]	@ movhi
 180:./Libraries/CMSIS/DSP/Source/TransformFunctions/arm_rfft_fast_init_f32.c ****   S->pTwiddleRFFT    = (float32_t *) twiddleCoef_rfft_512;
 314              		.loc 1 180 22 view .LVU94
 315 0018 074A     		ldr	r2, .L36+8
 174:./Libraries/CMSIS/DSP/Source/TransformFunctions/arm_rfft_fast_init_f32.c ****   S->fftLenRFFT = 512U;
 316              		.loc 1 174 16 view .LVU95
 317 001a 1880     		strh	r0, [r3]	@ movhi
 175:./Libraries/CMSIS/DSP/Source/TransformFunctions/arm_rfft_fast_init_f32.c **** 
 318              		.loc 1 175 3 is_stmt 1 view .LVU96
 177:./Libraries/CMSIS/DSP/Source/TransformFunctions/arm_rfft_fast_init_f32.c ****   Sint->pBitRevTable = (uint16_t *)armBitRevIndexTable256;
 319              		.loc 1 177 3 view .LVU97
 181:./Libraries/CMSIS/DSP/Source/TransformFunctions/arm_rfft_fast_init_f32.c **** 
 182:./Libraries/CMSIS/DSP/Source/TransformFunctions/arm_rfft_fast_init_f32.c ****   return ARM_MATH_SUCCESS;
 320              		.loc 1 182 10 is_stmt 0 view .LVU98
 321 001c 0020     		movs	r0, #0
 177:./Libraries/CMSIS/DSP/Source/TransformFunctions/arm_rfft_fast_init_f32.c ****   Sint->pBitRevTable = (uint16_t *)armBitRevIndexTable256;
 322              		.loc 1 177 22 view .LVU99
 323 001e 9D81     		strh	r5, [r3, #12]	@ movhi
 178:./Libraries/CMSIS/DSP/Source/TransformFunctions/arm_rfft_fast_init_f32.c ****   Sint->pTwiddle     = (float32_t *) twiddleCoef_256;
 324              		.loc 1 178 3 is_stmt 1 view .LVU100
 180:./Libraries/CMSIS/DSP/Source/TransformFunctions/arm_rfft_fast_init_f32.c **** 
 325              		.loc 1 180 22 is_stmt 0 view .LVU101
 326 0020 5A61     		str	r2, [r3, #20]
 179:./Libraries/CMSIS/DSP/Source/TransformFunctions/arm_rfft_fast_init_f32.c ****   S->pTwiddleRFFT    = (float32_t *) twiddleCoef_rfft_512;
 327              		.loc 1 179 22 view .LVU102
 328 0022 C3E90114 		strd	r1, r4, [r3, #4]
 180:./Libraries/CMSIS/DSP/Source/TransformFunctions/arm_rfft_fast_init_f32.c **** 
 329              		.loc 1 180 3 is_stmt 1 view .LVU103
 330              		.loc 1 182 3 view .LVU104
 183:./Libraries/CMSIS/DSP/Source/TransformFunctions/arm_rfft_fast_init_f32.c **** }
 331              		.loc 1 183 1 is_stmt 0 view .LVU105
 332 0026 30BC     		pop	{r4, r5}
 333              	.LCFI7:
 334              		.cfi_restore 5
 335              		.cfi_restore 4
 336              		.cfi_def_cfa_offset 0
 337 0028 7047     		bx	lr
 338              	.LVL18:
 339              	.L31:
ARM GAS  /tmp/cc9WBzb6.s 			page 11


 171:./Libraries/CMSIS/DSP/Source/TransformFunctions/arm_rfft_fast_init_f32.c **** 
 340              		.loc 1 171 19 view .LVU106
 341 002a 4FF0FF30 		mov	r0, #-1
 342              	.LVL19:
 343              		.loc 1 183 1 view .LVU107
 344 002e 7047     		bx	lr
 345              	.L37:
 346              		.align	2
 347              	.L36:
 348 0030 00000000 		.word	twiddleCoef_256
 349 0034 00000000 		.word	armBitRevIndexTable256
 350 0038 00000000 		.word	twiddleCoef_rfft_512
 351              		.cfi_endproc
 352              	.LFE149:
 354              		.section	.text.arm_rfft_1024_fast_init_f32,"ax",%progbits
 355              		.align	1
 356              		.p2align 2,,3
 357              		.global	arm_rfft_1024_fast_init_f32
 358              		.syntax unified
 359              		.thumb
 360              		.thumb_func
 361              		.fpu fpv5-d16
 363              	arm_rfft_1024_fast_init_f32:
 364              	.LVL20:
 365              	.LFB150:
 184:./Libraries/CMSIS/DSP/Source/TransformFunctions/arm_rfft_fast_init_f32.c **** #endif 
 185:./Libraries/CMSIS/DSP/Source/TransformFunctions/arm_rfft_fast_init_f32.c **** 
 186:./Libraries/CMSIS/DSP/Source/TransformFunctions/arm_rfft_fast_init_f32.c **** #if !defined(ARM_DSP_CONFIG_TABLES) || defined(ARM_ALL_FFT_TABLES) || (defined(ARM_TABLE_TWIDDLECOE
 187:./Libraries/CMSIS/DSP/Source/TransformFunctions/arm_rfft_fast_init_f32.c **** /**
 188:./Libraries/CMSIS/DSP/Source/TransformFunctions/arm_rfft_fast_init_f32.c ****   @brief         Initialization function for the 1024pt floating-point real FFT.
 189:./Libraries/CMSIS/DSP/Source/TransformFunctions/arm_rfft_fast_init_f32.c ****   @param[in,out] S  points to an arm_rfft_fast_instance_f32 structure
 190:./Libraries/CMSIS/DSP/Source/TransformFunctions/arm_rfft_fast_init_f32.c ****   @return        execution status
 191:./Libraries/CMSIS/DSP/Source/TransformFunctions/arm_rfft_fast_init_f32.c ****                    - \ref ARM_MATH_SUCCESS        : Operation successful
 192:./Libraries/CMSIS/DSP/Source/TransformFunctions/arm_rfft_fast_init_f32.c ****                    - \ref ARM_MATH_ARGUMENT_ERROR : an error is detected
 193:./Libraries/CMSIS/DSP/Source/TransformFunctions/arm_rfft_fast_init_f32.c ****  */
 194:./Libraries/CMSIS/DSP/Source/TransformFunctions/arm_rfft_fast_init_f32.c **** 
 195:./Libraries/CMSIS/DSP/Source/TransformFunctions/arm_rfft_fast_init_f32.c **** arm_status arm_rfft_1024_fast_init_f32( arm_rfft_fast_instance_f32 * S ) {
 366              		.loc 1 195 74 is_stmt 1 view -0
 367              		.cfi_startproc
 368              		@ args = 0, pretend = 0, frame = 0
 369              		@ frame_needed = 0, uses_anonymous_args = 0
 370              		@ link register save eliminated.
 196:./Libraries/CMSIS/DSP/Source/TransformFunctions/arm_rfft_fast_init_f32.c **** 
 197:./Libraries/CMSIS/DSP/Source/TransformFunctions/arm_rfft_fast_init_f32.c ****   arm_cfft_instance_f32 * Sint;
 371              		.loc 1 197 3 view .LVU109
 198:./Libraries/CMSIS/DSP/Source/TransformFunctions/arm_rfft_fast_init_f32.c **** 
 199:./Libraries/CMSIS/DSP/Source/TransformFunctions/arm_rfft_fast_init_f32.c ****   if( !S ) return ARM_MATH_ARGUMENT_ERROR;
 372              		.loc 1 199 3 view .LVU110
 373              		.loc 1 199 5 is_stmt 0 view .LVU111
 374 0000 98B1     		cbz	r0, .L40
 375 0002 0346     		mov	r3, r0
 200:./Libraries/CMSIS/DSP/Source/TransformFunctions/arm_rfft_fast_init_f32.c **** 
 201:./Libraries/CMSIS/DSP/Source/TransformFunctions/arm_rfft_fast_init_f32.c ****   Sint = &(S->Sint);
 376              		.loc 1 201 3 is_stmt 1 view .LVU112
 377              	.LVL21:
 202:./Libraries/CMSIS/DSP/Source/TransformFunctions/arm_rfft_fast_init_f32.c ****   Sint->fftLen = 512U;
 378              		.loc 1 202 3 view .LVU113
ARM GAS  /tmp/cc9WBzb6.s 			page 12


 203:./Libraries/CMSIS/DSP/Source/TransformFunctions/arm_rfft_fast_init_f32.c ****   S->fftLenRFFT = 1024U;
 379              		.loc 1 203 17 is_stmt 0 view .LVU114
 380 0004 4FF48062 		mov	r2, #1024
 202:./Libraries/CMSIS/DSP/Source/TransformFunctions/arm_rfft_fast_init_f32.c ****   Sint->fftLen = 512U;
 381              		.loc 1 202 16 view .LVU115
 382 0008 4FF40070 		mov	r0, #512
 383              	.LVL22:
 204:./Libraries/CMSIS/DSP/Source/TransformFunctions/arm_rfft_fast_init_f32.c **** 
 205:./Libraries/CMSIS/DSP/Source/TransformFunctions/arm_rfft_fast_init_f32.c ****   Sint->bitRevLength = ARMBITREVINDEXTABLE_512_TABLE_LENGTH;
 206:./Libraries/CMSIS/DSP/Source/TransformFunctions/arm_rfft_fast_init_f32.c ****   Sint->pBitRevTable = (uint16_t *)armBitRevIndexTable512;
 207:./Libraries/CMSIS/DSP/Source/TransformFunctions/arm_rfft_fast_init_f32.c ****   Sint->pTwiddle     = (float32_t *) twiddleCoef_512;
 384              		.loc 1 207 22 view .LVU116
 385 000c 0849     		ldr	r1, .L45
 195:./Libraries/CMSIS/DSP/Source/TransformFunctions/arm_rfft_fast_init_f32.c **** 
 386              		.loc 1 195 74 view .LVU117
 387 000e 30B4     		push	{r4, r5}
 388              	.LCFI8:
 389              		.cfi_def_cfa_offset 8
 390              		.cfi_offset 4, -8
 391              		.cfi_offset 5, -4
 205:./Libraries/CMSIS/DSP/Source/TransformFunctions/arm_rfft_fast_init_f32.c ****   Sint->pBitRevTable = (uint16_t *)armBitRevIndexTable512;
 392              		.loc 1 205 22 view .LVU118
 393 0010 4FF4E075 		mov	r5, #448
 206:./Libraries/CMSIS/DSP/Source/TransformFunctions/arm_rfft_fast_init_f32.c ****   Sint->pTwiddle     = (float32_t *) twiddleCoef_512;
 394              		.loc 1 206 22 view .LVU119
 395 0014 074C     		ldr	r4, .L45+4
 203:./Libraries/CMSIS/DSP/Source/TransformFunctions/arm_rfft_fast_init_f32.c **** 
 396              		.loc 1 203 17 view .LVU120
 397 0016 1A82     		strh	r2, [r3, #16]	@ movhi
 208:./Libraries/CMSIS/DSP/Source/TransformFunctions/arm_rfft_fast_init_f32.c ****   S->pTwiddleRFFT    = (float32_t *) twiddleCoef_rfft_1024;
 398              		.loc 1 208 22 view .LVU121
 399 0018 074A     		ldr	r2, .L45+8
 202:./Libraries/CMSIS/DSP/Source/TransformFunctions/arm_rfft_fast_init_f32.c ****   S->fftLenRFFT = 1024U;
 400              		.loc 1 202 16 view .LVU122
 401 001a 1880     		strh	r0, [r3]	@ movhi
 203:./Libraries/CMSIS/DSP/Source/TransformFunctions/arm_rfft_fast_init_f32.c **** 
 402              		.loc 1 203 3 is_stmt 1 view .LVU123
 205:./Libraries/CMSIS/DSP/Source/TransformFunctions/arm_rfft_fast_init_f32.c ****   Sint->pBitRevTable = (uint16_t *)armBitRevIndexTable512;
 403              		.loc 1 205 3 view .LVU124
 209:./Libraries/CMSIS/DSP/Source/TransformFunctions/arm_rfft_fast_init_f32.c **** 
 210:./Libraries/CMSIS/DSP/Source/TransformFunctions/arm_rfft_fast_init_f32.c ****   return ARM_MATH_SUCCESS;
 404              		.loc 1 210 10 is_stmt 0 view .LVU125
 405 001c 0020     		movs	r0, #0
 205:./Libraries/CMSIS/DSP/Source/TransformFunctions/arm_rfft_fast_init_f32.c ****   Sint->pBitRevTable = (uint16_t *)armBitRevIndexTable512;
 406              		.loc 1 205 22 view .LVU126
 407 001e 9D81     		strh	r5, [r3, #12]	@ movhi
 206:./Libraries/CMSIS/DSP/Source/TransformFunctions/arm_rfft_fast_init_f32.c ****   Sint->pTwiddle     = (float32_t *) twiddleCoef_512;
 408              		.loc 1 206 3 is_stmt 1 view .LVU127
 208:./Libraries/CMSIS/DSP/Source/TransformFunctions/arm_rfft_fast_init_f32.c **** 
 409              		.loc 1 208 22 is_stmt 0 view .LVU128
 410 0020 5A61     		str	r2, [r3, #20]
 207:./Libraries/CMSIS/DSP/Source/TransformFunctions/arm_rfft_fast_init_f32.c ****   S->pTwiddleRFFT    = (float32_t *) twiddleCoef_rfft_1024;
 411              		.loc 1 207 22 view .LVU129
 412 0022 C3E90114 		strd	r1, r4, [r3, #4]
 208:./Libraries/CMSIS/DSP/Source/TransformFunctions/arm_rfft_fast_init_f32.c **** 
 413              		.loc 1 208 3 is_stmt 1 view .LVU130
 414              		.loc 1 210 3 view .LVU131
ARM GAS  /tmp/cc9WBzb6.s 			page 13


 211:./Libraries/CMSIS/DSP/Source/TransformFunctions/arm_rfft_fast_init_f32.c **** }
 415              		.loc 1 211 1 is_stmt 0 view .LVU132
 416 0026 30BC     		pop	{r4, r5}
 417              	.LCFI9:
 418              		.cfi_restore 5
 419              		.cfi_restore 4
 420              		.cfi_def_cfa_offset 0
 421 0028 7047     		bx	lr
 422              	.LVL23:
 423              	.L40:
 199:./Libraries/CMSIS/DSP/Source/TransformFunctions/arm_rfft_fast_init_f32.c **** 
 424              		.loc 1 199 19 view .LVU133
 425 002a 4FF0FF30 		mov	r0, #-1
 426              	.LVL24:
 427              		.loc 1 211 1 view .LVU134
 428 002e 7047     		bx	lr
 429              	.L46:
 430              		.align	2
 431              	.L45:
 432 0030 00000000 		.word	twiddleCoef_512
 433 0034 00000000 		.word	armBitRevIndexTable512
 434 0038 00000000 		.word	twiddleCoef_rfft_1024
 435              		.cfi_endproc
 436              	.LFE150:
 438              		.section	.text.arm_rfft_2048_fast_init_f32,"ax",%progbits
 439              		.align	1
 440              		.p2align 2,,3
 441              		.global	arm_rfft_2048_fast_init_f32
 442              		.syntax unified
 443              		.thumb
 444              		.thumb_func
 445              		.fpu fpv5-d16
 447              	arm_rfft_2048_fast_init_f32:
 448              	.LVL25:
 449              	.LFB151:
 212:./Libraries/CMSIS/DSP/Source/TransformFunctions/arm_rfft_fast_init_f32.c **** #endif
 213:./Libraries/CMSIS/DSP/Source/TransformFunctions/arm_rfft_fast_init_f32.c **** 
 214:./Libraries/CMSIS/DSP/Source/TransformFunctions/arm_rfft_fast_init_f32.c **** #if !defined(ARM_DSP_CONFIG_TABLES) || defined(ARM_ALL_FFT_TABLES) || (defined(ARM_TABLE_TWIDDLECOE
 215:./Libraries/CMSIS/DSP/Source/TransformFunctions/arm_rfft_fast_init_f32.c **** /**
 216:./Libraries/CMSIS/DSP/Source/TransformFunctions/arm_rfft_fast_init_f32.c ****   @brief         Initialization function for the 2048pt floating-point real FFT.
 217:./Libraries/CMSIS/DSP/Source/TransformFunctions/arm_rfft_fast_init_f32.c ****   @param[in,out] S  points to an arm_rfft_fast_instance_f32 structure
 218:./Libraries/CMSIS/DSP/Source/TransformFunctions/arm_rfft_fast_init_f32.c ****   @return        execution status
 219:./Libraries/CMSIS/DSP/Source/TransformFunctions/arm_rfft_fast_init_f32.c ****                    - \ref ARM_MATH_SUCCESS        : Operation successful
 220:./Libraries/CMSIS/DSP/Source/TransformFunctions/arm_rfft_fast_init_f32.c ****                    - \ref ARM_MATH_ARGUMENT_ERROR : an error is detected
 221:./Libraries/CMSIS/DSP/Source/TransformFunctions/arm_rfft_fast_init_f32.c ****  */
 222:./Libraries/CMSIS/DSP/Source/TransformFunctions/arm_rfft_fast_init_f32.c **** arm_status arm_rfft_2048_fast_init_f32( arm_rfft_fast_instance_f32 * S ) {
 450              		.loc 1 222 74 is_stmt 1 view -0
 451              		.cfi_startproc
 452              		@ args = 0, pretend = 0, frame = 0
 453              		@ frame_needed = 0, uses_anonymous_args = 0
 454              		@ link register save eliminated.
 223:./Libraries/CMSIS/DSP/Source/TransformFunctions/arm_rfft_fast_init_f32.c **** 
 224:./Libraries/CMSIS/DSP/Source/TransformFunctions/arm_rfft_fast_init_f32.c ****   arm_cfft_instance_f32 * Sint;
 455              		.loc 1 224 3 view .LVU136
 225:./Libraries/CMSIS/DSP/Source/TransformFunctions/arm_rfft_fast_init_f32.c **** 
 226:./Libraries/CMSIS/DSP/Source/TransformFunctions/arm_rfft_fast_init_f32.c ****   if( !S ) return ARM_MATH_ARGUMENT_ERROR;
 456              		.loc 1 226 3 view .LVU137
ARM GAS  /tmp/cc9WBzb6.s 			page 14


 457              		.loc 1 226 5 is_stmt 0 view .LVU138
 458 0000 98B1     		cbz	r0, .L49
 459 0002 0346     		mov	r3, r0
 227:./Libraries/CMSIS/DSP/Source/TransformFunctions/arm_rfft_fast_init_f32.c **** 
 228:./Libraries/CMSIS/DSP/Source/TransformFunctions/arm_rfft_fast_init_f32.c ****   Sint = &(S->Sint);
 460              		.loc 1 228 3 is_stmt 1 view .LVU139
 461              	.LVL26:
 229:./Libraries/CMSIS/DSP/Source/TransformFunctions/arm_rfft_fast_init_f32.c ****   Sint->fftLen = 1024U;
 462              		.loc 1 229 3 view .LVU140
 230:./Libraries/CMSIS/DSP/Source/TransformFunctions/arm_rfft_fast_init_f32.c ****   S->fftLenRFFT = 2048U;
 463              		.loc 1 230 17 is_stmt 0 view .LVU141
 464 0004 4FF40062 		mov	r2, #2048
 229:./Libraries/CMSIS/DSP/Source/TransformFunctions/arm_rfft_fast_init_f32.c ****   Sint->fftLen = 1024U;
 465              		.loc 1 229 16 view .LVU142
 466 0008 4FF48060 		mov	r0, #1024
 467              	.LVL27:
 231:./Libraries/CMSIS/DSP/Source/TransformFunctions/arm_rfft_fast_init_f32.c **** 
 232:./Libraries/CMSIS/DSP/Source/TransformFunctions/arm_rfft_fast_init_f32.c ****   Sint->bitRevLength = ARMBITREVINDEXTABLE_1024_TABLE_LENGTH;
 233:./Libraries/CMSIS/DSP/Source/TransformFunctions/arm_rfft_fast_init_f32.c ****   Sint->pBitRevTable = (uint16_t *)armBitRevIndexTable1024;
 234:./Libraries/CMSIS/DSP/Source/TransformFunctions/arm_rfft_fast_init_f32.c ****   Sint->pTwiddle     = (float32_t *) twiddleCoef_1024;
 468              		.loc 1 234 22 view .LVU143
 469 000c 0849     		ldr	r1, .L54
 222:./Libraries/CMSIS/DSP/Source/TransformFunctions/arm_rfft_fast_init_f32.c **** 
 470              		.loc 1 222 74 view .LVU144
 471 000e 30B4     		push	{r4, r5}
 472              	.LCFI10:
 473              		.cfi_def_cfa_offset 8
 474              		.cfi_offset 4, -8
 475              		.cfi_offset 5, -4
 232:./Libraries/CMSIS/DSP/Source/TransformFunctions/arm_rfft_fast_init_f32.c ****   Sint->pBitRevTable = (uint16_t *)armBitRevIndexTable1024;
 476              		.loc 1 232 22 view .LVU145
 477 0010 4FF4E165 		mov	r5, #1800
 233:./Libraries/CMSIS/DSP/Source/TransformFunctions/arm_rfft_fast_init_f32.c ****   Sint->pTwiddle     = (float32_t *) twiddleCoef_1024;
 478              		.loc 1 233 22 view .LVU146
 479 0014 074C     		ldr	r4, .L54+4
 230:./Libraries/CMSIS/DSP/Source/TransformFunctions/arm_rfft_fast_init_f32.c **** 
 480              		.loc 1 230 17 view .LVU147
 481 0016 1A82     		strh	r2, [r3, #16]	@ movhi
 235:./Libraries/CMSIS/DSP/Source/TransformFunctions/arm_rfft_fast_init_f32.c ****   S->pTwiddleRFFT    = (float32_t *) twiddleCoef_rfft_2048;
 482              		.loc 1 235 22 view .LVU148
 483 0018 074A     		ldr	r2, .L54+8
 229:./Libraries/CMSIS/DSP/Source/TransformFunctions/arm_rfft_fast_init_f32.c ****   S->fftLenRFFT = 2048U;
 484              		.loc 1 229 16 view .LVU149
 485 001a 1880     		strh	r0, [r3]	@ movhi
 230:./Libraries/CMSIS/DSP/Source/TransformFunctions/arm_rfft_fast_init_f32.c **** 
 486              		.loc 1 230 3 is_stmt 1 view .LVU150
 232:./Libraries/CMSIS/DSP/Source/TransformFunctions/arm_rfft_fast_init_f32.c ****   Sint->pBitRevTable = (uint16_t *)armBitRevIndexTable1024;
 487              		.loc 1 232 3 view .LVU151
 236:./Libraries/CMSIS/DSP/Source/TransformFunctions/arm_rfft_fast_init_f32.c **** 
 237:./Libraries/CMSIS/DSP/Source/TransformFunctions/arm_rfft_fast_init_f32.c ****   return ARM_MATH_SUCCESS;
 488              		.loc 1 237 10 is_stmt 0 view .LVU152
 489 001c 0020     		movs	r0, #0
 232:./Libraries/CMSIS/DSP/Source/TransformFunctions/arm_rfft_fast_init_f32.c ****   Sint->pBitRevTable = (uint16_t *)armBitRevIndexTable1024;
 490              		.loc 1 232 22 view .LVU153
 491 001e 9D81     		strh	r5, [r3, #12]	@ movhi
 233:./Libraries/CMSIS/DSP/Source/TransformFunctions/arm_rfft_fast_init_f32.c ****   Sint->pTwiddle     = (float32_t *) twiddleCoef_1024;
 492              		.loc 1 233 3 is_stmt 1 view .LVU154
ARM GAS  /tmp/cc9WBzb6.s 			page 15


 235:./Libraries/CMSIS/DSP/Source/TransformFunctions/arm_rfft_fast_init_f32.c **** 
 493              		.loc 1 235 22 is_stmt 0 view .LVU155
 494 0020 5A61     		str	r2, [r3, #20]
 234:./Libraries/CMSIS/DSP/Source/TransformFunctions/arm_rfft_fast_init_f32.c ****   S->pTwiddleRFFT    = (float32_t *) twiddleCoef_rfft_2048;
 495              		.loc 1 234 22 view .LVU156
 496 0022 C3E90114 		strd	r1, r4, [r3, #4]
 235:./Libraries/CMSIS/DSP/Source/TransformFunctions/arm_rfft_fast_init_f32.c **** 
 497              		.loc 1 235 3 is_stmt 1 view .LVU157
 498              		.loc 1 237 3 view .LVU158
 238:./Libraries/CMSIS/DSP/Source/TransformFunctions/arm_rfft_fast_init_f32.c **** }
 499              		.loc 1 238 1 is_stmt 0 view .LVU159
 500 0026 30BC     		pop	{r4, r5}
 501              	.LCFI11:
 502              		.cfi_restore 5
 503              		.cfi_restore 4
 504              		.cfi_def_cfa_offset 0
 505 0028 7047     		bx	lr
 506              	.LVL28:
 507              	.L49:
 226:./Libraries/CMSIS/DSP/Source/TransformFunctions/arm_rfft_fast_init_f32.c **** 
 508              		.loc 1 226 19 view .LVU160
 509 002a 4FF0FF30 		mov	r0, #-1
 510              	.LVL29:
 511              		.loc 1 238 1 view .LVU161
 512 002e 7047     		bx	lr
 513              	.L55:
 514              		.align	2
 515              	.L54:
 516 0030 00000000 		.word	twiddleCoef_1024
 517 0034 00000000 		.word	armBitRevIndexTable1024
 518 0038 00000000 		.word	twiddleCoef_rfft_2048
 519              		.cfi_endproc
 520              	.LFE151:
 522              		.section	.text.arm_rfft_4096_fast_init_f32,"ax",%progbits
 523              		.align	1
 524              		.p2align 2,,3
 525              		.global	arm_rfft_4096_fast_init_f32
 526              		.syntax unified
 527              		.thumb
 528              		.thumb_func
 529              		.fpu fpv5-d16
 531              	arm_rfft_4096_fast_init_f32:
 532              	.LVL30:
 533              	.LFB152:
 239:./Libraries/CMSIS/DSP/Source/TransformFunctions/arm_rfft_fast_init_f32.c **** #endif
 240:./Libraries/CMSIS/DSP/Source/TransformFunctions/arm_rfft_fast_init_f32.c **** 
 241:./Libraries/CMSIS/DSP/Source/TransformFunctions/arm_rfft_fast_init_f32.c **** #if !defined(ARM_DSP_CONFIG_TABLES) || defined(ARM_ALL_FFT_TABLES) || (defined(ARM_TABLE_TWIDDLECOE
 242:./Libraries/CMSIS/DSP/Source/TransformFunctions/arm_rfft_fast_init_f32.c **** /**
 243:./Libraries/CMSIS/DSP/Source/TransformFunctions/arm_rfft_fast_init_f32.c **** * @brief         Initialization function for the 4096pt floating-point real FFT.
 244:./Libraries/CMSIS/DSP/Source/TransformFunctions/arm_rfft_fast_init_f32.c **** * @param[in,out] S  points to an arm_rfft_fast_instance_f32 structure
 245:./Libraries/CMSIS/DSP/Source/TransformFunctions/arm_rfft_fast_init_f32.c ****   @return        execution status
 246:./Libraries/CMSIS/DSP/Source/TransformFunctions/arm_rfft_fast_init_f32.c ****                    - \ref ARM_MATH_SUCCESS        : Operation successful
 247:./Libraries/CMSIS/DSP/Source/TransformFunctions/arm_rfft_fast_init_f32.c ****                    - \ref ARM_MATH_ARGUMENT_ERROR : an error is detected
 248:./Libraries/CMSIS/DSP/Source/TransformFunctions/arm_rfft_fast_init_f32.c ****  */
 249:./Libraries/CMSIS/DSP/Source/TransformFunctions/arm_rfft_fast_init_f32.c **** 
 250:./Libraries/CMSIS/DSP/Source/TransformFunctions/arm_rfft_fast_init_f32.c **** arm_status arm_rfft_4096_fast_init_f32( arm_rfft_fast_instance_f32 * S ) {
 534              		.loc 1 250 74 is_stmt 1 view -0
ARM GAS  /tmp/cc9WBzb6.s 			page 16


 535              		.cfi_startproc
 536              		@ args = 0, pretend = 0, frame = 0
 537              		@ frame_needed = 0, uses_anonymous_args = 0
 538              		@ link register save eliminated.
 251:./Libraries/CMSIS/DSP/Source/TransformFunctions/arm_rfft_fast_init_f32.c **** 
 252:./Libraries/CMSIS/DSP/Source/TransformFunctions/arm_rfft_fast_init_f32.c ****   arm_cfft_instance_f32 * Sint;
 539              		.loc 1 252 3 view .LVU163
 253:./Libraries/CMSIS/DSP/Source/TransformFunctions/arm_rfft_fast_init_f32.c **** 
 254:./Libraries/CMSIS/DSP/Source/TransformFunctions/arm_rfft_fast_init_f32.c ****   if( !S ) return ARM_MATH_ARGUMENT_ERROR;
 540              		.loc 1 254 3 view .LVU164
 541              		.loc 1 254 5 is_stmt 0 view .LVU165
 542 0000 98B1     		cbz	r0, .L58
 543 0002 0346     		mov	r3, r0
 255:./Libraries/CMSIS/DSP/Source/TransformFunctions/arm_rfft_fast_init_f32.c **** 
 256:./Libraries/CMSIS/DSP/Source/TransformFunctions/arm_rfft_fast_init_f32.c ****   Sint = &(S->Sint);
 544              		.loc 1 256 3 is_stmt 1 view .LVU166
 545              	.LVL31:
 257:./Libraries/CMSIS/DSP/Source/TransformFunctions/arm_rfft_fast_init_f32.c ****   Sint->fftLen = 2048U;
 546              		.loc 1 257 3 view .LVU167
 258:./Libraries/CMSIS/DSP/Source/TransformFunctions/arm_rfft_fast_init_f32.c ****   S->fftLenRFFT = 4096U;
 547              		.loc 1 258 17 is_stmt 0 view .LVU168
 548 0004 4FF48052 		mov	r2, #4096
 257:./Libraries/CMSIS/DSP/Source/TransformFunctions/arm_rfft_fast_init_f32.c ****   Sint->fftLen = 2048U;
 549              		.loc 1 257 16 view .LVU169
 550 0008 4FF40060 		mov	r0, #2048
 551              	.LVL32:
 259:./Libraries/CMSIS/DSP/Source/TransformFunctions/arm_rfft_fast_init_f32.c **** 
 260:./Libraries/CMSIS/DSP/Source/TransformFunctions/arm_rfft_fast_init_f32.c ****   Sint->bitRevLength = ARMBITREVINDEXTABLE_2048_TABLE_LENGTH;
 261:./Libraries/CMSIS/DSP/Source/TransformFunctions/arm_rfft_fast_init_f32.c ****   Sint->pBitRevTable = (uint16_t *)armBitRevIndexTable2048;
 262:./Libraries/CMSIS/DSP/Source/TransformFunctions/arm_rfft_fast_init_f32.c ****   Sint->pTwiddle     = (float32_t *) twiddleCoef_2048;
 552              		.loc 1 262 22 view .LVU170
 553 000c 0849     		ldr	r1, .L63
 250:./Libraries/CMSIS/DSP/Source/TransformFunctions/arm_rfft_fast_init_f32.c **** 
 554              		.loc 1 250 74 view .LVU171
 555 000e 30B4     		push	{r4, r5}
 556              	.LCFI12:
 557              		.cfi_def_cfa_offset 8
 558              		.cfi_offset 4, -8
 559              		.cfi_offset 5, -4
 260:./Libraries/CMSIS/DSP/Source/TransformFunctions/arm_rfft_fast_init_f32.c ****   Sint->pBitRevTable = (uint16_t *)armBitRevIndexTable2048;
 560              		.loc 1 260 22 view .LVU172
 561 0010 4FF46E65 		mov	r5, #3808
 261:./Libraries/CMSIS/DSP/Source/TransformFunctions/arm_rfft_fast_init_f32.c ****   Sint->pTwiddle     = (float32_t *) twiddleCoef_2048;
 562              		.loc 1 261 22 view .LVU173
 563 0014 074C     		ldr	r4, .L63+4
 258:./Libraries/CMSIS/DSP/Source/TransformFunctions/arm_rfft_fast_init_f32.c **** 
 564              		.loc 1 258 17 view .LVU174
 565 0016 1A82     		strh	r2, [r3, #16]	@ movhi
 263:./Libraries/CMSIS/DSP/Source/TransformFunctions/arm_rfft_fast_init_f32.c ****   S->pTwiddleRFFT    = (float32_t *) twiddleCoef_rfft_4096;
 566              		.loc 1 263 22 view .LVU175
 567 0018 074A     		ldr	r2, .L63+8
 257:./Libraries/CMSIS/DSP/Source/TransformFunctions/arm_rfft_fast_init_f32.c ****   S->fftLenRFFT = 4096U;
 568              		.loc 1 257 16 view .LVU176
 569 001a 1880     		strh	r0, [r3]	@ movhi
 258:./Libraries/CMSIS/DSP/Source/TransformFunctions/arm_rfft_fast_init_f32.c **** 
 570              		.loc 1 258 3 is_stmt 1 view .LVU177
 260:./Libraries/CMSIS/DSP/Source/TransformFunctions/arm_rfft_fast_init_f32.c ****   Sint->pBitRevTable = (uint16_t *)armBitRevIndexTable2048;
ARM GAS  /tmp/cc9WBzb6.s 			page 17


 571              		.loc 1 260 3 view .LVU178
 264:./Libraries/CMSIS/DSP/Source/TransformFunctions/arm_rfft_fast_init_f32.c **** 
 265:./Libraries/CMSIS/DSP/Source/TransformFunctions/arm_rfft_fast_init_f32.c ****   return ARM_MATH_SUCCESS;
 572              		.loc 1 265 10 is_stmt 0 view .LVU179
 573 001c 0020     		movs	r0, #0
 260:./Libraries/CMSIS/DSP/Source/TransformFunctions/arm_rfft_fast_init_f32.c ****   Sint->pBitRevTable = (uint16_t *)armBitRevIndexTable2048;
 574              		.loc 1 260 22 view .LVU180
 575 001e 9D81     		strh	r5, [r3, #12]	@ movhi
 261:./Libraries/CMSIS/DSP/Source/TransformFunctions/arm_rfft_fast_init_f32.c ****   Sint->pTwiddle     = (float32_t *) twiddleCoef_2048;
 576              		.loc 1 261 3 is_stmt 1 view .LVU181
 263:./Libraries/CMSIS/DSP/Source/TransformFunctions/arm_rfft_fast_init_f32.c **** 
 577              		.loc 1 263 22 is_stmt 0 view .LVU182
 578 0020 5A61     		str	r2, [r3, #20]
 262:./Libraries/CMSIS/DSP/Source/TransformFunctions/arm_rfft_fast_init_f32.c ****   S->pTwiddleRFFT    = (float32_t *) twiddleCoef_rfft_4096;
 579              		.loc 1 262 22 view .LVU183
 580 0022 C3E90114 		strd	r1, r4, [r3, #4]
 263:./Libraries/CMSIS/DSP/Source/TransformFunctions/arm_rfft_fast_init_f32.c **** 
 581              		.loc 1 263 3 is_stmt 1 view .LVU184
 582              		.loc 1 265 3 view .LVU185
 266:./Libraries/CMSIS/DSP/Source/TransformFunctions/arm_rfft_fast_init_f32.c **** }
 583              		.loc 1 266 1 is_stmt 0 view .LVU186
 584 0026 30BC     		pop	{r4, r5}
 585              	.LCFI13:
 586              		.cfi_restore 5
 587              		.cfi_restore 4
 588              		.cfi_def_cfa_offset 0
 589 0028 7047     		bx	lr
 590              	.LVL33:
 591              	.L58:
 254:./Libraries/CMSIS/DSP/Source/TransformFunctions/arm_rfft_fast_init_f32.c **** 
 592              		.loc 1 254 19 view .LVU187
 593 002a 4FF0FF30 		mov	r0, #-1
 594              	.LVL34:
 595              		.loc 1 266 1 view .LVU188
 596 002e 7047     		bx	lr
 597              	.L64:
 598              		.align	2
 599              	.L63:
 600 0030 00000000 		.word	twiddleCoef_2048
 601 0034 00000000 		.word	armBitRevIndexTable2048
 602 0038 00000000 		.word	twiddleCoef_rfft_4096
 603              		.cfi_endproc
 604              	.LFE152:
 606              		.section	.text.arm_rfft_128_fast_init_f32,"ax",%progbits
 607              		.align	1
 608              		.p2align 2,,3
 609              		.global	arm_rfft_128_fast_init_f32
 610              		.syntax unified
 611              		.thumb
 612              		.thumb_func
 613              		.fpu fpv5-d16
 615              	arm_rfft_128_fast_init_f32:
 616              	.LVL35:
 617              	.LFB147:
 109:./Libraries/CMSIS/DSP/Source/TransformFunctions/arm_rfft_fast_init_f32.c **** 
 618              		.loc 1 109 73 is_stmt 1 view -0
 619              		.cfi_startproc
ARM GAS  /tmp/cc9WBzb6.s 			page 18


 620              		@ args = 0, pretend = 0, frame = 0
 621              		@ frame_needed = 0, uses_anonymous_args = 0
 622              		@ link register save eliminated.
 111:./Libraries/CMSIS/DSP/Source/TransformFunctions/arm_rfft_fast_init_f32.c **** 
 623              		.loc 1 111 3 view .LVU190
 113:./Libraries/CMSIS/DSP/Source/TransformFunctions/arm_rfft_fast_init_f32.c **** 
 624              		.loc 1 113 3 view .LVU191
 113:./Libraries/CMSIS/DSP/Source/TransformFunctions/arm_rfft_fast_init_f32.c **** 
 625              		.loc 1 113 5 is_stmt 0 view .LVU192
 626 0000 80B1     		cbz	r0, .L67
 627 0002 0346     		mov	r3, r0
 115:./Libraries/CMSIS/DSP/Source/TransformFunctions/arm_rfft_fast_init_f32.c ****   Sint->fftLen = 64U;
 628              		.loc 1 115 3 is_stmt 1 view .LVU193
 629              	.LVL36:
 116:./Libraries/CMSIS/DSP/Source/TransformFunctions/arm_rfft_fast_init_f32.c ****   S->fftLenRFFT = 128U;
 630              		.loc 1 116 3 view .LVU194
 117:./Libraries/CMSIS/DSP/Source/TransformFunctions/arm_rfft_fast_init_f32.c **** 
 631              		.loc 1 117 17 is_stmt 0 view .LVU195
 632 0004 8022     		movs	r2, #128
 116:./Libraries/CMSIS/DSP/Source/TransformFunctions/arm_rfft_fast_init_f32.c ****   S->fftLenRFFT = 128U;
 633              		.loc 1 116 16 view .LVU196
 634 0006 4020     		movs	r0, #64
 635              	.LVL37:
 121:./Libraries/CMSIS/DSP/Source/TransformFunctions/arm_rfft_fast_init_f32.c ****   S->pTwiddleRFFT    = (float32_t *) twiddleCoef_rfft_128;
 636              		.loc 1 121 22 view .LVU197
 637 0008 0849     		ldr	r1, .L72
 109:./Libraries/CMSIS/DSP/Source/TransformFunctions/arm_rfft_fast_init_f32.c **** 
 638              		.loc 1 109 73 view .LVU198
 639 000a 30B4     		push	{r4, r5}
 640              	.LCFI14:
 641              		.cfi_def_cfa_offset 8
 642              		.cfi_offset 4, -8
 643              		.cfi_offset 5, -4
 119:./Libraries/CMSIS/DSP/Source/TransformFunctions/arm_rfft_fast_init_f32.c ****   Sint->pBitRevTable = (uint16_t *)armBitRevIndexTable64;
 644              		.loc 1 119 22 view .LVU199
 645 000c 3825     		movs	r5, #56
 120:./Libraries/CMSIS/DSP/Source/TransformFunctions/arm_rfft_fast_init_f32.c ****   Sint->pTwiddle     = (float32_t *) twiddleCoef_64;
 646              		.loc 1 120 22 view .LVU200
 647 000e 084C     		ldr	r4, .L72+4
 117:./Libraries/CMSIS/DSP/Source/TransformFunctions/arm_rfft_fast_init_f32.c **** 
 648              		.loc 1 117 17 view .LVU201
 649 0010 1A82     		strh	r2, [r3, #16]	@ movhi
 122:./Libraries/CMSIS/DSP/Source/TransformFunctions/arm_rfft_fast_init_f32.c **** 
 650              		.loc 1 122 22 view .LVU202
 651 0012 084A     		ldr	r2, .L72+8
 116:./Libraries/CMSIS/DSP/Source/TransformFunctions/arm_rfft_fast_init_f32.c ****   S->fftLenRFFT = 128U;
 652              		.loc 1 116 16 view .LVU203
 653 0014 1880     		strh	r0, [r3]	@ movhi
 117:./Libraries/CMSIS/DSP/Source/TransformFunctions/arm_rfft_fast_init_f32.c **** 
 654              		.loc 1 117 3 is_stmt 1 view .LVU204
 119:./Libraries/CMSIS/DSP/Source/TransformFunctions/arm_rfft_fast_init_f32.c ****   Sint->pBitRevTable = (uint16_t *)armBitRevIndexTable64;
 655              		.loc 1 119 3 view .LVU205
 124:./Libraries/CMSIS/DSP/Source/TransformFunctions/arm_rfft_fast_init_f32.c **** }
 656              		.loc 1 124 10 is_stmt 0 view .LVU206
 657 0016 0020     		movs	r0, #0
 119:./Libraries/CMSIS/DSP/Source/TransformFunctions/arm_rfft_fast_init_f32.c ****   Sint->pBitRevTable = (uint16_t *)armBitRevIndexTable64;
 658              		.loc 1 119 22 view .LVU207
ARM GAS  /tmp/cc9WBzb6.s 			page 19


 659 0018 9D81     		strh	r5, [r3, #12]	@ movhi
 120:./Libraries/CMSIS/DSP/Source/TransformFunctions/arm_rfft_fast_init_f32.c ****   Sint->pTwiddle     = (float32_t *) twiddleCoef_64;
 660              		.loc 1 120 3 is_stmt 1 view .LVU208
 122:./Libraries/CMSIS/DSP/Source/TransformFunctions/arm_rfft_fast_init_f32.c **** 
 661              		.loc 1 122 22 is_stmt 0 view .LVU209
 662 001a 5A61     		str	r2, [r3, #20]
 121:./Libraries/CMSIS/DSP/Source/TransformFunctions/arm_rfft_fast_init_f32.c ****   S->pTwiddleRFFT    = (float32_t *) twiddleCoef_rfft_128;
 663              		.loc 1 121 22 view .LVU210
 664 001c C3E90114 		strd	r1, r4, [r3, #4]
 122:./Libraries/CMSIS/DSP/Source/TransformFunctions/arm_rfft_fast_init_f32.c **** 
 665              		.loc 1 122 3 is_stmt 1 view .LVU211
 124:./Libraries/CMSIS/DSP/Source/TransformFunctions/arm_rfft_fast_init_f32.c **** }
 666              		.loc 1 124 3 view .LVU212
 125:./Libraries/CMSIS/DSP/Source/TransformFunctions/arm_rfft_fast_init_f32.c **** #endif 
 667              		.loc 1 125 1 is_stmt 0 view .LVU213
 668 0020 30BC     		pop	{r4, r5}
 669              	.LCFI15:
 670              		.cfi_restore 5
 671              		.cfi_restore 4
 672              		.cfi_def_cfa_offset 0
 673 0022 7047     		bx	lr
 674              	.LVL38:
 675              	.L67:
 113:./Libraries/CMSIS/DSP/Source/TransformFunctions/arm_rfft_fast_init_f32.c **** 
 676              		.loc 1 113 19 view .LVU214
 677 0024 4FF0FF30 		mov	r0, #-1
 678              	.LVL39:
 125:./Libraries/CMSIS/DSP/Source/TransformFunctions/arm_rfft_fast_init_f32.c **** #endif 
 679              		.loc 1 125 1 view .LVU215
 680 0028 7047     		bx	lr
 681              	.L73:
 682 002a 00BF     		.align	2
 683              	.L72:
 684 002c 00000000 		.word	twiddleCoef_64
 685 0030 00000000 		.word	armBitRevIndexTable64
 686 0034 00000000 		.word	twiddleCoef_rfft_128
 687              		.cfi_endproc
 688              	.LFE147:
 690              		.section	.text.arm_rfft_fast_init_f32,"ax",%progbits
 691              		.align	1
 692              		.p2align 2,,3
 693              		.global	arm_rfft_fast_init_f32
 694              		.syntax unified
 695              		.thumb
 696              		.thumb_func
 697              		.fpu fpv5-d16
 699              	arm_rfft_fast_init_f32:
 700              	.LVL40:
 701              	.LFB153:
 267:./Libraries/CMSIS/DSP/Source/TransformFunctions/arm_rfft_fast_init_f32.c **** #endif 
 268:./Libraries/CMSIS/DSP/Source/TransformFunctions/arm_rfft_fast_init_f32.c **** 
 269:./Libraries/CMSIS/DSP/Source/TransformFunctions/arm_rfft_fast_init_f32.c **** /**
 270:./Libraries/CMSIS/DSP/Source/TransformFunctions/arm_rfft_fast_init_f32.c ****   @brief         Initialization function for the floating-point real FFT.
 271:./Libraries/CMSIS/DSP/Source/TransformFunctions/arm_rfft_fast_init_f32.c ****   @param[in,out] S       points to an arm_rfft_fast_instance_f32 structure
 272:./Libraries/CMSIS/DSP/Source/TransformFunctions/arm_rfft_fast_init_f32.c ****   @param[in]     fftLen  length of the Real Sequence
 273:./Libraries/CMSIS/DSP/Source/TransformFunctions/arm_rfft_fast_init_f32.c ****   @return        execution status
 274:./Libraries/CMSIS/DSP/Source/TransformFunctions/arm_rfft_fast_init_f32.c ****                    - \ref ARM_MATH_SUCCESS        : Operation successful
ARM GAS  /tmp/cc9WBzb6.s 			page 20


 275:./Libraries/CMSIS/DSP/Source/TransformFunctions/arm_rfft_fast_init_f32.c ****                    - \ref ARM_MATH_ARGUMENT_ERROR : <code>fftLen</code> is not a supported length
 276:./Libraries/CMSIS/DSP/Source/TransformFunctions/arm_rfft_fast_init_f32.c **** 
 277:./Libraries/CMSIS/DSP/Source/TransformFunctions/arm_rfft_fast_init_f32.c ****   @par           Description
 278:./Libraries/CMSIS/DSP/Source/TransformFunctions/arm_rfft_fast_init_f32.c ****                    The parameter <code>fftLen</code> specifies the length of RFFT/CIFFT process.
 279:./Libraries/CMSIS/DSP/Source/TransformFunctions/arm_rfft_fast_init_f32.c ****                    Supported FFT Lengths are 32, 64, 128, 256, 512, 1024, 2048, 4096.
 280:./Libraries/CMSIS/DSP/Source/TransformFunctions/arm_rfft_fast_init_f32.c ****   @par
 281:./Libraries/CMSIS/DSP/Source/TransformFunctions/arm_rfft_fast_init_f32.c ****                    This Function also initializes Twiddle factor table pointer and Bit reversal tab
 282:./Libraries/CMSIS/DSP/Source/TransformFunctions/arm_rfft_fast_init_f32.c ****  */
 283:./Libraries/CMSIS/DSP/Source/TransformFunctions/arm_rfft_fast_init_f32.c **** 
 284:./Libraries/CMSIS/DSP/Source/TransformFunctions/arm_rfft_fast_init_f32.c **** arm_status arm_rfft_fast_init_f32(
 285:./Libraries/CMSIS/DSP/Source/TransformFunctions/arm_rfft_fast_init_f32.c ****   arm_rfft_fast_instance_f32 * S,
 286:./Libraries/CMSIS/DSP/Source/TransformFunctions/arm_rfft_fast_init_f32.c ****   uint16_t fftLen)
 287:./Libraries/CMSIS/DSP/Source/TransformFunctions/arm_rfft_fast_init_f32.c **** {
 702              		.loc 1 287 1 is_stmt 1 view -0
 703              		.cfi_startproc
 704              		@ args = 0, pretend = 0, frame = 0
 705              		@ frame_needed = 0, uses_anonymous_args = 0
 706              		@ link register save eliminated.
 288:./Libraries/CMSIS/DSP/Source/TransformFunctions/arm_rfft_fast_init_f32.c ****   typedef arm_status(*fft_init_ptr)( arm_rfft_fast_instance_f32 *);
 707              		.loc 1 288 3 view .LVU217
 289:./Libraries/CMSIS/DSP/Source/TransformFunctions/arm_rfft_fast_init_f32.c ****   fft_init_ptr fptr = 0x0;
 708              		.loc 1 289 3 view .LVU218
 290:./Libraries/CMSIS/DSP/Source/TransformFunctions/arm_rfft_fast_init_f32.c **** 
 291:./Libraries/CMSIS/DSP/Source/TransformFunctions/arm_rfft_fast_init_f32.c ****   switch (fftLen)
 709              		.loc 1 291 3 view .LVU219
 710 0000 B1F5007F 		cmp	r1, #512
 711 0004 1CD0     		beq	.L78
 712 0006 06D8     		bhi	.L76
 713 0008 4029     		cmp	r1, #64
 714 000a 15D0     		beq	.L79
 715 000c B1F5807F 		cmp	r1, #256
 716 0010 09D1     		bne	.L85
 292:./Libraries/CMSIS/DSP/Source/TransformFunctions/arm_rfft_fast_init_f32.c ****   {
 293:./Libraries/CMSIS/DSP/Source/TransformFunctions/arm_rfft_fast_init_f32.c **** #if !defined(ARM_DSP_CONFIG_TABLES) || defined(ARM_ALL_FFT_TABLES) || (defined(ARM_TABLE_TWIDDLECOE
 294:./Libraries/CMSIS/DSP/Source/TransformFunctions/arm_rfft_fast_init_f32.c ****   case 4096U:
 295:./Libraries/CMSIS/DSP/Source/TransformFunctions/arm_rfft_fast_init_f32.c ****     fptr = arm_rfft_4096_fast_init_f32;
 296:./Libraries/CMSIS/DSP/Source/TransformFunctions/arm_rfft_fast_init_f32.c ****     break;
 297:./Libraries/CMSIS/DSP/Source/TransformFunctions/arm_rfft_fast_init_f32.c **** #endif
 298:./Libraries/CMSIS/DSP/Source/TransformFunctions/arm_rfft_fast_init_f32.c **** #if !defined(ARM_DSP_CONFIG_TABLES) || defined(ARM_ALL_FFT_TABLES) || (defined(ARM_TABLE_TWIDDLECOE
 299:./Libraries/CMSIS/DSP/Source/TransformFunctions/arm_rfft_fast_init_f32.c ****   case 2048U:
 300:./Libraries/CMSIS/DSP/Source/TransformFunctions/arm_rfft_fast_init_f32.c ****     fptr = arm_rfft_2048_fast_init_f32;
 301:./Libraries/CMSIS/DSP/Source/TransformFunctions/arm_rfft_fast_init_f32.c ****     break;
 302:./Libraries/CMSIS/DSP/Source/TransformFunctions/arm_rfft_fast_init_f32.c **** #endif
 303:./Libraries/CMSIS/DSP/Source/TransformFunctions/arm_rfft_fast_init_f32.c **** #if !defined(ARM_DSP_CONFIG_TABLES) || defined(ARM_ALL_FFT_TABLES) || (defined(ARM_TABLE_TWIDDLECOE
 304:./Libraries/CMSIS/DSP/Source/TransformFunctions/arm_rfft_fast_init_f32.c ****   case 1024U:
 305:./Libraries/CMSIS/DSP/Source/TransformFunctions/arm_rfft_fast_init_f32.c ****     fptr = arm_rfft_1024_fast_init_f32;
 306:./Libraries/CMSIS/DSP/Source/TransformFunctions/arm_rfft_fast_init_f32.c ****     break;
 307:./Libraries/CMSIS/DSP/Source/TransformFunctions/arm_rfft_fast_init_f32.c **** #endif
 308:./Libraries/CMSIS/DSP/Source/TransformFunctions/arm_rfft_fast_init_f32.c **** #if !defined(ARM_DSP_CONFIG_TABLES) || defined(ARM_ALL_FFT_TABLES) || (defined(ARM_TABLE_TWIDDLECOE
 309:./Libraries/CMSIS/DSP/Source/TransformFunctions/arm_rfft_fast_init_f32.c ****   case 512U:
 310:./Libraries/CMSIS/DSP/Source/TransformFunctions/arm_rfft_fast_init_f32.c ****     fptr = arm_rfft_512_fast_init_f32;
 311:./Libraries/CMSIS/DSP/Source/TransformFunctions/arm_rfft_fast_init_f32.c ****     break;
 312:./Libraries/CMSIS/DSP/Source/TransformFunctions/arm_rfft_fast_init_f32.c **** #endif
 313:./Libraries/CMSIS/DSP/Source/TransformFunctions/arm_rfft_fast_init_f32.c **** #if !defined(ARM_DSP_CONFIG_TABLES) || defined(ARM_ALL_FFT_TABLES) || (defined(ARM_TABLE_TWIDDLECOE
 314:./Libraries/CMSIS/DSP/Source/TransformFunctions/arm_rfft_fast_init_f32.c ****   case 256U:
 315:./Libraries/CMSIS/DSP/Source/TransformFunctions/arm_rfft_fast_init_f32.c ****     fptr = arm_rfft_256_fast_init_f32;
 717              		.loc 1 315 10 is_stmt 0 view .LVU220
ARM GAS  /tmp/cc9WBzb6.s 			page 21


 718 0012 0E4B     		ldr	r3, .L87
 719              	.L75:
 720              	.LVL41:
 316:./Libraries/CMSIS/DSP/Source/TransformFunctions/arm_rfft_fast_init_f32.c ****     break;
 317:./Libraries/CMSIS/DSP/Source/TransformFunctions/arm_rfft_fast_init_f32.c **** #endif
 318:./Libraries/CMSIS/DSP/Source/TransformFunctions/arm_rfft_fast_init_f32.c **** #if (defined(ARM_TABLE_TWIDDLECOEF_F32_64) && defined(ARM_TABLE_BITREVIDX_FLT_64) && defined(ARM_TA
 319:./Libraries/CMSIS/DSP/Source/TransformFunctions/arm_rfft_fast_init_f32.c ****   case 128U:
 320:./Libraries/CMSIS/DSP/Source/TransformFunctions/arm_rfft_fast_init_f32.c ****     fptr = arm_rfft_128_fast_init_f32;
 321:./Libraries/CMSIS/DSP/Source/TransformFunctions/arm_rfft_fast_init_f32.c ****     break;
 322:./Libraries/CMSIS/DSP/Source/TransformFunctions/arm_rfft_fast_init_f32.c **** #endif
 323:./Libraries/CMSIS/DSP/Source/TransformFunctions/arm_rfft_fast_init_f32.c **** #if !defined(ARM_DSP_CONFIG_TABLES) || defined(ARM_ALL_FFT_TABLES) || (defined(ARM_TABLE_TWIDDLECOE
 324:./Libraries/CMSIS/DSP/Source/TransformFunctions/arm_rfft_fast_init_f32.c ****   case 64U:
 325:./Libraries/CMSIS/DSP/Source/TransformFunctions/arm_rfft_fast_init_f32.c ****     fptr = arm_rfft_64_fast_init_f32;
 326:./Libraries/CMSIS/DSP/Source/TransformFunctions/arm_rfft_fast_init_f32.c ****     break;
 327:./Libraries/CMSIS/DSP/Source/TransformFunctions/arm_rfft_fast_init_f32.c **** #endif
 328:./Libraries/CMSIS/DSP/Source/TransformFunctions/arm_rfft_fast_init_f32.c **** #if !defined(ARM_DSP_CONFIG_TABLES) || defined(ARM_ALL_FFT_TABLES) || (defined(ARM_TABLE_TWIDDLECOE
 329:./Libraries/CMSIS/DSP/Source/TransformFunctions/arm_rfft_fast_init_f32.c ****   case 32U:
 330:./Libraries/CMSIS/DSP/Source/TransformFunctions/arm_rfft_fast_init_f32.c ****     fptr = arm_rfft_32_fast_init_f32;
 331:./Libraries/CMSIS/DSP/Source/TransformFunctions/arm_rfft_fast_init_f32.c ****     break;
 332:./Libraries/CMSIS/DSP/Source/TransformFunctions/arm_rfft_fast_init_f32.c **** #endif
 333:./Libraries/CMSIS/DSP/Source/TransformFunctions/arm_rfft_fast_init_f32.c ****   default:
 334:./Libraries/CMSIS/DSP/Source/TransformFunctions/arm_rfft_fast_init_f32.c ****     return ARM_MATH_ARGUMENT_ERROR;
 335:./Libraries/CMSIS/DSP/Source/TransformFunctions/arm_rfft_fast_init_f32.c ****   }
 336:./Libraries/CMSIS/DSP/Source/TransformFunctions/arm_rfft_fast_init_f32.c **** 
 337:./Libraries/CMSIS/DSP/Source/TransformFunctions/arm_rfft_fast_init_f32.c ****   if( ! fptr ) return ARM_MATH_ARGUMENT_ERROR;
 721              		.loc 1 337 3 is_stmt 1 view .LVU221
 338:./Libraries/CMSIS/DSP/Source/TransformFunctions/arm_rfft_fast_init_f32.c ****   return fptr( S );
 722              		.loc 1 338 3 view .LVU222
 723              		.loc 1 338 10 is_stmt 0 view .LVU223
 724 0014 1847     		bx	r3
 725              	.LVL42:
 726              	.L76:
 291:./Libraries/CMSIS/DSP/Source/TransformFunctions/arm_rfft_fast_init_f32.c ****   {
 727              		.loc 1 291 3 view .LVU224
 728 0016 B1F5006F 		cmp	r1, #2048
 729 001a 0FD0     		beq	.L82
 730 001c B1F5805F 		cmp	r1, #4096
 731 0020 05D1     		bne	.L86
 295:./Libraries/CMSIS/DSP/Source/TransformFunctions/arm_rfft_fast_init_f32.c ****     break;
 732              		.loc 1 295 10 view .LVU225
 733 0022 0B4B     		ldr	r3, .L87+4
 734              	.LVL43:
 337:./Libraries/CMSIS/DSP/Source/TransformFunctions/arm_rfft_fast_init_f32.c ****   return fptr( S );
 735              		.loc 1 337 3 is_stmt 1 view .LVU226
 736              		.loc 1 338 3 view .LVU227
 737              		.loc 1 338 10 is_stmt 0 view .LVU228
 738 0024 1847     		bx	r3
 739              	.LVL44:
 740              	.L85:
 291:./Libraries/CMSIS/DSP/Source/TransformFunctions/arm_rfft_fast_init_f32.c ****   {
 741              		.loc 1 291 3 view .LVU229
 742 0026 2029     		cmp	r1, #32
 743 0028 0CD1     		bne	.L77
 330:./Libraries/CMSIS/DSP/Source/TransformFunctions/arm_rfft_fast_init_f32.c ****     break;
 744              		.loc 1 330 10 view .LVU230
 745 002a 0A4B     		ldr	r3, .L87+8
 746              	.LVL45:
ARM GAS  /tmp/cc9WBzb6.s 			page 22


 337:./Libraries/CMSIS/DSP/Source/TransformFunctions/arm_rfft_fast_init_f32.c ****   return fptr( S );
 747              		.loc 1 337 3 is_stmt 1 view .LVU231
 748              		.loc 1 338 3 view .LVU232
 749              		.loc 1 338 10 is_stmt 0 view .LVU233
 750 002c 1847     		bx	r3
 751              	.LVL46:
 752              	.L86:
 291:./Libraries/CMSIS/DSP/Source/TransformFunctions/arm_rfft_fast_init_f32.c ****   {
 753              		.loc 1 291 3 view .LVU234
 754 002e B1F5806F 		cmp	r1, #1024
 755 0032 07D1     		bne	.L77
 305:./Libraries/CMSIS/DSP/Source/TransformFunctions/arm_rfft_fast_init_f32.c ****     break;
 756              		.loc 1 305 10 view .LVU235
 757 0034 084B     		ldr	r3, .L87+12
 758 0036 EDE7     		b	.L75
 759              	.L79:
 325:./Libraries/CMSIS/DSP/Source/TransformFunctions/arm_rfft_fast_init_f32.c ****     break;
 760              		.loc 1 325 10 view .LVU236
 761 0038 084B     		ldr	r3, .L87+16
 762 003a EBE7     		b	.L75
 763              	.L82:
 291:./Libraries/CMSIS/DSP/Source/TransformFunctions/arm_rfft_fast_init_f32.c ****   {
 764              		.loc 1 291 3 view .LVU237
 765 003c 084B     		ldr	r3, .L87+20
 766 003e E9E7     		b	.L75
 767              	.L78:
 310:./Libraries/CMSIS/DSP/Source/TransformFunctions/arm_rfft_fast_init_f32.c ****     break;
 768              		.loc 1 310 10 view .LVU238
 769 0040 084B     		ldr	r3, .L87+24
 770 0042 E7E7     		b	.L75
 771              	.L77:
 339:./Libraries/CMSIS/DSP/Source/TransformFunctions/arm_rfft_fast_init_f32.c **** 
 340:./Libraries/CMSIS/DSP/Source/TransformFunctions/arm_rfft_fast_init_f32.c **** }
 772              		.loc 1 340 1 view .LVU239
 773 0044 4FF0FF30 		mov	r0, #-1
 774              	.LVL47:
 775              		.loc 1 340 1 view .LVU240
 776 0048 7047     		bx	lr
 777              	.L88:
 778 004a 00BF     		.align	2
 779              	.L87:
 780 004c 00000000 		.word	arm_rfft_256_fast_init_f32
 781 0050 00000000 		.word	arm_rfft_4096_fast_init_f32
 782 0054 00000000 		.word	arm_rfft_32_fast_init_f32
 783 0058 00000000 		.word	arm_rfft_1024_fast_init_f32
 784 005c 00000000 		.word	arm_rfft_64_fast_init_f32
 785 0060 00000000 		.word	arm_rfft_2048_fast_init_f32
 786 0064 00000000 		.word	arm_rfft_512_fast_init_f32
 787              		.cfi_endproc
 788              	.LFE153:
 790              		.text
 791              	.Letext0:
 792              		.file 2 "/usr/lib/gcc/arm-none-eabi/9.2.1/include/stdint.h"
 793              		.file 3 "/usr/lib/gcc/arm-none-eabi/9.2.1/include/stddef.h"
 794              		.file 4 "/usr/include/newlib/sys/_types.h"
 795              		.file 5 "/usr/include/newlib/sys/reent.h"
 796              		.file 6 "/usr/include/newlib/sys/lock.h"
ARM GAS  /tmp/cc9WBzb6.s 			page 23


 797              		.file 7 "/usr/include/newlib/math.h"
 798              		.file 8 "./Libraries/CMSIS/DSP/Include/arm_math.h"
 799              		.file 9 "./Libraries/CMSIS/DSP/Include/arm_common_tables.h"
ARM GAS  /tmp/cc9WBzb6.s 			page 24

