ARM GAS  /var/folders/wl/rshn8xbx1dsfj1zgryf4g1240000gn/T//ccsGQpNC.s 			page 1


   1              		.cpu cortex-m7
   2              		.eabi_attribute 28, 1
   3              		.eabi_attribute 20, 1
   4              		.eabi_attribute 21, 1
   5              		.eabi_attribute 23, 3
   6              		.eabi_attribute 24, 1
   7              		.eabi_attribute 25, 1
   8              		.eabi_attribute 26, 1
   9              		.eabi_attribute 30, 2
  10              		.eabi_attribute 34, 1
  11              		.eabi_attribute 18, 4
  12              		.file	"arm_cmplx_conj_q15.c"
  13              		.text
  14              	.Ltext0:
  15              		.cfi_sections	.debug_frame
  16              		.section	.text.arm_cmplx_conj_q15,"ax",%progbits
  17              		.align	1
  18              		.p2align 2,,3
  19              		.global	arm_cmplx_conj_q15
  20              		.arch armv7e-m
  21              		.syntax unified
  22              		.thumb
  23              		.thumb_func
  24              		.fpu fpv5-d16
  26              	arm_cmplx_conj_q15:
  27              	.LVL0:
  28              	.LFB145:
  29              		.file 1 ".//Libraries/CMSIS/DSP/Source/ComplexMathFunctions/arm_cmplx_conj_q15.c"
   1:.//Libraries/CMSIS/DSP/Source/ComplexMathFunctions/arm_cmplx_conj_q15.c **** /* ----------------------------------------------------------------------
   2:.//Libraries/CMSIS/DSP/Source/ComplexMathFunctions/arm_cmplx_conj_q15.c ****  * Project:      CMSIS DSP Library
   3:.//Libraries/CMSIS/DSP/Source/ComplexMathFunctions/arm_cmplx_conj_q15.c ****  * Title:        arm_cmplx_conj_q15.c
   4:.//Libraries/CMSIS/DSP/Source/ComplexMathFunctions/arm_cmplx_conj_q15.c ****  * Description:  Q15 complex conjugate
   5:.//Libraries/CMSIS/DSP/Source/ComplexMathFunctions/arm_cmplx_conj_q15.c ****  *
   6:.//Libraries/CMSIS/DSP/Source/ComplexMathFunctions/arm_cmplx_conj_q15.c ****  * $Date:        18. March 2019
   7:.//Libraries/CMSIS/DSP/Source/ComplexMathFunctions/arm_cmplx_conj_q15.c ****  * $Revision:    V1.6.0
   8:.//Libraries/CMSIS/DSP/Source/ComplexMathFunctions/arm_cmplx_conj_q15.c ****  *
   9:.//Libraries/CMSIS/DSP/Source/ComplexMathFunctions/arm_cmplx_conj_q15.c ****  * Target Processor: Cortex-M cores
  10:.//Libraries/CMSIS/DSP/Source/ComplexMathFunctions/arm_cmplx_conj_q15.c ****  * -------------------------------------------------------------------- */
  11:.//Libraries/CMSIS/DSP/Source/ComplexMathFunctions/arm_cmplx_conj_q15.c **** /*
  12:.//Libraries/CMSIS/DSP/Source/ComplexMathFunctions/arm_cmplx_conj_q15.c ****  * Copyright (C) 2010-2019 ARM Limited or its affiliates. All rights reserved.
  13:.//Libraries/CMSIS/DSP/Source/ComplexMathFunctions/arm_cmplx_conj_q15.c ****  *
  14:.//Libraries/CMSIS/DSP/Source/ComplexMathFunctions/arm_cmplx_conj_q15.c ****  * SPDX-License-Identifier: Apache-2.0
  15:.//Libraries/CMSIS/DSP/Source/ComplexMathFunctions/arm_cmplx_conj_q15.c ****  *
  16:.//Libraries/CMSIS/DSP/Source/ComplexMathFunctions/arm_cmplx_conj_q15.c ****  * Licensed under the Apache License, Version 2.0 (the License); you may
  17:.//Libraries/CMSIS/DSP/Source/ComplexMathFunctions/arm_cmplx_conj_q15.c ****  * not use this file except in compliance with the License.
  18:.//Libraries/CMSIS/DSP/Source/ComplexMathFunctions/arm_cmplx_conj_q15.c ****  * You may obtain a copy of the License at
  19:.//Libraries/CMSIS/DSP/Source/ComplexMathFunctions/arm_cmplx_conj_q15.c ****  *
  20:.//Libraries/CMSIS/DSP/Source/ComplexMathFunctions/arm_cmplx_conj_q15.c ****  * www.apache.org/licenses/LICENSE-2.0
  21:.//Libraries/CMSIS/DSP/Source/ComplexMathFunctions/arm_cmplx_conj_q15.c ****  *
  22:.//Libraries/CMSIS/DSP/Source/ComplexMathFunctions/arm_cmplx_conj_q15.c ****  * Unless required by applicable law or agreed to in writing, software
  23:.//Libraries/CMSIS/DSP/Source/ComplexMathFunctions/arm_cmplx_conj_q15.c ****  * distributed under the License is distributed on an AS IS BASIS, WITHOUT
  24:.//Libraries/CMSIS/DSP/Source/ComplexMathFunctions/arm_cmplx_conj_q15.c ****  * WARRANTIES OR CONDITIONS OF ANY KIND, either express or implied.
  25:.//Libraries/CMSIS/DSP/Source/ComplexMathFunctions/arm_cmplx_conj_q15.c ****  * See the License for the specific language governing permissions and
  26:.//Libraries/CMSIS/DSP/Source/ComplexMathFunctions/arm_cmplx_conj_q15.c ****  * limitations under the License.
  27:.//Libraries/CMSIS/DSP/Source/ComplexMathFunctions/arm_cmplx_conj_q15.c ****  */
  28:.//Libraries/CMSIS/DSP/Source/ComplexMathFunctions/arm_cmplx_conj_q15.c **** 
  29:.//Libraries/CMSIS/DSP/Source/ComplexMathFunctions/arm_cmplx_conj_q15.c **** #include "arm_math.h"
ARM GAS  /var/folders/wl/rshn8xbx1dsfj1zgryf4g1240000gn/T//ccsGQpNC.s 			page 2


  30:.//Libraries/CMSIS/DSP/Source/ComplexMathFunctions/arm_cmplx_conj_q15.c **** 
  31:.//Libraries/CMSIS/DSP/Source/ComplexMathFunctions/arm_cmplx_conj_q15.c **** /**
  32:.//Libraries/CMSIS/DSP/Source/ComplexMathFunctions/arm_cmplx_conj_q15.c ****   @ingroup groupCmplxMath
  33:.//Libraries/CMSIS/DSP/Source/ComplexMathFunctions/arm_cmplx_conj_q15.c ****  */
  34:.//Libraries/CMSIS/DSP/Source/ComplexMathFunctions/arm_cmplx_conj_q15.c **** 
  35:.//Libraries/CMSIS/DSP/Source/ComplexMathFunctions/arm_cmplx_conj_q15.c **** /**
  36:.//Libraries/CMSIS/DSP/Source/ComplexMathFunctions/arm_cmplx_conj_q15.c ****   @addtogroup cmplx_conj
  37:.//Libraries/CMSIS/DSP/Source/ComplexMathFunctions/arm_cmplx_conj_q15.c ****   @{
  38:.//Libraries/CMSIS/DSP/Source/ComplexMathFunctions/arm_cmplx_conj_q15.c ****  */
  39:.//Libraries/CMSIS/DSP/Source/ComplexMathFunctions/arm_cmplx_conj_q15.c **** 
  40:.//Libraries/CMSIS/DSP/Source/ComplexMathFunctions/arm_cmplx_conj_q15.c **** /**
  41:.//Libraries/CMSIS/DSP/Source/ComplexMathFunctions/arm_cmplx_conj_q15.c ****   @brief         Q15 complex conjugate.
  42:.//Libraries/CMSIS/DSP/Source/ComplexMathFunctions/arm_cmplx_conj_q15.c ****   @param[in]     pSrc        points to the input vector
  43:.//Libraries/CMSIS/DSP/Source/ComplexMathFunctions/arm_cmplx_conj_q15.c ****   @param[out]    pDst        points to the output vector
  44:.//Libraries/CMSIS/DSP/Source/ComplexMathFunctions/arm_cmplx_conj_q15.c ****   @param[in]     numSamples  number of samples in each vector
  45:.//Libraries/CMSIS/DSP/Source/ComplexMathFunctions/arm_cmplx_conj_q15.c ****   @return        none
  46:.//Libraries/CMSIS/DSP/Source/ComplexMathFunctions/arm_cmplx_conj_q15.c **** 
  47:.//Libraries/CMSIS/DSP/Source/ComplexMathFunctions/arm_cmplx_conj_q15.c ****   @par           Scaling and Overflow Behavior
  48:.//Libraries/CMSIS/DSP/Source/ComplexMathFunctions/arm_cmplx_conj_q15.c ****                    The function uses saturating arithmetic.
  49:.//Libraries/CMSIS/DSP/Source/ComplexMathFunctions/arm_cmplx_conj_q15.c ****                    The Q15 value -1 (0x8000) is saturated to the maximum allowable positive value 0
  50:.//Libraries/CMSIS/DSP/Source/ComplexMathFunctions/arm_cmplx_conj_q15.c ****  */
  51:.//Libraries/CMSIS/DSP/Source/ComplexMathFunctions/arm_cmplx_conj_q15.c **** 
  52:.//Libraries/CMSIS/DSP/Source/ComplexMathFunctions/arm_cmplx_conj_q15.c **** void arm_cmplx_conj_q15(
  53:.//Libraries/CMSIS/DSP/Source/ComplexMathFunctions/arm_cmplx_conj_q15.c ****   const q15_t * pSrc,
  54:.//Libraries/CMSIS/DSP/Source/ComplexMathFunctions/arm_cmplx_conj_q15.c ****         q15_t * pDst,
  55:.//Libraries/CMSIS/DSP/Source/ComplexMathFunctions/arm_cmplx_conj_q15.c ****         uint32_t numSamples)
  56:.//Libraries/CMSIS/DSP/Source/ComplexMathFunctions/arm_cmplx_conj_q15.c **** {
  30              		.loc 1 56 1 view -0
  31              		.cfi_startproc
  32              		@ args = 0, pretend = 0, frame = 0
  33              		@ frame_needed = 0, uses_anonymous_args = 0
  34              		@ link register save eliminated.
  57:.//Libraries/CMSIS/DSP/Source/ComplexMathFunctions/arm_cmplx_conj_q15.c ****         uint32_t blkCnt;                               /* Loop counter */
  35              		.loc 1 57 9 view .LVU1
  58:.//Libraries/CMSIS/DSP/Source/ComplexMathFunctions/arm_cmplx_conj_q15.c ****         q31_t in1;                                     /* Temporary input variable */
  36              		.loc 1 58 9 view .LVU2
  59:.//Libraries/CMSIS/DSP/Source/ComplexMathFunctions/arm_cmplx_conj_q15.c **** 
  60:.//Libraries/CMSIS/DSP/Source/ComplexMathFunctions/arm_cmplx_conj_q15.c **** #if defined (ARM_MATH_LOOPUNROLL) && defined (ARM_MATH_DSP)
  61:.//Libraries/CMSIS/DSP/Source/ComplexMathFunctions/arm_cmplx_conj_q15.c ****         q31_t in2, in3, in4;                           /* Temporary input variables */
  62:.//Libraries/CMSIS/DSP/Source/ComplexMathFunctions/arm_cmplx_conj_q15.c **** #endif
  63:.//Libraries/CMSIS/DSP/Source/ComplexMathFunctions/arm_cmplx_conj_q15.c **** 
  64:.//Libraries/CMSIS/DSP/Source/ComplexMathFunctions/arm_cmplx_conj_q15.c **** 
  65:.//Libraries/CMSIS/DSP/Source/ComplexMathFunctions/arm_cmplx_conj_q15.c **** #if defined (ARM_MATH_LOOPUNROLL)
  66:.//Libraries/CMSIS/DSP/Source/ComplexMathFunctions/arm_cmplx_conj_q15.c **** 
  67:.//Libraries/CMSIS/DSP/Source/ComplexMathFunctions/arm_cmplx_conj_q15.c ****   /* Loop unrolling: Compute 4 outputs at a time */
  68:.//Libraries/CMSIS/DSP/Source/ComplexMathFunctions/arm_cmplx_conj_q15.c ****   blkCnt = numSamples >> 2U;
  69:.//Libraries/CMSIS/DSP/Source/ComplexMathFunctions/arm_cmplx_conj_q15.c **** 
  70:.//Libraries/CMSIS/DSP/Source/ComplexMathFunctions/arm_cmplx_conj_q15.c ****   while (blkCnt > 0U)
  71:.//Libraries/CMSIS/DSP/Source/ComplexMathFunctions/arm_cmplx_conj_q15.c ****   {
  72:.//Libraries/CMSIS/DSP/Source/ComplexMathFunctions/arm_cmplx_conj_q15.c ****     /* C[0] + jC[1] = A[0]+ j(-1)A[1] */
  73:.//Libraries/CMSIS/DSP/Source/ComplexMathFunctions/arm_cmplx_conj_q15.c **** 
  74:.//Libraries/CMSIS/DSP/Source/ComplexMathFunctions/arm_cmplx_conj_q15.c ****     /* Calculate Complex Conjugate and store result in destination buffer. */
  75:.//Libraries/CMSIS/DSP/Source/ComplexMathFunctions/arm_cmplx_conj_q15.c **** 
  76:.//Libraries/CMSIS/DSP/Source/ComplexMathFunctions/arm_cmplx_conj_q15.c ****     #if defined (ARM_MATH_DSP)
  77:.//Libraries/CMSIS/DSP/Source/ComplexMathFunctions/arm_cmplx_conj_q15.c ****     in1 = read_q15x2_ia ((q15_t **) &pSrc);
  78:.//Libraries/CMSIS/DSP/Source/ComplexMathFunctions/arm_cmplx_conj_q15.c ****     in2 = read_q15x2_ia ((q15_t **) &pSrc);
  79:.//Libraries/CMSIS/DSP/Source/ComplexMathFunctions/arm_cmplx_conj_q15.c ****     in3 = read_q15x2_ia ((q15_t **) &pSrc);
ARM GAS  /var/folders/wl/rshn8xbx1dsfj1zgryf4g1240000gn/T//ccsGQpNC.s 			page 3


  80:.//Libraries/CMSIS/DSP/Source/ComplexMathFunctions/arm_cmplx_conj_q15.c ****     in4 = read_q15x2_ia ((q15_t **) &pSrc);
  81:.//Libraries/CMSIS/DSP/Source/ComplexMathFunctions/arm_cmplx_conj_q15.c **** 
  82:.//Libraries/CMSIS/DSP/Source/ComplexMathFunctions/arm_cmplx_conj_q15.c **** #ifndef ARM_MATH_BIG_ENDIAN
  83:.//Libraries/CMSIS/DSP/Source/ComplexMathFunctions/arm_cmplx_conj_q15.c ****     in1 = __QASX(0, in1);
  84:.//Libraries/CMSIS/DSP/Source/ComplexMathFunctions/arm_cmplx_conj_q15.c ****     in2 = __QASX(0, in2);
  85:.//Libraries/CMSIS/DSP/Source/ComplexMathFunctions/arm_cmplx_conj_q15.c ****     in3 = __QASX(0, in3);
  86:.//Libraries/CMSIS/DSP/Source/ComplexMathFunctions/arm_cmplx_conj_q15.c ****     in4 = __QASX(0, in4);
  87:.//Libraries/CMSIS/DSP/Source/ComplexMathFunctions/arm_cmplx_conj_q15.c **** #else
  88:.//Libraries/CMSIS/DSP/Source/ComplexMathFunctions/arm_cmplx_conj_q15.c ****     in1 = __QSAX(0, in1);
  89:.//Libraries/CMSIS/DSP/Source/ComplexMathFunctions/arm_cmplx_conj_q15.c ****     in2 = __QSAX(0, in2);
  90:.//Libraries/CMSIS/DSP/Source/ComplexMathFunctions/arm_cmplx_conj_q15.c ****     in3 = __QSAX(0, in3);
  91:.//Libraries/CMSIS/DSP/Source/ComplexMathFunctions/arm_cmplx_conj_q15.c ****     in4 = __QSAX(0, in4);
  92:.//Libraries/CMSIS/DSP/Source/ComplexMathFunctions/arm_cmplx_conj_q15.c **** #endif /* #ifndef ARM_MATH_BIG_ENDIAN */
  93:.//Libraries/CMSIS/DSP/Source/ComplexMathFunctions/arm_cmplx_conj_q15.c **** 
  94:.//Libraries/CMSIS/DSP/Source/ComplexMathFunctions/arm_cmplx_conj_q15.c ****     in1 = ((uint32_t) in1 >> 16) | ((uint32_t) in1 << 16);
  95:.//Libraries/CMSIS/DSP/Source/ComplexMathFunctions/arm_cmplx_conj_q15.c ****     in2 = ((uint32_t) in2 >> 16) | ((uint32_t) in2 << 16);
  96:.//Libraries/CMSIS/DSP/Source/ComplexMathFunctions/arm_cmplx_conj_q15.c ****     in3 = ((uint32_t) in3 >> 16) | ((uint32_t) in3 << 16);
  97:.//Libraries/CMSIS/DSP/Source/ComplexMathFunctions/arm_cmplx_conj_q15.c ****     in4 = ((uint32_t) in4 >> 16) | ((uint32_t) in4 << 16);
  98:.//Libraries/CMSIS/DSP/Source/ComplexMathFunctions/arm_cmplx_conj_q15.c **** 
  99:.//Libraries/CMSIS/DSP/Source/ComplexMathFunctions/arm_cmplx_conj_q15.c ****     write_q15x2_ia (&pDst, in1);
 100:.//Libraries/CMSIS/DSP/Source/ComplexMathFunctions/arm_cmplx_conj_q15.c ****     write_q15x2_ia (&pDst, in2);
 101:.//Libraries/CMSIS/DSP/Source/ComplexMathFunctions/arm_cmplx_conj_q15.c ****     write_q15x2_ia (&pDst, in3);
 102:.//Libraries/CMSIS/DSP/Source/ComplexMathFunctions/arm_cmplx_conj_q15.c ****     write_q15x2_ia (&pDst, in4);
 103:.//Libraries/CMSIS/DSP/Source/ComplexMathFunctions/arm_cmplx_conj_q15.c **** #else
 104:.//Libraries/CMSIS/DSP/Source/ComplexMathFunctions/arm_cmplx_conj_q15.c ****     *pDst++ =  *pSrc++;
 105:.//Libraries/CMSIS/DSP/Source/ComplexMathFunctions/arm_cmplx_conj_q15.c ****     in1 = *pSrc++;
 106:.//Libraries/CMSIS/DSP/Source/ComplexMathFunctions/arm_cmplx_conj_q15.c ****     *pDst++ = (in1 == (q15_t) 0x8000) ? (q15_t) 0x7fff : -in1;
 107:.//Libraries/CMSIS/DSP/Source/ComplexMathFunctions/arm_cmplx_conj_q15.c **** 
 108:.//Libraries/CMSIS/DSP/Source/ComplexMathFunctions/arm_cmplx_conj_q15.c ****     *pDst++ =  *pSrc++;
 109:.//Libraries/CMSIS/DSP/Source/ComplexMathFunctions/arm_cmplx_conj_q15.c ****     in1 = *pSrc++;
 110:.//Libraries/CMSIS/DSP/Source/ComplexMathFunctions/arm_cmplx_conj_q15.c ****     *pDst++ = (in1 == (q15_t) 0x8000) ? (q15_t) 0x7fff : -in1;
 111:.//Libraries/CMSIS/DSP/Source/ComplexMathFunctions/arm_cmplx_conj_q15.c **** 
 112:.//Libraries/CMSIS/DSP/Source/ComplexMathFunctions/arm_cmplx_conj_q15.c ****     *pDst++ =  *pSrc++;
 113:.//Libraries/CMSIS/DSP/Source/ComplexMathFunctions/arm_cmplx_conj_q15.c ****     in1 = *pSrc++;
 114:.//Libraries/CMSIS/DSP/Source/ComplexMathFunctions/arm_cmplx_conj_q15.c ****     *pDst++ = (in1 == (q15_t) 0x8000) ? (q15_t) 0x7fff : -in1;
 115:.//Libraries/CMSIS/DSP/Source/ComplexMathFunctions/arm_cmplx_conj_q15.c **** 
 116:.//Libraries/CMSIS/DSP/Source/ComplexMathFunctions/arm_cmplx_conj_q15.c ****     *pDst++ =  *pSrc++;
 117:.//Libraries/CMSIS/DSP/Source/ComplexMathFunctions/arm_cmplx_conj_q15.c ****     in1 = *pSrc++;
 118:.//Libraries/CMSIS/DSP/Source/ComplexMathFunctions/arm_cmplx_conj_q15.c ****     *pDst++ = (in1 == (q15_t) 0x8000) ? (q15_t) 0x7fff : -in1;
 119:.//Libraries/CMSIS/DSP/Source/ComplexMathFunctions/arm_cmplx_conj_q15.c **** 
 120:.//Libraries/CMSIS/DSP/Source/ComplexMathFunctions/arm_cmplx_conj_q15.c **** #endif /* #if defined (ARM_MATH_DSP) */
 121:.//Libraries/CMSIS/DSP/Source/ComplexMathFunctions/arm_cmplx_conj_q15.c **** 
 122:.//Libraries/CMSIS/DSP/Source/ComplexMathFunctions/arm_cmplx_conj_q15.c ****     /* Decrement loop counter */
 123:.//Libraries/CMSIS/DSP/Source/ComplexMathFunctions/arm_cmplx_conj_q15.c ****     blkCnt--;
 124:.//Libraries/CMSIS/DSP/Source/ComplexMathFunctions/arm_cmplx_conj_q15.c ****   }
 125:.//Libraries/CMSIS/DSP/Source/ComplexMathFunctions/arm_cmplx_conj_q15.c **** 
 126:.//Libraries/CMSIS/DSP/Source/ComplexMathFunctions/arm_cmplx_conj_q15.c ****   /* Loop unrolling: Compute remaining outputs */
 127:.//Libraries/CMSIS/DSP/Source/ComplexMathFunctions/arm_cmplx_conj_q15.c ****   blkCnt = numSamples % 0x4U;
 128:.//Libraries/CMSIS/DSP/Source/ComplexMathFunctions/arm_cmplx_conj_q15.c **** 
 129:.//Libraries/CMSIS/DSP/Source/ComplexMathFunctions/arm_cmplx_conj_q15.c **** #else
 130:.//Libraries/CMSIS/DSP/Source/ComplexMathFunctions/arm_cmplx_conj_q15.c **** 
 131:.//Libraries/CMSIS/DSP/Source/ComplexMathFunctions/arm_cmplx_conj_q15.c ****   /* Initialize blkCnt with number of samples */
 132:.//Libraries/CMSIS/DSP/Source/ComplexMathFunctions/arm_cmplx_conj_q15.c ****   blkCnt = numSamples;
  37              		.loc 1 132 3 view .LVU3
 133:.//Libraries/CMSIS/DSP/Source/ComplexMathFunctions/arm_cmplx_conj_q15.c **** 
 134:.//Libraries/CMSIS/DSP/Source/ComplexMathFunctions/arm_cmplx_conj_q15.c **** #endif /* #if defined (ARM_MATH_LOOPUNROLL) */
 135:.//Libraries/CMSIS/DSP/Source/ComplexMathFunctions/arm_cmplx_conj_q15.c **** 
ARM GAS  /var/folders/wl/rshn8xbx1dsfj1zgryf4g1240000gn/T//ccsGQpNC.s 			page 4


 136:.//Libraries/CMSIS/DSP/Source/ComplexMathFunctions/arm_cmplx_conj_q15.c ****   while (blkCnt > 0U)
  38              		.loc 1 136 3 view .LVU4
  39              		.loc 1 136 9 view .LVU5
  40 0000 9AB1     		cbz	r2, .L9
  41 0002 0023     		movs	r3, #0
  56:.//Libraries/CMSIS/DSP/Source/ComplexMathFunctions/arm_cmplx_conj_q15.c ****         uint32_t blkCnt;                               /* Loop counter */
  42              		.loc 1 56 1 is_stmt 0 view .LVU6
  43 0004 70B4     		push	{r4, r5, r6}
  44              	.LCFI0:
  45              		.cfi_def_cfa_offset 12
  46              		.cfi_offset 4, -12
  47              		.cfi_offset 5, -8
  48              		.cfi_offset 6, -4
  49 0006 861C     		adds	r6, r0, #2
  50 0008 8D1C     		adds	r5, r1, #2
  51              	.LVL1:
  52              	.L3:
 137:.//Libraries/CMSIS/DSP/Source/ComplexMathFunctions/arm_cmplx_conj_q15.c ****   {
 138:.//Libraries/CMSIS/DSP/Source/ComplexMathFunctions/arm_cmplx_conj_q15.c ****     /* C[0] + jC[1] = A[0]+ j(-1)A[1] */
 139:.//Libraries/CMSIS/DSP/Source/ComplexMathFunctions/arm_cmplx_conj_q15.c **** 
 140:.//Libraries/CMSIS/DSP/Source/ComplexMathFunctions/arm_cmplx_conj_q15.c ****     /* Calculate Complex Conjugate and store result in destination buffer. */
 141:.//Libraries/CMSIS/DSP/Source/ComplexMathFunctions/arm_cmplx_conj_q15.c ****     *pDst++ =  *pSrc++;
  53              		.loc 1 141 5 is_stmt 1 view .LVU7
  54              		.loc 1 141 16 is_stmt 0 view .LVU8
  55 000a 30F92340 		ldrsh	r4, [r0, r3, lsl #2]
  56              		.loc 1 141 13 view .LVU9
  57 000e 21F82340 		strh	r4, [r1, r3, lsl #2]	@ movhi
 142:.//Libraries/CMSIS/DSP/Source/ComplexMathFunctions/arm_cmplx_conj_q15.c ****     in1 = *pSrc++;
  58              		.loc 1 142 5 is_stmt 1 view .LVU10
  59              	.LVL2:
 143:.//Libraries/CMSIS/DSP/Source/ComplexMathFunctions/arm_cmplx_conj_q15.c **** #if defined (ARM_MATH_DSP)
 144:.//Libraries/CMSIS/DSP/Source/ComplexMathFunctions/arm_cmplx_conj_q15.c ****     *pDst++ = __SSAT(-in1, 16);
  60              		.loc 1 144 5 view .LVU11
  61              	.LBB2:
  62              		.loc 1 144 15 view .LVU12
  63              		.loc 1 144 15 view .LVU13
  64              	.LBE2:
 142:.//Libraries/CMSIS/DSP/Source/ComplexMathFunctions/arm_cmplx_conj_q15.c ****     in1 = *pSrc++;
  65              		.loc 1 142 9 is_stmt 0 view .LVU14
  66 0012 36F92340 		ldrsh	r4, [r6, r3, lsl #2]
  67              	.LBB3:
  68              		.loc 1 144 15 view .LVU15
  69 0016 6442     		rsbs	r4, r4, #0
  70              		.syntax unified
  71              	@ 144 ".//Libraries/CMSIS/DSP/Source/ComplexMathFunctions/arm_cmplx_conj_q15.c" 1
  72 0018 04F30F04 		ssat r4, #16, r4
  73              	@ 0 "" 2
  74              	.LVL3:
  75              		.loc 1 144 15 is_stmt 1 view .LVU16
  76              		.loc 1 144 15 is_stmt 0 view .LVU17
  77              		.thumb
  78              		.syntax unified
  79              	.LBE3:
  80              		.loc 1 144 13 view .LVU18
  81 001c 25F82340 		strh	r4, [r5, r3, lsl #2]	@ movhi
  82              	.LVL4:
 145:.//Libraries/CMSIS/DSP/Source/ComplexMathFunctions/arm_cmplx_conj_q15.c **** #else
ARM GAS  /var/folders/wl/rshn8xbx1dsfj1zgryf4g1240000gn/T//ccsGQpNC.s 			page 5


 146:.//Libraries/CMSIS/DSP/Source/ComplexMathFunctions/arm_cmplx_conj_q15.c ****     *pDst++ = (in1 == (q15_t) 0x8000) ? (q15_t) 0x7fff : -in1;
 147:.//Libraries/CMSIS/DSP/Source/ComplexMathFunctions/arm_cmplx_conj_q15.c **** #endif
 148:.//Libraries/CMSIS/DSP/Source/ComplexMathFunctions/arm_cmplx_conj_q15.c **** 
 149:.//Libraries/CMSIS/DSP/Source/ComplexMathFunctions/arm_cmplx_conj_q15.c ****     /* Decrement loop counter */
 150:.//Libraries/CMSIS/DSP/Source/ComplexMathFunctions/arm_cmplx_conj_q15.c ****     blkCnt--;
  83              		.loc 1 150 5 is_stmt 1 view .LVU19
 136:.//Libraries/CMSIS/DSP/Source/ComplexMathFunctions/arm_cmplx_conj_q15.c ****   {
  84              		.loc 1 136 9 view .LVU20
  85 0020 0133     		adds	r3, r3, #1
  86              	.LVL5:
 136:.//Libraries/CMSIS/DSP/Source/ComplexMathFunctions/arm_cmplx_conj_q15.c ****   {
  87              		.loc 1 136 9 is_stmt 0 view .LVU21
  88 0022 9342     		cmp	r3, r2
  89 0024 F1D1     		bne	.L3
 151:.//Libraries/CMSIS/DSP/Source/ComplexMathFunctions/arm_cmplx_conj_q15.c ****   }
 152:.//Libraries/CMSIS/DSP/Source/ComplexMathFunctions/arm_cmplx_conj_q15.c **** 
 153:.//Libraries/CMSIS/DSP/Source/ComplexMathFunctions/arm_cmplx_conj_q15.c **** }
  90              		.loc 1 153 1 view .LVU22
  91 0026 70BC     		pop	{r4, r5, r6}
  92              	.LCFI1:
  93              		.cfi_restore 6
  94              		.cfi_restore 5
  95              		.cfi_restore 4
  96              		.cfi_def_cfa_offset 0
  97              	.LVL6:
  98              		.loc 1 153 1 view .LVU23
  99 0028 7047     		bx	lr
 100              	.LVL7:
 101              	.L9:
 102              		.loc 1 153 1 view .LVU24
 103 002a 7047     		bx	lr
 104              		.cfi_endproc
 105              	.LFE145:
 107              		.text
 108              	.Letext0:
 109              		.file 2 "/opt/homebrew/Cellar/arm-none-eabi-gcc/9-2019-q4-major/gcc/arm-none-eabi/include/machine/
 110              		.file 3 "/opt/homebrew/Cellar/arm-none-eabi-gcc/9-2019-q4-major/gcc/arm-none-eabi/include/sys/_std
 111              		.file 4 "/opt/homebrew/Cellar/arm-none-eabi-gcc/9-2019-q4-major/gcc/arm-none-eabi/include/sys/lock
 112              		.file 5 "/opt/homebrew/Cellar/arm-none-eabi-gcc/9-2019-q4-major/gcc/arm-none-eabi/include/sys/_typ
 113              		.file 6 "/opt/homebrew/Cellar/arm-none-eabi-gcc/9-2019-q4-major/gcc/lib/gcc/arm-none-eabi/9.2.1/in
 114              		.file 7 "/opt/homebrew/Cellar/arm-none-eabi-gcc/9-2019-q4-major/gcc/arm-none-eabi/include/sys/reen
 115              		.file 8 "/opt/homebrew/Cellar/arm-none-eabi-gcc/9-2019-q4-major/gcc/arm-none-eabi/include/math.h"
 116              		.file 9 ".//Libraries/CMSIS/DSP/Include/arm_math.h"
ARM GAS  /var/folders/wl/rshn8xbx1dsfj1zgryf4g1240000gn/T//ccsGQpNC.s 			page 6

