ARM GAS  /var/folders/wl/rshn8xbx1dsfj1zgryf4g1240000gn/T//ccRY5JJx.s 			page 1


   1              		.cpu cortex-m7
   2              		.eabi_attribute 28, 1
   3              		.eabi_attribute 20, 1
   4              		.eabi_attribute 21, 1
   5              		.eabi_attribute 23, 3
   6              		.eabi_attribute 24, 1
   7              		.eabi_attribute 25, 1
   8              		.eabi_attribute 26, 1
   9              		.eabi_attribute 30, 2
  10              		.eabi_attribute 34, 1
  11              		.eabi_attribute 18, 4
  12              		.file	"arm_cfft_radix4_q31.c"
  13              		.text
  14              	.Ltext0:
  15              		.cfi_sections	.debug_frame
  16              		.section	.text.arm_radix4_butterfly_q31,"ax",%progbits
  17              		.align	1
  18              		.p2align 2,,3
  19              		.global	arm_radix4_butterfly_q31
  20              		.arch armv7e-m
  21              		.syntax unified
  22              		.thumb
  23              		.thumb_func
  24              		.fpu fpv5-d16
  26              	arm_radix4_butterfly_q31:
  27              	.LVL0:
  28              	.LFB146:
  29              		.file 1 ".//Libraries/CMSIS/DSP/Source/TransformFunctions/arm_cfft_radix4_q31.c"
   1:.//Libraries/CMSIS/DSP/Source/TransformFunctions/arm_cfft_radix4_q31.c **** /* ----------------------------------------------------------------------
   2:.//Libraries/CMSIS/DSP/Source/TransformFunctions/arm_cfft_radix4_q31.c ****  * Project:      CMSIS DSP Library
   3:.//Libraries/CMSIS/DSP/Source/TransformFunctions/arm_cfft_radix4_q31.c ****  * Title:        arm_cfft_radix4_q31.c
   4:.//Libraries/CMSIS/DSP/Source/TransformFunctions/arm_cfft_radix4_q31.c ****  * Description:  This file has function definition of Radix-4 FFT & IFFT function and
   5:.//Libraries/CMSIS/DSP/Source/TransformFunctions/arm_cfft_radix4_q31.c ****  *               In-place bit reversal using bit reversal table
   6:.//Libraries/CMSIS/DSP/Source/TransformFunctions/arm_cfft_radix4_q31.c ****  *
   7:.//Libraries/CMSIS/DSP/Source/TransformFunctions/arm_cfft_radix4_q31.c ****  * $Date:        18. March 2019
   8:.//Libraries/CMSIS/DSP/Source/TransformFunctions/arm_cfft_radix4_q31.c ****  * $Revision:    V1.6.0
   9:.//Libraries/CMSIS/DSP/Source/TransformFunctions/arm_cfft_radix4_q31.c ****  *
  10:.//Libraries/CMSIS/DSP/Source/TransformFunctions/arm_cfft_radix4_q31.c ****  * Target Processor: Cortex-M cores
  11:.//Libraries/CMSIS/DSP/Source/TransformFunctions/arm_cfft_radix4_q31.c ****  * -------------------------------------------------------------------- */
  12:.//Libraries/CMSIS/DSP/Source/TransformFunctions/arm_cfft_radix4_q31.c **** /*
  13:.//Libraries/CMSIS/DSP/Source/TransformFunctions/arm_cfft_radix4_q31.c ****  * Copyright (C) 2010-2019 ARM Limited or its affiliates. All rights reserved.
  14:.//Libraries/CMSIS/DSP/Source/TransformFunctions/arm_cfft_radix4_q31.c ****  *
  15:.//Libraries/CMSIS/DSP/Source/TransformFunctions/arm_cfft_radix4_q31.c ****  * SPDX-License-Identifier: Apache-2.0
  16:.//Libraries/CMSIS/DSP/Source/TransformFunctions/arm_cfft_radix4_q31.c ****  *
  17:.//Libraries/CMSIS/DSP/Source/TransformFunctions/arm_cfft_radix4_q31.c ****  * Licensed under the Apache License, Version 2.0 (the License); you may
  18:.//Libraries/CMSIS/DSP/Source/TransformFunctions/arm_cfft_radix4_q31.c ****  * not use this file except in compliance with the License.
  19:.//Libraries/CMSIS/DSP/Source/TransformFunctions/arm_cfft_radix4_q31.c ****  * You may obtain a copy of the License at
  20:.//Libraries/CMSIS/DSP/Source/TransformFunctions/arm_cfft_radix4_q31.c ****  *
  21:.//Libraries/CMSIS/DSP/Source/TransformFunctions/arm_cfft_radix4_q31.c ****  * www.apache.org/licenses/LICENSE-2.0
  22:.//Libraries/CMSIS/DSP/Source/TransformFunctions/arm_cfft_radix4_q31.c ****  *
  23:.//Libraries/CMSIS/DSP/Source/TransformFunctions/arm_cfft_radix4_q31.c ****  * Unless required by applicable law or agreed to in writing, software
  24:.//Libraries/CMSIS/DSP/Source/TransformFunctions/arm_cfft_radix4_q31.c ****  * distributed under the License is distributed on an AS IS BASIS, WITHOUT
  25:.//Libraries/CMSIS/DSP/Source/TransformFunctions/arm_cfft_radix4_q31.c ****  * WARRANTIES OR CONDITIONS OF ANY KIND, either express or implied.
  26:.//Libraries/CMSIS/DSP/Source/TransformFunctions/arm_cfft_radix4_q31.c ****  * See the License for the specific language governing permissions and
  27:.//Libraries/CMSIS/DSP/Source/TransformFunctions/arm_cfft_radix4_q31.c ****  * limitations under the License.
  28:.//Libraries/CMSIS/DSP/Source/TransformFunctions/arm_cfft_radix4_q31.c ****  */
  29:.//Libraries/CMSIS/DSP/Source/TransformFunctions/arm_cfft_radix4_q31.c **** 
ARM GAS  /var/folders/wl/rshn8xbx1dsfj1zgryf4g1240000gn/T//ccRY5JJx.s 			page 2


  30:.//Libraries/CMSIS/DSP/Source/TransformFunctions/arm_cfft_radix4_q31.c **** #include "arm_math.h"
  31:.//Libraries/CMSIS/DSP/Source/TransformFunctions/arm_cfft_radix4_q31.c **** 
  32:.//Libraries/CMSIS/DSP/Source/TransformFunctions/arm_cfft_radix4_q31.c **** void arm_radix4_butterfly_inverse_q31(
  33:.//Libraries/CMSIS/DSP/Source/TransformFunctions/arm_cfft_radix4_q31.c ****         q31_t * pSrc,
  34:.//Libraries/CMSIS/DSP/Source/TransformFunctions/arm_cfft_radix4_q31.c ****         uint32_t fftLen,
  35:.//Libraries/CMSIS/DSP/Source/TransformFunctions/arm_cfft_radix4_q31.c ****   const q31_t * pCoef,
  36:.//Libraries/CMSIS/DSP/Source/TransformFunctions/arm_cfft_radix4_q31.c ****         uint32_t twidCoefModifier);
  37:.//Libraries/CMSIS/DSP/Source/TransformFunctions/arm_cfft_radix4_q31.c **** 
  38:.//Libraries/CMSIS/DSP/Source/TransformFunctions/arm_cfft_radix4_q31.c **** void arm_radix4_butterfly_q31(
  39:.//Libraries/CMSIS/DSP/Source/TransformFunctions/arm_cfft_radix4_q31.c ****         q31_t * pSrc,
  40:.//Libraries/CMSIS/DSP/Source/TransformFunctions/arm_cfft_radix4_q31.c ****         uint32_t fftLen,
  41:.//Libraries/CMSIS/DSP/Source/TransformFunctions/arm_cfft_radix4_q31.c ****   const q31_t * pCoef,
  42:.//Libraries/CMSIS/DSP/Source/TransformFunctions/arm_cfft_radix4_q31.c ****         uint32_t twidCoefModifier);
  43:.//Libraries/CMSIS/DSP/Source/TransformFunctions/arm_cfft_radix4_q31.c **** 
  44:.//Libraries/CMSIS/DSP/Source/TransformFunctions/arm_cfft_radix4_q31.c **** void arm_bitreversal_q31(
  45:.//Libraries/CMSIS/DSP/Source/TransformFunctions/arm_cfft_radix4_q31.c ****         q31_t * pSrc,
  46:.//Libraries/CMSIS/DSP/Source/TransformFunctions/arm_cfft_radix4_q31.c ****         uint32_t fftLen,
  47:.//Libraries/CMSIS/DSP/Source/TransformFunctions/arm_cfft_radix4_q31.c ****         uint16_t bitRevFactor,
  48:.//Libraries/CMSIS/DSP/Source/TransformFunctions/arm_cfft_radix4_q31.c ****   const uint16_t * pBitRevTab);
  49:.//Libraries/CMSIS/DSP/Source/TransformFunctions/arm_cfft_radix4_q31.c **** 
  50:.//Libraries/CMSIS/DSP/Source/TransformFunctions/arm_cfft_radix4_q31.c **** /**
  51:.//Libraries/CMSIS/DSP/Source/TransformFunctions/arm_cfft_radix4_q31.c ****   @ingroup groupTransforms
  52:.//Libraries/CMSIS/DSP/Source/TransformFunctions/arm_cfft_radix4_q31.c ****  */
  53:.//Libraries/CMSIS/DSP/Source/TransformFunctions/arm_cfft_radix4_q31.c **** 
  54:.//Libraries/CMSIS/DSP/Source/TransformFunctions/arm_cfft_radix4_q31.c **** /**
  55:.//Libraries/CMSIS/DSP/Source/TransformFunctions/arm_cfft_radix4_q31.c ****   @addtogroup ComplexFFT
  56:.//Libraries/CMSIS/DSP/Source/TransformFunctions/arm_cfft_radix4_q31.c ****   @{
  57:.//Libraries/CMSIS/DSP/Source/TransformFunctions/arm_cfft_radix4_q31.c ****  */
  58:.//Libraries/CMSIS/DSP/Source/TransformFunctions/arm_cfft_radix4_q31.c **** 
  59:.//Libraries/CMSIS/DSP/Source/TransformFunctions/arm_cfft_radix4_q31.c **** /**
  60:.//Libraries/CMSIS/DSP/Source/TransformFunctions/arm_cfft_radix4_q31.c ****   @brief         Processing function for the Q31 CFFT/CIFFT.
  61:.//Libraries/CMSIS/DSP/Source/TransformFunctions/arm_cfft_radix4_q31.c ****   @deprecated    Do not use this function.  It has been superseded by \ref arm_cfft_q31 and will be
  62:.//Libraries/CMSIS/DSP/Source/TransformFunctions/arm_cfft_radix4_q31.c ****   @param[in]     S    points to an instance of the Q31 CFFT/CIFFT structure
  63:.//Libraries/CMSIS/DSP/Source/TransformFunctions/arm_cfft_radix4_q31.c ****   @param[in,out] pSrc points to the complex data buffer of size <code>2*fftLen</code>. Processing o
  64:.//Libraries/CMSIS/DSP/Source/TransformFunctions/arm_cfft_radix4_q31.c ****   @return        none
  65:.//Libraries/CMSIS/DSP/Source/TransformFunctions/arm_cfft_radix4_q31.c ****  
  66:.//Libraries/CMSIS/DSP/Source/TransformFunctions/arm_cfft_radix4_q31.c ****   @par Input and output formats:
  67:.//Libraries/CMSIS/DSP/Source/TransformFunctions/arm_cfft_radix4_q31.c ****                  Internally input is downscaled by 2 for every stage to avoid saturations inside CF
  68:.//Libraries/CMSIS/DSP/Source/TransformFunctions/arm_cfft_radix4_q31.c ****                  Hence the output format is different for different FFT sizes.
  69:.//Libraries/CMSIS/DSP/Source/TransformFunctions/arm_cfft_radix4_q31.c ****                  The input and output formats for different FFT sizes and number of bits to upscale
  70:.//Libraries/CMSIS/DSP/Source/TransformFunctions/arm_cfft_radix4_q31.c ****   @par
  71:.//Libraries/CMSIS/DSP/Source/TransformFunctions/arm_cfft_radix4_q31.c ****                  \image html CFFTQ31.gif "Input and Output Formats for Q31 CFFT"
  72:.//Libraries/CMSIS/DSP/Source/TransformFunctions/arm_cfft_radix4_q31.c ****                  \image html CIFFTQ31.gif "Input and Output Formats for Q31 CIFFT"
  73:.//Libraries/CMSIS/DSP/Source/TransformFunctions/arm_cfft_radix4_q31.c ****  */
  74:.//Libraries/CMSIS/DSP/Source/TransformFunctions/arm_cfft_radix4_q31.c **** 
  75:.//Libraries/CMSIS/DSP/Source/TransformFunctions/arm_cfft_radix4_q31.c **** void arm_cfft_radix4_q31(
  76:.//Libraries/CMSIS/DSP/Source/TransformFunctions/arm_cfft_radix4_q31.c ****   const arm_cfft_radix4_instance_q31 * S,
  77:.//Libraries/CMSIS/DSP/Source/TransformFunctions/arm_cfft_radix4_q31.c ****         q31_t * pSrc)
  78:.//Libraries/CMSIS/DSP/Source/TransformFunctions/arm_cfft_radix4_q31.c **** {
  79:.//Libraries/CMSIS/DSP/Source/TransformFunctions/arm_cfft_radix4_q31.c ****   if (S->ifftFlag == 1U)
  80:.//Libraries/CMSIS/DSP/Source/TransformFunctions/arm_cfft_radix4_q31.c ****   {
  81:.//Libraries/CMSIS/DSP/Source/TransformFunctions/arm_cfft_radix4_q31.c ****     /* Complex IFFT radix-4 */
  82:.//Libraries/CMSIS/DSP/Source/TransformFunctions/arm_cfft_radix4_q31.c ****     arm_radix4_butterfly_inverse_q31(pSrc, S->fftLen, S->pTwiddle, S->twidCoefModifier);
  83:.//Libraries/CMSIS/DSP/Source/TransformFunctions/arm_cfft_radix4_q31.c ****   }
  84:.//Libraries/CMSIS/DSP/Source/TransformFunctions/arm_cfft_radix4_q31.c ****   else
  85:.//Libraries/CMSIS/DSP/Source/TransformFunctions/arm_cfft_radix4_q31.c ****   {
  86:.//Libraries/CMSIS/DSP/Source/TransformFunctions/arm_cfft_radix4_q31.c ****     /* Complex FFT radix-4 */
ARM GAS  /var/folders/wl/rshn8xbx1dsfj1zgryf4g1240000gn/T//ccRY5JJx.s 			page 3


  87:.//Libraries/CMSIS/DSP/Source/TransformFunctions/arm_cfft_radix4_q31.c ****     arm_radix4_butterfly_q31(pSrc, S->fftLen, S->pTwiddle, S->twidCoefModifier);
  88:.//Libraries/CMSIS/DSP/Source/TransformFunctions/arm_cfft_radix4_q31.c ****   }
  89:.//Libraries/CMSIS/DSP/Source/TransformFunctions/arm_cfft_radix4_q31.c **** 
  90:.//Libraries/CMSIS/DSP/Source/TransformFunctions/arm_cfft_radix4_q31.c ****   if (S->bitReverseFlag == 1U)
  91:.//Libraries/CMSIS/DSP/Source/TransformFunctions/arm_cfft_radix4_q31.c ****   {
  92:.//Libraries/CMSIS/DSP/Source/TransformFunctions/arm_cfft_radix4_q31.c ****     /*  Bit Reversal */
  93:.//Libraries/CMSIS/DSP/Source/TransformFunctions/arm_cfft_radix4_q31.c ****     arm_bitreversal_q31(pSrc, S->fftLen, S->bitRevFactor, S->pBitRevTable);
  94:.//Libraries/CMSIS/DSP/Source/TransformFunctions/arm_cfft_radix4_q31.c ****   }
  95:.//Libraries/CMSIS/DSP/Source/TransformFunctions/arm_cfft_radix4_q31.c **** 
  96:.//Libraries/CMSIS/DSP/Source/TransformFunctions/arm_cfft_radix4_q31.c **** }
  97:.//Libraries/CMSIS/DSP/Source/TransformFunctions/arm_cfft_radix4_q31.c **** 
  98:.//Libraries/CMSIS/DSP/Source/TransformFunctions/arm_cfft_radix4_q31.c **** /**
  99:.//Libraries/CMSIS/DSP/Source/TransformFunctions/arm_cfft_radix4_q31.c ****   @} end of ComplexFFT group
 100:.//Libraries/CMSIS/DSP/Source/TransformFunctions/arm_cfft_radix4_q31.c ****  */
 101:.//Libraries/CMSIS/DSP/Source/TransformFunctions/arm_cfft_radix4_q31.c **** 
 102:.//Libraries/CMSIS/DSP/Source/TransformFunctions/arm_cfft_radix4_q31.c **** /*
 103:.//Libraries/CMSIS/DSP/Source/TransformFunctions/arm_cfft_radix4_q31.c ****  * Radix-4 FFT algorithm used is :
 104:.//Libraries/CMSIS/DSP/Source/TransformFunctions/arm_cfft_radix4_q31.c ****  *
 105:.//Libraries/CMSIS/DSP/Source/TransformFunctions/arm_cfft_radix4_q31.c ****  * Input real and imaginary data:
 106:.//Libraries/CMSIS/DSP/Source/TransformFunctions/arm_cfft_radix4_q31.c ****  * x(n) = xa + j * ya
 107:.//Libraries/CMSIS/DSP/Source/TransformFunctions/arm_cfft_radix4_q31.c ****  * x(n+N/4 ) = xb + j * yb
 108:.//Libraries/CMSIS/DSP/Source/TransformFunctions/arm_cfft_radix4_q31.c ****  * x(n+N/2 ) = xc + j * yc
 109:.//Libraries/CMSIS/DSP/Source/TransformFunctions/arm_cfft_radix4_q31.c ****  * x(n+3N 4) = xd + j * yd
 110:.//Libraries/CMSIS/DSP/Source/TransformFunctions/arm_cfft_radix4_q31.c ****  *
 111:.//Libraries/CMSIS/DSP/Source/TransformFunctions/arm_cfft_radix4_q31.c ****  *
 112:.//Libraries/CMSIS/DSP/Source/TransformFunctions/arm_cfft_radix4_q31.c ****  * Output real and imaginary data:
 113:.//Libraries/CMSIS/DSP/Source/TransformFunctions/arm_cfft_radix4_q31.c ****  * x(4r) = xa'+ j * ya'
 114:.//Libraries/CMSIS/DSP/Source/TransformFunctions/arm_cfft_radix4_q31.c ****  * x(4r+1) = xb'+ j * yb'
 115:.//Libraries/CMSIS/DSP/Source/TransformFunctions/arm_cfft_radix4_q31.c ****  * x(4r+2) = xc'+ j * yc'
 116:.//Libraries/CMSIS/DSP/Source/TransformFunctions/arm_cfft_radix4_q31.c ****  * x(4r+3) = xd'+ j * yd'
 117:.//Libraries/CMSIS/DSP/Source/TransformFunctions/arm_cfft_radix4_q31.c ****  *
 118:.//Libraries/CMSIS/DSP/Source/TransformFunctions/arm_cfft_radix4_q31.c ****  *
 119:.//Libraries/CMSIS/DSP/Source/TransformFunctions/arm_cfft_radix4_q31.c ****  * Twiddle factors for radix-4 FFT:
 120:.//Libraries/CMSIS/DSP/Source/TransformFunctions/arm_cfft_radix4_q31.c ****  * Wn = co1 + j * (- si1)
 121:.//Libraries/CMSIS/DSP/Source/TransformFunctions/arm_cfft_radix4_q31.c ****  * W2n = co2 + j * (- si2)
 122:.//Libraries/CMSIS/DSP/Source/TransformFunctions/arm_cfft_radix4_q31.c ****  * W3n = co3 + j * (- si3)
 123:.//Libraries/CMSIS/DSP/Source/TransformFunctions/arm_cfft_radix4_q31.c ****  *
 124:.//Libraries/CMSIS/DSP/Source/TransformFunctions/arm_cfft_radix4_q31.c ****  *  Butterfly implementation:
 125:.//Libraries/CMSIS/DSP/Source/TransformFunctions/arm_cfft_radix4_q31.c ****  * xa' = xa + xb + xc + xd
 126:.//Libraries/CMSIS/DSP/Source/TransformFunctions/arm_cfft_radix4_q31.c ****  * ya' = ya + yb + yc + yd
 127:.//Libraries/CMSIS/DSP/Source/TransformFunctions/arm_cfft_radix4_q31.c ****  * xb' = (xa+yb-xc-yd)* co1 + (ya-xb-yc+xd)* (si1)
 128:.//Libraries/CMSIS/DSP/Source/TransformFunctions/arm_cfft_radix4_q31.c ****  * yb' = (ya-xb-yc+xd)* co1 - (xa+yb-xc-yd)* (si1)
 129:.//Libraries/CMSIS/DSP/Source/TransformFunctions/arm_cfft_radix4_q31.c ****  * xc' = (xa-xb+xc-xd)* co2 + (ya-yb+yc-yd)* (si2)
 130:.//Libraries/CMSIS/DSP/Source/TransformFunctions/arm_cfft_radix4_q31.c ****  * yc' = (ya-yb+yc-yd)* co2 - (xa-xb+xc-xd)* (si2)
 131:.//Libraries/CMSIS/DSP/Source/TransformFunctions/arm_cfft_radix4_q31.c ****  * xd' = (xa-yb-xc+yd)* co3 + (ya+xb-yc-xd)* (si3)
 132:.//Libraries/CMSIS/DSP/Source/TransformFunctions/arm_cfft_radix4_q31.c ****  * yd' = (ya+xb-yc-xd)* co3 - (xa-yb-xc+yd)* (si3)
 133:.//Libraries/CMSIS/DSP/Source/TransformFunctions/arm_cfft_radix4_q31.c ****  *
 134:.//Libraries/CMSIS/DSP/Source/TransformFunctions/arm_cfft_radix4_q31.c ****  */
 135:.//Libraries/CMSIS/DSP/Source/TransformFunctions/arm_cfft_radix4_q31.c **** 
 136:.//Libraries/CMSIS/DSP/Source/TransformFunctions/arm_cfft_radix4_q31.c **** /**
 137:.//Libraries/CMSIS/DSP/Source/TransformFunctions/arm_cfft_radix4_q31.c ****   @brief         Core function for the Q31 CFFT butterfly process.
 138:.//Libraries/CMSIS/DSP/Source/TransformFunctions/arm_cfft_radix4_q31.c ****   @param[in,out] pSrc             points to the in-place buffer of Q31 data type.
 139:.//Libraries/CMSIS/DSP/Source/TransformFunctions/arm_cfft_radix4_q31.c ****   @param[in]     fftLen           length of the FFT.
 140:.//Libraries/CMSIS/DSP/Source/TransformFunctions/arm_cfft_radix4_q31.c ****   @param[in]     pCoef            points to twiddle coefficient buffer.
 141:.//Libraries/CMSIS/DSP/Source/TransformFunctions/arm_cfft_radix4_q31.c ****   @param[in]     twidCoefModifier twiddle coefficient modifier that supports different size FFTs wi
 142:.//Libraries/CMSIS/DSP/Source/TransformFunctions/arm_cfft_radix4_q31.c ****   @return        none
 143:.//Libraries/CMSIS/DSP/Source/TransformFunctions/arm_cfft_radix4_q31.c ****  */
ARM GAS  /var/folders/wl/rshn8xbx1dsfj1zgryf4g1240000gn/T//ccRY5JJx.s 			page 4


 144:.//Libraries/CMSIS/DSP/Source/TransformFunctions/arm_cfft_radix4_q31.c **** 
 145:.//Libraries/CMSIS/DSP/Source/TransformFunctions/arm_cfft_radix4_q31.c **** void arm_radix4_butterfly_q31(
 146:.//Libraries/CMSIS/DSP/Source/TransformFunctions/arm_cfft_radix4_q31.c ****         q31_t * pSrc,
 147:.//Libraries/CMSIS/DSP/Source/TransformFunctions/arm_cfft_radix4_q31.c ****         uint32_t fftLen,
 148:.//Libraries/CMSIS/DSP/Source/TransformFunctions/arm_cfft_radix4_q31.c ****   const q31_t * pCoef,
 149:.//Libraries/CMSIS/DSP/Source/TransformFunctions/arm_cfft_radix4_q31.c ****         uint32_t twidCoefModifier)
 150:.//Libraries/CMSIS/DSP/Source/TransformFunctions/arm_cfft_radix4_q31.c **** {
  30              		.loc 1 150 1 view -0
  31              		.cfi_startproc
  32              		@ args = 0, pretend = 0, frame = 120
  33              		@ frame_needed = 0, uses_anonymous_args = 0
 151:.//Libraries/CMSIS/DSP/Source/TransformFunctions/arm_cfft_radix4_q31.c ****         uint32_t n1, n2, ia1, ia2, ia3, i0, i1, i2, i3, j, k;
  34              		.loc 1 151 9 view .LVU1
 152:.//Libraries/CMSIS/DSP/Source/TransformFunctions/arm_cfft_radix4_q31.c ****         q31_t t1, t2, r1, r2, s1, s2, co1, co2, co3, si1, si2, si3;
  35              		.loc 1 152 9 view .LVU2
 153:.//Libraries/CMSIS/DSP/Source/TransformFunctions/arm_cfft_radix4_q31.c ****         
 154:.//Libraries/CMSIS/DSP/Source/TransformFunctions/arm_cfft_radix4_q31.c ****         q31_t xa, xb, xc, xd;
  36              		.loc 1 154 9 view .LVU3
 155:.//Libraries/CMSIS/DSP/Source/TransformFunctions/arm_cfft_radix4_q31.c ****         q31_t ya, yb, yc, yd;
  37              		.loc 1 155 9 view .LVU4
 156:.//Libraries/CMSIS/DSP/Source/TransformFunctions/arm_cfft_radix4_q31.c ****         q31_t xa_out, xb_out, xc_out, xd_out;
  38              		.loc 1 156 9 view .LVU5
 157:.//Libraries/CMSIS/DSP/Source/TransformFunctions/arm_cfft_radix4_q31.c ****         q31_t ya_out, yb_out, yc_out, yd_out;
  39              		.loc 1 157 9 view .LVU6
 158:.//Libraries/CMSIS/DSP/Source/TransformFunctions/arm_cfft_radix4_q31.c ****         
 159:.//Libraries/CMSIS/DSP/Source/TransformFunctions/arm_cfft_radix4_q31.c ****         q31_t *ptr1;
  40              		.loc 1 159 9 view .LVU7
 160:.//Libraries/CMSIS/DSP/Source/TransformFunctions/arm_cfft_radix4_q31.c **** 
 161:.//Libraries/CMSIS/DSP/Source/TransformFunctions/arm_cfft_radix4_q31.c ****   /* Total process is divided into three stages */
 162:.//Libraries/CMSIS/DSP/Source/TransformFunctions/arm_cfft_radix4_q31.c **** 
 163:.//Libraries/CMSIS/DSP/Source/TransformFunctions/arm_cfft_radix4_q31.c ****   /* process first stage, middle stages, & last stage */
 164:.//Libraries/CMSIS/DSP/Source/TransformFunctions/arm_cfft_radix4_q31.c **** 
 165:.//Libraries/CMSIS/DSP/Source/TransformFunctions/arm_cfft_radix4_q31.c **** 
 166:.//Libraries/CMSIS/DSP/Source/TransformFunctions/arm_cfft_radix4_q31.c ****   /* start of first stage process */
 167:.//Libraries/CMSIS/DSP/Source/TransformFunctions/arm_cfft_radix4_q31.c **** 
 168:.//Libraries/CMSIS/DSP/Source/TransformFunctions/arm_cfft_radix4_q31.c ****   /*  Initializations for the first stage */
 169:.//Libraries/CMSIS/DSP/Source/TransformFunctions/arm_cfft_radix4_q31.c ****   n2 = fftLen;
  41              		.loc 1 169 3 view .LVU8
 150:.//Libraries/CMSIS/DSP/Source/TransformFunctions/arm_cfft_radix4_q31.c ****         uint32_t n1, n2, ia1, ia2, ia3, i0, i1, i2, i3, j, k;
  42              		.loc 1 150 1 is_stmt 0 view .LVU9
  43 0000 2DE9F04F 		push	{r4, r5, r6, r7, r8, r9, r10, fp, lr}
  44              	.LCFI0:
  45              		.cfi_def_cfa_offset 36
  46              		.cfi_offset 4, -36
  47              		.cfi_offset 5, -32
  48              		.cfi_offset 6, -28
  49              		.cfi_offset 7, -24
  50              		.cfi_offset 8, -20
  51              		.cfi_offset 9, -16
  52              		.cfi_offset 10, -12
  53              		.cfi_offset 11, -8
  54              		.cfi_offset 14, -4
  55 0004 9FB0     		sub	sp, sp, #124
  56              	.LCFI1:
  57              		.cfi_def_cfa_offset 160
 150:.//Libraries/CMSIS/DSP/Source/TransformFunctions/arm_cfft_radix4_q31.c ****         uint32_t n1, n2, ia1, ia2, ia3, i0, i1, i2, i3, j, k;
  58              		.loc 1 150 1 view .LVU10
ARM GAS  /var/folders/wl/rshn8xbx1dsfj1zgryf4g1240000gn/T//ccRY5JJx.s 			page 5


  59 0006 1C46     		mov	r4, r3
  60 0008 00F1040B 		add	fp, r0, #4
  61 000c 8046     		mov	r8, r0
  62 000e 1293     		str	r3, [sp, #72]
  63 0010 03EB4303 		add	r3, r3, r3, lsl #1
  64              	.LVL1:
 150:.//Libraries/CMSIS/DSP/Source/TransformFunctions/arm_cfft_radix4_q31.c ****         uint32_t n1, n2, ia1, ia2, ia3, i0, i1, i2, i3, j, k;
  65              		.loc 1 150 1 view .LVU11
  66 0014 1191     		str	r1, [sp, #68]
  67              	.LVL2:
 170:.//Libraries/CMSIS/DSP/Source/TransformFunctions/arm_cfft_radix4_q31.c ****   n1 = n2;
  68              		.loc 1 170 3 is_stmt 1 view .LVU12
 171:.//Libraries/CMSIS/DSP/Source/TransformFunctions/arm_cfft_radix4_q31.c ****   /* n2 = fftLen/4 */
 172:.//Libraries/CMSIS/DSP/Source/TransformFunctions/arm_cfft_radix4_q31.c ****   n2 >>= 2U;
  69              		.loc 1 172 3 view .LVU13
  70              		.loc 1 172 6 is_stmt 0 view .LVU14
  71 0016 8908     		lsrs	r1, r1, #2
  72              	.LVL3:
  73              		.loc 1 172 6 view .LVU15
  74 0018 DB00     		lsls	r3, r3, #3
 150:.//Libraries/CMSIS/DSP/Source/TransformFunctions/arm_cfft_radix4_q31.c ****         uint32_t n1, n2, ia1, ia2, ia3, i0, i1, i2, i3, j, k;
  75              		.loc 1 150 1 view .LVU16
  76 001a 1C92     		str	r2, [sp, #112]
  77 001c 00EB0119 		add	r9, r0, r1, lsl #4
  78 0020 0432     		adds	r2, r2, #4
  79              	.LVL4:
 150:.//Libraries/CMSIS/DSP/Source/TransformFunctions/arm_cfft_radix4_q31.c ****         uint32_t n1, n2, ia1, ia2, ia3, i0, i1, i2, i3, j, k;
  80              		.loc 1 150 1 view .LVU17
  81 0022 0E93     		str	r3, [sp, #56]
  82 0024 2301     		lsls	r3, r4, #4
  83 0026 09F1040E 		add	lr, r9, #4
 173:.//Libraries/CMSIS/DSP/Source/TransformFunctions/arm_cfft_radix4_q31.c ****   i0 = 0U;
  84              		.loc 1 173 6 view .LVU18
  85 002a 4FF0000C 		mov	ip, #0
  86 002e 0C93     		str	r3, [sp, #48]
  87 0030 E300     		lsls	r3, r4, #3
  88 0032 4FEAC10A 		lsl	r10, r1, #3
 172:.//Libraries/CMSIS/DSP/Source/TransformFunctions/arm_cfft_radix4_q31.c ****   i0 = 0U;
  89              		.loc 1 172 6 view .LVU19
  90 0036 1D91     		str	r1, [sp, #116]
  91              	.LVL5:
  92              		.loc 1 173 3 is_stmt 1 view .LVU20
 174:.//Libraries/CMSIS/DSP/Source/TransformFunctions/arm_cfft_radix4_q31.c ****   ia1 = 0U;
  93              		.loc 1 174 3 view .LVU21
 175:.//Libraries/CMSIS/DSP/Source/TransformFunctions/arm_cfft_radix4_q31.c **** 
 176:.//Libraries/CMSIS/DSP/Source/TransformFunctions/arm_cfft_radix4_q31.c ****   j = n2;
  94              		.loc 1 176 3 view .LVU22
  95              		.loc 1 176 3 is_stmt 0 view .LVU23
  96 0038 0A93     		str	r3, [sp, #40]
  97 003a 5B46     		mov	r3, fp
  98 003c F346     		mov	fp, lr
  99 003e CE46     		mov	lr, r9
 100 0040 9946     		mov	r9, r3
 101 0042 1B92     		str	r2, [sp, #108]
 102 0044 1092     		str	r2, [sp, #64]
 172:.//Libraries/CMSIS/DSP/Source/TransformFunctions/arm_cfft_radix4_q31.c ****   i0 = 0U;
 103              		.loc 1 172 6 view .LVU24
ARM GAS  /var/folders/wl/rshn8xbx1dsfj1zgryf4g1240000gn/T//ccRY5JJx.s 			page 6


 104 0046 0592     		str	r2, [sp, #20]
 105 0048 0192     		str	r2, [sp, #4]
 106              	.LVL6:
 107              	.L2:
 177:.//Libraries/CMSIS/DSP/Source/TransformFunctions/arm_cfft_radix4_q31.c **** 
 178:.//Libraries/CMSIS/DSP/Source/TransformFunctions/arm_cfft_radix4_q31.c ****   /*  Calculation of first stage */
 179:.//Libraries/CMSIS/DSP/Source/TransformFunctions/arm_cfft_radix4_q31.c ****   do
 108              		.loc 1 179 3 is_stmt 1 discriminator 1 view .LVU25
 180:.//Libraries/CMSIS/DSP/Source/TransformFunctions/arm_cfft_radix4_q31.c ****   {
 181:.//Libraries/CMSIS/DSP/Source/TransformFunctions/arm_cfft_radix4_q31.c ****     /*  index calculation for the input as, */
 182:.//Libraries/CMSIS/DSP/Source/TransformFunctions/arm_cfft_radix4_q31.c ****     /*  pSrc[i0 + 0], pSrc[i0 + fftLen/4], pSrc[i0 + fftLen/2U], pSrc[i0 + 3fftLen/4] */
 183:.//Libraries/CMSIS/DSP/Source/TransformFunctions/arm_cfft_radix4_q31.c ****     i1 = i0 + n2;
 109              		.loc 1 183 5 discriminator 1 view .LVU26
 184:.//Libraries/CMSIS/DSP/Source/TransformFunctions/arm_cfft_radix4_q31.c ****     i2 = i1 + n2;
 110              		.loc 1 184 5 discriminator 1 view .LVU27
 185:.//Libraries/CMSIS/DSP/Source/TransformFunctions/arm_cfft_radix4_q31.c ****     i3 = i2 + n2;
 111              		.loc 1 185 5 discriminator 1 view .LVU28
 186:.//Libraries/CMSIS/DSP/Source/TransformFunctions/arm_cfft_radix4_q31.c **** 
 187:.//Libraries/CMSIS/DSP/Source/TransformFunctions/arm_cfft_radix4_q31.c ****     /* input is in 1.31(q31) format and provide 4 guard bits for the input */
 188:.//Libraries/CMSIS/DSP/Source/TransformFunctions/arm_cfft_radix4_q31.c **** 
 189:.//Libraries/CMSIS/DSP/Source/TransformFunctions/arm_cfft_radix4_q31.c ****     /*  Butterfly implementation */
 190:.//Libraries/CMSIS/DSP/Source/TransformFunctions/arm_cfft_radix4_q31.c ****     /* xa + xc */
 191:.//Libraries/CMSIS/DSP/Source/TransformFunctions/arm_cfft_radix4_q31.c ****     r1 = (pSrc[(2U * i0)] >> 4U) + (pSrc[(2U * i2)] >> 4U);
 112              		.loc 1 191 5 discriminator 1 view .LVU29
 113              		.loc 1 191 53 is_stmt 0 discriminator 1 view .LVU30
 114 004a 5EF83C20 		ldr	r2, [lr, ip, lsl #3]
 192:.//Libraries/CMSIS/DSP/Source/TransformFunctions/arm_cfft_radix4_q31.c ****     /* xa - xc */
 193:.//Libraries/CMSIS/DSP/Source/TransformFunctions/arm_cfft_radix4_q31.c ****     r2 = (pSrc[(2U * i0)] >> 4U) - (pSrc[(2U * i2)] >> 4U);
 194:.//Libraries/CMSIS/DSP/Source/TransformFunctions/arm_cfft_radix4_q31.c **** 
 195:.//Libraries/CMSIS/DSP/Source/TransformFunctions/arm_cfft_radix4_q31.c ****     /* xb + xd */
 196:.//Libraries/CMSIS/DSP/Source/TransformFunctions/arm_cfft_radix4_q31.c ****     t1 = (pSrc[(2U * i1)] >> 4U) + (pSrc[(2U * i3)] >> 4U);
 115              		.loc 1 196 53 discriminator 1 view .LVU31
 116 004e 5EF80A30 		ldr	r3, [lr, r10]
 191:.//Libraries/CMSIS/DSP/Source/TransformFunctions/arm_cfft_radix4_q31.c ****     /* xa - xc */
 117              		.loc 1 191 27 discriminator 1 view .LVU32
 118 0052 58F83C70 		ldr	r7, [r8, ip, lsl #3]
 191:.//Libraries/CMSIS/DSP/Source/TransformFunctions/arm_cfft_radix4_q31.c ****     /* xa - xc */
 119              		.loc 1 191 53 discriminator 1 view .LVU33
 120 0056 1211     		asrs	r2, r2, #4
 121              		.loc 1 196 27 discriminator 1 view .LVU34
 122 0058 58F80A10 		ldr	r1, [r8, r10]
 123              		.loc 1 196 53 discriminator 1 view .LVU35
 124 005c 1B11     		asrs	r3, r3, #4
 191:.//Libraries/CMSIS/DSP/Source/TransformFunctions/arm_cfft_radix4_q31.c ****     /* xa - xc */
 125              		.loc 1 191 8 discriminator 1 view .LVU36
 126 005e 02EB2710 		add	r0, r2, r7, asr #4
 127              	.LVL7:
 193:.//Libraries/CMSIS/DSP/Source/TransformFunctions/arm_cfft_radix4_q31.c **** 
 128              		.loc 1 193 5 is_stmt 1 discriminator 1 view .LVU37
 129              		.loc 1 196 5 discriminator 1 view .LVU38
 197:.//Libraries/CMSIS/DSP/Source/TransformFunctions/arm_cfft_radix4_q31.c **** 
 198:.//Libraries/CMSIS/DSP/Source/TransformFunctions/arm_cfft_radix4_q31.c ****     /* ya + yc */
 199:.//Libraries/CMSIS/DSP/Source/TransformFunctions/arm_cfft_radix4_q31.c ****     s1 = (pSrc[(2U * i0) + 1U] >> 4U) + (pSrc[(2U * i2) + 1U] >> 4U);
 130              		.loc 1 199 32 is_stmt 0 discriminator 1 view .LVU39
 131 0062 59F83C50 		ldr	r5, [r9, ip, lsl #3]
 196:.//Libraries/CMSIS/DSP/Source/TransformFunctions/arm_cfft_radix4_q31.c **** 
 132              		.loc 1 196 8 discriminator 1 view .LVU40
ARM GAS  /var/folders/wl/rshn8xbx1dsfj1zgryf4g1240000gn/T//ccRY5JJx.s 			page 7


 133 0066 03EB2111 		add	r1, r3, r1, asr #4
 134              	.LVL8:
 135              		.loc 1 199 5 is_stmt 1 discriminator 1 view .LVU41
 136              		.loc 1 199 63 is_stmt 0 discriminator 1 view .LVU42
 137 006a 5BF83C30 		ldr	r3, [fp, ip, lsl #3]
 193:.//Libraries/CMSIS/DSP/Source/TransformFunctions/arm_cfft_radix4_q31.c **** 
 138              		.loc 1 193 8 discriminator 1 view .LVU43
 139 006e C2EB2716 		rsb	r6, r2, r7, asr #4
 200:.//Libraries/CMSIS/DSP/Source/TransformFunctions/arm_cfft_radix4_q31.c ****     /* ya - yc */
 201:.//Libraries/CMSIS/DSP/Source/TransformFunctions/arm_cfft_radix4_q31.c ****     s2 = (pSrc[(2U * i0) + 1U] >> 4U) - (pSrc[(2U * i2) + 1U] >> 4U);
 202:.//Libraries/CMSIS/DSP/Source/TransformFunctions/arm_cfft_radix4_q31.c **** 
 203:.//Libraries/CMSIS/DSP/Source/TransformFunctions/arm_cfft_radix4_q31.c ****     /* xa' = xa + xb + xc + xd */
 204:.//Libraries/CMSIS/DSP/Source/TransformFunctions/arm_cfft_radix4_q31.c ****     pSrc[2U * i0] = (r1 + t1);
 140              		.loc 1 204 25 discriminator 1 view .LVU44
 141 0072 4218     		adds	r2, r0, r1
 199:.//Libraries/CMSIS/DSP/Source/TransformFunctions/arm_cfft_radix4_q31.c ****     /* ya - yc */
 142              		.loc 1 199 63 discriminator 1 view .LVU45
 143 0074 1B11     		asrs	r3, r3, #4
 193:.//Libraries/CMSIS/DSP/Source/TransformFunctions/arm_cfft_radix4_q31.c **** 
 144              		.loc 1 193 8 discriminator 1 view .LVU46
 145 0076 0296     		str	r6, [sp, #8]
 146              	.LVL9:
 205:.//Libraries/CMSIS/DSP/Source/TransformFunctions/arm_cfft_radix4_q31.c ****     /* (xa + xc) - (xb + xd) */
 206:.//Libraries/CMSIS/DSP/Source/TransformFunctions/arm_cfft_radix4_q31.c ****     r1 = r1 - t1;
 147              		.loc 1 206 8 discriminator 1 view .LVU47
 148 0078 401A     		subs	r0, r0, r1
 149              	.LVL10:
 204:.//Libraries/CMSIS/DSP/Source/TransformFunctions/arm_cfft_radix4_q31.c ****     /* (xa + xc) - (xb + xd) */
 150              		.loc 1 204 19 discriminator 1 view .LVU48
 151 007a 48F83C20 		str	r2, [r8, ip, lsl #3]
 152              	.LVL11:
 201:.//Libraries/CMSIS/DSP/Source/TransformFunctions/arm_cfft_radix4_q31.c **** 
 153              		.loc 1 201 8 discriminator 1 view .LVU49
 154 007e C3EB2516 		rsb	r6, r3, r5, asr #4
 207:.//Libraries/CMSIS/DSP/Source/TransformFunctions/arm_cfft_radix4_q31.c ****     /* yb + yd */
 208:.//Libraries/CMSIS/DSP/Source/TransformFunctions/arm_cfft_radix4_q31.c ****     t2 = (pSrc[(2U * i1) + 1U] >> 4U) + (pSrc[(2U * i3) + 1U] >> 4U);
 155              		.loc 1 208 63 discriminator 1 view .LVU50
 156 0082 5BF80A40 		ldr	r4, [fp, r10]
 199:.//Libraries/CMSIS/DSP/Source/TransformFunctions/arm_cfft_radix4_q31.c ****     /* ya - yc */
 157              		.loc 1 199 8 discriminator 1 view .LVU51
 158 0086 03EB2512 		add	r2, r3, r5, asr #4
 159              	.LVL12:
 201:.//Libraries/CMSIS/DSP/Source/TransformFunctions/arm_cfft_radix4_q31.c **** 
 160              		.loc 1 201 5 is_stmt 1 discriminator 1 view .LVU52
 204:.//Libraries/CMSIS/DSP/Source/TransformFunctions/arm_cfft_radix4_q31.c ****     /* (xa + xc) - (xb + xd) */
 161              		.loc 1 204 5 discriminator 1 view .LVU53
 206:.//Libraries/CMSIS/DSP/Source/TransformFunctions/arm_cfft_radix4_q31.c ****     /* yb + yd */
 162              		.loc 1 206 5 discriminator 1 view .LVU54
 163              		.loc 1 208 5 discriminator 1 view .LVU55
 164              		.loc 1 208 32 is_stmt 0 discriminator 1 view .LVU56
 165 008a 59F80A30 		ldr	r3, [r9, r10]
 166              		.loc 1 208 63 discriminator 1 view .LVU57
 167 008e 2411     		asrs	r4, r4, #4
 168 0090 0C9D     		ldr	r5, [sp, #48]
 201:.//Libraries/CMSIS/DSP/Source/TransformFunctions/arm_cfft_radix4_q31.c **** 
 169              		.loc 1 201 8 discriminator 1 view .LVU58
 170 0092 0496     		str	r6, [sp, #16]
ARM GAS  /var/folders/wl/rshn8xbx1dsfj1zgryf4g1240000gn/T//ccRY5JJx.s 			page 8


 171              	.LVL13:
 172              		.loc 1 208 8 discriminator 1 view .LVU59
 173 0094 04EB2314 		add	r4, r4, r3, asr #4
 174              	.LVL14:
 209:.//Libraries/CMSIS/DSP/Source/TransformFunctions/arm_cfft_radix4_q31.c **** 
 210:.//Libraries/CMSIS/DSP/Source/TransformFunctions/arm_cfft_radix4_q31.c ****     /* ya' = ya + yb + yc + yd */
 211:.//Libraries/CMSIS/DSP/Source/TransformFunctions/arm_cfft_radix4_q31.c ****     pSrc[(2U * i0) + 1U] = (s1 + t2);
 175              		.loc 1 211 5 is_stmt 1 discriminator 1 view .LVU60
 176              		.loc 1 211 32 is_stmt 0 discriminator 1 view .LVU61
 177 0098 1319     		adds	r3, r2, r4
 212:.//Libraries/CMSIS/DSP/Source/TransformFunctions/arm_cfft_radix4_q31.c **** 
 213:.//Libraries/CMSIS/DSP/Source/TransformFunctions/arm_cfft_radix4_q31.c ****     /* (ya + yc) - (yb + yd) */
 214:.//Libraries/CMSIS/DSP/Source/TransformFunctions/arm_cfft_radix4_q31.c ****     s1 = s1 - t2;
 178              		.loc 1 214 8 discriminator 1 view .LVU62
 179 009a 121B     		subs	r2, r2, r4
 180              	.LVL15:
 211:.//Libraries/CMSIS/DSP/Source/TransformFunctions/arm_cfft_radix4_q31.c **** 
 181              		.loc 1 211 26 discriminator 1 view .LVU63
 182 009c 49F83C30 		str	r3, [r9, ip, lsl #3]
 183              		.loc 1 214 5 is_stmt 1 discriminator 1 view .LVU64
 184              	.LVL16:
 215:.//Libraries/CMSIS/DSP/Source/TransformFunctions/arm_cfft_radix4_q31.c **** 
 216:.//Libraries/CMSIS/DSP/Source/TransformFunctions/arm_cfft_radix4_q31.c ****     /* yb - yd */
 217:.//Libraries/CMSIS/DSP/Source/TransformFunctions/arm_cfft_radix4_q31.c ****     t1 = (pSrc[(2U * i1) + 1U] >> 4U) - (pSrc[(2U * i3) + 1U] >> 4U);
 185              		.loc 1 217 5 discriminator 1 view .LVU65
 218:.//Libraries/CMSIS/DSP/Source/TransformFunctions/arm_cfft_radix4_q31.c ****     /* xb - xd */
 219:.//Libraries/CMSIS/DSP/Source/TransformFunctions/arm_cfft_radix4_q31.c ****     t2 = (pSrc[(2U * i1)] >> 4U) - (pSrc[(2U * i3)] >> 4U);
 220:.//Libraries/CMSIS/DSP/Source/TransformFunctions/arm_cfft_radix4_q31.c **** 
 221:.//Libraries/CMSIS/DSP/Source/TransformFunctions/arm_cfft_radix4_q31.c ****     /*  index calculation for the coefficients */
 222:.//Libraries/CMSIS/DSP/Source/TransformFunctions/arm_cfft_radix4_q31.c ****     ia2 = 2U * ia1;
 223:.//Libraries/CMSIS/DSP/Source/TransformFunctions/arm_cfft_radix4_q31.c ****     co2 = pCoef[(ia2 * 2U)];
 186              		.loc 1 223 9 is_stmt 0 discriminator 1 view .LVU66
 187 00a0 109B     		ldr	r3, [sp, #64]
 219:.//Libraries/CMSIS/DSP/Source/TransformFunctions/arm_cfft_radix4_q31.c **** 
 188              		.loc 1 219 53 discriminator 1 view .LVU67
 189 00a2 5EF80A70 		ldr	r7, [lr, r10]
 224:.//Libraries/CMSIS/DSP/Source/TransformFunctions/arm_cfft_radix4_q31.c ****     si2 = pCoef[(ia2 * 2U) + 1U];
 190              		.loc 1 224 9 discriminator 1 view .LVU68
 191 00a6 53E90141 		ldrd	r4, r1, [r3, #-4]
 192              	.LVL17:
 193              		.loc 1 224 9 discriminator 1 view .LVU69
 194 00aa 2B44     		add	r3, r3, r5
 219:.//Libraries/CMSIS/DSP/Source/TransformFunctions/arm_cfft_radix4_q31.c **** 
 195              		.loc 1 219 53 discriminator 1 view .LVU70
 196 00ac 3F11     		asrs	r7, r7, #4
 225:.//Libraries/CMSIS/DSP/Source/TransformFunctions/arm_cfft_radix4_q31.c **** 
 226:.//Libraries/CMSIS/DSP/Source/TransformFunctions/arm_cfft_radix4_q31.c ****     /* xc' = (xa-xb+xc-xd)co2 + (ya-yb+yc-yd)(si2) */
 227:.//Libraries/CMSIS/DSP/Source/TransformFunctions/arm_cfft_radix4_q31.c ****     pSrc[2U * i1] = (((int32_t) (((q63_t) r1 * co2) >> 32)) +
 197              		.loc 1 227 46 discriminator 1 view .LVU71
 198 00ae 80FB0456 		smull	r5, r6, r0, r4
 199 00b2 1093     		str	r3, [sp, #64]
 217:.//Libraries/CMSIS/DSP/Source/TransformFunctions/arm_cfft_radix4_q31.c ****     /* xb - xd */
 200              		.loc 1 217 63 discriminator 1 view .LVU72
 201 00b4 5BF80A30 		ldr	r3, [fp, r10]
 202              		.loc 1 227 46 discriminator 1 view .LVU73
 203 00b8 CDE90656 		strd	r5, [sp, #24]
 228:.//Libraries/CMSIS/DSP/Source/TransformFunctions/arm_cfft_radix4_q31.c ****                      ((int32_t) (((q63_t) s1 * si2) >> 32))) << 1U;
ARM GAS  /var/folders/wl/rshn8xbx1dsfj1zgryf4g1240000gn/T//ccRY5JJx.s 			page 9


 204              		.loc 1 228 46 discriminator 1 view .LVU74
 205 00bc 82FB0156 		smull	r5, r6, r2, r1
 229:.//Libraries/CMSIS/DSP/Source/TransformFunctions/arm_cfft_radix4_q31.c **** 
 230:.//Libraries/CMSIS/DSP/Source/TransformFunctions/arm_cfft_radix4_q31.c ****     /* yc' = (ya-yb+yc-yd)co2 - (xa-xb+xc-xd)(si2) */
 231:.//Libraries/CMSIS/DSP/Source/TransformFunctions/arm_cfft_radix4_q31.c ****     pSrc[(2U * i1) + 1U] = (((int32_t) (((q63_t) s1 * co2) >> 32)) -
 232:.//Libraries/CMSIS/DSP/Source/TransformFunctions/arm_cfft_radix4_q31.c ****                             ((int32_t) (((q63_t) r1 * si2) >> 32))) << 1U;
 206              		.loc 1 232 53 discriminator 1 view .LVU75
 207 00c0 80FB0101 		smull	r0, r1, r0, r1
 208              	.LVL18:
 228:.//Libraries/CMSIS/DSP/Source/TransformFunctions/arm_cfft_radix4_q31.c ****                      ((int32_t) (((q63_t) s1 * si2) >> 32))) << 1U;
 209              		.loc 1 228 46 discriminator 1 view .LVU76
 210 00c4 CDE90856 		strd	r5, [sp, #32]
 227:.//Libraries/CMSIS/DSP/Source/TransformFunctions/arm_cfft_radix4_q31.c ****                      ((int32_t) (((q63_t) s1 * si2) >> 32))) << 1U;
 211              		.loc 1 227 61 discriminator 1 view .LVU77
 212 00c8 099E     		ldr	r6, [sp, #36]
 231:.//Libraries/CMSIS/DSP/Source/TransformFunctions/arm_cfft_radix4_q31.c ****                             ((int32_t) (((q63_t) r1 * si2) >> 32))) << 1U;
 213              		.loc 1 231 53 discriminator 1 view .LVU78
 214 00ca 84FB0245 		smull	r4, r5, r4, r2
 217:.//Libraries/CMSIS/DSP/Source/TransformFunctions/arm_cfft_radix4_q31.c ****     /* xb - xd */
 215              		.loc 1 217 63 discriminator 1 view .LVU79
 216 00ce 1A11     		asrs	r2, r3, #4
 217              	.LVL19:
 227:.//Libraries/CMSIS/DSP/Source/TransformFunctions/arm_cfft_radix4_q31.c ****                      ((int32_t) (((q63_t) s1 * si2) >> 32))) << 1U;
 218              		.loc 1 227 61 discriminator 1 view .LVU80
 219 00d0 079B     		ldr	r3, [sp, #28]
 231:.//Libraries/CMSIS/DSP/Source/TransformFunctions/arm_cfft_radix4_q31.c ****                             ((int32_t) (((q63_t) r1 * si2) >> 32))) << 1U;
 220              		.loc 1 231 68 discriminator 1 view .LVU81
 221 00d2 691A     		subs	r1, r5, r1
 219:.//Libraries/CMSIS/DSP/Source/TransformFunctions/arm_cfft_radix4_q31.c **** 
 222              		.loc 1 219 27 discriminator 1 view .LVU82
 223 00d4 58F80A50 		ldr	r5, [r8, r10]
 227:.//Libraries/CMSIS/DSP/Source/TransformFunctions/arm_cfft_radix4_q31.c ****                      ((int32_t) (((q63_t) s1 * si2) >> 32))) << 1U;
 224              		.loc 1 227 61 discriminator 1 view .LVU83
 225 00d8 1E44     		add	r6, r6, r3
 217:.//Libraries/CMSIS/DSP/Source/TransformFunctions/arm_cfft_radix4_q31.c ****     /* xb - xd */
 226              		.loc 1 217 32 discriminator 1 view .LVU84
 227 00da 59F80A30 		ldr	r3, [r9, r10]
 228              		.loc 1 232 69 discriminator 1 view .LVU85
 229 00de 4900     		lsls	r1, r1, #1
 228:.//Libraries/CMSIS/DSP/Source/TransformFunctions/arm_cfft_radix4_q31.c **** 
 230              		.loc 1 228 62 discriminator 1 view .LVU86
 231 00e0 7600     		lsls	r6, r6, #1
 217:.//Libraries/CMSIS/DSP/Source/TransformFunctions/arm_cfft_radix4_q31.c ****     /* xb - xd */
 232              		.loc 1 217 8 discriminator 1 view .LVU87
 233 00e2 C2EB2313 		rsb	r3, r2, r3, asr #4
 234              	.LVL20:
 219:.//Libraries/CMSIS/DSP/Source/TransformFunctions/arm_cfft_radix4_q31.c **** 
 235              		.loc 1 219 5 is_stmt 1 discriminator 1 view .LVU88
 227:.//Libraries/CMSIS/DSP/Source/TransformFunctions/arm_cfft_radix4_q31.c ****                      ((int32_t) (((q63_t) s1 * si2) >> 32))) << 1U;
 236              		.loc 1 227 19 is_stmt 0 discriminator 1 view .LVU89
 237 00e6 48F80A60 		str	r6, [r8, r10]
 219:.//Libraries/CMSIS/DSP/Source/TransformFunctions/arm_cfft_radix4_q31.c **** 
 238              		.loc 1 219 8 discriminator 1 view .LVU90
 239 00ea C7EB2512 		rsb	r2, r7, r5, asr #4
 240              	.LVL21:
 222:.//Libraries/CMSIS/DSP/Source/TransformFunctions/arm_cfft_radix4_q31.c ****     co2 = pCoef[(ia2 * 2U)];
 241              		.loc 1 222 5 is_stmt 1 discriminator 1 view .LVU91
ARM GAS  /var/folders/wl/rshn8xbx1dsfj1zgryf4g1240000gn/T//ccRY5JJx.s 			page 10


 223:.//Libraries/CMSIS/DSP/Source/TransformFunctions/arm_cfft_radix4_q31.c ****     si2 = pCoef[(ia2 * 2U) + 1U];
 242              		.loc 1 223 5 discriminator 1 view .LVU92
 224:.//Libraries/CMSIS/DSP/Source/TransformFunctions/arm_cfft_radix4_q31.c **** 
 243              		.loc 1 224 5 discriminator 1 view .LVU93
 227:.//Libraries/CMSIS/DSP/Source/TransformFunctions/arm_cfft_radix4_q31.c ****                      ((int32_t) (((q63_t) s1 * si2) >> 32))) << 1U;
 244              		.loc 1 227 5 discriminator 1 view .LVU94
 231:.//Libraries/CMSIS/DSP/Source/TransformFunctions/arm_cfft_radix4_q31.c ****                             ((int32_t) (((q63_t) r1 * si2) >> 32))) << 1U;
 245              		.loc 1 231 5 discriminator 1 view .LVU95
 231:.//Libraries/CMSIS/DSP/Source/TransformFunctions/arm_cfft_radix4_q31.c ****                             ((int32_t) (((q63_t) r1 * si2) >> 32))) << 1U;
 246              		.loc 1 231 26 is_stmt 0 discriminator 1 view .LVU96
 247 00ee 49F80A10 		str	r1, [r9, r10]
 233:.//Libraries/CMSIS/DSP/Source/TransformFunctions/arm_cfft_radix4_q31.c **** 
 234:.//Libraries/CMSIS/DSP/Source/TransformFunctions/arm_cfft_radix4_q31.c ****     /* (xa - xc) + (yb - yd) */
 235:.//Libraries/CMSIS/DSP/Source/TransformFunctions/arm_cfft_radix4_q31.c ****     r1 = r2 + t1;
 248              		.loc 1 235 5 is_stmt 1 discriminator 1 view .LVU97
 249              		.loc 1 235 8 is_stmt 0 discriminator 1 view .LVU98
 250 00f2 029E     		ldr	r6, [sp, #8]
 236:.//Libraries/CMSIS/DSP/Source/TransformFunctions/arm_cfft_radix4_q31.c ****     /* (xa - xc) - (yb - yd) */
 237:.//Libraries/CMSIS/DSP/Source/TransformFunctions/arm_cfft_radix4_q31.c ****     r2 = r2 - t1;
 238:.//Libraries/CMSIS/DSP/Source/TransformFunctions/arm_cfft_radix4_q31.c **** 
 239:.//Libraries/CMSIS/DSP/Source/TransformFunctions/arm_cfft_radix4_q31.c ****     /* (ya - yc) - (xb - xd) */
 240:.//Libraries/CMSIS/DSP/Source/TransformFunctions/arm_cfft_radix4_q31.c ****     s1 = s2 - t2;
 241:.//Libraries/CMSIS/DSP/Source/TransformFunctions/arm_cfft_radix4_q31.c ****     /* (ya - yc) + (xb - xd) */
 242:.//Libraries/CMSIS/DSP/Source/TransformFunctions/arm_cfft_radix4_q31.c ****     s2 = s2 + t2;
 243:.//Libraries/CMSIS/DSP/Source/TransformFunctions/arm_cfft_radix4_q31.c **** 
 244:.//Libraries/CMSIS/DSP/Source/TransformFunctions/arm_cfft_radix4_q31.c ****     co1 = pCoef[(ia1 * 2U)];
 251              		.loc 1 244 9 discriminator 1 view .LVU99
 252 00f4 0199     		ldr	r1, [sp, #4]
 235:.//Libraries/CMSIS/DSP/Source/TransformFunctions/arm_cfft_radix4_q31.c ****     /* (xa - xc) - (yb - yd) */
 253              		.loc 1 235 8 discriminator 1 view .LVU100
 254 00f6 F018     		adds	r0, r6, r3
 255              	.LVL22:
 237:.//Libraries/CMSIS/DSP/Source/TransformFunctions/arm_cfft_radix4_q31.c **** 
 256              		.loc 1 237 5 is_stmt 1 discriminator 1 view .LVU101
 240:.//Libraries/CMSIS/DSP/Source/TransformFunctions/arm_cfft_radix4_q31.c ****     /* (ya - yc) + (xb - xd) */
 257              		.loc 1 240 8 is_stmt 0 discriminator 1 view .LVU102
 258 00f8 049E     		ldr	r6, [sp, #16]
 245:.//Libraries/CMSIS/DSP/Source/TransformFunctions/arm_cfft_radix4_q31.c ****     si1 = pCoef[(ia1 * 2U) + 1U];
 259              		.loc 1 245 9 discriminator 1 view .LVU103
 260 00fa 51E90151 		ldrd	r5, r1, [r1, #-4]
 240:.//Libraries/CMSIS/DSP/Source/TransformFunctions/arm_cfft_radix4_q31.c ****     /* (ya - yc) + (xb - xd) */
 261              		.loc 1 240 8 discriminator 1 view .LVU104
 262 00fe B41A     		subs	r4, r6, r2
 246:.//Libraries/CMSIS/DSP/Source/TransformFunctions/arm_cfft_radix4_q31.c **** 
 247:.//Libraries/CMSIS/DSP/Source/TransformFunctions/arm_cfft_radix4_q31.c ****     /* xb' = (xa+yb-xc-yd)co1 + (ya-xb-yc+xd)(si1) */
 248:.//Libraries/CMSIS/DSP/Source/TransformFunctions/arm_cfft_radix4_q31.c ****     pSrc[2U * i2] = (((int32_t) (((q63_t) r1 * co1) >> 32)) +
 263              		.loc 1 248 46 discriminator 1 view .LVU105
 264 0100 80FB0567 		smull	r6, r7, r0, r5
 265 0104 CDE90667 		strd	r6, [sp, #24]
 237:.//Libraries/CMSIS/DSP/Source/TransformFunctions/arm_cfft_radix4_q31.c **** 
 266              		.loc 1 237 8 discriminator 1 view .LVU106
 267 0108 029E     		ldr	r6, [sp, #8]
 268 010a F31A     		subs	r3, r6, r3
 269              	.LVL23:
 240:.//Libraries/CMSIS/DSP/Source/TransformFunctions/arm_cfft_radix4_q31.c ****     /* (ya - yc) + (xb - xd) */
 270              		.loc 1 240 5 is_stmt 1 discriminator 1 view .LVU107
 242:.//Libraries/CMSIS/DSP/Source/TransformFunctions/arm_cfft_radix4_q31.c **** 
ARM GAS  /var/folders/wl/rshn8xbx1dsfj1zgryf4g1240000gn/T//ccRY5JJx.s 			page 11


 271              		.loc 1 242 5 discriminator 1 view .LVU108
 249:.//Libraries/CMSIS/DSP/Source/TransformFunctions/arm_cfft_radix4_q31.c ****                      ((int32_t) (((q63_t) s1 * si1) >> 32))) << 1U;
 272              		.loc 1 249 46 is_stmt 0 discriminator 1 view .LVU109
 273 010c 84FB0167 		smull	r6, r7, r4, r1
 250:.//Libraries/CMSIS/DSP/Source/TransformFunctions/arm_cfft_radix4_q31.c **** 
 251:.//Libraries/CMSIS/DSP/Source/TransformFunctions/arm_cfft_radix4_q31.c ****     /* yb' = (ya-xb-yc+xd)co1 - (xa+yb-xc-yd)(si1) */
 252:.//Libraries/CMSIS/DSP/Source/TransformFunctions/arm_cfft_radix4_q31.c ****     pSrc[(2U * i2) + 1U] = (((int32_t) (((q63_t) s1 * co1) >> 32)) -
 274              		.loc 1 252 53 discriminator 1 view .LVU110
 275 0110 85FB0445 		smull	r4, r5, r5, r4
 276              	.LVL24:
 277              		.loc 1 252 53 discriminator 1 view .LVU111
 278 0114 0E9C     		ldr	r4, [sp, #56]
 253:.//Libraries/CMSIS/DSP/Source/TransformFunctions/arm_cfft_radix4_q31.c ****                             ((int32_t) (((q63_t) r1 * si1) >> 32))) << 1U;
 279              		.loc 1 253 53 discriminator 1 view .LVU112
 280 0116 80FB0101 		smull	r0, r1, r0, r1
 281              	.LVL25:
 249:.//Libraries/CMSIS/DSP/Source/TransformFunctions/arm_cfft_radix4_q31.c ****                      ((int32_t) (((q63_t) s1 * si1) >> 32))) << 1U;
 282              		.loc 1 249 46 discriminator 1 view .LVU113
 283 011a CDE90267 		strd	r6, [sp, #8]
 242:.//Libraries/CMSIS/DSP/Source/TransformFunctions/arm_cfft_radix4_q31.c **** 
 284              		.loc 1 242 8 discriminator 1 view .LVU114
 285 011e 049E     		ldr	r6, [sp, #16]
 252:.//Libraries/CMSIS/DSP/Source/TransformFunctions/arm_cfft_radix4_q31.c ****                             ((int32_t) (((q63_t) r1 * si1) >> 32))) << 1U;
 286              		.loc 1 252 68 discriminator 1 view .LVU115
 287 0120 691A     		subs	r1, r5, r1
 288 0122 0A9F     		ldr	r7, [sp, #40]
 242:.//Libraries/CMSIS/DSP/Source/TransformFunctions/arm_cfft_radix4_q31.c **** 
 289              		.loc 1 242 8 discriminator 1 view .LVU116
 290 0124 3244     		add	r2, r2, r6
 291              	.LVL26:
 244:.//Libraries/CMSIS/DSP/Source/TransformFunctions/arm_cfft_radix4_q31.c ****     si1 = pCoef[(ia1 * 2U) + 1U];
 292              		.loc 1 244 5 is_stmt 1 discriminator 1 view .LVU117
 245:.//Libraries/CMSIS/DSP/Source/TransformFunctions/arm_cfft_radix4_q31.c **** 
 293              		.loc 1 245 5 discriminator 1 view .LVU118
 248:.//Libraries/CMSIS/DSP/Source/TransformFunctions/arm_cfft_radix4_q31.c ****                      ((int32_t) (((q63_t) s1 * si1) >> 32))) << 1U;
 294              		.loc 1 248 5 discriminator 1 view .LVU119
 295 0126 019E     		ldr	r6, [sp, #4]
 296              		.loc 1 253 69 is_stmt 0 discriminator 1 view .LVU120
 297 0128 4900     		lsls	r1, r1, #1
 298 012a 3E44     		add	r6, r6, r7
 248:.//Libraries/CMSIS/DSP/Source/TransformFunctions/arm_cfft_radix4_q31.c ****                      ((int32_t) (((q63_t) s1 * si1) >> 32))) << 1U;
 299              		.loc 1 248 61 discriminator 1 view .LVU121
 300 012c 039F     		ldr	r7, [sp, #12]
 301 012e 0196     		str	r6, [sp, #4]
 302 0130 079E     		ldr	r6, [sp, #28]
 303 0132 3744     		add	r7, r7, r6
 249:.//Libraries/CMSIS/DSP/Source/TransformFunctions/arm_cfft_radix4_q31.c **** 
 304              		.loc 1 249 62 discriminator 1 view .LVU122
 305 0134 7800     		lsls	r0, r7, #1
 248:.//Libraries/CMSIS/DSP/Source/TransformFunctions/arm_cfft_radix4_q31.c ****                      ((int32_t) (((q63_t) s1 * si1) >> 32))) << 1U;
 306              		.loc 1 248 19 discriminator 1 view .LVU123
 307 0136 4EF83C00 		str	r0, [lr, ip, lsl #3]
 252:.//Libraries/CMSIS/DSP/Source/TransformFunctions/arm_cfft_radix4_q31.c ****                             ((int32_t) (((q63_t) r1 * si1) >> 32))) << 1U;
 308              		.loc 1 252 5 is_stmt 1 discriminator 1 view .LVU124
 254:.//Libraries/CMSIS/DSP/Source/TransformFunctions/arm_cfft_radix4_q31.c **** 
 255:.//Libraries/CMSIS/DSP/Source/TransformFunctions/arm_cfft_radix4_q31.c ****     /*  index calculation for the coefficients */
 256:.//Libraries/CMSIS/DSP/Source/TransformFunctions/arm_cfft_radix4_q31.c ****     ia3 = 3U * ia1;
ARM GAS  /var/folders/wl/rshn8xbx1dsfj1zgryf4g1240000gn/T//ccRY5JJx.s 			page 12


 257:.//Libraries/CMSIS/DSP/Source/TransformFunctions/arm_cfft_radix4_q31.c ****     co3 = pCoef[(ia3 * 2U)];
 309              		.loc 1 257 9 is_stmt 0 discriminator 1 view .LVU125
 310 013a 0598     		ldr	r0, [sp, #20]
 252:.//Libraries/CMSIS/DSP/Source/TransformFunctions/arm_cfft_radix4_q31.c ****                             ((int32_t) (((q63_t) r1 * si1) >> 32))) << 1U;
 311              		.loc 1 252 26 discriminator 1 view .LVU126
 312 013c 4BF83C10 		str	r1, [fp, ip, lsl #3]
 256:.//Libraries/CMSIS/DSP/Source/TransformFunctions/arm_cfft_radix4_q31.c ****     co3 = pCoef[(ia3 * 2U)];
 313              		.loc 1 256 5 is_stmt 1 discriminator 1 view .LVU127
 314              		.loc 1 257 5 discriminator 1 view .LVU128
 258:.//Libraries/CMSIS/DSP/Source/TransformFunctions/arm_cfft_radix4_q31.c ****     si3 = pCoef[(ia3 * 2U) + 1U];
 259:.//Libraries/CMSIS/DSP/Source/TransformFunctions/arm_cfft_radix4_q31.c **** 
 260:.//Libraries/CMSIS/DSP/Source/TransformFunctions/arm_cfft_radix4_q31.c ****     /* xd' = (xa-yb-xc+yd)co3 + (ya+xb-yc-xd)(si3) */
 261:.//Libraries/CMSIS/DSP/Source/TransformFunctions/arm_cfft_radix4_q31.c ****     pSrc[2U * i3] = (((int32_t) (((q63_t) r2 * co3) >> 32)) +
 262:.//Libraries/CMSIS/DSP/Source/TransformFunctions/arm_cfft_radix4_q31.c ****                      ((int32_t) (((q63_t) s2 * si3) >> 32))) << 1U;
 263:.//Libraries/CMSIS/DSP/Source/TransformFunctions/arm_cfft_radix4_q31.c **** 
 264:.//Libraries/CMSIS/DSP/Source/TransformFunctions/arm_cfft_radix4_q31.c ****     /* yd' = (ya+xb-yc-xd)co3 - (xa-yb-xc+yd)(si3) */
 265:.//Libraries/CMSIS/DSP/Source/TransformFunctions/arm_cfft_radix4_q31.c ****     pSrc[(2U * i3) + 1U] = (((int32_t) (((q63_t) s2 * co3) >> 32)) -
 266:.//Libraries/CMSIS/DSP/Source/TransformFunctions/arm_cfft_radix4_q31.c ****                             ((int32_t) (((q63_t) r2 * si3) >> 32))) << 1U;
 267:.//Libraries/CMSIS/DSP/Source/TransformFunctions/arm_cfft_radix4_q31.c **** 
 268:.//Libraries/CMSIS/DSP/Source/TransformFunctions/arm_cfft_radix4_q31.c ****     /*  Twiddle coefficients index modifier */
 269:.//Libraries/CMSIS/DSP/Source/TransformFunctions/arm_cfft_radix4_q31.c ****     ia1 = ia1 + twidCoefModifier;
 270:.//Libraries/CMSIS/DSP/Source/TransformFunctions/arm_cfft_radix4_q31.c **** 
 271:.//Libraries/CMSIS/DSP/Source/TransformFunctions/arm_cfft_radix4_q31.c ****     /*  Updating input index */
 272:.//Libraries/CMSIS/DSP/Source/TransformFunctions/arm_cfft_radix4_q31.c ****     i0 = i0 + 1U;
 315              		.loc 1 272 8 is_stmt 0 discriminator 1 view .LVU129
 316 0140 0CF1010C 		add	ip, ip, #1
 317              	.LVL27:
 258:.//Libraries/CMSIS/DSP/Source/TransformFunctions/arm_cfft_radix4_q31.c ****     si3 = pCoef[(ia3 * 2U) + 1U];
 318              		.loc 1 258 9 discriminator 1 view .LVU130
 319 0144 50E90161 		ldrd	r6, r1, [r0, #-4]
 320              	.LVL28:
 261:.//Libraries/CMSIS/DSP/Source/TransformFunctions/arm_cfft_radix4_q31.c ****                      ((int32_t) (((q63_t) s2 * si3) >> 32))) << 1U;
 321              		.loc 1 261 5 is_stmt 1 discriminator 1 view .LVU131
 322 0148 2044     		add	r0, r0, r4
 261:.//Libraries/CMSIS/DSP/Source/TransformFunctions/arm_cfft_radix4_q31.c ****                      ((int32_t) (((q63_t) s2 * si3) >> 32))) << 1U;
 323              		.loc 1 261 46 is_stmt 0 discriminator 1 view .LVU132
 324 014a 83FB0645 		smull	r4, r5, r3, r6
 265:.//Libraries/CMSIS/DSP/Source/TransformFunctions/arm_cfft_radix4_q31.c ****                             ((int32_t) (((q63_t) r2 * si3) >> 32))) << 1U;
 325              		.loc 1 265 53 discriminator 1 view .LVU133
 326 014e 86FB0267 		smull	r6, r7, r6, r2
 327 0152 0590     		str	r0, [sp, #20]
 261:.//Libraries/CMSIS/DSP/Source/TransformFunctions/arm_cfft_radix4_q31.c ****                      ((int32_t) (((q63_t) s2 * si3) >> 32))) << 1U;
 328              		.loc 1 261 46 discriminator 1 view .LVU134
 329 0154 CDE90245 		strd	r4, [sp, #8]
 262:.//Libraries/CMSIS/DSP/Source/TransformFunctions/arm_cfft_radix4_q31.c **** 
 330              		.loc 1 262 46 discriminator 1 view .LVU135
 331 0158 82FB0145 		smull	r4, r5, r2, r1
 266:.//Libraries/CMSIS/DSP/Source/TransformFunctions/arm_cfft_radix4_q31.c **** 
 332              		.loc 1 266 53 discriminator 1 view .LVU136
 333 015c 83FB0123 		smull	r2, r3, r3, r1
 334              	.LVL29:
 261:.//Libraries/CMSIS/DSP/Source/TransformFunctions/arm_cfft_radix4_q31.c ****                      ((int32_t) (((q63_t) s2 * si3) >> 32))) << 1U;
 335              		.loc 1 261 61 discriminator 1 view .LVU137
 336 0160 0399     		ldr	r1, [sp, #12]
 337              	.LVL30:
 265:.//Libraries/CMSIS/DSP/Source/TransformFunctions/arm_cfft_radix4_q31.c ****                             ((int32_t) (((q63_t) r2 * si3) >> 32))) << 1U;
 338              		.loc 1 265 68 discriminator 1 view .LVU138
ARM GAS  /var/folders/wl/rshn8xbx1dsfj1zgryf4g1240000gn/T//ccRY5JJx.s 			page 13


 339 0162 FB1A     		subs	r3, r7, r3
 340              	.LVL31:
 261:.//Libraries/CMSIS/DSP/Source/TransformFunctions/arm_cfft_radix4_q31.c ****                      ((int32_t) (((q63_t) s2 * si3) >> 32))) << 1U;
 341              		.loc 1 261 61 discriminator 1 view .LVU139
 342 0164 2944     		add	r1, r1, r5
 266:.//Libraries/CMSIS/DSP/Source/TransformFunctions/arm_cfft_radix4_q31.c **** 
 343              		.loc 1 266 69 discriminator 1 view .LVU140
 344 0166 5B00     		lsls	r3, r3, #1
 262:.//Libraries/CMSIS/DSP/Source/TransformFunctions/arm_cfft_radix4_q31.c **** 
 345              		.loc 1 262 62 discriminator 1 view .LVU141
 346 0168 4A00     		lsls	r2, r1, #1
 261:.//Libraries/CMSIS/DSP/Source/TransformFunctions/arm_cfft_radix4_q31.c ****                      ((int32_t) (((q63_t) s2 * si3) >> 32))) << 1U;
 347              		.loc 1 261 19 discriminator 1 view .LVU142
 348 016a 4EF80A20 		str	r2, [lr, r10]
 265:.//Libraries/CMSIS/DSP/Source/TransformFunctions/arm_cfft_radix4_q31.c ****                             ((int32_t) (((q63_t) r2 * si3) >> 32))) << 1U;
 349              		.loc 1 265 5 is_stmt 1 discriminator 1 view .LVU143
 265:.//Libraries/CMSIS/DSP/Source/TransformFunctions/arm_cfft_radix4_q31.c ****                             ((int32_t) (((q63_t) r2 * si3) >> 32))) << 1U;
 350              		.loc 1 265 26 is_stmt 0 discriminator 1 view .LVU144
 351 016e 4BF80A30 		str	r3, [fp, r10]
 269:.//Libraries/CMSIS/DSP/Source/TransformFunctions/arm_cfft_radix4_q31.c **** 
 352              		.loc 1 269 5 is_stmt 1 discriminator 1 view .LVU145
 353              		.loc 1 272 5 discriminator 1 view .LVU146
 354              	.LVL32:
 273:.//Libraries/CMSIS/DSP/Source/TransformFunctions/arm_cfft_radix4_q31.c **** 
 274:.//Libraries/CMSIS/DSP/Source/TransformFunctions/arm_cfft_radix4_q31.c ****   } while (--j);
 355              		.loc 1 274 11 discriminator 1 view .LVU147
 356              		.loc 1 274 11 is_stmt 0 discriminator 1 view .LVU148
 357 0172 0AF1080A 		add	r10, r10, #8
 358              		.loc 1 274 3 discriminator 1 view .LVU149
 359 0176 1D9B     		ldr	r3, [sp, #116]
 360 0178 6345     		cmp	r3, ip
 361 017a 7FF466AF 		bne	.L2
 275:.//Libraries/CMSIS/DSP/Source/TransformFunctions/arm_cfft_radix4_q31.c **** 
 276:.//Libraries/CMSIS/DSP/Source/TransformFunctions/arm_cfft_radix4_q31.c ****   /* end of first stage process */
 277:.//Libraries/CMSIS/DSP/Source/TransformFunctions/arm_cfft_radix4_q31.c **** 
 278:.//Libraries/CMSIS/DSP/Source/TransformFunctions/arm_cfft_radix4_q31.c ****   /* data is in 5.27(q27) format */
 279:.//Libraries/CMSIS/DSP/Source/TransformFunctions/arm_cfft_radix4_q31.c **** 
 280:.//Libraries/CMSIS/DSP/Source/TransformFunctions/arm_cfft_radix4_q31.c **** 
 281:.//Libraries/CMSIS/DSP/Source/TransformFunctions/arm_cfft_radix4_q31.c ****   /* start of Middle stages process */
 282:.//Libraries/CMSIS/DSP/Source/TransformFunctions/arm_cfft_radix4_q31.c **** 
 283:.//Libraries/CMSIS/DSP/Source/TransformFunctions/arm_cfft_radix4_q31.c **** 
 284:.//Libraries/CMSIS/DSP/Source/TransformFunctions/arm_cfft_radix4_q31.c ****   /* each stage in middle stages provides two down scaling of the input */
 285:.//Libraries/CMSIS/DSP/Source/TransformFunctions/arm_cfft_radix4_q31.c **** 
 286:.//Libraries/CMSIS/DSP/Source/TransformFunctions/arm_cfft_radix4_q31.c ****   twidCoefModifier <<= 2U;
 362              		.loc 1 286 3 is_stmt 1 view .LVU150
 363              		.loc 1 286 20 is_stmt 0 view .LVU151
 364 017e 129B     		ldr	r3, [sp, #72]
 365 0180 9B00     		lsls	r3, r3, #2
 366 0182 1A93     		str	r3, [sp, #104]
 367              	.LVL33:
 287:.//Libraries/CMSIS/DSP/Source/TransformFunctions/arm_cfft_radix4_q31.c **** 
 288:.//Libraries/CMSIS/DSP/Source/TransformFunctions/arm_cfft_radix4_q31.c **** 
 289:.//Libraries/CMSIS/DSP/Source/TransformFunctions/arm_cfft_radix4_q31.c ****   for (k = fftLen / 4U; k > 4U; k >>= 2U)
 368              		.loc 1 289 3 is_stmt 1 view .LVU152
 369              		.loc 1 289 25 view .LVU153
 370              		.loc 1 289 3 is_stmt 0 view .LVU154
 371 0184 1D9B     		ldr	r3, [sp, #116]
ARM GAS  /var/folders/wl/rshn8xbx1dsfj1zgryf4g1240000gn/T//ccRY5JJx.s 			page 14


 372              	.LVL34:
 373              		.loc 1 289 3 view .LVU155
 374 0186 042B     		cmp	r3, #4
 375 0188 40F2DC80 		bls	.L9
 376 018c 1D9B     		ldr	r3, [sp, #116]
 377 018e C446     		mov	ip, r8
 378              	.LVL35:
 379              		.loc 1 289 3 view .LVU156
 380 0190 CE46     		mov	lr, r9
 381 0192 1993     		str	r3, [sp, #100]
 382              	.LVL36:
 383              	.L3:
 290:.//Libraries/CMSIS/DSP/Source/TransformFunctions/arm_cfft_radix4_q31.c ****   {
 291:.//Libraries/CMSIS/DSP/Source/TransformFunctions/arm_cfft_radix4_q31.c ****     /*  Initializations for the first stage */
 292:.//Libraries/CMSIS/DSP/Source/TransformFunctions/arm_cfft_radix4_q31.c ****     n1 = n2;
 384              		.loc 1 292 5 is_stmt 1 view .LVU157
 293:.//Libraries/CMSIS/DSP/Source/TransformFunctions/arm_cfft_radix4_q31.c ****     n2 >>= 2U;
 385              		.loc 1 293 5 view .LVU158
 386 0194 199A     		ldr	r2, [sp, #100]
 294:.//Libraries/CMSIS/DSP/Source/TransformFunctions/arm_cfft_radix4_q31.c ****     ia1 = 0U;
 295:.//Libraries/CMSIS/DSP/Source/TransformFunctions/arm_cfft_radix4_q31.c **** 
 296:.//Libraries/CMSIS/DSP/Source/TransformFunctions/arm_cfft_radix4_q31.c ****     /*  Calculation of first stage */
 297:.//Libraries/CMSIS/DSP/Source/TransformFunctions/arm_cfft_radix4_q31.c ****     for (j = 0U; j <= (n2 - 1U); j++)
 387              		.loc 1 297 12 is_stmt 0 view .LVU159
 388 0196 0020     		movs	r0, #0
 389 0198 F046     		mov	r8, lr
 390 019a 1346     		mov	r3, r2
 391 019c 1492     		str	r2, [sp, #80]
 293:.//Libraries/CMSIS/DSP/Source/TransformFunctions/arm_cfft_radix4_q31.c ****     n2 >>= 2U;
 392              		.loc 1 293 8 view .LVU160
 393 019e 9208     		lsrs	r2, r2, #2
 394              		.loc 1 297 12 view .LVU161
 395 01a0 1690     		str	r0, [sp, #88]
 396 01a2 DB00     		lsls	r3, r3, #3
 397 01a4 0CEB021B 		add	fp, ip, r2, lsl #4
 293:.//Libraries/CMSIS/DSP/Source/TransformFunctions/arm_cfft_radix4_q31.c ****     n2 >>= 2U;
 398              		.loc 1 293 8 view .LVU162
 399 01a8 1992     		str	r2, [sp, #100]
 400              	.LVL37:
 294:.//Libraries/CMSIS/DSP/Source/TransformFunctions/arm_cfft_radix4_q31.c ****     ia1 = 0U;
 401              		.loc 1 294 5 is_stmt 1 view .LVU163
 402              		.loc 1 297 5 view .LVU164
 403              		.loc 1 297 18 view .LVU165
 404 01aa D200     		lsls	r2, r2, #3
 405              	.LVL38:
 406              		.loc 1 297 18 is_stmt 0 view .LVU166
 407 01ac 1593     		str	r3, [sp, #84]
 408 01ae 0BF1040A 		add	r10, fp, #4
 294:.//Libraries/CMSIS/DSP/Source/TransformFunctions/arm_cfft_radix4_q31.c ****     ia1 = 0U;
 409              		.loc 1 294 9 view .LVU167
 410 01b2 CDE91720 		strd	r2, r0, [sp, #92]
 411              	.LVL39:
 412              	.L6:
 298:.//Libraries/CMSIS/DSP/Source/TransformFunctions/arm_cfft_radix4_q31.c ****     {
 299:.//Libraries/CMSIS/DSP/Source/TransformFunctions/arm_cfft_radix4_q31.c ****       /*  index calculation for the coefficients */
 300:.//Libraries/CMSIS/DSP/Source/TransformFunctions/arm_cfft_radix4_q31.c ****       ia2 = ia1 + ia1;
 413              		.loc 1 300 7 is_stmt 1 view .LVU168
ARM GAS  /var/folders/wl/rshn8xbx1dsfj1zgryf4g1240000gn/T//ccRY5JJx.s 			page 15


 301:.//Libraries/CMSIS/DSP/Source/TransformFunctions/arm_cfft_radix4_q31.c ****       ia3 = ia2 + ia1;
 414              		.loc 1 301 7 view .LVU169
 302:.//Libraries/CMSIS/DSP/Source/TransformFunctions/arm_cfft_radix4_q31.c ****       co1 = pCoef[(ia1 * 2U)];
 415              		.loc 1 302 7 view .LVU170
 416 01b6 1899     		ldr	r1, [sp, #96]
 417              		.loc 1 302 11 is_stmt 0 view .LVU171
 418 01b8 1C9C     		ldr	r4, [sp, #112]
 303:.//Libraries/CMSIS/DSP/Source/TransformFunctions/arm_cfft_radix4_q31.c ****       si1 = pCoef[(ia1 * 2U) + 1U];
 419              		.loc 1 303 11 view .LVU172
 420 01ba 1B9D     		ldr	r5, [sp, #108]
 421 01bc 0A01     		lsls	r2, r1, #4
 302:.//Libraries/CMSIS/DSP/Source/TransformFunctions/arm_cfft_radix4_q31.c ****       co1 = pCoef[(ia1 * 2U)];
 422              		.loc 1 302 11 view .LVU173
 423 01be 54F83130 		ldr	r3, [r4, r1, lsl #3]
 424              		.loc 1 303 11 view .LVU174
 425 01c2 55F83100 		ldr	r0, [r5, r1, lsl #3]
 302:.//Libraries/CMSIS/DSP/Source/TransformFunctions/arm_cfft_radix4_q31.c ****       co1 = pCoef[(ia1 * 2U)];
 426              		.loc 1 302 11 view .LVU175
 427 01c6 0493     		str	r3, [sp, #16]
 428              	.LVL40:
 429              		.loc 1 303 7 is_stmt 1 view .LVU176
 430 01c8 01EB4103 		add	r3, r1, r1, lsl #1
 431              	.LVL41:
 432              		.loc 1 303 11 is_stmt 0 view .LVU177
 433 01cc 0590     		str	r0, [sp, #20]
 434              	.LVL42:
 304:.//Libraries/CMSIS/DSP/Source/TransformFunctions/arm_cfft_radix4_q31.c ****       co2 = pCoef[(ia2 * 2U)];
 435              		.loc 1 304 7 is_stmt 1 view .LVU178
 436              		.loc 1 304 11 is_stmt 0 view .LVU179
 437 01ce A058     		ldr	r0, [r4, r2]
 438              	.LVL43:
 305:.//Libraries/CMSIS/DSP/Source/TransformFunctions/arm_cfft_radix4_q31.c ****       si2 = pCoef[(ia2 * 2U) + 1U];
 439              		.loc 1 305 11 view .LVU180
 440 01d0 AA58     		ldr	r2, [r5, r2]
 304:.//Libraries/CMSIS/DSP/Source/TransformFunctions/arm_cfft_radix4_q31.c ****       co2 = pCoef[(ia2 * 2U)];
 441              		.loc 1 304 11 view .LVU181
 442 01d2 1090     		str	r0, [sp, #64]
 443              	.LVL44:
 444              		.loc 1 305 7 is_stmt 1 view .LVU182
 445              		.loc 1 305 11 is_stmt 0 view .LVU183
 446 01d4 0692     		str	r2, [sp, #24]
 447              	.LVL45:
 306:.//Libraries/CMSIS/DSP/Source/TransformFunctions/arm_cfft_radix4_q31.c ****       co3 = pCoef[(ia3 * 2U)];
 448              		.loc 1 306 7 is_stmt 1 view .LVU184
 449              		.loc 1 306 11 is_stmt 0 view .LVU185
 450 01d6 54F83320 		ldr	r2, [r4, r3, lsl #3]
 451              	.LVL46:
 307:.//Libraries/CMSIS/DSP/Source/TransformFunctions/arm_cfft_radix4_q31.c ****       si3 = pCoef[(ia3 * 2U) + 1U];
 452              		.loc 1 307 11 view .LVU186
 453 01da 55F83330 		ldr	r3, [r5, r3, lsl #3]
 308:.//Libraries/CMSIS/DSP/Source/TransformFunctions/arm_cfft_radix4_q31.c ****       /*  Twiddle coefficients index modifier */
 309:.//Libraries/CMSIS/DSP/Source/TransformFunctions/arm_cfft_radix4_q31.c ****       ia1 = ia1 + twidCoefModifier;
 454              		.loc 1 309 11 view .LVU187
 455 01de 1A98     		ldr	r0, [sp, #104]
 456              	.LVL47:
 306:.//Libraries/CMSIS/DSP/Source/TransformFunctions/arm_cfft_radix4_q31.c ****       si3 = pCoef[(ia3 * 2U) + 1U];
 457              		.loc 1 306 11 view .LVU188
ARM GAS  /var/folders/wl/rshn8xbx1dsfj1zgryf4g1240000gn/T//ccRY5JJx.s 			page 16


 458 01e0 1292     		str	r2, [sp, #72]
 459              	.LVL48:
 307:.//Libraries/CMSIS/DSP/Source/TransformFunctions/arm_cfft_radix4_q31.c ****       si3 = pCoef[(ia3 * 2U) + 1U];
 460              		.loc 1 307 7 is_stmt 1 view .LVU189
 307:.//Libraries/CMSIS/DSP/Source/TransformFunctions/arm_cfft_radix4_q31.c ****       si3 = pCoef[(ia3 * 2U) + 1U];
 461              		.loc 1 307 11 is_stmt 0 view .LVU190
 462 01e2 1393     		str	r3, [sp, #76]
 463              	.LVL49:
 464              		.loc 1 309 7 is_stmt 1 view .LVU191
 310:.//Libraries/CMSIS/DSP/Source/TransformFunctions/arm_cfft_radix4_q31.c **** 
 311:.//Libraries/CMSIS/DSP/Source/TransformFunctions/arm_cfft_radix4_q31.c ****       for (i0 = j; i0 < fftLen; i0 += n1)
 465              		.loc 1 311 7 view .LVU192
 466              		.loc 1 311 20 view .LVU193
 309:.//Libraries/CMSIS/DSP/Source/TransformFunctions/arm_cfft_radix4_q31.c **** 
 467              		.loc 1 309 11 is_stmt 0 view .LVU194
 468 01e4 0144     		add	r1, r1, r0
 469              		.loc 1 311 7 view .LVU195
 470 01e6 119B     		ldr	r3, [sp, #68]
 471              	.LVL50:
 472              		.loc 1 311 7 view .LVU196
 473 01e8 169A     		ldr	r2, [sp, #88]
 474              	.LVL51:
 309:.//Libraries/CMSIS/DSP/Source/TransformFunctions/arm_cfft_radix4_q31.c **** 
 475              		.loc 1 309 11 view .LVU197
 476 01ea 1891     		str	r1, [sp, #96]
 477              	.LVL52:
 478              		.loc 1 311 7 view .LVU198
 479 01ec 9342     		cmp	r3, r2
 480 01ee 40F29680 		bls	.L8
 481 01f2 CDF804A0 		str	r10, [sp, #4]
 482 01f6 E246     		mov	r10, ip
 483 01f8 C446     		mov	ip, r8
 484              	.LVL53:
 485              		.loc 1 311 7 view .LVU199
 486 01fa DDE9169E 		ldrd	r9, lr, [sp, #88]
 487              	.LVL54:
 488              	.L5:
 312:.//Libraries/CMSIS/DSP/Source/TransformFunctions/arm_cfft_radix4_q31.c ****       {
 313:.//Libraries/CMSIS/DSP/Source/TransformFunctions/arm_cfft_radix4_q31.c ****         /*  index calculation for the input as, */
 314:.//Libraries/CMSIS/DSP/Source/TransformFunctions/arm_cfft_radix4_q31.c ****         /*  pSrc[i0 + 0], pSrc[i0 + fftLen/4], pSrc[i0 + fftLen/2U], pSrc[i0 + 3fftLen/4] */
 315:.//Libraries/CMSIS/DSP/Source/TransformFunctions/arm_cfft_radix4_q31.c ****         i1 = i0 + n2;
 489              		.loc 1 315 9 is_stmt 1 discriminator 3 view .LVU200
 316:.//Libraries/CMSIS/DSP/Source/TransformFunctions/arm_cfft_radix4_q31.c ****         i2 = i1 + n2;
 490              		.loc 1 316 9 discriminator 3 view .LVU201
 317:.//Libraries/CMSIS/DSP/Source/TransformFunctions/arm_cfft_radix4_q31.c ****         i3 = i2 + n2;
 491              		.loc 1 317 9 discriminator 3 view .LVU202
 318:.//Libraries/CMSIS/DSP/Source/TransformFunctions/arm_cfft_radix4_q31.c **** 
 319:.//Libraries/CMSIS/DSP/Source/TransformFunctions/arm_cfft_radix4_q31.c ****         /*  Butterfly implementation */
 320:.//Libraries/CMSIS/DSP/Source/TransformFunctions/arm_cfft_radix4_q31.c ****         /* xa + xc */
 321:.//Libraries/CMSIS/DSP/Source/TransformFunctions/arm_cfft_radix4_q31.c ****         r1 = pSrc[2U * i0] + pSrc[2U * i2];
 492              		.loc 1 321 9 discriminator 3 view .LVU203
 493              		.loc 1 321 18 is_stmt 0 discriminator 3 view .LVU204
 494 01fe 5AF83940 		ldr	r4, [r10, r9, lsl #3]
 495              		.loc 1 321 34 discriminator 3 view .LVU205
 496 0202 5BF83960 		ldr	r6, [fp, r9, lsl #3]
 322:.//Libraries/CMSIS/DSP/Source/TransformFunctions/arm_cfft_radix4_q31.c ****         /* xa - xc */
 323:.//Libraries/CMSIS/DSP/Source/TransformFunctions/arm_cfft_radix4_q31.c ****         r2 = pSrc[2U * i0] - pSrc[2U * i2];
ARM GAS  /var/folders/wl/rshn8xbx1dsfj1zgryf4g1240000gn/T//ccRY5JJx.s 			page 17


 324:.//Libraries/CMSIS/DSP/Source/TransformFunctions/arm_cfft_radix4_q31.c **** 
 325:.//Libraries/CMSIS/DSP/Source/TransformFunctions/arm_cfft_radix4_q31.c ****         /* ya + yc */
 326:.//Libraries/CMSIS/DSP/Source/TransformFunctions/arm_cfft_radix4_q31.c ****         s1 = pSrc[(2U * i0) + 1U] + pSrc[(2U * i2) + 1U];
 327:.//Libraries/CMSIS/DSP/Source/TransformFunctions/arm_cfft_radix4_q31.c ****         /* ya - yc */
 328:.//Libraries/CMSIS/DSP/Source/TransformFunctions/arm_cfft_radix4_q31.c ****         s2 = pSrc[(2U * i0) + 1U] - pSrc[(2U * i2) + 1U];
 329:.//Libraries/CMSIS/DSP/Source/TransformFunctions/arm_cfft_radix4_q31.c **** 
 330:.//Libraries/CMSIS/DSP/Source/TransformFunctions/arm_cfft_radix4_q31.c ****         /* xb + xd */
 331:.//Libraries/CMSIS/DSP/Source/TransformFunctions/arm_cfft_radix4_q31.c ****         t1 = pSrc[2U * i1] + pSrc[2U * i3];
 497              		.loc 1 331 12 discriminator 3 view .LVU206
 498 0206 5AF80E10 		ldr	r1, [r10, lr]
 499 020a 5BF80E20 		ldr	r2, [fp, lr]
 321:.//Libraries/CMSIS/DSP/Source/TransformFunctions/arm_cfft_radix4_q31.c ****         /* xa - xc */
 500              		.loc 1 321 12 discriminator 3 view .LVU207
 501 020e A719     		adds	r7, r4, r6
 502              	.LVL55:
 323:.//Libraries/CMSIS/DSP/Source/TransformFunctions/arm_cfft_radix4_q31.c **** 
 503              		.loc 1 323 9 is_stmt 1 discriminator 3 view .LVU208
 326:.//Libraries/CMSIS/DSP/Source/TransformFunctions/arm_cfft_radix4_q31.c ****         /* ya - yc */
 504              		.loc 1 326 41 is_stmt 0 discriminator 3 view .LVU209
 505 0210 019D     		ldr	r5, [sp, #4]
 323:.//Libraries/CMSIS/DSP/Source/TransformFunctions/arm_cfft_radix4_q31.c **** 
 506              		.loc 1 323 12 discriminator 3 view .LVU210
 507 0212 A61B     		subs	r6, r4, r6
 508              	.LVL56:
 326:.//Libraries/CMSIS/DSP/Source/TransformFunctions/arm_cfft_radix4_q31.c ****         /* ya - yc */
 509              		.loc 1 326 9 is_stmt 1 discriminator 3 view .LVU211
 510              		.loc 1 331 12 is_stmt 0 discriminator 3 view .LVU212
 511 0214 0A44     		add	r2, r2, r1
 326:.//Libraries/CMSIS/DSP/Source/TransformFunctions/arm_cfft_radix4_q31.c ****         /* ya - yc */
 512              		.loc 1 326 18 discriminator 3 view .LVU213
 513 0216 5CF83930 		ldr	r3, [ip, r9, lsl #3]
 326:.//Libraries/CMSIS/DSP/Source/TransformFunctions/arm_cfft_radix4_q31.c ****         /* ya - yc */
 514              		.loc 1 326 41 discriminator 3 view .LVU214
 515 021a 55F83910 		ldr	r1, [r5, r9, lsl #3]
 332:.//Libraries/CMSIS/DSP/Source/TransformFunctions/arm_cfft_radix4_q31.c **** 
 333:.//Libraries/CMSIS/DSP/Source/TransformFunctions/arm_cfft_radix4_q31.c ****         /* xa' = xa + xb + xc + xd */
 334:.//Libraries/CMSIS/DSP/Source/TransformFunctions/arm_cfft_radix4_q31.c ****         pSrc[2U * i0] = (r1 + t1) >> 2U;
 516              		.loc 1 334 29 discriminator 3 view .LVU215
 517 021e BC18     		adds	r4, r7, r2
 335:.//Libraries/CMSIS/DSP/Source/TransformFunctions/arm_cfft_radix4_q31.c ****         /* xa + xc -(xb + xd) */
 336:.//Libraries/CMSIS/DSP/Source/TransformFunctions/arm_cfft_radix4_q31.c ****         r1 = r1 - t1;
 518              		.loc 1 336 12 discriminator 3 view .LVU216
 519 0220 BF1A     		subs	r7, r7, r2
 520              	.LVL57:
 337:.//Libraries/CMSIS/DSP/Source/TransformFunctions/arm_cfft_radix4_q31.c **** 
 338:.//Libraries/CMSIS/DSP/Source/TransformFunctions/arm_cfft_radix4_q31.c ****         /* yb + yd */
 339:.//Libraries/CMSIS/DSP/Source/TransformFunctions/arm_cfft_radix4_q31.c ****         t2 = pSrc[(2U * i1) + 1U] + pSrc[(2U * i3) + 1U];
 340:.//Libraries/CMSIS/DSP/Source/TransformFunctions/arm_cfft_radix4_q31.c ****         /* ya' = ya + yb + yc + yd */
 341:.//Libraries/CMSIS/DSP/Source/TransformFunctions/arm_cfft_radix4_q31.c ****         pSrc[(2U * i0) + 1U] = (s1 + t2) >> 2U;
 342:.//Libraries/CMSIS/DSP/Source/TransformFunctions/arm_cfft_radix4_q31.c **** 
 343:.//Libraries/CMSIS/DSP/Source/TransformFunctions/arm_cfft_radix4_q31.c ****         /* (ya + yc) - (yb + yd) */
 344:.//Libraries/CMSIS/DSP/Source/TransformFunctions/arm_cfft_radix4_q31.c ****         s1 = s1 - t2;
 345:.//Libraries/CMSIS/DSP/Source/TransformFunctions/arm_cfft_radix4_q31.c **** 
 346:.//Libraries/CMSIS/DSP/Source/TransformFunctions/arm_cfft_radix4_q31.c ****         /* (yb - yd) */
 347:.//Libraries/CMSIS/DSP/Source/TransformFunctions/arm_cfft_radix4_q31.c ****         t1 = pSrc[(2U * i1) + 1U] - pSrc[(2U * i3) + 1U];
 348:.//Libraries/CMSIS/DSP/Source/TransformFunctions/arm_cfft_radix4_q31.c ****         /* (xb - xd) */
 349:.//Libraries/CMSIS/DSP/Source/TransformFunctions/arm_cfft_radix4_q31.c ****         t2 = pSrc[2U * i1] - pSrc[2U * i3];
ARM GAS  /var/folders/wl/rshn8xbx1dsfj1zgryf4g1240000gn/T//ccRY5JJx.s 			page 18


 350:.//Libraries/CMSIS/DSP/Source/TransformFunctions/arm_cfft_radix4_q31.c **** 
 351:.//Libraries/CMSIS/DSP/Source/TransformFunctions/arm_cfft_radix4_q31.c ****         /* xc' = (xa-xb+xc-xd)co2 + (ya-yb+yc-yd)(si2) */
 352:.//Libraries/CMSIS/DSP/Source/TransformFunctions/arm_cfft_radix4_q31.c ****         pSrc[2U * i1] = (((int32_t) (((q63_t) r1 * co2) >> 32)) +
 521              		.loc 1 352 50 discriminator 3 view .LVU217
 522 0222 109A     		ldr	r2, [sp, #64]
 326:.//Libraries/CMSIS/DSP/Source/TransformFunctions/arm_cfft_radix4_q31.c ****         /* ya - yc */
 523              		.loc 1 326 12 discriminator 3 view .LVU218
 524 0224 5818     		adds	r0, r3, r1
 525              	.LVL58:
 328:.//Libraries/CMSIS/DSP/Source/TransformFunctions/arm_cfft_radix4_q31.c **** 
 526              		.loc 1 328 9 is_stmt 1 discriminator 3 view .LVU219
 334:.//Libraries/CMSIS/DSP/Source/TransformFunctions/arm_cfft_radix4_q31.c ****         /* xa + xc -(xb + xd) */
 527              		.loc 1 334 35 is_stmt 0 discriminator 3 view .LVU220
 528 0226 A410     		asrs	r4, r4, #2
 328:.//Libraries/CMSIS/DSP/Source/TransformFunctions/arm_cfft_radix4_q31.c **** 
 529              		.loc 1 328 12 discriminator 3 view .LVU221
 530 0228 5B1A     		subs	r3, r3, r1
 531              	.LVL59:
 331:.//Libraries/CMSIS/DSP/Source/TransformFunctions/arm_cfft_radix4_q31.c **** 
 532              		.loc 1 331 9 is_stmt 1 discriminator 3 view .LVU222
 334:.//Libraries/CMSIS/DSP/Source/TransformFunctions/arm_cfft_radix4_q31.c ****         /* xa + xc -(xb + xd) */
 533              		.loc 1 334 9 discriminator 3 view .LVU223
 534              		.loc 1 352 50 is_stmt 0 discriminator 3 view .LVU224
 535 022a 87FB0212 		smull	r1, r2, r7, r2
 334:.//Libraries/CMSIS/DSP/Source/TransformFunctions/arm_cfft_radix4_q31.c ****         /* xa + xc -(xb + xd) */
 536              		.loc 1 334 23 discriminator 3 view .LVU225
 537 022e 4AF83940 		str	r4, [r10, r9, lsl #3]
 538              	.LVL60:
 336:.//Libraries/CMSIS/DSP/Source/TransformFunctions/arm_cfft_radix4_q31.c **** 
 539              		.loc 1 336 9 is_stmt 1 discriminator 3 view .LVU226
 339:.//Libraries/CMSIS/DSP/Source/TransformFunctions/arm_cfft_radix4_q31.c ****         /* ya' = ya + yb + yc + yd */
 540              		.loc 1 339 9 discriminator 3 view .LVU227
 353:.//Libraries/CMSIS/DSP/Source/TransformFunctions/arm_cfft_radix4_q31.c ****                          ((int32_t) (((q63_t) s1 * si2) >> 32))) >> 1U;
 354:.//Libraries/CMSIS/DSP/Source/TransformFunctions/arm_cfft_radix4_q31.c **** 
 355:.//Libraries/CMSIS/DSP/Source/TransformFunctions/arm_cfft_radix4_q31.c ****         /* yc' = (ya-yb+yc-yd)co2 - (xa-xb+xc-xd)(si2) */
 356:.//Libraries/CMSIS/DSP/Source/TransformFunctions/arm_cfft_radix4_q31.c ****         pSrc[(2U * i1) + 1U] = (((int32_t) (((q63_t) s1 * co2) >> 32)) -
 357:.//Libraries/CMSIS/DSP/Source/TransformFunctions/arm_cfft_radix4_q31.c ****                                 ((int32_t) (((q63_t) r1 * si2) >> 32))) >> 1U;
 541              		.loc 1 357 57 is_stmt 0 discriminator 3 view .LVU228
 542 0232 069C     		ldr	r4, [sp, #24]
 352:.//Libraries/CMSIS/DSP/Source/TransformFunctions/arm_cfft_radix4_q31.c ****                          ((int32_t) (((q63_t) s1 * si2) >> 32))) >> 1U;
 543              		.loc 1 352 50 discriminator 3 view .LVU229
 544 0234 CDE90812 		strd	r1, [sp, #32]
 339:.//Libraries/CMSIS/DSP/Source/TransformFunctions/arm_cfft_radix4_q31.c ****         /* ya' = ya + yb + yc + yd */
 545              		.loc 1 339 12 discriminator 3 view .LVU230
 546 0238 55F80E10 		ldr	r1, [r5, lr]
 547              		.loc 1 357 57 discriminator 3 view .LVU231
 548 023c 87FB0445 		smull	r4, r5, r7, r4
 339:.//Libraries/CMSIS/DSP/Source/TransformFunctions/arm_cfft_radix4_q31.c ****         /* ya' = ya + yb + yc + yd */
 549              		.loc 1 339 12 discriminator 3 view .LVU232
 550 0240 5CF80E20 		ldr	r2, [ip, lr]
 551              		.loc 1 357 57 discriminator 3 view .LVU233
 552 0244 CDE90A45 		strd	r4, [sp, #40]
 339:.//Libraries/CMSIS/DSP/Source/TransformFunctions/arm_cfft_radix4_q31.c ****         /* ya' = ya + yb + yc + yd */
 553              		.loc 1 339 12 discriminator 3 view .LVU234
 554 0248 5518     		adds	r5, r2, r1
 555              	.LVL61:
 341:.//Libraries/CMSIS/DSP/Source/TransformFunctions/arm_cfft_radix4_q31.c **** 
ARM GAS  /var/folders/wl/rshn8xbx1dsfj1zgryf4g1240000gn/T//ccRY5JJx.s 			page 19


 556              		.loc 1 341 9 is_stmt 1 discriminator 3 view .LVU235
 347:.//Libraries/CMSIS/DSP/Source/TransformFunctions/arm_cfft_radix4_q31.c ****         /* (xb - xd) */
 557              		.loc 1 347 12 is_stmt 0 discriminator 3 view .LVU236
 558 024a 019A     		ldr	r2, [sp, #4]
 341:.//Libraries/CMSIS/DSP/Source/TransformFunctions/arm_cfft_radix4_q31.c **** 
 559              		.loc 1 341 36 discriminator 3 view .LVU237
 560 024c 4419     		adds	r4, r0, r5
 344:.//Libraries/CMSIS/DSP/Source/TransformFunctions/arm_cfft_radix4_q31.c **** 
 561              		.loc 1 344 12 discriminator 3 view .LVU238
 562 024e 451B     		subs	r5, r0, r5
 563              	.LVL62:
 341:.//Libraries/CMSIS/DSP/Source/TransformFunctions/arm_cfft_radix4_q31.c **** 
 564              		.loc 1 341 42 discriminator 3 view .LVU239
 565 0250 A410     		asrs	r4, r4, #2
 341:.//Libraries/CMSIS/DSP/Source/TransformFunctions/arm_cfft_radix4_q31.c **** 
 566              		.loc 1 341 30 discriminator 3 view .LVU240
 567 0252 4CF83940 		str	r4, [ip, r9, lsl #3]
 568              	.LVL63:
 344:.//Libraries/CMSIS/DSP/Source/TransformFunctions/arm_cfft_radix4_q31.c **** 
 569              		.loc 1 344 9 is_stmt 1 discriminator 3 view .LVU241
 347:.//Libraries/CMSIS/DSP/Source/TransformFunctions/arm_cfft_radix4_q31.c ****         /* (xb - xd) */
 570              		.loc 1 347 9 discriminator 3 view .LVU242
 347:.//Libraries/CMSIS/DSP/Source/TransformFunctions/arm_cfft_radix4_q31.c ****         /* (xb - xd) */
 571              		.loc 1 347 12 is_stmt 0 discriminator 3 view .LVU243
 572 0256 52F80E40 		ldr	r4, [r2, lr]
 349:.//Libraries/CMSIS/DSP/Source/TransformFunctions/arm_cfft_radix4_q31.c **** 
 573              		.loc 1 349 12 discriminator 3 view .LVU244
 574 025a 5BF80E00 		ldr	r0, [fp, lr]
 347:.//Libraries/CMSIS/DSP/Source/TransformFunctions/arm_cfft_radix4_q31.c ****         /* (xb - xd) */
 575              		.loc 1 347 12 discriminator 3 view .LVU245
 576 025e 5CF80E10 		ldr	r1, [ip, lr]
 349:.//Libraries/CMSIS/DSP/Source/TransformFunctions/arm_cfft_radix4_q31.c **** 
 577              		.loc 1 349 12 discriminator 3 view .LVU246
 578 0262 5AF80E20 		ldr	r2, [r10, lr]
 347:.//Libraries/CMSIS/DSP/Source/TransformFunctions/arm_cfft_radix4_q31.c ****         /* (xb - xd) */
 579              		.loc 1 347 12 discriminator 3 view .LVU247
 580 0266 091B     		subs	r1, r1, r4
 581              	.LVL64:
 349:.//Libraries/CMSIS/DSP/Source/TransformFunctions/arm_cfft_radix4_q31.c **** 
 582              		.loc 1 349 9 is_stmt 1 discriminator 3 view .LVU248
 349:.//Libraries/CMSIS/DSP/Source/TransformFunctions/arm_cfft_radix4_q31.c **** 
 583              		.loc 1 349 12 is_stmt 0 discriminator 3 view .LVU249
 584 0268 121A     		subs	r2, r2, r0
 585              	.LVL65:
 352:.//Libraries/CMSIS/DSP/Source/TransformFunctions/arm_cfft_radix4_q31.c ****                          ((int32_t) (((q63_t) s1 * si2) >> 32))) >> 1U;
 586              		.loc 1 352 9 is_stmt 1 discriminator 3 view .LVU250
 358:.//Libraries/CMSIS/DSP/Source/TransformFunctions/arm_cfft_radix4_q31.c **** 
 359:.//Libraries/CMSIS/DSP/Source/TransformFunctions/arm_cfft_radix4_q31.c ****         /* (xa - xc) + (yb - yd) */
 360:.//Libraries/CMSIS/DSP/Source/TransformFunctions/arm_cfft_radix4_q31.c ****         r1 = r2 + t1;
 587              		.loc 1 360 12 is_stmt 0 discriminator 3 view .LVU251
 588 026a 7418     		adds	r4, r6, r1
 361:.//Libraries/CMSIS/DSP/Source/TransformFunctions/arm_cfft_radix4_q31.c ****         /* (xa - xc) - (yb - yd) */
 362:.//Libraries/CMSIS/DSP/Source/TransformFunctions/arm_cfft_radix4_q31.c ****         r2 = r2 - t1;
 589              		.loc 1 362 12 discriminator 3 view .LVU252
 590 026c 771A     		subs	r7, r6, r1
 591              	.LVL66:
 363:.//Libraries/CMSIS/DSP/Source/TransformFunctions/arm_cfft_radix4_q31.c **** 
ARM GAS  /var/folders/wl/rshn8xbx1dsfj1zgryf4g1240000gn/T//ccRY5JJx.s 			page 20


 364:.//Libraries/CMSIS/DSP/Source/TransformFunctions/arm_cfft_radix4_q31.c ****         /* (ya - yc) -  (xb - xd) */
 365:.//Libraries/CMSIS/DSP/Source/TransformFunctions/arm_cfft_radix4_q31.c ****         s1 = s2 - t2;
 592              		.loc 1 365 12 discriminator 3 view .LVU253
 593 026e 9E1A     		subs	r6, r3, r2
 594              	.LVL67:
 366:.//Libraries/CMSIS/DSP/Source/TransformFunctions/arm_cfft_radix4_q31.c ****         /* (ya - yc) +  (xb - xd) */
 367:.//Libraries/CMSIS/DSP/Source/TransformFunctions/arm_cfft_radix4_q31.c ****         s2 = s2 + t2;
 595              		.loc 1 367 12 discriminator 3 view .LVU254
 596 0270 1344     		add	r3, r3, r2
 597              	.LVL68:
 368:.//Libraries/CMSIS/DSP/Source/TransformFunctions/arm_cfft_radix4_q31.c **** 
 369:.//Libraries/CMSIS/DSP/Source/TransformFunctions/arm_cfft_radix4_q31.c ****         /* xb' = (xa+yb-xc-yd)co1 + (ya-xb-yc+xd)(si1) */
 370:.//Libraries/CMSIS/DSP/Source/TransformFunctions/arm_cfft_radix4_q31.c ****         pSrc[2U * i2] = (((int32_t) (((q63_t) r1 * co1) >> 32)) +
 371:.//Libraries/CMSIS/DSP/Source/TransformFunctions/arm_cfft_radix4_q31.c ****                          ((int32_t) (((q63_t) s1 * si1) >> 32))) >> 1U;
 598              		.loc 1 371 50 discriminator 3 view .LVU255
 599 0272 059A     		ldr	r2, [sp, #20]
 600              	.LVL69:
 370:.//Libraries/CMSIS/DSP/Source/TransformFunctions/arm_cfft_radix4_q31.c ****                          ((int32_t) (((q63_t) s1 * si1) >> 32))) >> 1U;
 601              		.loc 1 370 50 discriminator 3 view .LVU256
 602 0274 0499     		ldr	r1, [sp, #16]
 603              	.LVL70:
 362:.//Libraries/CMSIS/DSP/Source/TransformFunctions/arm_cfft_radix4_q31.c **** 
 604              		.loc 1 362 12 discriminator 3 view .LVU257
 605 0276 0297     		str	r7, [sp, #8]
 606              		.loc 1 371 50 discriminator 3 view .LVU258
 607 0278 86FB0278 		smull	r7, r8, r6, r2
 370:.//Libraries/CMSIS/DSP/Source/TransformFunctions/arm_cfft_radix4_q31.c ****                          ((int32_t) (((q63_t) s1 * si1) >> 32))) >> 1U;
 608              		.loc 1 370 50 discriminator 3 view .LVU259
 609 027c 84FB0101 		smull	r0, r1, r4, r1
 610              	.LVL71:
 353:.//Libraries/CMSIS/DSP/Source/TransformFunctions/arm_cfft_radix4_q31.c **** 
 611              		.loc 1 353 50 discriminator 3 view .LVU260
 612 0280 0698     		ldr	r0, [sp, #24]
 370:.//Libraries/CMSIS/DSP/Source/TransformFunctions/arm_cfft_radix4_q31.c ****                          ((int32_t) (((q63_t) s1 * si1) >> 32))) >> 1U;
 613              		.loc 1 370 65 discriminator 3 view .LVU261
 614 0282 4246     		mov	r2, r8
 353:.//Libraries/CMSIS/DSP/Source/TransformFunctions/arm_cfft_radix4_q31.c **** 
 615              		.loc 1 353 50 discriminator 3 view .LVU262
 616 0284 85FB0078 		smull	r7, r8, r5, r0
 352:.//Libraries/CMSIS/DSP/Source/TransformFunctions/arm_cfft_radix4_q31.c ****                          ((int32_t) (((q63_t) s1 * si2) >> 32))) >> 1U;
 617              		.loc 1 352 65 discriminator 3 view .LVU263
 618 0288 099F     		ldr	r7, [sp, #36]
 370:.//Libraries/CMSIS/DSP/Source/TransformFunctions/arm_cfft_radix4_q31.c ****                          ((int32_t) (((q63_t) s1 * si1) >> 32))) >> 1U;
 619              		.loc 1 370 65 discriminator 3 view .LVU264
 620 028a 0A44     		add	r2, r2, r1
 356:.//Libraries/CMSIS/DSP/Source/TransformFunctions/arm_cfft_radix4_q31.c ****                                 ((int32_t) (((q63_t) r1 * si2) >> 32))) >> 1U;
 621              		.loc 1 356 57 discriminator 3 view .LVU265
 622 028c 1099     		ldr	r1, [sp, #64]
 623 028e 0846     		mov	r0, r1
 624              		.loc 1 371 66 discriminator 3 view .LVU266
 625 0290 5210     		asrs	r2, r2, #1
 356:.//Libraries/CMSIS/DSP/Source/TransformFunctions/arm_cfft_radix4_q31.c ****                                 ((int32_t) (((q63_t) r1 * si2) >> 32))) >> 1U;
 626              		.loc 1 356 57 discriminator 3 view .LVU267
 627 0292 85FB0001 		smull	r0, r1, r5, r0
 352:.//Libraries/CMSIS/DSP/Source/TransformFunctions/arm_cfft_radix4_q31.c ****                          ((int32_t) (((q63_t) s1 * si2) >> 32))) >> 1U;
 628              		.loc 1 352 65 discriminator 3 view .LVU268
 629 0296 4546     		mov	r5, r8
ARM GAS  /var/folders/wl/rshn8xbx1dsfj1zgryf4g1240000gn/T//ccRY5JJx.s 			page 21


 630              	.LVL72:
 372:.//Libraries/CMSIS/DSP/Source/TransformFunctions/arm_cfft_radix4_q31.c **** 
 373:.//Libraries/CMSIS/DSP/Source/TransformFunctions/arm_cfft_radix4_q31.c ****         /* yb' = (ya-xb-yc+xd)co1 - (xa+yb-xc-yd)(si1) */
 374:.//Libraries/CMSIS/DSP/Source/TransformFunctions/arm_cfft_radix4_q31.c ****         pSrc[(2U * i2) + 1U] = (((int32_t) (((q63_t) s1 * co1) >> 32)) -
 375:.//Libraries/CMSIS/DSP/Source/TransformFunctions/arm_cfft_radix4_q31.c ****                                 ((int32_t) (((q63_t) r1 * si1) >> 32))) >> 1U;
 376:.//Libraries/CMSIS/DSP/Source/TransformFunctions/arm_cfft_radix4_q31.c **** 
 377:.//Libraries/CMSIS/DSP/Source/TransformFunctions/arm_cfft_radix4_q31.c ****         /* xd' = (xa-yb-xc+yd)co3 + (ya+xb-yc-xd)(si3) */
 378:.//Libraries/CMSIS/DSP/Source/TransformFunctions/arm_cfft_radix4_q31.c ****         pSrc[2U * i3] = (((int32_t) (((q63_t) r2 * co3) >> 32)) +
 631              		.loc 1 378 50 discriminator 3 view .LVU269
 632 0298 1298     		ldr	r0, [sp, #72]
 352:.//Libraries/CMSIS/DSP/Source/TransformFunctions/arm_cfft_radix4_q31.c ****                          ((int32_t) (((q63_t) s1 * si2) >> 32))) >> 1U;
 633              		.loc 1 352 65 discriminator 3 view .LVU270
 634 029a 3D44     		add	r5, r5, r7
 635 029c 0895     		str	r5, [sp, #32]
 374:.//Libraries/CMSIS/DSP/Source/TransformFunctions/arm_cfft_radix4_q31.c ****                                 ((int32_t) (((q63_t) r1 * si1) >> 32))) >> 1U;
 636              		.loc 1 374 57 discriminator 3 view .LVU271
 637 029e 049D     		ldr	r5, [sp, #16]
 638 02a0 86FB0567 		smull	r6, r7, r6, r5
 375:.//Libraries/CMSIS/DSP/Source/TransformFunctions/arm_cfft_radix4_q31.c **** 
 639              		.loc 1 375 57 discriminator 3 view .LVU272
 640 02a4 059D     		ldr	r5, [sp, #20]
 374:.//Libraries/CMSIS/DSP/Source/TransformFunctions/arm_cfft_radix4_q31.c ****                                 ((int32_t) (((q63_t) r1 * si1) >> 32))) >> 1U;
 641              		.loc 1 374 57 discriminator 3 view .LVU273
 642 02a6 CDE90C67 		strd	r6, [sp, #48]
 356:.//Libraries/CMSIS/DSP/Source/TransformFunctions/arm_cfft_radix4_q31.c ****                                 ((int32_t) (((q63_t) r1 * si2) >> 32))) >> 1U;
 643              		.loc 1 356 72 discriminator 3 view .LVU274
 644 02aa 0B9E     		ldr	r6, [sp, #44]
 375:.//Libraries/CMSIS/DSP/Source/TransformFunctions/arm_cfft_radix4_q31.c **** 
 645              		.loc 1 375 57 discriminator 3 view .LVU275
 646 02ac 84FB0545 		smull	r4, r5, r4, r5
 647              		.loc 1 378 50 discriminator 3 view .LVU276
 648 02b0 029F     		ldr	r7, [sp, #8]
 356:.//Libraries/CMSIS/DSP/Source/TransformFunctions/arm_cfft_radix4_q31.c ****                                 ((int32_t) (((q63_t) r1 * si2) >> 32))) >> 1U;
 649              		.loc 1 356 72 discriminator 3 view .LVU277
 650 02b2 891B     		subs	r1, r1, r6
 371:.//Libraries/CMSIS/DSP/Source/TransformFunctions/arm_cfft_radix4_q31.c **** 
 651              		.loc 1 371 66 discriminator 3 view .LVU278
 652 02b4 0A92     		str	r2, [sp, #40]
 653              		.loc 1 378 50 discriminator 3 view .LVU279
 654 02b6 87FB0067 		smull	r6, r7, r7, r0
 357:.//Libraries/CMSIS/DSP/Source/TransformFunctions/arm_cfft_radix4_q31.c **** 
 655              		.loc 1 357 73 discriminator 3 view .LVU280
 656 02ba 4910     		asrs	r1, r1, #1
 657              		.loc 1 378 50 discriminator 3 view .LVU281
 658 02bc CDE90E67 		strd	r6, [sp, #56]
 374:.//Libraries/CMSIS/DSP/Source/TransformFunctions/arm_cfft_radix4_q31.c ****                                 ((int32_t) (((q63_t) r1 * si1) >> 32))) >> 1U;
 659              		.loc 1 374 72 discriminator 3 view .LVU282
 660 02c0 0D9E     		ldr	r6, [sp, #52]
 379:.//Libraries/CMSIS/DSP/Source/TransformFunctions/arm_cfft_radix4_q31.c ****                          ((int32_t) (((q63_t) s2 * si3) >> 32))) >> 1U;
 380:.//Libraries/CMSIS/DSP/Source/TransformFunctions/arm_cfft_radix4_q31.c **** 
 381:.//Libraries/CMSIS/DSP/Source/TransformFunctions/arm_cfft_radix4_q31.c ****         /* yd' = (ya+xb-yc-xd)co3 - (xa-yb-xc+yd)(si3) */
 382:.//Libraries/CMSIS/DSP/Source/TransformFunctions/arm_cfft_radix4_q31.c ****         pSrc[(2U * i3) + 1U] = (((int32_t) (((q63_t) s2 * co3) >> 32)) -
 661              		.loc 1 382 57 discriminator 3 view .LVU283
 662 02c2 83FB0078 		smull	r7, r8, r3, r0
 353:.//Libraries/CMSIS/DSP/Source/TransformFunctions/arm_cfft_radix4_q31.c **** 
 663              		.loc 1 353 66 discriminator 3 view .LVU284
 664 02c6 0898     		ldr	r0, [sp, #32]
ARM GAS  /var/folders/wl/rshn8xbx1dsfj1zgryf4g1240000gn/T//ccRY5JJx.s 			page 22


 374:.//Libraries/CMSIS/DSP/Source/TransformFunctions/arm_cfft_radix4_q31.c ****                                 ((int32_t) (((q63_t) r1 * si1) >> 32))) >> 1U;
 665              		.loc 1 374 72 discriminator 3 view .LVU285
 666 02c8 721B     		subs	r2, r6, r5
 379:.//Libraries/CMSIS/DSP/Source/TransformFunctions/arm_cfft_radix4_q31.c ****                          ((int32_t) (((q63_t) s2 * si3) >> 32))) >> 1U;
 667              		.loc 1 379 50 discriminator 3 view .LVU286
 668 02ca 139E     		ldr	r6, [sp, #76]
 353:.//Libraries/CMSIS/DSP/Source/TransformFunctions/arm_cfft_radix4_q31.c **** 
 669              		.loc 1 353 66 discriminator 3 view .LVU287
 670 02cc 4010     		asrs	r0, r0, #1
 379:.//Libraries/CMSIS/DSP/Source/TransformFunctions/arm_cfft_radix4_q31.c ****                          ((int32_t) (((q63_t) s2 * si3) >> 32))) >> 1U;
 671              		.loc 1 379 50 discriminator 3 view .LVU288
 672 02ce 3446     		mov	r4, r6
 375:.//Libraries/CMSIS/DSP/Source/TransformFunctions/arm_cfft_radix4_q31.c **** 
 673              		.loc 1 375 73 discriminator 3 view .LVU289
 674 02d0 5210     		asrs	r2, r2, #1
 352:.//Libraries/CMSIS/DSP/Source/TransformFunctions/arm_cfft_radix4_q31.c ****                          ((int32_t) (((q63_t) s1 * si2) >> 32))) >> 1U;
 675              		.loc 1 352 23 discriminator 3 view .LVU290
 676 02d2 4AF80E00 		str	r0, [r10, lr]
 677              	.LVL73:
 379:.//Libraries/CMSIS/DSP/Source/TransformFunctions/arm_cfft_radix4_q31.c **** 
 678              		.loc 1 379 50 discriminator 3 view .LVU291
 679 02d6 83FB0445 		smull	r4, r5, r3, r4
 356:.//Libraries/CMSIS/DSP/Source/TransformFunctions/arm_cfft_radix4_q31.c ****                                 ((int32_t) (((q63_t) r1 * si2) >> 32))) >> 1U;
 680              		.loc 1 356 9 is_stmt 1 discriminator 3 view .LVU292
 383:.//Libraries/CMSIS/DSP/Source/TransformFunctions/arm_cfft_radix4_q31.c ****                                 ((int32_t) (((q63_t) r2 * si3) >> 32))) >> 1U;
 681              		.loc 1 383 57 is_stmt 0 discriminator 3 view .LVU293
 682 02da 029B     		ldr	r3, [sp, #8]
 356:.//Libraries/CMSIS/DSP/Source/TransformFunctions/arm_cfft_radix4_q31.c ****                                 ((int32_t) (((q63_t) r1 * si2) >> 32))) >> 1U;
 683              		.loc 1 356 30 discriminator 3 view .LVU294
 684 02dc 4CF80E10 		str	r1, [ip, lr]
 360:.//Libraries/CMSIS/DSP/Source/TransformFunctions/arm_cfft_radix4_q31.c ****         /* (xa - xc) - (yb - yd) */
 685              		.loc 1 360 9 is_stmt 1 discriminator 3 view .LVU295
 362:.//Libraries/CMSIS/DSP/Source/TransformFunctions/arm_cfft_radix4_q31.c **** 
 686              		.loc 1 362 9 discriminator 3 view .LVU296
 687              	.LVL74:
 365:.//Libraries/CMSIS/DSP/Source/TransformFunctions/arm_cfft_radix4_q31.c ****         /* (ya - yc) +  (xb - xd) */
 688              		.loc 1 365 9 discriminator 3 view .LVU297
 367:.//Libraries/CMSIS/DSP/Source/TransformFunctions/arm_cfft_radix4_q31.c **** 
 689              		.loc 1 367 9 discriminator 3 view .LVU298
 370:.//Libraries/CMSIS/DSP/Source/TransformFunctions/arm_cfft_radix4_q31.c ****                          ((int32_t) (((q63_t) s1 * si1) >> 32))) >> 1U;
 690              		.loc 1 370 9 discriminator 3 view .LVU299
 370:.//Libraries/CMSIS/DSP/Source/TransformFunctions/arm_cfft_radix4_q31.c ****                          ((int32_t) (((q63_t) s1 * si1) >> 32))) >> 1U;
 691              		.loc 1 370 23 is_stmt 0 discriminator 3 view .LVU300
 692 02e0 0A99     		ldr	r1, [sp, #40]
 382:.//Libraries/CMSIS/DSP/Source/TransformFunctions/arm_cfft_radix4_q31.c ****                                 ((int32_t) (((q63_t) r2 * si3) >> 32))) >> 1U;
 693              		.loc 1 382 57 discriminator 3 view .LVU301
 694 02e2 CDE90C78 		strd	r7, [sp, #48]
 695              		.loc 1 383 57 discriminator 3 view .LVU302
 696 02e6 83FB0667 		smull	r6, r7, r3, r6
 378:.//Libraries/CMSIS/DSP/Source/TransformFunctions/arm_cfft_radix4_q31.c ****                          ((int32_t) (((q63_t) s2 * si3) >> 32))) >> 1U;
 697              		.loc 1 378 65 discriminator 3 view .LVU303
 698 02ea 0F9B     		ldr	r3, [sp, #60]
 699              	.LVL75:
 370:.//Libraries/CMSIS/DSP/Source/TransformFunctions/arm_cfft_radix4_q31.c ****                          ((int32_t) (((q63_t) s1 * si1) >> 32))) >> 1U;
 700              		.loc 1 370 23 discriminator 3 view .LVU304
 701 02ec 4BF83910 		str	r1, [fp, r9, lsl #3]
 374:.//Libraries/CMSIS/DSP/Source/TransformFunctions/arm_cfft_radix4_q31.c ****                                 ((int32_t) (((q63_t) r1 * si1) >> 32))) >> 1U;
ARM GAS  /var/folders/wl/rshn8xbx1dsfj1zgryf4g1240000gn/T//ccRY5JJx.s 			page 23


 702              		.loc 1 374 9 is_stmt 1 discriminator 3 view .LVU305
 378:.//Libraries/CMSIS/DSP/Source/TransformFunctions/arm_cfft_radix4_q31.c ****                          ((int32_t) (((q63_t) s2 * si3) >> 32))) >> 1U;
 703              		.loc 1 378 65 is_stmt 0 discriminator 3 view .LVU306
 704 02f0 EC18     		adds	r4, r5, r3
 382:.//Libraries/CMSIS/DSP/Source/TransformFunctions/arm_cfft_radix4_q31.c ****                                 ((int32_t) (((q63_t) r2 * si3) >> 32))) >> 1U;
 705              		.loc 1 382 72 discriminator 3 view .LVU307
 706 02f2 0D9B     		ldr	r3, [sp, #52]
 374:.//Libraries/CMSIS/DSP/Source/TransformFunctions/arm_cfft_radix4_q31.c ****                                 ((int32_t) (((q63_t) r1 * si1) >> 32))) >> 1U;
 707              		.loc 1 374 30 discriminator 3 view .LVU308
 708 02f4 019D     		ldr	r5, [sp, #4]
 382:.//Libraries/CMSIS/DSP/Source/TransformFunctions/arm_cfft_radix4_q31.c ****                                 ((int32_t) (((q63_t) r2 * si3) >> 32))) >> 1U;
 709              		.loc 1 382 72 discriminator 3 view .LVU309
 710 02f6 DB1B     		subs	r3, r3, r7
 379:.//Libraries/CMSIS/DSP/Source/TransformFunctions/arm_cfft_radix4_q31.c **** 
 711              		.loc 1 379 66 discriminator 3 view .LVU310
 712 02f8 6410     		asrs	r4, r4, #1
 374:.//Libraries/CMSIS/DSP/Source/TransformFunctions/arm_cfft_radix4_q31.c ****                                 ((int32_t) (((q63_t) r1 * si1) >> 32))) >> 1U;
 713              		.loc 1 374 30 discriminator 3 view .LVU311
 714 02fa 45F83920 		str	r2, [r5, r9, lsl #3]
 378:.//Libraries/CMSIS/DSP/Source/TransformFunctions/arm_cfft_radix4_q31.c ****                          ((int32_t) (((q63_t) s2 * si3) >> 32))) >> 1U;
 715              		.loc 1 378 9 is_stmt 1 discriminator 3 view .LVU312
 716              		.loc 1 383 73 is_stmt 0 discriminator 3 view .LVU313
 717 02fe 5B10     		asrs	r3, r3, #1
 378:.//Libraries/CMSIS/DSP/Source/TransformFunctions/arm_cfft_radix4_q31.c ****                          ((int32_t) (((q63_t) s2 * si3) >> 32))) >> 1U;
 718              		.loc 1 378 23 discriminator 3 view .LVU314
 719 0300 4BF80E40 		str	r4, [fp, lr]
 382:.//Libraries/CMSIS/DSP/Source/TransformFunctions/arm_cfft_radix4_q31.c ****                                 ((int32_t) (((q63_t) r2 * si3) >> 32))) >> 1U;
 720              		.loc 1 382 9 is_stmt 1 discriminator 3 view .LVU315
 311:.//Libraries/CMSIS/DSP/Source/TransformFunctions/arm_cfft_radix4_q31.c ****       {
 721              		.loc 1 311 36 is_stmt 0 discriminator 3 view .LVU316
 722 0304 149A     		ldr	r2, [sp, #80]
 382:.//Libraries/CMSIS/DSP/Source/TransformFunctions/arm_cfft_radix4_q31.c ****                                 ((int32_t) (((q63_t) r2 * si3) >> 32))) >> 1U;
 723              		.loc 1 382 30 discriminator 3 view .LVU317
 724 0306 45F80E30 		str	r3, [r5, lr]
 311:.//Libraries/CMSIS/DSP/Source/TransformFunctions/arm_cfft_radix4_q31.c ****       {
 725              		.loc 1 311 33 is_stmt 1 discriminator 3 view .LVU318
 726 030a 159B     		ldr	r3, [sp, #84]
 311:.//Libraries/CMSIS/DSP/Source/TransformFunctions/arm_cfft_radix4_q31.c ****       {
 727              		.loc 1 311 36 is_stmt 0 discriminator 3 view .LVU319
 728 030c 9144     		add	r9, r9, r2
 729              	.LVL76:
 311:.//Libraries/CMSIS/DSP/Source/TransformFunctions/arm_cfft_radix4_q31.c ****       {
 730              		.loc 1 311 20 is_stmt 1 discriminator 3 view .LVU320
 731 030e 9E44     		add	lr, lr, r3
 311:.//Libraries/CMSIS/DSP/Source/TransformFunctions/arm_cfft_radix4_q31.c ****       {
 732              		.loc 1 311 7 is_stmt 0 discriminator 3 view .LVU321
 733 0310 119B     		ldr	r3, [sp, #68]
 734 0312 4B45     		cmp	r3, r9
 735 0314 3FF673AF 		bhi	.L5
 736 0318 E046     		mov	r8, ip
 737 031a D446     		mov	ip, r10
 738 031c AA46     		mov	r10, r5
 739              	.LVL77:
 740              	.L8:
 297:.//Libraries/CMSIS/DSP/Source/TransformFunctions/arm_cfft_radix4_q31.c ****     {
 741              		.loc 1 297 34 is_stmt 1 view .LVU322
 742 031e 179A     		ldr	r2, [sp, #92]
ARM GAS  /var/folders/wl/rshn8xbx1dsfj1zgryf4g1240000gn/T//ccRY5JJx.s 			page 24


 297:.//Libraries/CMSIS/DSP/Source/TransformFunctions/arm_cfft_radix4_q31.c ****     {
 743              		.loc 1 297 35 is_stmt 0 view .LVU323
 744 0320 169B     		ldr	r3, [sp, #88]
 745 0322 0832     		adds	r2, r2, #8
 746 0324 0133     		adds	r3, r3, #1
 747 0326 1792     		str	r2, [sp, #92]
 297:.//Libraries/CMSIS/DSP/Source/TransformFunctions/arm_cfft_radix4_q31.c ****     {
 748              		.loc 1 297 5 view .LVU324
 749 0328 199A     		ldr	r2, [sp, #100]
 297:.//Libraries/CMSIS/DSP/Source/TransformFunctions/arm_cfft_radix4_q31.c ****     {
 750              		.loc 1 297 35 view .LVU325
 751 032a 1693     		str	r3, [sp, #88]
 752              	.LVL78:
 297:.//Libraries/CMSIS/DSP/Source/TransformFunctions/arm_cfft_radix4_q31.c ****     {
 753              		.loc 1 297 18 is_stmt 1 view .LVU326
 297:.//Libraries/CMSIS/DSP/Source/TransformFunctions/arm_cfft_radix4_q31.c ****     {
 754              		.loc 1 297 5 is_stmt 0 view .LVU327
 755 032c 9A42     		cmp	r2, r3
 756 032e 7FF442AF 		bne	.L6
 384:.//Libraries/CMSIS/DSP/Source/TransformFunctions/arm_cfft_radix4_q31.c ****       }
 385:.//Libraries/CMSIS/DSP/Source/TransformFunctions/arm_cfft_radix4_q31.c ****     }
 386:.//Libraries/CMSIS/DSP/Source/TransformFunctions/arm_cfft_radix4_q31.c ****     twidCoefModifier <<= 2U;
 757              		.loc 1 386 22 view .LVU328
 758 0332 1A9B     		ldr	r3, [sp, #104]
 759              	.LVL79:
 760              		.loc 1 386 22 view .LVU329
 761 0334 C646     		mov	lr, r8
 762              		.loc 1 386 5 is_stmt 1 view .LVU330
 763              		.loc 1 386 22 is_stmt 0 view .LVU331
 764 0336 9B00     		lsls	r3, r3, #2
 765 0338 1A93     		str	r3, [sp, #104]
 766              	.LVL80:
 289:.//Libraries/CMSIS/DSP/Source/TransformFunctions/arm_cfft_radix4_q31.c ****   {
 767              		.loc 1 289 33 is_stmt 1 view .LVU332
 289:.//Libraries/CMSIS/DSP/Source/TransformFunctions/arm_cfft_radix4_q31.c ****   {
 768              		.loc 1 289 25 view .LVU333
 289:.//Libraries/CMSIS/DSP/Source/TransformFunctions/arm_cfft_radix4_q31.c ****   {
 769              		.loc 1 289 3 is_stmt 0 view .LVU334
 770 033a 199B     		ldr	r3, [sp, #100]
 771              	.LVL81:
 289:.//Libraries/CMSIS/DSP/Source/TransformFunctions/arm_cfft_radix4_q31.c ****   {
 772              		.loc 1 289 3 view .LVU335
 773 033c 042B     		cmp	r3, #4
 774 033e 3FF629AF 		bhi	.L3
 775 0342 E046     		mov	r8, ip
 776              	.LVL82:
 777              	.L9:
 289:.//Libraries/CMSIS/DSP/Source/TransformFunctions/arm_cfft_radix4_q31.c ****   {
 778              		.loc 1 289 3 view .LVU336
 779 0344 08F12003 		add	r3, r8, #32
 780              	.LVL83:
 289:.//Libraries/CMSIS/DSP/Source/TransformFunctions/arm_cfft_radix4_q31.c ****   {
 781              		.loc 1 289 3 view .LVU337
 782 0348 DDF87490 		ldr	r9, [sp, #116]
 783              	.LVL84:
 784              	.L4:
 387:.//Libraries/CMSIS/DSP/Source/TransformFunctions/arm_cfft_radix4_q31.c ****   }
ARM GAS  /var/folders/wl/rshn8xbx1dsfj1zgryf4g1240000gn/T//ccRY5JJx.s 			page 25


 388:.//Libraries/CMSIS/DSP/Source/TransformFunctions/arm_cfft_radix4_q31.c **** 
 389:.//Libraries/CMSIS/DSP/Source/TransformFunctions/arm_cfft_radix4_q31.c ****   /* End of Middle stages process */
 390:.//Libraries/CMSIS/DSP/Source/TransformFunctions/arm_cfft_radix4_q31.c **** 
 391:.//Libraries/CMSIS/DSP/Source/TransformFunctions/arm_cfft_radix4_q31.c ****   /* data is in 11.21(q21) format for the 1024 point as there are 3 middle stages */
 392:.//Libraries/CMSIS/DSP/Source/TransformFunctions/arm_cfft_radix4_q31.c ****   /* data is in 9.23(q23) format for the 256 point as there are 2 middle stages */
 393:.//Libraries/CMSIS/DSP/Source/TransformFunctions/arm_cfft_radix4_q31.c ****   /* data is in 7.25(q25) format for the 64 point as there are 1 middle stage */
 394:.//Libraries/CMSIS/DSP/Source/TransformFunctions/arm_cfft_radix4_q31.c ****   /* data is in 5.27(q27) format for the 16 point as there are no middle stages */
 395:.//Libraries/CMSIS/DSP/Source/TransformFunctions/arm_cfft_radix4_q31.c **** 
 396:.//Libraries/CMSIS/DSP/Source/TransformFunctions/arm_cfft_radix4_q31.c **** 
 397:.//Libraries/CMSIS/DSP/Source/TransformFunctions/arm_cfft_radix4_q31.c ****   /* start of Last stage process */
 398:.//Libraries/CMSIS/DSP/Source/TransformFunctions/arm_cfft_radix4_q31.c ****   /*  Initializations for the last stage */
 399:.//Libraries/CMSIS/DSP/Source/TransformFunctions/arm_cfft_radix4_q31.c ****   j = fftLen >> 2;
 400:.//Libraries/CMSIS/DSP/Source/TransformFunctions/arm_cfft_radix4_q31.c ****   ptr1 = &pSrc[0];
 401:.//Libraries/CMSIS/DSP/Source/TransformFunctions/arm_cfft_radix4_q31.c **** 
 402:.//Libraries/CMSIS/DSP/Source/TransformFunctions/arm_cfft_radix4_q31.c ****   /*  Calculations of last stage */
 403:.//Libraries/CMSIS/DSP/Source/TransformFunctions/arm_cfft_radix4_q31.c ****   do
 785              		.loc 1 403 3 is_stmt 1 discriminator 1 view .LVU338
 404:.//Libraries/CMSIS/DSP/Source/TransformFunctions/arm_cfft_radix4_q31.c ****   {
 405:.//Libraries/CMSIS/DSP/Source/TransformFunctions/arm_cfft_radix4_q31.c ****     /* Read xa (real), ya(imag) input */
 406:.//Libraries/CMSIS/DSP/Source/TransformFunctions/arm_cfft_radix4_q31.c ****     xa = *ptr1++;
 786              		.loc 1 406 5 discriminator 1 view .LVU339
 787              		.loc 1 406 8 is_stmt 0 discriminator 1 view .LVU340
 788 034c 53F8200C 		ldr	r0, [r3, #-32]
 789              	.LVL85:
 407:.//Libraries/CMSIS/DSP/Source/TransformFunctions/arm_cfft_radix4_q31.c ****     ya = *ptr1++;
 790              		.loc 1 407 5 is_stmt 1 discriminator 1 view .LVU341
 408:.//Libraries/CMSIS/DSP/Source/TransformFunctions/arm_cfft_radix4_q31.c **** 
 409:.//Libraries/CMSIS/DSP/Source/TransformFunctions/arm_cfft_radix4_q31.c ****     /* Read xb (real), yb(imag) input */
 410:.//Libraries/CMSIS/DSP/Source/TransformFunctions/arm_cfft_radix4_q31.c ****     xb = *ptr1++;
 411:.//Libraries/CMSIS/DSP/Source/TransformFunctions/arm_cfft_radix4_q31.c ****     yb = *ptr1++;
 412:.//Libraries/CMSIS/DSP/Source/TransformFunctions/arm_cfft_radix4_q31.c **** 
 413:.//Libraries/CMSIS/DSP/Source/TransformFunctions/arm_cfft_radix4_q31.c ****     /* Read xc (real), yc(imag) input */
 414:.//Libraries/CMSIS/DSP/Source/TransformFunctions/arm_cfft_radix4_q31.c ****     xc = *ptr1++;
 415:.//Libraries/CMSIS/DSP/Source/TransformFunctions/arm_cfft_radix4_q31.c ****     yc = *ptr1++;
 416:.//Libraries/CMSIS/DSP/Source/TransformFunctions/arm_cfft_radix4_q31.c **** 
 417:.//Libraries/CMSIS/DSP/Source/TransformFunctions/arm_cfft_radix4_q31.c ****     /* Read xc (real), yc(imag) input */
 418:.//Libraries/CMSIS/DSP/Source/TransformFunctions/arm_cfft_radix4_q31.c ****     xd = *ptr1++;
 419:.//Libraries/CMSIS/DSP/Source/TransformFunctions/arm_cfft_radix4_q31.c ****     yd = *ptr1++;
 420:.//Libraries/CMSIS/DSP/Source/TransformFunctions/arm_cfft_radix4_q31.c **** 
 421:.//Libraries/CMSIS/DSP/Source/TransformFunctions/arm_cfft_radix4_q31.c ****     /* xa' = xa + xb + xc + xd */
 422:.//Libraries/CMSIS/DSP/Source/TransformFunctions/arm_cfft_radix4_q31.c ****     xa_out = xa + xb + xc + xd;
 423:.//Libraries/CMSIS/DSP/Source/TransformFunctions/arm_cfft_radix4_q31.c **** 
 424:.//Libraries/CMSIS/DSP/Source/TransformFunctions/arm_cfft_radix4_q31.c ****     /* ya' = ya + yb + yc + yd */
 425:.//Libraries/CMSIS/DSP/Source/TransformFunctions/arm_cfft_radix4_q31.c ****     ya_out = ya + yb + yc + yd;
 426:.//Libraries/CMSIS/DSP/Source/TransformFunctions/arm_cfft_radix4_q31.c **** 
 427:.//Libraries/CMSIS/DSP/Source/TransformFunctions/arm_cfft_radix4_q31.c ****     /* pointer updation for writing */
 428:.//Libraries/CMSIS/DSP/Source/TransformFunctions/arm_cfft_radix4_q31.c ****     ptr1 = ptr1 - 8U;
 429:.//Libraries/CMSIS/DSP/Source/TransformFunctions/arm_cfft_radix4_q31.c **** 
 430:.//Libraries/CMSIS/DSP/Source/TransformFunctions/arm_cfft_radix4_q31.c ****     /* writing xa' and ya' */
 431:.//Libraries/CMSIS/DSP/Source/TransformFunctions/arm_cfft_radix4_q31.c ****     *ptr1++ = xa_out;
 432:.//Libraries/CMSIS/DSP/Source/TransformFunctions/arm_cfft_radix4_q31.c ****     *ptr1++ = ya_out;
 433:.//Libraries/CMSIS/DSP/Source/TransformFunctions/arm_cfft_radix4_q31.c **** 
 434:.//Libraries/CMSIS/DSP/Source/TransformFunctions/arm_cfft_radix4_q31.c ****     xc_out = (xa - xb + xc - xd);
 435:.//Libraries/CMSIS/DSP/Source/TransformFunctions/arm_cfft_radix4_q31.c ****     yc_out = (ya - yb + yc - yd);
 436:.//Libraries/CMSIS/DSP/Source/TransformFunctions/arm_cfft_radix4_q31.c **** 
 437:.//Libraries/CMSIS/DSP/Source/TransformFunctions/arm_cfft_radix4_q31.c ****     /* writing xc' and yc' */
 438:.//Libraries/CMSIS/DSP/Source/TransformFunctions/arm_cfft_radix4_q31.c ****     *ptr1++ = xc_out;
ARM GAS  /var/folders/wl/rshn8xbx1dsfj1zgryf4g1240000gn/T//ccRY5JJx.s 			page 26


 439:.//Libraries/CMSIS/DSP/Source/TransformFunctions/arm_cfft_radix4_q31.c ****     *ptr1++ = yc_out;
 440:.//Libraries/CMSIS/DSP/Source/TransformFunctions/arm_cfft_radix4_q31.c **** 
 441:.//Libraries/CMSIS/DSP/Source/TransformFunctions/arm_cfft_radix4_q31.c ****     xb_out = (xa + yb - xc - yd);
 442:.//Libraries/CMSIS/DSP/Source/TransformFunctions/arm_cfft_radix4_q31.c ****     yb_out = (ya - xb - yc + xd);
 443:.//Libraries/CMSIS/DSP/Source/TransformFunctions/arm_cfft_radix4_q31.c **** 
 444:.//Libraries/CMSIS/DSP/Source/TransformFunctions/arm_cfft_radix4_q31.c ****     /* writing xb' and yb' */
 445:.//Libraries/CMSIS/DSP/Source/TransformFunctions/arm_cfft_radix4_q31.c ****     *ptr1++ = xb_out;
 446:.//Libraries/CMSIS/DSP/Source/TransformFunctions/arm_cfft_radix4_q31.c ****     *ptr1++ = yb_out;
 447:.//Libraries/CMSIS/DSP/Source/TransformFunctions/arm_cfft_radix4_q31.c **** 
 448:.//Libraries/CMSIS/DSP/Source/TransformFunctions/arm_cfft_radix4_q31.c ****     xd_out = (xa - yb - xc + yd);
 449:.//Libraries/CMSIS/DSP/Source/TransformFunctions/arm_cfft_radix4_q31.c ****     yd_out = (ya + xb - yc - xd);
 450:.//Libraries/CMSIS/DSP/Source/TransformFunctions/arm_cfft_radix4_q31.c **** 
 451:.//Libraries/CMSIS/DSP/Source/TransformFunctions/arm_cfft_radix4_q31.c ****     /* writing xd' and yd' */
 452:.//Libraries/CMSIS/DSP/Source/TransformFunctions/arm_cfft_radix4_q31.c ****     *ptr1++ = xd_out;
 453:.//Libraries/CMSIS/DSP/Source/TransformFunctions/arm_cfft_radix4_q31.c ****     *ptr1++ = yd_out;
 454:.//Libraries/CMSIS/DSP/Source/TransformFunctions/arm_cfft_radix4_q31.c **** 
 455:.//Libraries/CMSIS/DSP/Source/TransformFunctions/arm_cfft_radix4_q31.c **** 
 456:.//Libraries/CMSIS/DSP/Source/TransformFunctions/arm_cfft_radix4_q31.c ****   } while (--j);
 791              		.loc 1 456 3 is_stmt 0 discriminator 1 view .LVU342
 792 0350 B9F10109 		subs	r9, r9, #1
 793              	.LVL86:
 407:.//Libraries/CMSIS/DSP/Source/TransformFunctions/arm_cfft_radix4_q31.c ****     ya = *ptr1++;
 794              		.loc 1 407 8 discriminator 1 view .LVU343
 795 0354 53F81CAC 		ldr	r10, [r3, #-28]
 796              	.LVL87:
 410:.//Libraries/CMSIS/DSP/Source/TransformFunctions/arm_cfft_radix4_q31.c ****     yb = *ptr1++;
 797              		.loc 1 410 5 is_stmt 1 discriminator 1 view .LVU344
 414:.//Libraries/CMSIS/DSP/Source/TransformFunctions/arm_cfft_radix4_q31.c ****     yc = *ptr1++;
 798              		.loc 1 414 8 is_stmt 0 discriminator 1 view .LVU345
 799 0358 53F8108C 		ldr	r8, [r3, #-16]
 415:.//Libraries/CMSIS/DSP/Source/TransformFunctions/arm_cfft_radix4_q31.c **** 
 800              		.loc 1 415 8 discriminator 1 view .LVU346
 801 035c 53F80CEC 		ldr	lr, [r3, #-12]
 411:.//Libraries/CMSIS/DSP/Source/TransformFunctions/arm_cfft_radix4_q31.c **** 
 802              		.loc 1 411 8 discriminator 1 view .LVU347
 803 0360 53E90621 		ldrd	r2, r1, [r3, #-24]
 804              	.LVL88:
 411:.//Libraries/CMSIS/DSP/Source/TransformFunctions/arm_cfft_radix4_q31.c **** 
 805              		.loc 1 411 5 is_stmt 1 discriminator 1 view .LVU348
 414:.//Libraries/CMSIS/DSP/Source/TransformFunctions/arm_cfft_radix4_q31.c ****     yc = *ptr1++;
 806              		.loc 1 414 5 discriminator 1 view .LVU349
 415:.//Libraries/CMSIS/DSP/Source/TransformFunctions/arm_cfft_radix4_q31.c **** 
 807              		.loc 1 415 5 discriminator 1 view .LVU350
 415:.//Libraries/CMSIS/DSP/Source/TransformFunctions/arm_cfft_radix4_q31.c **** 
 808              		.loc 1 415 5 is_stmt 0 discriminator 1 view .LVU351
 809 0364 03F12003 		add	r3, r3, #32
 810              	.LVL89:
 422:.//Libraries/CMSIS/DSP/Source/TransformFunctions/arm_cfft_radix4_q31.c **** 
 811              		.loc 1 422 17 discriminator 1 view .LVU352
 812 0368 00EB020C 		add	ip, r0, r2
 434:.//Libraries/CMSIS/DSP/Source/TransformFunctions/arm_cfft_radix4_q31.c ****     yc_out = (ya - yb + yc - yd);
 813              		.loc 1 434 18 discriminator 1 view .LVU353
 814 036c A0EB0207 		sub	r7, r0, r2
 441:.//Libraries/CMSIS/DSP/Source/TransformFunctions/arm_cfft_radix4_q31.c ****     yb_out = (ya - xb - yc + xd);
 815              		.loc 1 441 18 discriminator 1 view .LVU354
 816 0370 00EB0106 		add	r6, r0, r1
 425:.//Libraries/CMSIS/DSP/Source/TransformFunctions/arm_cfft_radix4_q31.c **** 
ARM GAS  /var/folders/wl/rshn8xbx1dsfj1zgryf4g1240000gn/T//ccRY5JJx.s 			page 27


 817              		.loc 1 425 17 discriminator 1 view .LVU355
 818 0374 0AEB0105 		add	r5, r10, r1
 819              	.LVL90:
 418:.//Libraries/CMSIS/DSP/Source/TransformFunctions/arm_cfft_radix4_q31.c ****     yd = *ptr1++;
 820              		.loc 1 418 5 is_stmt 1 discriminator 1 view .LVU356
 448:.//Libraries/CMSIS/DSP/Source/TransformFunctions/arm_cfft_radix4_q31.c ****     yd_out = (ya + xb - yc - xd);
 821              		.loc 1 448 18 is_stmt 0 discriminator 1 view .LVU357
 822 0378 A0EB0100 		sub	r0, r0, r1
 823              	.LVL91:
 442:.//Libraries/CMSIS/DSP/Source/TransformFunctions/arm_cfft_radix4_q31.c **** 
 824              		.loc 1 442 18 discriminator 1 view .LVU358
 825 037c AAEB0204 		sub	r4, r10, r2
 435:.//Libraries/CMSIS/DSP/Source/TransformFunctions/arm_cfft_radix4_q31.c **** 
 826              		.loc 1 435 18 discriminator 1 view .LVU359
 827 0380 AAEB0101 		sub	r1, r10, r1
 828              	.LVL92:
 449:.//Libraries/CMSIS/DSP/Source/TransformFunctions/arm_cfft_radix4_q31.c **** 
 829              		.loc 1 449 18 discriminator 1 view .LVU360
 830 0384 9244     		add	r10, r10, r2
 831              	.LVL93:
 422:.//Libraries/CMSIS/DSP/Source/TransformFunctions/arm_cfft_radix4_q31.c **** 
 832              		.loc 1 422 22 discriminator 1 view .LVU361
 833 0386 C444     		add	ip, ip, r8
 418:.//Libraries/CMSIS/DSP/Source/TransformFunctions/arm_cfft_radix4_q31.c ****     yd = *ptr1++;
 834              		.loc 1 418 8 discriminator 1 view .LVU362
 835 0388 53F8282C 		ldr	r2, [r3, #-40]
 836              	.LVL94:
 419:.//Libraries/CMSIS/DSP/Source/TransformFunctions/arm_cfft_radix4_q31.c **** 
 837              		.loc 1 419 5 is_stmt 1 discriminator 1 view .LVU363
 434:.//Libraries/CMSIS/DSP/Source/TransformFunctions/arm_cfft_radix4_q31.c ****     yc_out = (ya - yb + yc - yd);
 838              		.loc 1 434 23 is_stmt 0 discriminator 1 view .LVU364
 839 038c 4744     		add	r7, r7, r8
 441:.//Libraries/CMSIS/DSP/Source/TransformFunctions/arm_cfft_radix4_q31.c ****     yb_out = (ya - xb - yc + xd);
 840              		.loc 1 441 23 discriminator 1 view .LVU365
 841 038e A6EB0806 		sub	r6, r6, r8
 425:.//Libraries/CMSIS/DSP/Source/TransformFunctions/arm_cfft_radix4_q31.c **** 
 842              		.loc 1 425 22 discriminator 1 view .LVU366
 843 0392 7544     		add	r5, r5, lr
 448:.//Libraries/CMSIS/DSP/Source/TransformFunctions/arm_cfft_radix4_q31.c ****     yd_out = (ya + xb - yc - xd);
 844              		.loc 1 448 23 discriminator 1 view .LVU367
 845 0394 A0EB0808 		sub	r8, r0, r8
 846              	.LVL95:
 435:.//Libraries/CMSIS/DSP/Source/TransformFunctions/arm_cfft_radix4_q31.c **** 
 847              		.loc 1 435 23 discriminator 1 view .LVU368
 848 0398 7144     		add	r1, r1, lr
 419:.//Libraries/CMSIS/DSP/Source/TransformFunctions/arm_cfft_radix4_q31.c **** 
 849              		.loc 1 419 8 discriminator 1 view .LVU369
 850 039a 53F8240C 		ldr	r0, [r3, #-36]
 851              	.LVL96:
 422:.//Libraries/CMSIS/DSP/Source/TransformFunctions/arm_cfft_radix4_q31.c **** 
 852              		.loc 1 422 5 is_stmt 1 discriminator 1 view .LVU370
 425:.//Libraries/CMSIS/DSP/Source/TransformFunctions/arm_cfft_radix4_q31.c **** 
 853              		.loc 1 425 5 discriminator 1 view .LVU371
 428:.//Libraries/CMSIS/DSP/Source/TransformFunctions/arm_cfft_radix4_q31.c **** 
 854              		.loc 1 428 5 discriminator 1 view .LVU372
 431:.//Libraries/CMSIS/DSP/Source/TransformFunctions/arm_cfft_radix4_q31.c ****     *ptr1++ = ya_out;
 855              		.loc 1 431 5 discriminator 1 view .LVU373
ARM GAS  /var/folders/wl/rshn8xbx1dsfj1zgryf4g1240000gn/T//ccRY5JJx.s 			page 28


 442:.//Libraries/CMSIS/DSP/Source/TransformFunctions/arm_cfft_radix4_q31.c **** 
 856              		.loc 1 442 23 is_stmt 0 discriminator 1 view .LVU374
 857 039e A4EB0E04 		sub	r4, r4, lr
 449:.//Libraries/CMSIS/DSP/Source/TransformFunctions/arm_cfft_radix4_q31.c **** 
 858              		.loc 1 449 23 discriminator 1 view .LVU375
 859 03a2 AAEB0E0A 		sub	r10, r10, lr
 422:.//Libraries/CMSIS/DSP/Source/TransformFunctions/arm_cfft_radix4_q31.c **** 
 860              		.loc 1 422 12 discriminator 1 view .LVU376
 861 03a6 9444     		add	ip, ip, r2
 434:.//Libraries/CMSIS/DSP/Source/TransformFunctions/arm_cfft_radix4_q31.c ****     yc_out = (ya - yb + yc - yd);
 862              		.loc 1 434 12 discriminator 1 view .LVU377
 863 03a8 A7EB0207 		sub	r7, r7, r2
 441:.//Libraries/CMSIS/DSP/Source/TransformFunctions/arm_cfft_radix4_q31.c ****     yb_out = (ya - xb - yc + xd);
 864              		.loc 1 441 12 discriminator 1 view .LVU378
 865 03ac A6EB0006 		sub	r6, r6, r0
 448:.//Libraries/CMSIS/DSP/Source/TransformFunctions/arm_cfft_radix4_q31.c ****     yd_out = (ya + xb - yc - xd);
 866              		.loc 1 448 12 discriminator 1 view .LVU379
 867 03b0 8044     		add	r8, r8, r0
 425:.//Libraries/CMSIS/DSP/Source/TransformFunctions/arm_cfft_radix4_q31.c **** 
 868              		.loc 1 425 12 discriminator 1 view .LVU380
 869 03b2 0544     		add	r5, r5, r0
 442:.//Libraries/CMSIS/DSP/Source/TransformFunctions/arm_cfft_radix4_q31.c **** 
 870              		.loc 1 442 12 discriminator 1 view .LVU381
 871 03b4 1444     		add	r4, r4, r2
 435:.//Libraries/CMSIS/DSP/Source/TransformFunctions/arm_cfft_radix4_q31.c **** 
 872              		.loc 1 435 12 discriminator 1 view .LVU382
 873 03b6 A1EB0000 		sub	r0, r1, r0
 874              	.LVL97:
 449:.//Libraries/CMSIS/DSP/Source/TransformFunctions/arm_cfft_radix4_q31.c **** 
 875              		.loc 1 449 12 discriminator 1 view .LVU383
 876 03ba AAEB0202 		sub	r2, r10, r2
 877              	.LVL98:
 431:.//Libraries/CMSIS/DSP/Source/TransformFunctions/arm_cfft_radix4_q31.c ****     *ptr1++ = ya_out;
 878              		.loc 1 431 13 discriminator 1 view .LVU384
 879 03be 43F840CC 		str	ip, [r3, #-64]
 880              	.LVL99:
 432:.//Libraries/CMSIS/DSP/Source/TransformFunctions/arm_cfft_radix4_q31.c **** 
 881              		.loc 1 432 5 is_stmt 1 discriminator 1 view .LVU385
 438:.//Libraries/CMSIS/DSP/Source/TransformFunctions/arm_cfft_radix4_q31.c ****     *ptr1++ = yc_out;
 882              		.loc 1 438 13 is_stmt 0 discriminator 1 view .LVU386
 883 03c2 43F8387C 		str	r7, [r3, #-56]
 884              	.LVL100:
 445:.//Libraries/CMSIS/DSP/Source/TransformFunctions/arm_cfft_radix4_q31.c ****     *ptr1++ = yb_out;
 885              		.loc 1 445 13 discriminator 1 view .LVU387
 886 03c6 43F8306C 		str	r6, [r3, #-48]
 887              	.LVL101:
 452:.//Libraries/CMSIS/DSP/Source/TransformFunctions/arm_cfft_radix4_q31.c ****     *ptr1++ = yd_out;
 888              		.loc 1 452 13 discriminator 1 view .LVU388
 889 03ca 43F8288C 		str	r8, [r3, #-40]
 890              	.LVL102:
 432:.//Libraries/CMSIS/DSP/Source/TransformFunctions/arm_cfft_radix4_q31.c **** 
 891              		.loc 1 432 13 discriminator 1 view .LVU389
 892 03ce 43F83C5C 		str	r5, [r3, #-60]
 893              	.LVL103:
 434:.//Libraries/CMSIS/DSP/Source/TransformFunctions/arm_cfft_radix4_q31.c ****     yc_out = (ya - yb + yc - yd);
 894              		.loc 1 434 5 is_stmt 1 discriminator 1 view .LVU390
 435:.//Libraries/CMSIS/DSP/Source/TransformFunctions/arm_cfft_radix4_q31.c **** 
ARM GAS  /var/folders/wl/rshn8xbx1dsfj1zgryf4g1240000gn/T//ccRY5JJx.s 			page 29


 895              		.loc 1 435 5 discriminator 1 view .LVU391
 438:.//Libraries/CMSIS/DSP/Source/TransformFunctions/arm_cfft_radix4_q31.c ****     *ptr1++ = yc_out;
 896              		.loc 1 438 5 discriminator 1 view .LVU392
 439:.//Libraries/CMSIS/DSP/Source/TransformFunctions/arm_cfft_radix4_q31.c **** 
 897              		.loc 1 439 5 discriminator 1 view .LVU393
 439:.//Libraries/CMSIS/DSP/Source/TransformFunctions/arm_cfft_radix4_q31.c **** 
 898              		.loc 1 439 13 is_stmt 0 discriminator 1 view .LVU394
 899 03d2 43F8340C 		str	r0, [r3, #-52]
 900              	.LVL104:
 441:.//Libraries/CMSIS/DSP/Source/TransformFunctions/arm_cfft_radix4_q31.c ****     yb_out = (ya - xb - yc + xd);
 901              		.loc 1 441 5 is_stmt 1 discriminator 1 view .LVU395
 442:.//Libraries/CMSIS/DSP/Source/TransformFunctions/arm_cfft_radix4_q31.c **** 
 902              		.loc 1 442 5 discriminator 1 view .LVU396
 445:.//Libraries/CMSIS/DSP/Source/TransformFunctions/arm_cfft_radix4_q31.c ****     *ptr1++ = yb_out;
 903              		.loc 1 445 5 discriminator 1 view .LVU397
 446:.//Libraries/CMSIS/DSP/Source/TransformFunctions/arm_cfft_radix4_q31.c **** 
 904              		.loc 1 446 5 discriminator 1 view .LVU398
 446:.//Libraries/CMSIS/DSP/Source/TransformFunctions/arm_cfft_radix4_q31.c **** 
 905              		.loc 1 446 13 is_stmt 0 discriminator 1 view .LVU399
 906 03d6 43F82C4C 		str	r4, [r3, #-44]
 448:.//Libraries/CMSIS/DSP/Source/TransformFunctions/arm_cfft_radix4_q31.c ****     yd_out = (ya + xb - yc - xd);
 907              		.loc 1 448 5 is_stmt 1 discriminator 1 view .LVU400
 908              	.LVL105:
 449:.//Libraries/CMSIS/DSP/Source/TransformFunctions/arm_cfft_radix4_q31.c **** 
 909              		.loc 1 449 5 discriminator 1 view .LVU401
 452:.//Libraries/CMSIS/DSP/Source/TransformFunctions/arm_cfft_radix4_q31.c ****     *ptr1++ = yd_out;
 910              		.loc 1 452 5 discriminator 1 view .LVU402
 453:.//Libraries/CMSIS/DSP/Source/TransformFunctions/arm_cfft_radix4_q31.c **** 
 911              		.loc 1 453 5 discriminator 1 view .LVU403
 453:.//Libraries/CMSIS/DSP/Source/TransformFunctions/arm_cfft_radix4_q31.c **** 
 912              		.loc 1 453 13 is_stmt 0 discriminator 1 view .LVU404
 913 03da 43F8242C 		str	r2, [r3, #-36]
 914              	.LVL106:
 915              		.loc 1 456 11 is_stmt 1 discriminator 1 view .LVU405
 916              		.loc 1 456 3 is_stmt 0 discriminator 1 view .LVU406
 917 03de B5D1     		bne	.L4
 457:.//Libraries/CMSIS/DSP/Source/TransformFunctions/arm_cfft_radix4_q31.c **** 
 458:.//Libraries/CMSIS/DSP/Source/TransformFunctions/arm_cfft_radix4_q31.c ****   /* output is in 11.21(q21) format for the 1024 point */
 459:.//Libraries/CMSIS/DSP/Source/TransformFunctions/arm_cfft_radix4_q31.c ****   /* output is in 9.23(q23) format for the 256 point */
 460:.//Libraries/CMSIS/DSP/Source/TransformFunctions/arm_cfft_radix4_q31.c ****   /* output is in 7.25(q25) format for the 64 point */
 461:.//Libraries/CMSIS/DSP/Source/TransformFunctions/arm_cfft_radix4_q31.c ****   /* output is in 5.27(q27) format for the 16 point */
 462:.//Libraries/CMSIS/DSP/Source/TransformFunctions/arm_cfft_radix4_q31.c **** 
 463:.//Libraries/CMSIS/DSP/Source/TransformFunctions/arm_cfft_radix4_q31.c ****   /* End of last stage process */
 464:.//Libraries/CMSIS/DSP/Source/TransformFunctions/arm_cfft_radix4_q31.c **** 
 465:.//Libraries/CMSIS/DSP/Source/TransformFunctions/arm_cfft_radix4_q31.c **** }
 918              		.loc 1 465 1 view .LVU407
 919 03e0 1FB0     		add	sp, sp, #124
 920              	.LCFI2:
 921              		.cfi_def_cfa_offset 36
 922              		@ sp needed
 923 03e2 BDE8F08F 		pop	{r4, r5, r6, r7, r8, r9, r10, fp, pc}
 924              		.loc 1 465 1 view .LVU408
 925              		.cfi_endproc
 926              	.LFE146:
 928 03e6 00BF     		.section	.text.arm_radix4_butterfly_inverse_q31,"ax",%progbits
 929              		.align	1
 930              		.p2align 2,,3
ARM GAS  /var/folders/wl/rshn8xbx1dsfj1zgryf4g1240000gn/T//ccRY5JJx.s 			page 30


 931              		.global	arm_radix4_butterfly_inverse_q31
 932              		.syntax unified
 933              		.thumb
 934              		.thumb_func
 935              		.fpu fpv5-d16
 937              	arm_radix4_butterfly_inverse_q31:
 938              	.LVL107:
 939              	.LFB147:
 466:.//Libraries/CMSIS/DSP/Source/TransformFunctions/arm_cfft_radix4_q31.c **** 
 467:.//Libraries/CMSIS/DSP/Source/TransformFunctions/arm_cfft_radix4_q31.c **** 
 468:.//Libraries/CMSIS/DSP/Source/TransformFunctions/arm_cfft_radix4_q31.c **** /**
 469:.//Libraries/CMSIS/DSP/Source/TransformFunctions/arm_cfft_radix4_q31.c ****   @brief         Core function for the Q31 CIFFT butterfly process.
 470:.//Libraries/CMSIS/DSP/Source/TransformFunctions/arm_cfft_radix4_q31.c ****   @param[in,out] pSrc             points to the in-place buffer of Q31 data type.
 471:.//Libraries/CMSIS/DSP/Source/TransformFunctions/arm_cfft_radix4_q31.c ****   @param[in]     fftLen           length of the FFT.
 472:.//Libraries/CMSIS/DSP/Source/TransformFunctions/arm_cfft_radix4_q31.c ****   @param[in]     pCoef            points to twiddle coefficient buffer.
 473:.//Libraries/CMSIS/DSP/Source/TransformFunctions/arm_cfft_radix4_q31.c ****   @param[in]     twidCoefModifier twiddle coefficient modifier that supports different size FFTs wi
 474:.//Libraries/CMSIS/DSP/Source/TransformFunctions/arm_cfft_radix4_q31.c ****   @return        none
 475:.//Libraries/CMSIS/DSP/Source/TransformFunctions/arm_cfft_radix4_q31.c ****  */
 476:.//Libraries/CMSIS/DSP/Source/TransformFunctions/arm_cfft_radix4_q31.c **** 
 477:.//Libraries/CMSIS/DSP/Source/TransformFunctions/arm_cfft_radix4_q31.c **** /*
 478:.//Libraries/CMSIS/DSP/Source/TransformFunctions/arm_cfft_radix4_q31.c ****  * Radix-4 IFFT algorithm used is :
 479:.//Libraries/CMSIS/DSP/Source/TransformFunctions/arm_cfft_radix4_q31.c ****  *
 480:.//Libraries/CMSIS/DSP/Source/TransformFunctions/arm_cfft_radix4_q31.c ****  * CIFFT uses same twiddle coefficients as CFFT Function
 481:.//Libraries/CMSIS/DSP/Source/TransformFunctions/arm_cfft_radix4_q31.c ****  *  x[k] = x[n] + (j)k * x[n + fftLen/4] + (-1)k * x[n+fftLen/2] + (-j)k * x[n+3*fftLen/4]
 482:.//Libraries/CMSIS/DSP/Source/TransformFunctions/arm_cfft_radix4_q31.c ****  *
 483:.//Libraries/CMSIS/DSP/Source/TransformFunctions/arm_cfft_radix4_q31.c ****  *
 484:.//Libraries/CMSIS/DSP/Source/TransformFunctions/arm_cfft_radix4_q31.c ****  * IFFT is implemented with following changes in equations from FFT
 485:.//Libraries/CMSIS/DSP/Source/TransformFunctions/arm_cfft_radix4_q31.c ****  *
 486:.//Libraries/CMSIS/DSP/Source/TransformFunctions/arm_cfft_radix4_q31.c ****  * Input real and imaginary data:
 487:.//Libraries/CMSIS/DSP/Source/TransformFunctions/arm_cfft_radix4_q31.c ****  * x(n) = xa + j * ya
 488:.//Libraries/CMSIS/DSP/Source/TransformFunctions/arm_cfft_radix4_q31.c ****  * x(n+N/4 ) = xb + j * yb
 489:.//Libraries/CMSIS/DSP/Source/TransformFunctions/arm_cfft_radix4_q31.c ****  * x(n+N/2 ) = xc + j * yc
 490:.//Libraries/CMSIS/DSP/Source/TransformFunctions/arm_cfft_radix4_q31.c ****  * x(n+3N 4) = xd + j * yd
 491:.//Libraries/CMSIS/DSP/Source/TransformFunctions/arm_cfft_radix4_q31.c ****  *
 492:.//Libraries/CMSIS/DSP/Source/TransformFunctions/arm_cfft_radix4_q31.c ****  *
 493:.//Libraries/CMSIS/DSP/Source/TransformFunctions/arm_cfft_radix4_q31.c ****  * Output real and imaginary data:
 494:.//Libraries/CMSIS/DSP/Source/TransformFunctions/arm_cfft_radix4_q31.c ****  * x(4r) = xa'+ j * ya'
 495:.//Libraries/CMSIS/DSP/Source/TransformFunctions/arm_cfft_radix4_q31.c ****  * x(4r+1) = xb'+ j * yb'
 496:.//Libraries/CMSIS/DSP/Source/TransformFunctions/arm_cfft_radix4_q31.c ****  * x(4r+2) = xc'+ j * yc'
 497:.//Libraries/CMSIS/DSP/Source/TransformFunctions/arm_cfft_radix4_q31.c ****  * x(4r+3) = xd'+ j * yd'
 498:.//Libraries/CMSIS/DSP/Source/TransformFunctions/arm_cfft_radix4_q31.c ****  *
 499:.//Libraries/CMSIS/DSP/Source/TransformFunctions/arm_cfft_radix4_q31.c ****  *
 500:.//Libraries/CMSIS/DSP/Source/TransformFunctions/arm_cfft_radix4_q31.c ****  * Twiddle factors for radix-4 IFFT:
 501:.//Libraries/CMSIS/DSP/Source/TransformFunctions/arm_cfft_radix4_q31.c ****  * Wn = co1 + j * (si1)
 502:.//Libraries/CMSIS/DSP/Source/TransformFunctions/arm_cfft_radix4_q31.c ****  * W2n = co2 + j * (si2)
 503:.//Libraries/CMSIS/DSP/Source/TransformFunctions/arm_cfft_radix4_q31.c ****  * W3n = co3 + j * (si3)
 504:.//Libraries/CMSIS/DSP/Source/TransformFunctions/arm_cfft_radix4_q31.c ****  
 505:.//Libraries/CMSIS/DSP/Source/TransformFunctions/arm_cfft_radix4_q31.c ****  * The real and imaginary output values for the radix-4 butterfly are
 506:.//Libraries/CMSIS/DSP/Source/TransformFunctions/arm_cfft_radix4_q31.c ****  * xa' = xa + xb + xc + xd
 507:.//Libraries/CMSIS/DSP/Source/TransformFunctions/arm_cfft_radix4_q31.c ****  * ya' = ya + yb + yc + yd
 508:.//Libraries/CMSIS/DSP/Source/TransformFunctions/arm_cfft_radix4_q31.c ****  * xb' = (xa-yb-xc+yd)* co1 - (ya+xb-yc-xd)* (si1)
 509:.//Libraries/CMSIS/DSP/Source/TransformFunctions/arm_cfft_radix4_q31.c ****  * yb' = (ya+xb-yc-xd)* co1 + (xa-yb-xc+yd)* (si1)
 510:.//Libraries/CMSIS/DSP/Source/TransformFunctions/arm_cfft_radix4_q31.c ****  * xc' = (xa-xb+xc-xd)* co2 - (ya-yb+yc-yd)* (si2)
 511:.//Libraries/CMSIS/DSP/Source/TransformFunctions/arm_cfft_radix4_q31.c ****  * yc' = (ya-yb+yc-yd)* co2 + (xa-xb+xc-xd)* (si2)
 512:.//Libraries/CMSIS/DSP/Source/TransformFunctions/arm_cfft_radix4_q31.c ****  * xd' = (xa+yb-xc-yd)* co3 - (ya-xb-yc+xd)* (si3)
 513:.//Libraries/CMSIS/DSP/Source/TransformFunctions/arm_cfft_radix4_q31.c ****  * yd' = (ya-xb-yc+xd)* co3 + (xa+yb-xc-yd)* (si3)
 514:.//Libraries/CMSIS/DSP/Source/TransformFunctions/arm_cfft_radix4_q31.c ****  *
ARM GAS  /var/folders/wl/rshn8xbx1dsfj1zgryf4g1240000gn/T//ccRY5JJx.s 			page 31


 515:.//Libraries/CMSIS/DSP/Source/TransformFunctions/arm_cfft_radix4_q31.c ****  */
 516:.//Libraries/CMSIS/DSP/Source/TransformFunctions/arm_cfft_radix4_q31.c **** 
 517:.//Libraries/CMSIS/DSP/Source/TransformFunctions/arm_cfft_radix4_q31.c **** void arm_radix4_butterfly_inverse_q31(
 518:.//Libraries/CMSIS/DSP/Source/TransformFunctions/arm_cfft_radix4_q31.c ****         q31_t * pSrc,
 519:.//Libraries/CMSIS/DSP/Source/TransformFunctions/arm_cfft_radix4_q31.c ****         uint32_t fftLen,
 520:.//Libraries/CMSIS/DSP/Source/TransformFunctions/arm_cfft_radix4_q31.c ****   const q31_t * pCoef,
 521:.//Libraries/CMSIS/DSP/Source/TransformFunctions/arm_cfft_radix4_q31.c ****         uint32_t twidCoefModifier)
 522:.//Libraries/CMSIS/DSP/Source/TransformFunctions/arm_cfft_radix4_q31.c **** {
 940              		.loc 1 522 1 is_stmt 1 view -0
 941              		.cfi_startproc
 942              		@ args = 0, pretend = 0, frame = 120
 943              		@ frame_needed = 0, uses_anonymous_args = 0
 523:.//Libraries/CMSIS/DSP/Source/TransformFunctions/arm_cfft_radix4_q31.c ****         uint32_t n1, n2, ia1, ia2, ia3, i0, i1, i2, i3, j, k;
 944              		.loc 1 523 9 view .LVU410
 524:.//Libraries/CMSIS/DSP/Source/TransformFunctions/arm_cfft_radix4_q31.c ****         q31_t t1, t2, r1, r2, s1, s2, co1, co2, co3, si1, si2, si3;
 945              		.loc 1 524 9 view .LVU411
 525:.//Libraries/CMSIS/DSP/Source/TransformFunctions/arm_cfft_radix4_q31.c ****         q31_t xa, xb, xc, xd;
 946              		.loc 1 525 9 view .LVU412
 526:.//Libraries/CMSIS/DSP/Source/TransformFunctions/arm_cfft_radix4_q31.c ****         q31_t ya, yb, yc, yd;
 947              		.loc 1 526 9 view .LVU413
 527:.//Libraries/CMSIS/DSP/Source/TransformFunctions/arm_cfft_radix4_q31.c ****         q31_t xa_out, xb_out, xc_out, xd_out;
 948              		.loc 1 527 9 view .LVU414
 528:.//Libraries/CMSIS/DSP/Source/TransformFunctions/arm_cfft_radix4_q31.c ****         q31_t ya_out, yb_out, yc_out, yd_out;
 949              		.loc 1 528 9 view .LVU415
 529:.//Libraries/CMSIS/DSP/Source/TransformFunctions/arm_cfft_radix4_q31.c ****         
 530:.//Libraries/CMSIS/DSP/Source/TransformFunctions/arm_cfft_radix4_q31.c ****         q31_t *ptr1;
 950              		.loc 1 530 9 view .LVU416
 531:.//Libraries/CMSIS/DSP/Source/TransformFunctions/arm_cfft_radix4_q31.c **** 
 532:.//Libraries/CMSIS/DSP/Source/TransformFunctions/arm_cfft_radix4_q31.c ****   /* input is be 1.31(q31) format for all FFT sizes */
 533:.//Libraries/CMSIS/DSP/Source/TransformFunctions/arm_cfft_radix4_q31.c ****   /* Total process is divided into three stages */
 534:.//Libraries/CMSIS/DSP/Source/TransformFunctions/arm_cfft_radix4_q31.c ****   /* process first stage, middle stages, & last stage */
 535:.//Libraries/CMSIS/DSP/Source/TransformFunctions/arm_cfft_radix4_q31.c **** 
 536:.//Libraries/CMSIS/DSP/Source/TransformFunctions/arm_cfft_radix4_q31.c ****   /* Start of first stage process */
 537:.//Libraries/CMSIS/DSP/Source/TransformFunctions/arm_cfft_radix4_q31.c **** 
 538:.//Libraries/CMSIS/DSP/Source/TransformFunctions/arm_cfft_radix4_q31.c ****   /* Initializations for the first stage */
 539:.//Libraries/CMSIS/DSP/Source/TransformFunctions/arm_cfft_radix4_q31.c ****   n2 = fftLen;
 951              		.loc 1 539 3 view .LVU417
 522:.//Libraries/CMSIS/DSP/Source/TransformFunctions/arm_cfft_radix4_q31.c ****         uint32_t n1, n2, ia1, ia2, ia3, i0, i1, i2, i3, j, k;
 952              		.loc 1 522 1 is_stmt 0 view .LVU418
 953 0000 2DE9F04F 		push	{r4, r5, r6, r7, r8, r9, r10, fp, lr}
 954              	.LCFI3:
 955              		.cfi_def_cfa_offset 36
 956              		.cfi_offset 4, -36
 957              		.cfi_offset 5, -32
 958              		.cfi_offset 6, -28
 959              		.cfi_offset 7, -24
 960              		.cfi_offset 8, -20
 961              		.cfi_offset 9, -16
 962              		.cfi_offset 10, -12
 963              		.cfi_offset 11, -8
 964              		.cfi_offset 14, -4
 965 0004 9FB0     		sub	sp, sp, #124
 966              	.LCFI4:
 967              		.cfi_def_cfa_offset 160
 522:.//Libraries/CMSIS/DSP/Source/TransformFunctions/arm_cfft_radix4_q31.c ****         uint32_t n1, n2, ia1, ia2, ia3, i0, i1, i2, i3, j, k;
 968              		.loc 1 522 1 view .LVU419
 969 0006 1C46     		mov	r4, r3
ARM GAS  /var/folders/wl/rshn8xbx1dsfj1zgryf4g1240000gn/T//ccRY5JJx.s 			page 32


 970 0008 00F1040B 		add	fp, r0, #4
 540:.//Libraries/CMSIS/DSP/Source/TransformFunctions/arm_cfft_radix4_q31.c ****   n1 = n2;
 541:.//Libraries/CMSIS/DSP/Source/TransformFunctions/arm_cfft_radix4_q31.c ****   /* n2 = fftLen/4 */
 542:.//Libraries/CMSIS/DSP/Source/TransformFunctions/arm_cfft_radix4_q31.c ****   n2 >>= 2U;
 543:.//Libraries/CMSIS/DSP/Source/TransformFunctions/arm_cfft_radix4_q31.c ****   i0 = 0U;
 971              		.loc 1 543 6 view .LVU420
 972 000c 4FF0000C 		mov	ip, #0
 522:.//Libraries/CMSIS/DSP/Source/TransformFunctions/arm_cfft_radix4_q31.c ****         uint32_t n1, n2, ia1, ia2, ia3, i0, i1, i2, i3, j, k;
 973              		.loc 1 522 1 view .LVU421
 974 0010 0E93     		str	r3, [sp, #56]
 975 0012 03EB4303 		add	r3, r3, r3, lsl #1
 976              	.LVL108:
 522:.//Libraries/CMSIS/DSP/Source/TransformFunctions/arm_cfft_radix4_q31.c ****         uint32_t n1, n2, ia1, ia2, ia3, i0, i1, i2, i3, j, k;
 977              		.loc 1 522 1 view .LVU422
 978 0016 1191     		str	r1, [sp, #68]
 979              	.LVL109:
 540:.//Libraries/CMSIS/DSP/Source/TransformFunctions/arm_cfft_radix4_q31.c ****   n1 = n2;
 980              		.loc 1 540 3 is_stmt 1 view .LVU423
 542:.//Libraries/CMSIS/DSP/Source/TransformFunctions/arm_cfft_radix4_q31.c ****   i0 = 0U;
 981              		.loc 1 542 3 view .LVU424
 542:.//Libraries/CMSIS/DSP/Source/TransformFunctions/arm_cfft_radix4_q31.c ****   i0 = 0U;
 982              		.loc 1 542 6 is_stmt 0 view .LVU425
 983 0018 8908     		lsrs	r1, r1, #2
 984              	.LVL110:
 542:.//Libraries/CMSIS/DSP/Source/TransformFunctions/arm_cfft_radix4_q31.c ****   i0 = 0U;
 985              		.loc 1 542 6 view .LVU426
 986 001a DB00     		lsls	r3, r3, #3
 522:.//Libraries/CMSIS/DSP/Source/TransformFunctions/arm_cfft_radix4_q31.c ****         uint32_t n1, n2, ia1, ia2, ia3, i0, i1, i2, i3, j, k;
 987              		.loc 1 522 1 view .LVU427
 988 001c 1C92     		str	r2, [sp, #112]
 989 001e 00EB011E 		add	lr, r0, r1, lsl #4
 990 0022 0432     		adds	r2, r2, #4
 991              	.LVL111:
 522:.//Libraries/CMSIS/DSP/Source/TransformFunctions/arm_cfft_radix4_q31.c ****         uint32_t n1, n2, ia1, ia2, ia3, i0, i1, i2, i3, j, k;
 992              		.loc 1 522 1 view .LVU428
 993 0024 1093     		str	r3, [sp, #64]
 994 0026 2301     		lsls	r3, r4, #4
 995 0028 0EF10409 		add	r9, lr, #4
 996 002c 4FEAC10A 		lsl	r10, r1, #3
 997 0030 0C93     		str	r3, [sp, #48]
 998 0032 E300     		lsls	r3, r4, #3
 542:.//Libraries/CMSIS/DSP/Source/TransformFunctions/arm_cfft_radix4_q31.c ****   i0 = 0U;
 999              		.loc 1 542 6 view .LVU429
 1000 0034 1D91     		str	r1, [sp, #116]
 1001              	.LVL112:
 1002              		.loc 1 543 3 is_stmt 1 view .LVU430
 544:.//Libraries/CMSIS/DSP/Source/TransformFunctions/arm_cfft_radix4_q31.c ****   ia1 = 0U;
 1003              		.loc 1 544 3 view .LVU431
 545:.//Libraries/CMSIS/DSP/Source/TransformFunctions/arm_cfft_radix4_q31.c **** 
 546:.//Libraries/CMSIS/DSP/Source/TransformFunctions/arm_cfft_radix4_q31.c ****   j = n2;
 1004              		.loc 1 546 3 view .LVU432
 1005              		.loc 1 546 3 is_stmt 0 view .LVU433
 1006 0036 0A93     		str	r3, [sp, #40]
 1007 0038 5B46     		mov	r3, fp
 1008 003a CB46     		mov	fp, r9
 1009 003c 1B92     		str	r2, [sp, #108]
 1010 003e 0592     		str	r2, [sp, #20]
ARM GAS  /var/folders/wl/rshn8xbx1dsfj1zgryf4g1240000gn/T//ccRY5JJx.s 			page 33


 542:.//Libraries/CMSIS/DSP/Source/TransformFunctions/arm_cfft_radix4_q31.c ****   i0 = 0U;
 1011              		.loc 1 542 6 view .LVU434
 1012 0040 0492     		str	r2, [sp, #16]
 1013 0042 0292     		str	r2, [sp, #8]
 1014 0044 0390     		str	r0, [sp, #12]
 1015 0046 0193     		str	r3, [sp, #4]
 1016              	.LVL113:
 1017              	.L22:
 547:.//Libraries/CMSIS/DSP/Source/TransformFunctions/arm_cfft_radix4_q31.c **** 
 548:.//Libraries/CMSIS/DSP/Source/TransformFunctions/arm_cfft_radix4_q31.c ****   do
 1018              		.loc 1 548 3 is_stmt 1 discriminator 1 view .LVU435
 549:.//Libraries/CMSIS/DSP/Source/TransformFunctions/arm_cfft_radix4_q31.c ****   {
 550:.//Libraries/CMSIS/DSP/Source/TransformFunctions/arm_cfft_radix4_q31.c ****     /* input is in 1.31(q31) format and provide 4 guard bits for the input */
 551:.//Libraries/CMSIS/DSP/Source/TransformFunctions/arm_cfft_radix4_q31.c **** 
 552:.//Libraries/CMSIS/DSP/Source/TransformFunctions/arm_cfft_radix4_q31.c ****     /*  index calculation for the input as, */
 553:.//Libraries/CMSIS/DSP/Source/TransformFunctions/arm_cfft_radix4_q31.c ****     /*  pSrc[i0 + 0], pSrc[i0 + fftLen/4], pSrc[i0 + fftLen/2U], pSrc[i0 + 3fftLen/4] */
 554:.//Libraries/CMSIS/DSP/Source/TransformFunctions/arm_cfft_radix4_q31.c ****     i1 = i0 + n2;
 1019              		.loc 1 554 5 discriminator 1 view .LVU436
 555:.//Libraries/CMSIS/DSP/Source/TransformFunctions/arm_cfft_radix4_q31.c ****     i2 = i1 + n2;
 1020              		.loc 1 555 5 discriminator 1 view .LVU437
 556:.//Libraries/CMSIS/DSP/Source/TransformFunctions/arm_cfft_radix4_q31.c ****     i3 = i2 + n2;
 1021              		.loc 1 556 5 discriminator 1 view .LVU438
 557:.//Libraries/CMSIS/DSP/Source/TransformFunctions/arm_cfft_radix4_q31.c **** 
 558:.//Libraries/CMSIS/DSP/Source/TransformFunctions/arm_cfft_radix4_q31.c ****     /*  Butterfly implementation */
 559:.//Libraries/CMSIS/DSP/Source/TransformFunctions/arm_cfft_radix4_q31.c ****     /* xa + xc */
 560:.//Libraries/CMSIS/DSP/Source/TransformFunctions/arm_cfft_radix4_q31.c ****     r1 = (pSrc[2U * i0] >> 4U) + (pSrc[2U * i2] >> 4U);
 1022              		.loc 1 560 5 discriminator 1 view .LVU439
 1023              		.loc 1 560 49 is_stmt 0 discriminator 1 view .LVU440
 1024 0048 5EF83C20 		ldr	r2, [lr, ip, lsl #3]
 561:.//Libraries/CMSIS/DSP/Source/TransformFunctions/arm_cfft_radix4_q31.c ****     /* xa - xc */
 562:.//Libraries/CMSIS/DSP/Source/TransformFunctions/arm_cfft_radix4_q31.c ****     r2 = (pSrc[2U * i0] >> 4U) - (pSrc[2U * i2] >> 4U);
 563:.//Libraries/CMSIS/DSP/Source/TransformFunctions/arm_cfft_radix4_q31.c **** 
 564:.//Libraries/CMSIS/DSP/Source/TransformFunctions/arm_cfft_radix4_q31.c ****     /* xb + xd */
 565:.//Libraries/CMSIS/DSP/Source/TransformFunctions/arm_cfft_radix4_q31.c ****     t1 = (pSrc[2U * i1] >> 4U) + (pSrc[2U * i3] >> 4U);
 1025              		.loc 1 565 49 discriminator 1 view .LVU441
 1026 004c 5EF80A30 		ldr	r3, [lr, r10]
 560:.//Libraries/CMSIS/DSP/Source/TransformFunctions/arm_cfft_radix4_q31.c ****     /* xa - xc */
 1027              		.loc 1 560 25 discriminator 1 view .LVU442
 1028 0050 039E     		ldr	r6, [sp, #12]
 560:.//Libraries/CMSIS/DSP/Source/TransformFunctions/arm_cfft_radix4_q31.c ****     /* xa - xc */
 1029              		.loc 1 560 49 discriminator 1 view .LVU443
 1030 0052 1211     		asrs	r2, r2, #4
 1031              		.loc 1 565 49 discriminator 1 view .LVU444
 1032 0054 1B11     		asrs	r3, r3, #4
 566:.//Libraries/CMSIS/DSP/Source/TransformFunctions/arm_cfft_radix4_q31.c **** 
 567:.//Libraries/CMSIS/DSP/Source/TransformFunctions/arm_cfft_radix4_q31.c ****     /* ya + yc */
 568:.//Libraries/CMSIS/DSP/Source/TransformFunctions/arm_cfft_radix4_q31.c ****     s1 = (pSrc[(2U * i0) + 1U] >> 4U) + (pSrc[(2U * i2) + 1U] >> 4U);
 1033              		.loc 1 568 32 discriminator 1 view .LVU445
 1034 0056 019C     		ldr	r4, [sp, #4]
 560:.//Libraries/CMSIS/DSP/Source/TransformFunctions/arm_cfft_radix4_q31.c ****     /* xa - xc */
 1035              		.loc 1 560 25 discriminator 1 view .LVU446
 1036 0058 56F83C70 		ldr	r7, [r6, ip, lsl #3]
 565:.//Libraries/CMSIS/DSP/Source/TransformFunctions/arm_cfft_radix4_q31.c **** 
 1037              		.loc 1 565 25 discriminator 1 view .LVU447
 1038 005c 56F80A10 		ldr	r1, [r6, r10]
 560:.//Libraries/CMSIS/DSP/Source/TransformFunctions/arm_cfft_radix4_q31.c ****     /* xa - xc */
 1039              		.loc 1 560 8 discriminator 1 view .LVU448
ARM GAS  /var/folders/wl/rshn8xbx1dsfj1zgryf4g1240000gn/T//ccRY5JJx.s 			page 34


 1040 0060 02EB2710 		add	r0, r2, r7, asr #4
 1041              	.LVL114:
 562:.//Libraries/CMSIS/DSP/Source/TransformFunctions/arm_cfft_radix4_q31.c **** 
 1042              		.loc 1 562 5 is_stmt 1 discriminator 1 view .LVU449
 1043              		.loc 1 568 32 is_stmt 0 discriminator 1 view .LVU450
 1044 0064 54F83C50 		ldr	r5, [r4, ip, lsl #3]
 565:.//Libraries/CMSIS/DSP/Source/TransformFunctions/arm_cfft_radix4_q31.c **** 
 1045              		.loc 1 565 8 discriminator 1 view .LVU451
 1046 0068 03EB2111 		add	r1, r3, r1, asr #4
 1047              		.loc 1 568 63 discriminator 1 view .LVU452
 1048 006c 5BF83C30 		ldr	r3, [fp, ip, lsl #3]
 562:.//Libraries/CMSIS/DSP/Source/TransformFunctions/arm_cfft_radix4_q31.c **** 
 1049              		.loc 1 562 8 discriminator 1 view .LVU453
 1050 0070 C2EB2717 		rsb	r7, r2, r7, asr #4
 1051              	.LVL115:
 565:.//Libraries/CMSIS/DSP/Source/TransformFunctions/arm_cfft_radix4_q31.c **** 
 1052              		.loc 1 565 5 is_stmt 1 discriminator 1 view .LVU454
 1053              		.loc 1 568 5 discriminator 1 view .LVU455
 569:.//Libraries/CMSIS/DSP/Source/TransformFunctions/arm_cfft_radix4_q31.c ****     /* ya - yc */
 570:.//Libraries/CMSIS/DSP/Source/TransformFunctions/arm_cfft_radix4_q31.c ****     s2 = (pSrc[(2U * i0) + 1U] >> 4U) - (pSrc[(2U * i2) + 1U] >> 4U);
 571:.//Libraries/CMSIS/DSP/Source/TransformFunctions/arm_cfft_radix4_q31.c **** 
 572:.//Libraries/CMSIS/DSP/Source/TransformFunctions/arm_cfft_radix4_q31.c ****     /* xa' = xa + xb + xc + xd */
 573:.//Libraries/CMSIS/DSP/Source/TransformFunctions/arm_cfft_radix4_q31.c ****     pSrc[2U * i0] = (r1 + t1);
 1054              		.loc 1 573 25 is_stmt 0 discriminator 1 view .LVU456
 1055 0074 4218     		adds	r2, r0, r1
 568:.//Libraries/CMSIS/DSP/Source/TransformFunctions/arm_cfft_radix4_q31.c ****     /* ya - yc */
 1056              		.loc 1 568 63 discriminator 1 view .LVU457
 1057 0076 1B11     		asrs	r3, r3, #4
 574:.//Libraries/CMSIS/DSP/Source/TransformFunctions/arm_cfft_radix4_q31.c ****     /* (xa + xc) - (xb + xd) */
 575:.//Libraries/CMSIS/DSP/Source/TransformFunctions/arm_cfft_radix4_q31.c ****     r1 = r1 - t1;
 1058              		.loc 1 575 8 discriminator 1 view .LVU458
 1059 0078 401A     		subs	r0, r0, r1
 1060              	.LVL116:
 576:.//Libraries/CMSIS/DSP/Source/TransformFunctions/arm_cfft_radix4_q31.c ****     /* yb + yd */
 577:.//Libraries/CMSIS/DSP/Source/TransformFunctions/arm_cfft_radix4_q31.c ****     t2 = (pSrc[(2U * i1) + 1U] >> 4U) + (pSrc[(2U * i3) + 1U] >> 4U);
 1061              		.loc 1 577 32 discriminator 1 view .LVU459
 1062 007a 0199     		ldr	r1, [sp, #4]
 1063              	.LVL117:
 573:.//Libraries/CMSIS/DSP/Source/TransformFunctions/arm_cfft_radix4_q31.c ****     /* (xa + xc) - (xb + xd) */
 1064              		.loc 1 573 19 discriminator 1 view .LVU460
 1065 007c 46F83C20 		str	r2, [r6, ip, lsl #3]
 1066              	.LVL118:
 568:.//Libraries/CMSIS/DSP/Source/TransformFunctions/arm_cfft_radix4_q31.c ****     /* ya - yc */
 1067              		.loc 1 568 8 discriminator 1 view .LVU461
 1068 0080 03EB2512 		add	r2, r3, r5, asr #4
 1069              	.LVL119:
 570:.//Libraries/CMSIS/DSP/Source/TransformFunctions/arm_cfft_radix4_q31.c **** 
 1070              		.loc 1 570 5 is_stmt 1 discriminator 1 view .LVU462
 573:.//Libraries/CMSIS/DSP/Source/TransformFunctions/arm_cfft_radix4_q31.c ****     /* (xa + xc) - (xb + xd) */
 1071              		.loc 1 573 5 discriminator 1 view .LVU463
 575:.//Libraries/CMSIS/DSP/Source/TransformFunctions/arm_cfft_radix4_q31.c ****     /* yb + yd */
 1072              		.loc 1 575 5 discriminator 1 view .LVU464
 1073              		.loc 1 577 5 discriminator 1 view .LVU465
 1074              		.loc 1 577 63 is_stmt 0 discriminator 1 view .LVU466
 1075 0084 5BF80A40 		ldr	r4, [fp, r10]
 570:.//Libraries/CMSIS/DSP/Source/TransformFunctions/arm_cfft_radix4_q31.c **** 
 1076              		.loc 1 570 8 discriminator 1 view .LVU467
ARM GAS  /var/folders/wl/rshn8xbx1dsfj1zgryf4g1240000gn/T//ccRY5JJx.s 			page 35


 1077 0088 C3EB2516 		rsb	r6, r3, r5, asr #4
 1078              		.loc 1 577 32 discriminator 1 view .LVU468
 1079 008c 51F80A30 		ldr	r3, [r1, r10]
 1080              		.loc 1 577 63 discriminator 1 view .LVU469
 1081 0090 2411     		asrs	r4, r4, #4
 1082 0092 0C9D     		ldr	r5, [sp, #48]
 570:.//Libraries/CMSIS/DSP/Source/TransformFunctions/arm_cfft_radix4_q31.c **** 
 1083              		.loc 1 570 8 discriminator 1 view .LVU470
 1084 0094 0696     		str	r6, [sp, #24]
 1085              	.LVL120:
 1086              		.loc 1 577 8 discriminator 1 view .LVU471
 1087 0096 04EB2314 		add	r4, r4, r3, asr #4
 1088              	.LVL121:
 578:.//Libraries/CMSIS/DSP/Source/TransformFunctions/arm_cfft_radix4_q31.c ****     /* ya' = ya + yb + yc + yd */
 579:.//Libraries/CMSIS/DSP/Source/TransformFunctions/arm_cfft_radix4_q31.c ****     pSrc[(2U * i0) + 1U] = (s1 + t2);
 1089              		.loc 1 579 5 is_stmt 1 discriminator 1 view .LVU472
 1090              		.loc 1 579 32 is_stmt 0 discriminator 1 view .LVU473
 1091 009a 1319     		adds	r3, r2, r4
 580:.//Libraries/CMSIS/DSP/Source/TransformFunctions/arm_cfft_radix4_q31.c **** 
 581:.//Libraries/CMSIS/DSP/Source/TransformFunctions/arm_cfft_radix4_q31.c ****     /* (ya + yc) - (yb + yd) */
 582:.//Libraries/CMSIS/DSP/Source/TransformFunctions/arm_cfft_radix4_q31.c ****     s1 = s1 - t2;
 1092              		.loc 1 582 8 discriminator 1 view .LVU474
 1093 009c 121B     		subs	r2, r2, r4
 1094              	.LVL122:
 579:.//Libraries/CMSIS/DSP/Source/TransformFunctions/arm_cfft_radix4_q31.c **** 
 1095              		.loc 1 579 26 discriminator 1 view .LVU475
 1096 009e 41F83C30 		str	r3, [r1, ip, lsl #3]
 1097              		.loc 1 582 5 is_stmt 1 discriminator 1 view .LVU476
 1098              	.LVL123:
 583:.//Libraries/CMSIS/DSP/Source/TransformFunctions/arm_cfft_radix4_q31.c **** 
 584:.//Libraries/CMSIS/DSP/Source/TransformFunctions/arm_cfft_radix4_q31.c ****     /* yb - yd */
 585:.//Libraries/CMSIS/DSP/Source/TransformFunctions/arm_cfft_radix4_q31.c ****     t1 = (pSrc[(2U * i1) + 1U] >> 4U) - (pSrc[(2U * i3) + 1U] >> 4U);
 1099              		.loc 1 585 5 discriminator 1 view .LVU477
 586:.//Libraries/CMSIS/DSP/Source/TransformFunctions/arm_cfft_radix4_q31.c ****     /* xb - xd */
 587:.//Libraries/CMSIS/DSP/Source/TransformFunctions/arm_cfft_radix4_q31.c ****     t2 = (pSrc[2U * i1] >> 4U) - (pSrc[2U * i3] >> 4U);
 588:.//Libraries/CMSIS/DSP/Source/TransformFunctions/arm_cfft_radix4_q31.c **** 
 589:.//Libraries/CMSIS/DSP/Source/TransformFunctions/arm_cfft_radix4_q31.c ****     /*  index calculation for the coefficients */
 590:.//Libraries/CMSIS/DSP/Source/TransformFunctions/arm_cfft_radix4_q31.c ****     ia2 = 2U * ia1;
 591:.//Libraries/CMSIS/DSP/Source/TransformFunctions/arm_cfft_radix4_q31.c ****     co2 = pCoef[ia2 * 2U];
 1100              		.loc 1 591 9 is_stmt 0 discriminator 1 view .LVU478
 1101 00a2 059B     		ldr	r3, [sp, #20]
 592:.//Libraries/CMSIS/DSP/Source/TransformFunctions/arm_cfft_radix4_q31.c ****     si2 = pCoef[(ia2 * 2U) + 1U];
 1102              		.loc 1 592 9 discriminator 1 view .LVU479
 1103 00a4 53E90141 		ldrd	r4, r1, [r3, #-4]
 1104              	.LVL124:
 1105              		.loc 1 592 9 discriminator 1 view .LVU480
 1106 00a8 2B44     		add	r3, r3, r5
 593:.//Libraries/CMSIS/DSP/Source/TransformFunctions/arm_cfft_radix4_q31.c **** 
 594:.//Libraries/CMSIS/DSP/Source/TransformFunctions/arm_cfft_radix4_q31.c ****     /* xc' = (xa-xb+xc-xd)co2 - (ya-yb+yc-yd)(si2) */
 595:.//Libraries/CMSIS/DSP/Source/TransformFunctions/arm_cfft_radix4_q31.c ****     pSrc[2U * i1] = (((int32_t) (((q63_t) r1 * co2) >> 32)) -
 1107              		.loc 1 595 46 discriminator 1 view .LVU481
 1108 00aa 80FB0456 		smull	r5, r6, r0, r4
 596:.//Libraries/CMSIS/DSP/Source/TransformFunctions/arm_cfft_radix4_q31.c ****                      ((int32_t) (((q63_t) s1 * si2) >> 32))) << 1U;
 1109              		.loc 1 596 46 discriminator 1 view .LVU482
 1110 00ae 82FB0189 		smull	r8, r9, r2, r1
 597:.//Libraries/CMSIS/DSP/Source/TransformFunctions/arm_cfft_radix4_q31.c **** 
 598:.//Libraries/CMSIS/DSP/Source/TransformFunctions/arm_cfft_radix4_q31.c ****     /* yc' = (ya-yb+yc-yd)co2 + (xa-xb+xc-xd)(si2) */
ARM GAS  /var/folders/wl/rshn8xbx1dsfj1zgryf4g1240000gn/T//ccRY5JJx.s 			page 36


 599:.//Libraries/CMSIS/DSP/Source/TransformFunctions/arm_cfft_radix4_q31.c ****     pSrc[2U * i1 + 1U] = (((int32_t) (((q63_t) s1 * co2) >> 32)) +
 600:.//Libraries/CMSIS/DSP/Source/TransformFunctions/arm_cfft_radix4_q31.c ****                           ((int32_t) (((q63_t) r1 * si2) >> 32))) << 1U;
 1111              		.loc 1 600 51 discriminator 1 view .LVU483
 1112 00b2 80FB0101 		smull	r0, r1, r0, r1
 1113              	.LVL125:
 599:.//Libraries/CMSIS/DSP/Source/TransformFunctions/arm_cfft_radix4_q31.c ****                           ((int32_t) (((q63_t) r1 * si2) >> 32))) << 1U;
 1114              		.loc 1 599 24 discriminator 1 view .LVU484
 1115 00b6 0198     		ldr	r0, [sp, #4]
 1116 00b8 0593     		str	r3, [sp, #20]
 587:.//Libraries/CMSIS/DSP/Source/TransformFunctions/arm_cfft_radix4_q31.c **** 
 1117              		.loc 1 587 49 discriminator 1 view .LVU485
 1118 00ba 5EF80A30 		ldr	r3, [lr, r10]
 595:.//Libraries/CMSIS/DSP/Source/TransformFunctions/arm_cfft_radix4_q31.c ****                      ((int32_t) (((q63_t) s1 * si2) >> 32))) << 1U;
 1119              		.loc 1 595 46 discriminator 1 view .LVU486
 1120 00be CDE90856 		strd	r5, [sp, #32]
 595:.//Libraries/CMSIS/DSP/Source/TransformFunctions/arm_cfft_radix4_q31.c ****                      ((int32_t) (((q63_t) s1 * si2) >> 32))) << 1U;
 1121              		.loc 1 595 61 discriminator 1 view .LVU487
 1122 00c2 099E     		ldr	r6, [sp, #36]
 599:.//Libraries/CMSIS/DSP/Source/TransformFunctions/arm_cfft_radix4_q31.c ****                           ((int32_t) (((q63_t) r1 * si2) >> 32))) << 1U;
 1123              		.loc 1 599 51 discriminator 1 view .LVU488
 1124 00c4 84FB0245 		smull	r4, r5, r4, r2
 587:.//Libraries/CMSIS/DSP/Source/TransformFunctions/arm_cfft_radix4_q31.c **** 
 1125              		.loc 1 587 49 discriminator 1 view .LVU489
 1126 00c8 4FEA2318 		asr	r8, r3, #4
 585:.//Libraries/CMSIS/DSP/Source/TransformFunctions/arm_cfft_radix4_q31.c ****     /* xb - xd */
 1127              		.loc 1 585 63 discriminator 1 view .LVU490
 1128 00cc 5BF80A20 		ldr	r2, [fp, r10]
 1129              	.LVL126:
 595:.//Libraries/CMSIS/DSP/Source/TransformFunctions/arm_cfft_radix4_q31.c ****                      ((int32_t) (((q63_t) s1 * si2) >> 32))) << 1U;
 1130              		.loc 1 595 61 discriminator 1 view .LVU491
 1131 00d0 A6EB0906 		sub	r6, r6, r9
 599:.//Libraries/CMSIS/DSP/Source/TransformFunctions/arm_cfft_radix4_q31.c ****                           ((int32_t) (((q63_t) r1 * si2) >> 32))) << 1U;
 1132              		.loc 1 599 66 discriminator 1 view .LVU492
 1133 00d4 2944     		add	r1, r1, r5
 585:.//Libraries/CMSIS/DSP/Source/TransformFunctions/arm_cfft_radix4_q31.c ****     /* xb - xd */
 1134              		.loc 1 585 32 discriminator 1 view .LVU493
 1135 00d6 019B     		ldr	r3, [sp, #4]
 585:.//Libraries/CMSIS/DSP/Source/TransformFunctions/arm_cfft_radix4_q31.c ****     /* xb - xd */
 1136              		.loc 1 585 63 discriminator 1 view .LVU494
 1137 00d8 1211     		asrs	r2, r2, #4
 587:.//Libraries/CMSIS/DSP/Source/TransformFunctions/arm_cfft_radix4_q31.c **** 
 1138              		.loc 1 587 25 discriminator 1 view .LVU495
 1139 00da 039C     		ldr	r4, [sp, #12]
 596:.//Libraries/CMSIS/DSP/Source/TransformFunctions/arm_cfft_radix4_q31.c **** 
 1140              		.loc 1 596 62 discriminator 1 view .LVU496
 1141 00dc 7600     		lsls	r6, r6, #1
 1142              		.loc 1 600 67 discriminator 1 view .LVU497
 1143 00de 4900     		lsls	r1, r1, #1
 585:.//Libraries/CMSIS/DSP/Source/TransformFunctions/arm_cfft_radix4_q31.c ****     /* xb - xd */
 1144              		.loc 1 585 32 discriminator 1 view .LVU498
 1145 00e0 53F80A30 		ldr	r3, [r3, r10]
 587:.//Libraries/CMSIS/DSP/Source/TransformFunctions/arm_cfft_radix4_q31.c **** 
 1146              		.loc 1 587 25 discriminator 1 view .LVU499
 1147 00e4 54F80A50 		ldr	r5, [r4, r10]
 595:.//Libraries/CMSIS/DSP/Source/TransformFunctions/arm_cfft_radix4_q31.c ****                      ((int32_t) (((q63_t) s1 * si2) >> 32))) << 1U;
 1148              		.loc 1 595 19 discriminator 1 view .LVU500
 1149 00e8 44F80A60 		str	r6, [r4, r10]
ARM GAS  /var/folders/wl/rshn8xbx1dsfj1zgryf4g1240000gn/T//ccRY5JJx.s 			page 37


 585:.//Libraries/CMSIS/DSP/Source/TransformFunctions/arm_cfft_radix4_q31.c ****     /* xb - xd */
 1150              		.loc 1 585 8 discriminator 1 view .LVU501
 1151 00ec C2EB2313 		rsb	r3, r2, r3, asr #4
 1152              	.LVL127:
 587:.//Libraries/CMSIS/DSP/Source/TransformFunctions/arm_cfft_radix4_q31.c **** 
 1153              		.loc 1 587 5 is_stmt 1 discriminator 1 view .LVU502
 599:.//Libraries/CMSIS/DSP/Source/TransformFunctions/arm_cfft_radix4_q31.c ****                           ((int32_t) (((q63_t) r1 * si2) >> 32))) << 1U;
 1154              		.loc 1 599 24 is_stmt 0 discriminator 1 view .LVU503
 1155 00f0 40F80A10 		str	r1, [r0, r10]
 587:.//Libraries/CMSIS/DSP/Source/TransformFunctions/arm_cfft_radix4_q31.c **** 
 1156              		.loc 1 587 8 discriminator 1 view .LVU504
 1157 00f4 C8EB2512 		rsb	r2, r8, r5, asr #4
 1158              	.LVL128:
 590:.//Libraries/CMSIS/DSP/Source/TransformFunctions/arm_cfft_radix4_q31.c ****     co2 = pCoef[ia2 * 2U];
 1159              		.loc 1 590 5 is_stmt 1 discriminator 1 view .LVU505
 591:.//Libraries/CMSIS/DSP/Source/TransformFunctions/arm_cfft_radix4_q31.c ****     si2 = pCoef[(ia2 * 2U) + 1U];
 1160              		.loc 1 591 5 discriminator 1 view .LVU506
 592:.//Libraries/CMSIS/DSP/Source/TransformFunctions/arm_cfft_radix4_q31.c **** 
 1161              		.loc 1 592 5 discriminator 1 view .LVU507
 595:.//Libraries/CMSIS/DSP/Source/TransformFunctions/arm_cfft_radix4_q31.c ****                      ((int32_t) (((q63_t) s1 * si2) >> 32))) << 1U;
 1162              		.loc 1 595 5 discriminator 1 view .LVU508
 599:.//Libraries/CMSIS/DSP/Source/TransformFunctions/arm_cfft_radix4_q31.c ****                           ((int32_t) (((q63_t) r1 * si2) >> 32))) << 1U;
 1163              		.loc 1 599 5 discriminator 1 view .LVU509
 601:.//Libraries/CMSIS/DSP/Source/TransformFunctions/arm_cfft_radix4_q31.c **** 
 602:.//Libraries/CMSIS/DSP/Source/TransformFunctions/arm_cfft_radix4_q31.c ****     /* (xa - xc) - (yb - yd) */
 603:.//Libraries/CMSIS/DSP/Source/TransformFunctions/arm_cfft_radix4_q31.c ****     r1 = r2 - t1;
 1164              		.loc 1 603 5 discriminator 1 view .LVU510
 604:.//Libraries/CMSIS/DSP/Source/TransformFunctions/arm_cfft_radix4_q31.c ****     /* (xa - xc) + (yb - yd) */
 605:.//Libraries/CMSIS/DSP/Source/TransformFunctions/arm_cfft_radix4_q31.c ****     r2 = r2 + t1;
 606:.//Libraries/CMSIS/DSP/Source/TransformFunctions/arm_cfft_radix4_q31.c **** 
 607:.//Libraries/CMSIS/DSP/Source/TransformFunctions/arm_cfft_radix4_q31.c ****     /* (ya - yc) + (xb - xd) */
 608:.//Libraries/CMSIS/DSP/Source/TransformFunctions/arm_cfft_radix4_q31.c ****     s1 = s2 + t2;
 609:.//Libraries/CMSIS/DSP/Source/TransformFunctions/arm_cfft_radix4_q31.c ****     /* (ya - yc) - (xb - xd) */
 610:.//Libraries/CMSIS/DSP/Source/TransformFunctions/arm_cfft_radix4_q31.c ****     s2 = s2 - t2;
 611:.//Libraries/CMSIS/DSP/Source/TransformFunctions/arm_cfft_radix4_q31.c **** 
 612:.//Libraries/CMSIS/DSP/Source/TransformFunctions/arm_cfft_radix4_q31.c ****     co1 = pCoef[ia1 * 2U];
 1165              		.loc 1 612 9 is_stmt 0 discriminator 1 view .LVU511
 1166 00f8 0299     		ldr	r1, [sp, #8]
 603:.//Libraries/CMSIS/DSP/Source/TransformFunctions/arm_cfft_radix4_q31.c ****     /* (xa - xc) + (yb - yd) */
 1167              		.loc 1 603 8 discriminator 1 view .LVU512
 1168 00fa FD1A     		subs	r5, r7, r3
 1169              	.LVL129:
 605:.//Libraries/CMSIS/DSP/Source/TransformFunctions/arm_cfft_radix4_q31.c **** 
 1170              		.loc 1 605 5 is_stmt 1 discriminator 1 view .LVU513
 605:.//Libraries/CMSIS/DSP/Source/TransformFunctions/arm_cfft_radix4_q31.c **** 
 1171              		.loc 1 605 8 is_stmt 0 discriminator 1 view .LVU514
 1172 00fc 3B44     		add	r3, r3, r7
 1173              	.LVL130:
 1174              		.loc 1 612 9 discriminator 1 view .LVU515
 1175 00fe 51F8040C 		ldr	r0, [r1, #-4]
 613:.//Libraries/CMSIS/DSP/Source/TransformFunctions/arm_cfft_radix4_q31.c ****     si1 = pCoef[(ia1 * 2U) + 1U];
 1176              		.loc 1 613 9 discriminator 1 view .LVU516
 1177 0102 0C68     		ldr	r4, [r1]
 1178              	.LVL131:
 608:.//Libraries/CMSIS/DSP/Source/TransformFunctions/arm_cfft_radix4_q31.c ****     /* (ya - yc) - (xb - xd) */
 1179              		.loc 1 608 5 is_stmt 1 discriminator 1 view .LVU517
 608:.//Libraries/CMSIS/DSP/Source/TransformFunctions/arm_cfft_radix4_q31.c ****     /* (ya - yc) - (xb - xd) */
ARM GAS  /var/folders/wl/rshn8xbx1dsfj1zgryf4g1240000gn/T//ccRY5JJx.s 			page 38


 1180              		.loc 1 608 8 is_stmt 0 discriminator 1 view .LVU518
 1181 0104 069E     		ldr	r6, [sp, #24]
 614:.//Libraries/CMSIS/DSP/Source/TransformFunctions/arm_cfft_radix4_q31.c **** 
 615:.//Libraries/CMSIS/DSP/Source/TransformFunctions/arm_cfft_radix4_q31.c ****     /* xb' = (xa+yb-xc-yd)co1 - (ya-xb-yc+xd)(si1) */
 616:.//Libraries/CMSIS/DSP/Source/TransformFunctions/arm_cfft_radix4_q31.c ****     pSrc[2U * i2] = (((int32_t) (((q63_t) r1 * co1) >> 32)) -
 1182              		.loc 1 616 46 discriminator 1 view .LVU519
 1183 0106 85FB0089 		smull	r8, r9, r5, r0
 1184 010a 0A9F     		ldr	r7, [sp, #40]
 608:.//Libraries/CMSIS/DSP/Source/TransformFunctions/arm_cfft_radix4_q31.c ****     /* (ya - yc) - (xb - xd) */
 1185              		.loc 1 608 8 discriminator 1 view .LVU520
 1186 010c B118     		adds	r1, r6, r2
 1187              	.LVL132:
 610:.//Libraries/CMSIS/DSP/Source/TransformFunctions/arm_cfft_radix4_q31.c **** 
 1188              		.loc 1 610 5 is_stmt 1 discriminator 1 view .LVU521
 610:.//Libraries/CMSIS/DSP/Source/TransformFunctions/arm_cfft_radix4_q31.c **** 
 1189              		.loc 1 610 8 is_stmt 0 discriminator 1 view .LVU522
 1190 010e B21A     		subs	r2, r6, r2
 1191              	.LVL133:
 612:.//Libraries/CMSIS/DSP/Source/TransformFunctions/arm_cfft_radix4_q31.c ****     si1 = pCoef[(ia1 * 2U) + 1U];
 1192              		.loc 1 612 5 is_stmt 1 discriminator 1 view .LVU523
 613:.//Libraries/CMSIS/DSP/Source/TransformFunctions/arm_cfft_radix4_q31.c **** 
 1193              		.loc 1 613 5 discriminator 1 view .LVU524
 1194              		.loc 1 616 5 discriminator 1 view .LVU525
 1195 0110 029E     		ldr	r6, [sp, #8]
 1196 0112 3E44     		add	r6, r6, r7
 1197              		.loc 1 616 46 is_stmt 0 discriminator 1 view .LVU526
 1198 0114 CDE90689 		strd	r8, [sp, #24]
 1199 0118 0296     		str	r6, [sp, #8]
 617:.//Libraries/CMSIS/DSP/Source/TransformFunctions/arm_cfft_radix4_q31.c ****                      ((int32_t) (((q63_t) s1 * si1) >> 32))) << 1U;
 1200              		.loc 1 617 46 discriminator 1 view .LVU527
 1201 011a 81FB0489 		smull	r8, r9, r1, r4
 616:.//Libraries/CMSIS/DSP/Source/TransformFunctions/arm_cfft_radix4_q31.c ****                      ((int32_t) (((q63_t) s1 * si1) >> 32))) << 1U;
 1202              		.loc 1 616 61 discriminator 1 view .LVU528
 1203 011e 079E     		ldr	r6, [sp, #28]
 618:.//Libraries/CMSIS/DSP/Source/TransformFunctions/arm_cfft_radix4_q31.c **** 
 619:.//Libraries/CMSIS/DSP/Source/TransformFunctions/arm_cfft_radix4_q31.c ****     /* yb' = (ya-xb-yc+xd)co1 + (xa+yb-xc-yd)(si1) */
 620:.//Libraries/CMSIS/DSP/Source/TransformFunctions/arm_cfft_radix4_q31.c ****     pSrc[(2U * i2) + 1U] = (((int32_t) (((q63_t) s1 * co1) >> 32)) +
 621:.//Libraries/CMSIS/DSP/Source/TransformFunctions/arm_cfft_radix4_q31.c ****                             ((int32_t) (((q63_t) r1 * si1) >> 32))) << 1U;
 1204              		.loc 1 621 53 discriminator 1 view .LVU529
 1205 0120 85FB0445 		smull	r4, r5, r5, r4
 1206              	.LVL134:
 1207              		.loc 1 621 53 discriminator 1 view .LVU530
 1208 0124 109C     		ldr	r4, [sp, #64]
 616:.//Libraries/CMSIS/DSP/Source/TransformFunctions/arm_cfft_radix4_q31.c ****                      ((int32_t) (((q63_t) s1 * si1) >> 32))) << 1U;
 1209              		.loc 1 616 61 discriminator 1 view .LVU531
 1210 0126 A6EB0906 		sub	r6, r6, r9
 620:.//Libraries/CMSIS/DSP/Source/TransformFunctions/arm_cfft_radix4_q31.c ****                             ((int32_t) (((q63_t) r1 * si1) >> 32))) << 1U;
 1211              		.loc 1 620 53 discriminator 1 view .LVU532
 1212 012a 80FB0101 		smull	r0, r1, r0, r1
 1213              	.LVL135:
 617:.//Libraries/CMSIS/DSP/Source/TransformFunctions/arm_cfft_radix4_q31.c **** 
 1214              		.loc 1 617 62 discriminator 1 view .LVU533
 1215 012e 7000     		lsls	r0, r6, #1
 620:.//Libraries/CMSIS/DSP/Source/TransformFunctions/arm_cfft_radix4_q31.c ****                             ((int32_t) (((q63_t) r1 * si1) >> 32))) << 1U;
 1216              		.loc 1 620 68 discriminator 1 view .LVU534
 1217 0130 2944     		add	r1, r1, r5
 1218              	.LVL136:
ARM GAS  /var/folders/wl/rshn8xbx1dsfj1zgryf4g1240000gn/T//ccRY5JJx.s 			page 39


 616:.//Libraries/CMSIS/DSP/Source/TransformFunctions/arm_cfft_radix4_q31.c ****                      ((int32_t) (((q63_t) s1 * si1) >> 32))) << 1U;
 1219              		.loc 1 616 19 discriminator 1 view .LVU535
 1220 0132 4EF83C00 		str	r0, [lr, ip, lsl #3]
 620:.//Libraries/CMSIS/DSP/Source/TransformFunctions/arm_cfft_radix4_q31.c ****                             ((int32_t) (((q63_t) r1 * si1) >> 32))) << 1U;
 1221              		.loc 1 620 5 is_stmt 1 discriminator 1 view .LVU536
 1222              		.loc 1 621 69 is_stmt 0 discriminator 1 view .LVU537
 1223 0136 4900     		lsls	r1, r1, #1
 622:.//Libraries/CMSIS/DSP/Source/TransformFunctions/arm_cfft_radix4_q31.c **** 
 623:.//Libraries/CMSIS/DSP/Source/TransformFunctions/arm_cfft_radix4_q31.c ****     /*  index calculation for the coefficients */
 624:.//Libraries/CMSIS/DSP/Source/TransformFunctions/arm_cfft_radix4_q31.c ****     ia3 = 3U * ia1;
 625:.//Libraries/CMSIS/DSP/Source/TransformFunctions/arm_cfft_radix4_q31.c ****     co3 = pCoef[ia3 * 2U];
 1224              		.loc 1 625 9 discriminator 1 view .LVU538
 1225 0138 0498     		ldr	r0, [sp, #16]
 620:.//Libraries/CMSIS/DSP/Source/TransformFunctions/arm_cfft_radix4_q31.c ****                             ((int32_t) (((q63_t) r1 * si1) >> 32))) << 1U;
 1226              		.loc 1 620 26 discriminator 1 view .LVU539
 1227 013a 4BF83C10 		str	r1, [fp, ip, lsl #3]
 624:.//Libraries/CMSIS/DSP/Source/TransformFunctions/arm_cfft_radix4_q31.c ****     co3 = pCoef[ia3 * 2U];
 1228              		.loc 1 624 5 is_stmt 1 discriminator 1 view .LVU540
 1229              		.loc 1 625 5 discriminator 1 view .LVU541
 626:.//Libraries/CMSIS/DSP/Source/TransformFunctions/arm_cfft_radix4_q31.c ****     si3 = pCoef[(ia3 * 2U) + 1U];
 627:.//Libraries/CMSIS/DSP/Source/TransformFunctions/arm_cfft_radix4_q31.c **** 
 628:.//Libraries/CMSIS/DSP/Source/TransformFunctions/arm_cfft_radix4_q31.c ****     /* xd' = (xa-yb-xc+yd)co3 - (ya+xb-yc-xd)(si3) */
 629:.//Libraries/CMSIS/DSP/Source/TransformFunctions/arm_cfft_radix4_q31.c ****     pSrc[2U * i3] = (((int32_t) (((q63_t) r2 * co3) >> 32)) -
 630:.//Libraries/CMSIS/DSP/Source/TransformFunctions/arm_cfft_radix4_q31.c ****                      ((int32_t) (((q63_t) s2 * si3) >> 32))) << 1U;
 631:.//Libraries/CMSIS/DSP/Source/TransformFunctions/arm_cfft_radix4_q31.c **** 
 632:.//Libraries/CMSIS/DSP/Source/TransformFunctions/arm_cfft_radix4_q31.c ****     /* yd' = (ya+xb-yc-xd)co3 + (xa-yb-xc+yd)(si3) */
 633:.//Libraries/CMSIS/DSP/Source/TransformFunctions/arm_cfft_radix4_q31.c ****     pSrc[(2U * i3) + 1U] = (((int32_t) (((q63_t) s2 * co3) >> 32)) +
 634:.//Libraries/CMSIS/DSP/Source/TransformFunctions/arm_cfft_radix4_q31.c ****                             ((int32_t) (((q63_t) r2 * si3) >> 32))) << 1U;
 635:.//Libraries/CMSIS/DSP/Source/TransformFunctions/arm_cfft_radix4_q31.c **** 
 636:.//Libraries/CMSIS/DSP/Source/TransformFunctions/arm_cfft_radix4_q31.c ****     /*  Twiddle coefficients index modifier */
 637:.//Libraries/CMSIS/DSP/Source/TransformFunctions/arm_cfft_radix4_q31.c ****     ia1 = ia1 + twidCoefModifier;
 638:.//Libraries/CMSIS/DSP/Source/TransformFunctions/arm_cfft_radix4_q31.c **** 
 639:.//Libraries/CMSIS/DSP/Source/TransformFunctions/arm_cfft_radix4_q31.c ****     /*  Updating input index */
 640:.//Libraries/CMSIS/DSP/Source/TransformFunctions/arm_cfft_radix4_q31.c ****     i0 = i0 + 1U;
 1230              		.loc 1 640 8 is_stmt 0 discriminator 1 view .LVU542
 1231 013e 0CF1010C 		add	ip, ip, #1
 1232              	.LVL137:
 626:.//Libraries/CMSIS/DSP/Source/TransformFunctions/arm_cfft_radix4_q31.c ****     si3 = pCoef[(ia3 * 2U) + 1U];
 1233              		.loc 1 626 9 discriminator 1 view .LVU543
 1234 0142 50E90161 		ldrd	r6, r1, [r0, #-4]
 1235              	.LVL138:
 629:.//Libraries/CMSIS/DSP/Source/TransformFunctions/arm_cfft_radix4_q31.c ****                      ((int32_t) (((q63_t) s2 * si3) >> 32))) << 1U;
 1236              		.loc 1 629 5 is_stmt 1 discriminator 1 view .LVU544
 1237 0146 2044     		add	r0, r0, r4
 630:.//Libraries/CMSIS/DSP/Source/TransformFunctions/arm_cfft_radix4_q31.c **** 
 1238              		.loc 1 630 46 is_stmt 0 discriminator 1 view .LVU545
 1239 0148 82FB0189 		smull	r8, r9, r2, r1
 629:.//Libraries/CMSIS/DSP/Source/TransformFunctions/arm_cfft_radix4_q31.c ****                      ((int32_t) (((q63_t) s2 * si3) >> 32))) << 1U;
 1240              		.loc 1 629 46 discriminator 1 view .LVU546
 1241 014c 83FB0645 		smull	r4, r5, r3, r6
 633:.//Libraries/CMSIS/DSP/Source/TransformFunctions/arm_cfft_radix4_q31.c ****                             ((int32_t) (((q63_t) r2 * si3) >> 32))) << 1U;
 1242              		.loc 1 633 53 discriminator 1 view .LVU547
 1243 0150 86FB0267 		smull	r6, r7, r6, r2
 634:.//Libraries/CMSIS/DSP/Source/TransformFunctions/arm_cfft_radix4_q31.c **** 
 1244              		.loc 1 634 53 discriminator 1 view .LVU548
 1245 0154 83FB0123 		smull	r2, r3, r3, r1
 1246              	.LVL139:
ARM GAS  /var/folders/wl/rshn8xbx1dsfj1zgryf4g1240000gn/T//ccRY5JJx.s 			page 40


 629:.//Libraries/CMSIS/DSP/Source/TransformFunctions/arm_cfft_radix4_q31.c ****                      ((int32_t) (((q63_t) s2 * si3) >> 32))) << 1U;
 1247              		.loc 1 629 61 discriminator 1 view .LVU549
 1248 0158 4946     		mov	r1, r9
 1249              	.LVL140:
 629:.//Libraries/CMSIS/DSP/Source/TransformFunctions/arm_cfft_radix4_q31.c ****                      ((int32_t) (((q63_t) s2 * si3) >> 32))) << 1U;
 1250              		.loc 1 629 61 discriminator 1 view .LVU550
 1251 015a 0490     		str	r0, [sp, #16]
 1252              	.LVL141:
 629:.//Libraries/CMSIS/DSP/Source/TransformFunctions/arm_cfft_radix4_q31.c ****                      ((int32_t) (((q63_t) s2 * si3) >> 32))) << 1U;
 1253              		.loc 1 629 61 discriminator 1 view .LVU551
 1254 015c 691A     		subs	r1, r5, r1
 633:.//Libraries/CMSIS/DSP/Source/TransformFunctions/arm_cfft_radix4_q31.c ****                             ((int32_t) (((q63_t) r2 * si3) >> 32))) << 1U;
 1255              		.loc 1 633 68 discriminator 1 view .LVU552
 1256 015e 3B44     		add	r3, r3, r7
 1257              	.LVL142:
 630:.//Libraries/CMSIS/DSP/Source/TransformFunctions/arm_cfft_radix4_q31.c **** 
 1258              		.loc 1 630 62 discriminator 1 view .LVU553
 1259 0160 4A00     		lsls	r2, r1, #1
 634:.//Libraries/CMSIS/DSP/Source/TransformFunctions/arm_cfft_radix4_q31.c **** 
 1260              		.loc 1 634 69 discriminator 1 view .LVU554
 1261 0162 5B00     		lsls	r3, r3, #1
 629:.//Libraries/CMSIS/DSP/Source/TransformFunctions/arm_cfft_radix4_q31.c ****                      ((int32_t) (((q63_t) s2 * si3) >> 32))) << 1U;
 1262              		.loc 1 629 19 discriminator 1 view .LVU555
 1263 0164 4EF80A20 		str	r2, [lr, r10]
 633:.//Libraries/CMSIS/DSP/Source/TransformFunctions/arm_cfft_radix4_q31.c ****                             ((int32_t) (((q63_t) r2 * si3) >> 32))) << 1U;
 1264              		.loc 1 633 5 is_stmt 1 discriminator 1 view .LVU556
 633:.//Libraries/CMSIS/DSP/Source/TransformFunctions/arm_cfft_radix4_q31.c ****                             ((int32_t) (((q63_t) r2 * si3) >> 32))) << 1U;
 1265              		.loc 1 633 26 is_stmt 0 discriminator 1 view .LVU557
 1266 0168 4BF80A30 		str	r3, [fp, r10]
 637:.//Libraries/CMSIS/DSP/Source/TransformFunctions/arm_cfft_radix4_q31.c **** 
 1267              		.loc 1 637 5 is_stmt 1 discriminator 1 view .LVU558
 1268              		.loc 1 640 5 discriminator 1 view .LVU559
 1269              	.LVL143:
 641:.//Libraries/CMSIS/DSP/Source/TransformFunctions/arm_cfft_radix4_q31.c **** 
 642:.//Libraries/CMSIS/DSP/Source/TransformFunctions/arm_cfft_radix4_q31.c ****   } while (--j);
 1270              		.loc 1 642 11 discriminator 1 view .LVU560
 1271              		.loc 1 642 11 is_stmt 0 discriminator 1 view .LVU561
 1272 016c 0AF1080A 		add	r10, r10, #8
 1273              		.loc 1 642 3 discriminator 1 view .LVU562
 1274 0170 1D9B     		ldr	r3, [sp, #116]
 1275 0172 6345     		cmp	r3, ip
 1276 0174 7FF468AF 		bne	.L22
 643:.//Libraries/CMSIS/DSP/Source/TransformFunctions/arm_cfft_radix4_q31.c **** 
 644:.//Libraries/CMSIS/DSP/Source/TransformFunctions/arm_cfft_radix4_q31.c ****   /* data is in 5.27(q27) format */
 645:.//Libraries/CMSIS/DSP/Source/TransformFunctions/arm_cfft_radix4_q31.c ****   /* each stage provides two down scaling of the input */
 646:.//Libraries/CMSIS/DSP/Source/TransformFunctions/arm_cfft_radix4_q31.c **** 
 647:.//Libraries/CMSIS/DSP/Source/TransformFunctions/arm_cfft_radix4_q31.c **** 
 648:.//Libraries/CMSIS/DSP/Source/TransformFunctions/arm_cfft_radix4_q31.c ****   /* Start of Middle stages process */
 649:.//Libraries/CMSIS/DSP/Source/TransformFunctions/arm_cfft_radix4_q31.c **** 
 650:.//Libraries/CMSIS/DSP/Source/TransformFunctions/arm_cfft_radix4_q31.c ****   twidCoefModifier <<= 2U;
 1277              		.loc 1 650 20 view .LVU563
 1278 0178 0E9B     		ldr	r3, [sp, #56]
 1279 017a DDF80C80 		ldr	r8, [sp, #12]
 1280 017e 9B00     		lsls	r3, r3, #2
 1281 0180 DDF804B0 		ldr	fp, [sp, #4]
 1282              		.loc 1 650 3 is_stmt 1 view .LVU564
 1283              		.loc 1 650 20 is_stmt 0 view .LVU565
ARM GAS  /var/folders/wl/rshn8xbx1dsfj1zgryf4g1240000gn/T//ccRY5JJx.s 			page 41


 1284 0184 1A93     		str	r3, [sp, #104]
 1285              	.LVL144:
 651:.//Libraries/CMSIS/DSP/Source/TransformFunctions/arm_cfft_radix4_q31.c **** 
 652:.//Libraries/CMSIS/DSP/Source/TransformFunctions/arm_cfft_radix4_q31.c ****   /*  Calculation of second stage to excluding last stage */
 653:.//Libraries/CMSIS/DSP/Source/TransformFunctions/arm_cfft_radix4_q31.c ****   for (k = fftLen / 4U; k > 4U; k >>= 2U)
 1286              		.loc 1 653 3 is_stmt 1 view .LVU566
 1287              		.loc 1 653 25 view .LVU567
 1288              		.loc 1 653 3 is_stmt 0 view .LVU568
 1289 0186 1D9B     		ldr	r3, [sp, #116]
 1290              	.LVL145:
 1291              		.loc 1 653 3 view .LVU569
 1292 0188 042B     		cmp	r3, #4
 1293 018a 40F2E280 		bls	.L29
 1294 018e 1D9B     		ldr	r3, [sp, #116]
 1295 0190 C446     		mov	ip, r8
 1296              	.LVL146:
 1297              		.loc 1 653 3 view .LVU570
 1298 0192 DE46     		mov	lr, fp
 1299 0194 1993     		str	r3, [sp, #100]
 1300              	.LVL147:
 1301              	.L23:
 654:.//Libraries/CMSIS/DSP/Source/TransformFunctions/arm_cfft_radix4_q31.c ****   {
 655:.//Libraries/CMSIS/DSP/Source/TransformFunctions/arm_cfft_radix4_q31.c ****     /*  Initializations for the first stage */
 656:.//Libraries/CMSIS/DSP/Source/TransformFunctions/arm_cfft_radix4_q31.c ****     n1 = n2;
 1302              		.loc 1 656 5 is_stmt 1 view .LVU571
 657:.//Libraries/CMSIS/DSP/Source/TransformFunctions/arm_cfft_radix4_q31.c ****     n2 >>= 2U;
 1303              		.loc 1 657 5 view .LVU572
 1304 0196 199A     		ldr	r2, [sp, #100]
 658:.//Libraries/CMSIS/DSP/Source/TransformFunctions/arm_cfft_radix4_q31.c ****     ia1 = 0U;
 659:.//Libraries/CMSIS/DSP/Source/TransformFunctions/arm_cfft_radix4_q31.c **** 
 660:.//Libraries/CMSIS/DSP/Source/TransformFunctions/arm_cfft_radix4_q31.c ****     for (j = 0; j <= (n2 - 1U); j++)
 1305              		.loc 1 660 12 is_stmt 0 view .LVU573
 1306 0198 0020     		movs	r0, #0
 1307 019a 1346     		mov	r3, r2
 1308 019c 1492     		str	r2, [sp, #80]
 657:.//Libraries/CMSIS/DSP/Source/TransformFunctions/arm_cfft_radix4_q31.c ****     n2 >>= 2U;
 1309              		.loc 1 657 8 view .LVU574
 1310 019e 9208     		lsrs	r2, r2, #2
 1311              		.loc 1 660 12 view .LVU575
 1312 01a0 1690     		str	r0, [sp, #88]
 1313 01a2 DB00     		lsls	r3, r3, #3
 1314 01a4 0CEB021B 		add	fp, ip, r2, lsl #4
 657:.//Libraries/CMSIS/DSP/Source/TransformFunctions/arm_cfft_radix4_q31.c ****     n2 >>= 2U;
 1315              		.loc 1 657 8 view .LVU576
 1316 01a8 1992     		str	r2, [sp, #100]
 1317              	.LVL148:
 658:.//Libraries/CMSIS/DSP/Source/TransformFunctions/arm_cfft_radix4_q31.c ****     ia1 = 0U;
 1318              		.loc 1 658 5 is_stmt 1 view .LVU577
 1319              		.loc 1 660 5 view .LVU578
 1320              		.loc 1 660 17 view .LVU579
 1321 01aa D200     		lsls	r2, r2, #3
 1322              	.LVL149:
 1323              		.loc 1 660 17 is_stmt 0 view .LVU580
 1324 01ac 1593     		str	r3, [sp, #84]
 1325 01ae 0BF1040A 		add	r10, fp, #4
 1326 01b2 7346     		mov	r3, lr
 1327 01b4 DE46     		mov	lr, fp
ARM GAS  /var/folders/wl/rshn8xbx1dsfj1zgryf4g1240000gn/T//ccRY5JJx.s 			page 42


 1328 01b6 9B46     		mov	fp, r3
 658:.//Libraries/CMSIS/DSP/Source/TransformFunctions/arm_cfft_radix4_q31.c ****     ia1 = 0U;
 1329              		.loc 1 658 9 view .LVU581
 1330 01b8 CDE91720 		strd	r2, r0, [sp, #92]
 1331 01bc 6246     		mov	r2, ip
 1332 01be D446     		mov	ip, r10
 1333 01c0 9246     		mov	r10, r2
 1334              	.LVL150:
 1335              	.L26:
 661:.//Libraries/CMSIS/DSP/Source/TransformFunctions/arm_cfft_radix4_q31.c ****     {
 662:.//Libraries/CMSIS/DSP/Source/TransformFunctions/arm_cfft_radix4_q31.c ****       /*  index calculation for the coefficients */
 663:.//Libraries/CMSIS/DSP/Source/TransformFunctions/arm_cfft_radix4_q31.c ****       ia2 = ia1 + ia1;
 1336              		.loc 1 663 7 is_stmt 1 view .LVU582
 664:.//Libraries/CMSIS/DSP/Source/TransformFunctions/arm_cfft_radix4_q31.c ****       ia3 = ia2 + ia1;
 1337              		.loc 1 664 7 view .LVU583
 665:.//Libraries/CMSIS/DSP/Source/TransformFunctions/arm_cfft_radix4_q31.c ****       co1 = pCoef[(ia1 * 2U)];
 1338              		.loc 1 665 7 view .LVU584
 1339 01c2 1899     		ldr	r1, [sp, #96]
 1340              		.loc 1 665 11 is_stmt 0 view .LVU585
 1341 01c4 1C9C     		ldr	r4, [sp, #112]
 666:.//Libraries/CMSIS/DSP/Source/TransformFunctions/arm_cfft_radix4_q31.c ****       si1 = pCoef[(ia1 * 2U) + 1U];
 1342              		.loc 1 666 11 view .LVU586
 1343 01c6 1B9D     		ldr	r5, [sp, #108]
 1344 01c8 0A01     		lsls	r2, r1, #4
 665:.//Libraries/CMSIS/DSP/Source/TransformFunctions/arm_cfft_radix4_q31.c ****       co1 = pCoef[(ia1 * 2U)];
 1345              		.loc 1 665 11 view .LVU587
 1346 01ca 54F83130 		ldr	r3, [r4, r1, lsl #3]
 1347              		.loc 1 666 11 view .LVU588
 1348 01ce 55F83100 		ldr	r0, [r5, r1, lsl #3]
 665:.//Libraries/CMSIS/DSP/Source/TransformFunctions/arm_cfft_radix4_q31.c ****       co1 = pCoef[(ia1 * 2U)];
 1349              		.loc 1 665 11 view .LVU589
 1350 01d2 0493     		str	r3, [sp, #16]
 1351              	.LVL151:
 1352              		.loc 1 666 7 is_stmt 1 view .LVU590
 1353 01d4 01EB4103 		add	r3, r1, r1, lsl #1
 1354              	.LVL152:
 1355              		.loc 1 666 11 is_stmt 0 view .LVU591
 1356 01d8 0590     		str	r0, [sp, #20]
 1357              	.LVL153:
 667:.//Libraries/CMSIS/DSP/Source/TransformFunctions/arm_cfft_radix4_q31.c ****       co2 = pCoef[(ia2 * 2U)];
 1358              		.loc 1 667 7 is_stmt 1 view .LVU592
 1359              		.loc 1 667 11 is_stmt 0 view .LVU593
 1360 01da A058     		ldr	r0, [r4, r2]
 1361              	.LVL154:
 668:.//Libraries/CMSIS/DSP/Source/TransformFunctions/arm_cfft_radix4_q31.c ****       si2 = pCoef[(ia2 * 2U) + 1U];
 1362              		.loc 1 668 11 view .LVU594
 1363 01dc AA58     		ldr	r2, [r5, r2]
 667:.//Libraries/CMSIS/DSP/Source/TransformFunctions/arm_cfft_radix4_q31.c ****       co2 = pCoef[(ia2 * 2U)];
 1364              		.loc 1 667 11 view .LVU595
 1365 01de 0690     		str	r0, [sp, #24]
 1366              	.LVL155:
 1367              		.loc 1 668 7 is_stmt 1 view .LVU596
 1368              		.loc 1 668 11 is_stmt 0 view .LVU597
 1369 01e0 0892     		str	r2, [sp, #32]
 1370              	.LVL156:
 669:.//Libraries/CMSIS/DSP/Source/TransformFunctions/arm_cfft_radix4_q31.c ****       co3 = pCoef[(ia3 * 2U)];
 1371              		.loc 1 669 7 is_stmt 1 view .LVU598
ARM GAS  /var/folders/wl/rshn8xbx1dsfj1zgryf4g1240000gn/T//ccRY5JJx.s 			page 43


 1372              		.loc 1 669 11 is_stmt 0 view .LVU599
 1373 01e2 54F83320 		ldr	r2, [r4, r3, lsl #3]
 1374              	.LVL157:
 670:.//Libraries/CMSIS/DSP/Source/TransformFunctions/arm_cfft_radix4_q31.c ****       si3 = pCoef[(ia3 * 2U) + 1U];
 1375              		.loc 1 670 11 view .LVU600
 1376 01e6 55F83330 		ldr	r3, [r5, r3, lsl #3]
 671:.//Libraries/CMSIS/DSP/Source/TransformFunctions/arm_cfft_radix4_q31.c ****       /*  Twiddle coefficients index modifier */
 672:.//Libraries/CMSIS/DSP/Source/TransformFunctions/arm_cfft_radix4_q31.c ****       ia1 = ia1 + twidCoefModifier;
 1377              		.loc 1 672 11 view .LVU601
 1378 01ea 1A98     		ldr	r0, [sp, #104]
 1379              	.LVL158:
 669:.//Libraries/CMSIS/DSP/Source/TransformFunctions/arm_cfft_radix4_q31.c ****       si3 = pCoef[(ia3 * 2U) + 1U];
 1380              		.loc 1 669 11 view .LVU602
 1381 01ec 1292     		str	r2, [sp, #72]
 1382              	.LVL159:
 670:.//Libraries/CMSIS/DSP/Source/TransformFunctions/arm_cfft_radix4_q31.c ****       si3 = pCoef[(ia3 * 2U) + 1U];
 1383              		.loc 1 670 7 is_stmt 1 view .LVU603
 670:.//Libraries/CMSIS/DSP/Source/TransformFunctions/arm_cfft_radix4_q31.c ****       si3 = pCoef[(ia3 * 2U) + 1U];
 1384              		.loc 1 670 11 is_stmt 0 view .LVU604
 1385 01ee 1393     		str	r3, [sp, #76]
 1386              	.LVL160:
 1387              		.loc 1 672 7 is_stmt 1 view .LVU605
 673:.//Libraries/CMSIS/DSP/Source/TransformFunctions/arm_cfft_radix4_q31.c **** 
 674:.//Libraries/CMSIS/DSP/Source/TransformFunctions/arm_cfft_radix4_q31.c ****       for (i0 = j; i0 < fftLen; i0 += n1)
 1388              		.loc 1 674 7 view .LVU606
 1389              		.loc 1 674 20 view .LVU607
 672:.//Libraries/CMSIS/DSP/Source/TransformFunctions/arm_cfft_radix4_q31.c **** 
 1390              		.loc 1 672 11 is_stmt 0 view .LVU608
 1391 01f0 0144     		add	r1, r1, r0
 1392              		.loc 1 674 7 view .LVU609
 1393 01f2 119B     		ldr	r3, [sp, #68]
 1394              	.LVL161:
 1395              		.loc 1 674 7 view .LVU610
 1396 01f4 169A     		ldr	r2, [sp, #88]
 1397              	.LVL162:
 672:.//Libraries/CMSIS/DSP/Source/TransformFunctions/arm_cfft_radix4_q31.c **** 
 1398              		.loc 1 672 11 view .LVU611
 1399 01f6 1891     		str	r1, [sp, #96]
 1400              	.LVL163:
 1401              		.loc 1 674 7 view .LVU612
 1402 01f8 9342     		cmp	r3, r2
 1403 01fa 40F29680 		bls	.L28
 1404 01fe CDF808E0 		str	lr, [sp, #8]
 1405 0202 D946     		mov	r9, fp
 1406 0204 E646     		mov	lr, ip
 1407 0206 DDE91676 		ldrd	r7, r6, [sp, #88]
 1408 020a 0197     		str	r7, [sp, #4]
 1409              	.LVL164:
 1410              	.L25:
 675:.//Libraries/CMSIS/DSP/Source/TransformFunctions/arm_cfft_radix4_q31.c ****       {
 676:.//Libraries/CMSIS/DSP/Source/TransformFunctions/arm_cfft_radix4_q31.c ****         /*  index calculation for the input as, */
 677:.//Libraries/CMSIS/DSP/Source/TransformFunctions/arm_cfft_radix4_q31.c ****         /*  pSrc[i0 + 0], pSrc[i0 + fftLen/4], pSrc[i0 + fftLen/2U], pSrc[i0 + 3fftLen/4] */
 678:.//Libraries/CMSIS/DSP/Source/TransformFunctions/arm_cfft_radix4_q31.c ****         i1 = i0 + n2;
 1411              		.loc 1 678 9 is_stmt 1 discriminator 3 view .LVU613
 679:.//Libraries/CMSIS/DSP/Source/TransformFunctions/arm_cfft_radix4_q31.c ****         i2 = i1 + n2;
 1412              		.loc 1 679 9 discriminator 3 view .LVU614
 680:.//Libraries/CMSIS/DSP/Source/TransformFunctions/arm_cfft_radix4_q31.c ****         i3 = i2 + n2;
ARM GAS  /var/folders/wl/rshn8xbx1dsfj1zgryf4g1240000gn/T//ccRY5JJx.s 			page 44


 1413              		.loc 1 680 9 discriminator 3 view .LVU615
 681:.//Libraries/CMSIS/DSP/Source/TransformFunctions/arm_cfft_radix4_q31.c **** 
 682:.//Libraries/CMSIS/DSP/Source/TransformFunctions/arm_cfft_radix4_q31.c ****         /*  Butterfly implementation */
 683:.//Libraries/CMSIS/DSP/Source/TransformFunctions/arm_cfft_radix4_q31.c ****         /* xa + xc */
 684:.//Libraries/CMSIS/DSP/Source/TransformFunctions/arm_cfft_radix4_q31.c ****         r1 = pSrc[2U * i0] + pSrc[2U * i2];
 1414              		.loc 1 684 9 discriminator 3 view .LVU616
 1415              		.loc 1 684 18 is_stmt 0 discriminator 3 view .LVU617
 1416 020c 019F     		ldr	r7, [sp, #4]
 1417              		.loc 1 684 34 discriminator 3 view .LVU618
 1418 020e 029A     		ldr	r2, [sp, #8]
 1419              		.loc 1 684 18 discriminator 3 view .LVU619
 1420 0210 5AF83750 		ldr	r5, [r10, r7, lsl #3]
 1421              		.loc 1 684 34 discriminator 3 view .LVU620
 1422 0214 52F83700 		ldr	r0, [r2, r7, lsl #3]
 685:.//Libraries/CMSIS/DSP/Source/TransformFunctions/arm_cfft_radix4_q31.c ****         /* xa - xc */
 686:.//Libraries/CMSIS/DSP/Source/TransformFunctions/arm_cfft_radix4_q31.c ****         r2 = pSrc[2U * i0] - pSrc[2U * i2];
 687:.//Libraries/CMSIS/DSP/Source/TransformFunctions/arm_cfft_radix4_q31.c **** 
 688:.//Libraries/CMSIS/DSP/Source/TransformFunctions/arm_cfft_radix4_q31.c ****         /* ya + yc */
 689:.//Libraries/CMSIS/DSP/Source/TransformFunctions/arm_cfft_radix4_q31.c ****         s1 = pSrc[(2U * i0) + 1U] + pSrc[(2U * i2) + 1U];
 690:.//Libraries/CMSIS/DSP/Source/TransformFunctions/arm_cfft_radix4_q31.c ****         /* ya - yc */
 691:.//Libraries/CMSIS/DSP/Source/TransformFunctions/arm_cfft_radix4_q31.c ****         s2 = pSrc[(2U * i0) + 1U] - pSrc[(2U * i2) + 1U];
 692:.//Libraries/CMSIS/DSP/Source/TransformFunctions/arm_cfft_radix4_q31.c **** 
 693:.//Libraries/CMSIS/DSP/Source/TransformFunctions/arm_cfft_radix4_q31.c ****         /* xb + xd */
 694:.//Libraries/CMSIS/DSP/Source/TransformFunctions/arm_cfft_radix4_q31.c ****         t1 = pSrc[2U * i1] + pSrc[2U * i3];
 1423              		.loc 1 694 12 discriminator 3 view .LVU621
 1424 0218 5AF80610 		ldr	r1, [r10, r6]
 1425 021c 9259     		ldr	r2, [r2, r6]
 684:.//Libraries/CMSIS/DSP/Source/TransformFunctions/arm_cfft_radix4_q31.c ****         /* xa - xc */
 1426              		.loc 1 684 12 discriminator 3 view .LVU622
 1427 021e 2C18     		adds	r4, r5, r0
 1428              	.LVL165:
 686:.//Libraries/CMSIS/DSP/Source/TransformFunctions/arm_cfft_radix4_q31.c **** 
 1429              		.loc 1 686 9 is_stmt 1 discriminator 3 view .LVU623
 686:.//Libraries/CMSIS/DSP/Source/TransformFunctions/arm_cfft_radix4_q31.c **** 
 1430              		.loc 1 686 12 is_stmt 0 discriminator 3 view .LVU624
 1431 0220 A5EB000C 		sub	ip, r5, r0
 1432              	.LVL166:
 689:.//Libraries/CMSIS/DSP/Source/TransformFunctions/arm_cfft_radix4_q31.c ****         /* ya - yc */
 1433              		.loc 1 689 9 is_stmt 1 discriminator 3 view .LVU625
 689:.//Libraries/CMSIS/DSP/Source/TransformFunctions/arm_cfft_radix4_q31.c ****         /* ya - yc */
 1434              		.loc 1 689 18 is_stmt 0 discriminator 3 view .LVU626
 1435 0224 59F83730 		ldr	r3, [r9, r7, lsl #3]
 1436              		.loc 1 694 12 discriminator 3 view .LVU627
 1437 0228 0A44     		add	r2, r2, r1
 689:.//Libraries/CMSIS/DSP/Source/TransformFunctions/arm_cfft_radix4_q31.c ****         /* ya - yc */
 1438              		.loc 1 689 41 discriminator 3 view .LVU628
 1439 022a 5EF83710 		ldr	r1, [lr, r7, lsl #3]
 695:.//Libraries/CMSIS/DSP/Source/TransformFunctions/arm_cfft_radix4_q31.c **** 
 696:.//Libraries/CMSIS/DSP/Source/TransformFunctions/arm_cfft_radix4_q31.c ****         /* xa' = xa + xb + xc + xd */
 697:.//Libraries/CMSIS/DSP/Source/TransformFunctions/arm_cfft_radix4_q31.c ****         pSrc[2U * i0] = (r1 + t1) >> 2U;
 1440              		.loc 1 697 29 discriminator 3 view .LVU629
 1441 022e A518     		adds	r5, r4, r2
 698:.//Libraries/CMSIS/DSP/Source/TransformFunctions/arm_cfft_radix4_q31.c ****         /* xa + xc -(xb + xd) */
 699:.//Libraries/CMSIS/DSP/Source/TransformFunctions/arm_cfft_radix4_q31.c ****         r1 = r1 - t1;
 1442              		.loc 1 699 12 discriminator 3 view .LVU630
 1443 0230 A41A     		subs	r4, r4, r2
 1444              	.LVL167:
ARM GAS  /var/folders/wl/rshn8xbx1dsfj1zgryf4g1240000gn/T//ccRY5JJx.s 			page 45


 700:.//Libraries/CMSIS/DSP/Source/TransformFunctions/arm_cfft_radix4_q31.c ****         /* yb + yd */
 701:.//Libraries/CMSIS/DSP/Source/TransformFunctions/arm_cfft_radix4_q31.c ****         t2 = pSrc[(2U * i1) + 1U] + pSrc[(2U * i3) + 1U];
 702:.//Libraries/CMSIS/DSP/Source/TransformFunctions/arm_cfft_radix4_q31.c ****         /* ya' = ya + yb + yc + yd */
 703:.//Libraries/CMSIS/DSP/Source/TransformFunctions/arm_cfft_radix4_q31.c ****         pSrc[(2U * i0) + 1U] = (s1 + t2) >> 2U;
 704:.//Libraries/CMSIS/DSP/Source/TransformFunctions/arm_cfft_radix4_q31.c **** 
 705:.//Libraries/CMSIS/DSP/Source/TransformFunctions/arm_cfft_radix4_q31.c ****         /* (ya + yc) - (yb + yd) */
 706:.//Libraries/CMSIS/DSP/Source/TransformFunctions/arm_cfft_radix4_q31.c ****         s1 = s1 - t2;
 707:.//Libraries/CMSIS/DSP/Source/TransformFunctions/arm_cfft_radix4_q31.c **** 
 708:.//Libraries/CMSIS/DSP/Source/TransformFunctions/arm_cfft_radix4_q31.c ****         /* (yb - yd) */
 709:.//Libraries/CMSIS/DSP/Source/TransformFunctions/arm_cfft_radix4_q31.c ****         t1 = pSrc[(2U * i1) + 1U] - pSrc[(2U * i3) + 1U];
 710:.//Libraries/CMSIS/DSP/Source/TransformFunctions/arm_cfft_radix4_q31.c ****         /* (xb - xd) */
 711:.//Libraries/CMSIS/DSP/Source/TransformFunctions/arm_cfft_radix4_q31.c ****         t2 = pSrc[2U * i1] - pSrc[2U * i3];
 712:.//Libraries/CMSIS/DSP/Source/TransformFunctions/arm_cfft_radix4_q31.c **** 
 713:.//Libraries/CMSIS/DSP/Source/TransformFunctions/arm_cfft_radix4_q31.c ****         /* xc' = (xa-xb+xc-xd)co2 - (ya-yb+yc-yd)(si2) */
 714:.//Libraries/CMSIS/DSP/Source/TransformFunctions/arm_cfft_radix4_q31.c ****         pSrc[2U * i1] = (((int32_t) (((q63_t) r1 * co2) >> 32U)) -
 1445              		.loc 1 714 50 discriminator 3 view .LVU631
 1446 0232 069A     		ldr	r2, [sp, #24]
 689:.//Libraries/CMSIS/DSP/Source/TransformFunctions/arm_cfft_radix4_q31.c ****         /* ya - yc */
 1447              		.loc 1 689 12 discriminator 3 view .LVU632
 1448 0234 5818     		adds	r0, r3, r1
 1449              	.LVL168:
 691:.//Libraries/CMSIS/DSP/Source/TransformFunctions/arm_cfft_radix4_q31.c **** 
 1450              		.loc 1 691 9 is_stmt 1 discriminator 3 view .LVU633
 697:.//Libraries/CMSIS/DSP/Source/TransformFunctions/arm_cfft_radix4_q31.c ****         /* xa + xc -(xb + xd) */
 1451              		.loc 1 697 35 is_stmt 0 discriminator 3 view .LVU634
 1452 0236 AD10     		asrs	r5, r5, #2
 691:.//Libraries/CMSIS/DSP/Source/TransformFunctions/arm_cfft_radix4_q31.c **** 
 1453              		.loc 1 691 12 discriminator 3 view .LVU635
 1454 0238 5B1A     		subs	r3, r3, r1
 1455              	.LVL169:
 694:.//Libraries/CMSIS/DSP/Source/TransformFunctions/arm_cfft_radix4_q31.c **** 
 1456              		.loc 1 694 9 is_stmt 1 discriminator 3 view .LVU636
 697:.//Libraries/CMSIS/DSP/Source/TransformFunctions/arm_cfft_radix4_q31.c ****         /* xa + xc -(xb + xd) */
 1457              		.loc 1 697 9 discriminator 3 view .LVU637
 1458              		.loc 1 714 50 is_stmt 0 discriminator 3 view .LVU638
 1459 023a 84FB0278 		smull	r7, r8, r4, r2
 1460 023e CDE90A78 		strd	r7, [sp, #40]
 697:.//Libraries/CMSIS/DSP/Source/TransformFunctions/arm_cfft_radix4_q31.c ****         /* xa + xc -(xb + xd) */
 1461              		.loc 1 697 23 discriminator 3 view .LVU639
 1462 0242 019F     		ldr	r7, [sp, #4]
 1463 0244 4AF83750 		str	r5, [r10, r7, lsl #3]
 1464              	.LVL170:
 699:.//Libraries/CMSIS/DSP/Source/TransformFunctions/arm_cfft_radix4_q31.c ****         /* yb + yd */
 1465              		.loc 1 699 9 is_stmt 1 discriminator 3 view .LVU640
 701:.//Libraries/CMSIS/DSP/Source/TransformFunctions/arm_cfft_radix4_q31.c ****         /* ya' = ya + yb + yc + yd */
 1466              		.loc 1 701 9 discriminator 3 view .LVU641
 715:.//Libraries/CMSIS/DSP/Source/TransformFunctions/arm_cfft_radix4_q31.c ****                          ((int32_t) (((q63_t) s1 * si2) >> 32U))) >> 1U;
 716:.//Libraries/CMSIS/DSP/Source/TransformFunctions/arm_cfft_radix4_q31.c **** 
 717:.//Libraries/CMSIS/DSP/Source/TransformFunctions/arm_cfft_radix4_q31.c ****         /* yc' = (ya-yb+yc-yd)co2 + (xa-xb+xc-xd)(si2) */
 718:.//Libraries/CMSIS/DSP/Source/TransformFunctions/arm_cfft_radix4_q31.c ****         pSrc[(2U * i1) + 1U] = (((int32_t) (((q63_t) s1 * co2) >> 32U)) +
 719:.//Libraries/CMSIS/DSP/Source/TransformFunctions/arm_cfft_radix4_q31.c ****                                 ((int32_t) (((q63_t) r1 * si2) >> 32U))) >> 1U;
 1467              		.loc 1 719 57 is_stmt 0 discriminator 3 view .LVU642
 1468 0248 089D     		ldr	r5, [sp, #32]
 701:.//Libraries/CMSIS/DSP/Source/TransformFunctions/arm_cfft_radix4_q31.c ****         /* ya' = ya + yb + yc + yd */
 1469              		.loc 1 701 12 discriminator 3 view .LVU643
 1470 024a 59F80620 		ldr	r2, [r9, r6]
 1471 024e 5EF80610 		ldr	r1, [lr, r6]
ARM GAS  /var/folders/wl/rshn8xbx1dsfj1zgryf4g1240000gn/T//ccRY5JJx.s 			page 46


 1472              		.loc 1 719 57 discriminator 3 view .LVU644
 1473 0252 84FB0545 		smull	r4, r5, r4, r5
 1474              	.LVL171:
 1475              		.loc 1 719 57 discriminator 3 view .LVU645
 1476 0256 CDE90C45 		strd	r4, [sp, #48]
 701:.//Libraries/CMSIS/DSP/Source/TransformFunctions/arm_cfft_radix4_q31.c ****         /* ya' = ya + yb + yc + yd */
 1477              		.loc 1 701 12 discriminator 3 view .LVU646
 1478 025a 5518     		adds	r5, r2, r1
 1479              	.LVL172:
 703:.//Libraries/CMSIS/DSP/Source/TransformFunctions/arm_cfft_radix4_q31.c **** 
 1480              		.loc 1 703 9 is_stmt 1 discriminator 3 view .LVU647
 703:.//Libraries/CMSIS/DSP/Source/TransformFunctions/arm_cfft_radix4_q31.c **** 
 1481              		.loc 1 703 36 is_stmt 0 discriminator 3 view .LVU648
 1482 025c 4419     		adds	r4, r0, r5
 706:.//Libraries/CMSIS/DSP/Source/TransformFunctions/arm_cfft_radix4_q31.c **** 
 1483              		.loc 1 706 12 discriminator 3 view .LVU649
 1484 025e 451B     		subs	r5, r0, r5
 1485              	.LVL173:
 711:.//Libraries/CMSIS/DSP/Source/TransformFunctions/arm_cfft_radix4_q31.c **** 
 1486              		.loc 1 711 12 discriminator 3 view .LVU650
 1487 0260 0298     		ldr	r0, [sp, #8]
 1488              	.LVL174:
 703:.//Libraries/CMSIS/DSP/Source/TransformFunctions/arm_cfft_radix4_q31.c **** 
 1489              		.loc 1 703 42 discriminator 3 view .LVU651
 1490 0262 A410     		asrs	r4, r4, #2
 703:.//Libraries/CMSIS/DSP/Source/TransformFunctions/arm_cfft_radix4_q31.c **** 
 1491              		.loc 1 703 30 discriminator 3 view .LVU652
 1492 0264 49F83740 		str	r4, [r9, r7, lsl #3]
 706:.//Libraries/CMSIS/DSP/Source/TransformFunctions/arm_cfft_radix4_q31.c **** 
 1493              		.loc 1 706 9 is_stmt 1 discriminator 3 view .LVU653
 1494              	.LVL175:
 709:.//Libraries/CMSIS/DSP/Source/TransformFunctions/arm_cfft_radix4_q31.c ****         /* (xb - xd) */
 1495              		.loc 1 709 9 discriminator 3 view .LVU654
 709:.//Libraries/CMSIS/DSP/Source/TransformFunctions/arm_cfft_radix4_q31.c ****         /* (xb - xd) */
 1496              		.loc 1 709 12 is_stmt 0 discriminator 3 view .LVU655
 1497 0268 5EF80640 		ldr	r4, [lr, r6]
 711:.//Libraries/CMSIS/DSP/Source/TransformFunctions/arm_cfft_radix4_q31.c **** 
 1498              		.loc 1 711 12 discriminator 3 view .LVU656
 1499 026c 8059     		ldr	r0, [r0, r6]
 709:.//Libraries/CMSIS/DSP/Source/TransformFunctions/arm_cfft_radix4_q31.c ****         /* (xb - xd) */
 1500              		.loc 1 709 12 discriminator 3 view .LVU657
 1501 026e 59F80610 		ldr	r1, [r9, r6]
 1502              	.LVL176:
 711:.//Libraries/CMSIS/DSP/Source/TransformFunctions/arm_cfft_radix4_q31.c **** 
 1503              		.loc 1 711 12 discriminator 3 view .LVU658
 1504 0272 5AF80620 		ldr	r2, [r10, r6]
 709:.//Libraries/CMSIS/DSP/Source/TransformFunctions/arm_cfft_radix4_q31.c ****         /* (xb - xd) */
 1505              		.loc 1 709 12 discriminator 3 view .LVU659
 1506 0276 091B     		subs	r1, r1, r4
 1507              	.LVL177:
 711:.//Libraries/CMSIS/DSP/Source/TransformFunctions/arm_cfft_radix4_q31.c **** 
 1508              		.loc 1 711 9 is_stmt 1 discriminator 3 view .LVU660
 711:.//Libraries/CMSIS/DSP/Source/TransformFunctions/arm_cfft_radix4_q31.c **** 
 1509              		.loc 1 711 12 is_stmt 0 discriminator 3 view .LVU661
 1510 0278 121A     		subs	r2, r2, r0
 1511              	.LVL178:
 714:.//Libraries/CMSIS/DSP/Source/TransformFunctions/arm_cfft_radix4_q31.c ****                          ((int32_t) (((q63_t) s1 * si2) >> 32U))) >> 1U;
ARM GAS  /var/folders/wl/rshn8xbx1dsfj1zgryf4g1240000gn/T//ccRY5JJx.s 			page 47


 1512              		.loc 1 714 9 is_stmt 1 discriminator 3 view .LVU662
 720:.//Libraries/CMSIS/DSP/Source/TransformFunctions/arm_cfft_radix4_q31.c **** 
 721:.//Libraries/CMSIS/DSP/Source/TransformFunctions/arm_cfft_radix4_q31.c ****         /* (xa - xc) - (yb - yd) */
 722:.//Libraries/CMSIS/DSP/Source/TransformFunctions/arm_cfft_radix4_q31.c ****         r1 = r2 - t1;
 1513              		.loc 1 722 12 is_stmt 0 discriminator 3 view .LVU663
 1514 027a ACEB0108 		sub	r8, ip, r1
 723:.//Libraries/CMSIS/DSP/Source/TransformFunctions/arm_cfft_radix4_q31.c ****         /* (xa - xc) + (yb - yd) */
 724:.//Libraries/CMSIS/DSP/Source/TransformFunctions/arm_cfft_radix4_q31.c ****         r2 = r2 + t1;
 1515              		.loc 1 724 12 discriminator 3 view .LVU664
 1516 027e 6144     		add	r1, ip, r1
 1517              	.LVL179:
 725:.//Libraries/CMSIS/DSP/Source/TransformFunctions/arm_cfft_radix4_q31.c **** 
 726:.//Libraries/CMSIS/DSP/Source/TransformFunctions/arm_cfft_radix4_q31.c ****         /* (ya - yc) +  (xb - xd) */
 727:.//Libraries/CMSIS/DSP/Source/TransformFunctions/arm_cfft_radix4_q31.c ****         s1 = s2 + t2;
 1518              		.loc 1 727 12 discriminator 3 view .LVU665
 1519 0280 9C18     		adds	r4, r3, r2
 1520              	.LVL180:
 728:.//Libraries/CMSIS/DSP/Source/TransformFunctions/arm_cfft_radix4_q31.c ****         /* (ya - yc) -  (xb - xd) */
 729:.//Libraries/CMSIS/DSP/Source/TransformFunctions/arm_cfft_radix4_q31.c ****         s2 = s2 - t2;
 1521              		.loc 1 729 12 discriminator 3 view .LVU666
 1522 0282 9B1A     		subs	r3, r3, r2
 1523              	.LVL181:
 730:.//Libraries/CMSIS/DSP/Source/TransformFunctions/arm_cfft_radix4_q31.c **** 
 731:.//Libraries/CMSIS/DSP/Source/TransformFunctions/arm_cfft_radix4_q31.c ****         /* xb' = (xa+yb-xc-yd)co1 - (ya-xb-yc+xd)(si1) */
 732:.//Libraries/CMSIS/DSP/Source/TransformFunctions/arm_cfft_radix4_q31.c ****         pSrc[2U * i2] = (((int32_t) (((q63_t) r1 * co1) >> 32)) -
 733:.//Libraries/CMSIS/DSP/Source/TransformFunctions/arm_cfft_radix4_q31.c ****                          ((int32_t) (((q63_t) s1 * si1) >> 32))) >> 1U;
 1524              		.loc 1 733 50 discriminator 3 view .LVU667
 1525 0284 059A     		ldr	r2, [sp, #20]
 1526              	.LVL182:
 724:.//Libraries/CMSIS/DSP/Source/TransformFunctions/arm_cfft_radix4_q31.c **** 
 1527              		.loc 1 724 12 discriminator 3 view .LVU668
 1528 0286 0391     		str	r1, [sp, #12]
 1529              		.loc 1 733 50 discriminator 3 view .LVU669
 1530 0288 84FB02BC 		smull	fp, ip, r4, r2
 732:.//Libraries/CMSIS/DSP/Source/TransformFunctions/arm_cfft_radix4_q31.c ****                          ((int32_t) (((q63_t) s1 * si1) >> 32))) >> 1U;
 1531              		.loc 1 732 50 discriminator 3 view .LVU670
 1532 028c 0499     		ldr	r1, [sp, #16]
 732:.//Libraries/CMSIS/DSP/Source/TransformFunctions/arm_cfft_radix4_q31.c ****                          ((int32_t) (((q63_t) s1 * si1) >> 32))) >> 1U;
 1533              		.loc 1 732 65 discriminator 3 view .LVU671
 1534 028e 6746     		mov	r7, ip
 732:.//Libraries/CMSIS/DSP/Source/TransformFunctions/arm_cfft_radix4_q31.c ****                          ((int32_t) (((q63_t) s1 * si1) >> 32))) >> 1U;
 1535              		.loc 1 732 50 discriminator 3 view .LVU672
 1536 0290 88FB0101 		smull	r0, r1, r8, r1
 1537              	.LVL183:
 715:.//Libraries/CMSIS/DSP/Source/TransformFunctions/arm_cfft_radix4_q31.c **** 
 1538              		.loc 1 715 50 discriminator 3 view .LVU673
 1539 0294 0898     		ldr	r0, [sp, #32]
 732:.//Libraries/CMSIS/DSP/Source/TransformFunctions/arm_cfft_radix4_q31.c ****                          ((int32_t) (((q63_t) s1 * si1) >> 32))) >> 1U;
 1540              		.loc 1 732 65 discriminator 3 view .LVU674
 1541 0296 CA1B     		subs	r2, r1, r7
 718:.//Libraries/CMSIS/DSP/Source/TransformFunctions/arm_cfft_radix4_q31.c ****                                 ((int32_t) (((q63_t) r1 * si2) >> 32U))) >> 1U;
 1542              		.loc 1 718 57 discriminator 3 view .LVU675
 1543 0298 0699     		ldr	r1, [sp, #24]
 715:.//Libraries/CMSIS/DSP/Source/TransformFunctions/arm_cfft_radix4_q31.c **** 
 1544              		.loc 1 715 50 discriminator 3 view .LVU676
 1545 029a 85FB00BC 		smull	fp, ip, r5, r0
 718:.//Libraries/CMSIS/DSP/Source/TransformFunctions/arm_cfft_radix4_q31.c ****                                 ((int32_t) (((q63_t) r1 * si2) >> 32U))) >> 1U;
ARM GAS  /var/folders/wl/rshn8xbx1dsfj1zgryf4g1240000gn/T//ccRY5JJx.s 			page 48


 1546              		.loc 1 718 57 discriminator 3 view .LVU677
 1547 029e 85FB0101 		smull	r0, r1, r5, r1
 714:.//Libraries/CMSIS/DSP/Source/TransformFunctions/arm_cfft_radix4_q31.c ****                          ((int32_t) (((q63_t) s1 * si2) >> 32U))) >> 1U;
 1548              		.loc 1 714 66 discriminator 3 view .LVU678
 1549 02a2 0B9D     		ldr	r5, [sp, #44]
 1550              	.LVL184:
 714:.//Libraries/CMSIS/DSP/Source/TransformFunctions/arm_cfft_radix4_q31.c ****                          ((int32_t) (((q63_t) s1 * si2) >> 32U))) >> 1U;
 1551              		.loc 1 714 66 discriminator 3 view .LVU679
 1552 02a4 6746     		mov	r7, ip
 1553              		.loc 1 733 66 discriminator 3 view .LVU680
 1554 02a6 5210     		asrs	r2, r2, #1
 714:.//Libraries/CMSIS/DSP/Source/TransformFunctions/arm_cfft_radix4_q31.c ****                          ((int32_t) (((q63_t) s1 * si2) >> 32U))) >> 1U;
 1555              		.loc 1 714 66 discriminator 3 view .LVU681
 1556 02a8 ED1B     		subs	r5, r5, r7
 734:.//Libraries/CMSIS/DSP/Source/TransformFunctions/arm_cfft_radix4_q31.c **** 
 735:.//Libraries/CMSIS/DSP/Source/TransformFunctions/arm_cfft_radix4_q31.c ****         /* yb' = (ya-xb-yc+xd)co1 + (xa+yb-xc-yd)(si1) */
 736:.//Libraries/CMSIS/DSP/Source/TransformFunctions/arm_cfft_radix4_q31.c ****         pSrc[(2U * i2) + 1U] = (((int32_t) (((q63_t) s1 * co1) >> 32)) +
 737:.//Libraries/CMSIS/DSP/Source/TransformFunctions/arm_cfft_radix4_q31.c ****                                 ((int32_t) (((q63_t) r1 * si1) >> 32))) >> 1U;
 1557              		.loc 1 737 57 discriminator 3 view .LVU682
 1558 02aa 059F     		ldr	r7, [sp, #20]
 1559 02ac 88FB07BC 		smull	fp, ip, r8, r7
 718:.//Libraries/CMSIS/DSP/Source/TransformFunctions/arm_cfft_radix4_q31.c ****                                 ((int32_t) (((q63_t) r1 * si2) >> 32U))) >> 1U;
 1560              		.loc 1 718 73 discriminator 3 view .LVU683
 1561 02b0 0D9F     		ldr	r7, [sp, #52]
 714:.//Libraries/CMSIS/DSP/Source/TransformFunctions/arm_cfft_radix4_q31.c ****                          ((int32_t) (((q63_t) s1 * si2) >> 32U))) >> 1U;
 1562              		.loc 1 714 66 discriminator 3 view .LVU684
 1563 02b2 0A95     		str	r5, [sp, #40]
 718:.//Libraries/CMSIS/DSP/Source/TransformFunctions/arm_cfft_radix4_q31.c ****                                 ((int32_t) (((q63_t) r1 * si2) >> 32U))) >> 1U;
 1564              		.loc 1 718 73 discriminator 3 view .LVU685
 1565 02b4 3944     		add	r1, r1, r7
 736:.//Libraries/CMSIS/DSP/Source/TransformFunctions/arm_cfft_radix4_q31.c ****                                 ((int32_t) (((q63_t) r1 * si1) >> 32))) >> 1U;
 1566              		.loc 1 736 57 discriminator 3 view .LVU686
 1567 02b6 049D     		ldr	r5, [sp, #16]
 718:.//Libraries/CMSIS/DSP/Source/TransformFunctions/arm_cfft_radix4_q31.c ****                                 ((int32_t) (((q63_t) r1 * si2) >> 32U))) >> 1U;
 1568              		.loc 1 718 73 discriminator 3 view .LVU687
 1569 02b8 0C91     		str	r1, [sp, #48]
 738:.//Libraries/CMSIS/DSP/Source/TransformFunctions/arm_cfft_radix4_q31.c **** 
 739:.//Libraries/CMSIS/DSP/Source/TransformFunctions/arm_cfft_radix4_q31.c ****         /* xd' = (xa-yb-xc+yd)co3 - (ya+xb-yc-xd)(si3) */
 740:.//Libraries/CMSIS/DSP/Source/TransformFunctions/arm_cfft_radix4_q31.c ****         pSrc[(2U * i3)] = (((int32_t) (((q63_t) r2 * co3) >> 32)) -
 1570              		.loc 1 740 52 discriminator 3 view .LVU688
 1571 02ba 1298     		ldr	r0, [sp, #72]
 736:.//Libraries/CMSIS/DSP/Source/TransformFunctions/arm_cfft_radix4_q31.c ****                                 ((int32_t) (((q63_t) r1 * si1) >> 32))) >> 1U;
 1572              		.loc 1 736 57 discriminator 3 view .LVU689
 1573 02bc 84FB0545 		smull	r4, r5, r4, r5
 1574              		.loc 1 740 52 discriminator 3 view .LVU690
 1575 02c0 0399     		ldr	r1, [sp, #12]
 733:.//Libraries/CMSIS/DSP/Source/TransformFunctions/arm_cfft_radix4_q31.c **** 
 1576              		.loc 1 733 66 discriminator 3 view .LVU691
 1577 02c2 1092     		str	r2, [sp, #64]
 1578              		.loc 1 740 52 discriminator 3 view .LVU692
 1579 02c4 81FB0078 		smull	r7, r8, r1, r0
 1580 02c8 CDE90E78 		strd	r7, [sp, #56]
 741:.//Libraries/CMSIS/DSP/Source/TransformFunctions/arm_cfft_radix4_q31.c ****                            ((int32_t) (((q63_t) s2 * si3) >> 32))) >> 1U;
 1581              		.loc 1 741 52 discriminator 3 view .LVU693
 1582 02cc 139F     		ldr	r7, [sp, #76]
 736:.//Libraries/CMSIS/DSP/Source/TransformFunctions/arm_cfft_radix4_q31.c ****                                 ((int32_t) (((q63_t) r1 * si1) >> 32))) >> 1U;
 1583              		.loc 1 736 72 discriminator 3 view .LVU694
ARM GAS  /var/folders/wl/rshn8xbx1dsfj1zgryf4g1240000gn/T//ccRY5JJx.s 			page 49


 1584 02ce 0CEB0508 		add	r8, ip, r5
 1585              		.loc 1 741 52 discriminator 3 view .LVU695
 1586 02d2 3C46     		mov	r4, r7
 742:.//Libraries/CMSIS/DSP/Source/TransformFunctions/arm_cfft_radix4_q31.c **** 
 743:.//Libraries/CMSIS/DSP/Source/TransformFunctions/arm_cfft_radix4_q31.c ****         /* yd' = (ya+xb-yc-xd)co3 + (xa-yb-xc+yd)(si3) */
 744:.//Libraries/CMSIS/DSP/Source/TransformFunctions/arm_cfft_radix4_q31.c ****         pSrc[(2U * i3) + 1U] = (((int32_t) (((q63_t) s2 * co3) >> 32)) +
 745:.//Libraries/CMSIS/DSP/Source/TransformFunctions/arm_cfft_radix4_q31.c ****                                 ((int32_t) (((q63_t) r2 * si3) >> 32))) >> 1U;
 1587              		.loc 1 745 57 discriminator 3 view .LVU696
 1588 02d4 81FB07BC 		smull	fp, ip, r1, r7
 740:.//Libraries/CMSIS/DSP/Source/TransformFunctions/arm_cfft_radix4_q31.c ****                            ((int32_t) (((q63_t) s2 * si3) >> 32))) >> 1U;
 1589              		.loc 1 740 67 discriminator 3 view .LVU697
 1590 02d8 0F9F     		ldr	r7, [sp, #60]
 737:.//Libraries/CMSIS/DSP/Source/TransformFunctions/arm_cfft_radix4_q31.c **** 
 1591              		.loc 1 737 73 discriminator 3 view .LVU698
 1592 02da 4FEA6808 		asr	r8, r8, #1
 741:.//Libraries/CMSIS/DSP/Source/TransformFunctions/arm_cfft_radix4_q31.c **** 
 1593              		.loc 1 741 52 discriminator 3 view .LVU699
 1594 02de 83FB0445 		smull	r4, r5, r3, r4
 719:.//Libraries/CMSIS/DSP/Source/TransformFunctions/arm_cfft_radix4_q31.c **** 
 1595              		.loc 1 719 74 discriminator 3 view .LVU700
 1596 02e2 0C99     		ldr	r1, [sp, #48]
 744:.//Libraries/CMSIS/DSP/Source/TransformFunctions/arm_cfft_radix4_q31.c ****                                 ((int32_t) (((q63_t) r2 * si3) >> 32))) >> 1U;
 1597              		.loc 1 744 57 discriminator 3 view .LVU701
 1598 02e4 83FB0023 		smull	r2, r3, r3, r0
 715:.//Libraries/CMSIS/DSP/Source/TransformFunctions/arm_cfft_radix4_q31.c **** 
 1599              		.loc 1 715 67 discriminator 3 view .LVU702
 1600 02e8 0A98     		ldr	r0, [sp, #40]
 740:.//Libraries/CMSIS/DSP/Source/TransformFunctions/arm_cfft_radix4_q31.c ****                            ((int32_t) (((q63_t) s2 * si3) >> 32))) >> 1U;
 1601              		.loc 1 740 67 discriminator 3 view .LVU703
 1602 02ea 7C1B     		subs	r4, r7, r5
 732:.//Libraries/CMSIS/DSP/Source/TransformFunctions/arm_cfft_radix4_q31.c ****                          ((int32_t) (((q63_t) s1 * si1) >> 32))) >> 1U;
 1603              		.loc 1 732 23 discriminator 3 view .LVU704
 1604 02ec 109A     		ldr	r2, [sp, #64]
 715:.//Libraries/CMSIS/DSP/Source/TransformFunctions/arm_cfft_radix4_q31.c **** 
 1605              		.loc 1 715 67 discriminator 3 view .LVU705
 1606 02ee 4010     		asrs	r0, r0, #1
 744:.//Libraries/CMSIS/DSP/Source/TransformFunctions/arm_cfft_radix4_q31.c ****                                 ((int32_t) (((q63_t) r2 * si3) >> 32))) >> 1U;
 1607              		.loc 1 744 72 discriminator 3 view .LVU706
 1608 02f0 6344     		add	r3, r3, ip
 732:.//Libraries/CMSIS/DSP/Source/TransformFunctions/arm_cfft_radix4_q31.c ****                          ((int32_t) (((q63_t) s1 * si1) >> 32))) >> 1U;
 1609              		.loc 1 732 23 discriminator 3 view .LVU707
 1610 02f2 019F     		ldr	r7, [sp, #4]
 719:.//Libraries/CMSIS/DSP/Source/TransformFunctions/arm_cfft_radix4_q31.c **** 
 1611              		.loc 1 719 74 discriminator 3 view .LVU708
 1612 02f4 4910     		asrs	r1, r1, #1
 714:.//Libraries/CMSIS/DSP/Source/TransformFunctions/arm_cfft_radix4_q31.c ****                          ((int32_t) (((q63_t) s1 * si2) >> 32U))) >> 1U;
 1613              		.loc 1 714 23 discriminator 3 view .LVU709
 1614 02f6 4AF80600 		str	r0, [r10, r6]
 1615              	.LVL185:
 718:.//Libraries/CMSIS/DSP/Source/TransformFunctions/arm_cfft_radix4_q31.c ****                                 ((int32_t) (((q63_t) r1 * si2) >> 32U))) >> 1U;
 1616              		.loc 1 718 9 is_stmt 1 discriminator 3 view .LVU710
 1617              		.loc 1 745 73 is_stmt 0 discriminator 3 view .LVU711
 1618 02fa 5B10     		asrs	r3, r3, #1
 732:.//Libraries/CMSIS/DSP/Source/TransformFunctions/arm_cfft_radix4_q31.c ****                          ((int32_t) (((q63_t) s1 * si1) >> 32))) >> 1U;
 1619              		.loc 1 732 23 discriminator 3 view .LVU712
 1620 02fc 0298     		ldr	r0, [sp, #8]
 741:.//Libraries/CMSIS/DSP/Source/TransformFunctions/arm_cfft_radix4_q31.c **** 
ARM GAS  /var/folders/wl/rshn8xbx1dsfj1zgryf4g1240000gn/T//ccRY5JJx.s 			page 50


 1621              		.loc 1 741 68 discriminator 3 view .LVU713
 1622 02fe 6410     		asrs	r4, r4, #1
 718:.//Libraries/CMSIS/DSP/Source/TransformFunctions/arm_cfft_radix4_q31.c ****                                 ((int32_t) (((q63_t) r1 * si2) >> 32U))) >> 1U;
 1623              		.loc 1 718 30 discriminator 3 view .LVU714
 1624 0300 49F80610 		str	r1, [r9, r6]
 722:.//Libraries/CMSIS/DSP/Source/TransformFunctions/arm_cfft_radix4_q31.c ****         /* (xa - xc) + (yb - yd) */
 1625              		.loc 1 722 9 is_stmt 1 discriminator 3 view .LVU715
 724:.//Libraries/CMSIS/DSP/Source/TransformFunctions/arm_cfft_radix4_q31.c **** 
 1626              		.loc 1 724 9 discriminator 3 view .LVU716
 1627              	.LVL186:
 727:.//Libraries/CMSIS/DSP/Source/TransformFunctions/arm_cfft_radix4_q31.c ****         /* (ya - yc) -  (xb - xd) */
 1628              		.loc 1 727 9 discriminator 3 view .LVU717
 729:.//Libraries/CMSIS/DSP/Source/TransformFunctions/arm_cfft_radix4_q31.c **** 
 1629              		.loc 1 729 9 discriminator 3 view .LVU718
 732:.//Libraries/CMSIS/DSP/Source/TransformFunctions/arm_cfft_radix4_q31.c ****                          ((int32_t) (((q63_t) s1 * si1) >> 32))) >> 1U;
 1630              		.loc 1 732 9 discriminator 3 view .LVU719
 732:.//Libraries/CMSIS/DSP/Source/TransformFunctions/arm_cfft_radix4_q31.c ****                          ((int32_t) (((q63_t) s1 * si1) >> 32))) >> 1U;
 1631              		.loc 1 732 23 is_stmt 0 discriminator 3 view .LVU720
 1632 0304 40F83720 		str	r2, [r0, r7, lsl #3]
 736:.//Libraries/CMSIS/DSP/Source/TransformFunctions/arm_cfft_radix4_q31.c ****                                 ((int32_t) (((q63_t) r1 * si1) >> 32))) >> 1U;
 1633              		.loc 1 736 9 is_stmt 1 discriminator 3 view .LVU721
 736:.//Libraries/CMSIS/DSP/Source/TransformFunctions/arm_cfft_radix4_q31.c ****                                 ((int32_t) (((q63_t) r1 * si1) >> 32))) >> 1U;
 1634              		.loc 1 736 30 is_stmt 0 discriminator 3 view .LVU722
 1635 0308 4EF83780 		str	r8, [lr, r7, lsl #3]
 740:.//Libraries/CMSIS/DSP/Source/TransformFunctions/arm_cfft_radix4_q31.c ****                            ((int32_t) (((q63_t) s2 * si3) >> 32))) >> 1U;
 1636              		.loc 1 740 9 is_stmt 1 discriminator 3 view .LVU723
 674:.//Libraries/CMSIS/DSP/Source/TransformFunctions/arm_cfft_radix4_q31.c ****       {
 1637              		.loc 1 674 36 is_stmt 0 discriminator 3 view .LVU724
 1638 030c 149A     		ldr	r2, [sp, #80]
 740:.//Libraries/CMSIS/DSP/Source/TransformFunctions/arm_cfft_radix4_q31.c ****                            ((int32_t) (((q63_t) s2 * si3) >> 32))) >> 1U;
 1639              		.loc 1 740 25 discriminator 3 view .LVU725
 1640 030e 8451     		str	r4, [r0, r6]
 744:.//Libraries/CMSIS/DSP/Source/TransformFunctions/arm_cfft_radix4_q31.c ****                                 ((int32_t) (((q63_t) r2 * si3) >> 32))) >> 1U;
 1641              		.loc 1 744 9 is_stmt 1 discriminator 3 view .LVU726
 744:.//Libraries/CMSIS/DSP/Source/TransformFunctions/arm_cfft_radix4_q31.c ****                                 ((int32_t) (((q63_t) r2 * si3) >> 32))) >> 1U;
 1642              		.loc 1 744 30 is_stmt 0 discriminator 3 view .LVU727
 1643 0310 4EF80630 		str	r3, [lr, r6]
 674:.//Libraries/CMSIS/DSP/Source/TransformFunctions/arm_cfft_radix4_q31.c ****       {
 1644              		.loc 1 674 33 is_stmt 1 discriminator 3 view .LVU728
 674:.//Libraries/CMSIS/DSP/Source/TransformFunctions/arm_cfft_radix4_q31.c ****       {
 1645              		.loc 1 674 36 is_stmt 0 discriminator 3 view .LVU729
 1646 0314 1744     		add	r7, r7, r2
 1647              	.LVL187:
 674:.//Libraries/CMSIS/DSP/Source/TransformFunctions/arm_cfft_radix4_q31.c ****       {
 1648              		.loc 1 674 20 is_stmt 1 discriminator 3 view .LVU730
 1649 0316 159B     		ldr	r3, [sp, #84]
 674:.//Libraries/CMSIS/DSP/Source/TransformFunctions/arm_cfft_radix4_q31.c ****       {
 1650              		.loc 1 674 36 is_stmt 0 discriminator 3 view .LVU731
 1651 0318 0197     		str	r7, [sp, #4]
 1652 031a 1E44     		add	r6, r6, r3
 674:.//Libraries/CMSIS/DSP/Source/TransformFunctions/arm_cfft_radix4_q31.c ****       {
 1653              		.loc 1 674 7 discriminator 3 view .LVU732
 1654 031c 119B     		ldr	r3, [sp, #68]
 1655 031e BB42     		cmp	r3, r7
 1656 0320 3FF674AF 		bhi	.L25
 1657 0324 F446     		mov	ip, lr
 674:.//Libraries/CMSIS/DSP/Source/TransformFunctions/arm_cfft_radix4_q31.c ****       {
ARM GAS  /var/folders/wl/rshn8xbx1dsfj1zgryf4g1240000gn/T//ccRY5JJx.s 			page 51


 1658              		.loc 1 674 7 discriminator 3 view .LVU733
 1659 0326 CB46     		mov	fp, r9
 1660 0328 8646     		mov	lr, r0
 1661              	.LVL188:
 1662              	.L28:
 660:.//Libraries/CMSIS/DSP/Source/TransformFunctions/arm_cfft_radix4_q31.c ****     {
 1663              		.loc 1 660 33 is_stmt 1 view .LVU734
 1664 032a 179A     		ldr	r2, [sp, #92]
 660:.//Libraries/CMSIS/DSP/Source/TransformFunctions/arm_cfft_radix4_q31.c ****     {
 1665              		.loc 1 660 34 is_stmt 0 view .LVU735
 1666 032c 169B     		ldr	r3, [sp, #88]
 1667 032e 0832     		adds	r2, r2, #8
 1668 0330 0133     		adds	r3, r3, #1
 1669 0332 1792     		str	r2, [sp, #92]
 660:.//Libraries/CMSIS/DSP/Source/TransformFunctions/arm_cfft_radix4_q31.c ****     {
 1670              		.loc 1 660 5 view .LVU736
 1671 0334 199A     		ldr	r2, [sp, #100]
 660:.//Libraries/CMSIS/DSP/Source/TransformFunctions/arm_cfft_radix4_q31.c ****     {
 1672              		.loc 1 660 34 view .LVU737
 1673 0336 1693     		str	r3, [sp, #88]
 1674              	.LVL189:
 660:.//Libraries/CMSIS/DSP/Source/TransformFunctions/arm_cfft_radix4_q31.c ****     {
 1675              		.loc 1 660 17 is_stmt 1 view .LVU738
 660:.//Libraries/CMSIS/DSP/Source/TransformFunctions/arm_cfft_radix4_q31.c ****     {
 1676              		.loc 1 660 5 is_stmt 0 view .LVU739
 1677 0338 9A42     		cmp	r2, r3
 1678 033a 7FF442AF 		bne	.L26
 746:.//Libraries/CMSIS/DSP/Source/TransformFunctions/arm_cfft_radix4_q31.c ****       }
 747:.//Libraries/CMSIS/DSP/Source/TransformFunctions/arm_cfft_radix4_q31.c ****     }
 748:.//Libraries/CMSIS/DSP/Source/TransformFunctions/arm_cfft_radix4_q31.c ****     twidCoefModifier <<= 2U;
 1679              		.loc 1 748 22 view .LVU740
 1680 033e 1A9B     		ldr	r3, [sp, #104]
 1681              	.LVL190:
 1682              		.loc 1 748 22 view .LVU741
 1683 0340 D446     		mov	ip, r10
 1684 0342 DE46     		mov	lr, fp
 1685              		.loc 1 748 5 is_stmt 1 view .LVU742
 1686              		.loc 1 748 22 is_stmt 0 view .LVU743
 1687 0344 9B00     		lsls	r3, r3, #2
 1688 0346 1A93     		str	r3, [sp, #104]
 1689              	.LVL191:
 653:.//Libraries/CMSIS/DSP/Source/TransformFunctions/arm_cfft_radix4_q31.c ****   {
 1690              		.loc 1 653 33 is_stmt 1 view .LVU744
 653:.//Libraries/CMSIS/DSP/Source/TransformFunctions/arm_cfft_radix4_q31.c ****   {
 1691              		.loc 1 653 25 view .LVU745
 653:.//Libraries/CMSIS/DSP/Source/TransformFunctions/arm_cfft_radix4_q31.c ****   {
 1692              		.loc 1 653 3 is_stmt 0 view .LVU746
 1693 0348 199B     		ldr	r3, [sp, #100]
 1694              	.LVL192:
 653:.//Libraries/CMSIS/DSP/Source/TransformFunctions/arm_cfft_radix4_q31.c ****   {
 1695              		.loc 1 653 3 view .LVU747
 1696 034a 042B     		cmp	r3, #4
 1697 034c 3FF623AF 		bhi	.L23
 1698 0350 D046     		mov	r8, r10
 1699              	.LVL193:
 1700              	.L29:
 653:.//Libraries/CMSIS/DSP/Source/TransformFunctions/arm_cfft_radix4_q31.c ****   {
ARM GAS  /var/folders/wl/rshn8xbx1dsfj1zgryf4g1240000gn/T//ccRY5JJx.s 			page 52


 1701              		.loc 1 653 3 view .LVU748
 1702 0352 08F12003 		add	r3, r8, #32
 1703              	.LVL194:
 653:.//Libraries/CMSIS/DSP/Source/TransformFunctions/arm_cfft_radix4_q31.c ****   {
 1704              		.loc 1 653 3 view .LVU749
 1705 0356 DDF87490 		ldr	r9, [sp, #116]
 1706              	.L24:
 1707              	.LVL195:
 749:.//Libraries/CMSIS/DSP/Source/TransformFunctions/arm_cfft_radix4_q31.c ****   }
 750:.//Libraries/CMSIS/DSP/Source/TransformFunctions/arm_cfft_radix4_q31.c **** 
 751:.//Libraries/CMSIS/DSP/Source/TransformFunctions/arm_cfft_radix4_q31.c ****   /* End of Middle stages process */
 752:.//Libraries/CMSIS/DSP/Source/TransformFunctions/arm_cfft_radix4_q31.c **** 
 753:.//Libraries/CMSIS/DSP/Source/TransformFunctions/arm_cfft_radix4_q31.c ****   /* data is in 11.21(q21) format for the 1024 point as there are 3 middle stages */
 754:.//Libraries/CMSIS/DSP/Source/TransformFunctions/arm_cfft_radix4_q31.c ****   /* data is in 9.23(q23) format for the 256 point as there are 2 middle stages */
 755:.//Libraries/CMSIS/DSP/Source/TransformFunctions/arm_cfft_radix4_q31.c ****   /* data is in 7.25(q25) format for the 64 point as there are 1 middle stage */
 756:.//Libraries/CMSIS/DSP/Source/TransformFunctions/arm_cfft_radix4_q31.c ****   /* data is in 5.27(q27) format for the 16 point as there are no middle stages */
 757:.//Libraries/CMSIS/DSP/Source/TransformFunctions/arm_cfft_radix4_q31.c **** 
 758:.//Libraries/CMSIS/DSP/Source/TransformFunctions/arm_cfft_radix4_q31.c **** 
 759:.//Libraries/CMSIS/DSP/Source/TransformFunctions/arm_cfft_radix4_q31.c ****   /* Start of last stage process */
 760:.//Libraries/CMSIS/DSP/Source/TransformFunctions/arm_cfft_radix4_q31.c **** 
 761:.//Libraries/CMSIS/DSP/Source/TransformFunctions/arm_cfft_radix4_q31.c **** 
 762:.//Libraries/CMSIS/DSP/Source/TransformFunctions/arm_cfft_radix4_q31.c ****   /*  Initializations for the last stage */
 763:.//Libraries/CMSIS/DSP/Source/TransformFunctions/arm_cfft_radix4_q31.c ****   j = fftLen >> 2;
 764:.//Libraries/CMSIS/DSP/Source/TransformFunctions/arm_cfft_radix4_q31.c ****   ptr1 = &pSrc[0];
 765:.//Libraries/CMSIS/DSP/Source/TransformFunctions/arm_cfft_radix4_q31.c **** 
 766:.//Libraries/CMSIS/DSP/Source/TransformFunctions/arm_cfft_radix4_q31.c ****   /*  Calculations of last stage */
 767:.//Libraries/CMSIS/DSP/Source/TransformFunctions/arm_cfft_radix4_q31.c ****   do
 1708              		.loc 1 767 3 is_stmt 1 discriminator 1 view .LVU750
 768:.//Libraries/CMSIS/DSP/Source/TransformFunctions/arm_cfft_radix4_q31.c ****   {
 769:.//Libraries/CMSIS/DSP/Source/TransformFunctions/arm_cfft_radix4_q31.c ****     /* Read xa (real), ya(imag) input */
 770:.//Libraries/CMSIS/DSP/Source/TransformFunctions/arm_cfft_radix4_q31.c ****     xa = *ptr1++;
 1709              		.loc 1 770 5 discriminator 1 view .LVU751
 1710              		.loc 1 770 8 is_stmt 0 discriminator 1 view .LVU752
 1711 035a 53F8200C 		ldr	r0, [r3, #-32]
 1712              	.LVL196:
 771:.//Libraries/CMSIS/DSP/Source/TransformFunctions/arm_cfft_radix4_q31.c ****     ya = *ptr1++;
 1713              		.loc 1 771 5 is_stmt 1 discriminator 1 view .LVU753
 772:.//Libraries/CMSIS/DSP/Source/TransformFunctions/arm_cfft_radix4_q31.c **** 
 773:.//Libraries/CMSIS/DSP/Source/TransformFunctions/arm_cfft_radix4_q31.c ****     /* Read xb (real), yb(imag) input */
 774:.//Libraries/CMSIS/DSP/Source/TransformFunctions/arm_cfft_radix4_q31.c ****     xb = *ptr1++;
 775:.//Libraries/CMSIS/DSP/Source/TransformFunctions/arm_cfft_radix4_q31.c ****     yb = *ptr1++;
 776:.//Libraries/CMSIS/DSP/Source/TransformFunctions/arm_cfft_radix4_q31.c **** 
 777:.//Libraries/CMSIS/DSP/Source/TransformFunctions/arm_cfft_radix4_q31.c ****     /* Read xc (real), yc(imag) input */
 778:.//Libraries/CMSIS/DSP/Source/TransformFunctions/arm_cfft_radix4_q31.c ****     xc = *ptr1++;
 779:.//Libraries/CMSIS/DSP/Source/TransformFunctions/arm_cfft_radix4_q31.c ****     yc = *ptr1++;
 780:.//Libraries/CMSIS/DSP/Source/TransformFunctions/arm_cfft_radix4_q31.c **** 
 781:.//Libraries/CMSIS/DSP/Source/TransformFunctions/arm_cfft_radix4_q31.c ****     /* Read xc (real), yc(imag) input */
 782:.//Libraries/CMSIS/DSP/Source/TransformFunctions/arm_cfft_radix4_q31.c ****     xd = *ptr1++;
 783:.//Libraries/CMSIS/DSP/Source/TransformFunctions/arm_cfft_radix4_q31.c ****     yd = *ptr1++;
 784:.//Libraries/CMSIS/DSP/Source/TransformFunctions/arm_cfft_radix4_q31.c **** 
 785:.//Libraries/CMSIS/DSP/Source/TransformFunctions/arm_cfft_radix4_q31.c ****     /* xa' = xa + xb + xc + xd */
 786:.//Libraries/CMSIS/DSP/Source/TransformFunctions/arm_cfft_radix4_q31.c ****     xa_out = xa + xb + xc + xd;
 787:.//Libraries/CMSIS/DSP/Source/TransformFunctions/arm_cfft_radix4_q31.c **** 
 788:.//Libraries/CMSIS/DSP/Source/TransformFunctions/arm_cfft_radix4_q31.c ****     /* ya' = ya + yb + yc + yd */
 789:.//Libraries/CMSIS/DSP/Source/TransformFunctions/arm_cfft_radix4_q31.c ****     ya_out = ya + yb + yc + yd;
 790:.//Libraries/CMSIS/DSP/Source/TransformFunctions/arm_cfft_radix4_q31.c **** 
 791:.//Libraries/CMSIS/DSP/Source/TransformFunctions/arm_cfft_radix4_q31.c ****     /* pointer updation for writing */
ARM GAS  /var/folders/wl/rshn8xbx1dsfj1zgryf4g1240000gn/T//ccRY5JJx.s 			page 53


 792:.//Libraries/CMSIS/DSP/Source/TransformFunctions/arm_cfft_radix4_q31.c ****     ptr1 = ptr1 - 8U;
 793:.//Libraries/CMSIS/DSP/Source/TransformFunctions/arm_cfft_radix4_q31.c **** 
 794:.//Libraries/CMSIS/DSP/Source/TransformFunctions/arm_cfft_radix4_q31.c ****     /* writing xa' and ya' */
 795:.//Libraries/CMSIS/DSP/Source/TransformFunctions/arm_cfft_radix4_q31.c ****     *ptr1++ = xa_out;
 796:.//Libraries/CMSIS/DSP/Source/TransformFunctions/arm_cfft_radix4_q31.c ****     *ptr1++ = ya_out;
 797:.//Libraries/CMSIS/DSP/Source/TransformFunctions/arm_cfft_radix4_q31.c **** 
 798:.//Libraries/CMSIS/DSP/Source/TransformFunctions/arm_cfft_radix4_q31.c ****     xc_out = (xa - xb + xc - xd);
 799:.//Libraries/CMSIS/DSP/Source/TransformFunctions/arm_cfft_radix4_q31.c ****     yc_out = (ya - yb + yc - yd);
 800:.//Libraries/CMSIS/DSP/Source/TransformFunctions/arm_cfft_radix4_q31.c **** 
 801:.//Libraries/CMSIS/DSP/Source/TransformFunctions/arm_cfft_radix4_q31.c ****     /* writing xc' and yc' */
 802:.//Libraries/CMSIS/DSP/Source/TransformFunctions/arm_cfft_radix4_q31.c ****     *ptr1++ = xc_out;
 803:.//Libraries/CMSIS/DSP/Source/TransformFunctions/arm_cfft_radix4_q31.c ****     *ptr1++ = yc_out;
 804:.//Libraries/CMSIS/DSP/Source/TransformFunctions/arm_cfft_radix4_q31.c **** 
 805:.//Libraries/CMSIS/DSP/Source/TransformFunctions/arm_cfft_radix4_q31.c ****     xb_out = (xa - yb - xc + yd);
 806:.//Libraries/CMSIS/DSP/Source/TransformFunctions/arm_cfft_radix4_q31.c ****     yb_out = (ya + xb - yc - xd);
 807:.//Libraries/CMSIS/DSP/Source/TransformFunctions/arm_cfft_radix4_q31.c **** 
 808:.//Libraries/CMSIS/DSP/Source/TransformFunctions/arm_cfft_radix4_q31.c ****     /* writing xb' and yb' */
 809:.//Libraries/CMSIS/DSP/Source/TransformFunctions/arm_cfft_radix4_q31.c ****     *ptr1++ = xb_out;
 810:.//Libraries/CMSIS/DSP/Source/TransformFunctions/arm_cfft_radix4_q31.c ****     *ptr1++ = yb_out;
 811:.//Libraries/CMSIS/DSP/Source/TransformFunctions/arm_cfft_radix4_q31.c **** 
 812:.//Libraries/CMSIS/DSP/Source/TransformFunctions/arm_cfft_radix4_q31.c ****     xd_out = (xa + yb - xc - yd);
 813:.//Libraries/CMSIS/DSP/Source/TransformFunctions/arm_cfft_radix4_q31.c ****     yd_out = (ya - xb - yc + xd);
 814:.//Libraries/CMSIS/DSP/Source/TransformFunctions/arm_cfft_radix4_q31.c **** 
 815:.//Libraries/CMSIS/DSP/Source/TransformFunctions/arm_cfft_radix4_q31.c ****     /* writing xd' and yd' */
 816:.//Libraries/CMSIS/DSP/Source/TransformFunctions/arm_cfft_radix4_q31.c ****     *ptr1++ = xd_out;
 817:.//Libraries/CMSIS/DSP/Source/TransformFunctions/arm_cfft_radix4_q31.c ****     *ptr1++ = yd_out;
 818:.//Libraries/CMSIS/DSP/Source/TransformFunctions/arm_cfft_radix4_q31.c **** 
 819:.//Libraries/CMSIS/DSP/Source/TransformFunctions/arm_cfft_radix4_q31.c ****   } while (--j);
 1714              		.loc 1 819 3 is_stmt 0 discriminator 1 view .LVU754
 1715 035e B9F10109 		subs	r9, r9, #1
 1716              	.LVL197:
 771:.//Libraries/CMSIS/DSP/Source/TransformFunctions/arm_cfft_radix4_q31.c ****     ya = *ptr1++;
 1717              		.loc 1 771 8 discriminator 1 view .LVU755
 1718 0362 53F81CAC 		ldr	r10, [r3, #-28]
 1719              	.LVL198:
 774:.//Libraries/CMSIS/DSP/Source/TransformFunctions/arm_cfft_radix4_q31.c ****     yb = *ptr1++;
 1720              		.loc 1 774 5 is_stmt 1 discriminator 1 view .LVU756
 778:.//Libraries/CMSIS/DSP/Source/TransformFunctions/arm_cfft_radix4_q31.c ****     yc = *ptr1++;
 1721              		.loc 1 778 8 is_stmt 0 discriminator 1 view .LVU757
 1722 0366 53F8108C 		ldr	r8, [r3, #-16]
 779:.//Libraries/CMSIS/DSP/Source/TransformFunctions/arm_cfft_radix4_q31.c **** 
 1723              		.loc 1 779 8 discriminator 1 view .LVU758
 1724 036a 53F80CEC 		ldr	lr, [r3, #-12]
 775:.//Libraries/CMSIS/DSP/Source/TransformFunctions/arm_cfft_radix4_q31.c **** 
 1725              		.loc 1 775 8 discriminator 1 view .LVU759
 1726 036e 53E90621 		ldrd	r2, r1, [r3, #-24]
 1727              	.LVL199:
 775:.//Libraries/CMSIS/DSP/Source/TransformFunctions/arm_cfft_radix4_q31.c **** 
 1728              		.loc 1 775 5 is_stmt 1 discriminator 1 view .LVU760
 778:.//Libraries/CMSIS/DSP/Source/TransformFunctions/arm_cfft_radix4_q31.c ****     yc = *ptr1++;
 1729              		.loc 1 778 5 discriminator 1 view .LVU761
 779:.//Libraries/CMSIS/DSP/Source/TransformFunctions/arm_cfft_radix4_q31.c **** 
 1730              		.loc 1 779 5 discriminator 1 view .LVU762
 779:.//Libraries/CMSIS/DSP/Source/TransformFunctions/arm_cfft_radix4_q31.c **** 
 1731              		.loc 1 779 5 is_stmt 0 discriminator 1 view .LVU763
 1732 0372 03F12003 		add	r3, r3, #32
 1733              	.LVL200:
ARM GAS  /var/folders/wl/rshn8xbx1dsfj1zgryf4g1240000gn/T//ccRY5JJx.s 			page 54


 786:.//Libraries/CMSIS/DSP/Source/TransformFunctions/arm_cfft_radix4_q31.c **** 
 1734              		.loc 1 786 17 discriminator 1 view .LVU764
 1735 0376 00EB020C 		add	ip, r0, r2
 798:.//Libraries/CMSIS/DSP/Source/TransformFunctions/arm_cfft_radix4_q31.c ****     yc_out = (ya - yb + yc - yd);
 1736              		.loc 1 798 18 discriminator 1 view .LVU765
 1737 037a A0EB0207 		sub	r7, r0, r2
 805:.//Libraries/CMSIS/DSP/Source/TransformFunctions/arm_cfft_radix4_q31.c ****     yb_out = (ya + xb - yc - xd);
 1738              		.loc 1 805 18 discriminator 1 view .LVU766
 1739 037e A0EB0106 		sub	r6, r0, r1
 789:.//Libraries/CMSIS/DSP/Source/TransformFunctions/arm_cfft_radix4_q31.c **** 
 1740              		.loc 1 789 17 discriminator 1 view .LVU767
 1741 0382 0AEB0105 		add	r5, r10, r1
 1742              	.LVL201:
 782:.//Libraries/CMSIS/DSP/Source/TransformFunctions/arm_cfft_radix4_q31.c ****     yd = *ptr1++;
 1743              		.loc 1 782 5 is_stmt 1 discriminator 1 view .LVU768
 812:.//Libraries/CMSIS/DSP/Source/TransformFunctions/arm_cfft_radix4_q31.c ****     yd_out = (ya - xb - yc + xd);
 1744              		.loc 1 812 18 is_stmt 0 discriminator 1 view .LVU769
 1745 0386 0844     		add	r0, r0, r1
 1746              	.LVL202:
 806:.//Libraries/CMSIS/DSP/Source/TransformFunctions/arm_cfft_radix4_q31.c **** 
 1747              		.loc 1 806 18 discriminator 1 view .LVU770
 1748 0388 0AEB0204 		add	r4, r10, r2
 799:.//Libraries/CMSIS/DSP/Source/TransformFunctions/arm_cfft_radix4_q31.c **** 
 1749              		.loc 1 799 18 discriminator 1 view .LVU771
 1750 038c AAEB0101 		sub	r1, r10, r1
 1751              	.LVL203:
 813:.//Libraries/CMSIS/DSP/Source/TransformFunctions/arm_cfft_radix4_q31.c **** 
 1752              		.loc 1 813 18 discriminator 1 view .LVU772
 1753 0390 AAEB020A 		sub	r10, r10, r2
 1754              	.LVL204:
 786:.//Libraries/CMSIS/DSP/Source/TransformFunctions/arm_cfft_radix4_q31.c **** 
 1755              		.loc 1 786 22 discriminator 1 view .LVU773
 1756 0394 C444     		add	ip, ip, r8
 782:.//Libraries/CMSIS/DSP/Source/TransformFunctions/arm_cfft_radix4_q31.c ****     yd = *ptr1++;
 1757              		.loc 1 782 8 discriminator 1 view .LVU774
 1758 0396 53F8282C 		ldr	r2, [r3, #-40]
 1759              	.LVL205:
 783:.//Libraries/CMSIS/DSP/Source/TransformFunctions/arm_cfft_radix4_q31.c **** 
 1760              		.loc 1 783 5 is_stmt 1 discriminator 1 view .LVU775
 798:.//Libraries/CMSIS/DSP/Source/TransformFunctions/arm_cfft_radix4_q31.c ****     yc_out = (ya - yb + yc - yd);
 1761              		.loc 1 798 23 is_stmt 0 discriminator 1 view .LVU776
 1762 039a 4744     		add	r7, r7, r8
 805:.//Libraries/CMSIS/DSP/Source/TransformFunctions/arm_cfft_radix4_q31.c ****     yb_out = (ya + xb - yc - xd);
 1763              		.loc 1 805 23 discriminator 1 view .LVU777
 1764 039c A6EB0806 		sub	r6, r6, r8
 789:.//Libraries/CMSIS/DSP/Source/TransformFunctions/arm_cfft_radix4_q31.c **** 
 1765              		.loc 1 789 22 discriminator 1 view .LVU778
 1766 03a0 7544     		add	r5, r5, lr
 812:.//Libraries/CMSIS/DSP/Source/TransformFunctions/arm_cfft_radix4_q31.c ****     yd_out = (ya - xb - yc + xd);
 1767              		.loc 1 812 23 discriminator 1 view .LVU779
 1768 03a2 A0EB0808 		sub	r8, r0, r8
 1769              	.LVL206:
 799:.//Libraries/CMSIS/DSP/Source/TransformFunctions/arm_cfft_radix4_q31.c **** 
 1770              		.loc 1 799 23 discriminator 1 view .LVU780
 1771 03a6 7144     		add	r1, r1, lr
 783:.//Libraries/CMSIS/DSP/Source/TransformFunctions/arm_cfft_radix4_q31.c **** 
 1772              		.loc 1 783 8 discriminator 1 view .LVU781
ARM GAS  /var/folders/wl/rshn8xbx1dsfj1zgryf4g1240000gn/T//ccRY5JJx.s 			page 55


 1773 03a8 53F8240C 		ldr	r0, [r3, #-36]
 1774              	.LVL207:
 786:.//Libraries/CMSIS/DSP/Source/TransformFunctions/arm_cfft_radix4_q31.c **** 
 1775              		.loc 1 786 5 is_stmt 1 discriminator 1 view .LVU782
 789:.//Libraries/CMSIS/DSP/Source/TransformFunctions/arm_cfft_radix4_q31.c **** 
 1776              		.loc 1 789 5 discriminator 1 view .LVU783
 792:.//Libraries/CMSIS/DSP/Source/TransformFunctions/arm_cfft_radix4_q31.c **** 
 1777              		.loc 1 792 5 discriminator 1 view .LVU784
 795:.//Libraries/CMSIS/DSP/Source/TransformFunctions/arm_cfft_radix4_q31.c ****     *ptr1++ = ya_out;
 1778              		.loc 1 795 5 discriminator 1 view .LVU785
 806:.//Libraries/CMSIS/DSP/Source/TransformFunctions/arm_cfft_radix4_q31.c **** 
 1779              		.loc 1 806 23 is_stmt 0 discriminator 1 view .LVU786
 1780 03ac A4EB0E04 		sub	r4, r4, lr
 813:.//Libraries/CMSIS/DSP/Source/TransformFunctions/arm_cfft_radix4_q31.c **** 
 1781              		.loc 1 813 23 discriminator 1 view .LVU787
 1782 03b0 AAEB0E0A 		sub	r10, r10, lr
 786:.//Libraries/CMSIS/DSP/Source/TransformFunctions/arm_cfft_radix4_q31.c **** 
 1783              		.loc 1 786 12 discriminator 1 view .LVU788
 1784 03b4 9444     		add	ip, ip, r2
 798:.//Libraries/CMSIS/DSP/Source/TransformFunctions/arm_cfft_radix4_q31.c ****     yc_out = (ya - yb + yc - yd);
 1785              		.loc 1 798 12 discriminator 1 view .LVU789
 1786 03b6 A7EB0207 		sub	r7, r7, r2
 805:.//Libraries/CMSIS/DSP/Source/TransformFunctions/arm_cfft_radix4_q31.c ****     yb_out = (ya + xb - yc - xd);
 1787              		.loc 1 805 12 discriminator 1 view .LVU790
 1788 03ba 0644     		add	r6, r6, r0
 812:.//Libraries/CMSIS/DSP/Source/TransformFunctions/arm_cfft_radix4_q31.c ****     yd_out = (ya - xb - yc + xd);
 1789              		.loc 1 812 12 discriminator 1 view .LVU791
 1790 03bc A8EB0008 		sub	r8, r8, r0
 789:.//Libraries/CMSIS/DSP/Source/TransformFunctions/arm_cfft_radix4_q31.c **** 
 1791              		.loc 1 789 12 discriminator 1 view .LVU792
 1792 03c0 0544     		add	r5, r5, r0
 806:.//Libraries/CMSIS/DSP/Source/TransformFunctions/arm_cfft_radix4_q31.c **** 
 1793              		.loc 1 806 12 discriminator 1 view .LVU793
 1794 03c2 A4EB0204 		sub	r4, r4, r2
 799:.//Libraries/CMSIS/DSP/Source/TransformFunctions/arm_cfft_radix4_q31.c **** 
 1795              		.loc 1 799 12 discriminator 1 view .LVU794
 1796 03c6 A1EB0000 		sub	r0, r1, r0
 1797              	.LVL208:
 813:.//Libraries/CMSIS/DSP/Source/TransformFunctions/arm_cfft_radix4_q31.c **** 
 1798              		.loc 1 813 12 discriminator 1 view .LVU795
 1799 03ca 5244     		add	r2, r2, r10
 1800              	.LVL209:
 795:.//Libraries/CMSIS/DSP/Source/TransformFunctions/arm_cfft_radix4_q31.c ****     *ptr1++ = ya_out;
 1801              		.loc 1 795 13 discriminator 1 view .LVU796
 1802 03cc 43F840CC 		str	ip, [r3, #-64]
 1803              	.LVL210:
 796:.//Libraries/CMSIS/DSP/Source/TransformFunctions/arm_cfft_radix4_q31.c **** 
 1804              		.loc 1 796 5 is_stmt 1 discriminator 1 view .LVU797
 802:.//Libraries/CMSIS/DSP/Source/TransformFunctions/arm_cfft_radix4_q31.c ****     *ptr1++ = yc_out;
 1805              		.loc 1 802 13 is_stmt 0 discriminator 1 view .LVU798
 1806 03d0 43F8387C 		str	r7, [r3, #-56]
 1807              	.LVL211:
 809:.//Libraries/CMSIS/DSP/Source/TransformFunctions/arm_cfft_radix4_q31.c ****     *ptr1++ = yb_out;
 1808              		.loc 1 809 13 discriminator 1 view .LVU799
 1809 03d4 43F8306C 		str	r6, [r3, #-48]
 1810              	.LVL212:
 816:.//Libraries/CMSIS/DSP/Source/TransformFunctions/arm_cfft_radix4_q31.c ****     *ptr1++ = yd_out;
ARM GAS  /var/folders/wl/rshn8xbx1dsfj1zgryf4g1240000gn/T//ccRY5JJx.s 			page 56


 1811              		.loc 1 816 13 discriminator 1 view .LVU800
 1812 03d8 43F8288C 		str	r8, [r3, #-40]
 1813              	.LVL213:
 796:.//Libraries/CMSIS/DSP/Source/TransformFunctions/arm_cfft_radix4_q31.c **** 
 1814              		.loc 1 796 13 discriminator 1 view .LVU801
 1815 03dc 43F83C5C 		str	r5, [r3, #-60]
 1816              	.LVL214:
 798:.//Libraries/CMSIS/DSP/Source/TransformFunctions/arm_cfft_radix4_q31.c ****     yc_out = (ya - yb + yc - yd);
 1817              		.loc 1 798 5 is_stmt 1 discriminator 1 view .LVU802
 799:.//Libraries/CMSIS/DSP/Source/TransformFunctions/arm_cfft_radix4_q31.c **** 
 1818              		.loc 1 799 5 discriminator 1 view .LVU803
 802:.//Libraries/CMSIS/DSP/Source/TransformFunctions/arm_cfft_radix4_q31.c ****     *ptr1++ = yc_out;
 1819              		.loc 1 802 5 discriminator 1 view .LVU804
 803:.//Libraries/CMSIS/DSP/Source/TransformFunctions/arm_cfft_radix4_q31.c **** 
 1820              		.loc 1 803 5 discriminator 1 view .LVU805
 803:.//Libraries/CMSIS/DSP/Source/TransformFunctions/arm_cfft_radix4_q31.c **** 
 1821              		.loc 1 803 13 is_stmt 0 discriminator 1 view .LVU806
 1822 03e0 43F8340C 		str	r0, [r3, #-52]
 1823              	.LVL215:
 805:.//Libraries/CMSIS/DSP/Source/TransformFunctions/arm_cfft_radix4_q31.c ****     yb_out = (ya + xb - yc - xd);
 1824              		.loc 1 805 5 is_stmt 1 discriminator 1 view .LVU807
 806:.//Libraries/CMSIS/DSP/Source/TransformFunctions/arm_cfft_radix4_q31.c **** 
 1825              		.loc 1 806 5 discriminator 1 view .LVU808
 809:.//Libraries/CMSIS/DSP/Source/TransformFunctions/arm_cfft_radix4_q31.c ****     *ptr1++ = yb_out;
 1826              		.loc 1 809 5 discriminator 1 view .LVU809
 810:.//Libraries/CMSIS/DSP/Source/TransformFunctions/arm_cfft_radix4_q31.c **** 
 1827              		.loc 1 810 5 discriminator 1 view .LVU810
 810:.//Libraries/CMSIS/DSP/Source/TransformFunctions/arm_cfft_radix4_q31.c **** 
 1828              		.loc 1 810 13 is_stmt 0 discriminator 1 view .LVU811
 1829 03e4 43F82C4C 		str	r4, [r3, #-44]
 812:.//Libraries/CMSIS/DSP/Source/TransformFunctions/arm_cfft_radix4_q31.c ****     yd_out = (ya - xb - yc + xd);
 1830              		.loc 1 812 5 is_stmt 1 discriminator 1 view .LVU812
 1831              	.LVL216:
 813:.//Libraries/CMSIS/DSP/Source/TransformFunctions/arm_cfft_radix4_q31.c **** 
 1832              		.loc 1 813 5 discriminator 1 view .LVU813
 816:.//Libraries/CMSIS/DSP/Source/TransformFunctions/arm_cfft_radix4_q31.c ****     *ptr1++ = yd_out;
 1833              		.loc 1 816 5 discriminator 1 view .LVU814
 817:.//Libraries/CMSIS/DSP/Source/TransformFunctions/arm_cfft_radix4_q31.c **** 
 1834              		.loc 1 817 5 discriminator 1 view .LVU815
 817:.//Libraries/CMSIS/DSP/Source/TransformFunctions/arm_cfft_radix4_q31.c **** 
 1835              		.loc 1 817 13 is_stmt 0 discriminator 1 view .LVU816
 1836 03e8 43F8242C 		str	r2, [r3, #-36]
 1837              	.LVL217:
 1838              		.loc 1 819 11 is_stmt 1 discriminator 1 view .LVU817
 1839              		.loc 1 819 3 is_stmt 0 discriminator 1 view .LVU818
 1840 03ec B5D1     		bne	.L24
 820:.//Libraries/CMSIS/DSP/Source/TransformFunctions/arm_cfft_radix4_q31.c **** 
 821:.//Libraries/CMSIS/DSP/Source/TransformFunctions/arm_cfft_radix4_q31.c ****   /* output is in 11.21(q21) format for the 1024 point */
 822:.//Libraries/CMSIS/DSP/Source/TransformFunctions/arm_cfft_radix4_q31.c ****   /* output is in 9.23(q23) format for the 256 point */
 823:.//Libraries/CMSIS/DSP/Source/TransformFunctions/arm_cfft_radix4_q31.c ****   /* output is in 7.25(q25) format for the 64 point */
 824:.//Libraries/CMSIS/DSP/Source/TransformFunctions/arm_cfft_radix4_q31.c ****   /* output is in 5.27(q27) format for the 16 point */
 825:.//Libraries/CMSIS/DSP/Source/TransformFunctions/arm_cfft_radix4_q31.c **** 
 826:.//Libraries/CMSIS/DSP/Source/TransformFunctions/arm_cfft_radix4_q31.c ****   /* End of last stage process */
 827:.//Libraries/CMSIS/DSP/Source/TransformFunctions/arm_cfft_radix4_q31.c **** }
 1841              		.loc 1 827 1 view .LVU819
 1842 03ee 1FB0     		add	sp, sp, #124
 1843              	.LCFI5:
ARM GAS  /var/folders/wl/rshn8xbx1dsfj1zgryf4g1240000gn/T//ccRY5JJx.s 			page 57


 1844              		.cfi_def_cfa_offset 36
 1845              		@ sp needed
 1846 03f0 BDE8F08F 		pop	{r4, r5, r6, r7, r8, r9, r10, fp, pc}
 1847              		.loc 1 827 1 view .LVU820
 1848              		.cfi_endproc
 1849              	.LFE147:
 1851              		.section	.text.arm_cfft_radix4_q31,"ax",%progbits
 1852              		.align	1
 1853              		.p2align 2,,3
 1854              		.global	arm_cfft_radix4_q31
 1855              		.syntax unified
 1856              		.thumb
 1857              		.thumb_func
 1858              		.fpu fpv5-d16
 1860              	arm_cfft_radix4_q31:
 1861              	.LVL218:
 1862              	.LFB145:
  78:.//Libraries/CMSIS/DSP/Source/TransformFunctions/arm_cfft_radix4_q31.c ****   if (S->ifftFlag == 1U)
 1863              		.loc 1 78 1 is_stmt 1 view -0
 1864              		.cfi_startproc
 1865              		@ args = 0, pretend = 0, frame = 8
 1866              		@ frame_needed = 0, uses_anonymous_args = 0
  79:.//Libraries/CMSIS/DSP/Source/TransformFunctions/arm_cfft_radix4_q31.c ****   {
 1867              		.loc 1 79 3 view .LVU822
  78:.//Libraries/CMSIS/DSP/Source/TransformFunctions/arm_cfft_radix4_q31.c ****   if (S->ifftFlag == 1U)
 1868              		.loc 1 78 1 is_stmt 0 view .LVU823
 1869 0000 10B5     		push	{r4, lr}
 1870              	.LCFI6:
 1871              		.cfi_def_cfa_offset 8
 1872              		.cfi_offset 4, -8
 1873              		.cfi_offset 14, -4
 1874 0002 0446     		mov	r4, r0
 1875 0004 82B0     		sub	sp, sp, #8
 1876              	.LCFI7:
 1877              		.cfi_def_cfa_offset 16
  78:.//Libraries/CMSIS/DSP/Source/TransformFunctions/arm_cfft_radix4_q31.c ****   if (S->ifftFlag == 1U)
 1878              		.loc 1 78 1 view .LVU824
 1879 0006 0846     		mov	r0, r1
 1880              	.LVL219:
  79:.//Libraries/CMSIS/DSP/Source/TransformFunctions/arm_cfft_radix4_q31.c ****   {
 1881              		.loc 1 79 6 view .LVU825
 1882 0008 A378     		ldrb	r3, [r4, #2]	@ zero_extendqisi2
  82:.//Libraries/CMSIS/DSP/Source/TransformFunctions/arm_cfft_radix4_q31.c ****   }
 1883              		.loc 1 82 5 view .LVU826
 1884 000a 0191     		str	r1, [sp, #4]
  79:.//Libraries/CMSIS/DSP/Source/TransformFunctions/arm_cfft_radix4_q31.c ****   {
 1885              		.loc 1 79 6 view .LVU827
 1886 000c 012B     		cmp	r3, #1
  82:.//Libraries/CMSIS/DSP/Source/TransformFunctions/arm_cfft_radix4_q31.c ****   }
 1887              		.loc 1 82 5 view .LVU828
 1888 000e 6268     		ldr	r2, [r4, #4]
 1889 0010 A389     		ldrh	r3, [r4, #12]
 1890 0012 2188     		ldrh	r1, [r4]
 1891              	.LVL220:
  79:.//Libraries/CMSIS/DSP/Source/TransformFunctions/arm_cfft_radix4_q31.c ****   {
 1892              		.loc 1 79 6 view .LVU829
 1893 0014 07D0     		beq	.L45
ARM GAS  /var/folders/wl/rshn8xbx1dsfj1zgryf4g1240000gn/T//ccRY5JJx.s 			page 58


  87:.//Libraries/CMSIS/DSP/Source/TransformFunctions/arm_cfft_radix4_q31.c ****   }
 1894              		.loc 1 87 5 is_stmt 1 view .LVU830
 1895 0016 FFF7FEFF 		bl	arm_radix4_butterfly_q31
 1896              	.LVL221:
  90:.//Libraries/CMSIS/DSP/Source/TransformFunctions/arm_cfft_radix4_q31.c ****   {
 1897              		.loc 1 90 6 is_stmt 0 view .LVU831
 1898 001a E378     		ldrb	r3, [r4, #3]	@ zero_extendqisi2
  87:.//Libraries/CMSIS/DSP/Source/TransformFunctions/arm_cfft_radix4_q31.c ****   }
 1899              		.loc 1 87 5 view .LVU832
 1900 001c 0198     		ldr	r0, [sp, #4]
  90:.//Libraries/CMSIS/DSP/Source/TransformFunctions/arm_cfft_radix4_q31.c ****   {
 1901              		.loc 1 90 3 is_stmt 1 view .LVU833
  90:.//Libraries/CMSIS/DSP/Source/TransformFunctions/arm_cfft_radix4_q31.c ****   {
 1902              		.loc 1 90 6 is_stmt 0 view .LVU834
 1903 001e 012B     		cmp	r3, #1
 1904 0020 07D0     		beq	.L46
 1905              	.L40:
  96:.//Libraries/CMSIS/DSP/Source/TransformFunctions/arm_cfft_radix4_q31.c **** 
 1906              		.loc 1 96 1 view .LVU835
 1907 0022 02B0     		add	sp, sp, #8
 1908              	.LCFI8:
 1909              		.cfi_remember_state
 1910              		.cfi_def_cfa_offset 8
 1911              		@ sp needed
 1912 0024 10BD     		pop	{r4, pc}
 1913              	.LVL222:
 1914              	.L45:
 1915              	.LCFI9:
 1916              		.cfi_restore_state
  82:.//Libraries/CMSIS/DSP/Source/TransformFunctions/arm_cfft_radix4_q31.c ****   }
 1917              		.loc 1 82 5 is_stmt 1 view .LVU836
 1918 0026 FFF7FEFF 		bl	arm_radix4_butterfly_inverse_q31
 1919              	.LVL223:
  90:.//Libraries/CMSIS/DSP/Source/TransformFunctions/arm_cfft_radix4_q31.c ****   {
 1920              		.loc 1 90 6 is_stmt 0 view .LVU837
 1921 002a E378     		ldrb	r3, [r4, #3]	@ zero_extendqisi2
 1922 002c 0198     		ldr	r0, [sp, #4]
  90:.//Libraries/CMSIS/DSP/Source/TransformFunctions/arm_cfft_radix4_q31.c ****   {
 1923              		.loc 1 90 3 is_stmt 1 view .LVU838
  90:.//Libraries/CMSIS/DSP/Source/TransformFunctions/arm_cfft_radix4_q31.c ****   {
 1924              		.loc 1 90 6 is_stmt 0 view .LVU839
 1925 002e 012B     		cmp	r3, #1
 1926 0030 F7D1     		bne	.L40
 1927              	.L46:
  93:.//Libraries/CMSIS/DSP/Source/TransformFunctions/arm_cfft_radix4_q31.c ****   }
 1928              		.loc 1 93 5 is_stmt 1 view .LVU840
 1929 0032 A368     		ldr	r3, [r4, #8]
 1930 0034 E289     		ldrh	r2, [r4, #14]
 1931 0036 2188     		ldrh	r1, [r4]
  96:.//Libraries/CMSIS/DSP/Source/TransformFunctions/arm_cfft_radix4_q31.c **** 
 1932              		.loc 1 96 1 is_stmt 0 view .LVU841
 1933 0038 02B0     		add	sp, sp, #8
 1934              	.LCFI10:
 1935              		.cfi_def_cfa_offset 8
 1936              		@ sp needed
 1937 003a BDE81040 		pop	{r4, lr}
 1938              	.LCFI11:
ARM GAS  /var/folders/wl/rshn8xbx1dsfj1zgryf4g1240000gn/T//ccRY5JJx.s 			page 59


 1939              		.cfi_restore 14
 1940              		.cfi_restore 4
 1941              		.cfi_def_cfa_offset 0
 1942              	.LVL224:
  93:.//Libraries/CMSIS/DSP/Source/TransformFunctions/arm_cfft_radix4_q31.c ****   }
 1943              		.loc 1 93 5 view .LVU842
 1944 003e FFF7FEBF 		b	arm_bitreversal_q31
 1945              	.LVL225:
 1946              		.cfi_endproc
 1947              	.LFE145:
 1949 0042 00BF     		.text
 1950              	.Letext0:
 1951              		.file 2 "/opt/homebrew/Cellar/arm-none-eabi-gcc/9-2019-q4-major/gcc/arm-none-eabi/include/machine/
 1952              		.file 3 "/opt/homebrew/Cellar/arm-none-eabi-gcc/9-2019-q4-major/gcc/arm-none-eabi/include/sys/_std
 1953              		.file 4 "/opt/homebrew/Cellar/arm-none-eabi-gcc/9-2019-q4-major/gcc/arm-none-eabi/include/sys/lock
 1954              		.file 5 "/opt/homebrew/Cellar/arm-none-eabi-gcc/9-2019-q4-major/gcc/arm-none-eabi/include/sys/_typ
 1955              		.file 6 "/opt/homebrew/Cellar/arm-none-eabi-gcc/9-2019-q4-major/gcc/lib/gcc/arm-none-eabi/9.2.1/in
 1956              		.file 7 "/opt/homebrew/Cellar/arm-none-eabi-gcc/9-2019-q4-major/gcc/arm-none-eabi/include/sys/reen
 1957              		.file 8 "/opt/homebrew/Cellar/arm-none-eabi-gcc/9-2019-q4-major/gcc/arm-none-eabi/include/math.h"
 1958              		.file 9 ".//Libraries/CMSIS/DSP/Include/arm_math.h"
ARM GAS  /var/folders/wl/rshn8xbx1dsfj1zgryf4g1240000gn/T//ccRY5JJx.s 			page 60

