ARM GAS  /var/folders/wl/rshn8xbx1dsfj1zgryf4g1240000gn/T//ccPnnP8T.s 			page 1


   1              		.cpu cortex-m7
   2              		.eabi_attribute 28, 1
   3              		.eabi_attribute 20, 1
   4              		.eabi_attribute 21, 1
   5              		.eabi_attribute 23, 3
   6              		.eabi_attribute 24, 1
   7              		.eabi_attribute 25, 1
   8              		.eabi_attribute 26, 1
   9              		.eabi_attribute 30, 2
  10              		.eabi_attribute 34, 1
  11              		.eabi_attribute 18, 4
  12              		.file	"arm_rfft_fast_f32.c"
  13              		.text
  14              	.Ltext0:
  15              		.cfi_sections	.debug_frame
  16              		.section	.text.stage_rfft_f32,"ax",%progbits
  17              		.align	1
  18              		.p2align 2,,3
  19              		.global	stage_rfft_f32
  20              		.arch armv7e-m
  21              		.syntax unified
  22              		.thumb
  23              		.thumb_func
  24              		.fpu fpv5-d16
  26              	stage_rfft_f32:
  27              	.LVL0:
  28              	.LFB145:
  29              		.file 1 ".//Libraries/CMSIS/DSP/Source/TransformFunctions/arm_rfft_fast_f32.c"
   1:.//Libraries/CMSIS/DSP/Source/TransformFunctions/arm_rfft_fast_f32.c **** /* ----------------------------------------------------------------------
   2:.//Libraries/CMSIS/DSP/Source/TransformFunctions/arm_rfft_fast_f32.c ****  * Project:      CMSIS DSP Library
   3:.//Libraries/CMSIS/DSP/Source/TransformFunctions/arm_rfft_fast_f32.c ****  * Title:        arm_rfft_f32.c
   4:.//Libraries/CMSIS/DSP/Source/TransformFunctions/arm_rfft_fast_f32.c ****  * Description:  RFFT & RIFFT Floating point process function
   5:.//Libraries/CMSIS/DSP/Source/TransformFunctions/arm_rfft_fast_f32.c ****  *
   6:.//Libraries/CMSIS/DSP/Source/TransformFunctions/arm_rfft_fast_f32.c ****  * $Date:        18. March 2019
   7:.//Libraries/CMSIS/DSP/Source/TransformFunctions/arm_rfft_fast_f32.c ****  * $Revision:    V1.6.0
   8:.//Libraries/CMSIS/DSP/Source/TransformFunctions/arm_rfft_fast_f32.c ****  *
   9:.//Libraries/CMSIS/DSP/Source/TransformFunctions/arm_rfft_fast_f32.c ****  * Target Processor: Cortex-M cores
  10:.//Libraries/CMSIS/DSP/Source/TransformFunctions/arm_rfft_fast_f32.c ****  * -------------------------------------------------------------------- */
  11:.//Libraries/CMSIS/DSP/Source/TransformFunctions/arm_rfft_fast_f32.c **** /*
  12:.//Libraries/CMSIS/DSP/Source/TransformFunctions/arm_rfft_fast_f32.c ****  * Copyright (C) 2010-2019 ARM Limited or its affiliates. All rights reserved.
  13:.//Libraries/CMSIS/DSP/Source/TransformFunctions/arm_rfft_fast_f32.c ****  *
  14:.//Libraries/CMSIS/DSP/Source/TransformFunctions/arm_rfft_fast_f32.c ****  * SPDX-License-Identifier: Apache-2.0
  15:.//Libraries/CMSIS/DSP/Source/TransformFunctions/arm_rfft_fast_f32.c ****  *
  16:.//Libraries/CMSIS/DSP/Source/TransformFunctions/arm_rfft_fast_f32.c ****  * Licensed under the Apache License, Version 2.0 (the License); you may
  17:.//Libraries/CMSIS/DSP/Source/TransformFunctions/arm_rfft_fast_f32.c ****  * not use this file except in compliance with the License.
  18:.//Libraries/CMSIS/DSP/Source/TransformFunctions/arm_rfft_fast_f32.c ****  * You may obtain a copy of the License at
  19:.//Libraries/CMSIS/DSP/Source/TransformFunctions/arm_rfft_fast_f32.c ****  *
  20:.//Libraries/CMSIS/DSP/Source/TransformFunctions/arm_rfft_fast_f32.c ****  * www.apache.org/licenses/LICENSE-2.0
  21:.//Libraries/CMSIS/DSP/Source/TransformFunctions/arm_rfft_fast_f32.c ****  *
  22:.//Libraries/CMSIS/DSP/Source/TransformFunctions/arm_rfft_fast_f32.c ****  * Unless required by applicable law or agreed to in writing, software
  23:.//Libraries/CMSIS/DSP/Source/TransformFunctions/arm_rfft_fast_f32.c ****  * distributed under the License is distributed on an AS IS BASIS, WITHOUT
  24:.//Libraries/CMSIS/DSP/Source/TransformFunctions/arm_rfft_fast_f32.c ****  * WARRANTIES OR CONDITIONS OF ANY KIND, either express or implied.
  25:.//Libraries/CMSIS/DSP/Source/TransformFunctions/arm_rfft_fast_f32.c ****  * See the License for the specific language governing permissions and
  26:.//Libraries/CMSIS/DSP/Source/TransformFunctions/arm_rfft_fast_f32.c ****  * limitations under the License.
  27:.//Libraries/CMSIS/DSP/Source/TransformFunctions/arm_rfft_fast_f32.c ****  */
  28:.//Libraries/CMSIS/DSP/Source/TransformFunctions/arm_rfft_fast_f32.c **** 
  29:.//Libraries/CMSIS/DSP/Source/TransformFunctions/arm_rfft_fast_f32.c **** #include "arm_math.h"
ARM GAS  /var/folders/wl/rshn8xbx1dsfj1zgryf4g1240000gn/T//ccPnnP8T.s 			page 2


  30:.//Libraries/CMSIS/DSP/Source/TransformFunctions/arm_rfft_fast_f32.c **** 
  31:.//Libraries/CMSIS/DSP/Source/TransformFunctions/arm_rfft_fast_f32.c **** void stage_rfft_f32(
  32:.//Libraries/CMSIS/DSP/Source/TransformFunctions/arm_rfft_fast_f32.c ****   const arm_rfft_fast_instance_f32 * S,
  33:.//Libraries/CMSIS/DSP/Source/TransformFunctions/arm_rfft_fast_f32.c ****         float32_t * p,
  34:.//Libraries/CMSIS/DSP/Source/TransformFunctions/arm_rfft_fast_f32.c ****         float32_t * pOut)
  35:.//Libraries/CMSIS/DSP/Source/TransformFunctions/arm_rfft_fast_f32.c **** {
  30              		.loc 1 35 1 view -0
  31              		.cfi_startproc
  32              		@ args = 0, pretend = 0, frame = 0
  33              		@ frame_needed = 0, uses_anonymous_args = 0
  34              		@ link register save eliminated.
  36:.//Libraries/CMSIS/DSP/Source/TransformFunctions/arm_rfft_fast_f32.c ****         uint32_t  k;                                /* Loop Counter */
  37:.//Libraries/CMSIS/DSP/Source/TransformFunctions/arm_rfft_fast_f32.c ****         float32_t twR, twI;                         /* RFFT Twiddle coefficients */
  38:.//Libraries/CMSIS/DSP/Source/TransformFunctions/arm_rfft_fast_f32.c ****   const float32_t * pCoeff = S->pTwiddleRFFT;       /* Points to RFFT Twiddle factors */
  39:.//Libraries/CMSIS/DSP/Source/TransformFunctions/arm_rfft_fast_f32.c ****         float32_t *pA = p;                          /* increasing pointer */
  40:.//Libraries/CMSIS/DSP/Source/TransformFunctions/arm_rfft_fast_f32.c ****         float32_t *pB = p;                          /* decreasing pointer */
  41:.//Libraries/CMSIS/DSP/Source/TransformFunctions/arm_rfft_fast_f32.c ****         float32_t xAR, xAI, xBR, xBI;               /* temporary variables */
  42:.//Libraries/CMSIS/DSP/Source/TransformFunctions/arm_rfft_fast_f32.c ****         float32_t t1a, t1b;                         /* temporary variables */
  43:.//Libraries/CMSIS/DSP/Source/TransformFunctions/arm_rfft_fast_f32.c ****         float32_t p0, p1, p2, p3;                   /* temporary variables */
  44:.//Libraries/CMSIS/DSP/Source/TransformFunctions/arm_rfft_fast_f32.c **** 
  45:.//Libraries/CMSIS/DSP/Source/TransformFunctions/arm_rfft_fast_f32.c **** 
  46:.//Libraries/CMSIS/DSP/Source/TransformFunctions/arm_rfft_fast_f32.c ****    k = (S->Sint).fftLen - 1;
  47:.//Libraries/CMSIS/DSP/Source/TransformFunctions/arm_rfft_fast_f32.c **** 
  48:.//Libraries/CMSIS/DSP/Source/TransformFunctions/arm_rfft_fast_f32.c ****    /* Pack first and last sample of the frequency domain together */
  49:.//Libraries/CMSIS/DSP/Source/TransformFunctions/arm_rfft_fast_f32.c **** 
  50:.//Libraries/CMSIS/DSP/Source/TransformFunctions/arm_rfft_fast_f32.c ****    xBR = pB[0];
  51:.//Libraries/CMSIS/DSP/Source/TransformFunctions/arm_rfft_fast_f32.c ****    xBI = pB[1];
  52:.//Libraries/CMSIS/DSP/Source/TransformFunctions/arm_rfft_fast_f32.c ****    xAR = pA[0];
  53:.//Libraries/CMSIS/DSP/Source/TransformFunctions/arm_rfft_fast_f32.c ****    xAI = pA[1];
  54:.//Libraries/CMSIS/DSP/Source/TransformFunctions/arm_rfft_fast_f32.c **** 
  55:.//Libraries/CMSIS/DSP/Source/TransformFunctions/arm_rfft_fast_f32.c ****    twR = *pCoeff++ ;
  56:.//Libraries/CMSIS/DSP/Source/TransformFunctions/arm_rfft_fast_f32.c ****    twI = *pCoeff++ ;
  57:.//Libraries/CMSIS/DSP/Source/TransformFunctions/arm_rfft_fast_f32.c **** 
  58:.//Libraries/CMSIS/DSP/Source/TransformFunctions/arm_rfft_fast_f32.c ****    // U1 = XA(1) + XB(1); % It is real
  59:.//Libraries/CMSIS/DSP/Source/TransformFunctions/arm_rfft_fast_f32.c ****    t1a = xBR + xAR  ;
  60:.//Libraries/CMSIS/DSP/Source/TransformFunctions/arm_rfft_fast_f32.c **** 
  61:.//Libraries/CMSIS/DSP/Source/TransformFunctions/arm_rfft_fast_f32.c ****    // U2 = XB(1) - XA(1); % It is imaginary
  62:.//Libraries/CMSIS/DSP/Source/TransformFunctions/arm_rfft_fast_f32.c ****    t1b = xBI + xAI  ;
  35              		.loc 1 62 8 is_stmt 0 view .LVU1
  36 0000 D1ED017A 		vldr.32	s15, [r1, #4]
  63:.//Libraries/CMSIS/DSP/Source/TransformFunctions/arm_rfft_fast_f32.c **** 
  64:.//Libraries/CMSIS/DSP/Source/TransformFunctions/arm_rfft_fast_f32.c ****    // real(tw * (xB - xA)) = twR * (xBR - xAR) - twI * (xBI - xAI);
  65:.//Libraries/CMSIS/DSP/Source/TransformFunctions/arm_rfft_fast_f32.c ****    // imag(tw * (xB - xA)) = twI * (xBR - xAR) + twR * (xBI - xAI);
  66:.//Libraries/CMSIS/DSP/Source/TransformFunctions/arm_rfft_fast_f32.c ****    *pOut++ = 0.5f * ( t1a + t1b );
  37              		.loc 1 66 27 view .LVU2
  38 0004 B0EE006A 		vmov.f32	s12, #2.0e+0
  36:.//Libraries/CMSIS/DSP/Source/TransformFunctions/arm_rfft_fast_f32.c ****         uint32_t  k;                                /* Loop Counter */
  39              		.loc 1 36 9 is_stmt 1 view .LVU3
  37:.//Libraries/CMSIS/DSP/Source/TransformFunctions/arm_rfft_fast_f32.c ****   const float32_t * pCoeff = S->pTwiddleRFFT;       /* Points to RFFT Twiddle factors */
  40              		.loc 1 37 9 view .LVU4
  38:.//Libraries/CMSIS/DSP/Source/TransformFunctions/arm_rfft_fast_f32.c ****         float32_t *pA = p;                          /* increasing pointer */
  41              		.loc 1 38 3 view .LVU5
  50:.//Libraries/CMSIS/DSP/Source/TransformFunctions/arm_rfft_fast_f32.c ****    xBI = pB[1];
  42              		.loc 1 50 8 is_stmt 0 view .LVU6
  43 0008 D1ED005A 		vldr.32	s11, [r1]
  44              		.loc 1 66 19 view .LVU7
  45 000c F6EE006A 		vmov.f32	s13, #5.0e-1
ARM GAS  /var/folders/wl/rshn8xbx1dsfj1zgryf4g1240000gn/T//ccPnnP8T.s 			page 3


  62:.//Libraries/CMSIS/DSP/Source/TransformFunctions/arm_rfft_fast_f32.c **** 
  46              		.loc 1 62 8 view .LVU8
  47 0010 77EEA77A 		vadd.f32	s15, s15, s15
  35:.//Libraries/CMSIS/DSP/Source/TransformFunctions/arm_rfft_fast_f32.c ****         uint32_t  k;                                /* Loop Counter */
  48              		.loc 1 35 1 view .LVU9
  49 0014 70B4     		push	{r4, r5, r6}
  50              	.LCFI0:
  51              		.cfi_def_cfa_offset 12
  52              		.cfi_offset 4, -12
  53              		.cfi_offset 5, -8
  54              		.cfi_offset 6, -4
  55              		.loc 1 66 27 view .LVU10
  56 0016 B0EE677A 		vmov.f32	s14, s15
  46:.//Libraries/CMSIS/DSP/Source/TransformFunctions/arm_rfft_fast_f32.c **** 
  57              		.loc 1 46 17 view .LVU11
  58 001a 0688     		ldrh	r6, [r0]
  67:.//Libraries/CMSIS/DSP/Source/TransformFunctions/arm_rfft_fast_f32.c ****    *pOut++ = 0.5f * ( t1a - t1b );
  59              		.loc 1 67 27 view .LVU12
  60 001c D5EE867A 		vfnms.f32	s15, s11, s12
  38:.//Libraries/CMSIS/DSP/Source/TransformFunctions/arm_rfft_fast_f32.c ****         float32_t *pA = p;                          /* increasing pointer */
  61              		.loc 1 38 21 view .LVU13
  62 0020 4069     		ldr	r0, [r0, #20]
  63              	.LVL1:
  39:.//Libraries/CMSIS/DSP/Source/TransformFunctions/arm_rfft_fast_f32.c ****         float32_t *pB = p;                          /* decreasing pointer */
  64              		.loc 1 39 9 is_stmt 1 view .LVU14
  40:.//Libraries/CMSIS/DSP/Source/TransformFunctions/arm_rfft_fast_f32.c ****         float32_t xAR, xAI, xBR, xBI;               /* temporary variables */
  65              		.loc 1 40 9 view .LVU15
  41:.//Libraries/CMSIS/DSP/Source/TransformFunctions/arm_rfft_fast_f32.c ****         float32_t t1a, t1b;                         /* temporary variables */
  66              		.loc 1 41 9 view .LVU16
  42:.//Libraries/CMSIS/DSP/Source/TransformFunctions/arm_rfft_fast_f32.c ****         float32_t p0, p1, p2, p3;                   /* temporary variables */
  67              		.loc 1 42 9 view .LVU17
  43:.//Libraries/CMSIS/DSP/Source/TransformFunctions/arm_rfft_fast_f32.c **** 
  68              		.loc 1 43 9 view .LVU18
  46:.//Libraries/CMSIS/DSP/Source/TransformFunctions/arm_rfft_fast_f32.c **** 
  69              		.loc 1 46 4 view .LVU19
  46:.//Libraries/CMSIS/DSP/Source/TransformFunctions/arm_rfft_fast_f32.c **** 
  70              		.loc 1 46 25 is_stmt 0 view .LVU20
  71 0022 013E     		subs	r6, r6, #1
  72              	.LVL2:
  50:.//Libraries/CMSIS/DSP/Source/TransformFunctions/arm_rfft_fast_f32.c ****    xBI = pB[1];
  73              		.loc 1 50 4 is_stmt 1 view .LVU21
  51:.//Libraries/CMSIS/DSP/Source/TransformFunctions/arm_rfft_fast_f32.c ****    xAR = pA[0];
  74              		.loc 1 51 4 view .LVU22
  52:.//Libraries/CMSIS/DSP/Source/TransformFunctions/arm_rfft_fast_f32.c ****    xAI = pA[1];
  75              		.loc 1 52 4 view .LVU23
  53:.//Libraries/CMSIS/DSP/Source/TransformFunctions/arm_rfft_fast_f32.c **** 
  76              		.loc 1 53 4 view .LVU24
  55:.//Libraries/CMSIS/DSP/Source/TransformFunctions/arm_rfft_fast_f32.c ****    twI = *pCoeff++ ;
  77              		.loc 1 55 4 view .LVU25
  56:.//Libraries/CMSIS/DSP/Source/TransformFunctions/arm_rfft_fast_f32.c **** 
  78              		.loc 1 56 4 view .LVU26
  59:.//Libraries/CMSIS/DSP/Source/TransformFunctions/arm_rfft_fast_f32.c **** 
  79              		.loc 1 59 4 view .LVU27
  62:.//Libraries/CMSIS/DSP/Source/TransformFunctions/arm_rfft_fast_f32.c **** 
  80              		.loc 1 62 4 view .LVU28
  66:.//Libraries/CMSIS/DSP/Source/TransformFunctions/arm_rfft_fast_f32.c ****    *pOut++ = 0.5f * ( t1a - t1b );
  81              		.loc 1 66 4 view .LVU29
ARM GAS  /var/folders/wl/rshn8xbx1dsfj1zgryf4g1240000gn/T//ccPnnP8T.s 			page 4


  82 0024 01F11005 		add	r5, r1, #16
  66:.//Libraries/CMSIS/DSP/Source/TransformFunctions/arm_rfft_fast_f32.c ****    *pOut++ = 0.5f * ( t1a - t1b );
  83              		.loc 1 66 27 is_stmt 0 view .LVU30
  84 0028 A5EE867A 		vfma.f32	s14, s11, s12
  85              	.LVL3:
  66:.//Libraries/CMSIS/DSP/Source/TransformFunctions/arm_rfft_fast_f32.c ****    *pOut++ = 0.5f * ( t1a - t1b );
  86              		.loc 1 66 27 view .LVU31
  87 002c 02F11004 		add	r4, r2, #16
  88 0030 01EBC601 		add	r1, r1, r6, lsl #3
  89              	.LVL4:
  68:.//Libraries/CMSIS/DSP/Source/TransformFunctions/arm_rfft_fast_f32.c **** 
  69:.//Libraries/CMSIS/DSP/Source/TransformFunctions/arm_rfft_fast_f32.c ****    // XA(1) = 1/2*( U1 - imag(U2) +  i*( U1 +imag(U2) ));
  70:.//Libraries/CMSIS/DSP/Source/TransformFunctions/arm_rfft_fast_f32.c ****    pB  = p + 2*k;
  71:.//Libraries/CMSIS/DSP/Source/TransformFunctions/arm_rfft_fast_f32.c ****    pA += 2;
  72:.//Libraries/CMSIS/DSP/Source/TransformFunctions/arm_rfft_fast_f32.c **** 
  73:.//Libraries/CMSIS/DSP/Source/TransformFunctions/arm_rfft_fast_f32.c ****    do
  74:.//Libraries/CMSIS/DSP/Source/TransformFunctions/arm_rfft_fast_f32.c ****    {
  75:.//Libraries/CMSIS/DSP/Source/TransformFunctions/arm_rfft_fast_f32.c ****       /*
  76:.//Libraries/CMSIS/DSP/Source/TransformFunctions/arm_rfft_fast_f32.c ****          function X = my_split_rfft(X, ifftFlag)
  77:.//Libraries/CMSIS/DSP/Source/TransformFunctions/arm_rfft_fast_f32.c ****          % X is a series of real numbers
  78:.//Libraries/CMSIS/DSP/Source/TransformFunctions/arm_rfft_fast_f32.c ****          L  = length(X);
  79:.//Libraries/CMSIS/DSP/Source/TransformFunctions/arm_rfft_fast_f32.c ****          XC = X(1:2:end) +i*X(2:2:end);
  80:.//Libraries/CMSIS/DSP/Source/TransformFunctions/arm_rfft_fast_f32.c ****          XA = fft(XC);
  81:.//Libraries/CMSIS/DSP/Source/TransformFunctions/arm_rfft_fast_f32.c ****          XB = conj(XA([1 end:-1:2]));
  82:.//Libraries/CMSIS/DSP/Source/TransformFunctions/arm_rfft_fast_f32.c ****          TW = i*exp(-2*pi*i*[0:L/2-1]/L).';
  83:.//Libraries/CMSIS/DSP/Source/TransformFunctions/arm_rfft_fast_f32.c ****          for l = 2:L/2
  84:.//Libraries/CMSIS/DSP/Source/TransformFunctions/arm_rfft_fast_f32.c ****             XA(l) = 1/2 * (XA(l) + XB(l) + TW(l) * (XB(l) - XA(l)));
  85:.//Libraries/CMSIS/DSP/Source/TransformFunctions/arm_rfft_fast_f32.c ****          end
  86:.//Libraries/CMSIS/DSP/Source/TransformFunctions/arm_rfft_fast_f32.c ****          XA(1) = 1/2* (XA(1) + XB(1) + TW(1) * (XB(1) - XA(1))) + i*( 1/2*( XA(1) + XB(1) + i*( XA(
  87:.//Libraries/CMSIS/DSP/Source/TransformFunctions/arm_rfft_fast_f32.c ****          X = XA;
  88:.//Libraries/CMSIS/DSP/Source/TransformFunctions/arm_rfft_fast_f32.c ****       */
  89:.//Libraries/CMSIS/DSP/Source/TransformFunctions/arm_rfft_fast_f32.c **** 
  90:.//Libraries/CMSIS/DSP/Source/TransformFunctions/arm_rfft_fast_f32.c ****       xBI = pB[1];
  91:.//Libraries/CMSIS/DSP/Source/TransformFunctions/arm_rfft_fast_f32.c ****       xBR = pB[0];
  92:.//Libraries/CMSIS/DSP/Source/TransformFunctions/arm_rfft_fast_f32.c ****       xAR = pA[0];
  93:.//Libraries/CMSIS/DSP/Source/TransformFunctions/arm_rfft_fast_f32.c ****       xAI = pA[1];
  94:.//Libraries/CMSIS/DSP/Source/TransformFunctions/arm_rfft_fast_f32.c **** 
  95:.//Libraries/CMSIS/DSP/Source/TransformFunctions/arm_rfft_fast_f32.c ****       twR = *pCoeff++;
  96:.//Libraries/CMSIS/DSP/Source/TransformFunctions/arm_rfft_fast_f32.c ****       twI = *pCoeff++;
  97:.//Libraries/CMSIS/DSP/Source/TransformFunctions/arm_rfft_fast_f32.c **** 
  98:.//Libraries/CMSIS/DSP/Source/TransformFunctions/arm_rfft_fast_f32.c ****       t1a = xBR - xAR ;
  99:.//Libraries/CMSIS/DSP/Source/TransformFunctions/arm_rfft_fast_f32.c ****       t1b = xBI + xAI ;
 100:.//Libraries/CMSIS/DSP/Source/TransformFunctions/arm_rfft_fast_f32.c **** 
 101:.//Libraries/CMSIS/DSP/Source/TransformFunctions/arm_rfft_fast_f32.c ****       // real(tw * (xB - xA)) = twR * (xBR - xAR) - twI * (xBI - xAI);
 102:.//Libraries/CMSIS/DSP/Source/TransformFunctions/arm_rfft_fast_f32.c ****       // imag(tw * (xB - xA)) = twI * (xBR - xAR) + twR * (xBI - xAI);
 103:.//Libraries/CMSIS/DSP/Source/TransformFunctions/arm_rfft_fast_f32.c ****       p0 = twR * t1a;
 104:.//Libraries/CMSIS/DSP/Source/TransformFunctions/arm_rfft_fast_f32.c ****       p1 = twI * t1a;
 105:.//Libraries/CMSIS/DSP/Source/TransformFunctions/arm_rfft_fast_f32.c ****       p2 = twR * t1b;
 106:.//Libraries/CMSIS/DSP/Source/TransformFunctions/arm_rfft_fast_f32.c ****       p3 = twI * t1b;
 107:.//Libraries/CMSIS/DSP/Source/TransformFunctions/arm_rfft_fast_f32.c **** 
 108:.//Libraries/CMSIS/DSP/Source/TransformFunctions/arm_rfft_fast_f32.c ****       *pOut++ = 0.5f * (xAR + xBR + p0 + p3 ); //xAR
  90              		.loc 1 108 22 view .LVU32
  91 0034 B0EE664A 		vmov.f32	s8, s13
  92 0038 1030     		adds	r0, r0, #16
  93 003a A1F10803 		sub	r3, r1, #8
  67:.//Libraries/CMSIS/DSP/Source/TransformFunctions/arm_rfft_fast_f32.c **** 
  94              		.loc 1 67 19 view .LVU33
ARM GAS  /var/folders/wl/rshn8xbx1dsfj1zgryf4g1240000gn/T//ccPnnP8T.s 			page 5


  95 003e 67EEA67A 		vmul.f32	s15, s15, s13
  66:.//Libraries/CMSIS/DSP/Source/TransformFunctions/arm_rfft_fast_f32.c ****    *pOut++ = 0.5f * ( t1a - t1b );
  96              		.loc 1 66 19 view .LVU34
  97 0042 27EE267A 		vmul.f32	s14, s14, s13
  67:.//Libraries/CMSIS/DSP/Source/TransformFunctions/arm_rfft_fast_f32.c **** 
  98              		.loc 1 67 12 view .LVU35
  99 0046 C2ED017A 		vstr.32	s15, [r2, #4]
 100              	.LVL5:
  66:.//Libraries/CMSIS/DSP/Source/TransformFunctions/arm_rfft_fast_f32.c ****    *pOut++ = 0.5f * ( t1a - t1b );
 101              		.loc 1 66 12 view .LVU36
 102 004a 82ED007A 		vstr.32	s14, [r2]
  67:.//Libraries/CMSIS/DSP/Source/TransformFunctions/arm_rfft_fast_f32.c **** 
 103              		.loc 1 67 4 is_stmt 1 view .LVU37
 104              	.LVL6:
  70:.//Libraries/CMSIS/DSP/Source/TransformFunctions/arm_rfft_fast_f32.c ****    pA += 2;
 105              		.loc 1 70 4 view .LVU38
  71:.//Libraries/CMSIS/DSP/Source/TransformFunctions/arm_rfft_fast_f32.c **** 
 106              		.loc 1 71 4 view .LVU39
 107              	.L2:
  73:.//Libraries/CMSIS/DSP/Source/TransformFunctions/arm_rfft_fast_f32.c ****    {
 108              		.loc 1 73 4 discriminator 1 view .LVU40
  90:.//Libraries/CMSIS/DSP/Source/TransformFunctions/arm_rfft_fast_f32.c ****       xBR = pB[0];
 109              		.loc 1 90 7 discriminator 1 view .LVU41
  93:.//Libraries/CMSIS/DSP/Source/TransformFunctions/arm_rfft_fast_f32.c **** 
 110              		.loc 1 93 11 is_stmt 0 discriminator 1 view .LVU42
 111 004e 55ED015A 		vldr.32	s11, [r5, #-4]
 109:.//Libraries/CMSIS/DSP/Source/TransformFunctions/arm_rfft_fast_f32.c ****       *pOut++ = 0.5f * (xAI - xBI + p1 - p2 ); //xAI
 110:.//Libraries/CMSIS/DSP/Source/TransformFunctions/arm_rfft_fast_f32.c **** 
 111:.//Libraries/CMSIS/DSP/Source/TransformFunctions/arm_rfft_fast_f32.c ****       pA += 2;
 112:.//Libraries/CMSIS/DSP/Source/TransformFunctions/arm_rfft_fast_f32.c ****       pB -= 2;
 113:.//Libraries/CMSIS/DSP/Source/TransformFunctions/arm_rfft_fast_f32.c ****       k--;
 114:.//Libraries/CMSIS/DSP/Source/TransformFunctions/arm_rfft_fast_f32.c ****    } while (k > 0U);
 112              		.loc 1 114 4 discriminator 1 view .LVU43
 113 0052 013E     		subs	r6, r6, #1
 114              	.LVL7:
  90:.//Libraries/CMSIS/DSP/Source/TransformFunctions/arm_rfft_fast_f32.c ****       xBR = pB[0];
 115              		.loc 1 90 11 discriminator 1 view .LVU44
 116 0054 D3ED036A 		vldr.32	s13, [r3, #12]
 117              	.LVL8:
  91:.//Libraries/CMSIS/DSP/Source/TransformFunctions/arm_rfft_fast_f32.c ****       xAR = pA[0];
 118              		.loc 1 91 7 is_stmt 1 discriminator 1 view .LVU45
 119 0058 05F10805 		add	r5, r5, #8
 120              	.LVL9:
  91:.//Libraries/CMSIS/DSP/Source/TransformFunctions/arm_rfft_fast_f32.c ****       xAR = pA[0];
 121              		.loc 1 91 11 is_stmt 0 discriminator 1 view .LVU46
 122 005c D3ED027A 		vldr.32	s15, [r3, #8]
 123              	.LVL10:
  92:.//Libraries/CMSIS/DSP/Source/TransformFunctions/arm_rfft_fast_f32.c ****       xAI = pA[1];
 124              		.loc 1 92 7 is_stmt 1 discriminator 1 view .LVU47
 125 0060 00F10800 		add	r0, r0, #8
  92:.//Libraries/CMSIS/DSP/Source/TransformFunctions/arm_rfft_fast_f32.c ****       xAI = pA[1];
 126              		.loc 1 92 11 is_stmt 0 discriminator 1 view .LVU48
 127 0064 55ED044A 		vldr.32	s9, [r5, #-16]
 128              	.LVL11:
  93:.//Libraries/CMSIS/DSP/Source/TransformFunctions/arm_rfft_fast_f32.c **** 
 129              		.loc 1 93 7 is_stmt 1 discriminator 1 view .LVU49
  95:.//Libraries/CMSIS/DSP/Source/TransformFunctions/arm_rfft_fast_f32.c ****       twI = *pCoeff++;
ARM GAS  /var/folders/wl/rshn8xbx1dsfj1zgryf4g1240000gn/T//ccPnnP8T.s 			page 6


 130              		.loc 1 95 7 discriminator 1 view .LVU50
 109:.//Libraries/CMSIS/DSP/Source/TransformFunctions/arm_rfft_fast_f32.c **** 
 131              		.loc 1 109 29 is_stmt 0 discriminator 1 view .LVU51
 132 0068 35EEE67A 		vsub.f32	s14, s11, s13
  96:.//Libraries/CMSIS/DSP/Source/TransformFunctions/arm_rfft_fast_f32.c **** 
 133              		.loc 1 96 11 discriminator 1 view .LVU52
 134 006c 10ED036A 		vldr.32	s12, [r0, #-12]
  99:.//Libraries/CMSIS/DSP/Source/TransformFunctions/arm_rfft_fast_f32.c **** 
 135              		.loc 1 99 11 discriminator 1 view .LVU53
 136 0070 76EEA56A 		vadd.f32	s13, s13, s11
 137              	.LVL12:
  98:.//Libraries/CMSIS/DSP/Source/TransformFunctions/arm_rfft_fast_f32.c ****       t1b = xBI + xAI ;
 138              		.loc 1 98 11 discriminator 1 view .LVU54
 139 0074 37EEE45A 		vsub.f32	s10, s15, s9
  95:.//Libraries/CMSIS/DSP/Source/TransformFunctions/arm_rfft_fast_f32.c ****       twI = *pCoeff++;
 140              		.loc 1 95 11 discriminator 1 view .LVU55
 141 0078 50ED045A 		vldr.32	s11, [r0, #-16]
 142              	.LVL13:
  96:.//Libraries/CMSIS/DSP/Source/TransformFunctions/arm_rfft_fast_f32.c **** 
 143              		.loc 1 96 7 is_stmt 1 discriminator 1 view .LVU56
  98:.//Libraries/CMSIS/DSP/Source/TransformFunctions/arm_rfft_fast_f32.c ****       t1b = xBI + xAI ;
 144              		.loc 1 98 7 discriminator 1 view .LVU57
  99:.//Libraries/CMSIS/DSP/Source/TransformFunctions/arm_rfft_fast_f32.c **** 
 145              		.loc 1 99 7 discriminator 1 view .LVU58
 103:.//Libraries/CMSIS/DSP/Source/TransformFunctions/arm_rfft_fast_f32.c ****       p1 = twI * t1a;
 146              		.loc 1 103 7 discriminator 1 view .LVU59
 104:.//Libraries/CMSIS/DSP/Source/TransformFunctions/arm_rfft_fast_f32.c ****       p2 = twR * t1b;
 147              		.loc 1 104 7 discriminator 1 view .LVU60
 105:.//Libraries/CMSIS/DSP/Source/TransformFunctions/arm_rfft_fast_f32.c ****       p3 = twI * t1b;
 148              		.loc 1 105 7 discriminator 1 view .LVU61
 106:.//Libraries/CMSIS/DSP/Source/TransformFunctions/arm_rfft_fast_f32.c **** 
 149              		.loc 1 106 7 discriminator 1 view .LVU62
 108:.//Libraries/CMSIS/DSP/Source/TransformFunctions/arm_rfft_fast_f32.c ****       *pOut++ = 0.5f * (xAI - xBI + p1 - p2 ); //xAI
 150              		.loc 1 108 7 discriminator 1 view .LVU63
 108:.//Libraries/CMSIS/DSP/Source/TransformFunctions/arm_rfft_fast_f32.c ****       *pOut++ = 0.5f * (xAI - xBI + p1 - p2 ); //xAI
 151              		.loc 1 108 29 is_stmt 0 discriminator 1 view .LVU64
 152 007c 77EEA47A 		vadd.f32	s15, s15, s9
 153              	.LVL14:
 108:.//Libraries/CMSIS/DSP/Source/TransformFunctions/arm_rfft_fast_f32.c ****       *pOut++ = 0.5f * (xAI - xBI + p1 - p2 ); //xAI
 154              		.loc 1 108 29 discriminator 1 view .LVU65
 155 0080 A3F10803 		sub	r3, r3, #8
 156              	.LVL15:
 108:.//Libraries/CMSIS/DSP/Source/TransformFunctions/arm_rfft_fast_f32.c ****       *pOut++ = 0.5f * (xAI - xBI + p1 - p2 ); //xAI
 157              		.loc 1 108 29 discriminator 1 view .LVU66
 158 0084 04F10804 		add	r4, r4, #8
 109:.//Libraries/CMSIS/DSP/Source/TransformFunctions/arm_rfft_fast_f32.c **** 
 159              		.loc 1 109 35 discriminator 1 view .LVU67
 160 0088 A6EE057A 		vfma.f32	s14, s12, s10
 108:.//Libraries/CMSIS/DSP/Source/TransformFunctions/arm_rfft_fast_f32.c ****       *pOut++ = 0.5f * (xAI - xBI + p1 - p2 ); //xAI
 161              		.loc 1 108 35 discriminator 1 view .LVU68
 162 008c E5EE857A 		vfma.f32	s15, s11, s10
 109:.//Libraries/CMSIS/DSP/Source/TransformFunctions/arm_rfft_fast_f32.c **** 
 163              		.loc 1 109 40 discriminator 1 view .LVU69
 164 0090 A5EEE67A 		vfms.f32	s14, s11, s13
 108:.//Libraries/CMSIS/DSP/Source/TransformFunctions/arm_rfft_fast_f32.c ****       *pOut++ = 0.5f * (xAI - xBI + p1 - p2 ); //xAI
 165              		.loc 1 108 40 discriminator 1 view .LVU70
 166 0094 E6EE267A 		vfma.f32	s15, s12, s13
ARM GAS  /var/folders/wl/rshn8xbx1dsfj1zgryf4g1240000gn/T//ccPnnP8T.s 			page 7


 167              	.LVL16:
 109:.//Libraries/CMSIS/DSP/Source/TransformFunctions/arm_rfft_fast_f32.c **** 
 168              		.loc 1 109 22 discriminator 1 view .LVU71
 169 0098 27EE047A 		vmul.f32	s14, s14, s8
 108:.//Libraries/CMSIS/DSP/Source/TransformFunctions/arm_rfft_fast_f32.c ****       *pOut++ = 0.5f * (xAI - xBI + p1 - p2 ); //xAI
 170              		.loc 1 108 22 discriminator 1 view .LVU72
 171 009c 67EE847A 		vmul.f32	s15, s15, s8
 109:.//Libraries/CMSIS/DSP/Source/TransformFunctions/arm_rfft_fast_f32.c **** 
 172              		.loc 1 109 15 discriminator 1 view .LVU73
 173 00a0 04ED037A 		vstr.32	s14, [r4, #-12]
 174              	.LVL17:
 108:.//Libraries/CMSIS/DSP/Source/TransformFunctions/arm_rfft_fast_f32.c ****       *pOut++ = 0.5f * (xAI - xBI + p1 - p2 ); //xAI
 175              		.loc 1 108 15 discriminator 1 view .LVU74
 176 00a4 44ED047A 		vstr.32	s15, [r4, #-16]
 109:.//Libraries/CMSIS/DSP/Source/TransformFunctions/arm_rfft_fast_f32.c **** 
 177              		.loc 1 109 7 is_stmt 1 discriminator 1 view .LVU75
 178              	.LVL18:
 111:.//Libraries/CMSIS/DSP/Source/TransformFunctions/arm_rfft_fast_f32.c ****       pB -= 2;
 179              		.loc 1 111 7 discriminator 1 view .LVU76
 112:.//Libraries/CMSIS/DSP/Source/TransformFunctions/arm_rfft_fast_f32.c ****       k--;
 180              		.loc 1 112 7 discriminator 1 view .LVU77
 113:.//Libraries/CMSIS/DSP/Source/TransformFunctions/arm_rfft_fast_f32.c ****    } while (k > 0U);
 181              		.loc 1 113 7 discriminator 1 view .LVU78
 182              		.loc 1 114 12 discriminator 1 view .LVU79
 183              		.loc 1 114 4 is_stmt 0 discriminator 1 view .LVU80
 184 00a8 D1D1     		bne	.L2
 115:.//Libraries/CMSIS/DSP/Source/TransformFunctions/arm_rfft_fast_f32.c **** }
 185              		.loc 1 115 1 view .LVU81
 186 00aa 70BC     		pop	{r4, r5, r6}
 187              	.LCFI1:
 188              		.cfi_restore 6
 189              		.cfi_restore 5
 190              		.cfi_restore 4
 191              		.cfi_def_cfa_offset 0
 192 00ac 7047     		bx	lr
 193              		.cfi_endproc
 194              	.LFE145:
 196 00ae 00BF     		.section	.text.merge_rfft_f32,"ax",%progbits
 197              		.align	1
 198              		.p2align 2,,3
 199              		.global	merge_rfft_f32
 200              		.syntax unified
 201              		.thumb
 202              		.thumb_func
 203              		.fpu fpv5-d16
 205              	merge_rfft_f32:
 206              	.LVL19:
 207              	.LFB146:
 116:.//Libraries/CMSIS/DSP/Source/TransformFunctions/arm_rfft_fast_f32.c **** 
 117:.//Libraries/CMSIS/DSP/Source/TransformFunctions/arm_rfft_fast_f32.c **** /* Prepares data for inverse cfft */
 118:.//Libraries/CMSIS/DSP/Source/TransformFunctions/arm_rfft_fast_f32.c **** void merge_rfft_f32(
 119:.//Libraries/CMSIS/DSP/Source/TransformFunctions/arm_rfft_fast_f32.c ****   const arm_rfft_fast_instance_f32 * S,
 120:.//Libraries/CMSIS/DSP/Source/TransformFunctions/arm_rfft_fast_f32.c ****         float32_t * p,
 121:.//Libraries/CMSIS/DSP/Source/TransformFunctions/arm_rfft_fast_f32.c ****         float32_t * pOut)
 122:.//Libraries/CMSIS/DSP/Source/TransformFunctions/arm_rfft_fast_f32.c **** {
 208              		.loc 1 122 1 is_stmt 1 view -0
 209              		.cfi_startproc
ARM GAS  /var/folders/wl/rshn8xbx1dsfj1zgryf4g1240000gn/T//ccPnnP8T.s 			page 8


 210              		@ args = 0, pretend = 0, frame = 0
 211              		@ frame_needed = 0, uses_anonymous_args = 0
 212              		@ link register save eliminated.
 123:.//Libraries/CMSIS/DSP/Source/TransformFunctions/arm_rfft_fast_f32.c ****         uint32_t  k;                                /* Loop Counter */
 124:.//Libraries/CMSIS/DSP/Source/TransformFunctions/arm_rfft_fast_f32.c ****         float32_t twR, twI;                         /* RFFT Twiddle coefficients */
 125:.//Libraries/CMSIS/DSP/Source/TransformFunctions/arm_rfft_fast_f32.c ****   const float32_t *pCoeff = S->pTwiddleRFFT;        /* Points to RFFT Twiddle factors */
 126:.//Libraries/CMSIS/DSP/Source/TransformFunctions/arm_rfft_fast_f32.c ****         float32_t *pA = p;                          /* increasing pointer */
 127:.//Libraries/CMSIS/DSP/Source/TransformFunctions/arm_rfft_fast_f32.c ****         float32_t *pB = p;                          /* decreasing pointer */
 128:.//Libraries/CMSIS/DSP/Source/TransformFunctions/arm_rfft_fast_f32.c ****         float32_t xAR, xAI, xBR, xBI;               /* temporary variables */
 129:.//Libraries/CMSIS/DSP/Source/TransformFunctions/arm_rfft_fast_f32.c ****         float32_t t1a, t1b, r, s, t, u;             /* temporary variables */
 130:.//Libraries/CMSIS/DSP/Source/TransformFunctions/arm_rfft_fast_f32.c **** 
 131:.//Libraries/CMSIS/DSP/Source/TransformFunctions/arm_rfft_fast_f32.c ****    k = (S->Sint).fftLen - 1;
 132:.//Libraries/CMSIS/DSP/Source/TransformFunctions/arm_rfft_fast_f32.c **** 
 133:.//Libraries/CMSIS/DSP/Source/TransformFunctions/arm_rfft_fast_f32.c ****    xAR = pA[0];
 213              		.loc 1 133 8 is_stmt 0 view .LVU83
 214 0000 D1ED007A 		vldr.32	s15, [r1]
 134:.//Libraries/CMSIS/DSP/Source/TransformFunctions/arm_rfft_fast_f32.c ****    xAI = pA[1];
 135:.//Libraries/CMSIS/DSP/Source/TransformFunctions/arm_rfft_fast_f32.c **** 
 136:.//Libraries/CMSIS/DSP/Source/TransformFunctions/arm_rfft_fast_f32.c ****    pCoeff += 2 ;
 137:.//Libraries/CMSIS/DSP/Source/TransformFunctions/arm_rfft_fast_f32.c **** 
 138:.//Libraries/CMSIS/DSP/Source/TransformFunctions/arm_rfft_fast_f32.c ****    *pOut++ = 0.5f * ( xAR + xAI );
 215              		.loc 1 138 19 view .LVU84
 216 0004 B6EE004A 		vmov.f32	s8, #5.0e-1
 123:.//Libraries/CMSIS/DSP/Source/TransformFunctions/arm_rfft_fast_f32.c ****         uint32_t  k;                                /* Loop Counter */
 217              		.loc 1 123 9 is_stmt 1 view .LVU85
 124:.//Libraries/CMSIS/DSP/Source/TransformFunctions/arm_rfft_fast_f32.c ****   const float32_t *pCoeff = S->pTwiddleRFFT;        /* Points to RFFT Twiddle factors */
 218              		.loc 1 124 9 view .LVU86
 125:.//Libraries/CMSIS/DSP/Source/TransformFunctions/arm_rfft_fast_f32.c ****         float32_t *pA = p;                          /* increasing pointer */
 219              		.loc 1 125 3 view .LVU87
 134:.//Libraries/CMSIS/DSP/Source/TransformFunctions/arm_rfft_fast_f32.c ****    xAI = pA[1];
 220              		.loc 1 134 8 is_stmt 0 view .LVU88
 221 0008 D1ED016A 		vldr.32	s13, [r1, #4]
 222              		.loc 1 138 27 view .LVU89
 223 000c 37EEA67A 		vadd.f32	s14, s15, s13
 139:.//Libraries/CMSIS/DSP/Source/TransformFunctions/arm_rfft_fast_f32.c ****    *pOut++ = 0.5f * ( xAR - xAI );
 224              		.loc 1 139 27 view .LVU90
 225 0010 77EEE67A 		vsub.f32	s15, s15, s13
 122:.//Libraries/CMSIS/DSP/Source/TransformFunctions/arm_rfft_fast_f32.c ****         uint32_t  k;                                /* Loop Counter */
 226              		.loc 1 122 1 view .LVU91
 227 0014 10B4     		push	{r4}
 228              	.LCFI2:
 229              		.cfi_def_cfa_offset 4
 230              		.cfi_offset 4, -4
 131:.//Libraries/CMSIS/DSP/Source/TransformFunctions/arm_rfft_fast_f32.c **** 
 231              		.loc 1 131 17 view .LVU92
 232 0016 0488     		ldrh	r4, [r0]
 138:.//Libraries/CMSIS/DSP/Source/TransformFunctions/arm_rfft_fast_f32.c ****    *pOut++ = 0.5f * ( xAR - xAI );
 233              		.loc 1 138 19 view .LVU93
 234 0018 27EE047A 		vmul.f32	s14, s14, s8
 235              		.loc 1 139 19 view .LVU94
 236 001c 67EE847A 		vmul.f32	s15, s15, s8
 125:.//Libraries/CMSIS/DSP/Source/TransformFunctions/arm_rfft_fast_f32.c ****         float32_t *pA = p;                          /* increasing pointer */
 237              		.loc 1 125 20 view .LVU95
 238 0020 4069     		ldr	r0, [r0, #20]
 239              	.LVL20:
 126:.//Libraries/CMSIS/DSP/Source/TransformFunctions/arm_rfft_fast_f32.c ****         float32_t *pB = p;                          /* decreasing pointer */
 240              		.loc 1 126 9 is_stmt 1 view .LVU96
ARM GAS  /var/folders/wl/rshn8xbx1dsfj1zgryf4g1240000gn/T//ccPnnP8T.s 			page 9


 127:.//Libraries/CMSIS/DSP/Source/TransformFunctions/arm_rfft_fast_f32.c ****         float32_t xAR, xAI, xBR, xBI;               /* temporary variables */
 241              		.loc 1 127 9 view .LVU97
 128:.//Libraries/CMSIS/DSP/Source/TransformFunctions/arm_rfft_fast_f32.c ****         float32_t t1a, t1b, r, s, t, u;             /* temporary variables */
 242              		.loc 1 128 9 view .LVU98
 129:.//Libraries/CMSIS/DSP/Source/TransformFunctions/arm_rfft_fast_f32.c **** 
 243              		.loc 1 129 9 view .LVU99
 131:.//Libraries/CMSIS/DSP/Source/TransformFunctions/arm_rfft_fast_f32.c **** 
 244              		.loc 1 131 4 view .LVU100
 131:.//Libraries/CMSIS/DSP/Source/TransformFunctions/arm_rfft_fast_f32.c **** 
 245              		.loc 1 131 25 is_stmt 0 view .LVU101
 246 0022 013C     		subs	r4, r4, #1
 247              	.LVL21:
 133:.//Libraries/CMSIS/DSP/Source/TransformFunctions/arm_rfft_fast_f32.c ****    xAI = pA[1];
 248              		.loc 1 133 4 is_stmt 1 view .LVU102
 134:.//Libraries/CMSIS/DSP/Source/TransformFunctions/arm_rfft_fast_f32.c **** 
 249              		.loc 1 134 4 view .LVU103
 136:.//Libraries/CMSIS/DSP/Source/TransformFunctions/arm_rfft_fast_f32.c **** 
 250              		.loc 1 136 4 view .LVU104
 138:.//Libraries/CMSIS/DSP/Source/TransformFunctions/arm_rfft_fast_f32.c ****    *pOut++ = 0.5f * ( xAR - xAI );
 251              		.loc 1 138 4 view .LVU105
 138:.//Libraries/CMSIS/DSP/Source/TransformFunctions/arm_rfft_fast_f32.c ****    *pOut++ = 0.5f * ( xAR - xAI );
 252              		.loc 1 138 12 is_stmt 0 view .LVU106
 253 0024 82ED007A 		vstr.32	s14, [r2]
 254              		.loc 1 139 4 is_stmt 1 view .LVU107
 255              	.LVL22:
 256              		.loc 1 139 12 is_stmt 0 view .LVU108
 257 0028 C2ED017A 		vstr.32	s15, [r2, #4]
 140:.//Libraries/CMSIS/DSP/Source/TransformFunctions/arm_rfft_fast_f32.c **** 
 141:.//Libraries/CMSIS/DSP/Source/TransformFunctions/arm_rfft_fast_f32.c ****    pB  =  p + 2*k ;
 258              		.loc 1 141 4 is_stmt 1 view .LVU109
 259              	.LVL23:
 142:.//Libraries/CMSIS/DSP/Source/TransformFunctions/arm_rfft_fast_f32.c ****    pA +=  2	   ;
 260              		.loc 1 142 4 view .LVU110
 143:.//Libraries/CMSIS/DSP/Source/TransformFunctions/arm_rfft_fast_f32.c **** 
 144:.//Libraries/CMSIS/DSP/Source/TransformFunctions/arm_rfft_fast_f32.c ****    while (k > 0U)
 261              		.loc 1 144 4 view .LVU111
 262              		.loc 1 144 10 view .LVU112
 263 002c 9CB3     		cbz	r4, .L6
 264 002e E300     		lsls	r3, r4, #3
 265              	.LVL24:
 266              		.loc 1 144 10 is_stmt 0 view .LVU113
 267 0030 1030     		adds	r0, r0, #16
 268 0032 1032     		adds	r2, r2, #16
 269              	.LVL25:
 270              		.loc 1 144 10 view .LVU114
 271 0034 083B     		subs	r3, r3, #8
 272              	.LVL26:
 273              		.loc 1 144 10 view .LVU115
 274 0036 0B44     		add	r3, r3, r1
 275              	.LVL27:
 276              		.loc 1 144 10 view .LVU116
 277 0038 1031     		adds	r1, r1, #16
 278              	.LVL28:
 279              	.L8:
 145:.//Libraries/CMSIS/DSP/Source/TransformFunctions/arm_rfft_fast_f32.c ****    {
 146:.//Libraries/CMSIS/DSP/Source/TransformFunctions/arm_rfft_fast_f32.c ****       /* G is half of the frequency complex spectrum */
 147:.//Libraries/CMSIS/DSP/Source/TransformFunctions/arm_rfft_fast_f32.c ****       //for k = 2:N
ARM GAS  /var/folders/wl/rshn8xbx1dsfj1zgryf4g1240000gn/T//ccPnnP8T.s 			page 10


 148:.//Libraries/CMSIS/DSP/Source/TransformFunctions/arm_rfft_fast_f32.c ****       //    Xk(k) = 1/2 * (G(k) + conj(G(N-k+2)) + Tw(k)*( G(k) - conj(G(N-k+2))));
 149:.//Libraries/CMSIS/DSP/Source/TransformFunctions/arm_rfft_fast_f32.c ****       xBI =   pB[1]    ;
 280              		.loc 1 149 7 is_stmt 1 view .LVU117
 150:.//Libraries/CMSIS/DSP/Source/TransformFunctions/arm_rfft_fast_f32.c ****       xBR =   pB[0]    ;
 151:.//Libraries/CMSIS/DSP/Source/TransformFunctions/arm_rfft_fast_f32.c ****       xAR =  pA[0];
 152:.//Libraries/CMSIS/DSP/Source/TransformFunctions/arm_rfft_fast_f32.c ****       xAI =  pA[1];
 281              		.loc 1 152 11 is_stmt 0 view .LVU118
 282 003a 51ED015A 		vldr.32	s11, [r1, #-4]
 144:.//Libraries/CMSIS/DSP/Source/TransformFunctions/arm_rfft_fast_f32.c ****    {
 283              		.loc 1 144 10 view .LVU119
 284 003e 013C     		subs	r4, r4, #1
 285              	.LVL29:
 149:.//Libraries/CMSIS/DSP/Source/TransformFunctions/arm_rfft_fast_f32.c ****       xBR =   pB[0]    ;
 286              		.loc 1 149 11 view .LVU120
 287 0040 D3ED036A 		vldr.32	s13, [r3, #12]
 288              	.LVL30:
 150:.//Libraries/CMSIS/DSP/Source/TransformFunctions/arm_rfft_fast_f32.c ****       xBR =   pB[0]    ;
 289              		.loc 1 150 7 is_stmt 1 view .LVU121
 290 0044 01F10801 		add	r1, r1, #8
 291              	.LVL31:
 150:.//Libraries/CMSIS/DSP/Source/TransformFunctions/arm_rfft_fast_f32.c ****       xBR =   pB[0]    ;
 292              		.loc 1 150 11 is_stmt 0 view .LVU122
 293 0048 D3ED027A 		vldr.32	s15, [r3, #8]
 294              	.LVL32:
 151:.//Libraries/CMSIS/DSP/Source/TransformFunctions/arm_rfft_fast_f32.c ****       xAI =  pA[1];
 295              		.loc 1 151 7 is_stmt 1 view .LVU123
 296 004c 00F10800 		add	r0, r0, #8
 151:.//Libraries/CMSIS/DSP/Source/TransformFunctions/arm_rfft_fast_f32.c ****       xAI =  pA[1];
 297              		.loc 1 151 11 is_stmt 0 view .LVU124
 298 0050 51ED044A 		vldr.32	s9, [r1, #-16]
 299              	.LVL33:
 300              		.loc 1 152 7 is_stmt 1 view .LVU125
 153:.//Libraries/CMSIS/DSP/Source/TransformFunctions/arm_rfft_fast_f32.c **** 
 154:.//Libraries/CMSIS/DSP/Source/TransformFunctions/arm_rfft_fast_f32.c ****       twR = *pCoeff++;
 301              		.loc 1 154 7 view .LVU126
 155:.//Libraries/CMSIS/DSP/Source/TransformFunctions/arm_rfft_fast_f32.c ****       twI = *pCoeff++;
 156:.//Libraries/CMSIS/DSP/Source/TransformFunctions/arm_rfft_fast_f32.c **** 
 157:.//Libraries/CMSIS/DSP/Source/TransformFunctions/arm_rfft_fast_f32.c ****       t1a = xAR - xBR ;
 158:.//Libraries/CMSIS/DSP/Source/TransformFunctions/arm_rfft_fast_f32.c ****       t1b = xAI + xBI ;
 159:.//Libraries/CMSIS/DSP/Source/TransformFunctions/arm_rfft_fast_f32.c **** 
 160:.//Libraries/CMSIS/DSP/Source/TransformFunctions/arm_rfft_fast_f32.c ****       r = twR * t1a;
 161:.//Libraries/CMSIS/DSP/Source/TransformFunctions/arm_rfft_fast_f32.c ****       s = twI * t1b;
 162:.//Libraries/CMSIS/DSP/Source/TransformFunctions/arm_rfft_fast_f32.c ****       t = twI * t1a;
 163:.//Libraries/CMSIS/DSP/Source/TransformFunctions/arm_rfft_fast_f32.c ****       u = twR * t1b;
 164:.//Libraries/CMSIS/DSP/Source/TransformFunctions/arm_rfft_fast_f32.c **** 
 165:.//Libraries/CMSIS/DSP/Source/TransformFunctions/arm_rfft_fast_f32.c ****       // real(tw * (xA - xB)) = twR * (xAR - xBR) - twI * (xAI - xBI);
 166:.//Libraries/CMSIS/DSP/Source/TransformFunctions/arm_rfft_fast_f32.c ****       // imag(tw * (xA - xB)) = twI * (xAR - xBR) + twR * (xAI - xBI);
 167:.//Libraries/CMSIS/DSP/Source/TransformFunctions/arm_rfft_fast_f32.c ****       *pOut++ = 0.5f * (xAR + xBR - r - s ); //xAR
 168:.//Libraries/CMSIS/DSP/Source/TransformFunctions/arm_rfft_fast_f32.c ****       *pOut++ = 0.5f * (xAI - xBI + t - u ); //xAI
 302              		.loc 1 168 29 is_stmt 0 view .LVU127
 303 0054 35EEE67A 		vsub.f32	s14, s11, s13
 155:.//Libraries/CMSIS/DSP/Source/TransformFunctions/arm_rfft_fast_f32.c ****       twI = *pCoeff++;
 304              		.loc 1 155 11 view .LVU128
 305 0058 10ED036A 		vldr.32	s12, [r0, #-12]
 158:.//Libraries/CMSIS/DSP/Source/TransformFunctions/arm_rfft_fast_f32.c **** 
 306              		.loc 1 158 11 view .LVU129
 307 005c 76EEA56A 		vadd.f32	s13, s13, s11
ARM GAS  /var/folders/wl/rshn8xbx1dsfj1zgryf4g1240000gn/T//ccPnnP8T.s 			page 11


 308              	.LVL34:
 157:.//Libraries/CMSIS/DSP/Source/TransformFunctions/arm_rfft_fast_f32.c ****       t1b = xAI + xBI ;
 309              		.loc 1 157 11 view .LVU130
 310 0060 34EEE75A 		vsub.f32	s10, s9, s15
 154:.//Libraries/CMSIS/DSP/Source/TransformFunctions/arm_rfft_fast_f32.c ****       twI = *pCoeff++;
 311              		.loc 1 154 11 view .LVU131
 312 0064 50ED045A 		vldr.32	s11, [r0, #-16]
 313              	.LVL35:
 155:.//Libraries/CMSIS/DSP/Source/TransformFunctions/arm_rfft_fast_f32.c **** 
 314              		.loc 1 155 7 is_stmt 1 view .LVU132
 157:.//Libraries/CMSIS/DSP/Source/TransformFunctions/arm_rfft_fast_f32.c ****       t1b = xAI + xBI ;
 315              		.loc 1 157 7 view .LVU133
 158:.//Libraries/CMSIS/DSP/Source/TransformFunctions/arm_rfft_fast_f32.c **** 
 316              		.loc 1 158 7 view .LVU134
 160:.//Libraries/CMSIS/DSP/Source/TransformFunctions/arm_rfft_fast_f32.c ****       s = twI * t1b;
 317              		.loc 1 160 7 view .LVU135
 161:.//Libraries/CMSIS/DSP/Source/TransformFunctions/arm_rfft_fast_f32.c ****       t = twI * t1a;
 318              		.loc 1 161 7 view .LVU136
 162:.//Libraries/CMSIS/DSP/Source/TransformFunctions/arm_rfft_fast_f32.c ****       u = twR * t1b;
 319              		.loc 1 162 7 view .LVU137
 163:.//Libraries/CMSIS/DSP/Source/TransformFunctions/arm_rfft_fast_f32.c **** 
 320              		.loc 1 163 7 view .LVU138
 167:.//Libraries/CMSIS/DSP/Source/TransformFunctions/arm_rfft_fast_f32.c ****       *pOut++ = 0.5f * (xAI - xBI + t - u ); //xAI
 321              		.loc 1 167 7 view .LVU139
 167:.//Libraries/CMSIS/DSP/Source/TransformFunctions/arm_rfft_fast_f32.c ****       *pOut++ = 0.5f * (xAI - xBI + t - u ); //xAI
 322              		.loc 1 167 29 is_stmt 0 view .LVU140
 323 0068 77EEA47A 		vadd.f32	s15, s15, s9
 324              	.LVL36:
 167:.//Libraries/CMSIS/DSP/Source/TransformFunctions/arm_rfft_fast_f32.c ****       *pOut++ = 0.5f * (xAI - xBI + t - u ); //xAI
 325              		.loc 1 167 29 view .LVU141
 326 006c A3F10803 		sub	r3, r3, #8
 327              	.LVL37:
 167:.//Libraries/CMSIS/DSP/Source/TransformFunctions/arm_rfft_fast_f32.c ****       *pOut++ = 0.5f * (xAI - xBI + t - u ); //xAI
 328              		.loc 1 167 29 view .LVU142
 329 0070 02F10802 		add	r2, r2, #8
 330              		.loc 1 168 35 view .LVU143
 331 0074 A6EE057A 		vfma.f32	s14, s12, s10
 167:.//Libraries/CMSIS/DSP/Source/TransformFunctions/arm_rfft_fast_f32.c ****       *pOut++ = 0.5f * (xAI - xBI + t - u ); //xAI
 332              		.loc 1 167 35 view .LVU144
 333 0078 E5EEC57A 		vfms.f32	s15, s11, s10
 334              		.loc 1 168 39 view .LVU145
 335 007c A5EEE67A 		vfms.f32	s14, s11, s13
 167:.//Libraries/CMSIS/DSP/Source/TransformFunctions/arm_rfft_fast_f32.c ****       *pOut++ = 0.5f * (xAI - xBI + t - u ); //xAI
 336              		.loc 1 167 39 view .LVU146
 337 0080 E6EE667A 		vfms.f32	s15, s12, s13
 338              	.LVL38:
 339              		.loc 1 168 22 view .LVU147
 340 0084 27EE047A 		vmul.f32	s14, s14, s8
 167:.//Libraries/CMSIS/DSP/Source/TransformFunctions/arm_rfft_fast_f32.c ****       *pOut++ = 0.5f * (xAI - xBI + t - u ); //xAI
 341              		.loc 1 167 22 view .LVU148
 342 0088 67EE847A 		vmul.f32	s15, s15, s8
 343              		.loc 1 168 15 view .LVU149
 344 008c 02ED037A 		vstr.32	s14, [r2, #-12]
 345              	.LVL39:
 167:.//Libraries/CMSIS/DSP/Source/TransformFunctions/arm_rfft_fast_f32.c ****       *pOut++ = 0.5f * (xAI - xBI + t - u ); //xAI
 346              		.loc 1 167 15 view .LVU150
 347 0090 42ED047A 		vstr.32	s15, [r2, #-16]
ARM GAS  /var/folders/wl/rshn8xbx1dsfj1zgryf4g1240000gn/T//ccPnnP8T.s 			page 12


 348              		.loc 1 168 7 is_stmt 1 view .LVU151
 349              	.LVL40:
 169:.//Libraries/CMSIS/DSP/Source/TransformFunctions/arm_rfft_fast_f32.c **** 
 170:.//Libraries/CMSIS/DSP/Source/TransformFunctions/arm_rfft_fast_f32.c ****       pA += 2;
 350              		.loc 1 170 7 view .LVU152
 171:.//Libraries/CMSIS/DSP/Source/TransformFunctions/arm_rfft_fast_f32.c ****       pB -= 2;
 351              		.loc 1 171 7 view .LVU153
 172:.//Libraries/CMSIS/DSP/Source/TransformFunctions/arm_rfft_fast_f32.c ****       k--;
 352              		.loc 1 172 7 view .LVU154
 144:.//Libraries/CMSIS/DSP/Source/TransformFunctions/arm_rfft_fast_f32.c ****    {
 353              		.loc 1 144 10 view .LVU155
 354 0094 D1D1     		bne	.L8
 355              	.LVL41:
 356              	.L6:
 173:.//Libraries/CMSIS/DSP/Source/TransformFunctions/arm_rfft_fast_f32.c ****    }
 174:.//Libraries/CMSIS/DSP/Source/TransformFunctions/arm_rfft_fast_f32.c **** 
 175:.//Libraries/CMSIS/DSP/Source/TransformFunctions/arm_rfft_fast_f32.c **** }
 357              		.loc 1 175 1 is_stmt 0 view .LVU156
 358 0096 5DF8044B 		ldr	r4, [sp], #4
 359              	.LCFI3:
 360              		.cfi_restore 4
 361              		.cfi_def_cfa_offset 0
 362 009a 7047     		bx	lr
 363              		.cfi_endproc
 364              	.LFE146:
 366              		.section	.text.arm_rfft_fast_f32,"ax",%progbits
 367              		.align	1
 368              		.p2align 2,,3
 369              		.global	arm_rfft_fast_f32
 370              		.syntax unified
 371              		.thumb
 372              		.thumb_func
 373              		.fpu fpv5-d16
 375              	arm_rfft_fast_f32:
 376              	.LVL42:
 377              	.LFB147:
 176:.//Libraries/CMSIS/DSP/Source/TransformFunctions/arm_rfft_fast_f32.c **** 
 177:.//Libraries/CMSIS/DSP/Source/TransformFunctions/arm_rfft_fast_f32.c **** /**
 178:.//Libraries/CMSIS/DSP/Source/TransformFunctions/arm_rfft_fast_f32.c ****   @ingroup groupTransforms
 179:.//Libraries/CMSIS/DSP/Source/TransformFunctions/arm_rfft_fast_f32.c **** */
 180:.//Libraries/CMSIS/DSP/Source/TransformFunctions/arm_rfft_fast_f32.c **** 
 181:.//Libraries/CMSIS/DSP/Source/TransformFunctions/arm_rfft_fast_f32.c **** /**
 182:.//Libraries/CMSIS/DSP/Source/TransformFunctions/arm_rfft_fast_f32.c ****   @defgroup RealFFT Real FFT Functions
 183:.//Libraries/CMSIS/DSP/Source/TransformFunctions/arm_rfft_fast_f32.c ****  
 184:.//Libraries/CMSIS/DSP/Source/TransformFunctions/arm_rfft_fast_f32.c ****   @par
 185:.//Libraries/CMSIS/DSP/Source/TransformFunctions/arm_rfft_fast_f32.c ****                    The CMSIS DSP library includes specialized algorithms for computing the
 186:.//Libraries/CMSIS/DSP/Source/TransformFunctions/arm_rfft_fast_f32.c ****                    FFT of real data sequences.  The FFT is defined over complex data but
 187:.//Libraries/CMSIS/DSP/Source/TransformFunctions/arm_rfft_fast_f32.c ****                    in many applications the input is real.  Real FFT algorithms take advantage
 188:.//Libraries/CMSIS/DSP/Source/TransformFunctions/arm_rfft_fast_f32.c ****                    of the symmetry properties of the FFT and have a speed advantage over complex
 189:.//Libraries/CMSIS/DSP/Source/TransformFunctions/arm_rfft_fast_f32.c ****                    algorithms of the same length.
 190:.//Libraries/CMSIS/DSP/Source/TransformFunctions/arm_rfft_fast_f32.c ****   @par
 191:.//Libraries/CMSIS/DSP/Source/TransformFunctions/arm_rfft_fast_f32.c ****                    The Fast RFFT algorith relays on the mixed radix CFFT that save processor usage.
 192:.//Libraries/CMSIS/DSP/Source/TransformFunctions/arm_rfft_fast_f32.c ****   @par
 193:.//Libraries/CMSIS/DSP/Source/TransformFunctions/arm_rfft_fast_f32.c ****                    The real length N forward FFT of a sequence is computed using the steps shown be
 194:.//Libraries/CMSIS/DSP/Source/TransformFunctions/arm_rfft_fast_f32.c ****   @par
 195:.//Libraries/CMSIS/DSP/Source/TransformFunctions/arm_rfft_fast_f32.c ****                    \image html RFFT.gif "Real Fast Fourier Transform"
 196:.//Libraries/CMSIS/DSP/Source/TransformFunctions/arm_rfft_fast_f32.c ****   @par
ARM GAS  /var/folders/wl/rshn8xbx1dsfj1zgryf4g1240000gn/T//ccPnnP8T.s 			page 13


 197:.//Libraries/CMSIS/DSP/Source/TransformFunctions/arm_rfft_fast_f32.c ****                    The real sequence is initially treated as if it were complex to perform a CFFT.
 198:.//Libraries/CMSIS/DSP/Source/TransformFunctions/arm_rfft_fast_f32.c ****                    Later, a processing stage reshapes the data to obtain half of the frequency spec
 199:.//Libraries/CMSIS/DSP/Source/TransformFunctions/arm_rfft_fast_f32.c ****                    in complex format. Except the first complex number that contains the two real nu
 200:.//Libraries/CMSIS/DSP/Source/TransformFunctions/arm_rfft_fast_f32.c ****                    X[0] and X[N/2] all the data is complex. In other words, the first complex sampl
 201:.//Libraries/CMSIS/DSP/Source/TransformFunctions/arm_rfft_fast_f32.c ****                    contains two real values packed.
 202:.//Libraries/CMSIS/DSP/Source/TransformFunctions/arm_rfft_fast_f32.c ****   @par
 203:.//Libraries/CMSIS/DSP/Source/TransformFunctions/arm_rfft_fast_f32.c ****                    The input for the inverse RFFT should keep the same format as the output of the
 204:.//Libraries/CMSIS/DSP/Source/TransformFunctions/arm_rfft_fast_f32.c ****                    forward RFFT. A first processing stage pre-process the data to later perform an
 205:.//Libraries/CMSIS/DSP/Source/TransformFunctions/arm_rfft_fast_f32.c ****                    inverse CFFT.
 206:.//Libraries/CMSIS/DSP/Source/TransformFunctions/arm_rfft_fast_f32.c ****   @par
 207:.//Libraries/CMSIS/DSP/Source/TransformFunctions/arm_rfft_fast_f32.c ****                    \image html RIFFT.gif "Real Inverse Fast Fourier Transform"
 208:.//Libraries/CMSIS/DSP/Source/TransformFunctions/arm_rfft_fast_f32.c ****   @par
 209:.//Libraries/CMSIS/DSP/Source/TransformFunctions/arm_rfft_fast_f32.c ****                    The algorithms for floating-point, Q15, and Q31 data are slightly different
 210:.//Libraries/CMSIS/DSP/Source/TransformFunctions/arm_rfft_fast_f32.c ****                    and we describe each algorithm in turn.
 211:.//Libraries/CMSIS/DSP/Source/TransformFunctions/arm_rfft_fast_f32.c ****   @par           Floating-point
 212:.//Libraries/CMSIS/DSP/Source/TransformFunctions/arm_rfft_fast_f32.c ****                    The main functions are \ref arm_rfft_fast_f32() and \ref arm_rfft_fast_init_f32(
 213:.//Libraries/CMSIS/DSP/Source/TransformFunctions/arm_rfft_fast_f32.c ****                    The older functions \ref arm_rfft_f32() and \ref arm_rfft_init_f32() have been d
 214:.//Libraries/CMSIS/DSP/Source/TransformFunctions/arm_rfft_fast_f32.c ****                    but are still documented.
 215:.//Libraries/CMSIS/DSP/Source/TransformFunctions/arm_rfft_fast_f32.c ****   @par
 216:.//Libraries/CMSIS/DSP/Source/TransformFunctions/arm_rfft_fast_f32.c ****                    The FFT of a real N-point sequence has even symmetry in the frequency domain. 
 217:.//Libraries/CMSIS/DSP/Source/TransformFunctions/arm_rfft_fast_f32.c ****                    The second half of the data equals the conjugate of the first half flipped in fr
 218:.//Libraries/CMSIS/DSP/Source/TransformFunctions/arm_rfft_fast_f32.c ****                    Looking at the data, we see that we can uniquely represent the FFT using only N/
 219:.//Libraries/CMSIS/DSP/Source/TransformFunctions/arm_rfft_fast_f32.c ****                    These are packed into the output array in alternating real and imaginary compone
 220:.//Libraries/CMSIS/DSP/Source/TransformFunctions/arm_rfft_fast_f32.c ****   @par
 221:.//Libraries/CMSIS/DSP/Source/TransformFunctions/arm_rfft_fast_f32.c ****                    X = { real[0], imag[0], real[1], imag[1], real[2], imag[2] ...
 222:.//Libraries/CMSIS/DSP/Source/TransformFunctions/arm_rfft_fast_f32.c ****                    real[(N/2)-1], imag[(N/2)-1 }
 223:.//Libraries/CMSIS/DSP/Source/TransformFunctions/arm_rfft_fast_f32.c ****   @par
 224:.//Libraries/CMSIS/DSP/Source/TransformFunctions/arm_rfft_fast_f32.c ****                    It happens that the first complex number (real[0], imag[0]) is actually
 225:.//Libraries/CMSIS/DSP/Source/TransformFunctions/arm_rfft_fast_f32.c ****                    all real. real[0] represents the DC offset, and imag[0] should be 0.
 226:.//Libraries/CMSIS/DSP/Source/TransformFunctions/arm_rfft_fast_f32.c ****                    (real[1], imag[1]) is the fundamental frequency, (real[2], imag[2]) is
 227:.//Libraries/CMSIS/DSP/Source/TransformFunctions/arm_rfft_fast_f32.c ****                    the first harmonic and so on.
 228:.//Libraries/CMSIS/DSP/Source/TransformFunctions/arm_rfft_fast_f32.c ****   @par
 229:.//Libraries/CMSIS/DSP/Source/TransformFunctions/arm_rfft_fast_f32.c ****                    The real FFT functions pack the frequency domain data in this fashion.
 230:.//Libraries/CMSIS/DSP/Source/TransformFunctions/arm_rfft_fast_f32.c ****                    The forward transform outputs the data in this form and the inverse
 231:.//Libraries/CMSIS/DSP/Source/TransformFunctions/arm_rfft_fast_f32.c ****                    transform expects input data in this form. The function always performs
 232:.//Libraries/CMSIS/DSP/Source/TransformFunctions/arm_rfft_fast_f32.c ****                    the needed bitreversal so that the input and output data is always in
 233:.//Libraries/CMSIS/DSP/Source/TransformFunctions/arm_rfft_fast_f32.c ****                    normal order. The functions support lengths of [32, 64, 128, ..., 4096]
 234:.//Libraries/CMSIS/DSP/Source/TransformFunctions/arm_rfft_fast_f32.c ****                    samples.
 235:.//Libraries/CMSIS/DSP/Source/TransformFunctions/arm_rfft_fast_f32.c ****   @par           Q15 and Q31
 236:.//Libraries/CMSIS/DSP/Source/TransformFunctions/arm_rfft_fast_f32.c ****                    The real algorithms are defined in a similar manner and utilize N/2 complex
 237:.//Libraries/CMSIS/DSP/Source/TransformFunctions/arm_rfft_fast_f32.c ****                    transforms behind the scenes.
 238:.//Libraries/CMSIS/DSP/Source/TransformFunctions/arm_rfft_fast_f32.c ****   @par
 239:.//Libraries/CMSIS/DSP/Source/TransformFunctions/arm_rfft_fast_f32.c ****                    The complex transforms used internally include scaling to prevent fixed-point
 240:.//Libraries/CMSIS/DSP/Source/TransformFunctions/arm_rfft_fast_f32.c ****                    overflows.  The overall scaling equals 1/(fftLen/2).
 241:.//Libraries/CMSIS/DSP/Source/TransformFunctions/arm_rfft_fast_f32.c ****   @par
 242:.//Libraries/CMSIS/DSP/Source/TransformFunctions/arm_rfft_fast_f32.c ****                    A separate instance structure must be defined for each transform used but
 243:.//Libraries/CMSIS/DSP/Source/TransformFunctions/arm_rfft_fast_f32.c ****                    twiddle factor and bit reversal tables can be reused.
 244:.//Libraries/CMSIS/DSP/Source/TransformFunctions/arm_rfft_fast_f32.c ****   @par
 245:.//Libraries/CMSIS/DSP/Source/TransformFunctions/arm_rfft_fast_f32.c ****                    There is also an associated initialization function for each data type.
 246:.//Libraries/CMSIS/DSP/Source/TransformFunctions/arm_rfft_fast_f32.c ****                    The initialization function performs the following operations:
 247:.//Libraries/CMSIS/DSP/Source/TransformFunctions/arm_rfft_fast_f32.c ****                     - Sets the values of the internal structure fields.
 248:.//Libraries/CMSIS/DSP/Source/TransformFunctions/arm_rfft_fast_f32.c ****                     - Initializes twiddle factor table and bit reversal table pointers.
 249:.//Libraries/CMSIS/DSP/Source/TransformFunctions/arm_rfft_fast_f32.c ****                     - Initializes the internal complex FFT data structure.
 250:.//Libraries/CMSIS/DSP/Source/TransformFunctions/arm_rfft_fast_f32.c ****   @par
 251:.//Libraries/CMSIS/DSP/Source/TransformFunctions/arm_rfft_fast_f32.c ****                    Use of the initialization function is optional.
 252:.//Libraries/CMSIS/DSP/Source/TransformFunctions/arm_rfft_fast_f32.c ****                    However, if the initialization function is used, then the instance structure
 253:.//Libraries/CMSIS/DSP/Source/TransformFunctions/arm_rfft_fast_f32.c ****                    cannot be placed into a const data section. To place an instance structure
ARM GAS  /var/folders/wl/rshn8xbx1dsfj1zgryf4g1240000gn/T//ccPnnP8T.s 			page 14


 254:.//Libraries/CMSIS/DSP/Source/TransformFunctions/arm_rfft_fast_f32.c ****                    into a const data section, the instance structure should be manually
 255:.//Libraries/CMSIS/DSP/Source/TransformFunctions/arm_rfft_fast_f32.c ****                    initialized as follows:
 256:.//Libraries/CMSIS/DSP/Source/TransformFunctions/arm_rfft_fast_f32.c ****   <pre>
 257:.//Libraries/CMSIS/DSP/Source/TransformFunctions/arm_rfft_fast_f32.c ****       arm_rfft_instance_q31 S = {fftLenReal, fftLenBy2, ifftFlagR, bitReverseFlagR, twidCoefRModifi
 258:.//Libraries/CMSIS/DSP/Source/TransformFunctions/arm_rfft_fast_f32.c ****       arm_rfft_instance_q15 S = {fftLenReal, fftLenBy2, ifftFlagR, bitReverseFlagR, twidCoefRModifi
 259:.//Libraries/CMSIS/DSP/Source/TransformFunctions/arm_rfft_fast_f32.c ****   </pre>
 260:.//Libraries/CMSIS/DSP/Source/TransformFunctions/arm_rfft_fast_f32.c ****                    where <code>fftLenReal</code> is the length of the real transform;
 261:.//Libraries/CMSIS/DSP/Source/TransformFunctions/arm_rfft_fast_f32.c ****                    <code>fftLenBy2</code> length of  the internal complex transform.
 262:.//Libraries/CMSIS/DSP/Source/TransformFunctions/arm_rfft_fast_f32.c ****                    <code>ifftFlagR</code> Selects forward (=0) or inverse (=1) transform.
 263:.//Libraries/CMSIS/DSP/Source/TransformFunctions/arm_rfft_fast_f32.c ****                    <code>bitReverseFlagR</code> Selects bit reversed output (=0) or normal order
 264:.//Libraries/CMSIS/DSP/Source/TransformFunctions/arm_rfft_fast_f32.c ****                    output (=1).
 265:.//Libraries/CMSIS/DSP/Source/TransformFunctions/arm_rfft_fast_f32.c ****                    <code>twidCoefRModifier</code> stride modifier for the twiddle factor table.
 266:.//Libraries/CMSIS/DSP/Source/TransformFunctions/arm_rfft_fast_f32.c ****                    The value is based on the FFT length;
 267:.//Libraries/CMSIS/DSP/Source/TransformFunctions/arm_rfft_fast_f32.c ****                    <code>pTwiddleAReal</code>points to the A array of twiddle coefficients;
 268:.//Libraries/CMSIS/DSP/Source/TransformFunctions/arm_rfft_fast_f32.c ****                    <code>pTwiddleBReal</code>points to the B array of twiddle coefficients;
 269:.//Libraries/CMSIS/DSP/Source/TransformFunctions/arm_rfft_fast_f32.c ****                    <code>pCfft</code> points to the CFFT Instance structure. The CFFT structure
 270:.//Libraries/CMSIS/DSP/Source/TransformFunctions/arm_rfft_fast_f32.c ****                    must also be initialized.  Refer to arm_cfft_radix4_f32() for details regarding
 271:.//Libraries/CMSIS/DSP/Source/TransformFunctions/arm_rfft_fast_f32.c ****                    static initialization of the complex FFT instance structure.
 272:.//Libraries/CMSIS/DSP/Source/TransformFunctions/arm_rfft_fast_f32.c ****  */
 273:.//Libraries/CMSIS/DSP/Source/TransformFunctions/arm_rfft_fast_f32.c **** 
 274:.//Libraries/CMSIS/DSP/Source/TransformFunctions/arm_rfft_fast_f32.c **** /**
 275:.//Libraries/CMSIS/DSP/Source/TransformFunctions/arm_rfft_fast_f32.c ****   @addtogroup RealFFT
 276:.//Libraries/CMSIS/DSP/Source/TransformFunctions/arm_rfft_fast_f32.c ****   @{
 277:.//Libraries/CMSIS/DSP/Source/TransformFunctions/arm_rfft_fast_f32.c **** */
 278:.//Libraries/CMSIS/DSP/Source/TransformFunctions/arm_rfft_fast_f32.c **** 
 279:.//Libraries/CMSIS/DSP/Source/TransformFunctions/arm_rfft_fast_f32.c **** /**
 280:.//Libraries/CMSIS/DSP/Source/TransformFunctions/arm_rfft_fast_f32.c ****   @brief         Processing function for the floating-point real FFT.
 281:.//Libraries/CMSIS/DSP/Source/TransformFunctions/arm_rfft_fast_f32.c ****   @param[in]     S         points to an arm_rfft_fast_instance_f32 structure
 282:.//Libraries/CMSIS/DSP/Source/TransformFunctions/arm_rfft_fast_f32.c ****   @param[in]     p         points to input buffer
 283:.//Libraries/CMSIS/DSP/Source/TransformFunctions/arm_rfft_fast_f32.c ****   @param[in]     pOut      points to output buffer
 284:.//Libraries/CMSIS/DSP/Source/TransformFunctions/arm_rfft_fast_f32.c ****   @param[in]     ifftFlag
 285:.//Libraries/CMSIS/DSP/Source/TransformFunctions/arm_rfft_fast_f32.c ****                    - value = 0: RFFT
 286:.//Libraries/CMSIS/DSP/Source/TransformFunctions/arm_rfft_fast_f32.c ****                    - value = 1: RIFFT
 287:.//Libraries/CMSIS/DSP/Source/TransformFunctions/arm_rfft_fast_f32.c ****   @return        none
 288:.//Libraries/CMSIS/DSP/Source/TransformFunctions/arm_rfft_fast_f32.c **** */
 289:.//Libraries/CMSIS/DSP/Source/TransformFunctions/arm_rfft_fast_f32.c **** 
 290:.//Libraries/CMSIS/DSP/Source/TransformFunctions/arm_rfft_fast_f32.c **** void arm_rfft_fast_f32(
 291:.//Libraries/CMSIS/DSP/Source/TransformFunctions/arm_rfft_fast_f32.c ****   arm_rfft_fast_instance_f32 * S,
 292:.//Libraries/CMSIS/DSP/Source/TransformFunctions/arm_rfft_fast_f32.c ****   float32_t * p,
 293:.//Libraries/CMSIS/DSP/Source/TransformFunctions/arm_rfft_fast_f32.c ****   float32_t * pOut,
 294:.//Libraries/CMSIS/DSP/Source/TransformFunctions/arm_rfft_fast_f32.c ****   uint8_t ifftFlag)
 295:.//Libraries/CMSIS/DSP/Source/TransformFunctions/arm_rfft_fast_f32.c **** {
 378              		.loc 1 295 1 is_stmt 1 view -0
 379              		.cfi_startproc
 380              		@ args = 0, pretend = 0, frame = 0
 381              		@ frame_needed = 0, uses_anonymous_args = 0
 296:.//Libraries/CMSIS/DSP/Source/TransformFunctions/arm_rfft_fast_f32.c ****    arm_cfft_instance_f32 * Sint = &(S->Sint);
 382              		.loc 1 296 4 view .LVU158
 295:.//Libraries/CMSIS/DSP/Source/TransformFunctions/arm_rfft_fast_f32.c ****    arm_cfft_instance_f32 * Sint = &(S->Sint);
 383              		.loc 1 295 1 is_stmt 0 view .LVU159
 384 0000 2DE9F041 		push	{r4, r5, r6, r7, r8, lr}
 385              	.LCFI4:
 386              		.cfi_def_cfa_offset 24
 387              		.cfi_offset 4, -24
 388              		.cfi_offset 5, -20
 389              		.cfi_offset 6, -16
 390              		.cfi_offset 7, -12
ARM GAS  /var/folders/wl/rshn8xbx1dsfj1zgryf4g1240000gn/T//ccPnnP8T.s 			page 15


 391              		.cfi_offset 8, -8
 392              		.cfi_offset 14, -4
 297:.//Libraries/CMSIS/DSP/Source/TransformFunctions/arm_rfft_fast_f32.c ****    Sint->fftLen = S->fftLenRFFT / 2;
 298:.//Libraries/CMSIS/DSP/Source/TransformFunctions/arm_rfft_fast_f32.c **** 
 299:.//Libraries/CMSIS/DSP/Source/TransformFunctions/arm_rfft_fast_f32.c ****    /* Calculation of Real FFT */
 300:.//Libraries/CMSIS/DSP/Source/TransformFunctions/arm_rfft_fast_f32.c ****    if (ifftFlag)
 393              		.loc 1 300 7 view .LVU160
 394 0004 1D46     		mov	r5, r3
 297:.//Libraries/CMSIS/DSP/Source/TransformFunctions/arm_rfft_fast_f32.c ****    Sint->fftLen = S->fftLenRFFT / 2;
 395              		.loc 1 297 17 view .LVU161
 396 0006 038A     		ldrh	r3, [r0, #16]
 397              	.LVL43:
 295:.//Libraries/CMSIS/DSP/Source/TransformFunctions/arm_rfft_fast_f32.c ****    arm_cfft_instance_f32 * Sint = &(S->Sint);
 398              		.loc 1 295 1 view .LVU162
 399 0008 0446     		mov	r4, r0
 400              	.LVL44:
 297:.//Libraries/CMSIS/DSP/Source/TransformFunctions/arm_rfft_fast_f32.c ****    Sint->fftLen = S->fftLenRFFT / 2;
 401              		.loc 1 297 4 is_stmt 1 view .LVU163
 295:.//Libraries/CMSIS/DSP/Source/TransformFunctions/arm_rfft_fast_f32.c ****    arm_cfft_instance_f32 * Sint = &(S->Sint);
 402              		.loc 1 295 1 is_stmt 0 view .LVU164
 403 000a 1646     		mov	r6, r2
 297:.//Libraries/CMSIS/DSP/Source/TransformFunctions/arm_rfft_fast_f32.c ****    Sint->fftLen = S->fftLenRFFT / 2;
 404              		.loc 1 297 17 view .LVU165
 405 000c 5B08     		lsrs	r3, r3, #1
 406 000e 0380     		strh	r3, [r0]	@ movhi
 407              		.loc 1 300 4 is_stmt 1 view .LVU166
 408              		.loc 1 300 7 is_stmt 0 view .LVU167
 409 0010 4DB1     		cbz	r5, .L15
 301:.//Libraries/CMSIS/DSP/Source/TransformFunctions/arm_rfft_fast_f32.c ****    {
 302:.//Libraries/CMSIS/DSP/Source/TransformFunctions/arm_rfft_fast_f32.c ****       /*  Real FFT compression */
 303:.//Libraries/CMSIS/DSP/Source/TransformFunctions/arm_rfft_fast_f32.c ****       merge_rfft_f32(S, p, pOut);
 410              		.loc 1 303 7 is_stmt 1 view .LVU168
 411 0012 FFF7FEFF 		bl	merge_rfft_f32
 412              	.LVL45:
 304:.//Libraries/CMSIS/DSP/Source/TransformFunctions/arm_rfft_fast_f32.c **** 
 305:.//Libraries/CMSIS/DSP/Source/TransformFunctions/arm_rfft_fast_f32.c ****       /* Complex radix-4 IFFT process */
 306:.//Libraries/CMSIS/DSP/Source/TransformFunctions/arm_rfft_fast_f32.c ****       arm_cfft_f32( Sint, pOut, ifftFlag, 1);
 413              		.loc 1 306 7 view .LVU169
 414 0016 2A46     		mov	r2, r5
 415 0018 3146     		mov	r1, r6
 416 001a 2046     		mov	r0, r4
 417 001c 0123     		movs	r3, #1
 307:.//Libraries/CMSIS/DSP/Source/TransformFunctions/arm_rfft_fast_f32.c ****    }
 308:.//Libraries/CMSIS/DSP/Source/TransformFunctions/arm_rfft_fast_f32.c ****    else
 309:.//Libraries/CMSIS/DSP/Source/TransformFunctions/arm_rfft_fast_f32.c ****    {
 310:.//Libraries/CMSIS/DSP/Source/TransformFunctions/arm_rfft_fast_f32.c ****       /* Calculation of RFFT of input */
 311:.//Libraries/CMSIS/DSP/Source/TransformFunctions/arm_rfft_fast_f32.c ****       arm_cfft_f32( Sint, p, ifftFlag, 1);
 312:.//Libraries/CMSIS/DSP/Source/TransformFunctions/arm_rfft_fast_f32.c **** 
 313:.//Libraries/CMSIS/DSP/Source/TransformFunctions/arm_rfft_fast_f32.c ****       /*  Real FFT extraction */
 314:.//Libraries/CMSIS/DSP/Source/TransformFunctions/arm_rfft_fast_f32.c ****       stage_rfft_f32(S, p, pOut);
 315:.//Libraries/CMSIS/DSP/Source/TransformFunctions/arm_rfft_fast_f32.c ****    }
 316:.//Libraries/CMSIS/DSP/Source/TransformFunctions/arm_rfft_fast_f32.c **** }
 418              		.loc 1 316 1 is_stmt 0 view .LVU170
 419 001e BDE8F041 		pop	{r4, r5, r6, r7, r8, lr}
 420              	.LCFI5:
 421              		.cfi_remember_state
 422              		.cfi_restore 14
ARM GAS  /var/folders/wl/rshn8xbx1dsfj1zgryf4g1240000gn/T//ccPnnP8T.s 			page 16


 423              		.cfi_restore 8
 424              		.cfi_restore 7
 425              		.cfi_restore 6
 426              		.cfi_restore 5
 427              		.cfi_restore 4
 428              		.cfi_def_cfa_offset 0
 429              	.LVL46:
 306:.//Libraries/CMSIS/DSP/Source/TransformFunctions/arm_rfft_fast_f32.c ****    }
 430              		.loc 1 306 7 view .LVU171
 431 0022 FFF7FEBF 		b	arm_cfft_f32
 432              	.LVL47:
 433              	.L15:
 434              	.LCFI6:
 435              		.cfi_restore_state
 306:.//Libraries/CMSIS/DSP/Source/TransformFunctions/arm_rfft_fast_f32.c ****    }
 436              		.loc 1 306 7 view .LVU172
 437 0026 0F46     		mov	r7, r1
 311:.//Libraries/CMSIS/DSP/Source/TransformFunctions/arm_rfft_fast_f32.c **** 
 438              		.loc 1 311 7 is_stmt 1 view .LVU173
 439 0028 2A46     		mov	r2, r5
 440              	.LVL48:
 311:.//Libraries/CMSIS/DSP/Source/TransformFunctions/arm_rfft_fast_f32.c **** 
 441              		.loc 1 311 7 is_stmt 0 view .LVU174
 442 002a 0123     		movs	r3, #1
 443 002c FFF7FEFF 		bl	arm_cfft_f32
 444              	.LVL49:
 314:.//Libraries/CMSIS/DSP/Source/TransformFunctions/arm_rfft_fast_f32.c ****    }
 445              		.loc 1 314 7 is_stmt 1 view .LVU175
 446 0030 3246     		mov	r2, r6
 447 0032 3946     		mov	r1, r7
 448 0034 2046     		mov	r0, r4
 449              		.loc 1 316 1 is_stmt 0 view .LVU176
 450 0036 BDE8F041 		pop	{r4, r5, r6, r7, r8, lr}
 451              	.LCFI7:
 452              		.cfi_restore 14
 453              		.cfi_restore 8
 454              		.cfi_restore 7
 455              		.cfi_restore 6
 456              		.cfi_restore 5
 457              		.cfi_restore 4
 458              		.cfi_def_cfa_offset 0
 459              	.LVL50:
 314:.//Libraries/CMSIS/DSP/Source/TransformFunctions/arm_rfft_fast_f32.c ****    }
 460              		.loc 1 314 7 view .LVU177
 461 003a FFF7FEBF 		b	stage_rfft_f32
 462              	.LVL51:
 314:.//Libraries/CMSIS/DSP/Source/TransformFunctions/arm_rfft_fast_f32.c ****    }
 463              		.loc 1 314 7 view .LVU178
 464              		.cfi_endproc
 465              	.LFE147:
 467 003e 00BF     		.text
 468              	.Letext0:
 469              		.file 2 "/opt/homebrew/Cellar/arm-none-eabi-gcc/9-2019-q4-major/gcc/arm-none-eabi/include/machine/
 470              		.file 3 "/opt/homebrew/Cellar/arm-none-eabi-gcc/9-2019-q4-major/gcc/arm-none-eabi/include/sys/_std
 471              		.file 4 "/opt/homebrew/Cellar/arm-none-eabi-gcc/9-2019-q4-major/gcc/arm-none-eabi/include/sys/lock
 472              		.file 5 "/opt/homebrew/Cellar/arm-none-eabi-gcc/9-2019-q4-major/gcc/arm-none-eabi/include/sys/_typ
 473              		.file 6 "/opt/homebrew/Cellar/arm-none-eabi-gcc/9-2019-q4-major/gcc/lib/gcc/arm-none-eabi/9.2.1/in
ARM GAS  /var/folders/wl/rshn8xbx1dsfj1zgryf4g1240000gn/T//ccPnnP8T.s 			page 17


 474              		.file 7 "/opt/homebrew/Cellar/arm-none-eabi-gcc/9-2019-q4-major/gcc/arm-none-eabi/include/sys/reen
 475              		.file 8 "/opt/homebrew/Cellar/arm-none-eabi-gcc/9-2019-q4-major/gcc/arm-none-eabi/include/math.h"
 476              		.file 9 ".//Libraries/CMSIS/DSP/Include/arm_math.h"
ARM GAS  /var/folders/wl/rshn8xbx1dsfj1zgryf4g1240000gn/T//ccPnnP8T.s 			page 18

