ARM GAS  /var/folders/wl/rshn8xbx1dsfj1zgryf4g1240000gn/T//ccF4KtcA.s 			page 1


   1              		.cpu cortex-m7
   2              		.eabi_attribute 28, 1
   3              		.eabi_attribute 20, 1
   4              		.eabi_attribute 21, 1
   5              		.eabi_attribute 23, 3
   6              		.eabi_attribute 24, 1
   7              		.eabi_attribute 25, 1
   8              		.eabi_attribute 26, 1
   9              		.eabi_attribute 30, 2
  10              		.eabi_attribute 34, 1
  11              		.eabi_attribute 18, 4
  12              		.file	"arm_cfft_radix2_init_f32.c"
  13              		.text
  14              	.Ltext0:
  15              		.cfi_sections	.debug_frame
  16              		.section	.text.arm_cfft_radix2_init_f32,"ax",%progbits
  17              		.align	1
  18              		.p2align 2,,3
  19              		.global	arm_cfft_radix2_init_f32
  20              		.arch armv7e-m
  21              		.syntax unified
  22              		.thumb
  23              		.thumb_func
  24              		.fpu fpv5-d16
  26              	arm_cfft_radix2_init_f32:
  27              	.LVL0:
  28              	.LFB145:
  29              		.file 1 ".//Libraries/CMSIS/DSP/Source/TransformFunctions/arm_cfft_radix2_init_f32.c"
   1:.//Libraries/CMSIS/DSP/Source/TransformFunctions/arm_cfft_radix2_init_f32.c **** /* ----------------------------------------------------------------------
   2:.//Libraries/CMSIS/DSP/Source/TransformFunctions/arm_cfft_radix2_init_f32.c ****  * Project:      CMSIS DSP Library
   3:.//Libraries/CMSIS/DSP/Source/TransformFunctions/arm_cfft_radix2_init_f32.c ****  * Title:        arm_cfft_radix2_init_f32.c
   4:.//Libraries/CMSIS/DSP/Source/TransformFunctions/arm_cfft_radix2_init_f32.c ****  * Description:  Radix-2 Decimation in Frequency Floating-point CFFT & CIFFT Initialization functio
   5:.//Libraries/CMSIS/DSP/Source/TransformFunctions/arm_cfft_radix2_init_f32.c ****  *
   6:.//Libraries/CMSIS/DSP/Source/TransformFunctions/arm_cfft_radix2_init_f32.c ****  * $Date:        18. March 2019
   7:.//Libraries/CMSIS/DSP/Source/TransformFunctions/arm_cfft_radix2_init_f32.c ****  * $Revision:    V1.6.0
   8:.//Libraries/CMSIS/DSP/Source/TransformFunctions/arm_cfft_radix2_init_f32.c ****  *
   9:.//Libraries/CMSIS/DSP/Source/TransformFunctions/arm_cfft_radix2_init_f32.c ****  * Target Processor: Cortex-M cores
  10:.//Libraries/CMSIS/DSP/Source/TransformFunctions/arm_cfft_radix2_init_f32.c ****  * -------------------------------------------------------------------- */
  11:.//Libraries/CMSIS/DSP/Source/TransformFunctions/arm_cfft_radix2_init_f32.c **** /*
  12:.//Libraries/CMSIS/DSP/Source/TransformFunctions/arm_cfft_radix2_init_f32.c ****  * Copyright (C) 2010-2019 ARM Limited or its affiliates. All rights reserved.
  13:.//Libraries/CMSIS/DSP/Source/TransformFunctions/arm_cfft_radix2_init_f32.c ****  *
  14:.//Libraries/CMSIS/DSP/Source/TransformFunctions/arm_cfft_radix2_init_f32.c ****  * SPDX-License-Identifier: Apache-2.0
  15:.//Libraries/CMSIS/DSP/Source/TransformFunctions/arm_cfft_radix2_init_f32.c ****  *
  16:.//Libraries/CMSIS/DSP/Source/TransformFunctions/arm_cfft_radix2_init_f32.c ****  * Licensed under the Apache License, Version 2.0 (the License); you may
  17:.//Libraries/CMSIS/DSP/Source/TransformFunctions/arm_cfft_radix2_init_f32.c ****  * not use this file except in compliance with the License.
  18:.//Libraries/CMSIS/DSP/Source/TransformFunctions/arm_cfft_radix2_init_f32.c ****  * You may obtain a copy of the License at
  19:.//Libraries/CMSIS/DSP/Source/TransformFunctions/arm_cfft_radix2_init_f32.c ****  *
  20:.//Libraries/CMSIS/DSP/Source/TransformFunctions/arm_cfft_radix2_init_f32.c ****  * www.apache.org/licenses/LICENSE-2.0
  21:.//Libraries/CMSIS/DSP/Source/TransformFunctions/arm_cfft_radix2_init_f32.c ****  *
  22:.//Libraries/CMSIS/DSP/Source/TransformFunctions/arm_cfft_radix2_init_f32.c ****  * Unless required by applicable law or agreed to in writing, software
  23:.//Libraries/CMSIS/DSP/Source/TransformFunctions/arm_cfft_radix2_init_f32.c ****  * distributed under the License is distributed on an AS IS BASIS, WITHOUT
  24:.//Libraries/CMSIS/DSP/Source/TransformFunctions/arm_cfft_radix2_init_f32.c ****  * WARRANTIES OR CONDITIONS OF ANY KIND, either express or implied.
  25:.//Libraries/CMSIS/DSP/Source/TransformFunctions/arm_cfft_radix2_init_f32.c ****  * See the License for the specific language governing permissions and
  26:.//Libraries/CMSIS/DSP/Source/TransformFunctions/arm_cfft_radix2_init_f32.c ****  * limitations under the License.
  27:.//Libraries/CMSIS/DSP/Source/TransformFunctions/arm_cfft_radix2_init_f32.c ****  */
  28:.//Libraries/CMSIS/DSP/Source/TransformFunctions/arm_cfft_radix2_init_f32.c **** 
  29:.//Libraries/CMSIS/DSP/Source/TransformFunctions/arm_cfft_radix2_init_f32.c **** #include "arm_math.h"
ARM GAS  /var/folders/wl/rshn8xbx1dsfj1zgryf4g1240000gn/T//ccF4KtcA.s 			page 2


  30:.//Libraries/CMSIS/DSP/Source/TransformFunctions/arm_cfft_radix2_init_f32.c **** #include "arm_common_tables.h"
  31:.//Libraries/CMSIS/DSP/Source/TransformFunctions/arm_cfft_radix2_init_f32.c **** 
  32:.//Libraries/CMSIS/DSP/Source/TransformFunctions/arm_cfft_radix2_init_f32.c **** /**
  33:.//Libraries/CMSIS/DSP/Source/TransformFunctions/arm_cfft_radix2_init_f32.c ****   @ingroup groupTransforms
  34:.//Libraries/CMSIS/DSP/Source/TransformFunctions/arm_cfft_radix2_init_f32.c ****  */
  35:.//Libraries/CMSIS/DSP/Source/TransformFunctions/arm_cfft_radix2_init_f32.c **** 
  36:.//Libraries/CMSIS/DSP/Source/TransformFunctions/arm_cfft_radix2_init_f32.c **** /**
  37:.//Libraries/CMSIS/DSP/Source/TransformFunctions/arm_cfft_radix2_init_f32.c ****   @addtogroup ComplexFFT
  38:.//Libraries/CMSIS/DSP/Source/TransformFunctions/arm_cfft_radix2_init_f32.c ****   @{
  39:.//Libraries/CMSIS/DSP/Source/TransformFunctions/arm_cfft_radix2_init_f32.c ****  */
  40:.//Libraries/CMSIS/DSP/Source/TransformFunctions/arm_cfft_radix2_init_f32.c **** 
  41:.//Libraries/CMSIS/DSP/Source/TransformFunctions/arm_cfft_radix2_init_f32.c **** /**
  42:.//Libraries/CMSIS/DSP/Source/TransformFunctions/arm_cfft_radix2_init_f32.c ****   @brief         Initialization function for the floating-point CFFT/CIFFT.
  43:.//Libraries/CMSIS/DSP/Source/TransformFunctions/arm_cfft_radix2_init_f32.c ****   @deprecated    Do not use this function. It has been superseded by \ref arm_cfft_f32 and will be 
  44:.//Libraries/CMSIS/DSP/Source/TransformFunctions/arm_cfft_radix2_init_f32.c ****   @param[in,out] S              points to an instance of the floating-point CFFT/CIFFT structure
  45:.//Libraries/CMSIS/DSP/Source/TransformFunctions/arm_cfft_radix2_init_f32.c ****   @param[in]     fftLen         length of the FFT
  46:.//Libraries/CMSIS/DSP/Source/TransformFunctions/arm_cfft_radix2_init_f32.c ****   @param[in]     ifftFlag       flag that selects transform direction
  47:.//Libraries/CMSIS/DSP/Source/TransformFunctions/arm_cfft_radix2_init_f32.c ****                    - value = 0: forward transform
  48:.//Libraries/CMSIS/DSP/Source/TransformFunctions/arm_cfft_radix2_init_f32.c ****                    - value = 1: inverse transform
  49:.//Libraries/CMSIS/DSP/Source/TransformFunctions/arm_cfft_radix2_init_f32.c ****   @param[in]     bitReverseFlag flag that enables / disables bit reversal of output
  50:.//Libraries/CMSIS/DSP/Source/TransformFunctions/arm_cfft_radix2_init_f32.c ****                    - value = 0: disables bit reversal of output
  51:.//Libraries/CMSIS/DSP/Source/TransformFunctions/arm_cfft_radix2_init_f32.c ****                    - value = 1: enables bit reversal of output
  52:.//Libraries/CMSIS/DSP/Source/TransformFunctions/arm_cfft_radix2_init_f32.c ****   @return        execution status
  53:.//Libraries/CMSIS/DSP/Source/TransformFunctions/arm_cfft_radix2_init_f32.c ****                    - \ref ARM_MATH_SUCCESS        : Operation successful
  54:.//Libraries/CMSIS/DSP/Source/TransformFunctions/arm_cfft_radix2_init_f32.c ****                    - \ref ARM_MATH_ARGUMENT_ERROR : <code>fftLen</code> is not a supported length
  55:.//Libraries/CMSIS/DSP/Source/TransformFunctions/arm_cfft_radix2_init_f32.c **** 
  56:.//Libraries/CMSIS/DSP/Source/TransformFunctions/arm_cfft_radix2_init_f32.c ****   @par           Details
  57:.//Libraries/CMSIS/DSP/Source/TransformFunctions/arm_cfft_radix2_init_f32.c ****                    The parameter <code>ifftFlag</code> controls whether a forward or inverse transf
  58:.//Libraries/CMSIS/DSP/Source/TransformFunctions/arm_cfft_radix2_init_f32.c ****                    Set(=1) ifftFlag for calculation of CIFFT otherwise  CFFT is calculated
  59:.//Libraries/CMSIS/DSP/Source/TransformFunctions/arm_cfft_radix2_init_f32.c ****   @par
  60:.//Libraries/CMSIS/DSP/Source/TransformFunctions/arm_cfft_radix2_init_f32.c ****                    The parameter <code>bitReverseFlag</code> controls whether output is in normal o
  61:.//Libraries/CMSIS/DSP/Source/TransformFunctions/arm_cfft_radix2_init_f32.c ****                    Set(=1) bitReverseFlag for output to be in normal order otherwise output is in b
  62:.//Libraries/CMSIS/DSP/Source/TransformFunctions/arm_cfft_radix2_init_f32.c ****   @par
  63:.//Libraries/CMSIS/DSP/Source/TransformFunctions/arm_cfft_radix2_init_f32.c ****                    The parameter <code>fftLen</code> Specifies length of CFFT/CIFFT process. Suppor
  64:.//Libraries/CMSIS/DSP/Source/TransformFunctions/arm_cfft_radix2_init_f32.c ****   @par
  65:.//Libraries/CMSIS/DSP/Source/TransformFunctions/arm_cfft_radix2_init_f32.c ****                    This Function also initializes Twiddle factor table pointer and Bit reversal tab
  66:.//Libraries/CMSIS/DSP/Source/TransformFunctions/arm_cfft_radix2_init_f32.c **** */
  67:.//Libraries/CMSIS/DSP/Source/TransformFunctions/arm_cfft_radix2_init_f32.c **** 
  68:.//Libraries/CMSIS/DSP/Source/TransformFunctions/arm_cfft_radix2_init_f32.c **** arm_status arm_cfft_radix2_init_f32(
  69:.//Libraries/CMSIS/DSP/Source/TransformFunctions/arm_cfft_radix2_init_f32.c ****   arm_cfft_radix2_instance_f32 * S,
  70:.//Libraries/CMSIS/DSP/Source/TransformFunctions/arm_cfft_radix2_init_f32.c ****   uint16_t fftLen,
  71:.//Libraries/CMSIS/DSP/Source/TransformFunctions/arm_cfft_radix2_init_f32.c ****   uint8_t ifftFlag,
  72:.//Libraries/CMSIS/DSP/Source/TransformFunctions/arm_cfft_radix2_init_f32.c ****   uint8_t bitReverseFlag)
  73:.//Libraries/CMSIS/DSP/Source/TransformFunctions/arm_cfft_radix2_init_f32.c **** {
  30              		.loc 1 73 1 view -0
  31              		.cfi_startproc
  32              		@ args = 0, pretend = 0, frame = 0
  33              		@ frame_needed = 0, uses_anonymous_args = 0
  34              		@ link register save eliminated.
  74:.//Libraries/CMSIS/DSP/Source/TransformFunctions/arm_cfft_radix2_init_f32.c ****   /*  Initialise the default arm status */
  75:.//Libraries/CMSIS/DSP/Source/TransformFunctions/arm_cfft_radix2_init_f32.c ****   arm_status status = ARM_MATH_SUCCESS;
  35              		.loc 1 75 3 view .LVU1
  76:.//Libraries/CMSIS/DSP/Source/TransformFunctions/arm_cfft_radix2_init_f32.c **** 
  77:.//Libraries/CMSIS/DSP/Source/TransformFunctions/arm_cfft_radix2_init_f32.c ****   /*  Initialise the FFT length */
  78:.//Libraries/CMSIS/DSP/Source/TransformFunctions/arm_cfft_radix2_init_f32.c ****   S->fftLen = fftLen;
  36              		.loc 1 78 3 view .LVU2
  73:.//Libraries/CMSIS/DSP/Source/TransformFunctions/arm_cfft_radix2_init_f32.c ****   /*  Initialise the default arm status */
ARM GAS  /var/folders/wl/rshn8xbx1dsfj1zgryf4g1240000gn/T//ccF4KtcA.s 			page 3


  37              		.loc 1 73 1 is_stmt 0 view .LVU3
  38 0000 10B4     		push	{r4}
  39              	.LCFI0:
  40              		.cfi_def_cfa_offset 4
  41              		.cfi_offset 4, -4
  79:.//Libraries/CMSIS/DSP/Source/TransformFunctions/arm_cfft_radix2_init_f32.c **** 
  80:.//Libraries/CMSIS/DSP/Source/TransformFunctions/arm_cfft_radix2_init_f32.c ****   /*  Initialise the Twiddle coefficient pointer */
  81:.//Libraries/CMSIS/DSP/Source/TransformFunctions/arm_cfft_radix2_init_f32.c ****   S->pTwiddle = (float32_t *) twiddleCoef;
  82:.//Libraries/CMSIS/DSP/Source/TransformFunctions/arm_cfft_radix2_init_f32.c **** 
  83:.//Libraries/CMSIS/DSP/Source/TransformFunctions/arm_cfft_radix2_init_f32.c ****   /*  Initialise the Flag for selection of CFFT or CIFFT */
  84:.//Libraries/CMSIS/DSP/Source/TransformFunctions/arm_cfft_radix2_init_f32.c ****   S->ifftFlag = ifftFlag;
  85:.//Libraries/CMSIS/DSP/Source/TransformFunctions/arm_cfft_radix2_init_f32.c **** 
  86:.//Libraries/CMSIS/DSP/Source/TransformFunctions/arm_cfft_radix2_init_f32.c ****   /*  Initialise the Flag for calculation Bit reversal or not */
  87:.//Libraries/CMSIS/DSP/Source/TransformFunctions/arm_cfft_radix2_init_f32.c ****   S->bitReverseFlag = bitReverseFlag;
  88:.//Libraries/CMSIS/DSP/Source/TransformFunctions/arm_cfft_radix2_init_f32.c **** 
  89:.//Libraries/CMSIS/DSP/Source/TransformFunctions/arm_cfft_radix2_init_f32.c ****   /*  Initializations of structure parameters depending on the FFT length */
  90:.//Libraries/CMSIS/DSP/Source/TransformFunctions/arm_cfft_radix2_init_f32.c ****   switch (S->fftLen)
  42              		.loc 1 90 3 view .LVU4
  43 0002 B1F5807F 		cmp	r1, #256
  81:.//Libraries/CMSIS/DSP/Source/TransformFunctions/arm_cfft_radix2_init_f32.c **** 
  44              		.loc 1 81 15 view .LVU5
  45 0006 494C     		ldr	r4, .L20
  78:.//Libraries/CMSIS/DSP/Source/TransformFunctions/arm_cfft_radix2_init_f32.c **** 
  46              		.loc 1 78 13 view .LVU6
  47 0008 0180     		strh	r1, [r0]	@ movhi
  81:.//Libraries/CMSIS/DSP/Source/TransformFunctions/arm_cfft_radix2_init_f32.c **** 
  48              		.loc 1 81 3 is_stmt 1 view .LVU7
  84:.//Libraries/CMSIS/DSP/Source/TransformFunctions/arm_cfft_radix2_init_f32.c **** 
  49              		.loc 1 84 15 is_stmt 0 view .LVU8
  50 000a 8270     		strb	r2, [r0, #2]
  87:.//Libraries/CMSIS/DSP/Source/TransformFunctions/arm_cfft_radix2_init_f32.c **** 
  51              		.loc 1 87 21 view .LVU9
  52 000c C370     		strb	r3, [r0, #3]
  81:.//Libraries/CMSIS/DSP/Source/TransformFunctions/arm_cfft_radix2_init_f32.c **** 
  53              		.loc 1 81 15 view .LVU10
  54 000e 4460     		str	r4, [r0, #4]
  84:.//Libraries/CMSIS/DSP/Source/TransformFunctions/arm_cfft_radix2_init_f32.c **** 
  55              		.loc 1 84 3 is_stmt 1 view .LVU11
  87:.//Libraries/CMSIS/DSP/Source/TransformFunctions/arm_cfft_radix2_init_f32.c **** 
  56              		.loc 1 87 3 view .LVU12
  57              		.loc 1 90 3 view .LVU13
  58 0010 00F08280 		beq	.L2
  59 0014 26D9     		bls	.L17
  60 0016 B1F5006F 		cmp	r1, #2048
  61 001a 4CD0     		beq	.L10
  62 001c 0FD9     		bls	.L18
  63 001e B1F5805F 		cmp	r1, #4096
  64 0022 42D1     		bne	.L14
  91:.//Libraries/CMSIS/DSP/Source/TransformFunctions/arm_cfft_radix2_init_f32.c ****   {
  92:.//Libraries/CMSIS/DSP/Source/TransformFunctions/arm_cfft_radix2_init_f32.c **** 
  93:.//Libraries/CMSIS/DSP/Source/TransformFunctions/arm_cfft_radix2_init_f32.c ****   case 4096U:
  94:.//Libraries/CMSIS/DSP/Source/TransformFunctions/arm_cfft_radix2_init_f32.c ****     /*  Initializations of structure parameters for 4096 point FFT */
  95:.//Libraries/CMSIS/DSP/Source/TransformFunctions/arm_cfft_radix2_init_f32.c **** 
  96:.//Libraries/CMSIS/DSP/Source/TransformFunctions/arm_cfft_radix2_init_f32.c ****     /*  Initialise the twiddle coef modifier value */
  97:.//Libraries/CMSIS/DSP/Source/TransformFunctions/arm_cfft_radix2_init_f32.c ****     S->twidCoefModifier = 1U;
  65              		.loc 1 97 5 view .LVU14
  98:.//Libraries/CMSIS/DSP/Source/TransformFunctions/arm_cfft_radix2_init_f32.c ****     /*  Initialise the bit reversal table modifier */
ARM GAS  /var/folders/wl/rshn8xbx1dsfj1zgryf4g1240000gn/T//ccF4KtcA.s 			page 4


  99:.//Libraries/CMSIS/DSP/Source/TransformFunctions/arm_cfft_radix2_init_f32.c ****     S->bitRevFactor = 1U;
  66              		.loc 1 99 5 view .LVU15
 100:.//Libraries/CMSIS/DSP/Source/TransformFunctions/arm_cfft_radix2_init_f32.c ****     /*  Initialise the bit reversal table pointer */
 101:.//Libraries/CMSIS/DSP/Source/TransformFunctions/arm_cfft_radix2_init_f32.c ****     S->pBitRevTable = (uint16_t *) armBitRevTable;
  67              		.loc 1 101 5 view .LVU16
  68              		.loc 1 101 21 is_stmt 0 view .LVU17
  69 0024 424C     		ldr	r4, .L20+4
  97:.//Libraries/CMSIS/DSP/Source/TransformFunctions/arm_cfft_radix2_init_f32.c ****     /*  Initialise the bit reversal table modifier */
  70              		.loc 1 97 25 view .LVU18
  71 0026 4FF00111 		mov	r1, #65537
  72              	.LVL1:
 102:.//Libraries/CMSIS/DSP/Source/TransformFunctions/arm_cfft_radix2_init_f32.c ****     /*  Initialise the 1/fftLen Value */
 103:.//Libraries/CMSIS/DSP/Source/TransformFunctions/arm_cfft_radix2_init_f32.c ****     S->onebyfftLen = 0.000244140625;
  73              		.loc 1 103 20 view .LVU19
  74 002a 4FF06652 		mov	r2, #964689920
  75              	.LVL2:
  75:.//Libraries/CMSIS/DSP/Source/TransformFunctions/arm_cfft_radix2_init_f32.c **** 
  76              		.loc 1 75 14 view .LVU20
  77 002e 0023     		movs	r3, #0
  78              	.LVL3:
  97:.//Libraries/CMSIS/DSP/Source/TransformFunctions/arm_cfft_radix2_init_f32.c ****     /*  Initialise the bit reversal table modifier */
  79              		.loc 1 97 25 view .LVU21
  80 0030 C0E90241 		strd	r4, r1, [r0, #8]
  81              		.loc 1 103 20 view .LVU22
  82 0034 0261     		str	r2, [r0, #16]	@ float
 104:.//Libraries/CMSIS/DSP/Source/TransformFunctions/arm_cfft_radix2_init_f32.c ****     break;
  83              		.loc 1 104 5 is_stmt 1 view .LVU23
  84              	.L8:
  85              	.LVL4:
 105:.//Libraries/CMSIS/DSP/Source/TransformFunctions/arm_cfft_radix2_init_f32.c **** 
 106:.//Libraries/CMSIS/DSP/Source/TransformFunctions/arm_cfft_radix2_init_f32.c ****   case 2048U:
 107:.//Libraries/CMSIS/DSP/Source/TransformFunctions/arm_cfft_radix2_init_f32.c ****     /*  Initializations of structure parameters for 2048 point FFT */
 108:.//Libraries/CMSIS/DSP/Source/TransformFunctions/arm_cfft_radix2_init_f32.c **** 
 109:.//Libraries/CMSIS/DSP/Source/TransformFunctions/arm_cfft_radix2_init_f32.c ****     /*  Initialise the twiddle coef modifier value */
 110:.//Libraries/CMSIS/DSP/Source/TransformFunctions/arm_cfft_radix2_init_f32.c ****     S->twidCoefModifier = 2U;
 111:.//Libraries/CMSIS/DSP/Source/TransformFunctions/arm_cfft_radix2_init_f32.c ****     /*  Initialise the bit reversal table modifier */
 112:.//Libraries/CMSIS/DSP/Source/TransformFunctions/arm_cfft_radix2_init_f32.c ****     S->bitRevFactor = 2U;
 113:.//Libraries/CMSIS/DSP/Source/TransformFunctions/arm_cfft_radix2_init_f32.c ****     /*  Initialise the bit reversal table pointer */
 114:.//Libraries/CMSIS/DSP/Source/TransformFunctions/arm_cfft_radix2_init_f32.c ****     S->pBitRevTable = (uint16_t *) & armBitRevTable[1];
 115:.//Libraries/CMSIS/DSP/Source/TransformFunctions/arm_cfft_radix2_init_f32.c ****     /*  Initialise the 1/fftLen Value */
 116:.//Libraries/CMSIS/DSP/Source/TransformFunctions/arm_cfft_radix2_init_f32.c ****     S->onebyfftLen = 0.00048828125;
 117:.//Libraries/CMSIS/DSP/Source/TransformFunctions/arm_cfft_radix2_init_f32.c ****     break;
 118:.//Libraries/CMSIS/DSP/Source/TransformFunctions/arm_cfft_radix2_init_f32.c **** 
 119:.//Libraries/CMSIS/DSP/Source/TransformFunctions/arm_cfft_radix2_init_f32.c ****   case 1024U:
 120:.//Libraries/CMSIS/DSP/Source/TransformFunctions/arm_cfft_radix2_init_f32.c ****     /*  Initializations of structure parameters for 1024 point FFT */
 121:.//Libraries/CMSIS/DSP/Source/TransformFunctions/arm_cfft_radix2_init_f32.c **** 
 122:.//Libraries/CMSIS/DSP/Source/TransformFunctions/arm_cfft_radix2_init_f32.c ****     /*  Initialise the twiddle coef modifier value */
 123:.//Libraries/CMSIS/DSP/Source/TransformFunctions/arm_cfft_radix2_init_f32.c ****     S->twidCoefModifier = 4U;
 124:.//Libraries/CMSIS/DSP/Source/TransformFunctions/arm_cfft_radix2_init_f32.c ****     /*  Initialise the bit reversal table modifier */
 125:.//Libraries/CMSIS/DSP/Source/TransformFunctions/arm_cfft_radix2_init_f32.c ****     S->bitRevFactor = 4U;
 126:.//Libraries/CMSIS/DSP/Source/TransformFunctions/arm_cfft_radix2_init_f32.c ****     /*  Initialise the bit reversal table pointer */
 127:.//Libraries/CMSIS/DSP/Source/TransformFunctions/arm_cfft_radix2_init_f32.c ****     S->pBitRevTable = (uint16_t *) & armBitRevTable[3];
 128:.//Libraries/CMSIS/DSP/Source/TransformFunctions/arm_cfft_radix2_init_f32.c ****     /*  Initialise the 1/fftLen Value */
 129:.//Libraries/CMSIS/DSP/Source/TransformFunctions/arm_cfft_radix2_init_f32.c ****     S->onebyfftLen = 0.0009765625f;
 130:.//Libraries/CMSIS/DSP/Source/TransformFunctions/arm_cfft_radix2_init_f32.c ****     break;
 131:.//Libraries/CMSIS/DSP/Source/TransformFunctions/arm_cfft_radix2_init_f32.c **** 
 132:.//Libraries/CMSIS/DSP/Source/TransformFunctions/arm_cfft_radix2_init_f32.c ****   case 512U:
ARM GAS  /var/folders/wl/rshn8xbx1dsfj1zgryf4g1240000gn/T//ccF4KtcA.s 			page 5


 133:.//Libraries/CMSIS/DSP/Source/TransformFunctions/arm_cfft_radix2_init_f32.c ****     /*  Initializations of structure parameters for 512 point FFT */
 134:.//Libraries/CMSIS/DSP/Source/TransformFunctions/arm_cfft_radix2_init_f32.c **** 
 135:.//Libraries/CMSIS/DSP/Source/TransformFunctions/arm_cfft_radix2_init_f32.c ****     /*  Initialise the twiddle coef modifier value */
 136:.//Libraries/CMSIS/DSP/Source/TransformFunctions/arm_cfft_radix2_init_f32.c ****     S->twidCoefModifier = 8U;
 137:.//Libraries/CMSIS/DSP/Source/TransformFunctions/arm_cfft_radix2_init_f32.c ****     /*  Initialise the bit reversal table modifier */
 138:.//Libraries/CMSIS/DSP/Source/TransformFunctions/arm_cfft_radix2_init_f32.c ****     S->bitRevFactor = 8U;
 139:.//Libraries/CMSIS/DSP/Source/TransformFunctions/arm_cfft_radix2_init_f32.c ****     /*  Initialise the bit reversal table pointer */
 140:.//Libraries/CMSIS/DSP/Source/TransformFunctions/arm_cfft_radix2_init_f32.c ****     S->pBitRevTable = (uint16_t *) & armBitRevTable[7];
 141:.//Libraries/CMSIS/DSP/Source/TransformFunctions/arm_cfft_radix2_init_f32.c ****     /*  Initialise the 1/fftLen Value */
 142:.//Libraries/CMSIS/DSP/Source/TransformFunctions/arm_cfft_radix2_init_f32.c ****     S->onebyfftLen = 0.001953125;
 143:.//Libraries/CMSIS/DSP/Source/TransformFunctions/arm_cfft_radix2_init_f32.c ****     break;
 144:.//Libraries/CMSIS/DSP/Source/TransformFunctions/arm_cfft_radix2_init_f32.c **** 
 145:.//Libraries/CMSIS/DSP/Source/TransformFunctions/arm_cfft_radix2_init_f32.c ****   case 256U:
 146:.//Libraries/CMSIS/DSP/Source/TransformFunctions/arm_cfft_radix2_init_f32.c ****     /*  Initializations of structure parameters for 256 point FFT */
 147:.//Libraries/CMSIS/DSP/Source/TransformFunctions/arm_cfft_radix2_init_f32.c ****     S->twidCoefModifier = 16U;
 148:.//Libraries/CMSIS/DSP/Source/TransformFunctions/arm_cfft_radix2_init_f32.c ****     S->bitRevFactor = 16U;
 149:.//Libraries/CMSIS/DSP/Source/TransformFunctions/arm_cfft_radix2_init_f32.c ****     S->pBitRevTable = (uint16_t *) & armBitRevTable[15];
 150:.//Libraries/CMSIS/DSP/Source/TransformFunctions/arm_cfft_radix2_init_f32.c ****     S->onebyfftLen = 0.00390625f;
 151:.//Libraries/CMSIS/DSP/Source/TransformFunctions/arm_cfft_radix2_init_f32.c ****     break;
 152:.//Libraries/CMSIS/DSP/Source/TransformFunctions/arm_cfft_radix2_init_f32.c **** 
 153:.//Libraries/CMSIS/DSP/Source/TransformFunctions/arm_cfft_radix2_init_f32.c ****   case 128U:
 154:.//Libraries/CMSIS/DSP/Source/TransformFunctions/arm_cfft_radix2_init_f32.c ****     /*  Initializations of structure parameters for 128 point FFT */
 155:.//Libraries/CMSIS/DSP/Source/TransformFunctions/arm_cfft_radix2_init_f32.c ****     S->twidCoefModifier = 32U;
 156:.//Libraries/CMSIS/DSP/Source/TransformFunctions/arm_cfft_radix2_init_f32.c ****     S->bitRevFactor = 32U;
 157:.//Libraries/CMSIS/DSP/Source/TransformFunctions/arm_cfft_radix2_init_f32.c ****     S->pBitRevTable = (uint16_t *) & armBitRevTable[31];
 158:.//Libraries/CMSIS/DSP/Source/TransformFunctions/arm_cfft_radix2_init_f32.c ****     S->onebyfftLen = 0.0078125;
 159:.//Libraries/CMSIS/DSP/Source/TransformFunctions/arm_cfft_radix2_init_f32.c ****     break;
 160:.//Libraries/CMSIS/DSP/Source/TransformFunctions/arm_cfft_radix2_init_f32.c **** 
 161:.//Libraries/CMSIS/DSP/Source/TransformFunctions/arm_cfft_radix2_init_f32.c ****   case 64U:
 162:.//Libraries/CMSIS/DSP/Source/TransformFunctions/arm_cfft_radix2_init_f32.c ****     /*  Initializations of structure parameters for 64 point FFT */
 163:.//Libraries/CMSIS/DSP/Source/TransformFunctions/arm_cfft_radix2_init_f32.c ****     S->twidCoefModifier = 64U;
 164:.//Libraries/CMSIS/DSP/Source/TransformFunctions/arm_cfft_radix2_init_f32.c ****     S->bitRevFactor = 64U;
 165:.//Libraries/CMSIS/DSP/Source/TransformFunctions/arm_cfft_radix2_init_f32.c ****     S->pBitRevTable = (uint16_t *) & armBitRevTable[63];
 166:.//Libraries/CMSIS/DSP/Source/TransformFunctions/arm_cfft_radix2_init_f32.c ****     S->onebyfftLen = 0.015625f;
 167:.//Libraries/CMSIS/DSP/Source/TransformFunctions/arm_cfft_radix2_init_f32.c ****     break;
 168:.//Libraries/CMSIS/DSP/Source/TransformFunctions/arm_cfft_radix2_init_f32.c **** 
 169:.//Libraries/CMSIS/DSP/Source/TransformFunctions/arm_cfft_radix2_init_f32.c ****   case 32U:
 170:.//Libraries/CMSIS/DSP/Source/TransformFunctions/arm_cfft_radix2_init_f32.c ****     /*  Initializations of structure parameters for 64 point FFT */
 171:.//Libraries/CMSIS/DSP/Source/TransformFunctions/arm_cfft_radix2_init_f32.c ****     S->twidCoefModifier = 128U;
 172:.//Libraries/CMSIS/DSP/Source/TransformFunctions/arm_cfft_radix2_init_f32.c ****     S->bitRevFactor = 128U;
 173:.//Libraries/CMSIS/DSP/Source/TransformFunctions/arm_cfft_radix2_init_f32.c ****     S->pBitRevTable = (uint16_t *) & armBitRevTable[127];
 174:.//Libraries/CMSIS/DSP/Source/TransformFunctions/arm_cfft_radix2_init_f32.c ****     S->onebyfftLen = 0.03125;
 175:.//Libraries/CMSIS/DSP/Source/TransformFunctions/arm_cfft_radix2_init_f32.c ****     break;
 176:.//Libraries/CMSIS/DSP/Source/TransformFunctions/arm_cfft_radix2_init_f32.c **** 
 177:.//Libraries/CMSIS/DSP/Source/TransformFunctions/arm_cfft_radix2_init_f32.c ****   case 16U:
 178:.//Libraries/CMSIS/DSP/Source/TransformFunctions/arm_cfft_radix2_init_f32.c ****     /*  Initializations of structure parameters for 16 point FFT */
 179:.//Libraries/CMSIS/DSP/Source/TransformFunctions/arm_cfft_radix2_init_f32.c ****     S->twidCoefModifier = 256U;
 180:.//Libraries/CMSIS/DSP/Source/TransformFunctions/arm_cfft_radix2_init_f32.c ****     S->bitRevFactor = 256U;
 181:.//Libraries/CMSIS/DSP/Source/TransformFunctions/arm_cfft_radix2_init_f32.c ****     S->pBitRevTable = (uint16_t *) & armBitRevTable[255];
 182:.//Libraries/CMSIS/DSP/Source/TransformFunctions/arm_cfft_radix2_init_f32.c ****     S->onebyfftLen = 0.0625f;
 183:.//Libraries/CMSIS/DSP/Source/TransformFunctions/arm_cfft_radix2_init_f32.c ****     break;
 184:.//Libraries/CMSIS/DSP/Source/TransformFunctions/arm_cfft_radix2_init_f32.c **** 
 185:.//Libraries/CMSIS/DSP/Source/TransformFunctions/arm_cfft_radix2_init_f32.c **** 
 186:.//Libraries/CMSIS/DSP/Source/TransformFunctions/arm_cfft_radix2_init_f32.c ****   default:
 187:.//Libraries/CMSIS/DSP/Source/TransformFunctions/arm_cfft_radix2_init_f32.c ****     /*  Reporting argument error if fftSize is not valid value */
 188:.//Libraries/CMSIS/DSP/Source/TransformFunctions/arm_cfft_radix2_init_f32.c ****     status = ARM_MATH_ARGUMENT_ERROR;
 189:.//Libraries/CMSIS/DSP/Source/TransformFunctions/arm_cfft_radix2_init_f32.c ****     break;
ARM GAS  /var/folders/wl/rshn8xbx1dsfj1zgryf4g1240000gn/T//ccF4KtcA.s 			page 6


 190:.//Libraries/CMSIS/DSP/Source/TransformFunctions/arm_cfft_radix2_init_f32.c ****   }
 191:.//Libraries/CMSIS/DSP/Source/TransformFunctions/arm_cfft_radix2_init_f32.c **** 
 192:.//Libraries/CMSIS/DSP/Source/TransformFunctions/arm_cfft_radix2_init_f32.c ****   return (status);
  86              		.loc 1 192 3 view .LVU24
 193:.//Libraries/CMSIS/DSP/Source/TransformFunctions/arm_cfft_radix2_init_f32.c **** }
  87              		.loc 1 193 1 is_stmt 0 view .LVU25
  88 0036 1846     		mov	r0, r3
  89              	.LVL5:
  90              		.loc 1 193 1 view .LVU26
  91 0038 5DF8044B 		ldr	r4, [sp], #4
  92              	.LCFI1:
  93              		.cfi_remember_state
  94              		.cfi_restore 4
  95              		.cfi_def_cfa_offset 0
  96 003c 7047     		bx	lr
  97              	.LVL6:
  98              	.L18:
  99              	.LCFI2:
 100              		.cfi_restore_state
  90:.//Libraries/CMSIS/DSP/Source/TransformFunctions/arm_cfft_radix2_init_f32.c ****   {
 101              		.loc 1 90 3 view .LVU27
 102 003e B1F5007F 		cmp	r1, #512
 103 0042 45D0     		beq	.L12
 104 0044 B1F5806F 		cmp	r1, #1024
 105 0048 2FD1     		bne	.L14
 123:.//Libraries/CMSIS/DSP/Source/TransformFunctions/arm_cfft_radix2_init_f32.c ****     /*  Initialise the bit reversal table modifier */
 106              		.loc 1 123 5 is_stmt 1 view .LVU28
 125:.//Libraries/CMSIS/DSP/Source/TransformFunctions/arm_cfft_radix2_init_f32.c ****     /*  Initialise the bit reversal table pointer */
 107              		.loc 1 125 5 view .LVU29
 127:.//Libraries/CMSIS/DSP/Source/TransformFunctions/arm_cfft_radix2_init_f32.c ****     /*  Initialise the 1/fftLen Value */
 108              		.loc 1 127 5 view .LVU30
 127:.//Libraries/CMSIS/DSP/Source/TransformFunctions/arm_cfft_radix2_init_f32.c ****     /*  Initialise the 1/fftLen Value */
 109              		.loc 1 127 21 is_stmt 0 view .LVU31
 110 004a 3A4C     		ldr	r4, .L20+8
 123:.//Libraries/CMSIS/DSP/Source/TransformFunctions/arm_cfft_radix2_init_f32.c ****     /*  Initialise the bit reversal table modifier */
 111              		.loc 1 123 25 view .LVU32
 112 004c 4FF00411 		mov	r1, #262148
 113              	.LVL7:
 129:.//Libraries/CMSIS/DSP/Source/TransformFunctions/arm_cfft_radix2_init_f32.c ****     break;
 114              		.loc 1 129 20 view .LVU33
 115 0050 4FF06A52 		mov	r2, #981467136
 116              	.LVL8:
  75:.//Libraries/CMSIS/DSP/Source/TransformFunctions/arm_cfft_radix2_init_f32.c **** 
 117              		.loc 1 75 14 view .LVU34
 118 0054 0023     		movs	r3, #0
 119              	.LVL9:
 123:.//Libraries/CMSIS/DSP/Source/TransformFunctions/arm_cfft_radix2_init_f32.c ****     /*  Initialise the bit reversal table modifier */
 120              		.loc 1 123 25 view .LVU35
 121 0056 C0E90241 		strd	r4, r1, [r0, #8]
 129:.//Libraries/CMSIS/DSP/Source/TransformFunctions/arm_cfft_radix2_init_f32.c ****     break;
 122              		.loc 1 129 20 view .LVU36
 123 005a 0261     		str	r2, [r0, #16]	@ float
 130:.//Libraries/CMSIS/DSP/Source/TransformFunctions/arm_cfft_radix2_init_f32.c **** 
 124              		.loc 1 130 5 is_stmt 1 view .LVU37
 125              	.LVL10:
 192:.//Libraries/CMSIS/DSP/Source/TransformFunctions/arm_cfft_radix2_init_f32.c **** }
 126              		.loc 1 192 3 view .LVU38
ARM GAS  /var/folders/wl/rshn8xbx1dsfj1zgryf4g1240000gn/T//ccF4KtcA.s 			page 7


 127              		.loc 1 193 1 is_stmt 0 view .LVU39
 128 005c 1846     		mov	r0, r3
 129              	.LVL11:
 130              		.loc 1 193 1 view .LVU40
 131 005e 5DF8044B 		ldr	r4, [sp], #4
 132              	.LCFI3:
 133              		.cfi_remember_state
 134              		.cfi_restore 4
 135              		.cfi_def_cfa_offset 0
 136 0062 7047     		bx	lr
 137              	.LVL12:
 138              	.L17:
 139              	.LCFI4:
 140              		.cfi_restore_state
  90:.//Libraries/CMSIS/DSP/Source/TransformFunctions/arm_cfft_radix2_init_f32.c ****   {
 141              		.loc 1 90 3 view .LVU41
 142 0064 4029     		cmp	r1, #64
 143 0066 40D0     		beq	.L4
 144 0068 0ED9     		bls	.L19
 145 006a 8029     		cmp	r1, #128
 146 006c 1DD1     		bne	.L14
 155:.//Libraries/CMSIS/DSP/Source/TransformFunctions/arm_cfft_radix2_init_f32.c ****     S->bitRevFactor = 32U;
 147              		.loc 1 155 5 is_stmt 1 view .LVU42
 156:.//Libraries/CMSIS/DSP/Source/TransformFunctions/arm_cfft_radix2_init_f32.c ****     S->pBitRevTable = (uint16_t *) & armBitRevTable[31];
 148              		.loc 1 156 5 view .LVU43
 157:.//Libraries/CMSIS/DSP/Source/TransformFunctions/arm_cfft_radix2_init_f32.c ****     S->onebyfftLen = 0.0078125;
 149              		.loc 1 157 5 view .LVU44
 157:.//Libraries/CMSIS/DSP/Source/TransformFunctions/arm_cfft_radix2_init_f32.c ****     S->onebyfftLen = 0.0078125;
 150              		.loc 1 157 21 is_stmt 0 view .LVU45
 151 006e 324C     		ldr	r4, .L20+12
 155:.//Libraries/CMSIS/DSP/Source/TransformFunctions/arm_cfft_radix2_init_f32.c ****     S->bitRevFactor = 32U;
 152              		.loc 1 155 25 view .LVU46
 153 0070 4FF02011 		mov	r1, #2097184
 154              	.LVL13:
 158:.//Libraries/CMSIS/DSP/Source/TransformFunctions/arm_cfft_radix2_init_f32.c ****     break;
 155              		.loc 1 158 20 view .LVU47
 156 0074 4FF07052 		mov	r2, #1006632960
 157              	.LVL14:
  75:.//Libraries/CMSIS/DSP/Source/TransformFunctions/arm_cfft_radix2_init_f32.c **** 
 158              		.loc 1 75 14 view .LVU48
 159 0078 0023     		movs	r3, #0
 160              	.LVL15:
 155:.//Libraries/CMSIS/DSP/Source/TransformFunctions/arm_cfft_radix2_init_f32.c ****     S->bitRevFactor = 32U;
 161              		.loc 1 155 25 view .LVU49
 162 007a C0E90241 		strd	r4, r1, [r0, #8]
 158:.//Libraries/CMSIS/DSP/Source/TransformFunctions/arm_cfft_radix2_init_f32.c ****     break;
 163              		.loc 1 158 20 view .LVU50
 164 007e 0261     		str	r2, [r0, #16]	@ float
 159:.//Libraries/CMSIS/DSP/Source/TransformFunctions/arm_cfft_radix2_init_f32.c **** 
 165              		.loc 1 159 5 is_stmt 1 view .LVU51
 166              	.LVL16:
 192:.//Libraries/CMSIS/DSP/Source/TransformFunctions/arm_cfft_radix2_init_f32.c **** }
 167              		.loc 1 192 3 view .LVU52
 168              		.loc 1 193 1 is_stmt 0 view .LVU53
 169 0080 1846     		mov	r0, r3
 170              	.LVL17:
 171              		.loc 1 193 1 view .LVU54
ARM GAS  /var/folders/wl/rshn8xbx1dsfj1zgryf4g1240000gn/T//ccF4KtcA.s 			page 8


 172 0082 5DF8044B 		ldr	r4, [sp], #4
 173              	.LCFI5:
 174              		.cfi_remember_state
 175              		.cfi_restore 4
 176              		.cfi_def_cfa_offset 0
 177 0086 7047     		bx	lr
 178              	.LVL18:
 179              	.L19:
 180              	.LCFI6:
 181              		.cfi_restore_state
  90:.//Libraries/CMSIS/DSP/Source/TransformFunctions/arm_cfft_radix2_init_f32.c ****   {
 182              		.loc 1 90 3 view .LVU55
 183 0088 1029     		cmp	r1, #16
 184 008a 3BD0     		beq	.L6
 185 008c 2029     		cmp	r1, #32
 186 008e 0CD1     		bne	.L14
 171:.//Libraries/CMSIS/DSP/Source/TransformFunctions/arm_cfft_radix2_init_f32.c ****     S->bitRevFactor = 128U;
 187              		.loc 1 171 5 is_stmt 1 view .LVU56
 172:.//Libraries/CMSIS/DSP/Source/TransformFunctions/arm_cfft_radix2_init_f32.c ****     S->pBitRevTable = (uint16_t *) & armBitRevTable[127];
 188              		.loc 1 172 5 view .LVU57
 173:.//Libraries/CMSIS/DSP/Source/TransformFunctions/arm_cfft_radix2_init_f32.c ****     S->onebyfftLen = 0.03125;
 189              		.loc 1 173 5 view .LVU58
 173:.//Libraries/CMSIS/DSP/Source/TransformFunctions/arm_cfft_radix2_init_f32.c ****     S->onebyfftLen = 0.03125;
 190              		.loc 1 173 21 is_stmt 0 view .LVU59
 191 0090 2A4C     		ldr	r4, .L20+16
 171:.//Libraries/CMSIS/DSP/Source/TransformFunctions/arm_cfft_radix2_init_f32.c ****     S->bitRevFactor = 128U;
 192              		.loc 1 171 25 view .LVU60
 193 0092 4FF08011 		mov	r1, #8388736
 194              	.LVL19:
 174:.//Libraries/CMSIS/DSP/Source/TransformFunctions/arm_cfft_radix2_init_f32.c ****     break;
 195              		.loc 1 174 20 view .LVU61
 196 0096 4FF07452 		mov	r2, #1023410176
 197              	.LVL20:
  75:.//Libraries/CMSIS/DSP/Source/TransformFunctions/arm_cfft_radix2_init_f32.c **** 
 198              		.loc 1 75 14 view .LVU62
 199 009a 0023     		movs	r3, #0
 200              	.LVL21:
 171:.//Libraries/CMSIS/DSP/Source/TransformFunctions/arm_cfft_radix2_init_f32.c ****     S->bitRevFactor = 128U;
 201              		.loc 1 171 25 view .LVU63
 202 009c C0E90241 		strd	r4, r1, [r0, #8]
 174:.//Libraries/CMSIS/DSP/Source/TransformFunctions/arm_cfft_radix2_init_f32.c ****     break;
 203              		.loc 1 174 20 view .LVU64
 204 00a0 0261     		str	r2, [r0, #16]	@ float
 175:.//Libraries/CMSIS/DSP/Source/TransformFunctions/arm_cfft_radix2_init_f32.c **** 
 205              		.loc 1 175 5 is_stmt 1 view .LVU65
 206              	.LVL22:
 192:.//Libraries/CMSIS/DSP/Source/TransformFunctions/arm_cfft_radix2_init_f32.c **** }
 207              		.loc 1 192 3 view .LVU66
 208              		.loc 1 193 1 is_stmt 0 view .LVU67
 209 00a2 1846     		mov	r0, r3
 210              	.LVL23:
 211              		.loc 1 193 1 view .LVU68
 212 00a4 5DF8044B 		ldr	r4, [sp], #4
 213              	.LCFI7:
 214              		.cfi_remember_state
 215              		.cfi_restore 4
 216              		.cfi_def_cfa_offset 0
ARM GAS  /var/folders/wl/rshn8xbx1dsfj1zgryf4g1240000gn/T//ccF4KtcA.s 			page 9


 217 00a8 7047     		bx	lr
 218              	.LVL24:
 219              	.L14:
 220              	.LCFI8:
 221              		.cfi_restore_state
  90:.//Libraries/CMSIS/DSP/Source/TransformFunctions/arm_cfft_radix2_init_f32.c ****   {
 222              		.loc 1 90 3 view .LVU69
 223 00aa 4FF0FF33 		mov	r3, #-1
 224              	.LVL25:
 192:.//Libraries/CMSIS/DSP/Source/TransformFunctions/arm_cfft_radix2_init_f32.c **** }
 225              		.loc 1 192 3 is_stmt 1 view .LVU70
 226              		.loc 1 193 1 is_stmt 0 view .LVU71
 227 00ae 5DF8044B 		ldr	r4, [sp], #4
 228              	.LCFI9:
 229              		.cfi_remember_state
 230              		.cfi_restore 4
 231              		.cfi_def_cfa_offset 0
 232 00b2 1846     		mov	r0, r3
 233              	.LVL26:
 234              		.loc 1 193 1 view .LVU72
 235 00b4 7047     		bx	lr
 236              	.LVL27:
 237              	.L10:
 238              	.LCFI10:
 239              		.cfi_restore_state
 110:.//Libraries/CMSIS/DSP/Source/TransformFunctions/arm_cfft_radix2_init_f32.c ****     /*  Initialise the bit reversal table modifier */
 240              		.loc 1 110 5 is_stmt 1 view .LVU73
 112:.//Libraries/CMSIS/DSP/Source/TransformFunctions/arm_cfft_radix2_init_f32.c ****     /*  Initialise the bit reversal table pointer */
 241              		.loc 1 112 5 view .LVU74
 114:.//Libraries/CMSIS/DSP/Source/TransformFunctions/arm_cfft_radix2_init_f32.c ****     /*  Initialise the 1/fftLen Value */
 242              		.loc 1 114 5 view .LVU75
 114:.//Libraries/CMSIS/DSP/Source/TransformFunctions/arm_cfft_radix2_init_f32.c ****     /*  Initialise the 1/fftLen Value */
 243              		.loc 1 114 21 is_stmt 0 view .LVU76
 244 00b6 224C     		ldr	r4, .L20+20
 110:.//Libraries/CMSIS/DSP/Source/TransformFunctions/arm_cfft_radix2_init_f32.c ****     /*  Initialise the bit reversal table modifier */
 245              		.loc 1 110 25 view .LVU77
 246 00b8 4FF00211 		mov	r1, #131074
 247              	.LVL28:
 116:.//Libraries/CMSIS/DSP/Source/TransformFunctions/arm_cfft_radix2_init_f32.c ****     break;
 248              		.loc 1 116 20 view .LVU78
 249 00bc 4FF06852 		mov	r2, #973078528
 250              	.LVL29:
  75:.//Libraries/CMSIS/DSP/Source/TransformFunctions/arm_cfft_radix2_init_f32.c **** 
 251              		.loc 1 75 14 view .LVU79
 252 00c0 0023     		movs	r3, #0
 253              	.LVL30:
 110:.//Libraries/CMSIS/DSP/Source/TransformFunctions/arm_cfft_radix2_init_f32.c ****     /*  Initialise the bit reversal table modifier */
 254              		.loc 1 110 25 view .LVU80
 255 00c2 C0E90241 		strd	r4, r1, [r0, #8]
 116:.//Libraries/CMSIS/DSP/Source/TransformFunctions/arm_cfft_radix2_init_f32.c ****     break;
 256              		.loc 1 116 20 view .LVU81
 257 00c6 0261     		str	r2, [r0, #16]	@ float
 117:.//Libraries/CMSIS/DSP/Source/TransformFunctions/arm_cfft_radix2_init_f32.c **** 
 258              		.loc 1 117 5 is_stmt 1 view .LVU82
 259              	.LVL31:
 192:.//Libraries/CMSIS/DSP/Source/TransformFunctions/arm_cfft_radix2_init_f32.c **** }
 260              		.loc 1 192 3 view .LVU83
ARM GAS  /var/folders/wl/rshn8xbx1dsfj1zgryf4g1240000gn/T//ccF4KtcA.s 			page 10


 261              		.loc 1 193 1 is_stmt 0 view .LVU84
 262 00c8 1846     		mov	r0, r3
 263              	.LVL32:
 264              		.loc 1 193 1 view .LVU85
 265 00ca 5DF8044B 		ldr	r4, [sp], #4
 266              	.LCFI11:
 267              		.cfi_remember_state
 268              		.cfi_restore 4
 269              		.cfi_def_cfa_offset 0
 270 00ce 7047     		bx	lr
 271              	.LVL33:
 272              	.L12:
 273              	.LCFI12:
 274              		.cfi_restore_state
 136:.//Libraries/CMSIS/DSP/Source/TransformFunctions/arm_cfft_radix2_init_f32.c ****     /*  Initialise the bit reversal table modifier */
 275              		.loc 1 136 5 is_stmt 1 view .LVU86
 138:.//Libraries/CMSIS/DSP/Source/TransformFunctions/arm_cfft_radix2_init_f32.c ****     /*  Initialise the bit reversal table pointer */
 276              		.loc 1 138 5 view .LVU87
 140:.//Libraries/CMSIS/DSP/Source/TransformFunctions/arm_cfft_radix2_init_f32.c ****     /*  Initialise the 1/fftLen Value */
 277              		.loc 1 140 5 view .LVU88
 140:.//Libraries/CMSIS/DSP/Source/TransformFunctions/arm_cfft_radix2_init_f32.c ****     /*  Initialise the 1/fftLen Value */
 278              		.loc 1 140 21 is_stmt 0 view .LVU89
 279 00d0 1C4C     		ldr	r4, .L20+24
 136:.//Libraries/CMSIS/DSP/Source/TransformFunctions/arm_cfft_radix2_init_f32.c ****     /*  Initialise the bit reversal table modifier */
 280              		.loc 1 136 25 view .LVU90
 281 00d2 4FF00811 		mov	r1, #524296
 282              	.LVL34:
 142:.//Libraries/CMSIS/DSP/Source/TransformFunctions/arm_cfft_radix2_init_f32.c ****     break;
 283              		.loc 1 142 20 view .LVU91
 284 00d6 4FF06C52 		mov	r2, #989855744
 285              	.LVL35:
  75:.//Libraries/CMSIS/DSP/Source/TransformFunctions/arm_cfft_radix2_init_f32.c **** 
 286              		.loc 1 75 14 view .LVU92
 287 00da 0023     		movs	r3, #0
 288              	.LVL36:
 136:.//Libraries/CMSIS/DSP/Source/TransformFunctions/arm_cfft_radix2_init_f32.c ****     /*  Initialise the bit reversal table modifier */
 289              		.loc 1 136 25 view .LVU93
 290 00dc C0E90241 		strd	r4, r1, [r0, #8]
 142:.//Libraries/CMSIS/DSP/Source/TransformFunctions/arm_cfft_radix2_init_f32.c ****     break;
 291              		.loc 1 142 20 view .LVU94
 292 00e0 0261     		str	r2, [r0, #16]	@ float
 143:.//Libraries/CMSIS/DSP/Source/TransformFunctions/arm_cfft_radix2_init_f32.c **** 
 293              		.loc 1 143 5 is_stmt 1 view .LVU95
 294              	.LVL37:
 192:.//Libraries/CMSIS/DSP/Source/TransformFunctions/arm_cfft_radix2_init_f32.c **** }
 295              		.loc 1 192 3 view .LVU96
 296              		.loc 1 193 1 is_stmt 0 view .LVU97
 297 00e2 1846     		mov	r0, r3
 298              	.LVL38:
 299              		.loc 1 193 1 view .LVU98
 300 00e4 5DF8044B 		ldr	r4, [sp], #4
 301              	.LCFI13:
 302              		.cfi_remember_state
 303              		.cfi_restore 4
 304              		.cfi_def_cfa_offset 0
 305 00e8 7047     		bx	lr
 306              	.LVL39:
ARM GAS  /var/folders/wl/rshn8xbx1dsfj1zgryf4g1240000gn/T//ccF4KtcA.s 			page 11


 307              	.L4:
 308              	.LCFI14:
 309              		.cfi_restore_state
 163:.//Libraries/CMSIS/DSP/Source/TransformFunctions/arm_cfft_radix2_init_f32.c ****     S->bitRevFactor = 64U;
 310              		.loc 1 163 5 is_stmt 1 view .LVU99
 164:.//Libraries/CMSIS/DSP/Source/TransformFunctions/arm_cfft_radix2_init_f32.c ****     S->pBitRevTable = (uint16_t *) & armBitRevTable[63];
 311              		.loc 1 164 5 view .LVU100
 165:.//Libraries/CMSIS/DSP/Source/TransformFunctions/arm_cfft_radix2_init_f32.c ****     S->onebyfftLen = 0.015625f;
 312              		.loc 1 165 5 view .LVU101
 165:.//Libraries/CMSIS/DSP/Source/TransformFunctions/arm_cfft_radix2_init_f32.c ****     S->onebyfftLen = 0.015625f;
 313              		.loc 1 165 21 is_stmt 0 view .LVU102
 314 00ea 174C     		ldr	r4, .L20+28
 163:.//Libraries/CMSIS/DSP/Source/TransformFunctions/arm_cfft_radix2_init_f32.c ****     S->bitRevFactor = 64U;
 315              		.loc 1 163 25 view .LVU103
 316 00ec 4FF04011 		mov	r1, #4194368
 317              	.LVL40:
 166:.//Libraries/CMSIS/DSP/Source/TransformFunctions/arm_cfft_radix2_init_f32.c ****     break;
 318              		.loc 1 166 20 view .LVU104
 319 00f0 4FF07252 		mov	r2, #1015021568
 320              	.LVL41:
  75:.//Libraries/CMSIS/DSP/Source/TransformFunctions/arm_cfft_radix2_init_f32.c **** 
 321              		.loc 1 75 14 view .LVU105
 322 00f4 0023     		movs	r3, #0
 323              	.LVL42:
 163:.//Libraries/CMSIS/DSP/Source/TransformFunctions/arm_cfft_radix2_init_f32.c ****     S->bitRevFactor = 64U;
 324              		.loc 1 163 25 view .LVU106
 325 00f6 C0E90241 		strd	r4, r1, [r0, #8]
 166:.//Libraries/CMSIS/DSP/Source/TransformFunctions/arm_cfft_radix2_init_f32.c ****     break;
 326              		.loc 1 166 20 view .LVU107
 327 00fa 0261     		str	r2, [r0, #16]	@ float
 167:.//Libraries/CMSIS/DSP/Source/TransformFunctions/arm_cfft_radix2_init_f32.c **** 
 328              		.loc 1 167 5 is_stmt 1 view .LVU108
 329              	.LVL43:
 192:.//Libraries/CMSIS/DSP/Source/TransformFunctions/arm_cfft_radix2_init_f32.c **** }
 330              		.loc 1 192 3 view .LVU109
 331              		.loc 1 193 1 is_stmt 0 view .LVU110
 332 00fc 1846     		mov	r0, r3
 333              	.LVL44:
 334              		.loc 1 193 1 view .LVU111
 335 00fe 5DF8044B 		ldr	r4, [sp], #4
 336              	.LCFI15:
 337              		.cfi_remember_state
 338              		.cfi_restore 4
 339              		.cfi_def_cfa_offset 0
 340 0102 7047     		bx	lr
 341              	.LVL45:
 342              	.L6:
 343              	.LCFI16:
 344              		.cfi_restore_state
 179:.//Libraries/CMSIS/DSP/Source/TransformFunctions/arm_cfft_radix2_init_f32.c ****     S->bitRevFactor = 256U;
 345              		.loc 1 179 5 is_stmt 1 view .LVU112
 180:.//Libraries/CMSIS/DSP/Source/TransformFunctions/arm_cfft_radix2_init_f32.c ****     S->pBitRevTable = (uint16_t *) & armBitRevTable[255];
 346              		.loc 1 180 5 view .LVU113
 181:.//Libraries/CMSIS/DSP/Source/TransformFunctions/arm_cfft_radix2_init_f32.c ****     S->onebyfftLen = 0.0625f;
 347              		.loc 1 181 5 view .LVU114
 181:.//Libraries/CMSIS/DSP/Source/TransformFunctions/arm_cfft_radix2_init_f32.c ****     S->onebyfftLen = 0.0625f;
 348              		.loc 1 181 21 is_stmt 0 view .LVU115
ARM GAS  /var/folders/wl/rshn8xbx1dsfj1zgryf4g1240000gn/T//ccF4KtcA.s 			page 12


 349 0104 114C     		ldr	r4, .L20+32
 179:.//Libraries/CMSIS/DSP/Source/TransformFunctions/arm_cfft_radix2_init_f32.c ****     S->bitRevFactor = 256U;
 350              		.loc 1 179 25 view .LVU116
 351 0106 4FF00121 		mov	r1, #16777472
 352              	.LVL46:
 182:.//Libraries/CMSIS/DSP/Source/TransformFunctions/arm_cfft_radix2_init_f32.c ****     break;
 353              		.loc 1 182 20 view .LVU117
 354 010a 4FF07652 		mov	r2, #1031798784
 355              	.LVL47:
  75:.//Libraries/CMSIS/DSP/Source/TransformFunctions/arm_cfft_radix2_init_f32.c **** 
 356              		.loc 1 75 14 view .LVU118
 357 010e 0023     		movs	r3, #0
 358              	.LVL48:
 179:.//Libraries/CMSIS/DSP/Source/TransformFunctions/arm_cfft_radix2_init_f32.c ****     S->bitRevFactor = 256U;
 359              		.loc 1 179 25 view .LVU119
 360 0110 C0E90241 		strd	r4, r1, [r0, #8]
 182:.//Libraries/CMSIS/DSP/Source/TransformFunctions/arm_cfft_radix2_init_f32.c ****     break;
 361              		.loc 1 182 20 view .LVU120
 362 0114 0261     		str	r2, [r0, #16]	@ float
 183:.//Libraries/CMSIS/DSP/Source/TransformFunctions/arm_cfft_radix2_init_f32.c **** 
 363              		.loc 1 183 5 is_stmt 1 view .LVU121
 364 0116 8EE7     		b	.L8
 365              	.LVL49:
 366              	.L2:
 147:.//Libraries/CMSIS/DSP/Source/TransformFunctions/arm_cfft_radix2_init_f32.c ****     S->bitRevFactor = 16U;
 367              		.loc 1 147 5 view .LVU122
 148:.//Libraries/CMSIS/DSP/Source/TransformFunctions/arm_cfft_radix2_init_f32.c ****     S->pBitRevTable = (uint16_t *) & armBitRevTable[15];
 368              		.loc 1 148 5 view .LVU123
 149:.//Libraries/CMSIS/DSP/Source/TransformFunctions/arm_cfft_radix2_init_f32.c ****     S->onebyfftLen = 0.00390625f;
 369              		.loc 1 149 5 view .LVU124
 149:.//Libraries/CMSIS/DSP/Source/TransformFunctions/arm_cfft_radix2_init_f32.c ****     S->onebyfftLen = 0.00390625f;
 370              		.loc 1 149 21 is_stmt 0 view .LVU125
 371 0118 0D4C     		ldr	r4, .L20+36
 147:.//Libraries/CMSIS/DSP/Source/TransformFunctions/arm_cfft_radix2_init_f32.c ****     S->bitRevFactor = 16U;
 372              		.loc 1 147 25 view .LVU126
 373 011a 4FF01011 		mov	r1, #1048592
 374              	.LVL50:
 150:.//Libraries/CMSIS/DSP/Source/TransformFunctions/arm_cfft_radix2_init_f32.c ****     break;
 375              		.loc 1 150 20 view .LVU127
 376 011e 4FF06E52 		mov	r2, #998244352
 377              	.LVL51:
  75:.//Libraries/CMSIS/DSP/Source/TransformFunctions/arm_cfft_radix2_init_f32.c **** 
 378              		.loc 1 75 14 view .LVU128
 379 0122 0023     		movs	r3, #0
 380              	.LVL52:
 147:.//Libraries/CMSIS/DSP/Source/TransformFunctions/arm_cfft_radix2_init_f32.c ****     S->bitRevFactor = 16U;
 381              		.loc 1 147 25 view .LVU129
 382 0124 C0E90241 		strd	r4, r1, [r0, #8]
 150:.//Libraries/CMSIS/DSP/Source/TransformFunctions/arm_cfft_radix2_init_f32.c ****     break;
 383              		.loc 1 150 20 view .LVU130
 384 0128 0261     		str	r2, [r0, #16]	@ float
 151:.//Libraries/CMSIS/DSP/Source/TransformFunctions/arm_cfft_radix2_init_f32.c **** 
 385              		.loc 1 151 5 is_stmt 1 view .LVU131
 386 012a 84E7     		b	.L8
 387              	.L21:
 388              		.align	2
 389              	.L20:
ARM GAS  /var/folders/wl/rshn8xbx1dsfj1zgryf4g1240000gn/T//ccF4KtcA.s 			page 13


 390 012c 00000000 		.word	twiddleCoef_4096
 391 0130 00000000 		.word	armBitRevTable
 392 0134 06000000 		.word	armBitRevTable+6
 393 0138 3E000000 		.word	armBitRevTable+62
 394 013c FE000000 		.word	armBitRevTable+254
 395 0140 02000000 		.word	armBitRevTable+2
 396 0144 0E000000 		.word	armBitRevTable+14
 397 0148 7E000000 		.word	armBitRevTable+126
 398 014c FE010000 		.word	armBitRevTable+510
 399 0150 1E000000 		.word	armBitRevTable+30
 400              		.cfi_endproc
 401              	.LFE145:
 403              		.text
 404              	.Letext0:
 405              		.file 2 "/opt/homebrew/Cellar/arm-none-eabi-gcc/9-2019-q4-major/gcc/arm-none-eabi/include/machine/
 406              		.file 3 "/opt/homebrew/Cellar/arm-none-eabi-gcc/9-2019-q4-major/gcc/arm-none-eabi/include/sys/_std
 407              		.file 4 "/opt/homebrew/Cellar/arm-none-eabi-gcc/9-2019-q4-major/gcc/arm-none-eabi/include/sys/lock
 408              		.file 5 "/opt/homebrew/Cellar/arm-none-eabi-gcc/9-2019-q4-major/gcc/arm-none-eabi/include/sys/_typ
 409              		.file 6 "/opt/homebrew/Cellar/arm-none-eabi-gcc/9-2019-q4-major/gcc/lib/gcc/arm-none-eabi/9.2.1/in
 410              		.file 7 "/opt/homebrew/Cellar/arm-none-eabi-gcc/9-2019-q4-major/gcc/arm-none-eabi/include/sys/reen
 411              		.file 8 "/opt/homebrew/Cellar/arm-none-eabi-gcc/9-2019-q4-major/gcc/arm-none-eabi/include/math.h"
 412              		.file 9 ".//Libraries/CMSIS/DSP/Include/arm_math.h"
 413              		.file 10 ".//Libraries/CMSIS/DSP/Include/arm_common_tables.h"
ARM GAS  /var/folders/wl/rshn8xbx1dsfj1zgryf4g1240000gn/T//ccF4KtcA.s 			page 14

