ARM GAS  /tmp/ccA46br1.s 			page 1


   1              		.cpu cortex-m7
   2              		.eabi_attribute 28, 1
   3              		.eabi_attribute 20, 1
   4              		.eabi_attribute 21, 1
   5              		.eabi_attribute 23, 3
   6              		.eabi_attribute 24, 1
   7              		.eabi_attribute 25, 1
   8              		.eabi_attribute 26, 1
   9              		.eabi_attribute 30, 2
  10              		.eabi_attribute 34, 1
  11              		.eabi_attribute 18, 4
  12              		.file	"arm_max_q31.c"
  13              		.text
  14              	.Ltext0:
  15              		.cfi_sections	.debug_frame
  16              		.section	.text.arm_max_q31,"ax",%progbits
  17              		.align	1
  18              		.p2align 2,,3
  19              		.global	arm_max_q31
  20              		.arch armv7e-m
  21              		.syntax unified
  22              		.thumb
  23              		.thumb_func
  24              		.fpu fpv5-d16
  26              	arm_max_q31:
  27              	.LVL0:
  28              	.LFB145:
  29              		.file 1 "./Libraries/CMSIS/DSP/Source/StatisticsFunctions/arm_max_q31.c"
   1:./Libraries/CMSIS/DSP/Source/StatisticsFunctions/arm_max_q31.c **** /* ----------------------------------------------------------------------
   2:./Libraries/CMSIS/DSP/Source/StatisticsFunctions/arm_max_q31.c ****  * Project:      CMSIS DSP Library
   3:./Libraries/CMSIS/DSP/Source/StatisticsFunctions/arm_max_q31.c ****  * Title:        arm_max_q31.c
   4:./Libraries/CMSIS/DSP/Source/StatisticsFunctions/arm_max_q31.c ****  * Description:  Maximum value of a Q31 vector
   5:./Libraries/CMSIS/DSP/Source/StatisticsFunctions/arm_max_q31.c ****  *
   6:./Libraries/CMSIS/DSP/Source/StatisticsFunctions/arm_max_q31.c ****  * $Date:        18. March 2019
   7:./Libraries/CMSIS/DSP/Source/StatisticsFunctions/arm_max_q31.c ****  * $Revision:    V1.6.0
   8:./Libraries/CMSIS/DSP/Source/StatisticsFunctions/arm_max_q31.c ****  *
   9:./Libraries/CMSIS/DSP/Source/StatisticsFunctions/arm_max_q31.c ****  * Target Processor: Cortex-M cores
  10:./Libraries/CMSIS/DSP/Source/StatisticsFunctions/arm_max_q31.c ****  * -------------------------------------------------------------------- */
  11:./Libraries/CMSIS/DSP/Source/StatisticsFunctions/arm_max_q31.c **** /*
  12:./Libraries/CMSIS/DSP/Source/StatisticsFunctions/arm_max_q31.c ****  * Copyright (C) 2010-2019 ARM Limited or its affiliates. All rights reserved.
  13:./Libraries/CMSIS/DSP/Source/StatisticsFunctions/arm_max_q31.c ****  *
  14:./Libraries/CMSIS/DSP/Source/StatisticsFunctions/arm_max_q31.c ****  * SPDX-License-Identifier: Apache-2.0
  15:./Libraries/CMSIS/DSP/Source/StatisticsFunctions/arm_max_q31.c ****  *
  16:./Libraries/CMSIS/DSP/Source/StatisticsFunctions/arm_max_q31.c ****  * Licensed under the Apache License, Version 2.0 (the License); you may
  17:./Libraries/CMSIS/DSP/Source/StatisticsFunctions/arm_max_q31.c ****  * not use this file except in compliance with the License.
  18:./Libraries/CMSIS/DSP/Source/StatisticsFunctions/arm_max_q31.c ****  * You may obtain a copy of the License at
  19:./Libraries/CMSIS/DSP/Source/StatisticsFunctions/arm_max_q31.c ****  *
  20:./Libraries/CMSIS/DSP/Source/StatisticsFunctions/arm_max_q31.c ****  * www.apache.org/licenses/LICENSE-2.0
  21:./Libraries/CMSIS/DSP/Source/StatisticsFunctions/arm_max_q31.c ****  *
  22:./Libraries/CMSIS/DSP/Source/StatisticsFunctions/arm_max_q31.c ****  * Unless required by applicable law or agreed to in writing, software
  23:./Libraries/CMSIS/DSP/Source/StatisticsFunctions/arm_max_q31.c ****  * distributed under the License is distributed on an AS IS BASIS, WITHOUT
  24:./Libraries/CMSIS/DSP/Source/StatisticsFunctions/arm_max_q31.c ****  * WARRANTIES OR CONDITIONS OF ANY KIND, either express or implied.
  25:./Libraries/CMSIS/DSP/Source/StatisticsFunctions/arm_max_q31.c ****  * See the License for the specific language governing permissions and
  26:./Libraries/CMSIS/DSP/Source/StatisticsFunctions/arm_max_q31.c ****  * limitations under the License.
  27:./Libraries/CMSIS/DSP/Source/StatisticsFunctions/arm_max_q31.c ****  */
  28:./Libraries/CMSIS/DSP/Source/StatisticsFunctions/arm_max_q31.c **** 
  29:./Libraries/CMSIS/DSP/Source/StatisticsFunctions/arm_max_q31.c **** #include "arm_math.h"
ARM GAS  /tmp/ccA46br1.s 			page 2


  30:./Libraries/CMSIS/DSP/Source/StatisticsFunctions/arm_max_q31.c **** 
  31:./Libraries/CMSIS/DSP/Source/StatisticsFunctions/arm_max_q31.c **** /**
  32:./Libraries/CMSIS/DSP/Source/StatisticsFunctions/arm_max_q31.c ****   @ingroup groupStats
  33:./Libraries/CMSIS/DSP/Source/StatisticsFunctions/arm_max_q31.c ****  */
  34:./Libraries/CMSIS/DSP/Source/StatisticsFunctions/arm_max_q31.c **** 
  35:./Libraries/CMSIS/DSP/Source/StatisticsFunctions/arm_max_q31.c **** /**
  36:./Libraries/CMSIS/DSP/Source/StatisticsFunctions/arm_max_q31.c ****   @addtogroup Max
  37:./Libraries/CMSIS/DSP/Source/StatisticsFunctions/arm_max_q31.c ****   @{
  38:./Libraries/CMSIS/DSP/Source/StatisticsFunctions/arm_max_q31.c ****  */
  39:./Libraries/CMSIS/DSP/Source/StatisticsFunctions/arm_max_q31.c **** 
  40:./Libraries/CMSIS/DSP/Source/StatisticsFunctions/arm_max_q31.c **** /**
  41:./Libraries/CMSIS/DSP/Source/StatisticsFunctions/arm_max_q31.c ****   @brief         Maximum value of a Q31 vector.
  42:./Libraries/CMSIS/DSP/Source/StatisticsFunctions/arm_max_q31.c ****   @param[in]     pSrc       points to the input vector
  43:./Libraries/CMSIS/DSP/Source/StatisticsFunctions/arm_max_q31.c ****   @param[in]     blockSize  number of samples in input vector
  44:./Libraries/CMSIS/DSP/Source/StatisticsFunctions/arm_max_q31.c ****   @param[out]    pResult    maximum value returned here
  45:./Libraries/CMSIS/DSP/Source/StatisticsFunctions/arm_max_q31.c ****   @param[out]    pIndex     index of maximum value returned here
  46:./Libraries/CMSIS/DSP/Source/StatisticsFunctions/arm_max_q31.c ****   @return        none
  47:./Libraries/CMSIS/DSP/Source/StatisticsFunctions/arm_max_q31.c ****  */
  48:./Libraries/CMSIS/DSP/Source/StatisticsFunctions/arm_max_q31.c **** 
  49:./Libraries/CMSIS/DSP/Source/StatisticsFunctions/arm_max_q31.c **** void arm_max_q31(
  50:./Libraries/CMSIS/DSP/Source/StatisticsFunctions/arm_max_q31.c ****   const q31_t * pSrc,
  51:./Libraries/CMSIS/DSP/Source/StatisticsFunctions/arm_max_q31.c ****         uint32_t blockSize,
  52:./Libraries/CMSIS/DSP/Source/StatisticsFunctions/arm_max_q31.c ****         q31_t * pResult,
  53:./Libraries/CMSIS/DSP/Source/StatisticsFunctions/arm_max_q31.c ****         uint32_t * pIndex)
  54:./Libraries/CMSIS/DSP/Source/StatisticsFunctions/arm_max_q31.c **** {
  30              		.loc 1 54 1 view -0
  31              		.cfi_startproc
  32              		@ args = 0, pretend = 0, frame = 0
  33              		@ frame_needed = 0, uses_anonymous_args = 0
  34              		@ link register save eliminated.
  55:./Libraries/CMSIS/DSP/Source/StatisticsFunctions/arm_max_q31.c ****         q31_t maxVal, out;                             /* Temporary variables to store the output v
  35              		.loc 1 55 9 view .LVU1
  56:./Libraries/CMSIS/DSP/Source/StatisticsFunctions/arm_max_q31.c ****         uint32_t blkCnt, outIndex;                     /* Loop counter */
  36              		.loc 1 56 9 view .LVU2
  57:./Libraries/CMSIS/DSP/Source/StatisticsFunctions/arm_max_q31.c **** 
  58:./Libraries/CMSIS/DSP/Source/StatisticsFunctions/arm_max_q31.c **** #if defined (ARM_MATH_LOOPUNROLL)
  59:./Libraries/CMSIS/DSP/Source/StatisticsFunctions/arm_max_q31.c ****         uint32_t index;                                /* index of maximum value */
  60:./Libraries/CMSIS/DSP/Source/StatisticsFunctions/arm_max_q31.c **** #endif
  61:./Libraries/CMSIS/DSP/Source/StatisticsFunctions/arm_max_q31.c **** 
  62:./Libraries/CMSIS/DSP/Source/StatisticsFunctions/arm_max_q31.c ****   /* Initialise index value to zero. */
  63:./Libraries/CMSIS/DSP/Source/StatisticsFunctions/arm_max_q31.c ****   outIndex = 0U;
  37              		.loc 1 63 3 view .LVU3
  64:./Libraries/CMSIS/DSP/Source/StatisticsFunctions/arm_max_q31.c ****   /* Load first input value that act as reference value for comparision */
  65:./Libraries/CMSIS/DSP/Source/StatisticsFunctions/arm_max_q31.c ****   out = *pSrc++;
  38              		.loc 1 65 3 view .LVU4
  54:./Libraries/CMSIS/DSP/Source/StatisticsFunctions/arm_max_q31.c ****         q31_t maxVal, out;                             /* Temporary variables to store the output v
  39              		.loc 1 54 1 is_stmt 0 view .LVU5
  40 0000 F0B4     		push	{r4, r5, r6, r7}
  41              	.LCFI0:
  42              		.cfi_def_cfa_offset 16
  43              		.cfi_offset 4, -16
  44              		.cfi_offset 5, -12
  45              		.cfi_offset 6, -8
  46              		.cfi_offset 7, -4
  66:./Libraries/CMSIS/DSP/Source/StatisticsFunctions/arm_max_q31.c **** 
  67:./Libraries/CMSIS/DSP/Source/StatisticsFunctions/arm_max_q31.c **** #if defined (ARM_MATH_LOOPUNROLL)
  68:./Libraries/CMSIS/DSP/Source/StatisticsFunctions/arm_max_q31.c ****   /* Initialise index of maximum value. */
ARM GAS  /tmp/ccA46br1.s 			page 3


  69:./Libraries/CMSIS/DSP/Source/StatisticsFunctions/arm_max_q31.c ****   index = 0U;
  70:./Libraries/CMSIS/DSP/Source/StatisticsFunctions/arm_max_q31.c **** 
  71:./Libraries/CMSIS/DSP/Source/StatisticsFunctions/arm_max_q31.c ****   /* Loop unrolling: Compute 4 outputs at a time */
  72:./Libraries/CMSIS/DSP/Source/StatisticsFunctions/arm_max_q31.c ****   blkCnt = (blockSize - 1U) >> 2U;
  73:./Libraries/CMSIS/DSP/Source/StatisticsFunctions/arm_max_q31.c **** 
  74:./Libraries/CMSIS/DSP/Source/StatisticsFunctions/arm_max_q31.c ****   while (blkCnt > 0U)
  75:./Libraries/CMSIS/DSP/Source/StatisticsFunctions/arm_max_q31.c ****   {
  76:./Libraries/CMSIS/DSP/Source/StatisticsFunctions/arm_max_q31.c ****     /* Initialize maxVal to next consecutive values one by one */
  77:./Libraries/CMSIS/DSP/Source/StatisticsFunctions/arm_max_q31.c ****     maxVal = *pSrc++;
  78:./Libraries/CMSIS/DSP/Source/StatisticsFunctions/arm_max_q31.c **** 
  79:./Libraries/CMSIS/DSP/Source/StatisticsFunctions/arm_max_q31.c ****     /* compare for the maximum value */
  80:./Libraries/CMSIS/DSP/Source/StatisticsFunctions/arm_max_q31.c ****     if (out < maxVal)
  81:./Libraries/CMSIS/DSP/Source/StatisticsFunctions/arm_max_q31.c ****     {
  82:./Libraries/CMSIS/DSP/Source/StatisticsFunctions/arm_max_q31.c ****       /* Update the maximum value and it's index */
  83:./Libraries/CMSIS/DSP/Source/StatisticsFunctions/arm_max_q31.c ****       out = maxVal;
  84:./Libraries/CMSIS/DSP/Source/StatisticsFunctions/arm_max_q31.c ****       outIndex = index + 1U;
  85:./Libraries/CMSIS/DSP/Source/StatisticsFunctions/arm_max_q31.c ****     }
  86:./Libraries/CMSIS/DSP/Source/StatisticsFunctions/arm_max_q31.c **** 
  87:./Libraries/CMSIS/DSP/Source/StatisticsFunctions/arm_max_q31.c ****     maxVal = *pSrc++;
  88:./Libraries/CMSIS/DSP/Source/StatisticsFunctions/arm_max_q31.c ****     if (out < maxVal)
  89:./Libraries/CMSIS/DSP/Source/StatisticsFunctions/arm_max_q31.c ****     {
  90:./Libraries/CMSIS/DSP/Source/StatisticsFunctions/arm_max_q31.c ****       out = maxVal;
  91:./Libraries/CMSIS/DSP/Source/StatisticsFunctions/arm_max_q31.c ****       outIndex = index + 2U;
  92:./Libraries/CMSIS/DSP/Source/StatisticsFunctions/arm_max_q31.c ****     }
  93:./Libraries/CMSIS/DSP/Source/StatisticsFunctions/arm_max_q31.c **** 
  94:./Libraries/CMSIS/DSP/Source/StatisticsFunctions/arm_max_q31.c ****     maxVal = *pSrc++;
  95:./Libraries/CMSIS/DSP/Source/StatisticsFunctions/arm_max_q31.c ****     if (out < maxVal)
  96:./Libraries/CMSIS/DSP/Source/StatisticsFunctions/arm_max_q31.c ****     {
  97:./Libraries/CMSIS/DSP/Source/StatisticsFunctions/arm_max_q31.c ****       out = maxVal;
  98:./Libraries/CMSIS/DSP/Source/StatisticsFunctions/arm_max_q31.c ****       outIndex = index + 3U;
  99:./Libraries/CMSIS/DSP/Source/StatisticsFunctions/arm_max_q31.c ****     }
 100:./Libraries/CMSIS/DSP/Source/StatisticsFunctions/arm_max_q31.c **** 
 101:./Libraries/CMSIS/DSP/Source/StatisticsFunctions/arm_max_q31.c ****     maxVal = *pSrc++;
 102:./Libraries/CMSIS/DSP/Source/StatisticsFunctions/arm_max_q31.c ****     if (out < maxVal)
 103:./Libraries/CMSIS/DSP/Source/StatisticsFunctions/arm_max_q31.c ****     {
 104:./Libraries/CMSIS/DSP/Source/StatisticsFunctions/arm_max_q31.c ****       out = maxVal;
 105:./Libraries/CMSIS/DSP/Source/StatisticsFunctions/arm_max_q31.c ****       outIndex = index + 4U;
 106:./Libraries/CMSIS/DSP/Source/StatisticsFunctions/arm_max_q31.c ****     }
 107:./Libraries/CMSIS/DSP/Source/StatisticsFunctions/arm_max_q31.c **** 
 108:./Libraries/CMSIS/DSP/Source/StatisticsFunctions/arm_max_q31.c ****     index += 4U;
 109:./Libraries/CMSIS/DSP/Source/StatisticsFunctions/arm_max_q31.c **** 
 110:./Libraries/CMSIS/DSP/Source/StatisticsFunctions/arm_max_q31.c ****     /* Decrement loop counter */
 111:./Libraries/CMSIS/DSP/Source/StatisticsFunctions/arm_max_q31.c ****     blkCnt--;
 112:./Libraries/CMSIS/DSP/Source/StatisticsFunctions/arm_max_q31.c ****   }
 113:./Libraries/CMSIS/DSP/Source/StatisticsFunctions/arm_max_q31.c **** 
 114:./Libraries/CMSIS/DSP/Source/StatisticsFunctions/arm_max_q31.c ****   /* Loop unrolling: Compute remaining outputs */
 115:./Libraries/CMSIS/DSP/Source/StatisticsFunctions/arm_max_q31.c ****   blkCnt = (blockSize - 1U) % 4U;
 116:./Libraries/CMSIS/DSP/Source/StatisticsFunctions/arm_max_q31.c **** 
 117:./Libraries/CMSIS/DSP/Source/StatisticsFunctions/arm_max_q31.c **** #else
 118:./Libraries/CMSIS/DSP/Source/StatisticsFunctions/arm_max_q31.c **** 
 119:./Libraries/CMSIS/DSP/Source/StatisticsFunctions/arm_max_q31.c ****   /* Initialize blkCnt with number of samples */
 120:./Libraries/CMSIS/DSP/Source/StatisticsFunctions/arm_max_q31.c ****   blkCnt = (blockSize - 1U);
 121:./Libraries/CMSIS/DSP/Source/StatisticsFunctions/arm_max_q31.c **** 
 122:./Libraries/CMSIS/DSP/Source/StatisticsFunctions/arm_max_q31.c **** #endif /* #if defined (ARM_MATH_LOOPUNROLL) */
 123:./Libraries/CMSIS/DSP/Source/StatisticsFunctions/arm_max_q31.c **** 
 124:./Libraries/CMSIS/DSP/Source/StatisticsFunctions/arm_max_q31.c ****   while (blkCnt > 0U)
  47              		.loc 1 124 9 view .LVU6
ARM GAS  /tmp/ccA46br1.s 			page 4


  48 0002 4C1E     		subs	r4, r1, #1
  65:./Libraries/CMSIS/DSP/Source/StatisticsFunctions/arm_max_q31.c **** 
  49              		.loc 1 65 7 view .LVU7
  50 0004 50F8046B 		ldr	r6, [r0], #4
  51              	.LVL1:
 120:./Libraries/CMSIS/DSP/Source/StatisticsFunctions/arm_max_q31.c **** 
  52              		.loc 1 120 3 is_stmt 1 view .LVU8
  53              		.loc 1 124 3 view .LVU9
  54              		.loc 1 124 9 view .LVU10
  55 0008 0CD0     		beq	.L5
  63:./Libraries/CMSIS/DSP/Source/StatisticsFunctions/arm_max_q31.c ****   /* Load first input value that act as reference value for comparision */
  56              		.loc 1 63 12 is_stmt 0 view .LVU11
  57 000a 0027     		movs	r7, #0
  58              	.LVL2:
  59              	.L4:
 125:./Libraries/CMSIS/DSP/Source/StatisticsFunctions/arm_max_q31.c ****   {
 126:./Libraries/CMSIS/DSP/Source/StatisticsFunctions/arm_max_q31.c ****     /* Initialize maxVal to the next consecutive values one by one */
 127:./Libraries/CMSIS/DSP/Source/StatisticsFunctions/arm_max_q31.c ****     maxVal = *pSrc++;
  60              		.loc 1 127 5 is_stmt 1 view .LVU12
 128:./Libraries/CMSIS/DSP/Source/StatisticsFunctions/arm_max_q31.c **** 
 129:./Libraries/CMSIS/DSP/Source/StatisticsFunctions/arm_max_q31.c ****     /* compare for the maximum value */
 130:./Libraries/CMSIS/DSP/Source/StatisticsFunctions/arm_max_q31.c ****     if (out < maxVal)
 131:./Libraries/CMSIS/DSP/Source/StatisticsFunctions/arm_max_q31.c ****     {
 132:./Libraries/CMSIS/DSP/Source/StatisticsFunctions/arm_max_q31.c ****       /* Update the maximum value and it's index */
 133:./Libraries/CMSIS/DSP/Source/StatisticsFunctions/arm_max_q31.c ****       out = maxVal;
  61              		.loc 1 133 7 view .LVU13
 127:./Libraries/CMSIS/DSP/Source/StatisticsFunctions/arm_max_q31.c **** 
  62              		.loc 1 127 12 is_stmt 0 view .LVU14
  63 000c 50F8045B 		ldr	r5, [r0], #4
  64              	.LVL3:
 130:./Libraries/CMSIS/DSP/Source/StatisticsFunctions/arm_max_q31.c ****     {
  65              		.loc 1 130 5 is_stmt 1 view .LVU15
 134:./Libraries/CMSIS/DSP/Source/StatisticsFunctions/arm_max_q31.c ****       outIndex = blockSize - blkCnt;
  66              		.loc 1 134 7 view .LVU16
 130:./Libraries/CMSIS/DSP/Source/StatisticsFunctions/arm_max_q31.c ****     {
  67              		.loc 1 130 8 is_stmt 0 view .LVU17
  68 0010 B542     		cmp	r5, r6
  69 0012 01DD     		ble	.L3
 130:./Libraries/CMSIS/DSP/Source/StatisticsFunctions/arm_max_q31.c ****     {
  70              		.loc 1 130 8 view .LVU18
  71 0014 2E46     		mov	r6, r5
  72 0016 0F1B     		subs	r7, r1, r4
  73              	.LVL4:
  74              	.L3:
 135:./Libraries/CMSIS/DSP/Source/StatisticsFunctions/arm_max_q31.c ****     }
 136:./Libraries/CMSIS/DSP/Source/StatisticsFunctions/arm_max_q31.c **** 
 137:./Libraries/CMSIS/DSP/Source/StatisticsFunctions/arm_max_q31.c ****     /* Decrement loop counter */
 138:./Libraries/CMSIS/DSP/Source/StatisticsFunctions/arm_max_q31.c ****     blkCnt--;
  75              		.loc 1 138 5 is_stmt 1 view .LVU19
 124:./Libraries/CMSIS/DSP/Source/StatisticsFunctions/arm_max_q31.c ****   {
  76              		.loc 1 124 9 view .LVU20
  77 0018 013C     		subs	r4, r4, #1
  78              	.LVL5:
 124:./Libraries/CMSIS/DSP/Source/StatisticsFunctions/arm_max_q31.c ****   {
  79              		.loc 1 124 9 is_stmt 0 view .LVU21
  80 001a F7D1     		bne	.L4
 139:./Libraries/CMSIS/DSP/Source/StatisticsFunctions/arm_max_q31.c ****   }
ARM GAS  /tmp/ccA46br1.s 			page 5


 140:./Libraries/CMSIS/DSP/Source/StatisticsFunctions/arm_max_q31.c **** 
 141:./Libraries/CMSIS/DSP/Source/StatisticsFunctions/arm_max_q31.c ****   /* Store the maximum value and it's index into destination pointers */
 142:./Libraries/CMSIS/DSP/Source/StatisticsFunctions/arm_max_q31.c ****   *pResult = out;
  81              		.loc 1 142 3 is_stmt 1 view .LVU22
  82              		.loc 1 142 12 is_stmt 0 view .LVU23
  83 001c 1660     		str	r6, [r2]
 143:./Libraries/CMSIS/DSP/Source/StatisticsFunctions/arm_max_q31.c ****   *pIndex = outIndex;
  84              		.loc 1 143 3 is_stmt 1 view .LVU24
  85              		.loc 1 143 11 is_stmt 0 view .LVU25
  86 001e 1F60     		str	r7, [r3]
 144:./Libraries/CMSIS/DSP/Source/StatisticsFunctions/arm_max_q31.c **** }
  87              		.loc 1 144 1 view .LVU26
  88 0020 F0BC     		pop	{r4, r5, r6, r7}
  89              	.LCFI1:
  90              		.cfi_remember_state
  91              		.cfi_restore 7
  92              		.cfi_restore 6
  93              		.cfi_restore 5
  94              		.cfi_restore 4
  95              		.cfi_def_cfa_offset 0
  96              	.LVL6:
  97              		.loc 1 144 1 view .LVU27
  98 0022 7047     		bx	lr
  99              	.LVL7:
 100              	.L5:
 101              	.LCFI2:
 102              		.cfi_restore_state
  63:./Libraries/CMSIS/DSP/Source/StatisticsFunctions/arm_max_q31.c ****   /* Load first input value that act as reference value for comparision */
 103              		.loc 1 63 12 view .LVU28
 104 0024 2746     		mov	r7, r4
 142:./Libraries/CMSIS/DSP/Source/StatisticsFunctions/arm_max_q31.c ****   *pIndex = outIndex;
 105              		.loc 1 142 3 is_stmt 1 view .LVU29
 142:./Libraries/CMSIS/DSP/Source/StatisticsFunctions/arm_max_q31.c ****   *pIndex = outIndex;
 106              		.loc 1 142 12 is_stmt 0 view .LVU30
 107 0026 1660     		str	r6, [r2]
 143:./Libraries/CMSIS/DSP/Source/StatisticsFunctions/arm_max_q31.c **** }
 108              		.loc 1 143 3 is_stmt 1 view .LVU31
 143:./Libraries/CMSIS/DSP/Source/StatisticsFunctions/arm_max_q31.c **** }
 109              		.loc 1 143 11 is_stmt 0 view .LVU32
 110 0028 1F60     		str	r7, [r3]
 111              		.loc 1 144 1 view .LVU33
 112 002a F0BC     		pop	{r4, r5, r6, r7}
 113              	.LCFI3:
 114              		.cfi_restore 7
 115              		.cfi_restore 6
 116              		.cfi_restore 5
 117              		.cfi_restore 4
 118              		.cfi_def_cfa_offset 0
 119              	.LVL8:
 120              		.loc 1 144 1 view .LVU34
 121 002c 7047     		bx	lr
 122              		.cfi_endproc
 123              	.LFE145:
 125 002e 00BF     		.text
 126              	.Letext0:
 127              		.file 2 "/usr/lib/gcc/arm-none-eabi/9.2.1/include/stdint.h"
 128              		.file 3 "/usr/lib/gcc/arm-none-eabi/9.2.1/include/stddef.h"
ARM GAS  /tmp/ccA46br1.s 			page 6


 129              		.file 4 "/usr/include/newlib/sys/_types.h"
 130              		.file 5 "/usr/include/newlib/sys/reent.h"
 131              		.file 6 "/usr/include/newlib/sys/lock.h"
 132              		.file 7 "/usr/include/newlib/math.h"
 133              		.file 8 "./Libraries/CMSIS/DSP/Include/arm_math.h"
ARM GAS  /tmp/ccA46br1.s 			page 7

