ARM GAS  /var/folders/wl/rshn8xbx1dsfj1zgryf4g1240000gn/T//ccX1O5Yz.s 			page 1


   1              		.cpu cortex-m7
   2              		.eabi_attribute 28, 1
   3              		.eabi_attribute 20, 1
   4              		.eabi_attribute 21, 1
   5              		.eabi_attribute 23, 3
   6              		.eabi_attribute 24, 1
   7              		.eabi_attribute 25, 1
   8              		.eabi_attribute 26, 1
   9              		.eabi_attribute 30, 2
  10              		.eabi_attribute 34, 1
  11              		.eabi_attribute 18, 4
  12              		.file	"arm_biquad_cascade_df1_fast_q31.c"
  13              		.text
  14              	.Ltext0:
  15              		.cfi_sections	.debug_frame
  16              		.section	.text.arm_biquad_cascade_df1_fast_q31,"ax",%progbits
  17              		.align	1
  18              		.p2align 2,,3
  19              		.global	arm_biquad_cascade_df1_fast_q31
  20              		.arch armv7e-m
  21              		.syntax unified
  22              		.thumb
  23              		.thumb_func
  24              		.fpu fpv5-d16
  26              	arm_biquad_cascade_df1_fast_q31:
  27              	.LVL0:
  28              	.LFB145:
  29              		.file 1 ".//Libraries/CMSIS/DSP/Source/FilteringFunctions/arm_biquad_cascade_df1_fast_q31.c"
   1:.//Libraries/CMSIS/DSP/Source/FilteringFunctions/arm_biquad_cascade_df1_fast_q31.c **** /* ----------------------------------------------------------------------
   2:.//Libraries/CMSIS/DSP/Source/FilteringFunctions/arm_biquad_cascade_df1_fast_q31.c ****  * Project:      CMSIS DSP Library
   3:.//Libraries/CMSIS/DSP/Source/FilteringFunctions/arm_biquad_cascade_df1_fast_q31.c ****  * Title:        arm_biquad_cascade_df1_fast_q31.c
   4:.//Libraries/CMSIS/DSP/Source/FilteringFunctions/arm_biquad_cascade_df1_fast_q31.c ****  * Description:  Processing function for the Q31 Fast Biquad cascade DirectFormI(DF1) filter
   5:.//Libraries/CMSIS/DSP/Source/FilteringFunctions/arm_biquad_cascade_df1_fast_q31.c ****  *
   6:.//Libraries/CMSIS/DSP/Source/FilteringFunctions/arm_biquad_cascade_df1_fast_q31.c ****  * $Date:        18. March 2019
   7:.//Libraries/CMSIS/DSP/Source/FilteringFunctions/arm_biquad_cascade_df1_fast_q31.c ****  * $Revision:    V1.6.0
   8:.//Libraries/CMSIS/DSP/Source/FilteringFunctions/arm_biquad_cascade_df1_fast_q31.c ****  *
   9:.//Libraries/CMSIS/DSP/Source/FilteringFunctions/arm_biquad_cascade_df1_fast_q31.c ****  * Target Processor: Cortex-M cores
  10:.//Libraries/CMSIS/DSP/Source/FilteringFunctions/arm_biquad_cascade_df1_fast_q31.c ****  * -------------------------------------------------------------------- */
  11:.//Libraries/CMSIS/DSP/Source/FilteringFunctions/arm_biquad_cascade_df1_fast_q31.c **** /*
  12:.//Libraries/CMSIS/DSP/Source/FilteringFunctions/arm_biquad_cascade_df1_fast_q31.c ****  * Copyright (C) 2010-2019 ARM Limited or its affiliates. All rights reserved.
  13:.//Libraries/CMSIS/DSP/Source/FilteringFunctions/arm_biquad_cascade_df1_fast_q31.c ****  *
  14:.//Libraries/CMSIS/DSP/Source/FilteringFunctions/arm_biquad_cascade_df1_fast_q31.c ****  * SPDX-License-Identifier: Apache-2.0
  15:.//Libraries/CMSIS/DSP/Source/FilteringFunctions/arm_biquad_cascade_df1_fast_q31.c ****  *
  16:.//Libraries/CMSIS/DSP/Source/FilteringFunctions/arm_biquad_cascade_df1_fast_q31.c ****  * Licensed under the Apache License, Version 2.0 (the License); you may
  17:.//Libraries/CMSIS/DSP/Source/FilteringFunctions/arm_biquad_cascade_df1_fast_q31.c ****  * not use this file except in compliance with the License.
  18:.//Libraries/CMSIS/DSP/Source/FilteringFunctions/arm_biquad_cascade_df1_fast_q31.c ****  * You may obtain a copy of the License at
  19:.//Libraries/CMSIS/DSP/Source/FilteringFunctions/arm_biquad_cascade_df1_fast_q31.c ****  *
  20:.//Libraries/CMSIS/DSP/Source/FilteringFunctions/arm_biquad_cascade_df1_fast_q31.c ****  * www.apache.org/licenses/LICENSE-2.0
  21:.//Libraries/CMSIS/DSP/Source/FilteringFunctions/arm_biquad_cascade_df1_fast_q31.c ****  *
  22:.//Libraries/CMSIS/DSP/Source/FilteringFunctions/arm_biquad_cascade_df1_fast_q31.c ****  * Unless required by applicable law or agreed to in writing, software
  23:.//Libraries/CMSIS/DSP/Source/FilteringFunctions/arm_biquad_cascade_df1_fast_q31.c ****  * distributed under the License is distributed on an AS IS BASIS, WITHOUT
  24:.//Libraries/CMSIS/DSP/Source/FilteringFunctions/arm_biquad_cascade_df1_fast_q31.c ****  * WARRANTIES OR CONDITIONS OF ANY KIND, either express or implied.
  25:.//Libraries/CMSIS/DSP/Source/FilteringFunctions/arm_biquad_cascade_df1_fast_q31.c ****  * See the License for the specific language governing permissions and
  26:.//Libraries/CMSIS/DSP/Source/FilteringFunctions/arm_biquad_cascade_df1_fast_q31.c ****  * limitations under the License.
  27:.//Libraries/CMSIS/DSP/Source/FilteringFunctions/arm_biquad_cascade_df1_fast_q31.c ****  */
  28:.//Libraries/CMSIS/DSP/Source/FilteringFunctions/arm_biquad_cascade_df1_fast_q31.c **** 
  29:.//Libraries/CMSIS/DSP/Source/FilteringFunctions/arm_biquad_cascade_df1_fast_q31.c **** #include "arm_math.h"
ARM GAS  /var/folders/wl/rshn8xbx1dsfj1zgryf4g1240000gn/T//ccX1O5Yz.s 			page 2


  30:.//Libraries/CMSIS/DSP/Source/FilteringFunctions/arm_biquad_cascade_df1_fast_q31.c **** 
  31:.//Libraries/CMSIS/DSP/Source/FilteringFunctions/arm_biquad_cascade_df1_fast_q31.c **** /**
  32:.//Libraries/CMSIS/DSP/Source/FilteringFunctions/arm_biquad_cascade_df1_fast_q31.c ****   @ingroup groupFilters
  33:.//Libraries/CMSIS/DSP/Source/FilteringFunctions/arm_biquad_cascade_df1_fast_q31.c ****  */
  34:.//Libraries/CMSIS/DSP/Source/FilteringFunctions/arm_biquad_cascade_df1_fast_q31.c **** 
  35:.//Libraries/CMSIS/DSP/Source/FilteringFunctions/arm_biquad_cascade_df1_fast_q31.c **** /**
  36:.//Libraries/CMSIS/DSP/Source/FilteringFunctions/arm_biquad_cascade_df1_fast_q31.c ****   @addtogroup BiquadCascadeDF1
  37:.//Libraries/CMSIS/DSP/Source/FilteringFunctions/arm_biquad_cascade_df1_fast_q31.c ****   @{
  38:.//Libraries/CMSIS/DSP/Source/FilteringFunctions/arm_biquad_cascade_df1_fast_q31.c ****  */
  39:.//Libraries/CMSIS/DSP/Source/FilteringFunctions/arm_biquad_cascade_df1_fast_q31.c **** 
  40:.//Libraries/CMSIS/DSP/Source/FilteringFunctions/arm_biquad_cascade_df1_fast_q31.c **** /**
  41:.//Libraries/CMSIS/DSP/Source/FilteringFunctions/arm_biquad_cascade_df1_fast_q31.c ****   @brief         Processing function for the Q31 Biquad cascade filter (fast variant).
  42:.//Libraries/CMSIS/DSP/Source/FilteringFunctions/arm_biquad_cascade_df1_fast_q31.c ****   @param[in]     S         points to an instance of the Q31 Biquad cascade structure
  43:.//Libraries/CMSIS/DSP/Source/FilteringFunctions/arm_biquad_cascade_df1_fast_q31.c ****   @param[in]     pSrc      points to the block of input data
  44:.//Libraries/CMSIS/DSP/Source/FilteringFunctions/arm_biquad_cascade_df1_fast_q31.c ****   @param[out]    pDst      points to the block of output data
  45:.//Libraries/CMSIS/DSP/Source/FilteringFunctions/arm_biquad_cascade_df1_fast_q31.c ****   @param[in]     blockSize number of samples to process per call
  46:.//Libraries/CMSIS/DSP/Source/FilteringFunctions/arm_biquad_cascade_df1_fast_q31.c ****   @return        none
  47:.//Libraries/CMSIS/DSP/Source/FilteringFunctions/arm_biquad_cascade_df1_fast_q31.c **** 
  48:.//Libraries/CMSIS/DSP/Source/FilteringFunctions/arm_biquad_cascade_df1_fast_q31.c ****   @par           Scaling and Overflow Behavior
  49:.//Libraries/CMSIS/DSP/Source/FilteringFunctions/arm_biquad_cascade_df1_fast_q31.c ****                    This function is optimized for speed at the expense of fixed-point precision and
  50:.//Libraries/CMSIS/DSP/Source/FilteringFunctions/arm_biquad_cascade_df1_fast_q31.c ****                    The result of each 1.31 x 1.31 multiplication is truncated to 2.30 format.
  51:.//Libraries/CMSIS/DSP/Source/FilteringFunctions/arm_biquad_cascade_df1_fast_q31.c ****                    These intermediate results are added to a 2.30 accumulator.
  52:.//Libraries/CMSIS/DSP/Source/FilteringFunctions/arm_biquad_cascade_df1_fast_q31.c ****                    Finally, the accumulator is saturated and converted to a 1.31 result.
  53:.//Libraries/CMSIS/DSP/Source/FilteringFunctions/arm_biquad_cascade_df1_fast_q31.c ****                    The fast version has the same overflow behavior as the standard version and prov
  54:.//Libraries/CMSIS/DSP/Source/FilteringFunctions/arm_biquad_cascade_df1_fast_q31.c ****                    In order to avoid overflows completely the input signal must be scaled down by t
  55:.//Libraries/CMSIS/DSP/Source/FilteringFunctions/arm_biquad_cascade_df1_fast_q31.c ****                    arm_biquad_cascade_df1_init_q31() to initialize filter structure.
  56:.//Libraries/CMSIS/DSP/Source/FilteringFunctions/arm_biquad_cascade_df1_fast_q31.c ****   @remark
  57:.//Libraries/CMSIS/DSP/Source/FilteringFunctions/arm_biquad_cascade_df1_fast_q31.c ****                    Refer to \ref arm_biquad_cascade_df1_q31() for a slower implementation of this f
  58:.//Libraries/CMSIS/DSP/Source/FilteringFunctions/arm_biquad_cascade_df1_fast_q31.c ****                    which uses 64-bit accumulation to provide higher precision. Both the slow and th
  59:.//Libraries/CMSIS/DSP/Source/FilteringFunctions/arm_biquad_cascade_df1_fast_q31.c ****                    Use the function \ref arm_biquad_cascade_df1_init_q31() to initialize the filter
  60:.//Libraries/CMSIS/DSP/Source/FilteringFunctions/arm_biquad_cascade_df1_fast_q31.c ****  */
  61:.//Libraries/CMSIS/DSP/Source/FilteringFunctions/arm_biquad_cascade_df1_fast_q31.c **** 
  62:.//Libraries/CMSIS/DSP/Source/FilteringFunctions/arm_biquad_cascade_df1_fast_q31.c **** void arm_biquad_cascade_df1_fast_q31(
  63:.//Libraries/CMSIS/DSP/Source/FilteringFunctions/arm_biquad_cascade_df1_fast_q31.c ****   const arm_biquad_casd_df1_inst_q31 * S,
  64:.//Libraries/CMSIS/DSP/Source/FilteringFunctions/arm_biquad_cascade_df1_fast_q31.c ****   const q31_t * pSrc,
  65:.//Libraries/CMSIS/DSP/Source/FilteringFunctions/arm_biquad_cascade_df1_fast_q31.c ****         q31_t * pDst,
  66:.//Libraries/CMSIS/DSP/Source/FilteringFunctions/arm_biquad_cascade_df1_fast_q31.c ****         uint32_t blockSize)
  67:.//Libraries/CMSIS/DSP/Source/FilteringFunctions/arm_biquad_cascade_df1_fast_q31.c **** {
  30              		.loc 1 67 1 view -0
  31              		.cfi_startproc
  32              		@ args = 0, pretend = 0, frame = 72
  33              		@ frame_needed = 0, uses_anonymous_args = 0
  68:.//Libraries/CMSIS/DSP/Source/FilteringFunctions/arm_biquad_cascade_df1_fast_q31.c ****   const q31_t *pIn = pSrc;                             /* Source pointer */
  34              		.loc 1 68 3 view .LVU1
  67:.//Libraries/CMSIS/DSP/Source/FilteringFunctions/arm_biquad_cascade_df1_fast_q31.c ****   const q31_t *pIn = pSrc;                             /* Source pointer */
  35              		.loc 1 67 1 is_stmt 0 view .LVU2
  36 0000 2DE9F04F 		push	{r4, r5, r6, r7, r8, r9, r10, fp, lr}
  37              	.LCFI0:
  38              		.cfi_def_cfa_offset 36
  39              		.cfi_offset 4, -36
  40              		.cfi_offset 5, -32
  41              		.cfi_offset 6, -28
  42              		.cfi_offset 7, -24
  43              		.cfi_offset 8, -20
  44              		.cfi_offset 9, -16
  45              		.cfi_offset 10, -12
  46              		.cfi_offset 11, -8
ARM GAS  /var/folders/wl/rshn8xbx1dsfj1zgryf4g1240000gn/T//ccX1O5Yz.s 			page 3


  47              		.cfi_offset 14, -4
  48 0004 93B0     		sub	sp, sp, #76
  49              	.LCFI1:
  50              		.cfi_def_cfa_offset 112
  67:.//Libraries/CMSIS/DSP/Source/FilteringFunctions/arm_biquad_cascade_df1_fast_q31.c ****   const q31_t *pIn = pSrc;                             /* Source pointer */
  51              		.loc 1 67 1 view .LVU3
  52 0006 8846     		mov	r8, r1
  53              	.LVL1:
  69:.//Libraries/CMSIS/DSP/Source/FilteringFunctions/arm_biquad_cascade_df1_fast_q31.c ****         q31_t *pOut = pDst;                            /* Destination pointer */
  54              		.loc 1 69 9 is_stmt 1 view .LVU4
  70:.//Libraries/CMSIS/DSP/Source/FilteringFunctions/arm_biquad_cascade_df1_fast_q31.c ****         q31_t *pState = S->pState;                     /* pState pointer */
  71:.//Libraries/CMSIS/DSP/Source/FilteringFunctions/arm_biquad_cascade_df1_fast_q31.c ****   const q31_t *pCoeffs = S->pCoeffs;                   /* Coefficient pointer */
  72:.//Libraries/CMSIS/DSP/Source/FilteringFunctions/arm_biquad_cascade_df1_fast_q31.c ****         q31_t acc = 0;                                 /* Accumulator */
  73:.//Libraries/CMSIS/DSP/Source/FilteringFunctions/arm_biquad_cascade_df1_fast_q31.c ****         q31_t b0, b1, b2, a1, a2;                      /* Filter coefficients */
  74:.//Libraries/CMSIS/DSP/Source/FilteringFunctions/arm_biquad_cascade_df1_fast_q31.c ****         q31_t Xn1, Xn2, Yn1, Yn2;                      /* Filter pState variables */
  75:.//Libraries/CMSIS/DSP/Source/FilteringFunctions/arm_biquad_cascade_df1_fast_q31.c ****         q31_t Xn;                                      /* Temporary input */
  76:.//Libraries/CMSIS/DSP/Source/FilteringFunctions/arm_biquad_cascade_df1_fast_q31.c ****         int32_t shift = (int32_t) S->postShift + 1;    /* Shift to be applied to the output */
  55              		.loc 1 76 25 is_stmt 0 view .LVU5
  56 0008 017B     		ldrb	r1, [r0, #12]	@ zero_extendqisi2
  57              	.LVL2:
  77:.//Libraries/CMSIS/DSP/Source/FilteringFunctions/arm_biquad_cascade_df1_fast_q31.c ****         uint32_t sample, stage = S->numStages;         /* Loop counters */
  78:.//Libraries/CMSIS/DSP/Source/FilteringFunctions/arm_biquad_cascade_df1_fast_q31.c **** 
  79:.//Libraries/CMSIS/DSP/Source/FilteringFunctions/arm_biquad_cascade_df1_fast_q31.c ****   do
  80:.//Libraries/CMSIS/DSP/Source/FilteringFunctions/arm_biquad_cascade_df1_fast_q31.c ****   {
  81:.//Libraries/CMSIS/DSP/Source/FilteringFunctions/arm_biquad_cascade_df1_fast_q31.c ****     /* Reading the coefficients */
  82:.//Libraries/CMSIS/DSP/Source/FilteringFunctions/arm_biquad_cascade_df1_fast_q31.c ****     b0 = *pCoeffs++;
  83:.//Libraries/CMSIS/DSP/Source/FilteringFunctions/arm_biquad_cascade_df1_fast_q31.c ****     b1 = *pCoeffs++;
  84:.//Libraries/CMSIS/DSP/Source/FilteringFunctions/arm_biquad_cascade_df1_fast_q31.c ****     b2 = *pCoeffs++;
  85:.//Libraries/CMSIS/DSP/Source/FilteringFunctions/arm_biquad_cascade_df1_fast_q31.c ****     a1 = *pCoeffs++;
  86:.//Libraries/CMSIS/DSP/Source/FilteringFunctions/arm_biquad_cascade_df1_fast_q31.c ****     a2 = *pCoeffs++;
  87:.//Libraries/CMSIS/DSP/Source/FilteringFunctions/arm_biquad_cascade_df1_fast_q31.c **** 
  88:.//Libraries/CMSIS/DSP/Source/FilteringFunctions/arm_biquad_cascade_df1_fast_q31.c ****     /* Reading the pState values */
  89:.//Libraries/CMSIS/DSP/Source/FilteringFunctions/arm_biquad_cascade_df1_fast_q31.c ****     Xn1 = pState[0];
  90:.//Libraries/CMSIS/DSP/Source/FilteringFunctions/arm_biquad_cascade_df1_fast_q31.c ****     Xn2 = pState[1];
  91:.//Libraries/CMSIS/DSP/Source/FilteringFunctions/arm_biquad_cascade_df1_fast_q31.c ****     Yn1 = pState[2];
  92:.//Libraries/CMSIS/DSP/Source/FilteringFunctions/arm_biquad_cascade_df1_fast_q31.c ****     Yn2 = pState[3];
  93:.//Libraries/CMSIS/DSP/Source/FilteringFunctions/arm_biquad_cascade_df1_fast_q31.c **** 
  94:.//Libraries/CMSIS/DSP/Source/FilteringFunctions/arm_biquad_cascade_df1_fast_q31.c **** #if defined (ARM_MATH_LOOPUNROLL)
  95:.//Libraries/CMSIS/DSP/Source/FilteringFunctions/arm_biquad_cascade_df1_fast_q31.c **** 
  96:.//Libraries/CMSIS/DSP/Source/FilteringFunctions/arm_biquad_cascade_df1_fast_q31.c ****     /* Apply loop unrolling and compute 4 output values simultaneously. */
  97:.//Libraries/CMSIS/DSP/Source/FilteringFunctions/arm_biquad_cascade_df1_fast_q31.c ****     /* Variables acc ... acc3 hold output values that are being computed:
  98:.//Libraries/CMSIS/DSP/Source/FilteringFunctions/arm_biquad_cascade_df1_fast_q31.c ****      *
  99:.//Libraries/CMSIS/DSP/Source/FilteringFunctions/arm_biquad_cascade_df1_fast_q31.c ****      * acc =  b0 * x[n] + b1 * x[n-1] + b2 * x[n-2] + a1 * y[n-1] + a2 * y[n-2]
 100:.//Libraries/CMSIS/DSP/Source/FilteringFunctions/arm_biquad_cascade_df1_fast_q31.c ****      */
 101:.//Libraries/CMSIS/DSP/Source/FilteringFunctions/arm_biquad_cascade_df1_fast_q31.c **** 
 102:.//Libraries/CMSIS/DSP/Source/FilteringFunctions/arm_biquad_cascade_df1_fast_q31.c ****     /* Loop unrolling: Compute 4 outputs at a time */
 103:.//Libraries/CMSIS/DSP/Source/FilteringFunctions/arm_biquad_cascade_df1_fast_q31.c ****     sample = blockSize >> 2U;
 104:.//Libraries/CMSIS/DSP/Source/FilteringFunctions/arm_biquad_cascade_df1_fast_q31.c **** 
 105:.//Libraries/CMSIS/DSP/Source/FilteringFunctions/arm_biquad_cascade_df1_fast_q31.c ****     while (sample > 0U)
 106:.//Libraries/CMSIS/DSP/Source/FilteringFunctions/arm_biquad_cascade_df1_fast_q31.c ****     {
 107:.//Libraries/CMSIS/DSP/Source/FilteringFunctions/arm_biquad_cascade_df1_fast_q31.c ****       /* Read the input */
 108:.//Libraries/CMSIS/DSP/Source/FilteringFunctions/arm_biquad_cascade_df1_fast_q31.c ****       Xn = *pIn;
 109:.//Libraries/CMSIS/DSP/Source/FilteringFunctions/arm_biquad_cascade_df1_fast_q31.c **** 
 110:.//Libraries/CMSIS/DSP/Source/FilteringFunctions/arm_biquad_cascade_df1_fast_q31.c ****       /* acc =  b0 * x[n] + b1 * x[n-1] + b2 * x[n-2] + a1 * y[n-1] + a2 * y[n-2] */
 111:.//Libraries/CMSIS/DSP/Source/FilteringFunctions/arm_biquad_cascade_df1_fast_q31.c ****       /* acc =  b0 * x[n] */
 112:.//Libraries/CMSIS/DSP/Source/FilteringFunctions/arm_biquad_cascade_df1_fast_q31.c ****       /* acc = (q31_t) (((q63_t) b1 * Xn1) >> 32);*/
 113:.//Libraries/CMSIS/DSP/Source/FilteringFunctions/arm_biquad_cascade_df1_fast_q31.c ****       mult_32x32_keep32_R(acc, b1, Xn1);
ARM GAS  /var/folders/wl/rshn8xbx1dsfj1zgryf4g1240000gn/T//ccX1O5Yz.s 			page 4


 114:.//Libraries/CMSIS/DSP/Source/FilteringFunctions/arm_biquad_cascade_df1_fast_q31.c ****       /* acc +=  b1 * x[n-1] */
 115:.//Libraries/CMSIS/DSP/Source/FilteringFunctions/arm_biquad_cascade_df1_fast_q31.c ****       /* acc = (q31_t) ((((q63_t) acc << 32) + ((q63_t) b0 * (Xn))) >> 32);*/
 116:.//Libraries/CMSIS/DSP/Source/FilteringFunctions/arm_biquad_cascade_df1_fast_q31.c ****       multAcc_32x32_keep32_R(acc, b0, Xn);
 117:.//Libraries/CMSIS/DSP/Source/FilteringFunctions/arm_biquad_cascade_df1_fast_q31.c ****       /* acc +=  b[2] * x[n-2] */
 118:.//Libraries/CMSIS/DSP/Source/FilteringFunctions/arm_biquad_cascade_df1_fast_q31.c ****       /* acc = (q31_t) ((((q63_t) acc << 32) + ((q63_t) b2 * (Xn2))) >> 32);*/
 119:.//Libraries/CMSIS/DSP/Source/FilteringFunctions/arm_biquad_cascade_df1_fast_q31.c ****       multAcc_32x32_keep32_R(acc, b2, Xn2);
 120:.//Libraries/CMSIS/DSP/Source/FilteringFunctions/arm_biquad_cascade_df1_fast_q31.c ****       /* acc +=  a1 * y[n-1] */
 121:.//Libraries/CMSIS/DSP/Source/FilteringFunctions/arm_biquad_cascade_df1_fast_q31.c ****       /* acc = (q31_t) ((((q63_t) acc << 32) + ((q63_t) a1 * (Yn1))) >> 32);*/
 122:.//Libraries/CMSIS/DSP/Source/FilteringFunctions/arm_biquad_cascade_df1_fast_q31.c ****       multAcc_32x32_keep32_R(acc, a1, Yn1);
 123:.//Libraries/CMSIS/DSP/Source/FilteringFunctions/arm_biquad_cascade_df1_fast_q31.c ****       /* acc +=  a2 * y[n-2] */
 124:.//Libraries/CMSIS/DSP/Source/FilteringFunctions/arm_biquad_cascade_df1_fast_q31.c ****       /* acc = (q31_t) ((((q63_t) acc << 32) + ((q63_t) a2 * (Yn2))) >> 32);*/
 125:.//Libraries/CMSIS/DSP/Source/FilteringFunctions/arm_biquad_cascade_df1_fast_q31.c ****       multAcc_32x32_keep32_R(acc, a2, Yn2);
 126:.//Libraries/CMSIS/DSP/Source/FilteringFunctions/arm_biquad_cascade_df1_fast_q31.c **** 
 127:.//Libraries/CMSIS/DSP/Source/FilteringFunctions/arm_biquad_cascade_df1_fast_q31.c ****       /* The result is converted to 1.31 , Yn2 variable is reused */
 128:.//Libraries/CMSIS/DSP/Source/FilteringFunctions/arm_biquad_cascade_df1_fast_q31.c ****       Yn2 = acc << shift;
 129:.//Libraries/CMSIS/DSP/Source/FilteringFunctions/arm_biquad_cascade_df1_fast_q31.c **** 
 130:.//Libraries/CMSIS/DSP/Source/FilteringFunctions/arm_biquad_cascade_df1_fast_q31.c ****       /* Read the second input */
 131:.//Libraries/CMSIS/DSP/Source/FilteringFunctions/arm_biquad_cascade_df1_fast_q31.c ****       Xn2 = *(pIn + 1U);
 132:.//Libraries/CMSIS/DSP/Source/FilteringFunctions/arm_biquad_cascade_df1_fast_q31.c **** 
 133:.//Libraries/CMSIS/DSP/Source/FilteringFunctions/arm_biquad_cascade_df1_fast_q31.c ****       /* Store the output in the destination buffer. */
 134:.//Libraries/CMSIS/DSP/Source/FilteringFunctions/arm_biquad_cascade_df1_fast_q31.c ****       *pOut = Yn2;
 135:.//Libraries/CMSIS/DSP/Source/FilteringFunctions/arm_biquad_cascade_df1_fast_q31.c **** 
 136:.//Libraries/CMSIS/DSP/Source/FilteringFunctions/arm_biquad_cascade_df1_fast_q31.c ****       /* acc =  b0 * x[n] + b1 * x[n-1] + b2 * x[n-2] + a1 * y[n-1] + a2 * y[n-2] */
 137:.//Libraries/CMSIS/DSP/Source/FilteringFunctions/arm_biquad_cascade_df1_fast_q31.c ****       /* acc =  b0 * x[n] */
 138:.//Libraries/CMSIS/DSP/Source/FilteringFunctions/arm_biquad_cascade_df1_fast_q31.c ****       /* acc = (q31_t) (((q63_t) b0 * (Xn2)) >> 32);*/
 139:.//Libraries/CMSIS/DSP/Source/FilteringFunctions/arm_biquad_cascade_df1_fast_q31.c ****       mult_32x32_keep32_R(acc, b0, Xn2);
 140:.//Libraries/CMSIS/DSP/Source/FilteringFunctions/arm_biquad_cascade_df1_fast_q31.c ****       /* acc +=  b1 * x[n-1] */
 141:.//Libraries/CMSIS/DSP/Source/FilteringFunctions/arm_biquad_cascade_df1_fast_q31.c ****       /* acc = (q31_t) ((((q63_t) acc << 32) + ((q63_t) b1 * (Xn))) >> 32);*/
 142:.//Libraries/CMSIS/DSP/Source/FilteringFunctions/arm_biquad_cascade_df1_fast_q31.c ****       multAcc_32x32_keep32_R(acc, b1, Xn);
 143:.//Libraries/CMSIS/DSP/Source/FilteringFunctions/arm_biquad_cascade_df1_fast_q31.c ****       /* acc +=  b[2] * x[n-2] */
 144:.//Libraries/CMSIS/DSP/Source/FilteringFunctions/arm_biquad_cascade_df1_fast_q31.c ****       /* acc = (q31_t) ((((q63_t) acc << 32) + ((q63_t) b2 * (Xn1))) >> 32);*/
 145:.//Libraries/CMSIS/DSP/Source/FilteringFunctions/arm_biquad_cascade_df1_fast_q31.c ****       multAcc_32x32_keep32_R(acc, b2, Xn1);
 146:.//Libraries/CMSIS/DSP/Source/FilteringFunctions/arm_biquad_cascade_df1_fast_q31.c ****       /* acc +=  a1 * y[n-1] */
 147:.//Libraries/CMSIS/DSP/Source/FilteringFunctions/arm_biquad_cascade_df1_fast_q31.c ****       /* acc = (q31_t) ((((q63_t) acc << 32) + ((q63_t) a1 * (Yn2))) >> 32);*/
 148:.//Libraries/CMSIS/DSP/Source/FilteringFunctions/arm_biquad_cascade_df1_fast_q31.c ****       multAcc_32x32_keep32_R(acc, a1, Yn2);
 149:.//Libraries/CMSIS/DSP/Source/FilteringFunctions/arm_biquad_cascade_df1_fast_q31.c ****       /* acc +=  a2 * y[n-2] */
 150:.//Libraries/CMSIS/DSP/Source/FilteringFunctions/arm_biquad_cascade_df1_fast_q31.c ****       /* acc = (q31_t) ((((q63_t) acc << 32) + ((q63_t) a2 * (Yn1))) >> 32);*/
 151:.//Libraries/CMSIS/DSP/Source/FilteringFunctions/arm_biquad_cascade_df1_fast_q31.c ****       multAcc_32x32_keep32_R(acc, a2, Yn1);
 152:.//Libraries/CMSIS/DSP/Source/FilteringFunctions/arm_biquad_cascade_df1_fast_q31.c **** 
 153:.//Libraries/CMSIS/DSP/Source/FilteringFunctions/arm_biquad_cascade_df1_fast_q31.c ****       /* The result is converted to 1.31, Yn1 variable is reused  */
 154:.//Libraries/CMSIS/DSP/Source/FilteringFunctions/arm_biquad_cascade_df1_fast_q31.c ****       Yn1 = acc << shift;
 155:.//Libraries/CMSIS/DSP/Source/FilteringFunctions/arm_biquad_cascade_df1_fast_q31.c **** 
 156:.//Libraries/CMSIS/DSP/Source/FilteringFunctions/arm_biquad_cascade_df1_fast_q31.c ****       /* Read the third input  */
 157:.//Libraries/CMSIS/DSP/Source/FilteringFunctions/arm_biquad_cascade_df1_fast_q31.c ****       Xn1 = *(pIn + 2U);
 158:.//Libraries/CMSIS/DSP/Source/FilteringFunctions/arm_biquad_cascade_df1_fast_q31.c **** 
 159:.//Libraries/CMSIS/DSP/Source/FilteringFunctions/arm_biquad_cascade_df1_fast_q31.c ****       /* Store the output in the destination buffer. */
 160:.//Libraries/CMSIS/DSP/Source/FilteringFunctions/arm_biquad_cascade_df1_fast_q31.c ****       *(pOut + 1U) = Yn1;
 161:.//Libraries/CMSIS/DSP/Source/FilteringFunctions/arm_biquad_cascade_df1_fast_q31.c **** 
 162:.//Libraries/CMSIS/DSP/Source/FilteringFunctions/arm_biquad_cascade_df1_fast_q31.c ****       /* acc =  b0 * x[n] + b1 * x[n-1] + b2 * x[n-2] + a1 * y[n-1] + a2 * y[n-2] */
 163:.//Libraries/CMSIS/DSP/Source/FilteringFunctions/arm_biquad_cascade_df1_fast_q31.c ****       /* acc =  b0 * x[n] */
 164:.//Libraries/CMSIS/DSP/Source/FilteringFunctions/arm_biquad_cascade_df1_fast_q31.c ****       /* acc = (q31_t) (((q63_t) b0 * (Xn1)) >> 32);*/
 165:.//Libraries/CMSIS/DSP/Source/FilteringFunctions/arm_biquad_cascade_df1_fast_q31.c ****       mult_32x32_keep32_R(acc, b0, Xn1);
 166:.//Libraries/CMSIS/DSP/Source/FilteringFunctions/arm_biquad_cascade_df1_fast_q31.c ****       /* acc +=  b1 * x[n-1] */
 167:.//Libraries/CMSIS/DSP/Source/FilteringFunctions/arm_biquad_cascade_df1_fast_q31.c ****       /* acc = (q31_t) ((((q63_t) acc << 32) + ((q63_t) b1 * (Xn2))) >> 32);*/
 168:.//Libraries/CMSIS/DSP/Source/FilteringFunctions/arm_biquad_cascade_df1_fast_q31.c ****       multAcc_32x32_keep32_R(acc, b1, Xn2);
 169:.//Libraries/CMSIS/DSP/Source/FilteringFunctions/arm_biquad_cascade_df1_fast_q31.c ****       /* acc +=  b[2] * x[n-2] */
 170:.//Libraries/CMSIS/DSP/Source/FilteringFunctions/arm_biquad_cascade_df1_fast_q31.c ****       /* acc = (q31_t) ((((q63_t) acc << 32) + ((q63_t) b2 * (Xn))) >> 32);*/
ARM GAS  /var/folders/wl/rshn8xbx1dsfj1zgryf4g1240000gn/T//ccX1O5Yz.s 			page 5


 171:.//Libraries/CMSIS/DSP/Source/FilteringFunctions/arm_biquad_cascade_df1_fast_q31.c ****       multAcc_32x32_keep32_R(acc, b2, Xn);
 172:.//Libraries/CMSIS/DSP/Source/FilteringFunctions/arm_biquad_cascade_df1_fast_q31.c ****       /* acc +=  a1 * y[n-1] */
 173:.//Libraries/CMSIS/DSP/Source/FilteringFunctions/arm_biquad_cascade_df1_fast_q31.c ****       /* acc = (q31_t) ((((q63_t) acc << 32) + ((q63_t) a1 * (Yn1))) >> 32);*/
 174:.//Libraries/CMSIS/DSP/Source/FilteringFunctions/arm_biquad_cascade_df1_fast_q31.c ****       multAcc_32x32_keep32_R(acc, a1, Yn1);
 175:.//Libraries/CMSIS/DSP/Source/FilteringFunctions/arm_biquad_cascade_df1_fast_q31.c ****       /* acc +=  a2 * y[n-2] */
 176:.//Libraries/CMSIS/DSP/Source/FilteringFunctions/arm_biquad_cascade_df1_fast_q31.c ****       /* acc = (q31_t) ((((q63_t) acc << 32) + ((q63_t) a2 * (Yn2))) >> 32);*/
 177:.//Libraries/CMSIS/DSP/Source/FilteringFunctions/arm_biquad_cascade_df1_fast_q31.c ****       multAcc_32x32_keep32_R(acc, a2, Yn2);
 178:.//Libraries/CMSIS/DSP/Source/FilteringFunctions/arm_biquad_cascade_df1_fast_q31.c **** 
 179:.//Libraries/CMSIS/DSP/Source/FilteringFunctions/arm_biquad_cascade_df1_fast_q31.c ****       /* The result is converted to 1.31, Yn2 variable is reused  */
 180:.//Libraries/CMSIS/DSP/Source/FilteringFunctions/arm_biquad_cascade_df1_fast_q31.c ****       Yn2 = acc << shift;
 181:.//Libraries/CMSIS/DSP/Source/FilteringFunctions/arm_biquad_cascade_df1_fast_q31.c **** 
 182:.//Libraries/CMSIS/DSP/Source/FilteringFunctions/arm_biquad_cascade_df1_fast_q31.c ****       /* Read the forth input */
 183:.//Libraries/CMSIS/DSP/Source/FilteringFunctions/arm_biquad_cascade_df1_fast_q31.c ****       Xn = *(pIn + 3U);
 184:.//Libraries/CMSIS/DSP/Source/FilteringFunctions/arm_biquad_cascade_df1_fast_q31.c **** 
 185:.//Libraries/CMSIS/DSP/Source/FilteringFunctions/arm_biquad_cascade_df1_fast_q31.c ****       /* Store the output in the destination buffer. */
 186:.//Libraries/CMSIS/DSP/Source/FilteringFunctions/arm_biquad_cascade_df1_fast_q31.c ****       *(pOut + 2U) = Yn2;
 187:.//Libraries/CMSIS/DSP/Source/FilteringFunctions/arm_biquad_cascade_df1_fast_q31.c ****       pIn += 4U;
 188:.//Libraries/CMSIS/DSP/Source/FilteringFunctions/arm_biquad_cascade_df1_fast_q31.c **** 
 189:.//Libraries/CMSIS/DSP/Source/FilteringFunctions/arm_biquad_cascade_df1_fast_q31.c ****       /* acc =  b0 * x[n] + b1 * x[n-1] + b2 * x[n-2] + a1 * y[n-1] + a2 * y[n-2] */
 190:.//Libraries/CMSIS/DSP/Source/FilteringFunctions/arm_biquad_cascade_df1_fast_q31.c ****       /* acc =  b0 * x[n] */
 191:.//Libraries/CMSIS/DSP/Source/FilteringFunctions/arm_biquad_cascade_df1_fast_q31.c ****       /* acc = (q31_t) (((q63_t) b0 * (Xn)) >> 32);*/
 192:.//Libraries/CMSIS/DSP/Source/FilteringFunctions/arm_biquad_cascade_df1_fast_q31.c ****       mult_32x32_keep32_R(acc, b0, Xn);
 193:.//Libraries/CMSIS/DSP/Source/FilteringFunctions/arm_biquad_cascade_df1_fast_q31.c ****       /* acc +=  b1 * x[n-1] */
 194:.//Libraries/CMSIS/DSP/Source/FilteringFunctions/arm_biquad_cascade_df1_fast_q31.c ****       /*acc = (q31_t) ((((q63_t) acc << 32) + ((q63_t) b1 * (Xn1))) >> 32);*/
 195:.//Libraries/CMSIS/DSP/Source/FilteringFunctions/arm_biquad_cascade_df1_fast_q31.c ****       multAcc_32x32_keep32_R(acc, b1, Xn1);
 196:.//Libraries/CMSIS/DSP/Source/FilteringFunctions/arm_biquad_cascade_df1_fast_q31.c ****       /* acc +=  b[2] * x[n-2] */
 197:.//Libraries/CMSIS/DSP/Source/FilteringFunctions/arm_biquad_cascade_df1_fast_q31.c ****       /*acc = (q31_t) ((((q63_t) acc << 32) + ((q63_t) b2 * (Xn2))) >> 32);*/
 198:.//Libraries/CMSIS/DSP/Source/FilteringFunctions/arm_biquad_cascade_df1_fast_q31.c ****       multAcc_32x32_keep32_R(acc, b2, Xn2);
 199:.//Libraries/CMSIS/DSP/Source/FilteringFunctions/arm_biquad_cascade_df1_fast_q31.c ****       /* acc +=  a1 * y[n-1] */
 200:.//Libraries/CMSIS/DSP/Source/FilteringFunctions/arm_biquad_cascade_df1_fast_q31.c ****       /*acc = (q31_t) ((((q63_t) acc << 32) + ((q63_t) a1 * (Yn2))) >> 32);*/
 201:.//Libraries/CMSIS/DSP/Source/FilteringFunctions/arm_biquad_cascade_df1_fast_q31.c ****       multAcc_32x32_keep32_R(acc, a1, Yn2);
 202:.//Libraries/CMSIS/DSP/Source/FilteringFunctions/arm_biquad_cascade_df1_fast_q31.c ****       /* acc +=  a2 * y[n-2] */
 203:.//Libraries/CMSIS/DSP/Source/FilteringFunctions/arm_biquad_cascade_df1_fast_q31.c ****       /*acc = (q31_t) ((((q63_t) acc << 32) + ((q63_t) a2 * (Yn1))) >> 32);*/
 204:.//Libraries/CMSIS/DSP/Source/FilteringFunctions/arm_biquad_cascade_df1_fast_q31.c ****       multAcc_32x32_keep32_R(acc, a2, Yn1);
 205:.//Libraries/CMSIS/DSP/Source/FilteringFunctions/arm_biquad_cascade_df1_fast_q31.c **** 
 206:.//Libraries/CMSIS/DSP/Source/FilteringFunctions/arm_biquad_cascade_df1_fast_q31.c ****       /* Every time after the output is computed state should be updated. */
 207:.//Libraries/CMSIS/DSP/Source/FilteringFunctions/arm_biquad_cascade_df1_fast_q31.c ****       /* The states should be updated as:  */
 208:.//Libraries/CMSIS/DSP/Source/FilteringFunctions/arm_biquad_cascade_df1_fast_q31.c ****       /* Xn2 = Xn1 */
 209:.//Libraries/CMSIS/DSP/Source/FilteringFunctions/arm_biquad_cascade_df1_fast_q31.c ****       Xn2 = Xn1;
 210:.//Libraries/CMSIS/DSP/Source/FilteringFunctions/arm_biquad_cascade_df1_fast_q31.c **** 
 211:.//Libraries/CMSIS/DSP/Source/FilteringFunctions/arm_biquad_cascade_df1_fast_q31.c ****       /* The result is converted to 1.31, Yn1 variable is reused  */
 212:.//Libraries/CMSIS/DSP/Source/FilteringFunctions/arm_biquad_cascade_df1_fast_q31.c ****       Yn1 = acc << shift;
 213:.//Libraries/CMSIS/DSP/Source/FilteringFunctions/arm_biquad_cascade_df1_fast_q31.c **** 
 214:.//Libraries/CMSIS/DSP/Source/FilteringFunctions/arm_biquad_cascade_df1_fast_q31.c ****       /* Xn1 = Xn */
 215:.//Libraries/CMSIS/DSP/Source/FilteringFunctions/arm_biquad_cascade_df1_fast_q31.c ****       Xn1 = Xn;
 216:.//Libraries/CMSIS/DSP/Source/FilteringFunctions/arm_biquad_cascade_df1_fast_q31.c **** 
 217:.//Libraries/CMSIS/DSP/Source/FilteringFunctions/arm_biquad_cascade_df1_fast_q31.c ****       /* Store the output in the destination buffer. */
 218:.//Libraries/CMSIS/DSP/Source/FilteringFunctions/arm_biquad_cascade_df1_fast_q31.c ****       *(pOut + 3U) = Yn1;
 219:.//Libraries/CMSIS/DSP/Source/FilteringFunctions/arm_biquad_cascade_df1_fast_q31.c ****       pOut += 4U;
 220:.//Libraries/CMSIS/DSP/Source/FilteringFunctions/arm_biquad_cascade_df1_fast_q31.c **** 
 221:.//Libraries/CMSIS/DSP/Source/FilteringFunctions/arm_biquad_cascade_df1_fast_q31.c ****       /* decrement loop counter */
 222:.//Libraries/CMSIS/DSP/Source/FilteringFunctions/arm_biquad_cascade_df1_fast_q31.c ****       sample--;
 223:.//Libraries/CMSIS/DSP/Source/FilteringFunctions/arm_biquad_cascade_df1_fast_q31.c ****     }
 224:.//Libraries/CMSIS/DSP/Source/FilteringFunctions/arm_biquad_cascade_df1_fast_q31.c **** 
 225:.//Libraries/CMSIS/DSP/Source/FilteringFunctions/arm_biquad_cascade_df1_fast_q31.c ****     /* Loop unrolling: Compute remaining outputs */
 226:.//Libraries/CMSIS/DSP/Source/FilteringFunctions/arm_biquad_cascade_df1_fast_q31.c ****     sample = (blockSize & 0x3U);
 227:.//Libraries/CMSIS/DSP/Source/FilteringFunctions/arm_biquad_cascade_df1_fast_q31.c **** 
ARM GAS  /var/folders/wl/rshn8xbx1dsfj1zgryf4g1240000gn/T//ccX1O5Yz.s 			page 6


 228:.//Libraries/CMSIS/DSP/Source/FilteringFunctions/arm_biquad_cascade_df1_fast_q31.c **** #else
 229:.//Libraries/CMSIS/DSP/Source/FilteringFunctions/arm_biquad_cascade_df1_fast_q31.c **** 
 230:.//Libraries/CMSIS/DSP/Source/FilteringFunctions/arm_biquad_cascade_df1_fast_q31.c ****     /* Initialize blkCnt with number of samples */
 231:.//Libraries/CMSIS/DSP/Source/FilteringFunctions/arm_biquad_cascade_df1_fast_q31.c ****     sample = blockSize;
 232:.//Libraries/CMSIS/DSP/Source/FilteringFunctions/arm_biquad_cascade_df1_fast_q31.c **** 
 233:.//Libraries/CMSIS/DSP/Source/FilteringFunctions/arm_biquad_cascade_df1_fast_q31.c **** #endif /* #if defined (ARM_MATH_LOOPUNROLL) */
 234:.//Libraries/CMSIS/DSP/Source/FilteringFunctions/arm_biquad_cascade_df1_fast_q31.c **** 
 235:.//Libraries/CMSIS/DSP/Source/FilteringFunctions/arm_biquad_cascade_df1_fast_q31.c ****     while (sample > 0U)
 236:.//Libraries/CMSIS/DSP/Source/FilteringFunctions/arm_biquad_cascade_df1_fast_q31.c ****     {
 237:.//Libraries/CMSIS/DSP/Source/FilteringFunctions/arm_biquad_cascade_df1_fast_q31.c ****       /* Read the input */
 238:.//Libraries/CMSIS/DSP/Source/FilteringFunctions/arm_biquad_cascade_df1_fast_q31.c ****       Xn = *pIn++;
 239:.//Libraries/CMSIS/DSP/Source/FilteringFunctions/arm_biquad_cascade_df1_fast_q31.c **** 
 240:.//Libraries/CMSIS/DSP/Source/FilteringFunctions/arm_biquad_cascade_df1_fast_q31.c ****       /* acc =  b0 * x[n] + b1 * x[n-1] + b2 * x[n-2] + a1 * y[n-1] + a2 * y[n-2] */
 241:.//Libraries/CMSIS/DSP/Source/FilteringFunctions/arm_biquad_cascade_df1_fast_q31.c ****       /* acc =  b0 * x[n] */
 242:.//Libraries/CMSIS/DSP/Source/FilteringFunctions/arm_biquad_cascade_df1_fast_q31.c ****       /* acc = (q31_t) (((q63_t) b0 * (Xn)) >> 32);*/
 243:.//Libraries/CMSIS/DSP/Source/FilteringFunctions/arm_biquad_cascade_df1_fast_q31.c ****       mult_32x32_keep32_R(acc, b0, Xn);
 244:.//Libraries/CMSIS/DSP/Source/FilteringFunctions/arm_biquad_cascade_df1_fast_q31.c ****       /* acc +=  b1 * x[n-1] */
 245:.//Libraries/CMSIS/DSP/Source/FilteringFunctions/arm_biquad_cascade_df1_fast_q31.c ****       /* acc = (q31_t) ((((q63_t) acc << 32) + ((q63_t) b1 * (Xn1))) >> 32);*/
 246:.//Libraries/CMSIS/DSP/Source/FilteringFunctions/arm_biquad_cascade_df1_fast_q31.c ****       multAcc_32x32_keep32_R(acc, b1, Xn1);
  58              		.loc 1 246 7 view .LVU6
  59 000a 4FF0000E 		mov	lr, #0
  67:.//Libraries/CMSIS/DSP/Source/FilteringFunctions/arm_biquad_cascade_df1_fast_q31.c ****   const q31_t *pIn = pSrc;                             /* Source pointer */
  60              		.loc 1 67 1 view .LVU7
  61 000e CDE91023 		strd	r2, r3, [sp, #64]
  62 0012 8368     		ldr	r3, [r0, #8]
  63              	.LVL3:
  76:.//Libraries/CMSIS/DSP/Source/FilteringFunctions/arm_biquad_cascade_df1_fast_q31.c ****         uint32_t sample, stage = S->numStages;         /* Loop counters */
  64              		.loc 1 76 17 view .LVU8
  65 0014 0131     		adds	r1, r1, #1
  66 0016 4268     		ldr	r2, [r0, #4]
  67              	.LVL4:
  76:.//Libraries/CMSIS/DSP/Source/FilteringFunctions/arm_biquad_cascade_df1_fast_q31.c ****         uint32_t sample, stage = S->numStages;         /* Loop counters */
  68              		.loc 1 76 17 view .LVU9
  69 0018 1433     		adds	r3, r3, #20
  70 001a 0C91     		str	r1, [sp, #48]
  71              	.LVL5:
  77:.//Libraries/CMSIS/DSP/Source/FilteringFunctions/arm_biquad_cascade_df1_fast_q31.c ****         uint32_t sample, stage = S->numStages;         /* Loop counters */
  72              		.loc 1 77 9 is_stmt 1 view .LVU10
  73 001c 0E93     		str	r3, [sp, #56]
  77:.//Libraries/CMSIS/DSP/Source/FilteringFunctions/arm_biquad_cascade_df1_fast_q31.c ****         uint32_t sample, stage = S->numStages;         /* Loop counters */
  74              		.loc 1 77 26 is_stmt 0 view .LVU11
  75 001e 0368     		ldr	r3, [r0]
  76 0020 0F93     		str	r3, [sp, #60]
  77              	.LVL6:
  77:.//Libraries/CMSIS/DSP/Source/FilteringFunctions/arm_biquad_cascade_df1_fast_q31.c ****         uint32_t sample, stage = S->numStages;         /* Loop counters */
  78              		.loc 1 77 26 view .LVU12
  79 0022 02F11003 		add	r3, r2, #16
  80              	.LVL7:
  77:.//Libraries/CMSIS/DSP/Source/FilteringFunctions/arm_biquad_cascade_df1_fast_q31.c ****         uint32_t sample, stage = S->numStages;         /* Loop counters */
  81              		.loc 1 77 26 view .LVU13
  82 0026 0D93     		str	r3, [sp, #52]
  83              	.LVL8:
  84              	.L4:
  79:.//Libraries/CMSIS/DSP/Source/FilteringFunctions/arm_biquad_cascade_df1_fast_q31.c ****   {
  85              		.loc 1 79 3 is_stmt 1 view .LVU14
  82:.//Libraries/CMSIS/DSP/Source/FilteringFunctions/arm_biquad_cascade_df1_fast_q31.c ****     b1 = *pCoeffs++;
  86              		.loc 1 82 5 view .LVU15
ARM GAS  /var/folders/wl/rshn8xbx1dsfj1zgryf4g1240000gn/T//ccX1O5Yz.s 			page 7


  82:.//Libraries/CMSIS/DSP/Source/FilteringFunctions/arm_biquad_cascade_df1_fast_q31.c ****     b1 = *pCoeffs++;
  87              		.loc 1 82 8 is_stmt 0 view .LVU16
  88 0028 0E9B     		ldr	r3, [sp, #56]
 235:.//Libraries/CMSIS/DSP/Source/FilteringFunctions/arm_biquad_cascade_df1_fast_q31.c ****     {
  89              		.loc 1 235 11 view .LVU17
  90 002a 119E     		ldr	r6, [sp, #68]
  82:.//Libraries/CMSIS/DSP/Source/FilteringFunctions/arm_biquad_cascade_df1_fast_q31.c ****     b1 = *pCoeffs++;
  91              		.loc 1 82 8 view .LVU18
  92 002c 53F8142C 		ldr	r2, [r3, #-20]
  85:.//Libraries/CMSIS/DSP/Source/FilteringFunctions/arm_biquad_cascade_df1_fast_q31.c ****     a2 = *pCoeffs++;
  93              		.loc 1 85 8 view .LVU19
  94 0030 53F8089C 		ldr	r9, [r3, #-8]
  82:.//Libraries/CMSIS/DSP/Source/FilteringFunctions/arm_biquad_cascade_df1_fast_q31.c ****     b1 = *pCoeffs++;
  95              		.loc 1 82 8 view .LVU20
  96 0034 0892     		str	r2, [sp, #32]
  97              	.LVL9:
  83:.//Libraries/CMSIS/DSP/Source/FilteringFunctions/arm_biquad_cascade_df1_fast_q31.c ****     b2 = *pCoeffs++;
  98              		.loc 1 83 5 is_stmt 1 view .LVU21
  83:.//Libraries/CMSIS/DSP/Source/FilteringFunctions/arm_biquad_cascade_df1_fast_q31.c ****     b2 = *pCoeffs++;
  99              		.loc 1 83 8 is_stmt 0 view .LVU22
 100 0036 53F8102C 		ldr	r2, [r3, #-16]
 101              	.LVL10:
  83:.//Libraries/CMSIS/DSP/Source/FilteringFunctions/arm_biquad_cascade_df1_fast_q31.c ****     b2 = *pCoeffs++;
 102              		.loc 1 83 8 view .LVU23
 103 003a 0992     		str	r2, [sp, #36]
 104              	.LVL11:
  84:.//Libraries/CMSIS/DSP/Source/FilteringFunctions/arm_biquad_cascade_df1_fast_q31.c ****     a1 = *pCoeffs++;
 105              		.loc 1 84 5 is_stmt 1 view .LVU24
  84:.//Libraries/CMSIS/DSP/Source/FilteringFunctions/arm_biquad_cascade_df1_fast_q31.c ****     a1 = *pCoeffs++;
 106              		.loc 1 84 8 is_stmt 0 view .LVU25
 107 003c 53F80C2C 		ldr	r2, [r3, #-12]
 108              	.LVL12:
  86:.//Libraries/CMSIS/DSP/Source/FilteringFunctions/arm_biquad_cascade_df1_fast_q31.c **** 
 109              		.loc 1 86 8 view .LVU26
 110 0040 53F8043C 		ldr	r3, [r3, #-4]
  84:.//Libraries/CMSIS/DSP/Source/FilteringFunctions/arm_biquad_cascade_df1_fast_q31.c ****     a1 = *pCoeffs++;
 111              		.loc 1 84 8 view .LVU27
 112 0044 0A92     		str	r2, [sp, #40]
 113              	.LVL13:
  85:.//Libraries/CMSIS/DSP/Source/FilteringFunctions/arm_biquad_cascade_df1_fast_q31.c ****     a2 = *pCoeffs++;
 114              		.loc 1 85 5 is_stmt 1 view .LVU28
  86:.//Libraries/CMSIS/DSP/Source/FilteringFunctions/arm_biquad_cascade_df1_fast_q31.c **** 
 115              		.loc 1 86 5 view .LVU29
  86:.//Libraries/CMSIS/DSP/Source/FilteringFunctions/arm_biquad_cascade_df1_fast_q31.c **** 
 116              		.loc 1 86 8 is_stmt 0 view .LVU30
 117 0046 0B93     		str	r3, [sp, #44]
 118              	.LVL14:
  89:.//Libraries/CMSIS/DSP/Source/FilteringFunctions/arm_biquad_cascade_df1_fast_q31.c ****     Xn2 = pState[1];
 119              		.loc 1 89 5 is_stmt 1 view .LVU31
  89:.//Libraries/CMSIS/DSP/Source/FilteringFunctions/arm_biquad_cascade_df1_fast_q31.c ****     Xn2 = pState[1];
 120              		.loc 1 89 9 is_stmt 0 view .LVU32
 121 0048 0D9B     		ldr	r3, [sp, #52]
 122              	.LVL15:
  90:.//Libraries/CMSIS/DSP/Source/FilteringFunctions/arm_biquad_cascade_df1_fast_q31.c ****     Yn1 = pState[2];
 123              		.loc 1 90 9 view .LVU33
 124 004a 53E9040C 		ldrd	r0, ip, [r3, #-16]
 125              	.LVL16:
ARM GAS  /var/folders/wl/rshn8xbx1dsfj1zgryf4g1240000gn/T//ccX1O5Yz.s 			page 8


  91:.//Libraries/CMSIS/DSP/Source/FilteringFunctions/arm_biquad_cascade_df1_fast_q31.c ****     Yn2 = pState[3];
 126              		.loc 1 91 5 is_stmt 1 view .LVU34
  91:.//Libraries/CMSIS/DSP/Source/FilteringFunctions/arm_biquad_cascade_df1_fast_q31.c ****     Yn2 = pState[3];
 127              		.loc 1 91 9 is_stmt 0 view .LVU35
 128 004e 53F8081C 		ldr	r1, [r3, #-8]
 129              	.LVL17:
  92:.//Libraries/CMSIS/DSP/Source/FilteringFunctions/arm_biquad_cascade_df1_fast_q31.c **** 
 130              		.loc 1 92 5 is_stmt 1 view .LVU36
  92:.//Libraries/CMSIS/DSP/Source/FilteringFunctions/arm_biquad_cascade_df1_fast_q31.c **** 
 131              		.loc 1 92 9 is_stmt 0 view .LVU37
 132 0052 53F8045C 		ldr	r5, [r3, #-4]
 133              	.LVL18:
 231:.//Libraries/CMSIS/DSP/Source/FilteringFunctions/arm_biquad_cascade_df1_fast_q31.c **** 
 134              		.loc 1 231 5 is_stmt 1 view .LVU38
 235:.//Libraries/CMSIS/DSP/Source/FilteringFunctions/arm_biquad_cascade_df1_fast_q31.c ****     {
 135              		.loc 1 235 5 view .LVU39
 235:.//Libraries/CMSIS/DSP/Source/FilteringFunctions/arm_biquad_cascade_df1_fast_q31.c ****     {
 136              		.loc 1 235 11 view .LVU40
 137 0056 002E     		cmp	r6, #0
 138 0058 5BD0     		beq	.L5
 139 005a 109F     		ldr	r7, [sp, #64]
 140 005c CDE90676 		strd	r7, r6, [sp, #24]
 141 0060 01E0     		b	.L3
 142              	.LVL19:
 143              	.L6:
 247:.//Libraries/CMSIS/DSP/Source/FilteringFunctions/arm_biquad_cascade_df1_fast_q31.c ****       /* acc +=  b[2] * x[n-2] */
 248:.//Libraries/CMSIS/DSP/Source/FilteringFunctions/arm_biquad_cascade_df1_fast_q31.c ****       /* acc = (q31_t) ((((q63_t) acc << 32) + ((q63_t) b2 * (Xn2))) >> 32);*/
 249:.//Libraries/CMSIS/DSP/Source/FilteringFunctions/arm_biquad_cascade_df1_fast_q31.c ****       multAcc_32x32_keep32_R(acc, b2, Xn2);
 250:.//Libraries/CMSIS/DSP/Source/FilteringFunctions/arm_biquad_cascade_df1_fast_q31.c ****       /* acc +=  a1 * y[n-1] */
 251:.//Libraries/CMSIS/DSP/Source/FilteringFunctions/arm_biquad_cascade_df1_fast_q31.c ****       /* acc = (q31_t) ((((q63_t) acc << 32) + ((q63_t) a1 * (Yn1))) >> 32);*/
 252:.//Libraries/CMSIS/DSP/Source/FilteringFunctions/arm_biquad_cascade_df1_fast_q31.c ****       multAcc_32x32_keep32_R(acc, a1, Yn1);
 253:.//Libraries/CMSIS/DSP/Source/FilteringFunctions/arm_biquad_cascade_df1_fast_q31.c ****       /* acc +=  a2 * y[n-2] */
 254:.//Libraries/CMSIS/DSP/Source/FilteringFunctions/arm_biquad_cascade_df1_fast_q31.c ****       /* acc = (q31_t) ((((q63_t) acc << 32) + ((q63_t) a2 * (Yn2))) >> 32);*/
 255:.//Libraries/CMSIS/DSP/Source/FilteringFunctions/arm_biquad_cascade_df1_fast_q31.c ****       multAcc_32x32_keep32_R(acc, a2, Yn2);
 256:.//Libraries/CMSIS/DSP/Source/FilteringFunctions/arm_biquad_cascade_df1_fast_q31.c **** 
 257:.//Libraries/CMSIS/DSP/Source/FilteringFunctions/arm_biquad_cascade_df1_fast_q31.c ****       /* The result is converted to 1.31  */
 258:.//Libraries/CMSIS/DSP/Source/FilteringFunctions/arm_biquad_cascade_df1_fast_q31.c ****       acc = acc << shift;
 144              		.loc 1 258 11 is_stmt 0 view .LVU41
 145 0062 1946     		mov	r1, r3
 146              	.LVL20:
 238:.//Libraries/CMSIS/DSP/Source/FilteringFunctions/arm_biquad_cascade_df1_fast_q31.c **** 
 147              		.loc 1 238 10 view .LVU42
 148 0064 2046     		mov	r0, r4
 149              	.LVL21:
 150              	.L3:
 238:.//Libraries/CMSIS/DSP/Source/FilteringFunctions/arm_biquad_cascade_df1_fast_q31.c **** 
 151              		.loc 1 238 7 is_stmt 1 view .LVU43
 238:.//Libraries/CMSIS/DSP/Source/FilteringFunctions/arm_biquad_cascade_df1_fast_q31.c **** 
 152              		.loc 1 238 10 is_stmt 0 view .LVU44
 153 0066 58F8044B 		ldr	r4, [r8], #4
 154              	.LVL22:
 243:.//Libraries/CMSIS/DSP/Source/FilteringFunctions/arm_biquad_cascade_df1_fast_q31.c ****       /* acc +=  b1 * x[n-1] */
 155              		.loc 1 243 7 is_stmt 1 view .LVU45
 246:.//Libraries/CMSIS/DSP/Source/FilteringFunctions/arm_biquad_cascade_df1_fast_q31.c ****       /* acc +=  b[2] * x[n-2] */
 156              		.loc 1 246 7 view .LVU46
 249:.//Libraries/CMSIS/DSP/Source/FilteringFunctions/arm_biquad_cascade_df1_fast_q31.c ****       /* acc +=  a1 * y[n-1] */
 157              		.loc 1 249 7 view .LVU47
ARM GAS  /var/folders/wl/rshn8xbx1dsfj1zgryf4g1240000gn/T//ccX1O5Yz.s 			page 9


 252:.//Libraries/CMSIS/DSP/Source/FilteringFunctions/arm_biquad_cascade_df1_fast_q31.c ****       /* acc +=  a2 * y[n-2] */
 158              		.loc 1 252 7 view .LVU48
 255:.//Libraries/CMSIS/DSP/Source/FilteringFunctions/arm_biquad_cascade_df1_fast_q31.c **** 
 159              		.loc 1 255 7 view .LVU49
 243:.//Libraries/CMSIS/DSP/Source/FilteringFunctions/arm_biquad_cascade_df1_fast_q31.c ****       /* acc +=  b1 * x[n-1] */
 160              		.loc 1 243 7 is_stmt 0 view .LVU50
 161 006a 4FF00046 		mov	r6, #-2147483648
 162 006e 089B     		ldr	r3, [sp, #32]
 163 0070 0027     		movs	r7, #0
 249:.//Libraries/CMSIS/DSP/Source/FilteringFunctions/arm_biquad_cascade_df1_fast_q31.c ****       /* acc +=  a1 * y[n-1] */
 164              		.loc 1 249 7 view .LVU51
 165 0072 CDF800E0 		str	lr, [sp]
 243:.//Libraries/CMSIS/DSP/Source/FilteringFunctions/arm_biquad_cascade_df1_fast_q31.c ****       /* acc +=  b1 * x[n-1] */
 166              		.loc 1 243 7 view .LVU52
 167 0076 C3FB0467 		smlal	r6, r7, r3, r4
 246:.//Libraries/CMSIS/DSP/Source/FilteringFunctions/arm_biquad_cascade_df1_fast_q31.c ****       /* acc +=  b[2] * x[n-2] */
 168              		.loc 1 246 7 view .LVU53
 169 007a 099B     		ldr	r3, [sp, #36]
 170 007c 7646     		mov	r6, lr
 252:.//Libraries/CMSIS/DSP/Source/FilteringFunctions/arm_biquad_cascade_df1_fast_q31.c ****       /* acc +=  a2 * y[n-2] */
 171              		.loc 1 252 7 view .LVU54
 172 007e CDF808E0 		str	lr, [sp, #8]
 255:.//Libraries/CMSIS/DSP/Source/FilteringFunctions/arm_biquad_cascade_df1_fast_q31.c **** 
 173              		.loc 1 255 7 view .LVU55
 174 0082 CDF810E0 		str	lr, [sp, #16]
 246:.//Libraries/CMSIS/DSP/Source/FilteringFunctions/arm_biquad_cascade_df1_fast_q31.c ****       /* acc +=  b[2] * x[n-2] */
 175              		.loc 1 246 7 view .LVU56
 176 0086 C3FB0067 		smlal	r6, r7, r3, r0
 177 008a 16F10042 		adds	r2, r6, #-2147483648
 178 008e 47F10003 		adc	r3, r7, #0
 249:.//Libraries/CMSIS/DSP/Source/FilteringFunctions/arm_biquad_cascade_df1_fast_q31.c ****       /* acc +=  a1 * y[n-1] */
 179              		.loc 1 249 7 view .LVU57
 180 0092 0193     		str	r3, [sp, #4]
 181 0094 0A9B     		ldr	r3, [sp, #40]
 182 0096 DDE90067 		ldrd	r6, [sp]
 183 009a C3FB0C67 		smlal	r6, r7, r3, ip
 184 009e 16F10042 		adds	r2, r6, #-2147483648
 185 00a2 8446     		mov	ip, r0
 186              	.LVL23:
 249:.//Libraries/CMSIS/DSP/Source/FilteringFunctions/arm_biquad_cascade_df1_fast_q31.c ****       /* acc +=  a1 * y[n-1] */
 187              		.loc 1 249 7 view .LVU58
 188 00a4 47F10003 		adc	r3, r7, #0
 252:.//Libraries/CMSIS/DSP/Source/FilteringFunctions/arm_biquad_cascade_df1_fast_q31.c ****       /* acc +=  a2 * y[n-2] */
 189              		.loc 1 252 7 view .LVU59
 190 00a8 0393     		str	r3, [sp, #12]
 191 00aa DDE90223 		ldrd	r2, [sp, #8]
 192 00ae C9FB0123 		smlal	r2, r3, r9, r1
 193 00b2 1646     		mov	r6, r2
 194 00b4 16F10042 		adds	r2, r6, #-2147483648
 195 00b8 43F10003 		adc	r3, r3, #0
 255:.//Libraries/CMSIS/DSP/Source/FilteringFunctions/arm_biquad_cascade_df1_fast_q31.c **** 
 196              		.loc 1 255 7 view .LVU60
 197 00bc 0593     		str	r3, [sp, #20]
 198 00be 0B9B     		ldr	r3, [sp, #44]
 199 00c0 DDE90467 		ldrd	r6, [sp, #16]
 200 00c4 C3FB0567 		smlal	r6, r7, r3, r5
 201 00c8 16F10042 		adds	r2, r6, #-2147483648
ARM GAS  /var/folders/wl/rshn8xbx1dsfj1zgryf4g1240000gn/T//ccX1O5Yz.s 			page 10


 202              		.loc 1 258 11 view .LVU61
 203 00cc 0C9A     		ldr	r2, [sp, #48]
 204 00ce 0D46     		mov	r5, r1
 205              	.LVL24:
 255:.//Libraries/CMSIS/DSP/Source/FilteringFunctions/arm_biquad_cascade_df1_fast_q31.c **** 
 206              		.loc 1 255 7 view .LVU62
 207 00d0 47F10003 		adc	r3, r7, #0
 208              	.LVL25:
 209              		.loc 1 258 7 is_stmt 1 view .LVU63
 210              		.loc 1 258 11 is_stmt 0 view .LVU64
 211 00d4 9340     		lsls	r3, r3, r2
 212              	.LVL26:
 259:.//Libraries/CMSIS/DSP/Source/FilteringFunctions/arm_biquad_cascade_df1_fast_q31.c **** 
 260:.//Libraries/CMSIS/DSP/Source/FilteringFunctions/arm_biquad_cascade_df1_fast_q31.c ****       /* Every time after the output is computed state should be updated. */
 261:.//Libraries/CMSIS/DSP/Source/FilteringFunctions/arm_biquad_cascade_df1_fast_q31.c ****       /* The states should be updated as:  */
 262:.//Libraries/CMSIS/DSP/Source/FilteringFunctions/arm_biquad_cascade_df1_fast_q31.c ****       /* Xn2 = Xn1 */
 263:.//Libraries/CMSIS/DSP/Source/FilteringFunctions/arm_biquad_cascade_df1_fast_q31.c ****       /* Xn1 = Xn  */
 264:.//Libraries/CMSIS/DSP/Source/FilteringFunctions/arm_biquad_cascade_df1_fast_q31.c ****       /* Yn2 = Yn1 */
 265:.//Libraries/CMSIS/DSP/Source/FilteringFunctions/arm_biquad_cascade_df1_fast_q31.c ****       /* Yn1 = acc */
 266:.//Libraries/CMSIS/DSP/Source/FilteringFunctions/arm_biquad_cascade_df1_fast_q31.c ****       Xn2 = Xn1;
 213              		.loc 1 266 7 is_stmt 1 view .LVU65
 267:.//Libraries/CMSIS/DSP/Source/FilteringFunctions/arm_biquad_cascade_df1_fast_q31.c ****       Xn1 = Xn;
 214              		.loc 1 267 7 view .LVU66
 268:.//Libraries/CMSIS/DSP/Source/FilteringFunctions/arm_biquad_cascade_df1_fast_q31.c ****       Yn2 = Yn1;
 215              		.loc 1 268 7 view .LVU67
 269:.//Libraries/CMSIS/DSP/Source/FilteringFunctions/arm_biquad_cascade_df1_fast_q31.c ****       Yn1 = acc;
 216              		.loc 1 269 7 view .LVU68
 270:.//Libraries/CMSIS/DSP/Source/FilteringFunctions/arm_biquad_cascade_df1_fast_q31.c **** 
 271:.//Libraries/CMSIS/DSP/Source/FilteringFunctions/arm_biquad_cascade_df1_fast_q31.c ****       /* Store the output in the destination buffer. */
 272:.//Libraries/CMSIS/DSP/Source/FilteringFunctions/arm_biquad_cascade_df1_fast_q31.c ****       *pOut++ = acc;
 217              		.loc 1 272 7 view .LVU69
 218              		.loc 1 272 15 is_stmt 0 view .LVU70
 219 00d6 069A     		ldr	r2, [sp, #24]
 220 00d8 42F8043B 		str	r3, [r2], #4
 221              	.LVL27:
 222              		.loc 1 272 15 view .LVU71
 223 00dc 0692     		str	r2, [sp, #24]
 273:.//Libraries/CMSIS/DSP/Source/FilteringFunctions/arm_biquad_cascade_df1_fast_q31.c **** 
 274:.//Libraries/CMSIS/DSP/Source/FilteringFunctions/arm_biquad_cascade_df1_fast_q31.c ****       /* decrement loop counter */
 275:.//Libraries/CMSIS/DSP/Source/FilteringFunctions/arm_biquad_cascade_df1_fast_q31.c ****       sample--;
 224              		.loc 1 275 7 is_stmt 1 view .LVU72
 225              	.LVL28:
 235:.//Libraries/CMSIS/DSP/Source/FilteringFunctions/arm_biquad_cascade_df1_fast_q31.c ****     {
 226              		.loc 1 235 11 view .LVU73
 227 00de 079A     		ldr	r2, [sp, #28]
 228              	.LVL29:
 235:.//Libraries/CMSIS/DSP/Source/FilteringFunctions/arm_biquad_cascade_df1_fast_q31.c ****     {
 229              		.loc 1 235 11 is_stmt 0 view .LVU74
 230 00e0 013A     		subs	r2, r2, #1
 231              	.LVL30:
 235:.//Libraries/CMSIS/DSP/Source/FilteringFunctions/arm_biquad_cascade_df1_fast_q31.c ****     {
 232              		.loc 1 235 11 view .LVU75
 233 00e2 0792     		str	r2, [sp, #28]
 234 00e4 BDD1     		bne	.L6
 235              	.LVL31:
 236              	.L2:
 276:.//Libraries/CMSIS/DSP/Source/FilteringFunctions/arm_biquad_cascade_df1_fast_q31.c ****     }
ARM GAS  /var/folders/wl/rshn8xbx1dsfj1zgryf4g1240000gn/T//ccX1O5Yz.s 			page 11


 277:.//Libraries/CMSIS/DSP/Source/FilteringFunctions/arm_biquad_cascade_df1_fast_q31.c **** 
 278:.//Libraries/CMSIS/DSP/Source/FilteringFunctions/arm_biquad_cascade_df1_fast_q31.c ****     /* The first stage goes from the input buffer to the output buffer. */
 279:.//Libraries/CMSIS/DSP/Source/FilteringFunctions/arm_biquad_cascade_df1_fast_q31.c ****     /* Subsequent stages occur in-place in the output buffer */
 280:.//Libraries/CMSIS/DSP/Source/FilteringFunctions/arm_biquad_cascade_df1_fast_q31.c ****     pIn = pDst;
 237              		.loc 1 280 5 is_stmt 1 view .LVU76
 281:.//Libraries/CMSIS/DSP/Source/FilteringFunctions/arm_biquad_cascade_df1_fast_q31.c **** 
 282:.//Libraries/CMSIS/DSP/Source/FilteringFunctions/arm_biquad_cascade_df1_fast_q31.c ****     /* Reset to destination pointer */
 283:.//Libraries/CMSIS/DSP/Source/FilteringFunctions/arm_biquad_cascade_df1_fast_q31.c ****     pOut = pDst;
 238              		.loc 1 283 5 view .LVU77
 284:.//Libraries/CMSIS/DSP/Source/FilteringFunctions/arm_biquad_cascade_df1_fast_q31.c **** 
 285:.//Libraries/CMSIS/DSP/Source/FilteringFunctions/arm_biquad_cascade_df1_fast_q31.c ****     /* Store the updated state variables back into the pState array */
 286:.//Libraries/CMSIS/DSP/Source/FilteringFunctions/arm_biquad_cascade_df1_fast_q31.c ****     *pState++ = Xn1;
 239              		.loc 1 286 5 view .LVU78
 240              		.loc 1 286 15 is_stmt 0 view .LVU79
 241 00e6 0D9A     		ldr	r2, [sp, #52]
 287:.//Libraries/CMSIS/DSP/Source/FilteringFunctions/arm_biquad_cascade_df1_fast_q31.c ****     *pState++ = Xn2;
 288:.//Libraries/CMSIS/DSP/Source/FilteringFunctions/arm_biquad_cascade_df1_fast_q31.c ****     *pState++ = Yn1;
 242              		.loc 1 288 15 view .LVU80
 243 00e8 42F8083C 		str	r3, [r2, #-8]
 244 00ec 02F11003 		add	r3, r2, #16
 245              	.LVL32:
 286:.//Libraries/CMSIS/DSP/Source/FilteringFunctions/arm_biquad_cascade_df1_fast_q31.c ****     *pState++ = Xn2;
 246              		.loc 1 286 15 view .LVU81
 247 00f0 42F8104C 		str	r4, [r2, #-16]
 287:.//Libraries/CMSIS/DSP/Source/FilteringFunctions/arm_biquad_cascade_df1_fast_q31.c ****     *pState++ = Xn2;
 248              		.loc 1 287 5 is_stmt 1 view .LVU82
 249              	.LVL33:
 287:.//Libraries/CMSIS/DSP/Source/FilteringFunctions/arm_biquad_cascade_df1_fast_q31.c ****     *pState++ = Xn2;
 250              		.loc 1 287 5 is_stmt 0 view .LVU83
 251 00f4 0D93     		str	r3, [sp, #52]
 252              	.LVL34:
 287:.//Libraries/CMSIS/DSP/Source/FilteringFunctions/arm_biquad_cascade_df1_fast_q31.c ****     *pState++ = Xn2;
 253              		.loc 1 287 5 view .LVU84
 254 00f6 0E9C     		ldr	r4, [sp, #56]
 255              	.LVL35:
 289:.//Libraries/CMSIS/DSP/Source/FilteringFunctions/arm_biquad_cascade_df1_fast_q31.c ****     *pState++ = Yn2;
 290:.//Libraries/CMSIS/DSP/Source/FilteringFunctions/arm_biquad_cascade_df1_fast_q31.c **** 
 291:.//Libraries/CMSIS/DSP/Source/FilteringFunctions/arm_biquad_cascade_df1_fast_q31.c ****   } while (--stage);
 256              		.loc 1 291 3 view .LVU85
 257 00f8 0F9B     		ldr	r3, [sp, #60]
 258 00fa 1434     		adds	r4, r4, #20
 287:.//Libraries/CMSIS/DSP/Source/FilteringFunctions/arm_biquad_cascade_df1_fast_q31.c ****     *pState++ = Yn1;
 259              		.loc 1 287 15 view .LVU86
 260 00fc 42F80C0C 		str	r0, [r2, #-12]
 288:.//Libraries/CMSIS/DSP/Source/FilteringFunctions/arm_biquad_cascade_df1_fast_q31.c ****     *pState++ = Yn2;
 261              		.loc 1 288 5 is_stmt 1 view .LVU87
 289:.//Libraries/CMSIS/DSP/Source/FilteringFunctions/arm_biquad_cascade_df1_fast_q31.c ****     *pState++ = Yn2;
 262              		.loc 1 289 5 view .LVU88
 263              	.LVL36:
 264              		.loc 1 291 3 is_stmt 0 view .LVU89
 265 0100 013B     		subs	r3, r3, #1
 289:.//Libraries/CMSIS/DSP/Source/FilteringFunctions/arm_biquad_cascade_df1_fast_q31.c ****     *pState++ = Yn2;
 266              		.loc 1 289 15 view .LVU90
 267 0102 42F8041C 		str	r1, [r2, #-4]
 268              		.loc 1 291 11 is_stmt 1 view .LVU91
 269              	.LVL37:
 270              		.loc 1 291 11 is_stmt 0 view .LVU92
ARM GAS  /var/folders/wl/rshn8xbx1dsfj1zgryf4g1240000gn/T//ccX1O5Yz.s 			page 12


 271 0106 0E94     		str	r4, [sp, #56]
 272              		.loc 1 291 3 view .LVU93
 273 0108 0F93     		str	r3, [sp, #60]
 274 010a 07D0     		beq	.L10
 280:.//Libraries/CMSIS/DSP/Source/FilteringFunctions/arm_biquad_cascade_df1_fast_q31.c **** 
 275              		.loc 1 280 9 view .LVU94
 276 010c DDF84080 		ldr	r8, [sp, #64]
 277 0110 8AE7     		b	.L4
 278              	.LVL38:
 279              	.L5:
  91:.//Libraries/CMSIS/DSP/Source/FilteringFunctions/arm_biquad_cascade_df1_fast_q31.c ****     Yn2 = pState[3];
 280              		.loc 1 91 9 view .LVU95
 281 0112 0B46     		mov	r3, r1
 282              	.LVL39:
  89:.//Libraries/CMSIS/DSP/Source/FilteringFunctions/arm_biquad_cascade_df1_fast_q31.c ****     Xn2 = pState[1];
 283              		.loc 1 89 9 view .LVU96
 284 0114 0446     		mov	r4, r0
  92:.//Libraries/CMSIS/DSP/Source/FilteringFunctions/arm_biquad_cascade_df1_fast_q31.c **** 
 285              		.loc 1 92 9 view .LVU97
 286 0116 2946     		mov	r1, r5
 287              	.LVL40:
  90:.//Libraries/CMSIS/DSP/Source/FilteringFunctions/arm_biquad_cascade_df1_fast_q31.c ****     Yn1 = pState[2];
 288              		.loc 1 90 9 view .LVU98
 289 0118 6046     		mov	r0, ip
 290              	.LVL41:
  90:.//Libraries/CMSIS/DSP/Source/FilteringFunctions/arm_biquad_cascade_df1_fast_q31.c ****     Yn1 = pState[2];
 291              		.loc 1 90 9 view .LVU99
 292 011a E4E7     		b	.L2
 293              	.LVL42:
 294              	.L10:
 292:.//Libraries/CMSIS/DSP/Source/FilteringFunctions/arm_biquad_cascade_df1_fast_q31.c **** }
 295              		.loc 1 292 1 view .LVU100
 296 011c 13B0     		add	sp, sp, #76
 297              	.LCFI2:
 298              		.cfi_def_cfa_offset 36
 299              		@ sp needed
 300 011e BDE8F08F 		pop	{r4, r5, r6, r7, r8, r9, r10, fp, pc}
 301              		.loc 1 292 1 view .LVU101
 302              		.cfi_endproc
 303              	.LFE145:
 305 0122 00BF     		.text
 306              	.Letext0:
 307              		.file 2 "/opt/homebrew/Cellar/arm-none-eabi-gcc/9-2019-q4-major/gcc/arm-none-eabi/include/machine/
 308              		.file 3 "/opt/homebrew/Cellar/arm-none-eabi-gcc/9-2019-q4-major/gcc/arm-none-eabi/include/sys/_std
 309              		.file 4 "/opt/homebrew/Cellar/arm-none-eabi-gcc/9-2019-q4-major/gcc/arm-none-eabi/include/sys/lock
 310              		.file 5 "/opt/homebrew/Cellar/arm-none-eabi-gcc/9-2019-q4-major/gcc/arm-none-eabi/include/sys/_typ
 311              		.file 6 "/opt/homebrew/Cellar/arm-none-eabi-gcc/9-2019-q4-major/gcc/lib/gcc/arm-none-eabi/9.2.1/in
 312              		.file 7 "/opt/homebrew/Cellar/arm-none-eabi-gcc/9-2019-q4-major/gcc/arm-none-eabi/include/sys/reen
 313              		.file 8 "/opt/homebrew/Cellar/arm-none-eabi-gcc/9-2019-q4-major/gcc/arm-none-eabi/include/math.h"
 314              		.file 9 ".//Libraries/CMSIS/DSP/Include/arm_math.h"
ARM GAS  /var/folders/wl/rshn8xbx1dsfj1zgryf4g1240000gn/T//ccX1O5Yz.s 			page 13

