ARM GAS  /var/folders/wl/rshn8xbx1dsfj1zgryf4g1240000gn/T//cc8m6Iyy.s 			page 1


   1              		.cpu cortex-m7
   2              		.eabi_attribute 28, 1
   3              		.eabi_attribute 20, 1
   4              		.eabi_attribute 21, 1
   5              		.eabi_attribute 23, 3
   6              		.eabi_attribute 24, 1
   7              		.eabi_attribute 25, 1
   8              		.eabi_attribute 26, 1
   9              		.eabi_attribute 30, 2
  10              		.eabi_attribute 34, 1
  11              		.eabi_attribute 18, 4
  12              		.file	"arm_fir_q15.c"
  13              		.text
  14              	.Ltext0:
  15              		.cfi_sections	.debug_frame
  16              		.section	.text.arm_fir_q15,"ax",%progbits
  17              		.align	1
  18              		.p2align 2,,3
  19              		.global	arm_fir_q15
  20              		.arch armv7e-m
  21              		.syntax unified
  22              		.thumb
  23              		.thumb_func
  24              		.fpu fpv5-d16
  26              	arm_fir_q15:
  27              	.LVL0:
  28              	.LFB145:
  29              		.file 1 ".//Libraries/CMSIS/DSP/Source/FilteringFunctions/arm_fir_q15.c"
   1:.//Libraries/CMSIS/DSP/Source/FilteringFunctions/arm_fir_q15.c **** /* ----------------------------------------------------------------------
   2:.//Libraries/CMSIS/DSP/Source/FilteringFunctions/arm_fir_q15.c ****  * Project:      CMSIS DSP Library
   3:.//Libraries/CMSIS/DSP/Source/FilteringFunctions/arm_fir_q15.c ****  * Title:        arm_fir_q15.c
   4:.//Libraries/CMSIS/DSP/Source/FilteringFunctions/arm_fir_q15.c ****  * Description:  Q15 FIR filter processing function
   5:.//Libraries/CMSIS/DSP/Source/FilteringFunctions/arm_fir_q15.c ****  *
   6:.//Libraries/CMSIS/DSP/Source/FilteringFunctions/arm_fir_q15.c ****  * $Date:        18. March 2019
   7:.//Libraries/CMSIS/DSP/Source/FilteringFunctions/arm_fir_q15.c ****  * $Revision:    V1.6.0
   8:.//Libraries/CMSIS/DSP/Source/FilteringFunctions/arm_fir_q15.c ****  *
   9:.//Libraries/CMSIS/DSP/Source/FilteringFunctions/arm_fir_q15.c ****  * Target Processor: Cortex-M cores
  10:.//Libraries/CMSIS/DSP/Source/FilteringFunctions/arm_fir_q15.c ****  * -------------------------------------------------------------------- */
  11:.//Libraries/CMSIS/DSP/Source/FilteringFunctions/arm_fir_q15.c **** /*
  12:.//Libraries/CMSIS/DSP/Source/FilteringFunctions/arm_fir_q15.c ****  * Copyright (C) 2010-2019 ARM Limited or its affiliates. All rights reserved.
  13:.//Libraries/CMSIS/DSP/Source/FilteringFunctions/arm_fir_q15.c ****  *
  14:.//Libraries/CMSIS/DSP/Source/FilteringFunctions/arm_fir_q15.c ****  * SPDX-License-Identifier: Apache-2.0
  15:.//Libraries/CMSIS/DSP/Source/FilteringFunctions/arm_fir_q15.c ****  *
  16:.//Libraries/CMSIS/DSP/Source/FilteringFunctions/arm_fir_q15.c ****  * Licensed under the Apache License, Version 2.0 (the License); you may
  17:.//Libraries/CMSIS/DSP/Source/FilteringFunctions/arm_fir_q15.c ****  * not use this file except in compliance with the License.
  18:.//Libraries/CMSIS/DSP/Source/FilteringFunctions/arm_fir_q15.c ****  * You may obtain a copy of the License at
  19:.//Libraries/CMSIS/DSP/Source/FilteringFunctions/arm_fir_q15.c ****  *
  20:.//Libraries/CMSIS/DSP/Source/FilteringFunctions/arm_fir_q15.c ****  * www.apache.org/licenses/LICENSE-2.0
  21:.//Libraries/CMSIS/DSP/Source/FilteringFunctions/arm_fir_q15.c ****  *
  22:.//Libraries/CMSIS/DSP/Source/FilteringFunctions/arm_fir_q15.c ****  * Unless required by applicable law or agreed to in writing, software
  23:.//Libraries/CMSIS/DSP/Source/FilteringFunctions/arm_fir_q15.c ****  * distributed under the License is distributed on an AS IS BASIS, WITHOUT
  24:.//Libraries/CMSIS/DSP/Source/FilteringFunctions/arm_fir_q15.c ****  * WARRANTIES OR CONDITIONS OF ANY KIND, either express or implied.
  25:.//Libraries/CMSIS/DSP/Source/FilteringFunctions/arm_fir_q15.c ****  * See the License for the specific language governing permissions and
  26:.//Libraries/CMSIS/DSP/Source/FilteringFunctions/arm_fir_q15.c ****  * limitations under the License.
  27:.//Libraries/CMSIS/DSP/Source/FilteringFunctions/arm_fir_q15.c ****  */
  28:.//Libraries/CMSIS/DSP/Source/FilteringFunctions/arm_fir_q15.c **** 
  29:.//Libraries/CMSIS/DSP/Source/FilteringFunctions/arm_fir_q15.c **** #include "arm_math.h"
ARM GAS  /var/folders/wl/rshn8xbx1dsfj1zgryf4g1240000gn/T//cc8m6Iyy.s 			page 2


  30:.//Libraries/CMSIS/DSP/Source/FilteringFunctions/arm_fir_q15.c **** 
  31:.//Libraries/CMSIS/DSP/Source/FilteringFunctions/arm_fir_q15.c **** /**
  32:.//Libraries/CMSIS/DSP/Source/FilteringFunctions/arm_fir_q15.c ****   @ingroup groupFilters
  33:.//Libraries/CMSIS/DSP/Source/FilteringFunctions/arm_fir_q15.c ****  */
  34:.//Libraries/CMSIS/DSP/Source/FilteringFunctions/arm_fir_q15.c **** 
  35:.//Libraries/CMSIS/DSP/Source/FilteringFunctions/arm_fir_q15.c **** /**
  36:.//Libraries/CMSIS/DSP/Source/FilteringFunctions/arm_fir_q15.c ****   @addtogroup FIR
  37:.//Libraries/CMSIS/DSP/Source/FilteringFunctions/arm_fir_q15.c ****   @{
  38:.//Libraries/CMSIS/DSP/Source/FilteringFunctions/arm_fir_q15.c ****  */
  39:.//Libraries/CMSIS/DSP/Source/FilteringFunctions/arm_fir_q15.c **** 
  40:.//Libraries/CMSIS/DSP/Source/FilteringFunctions/arm_fir_q15.c **** /**
  41:.//Libraries/CMSIS/DSP/Source/FilteringFunctions/arm_fir_q15.c ****   @brief         Processing function for the Q15 FIR filter.
  42:.//Libraries/CMSIS/DSP/Source/FilteringFunctions/arm_fir_q15.c ****   @param[in]     S          points to an instance of the Q15 FIR filter structure
  43:.//Libraries/CMSIS/DSP/Source/FilteringFunctions/arm_fir_q15.c ****   @param[in]     pSrc       points to the block of input data
  44:.//Libraries/CMSIS/DSP/Source/FilteringFunctions/arm_fir_q15.c ****   @param[out]    pDst       points to the block of output data
  45:.//Libraries/CMSIS/DSP/Source/FilteringFunctions/arm_fir_q15.c ****   @param[in]     blockSize  number of samples to process
  46:.//Libraries/CMSIS/DSP/Source/FilteringFunctions/arm_fir_q15.c ****   @return        none
  47:.//Libraries/CMSIS/DSP/Source/FilteringFunctions/arm_fir_q15.c **** 
  48:.//Libraries/CMSIS/DSP/Source/FilteringFunctions/arm_fir_q15.c ****   @par           Scaling and Overflow Behavior
  49:.//Libraries/CMSIS/DSP/Source/FilteringFunctions/arm_fir_q15.c ****                    The function is implemented using a 64-bit internal accumulator.
  50:.//Libraries/CMSIS/DSP/Source/FilteringFunctions/arm_fir_q15.c ****                    Both coefficients and state variables are represented in 1.15 format and multipl
  51:.//Libraries/CMSIS/DSP/Source/FilteringFunctions/arm_fir_q15.c ****                    The 2.30 intermediate results are accumulated in a 64-bit accumulator in 34.30 f
  52:.//Libraries/CMSIS/DSP/Source/FilteringFunctions/arm_fir_q15.c ****                    There is no risk of internal overflow with this approach and the full precision 
  53:.//Libraries/CMSIS/DSP/Source/FilteringFunctions/arm_fir_q15.c ****                    After all additions have been performed, the accumulator is truncated to 34.15 f
  54:.//Libraries/CMSIS/DSP/Source/FilteringFunctions/arm_fir_q15.c ****                    Lastly, the accumulator is saturated to yield a result in 1.15 format.
  55:.//Libraries/CMSIS/DSP/Source/FilteringFunctions/arm_fir_q15.c **** 
  56:.//Libraries/CMSIS/DSP/Source/FilteringFunctions/arm_fir_q15.c ****   @remark
  57:.//Libraries/CMSIS/DSP/Source/FilteringFunctions/arm_fir_q15.c ****                    Refer to \ref arm_fir_fast_q15() for a faster but less precise implementation of
  58:.//Libraries/CMSIS/DSP/Source/FilteringFunctions/arm_fir_q15.c ****  */
  59:.//Libraries/CMSIS/DSP/Source/FilteringFunctions/arm_fir_q15.c **** 
  60:.//Libraries/CMSIS/DSP/Source/FilteringFunctions/arm_fir_q15.c **** void arm_fir_q15(
  61:.//Libraries/CMSIS/DSP/Source/FilteringFunctions/arm_fir_q15.c ****   const arm_fir_instance_q15 * S,
  62:.//Libraries/CMSIS/DSP/Source/FilteringFunctions/arm_fir_q15.c ****   const q15_t * pSrc,
  63:.//Libraries/CMSIS/DSP/Source/FilteringFunctions/arm_fir_q15.c ****         q15_t * pDst,
  64:.//Libraries/CMSIS/DSP/Source/FilteringFunctions/arm_fir_q15.c ****         uint32_t blockSize)
  65:.//Libraries/CMSIS/DSP/Source/FilteringFunctions/arm_fir_q15.c **** {
  30              		.loc 1 65 1 view -0
  31              		.cfi_startproc
  32              		@ args = 0, pretend = 0, frame = 16
  33              		@ frame_needed = 0, uses_anonymous_args = 0
  66:.//Libraries/CMSIS/DSP/Source/FilteringFunctions/arm_fir_q15.c ****         q15_t *pState = S->pState;                     /* State pointer */
  34              		.loc 1 66 9 view .LVU1
  65:.//Libraries/CMSIS/DSP/Source/FilteringFunctions/arm_fir_q15.c ****         q15_t *pState = S->pState;                     /* State pointer */
  35              		.loc 1 65 1 is_stmt 0 view .LVU2
  36 0000 2DE9F04F 		push	{r4, r5, r6, r7, r8, r9, r10, fp, lr}
  37              	.LCFI0:
  38              		.cfi_def_cfa_offset 36
  39              		.cfi_offset 4, -36
  40              		.cfi_offset 5, -32
  41              		.cfi_offset 6, -28
  42              		.cfi_offset 7, -24
  43              		.cfi_offset 8, -20
  44              		.cfi_offset 9, -16
  45              		.cfi_offset 10, -12
  46              		.cfi_offset 11, -8
  47              		.cfi_offset 14, -4
  67:.//Libraries/CMSIS/DSP/Source/FilteringFunctions/arm_fir_q15.c ****   const q15_t *pCoeffs = S->pCoeffs;                   /* Coefficient pointer */
ARM GAS  /var/folders/wl/rshn8xbx1dsfj1zgryf4g1240000gn/T//cc8m6Iyy.s 			page 3


  68:.//Libraries/CMSIS/DSP/Source/FilteringFunctions/arm_fir_q15.c ****         q15_t *pStateCurnt;                            /* Points to the current sample of the state
  69:.//Libraries/CMSIS/DSP/Source/FilteringFunctions/arm_fir_q15.c ****         q15_t *px;                                     /* Temporary pointer for state buffer */
  70:.//Libraries/CMSIS/DSP/Source/FilteringFunctions/arm_fir_q15.c ****   const q15_t *pb;                                     /* Temporary pointer for coefficient buffer 
  71:.//Libraries/CMSIS/DSP/Source/FilteringFunctions/arm_fir_q15.c ****         q63_t acc0;                                    /* Accumulators */
  72:.//Libraries/CMSIS/DSP/Source/FilteringFunctions/arm_fir_q15.c ****         uint32_t numTaps = S->numTaps;                 /* Number of filter coefficients in the filt
  73:.//Libraries/CMSIS/DSP/Source/FilteringFunctions/arm_fir_q15.c ****         uint32_t tapCnt, blkCnt;                       /* Loop counters */
  74:.//Libraries/CMSIS/DSP/Source/FilteringFunctions/arm_fir_q15.c **** 
  75:.//Libraries/CMSIS/DSP/Source/FilteringFunctions/arm_fir_q15.c **** #if defined (ARM_MATH_LOOPUNROLL)
  76:.//Libraries/CMSIS/DSP/Source/FilteringFunctions/arm_fir_q15.c ****         q63_t acc1, acc2, acc3;                        /* Accumulators */
  77:.//Libraries/CMSIS/DSP/Source/FilteringFunctions/arm_fir_q15.c ****         q31_t x0, x1, x2, c0;                          /* Temporary variables to hold state and coe
  78:.//Libraries/CMSIS/DSP/Source/FilteringFunctions/arm_fir_q15.c **** #endif
  79:.//Libraries/CMSIS/DSP/Source/FilteringFunctions/arm_fir_q15.c **** 
  80:.//Libraries/CMSIS/DSP/Source/FilteringFunctions/arm_fir_q15.c ****   /* S->pState points to state array which contains previous frame (numTaps - 1) samples */
  81:.//Libraries/CMSIS/DSP/Source/FilteringFunctions/arm_fir_q15.c ****   /* pStateCurnt points to the location where the new input data should be written */
  82:.//Libraries/CMSIS/DSP/Source/FilteringFunctions/arm_fir_q15.c ****   pStateCurnt = &(S->pState[(numTaps - 1U)]);
  48              		.loc 1 82 28 view .LVU3
  49 0004 6FF00044 		mvn	r4, #-2147483648
  65:.//Libraries/CMSIS/DSP/Source/FilteringFunctions/arm_fir_q15.c ****         q15_t *pState = S->pState;                     /* State pointer */
  50              		.loc 1 65 1 view .LVU4
  51 0008 85B0     		sub	sp, sp, #20
  52              	.LCFI1:
  53              		.cfi_def_cfa_offset 56
  65:.//Libraries/CMSIS/DSP/Source/FilteringFunctions/arm_fir_q15.c ****         q15_t *pState = S->pState;                     /* State pointer */
  54              		.loc 1 65 1 view .LVU5
  55 000a 8946     		mov	r9, r1
  66:.//Libraries/CMSIS/DSP/Source/FilteringFunctions/arm_fir_q15.c ****   const q15_t *pCoeffs = S->pCoeffs;                   /* Coefficient pointer */
  56              		.loc 1 66 16 view .LVU6
  57 000c 4668     		ldr	r6, [r0, #4]
  72:.//Libraries/CMSIS/DSP/Source/FilteringFunctions/arm_fir_q15.c ****         uint32_t tapCnt, blkCnt;                       /* Loop counters */
  58              		.loc 1 72 18 view .LVU7
  59 000e 0188     		ldrh	r1, [r0]
  60              	.LVL1:
  67:.//Libraries/CMSIS/DSP/Source/FilteringFunctions/arm_fir_q15.c ****   const q15_t *pCoeffs = S->pCoeffs;                   /* Coefficient pointer */
  61              		.loc 1 67 16 view .LVU8
  62 0010 8768     		ldr	r7, [r0, #8]
  63              		.loc 1 82 28 view .LVU9
  64 0012 0C44     		add	r4, r4, r1
  66:.//Libraries/CMSIS/DSP/Source/FilteringFunctions/arm_fir_q15.c ****   const q15_t *pCoeffs = S->pCoeffs;                   /* Coefficient pointer */
  65              		.loc 1 66 16 view .LVU10
  66 0014 0196     		str	r6, [sp, #4]
  67              	.LVL2:
  67:.//Libraries/CMSIS/DSP/Source/FilteringFunctions/arm_fir_q15.c ****   const q15_t *pCoeffs = S->pCoeffs;                   /* Coefficient pointer */
  68              		.loc 1 67 3 is_stmt 1 view .LVU11
  68:.//Libraries/CMSIS/DSP/Source/FilteringFunctions/arm_fir_q15.c ****         q15_t *px;                                     /* Temporary pointer for state buffer */
  69              		.loc 1 68 9 view .LVU12
  69:.//Libraries/CMSIS/DSP/Source/FilteringFunctions/arm_fir_q15.c ****   const q15_t *pb;                                     /* Temporary pointer for coefficient buffer 
  70              		.loc 1 69 9 view .LVU13
  70:.//Libraries/CMSIS/DSP/Source/FilteringFunctions/arm_fir_q15.c ****         q63_t acc0;                                    /* Accumulators */
  71              		.loc 1 70 3 view .LVU14
  71:.//Libraries/CMSIS/DSP/Source/FilteringFunctions/arm_fir_q15.c ****         uint32_t numTaps = S->numTaps;                 /* Number of filter coefficients in the filt
  72              		.loc 1 71 9 view .LVU15
  72:.//Libraries/CMSIS/DSP/Source/FilteringFunctions/arm_fir_q15.c ****         uint32_t tapCnt, blkCnt;                       /* Loop counters */
  73              		.loc 1 72 9 view .LVU16
  73:.//Libraries/CMSIS/DSP/Source/FilteringFunctions/arm_fir_q15.c **** 
  74              		.loc 1 73 9 view .LVU17
  75              		.loc 1 82 3 view .LVU18
  83:.//Libraries/CMSIS/DSP/Source/FilteringFunctions/arm_fir_q15.c **** 
ARM GAS  /var/folders/wl/rshn8xbx1dsfj1zgryf4g1240000gn/T//cc8m6Iyy.s 			page 4


  84:.//Libraries/CMSIS/DSP/Source/FilteringFunctions/arm_fir_q15.c **** #if defined (ARM_MATH_LOOPUNROLL)
  85:.//Libraries/CMSIS/DSP/Source/FilteringFunctions/arm_fir_q15.c **** 
  86:.//Libraries/CMSIS/DSP/Source/FilteringFunctions/arm_fir_q15.c ****   /* Loop unrolling: Compute 4 output values simultaneously.
  87:.//Libraries/CMSIS/DSP/Source/FilteringFunctions/arm_fir_q15.c ****    * The variables acc0 ... acc3 hold output values that are being computed:
  88:.//Libraries/CMSIS/DSP/Source/FilteringFunctions/arm_fir_q15.c ****    *
  89:.//Libraries/CMSIS/DSP/Source/FilteringFunctions/arm_fir_q15.c ****    *    acc0 =  b[numTaps-1] * x[n-numTaps-1] + b[numTaps-2] * x[n-numTaps-2] + b[numTaps-3] * x[n-
  90:.//Libraries/CMSIS/DSP/Source/FilteringFunctions/arm_fir_q15.c ****    *    acc1 =  b[numTaps-1] * x[n-numTaps]   + b[numTaps-2] * x[n-numTaps-1] + b[numTaps-3] * x[n-
  91:.//Libraries/CMSIS/DSP/Source/FilteringFunctions/arm_fir_q15.c ****    *    acc2 =  b[numTaps-1] * x[n-numTaps+1] + b[numTaps-2] * x[n-numTaps]   + b[numTaps-3] * x[n-
  92:.//Libraries/CMSIS/DSP/Source/FilteringFunctions/arm_fir_q15.c ****    *    acc3 =  b[numTaps-1] * x[n-numTaps+2] + b[numTaps-2] * x[n-numTaps+1] + b[numTaps-3] * x[n-
  93:.//Libraries/CMSIS/DSP/Source/FilteringFunctions/arm_fir_q15.c ****    */
  94:.//Libraries/CMSIS/DSP/Source/FilteringFunctions/arm_fir_q15.c ****   blkCnt = blockSize >> 2U;
  95:.//Libraries/CMSIS/DSP/Source/FilteringFunctions/arm_fir_q15.c **** 
  96:.//Libraries/CMSIS/DSP/Source/FilteringFunctions/arm_fir_q15.c ****   while (blkCnt > 0U)
  97:.//Libraries/CMSIS/DSP/Source/FilteringFunctions/arm_fir_q15.c ****   {
  98:.//Libraries/CMSIS/DSP/Source/FilteringFunctions/arm_fir_q15.c ****     /* Copy 4 new input samples into the state buffer. */
  99:.//Libraries/CMSIS/DSP/Source/FilteringFunctions/arm_fir_q15.c ****     *pStateCurnt++ = *pSrc++;
 100:.//Libraries/CMSIS/DSP/Source/FilteringFunctions/arm_fir_q15.c ****     *pStateCurnt++ = *pSrc++;
 101:.//Libraries/CMSIS/DSP/Source/FilteringFunctions/arm_fir_q15.c ****     *pStateCurnt++ = *pSrc++;
 102:.//Libraries/CMSIS/DSP/Source/FilteringFunctions/arm_fir_q15.c ****     *pStateCurnt++ = *pSrc++;
 103:.//Libraries/CMSIS/DSP/Source/FilteringFunctions/arm_fir_q15.c **** 
 104:.//Libraries/CMSIS/DSP/Source/FilteringFunctions/arm_fir_q15.c ****     /* Set all accumulators to zero */
 105:.//Libraries/CMSIS/DSP/Source/FilteringFunctions/arm_fir_q15.c ****     acc0 = 0;
 106:.//Libraries/CMSIS/DSP/Source/FilteringFunctions/arm_fir_q15.c ****     acc1 = 0;
 107:.//Libraries/CMSIS/DSP/Source/FilteringFunctions/arm_fir_q15.c ****     acc2 = 0;
 108:.//Libraries/CMSIS/DSP/Source/FilteringFunctions/arm_fir_q15.c ****     acc3 = 0;
 109:.//Libraries/CMSIS/DSP/Source/FilteringFunctions/arm_fir_q15.c **** 
 110:.//Libraries/CMSIS/DSP/Source/FilteringFunctions/arm_fir_q15.c ****     /* Typecast q15_t pointer to q31_t pointer for state reading in q31_t */
 111:.//Libraries/CMSIS/DSP/Source/FilteringFunctions/arm_fir_q15.c ****     px = pState;
 112:.//Libraries/CMSIS/DSP/Source/FilteringFunctions/arm_fir_q15.c **** 
 113:.//Libraries/CMSIS/DSP/Source/FilteringFunctions/arm_fir_q15.c ****     /* Typecast q15_t pointer to q31_t pointer for coefficient reading in q31_t */
 114:.//Libraries/CMSIS/DSP/Source/FilteringFunctions/arm_fir_q15.c ****     pb = pCoeffs;
 115:.//Libraries/CMSIS/DSP/Source/FilteringFunctions/arm_fir_q15.c **** 
 116:.//Libraries/CMSIS/DSP/Source/FilteringFunctions/arm_fir_q15.c ****     /* Read the first two samples from the state buffer:  x[n-N], x[n-N-1] */
 117:.//Libraries/CMSIS/DSP/Source/FilteringFunctions/arm_fir_q15.c ****     x0 = read_q15x2_ia (&px);
 118:.//Libraries/CMSIS/DSP/Source/FilteringFunctions/arm_fir_q15.c **** 
 119:.//Libraries/CMSIS/DSP/Source/FilteringFunctions/arm_fir_q15.c ****     /* Read the third and forth samples from the state buffer: x[n-N-2], x[n-N-3] */
 120:.//Libraries/CMSIS/DSP/Source/FilteringFunctions/arm_fir_q15.c ****     x2 = read_q15x2_ia (&px);
 121:.//Libraries/CMSIS/DSP/Source/FilteringFunctions/arm_fir_q15.c **** 
 122:.//Libraries/CMSIS/DSP/Source/FilteringFunctions/arm_fir_q15.c ****     /* Loop over the number of taps.  Unroll by a factor of 4.
 123:.//Libraries/CMSIS/DSP/Source/FilteringFunctions/arm_fir_q15.c ****        Repeat until we've computed numTaps-(numTaps%4) coefficients. */
 124:.//Libraries/CMSIS/DSP/Source/FilteringFunctions/arm_fir_q15.c ****     tapCnt = numTaps >> 2U;
 125:.//Libraries/CMSIS/DSP/Source/FilteringFunctions/arm_fir_q15.c **** 
 126:.//Libraries/CMSIS/DSP/Source/FilteringFunctions/arm_fir_q15.c ****     while (tapCnt > 0U)
 127:.//Libraries/CMSIS/DSP/Source/FilteringFunctions/arm_fir_q15.c ****     {
 128:.//Libraries/CMSIS/DSP/Source/FilteringFunctions/arm_fir_q15.c ****       /* Read the first two coefficients using SIMD:  b[N] and b[N-1] coefficients */
 129:.//Libraries/CMSIS/DSP/Source/FilteringFunctions/arm_fir_q15.c ****       c0 = read_q15x2_ia ((q15_t **) &pb);
 130:.//Libraries/CMSIS/DSP/Source/FilteringFunctions/arm_fir_q15.c **** 
 131:.//Libraries/CMSIS/DSP/Source/FilteringFunctions/arm_fir_q15.c ****       /* acc0 +=  b[N] * x[n-N] + b[N-1] * x[n-N-1] */
 132:.//Libraries/CMSIS/DSP/Source/FilteringFunctions/arm_fir_q15.c ****       acc0 = __SMLALD(x0, c0, acc0);
 133:.//Libraries/CMSIS/DSP/Source/FilteringFunctions/arm_fir_q15.c **** 
 134:.//Libraries/CMSIS/DSP/Source/FilteringFunctions/arm_fir_q15.c ****       /* acc2 +=  b[N] * x[n-N-2] + b[N-1] * x[n-N-3] */
 135:.//Libraries/CMSIS/DSP/Source/FilteringFunctions/arm_fir_q15.c ****       acc2 = __SMLALD(x2, c0, acc2);
 136:.//Libraries/CMSIS/DSP/Source/FilteringFunctions/arm_fir_q15.c **** 
 137:.//Libraries/CMSIS/DSP/Source/FilteringFunctions/arm_fir_q15.c ****       /* pack  x[n-N-1] and x[n-N-2] */
 138:.//Libraries/CMSIS/DSP/Source/FilteringFunctions/arm_fir_q15.c **** #ifndef ARM_MATH_BIG_ENDIAN
 139:.//Libraries/CMSIS/DSP/Source/FilteringFunctions/arm_fir_q15.c ****       x1 = __PKHBT(x2, x0, 0);
 140:.//Libraries/CMSIS/DSP/Source/FilteringFunctions/arm_fir_q15.c **** #else
ARM GAS  /var/folders/wl/rshn8xbx1dsfj1zgryf4g1240000gn/T//cc8m6Iyy.s 			page 5


 141:.//Libraries/CMSIS/DSP/Source/FilteringFunctions/arm_fir_q15.c ****       x1 = __PKHBT(x0, x2, 0);
 142:.//Libraries/CMSIS/DSP/Source/FilteringFunctions/arm_fir_q15.c **** #endif
 143:.//Libraries/CMSIS/DSP/Source/FilteringFunctions/arm_fir_q15.c **** 
 144:.//Libraries/CMSIS/DSP/Source/FilteringFunctions/arm_fir_q15.c ****       /* Read state x[n-N-4], x[n-N-5] */
 145:.//Libraries/CMSIS/DSP/Source/FilteringFunctions/arm_fir_q15.c ****       x0 = read_q15x2_ia (&px);
 146:.//Libraries/CMSIS/DSP/Source/FilteringFunctions/arm_fir_q15.c **** 
 147:.//Libraries/CMSIS/DSP/Source/FilteringFunctions/arm_fir_q15.c ****       /* acc1 +=  b[N] * x[n-N-1] + b[N-1] * x[n-N-2] */
 148:.//Libraries/CMSIS/DSP/Source/FilteringFunctions/arm_fir_q15.c ****       acc1 = __SMLALDX(x1, c0, acc1);
 149:.//Libraries/CMSIS/DSP/Source/FilteringFunctions/arm_fir_q15.c **** 
 150:.//Libraries/CMSIS/DSP/Source/FilteringFunctions/arm_fir_q15.c ****       /* pack  x[n-N-3] and x[n-N-4] */
 151:.//Libraries/CMSIS/DSP/Source/FilteringFunctions/arm_fir_q15.c **** #ifndef ARM_MATH_BIG_ENDIAN
 152:.//Libraries/CMSIS/DSP/Source/FilteringFunctions/arm_fir_q15.c ****       x1 = __PKHBT(x0, x2, 0);
 153:.//Libraries/CMSIS/DSP/Source/FilteringFunctions/arm_fir_q15.c **** #else
 154:.//Libraries/CMSIS/DSP/Source/FilteringFunctions/arm_fir_q15.c ****       x1 = __PKHBT(x2, x0, 0);
 155:.//Libraries/CMSIS/DSP/Source/FilteringFunctions/arm_fir_q15.c **** #endif
 156:.//Libraries/CMSIS/DSP/Source/FilteringFunctions/arm_fir_q15.c **** 
 157:.//Libraries/CMSIS/DSP/Source/FilteringFunctions/arm_fir_q15.c ****       /* acc3 +=  b[N] * x[n-N-3] + b[N-1] * x[n-N-4] */
 158:.//Libraries/CMSIS/DSP/Source/FilteringFunctions/arm_fir_q15.c ****       acc3 = __SMLALDX(x1, c0, acc3);
 159:.//Libraries/CMSIS/DSP/Source/FilteringFunctions/arm_fir_q15.c **** 
 160:.//Libraries/CMSIS/DSP/Source/FilteringFunctions/arm_fir_q15.c ****       /* Read coefficients b[N-2], b[N-3] */
 161:.//Libraries/CMSIS/DSP/Source/FilteringFunctions/arm_fir_q15.c ****       c0 = read_q15x2_ia ((q15_t **) &pb);
 162:.//Libraries/CMSIS/DSP/Source/FilteringFunctions/arm_fir_q15.c **** 
 163:.//Libraries/CMSIS/DSP/Source/FilteringFunctions/arm_fir_q15.c ****       /* acc0 +=  b[N-2] * x[n-N-2] + b[N-3] * x[n-N-3] */
 164:.//Libraries/CMSIS/DSP/Source/FilteringFunctions/arm_fir_q15.c ****       acc0 = __SMLALD(x2, c0, acc0);
 165:.//Libraries/CMSIS/DSP/Source/FilteringFunctions/arm_fir_q15.c **** 
 166:.//Libraries/CMSIS/DSP/Source/FilteringFunctions/arm_fir_q15.c ****       /* Read state x[n-N-6], x[n-N-7] with offset */
 167:.//Libraries/CMSIS/DSP/Source/FilteringFunctions/arm_fir_q15.c ****       x2 = read_q15x2_ia (&px);
 168:.//Libraries/CMSIS/DSP/Source/FilteringFunctions/arm_fir_q15.c **** 
 169:.//Libraries/CMSIS/DSP/Source/FilteringFunctions/arm_fir_q15.c ****       /* acc2 +=  b[N-2] * x[n-N-4] + b[N-3] * x[n-N-5] */
 170:.//Libraries/CMSIS/DSP/Source/FilteringFunctions/arm_fir_q15.c ****       acc2 = __SMLALD(x0, c0, acc2);
 171:.//Libraries/CMSIS/DSP/Source/FilteringFunctions/arm_fir_q15.c **** 
 172:.//Libraries/CMSIS/DSP/Source/FilteringFunctions/arm_fir_q15.c ****       /* acc1 +=  b[N-2] * x[n-N-3] + b[N-3] * x[n-N-4] */
 173:.//Libraries/CMSIS/DSP/Source/FilteringFunctions/arm_fir_q15.c ****       acc1 = __SMLALDX(x1, c0, acc1);
 174:.//Libraries/CMSIS/DSP/Source/FilteringFunctions/arm_fir_q15.c **** 
 175:.//Libraries/CMSIS/DSP/Source/FilteringFunctions/arm_fir_q15.c ****       /* pack  x[n-N-5] and x[n-N-6] */
 176:.//Libraries/CMSIS/DSP/Source/FilteringFunctions/arm_fir_q15.c **** #ifndef ARM_MATH_BIG_ENDIAN
 177:.//Libraries/CMSIS/DSP/Source/FilteringFunctions/arm_fir_q15.c ****       x1 = __PKHBT(x2, x0, 0);
 178:.//Libraries/CMSIS/DSP/Source/FilteringFunctions/arm_fir_q15.c **** #else
 179:.//Libraries/CMSIS/DSP/Source/FilteringFunctions/arm_fir_q15.c ****       x1 = __PKHBT(x0, x2, 0);
 180:.//Libraries/CMSIS/DSP/Source/FilteringFunctions/arm_fir_q15.c **** #endif
 181:.//Libraries/CMSIS/DSP/Source/FilteringFunctions/arm_fir_q15.c **** 
 182:.//Libraries/CMSIS/DSP/Source/FilteringFunctions/arm_fir_q15.c ****       /* acc3 +=  b[N-2] * x[n-N-5] + b[N-3] * x[n-N-6] */
 183:.//Libraries/CMSIS/DSP/Source/FilteringFunctions/arm_fir_q15.c ****       acc3 = __SMLALDX(x1, c0, acc3);
 184:.//Libraries/CMSIS/DSP/Source/FilteringFunctions/arm_fir_q15.c **** 
 185:.//Libraries/CMSIS/DSP/Source/FilteringFunctions/arm_fir_q15.c ****       /* Decrement tap count */
 186:.//Libraries/CMSIS/DSP/Source/FilteringFunctions/arm_fir_q15.c ****       tapCnt--;
 187:.//Libraries/CMSIS/DSP/Source/FilteringFunctions/arm_fir_q15.c ****     }
 188:.//Libraries/CMSIS/DSP/Source/FilteringFunctions/arm_fir_q15.c **** 
 189:.//Libraries/CMSIS/DSP/Source/FilteringFunctions/arm_fir_q15.c ****     /* If the filter length is not a multiple of 4, compute the remaining filter taps.
 190:.//Libraries/CMSIS/DSP/Source/FilteringFunctions/arm_fir_q15.c ****        This is always be 2 taps since the filter length is even. */
 191:.//Libraries/CMSIS/DSP/Source/FilteringFunctions/arm_fir_q15.c ****     if ((numTaps & 0x3U) != 0U)
 192:.//Libraries/CMSIS/DSP/Source/FilteringFunctions/arm_fir_q15.c ****     {
 193:.//Libraries/CMSIS/DSP/Source/FilteringFunctions/arm_fir_q15.c ****       /* Read last two coefficients */
 194:.//Libraries/CMSIS/DSP/Source/FilteringFunctions/arm_fir_q15.c ****       c0 = read_q15x2_ia ((q15_t **) &pb);
 195:.//Libraries/CMSIS/DSP/Source/FilteringFunctions/arm_fir_q15.c **** 
 196:.//Libraries/CMSIS/DSP/Source/FilteringFunctions/arm_fir_q15.c ****       /* Perform the multiply-accumulates */
 197:.//Libraries/CMSIS/DSP/Source/FilteringFunctions/arm_fir_q15.c ****       acc0 = __SMLALD(x0, c0, acc0);
ARM GAS  /var/folders/wl/rshn8xbx1dsfj1zgryf4g1240000gn/T//cc8m6Iyy.s 			page 6


 198:.//Libraries/CMSIS/DSP/Source/FilteringFunctions/arm_fir_q15.c ****       acc2 = __SMLALD(x2, c0, acc2);
 199:.//Libraries/CMSIS/DSP/Source/FilteringFunctions/arm_fir_q15.c **** 
 200:.//Libraries/CMSIS/DSP/Source/FilteringFunctions/arm_fir_q15.c ****       /* pack state variables */
 201:.//Libraries/CMSIS/DSP/Source/FilteringFunctions/arm_fir_q15.c **** #ifndef ARM_MATH_BIG_ENDIAN
 202:.//Libraries/CMSIS/DSP/Source/FilteringFunctions/arm_fir_q15.c ****       x1 = __PKHBT(x2, x0, 0);
 203:.//Libraries/CMSIS/DSP/Source/FilteringFunctions/arm_fir_q15.c **** #else
 204:.//Libraries/CMSIS/DSP/Source/FilteringFunctions/arm_fir_q15.c ****       x1 = __PKHBT(x0, x2, 0);
 205:.//Libraries/CMSIS/DSP/Source/FilteringFunctions/arm_fir_q15.c **** #endif
 206:.//Libraries/CMSIS/DSP/Source/FilteringFunctions/arm_fir_q15.c **** 
 207:.//Libraries/CMSIS/DSP/Source/FilteringFunctions/arm_fir_q15.c ****       /* Read last state variables */
 208:.//Libraries/CMSIS/DSP/Source/FilteringFunctions/arm_fir_q15.c ****       x0 = read_q15x2 (px);
 209:.//Libraries/CMSIS/DSP/Source/FilteringFunctions/arm_fir_q15.c **** 
 210:.//Libraries/CMSIS/DSP/Source/FilteringFunctions/arm_fir_q15.c ****       /* Perform the multiply-accumulates */
 211:.//Libraries/CMSIS/DSP/Source/FilteringFunctions/arm_fir_q15.c ****       acc1 = __SMLALDX(x1, c0, acc1);
 212:.//Libraries/CMSIS/DSP/Source/FilteringFunctions/arm_fir_q15.c **** 
 213:.//Libraries/CMSIS/DSP/Source/FilteringFunctions/arm_fir_q15.c ****       /* pack state variables */
 214:.//Libraries/CMSIS/DSP/Source/FilteringFunctions/arm_fir_q15.c **** #ifndef ARM_MATH_BIG_ENDIAN
 215:.//Libraries/CMSIS/DSP/Source/FilteringFunctions/arm_fir_q15.c ****       x1 = __PKHBT(x0, x2, 0);
 216:.//Libraries/CMSIS/DSP/Source/FilteringFunctions/arm_fir_q15.c **** #else
 217:.//Libraries/CMSIS/DSP/Source/FilteringFunctions/arm_fir_q15.c ****       x1 = __PKHBT(x2, x0, 0);
 218:.//Libraries/CMSIS/DSP/Source/FilteringFunctions/arm_fir_q15.c **** #endif
 219:.//Libraries/CMSIS/DSP/Source/FilteringFunctions/arm_fir_q15.c **** 
 220:.//Libraries/CMSIS/DSP/Source/FilteringFunctions/arm_fir_q15.c ****       /* Perform the multiply-accumulates */
 221:.//Libraries/CMSIS/DSP/Source/FilteringFunctions/arm_fir_q15.c ****       acc3 = __SMLALDX(x1, c0, acc3);
 222:.//Libraries/CMSIS/DSP/Source/FilteringFunctions/arm_fir_q15.c ****     }
 223:.//Libraries/CMSIS/DSP/Source/FilteringFunctions/arm_fir_q15.c **** 
 224:.//Libraries/CMSIS/DSP/Source/FilteringFunctions/arm_fir_q15.c ****     /* The results in the 4 accumulators are in 2.30 format. Convert to 1.15 with saturation.
 225:.//Libraries/CMSIS/DSP/Source/FilteringFunctions/arm_fir_q15.c ****        Then store the 4 outputs in the destination buffer. */
 226:.//Libraries/CMSIS/DSP/Source/FilteringFunctions/arm_fir_q15.c **** #ifndef ARM_MATH_BIG_ENDIAN
 227:.//Libraries/CMSIS/DSP/Source/FilteringFunctions/arm_fir_q15.c ****     write_q15x2_ia (&pDst, __PKHBT(__SSAT((acc0 >> 15), 16), __SSAT((acc1 >> 15), 16), 16));
 228:.//Libraries/CMSIS/DSP/Source/FilteringFunctions/arm_fir_q15.c ****     write_q15x2_ia (&pDst, __PKHBT(__SSAT((acc2 >> 15), 16), __SSAT((acc3 >> 15), 16), 16));
 229:.//Libraries/CMSIS/DSP/Source/FilteringFunctions/arm_fir_q15.c **** #else
 230:.//Libraries/CMSIS/DSP/Source/FilteringFunctions/arm_fir_q15.c ****     write_q15x2_ia (&pDst, __PKHBT(__SSAT((acc1 >> 15), 16), __SSAT((acc0 >> 15), 16), 16));
 231:.//Libraries/CMSIS/DSP/Source/FilteringFunctions/arm_fir_q15.c ****     write_q15x2_ia (&pDst, __PKHBT(__SSAT((acc3 >> 15), 16), __SSAT((acc2 >> 15), 16), 16));
 232:.//Libraries/CMSIS/DSP/Source/FilteringFunctions/arm_fir_q15.c **** #endif /* #ifndef ARM_MATH_BIG_ENDIAN */
 233:.//Libraries/CMSIS/DSP/Source/FilteringFunctions/arm_fir_q15.c **** 
 234:.//Libraries/CMSIS/DSP/Source/FilteringFunctions/arm_fir_q15.c ****     /* Advance the state pointer by 4 to process the next group of 4 samples */
 235:.//Libraries/CMSIS/DSP/Source/FilteringFunctions/arm_fir_q15.c ****     pState = pState + 4U;
 236:.//Libraries/CMSIS/DSP/Source/FilteringFunctions/arm_fir_q15.c **** 
 237:.//Libraries/CMSIS/DSP/Source/FilteringFunctions/arm_fir_q15.c ****     /* Decrement loop counter */
 238:.//Libraries/CMSIS/DSP/Source/FilteringFunctions/arm_fir_q15.c ****     blkCnt--;
 239:.//Libraries/CMSIS/DSP/Source/FilteringFunctions/arm_fir_q15.c ****   }
 240:.//Libraries/CMSIS/DSP/Source/FilteringFunctions/arm_fir_q15.c **** 
 241:.//Libraries/CMSIS/DSP/Source/FilteringFunctions/arm_fir_q15.c ****   /* Loop unrolling: Compute remaining output samples */
 242:.//Libraries/CMSIS/DSP/Source/FilteringFunctions/arm_fir_q15.c ****   blkCnt = blockSize % 0x4U;
 243:.//Libraries/CMSIS/DSP/Source/FilteringFunctions/arm_fir_q15.c **** 
 244:.//Libraries/CMSIS/DSP/Source/FilteringFunctions/arm_fir_q15.c **** #else
 245:.//Libraries/CMSIS/DSP/Source/FilteringFunctions/arm_fir_q15.c **** 
 246:.//Libraries/CMSIS/DSP/Source/FilteringFunctions/arm_fir_q15.c ****   /* Initialize blkCnt with number of taps */
 247:.//Libraries/CMSIS/DSP/Source/FilteringFunctions/arm_fir_q15.c ****   blkCnt = blockSize;
  76              		.loc 1 247 3 view .LVU19
 248:.//Libraries/CMSIS/DSP/Source/FilteringFunctions/arm_fir_q15.c **** 
 249:.//Libraries/CMSIS/DSP/Source/FilteringFunctions/arm_fir_q15.c **** #endif /* #if defined (ARM_MATH_LOOPUNROLL) */
 250:.//Libraries/CMSIS/DSP/Source/FilteringFunctions/arm_fir_q15.c **** 
 251:.//Libraries/CMSIS/DSP/Source/FilteringFunctions/arm_fir_q15.c ****   while (blkCnt > 0U)
  77              		.loc 1 251 3 view .LVU20
  78              		.loc 1 251 9 view .LVU21
ARM GAS  /var/folders/wl/rshn8xbx1dsfj1zgryf4g1240000gn/T//cc8m6Iyy.s 			page 7


  79 0016 CDE90213 		strd	r1, r3, [sp, #8]
  80 001a 002B     		cmp	r3, #0
  81 001c 40D0     		beq	.L7
  82 001e 6400     		lsls	r4, r4, #1
  83              	.LVL3:
  84              		.loc 1 251 9 is_stmt 0 view .LVU22
  85 0020 B51C     		adds	r5, r6, #2
 252:.//Libraries/CMSIS/DSP/Source/FilteringFunctions/arm_fir_q15.c ****   {
 253:.//Libraries/CMSIS/DSP/Source/FilteringFunctions/arm_fir_q15.c ****     /* Copy two samples into state buffer */
 254:.//Libraries/CMSIS/DSP/Source/FilteringFunctions/arm_fir_q15.c ****     *pStateCurnt++ = *pSrc++;
 255:.//Libraries/CMSIS/DSP/Source/FilteringFunctions/arm_fir_q15.c **** 
 256:.//Libraries/CMSIS/DSP/Source/FilteringFunctions/arm_fir_q15.c ****     /* Set the accumulator to zero */
 257:.//Libraries/CMSIS/DSP/Source/FilteringFunctions/arm_fir_q15.c ****     acc0 = 0;
 258:.//Libraries/CMSIS/DSP/Source/FilteringFunctions/arm_fir_q15.c **** 
 259:.//Libraries/CMSIS/DSP/Source/FilteringFunctions/arm_fir_q15.c ****     /* Use SIMD to hold states and coefficients */
 260:.//Libraries/CMSIS/DSP/Source/FilteringFunctions/arm_fir_q15.c ****     px = pState;
 261:.//Libraries/CMSIS/DSP/Source/FilteringFunctions/arm_fir_q15.c ****     pb = pCoeffs;
 262:.//Libraries/CMSIS/DSP/Source/FilteringFunctions/arm_fir_q15.c **** 
 263:.//Libraries/CMSIS/DSP/Source/FilteringFunctions/arm_fir_q15.c ****     tapCnt = numTaps >> 1U;
  86              		.loc 1 263 12 view .LVU23
  87 0022 4FEA510E 		lsr	lr, r1, #1
  88 0026 07F1020C 		add	ip, r7, #2
  89 002a 023C     		subs	r4, r4, #2
  90              	.LVL4:
  91              		.loc 1 263 12 view .LVU24
  92 002c 9A46     		mov	r10, r3
  93 002e 06EB040B 		add	fp, r6, r4
  94              	.LVL5:
  95              	.L4:
 254:.//Libraries/CMSIS/DSP/Source/FilteringFunctions/arm_fir_q15.c **** 
  96              		.loc 1 254 22 view .LVU25
  97 0032 39F9024B 		ldrsh	r4, [r9], #2
  98              	.LVL6:
 254:.//Libraries/CMSIS/DSP/Source/FilteringFunctions/arm_fir_q15.c **** 
  99              		.loc 1 254 22 view .LVU26
 100 0036 AE1E     		subs	r6, r5, #2
 101              	.LVL7:
 254:.//Libraries/CMSIS/DSP/Source/FilteringFunctions/arm_fir_q15.c **** 
 102              		.loc 1 254 5 is_stmt 1 view .LVU27
 254:.//Libraries/CMSIS/DSP/Source/FilteringFunctions/arm_fir_q15.c **** 
 103              		.loc 1 254 20 is_stmt 0 view .LVU28
 104 0038 0023     		movs	r3, #0
 257:.//Libraries/CMSIS/DSP/Source/FilteringFunctions/arm_fir_q15.c **** 
 105              		.loc 1 257 10 view .LVU29
 106 003a 0020     		movs	r0, #0
 107 003c 0021     		movs	r1, #0
 254:.//Libraries/CMSIS/DSP/Source/FilteringFunctions/arm_fir_q15.c **** 
 108              		.loc 1 254 20 view .LVU30
 109 003e 2BF8024F 		strh	r4, [fp, #2]!	@ movhi
 257:.//Libraries/CMSIS/DSP/Source/FilteringFunctions/arm_fir_q15.c **** 
 110              		.loc 1 257 5 is_stmt 1 view .LVU31
 111              	.LVL8:
 260:.//Libraries/CMSIS/DSP/Source/FilteringFunctions/arm_fir_q15.c ****     pb = pCoeffs;
 112              		.loc 1 260 5 view .LVU32
 261:.//Libraries/CMSIS/DSP/Source/FilteringFunctions/arm_fir_q15.c **** 
 113              		.loc 1 261 5 view .LVU33
 114              		.loc 1 263 5 view .LVU34
ARM GAS  /var/folders/wl/rshn8xbx1dsfj1zgryf4g1240000gn/T//cc8m6Iyy.s 			page 8


 254:.//Libraries/CMSIS/DSP/Source/FilteringFunctions/arm_fir_q15.c **** 
 115              		.loc 1 254 20 is_stmt 0 view .LVU35
 116 0042 0092     		str	r2, [sp]
 117              	.LVL9:
 118              	.L3:
 264:.//Libraries/CMSIS/DSP/Source/FilteringFunctions/arm_fir_q15.c **** 
 265:.//Libraries/CMSIS/DSP/Source/FilteringFunctions/arm_fir_q15.c ****     do
 119              		.loc 1 265 5 is_stmt 1 discriminator 1 view .LVU36
 266:.//Libraries/CMSIS/DSP/Source/FilteringFunctions/arm_fir_q15.c ****     {
 267:.//Libraries/CMSIS/DSP/Source/FilteringFunctions/arm_fir_q15.c ****       acc0 += (q31_t) *px++ * *pb++;
 120              		.loc 1 267 7 discriminator 1 view .LVU37
 121              		.loc 1 267 12 is_stmt 0 discriminator 1 view .LVU38
 122 0044 37F82380 		ldrh	r8, [r7, r3, lsl #2]
 123 0048 36F82320 		ldrh	r2, [r6, r3, lsl #2]
 268:.//Libraries/CMSIS/DSP/Source/FilteringFunctions/arm_fir_q15.c **** 	  acc0 += (q31_t) *px++ * *pb++;
 124              		.loc 1 268 9 discriminator 1 view .LVU39
 125 004c 35F82340 		ldrh	r4, [r5, r3, lsl #2]
 267:.//Libraries/CMSIS/DSP/Source/FilteringFunctions/arm_fir_q15.c **** 	  acc0 += (q31_t) *px++ * *pb++;
 126              		.loc 1 267 12 discriminator 1 view .LVU40
 127 0050 C2FB8801 		smlalbb	r0, r1, r2, r8
 128              	.LVL10:
 129              		.loc 1 268 4 is_stmt 1 discriminator 1 view .LVU41
 130              		.loc 1 268 9 is_stmt 0 discriminator 1 view .LVU42
 131 0054 3CF82380 		ldrh	r8, [ip, r3, lsl #2]
 132 0058 0133     		adds	r3, r3, #1
 133              	.LVL11:
 134              		.loc 1 268 9 discriminator 1 view .LVU43
 135 005a C4FB8801 		smlalbb	r0, r1, r4, r8
 136              	.LVL12:
 269:.//Libraries/CMSIS/DSP/Source/FilteringFunctions/arm_fir_q15.c **** 
 270:.//Libraries/CMSIS/DSP/Source/FilteringFunctions/arm_fir_q15.c ****       tapCnt--;
 137              		.loc 1 270 7 is_stmt 1 discriminator 1 view .LVU44
 271:.//Libraries/CMSIS/DSP/Source/FilteringFunctions/arm_fir_q15.c ****     }
 272:.//Libraries/CMSIS/DSP/Source/FilteringFunctions/arm_fir_q15.c ****     while (tapCnt > 0U);
 138              		.loc 1 272 11 discriminator 1 view .LVU45
 139              		.loc 1 272 5 is_stmt 0 discriminator 1 view .LVU46
 140 005e 9E45     		cmp	lr, r3
 141 0060 F0D1     		bne	.L3
 273:.//Libraries/CMSIS/DSP/Source/FilteringFunctions/arm_fir_q15.c **** 
 274:.//Libraries/CMSIS/DSP/Source/FilteringFunctions/arm_fir_q15.c ****     /* The result is in 2.30 format. Convert to 1.15 with saturation.
 275:.//Libraries/CMSIS/DSP/Source/FilteringFunctions/arm_fir_q15.c ****        Then store the output in the destination buffer. */
 276:.//Libraries/CMSIS/DSP/Source/FilteringFunctions/arm_fir_q15.c ****     *pDst++ = (q15_t) (__SSAT((acc0 >> 15), 16));
 142              		.loc 1 276 5 is_stmt 1 view .LVU47
 143              	.LBB2:
 144              		.loc 1 276 24 view .LVU48
 145              	.LVL13:
 146              		.loc 1 276 24 view .LVU49
 147 0062 009A     		ldr	r2, [sp]
 148 0064 C30B     		lsrs	r3, r0, #15
 149              	.LVL14:
 150              		.loc 1 276 24 is_stmt 0 view .LVU50
 151              	.LBE2:
 251:.//Libraries/CMSIS/DSP/Source/FilteringFunctions/arm_fir_q15.c ****   {
 152              		.loc 1 251 9 view .LVU51
 153 0066 BAF1010A 		subs	r10, r10, #1
 154              	.LVL15:
 251:.//Libraries/CMSIS/DSP/Source/FilteringFunctions/arm_fir_q15.c ****   {
ARM GAS  /var/folders/wl/rshn8xbx1dsfj1zgryf4g1240000gn/T//cc8m6Iyy.s 			page 9


 155              		.loc 1 251 9 view .LVU52
 156 006a 05F10205 		add	r5, r5, #2
 157              	.LBB3:
 158              		.loc 1 276 24 view .LVU53
 159 006e 43EA4143 		orr	r3, r3, r1, lsl #17
 160              		.syntax unified
 161              	@ 276 ".//Libraries/CMSIS/DSP/Source/FilteringFunctions/arm_fir_q15.c" 1
 162 0072 03F30F03 		ssat r3, #16, r3
 163              	@ 0 "" 2
 164              	.LVL16:
 165              		.loc 1 276 24 is_stmt 1 view .LVU54
 166              		.loc 1 276 24 is_stmt 0 view .LVU55
 167              		.thumb
 168              		.syntax unified
 169              	.LBE3:
 170              		.loc 1 276 15 view .LVU56
 171 0076 22F8023B 		strh	r3, [r2], #2	@ movhi
 172              	.LVL17:
 277:.//Libraries/CMSIS/DSP/Source/FilteringFunctions/arm_fir_q15.c **** 
 278:.//Libraries/CMSIS/DSP/Source/FilteringFunctions/arm_fir_q15.c ****     /* Advance state pointer by 1 for the next sample */
 279:.//Libraries/CMSIS/DSP/Source/FilteringFunctions/arm_fir_q15.c ****     pState = pState + 1U;
 173              		.loc 1 279 5 is_stmt 1 view .LVU57
 280:.//Libraries/CMSIS/DSP/Source/FilteringFunctions/arm_fir_q15.c **** 
 281:.//Libraries/CMSIS/DSP/Source/FilteringFunctions/arm_fir_q15.c ****     /* Decrement loop counter */
 282:.//Libraries/CMSIS/DSP/Source/FilteringFunctions/arm_fir_q15.c ****     blkCnt--;
 174              		.loc 1 282 5 view .LVU58
 251:.//Libraries/CMSIS/DSP/Source/FilteringFunctions/arm_fir_q15.c ****   {
 175              		.loc 1 251 9 view .LVU59
 176 007a DAD1     		bne	.L4
 177 007c 019B     		ldr	r3, [sp, #4]
 178              	.LVL18:
 251:.//Libraries/CMSIS/DSP/Source/FilteringFunctions/arm_fir_q15.c ****   {
 179              		.loc 1 251 9 is_stmt 0 view .LVU60
 180 007e 039A     		ldr	r2, [sp, #12]
 181              	.LVL19:
 251:.//Libraries/CMSIS/DSP/Source/FilteringFunctions/arm_fir_q15.c ****   {
 182              		.loc 1 251 9 view .LVU61
 183 0080 03EB4201 		add	r1, r3, r2, lsl #1
 184              	.LVL20:
 185              	.L2:
 283:.//Libraries/CMSIS/DSP/Source/FilteringFunctions/arm_fir_q15.c ****   }
 284:.//Libraries/CMSIS/DSP/Source/FilteringFunctions/arm_fir_q15.c **** 
 285:.//Libraries/CMSIS/DSP/Source/FilteringFunctions/arm_fir_q15.c ****   /* Processing is complete.
 286:.//Libraries/CMSIS/DSP/Source/FilteringFunctions/arm_fir_q15.c ****      Now copy the last numTaps - 1 samples to the start of the state buffer.
 287:.//Libraries/CMSIS/DSP/Source/FilteringFunctions/arm_fir_q15.c ****      This prepares the state buffer for the next function call. */
 288:.//Libraries/CMSIS/DSP/Source/FilteringFunctions/arm_fir_q15.c **** 
 289:.//Libraries/CMSIS/DSP/Source/FilteringFunctions/arm_fir_q15.c ****   /* Points to the start of the state buffer */
 290:.//Libraries/CMSIS/DSP/Source/FilteringFunctions/arm_fir_q15.c ****   pStateCurnt = S->pState;
 186              		.loc 1 290 3 is_stmt 1 view .LVU62
 291:.//Libraries/CMSIS/DSP/Source/FilteringFunctions/arm_fir_q15.c **** 
 292:.//Libraries/CMSIS/DSP/Source/FilteringFunctions/arm_fir_q15.c **** #if defined (ARM_MATH_LOOPUNROLL)
 293:.//Libraries/CMSIS/DSP/Source/FilteringFunctions/arm_fir_q15.c **** 
 294:.//Libraries/CMSIS/DSP/Source/FilteringFunctions/arm_fir_q15.c ****   /* Loop unrolling: Compute 4 taps at a time */
 295:.//Libraries/CMSIS/DSP/Source/FilteringFunctions/arm_fir_q15.c ****   tapCnt = (numTaps - 1U) >> 2U;
 296:.//Libraries/CMSIS/DSP/Source/FilteringFunctions/arm_fir_q15.c **** 
 297:.//Libraries/CMSIS/DSP/Source/FilteringFunctions/arm_fir_q15.c ****   /* Copy data */
 298:.//Libraries/CMSIS/DSP/Source/FilteringFunctions/arm_fir_q15.c ****   while (tapCnt > 0U)
ARM GAS  /var/folders/wl/rshn8xbx1dsfj1zgryf4g1240000gn/T//cc8m6Iyy.s 			page 10


 299:.//Libraries/CMSIS/DSP/Source/FilteringFunctions/arm_fir_q15.c ****   {
 300:.//Libraries/CMSIS/DSP/Source/FilteringFunctions/arm_fir_q15.c ****     *pStateCurnt++ = *pState++;
 301:.//Libraries/CMSIS/DSP/Source/FilteringFunctions/arm_fir_q15.c ****     *pStateCurnt++ = *pState++;
 302:.//Libraries/CMSIS/DSP/Source/FilteringFunctions/arm_fir_q15.c ****     *pStateCurnt++ = *pState++;
 303:.//Libraries/CMSIS/DSP/Source/FilteringFunctions/arm_fir_q15.c ****     *pStateCurnt++ = *pState++;
 304:.//Libraries/CMSIS/DSP/Source/FilteringFunctions/arm_fir_q15.c **** 
 305:.//Libraries/CMSIS/DSP/Source/FilteringFunctions/arm_fir_q15.c ****     /* Decrement loop counter */
 306:.//Libraries/CMSIS/DSP/Source/FilteringFunctions/arm_fir_q15.c ****     tapCnt--;
 307:.//Libraries/CMSIS/DSP/Source/FilteringFunctions/arm_fir_q15.c ****   }
 308:.//Libraries/CMSIS/DSP/Source/FilteringFunctions/arm_fir_q15.c **** 
 309:.//Libraries/CMSIS/DSP/Source/FilteringFunctions/arm_fir_q15.c ****   /* Calculate remaining number of copies */
 310:.//Libraries/CMSIS/DSP/Source/FilteringFunctions/arm_fir_q15.c ****   tapCnt = (numTaps - 1U) % 0x4U;
 311:.//Libraries/CMSIS/DSP/Source/FilteringFunctions/arm_fir_q15.c **** 
 312:.//Libraries/CMSIS/DSP/Source/FilteringFunctions/arm_fir_q15.c **** #else
 313:.//Libraries/CMSIS/DSP/Source/FilteringFunctions/arm_fir_q15.c **** 
 314:.//Libraries/CMSIS/DSP/Source/FilteringFunctions/arm_fir_q15.c ****   /* Initialize tapCnt with number of taps */
 315:.//Libraries/CMSIS/DSP/Source/FilteringFunctions/arm_fir_q15.c ****   tapCnt = (numTaps - 1U);
 187              		.loc 1 315 3 view .LVU63
 316:.//Libraries/CMSIS/DSP/Source/FilteringFunctions/arm_fir_q15.c **** 
 317:.//Libraries/CMSIS/DSP/Source/FilteringFunctions/arm_fir_q15.c **** #endif /* #if defined (ARM_MATH_LOOPUNROLL) */
 318:.//Libraries/CMSIS/DSP/Source/FilteringFunctions/arm_fir_q15.c **** 
 319:.//Libraries/CMSIS/DSP/Source/FilteringFunctions/arm_fir_q15.c ****   /* Copy remaining data */
 320:.//Libraries/CMSIS/DSP/Source/FilteringFunctions/arm_fir_q15.c ****   while (tapCnt > 0U)
 188              		.loc 1 320 3 view .LVU64
 189              		.loc 1 320 9 view .LVU65
 190 0084 029B     		ldr	r3, [sp, #8]
 191 0086 013B     		subs	r3, r3, #1
 192              	.LVL21:
 193              		.loc 1 320 9 is_stmt 0 view .LVU66
 194 0088 07D0     		beq	.L1
 195 008a 019A     		ldr	r2, [sp, #4]
 196 008c 023A     		subs	r2, r2, #2
 197              	.LVL22:
 198              	.L6:
 321:.//Libraries/CMSIS/DSP/Source/FilteringFunctions/arm_fir_q15.c ****   {
 322:.//Libraries/CMSIS/DSP/Source/FilteringFunctions/arm_fir_q15.c ****     *pStateCurnt++ = *pState++;
 199              		.loc 1 322 5 is_stmt 1 view .LVU67
 200              		.loc 1 322 22 is_stmt 0 view .LVU68
 201 008e 31F9020B 		ldrsh	r0, [r1], #2
 202              	.LVL23:
 320:.//Libraries/CMSIS/DSP/Source/FilteringFunctions/arm_fir_q15.c ****   {
 203              		.loc 1 320 9 view .LVU69
 204 0092 013B     		subs	r3, r3, #1
 205              	.LVL24:
 206              		.loc 1 322 20 view .LVU70
 207 0094 22F8020F 		strh	r0, [r2, #2]!	@ movhi
 323:.//Libraries/CMSIS/DSP/Source/FilteringFunctions/arm_fir_q15.c **** 
 324:.//Libraries/CMSIS/DSP/Source/FilteringFunctions/arm_fir_q15.c ****     /* Decrement loop counter */
 325:.//Libraries/CMSIS/DSP/Source/FilteringFunctions/arm_fir_q15.c ****     tapCnt--;
 208              		.loc 1 325 5 is_stmt 1 view .LVU71
 209              	.LVL25:
 320:.//Libraries/CMSIS/DSP/Source/FilteringFunctions/arm_fir_q15.c ****   {
 210              		.loc 1 320 9 view .LVU72
 211 0098 F9D1     		bne	.L6
 212              	.LVL26:
 213              	.L1:
 326:.//Libraries/CMSIS/DSP/Source/FilteringFunctions/arm_fir_q15.c ****   }
ARM GAS  /var/folders/wl/rshn8xbx1dsfj1zgryf4g1240000gn/T//cc8m6Iyy.s 			page 11


 327:.//Libraries/CMSIS/DSP/Source/FilteringFunctions/arm_fir_q15.c **** 
 328:.//Libraries/CMSIS/DSP/Source/FilteringFunctions/arm_fir_q15.c **** }
 214              		.loc 1 328 1 is_stmt 0 view .LVU73
 215 009a 05B0     		add	sp, sp, #20
 216              	.LCFI2:
 217              		.cfi_remember_state
 218              		.cfi_def_cfa_offset 36
 219              		@ sp needed
 220 009c BDE8F08F 		pop	{r4, r5, r6, r7, r8, r9, r10, fp, pc}
 221              	.LVL27:
 222              	.L7:
 223              	.LCFI3:
 224              		.cfi_restore_state
  66:.//Libraries/CMSIS/DSP/Source/FilteringFunctions/arm_fir_q15.c ****   const q15_t *pCoeffs = S->pCoeffs;                   /* Coefficient pointer */
 225              		.loc 1 66 16 view .LVU74
 226 00a0 0199     		ldr	r1, [sp, #4]
 227              	.LVL28:
  66:.//Libraries/CMSIS/DSP/Source/FilteringFunctions/arm_fir_q15.c ****   const q15_t *pCoeffs = S->pCoeffs;                   /* Coefficient pointer */
 228              		.loc 1 66 16 view .LVU75
 229 00a2 EFE7     		b	.L2
 230              		.cfi_endproc
 231              	.LFE145:
 233              		.text
 234              	.Letext0:
 235              		.file 2 "/opt/homebrew/Cellar/arm-none-eabi-gcc/9-2019-q4-major/gcc/arm-none-eabi/include/machine/
 236              		.file 3 "/opt/homebrew/Cellar/arm-none-eabi-gcc/9-2019-q4-major/gcc/arm-none-eabi/include/sys/_std
 237              		.file 4 "/opt/homebrew/Cellar/arm-none-eabi-gcc/9-2019-q4-major/gcc/arm-none-eabi/include/sys/lock
 238              		.file 5 "/opt/homebrew/Cellar/arm-none-eabi-gcc/9-2019-q4-major/gcc/arm-none-eabi/include/sys/_typ
 239              		.file 6 "/opt/homebrew/Cellar/arm-none-eabi-gcc/9-2019-q4-major/gcc/lib/gcc/arm-none-eabi/9.2.1/in
 240              		.file 7 "/opt/homebrew/Cellar/arm-none-eabi-gcc/9-2019-q4-major/gcc/arm-none-eabi/include/sys/reen
 241              		.file 8 "/opt/homebrew/Cellar/arm-none-eabi-gcc/9-2019-q4-major/gcc/arm-none-eabi/include/math.h"
 242              		.file 9 ".//Libraries/CMSIS/DSP/Include/arm_math.h"
ARM GAS  /var/folders/wl/rshn8xbx1dsfj1zgryf4g1240000gn/T//cc8m6Iyy.s 			page 12

