ARM GAS  /var/folders/wl/rshn8xbx1dsfj1zgryf4g1240000gn/T//ccOLCVhb.s 			page 1


   1              		.cpu cortex-m7
   2              		.eabi_attribute 28, 1
   3              		.eabi_attribute 20, 1
   4              		.eabi_attribute 21, 1
   5              		.eabi_attribute 23, 3
   6              		.eabi_attribute 24, 1
   7              		.eabi_attribute 25, 1
   8              		.eabi_attribute 26, 1
   9              		.eabi_attribute 30, 2
  10              		.eabi_attribute 34, 1
  11              		.eabi_attribute 18, 4
  12              		.file	"arm_conv_q7.c"
  13              		.text
  14              	.Ltext0:
  15              		.cfi_sections	.debug_frame
  16              		.section	.text.arm_conv_q7,"ax",%progbits
  17              		.align	1
  18              		.p2align 2,,3
  19              		.global	arm_conv_q7
  20              		.arch armv7e-m
  21              		.syntax unified
  22              		.thumb
  23              		.thumb_func
  24              		.fpu fpv5-d16
  26              	arm_conv_q7:
  27              	.LVL0:
  28              	.LFB145:
  29              		.file 1 ".//Libraries/CMSIS/DSP/Source/FilteringFunctions/arm_conv_q7.c"
   1:.//Libraries/CMSIS/DSP/Source/FilteringFunctions/arm_conv_q7.c **** /* ----------------------------------------------------------------------
   2:.//Libraries/CMSIS/DSP/Source/FilteringFunctions/arm_conv_q7.c ****  * Project:      CMSIS DSP Library
   3:.//Libraries/CMSIS/DSP/Source/FilteringFunctions/arm_conv_q7.c ****  * Title:        arm_conv_q7.c
   4:.//Libraries/CMSIS/DSP/Source/FilteringFunctions/arm_conv_q7.c ****  * Description:  Convolution of Q7 sequences
   5:.//Libraries/CMSIS/DSP/Source/FilteringFunctions/arm_conv_q7.c ****  *
   6:.//Libraries/CMSIS/DSP/Source/FilteringFunctions/arm_conv_q7.c ****  * $Date:        18. March 2019
   7:.//Libraries/CMSIS/DSP/Source/FilteringFunctions/arm_conv_q7.c ****  * $Revision:    V1.6.0
   8:.//Libraries/CMSIS/DSP/Source/FilteringFunctions/arm_conv_q7.c ****  *
   9:.//Libraries/CMSIS/DSP/Source/FilteringFunctions/arm_conv_q7.c ****  * Target Processor: Cortex-M cores
  10:.//Libraries/CMSIS/DSP/Source/FilteringFunctions/arm_conv_q7.c ****  * -------------------------------------------------------------------- */
  11:.//Libraries/CMSIS/DSP/Source/FilteringFunctions/arm_conv_q7.c **** /*
  12:.//Libraries/CMSIS/DSP/Source/FilteringFunctions/arm_conv_q7.c ****  * Copyright (C) 2010-2019 ARM Limited or its affiliates. All rights reserved.
  13:.//Libraries/CMSIS/DSP/Source/FilteringFunctions/arm_conv_q7.c ****  *
  14:.//Libraries/CMSIS/DSP/Source/FilteringFunctions/arm_conv_q7.c ****  * SPDX-License-Identifier: Apache-2.0
  15:.//Libraries/CMSIS/DSP/Source/FilteringFunctions/arm_conv_q7.c ****  *
  16:.//Libraries/CMSIS/DSP/Source/FilteringFunctions/arm_conv_q7.c ****  * Licensed under the Apache License, Version 2.0 (the License); you may
  17:.//Libraries/CMSIS/DSP/Source/FilteringFunctions/arm_conv_q7.c ****  * not use this file except in compliance with the License.
  18:.//Libraries/CMSIS/DSP/Source/FilteringFunctions/arm_conv_q7.c ****  * You may obtain a copy of the License at
  19:.//Libraries/CMSIS/DSP/Source/FilteringFunctions/arm_conv_q7.c ****  *
  20:.//Libraries/CMSIS/DSP/Source/FilteringFunctions/arm_conv_q7.c ****  * www.apache.org/licenses/LICENSE-2.0
  21:.//Libraries/CMSIS/DSP/Source/FilteringFunctions/arm_conv_q7.c ****  *
  22:.//Libraries/CMSIS/DSP/Source/FilteringFunctions/arm_conv_q7.c ****  * Unless required by applicable law or agreed to in writing, software
  23:.//Libraries/CMSIS/DSP/Source/FilteringFunctions/arm_conv_q7.c ****  * distributed under the License is distributed on an AS IS BASIS, WITHOUT
  24:.//Libraries/CMSIS/DSP/Source/FilteringFunctions/arm_conv_q7.c ****  * WARRANTIES OR CONDITIONS OF ANY KIND, either express or implied.
  25:.//Libraries/CMSIS/DSP/Source/FilteringFunctions/arm_conv_q7.c ****  * See the License for the specific language governing permissions and
  26:.//Libraries/CMSIS/DSP/Source/FilteringFunctions/arm_conv_q7.c ****  * limitations under the License.
  27:.//Libraries/CMSIS/DSP/Source/FilteringFunctions/arm_conv_q7.c ****  */
  28:.//Libraries/CMSIS/DSP/Source/FilteringFunctions/arm_conv_q7.c **** 
  29:.//Libraries/CMSIS/DSP/Source/FilteringFunctions/arm_conv_q7.c **** #include "arm_math.h"
ARM GAS  /var/folders/wl/rshn8xbx1dsfj1zgryf4g1240000gn/T//ccOLCVhb.s 			page 2


  30:.//Libraries/CMSIS/DSP/Source/FilteringFunctions/arm_conv_q7.c **** 
  31:.//Libraries/CMSIS/DSP/Source/FilteringFunctions/arm_conv_q7.c **** /**
  32:.//Libraries/CMSIS/DSP/Source/FilteringFunctions/arm_conv_q7.c ****   @ingroup groupFilters
  33:.//Libraries/CMSIS/DSP/Source/FilteringFunctions/arm_conv_q7.c ****  */
  34:.//Libraries/CMSIS/DSP/Source/FilteringFunctions/arm_conv_q7.c **** 
  35:.//Libraries/CMSIS/DSP/Source/FilteringFunctions/arm_conv_q7.c **** /**
  36:.//Libraries/CMSIS/DSP/Source/FilteringFunctions/arm_conv_q7.c ****   @addtogroup Conv
  37:.//Libraries/CMSIS/DSP/Source/FilteringFunctions/arm_conv_q7.c ****   @{
  38:.//Libraries/CMSIS/DSP/Source/FilteringFunctions/arm_conv_q7.c ****  */
  39:.//Libraries/CMSIS/DSP/Source/FilteringFunctions/arm_conv_q7.c **** 
  40:.//Libraries/CMSIS/DSP/Source/FilteringFunctions/arm_conv_q7.c **** /**
  41:.//Libraries/CMSIS/DSP/Source/FilteringFunctions/arm_conv_q7.c ****   @brief         Convolution of Q7 sequences.
  42:.//Libraries/CMSIS/DSP/Source/FilteringFunctions/arm_conv_q7.c ****   @param[in]     pSrcA      points to the first input sequence
  43:.//Libraries/CMSIS/DSP/Source/FilteringFunctions/arm_conv_q7.c ****   @param[in]     srcALen    length of the first input sequence
  44:.//Libraries/CMSIS/DSP/Source/FilteringFunctions/arm_conv_q7.c ****   @param[in]     pSrcB      points to the second input sequence
  45:.//Libraries/CMSIS/DSP/Source/FilteringFunctions/arm_conv_q7.c ****   @param[in]     srcBLen    length of the second input sequence
  46:.//Libraries/CMSIS/DSP/Source/FilteringFunctions/arm_conv_q7.c ****   @param[out]    pDst       points to the location where the output result is written.  Length srcA
  47:.//Libraries/CMSIS/DSP/Source/FilteringFunctions/arm_conv_q7.c ****   @return        none
  48:.//Libraries/CMSIS/DSP/Source/FilteringFunctions/arm_conv_q7.c **** 
  49:.//Libraries/CMSIS/DSP/Source/FilteringFunctions/arm_conv_q7.c ****   @par           Scaling and Overflow Behavior
  50:.//Libraries/CMSIS/DSP/Source/FilteringFunctions/arm_conv_q7.c ****                    The function is implemented using a 32-bit internal accumulator.
  51:.//Libraries/CMSIS/DSP/Source/FilteringFunctions/arm_conv_q7.c ****                    Both the inputs are represented in 1.7 format and multiplications yield a 2.14 r
  52:.//Libraries/CMSIS/DSP/Source/FilteringFunctions/arm_conv_q7.c ****                    The 2.14 intermediate results are accumulated in a 32-bit accumulator in 18.14 f
  53:.//Libraries/CMSIS/DSP/Source/FilteringFunctions/arm_conv_q7.c ****                    This approach provides 17 guard bits and there is no risk of overflow as long as
  54:.//Libraries/CMSIS/DSP/Source/FilteringFunctions/arm_conv_q7.c ****                    The 18.14 result is then truncated to 18.7 format by discarding the low 7 bits a
  55:.//Libraries/CMSIS/DSP/Source/FilteringFunctions/arm_conv_q7.c ****   @remark
  56:.//Libraries/CMSIS/DSP/Source/FilteringFunctions/arm_conv_q7.c ****                    Refer to \ref arm_conv_opt_q7() for a faster implementation of this function.
  57:.//Libraries/CMSIS/DSP/Source/FilteringFunctions/arm_conv_q7.c ****  */
  58:.//Libraries/CMSIS/DSP/Source/FilteringFunctions/arm_conv_q7.c **** 
  59:.//Libraries/CMSIS/DSP/Source/FilteringFunctions/arm_conv_q7.c **** void arm_conv_q7(
  60:.//Libraries/CMSIS/DSP/Source/FilteringFunctions/arm_conv_q7.c ****   const q7_t * pSrcA,
  61:.//Libraries/CMSIS/DSP/Source/FilteringFunctions/arm_conv_q7.c ****         uint32_t srcALen,
  62:.//Libraries/CMSIS/DSP/Source/FilteringFunctions/arm_conv_q7.c ****   const q7_t * pSrcB,
  63:.//Libraries/CMSIS/DSP/Source/FilteringFunctions/arm_conv_q7.c ****         uint32_t srcBLen,
  64:.//Libraries/CMSIS/DSP/Source/FilteringFunctions/arm_conv_q7.c ****         q7_t * pDst)
  65:.//Libraries/CMSIS/DSP/Source/FilteringFunctions/arm_conv_q7.c **** {
  30              		.loc 1 65 1 view -0
  31              		.cfi_startproc
  32              		@ args = 4, pretend = 0, frame = 8
  33              		@ frame_needed = 0, uses_anonymous_args = 0
  66:.//Libraries/CMSIS/DSP/Source/FilteringFunctions/arm_conv_q7.c **** 
  67:.//Libraries/CMSIS/DSP/Source/FilteringFunctions/arm_conv_q7.c **** #if (1)
  68:.//Libraries/CMSIS/DSP/Source/FilteringFunctions/arm_conv_q7.c **** //#if !defined(ARM_MATH_CM0_FAMILY)
  69:.//Libraries/CMSIS/DSP/Source/FilteringFunctions/arm_conv_q7.c **** 
  70:.//Libraries/CMSIS/DSP/Source/FilteringFunctions/arm_conv_q7.c ****   const q7_t *pIn1;                                    /* InputA pointer */
  34              		.loc 1 70 3 view .LVU1
  71:.//Libraries/CMSIS/DSP/Source/FilteringFunctions/arm_conv_q7.c ****   const q7_t *pIn2;                                    /* InputB pointer */
  35              		.loc 1 71 3 view .LVU2
  72:.//Libraries/CMSIS/DSP/Source/FilteringFunctions/arm_conv_q7.c ****         q7_t *pOut = pDst;                             /* Output pointer */
  36              		.loc 1 72 9 view .LVU3
  65:.//Libraries/CMSIS/DSP/Source/FilteringFunctions/arm_conv_q7.c **** 
  37              		.loc 1 65 1 is_stmt 0 view .LVU4
  38 0000 2DE9F04F 		push	{r4, r5, r6, r7, r8, r9, r10, fp, lr}
  39              	.LCFI0:
  40              		.cfi_def_cfa_offset 36
  41              		.cfi_offset 4, -36
  42              		.cfi_offset 5, -32
ARM GAS  /var/folders/wl/rshn8xbx1dsfj1zgryf4g1240000gn/T//ccOLCVhb.s 			page 3


  43              		.cfi_offset 6, -28
  44              		.cfi_offset 7, -24
  45              		.cfi_offset 8, -20
  46              		.cfi_offset 9, -16
  47              		.cfi_offset 10, -12
  48              		.cfi_offset 11, -8
  49              		.cfi_offset 14, -4
  73:.//Libraries/CMSIS/DSP/Source/FilteringFunctions/arm_conv_q7.c ****   const q7_t *px;                                      /* Intermediate inputA pointer */
  74:.//Libraries/CMSIS/DSP/Source/FilteringFunctions/arm_conv_q7.c ****   const q7_t *py;                                      /* Intermediate inputB pointer */
  75:.//Libraries/CMSIS/DSP/Source/FilteringFunctions/arm_conv_q7.c ****   const q7_t *pSrc1, *pSrc2;                           /* Intermediate pointers */
  76:.//Libraries/CMSIS/DSP/Source/FilteringFunctions/arm_conv_q7.c ****         q31_t sum;                                     /* Accumulators */
  77:.//Libraries/CMSIS/DSP/Source/FilteringFunctions/arm_conv_q7.c ****         uint32_t blockSize1, blockSize2, blockSize3;   /* Loop counters */
  78:.//Libraries/CMSIS/DSP/Source/FilteringFunctions/arm_conv_q7.c ****         uint32_t j, k, count, blkCnt;                  /* Loop counters */
  79:.//Libraries/CMSIS/DSP/Source/FilteringFunctions/arm_conv_q7.c **** 
  80:.//Libraries/CMSIS/DSP/Source/FilteringFunctions/arm_conv_q7.c **** #if defined (ARM_MATH_LOOPUNROLL)
  81:.//Libraries/CMSIS/DSP/Source/FilteringFunctions/arm_conv_q7.c ****         q31_t acc0, acc1, acc2, acc3;                  /* Accumulators */
  82:.//Libraries/CMSIS/DSP/Source/FilteringFunctions/arm_conv_q7.c ****         q31_t input1, input2;                          /* Temporary input variables */
  83:.//Libraries/CMSIS/DSP/Source/FilteringFunctions/arm_conv_q7.c ****         q15_t in1, in2;                                /* Temporary input variables */
  84:.//Libraries/CMSIS/DSP/Source/FilteringFunctions/arm_conv_q7.c ****         q7_t x0, x1, x2, x3, c0, c1;                   /* Temporary variables to hold state and coe
  85:.//Libraries/CMSIS/DSP/Source/FilteringFunctions/arm_conv_q7.c **** #endif
  86:.//Libraries/CMSIS/DSP/Source/FilteringFunctions/arm_conv_q7.c **** 
  87:.//Libraries/CMSIS/DSP/Source/FilteringFunctions/arm_conv_q7.c ****   /* The algorithm implementation is based on the lengths of the inputs. */
  88:.//Libraries/CMSIS/DSP/Source/FilteringFunctions/arm_conv_q7.c ****   /* srcB is always made to slide across srcA. */
  89:.//Libraries/CMSIS/DSP/Source/FilteringFunctions/arm_conv_q7.c ****   /* So srcBLen is always considered as shorter or equal to srcALen */
  90:.//Libraries/CMSIS/DSP/Source/FilteringFunctions/arm_conv_q7.c ****   if (srcALen >= srcBLen)
  50              		.loc 1 90 6 view .LVU5
  51 0004 9942     		cmp	r1, r3
  65:.//Libraries/CMSIS/DSP/Source/FilteringFunctions/arm_conv_q7.c **** 
  52              		.loc 1 65 1 view .LVU6
  53 0006 83B0     		sub	sp, sp, #12
  54              	.LCFI1:
  55              		.cfi_def_cfa_offset 48
  65:.//Libraries/CMSIS/DSP/Source/FilteringFunctions/arm_conv_q7.c **** 
  56              		.loc 1 65 1 view .LVU7
  57 0008 9046     		mov	r8, r2
  58 000a DDF830E0 		ldr	lr, [sp, #48]
  59              	.LVL1:
  73:.//Libraries/CMSIS/DSP/Source/FilteringFunctions/arm_conv_q7.c ****   const q7_t *px;                                      /* Intermediate inputA pointer */
  60              		.loc 1 73 3 is_stmt 1 view .LVU8
  74:.//Libraries/CMSIS/DSP/Source/FilteringFunctions/arm_conv_q7.c ****   const q7_t *pSrc1, *pSrc2;                           /* Intermediate pointers */
  61              		.loc 1 74 3 view .LVU9
  75:.//Libraries/CMSIS/DSP/Source/FilteringFunctions/arm_conv_q7.c ****         q31_t sum;                                     /* Accumulators */
  62              		.loc 1 75 3 view .LVU10
  76:.//Libraries/CMSIS/DSP/Source/FilteringFunctions/arm_conv_q7.c ****         uint32_t blockSize1, blockSize2, blockSize3;   /* Loop counters */
  63              		.loc 1 76 9 view .LVU11
  77:.//Libraries/CMSIS/DSP/Source/FilteringFunctions/arm_conv_q7.c ****         uint32_t j, k, count, blkCnt;                  /* Loop counters */
  64              		.loc 1 77 9 view .LVU12
  78:.//Libraries/CMSIS/DSP/Source/FilteringFunctions/arm_conv_q7.c **** 
  65              		.loc 1 78 9 view .LVU13
  66              		.loc 1 90 3 view .LVU14
  67              		.loc 1 90 6 is_stmt 0 view .LVU15
  68 000e 05D2     		bcs	.L2
  69 0010 0446     		mov	r4, r0
  70 0012 0A46     		mov	r2, r1
  71              	.LVL2:
  91:.//Libraries/CMSIS/DSP/Source/FilteringFunctions/arm_conv_q7.c ****   {
  92:.//Libraries/CMSIS/DSP/Source/FilteringFunctions/arm_conv_q7.c ****     /* Initialization of inputA pointer */
ARM GAS  /var/folders/wl/rshn8xbx1dsfj1zgryf4g1240000gn/T//ccOLCVhb.s 			page 4


  93:.//Libraries/CMSIS/DSP/Source/FilteringFunctions/arm_conv_q7.c ****     pIn1 = pSrcA;
  94:.//Libraries/CMSIS/DSP/Source/FilteringFunctions/arm_conv_q7.c **** 
  95:.//Libraries/CMSIS/DSP/Source/FilteringFunctions/arm_conv_q7.c ****     /* Initialization of inputB pointer */
  96:.//Libraries/CMSIS/DSP/Source/FilteringFunctions/arm_conv_q7.c ****     pIn2 = pSrcB;
  97:.//Libraries/CMSIS/DSP/Source/FilteringFunctions/arm_conv_q7.c ****   }
  98:.//Libraries/CMSIS/DSP/Source/FilteringFunctions/arm_conv_q7.c ****   else
  99:.//Libraries/CMSIS/DSP/Source/FilteringFunctions/arm_conv_q7.c ****   {
 100:.//Libraries/CMSIS/DSP/Source/FilteringFunctions/arm_conv_q7.c ****     /* Initialization of inputA pointer */
 101:.//Libraries/CMSIS/DSP/Source/FilteringFunctions/arm_conv_q7.c ****     pIn1 = pSrcB;
  72              		.loc 1 101 10 view .LVU16
  73 0014 4046     		mov	r0, r8
  74              	.LVL3:
  90:.//Libraries/CMSIS/DSP/Source/FilteringFunctions/arm_conv_q7.c ****   {
  75              		.loc 1 90 6 view .LVU17
  76 0016 1946     		mov	r1, r3
  77              	.LVL4:
 102:.//Libraries/CMSIS/DSP/Source/FilteringFunctions/arm_conv_q7.c **** 
 103:.//Libraries/CMSIS/DSP/Source/FilteringFunctions/arm_conv_q7.c ****     /* Initialization of inputB pointer */
 104:.//Libraries/CMSIS/DSP/Source/FilteringFunctions/arm_conv_q7.c ****     pIn2 = pSrcA;
  78              		.loc 1 104 10 view .LVU18
  79 0018 A046     		mov	r8, r4
  80              	.LVL5:
  90:.//Libraries/CMSIS/DSP/Source/FilteringFunctions/arm_conv_q7.c ****   {
  81              		.loc 1 90 6 view .LVU19
  82 001a 1346     		mov	r3, r2
  83              	.LVL6:
  84              	.L2:
 105:.//Libraries/CMSIS/DSP/Source/FilteringFunctions/arm_conv_q7.c **** 
 106:.//Libraries/CMSIS/DSP/Source/FilteringFunctions/arm_conv_q7.c ****     /* srcBLen is always considered as shorter or equal to srcALen */
 107:.//Libraries/CMSIS/DSP/Source/FilteringFunctions/arm_conv_q7.c ****     j = srcBLen;
 108:.//Libraries/CMSIS/DSP/Source/FilteringFunctions/arm_conv_q7.c ****     srcBLen = srcALen;
 109:.//Libraries/CMSIS/DSP/Source/FilteringFunctions/arm_conv_q7.c ****     srcALen = j;
 110:.//Libraries/CMSIS/DSP/Source/FilteringFunctions/arm_conv_q7.c ****   }
 111:.//Libraries/CMSIS/DSP/Source/FilteringFunctions/arm_conv_q7.c **** 
 112:.//Libraries/CMSIS/DSP/Source/FilteringFunctions/arm_conv_q7.c ****   /* conv(x,y) at n = x[n] * y[0] + x[n-1] * y[1] + x[n-2] * y[2] + ...+ x[n-N+1] * y[N -1] */
 113:.//Libraries/CMSIS/DSP/Source/FilteringFunctions/arm_conv_q7.c ****   /* The function is internally
 114:.//Libraries/CMSIS/DSP/Source/FilteringFunctions/arm_conv_q7.c ****    * divided into three stages according to the number of multiplications that has to be
 115:.//Libraries/CMSIS/DSP/Source/FilteringFunctions/arm_conv_q7.c ****    * taken place between inputA samples and inputB samples. In the first stage of the
 116:.//Libraries/CMSIS/DSP/Source/FilteringFunctions/arm_conv_q7.c ****    * algorithm, the multiplications increase by one for every iteration.
 117:.//Libraries/CMSIS/DSP/Source/FilteringFunctions/arm_conv_q7.c ****    * In the second stage of the algorithm, srcBLen number of multiplications are done.
 118:.//Libraries/CMSIS/DSP/Source/FilteringFunctions/arm_conv_q7.c ****    * In the third stage of the algorithm, the multiplications decrease by one
 119:.//Libraries/CMSIS/DSP/Source/FilteringFunctions/arm_conv_q7.c ****    * for every iteration. */
 120:.//Libraries/CMSIS/DSP/Source/FilteringFunctions/arm_conv_q7.c **** 
 121:.//Libraries/CMSIS/DSP/Source/FilteringFunctions/arm_conv_q7.c ****   /* The algorithm is implemented in three stages.
 122:.//Libraries/CMSIS/DSP/Source/FilteringFunctions/arm_conv_q7.c ****      The loop counters of each stage is initiated here. */
 123:.//Libraries/CMSIS/DSP/Source/FilteringFunctions/arm_conv_q7.c ****   blockSize1 = srcBLen - 1U;
  85              		.loc 1 123 3 is_stmt 1 view .LVU20
 124:.//Libraries/CMSIS/DSP/Source/FilteringFunctions/arm_conv_q7.c ****   blockSize2 = srcALen - (srcBLen - 1U);
  86              		.loc 1 124 3 view .LVU21
  87              		.loc 1 124 14 is_stmt 0 view .LVU22
  88 001c 0131     		adds	r1, r1, #1
  89              	.LVL7:
 125:.//Libraries/CMSIS/DSP/Source/FilteringFunctions/arm_conv_q7.c ****   blockSize3 = blockSize1;
 126:.//Libraries/CMSIS/DSP/Source/FilteringFunctions/arm_conv_q7.c **** 
 127:.//Libraries/CMSIS/DSP/Source/FilteringFunctions/arm_conv_q7.c ****   /* --------------------------
 128:.//Libraries/CMSIS/DSP/Source/FilteringFunctions/arm_conv_q7.c ****    * Initializations of stage1
 129:.//Libraries/CMSIS/DSP/Source/FilteringFunctions/arm_conv_q7.c ****    * -------------------------*/
ARM GAS  /var/folders/wl/rshn8xbx1dsfj1zgryf4g1240000gn/T//ccOLCVhb.s 			page 5


 130:.//Libraries/CMSIS/DSP/Source/FilteringFunctions/arm_conv_q7.c **** 
 131:.//Libraries/CMSIS/DSP/Source/FilteringFunctions/arm_conv_q7.c ****   /* sum = x[0] * y[0]
 132:.//Libraries/CMSIS/DSP/Source/FilteringFunctions/arm_conv_q7.c ****    * sum = x[0] * y[1] + x[1] * y[0]
 133:.//Libraries/CMSIS/DSP/Source/FilteringFunctions/arm_conv_q7.c ****    * ....
 134:.//Libraries/CMSIS/DSP/Source/FilteringFunctions/arm_conv_q7.c ****    * sum = x[0] * y[srcBlen - 1] + x[1] * y[srcBlen - 2] +...+ x[srcBLen - 1] * y[0]
 135:.//Libraries/CMSIS/DSP/Source/FilteringFunctions/arm_conv_q7.c ****    */
 136:.//Libraries/CMSIS/DSP/Source/FilteringFunctions/arm_conv_q7.c **** 
 137:.//Libraries/CMSIS/DSP/Source/FilteringFunctions/arm_conv_q7.c ****   /* In this stage the MAC operations are increased by 1 for every iteration.
 138:.//Libraries/CMSIS/DSP/Source/FilteringFunctions/arm_conv_q7.c ****      The count variable holds the number of MAC operations performed */
 139:.//Libraries/CMSIS/DSP/Source/FilteringFunctions/arm_conv_q7.c ****   count = 1U;
 140:.//Libraries/CMSIS/DSP/Source/FilteringFunctions/arm_conv_q7.c **** 
 141:.//Libraries/CMSIS/DSP/Source/FilteringFunctions/arm_conv_q7.c ****   /* Working pointer of inputA */
 142:.//Libraries/CMSIS/DSP/Source/FilteringFunctions/arm_conv_q7.c ****   px = pIn1;
 143:.//Libraries/CMSIS/DSP/Source/FilteringFunctions/arm_conv_q7.c **** 
 144:.//Libraries/CMSIS/DSP/Source/FilteringFunctions/arm_conv_q7.c ****   /* Working pointer of inputB */
 145:.//Libraries/CMSIS/DSP/Source/FilteringFunctions/arm_conv_q7.c ****   py = pIn2;
 146:.//Libraries/CMSIS/DSP/Source/FilteringFunctions/arm_conv_q7.c **** 
 147:.//Libraries/CMSIS/DSP/Source/FilteringFunctions/arm_conv_q7.c **** 
 148:.//Libraries/CMSIS/DSP/Source/FilteringFunctions/arm_conv_q7.c ****   /* ------------------------
 149:.//Libraries/CMSIS/DSP/Source/FilteringFunctions/arm_conv_q7.c ****    * Stage1 process
 150:.//Libraries/CMSIS/DSP/Source/FilteringFunctions/arm_conv_q7.c ****    * ----------------------*/
 151:.//Libraries/CMSIS/DSP/Source/FilteringFunctions/arm_conv_q7.c **** 
 152:.//Libraries/CMSIS/DSP/Source/FilteringFunctions/arm_conv_q7.c ****   /* The first stage starts here */
 153:.//Libraries/CMSIS/DSP/Source/FilteringFunctions/arm_conv_q7.c ****   while (blockSize1 > 0U)
  90              		.loc 1 153 9 view .LVU23
  91 001e 5A1E     		subs	r2, r3, #1
  92              	.LVL8:
 124:.//Libraries/CMSIS/DSP/Source/FilteringFunctions/arm_conv_q7.c ****   blockSize2 = srcALen - (srcBLen - 1U);
  93              		.loc 1 124 14 view .LVU24
  94 0020 A1EB030A 		sub	r10, r1, r3
  95              	.LVL9:
 125:.//Libraries/CMSIS/DSP/Source/FilteringFunctions/arm_conv_q7.c ****   blockSize3 = blockSize1;
  96              		.loc 1 125 3 is_stmt 1 view .LVU25
 139:.//Libraries/CMSIS/DSP/Source/FilteringFunctions/arm_conv_q7.c **** 
  97              		.loc 1 139 3 view .LVU26
 142:.//Libraries/CMSIS/DSP/Source/FilteringFunctions/arm_conv_q7.c **** 
  98              		.loc 1 142 3 view .LVU27
 145:.//Libraries/CMSIS/DSP/Source/FilteringFunctions/arm_conv_q7.c **** 
  99              		.loc 1 145 3 view .LVU28
 100              		.loc 1 153 3 view .LVU29
 101              		.loc 1 153 9 view .LVU30
 102 0024 0192     		str	r2, [sp, #4]
 103 0026 00F09080 		beq	.L3
 139:.//Libraries/CMSIS/DSP/Source/FilteringFunctions/arm_conv_q7.c **** 
 104              		.loc 1 139 9 is_stmt 0 view .LVU31
 105 002a 0122     		movs	r2, #1
 106              	.LVL10:
 139:.//Libraries/CMSIS/DSP/Source/FilteringFunctions/arm_conv_q7.c **** 
 107              		.loc 1 139 9 view .LVU32
 108 002c 08F1FF3B 		add	fp, r8, #-1
 109 0030 00F1010C 		add	ip, r0, #1
  72:.//Libraries/CMSIS/DSP/Source/FilteringFunctions/arm_conv_q7.c ****   const q7_t *px;                                      /* Intermediate inputA pointer */
 110              		.loc 1 72 15 view .LVU33
 111 0034 F146     		mov	r9, lr
 112 0036 0BEB0205 		add	r5, fp, r2
 113              	.LVL11:
 154:.//Libraries/CMSIS/DSP/Source/FilteringFunctions/arm_conv_q7.c ****   {
ARM GAS  /var/folders/wl/rshn8xbx1dsfj1zgryf4g1240000gn/T//ccOLCVhb.s 			page 6


 155:.//Libraries/CMSIS/DSP/Source/FilteringFunctions/arm_conv_q7.c ****     /* Accumulator is made zero for every iteration */
 156:.//Libraries/CMSIS/DSP/Source/FilteringFunctions/arm_conv_q7.c ****     sum = 0;
 157:.//Libraries/CMSIS/DSP/Source/FilteringFunctions/arm_conv_q7.c **** 
 158:.//Libraries/CMSIS/DSP/Source/FilteringFunctions/arm_conv_q7.c **** #if defined (ARM_MATH_LOOPUNROLL)
 159:.//Libraries/CMSIS/DSP/Source/FilteringFunctions/arm_conv_q7.c **** 
 160:.//Libraries/CMSIS/DSP/Source/FilteringFunctions/arm_conv_q7.c ****     /* Loop unrolling: Compute 4 outputs at a time */
 161:.//Libraries/CMSIS/DSP/Source/FilteringFunctions/arm_conv_q7.c ****     k = count >> 2U;
 162:.//Libraries/CMSIS/DSP/Source/FilteringFunctions/arm_conv_q7.c **** 
 163:.//Libraries/CMSIS/DSP/Source/FilteringFunctions/arm_conv_q7.c ****     while (k > 0U)
 164:.//Libraries/CMSIS/DSP/Source/FilteringFunctions/arm_conv_q7.c ****     {
 165:.//Libraries/CMSIS/DSP/Source/FilteringFunctions/arm_conv_q7.c ****       /* x[0] , x[1] */
 166:.//Libraries/CMSIS/DSP/Source/FilteringFunctions/arm_conv_q7.c ****       in1 = (q15_t) *px++;
 167:.//Libraries/CMSIS/DSP/Source/FilteringFunctions/arm_conv_q7.c ****       in2 = (q15_t) *px++;
 168:.//Libraries/CMSIS/DSP/Source/FilteringFunctions/arm_conv_q7.c ****       input1 = ((q31_t) in1 & 0x0000FFFF) | ((q31_t) in2 << 16U);
 169:.//Libraries/CMSIS/DSP/Source/FilteringFunctions/arm_conv_q7.c **** 
 170:.//Libraries/CMSIS/DSP/Source/FilteringFunctions/arm_conv_q7.c ****       /* y[srcBLen - 1] , y[srcBLen - 2] */
 171:.//Libraries/CMSIS/DSP/Source/FilteringFunctions/arm_conv_q7.c ****       in1 = (q15_t) *py--;
 172:.//Libraries/CMSIS/DSP/Source/FilteringFunctions/arm_conv_q7.c ****       in2 = (q15_t) *py--;
 173:.//Libraries/CMSIS/DSP/Source/FilteringFunctions/arm_conv_q7.c ****       input2 = ((q31_t) in1 & 0x0000FFFF) | ((q31_t) in2 << 16U);
 174:.//Libraries/CMSIS/DSP/Source/FilteringFunctions/arm_conv_q7.c **** 
 175:.//Libraries/CMSIS/DSP/Source/FilteringFunctions/arm_conv_q7.c ****       /* x[0] * y[srcBLen - 1] */
 176:.//Libraries/CMSIS/DSP/Source/FilteringFunctions/arm_conv_q7.c ****       /* x[1] * y[srcBLen - 2] */
 177:.//Libraries/CMSIS/DSP/Source/FilteringFunctions/arm_conv_q7.c ****       sum = __SMLAD(input1, input2, sum);
 178:.//Libraries/CMSIS/DSP/Source/FilteringFunctions/arm_conv_q7.c **** 
 179:.//Libraries/CMSIS/DSP/Source/FilteringFunctions/arm_conv_q7.c ****       /* x[2] , x[3] */
 180:.//Libraries/CMSIS/DSP/Source/FilteringFunctions/arm_conv_q7.c ****       in1 = (q15_t) *px++;
 181:.//Libraries/CMSIS/DSP/Source/FilteringFunctions/arm_conv_q7.c ****       in2 = (q15_t) *px++;
 182:.//Libraries/CMSIS/DSP/Source/FilteringFunctions/arm_conv_q7.c ****       input1 = ((q31_t) in1 & 0x0000FFFF) | ((q31_t) in2 << 16U);
 183:.//Libraries/CMSIS/DSP/Source/FilteringFunctions/arm_conv_q7.c **** 
 184:.//Libraries/CMSIS/DSP/Source/FilteringFunctions/arm_conv_q7.c ****       /* y[srcBLen - 3] , y[srcBLen - 4] */
 185:.//Libraries/CMSIS/DSP/Source/FilteringFunctions/arm_conv_q7.c ****       in1 = (q15_t) *py--;
 186:.//Libraries/CMSIS/DSP/Source/FilteringFunctions/arm_conv_q7.c ****       in2 = (q15_t) *py--;
 187:.//Libraries/CMSIS/DSP/Source/FilteringFunctions/arm_conv_q7.c ****       input2 = ((q31_t) in1 & 0x0000FFFF) | ((q31_t) in2 << 16U);
 188:.//Libraries/CMSIS/DSP/Source/FilteringFunctions/arm_conv_q7.c **** 
 189:.//Libraries/CMSIS/DSP/Source/FilteringFunctions/arm_conv_q7.c ****       /* x[2] * y[srcBLen - 3] */
 190:.//Libraries/CMSIS/DSP/Source/FilteringFunctions/arm_conv_q7.c ****       /* x[3] * y[srcBLen - 4] */
 191:.//Libraries/CMSIS/DSP/Source/FilteringFunctions/arm_conv_q7.c ****       sum = __SMLAD(input1, input2, sum);
 192:.//Libraries/CMSIS/DSP/Source/FilteringFunctions/arm_conv_q7.c **** 
 193:.//Libraries/CMSIS/DSP/Source/FilteringFunctions/arm_conv_q7.c ****       /* Decrement loop counter */
 194:.//Libraries/CMSIS/DSP/Source/FilteringFunctions/arm_conv_q7.c ****       k--;
 195:.//Libraries/CMSIS/DSP/Source/FilteringFunctions/arm_conv_q7.c ****     }
 196:.//Libraries/CMSIS/DSP/Source/FilteringFunctions/arm_conv_q7.c **** 
 197:.//Libraries/CMSIS/DSP/Source/FilteringFunctions/arm_conv_q7.c ****     /* Loop unrolling: Compute remaining outputs */
 198:.//Libraries/CMSIS/DSP/Source/FilteringFunctions/arm_conv_q7.c ****     k = count % 0x4U;
 199:.//Libraries/CMSIS/DSP/Source/FilteringFunctions/arm_conv_q7.c **** 
 200:.//Libraries/CMSIS/DSP/Source/FilteringFunctions/arm_conv_q7.c **** #else
 201:.//Libraries/CMSIS/DSP/Source/FilteringFunctions/arm_conv_q7.c **** 
 202:.//Libraries/CMSIS/DSP/Source/FilteringFunctions/arm_conv_q7.c ****     /* Initialize k with number of samples */
 203:.//Libraries/CMSIS/DSP/Source/FilteringFunctions/arm_conv_q7.c ****     k = count;
 204:.//Libraries/CMSIS/DSP/Source/FilteringFunctions/arm_conv_q7.c **** 
 205:.//Libraries/CMSIS/DSP/Source/FilteringFunctions/arm_conv_q7.c **** #endif /* #if defined (ARM_MATH_LOOPUNROLL) */
 206:.//Libraries/CMSIS/DSP/Source/FilteringFunctions/arm_conv_q7.c **** 
 207:.//Libraries/CMSIS/DSP/Source/FilteringFunctions/arm_conv_q7.c ****     while (k > 0U)
 114              		.loc 1 207 11 is_stmt 1 view .LVU34
 115 003a C2B1     		cbz	r2, .L36
 116              	.LVL12:
 117              	.L22:
ARM GAS  /var/folders/wl/rshn8xbx1dsfj1zgryf4g1240000gn/T//ccOLCVhb.s 			page 7


 118              		.loc 1 207 11 is_stmt 0 view .LVU35
 119 003c 0146     		mov	r1, r0
 156:.//Libraries/CMSIS/DSP/Source/FilteringFunctions/arm_conv_q7.c **** 
 120              		.loc 1 156 9 view .LVU36
 121 003e 0024     		movs	r4, #0
 122              	.LVL13:
 123              	.L5:
 208:.//Libraries/CMSIS/DSP/Source/FilteringFunctions/arm_conv_q7.c ****     {
 209:.//Libraries/CMSIS/DSP/Source/FilteringFunctions/arm_conv_q7.c ****       /* Perform the multiply-accumulate */
 210:.//Libraries/CMSIS/DSP/Source/FilteringFunctions/arm_conv_q7.c ****       sum += ((q15_t) *px++ * *py--);
 124              		.loc 1 210 7 is_stmt 1 view .LVU37
 125              		.loc 1 210 11 is_stmt 0 view .LVU38
 126 0040 11F9017B 		ldrsb	r7, [r1], #1
 127              	.LVL14:
 128              		.loc 1 210 11 view .LVU39
 129 0044 15F90169 		ldrsb	r6, [r5], #-1
 130              	.LVL15:
 207:.//Libraries/CMSIS/DSP/Source/FilteringFunctions/arm_conv_q7.c ****     {
 131              		.loc 1 207 11 view .LVU40
 132 0048 6145     		cmp	r1, ip
 133              		.loc 1 210 11 view .LVU41
 134 004a 17FB0644 		smlabb	r4, r7, r6, r4
 135              	.LVL16:
 211:.//Libraries/CMSIS/DSP/Source/FilteringFunctions/arm_conv_q7.c **** 
 212:.//Libraries/CMSIS/DSP/Source/FilteringFunctions/arm_conv_q7.c ****       /* Decrement loop counter */
 213:.//Libraries/CMSIS/DSP/Source/FilteringFunctions/arm_conv_q7.c ****       k--;
 136              		.loc 1 213 7 is_stmt 1 view .LVU42
 207:.//Libraries/CMSIS/DSP/Source/FilteringFunctions/arm_conv_q7.c ****     {
 137              		.loc 1 207 11 view .LVU43
 138 004e F7D1     		bne	.L5
 214:.//Libraries/CMSIS/DSP/Source/FilteringFunctions/arm_conv_q7.c ****     }
 215:.//Libraries/CMSIS/DSP/Source/FilteringFunctions/arm_conv_q7.c **** 
 216:.//Libraries/CMSIS/DSP/Source/FilteringFunctions/arm_conv_q7.c ****     /* Store the result in the accumulator in the destination buffer. */
 217:.//Libraries/CMSIS/DSP/Source/FilteringFunctions/arm_conv_q7.c ****     *pOut++ = (q7_t) (__SSAT(sum >> 7U, 8));
 139              		.loc 1 217 5 view .LVU44
 140              	.LBB2:
 141              		.loc 1 217 23 view .LVU45
 142              		.loc 1 217 23 view .LVU46
 143              	.LBE2:
 218:.//Libraries/CMSIS/DSP/Source/FilteringFunctions/arm_conv_q7.c **** 
 219:.//Libraries/CMSIS/DSP/Source/FilteringFunctions/arm_conv_q7.c ****     /* Update the inputA and inputB pointers for next MAC calculation */
 220:.//Libraries/CMSIS/DSP/Source/FilteringFunctions/arm_conv_q7.c ****     py = pIn2 + count;
 221:.//Libraries/CMSIS/DSP/Source/FilteringFunctions/arm_conv_q7.c ****     px = pIn1;
 222:.//Libraries/CMSIS/DSP/Source/FilteringFunctions/arm_conv_q7.c **** 
 223:.//Libraries/CMSIS/DSP/Source/FilteringFunctions/arm_conv_q7.c ****     /* Increment MAC count */
 224:.//Libraries/CMSIS/DSP/Source/FilteringFunctions/arm_conv_q7.c ****     count++;
 144              		.loc 1 224 10 is_stmt 0 view .LVU47
 145 0050 551C     		adds	r5, r2, #1
 146              	.LVL17:
 147              	.LBB3:
 217:.//Libraries/CMSIS/DSP/Source/FilteringFunctions/arm_conv_q7.c **** 
 148              		.loc 1 217 23 view .LVU48
 149 0052 E411     		asrs	r4, r4, #7
 150              	.LVL18:
 217:.//Libraries/CMSIS/DSP/Source/FilteringFunctions/arm_conv_q7.c **** 
 151              		.loc 1 217 23 view .LVU49
 152 0054 01F1010C 		add	ip, r1, #1
ARM GAS  /var/folders/wl/rshn8xbx1dsfj1zgryf4g1240000gn/T//ccOLCVhb.s 			page 8


 153              	.LBE3:
 153:.//Libraries/CMSIS/DSP/Source/FilteringFunctions/arm_conv_q7.c ****   {
 154              		.loc 1 153 9 view .LVU50
 155 0058 AB42     		cmp	r3, r5
 156              	.LBB4:
 217:.//Libraries/CMSIS/DSP/Source/FilteringFunctions/arm_conv_q7.c **** 
 157              		.loc 1 217 23 view .LVU51
 158              		.syntax unified
 159              	@ 217 ".//Libraries/CMSIS/DSP/Source/FilteringFunctions/arm_conv_q7.c" 1
 160 005a 04F30704 		ssat r4, #8, r4
 161              	@ 0 "" 2
 162              	.LVL19:
 217:.//Libraries/CMSIS/DSP/Source/FilteringFunctions/arm_conv_q7.c **** 
 163              		.loc 1 217 23 is_stmt 1 view .LVU52
 217:.//Libraries/CMSIS/DSP/Source/FilteringFunctions/arm_conv_q7.c **** 
 164              		.loc 1 217 23 is_stmt 0 view .LVU53
 165              		.thumb
 166              		.syntax unified
 167              	.LBE4:
 217:.//Libraries/CMSIS/DSP/Source/FilteringFunctions/arm_conv_q7.c **** 
 168              		.loc 1 217 15 view .LVU54
 169 005e 09F8014B 		strb	r4, [r9], #1
 170              	.LVL20:
 220:.//Libraries/CMSIS/DSP/Source/FilteringFunctions/arm_conv_q7.c ****     px = pIn1;
 171              		.loc 1 220 5 is_stmt 1 view .LVU55
 221:.//Libraries/CMSIS/DSP/Source/FilteringFunctions/arm_conv_q7.c **** 
 172              		.loc 1 221 5 view .LVU56
 173              		.loc 1 224 5 view .LVU57
 225:.//Libraries/CMSIS/DSP/Source/FilteringFunctions/arm_conv_q7.c **** 
 226:.//Libraries/CMSIS/DSP/Source/FilteringFunctions/arm_conv_q7.c ****     /* Decrement loop counter */
 227:.//Libraries/CMSIS/DSP/Source/FilteringFunctions/arm_conv_q7.c ****     blockSize1--;
 174              		.loc 1 227 5 view .LVU58
 153:.//Libraries/CMSIS/DSP/Source/FilteringFunctions/arm_conv_q7.c ****   {
 175              		.loc 1 153 9 view .LVU59
 176 0062 0DD0     		beq	.L6
 177              	.LVL21:
 139:.//Libraries/CMSIS/DSP/Source/FilteringFunctions/arm_conv_q7.c **** 
 178              		.loc 1 139 9 is_stmt 0 view .LVU60
 179 0064 2A46     		mov	r2, r5
 180              	.LVL22:
 181              	.L37:
 139:.//Libraries/CMSIS/DSP/Source/FilteringFunctions/arm_conv_q7.c **** 
 182              		.loc 1 139 9 view .LVU61
 183 0066 0BEB0205 		add	r5, fp, r2
 184              	.LVL23:
 207:.//Libraries/CMSIS/DSP/Source/FilteringFunctions/arm_conv_q7.c ****     {
 185              		.loc 1 207 11 is_stmt 1 view .LVU62
 186 006a 002A     		cmp	r2, #0
 187 006c E6D1     		bne	.L22
 188              	.L36:
 217:.//Libraries/CMSIS/DSP/Source/FilteringFunctions/arm_conv_q7.c **** 
 189              		.loc 1 217 5 view .LVU63
 190              	.LBB5:
 217:.//Libraries/CMSIS/DSP/Source/FilteringFunctions/arm_conv_q7.c **** 
 191              		.loc 1 217 23 view .LVU64
 217:.//Libraries/CMSIS/DSP/Source/FilteringFunctions/arm_conv_q7.c **** 
 192              		.loc 1 217 23 view .LVU65
ARM GAS  /var/folders/wl/rshn8xbx1dsfj1zgryf4g1240000gn/T//ccOLCVhb.s 			page 9


 193              	.LBE5:
 224:.//Libraries/CMSIS/DSP/Source/FilteringFunctions/arm_conv_q7.c **** 
 194              		.loc 1 224 10 is_stmt 0 view .LVU66
 195 006e 0125     		movs	r5, #1
 196              	.LVL24:
 224:.//Libraries/CMSIS/DSP/Source/FilteringFunctions/arm_conv_q7.c **** 
 197              		.loc 1 224 10 view .LVU67
 198 0070 0CF1010C 		add	ip, ip, #1
 199              	.LBB6:
 217:.//Libraries/CMSIS/DSP/Source/FilteringFunctions/arm_conv_q7.c **** 
 200              		.loc 1 217 23 view .LVU68
 201              		.syntax unified
 202              	@ 217 ".//Libraries/CMSIS/DSP/Source/FilteringFunctions/arm_conv_q7.c" 1
 203 0074 02F30702 		ssat r2, #8, r2
 204              	@ 0 "" 2
 205              	.LVL25:
 217:.//Libraries/CMSIS/DSP/Source/FilteringFunctions/arm_conv_q7.c **** 
 206              		.loc 1 217 23 is_stmt 1 view .LVU69
 217:.//Libraries/CMSIS/DSP/Source/FilteringFunctions/arm_conv_q7.c **** 
 207              		.loc 1 217 23 is_stmt 0 view .LVU70
 208              		.thumb
 209              		.syntax unified
 210              	.LBE6:
 217:.//Libraries/CMSIS/DSP/Source/FilteringFunctions/arm_conv_q7.c **** 
 211              		.loc 1 217 15 view .LVU71
 212 0078 09F8012B 		strb	r2, [r9], #1
 213              	.LVL26:
 220:.//Libraries/CMSIS/DSP/Source/FilteringFunctions/arm_conv_q7.c ****     px = pIn1;
 214              		.loc 1 220 5 is_stmt 1 view .LVU72
 221:.//Libraries/CMSIS/DSP/Source/FilteringFunctions/arm_conv_q7.c **** 
 215              		.loc 1 221 5 view .LVU73
 224:.//Libraries/CMSIS/DSP/Source/FilteringFunctions/arm_conv_q7.c **** 
 216              		.loc 1 224 5 view .LVU74
 217              		.loc 1 227 5 view .LVU75
 153:.//Libraries/CMSIS/DSP/Source/FilteringFunctions/arm_conv_q7.c ****   {
 218              		.loc 1 153 9 view .LVU76
 139:.//Libraries/CMSIS/DSP/Source/FilteringFunctions/arm_conv_q7.c **** 
 219              		.loc 1 139 9 is_stmt 0 view .LVU77
 220 007c 2A46     		mov	r2, r5
 221 007e F2E7     		b	.L37
 222              	.LVL27:
 223              	.L6:
 139:.//Libraries/CMSIS/DSP/Source/FilteringFunctions/arm_conv_q7.c **** 
 224              		.loc 1 139 9 view .LVU78
 225 0080 9644     		add	lr, lr, r2
 228:.//Libraries/CMSIS/DSP/Source/FilteringFunctions/arm_conv_q7.c ****   }
 229:.//Libraries/CMSIS/DSP/Source/FilteringFunctions/arm_conv_q7.c **** 
 230:.//Libraries/CMSIS/DSP/Source/FilteringFunctions/arm_conv_q7.c ****   /* --------------------------
 231:.//Libraries/CMSIS/DSP/Source/FilteringFunctions/arm_conv_q7.c ****    * Initializations of stage2
 232:.//Libraries/CMSIS/DSP/Source/FilteringFunctions/arm_conv_q7.c ****    * ------------------------*/
 233:.//Libraries/CMSIS/DSP/Source/FilteringFunctions/arm_conv_q7.c **** 
 234:.//Libraries/CMSIS/DSP/Source/FilteringFunctions/arm_conv_q7.c ****   /* sum = x[0] * y[srcBLen-1] + x[1] * y[srcBLen-2] +...+ x[srcBLen-1] * y[0]
 235:.//Libraries/CMSIS/DSP/Source/FilteringFunctions/arm_conv_q7.c ****    * sum = x[1] * y[srcBLen-1] + x[2] * y[srcBLen-2] +...+ x[srcBLen]   * y[0]
 236:.//Libraries/CMSIS/DSP/Source/FilteringFunctions/arm_conv_q7.c ****    * ....
 237:.//Libraries/CMSIS/DSP/Source/FilteringFunctions/arm_conv_q7.c ****    * sum = x[srcALen-srcBLen-2] * y[srcBLen-1] + x[srcALen] * y[srcBLen-2] +...+ x[srcALen-1] * y[0
 238:.//Libraries/CMSIS/DSP/Source/FilteringFunctions/arm_conv_q7.c ****    */
 239:.//Libraries/CMSIS/DSP/Source/FilteringFunctions/arm_conv_q7.c **** 
ARM GAS  /var/folders/wl/rshn8xbx1dsfj1zgryf4g1240000gn/T//ccOLCVhb.s 			page 10


 240:.//Libraries/CMSIS/DSP/Source/FilteringFunctions/arm_conv_q7.c ****   /* Working pointer of inputA */
 241:.//Libraries/CMSIS/DSP/Source/FilteringFunctions/arm_conv_q7.c ****   px = pIn1;
 226              		.loc 1 241 3 is_stmt 1 view .LVU79
 227              	.LVL28:
 242:.//Libraries/CMSIS/DSP/Source/FilteringFunctions/arm_conv_q7.c **** 
 243:.//Libraries/CMSIS/DSP/Source/FilteringFunctions/arm_conv_q7.c ****   /* Working pointer of inputB */
 244:.//Libraries/CMSIS/DSP/Source/FilteringFunctions/arm_conv_q7.c ****   pSrc2 = pIn2 + (srcBLen - 1U);
 228              		.loc 1 244 3 view .LVU80
 245:.//Libraries/CMSIS/DSP/Source/FilteringFunctions/arm_conv_q7.c ****   py = pSrc2;
 246:.//Libraries/CMSIS/DSP/Source/FilteringFunctions/arm_conv_q7.c **** 
 247:.//Libraries/CMSIS/DSP/Source/FilteringFunctions/arm_conv_q7.c ****   /* count is index by which the pointer pIn1 to be incremented */
 248:.//Libraries/CMSIS/DSP/Source/FilteringFunctions/arm_conv_q7.c ****   count = 0U;
 249:.//Libraries/CMSIS/DSP/Source/FilteringFunctions/arm_conv_q7.c **** 
 250:.//Libraries/CMSIS/DSP/Source/FilteringFunctions/arm_conv_q7.c ****   /* -------------------
 251:.//Libraries/CMSIS/DSP/Source/FilteringFunctions/arm_conv_q7.c ****    * Stage2 process
 252:.//Libraries/CMSIS/DSP/Source/FilteringFunctions/arm_conv_q7.c ****    * ------------------*/
 253:.//Libraries/CMSIS/DSP/Source/FilteringFunctions/arm_conv_q7.c **** 
 254:.//Libraries/CMSIS/DSP/Source/FilteringFunctions/arm_conv_q7.c ****   /* Stage2 depends on srcBLen as in this stage srcBLen number of MACS are performed.
 255:.//Libraries/CMSIS/DSP/Source/FilteringFunctions/arm_conv_q7.c ****    * So, to loop unroll over blockSize2,
 256:.//Libraries/CMSIS/DSP/Source/FilteringFunctions/arm_conv_q7.c ****    * srcBLen should be greater than or equal to 4 */
 257:.//Libraries/CMSIS/DSP/Source/FilteringFunctions/arm_conv_q7.c ****   if (srcBLen >= 4U)
 229              		.loc 1 257 6 is_stmt 0 view .LVU81
 230 0082 032B     		cmp	r3, #3
 244:.//Libraries/CMSIS/DSP/Source/FilteringFunctions/arm_conv_q7.c ****   py = pSrc2;
 231              		.loc 1 244 9 view .LVU82
 232 0084 019A     		ldr	r2, [sp, #4]
 233 0086 9044     		add	r8, r8, r2
 234              	.LVL29:
 245:.//Libraries/CMSIS/DSP/Source/FilteringFunctions/arm_conv_q7.c ****   py = pSrc2;
 235              		.loc 1 245 3 is_stmt 1 view .LVU83
 248:.//Libraries/CMSIS/DSP/Source/FilteringFunctions/arm_conv_q7.c **** 
 236              		.loc 1 248 3 view .LVU84
 237              		.loc 1 257 3 view .LVU85
 238              		.loc 1 257 6 is_stmt 0 view .LVU86
 239 0088 38D9     		bls	.L38
 240              	.LVL30:
 258:.//Libraries/CMSIS/DSP/Source/FilteringFunctions/arm_conv_q7.c ****   {
 259:.//Libraries/CMSIS/DSP/Source/FilteringFunctions/arm_conv_q7.c **** #if defined (ARM_MATH_LOOPUNROLL)
 260:.//Libraries/CMSIS/DSP/Source/FilteringFunctions/arm_conv_q7.c **** 
 261:.//Libraries/CMSIS/DSP/Source/FilteringFunctions/arm_conv_q7.c ****     /* Loop unrolling: Compute 4 outputs at a time */
 262:.//Libraries/CMSIS/DSP/Source/FilteringFunctions/arm_conv_q7.c ****     blkCnt = blockSize2 >> 2U;
 263:.//Libraries/CMSIS/DSP/Source/FilteringFunctions/arm_conv_q7.c **** 
 264:.//Libraries/CMSIS/DSP/Source/FilteringFunctions/arm_conv_q7.c ****     while (blkCnt > 0U)
 265:.//Libraries/CMSIS/DSP/Source/FilteringFunctions/arm_conv_q7.c ****     {
 266:.//Libraries/CMSIS/DSP/Source/FilteringFunctions/arm_conv_q7.c ****       /* Set all accumulators to zero */
 267:.//Libraries/CMSIS/DSP/Source/FilteringFunctions/arm_conv_q7.c ****       acc0 = 0;
 268:.//Libraries/CMSIS/DSP/Source/FilteringFunctions/arm_conv_q7.c ****       acc1 = 0;
 269:.//Libraries/CMSIS/DSP/Source/FilteringFunctions/arm_conv_q7.c ****       acc2 = 0;
 270:.//Libraries/CMSIS/DSP/Source/FilteringFunctions/arm_conv_q7.c ****       acc3 = 0;
 271:.//Libraries/CMSIS/DSP/Source/FilteringFunctions/arm_conv_q7.c **** 
 272:.//Libraries/CMSIS/DSP/Source/FilteringFunctions/arm_conv_q7.c ****       /* read x[0], x[1], x[2] samples */
 273:.//Libraries/CMSIS/DSP/Source/FilteringFunctions/arm_conv_q7.c ****       x0 = *px++;
 274:.//Libraries/CMSIS/DSP/Source/FilteringFunctions/arm_conv_q7.c ****       x1 = *px++;
 275:.//Libraries/CMSIS/DSP/Source/FilteringFunctions/arm_conv_q7.c ****       x2 = *px++;
 276:.//Libraries/CMSIS/DSP/Source/FilteringFunctions/arm_conv_q7.c **** 
 277:.//Libraries/CMSIS/DSP/Source/FilteringFunctions/arm_conv_q7.c ****       /* Apply loop unrolling and compute 4 MACs simultaneously. */
 278:.//Libraries/CMSIS/DSP/Source/FilteringFunctions/arm_conv_q7.c ****       k = srcBLen >> 2U;
ARM GAS  /var/folders/wl/rshn8xbx1dsfj1zgryf4g1240000gn/T//ccOLCVhb.s 			page 11


 279:.//Libraries/CMSIS/DSP/Source/FilteringFunctions/arm_conv_q7.c **** 
 280:.//Libraries/CMSIS/DSP/Source/FilteringFunctions/arm_conv_q7.c ****       /* First part of the processing with loop unrolling.  Compute 4 MACs at a time.
 281:.//Libraries/CMSIS/DSP/Source/FilteringFunctions/arm_conv_q7.c ****        ** a second loop below computes MACs for the remaining 1 to 3 samples. */
 282:.//Libraries/CMSIS/DSP/Source/FilteringFunctions/arm_conv_q7.c ****       do
 283:.//Libraries/CMSIS/DSP/Source/FilteringFunctions/arm_conv_q7.c ****       {
 284:.//Libraries/CMSIS/DSP/Source/FilteringFunctions/arm_conv_q7.c ****         /* Read y[srcBLen - 1] sample */
 285:.//Libraries/CMSIS/DSP/Source/FilteringFunctions/arm_conv_q7.c ****         c0 = *py--;
 286:.//Libraries/CMSIS/DSP/Source/FilteringFunctions/arm_conv_q7.c ****         /* Read y[srcBLen - 2] sample */
 287:.//Libraries/CMSIS/DSP/Source/FilteringFunctions/arm_conv_q7.c ****         c1 = *py--;
 288:.//Libraries/CMSIS/DSP/Source/FilteringFunctions/arm_conv_q7.c **** 
 289:.//Libraries/CMSIS/DSP/Source/FilteringFunctions/arm_conv_q7.c ****         /* Read x[3] sample */
 290:.//Libraries/CMSIS/DSP/Source/FilteringFunctions/arm_conv_q7.c ****         x3 = *px++;
 291:.//Libraries/CMSIS/DSP/Source/FilteringFunctions/arm_conv_q7.c **** 
 292:.//Libraries/CMSIS/DSP/Source/FilteringFunctions/arm_conv_q7.c ****         /* x[0] and x[1] are packed */
 293:.//Libraries/CMSIS/DSP/Source/FilteringFunctions/arm_conv_q7.c ****         in1 = (q15_t) x0;
 294:.//Libraries/CMSIS/DSP/Source/FilteringFunctions/arm_conv_q7.c ****         in2 = (q15_t) x1;
 295:.//Libraries/CMSIS/DSP/Source/FilteringFunctions/arm_conv_q7.c **** 
 296:.//Libraries/CMSIS/DSP/Source/FilteringFunctions/arm_conv_q7.c ****         input1 = ((q31_t) in1 & 0x0000FFFF) | ((q31_t) in2 << 16U);
 297:.//Libraries/CMSIS/DSP/Source/FilteringFunctions/arm_conv_q7.c **** 
 298:.//Libraries/CMSIS/DSP/Source/FilteringFunctions/arm_conv_q7.c ****         /* y[srcBLen - 1]   and y[srcBLen - 2] are packed */
 299:.//Libraries/CMSIS/DSP/Source/FilteringFunctions/arm_conv_q7.c ****         in1 = (q15_t) c0;
 300:.//Libraries/CMSIS/DSP/Source/FilteringFunctions/arm_conv_q7.c ****         in2 = (q15_t) c1;
 301:.//Libraries/CMSIS/DSP/Source/FilteringFunctions/arm_conv_q7.c **** 
 302:.//Libraries/CMSIS/DSP/Source/FilteringFunctions/arm_conv_q7.c ****         input2 = ((q31_t) in1 & 0x0000FFFF) | ((q31_t) in2 << 16U);
 303:.//Libraries/CMSIS/DSP/Source/FilteringFunctions/arm_conv_q7.c **** 
 304:.//Libraries/CMSIS/DSP/Source/FilteringFunctions/arm_conv_q7.c ****         /* acc0 += x[0] * y[srcBLen - 1] + x[1] * y[srcBLen - 2]  */
 305:.//Libraries/CMSIS/DSP/Source/FilteringFunctions/arm_conv_q7.c ****         acc0 = __SMLAD(input1, input2, acc0);
 306:.//Libraries/CMSIS/DSP/Source/FilteringFunctions/arm_conv_q7.c **** 
 307:.//Libraries/CMSIS/DSP/Source/FilteringFunctions/arm_conv_q7.c ****         /* x[1] and x[2] are packed */
 308:.//Libraries/CMSIS/DSP/Source/FilteringFunctions/arm_conv_q7.c ****         in1 = (q15_t) x1;
 309:.//Libraries/CMSIS/DSP/Source/FilteringFunctions/arm_conv_q7.c ****         in2 = (q15_t) x2;
 310:.//Libraries/CMSIS/DSP/Source/FilteringFunctions/arm_conv_q7.c **** 
 311:.//Libraries/CMSIS/DSP/Source/FilteringFunctions/arm_conv_q7.c ****         input1 = ((q31_t) in1 & 0x0000FFFF) | ((q31_t) in2 << 16U);
 312:.//Libraries/CMSIS/DSP/Source/FilteringFunctions/arm_conv_q7.c **** 
 313:.//Libraries/CMSIS/DSP/Source/FilteringFunctions/arm_conv_q7.c ****         /* acc1 += x[1] * y[srcBLen - 1] + x[2] * y[srcBLen - 2]  */
 314:.//Libraries/CMSIS/DSP/Source/FilteringFunctions/arm_conv_q7.c ****         acc1 = __SMLAD(input1, input2, acc1);
 315:.//Libraries/CMSIS/DSP/Source/FilteringFunctions/arm_conv_q7.c **** 
 316:.//Libraries/CMSIS/DSP/Source/FilteringFunctions/arm_conv_q7.c ****         /* x[2] and x[3] are packed */
 317:.//Libraries/CMSIS/DSP/Source/FilteringFunctions/arm_conv_q7.c ****         in1 = (q15_t) x2;
 318:.//Libraries/CMSIS/DSP/Source/FilteringFunctions/arm_conv_q7.c ****         in2 = (q15_t) x3;
 319:.//Libraries/CMSIS/DSP/Source/FilteringFunctions/arm_conv_q7.c **** 
 320:.//Libraries/CMSIS/DSP/Source/FilteringFunctions/arm_conv_q7.c ****         input1 = ((q31_t) in1 & 0x0000FFFF) | ((q31_t) in2 << 16U);
 321:.//Libraries/CMSIS/DSP/Source/FilteringFunctions/arm_conv_q7.c **** 
 322:.//Libraries/CMSIS/DSP/Source/FilteringFunctions/arm_conv_q7.c ****         /* acc2 += x[2] * y[srcBLen - 1] + x[3] * y[srcBLen - 2]  */
 323:.//Libraries/CMSIS/DSP/Source/FilteringFunctions/arm_conv_q7.c ****         acc2 = __SMLAD(input1, input2, acc2);
 324:.//Libraries/CMSIS/DSP/Source/FilteringFunctions/arm_conv_q7.c **** 
 325:.//Libraries/CMSIS/DSP/Source/FilteringFunctions/arm_conv_q7.c ****         /* Read x[4] sample */
 326:.//Libraries/CMSIS/DSP/Source/FilteringFunctions/arm_conv_q7.c ****         x0 = *px++;
 327:.//Libraries/CMSIS/DSP/Source/FilteringFunctions/arm_conv_q7.c **** 
 328:.//Libraries/CMSIS/DSP/Source/FilteringFunctions/arm_conv_q7.c ****         /* x[3] and x[4] are packed */
 329:.//Libraries/CMSIS/DSP/Source/FilteringFunctions/arm_conv_q7.c ****         in1 = (q15_t) x3;
 330:.//Libraries/CMSIS/DSP/Source/FilteringFunctions/arm_conv_q7.c ****         in2 = (q15_t) x0;
 331:.//Libraries/CMSIS/DSP/Source/FilteringFunctions/arm_conv_q7.c **** 
 332:.//Libraries/CMSIS/DSP/Source/FilteringFunctions/arm_conv_q7.c ****         input1 = ((q31_t) in1 & 0x0000FFFF) | ((q31_t) in2 << 16U);
 333:.//Libraries/CMSIS/DSP/Source/FilteringFunctions/arm_conv_q7.c **** 
 334:.//Libraries/CMSIS/DSP/Source/FilteringFunctions/arm_conv_q7.c ****         /* acc3 += x[3] * y[srcBLen - 1] + x[4] * y[srcBLen - 2]  */
 335:.//Libraries/CMSIS/DSP/Source/FilteringFunctions/arm_conv_q7.c ****         acc3 = __SMLAD(input1, input2, acc3);
ARM GAS  /var/folders/wl/rshn8xbx1dsfj1zgryf4g1240000gn/T//ccOLCVhb.s 			page 12


 336:.//Libraries/CMSIS/DSP/Source/FilteringFunctions/arm_conv_q7.c **** 
 337:.//Libraries/CMSIS/DSP/Source/FilteringFunctions/arm_conv_q7.c ****         /* Read y[srcBLen - 3] sample */
 338:.//Libraries/CMSIS/DSP/Source/FilteringFunctions/arm_conv_q7.c ****         c0 = *py--;
 339:.//Libraries/CMSIS/DSP/Source/FilteringFunctions/arm_conv_q7.c ****         /* Read y[srcBLen - 4] sample */
 340:.//Libraries/CMSIS/DSP/Source/FilteringFunctions/arm_conv_q7.c ****         c1 = *py--;
 341:.//Libraries/CMSIS/DSP/Source/FilteringFunctions/arm_conv_q7.c **** 
 342:.//Libraries/CMSIS/DSP/Source/FilteringFunctions/arm_conv_q7.c ****         /* Read x[5] sample */
 343:.//Libraries/CMSIS/DSP/Source/FilteringFunctions/arm_conv_q7.c ****         x1 = *px++;
 344:.//Libraries/CMSIS/DSP/Source/FilteringFunctions/arm_conv_q7.c **** 
 345:.//Libraries/CMSIS/DSP/Source/FilteringFunctions/arm_conv_q7.c ****         /* x[2] and x[3] are packed */
 346:.//Libraries/CMSIS/DSP/Source/FilteringFunctions/arm_conv_q7.c ****         in1 = (q15_t) x2;
 347:.//Libraries/CMSIS/DSP/Source/FilteringFunctions/arm_conv_q7.c ****         in2 = (q15_t) x3;
 348:.//Libraries/CMSIS/DSP/Source/FilteringFunctions/arm_conv_q7.c **** 
 349:.//Libraries/CMSIS/DSP/Source/FilteringFunctions/arm_conv_q7.c ****         input1 = ((q31_t) in1 & 0x0000FFFF) | ((q31_t) in2 << 16U);
 350:.//Libraries/CMSIS/DSP/Source/FilteringFunctions/arm_conv_q7.c **** 
 351:.//Libraries/CMSIS/DSP/Source/FilteringFunctions/arm_conv_q7.c ****         /* y[srcBLen - 3] and y[srcBLen - 4] are packed */
 352:.//Libraries/CMSIS/DSP/Source/FilteringFunctions/arm_conv_q7.c ****         in1 = (q15_t) c0;
 353:.//Libraries/CMSIS/DSP/Source/FilteringFunctions/arm_conv_q7.c ****         in2 = (q15_t) c1;
 354:.//Libraries/CMSIS/DSP/Source/FilteringFunctions/arm_conv_q7.c **** 
 355:.//Libraries/CMSIS/DSP/Source/FilteringFunctions/arm_conv_q7.c ****         input2 = ((q31_t) in1 & 0x0000FFFF) | ((q31_t) in2 << 16U);
 356:.//Libraries/CMSIS/DSP/Source/FilteringFunctions/arm_conv_q7.c **** 
 357:.//Libraries/CMSIS/DSP/Source/FilteringFunctions/arm_conv_q7.c ****         /* acc0 += x[2] * y[srcBLen - 3] + x[3] * y[srcBLen - 4]  */
 358:.//Libraries/CMSIS/DSP/Source/FilteringFunctions/arm_conv_q7.c ****         acc0 = __SMLAD(input1, input2, acc0);
 359:.//Libraries/CMSIS/DSP/Source/FilteringFunctions/arm_conv_q7.c **** 
 360:.//Libraries/CMSIS/DSP/Source/FilteringFunctions/arm_conv_q7.c ****         /* x[3] and x[4] are packed */
 361:.//Libraries/CMSIS/DSP/Source/FilteringFunctions/arm_conv_q7.c ****         in1 = (q15_t) x3;
 362:.//Libraries/CMSIS/DSP/Source/FilteringFunctions/arm_conv_q7.c ****         in2 = (q15_t) x0;
 363:.//Libraries/CMSIS/DSP/Source/FilteringFunctions/arm_conv_q7.c **** 
 364:.//Libraries/CMSIS/DSP/Source/FilteringFunctions/arm_conv_q7.c ****         input1 = ((q31_t) in1 & 0x0000FFFF) | ((q31_t) in2 << 16U);
 365:.//Libraries/CMSIS/DSP/Source/FilteringFunctions/arm_conv_q7.c **** 
 366:.//Libraries/CMSIS/DSP/Source/FilteringFunctions/arm_conv_q7.c ****         /* acc1 += x[3] * y[srcBLen - 3] + x[4] * y[srcBLen - 4]  */
 367:.//Libraries/CMSIS/DSP/Source/FilteringFunctions/arm_conv_q7.c ****         acc1 = __SMLAD(input1, input2, acc1);
 368:.//Libraries/CMSIS/DSP/Source/FilteringFunctions/arm_conv_q7.c **** 
 369:.//Libraries/CMSIS/DSP/Source/FilteringFunctions/arm_conv_q7.c ****         /* x[4] and x[5] are packed */
 370:.//Libraries/CMSIS/DSP/Source/FilteringFunctions/arm_conv_q7.c ****         in1 = (q15_t) x0;
 371:.//Libraries/CMSIS/DSP/Source/FilteringFunctions/arm_conv_q7.c ****         in2 = (q15_t) x1;
 372:.//Libraries/CMSIS/DSP/Source/FilteringFunctions/arm_conv_q7.c **** 
 373:.//Libraries/CMSIS/DSP/Source/FilteringFunctions/arm_conv_q7.c ****         input1 = ((q31_t) in1 & 0x0000FFFF) | ((q31_t) in2 << 16U);
 374:.//Libraries/CMSIS/DSP/Source/FilteringFunctions/arm_conv_q7.c **** 
 375:.//Libraries/CMSIS/DSP/Source/FilteringFunctions/arm_conv_q7.c ****         /* acc2 += x[4] * y[srcBLen - 3] + x[5] * y[srcBLen - 4]  */
 376:.//Libraries/CMSIS/DSP/Source/FilteringFunctions/arm_conv_q7.c ****         acc2 = __SMLAD(input1, input2, acc2);
 377:.//Libraries/CMSIS/DSP/Source/FilteringFunctions/arm_conv_q7.c **** 
 378:.//Libraries/CMSIS/DSP/Source/FilteringFunctions/arm_conv_q7.c ****         /* Read x[6] sample */
 379:.//Libraries/CMSIS/DSP/Source/FilteringFunctions/arm_conv_q7.c ****         x2 = *px++;
 380:.//Libraries/CMSIS/DSP/Source/FilteringFunctions/arm_conv_q7.c **** 
 381:.//Libraries/CMSIS/DSP/Source/FilteringFunctions/arm_conv_q7.c ****         /* x[5] and x[6] are packed */
 382:.//Libraries/CMSIS/DSP/Source/FilteringFunctions/arm_conv_q7.c ****         in1 = (q15_t) x1;
 383:.//Libraries/CMSIS/DSP/Source/FilteringFunctions/arm_conv_q7.c ****         in2 = (q15_t) x2;
 384:.//Libraries/CMSIS/DSP/Source/FilteringFunctions/arm_conv_q7.c **** 
 385:.//Libraries/CMSIS/DSP/Source/FilteringFunctions/arm_conv_q7.c ****         input1 = ((q31_t) in1 & 0x0000FFFF) | ((q31_t) in2 << 16U);
 386:.//Libraries/CMSIS/DSP/Source/FilteringFunctions/arm_conv_q7.c **** 
 387:.//Libraries/CMSIS/DSP/Source/FilteringFunctions/arm_conv_q7.c ****         /* acc3 += x[5] * y[srcBLen - 3] + x[6] * y[srcBLen - 4]  */
 388:.//Libraries/CMSIS/DSP/Source/FilteringFunctions/arm_conv_q7.c ****         acc3 = __SMLAD(input1, input2, acc3);
 389:.//Libraries/CMSIS/DSP/Source/FilteringFunctions/arm_conv_q7.c **** 
 390:.//Libraries/CMSIS/DSP/Source/FilteringFunctions/arm_conv_q7.c ****       } while (--k);
 391:.//Libraries/CMSIS/DSP/Source/FilteringFunctions/arm_conv_q7.c **** 
 392:.//Libraries/CMSIS/DSP/Source/FilteringFunctions/arm_conv_q7.c ****       /* If the srcBLen is not a multiple of 4, compute any remaining MACs here.
ARM GAS  /var/folders/wl/rshn8xbx1dsfj1zgryf4g1240000gn/T//ccOLCVhb.s 			page 13


 393:.//Libraries/CMSIS/DSP/Source/FilteringFunctions/arm_conv_q7.c ****        ** No loop unrolling is used. */
 394:.//Libraries/CMSIS/DSP/Source/FilteringFunctions/arm_conv_q7.c ****       k = srcBLen % 0x4U;
 395:.//Libraries/CMSIS/DSP/Source/FilteringFunctions/arm_conv_q7.c **** 
 396:.//Libraries/CMSIS/DSP/Source/FilteringFunctions/arm_conv_q7.c ****       while (k > 0U)
 397:.//Libraries/CMSIS/DSP/Source/FilteringFunctions/arm_conv_q7.c ****       {
 398:.//Libraries/CMSIS/DSP/Source/FilteringFunctions/arm_conv_q7.c ****         /* Read y[srcBLen - 5] sample */
 399:.//Libraries/CMSIS/DSP/Source/FilteringFunctions/arm_conv_q7.c ****         c0 = *py--;
 400:.//Libraries/CMSIS/DSP/Source/FilteringFunctions/arm_conv_q7.c ****         /* Read x[7] sample */
 401:.//Libraries/CMSIS/DSP/Source/FilteringFunctions/arm_conv_q7.c ****         x3 = *px++;
 402:.//Libraries/CMSIS/DSP/Source/FilteringFunctions/arm_conv_q7.c **** 
 403:.//Libraries/CMSIS/DSP/Source/FilteringFunctions/arm_conv_q7.c ****         /* Perform the multiply-accumulates */
 404:.//Libraries/CMSIS/DSP/Source/FilteringFunctions/arm_conv_q7.c ****         /* acc0 +=  x[4] * y[srcBLen - 5] */
 405:.//Libraries/CMSIS/DSP/Source/FilteringFunctions/arm_conv_q7.c ****         acc0 += ((q15_t) x0 * c0);
 406:.//Libraries/CMSIS/DSP/Source/FilteringFunctions/arm_conv_q7.c ****         /* acc1 +=  x[5] * y[srcBLen - 5] */
 407:.//Libraries/CMSIS/DSP/Source/FilteringFunctions/arm_conv_q7.c ****         acc1 += ((q15_t) x1 * c0);
 408:.//Libraries/CMSIS/DSP/Source/FilteringFunctions/arm_conv_q7.c ****         /* acc2 +=  x[6] * y[srcBLen - 5] */
 409:.//Libraries/CMSIS/DSP/Source/FilteringFunctions/arm_conv_q7.c ****         acc2 += ((q15_t) x2 * c0);
 410:.//Libraries/CMSIS/DSP/Source/FilteringFunctions/arm_conv_q7.c ****         /* acc3 +=  x[7] * y[srcBLen - 5] */
 411:.//Libraries/CMSIS/DSP/Source/FilteringFunctions/arm_conv_q7.c ****         acc3 += ((q15_t) x3 * c0);
 412:.//Libraries/CMSIS/DSP/Source/FilteringFunctions/arm_conv_q7.c **** 
 413:.//Libraries/CMSIS/DSP/Source/FilteringFunctions/arm_conv_q7.c ****         /* Reuse the present samples for the next MAC */
 414:.//Libraries/CMSIS/DSP/Source/FilteringFunctions/arm_conv_q7.c ****         x0 = x1;
 415:.//Libraries/CMSIS/DSP/Source/FilteringFunctions/arm_conv_q7.c ****         x1 = x2;
 416:.//Libraries/CMSIS/DSP/Source/FilteringFunctions/arm_conv_q7.c ****         x2 = x3;
 417:.//Libraries/CMSIS/DSP/Source/FilteringFunctions/arm_conv_q7.c **** 
 418:.//Libraries/CMSIS/DSP/Source/FilteringFunctions/arm_conv_q7.c ****         /* Decrement loop counter */
 419:.//Libraries/CMSIS/DSP/Source/FilteringFunctions/arm_conv_q7.c ****         k--;
 420:.//Libraries/CMSIS/DSP/Source/FilteringFunctions/arm_conv_q7.c ****       }
 421:.//Libraries/CMSIS/DSP/Source/FilteringFunctions/arm_conv_q7.c **** 
 422:.//Libraries/CMSIS/DSP/Source/FilteringFunctions/arm_conv_q7.c ****       /* Store the result in the accumulator in the destination buffer. */
 423:.//Libraries/CMSIS/DSP/Source/FilteringFunctions/arm_conv_q7.c ****       *pOut++ = (q7_t) (__SSAT(acc0 >> 7U, 8));
 424:.//Libraries/CMSIS/DSP/Source/FilteringFunctions/arm_conv_q7.c ****       *pOut++ = (q7_t) (__SSAT(acc1 >> 7U, 8));
 425:.//Libraries/CMSIS/DSP/Source/FilteringFunctions/arm_conv_q7.c ****       *pOut++ = (q7_t) (__SSAT(acc2 >> 7U, 8));
 426:.//Libraries/CMSIS/DSP/Source/FilteringFunctions/arm_conv_q7.c ****       *pOut++ = (q7_t) (__SSAT(acc3 >> 7U, 8));
 427:.//Libraries/CMSIS/DSP/Source/FilteringFunctions/arm_conv_q7.c **** 
 428:.//Libraries/CMSIS/DSP/Source/FilteringFunctions/arm_conv_q7.c ****       /* Increment the pointer pIn1 index, count by 4 */
 429:.//Libraries/CMSIS/DSP/Source/FilteringFunctions/arm_conv_q7.c ****       count += 4U;
 430:.//Libraries/CMSIS/DSP/Source/FilteringFunctions/arm_conv_q7.c **** 
 431:.//Libraries/CMSIS/DSP/Source/FilteringFunctions/arm_conv_q7.c ****       /* Update the inputA and inputB pointers for next MAC calculation */
 432:.//Libraries/CMSIS/DSP/Source/FilteringFunctions/arm_conv_q7.c ****       px = pIn1 + count;
 433:.//Libraries/CMSIS/DSP/Source/FilteringFunctions/arm_conv_q7.c ****       py = pSrc2;
 434:.//Libraries/CMSIS/DSP/Source/FilteringFunctions/arm_conv_q7.c **** 
 435:.//Libraries/CMSIS/DSP/Source/FilteringFunctions/arm_conv_q7.c ****       /* Decrement loop counter */
 436:.//Libraries/CMSIS/DSP/Source/FilteringFunctions/arm_conv_q7.c ****       blkCnt--;
 437:.//Libraries/CMSIS/DSP/Source/FilteringFunctions/arm_conv_q7.c ****     }
 438:.//Libraries/CMSIS/DSP/Source/FilteringFunctions/arm_conv_q7.c **** 
 439:.//Libraries/CMSIS/DSP/Source/FilteringFunctions/arm_conv_q7.c ****     /* Loop unrolling: Compute remaining outputs */
 440:.//Libraries/CMSIS/DSP/Source/FilteringFunctions/arm_conv_q7.c ****     blkCnt = blockSize2 % 0x4U;
 441:.//Libraries/CMSIS/DSP/Source/FilteringFunctions/arm_conv_q7.c **** 
 442:.//Libraries/CMSIS/DSP/Source/FilteringFunctions/arm_conv_q7.c **** #else
 443:.//Libraries/CMSIS/DSP/Source/FilteringFunctions/arm_conv_q7.c **** 
 444:.//Libraries/CMSIS/DSP/Source/FilteringFunctions/arm_conv_q7.c ****     /* Initialize blkCnt with number of samples */
 445:.//Libraries/CMSIS/DSP/Source/FilteringFunctions/arm_conv_q7.c ****     blkCnt = blockSize2;
 446:.//Libraries/CMSIS/DSP/Source/FilteringFunctions/arm_conv_q7.c **** 
 447:.//Libraries/CMSIS/DSP/Source/FilteringFunctions/arm_conv_q7.c **** #endif /* #if defined (ARM_MATH_LOOPUNROLL) */
 448:.//Libraries/CMSIS/DSP/Source/FilteringFunctions/arm_conv_q7.c **** 
 449:.//Libraries/CMSIS/DSP/Source/FilteringFunctions/arm_conv_q7.c ****     while (blkCnt > 0U)
ARM GAS  /var/folders/wl/rshn8xbx1dsfj1zgryf4g1240000gn/T//ccOLCVhb.s 			page 14


 241              		.loc 1 449 11 is_stmt 1 view .LVU87
 242 008a BAF1000F 		cmp	r10, #0
 243 008e 5AD0     		beq	.L23
 244 0090 0344     		add	r3, r3, r0
 245              	.LVL31:
 246              		.loc 1 449 11 is_stmt 0 view .LVU88
 247 0092 0EEB0A06 		add	r6, lr, r10
 241:.//Libraries/CMSIS/DSP/Source/FilteringFunctions/arm_conv_q7.c **** 
 248              		.loc 1 241 6 view .LVU89
 249 0096 0746     		mov	r7, r0
 250              	.LVL32:
 251              	.L13:
 244:.//Libraries/CMSIS/DSP/Source/FilteringFunctions/arm_conv_q7.c ****   py = pSrc2;
 252              		.loc 1 244 9 view .LVU90
 253 0098 4446     		mov	r4, r8
 254 009a 3A46     		mov	r2, r7
 450:.//Libraries/CMSIS/DSP/Source/FilteringFunctions/arm_conv_q7.c ****     {
 451:.//Libraries/CMSIS/DSP/Source/FilteringFunctions/arm_conv_q7.c ****       /* Accumulator is made zero for every iteration */
 452:.//Libraries/CMSIS/DSP/Source/FilteringFunctions/arm_conv_q7.c ****       sum = 0;
 255              		.loc 1 452 11 view .LVU91
 256 009c 0021     		movs	r1, #0
 257              	.LVL33:
 258              	.L12:
 453:.//Libraries/CMSIS/DSP/Source/FilteringFunctions/arm_conv_q7.c **** 
 454:.//Libraries/CMSIS/DSP/Source/FilteringFunctions/arm_conv_q7.c **** #if defined (ARM_MATH_LOOPUNROLL)
 455:.//Libraries/CMSIS/DSP/Source/FilteringFunctions/arm_conv_q7.c **** 
 456:.//Libraries/CMSIS/DSP/Source/FilteringFunctions/arm_conv_q7.c ****     /* Loop unrolling: Compute 4 outputs at a time */
 457:.//Libraries/CMSIS/DSP/Source/FilteringFunctions/arm_conv_q7.c ****       k = srcBLen >> 2U;
 458:.//Libraries/CMSIS/DSP/Source/FilteringFunctions/arm_conv_q7.c **** 
 459:.//Libraries/CMSIS/DSP/Source/FilteringFunctions/arm_conv_q7.c ****       while (k > 0U)
 460:.//Libraries/CMSIS/DSP/Source/FilteringFunctions/arm_conv_q7.c ****       {
 461:.//Libraries/CMSIS/DSP/Source/FilteringFunctions/arm_conv_q7.c **** 
 462:.//Libraries/CMSIS/DSP/Source/FilteringFunctions/arm_conv_q7.c ****         /* Reading two inputs of SrcA buffer and packing */
 463:.//Libraries/CMSIS/DSP/Source/FilteringFunctions/arm_conv_q7.c ****         in1 = (q15_t) *px++;
 464:.//Libraries/CMSIS/DSP/Source/FilteringFunctions/arm_conv_q7.c ****         in2 = (q15_t) *px++;
 465:.//Libraries/CMSIS/DSP/Source/FilteringFunctions/arm_conv_q7.c ****         input1 = ((q31_t) in1 & 0x0000FFFF) | ((q31_t) in2 << 16U);
 466:.//Libraries/CMSIS/DSP/Source/FilteringFunctions/arm_conv_q7.c **** 
 467:.//Libraries/CMSIS/DSP/Source/FilteringFunctions/arm_conv_q7.c ****         /* Reading two inputs of SrcB buffer and packing */
 468:.//Libraries/CMSIS/DSP/Source/FilteringFunctions/arm_conv_q7.c ****         in1 = (q15_t) *py--;
 469:.//Libraries/CMSIS/DSP/Source/FilteringFunctions/arm_conv_q7.c ****         in2 = (q15_t) *py--;
 470:.//Libraries/CMSIS/DSP/Source/FilteringFunctions/arm_conv_q7.c ****         input2 = ((q31_t) in1 & 0x0000FFFF) | ((q31_t) in2 << 16U);
 471:.//Libraries/CMSIS/DSP/Source/FilteringFunctions/arm_conv_q7.c **** 
 472:.//Libraries/CMSIS/DSP/Source/FilteringFunctions/arm_conv_q7.c ****         /* Perform the multiply-accumulate */
 473:.//Libraries/CMSIS/DSP/Source/FilteringFunctions/arm_conv_q7.c ****         sum = __SMLAD(input1, input2, sum);
 474:.//Libraries/CMSIS/DSP/Source/FilteringFunctions/arm_conv_q7.c **** 
 475:.//Libraries/CMSIS/DSP/Source/FilteringFunctions/arm_conv_q7.c ****         /* Reading two inputs of SrcA buffer and packing */
 476:.//Libraries/CMSIS/DSP/Source/FilteringFunctions/arm_conv_q7.c ****         in1 = (q15_t) *px++;
 477:.//Libraries/CMSIS/DSP/Source/FilteringFunctions/arm_conv_q7.c ****         in2 = (q15_t) *px++;
 478:.//Libraries/CMSIS/DSP/Source/FilteringFunctions/arm_conv_q7.c ****         input1 = ((q31_t) in1 & 0x0000FFFF) | ((q31_t) in2 << 16U);
 479:.//Libraries/CMSIS/DSP/Source/FilteringFunctions/arm_conv_q7.c **** 
 480:.//Libraries/CMSIS/DSP/Source/FilteringFunctions/arm_conv_q7.c ****         /* Reading two inputs of SrcB buffer and packing */
 481:.//Libraries/CMSIS/DSP/Source/FilteringFunctions/arm_conv_q7.c ****         in1 = (q15_t) *py--;
 482:.//Libraries/CMSIS/DSP/Source/FilteringFunctions/arm_conv_q7.c ****         in2 = (q15_t) *py--;
 483:.//Libraries/CMSIS/DSP/Source/FilteringFunctions/arm_conv_q7.c ****         input2 = ((q31_t) in1 & 0x0000FFFF) | ((q31_t) in2 << 16U);
 484:.//Libraries/CMSIS/DSP/Source/FilteringFunctions/arm_conv_q7.c **** 
 485:.//Libraries/CMSIS/DSP/Source/FilteringFunctions/arm_conv_q7.c ****         /* Perform the multiply-accumulate */
 486:.//Libraries/CMSIS/DSP/Source/FilteringFunctions/arm_conv_q7.c ****         sum = __SMLAD(input1, input2, sum);
ARM GAS  /var/folders/wl/rshn8xbx1dsfj1zgryf4g1240000gn/T//ccOLCVhb.s 			page 15


 487:.//Libraries/CMSIS/DSP/Source/FilteringFunctions/arm_conv_q7.c **** 
 488:.//Libraries/CMSIS/DSP/Source/FilteringFunctions/arm_conv_q7.c ****         /* Decrement loop counter */
 489:.//Libraries/CMSIS/DSP/Source/FilteringFunctions/arm_conv_q7.c ****         k--;
 490:.//Libraries/CMSIS/DSP/Source/FilteringFunctions/arm_conv_q7.c ****       }
 491:.//Libraries/CMSIS/DSP/Source/FilteringFunctions/arm_conv_q7.c **** 
 492:.//Libraries/CMSIS/DSP/Source/FilteringFunctions/arm_conv_q7.c ****       /* Loop unrolling: Compute remaining outputs */
 493:.//Libraries/CMSIS/DSP/Source/FilteringFunctions/arm_conv_q7.c ****       k = srcBLen % 0x4U;
 494:.//Libraries/CMSIS/DSP/Source/FilteringFunctions/arm_conv_q7.c **** 
 495:.//Libraries/CMSIS/DSP/Source/FilteringFunctions/arm_conv_q7.c **** #else
 496:.//Libraries/CMSIS/DSP/Source/FilteringFunctions/arm_conv_q7.c **** 
 497:.//Libraries/CMSIS/DSP/Source/FilteringFunctions/arm_conv_q7.c ****       /* Initialize blkCnt with number of samples */
 498:.//Libraries/CMSIS/DSP/Source/FilteringFunctions/arm_conv_q7.c ****       k = srcBLen;
 499:.//Libraries/CMSIS/DSP/Source/FilteringFunctions/arm_conv_q7.c **** 
 500:.//Libraries/CMSIS/DSP/Source/FilteringFunctions/arm_conv_q7.c **** #endif /* #if defined (ARM_MATH_LOOPUNROLL) */
 501:.//Libraries/CMSIS/DSP/Source/FilteringFunctions/arm_conv_q7.c **** 
 502:.//Libraries/CMSIS/DSP/Source/FilteringFunctions/arm_conv_q7.c ****       while (k > 0U)
 503:.//Libraries/CMSIS/DSP/Source/FilteringFunctions/arm_conv_q7.c ****       {
 504:.//Libraries/CMSIS/DSP/Source/FilteringFunctions/arm_conv_q7.c ****         /* Perform the multiply-accumulate */
 505:.//Libraries/CMSIS/DSP/Source/FilteringFunctions/arm_conv_q7.c ****         sum += ((q15_t) *px++ * *py--);
 259              		.loc 1 505 9 is_stmt 1 view .LVU92
 260              		.loc 1 505 13 is_stmt 0 view .LVU93
 261 009e 12F901CB 		ldrsb	ip, [r2], #1
 262              	.LVL34:
 263              		.loc 1 505 13 view .LVU94
 264 00a2 14F90159 		ldrsb	r5, [r4], #-1
 265              	.LVL35:
 502:.//Libraries/CMSIS/DSP/Source/FilteringFunctions/arm_conv_q7.c ****       {
 266              		.loc 1 502 13 view .LVU95
 267 00a6 9A42     		cmp	r2, r3
 268              		.loc 1 505 13 view .LVU96
 269 00a8 1CFB0511 		smlabb	r1, ip, r5, r1
 270              	.LVL36:
 506:.//Libraries/CMSIS/DSP/Source/FilteringFunctions/arm_conv_q7.c **** 
 507:.//Libraries/CMSIS/DSP/Source/FilteringFunctions/arm_conv_q7.c ****         /* Decrement the loop counter */
 508:.//Libraries/CMSIS/DSP/Source/FilteringFunctions/arm_conv_q7.c ****         k--;
 271              		.loc 1 508 9 is_stmt 1 view .LVU97
 502:.//Libraries/CMSIS/DSP/Source/FilteringFunctions/arm_conv_q7.c ****       {
 272              		.loc 1 502 13 view .LVU98
 273 00ac F7D1     		bne	.L12
 509:.//Libraries/CMSIS/DSP/Source/FilteringFunctions/arm_conv_q7.c ****       }
 510:.//Libraries/CMSIS/DSP/Source/FilteringFunctions/arm_conv_q7.c **** 
 511:.//Libraries/CMSIS/DSP/Source/FilteringFunctions/arm_conv_q7.c ****       /* Store the result in the accumulator in the destination buffer. */
 512:.//Libraries/CMSIS/DSP/Source/FilteringFunctions/arm_conv_q7.c ****       *pOut++ = (q7_t) (__SSAT(sum >> 7U, 8));
 274              		.loc 1 512 7 view .LVU99
 275              	.LBB7:
 276              		.loc 1 512 25 view .LVU100
 277              	.LVL37:
 278              		.loc 1 512 25 view .LVU101
 279 00ae C911     		asrs	r1, r1, #7
 280              	.LVL38:
 281              		.loc 1 512 25 is_stmt 0 view .LVU102
 282 00b0 0137     		adds	r7, r7, #1
 283              		.syntax unified
 284              	@ 512 ".//Libraries/CMSIS/DSP/Source/FilteringFunctions/arm_conv_q7.c" 1
 285 00b2 01F30701 		ssat r1, #8, r1
 286              	@ 0 "" 2
 287              	.LVL39:
ARM GAS  /var/folders/wl/rshn8xbx1dsfj1zgryf4g1240000gn/T//ccOLCVhb.s 			page 16


 288              		.loc 1 512 25 is_stmt 1 view .LVU103
 289              		.loc 1 512 25 is_stmt 0 view .LVU104
 290              		.thumb
 291              		.syntax unified
 292              	.LBE7:
 293              		.loc 1 512 17 view .LVU105
 294 00b6 0EF8011B 		strb	r1, [lr], #1
 295              	.LVL40:
 513:.//Libraries/CMSIS/DSP/Source/FilteringFunctions/arm_conv_q7.c **** 
 514:.//Libraries/CMSIS/DSP/Source/FilteringFunctions/arm_conv_q7.c ****       /* Increment the pointer pIn1 index, count by 1 */
 515:.//Libraries/CMSIS/DSP/Source/FilteringFunctions/arm_conv_q7.c ****       count++;
 296              		.loc 1 515 7 is_stmt 1 view .LVU106
 516:.//Libraries/CMSIS/DSP/Source/FilteringFunctions/arm_conv_q7.c **** 
 517:.//Libraries/CMSIS/DSP/Source/FilteringFunctions/arm_conv_q7.c ****       /* Update the inputA and inputB pointers for next MAC calculation */
 518:.//Libraries/CMSIS/DSP/Source/FilteringFunctions/arm_conv_q7.c ****       px = pIn1 + count;
 297              		.loc 1 518 7 view .LVU107
 519:.//Libraries/CMSIS/DSP/Source/FilteringFunctions/arm_conv_q7.c ****       py = pSrc2;
 298              		.loc 1 519 7 view .LVU108
 520:.//Libraries/CMSIS/DSP/Source/FilteringFunctions/arm_conv_q7.c **** 
 521:.//Libraries/CMSIS/DSP/Source/FilteringFunctions/arm_conv_q7.c ****       /* Decrement the loop counter */
 522:.//Libraries/CMSIS/DSP/Source/FilteringFunctions/arm_conv_q7.c ****       blkCnt--;
 299              		.loc 1 522 7 view .LVU109
 449:.//Libraries/CMSIS/DSP/Source/FilteringFunctions/arm_conv_q7.c ****     {
 300              		.loc 1 449 11 view .LVU110
 301 00ba B645     		cmp	lr, r6
 302 00bc 03F10103 		add	r3, r3, #1
 303 00c0 EAD1     		bne	.L13
 304              	.LVL41:
 305              	.L11:
 523:.//Libraries/CMSIS/DSP/Source/FilteringFunctions/arm_conv_q7.c ****     }
 524:.//Libraries/CMSIS/DSP/Source/FilteringFunctions/arm_conv_q7.c ****   }
 525:.//Libraries/CMSIS/DSP/Source/FilteringFunctions/arm_conv_q7.c ****   else
 526:.//Libraries/CMSIS/DSP/Source/FilteringFunctions/arm_conv_q7.c ****   {
 527:.//Libraries/CMSIS/DSP/Source/FilteringFunctions/arm_conv_q7.c ****     /* If the srcBLen is not a multiple of 4,
 528:.//Libraries/CMSIS/DSP/Source/FilteringFunctions/arm_conv_q7.c ****      * the blockSize2 loop cannot be unrolled by 4 */
 529:.//Libraries/CMSIS/DSP/Source/FilteringFunctions/arm_conv_q7.c ****     blkCnt = blockSize2;
 530:.//Libraries/CMSIS/DSP/Source/FilteringFunctions/arm_conv_q7.c **** 
 531:.//Libraries/CMSIS/DSP/Source/FilteringFunctions/arm_conv_q7.c ****     while (blkCnt > 0U)
 532:.//Libraries/CMSIS/DSP/Source/FilteringFunctions/arm_conv_q7.c ****     {
 533:.//Libraries/CMSIS/DSP/Source/FilteringFunctions/arm_conv_q7.c ****       /* Accumulator is made zero for every iteration */
 534:.//Libraries/CMSIS/DSP/Source/FilteringFunctions/arm_conv_q7.c ****       sum = 0;
 535:.//Libraries/CMSIS/DSP/Source/FilteringFunctions/arm_conv_q7.c **** 
 536:.//Libraries/CMSIS/DSP/Source/FilteringFunctions/arm_conv_q7.c ****       /* srcBLen number of MACS should be performed */
 537:.//Libraries/CMSIS/DSP/Source/FilteringFunctions/arm_conv_q7.c ****       k = srcBLen;
 538:.//Libraries/CMSIS/DSP/Source/FilteringFunctions/arm_conv_q7.c **** 
 539:.//Libraries/CMSIS/DSP/Source/FilteringFunctions/arm_conv_q7.c ****       while (k > 0U)
 540:.//Libraries/CMSIS/DSP/Source/FilteringFunctions/arm_conv_q7.c ****       {
 541:.//Libraries/CMSIS/DSP/Source/FilteringFunctions/arm_conv_q7.c ****         /* Perform the multiply-accumulate */
 542:.//Libraries/CMSIS/DSP/Source/FilteringFunctions/arm_conv_q7.c ****         sum += ((q15_t) *px++ * *py--);
 543:.//Libraries/CMSIS/DSP/Source/FilteringFunctions/arm_conv_q7.c **** 
 544:.//Libraries/CMSIS/DSP/Source/FilteringFunctions/arm_conv_q7.c ****         /* Decrement the loop counter */
 545:.//Libraries/CMSIS/DSP/Source/FilteringFunctions/arm_conv_q7.c ****         k--;
 546:.//Libraries/CMSIS/DSP/Source/FilteringFunctions/arm_conv_q7.c ****       }
 547:.//Libraries/CMSIS/DSP/Source/FilteringFunctions/arm_conv_q7.c **** 
 548:.//Libraries/CMSIS/DSP/Source/FilteringFunctions/arm_conv_q7.c ****       /* Store the result in the accumulator in the destination buffer. */
 549:.//Libraries/CMSIS/DSP/Source/FilteringFunctions/arm_conv_q7.c ****       *pOut++ = (q7_t) (__SSAT(sum >> 7U, 8));
 550:.//Libraries/CMSIS/DSP/Source/FilteringFunctions/arm_conv_q7.c **** 
ARM GAS  /var/folders/wl/rshn8xbx1dsfj1zgryf4g1240000gn/T//ccOLCVhb.s 			page 17


 551:.//Libraries/CMSIS/DSP/Source/FilteringFunctions/arm_conv_q7.c ****       /* Increment the MAC count */
 552:.//Libraries/CMSIS/DSP/Source/FilteringFunctions/arm_conv_q7.c ****       count++;
 553:.//Libraries/CMSIS/DSP/Source/FilteringFunctions/arm_conv_q7.c **** 
 554:.//Libraries/CMSIS/DSP/Source/FilteringFunctions/arm_conv_q7.c ****       /* Update the inputA and inputB pointers for next MAC calculation */
 555:.//Libraries/CMSIS/DSP/Source/FilteringFunctions/arm_conv_q7.c ****       px = pIn1 + count;
 556:.//Libraries/CMSIS/DSP/Source/FilteringFunctions/arm_conv_q7.c ****       py = pSrc2;
 557:.//Libraries/CMSIS/DSP/Source/FilteringFunctions/arm_conv_q7.c **** 
 558:.//Libraries/CMSIS/DSP/Source/FilteringFunctions/arm_conv_q7.c ****       /* Decrement loop counter */
 559:.//Libraries/CMSIS/DSP/Source/FilteringFunctions/arm_conv_q7.c ****       blkCnt--;
 560:.//Libraries/CMSIS/DSP/Source/FilteringFunctions/arm_conv_q7.c ****     }
 561:.//Libraries/CMSIS/DSP/Source/FilteringFunctions/arm_conv_q7.c ****   }
 562:.//Libraries/CMSIS/DSP/Source/FilteringFunctions/arm_conv_q7.c **** 
 563:.//Libraries/CMSIS/DSP/Source/FilteringFunctions/arm_conv_q7.c **** 
 564:.//Libraries/CMSIS/DSP/Source/FilteringFunctions/arm_conv_q7.c ****   /* --------------------------
 565:.//Libraries/CMSIS/DSP/Source/FilteringFunctions/arm_conv_q7.c ****    * Initializations of stage3
 566:.//Libraries/CMSIS/DSP/Source/FilteringFunctions/arm_conv_q7.c ****    * -------------------------*/
 567:.//Libraries/CMSIS/DSP/Source/FilteringFunctions/arm_conv_q7.c **** 
 568:.//Libraries/CMSIS/DSP/Source/FilteringFunctions/arm_conv_q7.c ****   /* sum += x[srcALen-srcBLen+1] * y[srcBLen-1] + x[srcALen-srcBLen+2] * y[srcBLen-2] +...+ x[srcAL
 569:.//Libraries/CMSIS/DSP/Source/FilteringFunctions/arm_conv_q7.c ****    * sum += x[srcALen-srcBLen+2] * y[srcBLen-1] + x[srcALen-srcBLen+3] * y[srcBLen-2] +...+ x[srcAL
 570:.//Libraries/CMSIS/DSP/Source/FilteringFunctions/arm_conv_q7.c ****    * ....
 571:.//Libraries/CMSIS/DSP/Source/FilteringFunctions/arm_conv_q7.c ****    * sum +=  x[srcALen-2] * y[srcBLen-1] + x[srcALen-1] * y[srcBLen-2]
 572:.//Libraries/CMSIS/DSP/Source/FilteringFunctions/arm_conv_q7.c ****    * sum +=  x[srcALen-1] * y[srcBLen-1]
 573:.//Libraries/CMSIS/DSP/Source/FilteringFunctions/arm_conv_q7.c ****    */
 574:.//Libraries/CMSIS/DSP/Source/FilteringFunctions/arm_conv_q7.c **** 
 575:.//Libraries/CMSIS/DSP/Source/FilteringFunctions/arm_conv_q7.c ****   /* In this stage the MAC operations are decreased by 1 for every iteration.
 576:.//Libraries/CMSIS/DSP/Source/FilteringFunctions/arm_conv_q7.c ****      The blockSize3 variable holds the number of MAC operations performed */
 577:.//Libraries/CMSIS/DSP/Source/FilteringFunctions/arm_conv_q7.c **** 
 578:.//Libraries/CMSIS/DSP/Source/FilteringFunctions/arm_conv_q7.c ****   /* Working pointer of inputA */
 579:.//Libraries/CMSIS/DSP/Source/FilteringFunctions/arm_conv_q7.c ****   pSrc1 = pIn1 + (srcALen - (srcBLen - 1U));
 306              		.loc 1 579 3 view .LVU111
 307              		.loc 1 579 9 is_stmt 0 view .LVU112
 308 00c2 5044     		add	r0, r0, r10
 309              	.LVL42:
 580:.//Libraries/CMSIS/DSP/Source/FilteringFunctions/arm_conv_q7.c ****   px = pSrc1;
 310              		.loc 1 580 3 is_stmt 1 view .LVU113
 581:.//Libraries/CMSIS/DSP/Source/FilteringFunctions/arm_conv_q7.c **** 
 582:.//Libraries/CMSIS/DSP/Source/FilteringFunctions/arm_conv_q7.c ****   /* Working pointer of inputB */
 583:.//Libraries/CMSIS/DSP/Source/FilteringFunctions/arm_conv_q7.c ****   pSrc2 = pIn2 + (srcBLen - 1U);
 311              		.loc 1 583 3 view .LVU114
 584:.//Libraries/CMSIS/DSP/Source/FilteringFunctions/arm_conv_q7.c ****   py = pSrc2;
 312              		.loc 1 584 3 view .LVU115
 585:.//Libraries/CMSIS/DSP/Source/FilteringFunctions/arm_conv_q7.c **** 
 586:.//Libraries/CMSIS/DSP/Source/FilteringFunctions/arm_conv_q7.c ****   /* -------------------
 587:.//Libraries/CMSIS/DSP/Source/FilteringFunctions/arm_conv_q7.c ****    * Stage3 process
 588:.//Libraries/CMSIS/DSP/Source/FilteringFunctions/arm_conv_q7.c ****    * ------------------*/
 589:.//Libraries/CMSIS/DSP/Source/FilteringFunctions/arm_conv_q7.c **** 
 590:.//Libraries/CMSIS/DSP/Source/FilteringFunctions/arm_conv_q7.c ****   while (blockSize3 > 0U)
 313              		.loc 1 590 3 view .LVU116
 314              		.loc 1 590 9 view .LVU117
 315              	.L15:
 217:.//Libraries/CMSIS/DSP/Source/FilteringFunctions/arm_conv_q7.c **** 
 316              		.loc 1 217 10 is_stmt 0 view .LVU118
 317 00c4 DDF804C0 		ldr	ip, [sp, #4]
 318 00c8 6044     		add	r0, r0, ip
 319              	.L19:
 320 00ca A0EB0C03 		sub	r3, r0, ip
 321              	.LVL43:
ARM GAS  /var/folders/wl/rshn8xbx1dsfj1zgryf4g1240000gn/T//ccOLCVhb.s 			page 18


 217:.//Libraries/CMSIS/DSP/Source/FilteringFunctions/arm_conv_q7.c **** 
 322              		.loc 1 217 10 view .LVU119
 323 00ce 0746     		mov	r7, r0
 324 00d0 4146     		mov	r1, r8
 591:.//Libraries/CMSIS/DSP/Source/FilteringFunctions/arm_conv_q7.c ****   {
 592:.//Libraries/CMSIS/DSP/Source/FilteringFunctions/arm_conv_q7.c ****     /* Accumulator is made zero for every iteration */
 593:.//Libraries/CMSIS/DSP/Source/FilteringFunctions/arm_conv_q7.c ****     sum = 0;
 325              		.loc 1 593 9 view .LVU120
 326 00d2 0022     		movs	r2, #0
 327              	.LVL44:
 328              	.L18:
 594:.//Libraries/CMSIS/DSP/Source/FilteringFunctions/arm_conv_q7.c **** 
 595:.//Libraries/CMSIS/DSP/Source/FilteringFunctions/arm_conv_q7.c **** #if defined (ARM_MATH_LOOPUNROLL)
 596:.//Libraries/CMSIS/DSP/Source/FilteringFunctions/arm_conv_q7.c **** 
 597:.//Libraries/CMSIS/DSP/Source/FilteringFunctions/arm_conv_q7.c ****     /* Loop unrolling: Compute 4 outputs at a time */
 598:.//Libraries/CMSIS/DSP/Source/FilteringFunctions/arm_conv_q7.c ****     k = blockSize3 >> 2U;
 599:.//Libraries/CMSIS/DSP/Source/FilteringFunctions/arm_conv_q7.c **** 
 600:.//Libraries/CMSIS/DSP/Source/FilteringFunctions/arm_conv_q7.c ****     while (k > 0U)
 601:.//Libraries/CMSIS/DSP/Source/FilteringFunctions/arm_conv_q7.c ****     {
 602:.//Libraries/CMSIS/DSP/Source/FilteringFunctions/arm_conv_q7.c ****       /* Reading two inputs, x[srcALen - srcBLen + 1] and x[srcALen - srcBLen + 2] of SrcA buffer a
 603:.//Libraries/CMSIS/DSP/Source/FilteringFunctions/arm_conv_q7.c ****       in1 = (q15_t) *px++;
 604:.//Libraries/CMSIS/DSP/Source/FilteringFunctions/arm_conv_q7.c ****       in2 = (q15_t) *px++;
 605:.//Libraries/CMSIS/DSP/Source/FilteringFunctions/arm_conv_q7.c ****       input1 = ((q31_t) in1 & 0x0000FFFF) | ((q31_t) in2 << 16U);
 606:.//Libraries/CMSIS/DSP/Source/FilteringFunctions/arm_conv_q7.c **** 
 607:.//Libraries/CMSIS/DSP/Source/FilteringFunctions/arm_conv_q7.c ****       /* Reading two inputs, y[srcBLen - 1] and y[srcBLen - 2] of SrcB buffer and packing */
 608:.//Libraries/CMSIS/DSP/Source/FilteringFunctions/arm_conv_q7.c ****       in1 = (q15_t) *py--;
 609:.//Libraries/CMSIS/DSP/Source/FilteringFunctions/arm_conv_q7.c ****       in2 = (q15_t) *py--;
 610:.//Libraries/CMSIS/DSP/Source/FilteringFunctions/arm_conv_q7.c ****       input2 = ((q31_t) in1 & 0x0000FFFF) | ((q31_t) in2 << 16U);
 611:.//Libraries/CMSIS/DSP/Source/FilteringFunctions/arm_conv_q7.c **** 
 612:.//Libraries/CMSIS/DSP/Source/FilteringFunctions/arm_conv_q7.c ****       /* sum += x[srcALen - srcBLen + 1] * y[srcBLen - 1] */
 613:.//Libraries/CMSIS/DSP/Source/FilteringFunctions/arm_conv_q7.c ****       /* sum += x[srcALen - srcBLen + 2] * y[srcBLen - 2] */
 614:.//Libraries/CMSIS/DSP/Source/FilteringFunctions/arm_conv_q7.c ****       sum = __SMLAD(input1, input2, sum);
 615:.//Libraries/CMSIS/DSP/Source/FilteringFunctions/arm_conv_q7.c **** 
 616:.//Libraries/CMSIS/DSP/Source/FilteringFunctions/arm_conv_q7.c ****       /* Reading two inputs, x[srcALen - srcBLen + 3] and x[srcALen - srcBLen + 4] of SrcA buffer a
 617:.//Libraries/CMSIS/DSP/Source/FilteringFunctions/arm_conv_q7.c ****       in1 = (q15_t) *px++;
 618:.//Libraries/CMSIS/DSP/Source/FilteringFunctions/arm_conv_q7.c ****       in2 = (q15_t) *px++;
 619:.//Libraries/CMSIS/DSP/Source/FilteringFunctions/arm_conv_q7.c ****       input1 = ((q31_t) in1 & 0x0000FFFF) | ((q31_t) in2 << 16U);
 620:.//Libraries/CMSIS/DSP/Source/FilteringFunctions/arm_conv_q7.c **** 
 621:.//Libraries/CMSIS/DSP/Source/FilteringFunctions/arm_conv_q7.c ****       /* Reading two inputs, y[srcBLen - 3] and y[srcBLen - 4] of SrcB buffer and packing */
 622:.//Libraries/CMSIS/DSP/Source/FilteringFunctions/arm_conv_q7.c ****       in1 = (q15_t) *py--;
 623:.//Libraries/CMSIS/DSP/Source/FilteringFunctions/arm_conv_q7.c ****       in2 = (q15_t) *py--;
 624:.//Libraries/CMSIS/DSP/Source/FilteringFunctions/arm_conv_q7.c ****       input2 = ((q31_t) in1 & 0x0000FFFF) | ((q31_t) in2 << 16U);
 625:.//Libraries/CMSIS/DSP/Source/FilteringFunctions/arm_conv_q7.c **** 
 626:.//Libraries/CMSIS/DSP/Source/FilteringFunctions/arm_conv_q7.c ****       /* sum += x[srcALen - srcBLen + 3] * y[srcBLen - 3] */
 627:.//Libraries/CMSIS/DSP/Source/FilteringFunctions/arm_conv_q7.c ****       /* sum += x[srcALen - srcBLen + 4] * y[srcBLen - 4] */
 628:.//Libraries/CMSIS/DSP/Source/FilteringFunctions/arm_conv_q7.c ****       sum = __SMLAD(input1, input2, sum);
 629:.//Libraries/CMSIS/DSP/Source/FilteringFunctions/arm_conv_q7.c **** 
 630:.//Libraries/CMSIS/DSP/Source/FilteringFunctions/arm_conv_q7.c ****       /* Decrement loop counter */
 631:.//Libraries/CMSIS/DSP/Source/FilteringFunctions/arm_conv_q7.c ****       k--;
 632:.//Libraries/CMSIS/DSP/Source/FilteringFunctions/arm_conv_q7.c ****     }
 633:.//Libraries/CMSIS/DSP/Source/FilteringFunctions/arm_conv_q7.c **** 
 634:.//Libraries/CMSIS/DSP/Source/FilteringFunctions/arm_conv_q7.c ****     /* Loop unrolling: Compute remaining outputs */
 635:.//Libraries/CMSIS/DSP/Source/FilteringFunctions/arm_conv_q7.c ****     k = blockSize3 % 0x4U;
 636:.//Libraries/CMSIS/DSP/Source/FilteringFunctions/arm_conv_q7.c **** 
 637:.//Libraries/CMSIS/DSP/Source/FilteringFunctions/arm_conv_q7.c **** #else
 638:.//Libraries/CMSIS/DSP/Source/FilteringFunctions/arm_conv_q7.c **** 
 639:.//Libraries/CMSIS/DSP/Source/FilteringFunctions/arm_conv_q7.c ****     /* Initialize blkCnt with number of samples */
ARM GAS  /var/folders/wl/rshn8xbx1dsfj1zgryf4g1240000gn/T//ccOLCVhb.s 			page 19


 640:.//Libraries/CMSIS/DSP/Source/FilteringFunctions/arm_conv_q7.c ****     k = blockSize3;
 641:.//Libraries/CMSIS/DSP/Source/FilteringFunctions/arm_conv_q7.c **** 
 642:.//Libraries/CMSIS/DSP/Source/FilteringFunctions/arm_conv_q7.c **** #endif /* #if defined (ARM_MATH_LOOPUNROLL) */
 643:.//Libraries/CMSIS/DSP/Source/FilteringFunctions/arm_conv_q7.c **** 
 644:.//Libraries/CMSIS/DSP/Source/FilteringFunctions/arm_conv_q7.c ****     while (k > 0U)
 645:.//Libraries/CMSIS/DSP/Source/FilteringFunctions/arm_conv_q7.c ****     {
 646:.//Libraries/CMSIS/DSP/Source/FilteringFunctions/arm_conv_q7.c ****       /* Perform the multiply-accumulate */
 647:.//Libraries/CMSIS/DSP/Source/FilteringFunctions/arm_conv_q7.c ****       /* sum +=  x[srcALen-1] * y[srcBLen-1] */
 648:.//Libraries/CMSIS/DSP/Source/FilteringFunctions/arm_conv_q7.c ****       sum += ((q15_t) *px++ * *py--);
 329              		.loc 1 648 7 is_stmt 1 view .LVU121
 330              		.loc 1 648 11 is_stmt 0 view .LVU122
 331 00d4 13F9015B 		ldrsb	r5, [r3], #1
 332              	.LVL45:
 333              		.loc 1 648 11 view .LVU123
 334 00d8 11F90149 		ldrsb	r4, [r1], #-1
 335              	.LVL46:
 644:.//Libraries/CMSIS/DSP/Source/FilteringFunctions/arm_conv_q7.c ****     {
 336              		.loc 1 644 11 view .LVU124
 337 00dc BB42     		cmp	r3, r7
 338              		.loc 1 648 11 view .LVU125
 339 00de 15FB0422 		smlabb	r2, r5, r4, r2
 340              	.LVL47:
 649:.//Libraries/CMSIS/DSP/Source/FilteringFunctions/arm_conv_q7.c **** 
 650:.//Libraries/CMSIS/DSP/Source/FilteringFunctions/arm_conv_q7.c ****       /* Decrement loop counter */
 651:.//Libraries/CMSIS/DSP/Source/FilteringFunctions/arm_conv_q7.c ****       k--;
 341              		.loc 1 651 7 is_stmt 1 view .LVU126
 644:.//Libraries/CMSIS/DSP/Source/FilteringFunctions/arm_conv_q7.c ****     {
 342              		.loc 1 644 11 view .LVU127
 343 00e2 F7D1     		bne	.L18
 652:.//Libraries/CMSIS/DSP/Source/FilteringFunctions/arm_conv_q7.c ****     }
 653:.//Libraries/CMSIS/DSP/Source/FilteringFunctions/arm_conv_q7.c **** 
 654:.//Libraries/CMSIS/DSP/Source/FilteringFunctions/arm_conv_q7.c ****     /* Store the result in the accumulator in the destination buffer. */
 655:.//Libraries/CMSIS/DSP/Source/FilteringFunctions/arm_conv_q7.c ****     *pOut++ = (q7_t) (__SSAT(sum >> 7U, 8));
 344              		.loc 1 655 5 view .LVU128
 345              	.LBB8:
 346              		.loc 1 655 23 view .LVU129
 347              	.LVL48:
 348              		.loc 1 655 23 view .LVU130
 349              	.LBE8:
 590:.//Libraries/CMSIS/DSP/Source/FilteringFunctions/arm_conv_q7.c ****   {
 350              		.loc 1 590 9 is_stmt 0 view .LVU131
 351 00e4 BCF1010C 		subs	ip, ip, #1
 352              	.LVL49:
 353              	.LBB9:
 354              		.loc 1 655 23 view .LVU132
 355 00e8 4FEAE212 		asr	r2, r2, #7
 356              	.LVL50:
 357              		.loc 1 655 23 view .LVU133
 358              		.syntax unified
 359              	@ 655 ".//Libraries/CMSIS/DSP/Source/FilteringFunctions/arm_conv_q7.c" 1
 360 00ec 02F30702 		ssat r2, #8, r2
 361              	@ 0 "" 2
 362              	.LVL51:
 363              		.loc 1 655 23 is_stmt 1 view .LVU134
 364              		.loc 1 655 23 is_stmt 0 view .LVU135
 365              		.thumb
 366              		.syntax unified
ARM GAS  /var/folders/wl/rshn8xbx1dsfj1zgryf4g1240000gn/T//ccOLCVhb.s 			page 20


 367              	.LBE9:
 368              		.loc 1 655 15 view .LVU136
 369 00f0 06F8012B 		strb	r2, [r6], #1
 370              	.LVL52:
 656:.//Libraries/CMSIS/DSP/Source/FilteringFunctions/arm_conv_q7.c **** 
 657:.//Libraries/CMSIS/DSP/Source/FilteringFunctions/arm_conv_q7.c ****     /* Update the inputA and inputB pointers for next MAC calculation */
 658:.//Libraries/CMSIS/DSP/Source/FilteringFunctions/arm_conv_q7.c ****     px = ++pSrc1;
 371              		.loc 1 658 5 is_stmt 1 view .LVU137
 659:.//Libraries/CMSIS/DSP/Source/FilteringFunctions/arm_conv_q7.c ****     py = pSrc2;
 372              		.loc 1 659 5 view .LVU138
 660:.//Libraries/CMSIS/DSP/Source/FilteringFunctions/arm_conv_q7.c **** 
 661:.//Libraries/CMSIS/DSP/Source/FilteringFunctions/arm_conv_q7.c ****     /* Decrement loop counter */
 662:.//Libraries/CMSIS/DSP/Source/FilteringFunctions/arm_conv_q7.c ****     blockSize3--;
 373              		.loc 1 662 5 view .LVU139
 590:.//Libraries/CMSIS/DSP/Source/FilteringFunctions/arm_conv_q7.c ****   {
 374              		.loc 1 590 9 view .LVU140
 375 00f4 E9D1     		bne	.L19
 376              	.LVL53:
 377              	.L1:
 663:.//Libraries/CMSIS/DSP/Source/FilteringFunctions/arm_conv_q7.c ****   }
 664:.//Libraries/CMSIS/DSP/Source/FilteringFunctions/arm_conv_q7.c **** 
 665:.//Libraries/CMSIS/DSP/Source/FilteringFunctions/arm_conv_q7.c **** #else
 666:.//Libraries/CMSIS/DSP/Source/FilteringFunctions/arm_conv_q7.c **** /* alternate version for CM0_FAMILY */
 667:.//Libraries/CMSIS/DSP/Source/FilteringFunctions/arm_conv_q7.c **** 
 668:.//Libraries/CMSIS/DSP/Source/FilteringFunctions/arm_conv_q7.c ****   const q7_t *pIn1 = pSrcA;                            /* InputA pointer */
 669:.//Libraries/CMSIS/DSP/Source/FilteringFunctions/arm_conv_q7.c ****   const q7_t *pIn2 = pSrcB;                            /* InputB pointer */
 670:.//Libraries/CMSIS/DSP/Source/FilteringFunctions/arm_conv_q7.c ****         q31_t sum;                                     /* Accumulator */
 671:.//Libraries/CMSIS/DSP/Source/FilteringFunctions/arm_conv_q7.c ****         uint32_t i, j;                                 /* Loop counters */
 672:.//Libraries/CMSIS/DSP/Source/FilteringFunctions/arm_conv_q7.c **** 
 673:.//Libraries/CMSIS/DSP/Source/FilteringFunctions/arm_conv_q7.c ****   /* Loop to calculate convolution for output length number of times */
 674:.//Libraries/CMSIS/DSP/Source/FilteringFunctions/arm_conv_q7.c ****   for (i = 0U; i < (srcALen + srcBLen - 1U); i++)
 675:.//Libraries/CMSIS/DSP/Source/FilteringFunctions/arm_conv_q7.c ****   {
 676:.//Libraries/CMSIS/DSP/Source/FilteringFunctions/arm_conv_q7.c ****     /* Initialize sum with zero to carry out MAC operations */
 677:.//Libraries/CMSIS/DSP/Source/FilteringFunctions/arm_conv_q7.c ****     sum = 0;
 678:.//Libraries/CMSIS/DSP/Source/FilteringFunctions/arm_conv_q7.c **** 
 679:.//Libraries/CMSIS/DSP/Source/FilteringFunctions/arm_conv_q7.c ****     /* Loop to perform MAC operations according to convolution equation */
 680:.//Libraries/CMSIS/DSP/Source/FilteringFunctions/arm_conv_q7.c ****     for (j = 0U; j <= i; j++)
 681:.//Libraries/CMSIS/DSP/Source/FilteringFunctions/arm_conv_q7.c ****     {
 682:.//Libraries/CMSIS/DSP/Source/FilteringFunctions/arm_conv_q7.c ****       /* Check the array limitations */
 683:.//Libraries/CMSIS/DSP/Source/FilteringFunctions/arm_conv_q7.c ****       if (((i - j) < srcBLen) && (j < srcALen))
 684:.//Libraries/CMSIS/DSP/Source/FilteringFunctions/arm_conv_q7.c ****       {
 685:.//Libraries/CMSIS/DSP/Source/FilteringFunctions/arm_conv_q7.c ****         /* z[i] += x[i-j] * y[j] */
 686:.//Libraries/CMSIS/DSP/Source/FilteringFunctions/arm_conv_q7.c ****         sum += ((q15_t) pIn1[j] * pIn2[i - j]);
 687:.//Libraries/CMSIS/DSP/Source/FilteringFunctions/arm_conv_q7.c ****       }
 688:.//Libraries/CMSIS/DSP/Source/FilteringFunctions/arm_conv_q7.c ****     }
 689:.//Libraries/CMSIS/DSP/Source/FilteringFunctions/arm_conv_q7.c **** 
 690:.//Libraries/CMSIS/DSP/Source/FilteringFunctions/arm_conv_q7.c ****     /* Store the output in the destination buffer */
 691:.//Libraries/CMSIS/DSP/Source/FilteringFunctions/arm_conv_q7.c ****     pDst[i] = (q7_t) __SSAT((sum >> 7U), 8U);
 692:.//Libraries/CMSIS/DSP/Source/FilteringFunctions/arm_conv_q7.c ****   }
 693:.//Libraries/CMSIS/DSP/Source/FilteringFunctions/arm_conv_q7.c **** 
 694:.//Libraries/CMSIS/DSP/Source/FilteringFunctions/arm_conv_q7.c **** #endif /* #if !defined(ARM_MATH_CM0_FAMILY) */
 695:.//Libraries/CMSIS/DSP/Source/FilteringFunctions/arm_conv_q7.c **** 
 696:.//Libraries/CMSIS/DSP/Source/FilteringFunctions/arm_conv_q7.c **** }
 378              		.loc 1 696 1 is_stmt 0 view .LVU141
 379 00f6 03B0     		add	sp, sp, #12
 380              	.LCFI2:
 381              		.cfi_remember_state
ARM GAS  /var/folders/wl/rshn8xbx1dsfj1zgryf4g1240000gn/T//ccOLCVhb.s 			page 21


 382              		.cfi_def_cfa_offset 36
 383              		@ sp needed
 384 00f8 BDE8F08F 		pop	{r4, r5, r6, r7, r8, r9, r10, fp, pc}
 385              	.LVL54:
 386              	.L38:
 387              	.LCFI3:
 388              		.cfi_restore_state
 531:.//Libraries/CMSIS/DSP/Source/FilteringFunctions/arm_conv_q7.c ****     {
 389              		.loc 1 531 11 is_stmt 1 view .LVU142
 390 00fc BAF1000F 		cmp	r10, #0
 391 0100 27D0     		beq	.L39
 392              	.LVL55:
 393              	.L20:
 531:.//Libraries/CMSIS/DSP/Source/FilteringFunctions/arm_conv_q7.c ****     {
 394              		.loc 1 531 11 is_stmt 0 view .LVU143
 395 0102 C518     		adds	r5, r0, r3
 396 0104 0EEB0A06 		add	r6, lr, r10
 241:.//Libraries/CMSIS/DSP/Source/FilteringFunctions/arm_conv_q7.c **** 
 397              		.loc 1 241 6 view .LVU144
 398 0108 0746     		mov	r7, r0
 399              	.LVL56:
 400              	.L10:
 539:.//Libraries/CMSIS/DSP/Source/FilteringFunctions/arm_conv_q7.c ****       {
 401              		.loc 1 539 13 is_stmt 1 view .LVU145
 402 010a D3B1     		cbz	r3, .L40
 539:.//Libraries/CMSIS/DSP/Source/FilteringFunctions/arm_conv_q7.c ****       {
 403              		.loc 1 539 13 is_stmt 0 view .LVU146
 404 010c 4446     		mov	r4, r8
 405 010e 3946     		mov	r1, r7
 534:.//Libraries/CMSIS/DSP/Source/FilteringFunctions/arm_conv_q7.c **** 
 406              		.loc 1 534 11 view .LVU147
 407 0110 0022     		movs	r2, #0
 408              	.LVL57:
 409              	.L14:
 542:.//Libraries/CMSIS/DSP/Source/FilteringFunctions/arm_conv_q7.c **** 
 410              		.loc 1 542 9 is_stmt 1 view .LVU148
 542:.//Libraries/CMSIS/DSP/Source/FilteringFunctions/arm_conv_q7.c **** 
 411              		.loc 1 542 13 is_stmt 0 view .LVU149
 412 0112 11F9019B 		ldrsb	r9, [r1], #1
 413              	.LVL58:
 542:.//Libraries/CMSIS/DSP/Source/FilteringFunctions/arm_conv_q7.c **** 
 414              		.loc 1 542 13 view .LVU150
 415 0116 14F901C9 		ldrsb	ip, [r4], #-1
 416              	.LVL59:
 539:.//Libraries/CMSIS/DSP/Source/FilteringFunctions/arm_conv_q7.c ****       {
 417              		.loc 1 539 13 view .LVU151
 418 011a A942     		cmp	r1, r5
 542:.//Libraries/CMSIS/DSP/Source/FilteringFunctions/arm_conv_q7.c **** 
 419              		.loc 1 542 13 view .LVU152
 420 011c 19FB0C22 		smlabb	r2, r9, ip, r2
 421              	.LVL60:
 545:.//Libraries/CMSIS/DSP/Source/FilteringFunctions/arm_conv_q7.c ****       }
 422              		.loc 1 545 9 is_stmt 1 view .LVU153
 539:.//Libraries/CMSIS/DSP/Source/FilteringFunctions/arm_conv_q7.c ****       {
 423              		.loc 1 539 13 view .LVU154
 424 0120 F7D1     		bne	.L14
 425 0122 D211     		asrs	r2, r2, #7
ARM GAS  /var/folders/wl/rshn8xbx1dsfj1zgryf4g1240000gn/T//ccOLCVhb.s 			page 22


 426              	.LVL61:
 427              	.L17:
 549:.//Libraries/CMSIS/DSP/Source/FilteringFunctions/arm_conv_q7.c **** 
 428              		.loc 1 549 7 view .LVU155
 429              	.LBB10:
 549:.//Libraries/CMSIS/DSP/Source/FilteringFunctions/arm_conv_q7.c **** 
 430              		.loc 1 549 25 view .LVU156
 549:.//Libraries/CMSIS/DSP/Source/FilteringFunctions/arm_conv_q7.c **** 
 431              		.loc 1 549 25 view .LVU157
 432              		.syntax unified
 433              	@ 549 ".//Libraries/CMSIS/DSP/Source/FilteringFunctions/arm_conv_q7.c" 1
 434 0124 02F30702 		ssat r2, #8, r2
 435              	@ 0 "" 2
 436              	.LVL62:
 549:.//Libraries/CMSIS/DSP/Source/FilteringFunctions/arm_conv_q7.c **** 
 437              		.loc 1 549 25 view .LVU158
 549:.//Libraries/CMSIS/DSP/Source/FilteringFunctions/arm_conv_q7.c **** 
 438              		.loc 1 549 25 is_stmt 0 view .LVU159
 439              		.thumb
 440              		.syntax unified
 441              	.LBE10:
 549:.//Libraries/CMSIS/DSP/Source/FilteringFunctions/arm_conv_q7.c **** 
 442              		.loc 1 549 17 view .LVU160
 443 0128 0EF8012B 		strb	r2, [lr], #1
 444              	.LVL63:
 552:.//Libraries/CMSIS/DSP/Source/FilteringFunctions/arm_conv_q7.c **** 
 445              		.loc 1 552 7 is_stmt 1 view .LVU161
 555:.//Libraries/CMSIS/DSP/Source/FilteringFunctions/arm_conv_q7.c ****       py = pSrc2;
 446              		.loc 1 555 7 view .LVU162
 531:.//Libraries/CMSIS/DSP/Source/FilteringFunctions/arm_conv_q7.c ****     {
 447              		.loc 1 531 11 is_stmt 0 view .LVU163
 448 012c B645     		cmp	lr, r6
 449 012e 07F10107 		add	r7, r7, #1
 450              	.LVL64:
 556:.//Libraries/CMSIS/DSP/Source/FilteringFunctions/arm_conv_q7.c **** 
 451              		.loc 1 556 7 is_stmt 1 view .LVU164
 559:.//Libraries/CMSIS/DSP/Source/FilteringFunctions/arm_conv_q7.c ****     }
 452              		.loc 1 559 7 view .LVU165
 531:.//Libraries/CMSIS/DSP/Source/FilteringFunctions/arm_conv_q7.c ****     {
 453              		.loc 1 531 11 view .LVU166
 454 0132 05F10105 		add	r5, r5, #1
 455 0136 E8D1     		bne	.L10
 456              	.LVL65:
 579:.//Libraries/CMSIS/DSP/Source/FilteringFunctions/arm_conv_q7.c ****   px = pSrc1;
 457              		.loc 1 579 3 view .LVU167
 590:.//Libraries/CMSIS/DSP/Source/FilteringFunctions/arm_conv_q7.c ****   {
 458              		.loc 1 590 9 is_stmt 0 view .LVU168
 459 0138 019B     		ldr	r3, [sp, #4]
 460              	.LVL66:
 579:.//Libraries/CMSIS/DSP/Source/FilteringFunctions/arm_conv_q7.c ****   px = pSrc1;
 461              		.loc 1 579 9 view .LVU169
 462 013a 5044     		add	r0, r0, r10
 463              	.LVL67:
 580:.//Libraries/CMSIS/DSP/Source/FilteringFunctions/arm_conv_q7.c **** 
 464              		.loc 1 580 3 is_stmt 1 view .LVU170
 583:.//Libraries/CMSIS/DSP/Source/FilteringFunctions/arm_conv_q7.c ****   py = pSrc2;
 465              		.loc 1 583 3 view .LVU171
ARM GAS  /var/folders/wl/rshn8xbx1dsfj1zgryf4g1240000gn/T//ccOLCVhb.s 			page 23


 584:.//Libraries/CMSIS/DSP/Source/FilteringFunctions/arm_conv_q7.c **** 
 466              		.loc 1 584 3 view .LVU172
 590:.//Libraries/CMSIS/DSP/Source/FilteringFunctions/arm_conv_q7.c ****   {
 467              		.loc 1 590 3 view .LVU173
 590:.//Libraries/CMSIS/DSP/Source/FilteringFunctions/arm_conv_q7.c ****   {
 468              		.loc 1 590 9 view .LVU174
 469 013c 002B     		cmp	r3, #0
 470 013e C1D1     		bne	.L15
 590:.//Libraries/CMSIS/DSP/Source/FilteringFunctions/arm_conv_q7.c ****   {
 471              		.loc 1 590 9 is_stmt 0 view .LVU175
 472 0140 D9E7     		b	.L1
 473              	.LVL68:
 474              	.L40:
 539:.//Libraries/CMSIS/DSP/Source/FilteringFunctions/arm_conv_q7.c ****       {
 475              		.loc 1 539 13 view .LVU176
 476 0142 1A46     		mov	r2, r3
 477 0144 EEE7     		b	.L17
 478              	.LVL69:
 479              	.L23:
 217:.//Libraries/CMSIS/DSP/Source/FilteringFunctions/arm_conv_q7.c **** 
 480              		.loc 1 217 10 view .LVU177
 481 0146 7646     		mov	r6, lr
 217:.//Libraries/CMSIS/DSP/Source/FilteringFunctions/arm_conv_q7.c **** 
 482              		.loc 1 217 10 view .LVU178
 483 0148 BBE7     		b	.L11
 484              	.LVL70:
 485              	.L3:
 241:.//Libraries/CMSIS/DSP/Source/FilteringFunctions/arm_conv_q7.c **** 
 486              		.loc 1 241 3 is_stmt 1 view .LVU179
 244:.//Libraries/CMSIS/DSP/Source/FilteringFunctions/arm_conv_q7.c ****   py = pSrc2;
 487              		.loc 1 244 3 view .LVU180
 245:.//Libraries/CMSIS/DSP/Source/FilteringFunctions/arm_conv_q7.c **** 
 488              		.loc 1 245 3 view .LVU181
 248:.//Libraries/CMSIS/DSP/Source/FilteringFunctions/arm_conv_q7.c **** 
 489              		.loc 1 248 3 view .LVU182
 257:.//Libraries/CMSIS/DSP/Source/FilteringFunctions/arm_conv_q7.c ****   {
 490              		.loc 1 257 3 view .LVU183
 531:.//Libraries/CMSIS/DSP/Source/FilteringFunctions/arm_conv_q7.c ****     {
 491              		.loc 1 531 11 view .LVU184
 492 014a BAF1000F 		cmp	r10, #0
 493 014e D8D1     		bne	.L20
 494 0150 D1E7     		b	.L1
 495              	.LVL71:
 496              	.L39:
 217:.//Libraries/CMSIS/DSP/Source/FilteringFunctions/arm_conv_q7.c **** 
 497              		.loc 1 217 10 is_stmt 0 view .LVU185
 498 0152 7646     		mov	r6, lr
 217:.//Libraries/CMSIS/DSP/Source/FilteringFunctions/arm_conv_q7.c **** 
 499              		.loc 1 217 10 view .LVU186
 500 0154 B6E7     		b	.L15
 501              		.cfi_endproc
 502              	.LFE145:
 504 0156 00BF     		.text
 505              	.Letext0:
 506              		.file 2 "/opt/homebrew/Cellar/arm-none-eabi-gcc/9-2019-q4-major/gcc/arm-none-eabi/include/machine/
 507              		.file 3 "/opt/homebrew/Cellar/arm-none-eabi-gcc/9-2019-q4-major/gcc/arm-none-eabi/include/sys/_std
 508              		.file 4 "/opt/homebrew/Cellar/arm-none-eabi-gcc/9-2019-q4-major/gcc/arm-none-eabi/include/sys/lock
ARM GAS  /var/folders/wl/rshn8xbx1dsfj1zgryf4g1240000gn/T//ccOLCVhb.s 			page 24


 509              		.file 5 "/opt/homebrew/Cellar/arm-none-eabi-gcc/9-2019-q4-major/gcc/arm-none-eabi/include/sys/_typ
 510              		.file 6 "/opt/homebrew/Cellar/arm-none-eabi-gcc/9-2019-q4-major/gcc/lib/gcc/arm-none-eabi/9.2.1/in
 511              		.file 7 "/opt/homebrew/Cellar/arm-none-eabi-gcc/9-2019-q4-major/gcc/arm-none-eabi/include/sys/reen
 512              		.file 8 "/opt/homebrew/Cellar/arm-none-eabi-gcc/9-2019-q4-major/gcc/arm-none-eabi/include/math.h"
 513              		.file 9 ".//Libraries/CMSIS/DSP/Include/arm_math.h"
ARM GAS  /var/folders/wl/rshn8xbx1dsfj1zgryf4g1240000gn/T//ccOLCVhb.s 			page 25

