ARM GAS  /var/folders/wl/rshn8xbx1dsfj1zgryf4g1240000gn/T//ccHQ5qI9.s 			page 1


   1              		.cpu cortex-m7
   2              		.eabi_attribute 28, 1
   3              		.eabi_attribute 20, 1
   4              		.eabi_attribute 21, 1
   5              		.eabi_attribute 23, 3
   6              		.eabi_attribute 24, 1
   7              		.eabi_attribute 25, 1
   8              		.eabi_attribute 26, 1
   9              		.eabi_attribute 30, 2
  10              		.eabi_attribute 34, 1
  11              		.eabi_attribute 18, 4
  12              		.file	"arm_rfft_q31.c"
  13              		.text
  14              	.Ltext0:
  15              		.cfi_sections	.debug_frame
  16              		.section	.text.arm_split_rfft_q31,"ax",%progbits
  17              		.align	1
  18              		.p2align 2,,3
  19              		.global	arm_split_rfft_q31
  20              		.arch armv7e-m
  21              		.syntax unified
  22              		.thumb
  23              		.thumb_func
  24              		.fpu fpv5-d16
  26              	arm_split_rfft_q31:
  27              	.LVL0:
  28              	.LFB146:
  29              		.file 1 ".//Libraries/CMSIS/DSP/Source/TransformFunctions/arm_rfft_q31.c"
   1:.//Libraries/CMSIS/DSP/Source/TransformFunctions/arm_rfft_q31.c **** /* ----------------------------------------------------------------------
   2:.//Libraries/CMSIS/DSP/Source/TransformFunctions/arm_rfft_q31.c ****  * Project:      CMSIS DSP Library
   3:.//Libraries/CMSIS/DSP/Source/TransformFunctions/arm_rfft_q31.c ****  * Title:        arm_rfft_q31.c
   4:.//Libraries/CMSIS/DSP/Source/TransformFunctions/arm_rfft_q31.c ****  * Description:  FFT & RIFFT Q31 process function
   5:.//Libraries/CMSIS/DSP/Source/TransformFunctions/arm_rfft_q31.c ****  *
   6:.//Libraries/CMSIS/DSP/Source/TransformFunctions/arm_rfft_q31.c ****  * $Date:        18. March 2019
   7:.//Libraries/CMSIS/DSP/Source/TransformFunctions/arm_rfft_q31.c ****  * $Revision:    V1.6.0
   8:.//Libraries/CMSIS/DSP/Source/TransformFunctions/arm_rfft_q31.c ****  *
   9:.//Libraries/CMSIS/DSP/Source/TransformFunctions/arm_rfft_q31.c ****  * Target Processor: Cortex-M cores
  10:.//Libraries/CMSIS/DSP/Source/TransformFunctions/arm_rfft_q31.c ****  * -------------------------------------------------------------------- */
  11:.//Libraries/CMSIS/DSP/Source/TransformFunctions/arm_rfft_q31.c **** /*
  12:.//Libraries/CMSIS/DSP/Source/TransformFunctions/arm_rfft_q31.c ****  * Copyright (C) 2010-2019 ARM Limited or its affiliates. All rights reserved.
  13:.//Libraries/CMSIS/DSP/Source/TransformFunctions/arm_rfft_q31.c ****  *
  14:.//Libraries/CMSIS/DSP/Source/TransformFunctions/arm_rfft_q31.c ****  * SPDX-License-Identifier: Apache-2.0
  15:.//Libraries/CMSIS/DSP/Source/TransformFunctions/arm_rfft_q31.c ****  *
  16:.//Libraries/CMSIS/DSP/Source/TransformFunctions/arm_rfft_q31.c ****  * Licensed under the Apache License, Version 2.0 (the License); you may
  17:.//Libraries/CMSIS/DSP/Source/TransformFunctions/arm_rfft_q31.c ****  * not use this file except in compliance with the License.
  18:.//Libraries/CMSIS/DSP/Source/TransformFunctions/arm_rfft_q31.c ****  * You may obtain a copy of the License at
  19:.//Libraries/CMSIS/DSP/Source/TransformFunctions/arm_rfft_q31.c ****  *
  20:.//Libraries/CMSIS/DSP/Source/TransformFunctions/arm_rfft_q31.c ****  * www.apache.org/licenses/LICENSE-2.0
  21:.//Libraries/CMSIS/DSP/Source/TransformFunctions/arm_rfft_q31.c ****  *
  22:.//Libraries/CMSIS/DSP/Source/TransformFunctions/arm_rfft_q31.c ****  * Unless required by applicable law or agreed to in writing, software
  23:.//Libraries/CMSIS/DSP/Source/TransformFunctions/arm_rfft_q31.c ****  * distributed under the License is distributed on an AS IS BASIS, WITHOUT
  24:.//Libraries/CMSIS/DSP/Source/TransformFunctions/arm_rfft_q31.c ****  * WARRANTIES OR CONDITIONS OF ANY KIND, either express or implied.
  25:.//Libraries/CMSIS/DSP/Source/TransformFunctions/arm_rfft_q31.c ****  * See the License for the specific language governing permissions and
  26:.//Libraries/CMSIS/DSP/Source/TransformFunctions/arm_rfft_q31.c ****  * limitations under the License.
  27:.//Libraries/CMSIS/DSP/Source/TransformFunctions/arm_rfft_q31.c ****  */
  28:.//Libraries/CMSIS/DSP/Source/TransformFunctions/arm_rfft_q31.c **** 
  29:.//Libraries/CMSIS/DSP/Source/TransformFunctions/arm_rfft_q31.c **** #include "arm_math.h"
ARM GAS  /var/folders/wl/rshn8xbx1dsfj1zgryf4g1240000gn/T//ccHQ5qI9.s 			page 2


  30:.//Libraries/CMSIS/DSP/Source/TransformFunctions/arm_rfft_q31.c **** 
  31:.//Libraries/CMSIS/DSP/Source/TransformFunctions/arm_rfft_q31.c **** /* ----------------------------------------------------------------------
  32:.//Libraries/CMSIS/DSP/Source/TransformFunctions/arm_rfft_q31.c ****  * Internal functions prototypes
  33:.//Libraries/CMSIS/DSP/Source/TransformFunctions/arm_rfft_q31.c ****  * -------------------------------------------------------------------- */
  34:.//Libraries/CMSIS/DSP/Source/TransformFunctions/arm_rfft_q31.c **** 
  35:.//Libraries/CMSIS/DSP/Source/TransformFunctions/arm_rfft_q31.c **** void arm_split_rfft_q31(
  36:.//Libraries/CMSIS/DSP/Source/TransformFunctions/arm_rfft_q31.c ****         q31_t * pSrc,
  37:.//Libraries/CMSIS/DSP/Source/TransformFunctions/arm_rfft_q31.c ****         uint32_t fftLen,
  38:.//Libraries/CMSIS/DSP/Source/TransformFunctions/arm_rfft_q31.c ****   const q31_t * pATable,
  39:.//Libraries/CMSIS/DSP/Source/TransformFunctions/arm_rfft_q31.c ****   const q31_t * pBTable,
  40:.//Libraries/CMSIS/DSP/Source/TransformFunctions/arm_rfft_q31.c ****         q31_t * pDst,
  41:.//Libraries/CMSIS/DSP/Source/TransformFunctions/arm_rfft_q31.c ****         uint32_t modifier);
  42:.//Libraries/CMSIS/DSP/Source/TransformFunctions/arm_rfft_q31.c **** 
  43:.//Libraries/CMSIS/DSP/Source/TransformFunctions/arm_rfft_q31.c **** void arm_split_rifft_q31(
  44:.//Libraries/CMSIS/DSP/Source/TransformFunctions/arm_rfft_q31.c ****         q31_t * pSrc,
  45:.//Libraries/CMSIS/DSP/Source/TransformFunctions/arm_rfft_q31.c ****         uint32_t fftLen,
  46:.//Libraries/CMSIS/DSP/Source/TransformFunctions/arm_rfft_q31.c ****   const q31_t * pATable,
  47:.//Libraries/CMSIS/DSP/Source/TransformFunctions/arm_rfft_q31.c ****   const q31_t * pBTable,
  48:.//Libraries/CMSIS/DSP/Source/TransformFunctions/arm_rfft_q31.c ****         q31_t * pDst,
  49:.//Libraries/CMSIS/DSP/Source/TransformFunctions/arm_rfft_q31.c ****         uint32_t modifier);
  50:.//Libraries/CMSIS/DSP/Source/TransformFunctions/arm_rfft_q31.c **** 
  51:.//Libraries/CMSIS/DSP/Source/TransformFunctions/arm_rfft_q31.c **** /**
  52:.//Libraries/CMSIS/DSP/Source/TransformFunctions/arm_rfft_q31.c ****   @addtogroup RealFFT
  53:.//Libraries/CMSIS/DSP/Source/TransformFunctions/arm_rfft_q31.c ****   @{
  54:.//Libraries/CMSIS/DSP/Source/TransformFunctions/arm_rfft_q31.c ****  */
  55:.//Libraries/CMSIS/DSP/Source/TransformFunctions/arm_rfft_q31.c **** 
  56:.//Libraries/CMSIS/DSP/Source/TransformFunctions/arm_rfft_q31.c **** /**
  57:.//Libraries/CMSIS/DSP/Source/TransformFunctions/arm_rfft_q31.c ****   @brief         Processing function for the Q31 RFFT/RIFFT.
  58:.//Libraries/CMSIS/DSP/Source/TransformFunctions/arm_rfft_q31.c ****   @param[in]     S     points to an instance of the Q31 RFFT/RIFFT structure
  59:.//Libraries/CMSIS/DSP/Source/TransformFunctions/arm_rfft_q31.c ****   @param[in]     pSrc  points to input buffer
  60:.//Libraries/CMSIS/DSP/Source/TransformFunctions/arm_rfft_q31.c ****   @param[out]    pDst  points to output buffer
  61:.//Libraries/CMSIS/DSP/Source/TransformFunctions/arm_rfft_q31.c ****   @return        none
  62:.//Libraries/CMSIS/DSP/Source/TransformFunctions/arm_rfft_q31.c **** 
  63:.//Libraries/CMSIS/DSP/Source/TransformFunctions/arm_rfft_q31.c ****   @par           Input an output formats
  64:.//Libraries/CMSIS/DSP/Source/TransformFunctions/arm_rfft_q31.c ****                    Internally input is downscaled by 2 for every stage to avoid saturations inside 
  65:.//Libraries/CMSIS/DSP/Source/TransformFunctions/arm_rfft_q31.c ****                    Hence the output format is different for different RFFT sizes.
  66:.//Libraries/CMSIS/DSP/Source/TransformFunctions/arm_rfft_q31.c ****                    The input and output formats for different RFFT sizes and number of bits to upsc
  67:.//Libraries/CMSIS/DSP/Source/TransformFunctions/arm_rfft_q31.c ****   @par
  68:.//Libraries/CMSIS/DSP/Source/TransformFunctions/arm_rfft_q31.c ****                    \image html RFFTQ31.gif "Input and Output Formats for Q31 RFFT"
  69:.//Libraries/CMSIS/DSP/Source/TransformFunctions/arm_rfft_q31.c ****   @par
  70:.//Libraries/CMSIS/DSP/Source/TransformFunctions/arm_rfft_q31.c ****                    \image html RIFFTQ31.gif "Input and Output Formats for Q31 RIFFT"
  71:.//Libraries/CMSIS/DSP/Source/TransformFunctions/arm_rfft_q31.c ****  */
  72:.//Libraries/CMSIS/DSP/Source/TransformFunctions/arm_rfft_q31.c **** 
  73:.//Libraries/CMSIS/DSP/Source/TransformFunctions/arm_rfft_q31.c **** void arm_rfft_q31(
  74:.//Libraries/CMSIS/DSP/Source/TransformFunctions/arm_rfft_q31.c ****   const arm_rfft_instance_q31 * S,
  75:.//Libraries/CMSIS/DSP/Source/TransformFunctions/arm_rfft_q31.c ****         q31_t * pSrc,
  76:.//Libraries/CMSIS/DSP/Source/TransformFunctions/arm_rfft_q31.c ****         q31_t * pDst)
  77:.//Libraries/CMSIS/DSP/Source/TransformFunctions/arm_rfft_q31.c **** {
  78:.//Libraries/CMSIS/DSP/Source/TransformFunctions/arm_rfft_q31.c ****   const arm_cfft_instance_q31 *S_CFFT = S->pCfft;
  79:.//Libraries/CMSIS/DSP/Source/TransformFunctions/arm_rfft_q31.c ****         uint32_t L2 = S->fftLenReal >> 1U;
  80:.//Libraries/CMSIS/DSP/Source/TransformFunctions/arm_rfft_q31.c ****         uint32_t i;
  81:.//Libraries/CMSIS/DSP/Source/TransformFunctions/arm_rfft_q31.c **** 
  82:.//Libraries/CMSIS/DSP/Source/TransformFunctions/arm_rfft_q31.c ****   /* Calculation of RIFFT of input */
  83:.//Libraries/CMSIS/DSP/Source/TransformFunctions/arm_rfft_q31.c ****   if (S->ifftFlagR == 1U)
  84:.//Libraries/CMSIS/DSP/Source/TransformFunctions/arm_rfft_q31.c ****   {
  85:.//Libraries/CMSIS/DSP/Source/TransformFunctions/arm_rfft_q31.c ****      /*  Real IFFT core process */
  86:.//Libraries/CMSIS/DSP/Source/TransformFunctions/arm_rfft_q31.c ****      arm_split_rifft_q31 (pSrc, L2, S->pTwiddleAReal, S->pTwiddleBReal, pDst, S->twidCoefRModifier)
ARM GAS  /var/folders/wl/rshn8xbx1dsfj1zgryf4g1240000gn/T//ccHQ5qI9.s 			page 3


  87:.//Libraries/CMSIS/DSP/Source/TransformFunctions/arm_rfft_q31.c **** 
  88:.//Libraries/CMSIS/DSP/Source/TransformFunctions/arm_rfft_q31.c ****      /* Complex IFFT process */
  89:.//Libraries/CMSIS/DSP/Source/TransformFunctions/arm_rfft_q31.c ****      arm_cfft_q31 (S_CFFT, pDst, S->ifftFlagR, S->bitReverseFlagR);
  90:.//Libraries/CMSIS/DSP/Source/TransformFunctions/arm_rfft_q31.c **** 
  91:.//Libraries/CMSIS/DSP/Source/TransformFunctions/arm_rfft_q31.c ****      for(i = 0; i < S->fftLenReal; i++)
  92:.//Libraries/CMSIS/DSP/Source/TransformFunctions/arm_rfft_q31.c ****      {
  93:.//Libraries/CMSIS/DSP/Source/TransformFunctions/arm_rfft_q31.c ****         pDst[i] = pDst[i] << 1U;
  94:.//Libraries/CMSIS/DSP/Source/TransformFunctions/arm_rfft_q31.c ****      }
  95:.//Libraries/CMSIS/DSP/Source/TransformFunctions/arm_rfft_q31.c ****   }
  96:.//Libraries/CMSIS/DSP/Source/TransformFunctions/arm_rfft_q31.c ****   else
  97:.//Libraries/CMSIS/DSP/Source/TransformFunctions/arm_rfft_q31.c ****   {
  98:.//Libraries/CMSIS/DSP/Source/TransformFunctions/arm_rfft_q31.c ****      /* Calculation of RFFT of input */
  99:.//Libraries/CMSIS/DSP/Source/TransformFunctions/arm_rfft_q31.c **** 
 100:.//Libraries/CMSIS/DSP/Source/TransformFunctions/arm_rfft_q31.c ****      /* Complex FFT process */
 101:.//Libraries/CMSIS/DSP/Source/TransformFunctions/arm_rfft_q31.c ****      arm_cfft_q31 (S_CFFT, pSrc, S->ifftFlagR, S->bitReverseFlagR);
 102:.//Libraries/CMSIS/DSP/Source/TransformFunctions/arm_rfft_q31.c **** 
 103:.//Libraries/CMSIS/DSP/Source/TransformFunctions/arm_rfft_q31.c ****      /*  Real FFT core process */
 104:.//Libraries/CMSIS/DSP/Source/TransformFunctions/arm_rfft_q31.c ****      arm_split_rfft_q31 (pSrc, L2, S->pTwiddleAReal, S->pTwiddleBReal, pDst, S->twidCoefRModifier);
 105:.//Libraries/CMSIS/DSP/Source/TransformFunctions/arm_rfft_q31.c ****   }
 106:.//Libraries/CMSIS/DSP/Source/TransformFunctions/arm_rfft_q31.c **** 
 107:.//Libraries/CMSIS/DSP/Source/TransformFunctions/arm_rfft_q31.c **** }
 108:.//Libraries/CMSIS/DSP/Source/TransformFunctions/arm_rfft_q31.c **** 
 109:.//Libraries/CMSIS/DSP/Source/TransformFunctions/arm_rfft_q31.c **** /**
 110:.//Libraries/CMSIS/DSP/Source/TransformFunctions/arm_rfft_q31.c ****   @} end of RealFFT group
 111:.//Libraries/CMSIS/DSP/Source/TransformFunctions/arm_rfft_q31.c ****  */
 112:.//Libraries/CMSIS/DSP/Source/TransformFunctions/arm_rfft_q31.c **** 
 113:.//Libraries/CMSIS/DSP/Source/TransformFunctions/arm_rfft_q31.c **** /**
 114:.//Libraries/CMSIS/DSP/Source/TransformFunctions/arm_rfft_q31.c ****   @brief         Core Real FFT process
 115:.//Libraries/CMSIS/DSP/Source/TransformFunctions/arm_rfft_q31.c ****   @param[in]     pSrc      points to input buffer
 116:.//Libraries/CMSIS/DSP/Source/TransformFunctions/arm_rfft_q31.c ****   @param[in]     fftLen    length of FFT
 117:.//Libraries/CMSIS/DSP/Source/TransformFunctions/arm_rfft_q31.c ****   @param[in]     pATable   points to twiddle Coef A buffer
 118:.//Libraries/CMSIS/DSP/Source/TransformFunctions/arm_rfft_q31.c ****   @param[in]     pBTable   points to twiddle Coef B buffer
 119:.//Libraries/CMSIS/DSP/Source/TransformFunctions/arm_rfft_q31.c ****   @param[out]    pDst      points to output buffer
 120:.//Libraries/CMSIS/DSP/Source/TransformFunctions/arm_rfft_q31.c ****   @param[in]     modifier  twiddle coefficient modifier that supports different size FFTs with the 
 121:.//Libraries/CMSIS/DSP/Source/TransformFunctions/arm_rfft_q31.c ****   @return        none
 122:.//Libraries/CMSIS/DSP/Source/TransformFunctions/arm_rfft_q31.c ****  */
 123:.//Libraries/CMSIS/DSP/Source/TransformFunctions/arm_rfft_q31.c **** 
 124:.//Libraries/CMSIS/DSP/Source/TransformFunctions/arm_rfft_q31.c **** void arm_split_rfft_q31(
 125:.//Libraries/CMSIS/DSP/Source/TransformFunctions/arm_rfft_q31.c ****         q31_t * pSrc,
 126:.//Libraries/CMSIS/DSP/Source/TransformFunctions/arm_rfft_q31.c ****         uint32_t fftLen,
 127:.//Libraries/CMSIS/DSP/Source/TransformFunctions/arm_rfft_q31.c ****   const q31_t * pATable,
 128:.//Libraries/CMSIS/DSP/Source/TransformFunctions/arm_rfft_q31.c ****   const q31_t * pBTable,
 129:.//Libraries/CMSIS/DSP/Source/TransformFunctions/arm_rfft_q31.c ****         q31_t * pDst,
 130:.//Libraries/CMSIS/DSP/Source/TransformFunctions/arm_rfft_q31.c ****         uint32_t modifier)
 131:.//Libraries/CMSIS/DSP/Source/TransformFunctions/arm_rfft_q31.c **** {
  30              		.loc 1 131 1 view -0
  31              		.cfi_startproc
  32              		@ args = 8, pretend = 0, frame = 72
  33              		@ frame_needed = 0, uses_anonymous_args = 0
 132:.//Libraries/CMSIS/DSP/Source/TransformFunctions/arm_rfft_q31.c ****         uint32_t i;                                    /* Loop Counter */
  34              		.loc 1 132 9 view .LVU1
 133:.//Libraries/CMSIS/DSP/Source/TransformFunctions/arm_rfft_q31.c ****         q31_t outR, outI;                              /* Temporary variables for output */
  35              		.loc 1 133 9 view .LVU2
 134:.//Libraries/CMSIS/DSP/Source/TransformFunctions/arm_rfft_q31.c ****   const q31_t *pCoefA, *pCoefB;                        /* Temporary pointers for twiddle factors */
  36              		.loc 1 134 3 view .LVU3
 135:.//Libraries/CMSIS/DSP/Source/TransformFunctions/arm_rfft_q31.c ****         q31_t CoefA1, CoefA2, CoefB1;                  /* Temporary variables for twiddle coefficie
  37              		.loc 1 135 9 view .LVU4
ARM GAS  /var/folders/wl/rshn8xbx1dsfj1zgryf4g1240000gn/T//ccHQ5qI9.s 			page 4


 136:.//Libraries/CMSIS/DSP/Source/TransformFunctions/arm_rfft_q31.c ****         q31_t *pOut1 = &pDst[2], *pOut2 = &pDst[4 * fftLen - 1];
  38              		.loc 1 136 9 view .LVU5
 131:.//Libraries/CMSIS/DSP/Source/TransformFunctions/arm_rfft_q31.c ****         uint32_t i;                                    /* Loop Counter */
  39              		.loc 1 131 1 is_stmt 0 view .LVU6
  40 0000 2DE9F04F 		push	{r4, r5, r6, r7, r8, r9, r10, fp, lr}
  41              	.LCFI0:
  42              		.cfi_def_cfa_offset 36
  43              		.cfi_offset 4, -36
  44              		.cfi_offset 5, -32
  45              		.cfi_offset 6, -28
  46              		.cfi_offset 7, -24
  47              		.cfi_offset 8, -20
  48              		.cfi_offset 9, -16
  49              		.cfi_offset 10, -12
  50              		.cfi_offset 11, -8
  51              		.cfi_offset 14, -4
  52 0004 93B0     		sub	sp, sp, #76
  53              	.LCFI1:
  54              		.cfi_def_cfa_offset 112
  55              	.LVL1:
 131:.//Libraries/CMSIS/DSP/Source/TransformFunctions/arm_rfft_q31.c ****         uint32_t i;                                    /* Loop Counter */
  56              		.loc 1 131 1 view .LVU7
  57 0006 0C46     		mov	r4, r1
  58              	.LVL2:
 137:.//Libraries/CMSIS/DSP/Source/TransformFunctions/arm_rfft_q31.c ****         q31_t *pIn1 =  &pSrc[2], *pIn2 =  &pSrc[2 * fftLen - 1];
  59              		.loc 1 137 9 is_stmt 1 view .LVU8
 131:.//Libraries/CMSIS/DSP/Source/TransformFunctions/arm_rfft_q31.c ****         uint32_t i;                                    /* Loop Counter */
  60              		.loc 1 131 1 is_stmt 0 view .LVU9
  61 0008 1191     		str	r1, [sp, #68]
  62              		.loc 1 137 48 view .LVU10
  63 000a E500     		lsls	r5, r4, #3
 131:.//Libraries/CMSIS/DSP/Source/TransformFunctions/arm_rfft_q31.c ****         uint32_t i;                                    /* Loop Counter */
  64              		.loc 1 131 1 view .LVU11
  65 000c 1D99     		ldr	r1, [sp, #116]
  66              	.LVL3:
 131:.//Libraries/CMSIS/DSP/Source/TransformFunctions/arm_rfft_q31.c ****         uint32_t i;                                    /* Loop Counter */
  67              		.loc 1 131 1 view .LVU12
  68 000e 1090     		str	r0, [sp, #64]
 138:.//Libraries/CMSIS/DSP/Source/TransformFunctions/arm_rfft_q31.c **** 
 139:.//Libraries/CMSIS/DSP/Source/TransformFunctions/arm_rfft_q31.c ****   /* Init coefficient pointers */
 140:.//Libraries/CMSIS/DSP/Source/TransformFunctions/arm_rfft_q31.c ****   pCoefA = &pATable[modifier * 2];
 141:.//Libraries/CMSIS/DSP/Source/TransformFunctions/arm_rfft_q31.c ****   pCoefB = &pBTable[modifier * 2];
  69              		.loc 1 141 10 view .LVU13
  70 0010 03EBC103 		add	r3, r3, r1, lsl #3
  71              	.LVL4:
 137:.//Libraries/CMSIS/DSP/Source/TransformFunctions/arm_rfft_q31.c ****         q31_t *pIn1 =  &pSrc[2], *pIn2 =  &pSrc[2 * fftLen - 1];
  72              		.loc 1 137 48 view .LVU14
  73 0014 0F95     		str	r5, [sp, #60]
  74              	.LVL5:
 140:.//Libraries/CMSIS/DSP/Source/TransformFunctions/arm_rfft_q31.c ****   pCoefB = &pBTable[modifier * 2];
  75              		.loc 1 140 3 is_stmt 1 view .LVU15
 140:.//Libraries/CMSIS/DSP/Source/TransformFunctions/arm_rfft_q31.c ****   pCoefB = &pBTable[modifier * 2];
  76              		.loc 1 140 10 is_stmt 0 view .LVU16
  77 0016 02EBC102 		add	r2, r2, r1, lsl #3
  78              	.LVL6:
  79              		.loc 1 141 10 view .LVU17
  80 001a 0D93     		str	r3, [sp, #52]
ARM GAS  /var/folders/wl/rshn8xbx1dsfj1zgryf4g1240000gn/T//ccHQ5qI9.s 			page 5


 140:.//Libraries/CMSIS/DSP/Source/TransformFunctions/arm_rfft_q31.c ****   pCoefB = &pBTable[modifier * 2];
  81              		.loc 1 140 20 view .LVU18
  82 001c CB00     		lsls	r3, r1, #3
 140:.//Libraries/CMSIS/DSP/Source/TransformFunctions/arm_rfft_q31.c ****   pCoefB = &pBTable[modifier * 2];
  83              		.loc 1 140 10 view .LVU19
  84 001e 0C92     		str	r2, [sp, #48]
  85              	.LVL7:
  86              		.loc 1 141 3 is_stmt 1 view .LVU20
 142:.//Libraries/CMSIS/DSP/Source/TransformFunctions/arm_rfft_q31.c **** 
 143:.//Libraries/CMSIS/DSP/Source/TransformFunctions/arm_rfft_q31.c ****   i = fftLen - 1U;
  87              		.loc 1 143 3 view .LVU21
 144:.//Libraries/CMSIS/DSP/Source/TransformFunctions/arm_rfft_q31.c **** 
 145:.//Libraries/CMSIS/DSP/Source/TransformFunctions/arm_rfft_q31.c ****   while (i > 0U)
  88              		.loc 1 145 3 view .LVU22
  89              		.loc 1 145 9 view .LVU23
 140:.//Libraries/CMSIS/DSP/Source/TransformFunctions/arm_rfft_q31.c ****   pCoefB = &pBTable[modifier * 2];
  90              		.loc 1 140 20 is_stmt 0 view .LVU24
  91 0020 0B93     		str	r3, [sp, #44]
  92              		.loc 1 145 9 view .LVU25
  93 0022 631E     		subs	r3, r4, #1
  94              	.LVL8:
  95              		.loc 1 145 9 view .LVU26
  96 0024 0693     		str	r3, [sp, #24]
  97 0026 00F09A80 		beq	.L2
  98 002a 0146     		mov	r1, r0
  99 002c 4FEA041A 		lsl	r10, r4, #4
 100              	.LVL9:
 101              		.loc 1 145 9 view .LVU27
 102 0030 1030     		adds	r0, r0, #16
 103              	.LVL10:
 104              		.loc 1 145 9 view .LVU28
 105 0032 A5F10C03 		sub	r3, r5, #12
 106              	.LVL11:
 107              		.loc 1 145 9 view .LVU29
 108 0036 AAF10C0A 		sub	r10, r10, #12
 109              	.LVL12:
 110              		.loc 1 145 9 view .LVU30
 111 003a 4FF0000B 		mov	fp, #0
 112 003e CB18     		adds	r3, r1, r3
 113 0040 0790     		str	r0, [sp, #28]
 114 0042 1C98     		ldr	r0, [sp, #112]
 115 0044 0432     		adds	r2, r2, #4
 116              	.LVL13:
 146:.//Libraries/CMSIS/DSP/Source/TransformFunctions/arm_rfft_q31.c ****   {
 147:.//Libraries/CMSIS/DSP/Source/TransformFunctions/arm_rfft_q31.c ****      /*
 148:.//Libraries/CMSIS/DSP/Source/TransformFunctions/arm_rfft_q31.c ****        outR = (  pSrc[2 * i]             * pATable[2 * i]
 149:.//Libraries/CMSIS/DSP/Source/TransformFunctions/arm_rfft_q31.c ****                - pSrc[2 * i + 1]         * pATable[2 * i + 1]
 150:.//Libraries/CMSIS/DSP/Source/TransformFunctions/arm_rfft_q31.c ****                + pSrc[2 * n - 2 * i]     * pBTable[2 * i]
 151:.//Libraries/CMSIS/DSP/Source/TransformFunctions/arm_rfft_q31.c ****                + pSrc[2 * n - 2 * i + 1] * pBTable[2 * i + 1]);
 152:.//Libraries/CMSIS/DSP/Source/TransformFunctions/arm_rfft_q31.c **** 
 153:.//Libraries/CMSIS/DSP/Source/TransformFunctions/arm_rfft_q31.c ****        outI = (  pIn[2 * i + 1]         * pATable[2 * i]
 154:.//Libraries/CMSIS/DSP/Source/TransformFunctions/arm_rfft_q31.c ****                + pIn[2 * i]             * pATable[2 * i + 1]
 155:.//Libraries/CMSIS/DSP/Source/TransformFunctions/arm_rfft_q31.c ****                + pIn[2 * n - 2 * i]     * pBTable[2 * i + 1]
 156:.//Libraries/CMSIS/DSP/Source/TransformFunctions/arm_rfft_q31.c ****                - pIn[2 * n - 2 * i + 1] * pBTable[2 * i]);
 157:.//Libraries/CMSIS/DSP/Source/TransformFunctions/arm_rfft_q31.c ****       */
 158:.//Libraries/CMSIS/DSP/Source/TransformFunctions/arm_rfft_q31.c **** 
 159:.//Libraries/CMSIS/DSP/Source/TransformFunctions/arm_rfft_q31.c ****      CoefA1 = *pCoefA++;
ARM GAS  /var/folders/wl/rshn8xbx1dsfj1zgryf4g1240000gn/T//ccHQ5qI9.s 			page 6


 160:.//Libraries/CMSIS/DSP/Source/TransformFunctions/arm_rfft_q31.c ****      CoefA2 = *pCoefA;
 161:.//Libraries/CMSIS/DSP/Source/TransformFunctions/arm_rfft_q31.c **** 
 162:.//Libraries/CMSIS/DSP/Source/TransformFunctions/arm_rfft_q31.c ****      /* outR = (pSrc[2 * i] * pATable[2 * i] */
 163:.//Libraries/CMSIS/DSP/Source/TransformFunctions/arm_rfft_q31.c ****      mult_32x32_keep32_R (outR, *pIn1, CoefA1);
 164:.//Libraries/CMSIS/DSP/Source/TransformFunctions/arm_rfft_q31.c **** 
 165:.//Libraries/CMSIS/DSP/Source/TransformFunctions/arm_rfft_q31.c ****      /* outI = pIn[2 * i] * pATable[2 * i + 1] */
 166:.//Libraries/CMSIS/DSP/Source/TransformFunctions/arm_rfft_q31.c ****      mult_32x32_keep32_R (outI, *pIn1++, CoefA2);
 167:.//Libraries/CMSIS/DSP/Source/TransformFunctions/arm_rfft_q31.c **** 
 168:.//Libraries/CMSIS/DSP/Source/TransformFunctions/arm_rfft_q31.c ****      /* - pSrc[2 * i + 1] * pATable[2 * i + 1] */
 169:.//Libraries/CMSIS/DSP/Source/TransformFunctions/arm_rfft_q31.c ****      multSub_32x32_keep32_R (outR, *pIn1, CoefA2);
 117              		.loc 1 169 6 view .LVU31
 118 0046 DE46     		mov	lr, fp
 163:.//Libraries/CMSIS/DSP/Source/TransformFunctions/arm_rfft_q31.c **** 
 119              		.loc 1 163 6 view .LVU32
 120 0048 9C46     		mov	ip, r3
 121 004a 00F11008 		add	r8, r0, #16
 122 004e 8244     		add	r10, r10, r0
 123              	.LVL14:
 163:.//Libraries/CMSIS/DSP/Source/TransformFunctions/arm_rfft_q31.c **** 
 124              		.loc 1 163 6 view .LVU33
 125 0050 0E92     		str	r2, [sp, #56]
 126 0052 CDF82880 		str	r8, [sp, #40]
 127              	.LVL15:
 128              	.L3:
 159:.//Libraries/CMSIS/DSP/Source/TransformFunctions/arm_rfft_q31.c ****      CoefA2 = *pCoefA;
 129              		.loc 1 159 6 is_stmt 1 view .LVU34
 130              		.loc 1 169 6 is_stmt 0 view .LVU35
 131 0056 0799     		ldr	r1, [sp, #28]
 132 0058 ACF1080C 		sub	ip, ip, #8
 133              	.LVL16:
 160:.//Libraries/CMSIS/DSP/Source/TransformFunctions/arm_rfft_q31.c **** 
 134              		.loc 1 160 13 view .LVU36
 135 005c 0E9B     		ldr	r3, [sp, #56]
 136 005e AAF1080A 		sub	r10, r10, #8
 137              		.loc 1 169 6 view .LVU37
 138 0062 51F8042C 		ldr	r2, [r1, #-4]
 139 0066 0831     		adds	r1, r1, #8
 160:.//Libraries/CMSIS/DSP/Source/TransformFunctions/arm_rfft_q31.c **** 
 140              		.loc 1 160 13 view .LVU38
 141 0068 53F80B30 		ldr	r3, [r3, fp]
 159:.//Libraries/CMSIS/DSP/Source/TransformFunctions/arm_rfft_q31.c ****      CoefA2 = *pCoefA;
 142              		.loc 1 159 13 view .LVU39
 143 006c 0C98     		ldr	r0, [sp, #48]
 144              		.loc 1 169 6 view .LVU40
 145 006e 83FB0289 		smull	r8, r9, r3, r2
 163:.//Libraries/CMSIS/DSP/Source/TransformFunctions/arm_rfft_q31.c **** 
 146              		.loc 1 163 6 view .LVU41
 147 0072 51F8107C 		ldr	r7, [r1, #-16]
 159:.//Libraries/CMSIS/DSP/Source/TransformFunctions/arm_rfft_q31.c ****      CoefA2 = *pCoefA;
 148              		.loc 1 159 13 view .LVU42
 149 0076 50F80B40 		ldr	r4, [r0, fp]
 150              	.LVL17:
 160:.//Libraries/CMSIS/DSP/Source/TransformFunctions/arm_rfft_q31.c **** 
 151              		.loc 1 160 6 is_stmt 1 view .LVU43
 163:.//Libraries/CMSIS/DSP/Source/TransformFunctions/arm_rfft_q31.c **** 
 152              		.loc 1 163 6 view .LVU44
 166:.//Libraries/CMSIS/DSP/Source/TransformFunctions/arm_rfft_q31.c **** 
ARM GAS  /var/folders/wl/rshn8xbx1dsfj1zgryf4g1240000gn/T//ccHQ5qI9.s 			page 7


 153              		.loc 1 166 6 view .LVU45
 154              		.loc 1 169 6 view .LVU46
 170:.//Libraries/CMSIS/DSP/Source/TransformFunctions/arm_rfft_q31.c **** 
 171:.//Libraries/CMSIS/DSP/Source/TransformFunctions/arm_rfft_q31.c ****      /* (pIn[2 * i + 1] * pATable[2 * i] */
 172:.//Libraries/CMSIS/DSP/Source/TransformFunctions/arm_rfft_q31.c ****      multAcc_32x32_keep32_R (outI, *pIn1++, CoefA1);
 155              		.loc 1 172 6 view .LVU47
 173:.//Libraries/CMSIS/DSP/Source/TransformFunctions/arm_rfft_q31.c **** 
 174:.//Libraries/CMSIS/DSP/Source/TransformFunctions/arm_rfft_q31.c ****      /* pSrc[2 * n - 2 * i] * pBTable[2 * i]  */
 175:.//Libraries/CMSIS/DSP/Source/TransformFunctions/arm_rfft_q31.c ****      multSub_32x32_keep32_R (outR, *pIn2, CoefA2);
 156              		.loc 1 175 6 view .LVU48
 169:.//Libraries/CMSIS/DSP/Source/TransformFunctions/arm_rfft_q31.c **** 
 157              		.loc 1 169 6 is_stmt 0 view .LVU49
 158 007a BEEB0800 		subs	r0, lr, r8
 159 007e 0791     		str	r1, [sp, #28]
 163:.//Libraries/CMSIS/DSP/Source/TransformFunctions/arm_rfft_q31.c **** 
 160              		.loc 1 163 6 view .LVU50
 161 0080 3946     		mov	r1, r7
 162              		.loc 1 175 6 view .LVU51
 163 0082 DCF81050 		ldr	r5, [ip, #16]
 164              	.LVL18:
 176:.//Libraries/CMSIS/DSP/Source/TransformFunctions/arm_rfft_q31.c ****      CoefB1 = *pCoefB;
 165              		.loc 1 176 6 is_stmt 1 view .LVU52
 172:.//Libraries/CMSIS/DSP/Source/TransformFunctions/arm_rfft_q31.c **** 
 166              		.loc 1 172 6 is_stmt 0 view .LVU53
 167 0086 CDF810E0 		str	lr, [sp, #16]
 177:.//Libraries/CMSIS/DSP/Source/TransformFunctions/arm_rfft_q31.c **** 
 178:.//Libraries/CMSIS/DSP/Source/TransformFunctions/arm_rfft_q31.c ****      /* pIn[2 * n - 2 * i] * pBTable[2 * i + 1] */
 179:.//Libraries/CMSIS/DSP/Source/TransformFunctions/arm_rfft_q31.c ****      multSub_32x32_keep32_R (outI, *pIn2--, CoefB1);
 180:.//Libraries/CMSIS/DSP/Source/TransformFunctions/arm_rfft_q31.c **** 
 181:.//Libraries/CMSIS/DSP/Source/TransformFunctions/arm_rfft_q31.c ****      /* pSrc[2 * n - 2 * i + 1] * pBTable[2 * i + 1] */
 182:.//Libraries/CMSIS/DSP/Source/TransformFunctions/arm_rfft_q31.c ****      multAcc_32x32_keep32_R (outR, *pIn2, CoefB1);
 168              		.loc 1 182 6 view .LVU54
 169 008a DCF80C60 		ldr	r6, [ip, #12]
 170 008e CDF808E0 		str	lr, [sp, #8]
 169:.//Libraries/CMSIS/DSP/Source/TransformFunctions/arm_rfft_q31.c **** 
 171              		.loc 1 169 6 view .LVU55
 172 0092 CDE90089 		strd	r8, [sp]
 163:.//Libraries/CMSIS/DSP/Source/TransformFunctions/arm_rfft_q31.c **** 
 173              		.loc 1 163 6 view .LVU56
 174 0096 4FF00048 		mov	r8, #-2147483648
 175 009a 4FF00009 		mov	r9, #0
 176 009e C4FB0789 		smlal	r8, r9, r4, r7
 169:.//Libraries/CMSIS/DSP/Source/TransformFunctions/arm_rfft_q31.c **** 
 177              		.loc 1 169 6 view .LVU57
 178 00a2 019F     		ldr	r7, [sp, #4]
 179              	.LVL19:
 169:.//Libraries/CMSIS/DSP/Source/TransformFunctions/arm_rfft_q31.c **** 
 180              		.loc 1 169 6 view .LVU58
 181 00a4 69EB0709 		sbc	r9, r9, r7
 182 00a8 10F10040 		adds	r0, r0, #-2147483648
 176:.//Libraries/CMSIS/DSP/Source/TransformFunctions/arm_rfft_q31.c **** 
 183              		.loc 1 176 13 view .LVU59
 184 00ac 0D98     		ldr	r0, [sp, #52]
 175:.//Libraries/CMSIS/DSP/Source/TransformFunctions/arm_rfft_q31.c ****      CoefB1 = *pCoefB;
 185              		.loc 1 175 6 view .LVU60
 186 00ae 83FB0578 		smull	r7, r8, r3, r5
 169:.//Libraries/CMSIS/DSP/Source/TransformFunctions/arm_rfft_q31.c **** 
ARM GAS  /var/folders/wl/rshn8xbx1dsfj1zgryf4g1240000gn/T//ccHQ5qI9.s 			page 8


 187              		.loc 1 169 6 view .LVU61
 188 00b2 49F10009 		adc	r9, r9, #0
 176:.//Libraries/CMSIS/DSP/Source/TransformFunctions/arm_rfft_q31.c **** 
 189              		.loc 1 176 13 view .LVU62
 190 00b6 50F80B00 		ldr	r0, [r0, fp]
 191 00ba 0090     		str	r0, [sp]
 192              	.LVL20:
 179:.//Libraries/CMSIS/DSP/Source/TransformFunctions/arm_rfft_q31.c **** 
 193              		.loc 1 179 6 is_stmt 1 view .LVU63
 194              		.loc 1 182 6 view .LVU64
 195 00bc 0B98     		ldr	r0, [sp, #44]
 196              	.LVL21:
 197              		.loc 1 182 6 is_stmt 0 view .LVU65
 198 00be 8344     		add	fp, fp, r0
 199              	.LVL22:
 175:.//Libraries/CMSIS/DSP/Source/TransformFunctions/arm_rfft_q31.c ****      CoefB1 = *pCoefB;
 200              		.loc 1 175 6 view .LVU66
 201 00c0 BEEB0700 		subs	r0, lr, r7
 202 00c4 69EB0807 		sbc	r7, r9, r8
 166:.//Libraries/CMSIS/DSP/Source/TransformFunctions/arm_rfft_q31.c **** 
 203              		.loc 1 166 6 view .LVU67
 204 00c8 4FF00048 		mov	r8, #-2147483648
 205 00cc 4FF00009 		mov	r9, #0
 175:.//Libraries/CMSIS/DSP/Source/TransformFunctions/arm_rfft_q31.c ****      CoefB1 = *pCoefB;
 206              		.loc 1 175 6 view .LVU68
 207 00d0 10F10040 		adds	r0, r0, #-2147483648
 166:.//Libraries/CMSIS/DSP/Source/TransformFunctions/arm_rfft_q31.c **** 
 208              		.loc 1 166 6 view .LVU69
 209 00d4 C3FB0189 		smlal	r8, r9, r3, r1
 179:.//Libraries/CMSIS/DSP/Source/TransformFunctions/arm_rfft_q31.c **** 
 210              		.loc 1 179 6 view .LVU70
 211 00d8 0099     		ldr	r1, [sp]
 212              	.LVL23:
 172:.//Libraries/CMSIS/DSP/Source/TransformFunctions/arm_rfft_q31.c **** 
 213              		.loc 1 172 6 view .LVU71
 214 00da CDF81490 		str	r9, [sp, #20]
 175:.//Libraries/CMSIS/DSP/Source/TransformFunctions/arm_rfft_q31.c ****      CoefB1 = *pCoefB;
 215              		.loc 1 175 6 view .LVU72
 216 00de 47F10009 		adc	r9, r7, #0
 179:.//Libraries/CMSIS/DSP/Source/TransformFunctions/arm_rfft_q31.c **** 
 217              		.loc 1 179 6 view .LVU73
 218 00e2 85FB0101 		smull	r0, r1, r5, r1
 219              		.loc 1 182 6 view .LVU74
 220 00e6 009F     		ldr	r7, [sp]
 221 00e8 CDF80C90 		str	r9, [sp, #12]
 183:.//Libraries/CMSIS/DSP/Source/TransformFunctions/arm_rfft_q31.c **** 
 184:.//Libraries/CMSIS/DSP/Source/TransformFunctions/arm_rfft_q31.c ****      /* pIn[2 * n - 2 * i + 1] * pBTable[2 * i] */
 185:.//Libraries/CMSIS/DSP/Source/TransformFunctions/arm_rfft_q31.c ****      multSub_32x32_keep32_R (outI, *pIn2--, CoefA2);
 222              		.loc 1 185 6 view .LVU75
 223 00ec 83FB0689 		smull	r8, r9, r3, r6
 179:.//Libraries/CMSIS/DSP/Source/TransformFunctions/arm_rfft_q31.c **** 
 224              		.loc 1 179 6 view .LVU76
 225 00f0 CDE90801 		strd	r0, [sp, #32]
 172:.//Libraries/CMSIS/DSP/Source/TransformFunctions/arm_rfft_q31.c **** 
 226              		.loc 1 172 6 view .LVU77
 227 00f4 DDE90401 		ldrd	r0, [sp, #16]
 228 00f8 C2FB0401 		smlal	r0, r1, r2, r4
ARM GAS  /var/folders/wl/rshn8xbx1dsfj1zgryf4g1240000gn/T//ccHQ5qI9.s 			page 9


 182:.//Libraries/CMSIS/DSP/Source/TransformFunctions/arm_rfft_q31.c **** 
 229              		.loc 1 182 6 view .LVU78
 230 00fc DDE90223 		ldrd	r2, [sp, #8]
 231              	.LVL24:
 182:.//Libraries/CMSIS/DSP/Source/TransformFunctions/arm_rfft_q31.c **** 
 232              		.loc 1 182 6 view .LVU79
 233 0100 C6FB0723 		smlal	r2, r3, r6, r7
 234 0104 1646     		mov	r6, r2
 235 0106 16F10042 		adds	r2, r6, #-2147483648
 179:.//Libraries/CMSIS/DSP/Source/TransformFunctions/arm_rfft_q31.c **** 
 236              		.loc 1 179 6 view .LVU80
 237 010a DDE90867 		ldrd	r6, [sp, #32]
 182:.//Libraries/CMSIS/DSP/Source/TransformFunctions/arm_rfft_q31.c **** 
 238              		.loc 1 182 6 view .LVU81
 239 010e 43F10003 		adc	r3, r3, #0
 240              	.LVL25:
 241              		.loc 1 185 6 is_stmt 1 view .LVU82
 172:.//Libraries/CMSIS/DSP/Source/TransformFunctions/arm_rfft_q31.c **** 
 242              		.loc 1 172 6 is_stmt 0 view .LVU83
 243 0112 10F10042 		adds	r2, r0, #-2147483648
 186:.//Libraries/CMSIS/DSP/Source/TransformFunctions/arm_rfft_q31.c **** 
 187:.//Libraries/CMSIS/DSP/Source/TransformFunctions/arm_rfft_q31.c ****      /* write output */
 188:.//Libraries/CMSIS/DSP/Source/TransformFunctions/arm_rfft_q31.c ****      *pOut1++ = outR;
 244              		.loc 1 188 15 view .LVU84
 245 0116 0A98     		ldr	r0, [sp, #40]
 172:.//Libraries/CMSIS/DSP/Source/TransformFunctions/arm_rfft_q31.c **** 
 246              		.loc 1 172 6 view .LVU85
 247 0118 41F10002 		adc	r2, r1, #0
 179:.//Libraries/CMSIS/DSP/Source/TransformFunctions/arm_rfft_q31.c **** 
 248              		.loc 1 179 6 view .LVU86
 249 011c BEEB0604 		subs	r4, lr, r6
 250              	.LVL26:
 251              		.loc 1 188 15 view .LVU87
 252 0120 40F8083C 		str	r3, [r0, #-8]
 253              		.loc 1 188 15 view .LVU88
 254 0124 00F10800 		add	r0, r0, #8
 179:.//Libraries/CMSIS/DSP/Source/TransformFunctions/arm_rfft_q31.c **** 
 255              		.loc 1 179 6 view .LVU89
 256 0128 62EB0702 		sbc	r2, r2, r7
 257 012c 14F10044 		adds	r4, r4, #-2147483648
 258 0130 42F10002 		adc	r2, r2, #0
 185:.//Libraries/CMSIS/DSP/Source/TransformFunctions/arm_rfft_q31.c **** 
 259              		.loc 1 185 6 view .LVU90
 260 0134 BEEB0805 		subs	r5, lr, r8
 261 0138 62EB0902 		sbc	r2, r2, r9
 262 013c 15F10045 		adds	r5, r5, #-2147483648
 263 0140 42F10002 		adc	r2, r2, #0
 264              	.LVL27:
 265              		.loc 1 188 6 is_stmt 1 view .LVU91
 189:.//Libraries/CMSIS/DSP/Source/TransformFunctions/arm_rfft_q31.c ****      *pOut1++ = outI;
 266              		.loc 1 189 6 view .LVU92
 190:.//Libraries/CMSIS/DSP/Source/TransformFunctions/arm_rfft_q31.c **** 
 191:.//Libraries/CMSIS/DSP/Source/TransformFunctions/arm_rfft_q31.c ****      /* write complex conjugate output */
 192:.//Libraries/CMSIS/DSP/Source/TransformFunctions/arm_rfft_q31.c ****      *pOut2-- = -outI;
 267              		.loc 1 192 17 is_stmt 0 view .LVU93
 268 0144 5142     		rsbs	r1, r2, #0
 189:.//Libraries/CMSIS/DSP/Source/TransformFunctions/arm_rfft_q31.c ****      *pOut1++ = outI;
ARM GAS  /var/folders/wl/rshn8xbx1dsfj1zgryf4g1240000gn/T//ccHQ5qI9.s 			page 10


 269              		.loc 1 189 15 view .LVU94
 270 0146 40F80C2C 		str	r2, [r0, #-12]
 271              		.loc 1 192 6 is_stmt 1 view .LVU95
 272              	.LVL28:
 193:.//Libraries/CMSIS/DSP/Source/TransformFunctions/arm_rfft_q31.c ****      *pOut2-- = outR;
 273              		.loc 1 193 15 is_stmt 0 view .LVU96
 274 014a CAF80C30 		str	r3, [r10, #12]
 192:.//Libraries/CMSIS/DSP/Source/TransformFunctions/arm_rfft_q31.c ****      *pOut2-- = outR;
 275              		.loc 1 192 15 view .LVU97
 276 014e CAF81010 		str	r1, [r10, #16]
 277              		.loc 1 193 6 is_stmt 1 view .LVU98
 278              	.LVL29:
 194:.//Libraries/CMSIS/DSP/Source/TransformFunctions/arm_rfft_q31.c **** 
 195:.//Libraries/CMSIS/DSP/Source/TransformFunctions/arm_rfft_q31.c ****      /* update coefficient pointer */
 196:.//Libraries/CMSIS/DSP/Source/TransformFunctions/arm_rfft_q31.c ****      pCoefB = pCoefB + (2 * modifier);
 279              		.loc 1 196 6 view .LVU99
 197:.//Libraries/CMSIS/DSP/Source/TransformFunctions/arm_rfft_q31.c ****      pCoefA = pCoefA + (2 * modifier - 1);
 280              		.loc 1 197 6 view .LVU100
 198:.//Libraries/CMSIS/DSP/Source/TransformFunctions/arm_rfft_q31.c **** 
 199:.//Libraries/CMSIS/DSP/Source/TransformFunctions/arm_rfft_q31.c ****      /* Decrement loop count */
 200:.//Libraries/CMSIS/DSP/Source/TransformFunctions/arm_rfft_q31.c ****      i--;
 281              		.loc 1 200 6 view .LVU101
 145:.//Libraries/CMSIS/DSP/Source/TransformFunctions/arm_rfft_q31.c ****   {
 282              		.loc 1 145 9 view .LVU102
 283 0152 0A90     		str	r0, [sp, #40]
 284 0154 069B     		ldr	r3, [sp, #24]
 285              	.LVL30:
 145:.//Libraries/CMSIS/DSP/Source/TransformFunctions/arm_rfft_q31.c ****   {
 286              		.loc 1 145 9 is_stmt 0 view .LVU103
 287 0156 013B     		subs	r3, r3, #1
 288              	.LVL31:
 145:.//Libraries/CMSIS/DSP/Source/TransformFunctions/arm_rfft_q31.c ****   {
 289              		.loc 1 145 9 view .LVU104
 290 0158 0693     		str	r3, [sp, #24]
 291 015a 7FF47CAF 		bne	.L3
 292              	.LVL32:
 293              	.L2:
 201:.//Libraries/CMSIS/DSP/Source/TransformFunctions/arm_rfft_q31.c ****   }
 202:.//Libraries/CMSIS/DSP/Source/TransformFunctions/arm_rfft_q31.c **** 
 203:.//Libraries/CMSIS/DSP/Source/TransformFunctions/arm_rfft_q31.c ****   pDst[2 * fftLen]     = (pSrc[0] - pSrc[1]) >> 1U;
 294              		.loc 1 203 3 is_stmt 1 view .LVU105
 295              		.loc 1 203 35 is_stmt 0 view .LVU106
 296 015e 109C     		ldr	r4, [sp, #64]
 204:.//Libraries/CMSIS/DSP/Source/TransformFunctions/arm_rfft_q31.c ****   pDst[2 * fftLen + 1] = 0;
 297              		.loc 1 204 24 view .LVU107
 298 0160 1C99     		ldr	r1, [sp, #112]
 203:.//Libraries/CMSIS/DSP/Source/TransformFunctions/arm_rfft_q31.c ****   pDst[2 * fftLen + 1] = 0;
 299              		.loc 1 203 35 view .LVU108
 300 0162 6068     		ldr	r0, [r4, #4]
 301 0164 2368     		ldr	r3, [r4]
 302              	.LVL33:
 303              		.loc 1 204 24 view .LVU109
 304 0166 0F9A     		ldr	r2, [sp, #60]
 203:.//Libraries/CMSIS/DSP/Source/TransformFunctions/arm_rfft_q31.c ****   pDst[2 * fftLen + 1] = 0;
 305              		.loc 1 203 35 view .LVU110
 306 0168 1B1A     		subs	r3, r3, r0
 203:.//Libraries/CMSIS/DSP/Source/TransformFunctions/arm_rfft_q31.c ****   pDst[2 * fftLen + 1] = 0;
ARM GAS  /var/folders/wl/rshn8xbx1dsfj1zgryf4g1240000gn/T//ccHQ5qI9.s 			page 11


 307              		.loc 1 203 24 view .LVU111
 308 016a 119D     		ldr	r5, [sp, #68]
 309 016c 1C98     		ldr	r0, [sp, #112]
 310              		.loc 1 204 24 view .LVU112
 311 016e 0A44     		add	r2, r2, r1
 203:.//Libraries/CMSIS/DSP/Source/TransformFunctions/arm_rfft_q31.c ****   pDst[2 * fftLen + 1] = 0;
 312              		.loc 1 203 46 view .LVU113
 313 0170 5B10     		asrs	r3, r3, #1
 314              		.loc 1 204 24 view .LVU114
 315 0172 0021     		movs	r1, #0
 203:.//Libraries/CMSIS/DSP/Source/TransformFunctions/arm_rfft_q31.c ****   pDst[2 * fftLen + 1] = 0;
 316              		.loc 1 203 24 view .LVU115
 317 0174 40F83530 		str	r3, [r0, r5, lsl #3]
 318              		.loc 1 204 3 is_stmt 1 view .LVU116
 319              		.loc 1 204 24 is_stmt 0 view .LVU117
 320 0178 5160     		str	r1, [r2, #4]
 205:.//Libraries/CMSIS/DSP/Source/TransformFunctions/arm_rfft_q31.c **** 
 206:.//Libraries/CMSIS/DSP/Source/TransformFunctions/arm_rfft_q31.c ****   pDst[0] = (pSrc[0] + pSrc[1]) >> 1U;
 321              		.loc 1 206 3 is_stmt 1 view .LVU118
 322              		.loc 1 206 22 is_stmt 0 view .LVU119
 323 017a 2368     		ldr	r3, [r4]
 324 017c 6268     		ldr	r2, [r4, #4]
 207:.//Libraries/CMSIS/DSP/Source/TransformFunctions/arm_rfft_q31.c ****   pDst[1] = 0;
 325              		.loc 1 207 11 view .LVU120
 326 017e 4160     		str	r1, [r0, #4]
 206:.//Libraries/CMSIS/DSP/Source/TransformFunctions/arm_rfft_q31.c ****   pDst[1] = 0;
 327              		.loc 1 206 22 view .LVU121
 328 0180 1344     		add	r3, r3, r2
 206:.//Libraries/CMSIS/DSP/Source/TransformFunctions/arm_rfft_q31.c ****   pDst[1] = 0;
 329              		.loc 1 206 33 view .LVU122
 330 0182 5B10     		asrs	r3, r3, #1
 206:.//Libraries/CMSIS/DSP/Source/TransformFunctions/arm_rfft_q31.c ****   pDst[1] = 0;
 331              		.loc 1 206 11 view .LVU123
 332 0184 0360     		str	r3, [r0]
 333              		.loc 1 207 3 is_stmt 1 view .LVU124
 208:.//Libraries/CMSIS/DSP/Source/TransformFunctions/arm_rfft_q31.c **** }
 334              		.loc 1 208 1 is_stmt 0 view .LVU125
 335 0186 13B0     		add	sp, sp, #76
 336              	.LCFI2:
 337              		.cfi_def_cfa_offset 36
 338              		@ sp needed
 339 0188 BDE8F08F 		pop	{r4, r5, r6, r7, r8, r9, r10, fp, pc}
 340              		.loc 1 208 1 view .LVU126
 341              		.cfi_endproc
 342              	.LFE146:
 344              		.section	.text.arm_split_rifft_q31,"ax",%progbits
 345              		.align	1
 346              		.p2align 2,,3
 347              		.global	arm_split_rifft_q31
 348              		.syntax unified
 349              		.thumb
 350              		.thumb_func
 351              		.fpu fpv5-d16
 353              	arm_split_rifft_q31:
 354              	.LVL34:
 355              	.LFB147:
 209:.//Libraries/CMSIS/DSP/Source/TransformFunctions/arm_rfft_q31.c **** 
ARM GAS  /var/folders/wl/rshn8xbx1dsfj1zgryf4g1240000gn/T//ccHQ5qI9.s 			page 12


 210:.//Libraries/CMSIS/DSP/Source/TransformFunctions/arm_rfft_q31.c **** 
 211:.//Libraries/CMSIS/DSP/Source/TransformFunctions/arm_rfft_q31.c **** /**
 212:.//Libraries/CMSIS/DSP/Source/TransformFunctions/arm_rfft_q31.c ****   @brief         Core Real IFFT process
 213:.//Libraries/CMSIS/DSP/Source/TransformFunctions/arm_rfft_q31.c ****   @param[in]     pSrc      points to input buffer
 214:.//Libraries/CMSIS/DSP/Source/TransformFunctions/arm_rfft_q31.c ****   @param[in]     fftLen    length of FFT
 215:.//Libraries/CMSIS/DSP/Source/TransformFunctions/arm_rfft_q31.c ****   @param[in]     pATable   points to twiddle Coef A buffer
 216:.//Libraries/CMSIS/DSP/Source/TransformFunctions/arm_rfft_q31.c ****   @param[in]     pBTable   points to twiddle Coef B buffer
 217:.//Libraries/CMSIS/DSP/Source/TransformFunctions/arm_rfft_q31.c ****   @param[out]    pDst      points to output buffer
 218:.//Libraries/CMSIS/DSP/Source/TransformFunctions/arm_rfft_q31.c ****   @param[in]     modifier  twiddle coefficient modifier that supports different size FFTs with the 
 219:.//Libraries/CMSIS/DSP/Source/TransformFunctions/arm_rfft_q31.c ****   @return        none
 220:.//Libraries/CMSIS/DSP/Source/TransformFunctions/arm_rfft_q31.c ****  */
 221:.//Libraries/CMSIS/DSP/Source/TransformFunctions/arm_rfft_q31.c **** 
 222:.//Libraries/CMSIS/DSP/Source/TransformFunctions/arm_rfft_q31.c **** void arm_split_rifft_q31(
 223:.//Libraries/CMSIS/DSP/Source/TransformFunctions/arm_rfft_q31.c ****         q31_t * pSrc,
 224:.//Libraries/CMSIS/DSP/Source/TransformFunctions/arm_rfft_q31.c ****         uint32_t fftLen,
 225:.//Libraries/CMSIS/DSP/Source/TransformFunctions/arm_rfft_q31.c ****   const q31_t * pATable,
 226:.//Libraries/CMSIS/DSP/Source/TransformFunctions/arm_rfft_q31.c ****   const q31_t * pBTable,
 227:.//Libraries/CMSIS/DSP/Source/TransformFunctions/arm_rfft_q31.c ****         q31_t * pDst,
 228:.//Libraries/CMSIS/DSP/Source/TransformFunctions/arm_rfft_q31.c ****         uint32_t modifier)
 229:.//Libraries/CMSIS/DSP/Source/TransformFunctions/arm_rfft_q31.c **** {       
 356              		.loc 1 229 1 is_stmt 1 view -0
 357              		.cfi_startproc
 358              		@ args = 8, pretend = 0, frame = 80
 359              		@ frame_needed = 0, uses_anonymous_args = 0
 360              		.loc 1 229 1 is_stmt 0 view .LVU128
 361 0000 2DE9F04F 		push	{r4, r5, r6, r7, r8, r9, r10, fp, lr}
 362              	.LCFI3:
 363              		.cfi_def_cfa_offset 36
 364              		.cfi_offset 4, -36
 365              		.cfi_offset 5, -32
 366              		.cfi_offset 6, -28
 367              		.cfi_offset 7, -24
 368              		.cfi_offset 8, -20
 369              		.cfi_offset 9, -16
 370              		.cfi_offset 10, -12
 371              		.cfi_offset 11, -8
 372              		.cfi_offset 14, -4
 373 0004 95B0     		sub	sp, sp, #84
 374              	.LCFI4:
 375              		.cfi_def_cfa_offset 120
 376              		.loc 1 229 1 view .LVU129
 377 0006 CDE90F23 		strd	r2, r3, [sp, #60]
 230:.//Libraries/CMSIS/DSP/Source/TransformFunctions/arm_rfft_q31.c ****         q31_t outR, outI;                              /* Temporary variables for output */
 378              		.loc 1 230 9 is_stmt 1 view .LVU130
 231:.//Libraries/CMSIS/DSP/Source/TransformFunctions/arm_rfft_q31.c ****   const q31_t *pCoefA, *pCoefB;                        /* Temporary pointers for twiddle factors */
 379              		.loc 1 231 3 view .LVU131
 232:.//Libraries/CMSIS/DSP/Source/TransformFunctions/arm_rfft_q31.c ****         q31_t CoefA1, CoefA2, CoefB1;                  /* Temporary variables for twiddle coefficie
 380              		.loc 1 232 9 view .LVU132
 233:.//Libraries/CMSIS/DSP/Source/TransformFunctions/arm_rfft_q31.c ****         q31_t *pIn1 = &pSrc[0], *pIn2 = &pSrc[2 * fftLen + 1];
 381              		.loc 1 233 9 view .LVU133
 382              	.LVL35:
 234:.//Libraries/CMSIS/DSP/Source/TransformFunctions/arm_rfft_q31.c **** 
 235:.//Libraries/CMSIS/DSP/Source/TransformFunctions/arm_rfft_q31.c ****   pCoefA = &pATable[0];
 383              		.loc 1 235 3 view .LVU134
 236:.//Libraries/CMSIS/DSP/Source/TransformFunctions/arm_rfft_q31.c ****   pCoefB = &pBTable[0];
 384              		.loc 1 236 3 view .LVU135
 237:.//Libraries/CMSIS/DSP/Source/TransformFunctions/arm_rfft_q31.c **** 
ARM GAS  /var/folders/wl/rshn8xbx1dsfj1zgryf4g1240000gn/T//ccHQ5qI9.s 			page 13


 238:.//Libraries/CMSIS/DSP/Source/TransformFunctions/arm_rfft_q31.c ****   while (fftLen > 0U)
 385              		.loc 1 238 3 view .LVU136
 386              		.loc 1 238 9 view .LVU137
 387 000a 0029     		cmp	r1, #0
 388 000c 00F09A80 		beq	.L10
 389 0010 CB00     		lsls	r3, r1, #3
 390              	.LVL36:
 391              		.loc 1 238 9 is_stmt 0 view .LVU138
 392 0012 1646     		mov	r6, r2
 239:.//Libraries/CMSIS/DSP/Source/TransformFunctions/arm_rfft_q31.c ****   {
 240:.//Libraries/CMSIS/DSP/Source/TransformFunctions/arm_rfft_q31.c ****      /*
 241:.//Libraries/CMSIS/DSP/Source/TransformFunctions/arm_rfft_q31.c ****        outR = (  pIn[2 * i]             * pATable[2 * i]
 242:.//Libraries/CMSIS/DSP/Source/TransformFunctions/arm_rfft_q31.c ****                + pIn[2 * i + 1]         * pATable[2 * i + 1]
 243:.//Libraries/CMSIS/DSP/Source/TransformFunctions/arm_rfft_q31.c ****                + pIn[2 * n - 2 * i]     * pBTable[2 * i]
 244:.//Libraries/CMSIS/DSP/Source/TransformFunctions/arm_rfft_q31.c ****                - pIn[2 * n - 2 * i + 1] * pBTable[2 * i + 1]);
 245:.//Libraries/CMSIS/DSP/Source/TransformFunctions/arm_rfft_q31.c **** 
 246:.//Libraries/CMSIS/DSP/Source/TransformFunctions/arm_rfft_q31.c ****        outI = (  pIn[2 * i + 1]         * pATable[2 * i]
 247:.//Libraries/CMSIS/DSP/Source/TransformFunctions/arm_rfft_q31.c ****                - pIn[2 * i]             * pATable[2 * i + 1]
 248:.//Libraries/CMSIS/DSP/Source/TransformFunctions/arm_rfft_q31.c ****                - pIn[2 * n - 2 * i]     * pBTable[2 * i + 1]
 249:.//Libraries/CMSIS/DSP/Source/TransformFunctions/arm_rfft_q31.c ****                - pIn[2 * n - 2 * i + 1] * pBTable[2 * i]);
 250:.//Libraries/CMSIS/DSP/Source/TransformFunctions/arm_rfft_q31.c ****       */
 251:.//Libraries/CMSIS/DSP/Source/TransformFunctions/arm_rfft_q31.c **** 
 252:.//Libraries/CMSIS/DSP/Source/TransformFunctions/arm_rfft_q31.c ****      CoefA1 = *pCoefA++;
 253:.//Libraries/CMSIS/DSP/Source/TransformFunctions/arm_rfft_q31.c ****      CoefA2 = *pCoefA;
 254:.//Libraries/CMSIS/DSP/Source/TransformFunctions/arm_rfft_q31.c **** 
 255:.//Libraries/CMSIS/DSP/Source/TransformFunctions/arm_rfft_q31.c ****      /* outR = (pIn[2 * i] * pATable[2 * i] */
 256:.//Libraries/CMSIS/DSP/Source/TransformFunctions/arm_rfft_q31.c ****      mult_32x32_keep32_R (outR, *pIn1, CoefA1);
 257:.//Libraries/CMSIS/DSP/Source/TransformFunctions/arm_rfft_q31.c **** 
 258:.//Libraries/CMSIS/DSP/Source/TransformFunctions/arm_rfft_q31.c ****      /* - pIn[2 * i] * pATable[2 * i + 1] */
 259:.//Libraries/CMSIS/DSP/Source/TransformFunctions/arm_rfft_q31.c ****      mult_32x32_keep32_R (outI, *pIn1++, -CoefA2);
 260:.//Libraries/CMSIS/DSP/Source/TransformFunctions/arm_rfft_q31.c **** 
 261:.//Libraries/CMSIS/DSP/Source/TransformFunctions/arm_rfft_q31.c ****      /* pIn[2 * i + 1] * pATable[2 * i + 1] */
 262:.//Libraries/CMSIS/DSP/Source/TransformFunctions/arm_rfft_q31.c ****      multAcc_32x32_keep32_R (outR, *pIn1, CoefA2);
 263:.//Libraries/CMSIS/DSP/Source/TransformFunctions/arm_rfft_q31.c **** 
 264:.//Libraries/CMSIS/DSP/Source/TransformFunctions/arm_rfft_q31.c ****      /* pIn[2 * i + 1] * pATable[2 * i] */
 265:.//Libraries/CMSIS/DSP/Source/TransformFunctions/arm_rfft_q31.c ****      multAcc_32x32_keep32_R (outI, *pIn1++, CoefA1);
 266:.//Libraries/CMSIS/DSP/Source/TransformFunctions/arm_rfft_q31.c **** 
 267:.//Libraries/CMSIS/DSP/Source/TransformFunctions/arm_rfft_q31.c ****      /* pIn[2 * n - 2 * i] * pBTable[2 * i] */
 268:.//Libraries/CMSIS/DSP/Source/TransformFunctions/arm_rfft_q31.c ****      multAcc_32x32_keep32_R (outR, *pIn2, CoefA2);
 269:.//Libraries/CMSIS/DSP/Source/TransformFunctions/arm_rfft_q31.c ****      CoefB1 = *pCoefB;
 270:.//Libraries/CMSIS/DSP/Source/TransformFunctions/arm_rfft_q31.c **** 
 271:.//Libraries/CMSIS/DSP/Source/TransformFunctions/arm_rfft_q31.c ****      /* pIn[2 * n - 2 * i] * pBTable[2 * i + 1] */
 272:.//Libraries/CMSIS/DSP/Source/TransformFunctions/arm_rfft_q31.c ****      multSub_32x32_keep32_R (outI, *pIn2--, CoefB1);
 273:.//Libraries/CMSIS/DSP/Source/TransformFunctions/arm_rfft_q31.c **** 
 274:.//Libraries/CMSIS/DSP/Source/TransformFunctions/arm_rfft_q31.c ****      /* pIn[2 * n - 2 * i + 1] * pBTable[2 * i + 1] */
 275:.//Libraries/CMSIS/DSP/Source/TransformFunctions/arm_rfft_q31.c ****      multAcc_32x32_keep32_R (outR, *pIn2, CoefB1);
 276:.//Libraries/CMSIS/DSP/Source/TransformFunctions/arm_rfft_q31.c **** 
 277:.//Libraries/CMSIS/DSP/Source/TransformFunctions/arm_rfft_q31.c ****      /* pIn[2 * n - 2 * i + 1] * pBTable[2 * i] */
 278:.//Libraries/CMSIS/DSP/Source/TransformFunctions/arm_rfft_q31.c ****      multAcc_32x32_keep32_R (outI, *pIn2--, CoefA2);
 279:.//Libraries/CMSIS/DSP/Source/TransformFunctions/arm_rfft_q31.c **** 
 280:.//Libraries/CMSIS/DSP/Source/TransformFunctions/arm_rfft_q31.c ****      /* write output */
 281:.//Libraries/CMSIS/DSP/Source/TransformFunctions/arm_rfft_q31.c ****      *pDst++ = outR;
 282:.//Libraries/CMSIS/DSP/Source/TransformFunctions/arm_rfft_q31.c ****      *pDst++ = outI;
 283:.//Libraries/CMSIS/DSP/Source/TransformFunctions/arm_rfft_q31.c **** 
 284:.//Libraries/CMSIS/DSP/Source/TransformFunctions/arm_rfft_q31.c ****      /* update coefficient pointer */
 285:.//Libraries/CMSIS/DSP/Source/TransformFunctions/arm_rfft_q31.c ****      pCoefB = pCoefB + (modifier * 2);
 393              		.loc 1 285 22 view .LVU139
ARM GAS  /var/folders/wl/rshn8xbx1dsfj1zgryf4g1240000gn/T//ccHQ5qI9.s 			page 14


 394 0014 1F9C     		ldr	r4, [sp, #124]
 395 0016 4FF0000B 		mov	fp, #0
 396 001a 1A1D     		adds	r2, r3, #4
 397              	.LVL37:
 398              		.loc 1 285 22 view .LVU140
 399 001c C1EB4173 		rsb	r3, r1, r1, lsl #29
 400              	.LVL38:
 401              		.loc 1 285 22 view .LVU141
 402 0020 E400     		lsls	r4, r4, #3
 403 0022 1E9D     		ldr	r5, [sp, #120]
 404 0024 02EBC303 		add	r3, r2, r3, lsl #3
 405 0028 3246     		mov	r2, r6
 406              	.LVL39:
 407              		.loc 1 285 22 view .LVU142
 408 002a 1194     		str	r4, [sp, #68]
 409 002c 00F1080C 		add	ip, r0, #8
 410 0030 0432     		adds	r2, r2, #4
 411 0032 C318     		adds	r3, r0, r3
 262:.//Libraries/CMSIS/DSP/Source/TransformFunctions/arm_rfft_q31.c **** 
 412              		.loc 1 262 6 view .LVU143
 413 0034 5C46     		mov	r4, fp
 414 0036 0835     		adds	r5, r5, #8
 415 0038 1392     		str	r2, [sp, #76]
 416 003a 9E46     		mov	lr, r3
 417 003c 1A1F     		subs	r2, r3, #4
 418 003e 0E91     		str	r1, [sp, #56]
 419 0040 1292     		str	r2, [sp, #72]
 420              	.LVL40:
 421              	.L12:
 252:.//Libraries/CMSIS/DSP/Source/TransformFunctions/arm_rfft_q31.c ****      CoefA2 = *pCoefA;
 422              		.loc 1 252 6 is_stmt 1 view .LVU144
 252:.//Libraries/CMSIS/DSP/Source/TransformFunctions/arm_rfft_q31.c ****      CoefA2 = *pCoefA;
 423              		.loc 1 252 13 is_stmt 0 view .LVU145
 424 0042 0F9B     		ldr	r3, [sp, #60]
 256:.//Libraries/CMSIS/DSP/Source/TransformFunctions/arm_rfft_q31.c **** 
 425              		.loc 1 256 6 view .LVU146
 426 0044 4FF00048 		mov	r8, #-2147483648
 427 0048 5CF8082C 		ldr	r2, [ip, #-8]
 428 004c 4FF00009 		mov	r9, #0
 252:.//Libraries/CMSIS/DSP/Source/TransformFunctions/arm_rfft_q31.c ****      CoefA2 = *pCoefA;
 429              		.loc 1 252 13 view .LVU147
 430 0050 53F80B00 		ldr	r0, [r3, fp]
 431              	.LVL41:
 253:.//Libraries/CMSIS/DSP/Source/TransformFunctions/arm_rfft_q31.c **** 
 432              		.loc 1 253 6 is_stmt 1 view .LVU148
 433 0054 0CF1080C 		add	ip, ip, #8
 434              	.LVL42:
 253:.//Libraries/CMSIS/DSP/Source/TransformFunctions/arm_rfft_q31.c **** 
 435              		.loc 1 253 13 is_stmt 0 view .LVU149
 436 0058 139B     		ldr	r3, [sp, #76]
 437 005a 0835     		adds	r5, r5, #8
 256:.//Libraries/CMSIS/DSP/Source/TransformFunctions/arm_rfft_q31.c **** 
 438              		.loc 1 256 6 view .LVU150
 439 005c C0FB0289 		smlal	r8, r9, r0, r2
 262:.//Libraries/CMSIS/DSP/Source/TransformFunctions/arm_rfft_q31.c **** 
 440              		.loc 1 262 6 view .LVU151
 441 0060 0094     		str	r4, [sp]
ARM GAS  /var/folders/wl/rshn8xbx1dsfj1zgryf4g1240000gn/T//ccHQ5qI9.s 			page 15


 442 0062 CDF80490 		str	r9, [sp, #4]
 253:.//Libraries/CMSIS/DSP/Source/TransformFunctions/arm_rfft_q31.c **** 
 443              		.loc 1 253 13 view .LVU152
 444 0066 53F80B30 		ldr	r3, [r3, fp]
 445              	.LVL43:
 256:.//Libraries/CMSIS/DSP/Source/TransformFunctions/arm_rfft_q31.c **** 
 446              		.loc 1 256 6 is_stmt 1 view .LVU153
 259:.//Libraries/CMSIS/DSP/Source/TransformFunctions/arm_rfft_q31.c **** 
 447              		.loc 1 259 6 view .LVU154
 262:.//Libraries/CMSIS/DSP/Source/TransformFunctions/arm_rfft_q31.c **** 
 448              		.loc 1 262 6 view .LVU155
 265:.//Libraries/CMSIS/DSP/Source/TransformFunctions/arm_rfft_q31.c **** 
 449              		.loc 1 265 6 view .LVU156
 268:.//Libraries/CMSIS/DSP/Source/TransformFunctions/arm_rfft_q31.c ****      CoefB1 = *pCoefB;
 450              		.loc 1 268 6 view .LVU157
 262:.//Libraries/CMSIS/DSP/Source/TransformFunctions/arm_rfft_q31.c **** 
 451              		.loc 1 262 6 is_stmt 0 view .LVU158
 452 006a 5CF80C6C 		ldr	r6, [ip, #-12]
 259:.//Libraries/CMSIS/DSP/Source/TransformFunctions/arm_rfft_q31.c **** 
 453              		.loc 1 259 6 view .LVU159
 454 006e C3F10008 		rsb	r8, r3, #0
 265:.//Libraries/CMSIS/DSP/Source/TransformFunctions/arm_rfft_q31.c **** 
 455              		.loc 1 265 6 view .LVU160
 456 0072 0694     		str	r4, [sp, #24]
 268:.//Libraries/CMSIS/DSP/Source/TransformFunctions/arm_rfft_q31.c ****      CoefB1 = *pCoefB;
 457              		.loc 1 268 6 view .LVU161
 458 0074 0E99     		ldr	r1, [sp, #56]
 459 0076 0294     		str	r4, [sp, #8]
 460 0078 5EF83110 		ldr	r1, [lr, r1, lsl #3]
 269:.//Libraries/CMSIS/DSP/Source/TransformFunctions/arm_rfft_q31.c **** 
 461              		.loc 1 269 6 is_stmt 1 view .LVU162
 275:.//Libraries/CMSIS/DSP/Source/TransformFunctions/arm_rfft_q31.c **** 
 462              		.loc 1 275 6 is_stmt 0 view .LVU163
 463 007c 0494     		str	r4, [sp, #16]
 278:.//Libraries/CMSIS/DSP/Source/TransformFunctions/arm_rfft_q31.c **** 
 464              		.loc 1 278 6 view .LVU164
 465 007e 0A94     		str	r4, [sp, #40]
 262:.//Libraries/CMSIS/DSP/Source/TransformFunctions/arm_rfft_q31.c **** 
 466              		.loc 1 262 6 view .LVU165
 467 0080 DDE9009A 		ldrd	r9, [sp]
 468 0084 C3FB069A 		smlal	r9, r10, r3, r6
 469 0088 4E46     		mov	r6, r9
 470 008a 5746     		mov	r7, r10
 471 008c CDE90867 		strd	r6, [sp, #32]
 472 0090 16F10046 		adds	r6, r6, #-2147483648
 259:.//Libraries/CMSIS/DSP/Source/TransformFunctions/arm_rfft_q31.c **** 
 473              		.loc 1 259 6 view .LVU166
 474 0094 4FF00007 		mov	r7, #0
 475 0098 4FF00046 		mov	r6, #-2147483648
 476 009c C8FB0267 		smlal	r6, r7, r8, r2
 262:.//Libraries/CMSIS/DSP/Source/TransformFunctions/arm_rfft_q31.c **** 
 477              		.loc 1 262 6 view .LVU167
 478 00a0 099A     		ldr	r2, [sp, #36]
 265:.//Libraries/CMSIS/DSP/Source/TransformFunctions/arm_rfft_q31.c **** 
 479              		.loc 1 265 6 view .LVU168
 480 00a2 0797     		str	r7, [sp, #28]
 262:.//Libraries/CMSIS/DSP/Source/TransformFunctions/arm_rfft_q31.c **** 
ARM GAS  /var/folders/wl/rshn8xbx1dsfj1zgryf4g1240000gn/T//ccHQ5qI9.s 			page 16


 481              		.loc 1 262 6 view .LVU169
 482 00a4 42F10006 		adc	r6, r2, #0
 269:.//Libraries/CMSIS/DSP/Source/TransformFunctions/arm_rfft_q31.c **** 
 483              		.loc 1 269 13 view .LVU170
 484 00a8 109A     		ldr	r2, [sp, #64]
 275:.//Libraries/CMSIS/DSP/Source/TransformFunctions/arm_rfft_q31.c **** 
 485              		.loc 1 275 6 view .LVU171
 486 00aa 0E9F     		ldr	r7, [sp, #56]
 269:.//Libraries/CMSIS/DSP/Source/TransformFunctions/arm_rfft_q31.c **** 
 487              		.loc 1 269 13 view .LVU172
 488 00ac 52F80BA0 		ldr	r10, [r2, fp]
 489              	.LVL44:
 272:.//Libraries/CMSIS/DSP/Source/TransformFunctions/arm_rfft_q31.c **** 
 490              		.loc 1 272 6 is_stmt 1 view .LVU173
 275:.//Libraries/CMSIS/DSP/Source/TransformFunctions/arm_rfft_q31.c **** 
 491              		.loc 1 275 6 view .LVU174
 492 00b0 129A     		ldr	r2, [sp, #72]
 268:.//Libraries/CMSIS/DSP/Source/TransformFunctions/arm_rfft_q31.c ****      CoefB1 = *pCoefB;
 493              		.loc 1 268 6 is_stmt 0 view .LVU175
 494 00b2 0396     		str	r6, [sp, #12]
 275:.//Libraries/CMSIS/DSP/Source/TransformFunctions/arm_rfft_q31.c **** 
 495              		.loc 1 275 6 view .LVU176
 496 00b4 52F83720 		ldr	r2, [r2, r7, lsl #3]
 278:.//Libraries/CMSIS/DSP/Source/TransformFunctions/arm_rfft_q31.c **** 
 497              		.loc 1 278 6 is_stmt 1 view .LVU177
 281:.//Libraries/CMSIS/DSP/Source/TransformFunctions/arm_rfft_q31.c ****      *pDst++ = outI;
 498              		.loc 1 281 6 view .LVU178
 499              	.LVL45:
 281:.//Libraries/CMSIS/DSP/Source/TransformFunctions/arm_rfft_q31.c ****      *pDst++ = outI;
 500              		.loc 1 281 6 is_stmt 0 view .LVU179
 501 00b8 119E     		ldr	r6, [sp, #68]
 265:.//Libraries/CMSIS/DSP/Source/TransformFunctions/arm_rfft_q31.c **** 
 502              		.loc 1 265 6 view .LVU180
 503 00ba 5CF80C7C 		ldr	r7, [ip, #-12]
 504 00be B344     		add	fp, fp, r6
 505              	.LVL46:
 265:.//Libraries/CMSIS/DSP/Source/TransformFunctions/arm_rfft_q31.c **** 
 506              		.loc 1 265 6 view .LVU181
 507 00c0 DDE90689 		ldrd	r8, [sp, #24]
 508 00c4 C7FB0089 		smlal	r8, r9, r7, r0
 268:.//Libraries/CMSIS/DSP/Source/TransformFunctions/arm_rfft_q31.c ****      CoefB1 = *pCoefB;
 509              		.loc 1 268 6 view .LVU182
 510 00c8 DDE90267 		ldrd	r6, [sp, #8]
 511 00cc 0846     		mov	r0, r1
 512              	.LVL47:
 268:.//Libraries/CMSIS/DSP/Source/TransformFunctions/arm_rfft_q31.c ****      CoefB1 = *pCoefB;
 513              		.loc 1 268 6 view .LVU183
 514 00ce C1FB0367 		smlal	r6, r7, r1, r3
 515 00d2 3146     		mov	r1, r6
 268:.//Libraries/CMSIS/DSP/Source/TransformFunctions/arm_rfft_q31.c ****      CoefB1 = *pCoefB;
 516              		.loc 1 268 6 view .LVU184
 517 00d4 CDE90C67 		strd	r6, [sp, #48]
 518 00d8 11F10046 		adds	r6, r1, #-2147483648
 519 00dc 0D99     		ldr	r1, [sp, #52]
 520 00de 41F10006 		adc	r6, r1, #0
 275:.//Libraries/CMSIS/DSP/Source/TransformFunctions/arm_rfft_q31.c **** 
 521              		.loc 1 275 6 view .LVU185
ARM GAS  /var/folders/wl/rshn8xbx1dsfj1zgryf4g1240000gn/T//ccHQ5qI9.s 			page 17


 522 00e2 0596     		str	r6, [sp, #20]
 265:.//Libraries/CMSIS/DSP/Source/TransformFunctions/arm_rfft_q31.c **** 
 523              		.loc 1 265 6 view .LVU186
 524 00e4 CDE90889 		strd	r8, [sp, #32]
 275:.//Libraries/CMSIS/DSP/Source/TransformFunctions/arm_rfft_q31.c **** 
 525              		.loc 1 275 6 view .LVU187
 526 00e8 DDE90467 		ldrd	r6, [sp, #16]
 272:.//Libraries/CMSIS/DSP/Source/TransformFunctions/arm_rfft_q31.c **** 
 527              		.loc 1 272 6 view .LVU188
 528 00ec 80FB0A89 		smull	r8, r9, r0, r10
 275:.//Libraries/CMSIS/DSP/Source/TransformFunctions/arm_rfft_q31.c **** 
 529              		.loc 1 275 6 view .LVU189
 530 00f0 C2FB0A67 		smlal	r6, r7, r2, r10
 531 00f4 3146     		mov	r1, r6
 532 00f6 CDE90C67 		strd	r6, [sp, #48]
 533 00fa 11F10046 		adds	r6, r1, #-2147483648
 265:.//Libraries/CMSIS/DSP/Source/TransformFunctions/arm_rfft_q31.c **** 
 534              		.loc 1 265 6 view .LVU190
 535 00fe 089F     		ldr	r7, [sp, #32]
 275:.//Libraries/CMSIS/DSP/Source/TransformFunctions/arm_rfft_q31.c **** 
 536              		.loc 1 275 6 view .LVU191
 537 0100 0D99     		ldr	r1, [sp, #52]
 538 0102 41F10006 		adc	r6, r1, #0
 265:.//Libraries/CMSIS/DSP/Source/TransformFunctions/arm_rfft_q31.c **** 
 539              		.loc 1 265 6 view .LVU192
 540 0106 17F10047 		adds	r7, r7, #-2147483648
 541 010a 099F     		ldr	r7, [sp, #36]
 275:.//Libraries/CMSIS/DSP/Source/TransformFunctions/arm_rfft_q31.c **** 
 542              		.loc 1 275 6 view .LVU193
 543 010c 45F8106C 		str	r6, [r5, #-16]
 282:.//Libraries/CMSIS/DSP/Source/TransformFunctions/arm_rfft_q31.c **** 
 544              		.loc 1 282 6 is_stmt 1 view .LVU194
 545              	.LVL48:
 265:.//Libraries/CMSIS/DSP/Source/TransformFunctions/arm_rfft_q31.c **** 
 546              		.loc 1 265 6 is_stmt 0 view .LVU195
 547 0110 47F10007 		adc	r7, r7, #0
 272:.//Libraries/CMSIS/DSP/Source/TransformFunctions/arm_rfft_q31.c **** 
 548              		.loc 1 272 6 view .LVU196
 549 0114 B4EB0800 		subs	r0, r4, r8
 272:.//Libraries/CMSIS/DSP/Source/TransformFunctions/arm_rfft_q31.c **** 
 550              		.loc 1 272 6 view .LVU197
 551 0118 67EB0907 		sbc	r7, r7, r9
 552 011c 10F10040 		adds	r0, r0, #-2147483648
 553 0120 47F10007 		adc	r7, r7, #0
 278:.//Libraries/CMSIS/DSP/Source/TransformFunctions/arm_rfft_q31.c **** 
 554              		.loc 1 278 6 view .LVU198
 555 0124 0B97     		str	r7, [sp, #44]
 556 0126 DDE90A67 		ldrd	r6, [sp, #40]
 557 012a C2FB0367 		smlal	r6, r7, r2, r3
 558 012e 16F10042 		adds	r2, r6, #-2147483648
 278:.//Libraries/CMSIS/DSP/Source/TransformFunctions/arm_rfft_q31.c **** 
 559              		.loc 1 278 6 view .LVU199
 560 0132 47F10003 		adc	r3, r7, #0
 561              	.LVL49:
 278:.//Libraries/CMSIS/DSP/Source/TransformFunctions/arm_rfft_q31.c **** 
 562              		.loc 1 278 6 view .LVU200
 563 0136 45F80C3C 		str	r3, [r5, #-12]
ARM GAS  /var/folders/wl/rshn8xbx1dsfj1zgryf4g1240000gn/T//ccHQ5qI9.s 			page 18


 564              		.loc 1 285 6 is_stmt 1 view .LVU201
 286:.//Libraries/CMSIS/DSP/Source/TransformFunctions/arm_rfft_q31.c ****      pCoefA = pCoefA + (modifier * 2 - 1);
 565              		.loc 1 286 6 view .LVU202
 287:.//Libraries/CMSIS/DSP/Source/TransformFunctions/arm_rfft_q31.c **** 
 288:.//Libraries/CMSIS/DSP/Source/TransformFunctions/arm_rfft_q31.c ****      /* Decrement loop count */
 289:.//Libraries/CMSIS/DSP/Source/TransformFunctions/arm_rfft_q31.c ****      fftLen--;
 566              		.loc 1 289 6 view .LVU203
 567              	.LVL50:
 238:.//Libraries/CMSIS/DSP/Source/TransformFunctions/arm_rfft_q31.c ****   {
 568              		.loc 1 238 9 view .LVU204
 569 013a 0E9B     		ldr	r3, [sp, #56]
 570 013c 013B     		subs	r3, r3, #1
 571              	.LVL51:
 238:.//Libraries/CMSIS/DSP/Source/TransformFunctions/arm_rfft_q31.c ****   {
 572              		.loc 1 238 9 is_stmt 0 view .LVU205
 573 013e 0E93     		str	r3, [sp, #56]
 574 0140 7FF47FAF 		bne	.L12
 575              	.LVL52:
 576              	.L10:
 290:.//Libraries/CMSIS/DSP/Source/TransformFunctions/arm_rfft_q31.c ****   }
 291:.//Libraries/CMSIS/DSP/Source/TransformFunctions/arm_rfft_q31.c **** 
 292:.//Libraries/CMSIS/DSP/Source/TransformFunctions/arm_rfft_q31.c **** }
 577              		.loc 1 292 1 view .LVU206
 578 0144 15B0     		add	sp, sp, #84
 579              	.LCFI5:
 580              		.cfi_def_cfa_offset 36
 581              		@ sp needed
 582 0146 BDE8F08F 		pop	{r4, r5, r6, r7, r8, r9, r10, fp, pc}
 583              		.loc 1 292 1 view .LVU207
 584              		.cfi_endproc
 585              	.LFE147:
 587 014a 00BF     		.section	.text.arm_rfft_q31,"ax",%progbits
 588              		.align	1
 589              		.p2align 2,,3
 590              		.global	arm_rfft_q31
 591              		.syntax unified
 592              		.thumb
 593              		.thumb_func
 594              		.fpu fpv5-d16
 596              	arm_rfft_q31:
 597              	.LVL53:
 598              	.LFB145:
  77:.//Libraries/CMSIS/DSP/Source/TransformFunctions/arm_rfft_q31.c ****   const arm_cfft_instance_q31 *S_CFFT = S->pCfft;
 599              		.loc 1 77 1 is_stmt 1 view -0
 600              		.cfi_startproc
 601              		@ args = 0, pretend = 0, frame = 0
 602              		@ frame_needed = 0, uses_anonymous_args = 0
  78:.//Libraries/CMSIS/DSP/Source/TransformFunctions/arm_rfft_q31.c ****         uint32_t L2 = S->fftLenReal >> 1U;
 603              		.loc 1 78 3 view .LVU209
  77:.//Libraries/CMSIS/DSP/Source/TransformFunctions/arm_rfft_q31.c ****   const arm_cfft_instance_q31 *S_CFFT = S->pCfft;
 604              		.loc 1 77 1 is_stmt 0 view .LVU210
 605 0000 2DE9F041 		push	{r4, r5, r6, r7, r8, lr}
 606              	.LCFI6:
 607              		.cfi_def_cfa_offset 24
 608              		.cfi_offset 4, -24
 609              		.cfi_offset 5, -20
 610              		.cfi_offset 6, -16
ARM GAS  /var/folders/wl/rshn8xbx1dsfj1zgryf4g1240000gn/T//ccHQ5qI9.s 			page 19


 611              		.cfi_offset 7, -12
 612              		.cfi_offset 8, -8
 613              		.cfi_offset 14, -4
 614 0004 1546     		mov	r5, r2
  83:.//Libraries/CMSIS/DSP/Source/TransformFunctions/arm_rfft_q31.c ****   {
 615              		.loc 1 83 8 view .LVU211
 616 0006 0279     		ldrb	r2, [r0, #4]	@ zero_extendqisi2
 617              	.LVL54:
  79:.//Libraries/CMSIS/DSP/Source/TransformFunctions/arm_rfft_q31.c ****         uint32_t i;
 618              		.loc 1 79 18 view .LVU212
 619 0008 0368     		ldr	r3, [r0]
  77:.//Libraries/CMSIS/DSP/Source/TransformFunctions/arm_rfft_q31.c ****   const arm_cfft_instance_q31 *S_CFFT = S->pCfft;
 620              		.loc 1 77 1 view .LVU213
 621 000a 82B0     		sub	sp, sp, #8
 622              	.LCFI7:
 623              		.cfi_def_cfa_offset 32
  83:.//Libraries/CMSIS/DSP/Source/TransformFunctions/arm_rfft_q31.c ****   {
 624              		.loc 1 83 6 view .LVU214
 625 000c 012A     		cmp	r2, #1
  77:.//Libraries/CMSIS/DSP/Source/TransformFunctions/arm_rfft_q31.c ****   const arm_cfft_instance_q31 *S_CFFT = S->pCfft;
 626              		.loc 1 77 1 view .LVU215
 627 000e 0446     		mov	r4, r0
 628 0010 0E46     		mov	r6, r1
  79:.//Libraries/CMSIS/DSP/Source/TransformFunctions/arm_rfft_q31.c ****         uint32_t i;
 629              		.loc 1 79 18 view .LVU216
 630 0012 4FEA5307 		lsr	r7, r3, #1
  78:.//Libraries/CMSIS/DSP/Source/TransformFunctions/arm_rfft_q31.c ****         uint32_t L2 = S->fftLenReal >> 1U;
 631              		.loc 1 78 32 view .LVU217
 632 0016 D0F81480 		ldr	r8, [r0, #20]
 633              	.LVL55:
  79:.//Libraries/CMSIS/DSP/Source/TransformFunctions/arm_rfft_q31.c ****         uint32_t i;
 634              		.loc 1 79 9 is_stmt 1 view .LVU218
  80:.//Libraries/CMSIS/DSP/Source/TransformFunctions/arm_rfft_q31.c **** 
 635              		.loc 1 80 9 view .LVU219
  83:.//Libraries/CMSIS/DSP/Source/TransformFunctions/arm_rfft_q31.c ****   {
 636              		.loc 1 83 3 view .LVU220
  83:.//Libraries/CMSIS/DSP/Source/TransformFunctions/arm_rfft_q31.c ****   {
 637              		.loc 1 83 6 is_stmt 0 view .LVU221
 638 001a 0FD0     		beq	.L26
 101:.//Libraries/CMSIS/DSP/Source/TransformFunctions/arm_rfft_q31.c **** 
 639              		.loc 1 101 6 is_stmt 1 view .LVU222
 640 001c 4046     		mov	r0, r8
 641              	.LVL56:
 101:.//Libraries/CMSIS/DSP/Source/TransformFunctions/arm_rfft_q31.c **** 
 642              		.loc 1 101 6 is_stmt 0 view .LVU223
 643 001e 6379     		ldrb	r3, [r4, #5]	@ zero_extendqisi2
 644 0020 FFF7FEFF 		bl	arm_cfft_q31
 645              	.LVL57:
 104:.//Libraries/CMSIS/DSP/Source/TransformFunctions/arm_rfft_q31.c ****   }
 646              		.loc 1 104 6 is_stmt 1 view .LVU224
 647 0024 A368     		ldr	r3, [r4, #8]
 648 0026 3946     		mov	r1, r7
 649 0028 0095     		str	r5, [sp]
 650 002a 0193     		str	r3, [sp, #4]
 651 002c 3046     		mov	r0, r6
 652 002e D4E90323 		ldrd	r2, r3, [r4, #12]
 653 0032 FFF7FEFF 		bl	arm_split_rfft_q31
ARM GAS  /var/folders/wl/rshn8xbx1dsfj1zgryf4g1240000gn/T//ccHQ5qI9.s 			page 20


 654              	.LVL58:
 655              	.L18:
 107:.//Libraries/CMSIS/DSP/Source/TransformFunctions/arm_rfft_q31.c **** 
 656              		.loc 1 107 1 is_stmt 0 view .LVU225
 657 0036 02B0     		add	sp, sp, #8
 658              	.LCFI8:
 659              		.cfi_remember_state
 660              		.cfi_def_cfa_offset 24
 661              		@ sp needed
 662 0038 BDE8F081 		pop	{r4, r5, r6, r7, r8, pc}
 663              	.LVL59:
 664              	.L26:
 665              	.LCFI9:
 666              		.cfi_restore_state
  86:.//Libraries/CMSIS/DSP/Source/TransformFunctions/arm_rfft_q31.c **** 
 667              		.loc 1 86 6 is_stmt 1 view .LVU226
 668 003c 8368     		ldr	r3, [r0, #8]
 669 003e 3946     		mov	r1, r7
 670              	.LVL60:
  86:.//Libraries/CMSIS/DSP/Source/TransformFunctions/arm_rfft_q31.c **** 
 671              		.loc 1 86 6 is_stmt 0 view .LVU227
 672 0040 3046     		mov	r0, r6
 673              	.LVL61:
  86:.//Libraries/CMSIS/DSP/Source/TransformFunctions/arm_rfft_q31.c **** 
 674              		.loc 1 86 6 view .LVU228
 675 0042 0095     		str	r5, [sp]
 676 0044 0193     		str	r3, [sp, #4]
 677 0046 D4E90323 		ldrd	r2, r3, [r4, #12]
 678 004a FFF7FEFF 		bl	arm_split_rifft_q31
 679              	.LVL62:
  89:.//Libraries/CMSIS/DSP/Source/TransformFunctions/arm_rfft_q31.c **** 
 680              		.loc 1 89 6 is_stmt 1 view .LVU229
 681 004e 6379     		ldrb	r3, [r4, #5]	@ zero_extendqisi2
 682 0050 4046     		mov	r0, r8
 683 0052 2946     		mov	r1, r5
 684 0054 2279     		ldrb	r2, [r4, #4]	@ zero_extendqisi2
 685 0056 FFF7FEFF 		bl	arm_cfft_q31
 686              	.LVL63:
  91:.//Libraries/CMSIS/DSP/Source/TransformFunctions/arm_rfft_q31.c ****      {
 687              		.loc 1 91 6 view .LVU230
  91:.//Libraries/CMSIS/DSP/Source/TransformFunctions/arm_rfft_q31.c ****      {
 688              		.loc 1 91 17 view .LVU231
  91:.//Libraries/CMSIS/DSP/Source/TransformFunctions/arm_rfft_q31.c ****      {
 689              		.loc 1 91 6 is_stmt 0 view .LVU232
 690 005a 2368     		ldr	r3, [r4]
 691 005c 002B     		cmp	r3, #0
 692 005e EAD0     		beq	.L18
 693 0060 291F     		subs	r1, r5, #4
  91:.//Libraries/CMSIS/DSP/Source/TransformFunctions/arm_rfft_q31.c ****      {
 694              		.loc 1 91 12 view .LVU233
 695 0062 0022     		movs	r2, #0
 696              	.LVL64:
 697              	.L22:
  93:.//Libraries/CMSIS/DSP/Source/TransformFunctions/arm_rfft_q31.c ****      }
 698              		.loc 1 93 9 is_stmt 1 discriminator 3 view .LVU234
  93:.//Libraries/CMSIS/DSP/Source/TransformFunctions/arm_rfft_q31.c ****      }
 699              		.loc 1 93 27 is_stmt 0 discriminator 3 view .LVU235
ARM GAS  /var/folders/wl/rshn8xbx1dsfj1zgryf4g1240000gn/T//ccHQ5qI9.s 			page 21


 700 0064 51F8043F 		ldr	r3, [r1, #4]!
  91:.//Libraries/CMSIS/DSP/Source/TransformFunctions/arm_rfft_q31.c ****      {
 701              		.loc 1 91 37 discriminator 3 view .LVU236
 702 0068 0132     		adds	r2, r2, #1
 703              	.LVL65:
  93:.//Libraries/CMSIS/DSP/Source/TransformFunctions/arm_rfft_q31.c ****      }
 704              		.loc 1 93 27 discriminator 3 view .LVU237
 705 006a 5B00     		lsls	r3, r3, #1
  93:.//Libraries/CMSIS/DSP/Source/TransformFunctions/arm_rfft_q31.c ****      }
 706              		.loc 1 93 17 discriminator 3 view .LVU238
 707 006c 0B60     		str	r3, [r1]
  91:.//Libraries/CMSIS/DSP/Source/TransformFunctions/arm_rfft_q31.c ****      {
 708              		.loc 1 91 36 is_stmt 1 discriminator 3 view .LVU239
 709              	.LVL66:
  91:.//Libraries/CMSIS/DSP/Source/TransformFunctions/arm_rfft_q31.c ****      {
 710              		.loc 1 91 17 discriminator 3 view .LVU240
  91:.//Libraries/CMSIS/DSP/Source/TransformFunctions/arm_rfft_q31.c ****      {
 711              		.loc 1 91 6 is_stmt 0 discriminator 3 view .LVU241
 712 006e 2368     		ldr	r3, [r4]
 713 0070 9342     		cmp	r3, r2
 714 0072 F7D8     		bhi	.L22
 107:.//Libraries/CMSIS/DSP/Source/TransformFunctions/arm_rfft_q31.c **** 
 715              		.loc 1 107 1 view .LVU242
 716 0074 02B0     		add	sp, sp, #8
 717              	.LCFI10:
 718              		.cfi_def_cfa_offset 24
 719              		@ sp needed
 720 0076 BDE8F081 		pop	{r4, r5, r6, r7, r8, pc}
 107:.//Libraries/CMSIS/DSP/Source/TransformFunctions/arm_rfft_q31.c **** 
 721              		.loc 1 107 1 view .LVU243
 722              		.cfi_endproc
 723              	.LFE145:
 725 007a 00BF     		.text
 726              	.Letext0:
 727              		.file 2 "/opt/homebrew/Cellar/arm-none-eabi-gcc/9-2019-q4-major/gcc/arm-none-eabi/include/machine/
 728              		.file 3 "/opt/homebrew/Cellar/arm-none-eabi-gcc/9-2019-q4-major/gcc/arm-none-eabi/include/sys/_std
 729              		.file 4 "/opt/homebrew/Cellar/arm-none-eabi-gcc/9-2019-q4-major/gcc/arm-none-eabi/include/sys/lock
 730              		.file 5 "/opt/homebrew/Cellar/arm-none-eabi-gcc/9-2019-q4-major/gcc/arm-none-eabi/include/sys/_typ
 731              		.file 6 "/opt/homebrew/Cellar/arm-none-eabi-gcc/9-2019-q4-major/gcc/lib/gcc/arm-none-eabi/9.2.1/in
 732              		.file 7 "/opt/homebrew/Cellar/arm-none-eabi-gcc/9-2019-q4-major/gcc/arm-none-eabi/include/sys/reen
 733              		.file 8 "/opt/homebrew/Cellar/arm-none-eabi-gcc/9-2019-q4-major/gcc/arm-none-eabi/include/math.h"
 734              		.file 9 ".//Libraries/CMSIS/DSP/Include/arm_math.h"
ARM GAS  /var/folders/wl/rshn8xbx1dsfj1zgryf4g1240000gn/T//ccHQ5qI9.s 			page 22

