ARM GAS  /tmp/ccHShaVx.s 			page 1


   1              		.cpu cortex-m7
   2              		.eabi_attribute 28, 1
   3              		.eabi_attribute 20, 1
   4              		.eabi_attribute 21, 1
   5              		.eabi_attribute 23, 3
   6              		.eabi_attribute 24, 1
   7              		.eabi_attribute 25, 1
   8              		.eabi_attribute 26, 1
   9              		.eabi_attribute 30, 2
  10              		.eabi_attribute 34, 1
  11              		.eabi_attribute 18, 4
  12              		.file	"arm_conv_partial_fast_q31.c"
  13              		.text
  14              	.Ltext0:
  15              		.cfi_sections	.debug_frame
  16              		.section	.text.arm_conv_partial_fast_q31,"ax",%progbits
  17              		.align	1
  18              		.p2align 2,,3
  19              		.global	arm_conv_partial_fast_q31
  20              		.arch armv7e-m
  21              		.syntax unified
  22              		.thumb
  23              		.thumb_func
  24              		.fpu fpv5-d16
  26              	arm_conv_partial_fast_q31:
  27              	.LVL0:
  28              	.LFB145:
  29              		.file 1 "./Libraries/CMSIS/DSP/Source/FilteringFunctions/arm_conv_partial_fast_q31.c"
   1:./Libraries/CMSIS/DSP/Source/FilteringFunctions/arm_conv_partial_fast_q31.c **** /* ----------------------------------------------------------------------
   2:./Libraries/CMSIS/DSP/Source/FilteringFunctions/arm_conv_partial_fast_q31.c ****  * Project:      CMSIS DSP Library
   3:./Libraries/CMSIS/DSP/Source/FilteringFunctions/arm_conv_partial_fast_q31.c ****  * Title:        arm_conv_partial_fast_q31.c
   4:./Libraries/CMSIS/DSP/Source/FilteringFunctions/arm_conv_partial_fast_q31.c ****  * Description:  Fast Q31 Partial convolution
   5:./Libraries/CMSIS/DSP/Source/FilteringFunctions/arm_conv_partial_fast_q31.c ****  *
   6:./Libraries/CMSIS/DSP/Source/FilteringFunctions/arm_conv_partial_fast_q31.c ****  * $Date:        18. March 2019
   7:./Libraries/CMSIS/DSP/Source/FilteringFunctions/arm_conv_partial_fast_q31.c ****  * $Revision:    V1.6.0
   8:./Libraries/CMSIS/DSP/Source/FilteringFunctions/arm_conv_partial_fast_q31.c ****  *
   9:./Libraries/CMSIS/DSP/Source/FilteringFunctions/arm_conv_partial_fast_q31.c ****  * Target Processor: Cortex-M cores
  10:./Libraries/CMSIS/DSP/Source/FilteringFunctions/arm_conv_partial_fast_q31.c ****  * -------------------------------------------------------------------- */
  11:./Libraries/CMSIS/DSP/Source/FilteringFunctions/arm_conv_partial_fast_q31.c **** /*
  12:./Libraries/CMSIS/DSP/Source/FilteringFunctions/arm_conv_partial_fast_q31.c ****  * Copyright (C) 2010-2019 ARM Limited or its affiliates. All rights reserved.
  13:./Libraries/CMSIS/DSP/Source/FilteringFunctions/arm_conv_partial_fast_q31.c ****  *
  14:./Libraries/CMSIS/DSP/Source/FilteringFunctions/arm_conv_partial_fast_q31.c ****  * SPDX-License-Identifier: Apache-2.0
  15:./Libraries/CMSIS/DSP/Source/FilteringFunctions/arm_conv_partial_fast_q31.c ****  *
  16:./Libraries/CMSIS/DSP/Source/FilteringFunctions/arm_conv_partial_fast_q31.c ****  * Licensed under the Apache License, Version 2.0 (the License); you may
  17:./Libraries/CMSIS/DSP/Source/FilteringFunctions/arm_conv_partial_fast_q31.c ****  * not use this file except in compliance with the License.
  18:./Libraries/CMSIS/DSP/Source/FilteringFunctions/arm_conv_partial_fast_q31.c ****  * You may obtain a copy of the License at
  19:./Libraries/CMSIS/DSP/Source/FilteringFunctions/arm_conv_partial_fast_q31.c ****  *
  20:./Libraries/CMSIS/DSP/Source/FilteringFunctions/arm_conv_partial_fast_q31.c ****  * www.apache.org/licenses/LICENSE-2.0
  21:./Libraries/CMSIS/DSP/Source/FilteringFunctions/arm_conv_partial_fast_q31.c ****  *
  22:./Libraries/CMSIS/DSP/Source/FilteringFunctions/arm_conv_partial_fast_q31.c ****  * Unless required by applicable law or agreed to in writing, software
  23:./Libraries/CMSIS/DSP/Source/FilteringFunctions/arm_conv_partial_fast_q31.c ****  * distributed under the License is distributed on an AS IS BASIS, WITHOUT
  24:./Libraries/CMSIS/DSP/Source/FilteringFunctions/arm_conv_partial_fast_q31.c ****  * WARRANTIES OR CONDITIONS OF ANY KIND, either express or implied.
  25:./Libraries/CMSIS/DSP/Source/FilteringFunctions/arm_conv_partial_fast_q31.c ****  * See the License for the specific language governing permissions and
  26:./Libraries/CMSIS/DSP/Source/FilteringFunctions/arm_conv_partial_fast_q31.c ****  * limitations under the License.
  27:./Libraries/CMSIS/DSP/Source/FilteringFunctions/arm_conv_partial_fast_q31.c ****  */
  28:./Libraries/CMSIS/DSP/Source/FilteringFunctions/arm_conv_partial_fast_q31.c **** 
  29:./Libraries/CMSIS/DSP/Source/FilteringFunctions/arm_conv_partial_fast_q31.c **** #include "arm_math.h"
ARM GAS  /tmp/ccHShaVx.s 			page 2


  30:./Libraries/CMSIS/DSP/Source/FilteringFunctions/arm_conv_partial_fast_q31.c **** 
  31:./Libraries/CMSIS/DSP/Source/FilteringFunctions/arm_conv_partial_fast_q31.c **** /**
  32:./Libraries/CMSIS/DSP/Source/FilteringFunctions/arm_conv_partial_fast_q31.c ****   @ingroup groupFilters
  33:./Libraries/CMSIS/DSP/Source/FilteringFunctions/arm_conv_partial_fast_q31.c ****  */
  34:./Libraries/CMSIS/DSP/Source/FilteringFunctions/arm_conv_partial_fast_q31.c **** 
  35:./Libraries/CMSIS/DSP/Source/FilteringFunctions/arm_conv_partial_fast_q31.c **** /**
  36:./Libraries/CMSIS/DSP/Source/FilteringFunctions/arm_conv_partial_fast_q31.c ****   @addtogroup PartialConv
  37:./Libraries/CMSIS/DSP/Source/FilteringFunctions/arm_conv_partial_fast_q31.c ****   @{
  38:./Libraries/CMSIS/DSP/Source/FilteringFunctions/arm_conv_partial_fast_q31.c ****  */
  39:./Libraries/CMSIS/DSP/Source/FilteringFunctions/arm_conv_partial_fast_q31.c **** 
  40:./Libraries/CMSIS/DSP/Source/FilteringFunctions/arm_conv_partial_fast_q31.c **** /**
  41:./Libraries/CMSIS/DSP/Source/FilteringFunctions/arm_conv_partial_fast_q31.c ****   @brief         Partial convolution of Q31 sequences (fast version).
  42:./Libraries/CMSIS/DSP/Source/FilteringFunctions/arm_conv_partial_fast_q31.c ****   @param[in]     pSrcA      points to the first input sequence
  43:./Libraries/CMSIS/DSP/Source/FilteringFunctions/arm_conv_partial_fast_q31.c ****   @param[in]     srcALen    length of the first input sequence
  44:./Libraries/CMSIS/DSP/Source/FilteringFunctions/arm_conv_partial_fast_q31.c ****   @param[in]     pSrcB      points to the second input sequence
  45:./Libraries/CMSIS/DSP/Source/FilteringFunctions/arm_conv_partial_fast_q31.c ****   @param[in]     srcBLen    length of the second input sequence
  46:./Libraries/CMSIS/DSP/Source/FilteringFunctions/arm_conv_partial_fast_q31.c ****   @param[out]    pDst       points to the location where the output result is written
  47:./Libraries/CMSIS/DSP/Source/FilteringFunctions/arm_conv_partial_fast_q31.c ****   @param[in]     firstIndex is the first output sample to start with
  48:./Libraries/CMSIS/DSP/Source/FilteringFunctions/arm_conv_partial_fast_q31.c ****   @param[in]     numPoints  is the number of output points to be computed
  49:./Libraries/CMSIS/DSP/Source/FilteringFunctions/arm_conv_partial_fast_q31.c ****   @return        execution status
  50:./Libraries/CMSIS/DSP/Source/FilteringFunctions/arm_conv_partial_fast_q31.c ****                    - \ref ARM_MATH_SUCCESS        : Operation successful
  51:./Libraries/CMSIS/DSP/Source/FilteringFunctions/arm_conv_partial_fast_q31.c ****                    - \ref ARM_MATH_ARGUMENT_ERROR : requested subset is not in the range [0 srcALen
  52:./Libraries/CMSIS/DSP/Source/FilteringFunctions/arm_conv_partial_fast_q31.c **** 
  53:./Libraries/CMSIS/DSP/Source/FilteringFunctions/arm_conv_partial_fast_q31.c ****   @remark
  54:./Libraries/CMSIS/DSP/Source/FilteringFunctions/arm_conv_partial_fast_q31.c ****                    Refer to \ref arm_conv_partial_q31() for a slower implementation of this functio
  55:./Libraries/CMSIS/DSP/Source/FilteringFunctions/arm_conv_partial_fast_q31.c ****  */
  56:./Libraries/CMSIS/DSP/Source/FilteringFunctions/arm_conv_partial_fast_q31.c **** 
  57:./Libraries/CMSIS/DSP/Source/FilteringFunctions/arm_conv_partial_fast_q31.c **** arm_status arm_conv_partial_fast_q31(
  58:./Libraries/CMSIS/DSP/Source/FilteringFunctions/arm_conv_partial_fast_q31.c ****   const q31_t * pSrcA,
  59:./Libraries/CMSIS/DSP/Source/FilteringFunctions/arm_conv_partial_fast_q31.c ****         uint32_t srcALen,
  60:./Libraries/CMSIS/DSP/Source/FilteringFunctions/arm_conv_partial_fast_q31.c ****   const q31_t * pSrcB,
  61:./Libraries/CMSIS/DSP/Source/FilteringFunctions/arm_conv_partial_fast_q31.c ****         uint32_t srcBLen,
  62:./Libraries/CMSIS/DSP/Source/FilteringFunctions/arm_conv_partial_fast_q31.c ****         q31_t * pDst,
  63:./Libraries/CMSIS/DSP/Source/FilteringFunctions/arm_conv_partial_fast_q31.c ****         uint32_t firstIndex,
  64:./Libraries/CMSIS/DSP/Source/FilteringFunctions/arm_conv_partial_fast_q31.c ****         uint32_t numPoints)
  65:./Libraries/CMSIS/DSP/Source/FilteringFunctions/arm_conv_partial_fast_q31.c **** {
  30              		.loc 1 65 1 view -0
  31              		.cfi_startproc
  32              		@ args = 12, pretend = 0, frame = 32
  33              		@ frame_needed = 0, uses_anonymous_args = 0
  66:./Libraries/CMSIS/DSP/Source/FilteringFunctions/arm_conv_partial_fast_q31.c ****   const q31_t *pIn1;                                   /* InputA pointer */
  34              		.loc 1 66 3 view .LVU1
  67:./Libraries/CMSIS/DSP/Source/FilteringFunctions/arm_conv_partial_fast_q31.c ****   const q31_t *pIn2;                                   /* InputB pointer */
  35              		.loc 1 67 3 view .LVU2
  68:./Libraries/CMSIS/DSP/Source/FilteringFunctions/arm_conv_partial_fast_q31.c ****         q31_t *pOut = pDst;                            /* Output pointer */
  36              		.loc 1 68 9 view .LVU3
  65:./Libraries/CMSIS/DSP/Source/FilteringFunctions/arm_conv_partial_fast_q31.c ****   const q31_t *pIn1;                                   /* InputA pointer */
  37              		.loc 1 65 1 is_stmt 0 view .LVU4
  38 0000 2DE9F04F 		push	{r4, r5, r6, r7, r8, r9, r10, fp, lr}
  39              	.LCFI0:
  40              		.cfi_def_cfa_offset 36
  41              		.cfi_offset 4, -36
  42              		.cfi_offset 5, -32
  43              		.cfi_offset 6, -28
  44              		.cfi_offset 7, -24
  45              		.cfi_offset 8, -20
  46              		.cfi_offset 9, -16
ARM GAS  /tmp/ccHShaVx.s 			page 3


  47              		.cfi_offset 10, -12
  48              		.cfi_offset 11, -8
  49              		.cfi_offset 14, -4
  50 0004 8846     		mov	r8, r1
  51 0006 89B0     		sub	sp, sp, #36
  52              	.LCFI1:
  53              		.cfi_def_cfa_offset 72
  65:./Libraries/CMSIS/DSP/Source/FilteringFunctions/arm_conv_partial_fast_q31.c ****   const q31_t *pIn1;                                   /* InputA pointer */
  54              		.loc 1 65 1 view .LVU5
  55 0008 8446     		mov	ip, r0
  56 000a 1D46     		mov	r5, r3
  69:./Libraries/CMSIS/DSP/Source/FilteringFunctions/arm_conv_partial_fast_q31.c ****   const q31_t *px;                                     /* Intermediate inputA pointer */
  70:./Libraries/CMSIS/DSP/Source/FilteringFunctions/arm_conv_partial_fast_q31.c ****   const q31_t *py;                                     /* Intermediate inputB pointer */
  71:./Libraries/CMSIS/DSP/Source/FilteringFunctions/arm_conv_partial_fast_q31.c ****   const q31_t *pSrc1, *pSrc2;                          /* Intermediate pointers */
  72:./Libraries/CMSIS/DSP/Source/FilteringFunctions/arm_conv_partial_fast_q31.c ****         q31_t sum;                                     /* Accumulators */
  73:./Libraries/CMSIS/DSP/Source/FilteringFunctions/arm_conv_partial_fast_q31.c ****         uint32_t j, k, count, check, blkCnt;
  74:./Libraries/CMSIS/DSP/Source/FilteringFunctions/arm_conv_partial_fast_q31.c ****         int32_t blockSize1, blockSize2, blockSize3;    /* Loop counters */
  75:./Libraries/CMSIS/DSP/Source/FilteringFunctions/arm_conv_partial_fast_q31.c ****         arm_status status;                             /* Status of Partial convolution */
  76:./Libraries/CMSIS/DSP/Source/FilteringFunctions/arm_conv_partial_fast_q31.c **** 
  77:./Libraries/CMSIS/DSP/Source/FilteringFunctions/arm_conv_partial_fast_q31.c **** #if defined (ARM_MATH_LOOPUNROLL)
  78:./Libraries/CMSIS/DSP/Source/FilteringFunctions/arm_conv_partial_fast_q31.c ****         q31_t acc0, acc1, acc2, acc3;                  /* Accumulators */
  79:./Libraries/CMSIS/DSP/Source/FilteringFunctions/arm_conv_partial_fast_q31.c ****         q31_t x0, x1, x2, x3, c0;
  80:./Libraries/CMSIS/DSP/Source/FilteringFunctions/arm_conv_partial_fast_q31.c **** #endif
  81:./Libraries/CMSIS/DSP/Source/FilteringFunctions/arm_conv_partial_fast_q31.c **** 
  82:./Libraries/CMSIS/DSP/Source/FilteringFunctions/arm_conv_partial_fast_q31.c ****   /* Check for range of output samples to be calculated */
  83:./Libraries/CMSIS/DSP/Source/FilteringFunctions/arm_conv_partial_fast_q31.c ****   if ((firstIndex + numPoints) > ((srcALen + (srcBLen - 1U))))
  57              		.loc 1 83 19 view .LVU6
  58 000c 139C     		ldr	r4, [sp, #76]
  59 000e 08F1FF37 		add	r7, r8, #-1
  65:./Libraries/CMSIS/DSP/Source/FilteringFunctions/arm_conv_partial_fast_q31.c ****   const q31_t *pIn1;                                   /* InputA pointer */
  60              		.loc 1 65 1 view .LVU7
  61 0012 1499     		ldr	r1, [sp, #80]
  62              	.LVL1:
  65:./Libraries/CMSIS/DSP/Source/FilteringFunctions/arm_conv_partial_fast_q31.c ****   const q31_t *pIn1;                                   /* InputA pointer */
  63              		.loc 1 65 1 view .LVU8
  64 0014 0490     		str	r0, [sp, #16]
  65 0016 0192     		str	r2, [sp, #4]
  66              		.loc 1 83 19 view .LVU9
  67 0018 6018     		adds	r0, r4, r1
  68              	.LVL2:
  65:./Libraries/CMSIS/DSP/Source/FilteringFunctions/arm_conv_partial_fast_q31.c ****   const q31_t *pIn1;                                   /* InputA pointer */
  69              		.loc 1 65 1 view .LVU10
  70 001a 1446     		mov	r4, r2
  71              		.loc 1 83 44 view .LVU11
  72 001c FA18     		adds	r2, r7, r3
  73              	.LVL3:
  65:./Libraries/CMSIS/DSP/Source/FilteringFunctions/arm_conv_partial_fast_q31.c ****   const q31_t *pIn1;                                   /* InputA pointer */
  74              		.loc 1 65 1 view .LVU12
  75 001e 0093     		str	r3, [sp]
  76              		.loc 1 83 6 view .LVU13
  77 0020 9042     		cmp	r0, r2
  65:./Libraries/CMSIS/DSP/Source/FilteringFunctions/arm_conv_partial_fast_q31.c ****   const q31_t *pIn1;                                   /* InputA pointer */
  78              		.loc 1 65 1 view .LVU14
  79 0022 129B     		ldr	r3, [sp, #72]
  80              	.LVL4:
  69:./Libraries/CMSIS/DSP/Source/FilteringFunctions/arm_conv_partial_fast_q31.c ****   const q31_t *px;                                     /* Intermediate inputA pointer */
  81              		.loc 1 69 3 is_stmt 1 view .LVU15
ARM GAS  /tmp/ccHShaVx.s 			page 4


  70:./Libraries/CMSIS/DSP/Source/FilteringFunctions/arm_conv_partial_fast_q31.c ****   const q31_t *pSrc1, *pSrc2;                          /* Intermediate pointers */
  82              		.loc 1 70 3 view .LVU16
  71:./Libraries/CMSIS/DSP/Source/FilteringFunctions/arm_conv_partial_fast_q31.c ****         q31_t sum;                                     /* Accumulators */
  83              		.loc 1 71 3 view .LVU17
  72:./Libraries/CMSIS/DSP/Source/FilteringFunctions/arm_conv_partial_fast_q31.c ****         uint32_t j, k, count, check, blkCnt;
  84              		.loc 1 72 9 view .LVU18
  73:./Libraries/CMSIS/DSP/Source/FilteringFunctions/arm_conv_partial_fast_q31.c ****         int32_t blockSize1, blockSize2, blockSize3;    /* Loop counters */
  85              		.loc 1 73 9 view .LVU19
  74:./Libraries/CMSIS/DSP/Source/FilteringFunctions/arm_conv_partial_fast_q31.c ****         arm_status status;                             /* Status of Partial convolution */
  86              		.loc 1 74 9 view .LVU20
  75:./Libraries/CMSIS/DSP/Source/FilteringFunctions/arm_conv_partial_fast_q31.c **** 
  87              		.loc 1 75 9 view .LVU21
  88              		.loc 1 83 3 view .LVU22
  89              		.loc 1 83 6 is_stmt 0 view .LVU23
  90 0024 00F20C81 		bhi	.L26
  84:./Libraries/CMSIS/DSP/Source/FilteringFunctions/arm_conv_partial_fast_q31.c ****   {
  85:./Libraries/CMSIS/DSP/Source/FilteringFunctions/arm_conv_partial_fast_q31.c ****     /* Set status as ARM_MATH_ARGUMENT_ERROR */
  86:./Libraries/CMSIS/DSP/Source/FilteringFunctions/arm_conv_partial_fast_q31.c ****     status = ARM_MATH_ARGUMENT_ERROR;
  87:./Libraries/CMSIS/DSP/Source/FilteringFunctions/arm_conv_partial_fast_q31.c ****   }
  88:./Libraries/CMSIS/DSP/Source/FilteringFunctions/arm_conv_partial_fast_q31.c ****   else
  89:./Libraries/CMSIS/DSP/Source/FilteringFunctions/arm_conv_partial_fast_q31.c ****   {
  90:./Libraries/CMSIS/DSP/Source/FilteringFunctions/arm_conv_partial_fast_q31.c ****     /* The algorithm implementation is based on the lengths of the inputs. */
  91:./Libraries/CMSIS/DSP/Source/FilteringFunctions/arm_conv_partial_fast_q31.c ****     /* srcB is always made to slide across srcA. */
  92:./Libraries/CMSIS/DSP/Source/FilteringFunctions/arm_conv_partial_fast_q31.c ****     /* So srcBLen is always considered as shorter or equal to srcALen */
  93:./Libraries/CMSIS/DSP/Source/FilteringFunctions/arm_conv_partial_fast_q31.c ****     if (srcALen >= srcBLen)
  91              		.loc 1 93 5 is_stmt 1 view .LVU24
  92              		.loc 1 93 8 is_stmt 0 view .LVU25
  93 0028 4545     		cmp	r5, r8
  94 002a 06D8     		bhi	.L3
  95 002c CDF80080 		str	r8, [sp]
  96 0030 6F1E     		subs	r7, r5, #1
  97 0032 A846     		mov	r8, r5
  98              	.LVL5:
  94:./Libraries/CMSIS/DSP/Source/FilteringFunctions/arm_conv_partial_fast_q31.c ****     {
  95:./Libraries/CMSIS/DSP/Source/FilteringFunctions/arm_conv_partial_fast_q31.c ****       /* Initialization of inputA pointer */
  96:./Libraries/CMSIS/DSP/Source/FilteringFunctions/arm_conv_partial_fast_q31.c ****       pIn1 = pSrcA;
  99              		.loc 1 96 12 view .LVU26
 100 0034 CDF804C0 		str	ip, [sp, #4]
  97:./Libraries/CMSIS/DSP/Source/FilteringFunctions/arm_conv_partial_fast_q31.c **** 
  98:./Libraries/CMSIS/DSP/Source/FilteringFunctions/arm_conv_partial_fast_q31.c ****       /* Initialization of inputB pointer */
  99:./Libraries/CMSIS/DSP/Source/FilteringFunctions/arm_conv_partial_fast_q31.c ****       pIn2 = pSrcB;
 101              		.loc 1 99 12 view .LVU27
 102 0038 0494     		str	r4, [sp, #16]
 103              	.LVL6:
 104              	.L3:
 100:./Libraries/CMSIS/DSP/Source/FilteringFunctions/arm_conv_partial_fast_q31.c ****     }
 101:./Libraries/CMSIS/DSP/Source/FilteringFunctions/arm_conv_partial_fast_q31.c ****     else
 102:./Libraries/CMSIS/DSP/Source/FilteringFunctions/arm_conv_partial_fast_q31.c ****     {
 103:./Libraries/CMSIS/DSP/Source/FilteringFunctions/arm_conv_partial_fast_q31.c ****       /* Initialization of inputA pointer */
 104:./Libraries/CMSIS/DSP/Source/FilteringFunctions/arm_conv_partial_fast_q31.c ****       pIn1 = pSrcB;
 105:./Libraries/CMSIS/DSP/Source/FilteringFunctions/arm_conv_partial_fast_q31.c **** 
 106:./Libraries/CMSIS/DSP/Source/FilteringFunctions/arm_conv_partial_fast_q31.c ****       /* Initialization of inputB pointer */
 107:./Libraries/CMSIS/DSP/Source/FilteringFunctions/arm_conv_partial_fast_q31.c ****       pIn2 = pSrcA;
 108:./Libraries/CMSIS/DSP/Source/FilteringFunctions/arm_conv_partial_fast_q31.c **** 
 109:./Libraries/CMSIS/DSP/Source/FilteringFunctions/arm_conv_partial_fast_q31.c ****       /* srcBLen is always considered as shorter or equal to srcALen */
 110:./Libraries/CMSIS/DSP/Source/FilteringFunctions/arm_conv_partial_fast_q31.c ****       j = srcBLen;
 111:./Libraries/CMSIS/DSP/Source/FilteringFunctions/arm_conv_partial_fast_q31.c ****       srcBLen = srcALen;
ARM GAS  /tmp/ccHShaVx.s 			page 5


 112:./Libraries/CMSIS/DSP/Source/FilteringFunctions/arm_conv_partial_fast_q31.c ****       srcALen = j;
 113:./Libraries/CMSIS/DSP/Source/FilteringFunctions/arm_conv_partial_fast_q31.c ****     }
 114:./Libraries/CMSIS/DSP/Source/FilteringFunctions/arm_conv_partial_fast_q31.c **** 
 115:./Libraries/CMSIS/DSP/Source/FilteringFunctions/arm_conv_partial_fast_q31.c ****     /* Conditions to check which loopCounter holds
 116:./Libraries/CMSIS/DSP/Source/FilteringFunctions/arm_conv_partial_fast_q31.c ****      * the first and last indices of the output samples to be calculated. */
 117:./Libraries/CMSIS/DSP/Source/FilteringFunctions/arm_conv_partial_fast_q31.c ****     check = firstIndex + numPoints;
 105              		.loc 1 117 5 is_stmt 1 view .LVU28
 118:./Libraries/CMSIS/DSP/Source/FilteringFunctions/arm_conv_partial_fast_q31.c ****     blockSize3 = ((int32_t)check > (int32_t)srcALen) ? (int32_t)check - (int32_t)srcALen : 0;
 106              		.loc 1 118 5 view .LVU29
 107              		.loc 1 118 90 is_stmt 0 view .LVU30
 108 003a 009A     		ldr	r2, [sp]
 119:./Libraries/CMSIS/DSP/Source/FilteringFunctions/arm_conv_partial_fast_q31.c ****     blockSize3 = ((int32_t)firstIndex > (int32_t)srcALen - 1) ? blockSize3 - (int32_t)firstIndex + 
 109              		.loc 1 119 117 view .LVU31
 110 003c 009C     		ldr	r4, [sp]
 111              	.LVL7:
 118:./Libraries/CMSIS/DSP/Source/FilteringFunctions/arm_conv_partial_fast_q31.c ****     blockSize3 = ((int32_t)check > (int32_t)srcALen) ? (int32_t)check - (int32_t)srcALen : 0;
 112              		.loc 1 118 90 view .LVU32
 113 003e 9042     		cmp	r0, r2
 114              		.loc 1 119 117 view .LVU33
 115 0040 139D     		ldr	r5, [sp, #76]
 118:./Libraries/CMSIS/DSP/Source/FilteringFunctions/arm_conv_partial_fast_q31.c ****     blockSize3 = ((int32_t)check > (int32_t)srcALen) ? (int32_t)check - (int32_t)srcALen : 0;
 116              		.loc 1 118 90 view .LVU34
 117 0042 CCBF     		ite	gt
 118 0044 821A     		subgt	r2, r0, r2
 119 0046 0022     		movle	r2, #0
 120              		.loc 1 119 117 view .LVU35
 121 0048 AC42     		cmp	r4, r5
 118:./Libraries/CMSIS/DSP/Source/FilteringFunctions/arm_conv_partial_fast_q31.c ****     blockSize3 = ((int32_t)check > (int32_t)srcALen) ? (int32_t)check - (int32_t)srcALen : 0;
 122              		.loc 1 118 90 view .LVU36
 123 004a 0292     		str	r2, [sp, #8]
 124              	.LVL8:
 125              		.loc 1 119 5 is_stmt 1 view .LVU37
 126              		.loc 1 119 117 is_stmt 0 view .LVU38
 127 004c 40F3CD80 		ble	.L49
 128              	.LVL9:
 129              	.L5:
 120:./Libraries/CMSIS/DSP/Source/FilteringFunctions/arm_conv_partial_fast_q31.c ****     blockSize1 = ((int32_t) srcBLen - 1) - (int32_t) firstIndex;
 130              		.loc 1 120 5 is_stmt 1 discriminator 4 view .LVU39
 131              		.loc 1 120 42 is_stmt 0 discriminator 4 view .LVU40
 132 0050 139A     		ldr	r2, [sp, #76]
 133 0052 D243     		mvns	r2, r2
 134 0054 4244     		add	r2, r2, r8
 121:./Libraries/CMSIS/DSP/Source/FilteringFunctions/arm_conv_partial_fast_q31.c ****     blockSize1 = (blockSize1 > 0) ? ((check > (srcBLen - 1U)) ? blockSize1 : (int32_t) numPoints) :
 135              		.loc 1 121 99 discriminator 4 view .LVU41
 136 0056 002A     		cmp	r2, #0
 120:./Libraries/CMSIS/DSP/Source/FilteringFunctions/arm_conv_partial_fast_q31.c ****     blockSize1 = ((int32_t) srcBLen - 1) - (int32_t) firstIndex;
 137              		.loc 1 120 42 discriminator 4 view .LVU42
 138 0058 0392     		str	r2, [sp, #12]
 139              	.LVL10:
 140              		.loc 1 121 5 is_stmt 1 discriminator 4 view .LVU43
 141              		.loc 1 121 99 is_stmt 0 discriminator 4 view .LVU44
 142 005a 40F3E680 		ble	.L6
 143              		.loc 1 121 76 discriminator 1 view .LVU45
 144 005e B842     		cmp	r0, r7
 145 0060 00F2C880 		bhi	.L7
 146              	.LVL11:
 122:./Libraries/CMSIS/DSP/Source/FilteringFunctions/arm_conv_partial_fast_q31.c ****     blockSize2 = (int32_t) check - ((blockSize3 + blockSize1) + (int32_t) firstIndex);
ARM GAS  /tmp/ccHShaVx.s 			page 6


 123:./Libraries/CMSIS/DSP/Source/FilteringFunctions/arm_conv_partial_fast_q31.c ****     blockSize2 = (blockSize2 > 0) ? blockSize2 : 0;
 124:./Libraries/CMSIS/DSP/Source/FilteringFunctions/arm_conv_partial_fast_q31.c **** 
 125:./Libraries/CMSIS/DSP/Source/FilteringFunctions/arm_conv_partial_fast_q31.c ****     /* conv(x,y) at n = x[n] * y[0] + x[n-1] * y[1] + x[n-2] * y[2] + ...+ x[n-N+1] * y[N -1] */
 126:./Libraries/CMSIS/DSP/Source/FilteringFunctions/arm_conv_partial_fast_q31.c ****     /* The function is internally
 127:./Libraries/CMSIS/DSP/Source/FilteringFunctions/arm_conv_partial_fast_q31.c ****      * divided into three stages according to the number of multiplications that has to be
 128:./Libraries/CMSIS/DSP/Source/FilteringFunctions/arm_conv_partial_fast_q31.c ****      * taken place between inputA samples and inputB samples. In the first stage of the
 129:./Libraries/CMSIS/DSP/Source/FilteringFunctions/arm_conv_partial_fast_q31.c ****      * algorithm, the multiplications increase by one for every iteration.
 130:./Libraries/CMSIS/DSP/Source/FilteringFunctions/arm_conv_partial_fast_q31.c ****      * In the second stage of the algorithm, srcBLen number of multiplications are done.
 131:./Libraries/CMSIS/DSP/Source/FilteringFunctions/arm_conv_partial_fast_q31.c ****      * In the third stage of the algorithm, the multiplications decrease by one
 132:./Libraries/CMSIS/DSP/Source/FilteringFunctions/arm_conv_partial_fast_q31.c ****      * for every iteration. */
 133:./Libraries/CMSIS/DSP/Source/FilteringFunctions/arm_conv_partial_fast_q31.c **** 
 134:./Libraries/CMSIS/DSP/Source/FilteringFunctions/arm_conv_partial_fast_q31.c ****     /* Set the output pointer to point to the firstIndex
 135:./Libraries/CMSIS/DSP/Source/FilteringFunctions/arm_conv_partial_fast_q31.c ****      * of the output sample to be calculated. */
 136:./Libraries/CMSIS/DSP/Source/FilteringFunctions/arm_conv_partial_fast_q31.c ****     pOut = pDst + firstIndex;
 147              		.loc 1 136 10 discriminator 4 view .LVU46
 148 0064 139C     		ldr	r4, [sp, #76]
 121:./Libraries/CMSIS/DSP/Source/FilteringFunctions/arm_conv_partial_fast_q31.c ****     blockSize1 = (blockSize1 > 0) ? ((check > (srcBLen - 1U)) ? blockSize1 : (int32_t) numPoints) :
 149              		.loc 1 121 76 discriminator 4 view .LVU47
 150 0066 0A46     		mov	r2, r1
 151 0068 0391     		str	r1, [sp, #12]
 122:./Libraries/CMSIS/DSP/Source/FilteringFunctions/arm_conv_partial_fast_q31.c ****     blockSize2 = (int32_t) check - ((blockSize3 + blockSize1) + (int32_t) firstIndex);
 152              		.loc 1 122 5 is_stmt 1 discriminator 4 view .LVU48
 153              		.loc 1 136 10 is_stmt 0 discriminator 4 view .LVU49
 154 006a 03EB840C 		add	ip, r3, r4, lsl #2
 155              	.LVL12:
 137:./Libraries/CMSIS/DSP/Source/FilteringFunctions/arm_conv_partial_fast_q31.c **** 
 138:./Libraries/CMSIS/DSP/Source/FilteringFunctions/arm_conv_partial_fast_q31.c ****     /* --------------------------
 139:./Libraries/CMSIS/DSP/Source/FilteringFunctions/arm_conv_partial_fast_q31.c ****      * Initializations of stage1
 140:./Libraries/CMSIS/DSP/Source/FilteringFunctions/arm_conv_partial_fast_q31.c ****      * -------------------------*/
 141:./Libraries/CMSIS/DSP/Source/FilteringFunctions/arm_conv_partial_fast_q31.c **** 
 142:./Libraries/CMSIS/DSP/Source/FilteringFunctions/arm_conv_partial_fast_q31.c ****     /* sum = x[0] * y[0]
 143:./Libraries/CMSIS/DSP/Source/FilteringFunctions/arm_conv_partial_fast_q31.c ****      * sum = x[0] * y[1] + x[1] * y[0]
 144:./Libraries/CMSIS/DSP/Source/FilteringFunctions/arm_conv_partial_fast_q31.c ****      * ....
 145:./Libraries/CMSIS/DSP/Source/FilteringFunctions/arm_conv_partial_fast_q31.c ****      * sum = x[0] * y[srcBlen - 1] + x[1] * y[srcBlen - 2] +...+ x[srcBLen - 1] * y[0]
 146:./Libraries/CMSIS/DSP/Source/FilteringFunctions/arm_conv_partial_fast_q31.c ****      */
 147:./Libraries/CMSIS/DSP/Source/FilteringFunctions/arm_conv_partial_fast_q31.c **** 
 148:./Libraries/CMSIS/DSP/Source/FilteringFunctions/arm_conv_partial_fast_q31.c ****     /* In this stage the MAC operations are increased by 1 for every iteration.
 149:./Libraries/CMSIS/DSP/Source/FilteringFunctions/arm_conv_partial_fast_q31.c ****        The count variable holds the number of MAC operations performed.
 150:./Libraries/CMSIS/DSP/Source/FilteringFunctions/arm_conv_partial_fast_q31.c ****        Since the partial convolution starts from firstIndex
 151:./Libraries/CMSIS/DSP/Source/FilteringFunctions/arm_conv_partial_fast_q31.c ****        Number of Macs to be performed is firstIndex + 1 */
 152:./Libraries/CMSIS/DSP/Source/FilteringFunctions/arm_conv_partial_fast_q31.c ****     count = 1U + firstIndex;
 153:./Libraries/CMSIS/DSP/Source/FilteringFunctions/arm_conv_partial_fast_q31.c **** 
 154:./Libraries/CMSIS/DSP/Source/FilteringFunctions/arm_conv_partial_fast_q31.c ****     /* Working pointer of inputA */
 155:./Libraries/CMSIS/DSP/Source/FilteringFunctions/arm_conv_partial_fast_q31.c ****     px = pIn1;
 156:./Libraries/CMSIS/DSP/Source/FilteringFunctions/arm_conv_partial_fast_q31.c **** 
 157:./Libraries/CMSIS/DSP/Source/FilteringFunctions/arm_conv_partial_fast_q31.c ****     /* Working pointer of inputB */
 158:./Libraries/CMSIS/DSP/Source/FilteringFunctions/arm_conv_partial_fast_q31.c ****     pSrc2 = pIn2 + firstIndex;
 156              		.loc 1 158 11 discriminator 4 view .LVU50
 157 006e 049B     		ldr	r3, [sp, #16]
 158              	.LVL13:
 152:./Libraries/CMSIS/DSP/Source/FilteringFunctions/arm_conv_partial_fast_q31.c **** 
 159              		.loc 1 152 11 discriminator 4 view .LVU51
 160 0070 611C     		adds	r1, r4, #1
 161              	.LVL14:
 162              		.loc 1 158 11 discriminator 4 view .LVU52
 163 0072 03EB840E 		add	lr, r3, r4, lsl #2
 122:./Libraries/CMSIS/DSP/Source/FilteringFunctions/arm_conv_partial_fast_q31.c ****     blockSize2 = (int32_t) check - ((blockSize3 + blockSize1) + (int32_t) firstIndex);
ARM GAS  /tmp/ccHShaVx.s 			page 7


 164              		.loc 1 122 49 discriminator 4 view .LVU53
 165 0076 029B     		ldr	r3, [sp, #8]
 166 0078 1344     		add	r3, r3, r2
 122:./Libraries/CMSIS/DSP/Source/FilteringFunctions/arm_conv_partial_fast_q31.c ****     blockSize2 = (int32_t) check - ((blockSize3 + blockSize1) + (int32_t) firstIndex);
 167              		.loc 1 122 63 discriminator 4 view .LVU54
 168 007a 2344     		add	r3, r3, r4
 122:./Libraries/CMSIS/DSP/Source/FilteringFunctions/arm_conv_partial_fast_q31.c ****     blockSize2 = (int32_t) check - ((blockSize3 + blockSize1) + (int32_t) firstIndex);
 169              		.loc 1 122 16 discriminator 4 view .LVU55
 170 007c C01A     		subs	r0, r0, r3
 171              	.LVL15:
 123:./Libraries/CMSIS/DSP/Source/FilteringFunctions/arm_conv_partial_fast_q31.c **** 
 172              		.loc 1 123 5 is_stmt 1 discriminator 4 view .LVU56
 123:./Libraries/CMSIS/DSP/Source/FilteringFunctions/arm_conv_partial_fast_q31.c **** 
 173              		.loc 1 123 16 is_stmt 0 discriminator 4 view .LVU57
 174 007e 20EAE073 		bic	r3, r0, r0, asr #31
 175 0082 0593     		str	r3, [sp, #20]
 176              	.LVL16:
 136:./Libraries/CMSIS/DSP/Source/FilteringFunctions/arm_conv_partial_fast_q31.c **** 
 177              		.loc 1 136 5 is_stmt 1 discriminator 4 view .LVU58
 152:./Libraries/CMSIS/DSP/Source/FilteringFunctions/arm_conv_partial_fast_q31.c **** 
 178              		.loc 1 152 5 discriminator 4 view .LVU59
 155:./Libraries/CMSIS/DSP/Source/FilteringFunctions/arm_conv_partial_fast_q31.c **** 
 179              		.loc 1 155 5 discriminator 4 view .LVU60
 180              		.loc 1 158 5 discriminator 4 view .LVU61
 159:./Libraries/CMSIS/DSP/Source/FilteringFunctions/arm_conv_partial_fast_q31.c ****     py = pSrc2;
 181              		.loc 1 159 5 discriminator 4 view .LVU62
 160:./Libraries/CMSIS/DSP/Source/FilteringFunctions/arm_conv_partial_fast_q31.c **** 
 161:./Libraries/CMSIS/DSP/Source/FilteringFunctions/arm_conv_partial_fast_q31.c ****     /* ------------------------
 162:./Libraries/CMSIS/DSP/Source/FilteringFunctions/arm_conv_partial_fast_q31.c ****      * Stage1 process
 163:./Libraries/CMSIS/DSP/Source/FilteringFunctions/arm_conv_partial_fast_q31.c ****      * ----------------------*/
 164:./Libraries/CMSIS/DSP/Source/FilteringFunctions/arm_conv_partial_fast_q31.c **** 
 165:./Libraries/CMSIS/DSP/Source/FilteringFunctions/arm_conv_partial_fast_q31.c ****     /* The first stage starts here */
 166:./Libraries/CMSIS/DSP/Source/FilteringFunctions/arm_conv_partial_fast_q31.c ****     while (blockSize1 > 0U)
 182              		.loc 1 166 5 discriminator 4 view .LVU63
 183              		.loc 1 166 11 discriminator 4 view .LVU64
 184 0084 2AB3     		cbz	r2, .L9
 185              	.LVL17:
 186              	.L8:
 187              		.loc 1 166 11 is_stmt 0 discriminator 4 view .LVU65
 188 0086 039B     		ldr	r3, [sp, #12]
 189              	.LVL18:
 167:./Libraries/CMSIS/DSP/Source/FilteringFunctions/arm_conv_partial_fast_q31.c ****     {
 168:./Libraries/CMSIS/DSP/Source/FilteringFunctions/arm_conv_partial_fast_q31.c ****       /* Accumulator is made zero for every iteration */
 169:./Libraries/CMSIS/DSP/Source/FilteringFunctions/arm_conv_partial_fast_q31.c ****       sum = 0;
 170:./Libraries/CMSIS/DSP/Source/FilteringFunctions/arm_conv_partial_fast_q31.c **** 
 171:./Libraries/CMSIS/DSP/Source/FilteringFunctions/arm_conv_partial_fast_q31.c **** #if defined (ARM_MATH_LOOPUNROLL)
 172:./Libraries/CMSIS/DSP/Source/FilteringFunctions/arm_conv_partial_fast_q31.c **** 
 173:./Libraries/CMSIS/DSP/Source/FilteringFunctions/arm_conv_partial_fast_q31.c ****       /* Loop unrolling: Compute 4 outputs at a time */
 174:./Libraries/CMSIS/DSP/Source/FilteringFunctions/arm_conv_partial_fast_q31.c ****       k = count >> 2U;
 175:./Libraries/CMSIS/DSP/Source/FilteringFunctions/arm_conv_partial_fast_q31.c **** 
 176:./Libraries/CMSIS/DSP/Source/FilteringFunctions/arm_conv_partial_fast_q31.c ****       while (k > 0U)
 177:./Libraries/CMSIS/DSP/Source/FilteringFunctions/arm_conv_partial_fast_q31.c ****       {
 178:./Libraries/CMSIS/DSP/Source/FilteringFunctions/arm_conv_partial_fast_q31.c ****         /* x[0] * y[srcBLen - 1] */
 179:./Libraries/CMSIS/DSP/Source/FilteringFunctions/arm_conv_partial_fast_q31.c ****         sum = (q31_t) ((((q63_t) sum << 32) +
 180:./Libraries/CMSIS/DSP/Source/FilteringFunctions/arm_conv_partial_fast_q31.c ****                         ((q63_t) *px++ * (*py--))) >> 32);
 181:./Libraries/CMSIS/DSP/Source/FilteringFunctions/arm_conv_partial_fast_q31.c **** 
 182:./Libraries/CMSIS/DSP/Source/FilteringFunctions/arm_conv_partial_fast_q31.c ****         /* x[1] * y[srcBLen - 2] */
ARM GAS  /tmp/ccHShaVx.s 			page 8


 183:./Libraries/CMSIS/DSP/Source/FilteringFunctions/arm_conv_partial_fast_q31.c ****         sum = (q31_t) ((((q63_t) sum << 32) +
 184:./Libraries/CMSIS/DSP/Source/FilteringFunctions/arm_conv_partial_fast_q31.c ****                         ((q63_t) *px++ * (*py--))) >> 32);
 185:./Libraries/CMSIS/DSP/Source/FilteringFunctions/arm_conv_partial_fast_q31.c **** 
 186:./Libraries/CMSIS/DSP/Source/FilteringFunctions/arm_conv_partial_fast_q31.c ****         /* x[2] * y[srcBLen - 3] */
 187:./Libraries/CMSIS/DSP/Source/FilteringFunctions/arm_conv_partial_fast_q31.c ****         sum = (q31_t) ((((q63_t) sum << 32) +
 188:./Libraries/CMSIS/DSP/Source/FilteringFunctions/arm_conv_partial_fast_q31.c ****                         ((q63_t) *px++ * (*py--))) >> 32);
 189:./Libraries/CMSIS/DSP/Source/FilteringFunctions/arm_conv_partial_fast_q31.c **** 
 190:./Libraries/CMSIS/DSP/Source/FilteringFunctions/arm_conv_partial_fast_q31.c ****         /* x[3] * y[srcBLen - 4] */
 191:./Libraries/CMSIS/DSP/Source/FilteringFunctions/arm_conv_partial_fast_q31.c ****         sum = (q31_t) ((((q63_t) sum << 32) +
 192:./Libraries/CMSIS/DSP/Source/FilteringFunctions/arm_conv_partial_fast_q31.c ****                         ((q63_t) *px++ * (*py--))) >> 32);
 193:./Libraries/CMSIS/DSP/Source/FilteringFunctions/arm_conv_partial_fast_q31.c **** 
 194:./Libraries/CMSIS/DSP/Source/FilteringFunctions/arm_conv_partial_fast_q31.c ****         /* Decrement loop counter */
 195:./Libraries/CMSIS/DSP/Source/FilteringFunctions/arm_conv_partial_fast_q31.c ****         k--;
 196:./Libraries/CMSIS/DSP/Source/FilteringFunctions/arm_conv_partial_fast_q31.c ****       }
 197:./Libraries/CMSIS/DSP/Source/FilteringFunctions/arm_conv_partial_fast_q31.c **** 
 198:./Libraries/CMSIS/DSP/Source/FilteringFunctions/arm_conv_partial_fast_q31.c ****       /* Loop unrolling: Compute remaining outputs */
 199:./Libraries/CMSIS/DSP/Source/FilteringFunctions/arm_conv_partial_fast_q31.c ****       k = count % 0x4U;
 200:./Libraries/CMSIS/DSP/Source/FilteringFunctions/arm_conv_partial_fast_q31.c **** 
 201:./Libraries/CMSIS/DSP/Source/FilteringFunctions/arm_conv_partial_fast_q31.c **** #else
 202:./Libraries/CMSIS/DSP/Source/FilteringFunctions/arm_conv_partial_fast_q31.c **** 
 203:./Libraries/CMSIS/DSP/Source/FilteringFunctions/arm_conv_partial_fast_q31.c ****       /* Initialize k with number of samples */
 204:./Libraries/CMSIS/DSP/Source/FilteringFunctions/arm_conv_partial_fast_q31.c ****       k = count;
 205:./Libraries/CMSIS/DSP/Source/FilteringFunctions/arm_conv_partial_fast_q31.c **** 
 206:./Libraries/CMSIS/DSP/Source/FilteringFunctions/arm_conv_partial_fast_q31.c **** #endif /* #if defined (ARM_MATH_LOOPUNROLL) */
 207:./Libraries/CMSIS/DSP/Source/FilteringFunctions/arm_conv_partial_fast_q31.c **** 
 208:./Libraries/CMSIS/DSP/Source/FilteringFunctions/arm_conv_partial_fast_q31.c ****       while (k > 0U)
 190              		.loc 1 208 13 view .LVU66
 191 0088 E146     		mov	r9, ip
 192 008a CB18     		adds	r3, r1, r3
 193 008c CDE9067C 		strd	r7, ip, [sp, #24]
 194 0090 9A46     		mov	r10, r3
 195 0092 DDF804C0 		ldr	ip, [sp, #4]
 196              	.LVL19:
 197              	.L11:
 198              		.loc 1 208 13 is_stmt 1 view .LVU67
 199 0096 0029     		cmp	r1, #0
 200 0098 5DD0     		beq	.L50
 201              		.loc 1 208 13 is_stmt 0 view .LVU68
 202 009a 0846     		mov	r0, r1
 203 009c 7646     		mov	r6, lr
 204 009e 6546     		mov	r5, ip
 169:./Libraries/CMSIS/DSP/Source/FilteringFunctions/arm_conv_partial_fast_q31.c **** 
 205              		.loc 1 169 11 view .LVU69
 206 00a0 0024     		movs	r4, #0
 207              	.LVL20:
 208              	.L10:
 209:./Libraries/CMSIS/DSP/Source/FilteringFunctions/arm_conv_partial_fast_q31.c ****       {
 210:./Libraries/CMSIS/DSP/Source/FilteringFunctions/arm_conv_partial_fast_q31.c ****         /* Perform the multiply-accumulate */
 211:./Libraries/CMSIS/DSP/Source/FilteringFunctions/arm_conv_partial_fast_q31.c ****         sum = (q31_t) ((((q63_t) sum << 32) +
 209              		.loc 1 211 9 is_stmt 1 view .LVU70
 210              		.loc 1 211 38 is_stmt 0 view .LVU71
 211 00a2 2346     		mov	r3, r4
 212 00a4 0022     		movs	r2, #0
 213              		.loc 1 211 45 view .LVU72
 214 00a6 55F804BB 		ldr	fp, [r5], #4
 215              	.LVL21:
 208:./Libraries/CMSIS/DSP/Source/FilteringFunctions/arm_conv_partial_fast_q31.c ****       {
ARM GAS  /tmp/ccHShaVx.s 			page 9


 216              		.loc 1 208 13 view .LVU73
 217 00aa 0138     		subs	r0, r0, #1
 218              	.LVL22:
 219              		.loc 1 211 45 view .LVU74
 220 00ac 56F80479 		ldr	r7, [r6], #-4
 221              	.LVL23:
 222              		.loc 1 211 45 view .LVU75
 223 00b0 C7FB0B23 		smlal	r2, r3, r7, fp
 224              		.loc 1 211 13 view .LVU76
 225 00b4 1C46     		mov	r4, r3
 226              	.LVL24:
 212:./Libraries/CMSIS/DSP/Source/FilteringFunctions/arm_conv_partial_fast_q31.c ****                         ((q63_t) *px++ * (*py--))) >> 32);
 213:./Libraries/CMSIS/DSP/Source/FilteringFunctions/arm_conv_partial_fast_q31.c **** 
 214:./Libraries/CMSIS/DSP/Source/FilteringFunctions/arm_conv_partial_fast_q31.c ****         /* Decrement loop counter */
 215:./Libraries/CMSIS/DSP/Source/FilteringFunctions/arm_conv_partial_fast_q31.c ****         k--;
 227              		.loc 1 215 9 is_stmt 1 view .LVU77
 208:./Libraries/CMSIS/DSP/Source/FilteringFunctions/arm_conv_partial_fast_q31.c ****       {
 228              		.loc 1 208 13 view .LVU78
 229 00b6 F4D1     		bne	.L10
 230 00b8 5C00     		lsls	r4, r3, #1
 231              	.LVL25:
 232              	.L13:
 216:./Libraries/CMSIS/DSP/Source/FilteringFunctions/arm_conv_partial_fast_q31.c ****       }
 217:./Libraries/CMSIS/DSP/Source/FilteringFunctions/arm_conv_partial_fast_q31.c **** 
 218:./Libraries/CMSIS/DSP/Source/FilteringFunctions/arm_conv_partial_fast_q31.c ****       /* Store the result in the accumulator in the destination buffer. */
 219:./Libraries/CMSIS/DSP/Source/FilteringFunctions/arm_conv_partial_fast_q31.c ****       *pOut++ = sum << 1;
 233              		.loc 1 219 7 view .LVU79
 220:./Libraries/CMSIS/DSP/Source/FilteringFunctions/arm_conv_partial_fast_q31.c **** 
 221:./Libraries/CMSIS/DSP/Source/FilteringFunctions/arm_conv_partial_fast_q31.c ****       /* Update the inputA and inputB pointers for next MAC calculation */
 222:./Libraries/CMSIS/DSP/Source/FilteringFunctions/arm_conv_partial_fast_q31.c ****       py = ++pSrc2;
 223:./Libraries/CMSIS/DSP/Source/FilteringFunctions/arm_conv_partial_fast_q31.c ****       px = pIn1;
 224:./Libraries/CMSIS/DSP/Source/FilteringFunctions/arm_conv_partial_fast_q31.c **** 
 225:./Libraries/CMSIS/DSP/Source/FilteringFunctions/arm_conv_partial_fast_q31.c ****       /* Increment MAC count */
 226:./Libraries/CMSIS/DSP/Source/FilteringFunctions/arm_conv_partial_fast_q31.c ****       count++;
 234              		.loc 1 226 12 is_stmt 0 view .LVU80
 235 00ba 0131     		adds	r1, r1, #1
 236              	.LVL26:
 222:./Libraries/CMSIS/DSP/Source/FilteringFunctions/arm_conv_partial_fast_q31.c ****       px = pIn1;
 237              		.loc 1 222 10 view .LVU81
 238 00bc 0EF1040E 		add	lr, lr, #4
 239              	.LVL27:
 219:./Libraries/CMSIS/DSP/Source/FilteringFunctions/arm_conv_partial_fast_q31.c **** 
 240              		.loc 1 219 15 view .LVU82
 241 00c0 49F8044B 		str	r4, [r9], #4
 242              	.LVL28:
 222:./Libraries/CMSIS/DSP/Source/FilteringFunctions/arm_conv_partial_fast_q31.c ****       px = pIn1;
 243              		.loc 1 222 7 is_stmt 1 view .LVU83
 223:./Libraries/CMSIS/DSP/Source/FilteringFunctions/arm_conv_partial_fast_q31.c **** 
 244              		.loc 1 223 7 view .LVU84
 245              		.loc 1 226 7 view .LVU85
 227:./Libraries/CMSIS/DSP/Source/FilteringFunctions/arm_conv_partial_fast_q31.c **** 
 228:./Libraries/CMSIS/DSP/Source/FilteringFunctions/arm_conv_partial_fast_q31.c ****       /* Decrement loop counter */
 229:./Libraries/CMSIS/DSP/Source/FilteringFunctions/arm_conv_partial_fast_q31.c ****       blockSize1--;
 246              		.loc 1 229 7 view .LVU86
 166:./Libraries/CMSIS/DSP/Source/FilteringFunctions/arm_conv_partial_fast_q31.c ****     {
 247              		.loc 1 166 11 view .LVU87
 248 00c4 5145     		cmp	r1, r10
ARM GAS  /tmp/ccHShaVx.s 			page 10


 249 00c6 E6D1     		bne	.L11
 250 00c8 039B     		ldr	r3, [sp, #12]
 251 00ca DDE9067C 		ldrd	r7, ip, [sp, #24]
 252 00ce 0CEB830C 		add	ip, ip, r3, lsl #2
 253              	.LVL29:
 254              	.L9:
 230:./Libraries/CMSIS/DSP/Source/FilteringFunctions/arm_conv_partial_fast_q31.c ****     }
 231:./Libraries/CMSIS/DSP/Source/FilteringFunctions/arm_conv_partial_fast_q31.c **** 
 232:./Libraries/CMSIS/DSP/Source/FilteringFunctions/arm_conv_partial_fast_q31.c ****     /* --------------------------
 233:./Libraries/CMSIS/DSP/Source/FilteringFunctions/arm_conv_partial_fast_q31.c ****      * Initializations of stage2
 234:./Libraries/CMSIS/DSP/Source/FilteringFunctions/arm_conv_partial_fast_q31.c ****      * ------------------------*/
 235:./Libraries/CMSIS/DSP/Source/FilteringFunctions/arm_conv_partial_fast_q31.c **** 
 236:./Libraries/CMSIS/DSP/Source/FilteringFunctions/arm_conv_partial_fast_q31.c ****     /* sum = x[0] * y[srcBLen-1] + x[1] * y[srcBLen-2] +...+ x[srcBLen-1] * y[0]
 237:./Libraries/CMSIS/DSP/Source/FilteringFunctions/arm_conv_partial_fast_q31.c ****      * sum = x[1] * y[srcBLen-1] + x[2] * y[srcBLen-2] +...+ x[srcBLen] * y[0]
 238:./Libraries/CMSIS/DSP/Source/FilteringFunctions/arm_conv_partial_fast_q31.c ****      * ....
 239:./Libraries/CMSIS/DSP/Source/FilteringFunctions/arm_conv_partial_fast_q31.c ****      * sum = x[srcALen-srcBLen-2] * y[srcBLen-1] + x[srcALen] * y[srcBLen-2] +...+ x[srcALen-1] * y
 240:./Libraries/CMSIS/DSP/Source/FilteringFunctions/arm_conv_partial_fast_q31.c ****      */
 241:./Libraries/CMSIS/DSP/Source/FilteringFunctions/arm_conv_partial_fast_q31.c **** 
 242:./Libraries/CMSIS/DSP/Source/FilteringFunctions/arm_conv_partial_fast_q31.c ****     /* Working pointer of inputA */
 243:./Libraries/CMSIS/DSP/Source/FilteringFunctions/arm_conv_partial_fast_q31.c ****     if ((int32_t)firstIndex - (int32_t)srcBLen + 1 > 0)
 255              		.loc 1 243 5 view .LVU88
 256              		.loc 1 243 29 is_stmt 0 view .LVU89
 257 00d2 139B     		ldr	r3, [sp, #76]
 258 00d4 A3EB0803 		sub	r3, r3, r8
 259              		.loc 1 243 8 view .LVU90
 260 00d8 002B     		cmp	r3, #0
 261 00da C0F2A180 		blt	.L29
 244:./Libraries/CMSIS/DSP/Source/FilteringFunctions/arm_conv_partial_fast_q31.c ****     {
 245:./Libraries/CMSIS/DSP/Source/FilteringFunctions/arm_conv_partial_fast_q31.c ****       pSrc1 = pIn1 + firstIndex - srcBLen + 1;
 262              		.loc 1 245 7 is_stmt 1 view .LVU91
 263              		.loc 1 245 43 is_stmt 0 view .LVU92
 264 00de 139B     		ldr	r3, [sp, #76]
 265 00e0 03F10109 		add	r9, r3, #1
 266              		.loc 1 245 13 view .LVU93
 267 00e4 019B     		ldr	r3, [sp, #4]
 268              		.loc 1 245 43 view .LVU94
 269 00e6 A9EB0809 		sub	r9, r9, r8
 270              		.loc 1 245 13 view .LVU95
 271 00ea 03EB8909 		add	r9, r3, r9, lsl #2
 272              	.LVL30:
 273              	.L14:
 246:./Libraries/CMSIS/DSP/Source/FilteringFunctions/arm_conv_partial_fast_q31.c ****     }
 247:./Libraries/CMSIS/DSP/Source/FilteringFunctions/arm_conv_partial_fast_q31.c ****     else
 248:./Libraries/CMSIS/DSP/Source/FilteringFunctions/arm_conv_partial_fast_q31.c ****     {
 249:./Libraries/CMSIS/DSP/Source/FilteringFunctions/arm_conv_partial_fast_q31.c ****       pSrc1 = pIn1;
 250:./Libraries/CMSIS/DSP/Source/FilteringFunctions/arm_conv_partial_fast_q31.c ****     }
 251:./Libraries/CMSIS/DSP/Source/FilteringFunctions/arm_conv_partial_fast_q31.c ****     px = pSrc1;
 274              		.loc 1 251 5 is_stmt 1 view .LVU96
 252:./Libraries/CMSIS/DSP/Source/FilteringFunctions/arm_conv_partial_fast_q31.c **** 
 253:./Libraries/CMSIS/DSP/Source/FilteringFunctions/arm_conv_partial_fast_q31.c ****     /* Working pointer of inputB */
 254:./Libraries/CMSIS/DSP/Source/FilteringFunctions/arm_conv_partial_fast_q31.c ****     pSrc2 = pIn2 + (srcBLen - 1U);
 275              		.loc 1 254 5 view .LVU97
 276              		.loc 1 254 18 is_stmt 0 view .LVU98
 277 00ee 6FF04043 		mvn	r3, #-1073741824
 278              		.loc 1 254 11 view .LVU99
 279 00f2 049A     		ldr	r2, [sp, #16]
 255:./Libraries/CMSIS/DSP/Source/FilteringFunctions/arm_conv_partial_fast_q31.c ****     py = pSrc2;
ARM GAS  /tmp/ccHShaVx.s 			page 11


 256:./Libraries/CMSIS/DSP/Source/FilteringFunctions/arm_conv_partial_fast_q31.c **** 
 257:./Libraries/CMSIS/DSP/Source/FilteringFunctions/arm_conv_partial_fast_q31.c ****     /* count is index by which the pointer pIn1 to be incremented */
 258:./Libraries/CMSIS/DSP/Source/FilteringFunctions/arm_conv_partial_fast_q31.c ****     count = 0U;
 259:./Libraries/CMSIS/DSP/Source/FilteringFunctions/arm_conv_partial_fast_q31.c **** 
 260:./Libraries/CMSIS/DSP/Source/FilteringFunctions/arm_conv_partial_fast_q31.c ****     /* -------------------
 261:./Libraries/CMSIS/DSP/Source/FilteringFunctions/arm_conv_partial_fast_q31.c ****      * Stage2 process
 262:./Libraries/CMSIS/DSP/Source/FilteringFunctions/arm_conv_partial_fast_q31.c ****      * ------------------*/
 263:./Libraries/CMSIS/DSP/Source/FilteringFunctions/arm_conv_partial_fast_q31.c **** 
 264:./Libraries/CMSIS/DSP/Source/FilteringFunctions/arm_conv_partial_fast_q31.c ****     /* Stage2 depends on srcBLen as in this stage srcBLen number of MACS are performed.
 265:./Libraries/CMSIS/DSP/Source/FilteringFunctions/arm_conv_partial_fast_q31.c ****      * So, to loop unroll over blockSize2,
 266:./Libraries/CMSIS/DSP/Source/FilteringFunctions/arm_conv_partial_fast_q31.c ****      * srcBLen should be greater than or equal to 4 */
 267:./Libraries/CMSIS/DSP/Source/FilteringFunctions/arm_conv_partial_fast_q31.c ****     if (srcBLen >= 4U)
 280              		.loc 1 267 8 view .LVU100
 281 00f4 B8F1030F 		cmp	r8, #3
 254:./Libraries/CMSIS/DSP/Source/FilteringFunctions/arm_conv_partial_fast_q31.c ****     py = pSrc2;
 282              		.loc 1 254 18 view .LVU101
 283 00f8 4344     		add	r3, r3, r8
 254:./Libraries/CMSIS/DSP/Source/FilteringFunctions/arm_conv_partial_fast_q31.c ****     py = pSrc2;
 284              		.loc 1 254 11 view .LVU102
 285 00fa 02EB8306 		add	r6, r2, r3, lsl #2
 286              	.LVL31:
 255:./Libraries/CMSIS/DSP/Source/FilteringFunctions/arm_conv_partial_fast_q31.c ****     py = pSrc2;
 287              		.loc 1 255 5 is_stmt 1 view .LVU103
 258:./Libraries/CMSIS/DSP/Source/FilteringFunctions/arm_conv_partial_fast_q31.c **** 
 288              		.loc 1 258 5 view .LVU104
 289              		.loc 1 267 5 view .LVU105
 254:./Libraries/CMSIS/DSP/Source/FilteringFunctions/arm_conv_partial_fast_q31.c ****     py = pSrc2;
 290              		.loc 1 254 18 is_stmt 0 view .LVU106
 291 00fe 4FEA8303 		lsl	r3, r3, #2
 292              		.loc 1 267 8 view .LVU107
 293 0102 2AD8     		bhi	.L51
 268:./Libraries/CMSIS/DSP/Source/FilteringFunctions/arm_conv_partial_fast_q31.c ****     {
 269:./Libraries/CMSIS/DSP/Source/FilteringFunctions/arm_conv_partial_fast_q31.c **** #if defined (ARM_MATH_LOOPUNROLL)
 270:./Libraries/CMSIS/DSP/Source/FilteringFunctions/arm_conv_partial_fast_q31.c **** 
 271:./Libraries/CMSIS/DSP/Source/FilteringFunctions/arm_conv_partial_fast_q31.c ****     /* Loop unrolling: Compute 4 outputs at a time */
 272:./Libraries/CMSIS/DSP/Source/FilteringFunctions/arm_conv_partial_fast_q31.c ****       blkCnt = ((uint32_t) blockSize2 >> 2U);
 273:./Libraries/CMSIS/DSP/Source/FilteringFunctions/arm_conv_partial_fast_q31.c **** 
 274:./Libraries/CMSIS/DSP/Source/FilteringFunctions/arm_conv_partial_fast_q31.c ****       while (blkCnt > 0U)
 275:./Libraries/CMSIS/DSP/Source/FilteringFunctions/arm_conv_partial_fast_q31.c ****       {
 276:./Libraries/CMSIS/DSP/Source/FilteringFunctions/arm_conv_partial_fast_q31.c ****         /* Set all accumulators to zero */
 277:./Libraries/CMSIS/DSP/Source/FilteringFunctions/arm_conv_partial_fast_q31.c ****         acc0 = 0;
 278:./Libraries/CMSIS/DSP/Source/FilteringFunctions/arm_conv_partial_fast_q31.c ****         acc1 = 0;
 279:./Libraries/CMSIS/DSP/Source/FilteringFunctions/arm_conv_partial_fast_q31.c ****         acc2 = 0;
 280:./Libraries/CMSIS/DSP/Source/FilteringFunctions/arm_conv_partial_fast_q31.c ****         acc3 = 0;
 281:./Libraries/CMSIS/DSP/Source/FilteringFunctions/arm_conv_partial_fast_q31.c **** 
 282:./Libraries/CMSIS/DSP/Source/FilteringFunctions/arm_conv_partial_fast_q31.c ****         /* read x[0], x[1], x[2] samples */
 283:./Libraries/CMSIS/DSP/Source/FilteringFunctions/arm_conv_partial_fast_q31.c ****         x0 = *px++;
 284:./Libraries/CMSIS/DSP/Source/FilteringFunctions/arm_conv_partial_fast_q31.c ****         x1 = *px++;
 285:./Libraries/CMSIS/DSP/Source/FilteringFunctions/arm_conv_partial_fast_q31.c ****         x2 = *px++;
 286:./Libraries/CMSIS/DSP/Source/FilteringFunctions/arm_conv_partial_fast_q31.c **** 
 287:./Libraries/CMSIS/DSP/Source/FilteringFunctions/arm_conv_partial_fast_q31.c ****         /* Apply loop unrolling and compute 4 MACs simultaneously. */
 288:./Libraries/CMSIS/DSP/Source/FilteringFunctions/arm_conv_partial_fast_q31.c ****         k = srcBLen >> 2U;
 289:./Libraries/CMSIS/DSP/Source/FilteringFunctions/arm_conv_partial_fast_q31.c **** 
 290:./Libraries/CMSIS/DSP/Source/FilteringFunctions/arm_conv_partial_fast_q31.c ****         /* First part of the processing with loop unrolling.  Compute 4 MACs at a time.
 291:./Libraries/CMSIS/DSP/Source/FilteringFunctions/arm_conv_partial_fast_q31.c ****          ** a second loop below computes MACs for the remaining 1 to 3 samples. */
 292:./Libraries/CMSIS/DSP/Source/FilteringFunctions/arm_conv_partial_fast_q31.c ****         do
 293:./Libraries/CMSIS/DSP/Source/FilteringFunctions/arm_conv_partial_fast_q31.c ****         {
ARM GAS  /tmp/ccHShaVx.s 			page 12


 294:./Libraries/CMSIS/DSP/Source/FilteringFunctions/arm_conv_partial_fast_q31.c ****           /* Read y[srcBLen - 1] sample */
 295:./Libraries/CMSIS/DSP/Source/FilteringFunctions/arm_conv_partial_fast_q31.c ****           c0 = *py--;
 296:./Libraries/CMSIS/DSP/Source/FilteringFunctions/arm_conv_partial_fast_q31.c ****           /* Read x[3] sample */
 297:./Libraries/CMSIS/DSP/Source/FilteringFunctions/arm_conv_partial_fast_q31.c ****           x3 = *px++;
 298:./Libraries/CMSIS/DSP/Source/FilteringFunctions/arm_conv_partial_fast_q31.c **** 
 299:./Libraries/CMSIS/DSP/Source/FilteringFunctions/arm_conv_partial_fast_q31.c ****           /* Perform the multiply-accumulate */
 300:./Libraries/CMSIS/DSP/Source/FilteringFunctions/arm_conv_partial_fast_q31.c ****           /* acc0 +=  x[0] * y[srcBLen - 1] */
 301:./Libraries/CMSIS/DSP/Source/FilteringFunctions/arm_conv_partial_fast_q31.c ****           acc0 = (q31_t) ((((q63_t) acc0 << 32) + ((q63_t) x0 * c0)) >> 32);
 302:./Libraries/CMSIS/DSP/Source/FilteringFunctions/arm_conv_partial_fast_q31.c ****           /* acc1 +=  x[1] * y[srcBLen - 1] */
 303:./Libraries/CMSIS/DSP/Source/FilteringFunctions/arm_conv_partial_fast_q31.c ****           acc1 = (q31_t) ((((q63_t) acc1 << 32) + ((q63_t) x1 * c0)) >> 32);
 304:./Libraries/CMSIS/DSP/Source/FilteringFunctions/arm_conv_partial_fast_q31.c ****           /* acc2 +=  x[2] * y[srcBLen - 1] */
 305:./Libraries/CMSIS/DSP/Source/FilteringFunctions/arm_conv_partial_fast_q31.c ****           acc2 = (q31_t) ((((q63_t) acc2 << 32) + ((q63_t) x2 * c0)) >> 32);
 306:./Libraries/CMSIS/DSP/Source/FilteringFunctions/arm_conv_partial_fast_q31.c ****           /* acc3 +=  x[3] * y[srcBLen - 1] */
 307:./Libraries/CMSIS/DSP/Source/FilteringFunctions/arm_conv_partial_fast_q31.c ****           acc3 = (q31_t) ((((q63_t) acc3 << 32) + ((q63_t) x3 * c0)) >> 32);
 308:./Libraries/CMSIS/DSP/Source/FilteringFunctions/arm_conv_partial_fast_q31.c **** 
 309:./Libraries/CMSIS/DSP/Source/FilteringFunctions/arm_conv_partial_fast_q31.c ****           /* Read y[srcBLen - 2] sample */
 310:./Libraries/CMSIS/DSP/Source/FilteringFunctions/arm_conv_partial_fast_q31.c ****           c0 = *py--;
 311:./Libraries/CMSIS/DSP/Source/FilteringFunctions/arm_conv_partial_fast_q31.c ****           /* Read x[4] sample */
 312:./Libraries/CMSIS/DSP/Source/FilteringFunctions/arm_conv_partial_fast_q31.c ****           x0 = *px++;
 313:./Libraries/CMSIS/DSP/Source/FilteringFunctions/arm_conv_partial_fast_q31.c **** 
 314:./Libraries/CMSIS/DSP/Source/FilteringFunctions/arm_conv_partial_fast_q31.c ****           /* Perform the multiply-accumulate */
 315:./Libraries/CMSIS/DSP/Source/FilteringFunctions/arm_conv_partial_fast_q31.c ****           /* acc0 +=  x[1] * y[srcBLen - 2] */
 316:./Libraries/CMSIS/DSP/Source/FilteringFunctions/arm_conv_partial_fast_q31.c ****           acc0 = (q31_t) ((((q63_t) acc0 << 32) + ((q63_t) x1 * c0)) >> 32);
 317:./Libraries/CMSIS/DSP/Source/FilteringFunctions/arm_conv_partial_fast_q31.c ****           /* acc1 +=  x[2] * y[srcBLen - 2] */
 318:./Libraries/CMSIS/DSP/Source/FilteringFunctions/arm_conv_partial_fast_q31.c ****           acc1 = (q31_t) ((((q63_t) acc1 << 32) + ((q63_t) x2 * c0)) >> 32);
 319:./Libraries/CMSIS/DSP/Source/FilteringFunctions/arm_conv_partial_fast_q31.c ****           /* acc2 +=  x[3] * y[srcBLen - 2] */
 320:./Libraries/CMSIS/DSP/Source/FilteringFunctions/arm_conv_partial_fast_q31.c ****           acc2 = (q31_t) ((((q63_t) acc2 << 32) + ((q63_t) x3 * c0)) >> 32);
 321:./Libraries/CMSIS/DSP/Source/FilteringFunctions/arm_conv_partial_fast_q31.c ****           /* acc3 +=  x[4] * y[srcBLen - 2] */
 322:./Libraries/CMSIS/DSP/Source/FilteringFunctions/arm_conv_partial_fast_q31.c ****           acc3 = (q31_t) ((((q63_t) acc3 << 32) + ((q63_t) x0 * c0)) >> 32);
 323:./Libraries/CMSIS/DSP/Source/FilteringFunctions/arm_conv_partial_fast_q31.c **** 
 324:./Libraries/CMSIS/DSP/Source/FilteringFunctions/arm_conv_partial_fast_q31.c ****           /* Read y[srcBLen - 3] sample */
 325:./Libraries/CMSIS/DSP/Source/FilteringFunctions/arm_conv_partial_fast_q31.c ****           c0 = *py--;
 326:./Libraries/CMSIS/DSP/Source/FilteringFunctions/arm_conv_partial_fast_q31.c ****           /* Read x[5] sample */
 327:./Libraries/CMSIS/DSP/Source/FilteringFunctions/arm_conv_partial_fast_q31.c ****           x1 = *px++;
 328:./Libraries/CMSIS/DSP/Source/FilteringFunctions/arm_conv_partial_fast_q31.c **** 
 329:./Libraries/CMSIS/DSP/Source/FilteringFunctions/arm_conv_partial_fast_q31.c ****           /* Perform the multiply-accumulates */
 330:./Libraries/CMSIS/DSP/Source/FilteringFunctions/arm_conv_partial_fast_q31.c ****           /* acc0 +=  x[2] * y[srcBLen - 3] */
 331:./Libraries/CMSIS/DSP/Source/FilteringFunctions/arm_conv_partial_fast_q31.c ****           acc0 = (q31_t) ((((q63_t) acc0 << 32) + ((q63_t) x2 * c0)) >> 32);
 332:./Libraries/CMSIS/DSP/Source/FilteringFunctions/arm_conv_partial_fast_q31.c ****           /* acc1 +=  x[3] * y[srcBLen - 2] */
 333:./Libraries/CMSIS/DSP/Source/FilteringFunctions/arm_conv_partial_fast_q31.c ****           acc1 = (q31_t) ((((q63_t) acc1 << 32) + ((q63_t) x3 * c0)) >> 32);
 334:./Libraries/CMSIS/DSP/Source/FilteringFunctions/arm_conv_partial_fast_q31.c ****           /* acc2 +=  x[4] * y[srcBLen - 2] */
 335:./Libraries/CMSIS/DSP/Source/FilteringFunctions/arm_conv_partial_fast_q31.c ****           acc2 = (q31_t) ((((q63_t) acc2 << 32) + ((q63_t) x0 * c0)) >> 32);
 336:./Libraries/CMSIS/DSP/Source/FilteringFunctions/arm_conv_partial_fast_q31.c ****           /* acc3 +=  x[5] * y[srcBLen - 2] */
 337:./Libraries/CMSIS/DSP/Source/FilteringFunctions/arm_conv_partial_fast_q31.c ****           acc3 = (q31_t) ((((q63_t) acc3 << 32) + ((q63_t) x1 * c0)) >> 32);
 338:./Libraries/CMSIS/DSP/Source/FilteringFunctions/arm_conv_partial_fast_q31.c **** 
 339:./Libraries/CMSIS/DSP/Source/FilteringFunctions/arm_conv_partial_fast_q31.c ****           /* Read y[srcBLen - 4] sample */
 340:./Libraries/CMSIS/DSP/Source/FilteringFunctions/arm_conv_partial_fast_q31.c ****           c0 = *py--;
 341:./Libraries/CMSIS/DSP/Source/FilteringFunctions/arm_conv_partial_fast_q31.c ****           /* Read x[6] sample */
 342:./Libraries/CMSIS/DSP/Source/FilteringFunctions/arm_conv_partial_fast_q31.c ****           x2 = *px++;
 343:./Libraries/CMSIS/DSP/Source/FilteringFunctions/arm_conv_partial_fast_q31.c **** 
 344:./Libraries/CMSIS/DSP/Source/FilteringFunctions/arm_conv_partial_fast_q31.c ****           /* Perform the multiply-accumulates */
 345:./Libraries/CMSIS/DSP/Source/FilteringFunctions/arm_conv_partial_fast_q31.c ****           /* acc0 +=  x[3] * y[srcBLen - 4] */
 346:./Libraries/CMSIS/DSP/Source/FilteringFunctions/arm_conv_partial_fast_q31.c ****           acc0 = (q31_t) ((((q63_t) acc0 << 32) + ((q63_t) x3 * c0)) >> 32);
 347:./Libraries/CMSIS/DSP/Source/FilteringFunctions/arm_conv_partial_fast_q31.c ****           /* acc1 +=  x[4] * y[srcBLen - 4] */
 348:./Libraries/CMSIS/DSP/Source/FilteringFunctions/arm_conv_partial_fast_q31.c ****           acc1 = (q31_t) ((((q63_t) acc1 << 32) + ((q63_t) x0 * c0)) >> 32);
 349:./Libraries/CMSIS/DSP/Source/FilteringFunctions/arm_conv_partial_fast_q31.c ****           /* acc2 +=  x[5] * y[srcBLen - 4] */
 350:./Libraries/CMSIS/DSP/Source/FilteringFunctions/arm_conv_partial_fast_q31.c ****           acc2 = (q31_t) ((((q63_t) acc2 << 32) + ((q63_t) x1 * c0)) >> 32);
ARM GAS  /tmp/ccHShaVx.s 			page 13


 351:./Libraries/CMSIS/DSP/Source/FilteringFunctions/arm_conv_partial_fast_q31.c ****           /* acc3 +=  x[6] * y[srcBLen - 4] */
 352:./Libraries/CMSIS/DSP/Source/FilteringFunctions/arm_conv_partial_fast_q31.c ****           acc3 = (q31_t) ((((q63_t) acc3 << 32) + ((q63_t) x2 * c0)) >> 32);
 353:./Libraries/CMSIS/DSP/Source/FilteringFunctions/arm_conv_partial_fast_q31.c **** 
 354:./Libraries/CMSIS/DSP/Source/FilteringFunctions/arm_conv_partial_fast_q31.c ****         } while (--k);
 355:./Libraries/CMSIS/DSP/Source/FilteringFunctions/arm_conv_partial_fast_q31.c **** 
 356:./Libraries/CMSIS/DSP/Source/FilteringFunctions/arm_conv_partial_fast_q31.c ****         /* If the srcBLen is not a multiple of 4, compute any remaining MACs here.
 357:./Libraries/CMSIS/DSP/Source/FilteringFunctions/arm_conv_partial_fast_q31.c ****          ** No loop unrolling is used. */
 358:./Libraries/CMSIS/DSP/Source/FilteringFunctions/arm_conv_partial_fast_q31.c ****         k = srcBLen % 0x4U;
 359:./Libraries/CMSIS/DSP/Source/FilteringFunctions/arm_conv_partial_fast_q31.c **** 
 360:./Libraries/CMSIS/DSP/Source/FilteringFunctions/arm_conv_partial_fast_q31.c ****         while (k > 0U)
 361:./Libraries/CMSIS/DSP/Source/FilteringFunctions/arm_conv_partial_fast_q31.c ****         {
 362:./Libraries/CMSIS/DSP/Source/FilteringFunctions/arm_conv_partial_fast_q31.c ****           /* Read y[srcBLen - 5] sample */
 363:./Libraries/CMSIS/DSP/Source/FilteringFunctions/arm_conv_partial_fast_q31.c ****           c0 = *py--;
 364:./Libraries/CMSIS/DSP/Source/FilteringFunctions/arm_conv_partial_fast_q31.c ****           /* Read x[7] sample */
 365:./Libraries/CMSIS/DSP/Source/FilteringFunctions/arm_conv_partial_fast_q31.c ****           x3 = *px++;
 366:./Libraries/CMSIS/DSP/Source/FilteringFunctions/arm_conv_partial_fast_q31.c **** 
 367:./Libraries/CMSIS/DSP/Source/FilteringFunctions/arm_conv_partial_fast_q31.c ****           /* Perform the multiply-accumulates */
 368:./Libraries/CMSIS/DSP/Source/FilteringFunctions/arm_conv_partial_fast_q31.c ****           /* acc0 +=  x[4] * y[srcBLen - 5] */
 369:./Libraries/CMSIS/DSP/Source/FilteringFunctions/arm_conv_partial_fast_q31.c ****           acc0 = (q31_t) ((((q63_t) acc0 << 32) + ((q63_t) x0 * c0)) >> 32);
 370:./Libraries/CMSIS/DSP/Source/FilteringFunctions/arm_conv_partial_fast_q31.c ****           /* acc1 +=  x[5] * y[srcBLen - 5] */
 371:./Libraries/CMSIS/DSP/Source/FilteringFunctions/arm_conv_partial_fast_q31.c ****           acc1 = (q31_t) ((((q63_t) acc1 << 32) + ((q63_t) x1 * c0)) >> 32);
 372:./Libraries/CMSIS/DSP/Source/FilteringFunctions/arm_conv_partial_fast_q31.c ****           /* acc2 +=  x[6] * y[srcBLen - 5] */
 373:./Libraries/CMSIS/DSP/Source/FilteringFunctions/arm_conv_partial_fast_q31.c ****           acc2 = (q31_t) ((((q63_t) acc2 << 32) + ((q63_t) x2 * c0)) >> 32);
 374:./Libraries/CMSIS/DSP/Source/FilteringFunctions/arm_conv_partial_fast_q31.c ****           /* acc3 +=  x[7] * y[srcBLen - 5] */
 375:./Libraries/CMSIS/DSP/Source/FilteringFunctions/arm_conv_partial_fast_q31.c ****           acc3 = (q31_t) ((((q63_t) acc3 << 32) + ((q63_t) x3 * c0)) >> 32);
 376:./Libraries/CMSIS/DSP/Source/FilteringFunctions/arm_conv_partial_fast_q31.c **** 
 377:./Libraries/CMSIS/DSP/Source/FilteringFunctions/arm_conv_partial_fast_q31.c ****           /* Reuse the present samples for the next MAC */
 378:./Libraries/CMSIS/DSP/Source/FilteringFunctions/arm_conv_partial_fast_q31.c ****           x0 = x1;
 379:./Libraries/CMSIS/DSP/Source/FilteringFunctions/arm_conv_partial_fast_q31.c ****           x1 = x2;
 380:./Libraries/CMSIS/DSP/Source/FilteringFunctions/arm_conv_partial_fast_q31.c ****           x2 = x3;
 381:./Libraries/CMSIS/DSP/Source/FilteringFunctions/arm_conv_partial_fast_q31.c **** 
 382:./Libraries/CMSIS/DSP/Source/FilteringFunctions/arm_conv_partial_fast_q31.c ****           /* Decrement the loop counter */
 383:./Libraries/CMSIS/DSP/Source/FilteringFunctions/arm_conv_partial_fast_q31.c ****           k--;
 384:./Libraries/CMSIS/DSP/Source/FilteringFunctions/arm_conv_partial_fast_q31.c ****         }
 385:./Libraries/CMSIS/DSP/Source/FilteringFunctions/arm_conv_partial_fast_q31.c **** 
 386:./Libraries/CMSIS/DSP/Source/FilteringFunctions/arm_conv_partial_fast_q31.c ****         /* Store the result in the accumulator in the destination buffer. */
 387:./Libraries/CMSIS/DSP/Source/FilteringFunctions/arm_conv_partial_fast_q31.c ****         *pOut++ = (q31_t) (acc0 << 1);
 388:./Libraries/CMSIS/DSP/Source/FilteringFunctions/arm_conv_partial_fast_q31.c ****         *pOut++ = (q31_t) (acc1 << 1);
 389:./Libraries/CMSIS/DSP/Source/FilteringFunctions/arm_conv_partial_fast_q31.c ****         *pOut++ = (q31_t) (acc2 << 1);
 390:./Libraries/CMSIS/DSP/Source/FilteringFunctions/arm_conv_partial_fast_q31.c ****         *pOut++ = (q31_t) (acc3 << 1);
 391:./Libraries/CMSIS/DSP/Source/FilteringFunctions/arm_conv_partial_fast_q31.c **** 
 392:./Libraries/CMSIS/DSP/Source/FilteringFunctions/arm_conv_partial_fast_q31.c ****         /* Increment the pointer pIn1 index, count by 4 */
 393:./Libraries/CMSIS/DSP/Source/FilteringFunctions/arm_conv_partial_fast_q31.c ****         count += 4U;
 394:./Libraries/CMSIS/DSP/Source/FilteringFunctions/arm_conv_partial_fast_q31.c **** 
 395:./Libraries/CMSIS/DSP/Source/FilteringFunctions/arm_conv_partial_fast_q31.c ****         /* Update the inputA and inputB pointers for next MAC calculation */
 396:./Libraries/CMSIS/DSP/Source/FilteringFunctions/arm_conv_partial_fast_q31.c ****         px = pSrc1 + count;
 397:./Libraries/CMSIS/DSP/Source/FilteringFunctions/arm_conv_partial_fast_q31.c ****         py = pSrc2;
 398:./Libraries/CMSIS/DSP/Source/FilteringFunctions/arm_conv_partial_fast_q31.c **** 
 399:./Libraries/CMSIS/DSP/Source/FilteringFunctions/arm_conv_partial_fast_q31.c ****         /* Decrement loop counter */
 400:./Libraries/CMSIS/DSP/Source/FilteringFunctions/arm_conv_partial_fast_q31.c ****         blkCnt--;
 401:./Libraries/CMSIS/DSP/Source/FilteringFunctions/arm_conv_partial_fast_q31.c ****       }
 402:./Libraries/CMSIS/DSP/Source/FilteringFunctions/arm_conv_partial_fast_q31.c **** 
 403:./Libraries/CMSIS/DSP/Source/FilteringFunctions/arm_conv_partial_fast_q31.c ****       /* Loop unrolling: Compute remaining outputs */
 404:./Libraries/CMSIS/DSP/Source/FilteringFunctions/arm_conv_partial_fast_q31.c ****       blkCnt = (uint32_t) blockSize2 % 0x4U;
 405:./Libraries/CMSIS/DSP/Source/FilteringFunctions/arm_conv_partial_fast_q31.c **** 
 406:./Libraries/CMSIS/DSP/Source/FilteringFunctions/arm_conv_partial_fast_q31.c **** #else
 407:./Libraries/CMSIS/DSP/Source/FilteringFunctions/arm_conv_partial_fast_q31.c **** 
ARM GAS  /tmp/ccHShaVx.s 			page 14


 408:./Libraries/CMSIS/DSP/Source/FilteringFunctions/arm_conv_partial_fast_q31.c ****       /* Initialize blkCnt with number of samples */
 409:./Libraries/CMSIS/DSP/Source/FilteringFunctions/arm_conv_partial_fast_q31.c ****       blkCnt = blockSize2;
 410:./Libraries/CMSIS/DSP/Source/FilteringFunctions/arm_conv_partial_fast_q31.c **** 
 411:./Libraries/CMSIS/DSP/Source/FilteringFunctions/arm_conv_partial_fast_q31.c **** #endif /* #if defined (ARM_MATH_LOOPUNROLL) */
 412:./Libraries/CMSIS/DSP/Source/FilteringFunctions/arm_conv_partial_fast_q31.c **** 
 413:./Libraries/CMSIS/DSP/Source/FilteringFunctions/arm_conv_partial_fast_q31.c ****       while (blkCnt > 0U)
 414:./Libraries/CMSIS/DSP/Source/FilteringFunctions/arm_conv_partial_fast_q31.c ****       {
 415:./Libraries/CMSIS/DSP/Source/FilteringFunctions/arm_conv_partial_fast_q31.c ****         /* Accumulator is made zero for every iteration */
 416:./Libraries/CMSIS/DSP/Source/FilteringFunctions/arm_conv_partial_fast_q31.c ****         sum = 0;
 417:./Libraries/CMSIS/DSP/Source/FilteringFunctions/arm_conv_partial_fast_q31.c **** 
 418:./Libraries/CMSIS/DSP/Source/FilteringFunctions/arm_conv_partial_fast_q31.c **** #if defined (ARM_MATH_LOOPUNROLL)
 419:./Libraries/CMSIS/DSP/Source/FilteringFunctions/arm_conv_partial_fast_q31.c **** 
 420:./Libraries/CMSIS/DSP/Source/FilteringFunctions/arm_conv_partial_fast_q31.c ****         /* Loop unrolling: Compute 4 outputs at a time */
 421:./Libraries/CMSIS/DSP/Source/FilteringFunctions/arm_conv_partial_fast_q31.c ****         k = srcBLen >> 2U;
 422:./Libraries/CMSIS/DSP/Source/FilteringFunctions/arm_conv_partial_fast_q31.c **** 
 423:./Libraries/CMSIS/DSP/Source/FilteringFunctions/arm_conv_partial_fast_q31.c ****         while (k > 0U)
 424:./Libraries/CMSIS/DSP/Source/FilteringFunctions/arm_conv_partial_fast_q31.c ****         {
 425:./Libraries/CMSIS/DSP/Source/FilteringFunctions/arm_conv_partial_fast_q31.c ****           /* Perform the multiply-accumulates */
 426:./Libraries/CMSIS/DSP/Source/FilteringFunctions/arm_conv_partial_fast_q31.c ****           sum = (q31_t) ((((q63_t) sum << 32) +
 427:./Libraries/CMSIS/DSP/Source/FilteringFunctions/arm_conv_partial_fast_q31.c ****                           ((q63_t) * px++ * (*py--))) >> 32);
 428:./Libraries/CMSIS/DSP/Source/FilteringFunctions/arm_conv_partial_fast_q31.c ****           sum = (q31_t) ((((q63_t) sum << 32) +
 429:./Libraries/CMSIS/DSP/Source/FilteringFunctions/arm_conv_partial_fast_q31.c ****                           ((q63_t) * px++ * (*py--))) >> 32);
 430:./Libraries/CMSIS/DSP/Source/FilteringFunctions/arm_conv_partial_fast_q31.c ****           sum = (q31_t) ((((q63_t) sum << 32) +
 431:./Libraries/CMSIS/DSP/Source/FilteringFunctions/arm_conv_partial_fast_q31.c ****                           ((q63_t) * px++ * (*py--))) >> 32);
 432:./Libraries/CMSIS/DSP/Source/FilteringFunctions/arm_conv_partial_fast_q31.c ****           sum = (q31_t) ((((q63_t) sum << 32) +
 433:./Libraries/CMSIS/DSP/Source/FilteringFunctions/arm_conv_partial_fast_q31.c ****                           ((q63_t) * px++ * (*py--))) >> 32);
 434:./Libraries/CMSIS/DSP/Source/FilteringFunctions/arm_conv_partial_fast_q31.c **** 
 435:./Libraries/CMSIS/DSP/Source/FilteringFunctions/arm_conv_partial_fast_q31.c ****           /* Decrement loop counter */
 436:./Libraries/CMSIS/DSP/Source/FilteringFunctions/arm_conv_partial_fast_q31.c ****           k--;
 437:./Libraries/CMSIS/DSP/Source/FilteringFunctions/arm_conv_partial_fast_q31.c ****         }
 438:./Libraries/CMSIS/DSP/Source/FilteringFunctions/arm_conv_partial_fast_q31.c **** 
 439:./Libraries/CMSIS/DSP/Source/FilteringFunctions/arm_conv_partial_fast_q31.c ****         /* Loop unrolling: Compute remaining outputs */
 440:./Libraries/CMSIS/DSP/Source/FilteringFunctions/arm_conv_partial_fast_q31.c ****         k = srcBLen % 0x4U;
 441:./Libraries/CMSIS/DSP/Source/FilteringFunctions/arm_conv_partial_fast_q31.c **** 
 442:./Libraries/CMSIS/DSP/Source/FilteringFunctions/arm_conv_partial_fast_q31.c **** #else
 443:./Libraries/CMSIS/DSP/Source/FilteringFunctions/arm_conv_partial_fast_q31.c **** 
 444:./Libraries/CMSIS/DSP/Source/FilteringFunctions/arm_conv_partial_fast_q31.c ****         /* Initialize blkCnt with number of samples */
 445:./Libraries/CMSIS/DSP/Source/FilteringFunctions/arm_conv_partial_fast_q31.c ****         k = srcBLen;
 446:./Libraries/CMSIS/DSP/Source/FilteringFunctions/arm_conv_partial_fast_q31.c **** 
 447:./Libraries/CMSIS/DSP/Source/FilteringFunctions/arm_conv_partial_fast_q31.c **** #endif /* #if defined (ARM_MATH_LOOPUNROLL) */
 448:./Libraries/CMSIS/DSP/Source/FilteringFunctions/arm_conv_partial_fast_q31.c **** 
 449:./Libraries/CMSIS/DSP/Source/FilteringFunctions/arm_conv_partial_fast_q31.c ****         while (k > 0U)
 450:./Libraries/CMSIS/DSP/Source/FilteringFunctions/arm_conv_partial_fast_q31.c ****         {
 451:./Libraries/CMSIS/DSP/Source/FilteringFunctions/arm_conv_partial_fast_q31.c ****           /* Perform the multiply-accumulate */
 452:./Libraries/CMSIS/DSP/Source/FilteringFunctions/arm_conv_partial_fast_q31.c ****           sum = (q31_t) ((((q63_t) sum << 32) +
 453:./Libraries/CMSIS/DSP/Source/FilteringFunctions/arm_conv_partial_fast_q31.c ****                           ((q63_t) *px++ * (*py--))) >> 32);
 454:./Libraries/CMSIS/DSP/Source/FilteringFunctions/arm_conv_partial_fast_q31.c **** 
 455:./Libraries/CMSIS/DSP/Source/FilteringFunctions/arm_conv_partial_fast_q31.c ****           /* Decrement loop counter */
 456:./Libraries/CMSIS/DSP/Source/FilteringFunctions/arm_conv_partial_fast_q31.c ****           k--;
 457:./Libraries/CMSIS/DSP/Source/FilteringFunctions/arm_conv_partial_fast_q31.c ****         }
 458:./Libraries/CMSIS/DSP/Source/FilteringFunctions/arm_conv_partial_fast_q31.c **** 
 459:./Libraries/CMSIS/DSP/Source/FilteringFunctions/arm_conv_partial_fast_q31.c ****         /* Store the result in the accumulator in the destination buffer. */
 460:./Libraries/CMSIS/DSP/Source/FilteringFunctions/arm_conv_partial_fast_q31.c ****         *pOut++ = sum << 1;
 461:./Libraries/CMSIS/DSP/Source/FilteringFunctions/arm_conv_partial_fast_q31.c **** 
 462:./Libraries/CMSIS/DSP/Source/FilteringFunctions/arm_conv_partial_fast_q31.c ****         /* Increment MAC count */
 463:./Libraries/CMSIS/DSP/Source/FilteringFunctions/arm_conv_partial_fast_q31.c ****         count++;
 464:./Libraries/CMSIS/DSP/Source/FilteringFunctions/arm_conv_partial_fast_q31.c **** 
ARM GAS  /tmp/ccHShaVx.s 			page 15


 465:./Libraries/CMSIS/DSP/Source/FilteringFunctions/arm_conv_partial_fast_q31.c ****         /* Update the inputA and inputB pointers for next MAC calculation */
 466:./Libraries/CMSIS/DSP/Source/FilteringFunctions/arm_conv_partial_fast_q31.c ****         px = pSrc1 + count;
 467:./Libraries/CMSIS/DSP/Source/FilteringFunctions/arm_conv_partial_fast_q31.c ****         py = pSrc2;
 468:./Libraries/CMSIS/DSP/Source/FilteringFunctions/arm_conv_partial_fast_q31.c **** 
 469:./Libraries/CMSIS/DSP/Source/FilteringFunctions/arm_conv_partial_fast_q31.c ****         /* Decrement loop counter */
 470:./Libraries/CMSIS/DSP/Source/FilteringFunctions/arm_conv_partial_fast_q31.c ****         blkCnt--;
 471:./Libraries/CMSIS/DSP/Source/FilteringFunctions/arm_conv_partial_fast_q31.c ****       }
 472:./Libraries/CMSIS/DSP/Source/FilteringFunctions/arm_conv_partial_fast_q31.c ****     }
 473:./Libraries/CMSIS/DSP/Source/FilteringFunctions/arm_conv_partial_fast_q31.c ****     else
 474:./Libraries/CMSIS/DSP/Source/FilteringFunctions/arm_conv_partial_fast_q31.c ****     {
 475:./Libraries/CMSIS/DSP/Source/FilteringFunctions/arm_conv_partial_fast_q31.c ****       /* If the srcBLen is not a multiple of 4,
 476:./Libraries/CMSIS/DSP/Source/FilteringFunctions/arm_conv_partial_fast_q31.c ****        * the blockSize2 loop cannot be unrolled by 4 */
 477:./Libraries/CMSIS/DSP/Source/FilteringFunctions/arm_conv_partial_fast_q31.c ****       blkCnt = (uint32_t) blockSize2;
 294              		.loc 1 477 7 is_stmt 1 view .LVU108
 295              	.LVL32:
 478:./Libraries/CMSIS/DSP/Source/FilteringFunctions/arm_conv_partial_fast_q31.c **** 
 479:./Libraries/CMSIS/DSP/Source/FilteringFunctions/arm_conv_partial_fast_q31.c ****       while (blkCnt > 0U)
 296              		.loc 1 479 7 view .LVU109
 297              		.loc 1 479 13 view .LVU110
 298 0104 059A     		ldr	r2, [sp, #20]
 299 0106 002A     		cmp	r2, #0
 300 0108 00F08D80 		beq	.L31
 301 010c 0433     		adds	r3, r3, #4
 302 010e C8EB887E 		rsb	lr, r8, r8, lsl #30
 303 0112 0CEB8205 		add	r5, ip, r2, lsl #2
 304 0116 BA46     		mov	r10, r7
 305 0118 9944     		add	r9, r9, r3
 306              	.LVL33:
 307              		.loc 1 479 13 is_stmt 0 view .LVU111
 308 011a 4FEA8E0E 		lsl	lr, lr, #2
 309 011e 4446     		mov	r4, r8
 310              	.LVL34:
 311              	.L19:
 312              		.loc 1 479 13 view .LVU112
 313 0120 0EEB0901 		add	r1, lr, r9
 314              	.LVL35:
 480:./Libraries/CMSIS/DSP/Source/FilteringFunctions/arm_conv_partial_fast_q31.c ****       {
 481:./Libraries/CMSIS/DSP/Source/FilteringFunctions/arm_conv_partial_fast_q31.c ****         /* Accumulator is made zero for every iteration */
 482:./Libraries/CMSIS/DSP/Source/FilteringFunctions/arm_conv_partial_fast_q31.c ****         sum = 0;
 483:./Libraries/CMSIS/DSP/Source/FilteringFunctions/arm_conv_partial_fast_q31.c **** 
 484:./Libraries/CMSIS/DSP/Source/FilteringFunctions/arm_conv_partial_fast_q31.c ****         /* srcBLen number of MACS should be performed */
 485:./Libraries/CMSIS/DSP/Source/FilteringFunctions/arm_conv_partial_fast_q31.c ****         k = srcBLen;
 486:./Libraries/CMSIS/DSP/Source/FilteringFunctions/arm_conv_partial_fast_q31.c **** 
 487:./Libraries/CMSIS/DSP/Source/FilteringFunctions/arm_conv_partial_fast_q31.c ****         while (k > 0U)
 315              		.loc 1 487 15 is_stmt 1 view .LVU113
 316 0124 002C     		cmp	r4, #0
 317 0126 77D0     		beq	.L52
 318              		.loc 1 487 15 is_stmt 0 view .LVU114
 319 0128 B046     		mov	r8, r6
 482:./Libraries/CMSIS/DSP/Source/FilteringFunctions/arm_conv_partial_fast_q31.c **** 
 320              		.loc 1 482 13 view .LVU115
 321 012a 0020     		movs	r0, #0
 322              	.LVL36:
 323              	.L20:
 488:./Libraries/CMSIS/DSP/Source/FilteringFunctions/arm_conv_partial_fast_q31.c ****         {
 489:./Libraries/CMSIS/DSP/Source/FilteringFunctions/arm_conv_partial_fast_q31.c ****           /* Perform the multiply-accumulate */
 490:./Libraries/CMSIS/DSP/Source/FilteringFunctions/arm_conv_partial_fast_q31.c ****           sum = (q31_t) ((((q63_t) sum << 32) +
ARM GAS  /tmp/ccHShaVx.s 			page 16


 324              		.loc 1 490 11 is_stmt 1 view .LVU116
 325              		.loc 1 490 47 is_stmt 0 view .LVU117
 326 012c 51F804BB 		ldr	fp, [r1], #4
 327              	.LVL37:
 328              		.loc 1 490 40 view .LVU118
 329 0130 0346     		mov	r3, r0
 330 0132 0022     		movs	r2, #0
 331              		.loc 1 490 47 view .LVU119
 332 0134 58F80479 		ldr	r7, [r8], #-4
 333              	.LVL38:
 487:./Libraries/CMSIS/DSP/Source/FilteringFunctions/arm_conv_partial_fast_q31.c ****         {
 334              		.loc 1 487 15 view .LVU120
 335 0138 4945     		cmp	r1, r9
 336              		.loc 1 490 47 view .LVU121
 337 013a C7FB0B23 		smlal	r2, r3, r7, fp
 338              		.loc 1 490 15 view .LVU122
 339 013e 1846     		mov	r0, r3
 340              	.LVL39:
 491:./Libraries/CMSIS/DSP/Source/FilteringFunctions/arm_conv_partial_fast_q31.c ****                           ((q63_t) *px++ * (*py--))) >> 32);
 492:./Libraries/CMSIS/DSP/Source/FilteringFunctions/arm_conv_partial_fast_q31.c **** 
 493:./Libraries/CMSIS/DSP/Source/FilteringFunctions/arm_conv_partial_fast_q31.c ****           /* Decrement loop counter */
 494:./Libraries/CMSIS/DSP/Source/FilteringFunctions/arm_conv_partial_fast_q31.c ****           k--;
 341              		.loc 1 494 11 is_stmt 1 view .LVU123
 487:./Libraries/CMSIS/DSP/Source/FilteringFunctions/arm_conv_partial_fast_q31.c ****         {
 342              		.loc 1 487 15 view .LVU124
 343 0140 F4D1     		bne	.L20
 344 0142 5800     		lsls	r0, r3, #1
 345              	.LVL40:
 346              	.L21:
 495:./Libraries/CMSIS/DSP/Source/FilteringFunctions/arm_conv_partial_fast_q31.c ****         }
 496:./Libraries/CMSIS/DSP/Source/FilteringFunctions/arm_conv_partial_fast_q31.c **** 
 497:./Libraries/CMSIS/DSP/Source/FilteringFunctions/arm_conv_partial_fast_q31.c ****         /* Store the result in the accumulator in the destination buffer. */
 498:./Libraries/CMSIS/DSP/Source/FilteringFunctions/arm_conv_partial_fast_q31.c ****         *pOut++ = sum << 1;
 347              		.loc 1 498 9 view .LVU125
 348              		.loc 1 498 17 is_stmt 0 view .LVU126
 349 0144 4CF8040B 		str	r0, [ip], #4
 350              	.LVL41:
 499:./Libraries/CMSIS/DSP/Source/FilteringFunctions/arm_conv_partial_fast_q31.c **** 
 500:./Libraries/CMSIS/DSP/Source/FilteringFunctions/arm_conv_partial_fast_q31.c ****         /* Increment the MAC count */
 501:./Libraries/CMSIS/DSP/Source/FilteringFunctions/arm_conv_partial_fast_q31.c ****         count++;
 351              		.loc 1 501 9 is_stmt 1 view .LVU127
 502:./Libraries/CMSIS/DSP/Source/FilteringFunctions/arm_conv_partial_fast_q31.c **** 
 503:./Libraries/CMSIS/DSP/Source/FilteringFunctions/arm_conv_partial_fast_q31.c ****         /* Update the inputA and inputB pointers for next MAC calculation */
 504:./Libraries/CMSIS/DSP/Source/FilteringFunctions/arm_conv_partial_fast_q31.c ****         px = pSrc1 + count;
 352              		.loc 1 504 9 view .LVU128
 505:./Libraries/CMSIS/DSP/Source/FilteringFunctions/arm_conv_partial_fast_q31.c ****         py = pSrc2;
 353              		.loc 1 505 9 view .LVU129
 506:./Libraries/CMSIS/DSP/Source/FilteringFunctions/arm_conv_partial_fast_q31.c **** 
 507:./Libraries/CMSIS/DSP/Source/FilteringFunctions/arm_conv_partial_fast_q31.c ****         /* Decrement the loop counter */
 508:./Libraries/CMSIS/DSP/Source/FilteringFunctions/arm_conv_partial_fast_q31.c ****         blkCnt--;
 354              		.loc 1 508 9 view .LVU130
 479:./Libraries/CMSIS/DSP/Source/FilteringFunctions/arm_conv_partial_fast_q31.c ****       {
 355              		.loc 1 479 13 view .LVU131
 356 0148 AC45     		cmp	ip, r5
 357 014a 09F10409 		add	r9, r9, #4
 358 014e E7D1     		bne	.L19
 359 0150 5746     		mov	r7, r10
ARM GAS  /tmp/ccHShaVx.s 			page 17


 360 0152 A046     		mov	r8, r4
 361 0154 20E0     		b	.L16
 362              	.LVL42:
 363              	.L50:
 208:./Libraries/CMSIS/DSP/Source/FilteringFunctions/arm_conv_partial_fast_q31.c ****       {
 364              		.loc 1 208 13 is_stmt 0 view .LVU132
 365 0156 0C46     		mov	r4, r1
 366 0158 AFE7     		b	.L13
 367              	.LVL43:
 368              	.L51:
 409:./Libraries/CMSIS/DSP/Source/FilteringFunctions/arm_conv_partial_fast_q31.c **** 
 369              		.loc 1 409 7 is_stmt 1 view .LVU133
 413:./Libraries/CMSIS/DSP/Source/FilteringFunctions/arm_conv_partial_fast_q31.c ****       {
 370              		.loc 1 413 7 view .LVU134
 413:./Libraries/CMSIS/DSP/Source/FilteringFunctions/arm_conv_partial_fast_q31.c ****       {
 371              		.loc 1 413 13 view .LVU135
 372 015a 059B     		ldr	r3, [sp, #20]
 373 015c 002B     		cmp	r3, #0
 374 015e 62D0     		beq	.L31
 375 0160 0CEB8305 		add	r5, ip, r3, lsl #2
 376 0164 BA46     		mov	r10, r7
 377 0166 AB46     		mov	fp, r5
 378              	.LVL44:
 379              	.L18:
 249:./Libraries/CMSIS/DSP/Source/FilteringFunctions/arm_conv_partial_fast_q31.c ****     }
 380              		.loc 1 249 13 is_stmt 0 view .LVU136
 381 0168 4146     		mov	r1, r8
 382 016a B646     		mov	lr, r6
 383 016c 4C46     		mov	r4, r9
 416:./Libraries/CMSIS/DSP/Source/FilteringFunctions/arm_conv_partial_fast_q31.c **** 
 384              		.loc 1 416 13 view .LVU137
 385 016e 0020     		movs	r0, #0
 386              	.LVL45:
 387              	.L17:
 452:./Libraries/CMSIS/DSP/Source/FilteringFunctions/arm_conv_partial_fast_q31.c ****                           ((q63_t) *px++ * (*py--))) >> 32);
 388              		.loc 1 452 11 is_stmt 1 view .LVU138
 452:./Libraries/CMSIS/DSP/Source/FilteringFunctions/arm_conv_partial_fast_q31.c ****                           ((q63_t) *px++ * (*py--))) >> 32);
 389              		.loc 1 452 40 is_stmt 0 view .LVU139
 390 0170 0346     		mov	r3, r0
 391 0172 0022     		movs	r2, #0
 452:./Libraries/CMSIS/DSP/Source/FilteringFunctions/arm_conv_partial_fast_q31.c ****                           ((q63_t) *px++ * (*py--))) >> 32);
 392              		.loc 1 452 47 view .LVU140
 393 0174 54F8047B 		ldr	r7, [r4], #4
 394              	.LVL46:
 449:./Libraries/CMSIS/DSP/Source/FilteringFunctions/arm_conv_partial_fast_q31.c ****         {
 395              		.loc 1 449 15 view .LVU141
 396 0178 0139     		subs	r1, r1, #1
 397              	.LVL47:
 452:./Libraries/CMSIS/DSP/Source/FilteringFunctions/arm_conv_partial_fast_q31.c ****                           ((q63_t) *px++ * (*py--))) >> 32);
 398              		.loc 1 452 47 view .LVU142
 399 017a 5EF80459 		ldr	r5, [lr], #-4
 400              	.LVL48:
 452:./Libraries/CMSIS/DSP/Source/FilteringFunctions/arm_conv_partial_fast_q31.c ****                           ((q63_t) *px++ * (*py--))) >> 32);
 401              		.loc 1 452 47 view .LVU143
 402 017e C5FB0723 		smlal	r2, r3, r5, r7
 452:./Libraries/CMSIS/DSP/Source/FilteringFunctions/arm_conv_partial_fast_q31.c ****                           ((q63_t) *px++ * (*py--))) >> 32);
 403              		.loc 1 452 15 view .LVU144
ARM GAS  /tmp/ccHShaVx.s 			page 18


 404 0182 1846     		mov	r0, r3
 405              	.LVL49:
 456:./Libraries/CMSIS/DSP/Source/FilteringFunctions/arm_conv_partial_fast_q31.c ****         }
 406              		.loc 1 456 11 is_stmt 1 view .LVU145
 449:./Libraries/CMSIS/DSP/Source/FilteringFunctions/arm_conv_partial_fast_q31.c ****         {
 407              		.loc 1 449 15 view .LVU146
 408 0184 F4D1     		bne	.L17
 460:./Libraries/CMSIS/DSP/Source/FilteringFunctions/arm_conv_partial_fast_q31.c **** 
 409              		.loc 1 460 9 view .LVU147
 410              	.LVL50:
 460:./Libraries/CMSIS/DSP/Source/FilteringFunctions/arm_conv_partial_fast_q31.c **** 
 411              		.loc 1 460 23 is_stmt 0 view .LVU148
 412 0186 5800     		lsls	r0, r3, #1
 413 0188 09F10409 		add	r9, r9, #4
 460:./Libraries/CMSIS/DSP/Source/FilteringFunctions/arm_conv_partial_fast_q31.c **** 
 414              		.loc 1 460 17 view .LVU149
 415 018c 4CF8040B 		str	r0, [ip], #4
 416              	.LVL51:
 463:./Libraries/CMSIS/DSP/Source/FilteringFunctions/arm_conv_partial_fast_q31.c **** 
 417              		.loc 1 463 9 is_stmt 1 view .LVU150
 466:./Libraries/CMSIS/DSP/Source/FilteringFunctions/arm_conv_partial_fast_q31.c ****         py = pSrc2;
 418              		.loc 1 466 9 view .LVU151
 467:./Libraries/CMSIS/DSP/Source/FilteringFunctions/arm_conv_partial_fast_q31.c **** 
 419              		.loc 1 467 9 view .LVU152
 470:./Libraries/CMSIS/DSP/Source/FilteringFunctions/arm_conv_partial_fast_q31.c ****       }
 420              		.loc 1 470 9 view .LVU153
 413:./Libraries/CMSIS/DSP/Source/FilteringFunctions/arm_conv_partial_fast_q31.c ****       {
 421              		.loc 1 413 13 view .LVU154
 422 0190 DC45     		cmp	ip, fp
 423 0192 E9D1     		bne	.L18
 424 0194 5D46     		mov	r5, fp
 425 0196 5746     		mov	r7, r10
 426              	.L16:
 427              	.LVL52:
 509:./Libraries/CMSIS/DSP/Source/FilteringFunctions/arm_conv_partial_fast_q31.c ****       }
 510:./Libraries/CMSIS/DSP/Source/FilteringFunctions/arm_conv_partial_fast_q31.c ****     }
 511:./Libraries/CMSIS/DSP/Source/FilteringFunctions/arm_conv_partial_fast_q31.c **** 
 512:./Libraries/CMSIS/DSP/Source/FilteringFunctions/arm_conv_partial_fast_q31.c **** 
 513:./Libraries/CMSIS/DSP/Source/FilteringFunctions/arm_conv_partial_fast_q31.c ****     /* --------------------------
 514:./Libraries/CMSIS/DSP/Source/FilteringFunctions/arm_conv_partial_fast_q31.c ****      * Initializations of stage3
 515:./Libraries/CMSIS/DSP/Source/FilteringFunctions/arm_conv_partial_fast_q31.c ****      * -------------------------*/
 516:./Libraries/CMSIS/DSP/Source/FilteringFunctions/arm_conv_partial_fast_q31.c **** 
 517:./Libraries/CMSIS/DSP/Source/FilteringFunctions/arm_conv_partial_fast_q31.c ****     /* sum += x[srcALen-srcBLen+1] * y[srcBLen-1] + x[srcALen-srcBLen+2] * y[srcBLen-2] +...+ x[src
 518:./Libraries/CMSIS/DSP/Source/FilteringFunctions/arm_conv_partial_fast_q31.c ****      * sum += x[srcALen-srcBLen+2] * y[srcBLen-1] + x[srcALen-srcBLen+3] * y[srcBLen-2] +...+ x[src
 519:./Libraries/CMSIS/DSP/Source/FilteringFunctions/arm_conv_partial_fast_q31.c ****      * ....
 520:./Libraries/CMSIS/DSP/Source/FilteringFunctions/arm_conv_partial_fast_q31.c ****      * sum +=  x[srcALen-2] * y[srcBLen-1] + x[srcALen-1] * y[srcBLen-2]
 521:./Libraries/CMSIS/DSP/Source/FilteringFunctions/arm_conv_partial_fast_q31.c ****      * sum +=  x[srcALen-1] * y[srcBLen-1]
 522:./Libraries/CMSIS/DSP/Source/FilteringFunctions/arm_conv_partial_fast_q31.c ****      */
 523:./Libraries/CMSIS/DSP/Source/FilteringFunctions/arm_conv_partial_fast_q31.c **** 
 524:./Libraries/CMSIS/DSP/Source/FilteringFunctions/arm_conv_partial_fast_q31.c ****     /* In this stage the MAC operations are decreased by 1 for every iteration.
 525:./Libraries/CMSIS/DSP/Source/FilteringFunctions/arm_conv_partial_fast_q31.c ****        The count variable holds the number of MAC operations performed */
 526:./Libraries/CMSIS/DSP/Source/FilteringFunctions/arm_conv_partial_fast_q31.c ****     count = srcBLen - 1U;
 428              		.loc 1 526 5 view .LVU155
 527:./Libraries/CMSIS/DSP/Source/FilteringFunctions/arm_conv_partial_fast_q31.c **** 
 528:./Libraries/CMSIS/DSP/Source/FilteringFunctions/arm_conv_partial_fast_q31.c ****     /* Working pointer of inputA */
 529:./Libraries/CMSIS/DSP/Source/FilteringFunctions/arm_conv_partial_fast_q31.c ****     pSrc1 = (pIn1 + srcALen) - (srcBLen - 1U);
 429              		.loc 1 529 5 view .LVU156
ARM GAS  /tmp/ccHShaVx.s 			page 19


 430              		.loc 1 529 30 is_stmt 0 view .LVU157
 431 0198 009B     		ldr	r3, [sp]
 432 019a 03F1010E 		add	lr, r3, #1
 433              		.loc 1 529 11 view .LVU158
 434 019e 019B     		ldr	r3, [sp, #4]
 435              		.loc 1 529 30 view .LVU159
 436 01a0 AEEB080E 		sub	lr, lr, r8
 437              		.loc 1 529 11 view .LVU160
 438 01a4 03EB8E0E 		add	lr, r3, lr, lsl #2
 439              	.LVL53:
 530:./Libraries/CMSIS/DSP/Source/FilteringFunctions/arm_conv_partial_fast_q31.c ****     px = pSrc1;
 440              		.loc 1 530 5 is_stmt 1 view .LVU161
 531:./Libraries/CMSIS/DSP/Source/FilteringFunctions/arm_conv_partial_fast_q31.c **** 
 532:./Libraries/CMSIS/DSP/Source/FilteringFunctions/arm_conv_partial_fast_q31.c ****     /* Working pointer of inputB */
 533:./Libraries/CMSIS/DSP/Source/FilteringFunctions/arm_conv_partial_fast_q31.c ****     pSrc2 = pIn2 + (srcBLen - 1U);
 441              		.loc 1 533 5 view .LVU162
 534:./Libraries/CMSIS/DSP/Source/FilteringFunctions/arm_conv_partial_fast_q31.c ****     py = pSrc2;
 442              		.loc 1 534 5 view .LVU163
 535:./Libraries/CMSIS/DSP/Source/FilteringFunctions/arm_conv_partial_fast_q31.c **** 
 536:./Libraries/CMSIS/DSP/Source/FilteringFunctions/arm_conv_partial_fast_q31.c ****     /* -------------------
 537:./Libraries/CMSIS/DSP/Source/FilteringFunctions/arm_conv_partial_fast_q31.c ****      * Stage3 process
 538:./Libraries/CMSIS/DSP/Source/FilteringFunctions/arm_conv_partial_fast_q31.c ****      * ------------------*/
 539:./Libraries/CMSIS/DSP/Source/FilteringFunctions/arm_conv_partial_fast_q31.c **** 
 540:./Libraries/CMSIS/DSP/Source/FilteringFunctions/arm_conv_partial_fast_q31.c ****     while (blockSize3 > 0U)
 443              		.loc 1 540 5 view .LVU164
 444              		.loc 1 540 11 view .LVU165
 445 01a8 029B     		ldr	r3, [sp, #8]
 446 01aa D3B1     		cbz	r3, .L22
 447 01ac A7EB0308 		sub	r8, r7, r3
 448              	.LVL54:
 449              		.loc 1 540 11 is_stmt 0 view .LVU166
 450 01b0 B146     		mov	r9, r6
 451              	.LVL55:
 452              	.L23:
 541:./Libraries/CMSIS/DSP/Source/FilteringFunctions/arm_conv_partial_fast_q31.c ****     {
 542:./Libraries/CMSIS/DSP/Source/FilteringFunctions/arm_conv_partial_fast_q31.c ****       /* Accumulator is made zero for every iteration */
 543:./Libraries/CMSIS/DSP/Source/FilteringFunctions/arm_conv_partial_fast_q31.c ****       sum = 0;
 544:./Libraries/CMSIS/DSP/Source/FilteringFunctions/arm_conv_partial_fast_q31.c **** 
 545:./Libraries/CMSIS/DSP/Source/FilteringFunctions/arm_conv_partial_fast_q31.c **** #if defined (ARM_MATH_LOOPUNROLL)
 546:./Libraries/CMSIS/DSP/Source/FilteringFunctions/arm_conv_partial_fast_q31.c **** 
 547:./Libraries/CMSIS/DSP/Source/FilteringFunctions/arm_conv_partial_fast_q31.c ****       /* Loop unrolling: Compute 4 outputs at a time */
 548:./Libraries/CMSIS/DSP/Source/FilteringFunctions/arm_conv_partial_fast_q31.c ****       k = count >> 2U;
 549:./Libraries/CMSIS/DSP/Source/FilteringFunctions/arm_conv_partial_fast_q31.c **** 
 550:./Libraries/CMSIS/DSP/Source/FilteringFunctions/arm_conv_partial_fast_q31.c ****       while (k > 0U)
 551:./Libraries/CMSIS/DSP/Source/FilteringFunctions/arm_conv_partial_fast_q31.c ****       {
 552:./Libraries/CMSIS/DSP/Source/FilteringFunctions/arm_conv_partial_fast_q31.c ****         /* sum += x[srcALen - srcBLen + 1] * y[srcBLen - 1] */
 553:./Libraries/CMSIS/DSP/Source/FilteringFunctions/arm_conv_partial_fast_q31.c ****         sum = (q31_t) ((((q63_t) sum << 32) +
 554:./Libraries/CMSIS/DSP/Source/FilteringFunctions/arm_conv_partial_fast_q31.c ****                         ((q63_t) *px++ * (*py--))) >> 32);
 555:./Libraries/CMSIS/DSP/Source/FilteringFunctions/arm_conv_partial_fast_q31.c **** 
 556:./Libraries/CMSIS/DSP/Source/FilteringFunctions/arm_conv_partial_fast_q31.c ****         /* sum += x[srcALen - srcBLen + 2] * y[srcBLen - 2] */
 557:./Libraries/CMSIS/DSP/Source/FilteringFunctions/arm_conv_partial_fast_q31.c ****         sum = (q31_t) ((((q63_t) sum << 32) +
 558:./Libraries/CMSIS/DSP/Source/FilteringFunctions/arm_conv_partial_fast_q31.c ****                         ((q63_t) *px++ * (*py--))) >> 32);
 559:./Libraries/CMSIS/DSP/Source/FilteringFunctions/arm_conv_partial_fast_q31.c **** 
 560:./Libraries/CMSIS/DSP/Source/FilteringFunctions/arm_conv_partial_fast_q31.c ****         /* sum += x[srcALen - srcBLen + 3] * y[srcBLen - 3] */
 561:./Libraries/CMSIS/DSP/Source/FilteringFunctions/arm_conv_partial_fast_q31.c ****         sum = (q31_t) ((((q63_t) sum << 32) +
 562:./Libraries/CMSIS/DSP/Source/FilteringFunctions/arm_conv_partial_fast_q31.c ****                         ((q63_t) *px++ * (*py--))) >> 32);
 563:./Libraries/CMSIS/DSP/Source/FilteringFunctions/arm_conv_partial_fast_q31.c **** 
ARM GAS  /tmp/ccHShaVx.s 			page 20


 564:./Libraries/CMSIS/DSP/Source/FilteringFunctions/arm_conv_partial_fast_q31.c ****         /* sum += x[srcALen - srcBLen + 4] * y[srcBLen - 4] */
 565:./Libraries/CMSIS/DSP/Source/FilteringFunctions/arm_conv_partial_fast_q31.c ****         sum = (q31_t) ((((q63_t) sum << 32) +
 566:./Libraries/CMSIS/DSP/Source/FilteringFunctions/arm_conv_partial_fast_q31.c ****                         ((q63_t) *px++ * (*py--))) >> 32);
 567:./Libraries/CMSIS/DSP/Source/FilteringFunctions/arm_conv_partial_fast_q31.c **** 
 568:./Libraries/CMSIS/DSP/Source/FilteringFunctions/arm_conv_partial_fast_q31.c ****         /* Decrement loop counter */
 569:./Libraries/CMSIS/DSP/Source/FilteringFunctions/arm_conv_partial_fast_q31.c ****         k--;
 570:./Libraries/CMSIS/DSP/Source/FilteringFunctions/arm_conv_partial_fast_q31.c ****       }
 571:./Libraries/CMSIS/DSP/Source/FilteringFunctions/arm_conv_partial_fast_q31.c **** 
 572:./Libraries/CMSIS/DSP/Source/FilteringFunctions/arm_conv_partial_fast_q31.c ****       /* Loop unrolling: Compute remaining outputs */
 573:./Libraries/CMSIS/DSP/Source/FilteringFunctions/arm_conv_partial_fast_q31.c ****       k = count % 0x4U;
 574:./Libraries/CMSIS/DSP/Source/FilteringFunctions/arm_conv_partial_fast_q31.c **** 
 575:./Libraries/CMSIS/DSP/Source/FilteringFunctions/arm_conv_partial_fast_q31.c **** #else
 576:./Libraries/CMSIS/DSP/Source/FilteringFunctions/arm_conv_partial_fast_q31.c **** 
 577:./Libraries/CMSIS/DSP/Source/FilteringFunctions/arm_conv_partial_fast_q31.c ****       /* Initialize blkCnt with number of samples */
 578:./Libraries/CMSIS/DSP/Source/FilteringFunctions/arm_conv_partial_fast_q31.c ****       k = count;
 579:./Libraries/CMSIS/DSP/Source/FilteringFunctions/arm_conv_partial_fast_q31.c **** 
 580:./Libraries/CMSIS/DSP/Source/FilteringFunctions/arm_conv_partial_fast_q31.c **** #endif /* #if defined (ARM_MATH_LOOPUNROLL) */
 581:./Libraries/CMSIS/DSP/Source/FilteringFunctions/arm_conv_partial_fast_q31.c **** 
 582:./Libraries/CMSIS/DSP/Source/FilteringFunctions/arm_conv_partial_fast_q31.c ****       while (k > 0U)
 453              		.loc 1 582 13 is_stmt 1 view .LVU167
 454 01b2 9FB3     		cbz	r7, .L53
 455              		.loc 1 582 13 is_stmt 0 view .LVU168
 456 01b4 3946     		mov	r1, r7
 457 01b6 CC46     		mov	ip, r9
 458 01b8 7446     		mov	r4, lr
 543:./Libraries/CMSIS/DSP/Source/FilteringFunctions/arm_conv_partial_fast_q31.c **** 
 459              		.loc 1 543 11 view .LVU169
 460 01ba 0020     		movs	r0, #0
 461              	.LVL56:
 462              	.L24:
 583:./Libraries/CMSIS/DSP/Source/FilteringFunctions/arm_conv_partial_fast_q31.c ****       {
 584:./Libraries/CMSIS/DSP/Source/FilteringFunctions/arm_conv_partial_fast_q31.c ****         /* Perform the multiply-accumulates */
 585:./Libraries/CMSIS/DSP/Source/FilteringFunctions/arm_conv_partial_fast_q31.c ****         /* sum +=  x[srcALen-1] * y[srcBLen-1] */
 586:./Libraries/CMSIS/DSP/Source/FilteringFunctions/arm_conv_partial_fast_q31.c ****         sum = (q31_t) ((((q63_t) sum << 32) +
 463              		.loc 1 586 9 is_stmt 1 view .LVU170
 464              		.loc 1 586 38 is_stmt 0 view .LVU171
 465 01bc 0346     		mov	r3, r0
 466 01be 0022     		movs	r2, #0
 467              		.loc 1 586 45 view .LVU172
 468 01c0 54F804AB 		ldr	r10, [r4], #4
 469              	.LVL57:
 582:./Libraries/CMSIS/DSP/Source/FilteringFunctions/arm_conv_partial_fast_q31.c ****       {
 470              		.loc 1 582 13 view .LVU173
 471 01c4 0139     		subs	r1, r1, #1
 472              	.LVL58:
 473              		.loc 1 586 45 view .LVU174
 474 01c6 5CF80469 		ldr	r6, [ip], #-4
 475              	.LVL59:
 476              		.loc 1 586 45 view .LVU175
 477 01ca C6FB0A23 		smlal	r2, r3, r6, r10
 478              		.loc 1 586 13 view .LVU176
 479 01ce 1846     		mov	r0, r3
 480              	.LVL60:
 587:./Libraries/CMSIS/DSP/Source/FilteringFunctions/arm_conv_partial_fast_q31.c ****                         ((q63_t) *px++ * (*py--))) >> 32);
 588:./Libraries/CMSIS/DSP/Source/FilteringFunctions/arm_conv_partial_fast_q31.c **** 
 589:./Libraries/CMSIS/DSP/Source/FilteringFunctions/arm_conv_partial_fast_q31.c ****         /* Decrement loop counter */
 590:./Libraries/CMSIS/DSP/Source/FilteringFunctions/arm_conv_partial_fast_q31.c ****         k--;
ARM GAS  /tmp/ccHShaVx.s 			page 21


 481              		.loc 1 590 9 is_stmt 1 view .LVU177
 582:./Libraries/CMSIS/DSP/Source/FilteringFunctions/arm_conv_partial_fast_q31.c ****       {
 482              		.loc 1 582 13 view .LVU178
 483 01d0 F4D1     		bne	.L24
 484 01d2 5800     		lsls	r0, r3, #1
 485              	.LVL61:
 486              	.L25:
 591:./Libraries/CMSIS/DSP/Source/FilteringFunctions/arm_conv_partial_fast_q31.c ****       }
 592:./Libraries/CMSIS/DSP/Source/FilteringFunctions/arm_conv_partial_fast_q31.c **** 
 593:./Libraries/CMSIS/DSP/Source/FilteringFunctions/arm_conv_partial_fast_q31.c ****       /* Store the result in the accumulator in the destination buffer. */
 594:./Libraries/CMSIS/DSP/Source/FilteringFunctions/arm_conv_partial_fast_q31.c ****       *pOut++ = sum << 1;
 487              		.loc 1 594 7 view .LVU179
 595:./Libraries/CMSIS/DSP/Source/FilteringFunctions/arm_conv_partial_fast_q31.c **** 
 596:./Libraries/CMSIS/DSP/Source/FilteringFunctions/arm_conv_partial_fast_q31.c ****       /* Update the inputA and inputB pointers for next MAC calculation */
 597:./Libraries/CMSIS/DSP/Source/FilteringFunctions/arm_conv_partial_fast_q31.c ****       px = ++pSrc1;
 598:./Libraries/CMSIS/DSP/Source/FilteringFunctions/arm_conv_partial_fast_q31.c ****       py = pSrc2;
 599:./Libraries/CMSIS/DSP/Source/FilteringFunctions/arm_conv_partial_fast_q31.c **** 
 600:./Libraries/CMSIS/DSP/Source/FilteringFunctions/arm_conv_partial_fast_q31.c ****       /* Decrement MAC count */
 601:./Libraries/CMSIS/DSP/Source/FilteringFunctions/arm_conv_partial_fast_q31.c ****       count--;
 488              		.loc 1 601 12 is_stmt 0 view .LVU180
 489 01d4 013F     		subs	r7, r7, #1
 490              	.LVL62:
 597:./Libraries/CMSIS/DSP/Source/FilteringFunctions/arm_conv_partial_fast_q31.c ****       py = pSrc2;
 491              		.loc 1 597 10 view .LVU181
 492 01d6 0EF1040E 		add	lr, lr, #4
 493              	.LVL63:
 594:./Libraries/CMSIS/DSP/Source/FilteringFunctions/arm_conv_partial_fast_q31.c **** 
 494              		.loc 1 594 15 view .LVU182
 495 01da 45F8040B 		str	r0, [r5], #4
 496              	.LVL64:
 597:./Libraries/CMSIS/DSP/Source/FilteringFunctions/arm_conv_partial_fast_q31.c ****       py = pSrc2;
 497              		.loc 1 597 7 is_stmt 1 view .LVU183
 598:./Libraries/CMSIS/DSP/Source/FilteringFunctions/arm_conv_partial_fast_q31.c **** 
 498              		.loc 1 598 7 view .LVU184
 499              		.loc 1 601 7 view .LVU185
 602:./Libraries/CMSIS/DSP/Source/FilteringFunctions/arm_conv_partial_fast_q31.c **** 
 603:./Libraries/CMSIS/DSP/Source/FilteringFunctions/arm_conv_partial_fast_q31.c ****       /* Decrement the loop counter */
 604:./Libraries/CMSIS/DSP/Source/FilteringFunctions/arm_conv_partial_fast_q31.c ****       blockSize3--;
 500              		.loc 1 604 7 view .LVU186
 540:./Libraries/CMSIS/DSP/Source/FilteringFunctions/arm_conv_partial_fast_q31.c ****     {
 501              		.loc 1 540 11 view .LVU187
 502 01de 4745     		cmp	r7, r8
 503 01e0 E7D1     		bne	.L23
 504              	.LVL65:
 505              	.L22:
 605:./Libraries/CMSIS/DSP/Source/FilteringFunctions/arm_conv_partial_fast_q31.c ****     }
 606:./Libraries/CMSIS/DSP/Source/FilteringFunctions/arm_conv_partial_fast_q31.c **** 
 607:./Libraries/CMSIS/DSP/Source/FilteringFunctions/arm_conv_partial_fast_q31.c ****     /* Set status as ARM_MATH_SUCCESS */
 608:./Libraries/CMSIS/DSP/Source/FilteringFunctions/arm_conv_partial_fast_q31.c ****     status = ARM_MATH_SUCCESS;
 506              		.loc 1 608 12 is_stmt 0 view .LVU188
 507 01e2 0020     		movs	r0, #0
 508              	.LVL66:
 509              	.L44:
 609:./Libraries/CMSIS/DSP/Source/FilteringFunctions/arm_conv_partial_fast_q31.c ****   }
 610:./Libraries/CMSIS/DSP/Source/FilteringFunctions/arm_conv_partial_fast_q31.c **** 
 611:./Libraries/CMSIS/DSP/Source/FilteringFunctions/arm_conv_partial_fast_q31.c ****   /* Return to application */
 612:./Libraries/CMSIS/DSP/Source/FilteringFunctions/arm_conv_partial_fast_q31.c ****   return (status);
ARM GAS  /tmp/ccHShaVx.s 			page 22


 613:./Libraries/CMSIS/DSP/Source/FilteringFunctions/arm_conv_partial_fast_q31.c **** 
 614:./Libraries/CMSIS/DSP/Source/FilteringFunctions/arm_conv_partial_fast_q31.c **** }
 510              		.loc 1 614 1 view .LVU189
 511 01e4 09B0     		add	sp, sp, #36
 512              	.LCFI2:
 513              		.cfi_remember_state
 514              		.cfi_def_cfa_offset 36
 515              		@ sp needed
 516 01e6 BDE8F08F 		pop	{r4, r5, r6, r7, r8, r9, r10, fp, pc}
 517              	.LVL67:
 518              	.L49:
 519              	.LCFI3:
 520              		.cfi_restore_state
 119:./Libraries/CMSIS/DSP/Source/FilteringFunctions/arm_conv_partial_fast_q31.c ****     blockSize1 = ((int32_t) srcBLen - 1) - (int32_t) firstIndex;
 521              		.loc 1 119 76 discriminator 1 view .LVU190
 522 01ea 029A     		ldr	r2, [sp, #8]
 523 01ec 521B     		subs	r2, r2, r5
 524              	.LVL68:
 119:./Libraries/CMSIS/DSP/Source/FilteringFunctions/arm_conv_partial_fast_q31.c ****     blockSize1 = ((int32_t) srcBLen - 1) - (int32_t) firstIndex;
 525              		.loc 1 119 117 discriminator 1 view .LVU191
 526 01ee 2244     		add	r2, r2, r4
 527              	.LVL69:
 119:./Libraries/CMSIS/DSP/Source/FilteringFunctions/arm_conv_partial_fast_q31.c ****     blockSize1 = ((int32_t) srcBLen - 1) - (int32_t) firstIndex;
 528              		.loc 1 119 117 discriminator 1 view .LVU192
 529 01f0 0292     		str	r2, [sp, #8]
 530 01f2 2DE7     		b	.L5
 531              	.LVL70:
 532              	.L7:
 122:./Libraries/CMSIS/DSP/Source/FilteringFunctions/arm_conv_partial_fast_q31.c ****     blockSize2 = (blockSize2 > 0) ? blockSize2 : 0;
 533              		.loc 1 122 5 is_stmt 1 view .LVU193
 122:./Libraries/CMSIS/DSP/Source/FilteringFunctions/arm_conv_partial_fast_q31.c ****     blockSize2 = (blockSize2 > 0) ? blockSize2 : 0;
 534              		.loc 1 122 49 is_stmt 0 view .LVU194
 535 01f4 DDE90221 		ldrd	r2, r1, [sp, #8]
 536              	.LVL71:
 158:./Libraries/CMSIS/DSP/Source/FilteringFunctions/arm_conv_partial_fast_q31.c ****     py = pSrc2;
 537              		.loc 1 158 11 view .LVU195
 538 01f8 139C     		ldr	r4, [sp, #76]
 539              	.LVL72:
 122:./Libraries/CMSIS/DSP/Source/FilteringFunctions/arm_conv_partial_fast_q31.c ****     blockSize2 = (blockSize2 > 0) ? blockSize2 : 0;
 540              		.loc 1 122 49 view .LVU196
 541 01fa 0A44     		add	r2, r2, r1
 136:./Libraries/CMSIS/DSP/Source/FilteringFunctions/arm_conv_partial_fast_q31.c **** 
 542              		.loc 1 136 10 view .LVU197
 543 01fc 1399     		ldr	r1, [sp, #76]
 544 01fe 03EB810C 		add	ip, r3, r1, lsl #2
 545              	.LVL73:
 158:./Libraries/CMSIS/DSP/Source/FilteringFunctions/arm_conv_partial_fast_q31.c ****     py = pSrc2;
 546              		.loc 1 158 11 view .LVU198
 547 0202 049B     		ldr	r3, [sp, #16]
 548              	.LVL74:
 152:./Libraries/CMSIS/DSP/Source/FilteringFunctions/arm_conv_partial_fast_q31.c **** 
 549              		.loc 1 152 11 view .LVU199
 550 0204 0131     		adds	r1, r1, #1
 158:./Libraries/CMSIS/DSP/Source/FilteringFunctions/arm_conv_partial_fast_q31.c ****     py = pSrc2;
 551              		.loc 1 158 11 view .LVU200
 552 0206 03EB840E 		add	lr, r3, r4, lsl #2
 122:./Libraries/CMSIS/DSP/Source/FilteringFunctions/arm_conv_partial_fast_q31.c ****     blockSize2 = (blockSize2 > 0) ? blockSize2 : 0;
ARM GAS  /tmp/ccHShaVx.s 			page 23


 553              		.loc 1 122 63 view .LVU201
 554 020a 1346     		mov	r3, r2
 555 020c 2344     		add	r3, r3, r4
 122:./Libraries/CMSIS/DSP/Source/FilteringFunctions/arm_conv_partial_fast_q31.c ****     blockSize2 = (blockSize2 > 0) ? blockSize2 : 0;
 556              		.loc 1 122 16 view .LVU202
 557 020e C01A     		subs	r0, r0, r3
 558              	.LVL75:
 123:./Libraries/CMSIS/DSP/Source/FilteringFunctions/arm_conv_partial_fast_q31.c **** 
 559              		.loc 1 123 5 is_stmt 1 view .LVU203
 123:./Libraries/CMSIS/DSP/Source/FilteringFunctions/arm_conv_partial_fast_q31.c **** 
 560              		.loc 1 123 16 is_stmt 0 view .LVU204
 561 0210 20EAE073 		bic	r3, r0, r0, asr #31
 562 0214 0593     		str	r3, [sp, #20]
 563              	.LVL76:
 136:./Libraries/CMSIS/DSP/Source/FilteringFunctions/arm_conv_partial_fast_q31.c **** 
 564              		.loc 1 136 5 is_stmt 1 view .LVU205
 152:./Libraries/CMSIS/DSP/Source/FilteringFunctions/arm_conv_partial_fast_q31.c **** 
 565              		.loc 1 152 5 view .LVU206
 155:./Libraries/CMSIS/DSP/Source/FilteringFunctions/arm_conv_partial_fast_q31.c **** 
 566              		.loc 1 155 5 view .LVU207
 158:./Libraries/CMSIS/DSP/Source/FilteringFunctions/arm_conv_partial_fast_q31.c ****     py = pSrc2;
 567              		.loc 1 158 5 view .LVU208
 159:./Libraries/CMSIS/DSP/Source/FilteringFunctions/arm_conv_partial_fast_q31.c **** 
 568              		.loc 1 159 5 view .LVU209
 166:./Libraries/CMSIS/DSP/Source/FilteringFunctions/arm_conv_partial_fast_q31.c ****     {
 569              		.loc 1 166 5 view .LVU210
 166:./Libraries/CMSIS/DSP/Source/FilteringFunctions/arm_conv_partial_fast_q31.c ****     {
 570              		.loc 1 166 11 view .LVU211
 571 0216 36E7     		b	.L8
 572              	.LVL77:
 573              	.L52:
 487:./Libraries/CMSIS/DSP/Source/FilteringFunctions/arm_conv_partial_fast_q31.c ****         {
 574              		.loc 1 487 15 is_stmt 0 view .LVU212
 575 0218 2046     		mov	r0, r4
 576 021a 93E7     		b	.L21
 577              	.LVL78:
 578              	.L53:
 582:./Libraries/CMSIS/DSP/Source/FilteringFunctions/arm_conv_partial_fast_q31.c ****       {
 579              		.loc 1 582 13 view .LVU213
 580 021c 3846     		mov	r0, r7
 581 021e D9E7     		b	.L25
 582              	.LVL79:
 583              	.L29:
 249:./Libraries/CMSIS/DSP/Source/FilteringFunctions/arm_conv_partial_fast_q31.c ****     }
 584              		.loc 1 249 13 view .LVU214
 585 0220 DDF80490 		ldr	r9, [sp, #4]
 586 0224 63E7     		b	.L14
 587              	.LVL80:
 588              	.L31:
 479:./Libraries/CMSIS/DSP/Source/FilteringFunctions/arm_conv_partial_fast_q31.c ****       {
 589              		.loc 1 479 13 view .LVU215
 590 0226 6546     		mov	r5, ip
 591 0228 B6E7     		b	.L16
 592              	.LVL81:
 593              	.L6:
 122:./Libraries/CMSIS/DSP/Source/FilteringFunctions/arm_conv_partial_fast_q31.c ****     blockSize2 = (blockSize2 > 0) ? blockSize2 : 0;
 594              		.loc 1 122 5 is_stmt 1 view .LVU216
ARM GAS  /tmp/ccHShaVx.s 			page 24


 122:./Libraries/CMSIS/DSP/Source/FilteringFunctions/arm_conv_partial_fast_q31.c ****     blockSize2 = (blockSize2 > 0) ? blockSize2 : 0;
 595              		.loc 1 122 63 is_stmt 0 view .LVU217
 596 022a 0299     		ldr	r1, [sp, #8]
 597 022c 139A     		ldr	r2, [sp, #76]
 598 022e 0A44     		add	r2, r2, r1
 136:./Libraries/CMSIS/DSP/Source/FilteringFunctions/arm_conv_partial_fast_q31.c **** 
 599              		.loc 1 136 10 view .LVU218
 600 0230 1399     		ldr	r1, [sp, #76]
 122:./Libraries/CMSIS/DSP/Source/FilteringFunctions/arm_conv_partial_fast_q31.c ****     blockSize2 = (blockSize2 > 0) ? blockSize2 : 0;
 601              		.loc 1 122 16 view .LVU219
 602 0232 801A     		subs	r0, r0, r2
 603              	.LVL82:
 123:./Libraries/CMSIS/DSP/Source/FilteringFunctions/arm_conv_partial_fast_q31.c **** 
 604              		.loc 1 123 5 is_stmt 1 view .LVU220
 136:./Libraries/CMSIS/DSP/Source/FilteringFunctions/arm_conv_partial_fast_q31.c **** 
 605              		.loc 1 136 10 is_stmt 0 view .LVU221
 606 0234 03EB810C 		add	ip, r3, r1, lsl #2
 607              	.LVL83:
 123:./Libraries/CMSIS/DSP/Source/FilteringFunctions/arm_conv_partial_fast_q31.c **** 
 608              		.loc 1 123 16 view .LVU222
 609 0238 20EAE073 		bic	r3, r0, r0, asr #31
 610              	.LVL84:
 123:./Libraries/CMSIS/DSP/Source/FilteringFunctions/arm_conv_partial_fast_q31.c **** 
 611              		.loc 1 123 16 view .LVU223
 612 023c 0593     		str	r3, [sp, #20]
 613              	.LVL85:
 136:./Libraries/CMSIS/DSP/Source/FilteringFunctions/arm_conv_partial_fast_q31.c **** 
 614              		.loc 1 136 5 is_stmt 1 view .LVU224
 152:./Libraries/CMSIS/DSP/Source/FilteringFunctions/arm_conv_partial_fast_q31.c **** 
 615              		.loc 1 152 5 view .LVU225
 155:./Libraries/CMSIS/DSP/Source/FilteringFunctions/arm_conv_partial_fast_q31.c **** 
 616              		.loc 1 155 5 view .LVU226
 158:./Libraries/CMSIS/DSP/Source/FilteringFunctions/arm_conv_partial_fast_q31.c ****     py = pSrc2;
 617              		.loc 1 158 5 view .LVU227
 159:./Libraries/CMSIS/DSP/Source/FilteringFunctions/arm_conv_partial_fast_q31.c **** 
 618              		.loc 1 159 5 view .LVU228
 166:./Libraries/CMSIS/DSP/Source/FilteringFunctions/arm_conv_partial_fast_q31.c ****     {
 619              		.loc 1 166 5 view .LVU229
 166:./Libraries/CMSIS/DSP/Source/FilteringFunctions/arm_conv_partial_fast_q31.c ****     {
 620              		.loc 1 166 11 view .LVU230
 621 023e 48E7     		b	.L9
 622              	.LVL86:
 623              	.L26:
  86:./Libraries/CMSIS/DSP/Source/FilteringFunctions/arm_conv_partial_fast_q31.c ****   }
 624              		.loc 1 86 12 is_stmt 0 view .LVU231
 625 0240 4FF0FF30 		mov	r0, #-1
 626              	.LVL87:
 612:./Libraries/CMSIS/DSP/Source/FilteringFunctions/arm_conv_partial_fast_q31.c **** 
 627              		.loc 1 612 3 is_stmt 1 view .LVU232
 612:./Libraries/CMSIS/DSP/Source/FilteringFunctions/arm_conv_partial_fast_q31.c **** 
 628              		.loc 1 612 10 is_stmt 0 view .LVU233
 629 0244 CEE7     		b	.L44
 630              		.cfi_endproc
 631              	.LFE145:
 633 0246 00BF     		.text
 634              	.Letext0:
 635              		.file 2 "/usr/lib/gcc/arm-none-eabi/9.2.1/include/stdint.h"
ARM GAS  /tmp/ccHShaVx.s 			page 25


 636              		.file 3 "/usr/lib/gcc/arm-none-eabi/9.2.1/include/stddef.h"
 637              		.file 4 "/usr/include/newlib/sys/_types.h"
 638              		.file 5 "/usr/include/newlib/sys/reent.h"
 639              		.file 6 "/usr/include/newlib/sys/lock.h"
 640              		.file 7 "/usr/include/newlib/math.h"
 641              		.file 8 "./Libraries/CMSIS/DSP/Include/arm_math.h"
ARM GAS  /tmp/ccHShaVx.s 			page 26

