ARM GAS  /tmp/ccqrTswI.s 			page 1


   1              		.cpu cortex-m7
   2              		.eabi_attribute 28, 1
   3              		.eabi_attribute 20, 1
   4              		.eabi_attribute 21, 1
   5              		.eabi_attribute 23, 3
   6              		.eabi_attribute 24, 1
   7              		.eabi_attribute 25, 1
   8              		.eabi_attribute 26, 1
   9              		.eabi_attribute 30, 2
  10              		.eabi_attribute 34, 1
  11              		.eabi_attribute 18, 4
  12              		.file	"arm_fir_q7.c"
  13              		.text
  14              	.Ltext0:
  15              		.cfi_sections	.debug_frame
  16              		.section	.text.arm_fir_q7,"ax",%progbits
  17              		.align	1
  18              		.p2align 2,,3
  19              		.global	arm_fir_q7
  20              		.arch armv7e-m
  21              		.syntax unified
  22              		.thumb
  23              		.thumb_func
  24              		.fpu fpv5-d16
  26              	arm_fir_q7:
  27              	.LVL0:
  28              	.LFB145:
  29              		.file 1 "./Libraries/CMSIS/DSP/Source/FilteringFunctions/arm_fir_q7.c"
   1:./Libraries/CMSIS/DSP/Source/FilteringFunctions/arm_fir_q7.c **** /* ----------------------------------------------------------------------
   2:./Libraries/CMSIS/DSP/Source/FilteringFunctions/arm_fir_q7.c ****  * Project:      CMSIS DSP Library
   3:./Libraries/CMSIS/DSP/Source/FilteringFunctions/arm_fir_q7.c ****  * Title:        arm_fir_q7.c
   4:./Libraries/CMSIS/DSP/Source/FilteringFunctions/arm_fir_q7.c ****  * Description:  Q7 FIR filter processing function
   5:./Libraries/CMSIS/DSP/Source/FilteringFunctions/arm_fir_q7.c ****  *
   6:./Libraries/CMSIS/DSP/Source/FilteringFunctions/arm_fir_q7.c ****  * $Date:        18. March 2019
   7:./Libraries/CMSIS/DSP/Source/FilteringFunctions/arm_fir_q7.c ****  * $Revision:    V1.6.0
   8:./Libraries/CMSIS/DSP/Source/FilteringFunctions/arm_fir_q7.c ****  *
   9:./Libraries/CMSIS/DSP/Source/FilteringFunctions/arm_fir_q7.c ****  * Target Processor: Cortex-M cores
  10:./Libraries/CMSIS/DSP/Source/FilteringFunctions/arm_fir_q7.c ****  * -------------------------------------------------------------------- */
  11:./Libraries/CMSIS/DSP/Source/FilteringFunctions/arm_fir_q7.c **** /*
  12:./Libraries/CMSIS/DSP/Source/FilteringFunctions/arm_fir_q7.c ****  * Copyright (C) 2010-2019 ARM Limited or its affiliates. All rights reserved.
  13:./Libraries/CMSIS/DSP/Source/FilteringFunctions/arm_fir_q7.c ****  *
  14:./Libraries/CMSIS/DSP/Source/FilteringFunctions/arm_fir_q7.c ****  * SPDX-License-Identifier: Apache-2.0
  15:./Libraries/CMSIS/DSP/Source/FilteringFunctions/arm_fir_q7.c ****  *
  16:./Libraries/CMSIS/DSP/Source/FilteringFunctions/arm_fir_q7.c ****  * Licensed under the Apache License, Version 2.0 (the License); you may
  17:./Libraries/CMSIS/DSP/Source/FilteringFunctions/arm_fir_q7.c ****  * not use this file except in compliance with the License.
  18:./Libraries/CMSIS/DSP/Source/FilteringFunctions/arm_fir_q7.c ****  * You may obtain a copy of the License at
  19:./Libraries/CMSIS/DSP/Source/FilteringFunctions/arm_fir_q7.c ****  *
  20:./Libraries/CMSIS/DSP/Source/FilteringFunctions/arm_fir_q7.c ****  * www.apache.org/licenses/LICENSE-2.0
  21:./Libraries/CMSIS/DSP/Source/FilteringFunctions/arm_fir_q7.c ****  *
  22:./Libraries/CMSIS/DSP/Source/FilteringFunctions/arm_fir_q7.c ****  * Unless required by applicable law or agreed to in writing, software
  23:./Libraries/CMSIS/DSP/Source/FilteringFunctions/arm_fir_q7.c ****  * distributed under the License is distributed on an AS IS BASIS, WITHOUT
  24:./Libraries/CMSIS/DSP/Source/FilteringFunctions/arm_fir_q7.c ****  * WARRANTIES OR CONDITIONS OF ANY KIND, either express or implied.
  25:./Libraries/CMSIS/DSP/Source/FilteringFunctions/arm_fir_q7.c ****  * See the License for the specific language governing permissions and
  26:./Libraries/CMSIS/DSP/Source/FilteringFunctions/arm_fir_q7.c ****  * limitations under the License.
  27:./Libraries/CMSIS/DSP/Source/FilteringFunctions/arm_fir_q7.c ****  */
  28:./Libraries/CMSIS/DSP/Source/FilteringFunctions/arm_fir_q7.c **** 
  29:./Libraries/CMSIS/DSP/Source/FilteringFunctions/arm_fir_q7.c **** #include "arm_math.h"
ARM GAS  /tmp/ccqrTswI.s 			page 2


  30:./Libraries/CMSIS/DSP/Source/FilteringFunctions/arm_fir_q7.c **** 
  31:./Libraries/CMSIS/DSP/Source/FilteringFunctions/arm_fir_q7.c **** /**
  32:./Libraries/CMSIS/DSP/Source/FilteringFunctions/arm_fir_q7.c ****   @ingroup groupFilters
  33:./Libraries/CMSIS/DSP/Source/FilteringFunctions/arm_fir_q7.c ****  */
  34:./Libraries/CMSIS/DSP/Source/FilteringFunctions/arm_fir_q7.c **** 
  35:./Libraries/CMSIS/DSP/Source/FilteringFunctions/arm_fir_q7.c **** /**
  36:./Libraries/CMSIS/DSP/Source/FilteringFunctions/arm_fir_q7.c ****   @addtogroup FIR
  37:./Libraries/CMSIS/DSP/Source/FilteringFunctions/arm_fir_q7.c ****   @{
  38:./Libraries/CMSIS/DSP/Source/FilteringFunctions/arm_fir_q7.c ****  */
  39:./Libraries/CMSIS/DSP/Source/FilteringFunctions/arm_fir_q7.c **** 
  40:./Libraries/CMSIS/DSP/Source/FilteringFunctions/arm_fir_q7.c **** /**
  41:./Libraries/CMSIS/DSP/Source/FilteringFunctions/arm_fir_q7.c ****   @brief         Processing function for Q7 FIR filter.
  42:./Libraries/CMSIS/DSP/Source/FilteringFunctions/arm_fir_q7.c ****   @param[in]     S          points to an instance of the Q7 FIR filter structure
  43:./Libraries/CMSIS/DSP/Source/FilteringFunctions/arm_fir_q7.c ****   @param[in]     pSrc       points to the block of input data
  44:./Libraries/CMSIS/DSP/Source/FilteringFunctions/arm_fir_q7.c ****   @param[out]    pDst       points to the block of output data
  45:./Libraries/CMSIS/DSP/Source/FilteringFunctions/arm_fir_q7.c ****   @param[in]     blockSize  number of samples to process
  46:./Libraries/CMSIS/DSP/Source/FilteringFunctions/arm_fir_q7.c ****   @return        none
  47:./Libraries/CMSIS/DSP/Source/FilteringFunctions/arm_fir_q7.c **** 
  48:./Libraries/CMSIS/DSP/Source/FilteringFunctions/arm_fir_q7.c ****   @par           Scaling and Overflow Behavior
  49:./Libraries/CMSIS/DSP/Source/FilteringFunctions/arm_fir_q7.c ****                    The function is implemented using a 32-bit internal accumulator.
  50:./Libraries/CMSIS/DSP/Source/FilteringFunctions/arm_fir_q7.c ****                    Both coefficients and state variables are represented in 1.7 format and multipli
  51:./Libraries/CMSIS/DSP/Source/FilteringFunctions/arm_fir_q7.c ****                    The 2.14 intermediate results are accumulated in a 32-bit accumulator in 18.14 f
  52:./Libraries/CMSIS/DSP/Source/FilteringFunctions/arm_fir_q7.c ****                    There is no risk of internal overflow with this approach and the full precision 
  53:./Libraries/CMSIS/DSP/Source/FilteringFunctions/arm_fir_q7.c ****                    The accumulator is converted to 18.7 format by discarding the low 7 bits.
  54:./Libraries/CMSIS/DSP/Source/FilteringFunctions/arm_fir_q7.c ****                    Finally, the result is truncated to 1.7 format.
  55:./Libraries/CMSIS/DSP/Source/FilteringFunctions/arm_fir_q7.c ****  */
  56:./Libraries/CMSIS/DSP/Source/FilteringFunctions/arm_fir_q7.c **** 
  57:./Libraries/CMSIS/DSP/Source/FilteringFunctions/arm_fir_q7.c **** void arm_fir_q7(
  58:./Libraries/CMSIS/DSP/Source/FilteringFunctions/arm_fir_q7.c ****   const arm_fir_instance_q7 * S,
  59:./Libraries/CMSIS/DSP/Source/FilteringFunctions/arm_fir_q7.c ****   const q7_t * pSrc,
  60:./Libraries/CMSIS/DSP/Source/FilteringFunctions/arm_fir_q7.c ****         q7_t * pDst,
  61:./Libraries/CMSIS/DSP/Source/FilteringFunctions/arm_fir_q7.c ****         uint32_t blockSize)
  62:./Libraries/CMSIS/DSP/Source/FilteringFunctions/arm_fir_q7.c **** {
  30              		.loc 1 62 1 view -0
  31              		.cfi_startproc
  32              		@ args = 0, pretend = 0, frame = 8
  33              		@ frame_needed = 0, uses_anonymous_args = 0
  63:./Libraries/CMSIS/DSP/Source/FilteringFunctions/arm_fir_q7.c ****         q7_t *pState = S->pState;                      /* State pointer */
  34              		.loc 1 63 9 view .LVU1
  64:./Libraries/CMSIS/DSP/Source/FilteringFunctions/arm_fir_q7.c ****   const q7_t *pCoeffs = S->pCoeffs;                    /* Coefficient pointer */
  65:./Libraries/CMSIS/DSP/Source/FilteringFunctions/arm_fir_q7.c ****         q7_t *pStateCurnt;                             /* Points to the current sample of the state
  66:./Libraries/CMSIS/DSP/Source/FilteringFunctions/arm_fir_q7.c ****         q7_t *px;                                      /* Temporary pointer for state buffer */
  67:./Libraries/CMSIS/DSP/Source/FilteringFunctions/arm_fir_q7.c ****   const q7_t *pb;                                      /* Temporary pointer for coefficient buffer 
  68:./Libraries/CMSIS/DSP/Source/FilteringFunctions/arm_fir_q7.c ****         q31_t acc0;                                    /* Accumulators */
  69:./Libraries/CMSIS/DSP/Source/FilteringFunctions/arm_fir_q7.c ****         uint32_t numTaps = S->numTaps;                 /* Number of filter coefficients in the filt
  35              		.loc 1 69 18 is_stmt 0 view .LVU2
  36 0000 B0F800C0 		ldrh	ip, [r0]
  62:./Libraries/CMSIS/DSP/Source/FilteringFunctions/arm_fir_q7.c ****         q7_t *pState = S->pState;                      /* State pointer */
  37              		.loc 1 62 1 view .LVU3
  38 0004 2DE9F04F 		push	{r4, r5, r6, r7, r8, r9, r10, fp, lr}
  39              	.LCFI0:
  40              		.cfi_def_cfa_offset 36
  41              		.cfi_offset 4, -36
  42              		.cfi_offset 5, -32
  43              		.cfi_offset 6, -28
  44              		.cfi_offset 7, -24
  45              		.cfi_offset 8, -20
ARM GAS  /tmp/ccqrTswI.s 			page 3


  46              		.cfi_offset 9, -16
  47              		.cfi_offset 10, -12
  48              		.cfi_offset 11, -8
  49              		.cfi_offset 14, -4
  70:./Libraries/CMSIS/DSP/Source/FilteringFunctions/arm_fir_q7.c ****         uint32_t i, tapCnt, blkCnt;                    /* Loop counters */
  71:./Libraries/CMSIS/DSP/Source/FilteringFunctions/arm_fir_q7.c **** 
  72:./Libraries/CMSIS/DSP/Source/FilteringFunctions/arm_fir_q7.c **** #if defined (ARM_MATH_LOOPUNROLL)
  73:./Libraries/CMSIS/DSP/Source/FilteringFunctions/arm_fir_q7.c ****         q31_t acc1, acc2, acc3;                        /* Accumulators */
  74:./Libraries/CMSIS/DSP/Source/FilteringFunctions/arm_fir_q7.c ****         q7_t x0, x1, x2, x3, c0;                       /* Temporary variables to hold state */
  75:./Libraries/CMSIS/DSP/Source/FilteringFunctions/arm_fir_q7.c **** #endif
  76:./Libraries/CMSIS/DSP/Source/FilteringFunctions/arm_fir_q7.c **** 
  77:./Libraries/CMSIS/DSP/Source/FilteringFunctions/arm_fir_q7.c ****   /* S->pState points to state array which contains previous frame (numTaps - 1) samples */
  78:./Libraries/CMSIS/DSP/Source/FilteringFunctions/arm_fir_q7.c ****   /* pStateCurnt points to the location where the new input data should be written */
  79:./Libraries/CMSIS/DSP/Source/FilteringFunctions/arm_fir_q7.c ****   pStateCurnt = &(S->pState[(numTaps - 1U)]);
  50              		.loc 1 79 28 view .LVU4
  51 0008 0CF1FF34 		add	r4, ip, #-1
  62:./Libraries/CMSIS/DSP/Source/FilteringFunctions/arm_fir_q7.c ****         q7_t *pState = S->pState;                      /* State pointer */
  52              		.loc 1 62 1 view .LVU5
  53 000c 83B0     		sub	sp, sp, #12
  54              	.LCFI1:
  55              		.cfi_def_cfa_offset 48
  63:./Libraries/CMSIS/DSP/Source/FilteringFunctions/arm_fir_q7.c ****   const q7_t *pCoeffs = S->pCoeffs;                    /* Coefficient pointer */
  56              		.loc 1 63 15 view .LVU6
  57 000e D0F804E0 		ldr	lr, [r0, #4]
  58              	.LVL1:
  64:./Libraries/CMSIS/DSP/Source/FilteringFunctions/arm_fir_q7.c ****         q7_t *pStateCurnt;                             /* Points to the current sample of the state
  59              		.loc 1 64 3 is_stmt 1 view .LVU7
  64:./Libraries/CMSIS/DSP/Source/FilteringFunctions/arm_fir_q7.c ****         q7_t *pStateCurnt;                             /* Points to the current sample of the state
  60              		.loc 1 64 15 is_stmt 0 view .LVU8
  61 0012 D0F808A0 		ldr	r10, [r0, #8]
  62              	.LVL2:
  65:./Libraries/CMSIS/DSP/Source/FilteringFunctions/arm_fir_q7.c ****         q7_t *px;                                      /* Temporary pointer for state buffer */
  63              		.loc 1 65 9 is_stmt 1 view .LVU9
  66:./Libraries/CMSIS/DSP/Source/FilteringFunctions/arm_fir_q7.c ****   const q7_t *pb;                                      /* Temporary pointer for coefficient buffer 
  64              		.loc 1 66 9 view .LVU10
  67:./Libraries/CMSIS/DSP/Source/FilteringFunctions/arm_fir_q7.c ****         q31_t acc0;                                    /* Accumulators */
  65              		.loc 1 67 3 view .LVU11
  68:./Libraries/CMSIS/DSP/Source/FilteringFunctions/arm_fir_q7.c ****         uint32_t numTaps = S->numTaps;                 /* Number of filter coefficients in the filt
  66              		.loc 1 68 9 view .LVU12
  69:./Libraries/CMSIS/DSP/Source/FilteringFunctions/arm_fir_q7.c ****         uint32_t i, tapCnt, blkCnt;                    /* Loop counters */
  67              		.loc 1 69 9 view .LVU13
  70:./Libraries/CMSIS/DSP/Source/FilteringFunctions/arm_fir_q7.c **** 
  68              		.loc 1 70 9 view .LVU14
  69              		.loc 1 79 3 view .LVU15
  80:./Libraries/CMSIS/DSP/Source/FilteringFunctions/arm_fir_q7.c **** 
  81:./Libraries/CMSIS/DSP/Source/FilteringFunctions/arm_fir_q7.c **** #if defined (ARM_MATH_LOOPUNROLL)
  82:./Libraries/CMSIS/DSP/Source/FilteringFunctions/arm_fir_q7.c **** 
  83:./Libraries/CMSIS/DSP/Source/FilteringFunctions/arm_fir_q7.c ****   /* Loop unrolling: Compute 4 output values simultaneously.
  84:./Libraries/CMSIS/DSP/Source/FilteringFunctions/arm_fir_q7.c ****    * The variables acc0 ... acc3 hold output values that are being computed:
  85:./Libraries/CMSIS/DSP/Source/FilteringFunctions/arm_fir_q7.c ****    *
  86:./Libraries/CMSIS/DSP/Source/FilteringFunctions/arm_fir_q7.c ****    *    acc0 =  b[numTaps-1] * x[n-numTaps-1] + b[numTaps-2] * x[n-numTaps-2] + b[numTaps-3] * x[n-
  87:./Libraries/CMSIS/DSP/Source/FilteringFunctions/arm_fir_q7.c ****    *    acc1 =  b[numTaps-1] * x[n-numTaps]   + b[numTaps-2] * x[n-numTaps-1] + b[numTaps-3] * x[n-
  88:./Libraries/CMSIS/DSP/Source/FilteringFunctions/arm_fir_q7.c ****    *    acc2 =  b[numTaps-1] * x[n-numTaps+1] + b[numTaps-2] * x[n-numTaps]   + b[numTaps-3] * x[n-
  89:./Libraries/CMSIS/DSP/Source/FilteringFunctions/arm_fir_q7.c ****    *    acc3 =  b[numTaps-1] * x[n-numTaps+2] + b[numTaps-2] * x[n-numTaps+1] + b[numTaps-3] * x[n-
  90:./Libraries/CMSIS/DSP/Source/FilteringFunctions/arm_fir_q7.c ****    */
  91:./Libraries/CMSIS/DSP/Source/FilteringFunctions/arm_fir_q7.c ****   blkCnt = blockSize >> 2U;
  92:./Libraries/CMSIS/DSP/Source/FilteringFunctions/arm_fir_q7.c **** 
ARM GAS  /tmp/ccqrTswI.s 			page 4


  93:./Libraries/CMSIS/DSP/Source/FilteringFunctions/arm_fir_q7.c ****   while (blkCnt > 0U)
  94:./Libraries/CMSIS/DSP/Source/FilteringFunctions/arm_fir_q7.c ****   {
  95:./Libraries/CMSIS/DSP/Source/FilteringFunctions/arm_fir_q7.c ****     /* Copy 4 new input samples into the state buffer. */
  96:./Libraries/CMSIS/DSP/Source/FilteringFunctions/arm_fir_q7.c ****     *pStateCurnt++ = *pSrc++;
  97:./Libraries/CMSIS/DSP/Source/FilteringFunctions/arm_fir_q7.c ****     *pStateCurnt++ = *pSrc++;
  98:./Libraries/CMSIS/DSP/Source/FilteringFunctions/arm_fir_q7.c ****     *pStateCurnt++ = *pSrc++;
  99:./Libraries/CMSIS/DSP/Source/FilteringFunctions/arm_fir_q7.c ****     *pStateCurnt++ = *pSrc++;
 100:./Libraries/CMSIS/DSP/Source/FilteringFunctions/arm_fir_q7.c **** 
 101:./Libraries/CMSIS/DSP/Source/FilteringFunctions/arm_fir_q7.c ****     /* Set all accumulators to zero */
 102:./Libraries/CMSIS/DSP/Source/FilteringFunctions/arm_fir_q7.c ****     acc0 = 0;
 103:./Libraries/CMSIS/DSP/Source/FilteringFunctions/arm_fir_q7.c ****     acc1 = 0;
 104:./Libraries/CMSIS/DSP/Source/FilteringFunctions/arm_fir_q7.c ****     acc2 = 0;
 105:./Libraries/CMSIS/DSP/Source/FilteringFunctions/arm_fir_q7.c ****     acc3 = 0;
 106:./Libraries/CMSIS/DSP/Source/FilteringFunctions/arm_fir_q7.c **** 
 107:./Libraries/CMSIS/DSP/Source/FilteringFunctions/arm_fir_q7.c ****     /* Initialize state pointer */
 108:./Libraries/CMSIS/DSP/Source/FilteringFunctions/arm_fir_q7.c ****     px = pState;
 109:./Libraries/CMSIS/DSP/Source/FilteringFunctions/arm_fir_q7.c **** 
 110:./Libraries/CMSIS/DSP/Source/FilteringFunctions/arm_fir_q7.c ****     /* Initialize coefficient pointer */
 111:./Libraries/CMSIS/DSP/Source/FilteringFunctions/arm_fir_q7.c ****     pb = pCoeffs;
 112:./Libraries/CMSIS/DSP/Source/FilteringFunctions/arm_fir_q7.c **** 
 113:./Libraries/CMSIS/DSP/Source/FilteringFunctions/arm_fir_q7.c ****     /* Read the first 3 samples from the state buffer:
 114:./Libraries/CMSIS/DSP/Source/FilteringFunctions/arm_fir_q7.c ****      *  x[n-numTaps], x[n-numTaps-1], x[n-numTaps-2] */
 115:./Libraries/CMSIS/DSP/Source/FilteringFunctions/arm_fir_q7.c ****     x0 = *px++;
 116:./Libraries/CMSIS/DSP/Source/FilteringFunctions/arm_fir_q7.c ****     x1 = *px++;
 117:./Libraries/CMSIS/DSP/Source/FilteringFunctions/arm_fir_q7.c ****     x2 = *px++;
 118:./Libraries/CMSIS/DSP/Source/FilteringFunctions/arm_fir_q7.c **** 
 119:./Libraries/CMSIS/DSP/Source/FilteringFunctions/arm_fir_q7.c ****     /* Loop unrolling. Process 4 taps at a time. */
 120:./Libraries/CMSIS/DSP/Source/FilteringFunctions/arm_fir_q7.c ****     tapCnt = numTaps >> 2U;
 121:./Libraries/CMSIS/DSP/Source/FilteringFunctions/arm_fir_q7.c **** 
 122:./Libraries/CMSIS/DSP/Source/FilteringFunctions/arm_fir_q7.c ****     /* Loop over the number of taps.  Unroll by a factor of 4.
 123:./Libraries/CMSIS/DSP/Source/FilteringFunctions/arm_fir_q7.c ****        Repeat until we've computed numTaps-4 coefficients. */
 124:./Libraries/CMSIS/DSP/Source/FilteringFunctions/arm_fir_q7.c ****     while (tapCnt > 0U)
 125:./Libraries/CMSIS/DSP/Source/FilteringFunctions/arm_fir_q7.c ****     {
 126:./Libraries/CMSIS/DSP/Source/FilteringFunctions/arm_fir_q7.c ****       /* Read the b[numTaps] coefficient */
 127:./Libraries/CMSIS/DSP/Source/FilteringFunctions/arm_fir_q7.c ****       c0 = *pb;
 128:./Libraries/CMSIS/DSP/Source/FilteringFunctions/arm_fir_q7.c **** 
 129:./Libraries/CMSIS/DSP/Source/FilteringFunctions/arm_fir_q7.c ****       /* Read x[n-numTaps-3] sample */
 130:./Libraries/CMSIS/DSP/Source/FilteringFunctions/arm_fir_q7.c ****       x3 = *px;
 131:./Libraries/CMSIS/DSP/Source/FilteringFunctions/arm_fir_q7.c **** 
 132:./Libraries/CMSIS/DSP/Source/FilteringFunctions/arm_fir_q7.c ****       /* acc0 +=  b[numTaps] * x[n-numTaps] */
 133:./Libraries/CMSIS/DSP/Source/FilteringFunctions/arm_fir_q7.c ****       acc0 += ((q15_t) x0 * c0);
 134:./Libraries/CMSIS/DSP/Source/FilteringFunctions/arm_fir_q7.c **** 
 135:./Libraries/CMSIS/DSP/Source/FilteringFunctions/arm_fir_q7.c ****       /* acc1 +=  b[numTaps] * x[n-numTaps-1] */
 136:./Libraries/CMSIS/DSP/Source/FilteringFunctions/arm_fir_q7.c ****       acc1 += ((q15_t) x1 * c0);
 137:./Libraries/CMSIS/DSP/Source/FilteringFunctions/arm_fir_q7.c **** 
 138:./Libraries/CMSIS/DSP/Source/FilteringFunctions/arm_fir_q7.c ****       /* acc2 +=  b[numTaps] * x[n-numTaps-2] */
 139:./Libraries/CMSIS/DSP/Source/FilteringFunctions/arm_fir_q7.c ****       acc2 += ((q15_t) x2 * c0);
 140:./Libraries/CMSIS/DSP/Source/FilteringFunctions/arm_fir_q7.c **** 
 141:./Libraries/CMSIS/DSP/Source/FilteringFunctions/arm_fir_q7.c ****       /* acc3 +=  b[numTaps] * x[n-numTaps-3] */
 142:./Libraries/CMSIS/DSP/Source/FilteringFunctions/arm_fir_q7.c ****       acc3 += ((q15_t) x3 * c0);
 143:./Libraries/CMSIS/DSP/Source/FilteringFunctions/arm_fir_q7.c **** 
 144:./Libraries/CMSIS/DSP/Source/FilteringFunctions/arm_fir_q7.c ****       /* Read the b[numTaps-1] coefficient */
 145:./Libraries/CMSIS/DSP/Source/FilteringFunctions/arm_fir_q7.c ****       c0 = *(pb + 1U);
 146:./Libraries/CMSIS/DSP/Source/FilteringFunctions/arm_fir_q7.c **** 
 147:./Libraries/CMSIS/DSP/Source/FilteringFunctions/arm_fir_q7.c ****       /* Read x[n-numTaps-4] sample */
 148:./Libraries/CMSIS/DSP/Source/FilteringFunctions/arm_fir_q7.c ****       x0 = *(px + 1U);
 149:./Libraries/CMSIS/DSP/Source/FilteringFunctions/arm_fir_q7.c **** 
ARM GAS  /tmp/ccqrTswI.s 			page 5


 150:./Libraries/CMSIS/DSP/Source/FilteringFunctions/arm_fir_q7.c ****       /* Perform the multiply-accumulates */
 151:./Libraries/CMSIS/DSP/Source/FilteringFunctions/arm_fir_q7.c ****       acc0 += ((q15_t) x1 * c0);
 152:./Libraries/CMSIS/DSP/Source/FilteringFunctions/arm_fir_q7.c ****       acc1 += ((q15_t) x2 * c0);
 153:./Libraries/CMSIS/DSP/Source/FilteringFunctions/arm_fir_q7.c ****       acc2 += ((q15_t) x3 * c0);
 154:./Libraries/CMSIS/DSP/Source/FilteringFunctions/arm_fir_q7.c ****       acc3 += ((q15_t) x0 * c0);
 155:./Libraries/CMSIS/DSP/Source/FilteringFunctions/arm_fir_q7.c **** 
 156:./Libraries/CMSIS/DSP/Source/FilteringFunctions/arm_fir_q7.c ****       /* Read the b[numTaps-2] coefficient */
 157:./Libraries/CMSIS/DSP/Source/FilteringFunctions/arm_fir_q7.c ****       c0 = *(pb + 2U);
 158:./Libraries/CMSIS/DSP/Source/FilteringFunctions/arm_fir_q7.c **** 
 159:./Libraries/CMSIS/DSP/Source/FilteringFunctions/arm_fir_q7.c ****       /* Read x[n-numTaps-5] sample */
 160:./Libraries/CMSIS/DSP/Source/FilteringFunctions/arm_fir_q7.c ****       x1 = *(px + 2U);
 161:./Libraries/CMSIS/DSP/Source/FilteringFunctions/arm_fir_q7.c **** 
 162:./Libraries/CMSIS/DSP/Source/FilteringFunctions/arm_fir_q7.c ****       /* Perform the multiply-accumulates */
 163:./Libraries/CMSIS/DSP/Source/FilteringFunctions/arm_fir_q7.c ****       acc0 += ((q15_t) x2 * c0);
 164:./Libraries/CMSIS/DSP/Source/FilteringFunctions/arm_fir_q7.c ****       acc1 += ((q15_t) x3 * c0);
 165:./Libraries/CMSIS/DSP/Source/FilteringFunctions/arm_fir_q7.c ****       acc2 += ((q15_t) x0 * c0);
 166:./Libraries/CMSIS/DSP/Source/FilteringFunctions/arm_fir_q7.c ****       acc3 += ((q15_t) x1 * c0);
 167:./Libraries/CMSIS/DSP/Source/FilteringFunctions/arm_fir_q7.c **** 
 168:./Libraries/CMSIS/DSP/Source/FilteringFunctions/arm_fir_q7.c ****       /* Read the b[numTaps-3] coefficients */
 169:./Libraries/CMSIS/DSP/Source/FilteringFunctions/arm_fir_q7.c ****       c0 = *(pb + 3U);
 170:./Libraries/CMSIS/DSP/Source/FilteringFunctions/arm_fir_q7.c **** 
 171:./Libraries/CMSIS/DSP/Source/FilteringFunctions/arm_fir_q7.c ****       /* Read x[n-numTaps-6] sample */
 172:./Libraries/CMSIS/DSP/Source/FilteringFunctions/arm_fir_q7.c ****       x2 = *(px + 3U);
 173:./Libraries/CMSIS/DSP/Source/FilteringFunctions/arm_fir_q7.c **** 
 174:./Libraries/CMSIS/DSP/Source/FilteringFunctions/arm_fir_q7.c ****       /* Perform the multiply-accumulates */
 175:./Libraries/CMSIS/DSP/Source/FilteringFunctions/arm_fir_q7.c ****       acc0 += ((q15_t) x3 * c0);
 176:./Libraries/CMSIS/DSP/Source/FilteringFunctions/arm_fir_q7.c ****       acc1 += ((q15_t) x0 * c0);
 177:./Libraries/CMSIS/DSP/Source/FilteringFunctions/arm_fir_q7.c ****       acc2 += ((q15_t) x1 * c0);
 178:./Libraries/CMSIS/DSP/Source/FilteringFunctions/arm_fir_q7.c ****       acc3 += ((q15_t) x2 * c0);
 179:./Libraries/CMSIS/DSP/Source/FilteringFunctions/arm_fir_q7.c **** 
 180:./Libraries/CMSIS/DSP/Source/FilteringFunctions/arm_fir_q7.c ****       /* update coefficient pointer */
 181:./Libraries/CMSIS/DSP/Source/FilteringFunctions/arm_fir_q7.c ****       pb += 4U;
 182:./Libraries/CMSIS/DSP/Source/FilteringFunctions/arm_fir_q7.c ****       px += 4U;
 183:./Libraries/CMSIS/DSP/Source/FilteringFunctions/arm_fir_q7.c **** 
 184:./Libraries/CMSIS/DSP/Source/FilteringFunctions/arm_fir_q7.c ****       /* Decrement loop counter */
 185:./Libraries/CMSIS/DSP/Source/FilteringFunctions/arm_fir_q7.c ****       tapCnt--;
 186:./Libraries/CMSIS/DSP/Source/FilteringFunctions/arm_fir_q7.c ****     }
 187:./Libraries/CMSIS/DSP/Source/FilteringFunctions/arm_fir_q7.c **** 
 188:./Libraries/CMSIS/DSP/Source/FilteringFunctions/arm_fir_q7.c ****     /* If the filter length is not a multiple of 4, compute the remaining filter taps */
 189:./Libraries/CMSIS/DSP/Source/FilteringFunctions/arm_fir_q7.c ****     tapCnt = numTaps % 0x4U;
 190:./Libraries/CMSIS/DSP/Source/FilteringFunctions/arm_fir_q7.c **** 
 191:./Libraries/CMSIS/DSP/Source/FilteringFunctions/arm_fir_q7.c ****     while (tapCnt > 0U)
 192:./Libraries/CMSIS/DSP/Source/FilteringFunctions/arm_fir_q7.c ****     {
 193:./Libraries/CMSIS/DSP/Source/FilteringFunctions/arm_fir_q7.c ****       /* Read coefficients */
 194:./Libraries/CMSIS/DSP/Source/FilteringFunctions/arm_fir_q7.c ****       c0 = *(pb++);
 195:./Libraries/CMSIS/DSP/Source/FilteringFunctions/arm_fir_q7.c **** 
 196:./Libraries/CMSIS/DSP/Source/FilteringFunctions/arm_fir_q7.c ****       /* Fetch 1 state variable */
 197:./Libraries/CMSIS/DSP/Source/FilteringFunctions/arm_fir_q7.c ****       x3 = *(px++);
 198:./Libraries/CMSIS/DSP/Source/FilteringFunctions/arm_fir_q7.c **** 
 199:./Libraries/CMSIS/DSP/Source/FilteringFunctions/arm_fir_q7.c ****       /* Perform the multiply-accumulates */
 200:./Libraries/CMSIS/DSP/Source/FilteringFunctions/arm_fir_q7.c ****       acc0 += ((q15_t) x0 * c0);
 201:./Libraries/CMSIS/DSP/Source/FilteringFunctions/arm_fir_q7.c ****       acc1 += ((q15_t) x1 * c0);
 202:./Libraries/CMSIS/DSP/Source/FilteringFunctions/arm_fir_q7.c ****       acc2 += ((q15_t) x2 * c0);
 203:./Libraries/CMSIS/DSP/Source/FilteringFunctions/arm_fir_q7.c ****       acc3 += ((q15_t) x3 * c0);
 204:./Libraries/CMSIS/DSP/Source/FilteringFunctions/arm_fir_q7.c **** 
 205:./Libraries/CMSIS/DSP/Source/FilteringFunctions/arm_fir_q7.c ****       /* Reuse the present sample states for next sample */
 206:./Libraries/CMSIS/DSP/Source/FilteringFunctions/arm_fir_q7.c ****       x0 = x1;
ARM GAS  /tmp/ccqrTswI.s 			page 6


 207:./Libraries/CMSIS/DSP/Source/FilteringFunctions/arm_fir_q7.c ****       x1 = x2;
 208:./Libraries/CMSIS/DSP/Source/FilteringFunctions/arm_fir_q7.c ****       x2 = x3;
 209:./Libraries/CMSIS/DSP/Source/FilteringFunctions/arm_fir_q7.c **** 
 210:./Libraries/CMSIS/DSP/Source/FilteringFunctions/arm_fir_q7.c ****       /* Decrement loop counter */
 211:./Libraries/CMSIS/DSP/Source/FilteringFunctions/arm_fir_q7.c ****       tapCnt--;
 212:./Libraries/CMSIS/DSP/Source/FilteringFunctions/arm_fir_q7.c ****     }
 213:./Libraries/CMSIS/DSP/Source/FilteringFunctions/arm_fir_q7.c **** 
 214:./Libraries/CMSIS/DSP/Source/FilteringFunctions/arm_fir_q7.c ****     /* The results in the 4 accumulators are in 2.62 format. Convert to 1.31
 215:./Libraries/CMSIS/DSP/Source/FilteringFunctions/arm_fir_q7.c ****        Then store the 4 outputs in the destination buffer. */
 216:./Libraries/CMSIS/DSP/Source/FilteringFunctions/arm_fir_q7.c ****     acc0 = __SSAT((acc0 >> 7U), 8);
 217:./Libraries/CMSIS/DSP/Source/FilteringFunctions/arm_fir_q7.c ****     *pDst++ = acc0;
 218:./Libraries/CMSIS/DSP/Source/FilteringFunctions/arm_fir_q7.c ****     acc1 = __SSAT((acc1 >> 7U), 8);
 219:./Libraries/CMSIS/DSP/Source/FilteringFunctions/arm_fir_q7.c ****     *pDst++ = acc1;
 220:./Libraries/CMSIS/DSP/Source/FilteringFunctions/arm_fir_q7.c ****     acc2 = __SSAT((acc2 >> 7U), 8);
 221:./Libraries/CMSIS/DSP/Source/FilteringFunctions/arm_fir_q7.c ****     *pDst++ = acc2;
 222:./Libraries/CMSIS/DSP/Source/FilteringFunctions/arm_fir_q7.c ****     acc3 = __SSAT((acc3 >> 7U), 8);
 223:./Libraries/CMSIS/DSP/Source/FilteringFunctions/arm_fir_q7.c ****     *pDst++ = acc3;
 224:./Libraries/CMSIS/DSP/Source/FilteringFunctions/arm_fir_q7.c **** 
 225:./Libraries/CMSIS/DSP/Source/FilteringFunctions/arm_fir_q7.c ****     /* Advance the state pointer by 4 to process the next group of 4 samples */
 226:./Libraries/CMSIS/DSP/Source/FilteringFunctions/arm_fir_q7.c ****     pState = pState + 4U;
 227:./Libraries/CMSIS/DSP/Source/FilteringFunctions/arm_fir_q7.c **** 
 228:./Libraries/CMSIS/DSP/Source/FilteringFunctions/arm_fir_q7.c ****     /* Decrement loop counter */
 229:./Libraries/CMSIS/DSP/Source/FilteringFunctions/arm_fir_q7.c ****     blkCnt--;
 230:./Libraries/CMSIS/DSP/Source/FilteringFunctions/arm_fir_q7.c ****   }
 231:./Libraries/CMSIS/DSP/Source/FilteringFunctions/arm_fir_q7.c **** 
 232:./Libraries/CMSIS/DSP/Source/FilteringFunctions/arm_fir_q7.c ****   /* Loop unrolling: Compute remaining output samples */
 233:./Libraries/CMSIS/DSP/Source/FilteringFunctions/arm_fir_q7.c ****   blkCnt = blockSize % 0x4U;
 234:./Libraries/CMSIS/DSP/Source/FilteringFunctions/arm_fir_q7.c **** 
 235:./Libraries/CMSIS/DSP/Source/FilteringFunctions/arm_fir_q7.c **** #else
 236:./Libraries/CMSIS/DSP/Source/FilteringFunctions/arm_fir_q7.c **** 
 237:./Libraries/CMSIS/DSP/Source/FilteringFunctions/arm_fir_q7.c ****   /* Initialize blkCnt with number of taps */
 238:./Libraries/CMSIS/DSP/Source/FilteringFunctions/arm_fir_q7.c ****   blkCnt = blockSize;
  70              		.loc 1 238 3 view .LVU16
 239:./Libraries/CMSIS/DSP/Source/FilteringFunctions/arm_fir_q7.c **** 
 240:./Libraries/CMSIS/DSP/Source/FilteringFunctions/arm_fir_q7.c **** #endif /* #if defined (ARM_MATH_LOOPUNROLL) */
 241:./Libraries/CMSIS/DSP/Source/FilteringFunctions/arm_fir_q7.c **** 
 242:./Libraries/CMSIS/DSP/Source/FilteringFunctions/arm_fir_q7.c ****   while (blkCnt > 0U)
  71              		.loc 1 242 3 view .LVU17
  72              		.loc 1 242 9 view .LVU18
  73 0016 0193     		str	r3, [sp, #4]
  79:./Libraries/CMSIS/DSP/Source/FilteringFunctions/arm_fir_q7.c **** 
  74              		.loc 1 79 28 is_stmt 0 view .LVU19
  75 0018 0094     		str	r4, [sp]
  76              	.LVL3:
  77              		.loc 1 242 9 view .LVU20
  78 001a 93B3     		cbz	r3, .L8
  79 001c ACF10209 		sub	r9, ip, #2
  80 0020 01EB030B 		add	fp, r1, r3
  81 0024 F444     		add	ip, ip, lr
  63:./Libraries/CMSIS/DSP/Source/FilteringFunctions/arm_fir_q7.c ****   const q7_t *pCoeffs = S->pCoeffs;                    /* Coefficient pointer */
  82              		.loc 1 63 15 view .LVU21
  83 0026 F046     		mov	r8, lr
  84 0028 F144     		add	r9, r9, lr
  85              	.LVL4:
  86              	.L4:
 243:./Libraries/CMSIS/DSP/Source/FilteringFunctions/arm_fir_q7.c ****   {
 244:./Libraries/CMSIS/DSP/Source/FilteringFunctions/arm_fir_q7.c ****     /* Copy one sample at a time into state buffer */
ARM GAS  /tmp/ccqrTswI.s 			page 7


 245:./Libraries/CMSIS/DSP/Source/FilteringFunctions/arm_fir_q7.c ****     *pStateCurnt++ = *pSrc++;
  87              		.loc 1 245 5 is_stmt 1 view .LVU22
  88              		.loc 1 245 22 is_stmt 0 view .LVU23
  89 002a 11F9016B 		ldrsb	r6, [r1], #1
  90              	.LVL5:
 246:./Libraries/CMSIS/DSP/Source/FilteringFunctions/arm_fir_q7.c **** 
 247:./Libraries/CMSIS/DSP/Source/FilteringFunctions/arm_fir_q7.c ****     /* Set the accumulator to zero */
 248:./Libraries/CMSIS/DSP/Source/FilteringFunctions/arm_fir_q7.c ****     acc0 = 0;
 249:./Libraries/CMSIS/DSP/Source/FilteringFunctions/arm_fir_q7.c **** 
 250:./Libraries/CMSIS/DSP/Source/FilteringFunctions/arm_fir_q7.c ****     /* Initialize state pointer */
 251:./Libraries/CMSIS/DSP/Source/FilteringFunctions/arm_fir_q7.c ****     px = pState;
 252:./Libraries/CMSIS/DSP/Source/FilteringFunctions/arm_fir_q7.c **** 
 253:./Libraries/CMSIS/DSP/Source/FilteringFunctions/arm_fir_q7.c ****     /* Initialize Coefficient pointer */
 254:./Libraries/CMSIS/DSP/Source/FilteringFunctions/arm_fir_q7.c ****     pb = pCoeffs;
  91              		.loc 1 254 8 view .LVU24
  92 002e 5546     		mov	r5, r10
 245:./Libraries/CMSIS/DSP/Source/FilteringFunctions/arm_fir_q7.c **** 
  93              		.loc 1 245 20 view .LVU25
  94 0030 4346     		mov	r3, r8
 248:./Libraries/CMSIS/DSP/Source/FilteringFunctions/arm_fir_q7.c **** 
  95              		.loc 1 248 10 view .LVU26
  96 0032 0024     		movs	r4, #0
 245:./Libraries/CMSIS/DSP/Source/FilteringFunctions/arm_fir_q7.c **** 
  97              		.loc 1 245 20 view .LVU27
  98 0034 09F8016F 		strb	r6, [r9, #1]!
 248:./Libraries/CMSIS/DSP/Source/FilteringFunctions/arm_fir_q7.c **** 
  99              		.loc 1 248 5 is_stmt 1 view .LVU28
 100              	.LVL6:
 251:./Libraries/CMSIS/DSP/Source/FilteringFunctions/arm_fir_q7.c **** 
 101              		.loc 1 251 5 view .LVU29
 102              		.loc 1 254 5 view .LVU30
 255:./Libraries/CMSIS/DSP/Source/FilteringFunctions/arm_fir_q7.c **** 
 256:./Libraries/CMSIS/DSP/Source/FilteringFunctions/arm_fir_q7.c ****     i = numTaps;
 103              		.loc 1 256 5 view .LVU31
 104              	.L3:
 257:./Libraries/CMSIS/DSP/Source/FilteringFunctions/arm_fir_q7.c **** 
 258:./Libraries/CMSIS/DSP/Source/FilteringFunctions/arm_fir_q7.c ****     /* Perform the multiply-accumulates */
 259:./Libraries/CMSIS/DSP/Source/FilteringFunctions/arm_fir_q7.c ****     do
 105              		.loc 1 259 5 discriminator 1 view .LVU32
 260:./Libraries/CMSIS/DSP/Source/FilteringFunctions/arm_fir_q7.c ****     {
 261:./Libraries/CMSIS/DSP/Source/FilteringFunctions/arm_fir_q7.c ****       acc0 += (q15_t) * (px++) * (*(pb++));
 106              		.loc 1 261 7 discriminator 1 view .LVU33
 107              		.loc 1 261 12 is_stmt 0 discriminator 1 view .LVU34
 108 0038 13F9017B 		ldrsb	r7, [r3], #1
 109              	.LVL7:
 110              		.loc 1 261 12 discriminator 1 view .LVU35
 111 003c 15F9016B 		ldrsb	r6, [r5], #1
 112              	.LVL8:
 262:./Libraries/CMSIS/DSP/Source/FilteringFunctions/arm_fir_q7.c ****       i--;
 263:./Libraries/CMSIS/DSP/Source/FilteringFunctions/arm_fir_q7.c ****     } while (i > 0U);
 113              		.loc 1 263 5 discriminator 1 view .LVU36
 114 0040 6345     		cmp	r3, ip
 261:./Libraries/CMSIS/DSP/Source/FilteringFunctions/arm_fir_q7.c ****       i--;
 115              		.loc 1 261 12 discriminator 1 view .LVU37
 116 0042 17FB0644 		smlabb	r4, r7, r6, r4
 117              	.LVL9:
 262:./Libraries/CMSIS/DSP/Source/FilteringFunctions/arm_fir_q7.c ****       i--;
ARM GAS  /tmp/ccqrTswI.s 			page 8


 118              		.loc 1 262 7 is_stmt 1 discriminator 1 view .LVU38
 119              		.loc 1 263 13 discriminator 1 view .LVU39
 120              		.loc 1 263 5 is_stmt 0 discriminator 1 view .LVU40
 121 0046 F7D1     		bne	.L3
 264:./Libraries/CMSIS/DSP/Source/FilteringFunctions/arm_fir_q7.c **** 
 265:./Libraries/CMSIS/DSP/Source/FilteringFunctions/arm_fir_q7.c ****     /* The result is in 2.14 format. Convert to 1.7
 266:./Libraries/CMSIS/DSP/Source/FilteringFunctions/arm_fir_q7.c ****        Then store the output in the destination buffer. */
 267:./Libraries/CMSIS/DSP/Source/FilteringFunctions/arm_fir_q7.c ****     *pDst++ = __SSAT((acc0 >> 7U), 8);
 122              		.loc 1 267 5 is_stmt 1 view .LVU41
 123              	.LBB2:
 124              		.loc 1 267 15 view .LVU42
 125              	.LVL10:
 126              		.loc 1 267 15 view .LVU43
 127              	.LBE2:
 242:./Libraries/CMSIS/DSP/Source/FilteringFunctions/arm_fir_q7.c ****   {
 128              		.loc 1 242 9 is_stmt 0 view .LVU44
 129 0048 5945     		cmp	r1, fp
 130              	.LBB3:
 131              		.loc 1 267 15 view .LVU45
 132 004a 4FEAE414 		asr	r4, r4, #7
 133              	.LVL11:
 134              		.loc 1 267 15 view .LVU46
 135              	.LBE3:
 268:./Libraries/CMSIS/DSP/Source/FilteringFunctions/arm_fir_q7.c **** 
 269:./Libraries/CMSIS/DSP/Source/FilteringFunctions/arm_fir_q7.c ****     /* Advance state pointer by 1 for the next sample */
 270:./Libraries/CMSIS/DSP/Source/FilteringFunctions/arm_fir_q7.c ****     pState = pState + 1U;
 136              		.loc 1 270 12 view .LVU47
 137 004e 08F10108 		add	r8, r8, #1
 138              	.LVL12:
 139              		.loc 1 270 12 view .LVU48
 140 0052 03F1010C 		add	ip, r3, #1
 141              	.LBB4:
 267:./Libraries/CMSIS/DSP/Source/FilteringFunctions/arm_fir_q7.c **** 
 142              		.loc 1 267 15 view .LVU49
 143              		.syntax unified
 144              	@ 267 "./Libraries/CMSIS/DSP/Source/FilteringFunctions/arm_fir_q7.c" 1
 145 0056 04F30704 		ssat r4, #8, r4
 146              	@ 0 "" 2
 147              	.LVL13:
 267:./Libraries/CMSIS/DSP/Source/FilteringFunctions/arm_fir_q7.c **** 
 148              		.loc 1 267 15 is_stmt 1 view .LVU50
 267:./Libraries/CMSIS/DSP/Source/FilteringFunctions/arm_fir_q7.c **** 
 149              		.loc 1 267 15 is_stmt 0 view .LVU51
 150              		.thumb
 151              		.syntax unified
 152              	.LBE4:
 267:./Libraries/CMSIS/DSP/Source/FilteringFunctions/arm_fir_q7.c **** 
 153              		.loc 1 267 13 view .LVU52
 154 005a 02F8014B 		strb	r4, [r2], #1
 155              	.LVL14:
 156              		.loc 1 270 5 is_stmt 1 view .LVU53
 271:./Libraries/CMSIS/DSP/Source/FilteringFunctions/arm_fir_q7.c **** 
 272:./Libraries/CMSIS/DSP/Source/FilteringFunctions/arm_fir_q7.c ****     /* Decrement loop counter */
 273:./Libraries/CMSIS/DSP/Source/FilteringFunctions/arm_fir_q7.c ****     blkCnt--;
 157              		.loc 1 273 5 view .LVU54
 242:./Libraries/CMSIS/DSP/Source/FilteringFunctions/arm_fir_q7.c ****   {
 158              		.loc 1 242 9 view .LVU55
ARM GAS  /tmp/ccqrTswI.s 			page 9


 159 005e E4D1     		bne	.L4
 160 0060 019B     		ldr	r3, [sp, #4]
 161              	.LVL15:
 242:./Libraries/CMSIS/DSP/Source/FilteringFunctions/arm_fir_q7.c ****   {
 162              		.loc 1 242 9 is_stmt 0 view .LVU56
 163 0062 9E44     		add	lr, lr, r3
 242:./Libraries/CMSIS/DSP/Source/FilteringFunctions/arm_fir_q7.c ****   {
 164              		.loc 1 242 9 view .LVU57
 165 0064 4368     		ldr	r3, [r0, #4]
 166              	.LVL16:
 167              	.L2:
 274:./Libraries/CMSIS/DSP/Source/FilteringFunctions/arm_fir_q7.c ****   }
 275:./Libraries/CMSIS/DSP/Source/FilteringFunctions/arm_fir_q7.c **** 
 276:./Libraries/CMSIS/DSP/Source/FilteringFunctions/arm_fir_q7.c ****   /* Processing is complete.
 277:./Libraries/CMSIS/DSP/Source/FilteringFunctions/arm_fir_q7.c ****      Now copy the last numTaps - 1 samples to the start of the state buffer.
 278:./Libraries/CMSIS/DSP/Source/FilteringFunctions/arm_fir_q7.c ****      This prepares the state buffer for the next function call. */
 279:./Libraries/CMSIS/DSP/Source/FilteringFunctions/arm_fir_q7.c **** 
 280:./Libraries/CMSIS/DSP/Source/FilteringFunctions/arm_fir_q7.c ****   /* Points to the start of the state buffer */
 281:./Libraries/CMSIS/DSP/Source/FilteringFunctions/arm_fir_q7.c ****   pStateCurnt = S->pState;
 168              		.loc 1 281 3 is_stmt 1 view .LVU58
 282:./Libraries/CMSIS/DSP/Source/FilteringFunctions/arm_fir_q7.c **** 
 283:./Libraries/CMSIS/DSP/Source/FilteringFunctions/arm_fir_q7.c **** #if defined (ARM_MATH_LOOPUNROLL)
 284:./Libraries/CMSIS/DSP/Source/FilteringFunctions/arm_fir_q7.c **** 
 285:./Libraries/CMSIS/DSP/Source/FilteringFunctions/arm_fir_q7.c ****   /* Loop unrolling: Compute 4 taps at a time */
 286:./Libraries/CMSIS/DSP/Source/FilteringFunctions/arm_fir_q7.c ****   tapCnt = (numTaps - 1U) >> 2U;
 287:./Libraries/CMSIS/DSP/Source/FilteringFunctions/arm_fir_q7.c **** 
 288:./Libraries/CMSIS/DSP/Source/FilteringFunctions/arm_fir_q7.c ****   /* Copy data */
 289:./Libraries/CMSIS/DSP/Source/FilteringFunctions/arm_fir_q7.c ****   while (tapCnt > 0U)
 290:./Libraries/CMSIS/DSP/Source/FilteringFunctions/arm_fir_q7.c ****   {
 291:./Libraries/CMSIS/DSP/Source/FilteringFunctions/arm_fir_q7.c ****     *pStateCurnt++ = *pState++;
 292:./Libraries/CMSIS/DSP/Source/FilteringFunctions/arm_fir_q7.c ****     *pStateCurnt++ = *pState++;
 293:./Libraries/CMSIS/DSP/Source/FilteringFunctions/arm_fir_q7.c ****     *pStateCurnt++ = *pState++;
 294:./Libraries/CMSIS/DSP/Source/FilteringFunctions/arm_fir_q7.c ****     *pStateCurnt++ = *pState++;
 295:./Libraries/CMSIS/DSP/Source/FilteringFunctions/arm_fir_q7.c **** 
 296:./Libraries/CMSIS/DSP/Source/FilteringFunctions/arm_fir_q7.c ****     /* Decrement loop counter */
 297:./Libraries/CMSIS/DSP/Source/FilteringFunctions/arm_fir_q7.c ****     tapCnt--;
 298:./Libraries/CMSIS/DSP/Source/FilteringFunctions/arm_fir_q7.c ****   }
 299:./Libraries/CMSIS/DSP/Source/FilteringFunctions/arm_fir_q7.c **** 
 300:./Libraries/CMSIS/DSP/Source/FilteringFunctions/arm_fir_q7.c ****   /* Calculate remaining number of copies */
 301:./Libraries/CMSIS/DSP/Source/FilteringFunctions/arm_fir_q7.c ****   tapCnt = (numTaps - 1U) % 0x4U;
 302:./Libraries/CMSIS/DSP/Source/FilteringFunctions/arm_fir_q7.c **** 
 303:./Libraries/CMSIS/DSP/Source/FilteringFunctions/arm_fir_q7.c **** #else
 304:./Libraries/CMSIS/DSP/Source/FilteringFunctions/arm_fir_q7.c **** 
 305:./Libraries/CMSIS/DSP/Source/FilteringFunctions/arm_fir_q7.c ****   /* Initialize tapCnt with number of taps */
 306:./Libraries/CMSIS/DSP/Source/FilteringFunctions/arm_fir_q7.c ****   tapCnt = (numTaps - 1U);
 169              		.loc 1 306 3 view .LVU59
 307:./Libraries/CMSIS/DSP/Source/FilteringFunctions/arm_fir_q7.c **** 
 308:./Libraries/CMSIS/DSP/Source/FilteringFunctions/arm_fir_q7.c **** #endif /* #if defined (ARM_MATH_LOOPUNROLL) */
 309:./Libraries/CMSIS/DSP/Source/FilteringFunctions/arm_fir_q7.c **** 
 310:./Libraries/CMSIS/DSP/Source/FilteringFunctions/arm_fir_q7.c ****   /* Copy remaining data */
 311:./Libraries/CMSIS/DSP/Source/FilteringFunctions/arm_fir_q7.c ****   while (tapCnt > 0U)
 170              		.loc 1 311 3 view .LVU60
 171              		.loc 1 311 9 view .LVU61
 172 0066 009A     		ldr	r2, [sp]
 173              	.LVL17:
 174              		.loc 1 311 9 is_stmt 0 view .LVU62
 175 0068 42B1     		cbz	r2, .L1
ARM GAS  /tmp/ccqrTswI.s 			page 10


 176 006a 7244     		add	r2, r2, lr
 177 006c 013B     		subs	r3, r3, #1
 178 006e 1146     		mov	r1, r2
 179              	.LVL18:
 180              	.L6:
 312:./Libraries/CMSIS/DSP/Source/FilteringFunctions/arm_fir_q7.c ****   {
 313:./Libraries/CMSIS/DSP/Source/FilteringFunctions/arm_fir_q7.c ****     *pStateCurnt++ = *pState++;
 181              		.loc 1 313 5 is_stmt 1 view .LVU63
 182              		.loc 1 313 22 is_stmt 0 view .LVU64
 183 0070 1EF9012B 		ldrsb	r2, [lr], #1
 184              	.LVL19:
 311:./Libraries/CMSIS/DSP/Source/FilteringFunctions/arm_fir_q7.c ****   {
 185              		.loc 1 311 9 view .LVU65
 186 0074 7145     		cmp	r1, lr
 187              		.loc 1 313 20 view .LVU66
 188 0076 03F8012F 		strb	r2, [r3, #1]!
 314:./Libraries/CMSIS/DSP/Source/FilteringFunctions/arm_fir_q7.c **** 
 315:./Libraries/CMSIS/DSP/Source/FilteringFunctions/arm_fir_q7.c ****     /* Decrement the loop counter */
 316:./Libraries/CMSIS/DSP/Source/FilteringFunctions/arm_fir_q7.c ****     tapCnt--;
 189              		.loc 1 316 5 is_stmt 1 view .LVU67
 311:./Libraries/CMSIS/DSP/Source/FilteringFunctions/arm_fir_q7.c ****   {
 190              		.loc 1 311 9 view .LVU68
 191 007a F9D1     		bne	.L6
 192              	.L1:
 317:./Libraries/CMSIS/DSP/Source/FilteringFunctions/arm_fir_q7.c ****   }
 318:./Libraries/CMSIS/DSP/Source/FilteringFunctions/arm_fir_q7.c **** 
 319:./Libraries/CMSIS/DSP/Source/FilteringFunctions/arm_fir_q7.c **** }
 193              		.loc 1 319 1 is_stmt 0 view .LVU69
 194 007c 03B0     		add	sp, sp, #12
 195              	.LCFI2:
 196              		.cfi_remember_state
 197              		.cfi_def_cfa_offset 36
 198              		@ sp needed
 199 007e BDE8F08F 		pop	{r4, r5, r6, r7, r8, r9, r10, fp, pc}
 200              	.LVL20:
 201              	.L8:
 202              	.LCFI3:
 203              		.cfi_restore_state
 242:./Libraries/CMSIS/DSP/Source/FilteringFunctions/arm_fir_q7.c ****   {
 204              		.loc 1 242 9 view .LVU70
 205 0082 7346     		mov	r3, lr
 206              	.LVL21:
 242:./Libraries/CMSIS/DSP/Source/FilteringFunctions/arm_fir_q7.c ****   {
 207              		.loc 1 242 9 view .LVU71
 208 0084 EFE7     		b	.L2
 209              		.cfi_endproc
 210              	.LFE145:
 212 0086 00BF     		.text
 213              	.Letext0:
 214              		.file 2 "/usr/lib/gcc/arm-none-eabi/9.2.1/include/stdint.h"
 215              		.file 3 "/usr/lib/gcc/arm-none-eabi/9.2.1/include/stddef.h"
 216              		.file 4 "/usr/include/newlib/sys/_types.h"
 217              		.file 5 "/usr/include/newlib/sys/reent.h"
 218              		.file 6 "/usr/include/newlib/sys/lock.h"
 219              		.file 7 "/usr/include/newlib/math.h"
 220              		.file 8 "./Libraries/CMSIS/DSP/Include/arm_math.h"
ARM GAS  /tmp/ccqrTswI.s 			page 11

