ARM GAS  /tmp/ccef1Oo3.s 			page 1


   1              		.cpu cortex-m7
   2              		.eabi_attribute 28, 1
   3              		.eabi_attribute 20, 1
   4              		.eabi_attribute 21, 1
   5              		.eabi_attribute 23, 3
   6              		.eabi_attribute 24, 1
   7              		.eabi_attribute 25, 1
   8              		.eabi_attribute 26, 1
   9              		.eabi_attribute 30, 2
  10              		.eabi_attribute 34, 1
  11              		.eabi_attribute 18, 4
  12              		.file	"arm_convolve_HWC_q7_fast_nonsquare.c"
  13              		.text
  14              	.Ltext0:
  15              		.cfi_sections	.debug_frame
  16              		.section	.text.arm_convolve_HWC_q7_fast_nonsquare,"ax",%progbits
  17              		.align	1
  18              		.p2align 2,,3
  19              		.global	arm_convolve_HWC_q7_fast_nonsquare
  20              		.arch armv7e-m
  21              		.syntax unified
  22              		.thumb
  23              		.thumb_func
  24              		.fpu fpv5-d16
  26              	arm_convolve_HWC_q7_fast_nonsquare:
  27              	.LVL0:
  28              	.LFB149:
  29              		.file 1 "./Libraries/CMSIS/NN/Source/ConvolutionFunctions/arm_convolve_HWC_q7_fast_nonsquare.c"
   1:./Libraries/CMSIS/NN/Source/ConvolutionFunctions/arm_convolve_HWC_q7_fast_nonsquare.c **** /*
   2:./Libraries/CMSIS/NN/Source/ConvolutionFunctions/arm_convolve_HWC_q7_fast_nonsquare.c ****  * Copyright (C) 2010-2018 Arm Limited or its affiliates. All rights reserved.
   3:./Libraries/CMSIS/NN/Source/ConvolutionFunctions/arm_convolve_HWC_q7_fast_nonsquare.c ****  *
   4:./Libraries/CMSIS/NN/Source/ConvolutionFunctions/arm_convolve_HWC_q7_fast_nonsquare.c ****  * SPDX-License-Identifier: Apache-2.0
   5:./Libraries/CMSIS/NN/Source/ConvolutionFunctions/arm_convolve_HWC_q7_fast_nonsquare.c ****  *
   6:./Libraries/CMSIS/NN/Source/ConvolutionFunctions/arm_convolve_HWC_q7_fast_nonsquare.c ****  * Licensed under the Apache License, Version 2.0 (the License); you may
   7:./Libraries/CMSIS/NN/Source/ConvolutionFunctions/arm_convolve_HWC_q7_fast_nonsquare.c ****  * not use this file except in compliance with the License.
   8:./Libraries/CMSIS/NN/Source/ConvolutionFunctions/arm_convolve_HWC_q7_fast_nonsquare.c ****  * You may obtain a copy of the License at
   9:./Libraries/CMSIS/NN/Source/ConvolutionFunctions/arm_convolve_HWC_q7_fast_nonsquare.c ****  *
  10:./Libraries/CMSIS/NN/Source/ConvolutionFunctions/arm_convolve_HWC_q7_fast_nonsquare.c ****  * www.apache.org/licenses/LICENSE-2.0
  11:./Libraries/CMSIS/NN/Source/ConvolutionFunctions/arm_convolve_HWC_q7_fast_nonsquare.c ****  *
  12:./Libraries/CMSIS/NN/Source/ConvolutionFunctions/arm_convolve_HWC_q7_fast_nonsquare.c ****  * Unless required by applicable law or agreed to in writing, software
  13:./Libraries/CMSIS/NN/Source/ConvolutionFunctions/arm_convolve_HWC_q7_fast_nonsquare.c ****  * distributed under the License is distributed on an AS IS BASIS, WITHOUT
  14:./Libraries/CMSIS/NN/Source/ConvolutionFunctions/arm_convolve_HWC_q7_fast_nonsquare.c ****  * WARRANTIES OR CONDITIONS OF ANY KIND, either express or implied.
  15:./Libraries/CMSIS/NN/Source/ConvolutionFunctions/arm_convolve_HWC_q7_fast_nonsquare.c ****  * See the License for the specific language governing permissions and
  16:./Libraries/CMSIS/NN/Source/ConvolutionFunctions/arm_convolve_HWC_q7_fast_nonsquare.c ****  * limitations under the License.
  17:./Libraries/CMSIS/NN/Source/ConvolutionFunctions/arm_convolve_HWC_q7_fast_nonsquare.c ****  */
  18:./Libraries/CMSIS/NN/Source/ConvolutionFunctions/arm_convolve_HWC_q7_fast_nonsquare.c **** 
  19:./Libraries/CMSIS/NN/Source/ConvolutionFunctions/arm_convolve_HWC_q7_fast_nonsquare.c **** /* ----------------------------------------------------------------------
  20:./Libraries/CMSIS/NN/Source/ConvolutionFunctions/arm_convolve_HWC_q7_fast_nonsquare.c ****  * Project:      CMSIS NN Library
  21:./Libraries/CMSIS/NN/Source/ConvolutionFunctions/arm_convolve_HWC_q7_fast_nonsquare.c ****  * Title:        arm_convolve_HWC_q7_fast_nonsquare.c
  22:./Libraries/CMSIS/NN/Source/ConvolutionFunctions/arm_convolve_HWC_q7_fast_nonsquare.c ****  * Description:  Fast Q7 version of convolution (non-sqaure shape)
  23:./Libraries/CMSIS/NN/Source/ConvolutionFunctions/arm_convolve_HWC_q7_fast_nonsquare.c ****  *
  24:./Libraries/CMSIS/NN/Source/ConvolutionFunctions/arm_convolve_HWC_q7_fast_nonsquare.c ****  * $Date:        17. January 2018
  25:./Libraries/CMSIS/NN/Source/ConvolutionFunctions/arm_convolve_HWC_q7_fast_nonsquare.c ****  * $Revision:    V.1.0.0
  26:./Libraries/CMSIS/NN/Source/ConvolutionFunctions/arm_convolve_HWC_q7_fast_nonsquare.c ****  *
  27:./Libraries/CMSIS/NN/Source/ConvolutionFunctions/arm_convolve_HWC_q7_fast_nonsquare.c ****  * Target Processor:  Cortex-M cores
  28:./Libraries/CMSIS/NN/Source/ConvolutionFunctions/arm_convolve_HWC_q7_fast_nonsquare.c ****  *
  29:./Libraries/CMSIS/NN/Source/ConvolutionFunctions/arm_convolve_HWC_q7_fast_nonsquare.c ****  * -------------------------------------------------------------------- */
ARM GAS  /tmp/ccef1Oo3.s 			page 2


  30:./Libraries/CMSIS/NN/Source/ConvolutionFunctions/arm_convolve_HWC_q7_fast_nonsquare.c **** 
  31:./Libraries/CMSIS/NN/Source/ConvolutionFunctions/arm_convolve_HWC_q7_fast_nonsquare.c **** #include "arm_math.h"
  32:./Libraries/CMSIS/NN/Source/ConvolutionFunctions/arm_convolve_HWC_q7_fast_nonsquare.c **** #include "arm_nnfunctions.h"
  33:./Libraries/CMSIS/NN/Source/ConvolutionFunctions/arm_convolve_HWC_q7_fast_nonsquare.c **** 
  34:./Libraries/CMSIS/NN/Source/ConvolutionFunctions/arm_convolve_HWC_q7_fast_nonsquare.c **** /**
  35:./Libraries/CMSIS/NN/Source/ConvolutionFunctions/arm_convolve_HWC_q7_fast_nonsquare.c ****  *  @ingroup groupNN
  36:./Libraries/CMSIS/NN/Source/ConvolutionFunctions/arm_convolve_HWC_q7_fast_nonsquare.c ****  */
  37:./Libraries/CMSIS/NN/Source/ConvolutionFunctions/arm_convolve_HWC_q7_fast_nonsquare.c **** 
  38:./Libraries/CMSIS/NN/Source/ConvolutionFunctions/arm_convolve_HWC_q7_fast_nonsquare.c **** /**
  39:./Libraries/CMSIS/NN/Source/ConvolutionFunctions/arm_convolve_HWC_q7_fast_nonsquare.c ****  * @addtogroup NNConv
  40:./Libraries/CMSIS/NN/Source/ConvolutionFunctions/arm_convolve_HWC_q7_fast_nonsquare.c ****  * @{
  41:./Libraries/CMSIS/NN/Source/ConvolutionFunctions/arm_convolve_HWC_q7_fast_nonsquare.c ****  */
  42:./Libraries/CMSIS/NN/Source/ConvolutionFunctions/arm_convolve_HWC_q7_fast_nonsquare.c **** 
  43:./Libraries/CMSIS/NN/Source/ConvolutionFunctions/arm_convolve_HWC_q7_fast_nonsquare.c **** /**
  44:./Libraries/CMSIS/NN/Source/ConvolutionFunctions/arm_convolve_HWC_q7_fast_nonsquare.c ****  * @brief Fast Q7 convolution function (non-sqaure shape)
  45:./Libraries/CMSIS/NN/Source/ConvolutionFunctions/arm_convolve_HWC_q7_fast_nonsquare.c ****  * @param[in]       Im_in        pointer to input tensor
  46:./Libraries/CMSIS/NN/Source/ConvolutionFunctions/arm_convolve_HWC_q7_fast_nonsquare.c ****  * @param[in]       dim_im_in_x  input tensor dimention x
  47:./Libraries/CMSIS/NN/Source/ConvolutionFunctions/arm_convolve_HWC_q7_fast_nonsquare.c ****  * @param[in]       dim_im_in_y  input tensor dimention y
  48:./Libraries/CMSIS/NN/Source/ConvolutionFunctions/arm_convolve_HWC_q7_fast_nonsquare.c ****  * @param[in]       ch_im_in     number of input tensor channels
  49:./Libraries/CMSIS/NN/Source/ConvolutionFunctions/arm_convolve_HWC_q7_fast_nonsquare.c ****  * @param[in]       wt           pointer to kernel weights
  50:./Libraries/CMSIS/NN/Source/ConvolutionFunctions/arm_convolve_HWC_q7_fast_nonsquare.c ****  * @param[in]       ch_im_out    number of filters, i.e., output tensor channels
  51:./Libraries/CMSIS/NN/Source/ConvolutionFunctions/arm_convolve_HWC_q7_fast_nonsquare.c ****  * @param[in]       dim_kernel_x filter kernel size x
  52:./Libraries/CMSIS/NN/Source/ConvolutionFunctions/arm_convolve_HWC_q7_fast_nonsquare.c ****  * @param[in]       dim_kernel_y filter kernel size y
  53:./Libraries/CMSIS/NN/Source/ConvolutionFunctions/arm_convolve_HWC_q7_fast_nonsquare.c ****  * @param[in]       padding_x    padding size x
  54:./Libraries/CMSIS/NN/Source/ConvolutionFunctions/arm_convolve_HWC_q7_fast_nonsquare.c ****  * @param[in]       padding_y    padding size y
  55:./Libraries/CMSIS/NN/Source/ConvolutionFunctions/arm_convolve_HWC_q7_fast_nonsquare.c ****  * @param[in]       stride_x     convolution stride x
  56:./Libraries/CMSIS/NN/Source/ConvolutionFunctions/arm_convolve_HWC_q7_fast_nonsquare.c ****  * @param[in]       stride_y     convolution stride y
  57:./Libraries/CMSIS/NN/Source/ConvolutionFunctions/arm_convolve_HWC_q7_fast_nonsquare.c ****  * @param[in]       bias         pointer to bias
  58:./Libraries/CMSIS/NN/Source/ConvolutionFunctions/arm_convolve_HWC_q7_fast_nonsquare.c ****  * @param[in]       bias_shift   amount of left-shift for bias
  59:./Libraries/CMSIS/NN/Source/ConvolutionFunctions/arm_convolve_HWC_q7_fast_nonsquare.c ****  * @param[in]       out_shift    amount of right-shift for output
  60:./Libraries/CMSIS/NN/Source/ConvolutionFunctions/arm_convolve_HWC_q7_fast_nonsquare.c ****  * @param[in,out]   Im_out       pointer to output tensor
  61:./Libraries/CMSIS/NN/Source/ConvolutionFunctions/arm_convolve_HWC_q7_fast_nonsquare.c ****  * @param[in]       dim_im_out_x output tensor dimension x
  62:./Libraries/CMSIS/NN/Source/ConvolutionFunctions/arm_convolve_HWC_q7_fast_nonsquare.c ****  * @param[in]       dim_im_out_y output tensor dimension y
  63:./Libraries/CMSIS/NN/Source/ConvolutionFunctions/arm_convolve_HWC_q7_fast_nonsquare.c ****  * @param[in,out]   bufferA      pointer to buffer space for input 
  64:./Libraries/CMSIS/NN/Source/ConvolutionFunctions/arm_convolve_HWC_q7_fast_nonsquare.c ****  * @param[in,out]   bufferB      pointer to buffer space for output
  65:./Libraries/CMSIS/NN/Source/ConvolutionFunctions/arm_convolve_HWC_q7_fast_nonsquare.c ****  * @return     The function returns either
  66:./Libraries/CMSIS/NN/Source/ConvolutionFunctions/arm_convolve_HWC_q7_fast_nonsquare.c ****  * <code>ARM_MATH_SIZE_MISMATCH</code> or <code>ARM_MATH_SUCCESS</code> based on the outcome of siz
  67:./Libraries/CMSIS/NN/Source/ConvolutionFunctions/arm_convolve_HWC_q7_fast_nonsquare.c ****  *
  68:./Libraries/CMSIS/NN/Source/ConvolutionFunctions/arm_convolve_HWC_q7_fast_nonsquare.c ****  * This function is the version with full list of optimization tricks, but with
  69:./Libraries/CMSIS/NN/Source/ConvolutionFunctions/arm_convolve_HWC_q7_fast_nonsquare.c ****  * some contraints:
  70:./Libraries/CMSIS/NN/Source/ConvolutionFunctions/arm_convolve_HWC_q7_fast_nonsquare.c ****  *   ch_im_in is multiple of 4
  71:./Libraries/CMSIS/NN/Source/ConvolutionFunctions/arm_convolve_HWC_q7_fast_nonsquare.c ****  *   ch_im_out is multiple of 2
  72:./Libraries/CMSIS/NN/Source/ConvolutionFunctions/arm_convolve_HWC_q7_fast_nonsquare.c ****  */
  73:./Libraries/CMSIS/NN/Source/ConvolutionFunctions/arm_convolve_HWC_q7_fast_nonsquare.c **** 
  74:./Libraries/CMSIS/NN/Source/ConvolutionFunctions/arm_convolve_HWC_q7_fast_nonsquare.c **** arm_status arm_convolve_HWC_q7_fast_nonsquare(const q7_t * Im_in,
  75:./Libraries/CMSIS/NN/Source/ConvolutionFunctions/arm_convolve_HWC_q7_fast_nonsquare.c ****                                               const uint16_t dim_im_in_x,
  76:./Libraries/CMSIS/NN/Source/ConvolutionFunctions/arm_convolve_HWC_q7_fast_nonsquare.c ****                                               const uint16_t dim_im_in_y,
  77:./Libraries/CMSIS/NN/Source/ConvolutionFunctions/arm_convolve_HWC_q7_fast_nonsquare.c ****                                               const uint16_t ch_im_in,
  78:./Libraries/CMSIS/NN/Source/ConvolutionFunctions/arm_convolve_HWC_q7_fast_nonsquare.c ****                                               const q7_t * wt,
  79:./Libraries/CMSIS/NN/Source/ConvolutionFunctions/arm_convolve_HWC_q7_fast_nonsquare.c ****                                               const uint16_t ch_im_out,
  80:./Libraries/CMSIS/NN/Source/ConvolutionFunctions/arm_convolve_HWC_q7_fast_nonsquare.c ****                                               const uint16_t dim_kernel_x,
  81:./Libraries/CMSIS/NN/Source/ConvolutionFunctions/arm_convolve_HWC_q7_fast_nonsquare.c ****                                               const uint16_t dim_kernel_y,
  82:./Libraries/CMSIS/NN/Source/ConvolutionFunctions/arm_convolve_HWC_q7_fast_nonsquare.c ****                                               const uint16_t padding_x,
  83:./Libraries/CMSIS/NN/Source/ConvolutionFunctions/arm_convolve_HWC_q7_fast_nonsquare.c ****                                               const uint16_t padding_y,
  84:./Libraries/CMSIS/NN/Source/ConvolutionFunctions/arm_convolve_HWC_q7_fast_nonsquare.c ****                                               const uint16_t stride_x,
  85:./Libraries/CMSIS/NN/Source/ConvolutionFunctions/arm_convolve_HWC_q7_fast_nonsquare.c ****                                               const uint16_t stride_y,
  86:./Libraries/CMSIS/NN/Source/ConvolutionFunctions/arm_convolve_HWC_q7_fast_nonsquare.c ****                                               const q7_t * bias,
ARM GAS  /tmp/ccef1Oo3.s 			page 3


  87:./Libraries/CMSIS/NN/Source/ConvolutionFunctions/arm_convolve_HWC_q7_fast_nonsquare.c ****                                               const uint16_t bias_shift,
  88:./Libraries/CMSIS/NN/Source/ConvolutionFunctions/arm_convolve_HWC_q7_fast_nonsquare.c ****                                               const uint16_t out_shift,
  89:./Libraries/CMSIS/NN/Source/ConvolutionFunctions/arm_convolve_HWC_q7_fast_nonsquare.c ****                                               q7_t * Im_out,
  90:./Libraries/CMSIS/NN/Source/ConvolutionFunctions/arm_convolve_HWC_q7_fast_nonsquare.c ****                                               const uint16_t dim_im_out_x,
  91:./Libraries/CMSIS/NN/Source/ConvolutionFunctions/arm_convolve_HWC_q7_fast_nonsquare.c ****                                               const uint16_t dim_im_out_y, 
  92:./Libraries/CMSIS/NN/Source/ConvolutionFunctions/arm_convolve_HWC_q7_fast_nonsquare.c ****                                               q15_t * bufferA, 
  93:./Libraries/CMSIS/NN/Source/ConvolutionFunctions/arm_convolve_HWC_q7_fast_nonsquare.c ****                                               q7_t * bufferB)
  94:./Libraries/CMSIS/NN/Source/ConvolutionFunctions/arm_convolve_HWC_q7_fast_nonsquare.c **** {
  30              		.loc 1 94 1 view -0
  31              		.cfi_startproc
  32              		@ args = 64, pretend = 0, frame = 96
  33              		@ frame_needed = 0, uses_anonymous_args = 0
  34              		.loc 1 94 1 is_stmt 0 view .LVU1
  35 0000 2DE9F04F 		push	{r4, r5, r6, r7, r8, r9, r10, fp, lr}
  36              	.LCFI0:
  37              		.cfi_def_cfa_offset 36
  38              		.cfi_offset 4, -36
  39              		.cfi_offset 5, -32
  40              		.cfi_offset 6, -28
  41              		.cfi_offset 7, -24
  42              		.cfi_offset 8, -20
  43              		.cfi_offset 9, -16
  44              		.cfi_offset 10, -12
  45              		.cfi_offset 11, -8
  46              		.cfi_offset 14, -4
  47 0004 2DED048B 		vpush.64	{d8, d9}
  48              	.LCFI1:
  49              		.cfi_def_cfa_offset 52
  50              		.cfi_offset 80, -52
  51              		.cfi_offset 81, -48
  52              		.cfi_offset 82, -44
  53              		.cfi_offset 83, -40
  54 0008 9DB0     		sub	sp, sp, #116
  55              	.LCFI2:
  56              		.cfi_def_cfa_offset 168
  57              		.loc 1 94 1 view .LVU2
  58 000a 9B46     		mov	fp, r3
  95:./Libraries/CMSIS/NN/Source/ConvolutionFunctions/arm_convolve_HWC_q7_fast_nonsquare.c **** 
  96:./Libraries/CMSIS/NN/Source/ConvolutionFunctions/arm_convolve_HWC_q7_fast_nonsquare.c **** #if defined (ARM_MATH_DSP)
  97:./Libraries/CMSIS/NN/Source/ConvolutionFunctions/arm_convolve_HWC_q7_fast_nonsquare.c ****     /* Run the following code for Cortex-M4 and Cortex-M7 */
  98:./Libraries/CMSIS/NN/Source/ConvolutionFunctions/arm_convolve_HWC_q7_fast_nonsquare.c **** 
  99:./Libraries/CMSIS/NN/Source/ConvolutionFunctions/arm_convolve_HWC_q7_fast_nonsquare.c ****     int16_t   i_out_y, i_out_x, i_ker_y, i_ker_x;
 100:./Libraries/CMSIS/NN/Source/ConvolutionFunctions/arm_convolve_HWC_q7_fast_nonsquare.c **** 
 101:./Libraries/CMSIS/NN/Source/ConvolutionFunctions/arm_convolve_HWC_q7_fast_nonsquare.c ****     /* -----------------------
 102:./Libraries/CMSIS/NN/Source/ConvolutionFunctions/arm_convolve_HWC_q7_fast_nonsquare.c ****      *  Here we use bufferA as q15_t internally as computation are done with q15_t level
 103:./Libraries/CMSIS/NN/Source/ConvolutionFunctions/arm_convolve_HWC_q7_fast_nonsquare.c ****      *  im2col are done to output in q15_t format from q7_t input
 104:./Libraries/CMSIS/NN/Source/ConvolutionFunctions/arm_convolve_HWC_q7_fast_nonsquare.c ****      */
 105:./Libraries/CMSIS/NN/Source/ConvolutionFunctions/arm_convolve_HWC_q7_fast_nonsquare.c **** 
 106:./Libraries/CMSIS/NN/Source/ConvolutionFunctions/arm_convolve_HWC_q7_fast_nonsquare.c ****     q15_t    *pBuffer = bufferA;
 107:./Libraries/CMSIS/NN/Source/ConvolutionFunctions/arm_convolve_HWC_q7_fast_nonsquare.c ****     q7_t     *pOut = Im_out;
 108:./Libraries/CMSIS/NN/Source/ConvolutionFunctions/arm_convolve_HWC_q7_fast_nonsquare.c **** 
 109:./Libraries/CMSIS/NN/Source/ConvolutionFunctions/arm_convolve_HWC_q7_fast_nonsquare.c ****     if (ch_im_in % 4 != 0 || ch_im_out % 2 != 0)
  59              		.loc 1 109 22 view .LVU3
  60 000c 03F00303 		and	r3, r3, #3
  61              	.LVL1:
  94:./Libraries/CMSIS/NN/Source/ConvolutionFunctions/arm_convolve_HWC_q7_fast_nonsquare.c **** 
  62              		.loc 1 94 1 view .LVU4
ARM GAS  /tmp/ccef1Oo3.s 			page 4


  63 0010 8846     		mov	r8, r1
  64 0012 BDF8C060 		ldrh	r6, [sp, #192]
  65 0016 BDF8AC40 		ldrh	r4, [sp, #172]
  66 001a 0896     		str	r6, [sp, #32]
  67 001c BDF8C460 		ldrh	r6, [sp, #196]
  68 0020 08EE904A 		vmov	s17, r4	@ int
  69 0024 BDF8B850 		ldrh	r5, [sp, #184]
  70              		.loc 1 109 44 view .LVU5
  71 0028 04F00104 		and	r4, r4, #1
  94:./Libraries/CMSIS/NN/Source/ConvolutionFunctions/arm_convolve_HWC_q7_fast_nonsquare.c **** 
  72              		.loc 1 94 1 view .LVU6
  73 002c 1396     		str	r6, [sp, #76]
  99:./Libraries/CMSIS/NN/Source/ConvolutionFunctions/arm_convolve_HWC_q7_fast_nonsquare.c **** 
  74              		.loc 1 99 5 is_stmt 1 view .LVU7
 106:./Libraries/CMSIS/NN/Source/ConvolutionFunctions/arm_convolve_HWC_q7_fast_nonsquare.c ****     q7_t     *pOut = Im_out;
  75              		.loc 1 106 5 view .LVU8
  76              	.LVL2:
 107:./Libraries/CMSIS/NN/Source/ConvolutionFunctions/arm_convolve_HWC_q7_fast_nonsquare.c **** 
  77              		.loc 1 107 5 view .LVU9
  78              		.loc 1 109 5 view .LVU10
  94:./Libraries/CMSIS/NN/Source/ConvolutionFunctions/arm_convolve_HWC_q7_fast_nonsquare.c **** 
  79              		.loc 1 94 1 is_stmt 0 view .LVU11
  80 002e BDF8CC60 		ldrh	r6, [sp, #204]
  81              		.loc 1 109 27 view .LVU12
  82 0032 2343     		orrs	r3, r3, r4
  94:./Libraries/CMSIS/NN/Source/ConvolutionFunctions/arm_convolve_HWC_q7_fast_nonsquare.c **** 
  83              		.loc 1 94 1 view .LVU13
  84 0034 BDF8B010 		ldrh	r1, [sp, #176]
  85              	.LVL3:
  94:./Libraries/CMSIS/NN/Source/ConvolutionFunctions/arm_convolve_HWC_q7_fast_nonsquare.c **** 
  86              		.loc 1 94 1 view .LVU14
  87 0038 1296     		str	r6, [sp, #72]
  88 003a BDF8D060 		ldrh	r6, [sp, #208]
  89 003e 0490     		str	r0, [sp, #16]
  90 0040 1196     		str	r6, [sp, #68]
  91 0042 BDF8D860 		ldrh	r6, [sp, #216]
  92 0046 BDF8B400 		ldrh	r0, [sp, #180]
  93              	.LVL4:
  94:./Libraries/CMSIS/NN/Source/ConvolutionFunctions/arm_convolve_HWC_q7_fast_nonsquare.c **** 
  94              		.loc 1 94 1 view .LVU15
  95 004a 0A95     		str	r5, [sp, #40]
  96 004c 0C96     		str	r6, [sp, #48]
  97 004e BDF8BC50 		ldrh	r5, [sp, #188]
  98 0052 BDF8DC60 		ldrh	r6, [sp, #220]
  99 0056 1B92     		str	r2, [sp, #108]
 100 0058 0B91     		str	r1, [sp, #44]
 101 005a 1690     		str	r0, [sp, #88]
 102 005c 1595     		str	r5, [sp, #84]
 103 005e 1996     		str	r6, [sp, #100]
 104              		.loc 1 109 27 view .LVU16
 105 0060 40F06883 		bne	.L64
 106              	.LVL5:
 110:./Libraries/CMSIS/NN/Source/ConvolutionFunctions/arm_convolve_HWC_q7_fast_nonsquare.c ****     {
 111:./Libraries/CMSIS/NN/Source/ConvolutionFunctions/arm_convolve_HWC_q7_fast_nonsquare.c ****         /* check if the input dimension meets the constraints */
 112:./Libraries/CMSIS/NN/Source/ConvolutionFunctions/arm_convolve_HWC_q7_fast_nonsquare.c ****         return ARM_MATH_SIZE_MISMATCH;
 113:./Libraries/CMSIS/NN/Source/ConvolutionFunctions/arm_convolve_HWC_q7_fast_nonsquare.c ****     }
 114:./Libraries/CMSIS/NN/Source/ConvolutionFunctions/arm_convolve_HWC_q7_fast_nonsquare.c **** 
ARM GAS  /tmp/ccef1Oo3.s 			page 5


 115:./Libraries/CMSIS/NN/Source/ConvolutionFunctions/arm_convolve_HWC_q7_fast_nonsquare.c ****     /*
 116:./Libraries/CMSIS/NN/Source/ConvolutionFunctions/arm_convolve_HWC_q7_fast_nonsquare.c ****      *  Here we split the entire matrix into three regions depending on the padding situation
 117:./Libraries/CMSIS/NN/Source/ConvolutionFunctions/arm_convolve_HWC_q7_fast_nonsquare.c ****      *    Top: i_out_y from 0 to padding - 1
 118:./Libraries/CMSIS/NN/Source/ConvolutionFunctions/arm_convolve_HWC_q7_fast_nonsquare.c ****      * Middle: i_out_y from padding to dim_im_out-padding-1
 119:./Libraries/CMSIS/NN/Source/ConvolutionFunctions/arm_convolve_HWC_q7_fast_nonsquare.c ****      * Bottom: i_out_y from dim_im_out-padding to dim_im_out-1
 120:./Libraries/CMSIS/NN/Source/ConvolutionFunctions/arm_convolve_HWC_q7_fast_nonsquare.c ****      */
 121:./Libraries/CMSIS/NN/Source/ConvolutionFunctions/arm_convolve_HWC_q7_fast_nonsquare.c **** 
 122:./Libraries/CMSIS/NN/Source/ConvolutionFunctions/arm_convolve_HWC_q7_fast_nonsquare.c ****     /* top part */
 123:./Libraries/CMSIS/NN/Source/ConvolutionFunctions/arm_convolve_HWC_q7_fast_nonsquare.c ****     for (i_out_y = 0; i_out_y < padding_y; i_out_y++)
 107              		.loc 1 123 23 is_stmt 1 view .LVU17
 108              		.loc 1 123 5 is_stmt 0 view .LVU18
 109 0064 002D     		cmp	r5, #0
 110 0066 00F05F83 		beq	.L65
 111 006a 1746     		mov	r7, r2
 112              		.loc 1 123 18 view .LVU19
 113 006c 1E46     		mov	r6, r3
 124:./Libraries/CMSIS/NN/Source/ConvolutionFunctions/arm_convolve_HWC_q7_fast_nonsquare.c ****     {
 125:./Libraries/CMSIS/NN/Source/ConvolutionFunctions/arm_convolve_HWC_q7_fast_nonsquare.c ****         for (i_out_x = 0; i_out_x < dim_im_out_x; i_out_x++)
 126:./Libraries/CMSIS/NN/Source/ConvolutionFunctions/arm_convolve_HWC_q7_fast_nonsquare.c ****         {
 127:./Libraries/CMSIS/NN/Source/ConvolutionFunctions/arm_convolve_HWC_q7_fast_nonsquare.c ****             /* This part implements the im2col function */
 128:./Libraries/CMSIS/NN/Source/ConvolutionFunctions/arm_convolve_HWC_q7_fast_nonsquare.c ****             for (i_ker_y = i_out_y * stride_y - padding_y; i_ker_y < i_out_y * stride_y - padding_y
 129:./Libraries/CMSIS/NN/Source/ConvolutionFunctions/arm_convolve_HWC_q7_fast_nonsquare.c ****                  i_ker_y++)
 130:./Libraries/CMSIS/NN/Source/ConvolutionFunctions/arm_convolve_HWC_q7_fast_nonsquare.c ****             {
 131:./Libraries/CMSIS/NN/Source/ConvolutionFunctions/arm_convolve_HWC_q7_fast_nonsquare.c ****                 for (i_ker_x = i_out_x * stride_x - padding_x; i_ker_x < i_out_x * stride_x - paddi
 132:./Libraries/CMSIS/NN/Source/ConvolutionFunctions/arm_convolve_HWC_q7_fast_nonsquare.c ****                      i_ker_x++)
 133:./Libraries/CMSIS/NN/Source/ConvolutionFunctions/arm_convolve_HWC_q7_fast_nonsquare.c ****                 {
 134:./Libraries/CMSIS/NN/Source/ConvolutionFunctions/arm_convolve_HWC_q7_fast_nonsquare.c ****                     if (i_ker_y < 0 || i_ker_y >= dim_im_in_y || i_ker_x < 0 || i_ker_x >= dim_im_i
 135:./Libraries/CMSIS/NN/Source/ConvolutionFunctions/arm_convolve_HWC_q7_fast_nonsquare.c ****                     {
 136:./Libraries/CMSIS/NN/Source/ConvolutionFunctions/arm_convolve_HWC_q7_fast_nonsquare.c ****                         /* arm_fill_q15(0, pBuffer, ch_im_in); */
 137:./Libraries/CMSIS/NN/Source/ConvolutionFunctions/arm_convolve_HWC_q7_fast_nonsquare.c ****                         memset(pBuffer, 0, sizeof(q15_t)*ch_im_in);
 138:./Libraries/CMSIS/NN/Source/ConvolutionFunctions/arm_convolve_HWC_q7_fast_nonsquare.c ****                     } else
 139:./Libraries/CMSIS/NN/Source/ConvolutionFunctions/arm_convolve_HWC_q7_fast_nonsquare.c ****                     {
 140:./Libraries/CMSIS/NN/Source/ConvolutionFunctions/arm_convolve_HWC_q7_fast_nonsquare.c ****                         arm_q7_to_q15_reordered_no_shift((q7_t *) Im_in + (i_ker_y * dim_im_in_x + 
 141:./Libraries/CMSIS/NN/Source/ConvolutionFunctions/arm_convolve_HWC_q7_fast_nonsquare.c ****                                                          pBuffer, ch_im_in);
 142:./Libraries/CMSIS/NN/Source/ConvolutionFunctions/arm_convolve_HWC_q7_fast_nonsquare.c ****                     }
 143:./Libraries/CMSIS/NN/Source/ConvolutionFunctions/arm_convolve_HWC_q7_fast_nonsquare.c ****                     pBuffer += ch_im_in;
 144:./Libraries/CMSIS/NN/Source/ConvolutionFunctions/arm_convolve_HWC_q7_fast_nonsquare.c ****                 }
 145:./Libraries/CMSIS/NN/Source/ConvolutionFunctions/arm_convolve_HWC_q7_fast_nonsquare.c ****             }
 146:./Libraries/CMSIS/NN/Source/ConvolutionFunctions/arm_convolve_HWC_q7_fast_nonsquare.c **** 
 147:./Libraries/CMSIS/NN/Source/ConvolutionFunctions/arm_convolve_HWC_q7_fast_nonsquare.c ****             if (pBuffer == bufferA + 2 * ch_im_in * dim_kernel_x * dim_kernel_y)
 114              		.loc 1 147 36 view .LVU20
 115 006e 00FB01F2 		mul	r2, r0, r1
 116              	.LVL6:
 148:./Libraries/CMSIS/NN/Source/ConvolutionFunctions/arm_convolve_HWC_q7_fast_nonsquare.c ****             {
 149:./Libraries/CMSIS/NN/Source/ConvolutionFunctions/arm_convolve_HWC_q7_fast_nonsquare.c ****                 pOut =
 150:./Libraries/CMSIS/NN/Source/ConvolutionFunctions/arm_convolve_HWC_q7_fast_nonsquare.c ****                     arm_nn_mat_mult_kernel_q7_q15_reordered(wt, bufferA, ch_im_out, ch_im_in * dim_
 117              		.loc 1 150 21 view .LVU21
 118 0072 DDF8E0A0 		ldr	r10, [sp, #224]
 123:./Libraries/CMSIS/NN/Source/ConvolutionFunctions/arm_convolve_HWC_q7_fast_nonsquare.c ****     {
 119              		.loc 1 123 18 view .LVU22
 120 0076 1493     		str	r3, [sp, #80]
 121              		.loc 1 150 21 view .LVU23
 122 0078 11FB00F3 		smulbb	r3, r1, r0
 123 007c 6942     		rsbs	r1, r5, #0
 147:./Libraries/CMSIS/NN/Source/ConvolutionFunctions/arm_convolve_HWC_q7_fast_nonsquare.c ****             {
 124              		.loc 1 147 36 view .LVU24
 125 007e 0BFB02F2 		mul	r2, fp, r2
ARM GAS  /tmp/ccef1Oo3.s 			page 6


 126              		.loc 1 150 21 view .LVU25
 127 0082 13FB0BF3 		smulbb	r3, r3, fp
 128 0086 CDF81480 		str	r8, [sp, #20]
 129 008a 89B2     		uxth	r1, r1
 130 008c B846     		mov	r8, r7
 131 008e 9BB2     		uxth	r3, r3
 132 0090 CDF824B0 		str	fp, [sp, #36]
 133 0094 1791     		str	r1, [sp, #92]
 137:./Libraries/CMSIS/NN/Source/ConvolutionFunctions/arm_convolve_HWC_q7_fast_nonsquare.c ****                     } else
 134              		.loc 1 137 25 view .LVU26
 135 0096 4FEA4B09 		lsl	r9, fp, #1
 147:./Libraries/CMSIS/NN/Source/ConvolutionFunctions/arm_convolve_HWC_q7_fast_nonsquare.c ****             {
 136              		.loc 1 147 36 view .LVU27
 137 009a 3899     		ldr	r1, [sp, #224]
 138              		.loc 1 150 21 view .LVU28
 139 009c 08EE103A 		vmov	s16, r3	@ int
 147:./Libraries/CMSIS/NN/Source/ConvolutionFunctions/arm_convolve_HWC_q7_fast_nonsquare.c ****             {
 140              		.loc 1 147 36 view .LVU29
 141 00a0 01EB8201 		add	r1, r1, r2, lsl #2
 142 00a4 3246     		mov	r2, r6
 143 00a6 0F91     		str	r1, [sp, #60]
 144              	.LVL7:
 145              	.L4:
 125:./Libraries/CMSIS/NN/Source/ConvolutionFunctions/arm_convolve_HWC_q7_fast_nonsquare.c ****         {
 146              		.loc 1 125 27 is_stmt 1 view .LVU30
 125:./Libraries/CMSIS/NN/Source/ConvolutionFunctions/arm_convolve_HWC_q7_fast_nonsquare.c ****         {
 147              		.loc 1 125 9 is_stmt 0 view .LVU31
 148 00a8 0C9B     		ldr	r3, [sp, #48]
 149 00aa 002B     		cmp	r3, #0
 150 00ac 65D0     		beq	.L15
 128:./Libraries/CMSIS/NN/Source/ConvolutionFunctions/arm_convolve_HWC_q7_fast_nonsquare.c ****                  i_ker_y++)
 151              		.loc 1 128 89 view .LVU32
 152 00ae 139B     		ldr	r3, [sp, #76]
 153 00b0 1699     		ldr	r1, [sp, #88]
 128:./Libraries/CMSIS/NN/Source/ConvolutionFunctions/arm_convolve_HWC_q7_fast_nonsquare.c ****                  i_ker_y++)
 154              		.loc 1 128 26 view .LVU33
 155 00b2 BDF95C00 		ldrsh	r0, [sp, #92]
 128:./Libraries/CMSIS/NN/Source/ConvolutionFunctions/arm_convolve_HWC_q7_fast_nonsquare.c ****                  i_ker_y++)
 156              		.loc 1 128 89 view .LVU34
 157 00b6 02FB0312 		mla	r2, r2, r3, r1
 158 00ba 0A9B     		ldr	r3, [sp, #40]
 128:./Libraries/CMSIS/NN/Source/ConvolutionFunctions/arm_convolve_HWC_q7_fast_nonsquare.c ****                  i_ker_y++)
 159              		.loc 1 128 26 view .LVU35
 160 00bc 1090     		str	r0, [sp, #64]
 128:./Libraries/CMSIS/NN/Source/ConvolutionFunctions/arm_convolve_HWC_q7_fast_nonsquare.c ****                  i_ker_y++)
 161              		.loc 1 128 101 view .LVU36
 162 00be 1598     		ldr	r0, [sp, #84]
 163 00c0 5942     		rsbs	r1, r3, #0
 125:./Libraries/CMSIS/NN/Source/ConvolutionFunctions/arm_convolve_HWC_q7_fast_nonsquare.c ****         {
 164              		.loc 1 125 22 view .LVU37
 165 00c2 0023     		movs	r3, #0
 128:./Libraries/CMSIS/NN/Source/ConvolutionFunctions/arm_convolve_HWC_q7_fast_nonsquare.c ****                  i_ker_y++)
 166              		.loc 1 128 101 view .LVU38
 167 00c4 121A     		subs	r2, r2, r0
 125:./Libraries/CMSIS/NN/Source/ConvolutionFunctions/arm_convolve_HWC_q7_fast_nonsquare.c ****         {
 168              		.loc 1 125 22 view .LVU39
 169 00c6 0E93     		str	r3, [sp, #56]
ARM GAS  /tmp/ccef1Oo3.s 			page 7


 128:./Libraries/CMSIS/NN/Source/ConvolutionFunctions/arm_convolve_HWC_q7_fast_nonsquare.c ****                  i_ker_y++)
 170              		.loc 1 128 101 view .LVU40
 171 00c8 0792     		str	r2, [sp, #28]
 172 00ca 8AB2     		uxth	r2, r1
 173 00cc 0D92     		str	r2, [sp, #52]
 125:./Libraries/CMSIS/NN/Source/ConvolutionFunctions/arm_convolve_HWC_q7_fast_nonsquare.c ****         {
 174              		.loc 1 125 35 view .LVU41
 175 00ce 1A46     		mov	r2, r3
 176              	.LVL8:
 177              	.L13:
 128:./Libraries/CMSIS/NN/Source/ConvolutionFunctions/arm_convolve_HWC_q7_fast_nonsquare.c ****                  i_ker_y++)
 178              		.loc 1 128 13 is_stmt 1 view .LVU42
 128:./Libraries/CMSIS/NN/Source/ConvolutionFunctions/arm_convolve_HWC_q7_fast_nonsquare.c ****                  i_ker_y++)
 179              		.loc 1 128 60 view .LVU43
 128:./Libraries/CMSIS/NN/Source/ConvolutionFunctions/arm_convolve_HWC_q7_fast_nonsquare.c ****                  i_ker_y++)
 180              		.loc 1 128 13 is_stmt 0 view .LVU44
 181 00d0 109B     		ldr	r3, [sp, #64]
 182 00d2 0798     		ldr	r0, [sp, #28]
 183 00d4 8342     		cmp	r3, r0
 184 00d6 3EDA     		bge	.L5
 131:./Libraries/CMSIS/NN/Source/ConvolutionFunctions/arm_convolve_HWC_q7_fast_nonsquare.c ****                      i_ker_x++)
 185              		.loc 1 131 93 view .LVU45
 186 00d8 0899     		ldr	r1, [sp, #32]
 128:./Libraries/CMSIS/NN/Source/ConvolutionFunctions/arm_convolve_HWC_q7_fast_nonsquare.c ****                  i_ker_y++)
 187              		.loc 1 128 26 view .LVU46
 188 00da 1D46     		mov	r5, r3
 131:./Libraries/CMSIS/NN/Source/ConvolutionFunctions/arm_convolve_HWC_q7_fast_nonsquare.c ****                      i_ker_x++)
 189              		.loc 1 131 93 view .LVU47
 190 00dc 0B98     		ldr	r0, [sp, #44]
 131:./Libraries/CMSIS/NN/Source/ConvolutionFunctions/arm_convolve_HWC_q7_fast_nonsquare.c ****                      i_ker_x++)
 191              		.loc 1 131 105 view .LVU48
 192 00de 1F46     		mov	r7, r3
 193 00e0 0A9B     		ldr	r3, [sp, #40]
 131:./Libraries/CMSIS/NN/Source/ConvolutionFunctions/arm_convolve_HWC_q7_fast_nonsquare.c ****                      i_ker_x++)
 194              		.loc 1 131 93 view .LVU49
 195 00e2 02FB0102 		mla	r2, r2, r1, r0
 131:./Libraries/CMSIS/NN/Source/ConvolutionFunctions/arm_convolve_HWC_q7_fast_nonsquare.c ****                      i_ker_x++)
 196              		.loc 1 131 30 view .LVU50
 197 00e6 BDF934B0 		ldrsh	fp, [sp, #52]
 131:./Libraries/CMSIS/NN/Source/ConvolutionFunctions/arm_convolve_HWC_q7_fast_nonsquare.c ****                      i_ker_x++)
 198              		.loc 1 131 105 view .LVU51
 199 00ea D61A     		subs	r6, r2, r3
 200              	.LVL9:
 201              	.L11:
 131:./Libraries/CMSIS/NN/Source/ConvolutionFunctions/arm_convolve_HWC_q7_fast_nonsquare.c ****                      i_ker_x++)
 202              		.loc 1 131 17 is_stmt 1 view .LVU52
 131:./Libraries/CMSIS/NN/Source/ConvolutionFunctions/arm_convolve_HWC_q7_fast_nonsquare.c ****                      i_ker_x++)
 203              		.loc 1 131 64 view .LVU53
 131:./Libraries/CMSIS/NN/Source/ConvolutionFunctions/arm_convolve_HWC_q7_fast_nonsquare.c ****                      i_ker_x++)
 204              		.loc 1 131 17 is_stmt 0 view .LVU54
 205 00ec B345     		cmp	fp, r6
 206 00ee 2CDA     		bge	.L6
 140:./Libraries/CMSIS/NN/Source/ConvolutionFunctions/arm_convolve_HWC_q7_fast_nonsquare.c ****                                                          pBuffer, ch_im_in);
 207              		.loc 1 140 84 view .LVU55
 208 00f0 059B     		ldr	r3, [sp, #20]
 131:./Libraries/CMSIS/NN/Source/ConvolutionFunctions/arm_convolve_HWC_q7_fast_nonsquare.c ****                      i_ker_x++)
 209              		.loc 1 131 30 view .LVU56
ARM GAS  /tmp/ccef1Oo3.s 			page 8


 210 00f2 5C46     		mov	r4, fp
 140:./Libraries/CMSIS/NN/Source/ConvolutionFunctions/arm_convolve_HWC_q7_fast_nonsquare.c ****                                                          pBuffer, ch_im_in);
 211              		.loc 1 140 84 view .LVU57
 212 00f4 DC46     		mov	ip, fp
 213 00f6 07FB03F3 		mul	r3, r7, r3
 214 00fa 0693     		str	r3, [sp, #24]
 215 00fc 07E0     		b	.L10
 216              	.LVL10:
 217              	.L7:
 140:./Libraries/CMSIS/NN/Source/ConvolutionFunctions/arm_convolve_HWC_q7_fast_nonsquare.c ****                                                          pBuffer, ch_im_in);
 218              		.loc 1 140 84 view .LVU58
 219 00fe 0134     		adds	r4, r4, #1
 220              	.LVL11:
 137:./Libraries/CMSIS/NN/Source/ConvolutionFunctions/arm_convolve_HWC_q7_fast_nonsquare.c ****                     } else
 221              		.loc 1 137 25 view .LVU59
 222 0100 FFF7FEFF 		bl	memset
 223              	.LVL12:
 143:./Libraries/CMSIS/NN/Source/ConvolutionFunctions/arm_convolve_HWC_q7_fast_nonsquare.c ****                 }
 224              		.loc 1 143 21 is_stmt 1 view .LVU60
 143:./Libraries/CMSIS/NN/Source/ConvolutionFunctions/arm_convolve_HWC_q7_fast_nonsquare.c ****                 }
 225              		.loc 1 143 29 is_stmt 0 view .LVU61
 226 0104 CA44     		add	r10, r10, r9
 227              	.LVL13:
 132:./Libraries/CMSIS/NN/Source/ConvolutionFunctions/arm_convolve_HWC_q7_fast_nonsquare.c ****                 {
 228              		.loc 1 132 22 is_stmt 1 view .LVU62
 229 0106 24B2     		sxth	r4, r4
 230              	.LVL14:
 131:./Libraries/CMSIS/NN/Source/ConvolutionFunctions/arm_convolve_HWC_q7_fast_nonsquare.c ****                      i_ker_x++)
 231              		.loc 1 131 64 view .LVU63
 131:./Libraries/CMSIS/NN/Source/ConvolutionFunctions/arm_convolve_HWC_q7_fast_nonsquare.c ****                      i_ker_x++)
 232              		.loc 1 131 17 is_stmt 0 view .LVU64
 233 0108 B442     		cmp	r4, r6
 131:./Libraries/CMSIS/NN/Source/ConvolutionFunctions/arm_convolve_HWC_q7_fast_nonsquare.c ****                      i_ker_x++)
 234              		.loc 1 131 72 view .LVU65
 235 010a A446     		mov	ip, r4
 131:./Libraries/CMSIS/NN/Source/ConvolutionFunctions/arm_convolve_HWC_q7_fast_nonsquare.c ****                      i_ker_x++)
 236              		.loc 1 131 17 view .LVU66
 237 010c 1DDA     		bge	.L6
 238              	.LVL15:
 239              	.L10:
 134:./Libraries/CMSIS/NN/Source/ConvolutionFunctions/arm_convolve_HWC_q7_fast_nonsquare.c ****                     {
 240              		.loc 1 134 21 is_stmt 1 view .LVU67
 137:./Libraries/CMSIS/NN/Source/ConvolutionFunctions/arm_convolve_HWC_q7_fast_nonsquare.c ****                     } else
 241              		.loc 1 137 25 view .LVU68
 134:./Libraries/CMSIS/NN/Source/ConvolutionFunctions/arm_convolve_HWC_q7_fast_nonsquare.c ****                     {
 242              		.loc 1 134 24 is_stmt 0 view .LVU69
 243 010e 002D     		cmp	r5, #0
 137:./Libraries/CMSIS/NN/Source/ConvolutionFunctions/arm_convolve_HWC_q7_fast_nonsquare.c ****                     } else
 244              		.loc 1 137 25 view .LVU70
 245 0110 4A46     		mov	r2, r9
 246 0112 4FF00001 		mov	r1, #0
 247 0116 5046     		mov	r0, r10
 134:./Libraries/CMSIS/NN/Source/ConvolutionFunctions/arm_convolve_HWC_q7_fast_nonsquare.c ****                     {
 248              		.loc 1 134 24 view .LVU71
 249 0118 F1DB     		blt	.L7
 250              	.LVL16:
 134:./Libraries/CMSIS/NN/Source/ConvolutionFunctions/arm_convolve_HWC_q7_fast_nonsquare.c ****                     {
ARM GAS  /tmp/ccef1Oo3.s 			page 9


 251              		.loc 1 134 63 discriminator 1 view .LVU72
 252 011a B845     		cmp	r8, r7
 253 011c EFDD     		ble	.L7
 254 011e 8C42     		cmp	r4, r1
 255 0120 EDDB     		blt	.L7
 134:./Libraries/CMSIS/NN/Source/ConvolutionFunctions/arm_convolve_HWC_q7_fast_nonsquare.c ****                     {
 256              		.loc 1 134 78 discriminator 3 view .LVU73
 257 0122 059B     		ldr	r3, [sp, #20]
 258 0124 6345     		cmp	r3, ip
 259 0126 EADD     		ble	.L7
 140:./Libraries/CMSIS/NN/Source/ConvolutionFunctions/arm_convolve_HWC_q7_fast_nonsquare.c ****                                                          pBuffer, ch_im_in);
 260              		.loc 1 140 25 is_stmt 1 view .LVU74
 140:./Libraries/CMSIS/NN/Source/ConvolutionFunctions/arm_convolve_HWC_q7_fast_nonsquare.c ****                                                          pBuffer, ch_im_in);
 261              		.loc 1 140 98 is_stmt 0 view .LVU75
 262 0128 069B     		ldr	r3, [sp, #24]
 263 012a 0134     		adds	r4, r4, #1
 264              	.LVL17:
 140:./Libraries/CMSIS/NN/Source/ConvolutionFunctions/arm_convolve_HWC_q7_fast_nonsquare.c ****                                                          pBuffer, ch_im_in);
 265              		.loc 1 140 25 view .LVU76
 266 012c 5146     		mov	r1, r10
 143:./Libraries/CMSIS/NN/Source/ConvolutionFunctions/arm_convolve_HWC_q7_fast_nonsquare.c ****                 }
 267              		.loc 1 143 29 view .LVU77
 268 012e CA44     		add	r10, r10, r9
 140:./Libraries/CMSIS/NN/Source/ConvolutionFunctions/arm_convolve_HWC_q7_fast_nonsquare.c ****                                                          pBuffer, ch_im_in);
 269              		.loc 1 140 98 view .LVU78
 270 0130 03EB0C00 		add	r0, r3, ip
 271              	.LVL18:
 140:./Libraries/CMSIS/NN/Source/ConvolutionFunctions/arm_convolve_HWC_q7_fast_nonsquare.c ****                                                          pBuffer, ch_im_in);
 272              		.loc 1 140 25 view .LVU79
 273 0134 099B     		ldr	r3, [sp, #36]
 274 0136 24B2     		sxth	r4, r4
 275 0138 1A46     		mov	r2, r3
 276 013a 049B     		ldr	r3, [sp, #16]
 277 013c 02FB0030 		mla	r0, r2, r0, r3
 278 0140 FFF7FEFF 		bl	arm_q7_to_q15_reordered_no_shift
 279              	.LVL19:
 143:./Libraries/CMSIS/NN/Source/ConvolutionFunctions/arm_convolve_HWC_q7_fast_nonsquare.c ****                 }
 280              		.loc 1 143 21 is_stmt 1 view .LVU80
 132:./Libraries/CMSIS/NN/Source/ConvolutionFunctions/arm_convolve_HWC_q7_fast_nonsquare.c ****                 {
 281              		.loc 1 132 22 view .LVU81
 131:./Libraries/CMSIS/NN/Source/ConvolutionFunctions/arm_convolve_HWC_q7_fast_nonsquare.c ****                      i_ker_x++)
 282              		.loc 1 131 64 view .LVU82
 131:./Libraries/CMSIS/NN/Source/ConvolutionFunctions/arm_convolve_HWC_q7_fast_nonsquare.c ****                      i_ker_x++)
 283              		.loc 1 131 17 is_stmt 0 view .LVU83
 284 0144 B442     		cmp	r4, r6
 131:./Libraries/CMSIS/NN/Source/ConvolutionFunctions/arm_convolve_HWC_q7_fast_nonsquare.c ****                      i_ker_x++)
 285              		.loc 1 131 72 view .LVU84
 286 0146 A446     		mov	ip, r4
 131:./Libraries/CMSIS/NN/Source/ConvolutionFunctions/arm_convolve_HWC_q7_fast_nonsquare.c ****                      i_ker_x++)
 287              		.loc 1 131 17 view .LVU85
 288 0148 E1DB     		blt	.L10
 289              	.LVL20:
 290              	.L6:
 129:./Libraries/CMSIS/NN/Source/ConvolutionFunctions/arm_convolve_HWC_q7_fast_nonsquare.c ****             {
 291              		.loc 1 129 18 is_stmt 1 view .LVU86
 292 014a 0135     		adds	r5, r5, #1
 293              	.LVL21:
ARM GAS  /tmp/ccef1Oo3.s 			page 10


 128:./Libraries/CMSIS/NN/Source/ConvolutionFunctions/arm_convolve_HWC_q7_fast_nonsquare.c ****                  i_ker_y++)
 294              		.loc 1 128 13 is_stmt 0 view .LVU87
 295 014c 079B     		ldr	r3, [sp, #28]
 296 014e 2DB2     		sxth	r5, r5
 297              	.LVL22:
 128:./Libraries/CMSIS/NN/Source/ConvolutionFunctions/arm_convolve_HWC_q7_fast_nonsquare.c ****                  i_ker_y++)
 298              		.loc 1 128 60 is_stmt 1 view .LVU88
 128:./Libraries/CMSIS/NN/Source/ConvolutionFunctions/arm_convolve_HWC_q7_fast_nonsquare.c ****                  i_ker_y++)
 299              		.loc 1 128 13 is_stmt 0 view .LVU89
 300 0150 9D42     		cmp	r5, r3
 128:./Libraries/CMSIS/NN/Source/ConvolutionFunctions/arm_convolve_HWC_q7_fast_nonsquare.c ****                  i_ker_y++)
 301              		.loc 1 128 68 view .LVU90
 302 0152 2F46     		mov	r7, r5
 128:./Libraries/CMSIS/NN/Source/ConvolutionFunctions/arm_convolve_HWC_q7_fast_nonsquare.c ****                  i_ker_y++)
 303              		.loc 1 128 13 view .LVU91
 304 0154 CADB     		blt	.L11
 305              	.LVL23:
 306              	.L5:
 147:./Libraries/CMSIS/NN/Source/ConvolutionFunctions/arm_convolve_HWC_q7_fast_nonsquare.c ****             {
 307              		.loc 1 147 13 is_stmt 1 view .LVU92
 147:./Libraries/CMSIS/NN/Source/ConvolutionFunctions/arm_convolve_HWC_q7_fast_nonsquare.c ****             {
 308              		.loc 1 147 16 is_stmt 0 view .LVU93
 309 0156 0F9B     		ldr	r3, [sp, #60]
 310 0158 5345     		cmp	r3, r10
 311 015a 00F0C982 		beq	.L93
 312              	.L12:
 125:./Libraries/CMSIS/NN/Source/ConvolutionFunctions/arm_convolve_HWC_q7_fast_nonsquare.c ****         {
 313              		.loc 1 125 51 is_stmt 1 discriminator 2 view .LVU94
 314 015e 0E99     		ldr	r1, [sp, #56]
 315 0160 0D9B     		ldr	r3, [sp, #52]
 316 0162 0898     		ldr	r0, [sp, #32]
 317 0164 0131     		adds	r1, r1, #1
 318 0166 0344     		add	r3, r3, r0
 319 0168 1A46     		mov	r2, r3
 320 016a 0BB2     		sxth	r3, r1
 125:./Libraries/CMSIS/NN/Source/ConvolutionFunctions/arm_convolve_HWC_q7_fast_nonsquare.c ****         {
 321              		.loc 1 125 9 is_stmt 0 discriminator 2 view .LVU95
 322 016c 0C99     		ldr	r1, [sp, #48]
 323 016e 92B2     		uxth	r2, r2
 324 0170 0E93     		str	r3, [sp, #56]
 325              	.LVL24:
 125:./Libraries/CMSIS/NN/Source/ConvolutionFunctions/arm_convolve_HWC_q7_fast_nonsquare.c ****         {
 326              		.loc 1 125 27 is_stmt 1 discriminator 2 view .LVU96
 125:./Libraries/CMSIS/NN/Source/ConvolutionFunctions/arm_convolve_HWC_q7_fast_nonsquare.c ****         {
 327              		.loc 1 125 9 is_stmt 0 discriminator 2 view .LVU97
 328 0172 8B42     		cmp	r3, r1
 329 0174 0D92     		str	r2, [sp, #52]
 125:./Libraries/CMSIS/NN/Source/ConvolutionFunctions/arm_convolve_HWC_q7_fast_nonsquare.c ****         {
 330              		.loc 1 125 35 discriminator 2 view .LVU98
 331 0176 1A46     		mov	r2, r3
 125:./Libraries/CMSIS/NN/Source/ConvolutionFunctions/arm_convolve_HWC_q7_fast_nonsquare.c ****         {
 332              		.loc 1 125 9 discriminator 2 view .LVU99
 333 0178 AADB     		blt	.L13
 334              	.LVL25:
 335              	.L15:
 123:./Libraries/CMSIS/NN/Source/ConvolutionFunctions/arm_convolve_HWC_q7_fast_nonsquare.c ****     {
 336              		.loc 1 123 44 is_stmt 1 discriminator 2 view .LVU100
ARM GAS  /tmp/ccef1Oo3.s 			page 11


 337 017a 1499     		ldr	r1, [sp, #80]
 338 017c 179B     		ldr	r3, [sp, #92]
 339 017e 1398     		ldr	r0, [sp, #76]
 340 0180 0131     		adds	r1, r1, #1
 341 0182 0344     		add	r3, r3, r0
 342 0184 1A46     		mov	r2, r3
 343 0186 0BB2     		sxth	r3, r1
 123:./Libraries/CMSIS/NN/Source/ConvolutionFunctions/arm_convolve_HWC_q7_fast_nonsquare.c ****     {
 344              		.loc 1 123 5 is_stmt 0 discriminator 2 view .LVU101
 345 0188 1599     		ldr	r1, [sp, #84]
 346 018a 92B2     		uxth	r2, r2
 347 018c 1493     		str	r3, [sp, #80]
 348              	.LVL26:
 123:./Libraries/CMSIS/NN/Source/ConvolutionFunctions/arm_convolve_HWC_q7_fast_nonsquare.c ****     {
 349              		.loc 1 123 23 is_stmt 1 discriminator 2 view .LVU102
 123:./Libraries/CMSIS/NN/Source/ConvolutionFunctions/arm_convolve_HWC_q7_fast_nonsquare.c ****     {
 350              		.loc 1 123 5 is_stmt 0 discriminator 2 view .LVU103
 351 018e 8B42     		cmp	r3, r1
 352 0190 1792     		str	r2, [sp, #92]
 123:./Libraries/CMSIS/NN/Source/ConvolutionFunctions/arm_convolve_HWC_q7_fast_nonsquare.c ****     {
 353              		.loc 1 123 31 discriminator 2 view .LVU104
 354 0192 1A46     		mov	r2, r3
 123:./Libraries/CMSIS/NN/Source/ConvolutionFunctions/arm_convolve_HWC_q7_fast_nonsquare.c ****     {
 355              		.loc 1 123 5 discriminator 2 view .LVU105
 356 0194 88DB     		blt	.L4
 123:./Libraries/CMSIS/NN/Source/ConvolutionFunctions/arm_convolve_HWC_q7_fast_nonsquare.c ****     {
 357              		.loc 1 123 5 discriminator 2 view .LVU106
 358 0196 DDF81480 		ldr	r8, [sp, #20]
 359 019a DDF824B0 		ldr	fp, [sp, #36]
 360 019e 1793     		str	r3, [sp, #92]
 361              	.LVL27:
 362              	.L3:
 151:./Libraries/CMSIS/NN/Source/ConvolutionFunctions/arm_convolve_HWC_q7_fast_nonsquare.c ****                                                   bias_shift, out_shift, bias, pOut);
 152:./Libraries/CMSIS/NN/Source/ConvolutionFunctions/arm_convolve_HWC_q7_fast_nonsquare.c ****                 /* counter reset */
 153:./Libraries/CMSIS/NN/Source/ConvolutionFunctions/arm_convolve_HWC_q7_fast_nonsquare.c ****                 pBuffer = bufferA;
 154:./Libraries/CMSIS/NN/Source/ConvolutionFunctions/arm_convolve_HWC_q7_fast_nonsquare.c ****             }
 155:./Libraries/CMSIS/NN/Source/ConvolutionFunctions/arm_convolve_HWC_q7_fast_nonsquare.c ****         }
 156:./Libraries/CMSIS/NN/Source/ConvolutionFunctions/arm_convolve_HWC_q7_fast_nonsquare.c ****     }
 157:./Libraries/CMSIS/NN/Source/ConvolutionFunctions/arm_convolve_HWC_q7_fast_nonsquare.c **** 
 158:./Libraries/CMSIS/NN/Source/ConvolutionFunctions/arm_convolve_HWC_q7_fast_nonsquare.c ****     /* middle part, here we also divide the x into left, mid and right */
 159:./Libraries/CMSIS/NN/Source/ConvolutionFunctions/arm_convolve_HWC_q7_fast_nonsquare.c ****     for (; i_out_y < dim_im_out_y - padding_y; i_out_y++)
 363              		.loc 1 159 12 is_stmt 1 view .LVU107
 364              		.loc 1 159 35 is_stmt 0 view .LVU108
 365 01a0 199B     		ldr	r3, [sp, #100]
 366 01a2 159C     		ldr	r4, [sp, #84]
 367              		.loc 1 159 5 view .LVU109
 368 01a4 179A     		ldr	r2, [sp, #92]
 369              		.loc 1 159 35 view .LVU110
 370 01a6 1B1B     		subs	r3, r3, r4
 371              		.loc 1 159 5 view .LVU111
 372 01a8 9A42     		cmp	r2, r3
 373              		.loc 1 159 35 view .LVU112
 374 01aa 1A93     		str	r3, [sp, #104]
 375              		.loc 1 159 5 view .LVU113
 376 01ac 80F24081 		bge	.L16
 160:./Libraries/CMSIS/NN/Source/ConvolutionFunctions/arm_convolve_HWC_q7_fast_nonsquare.c ****     {
 161:./Libraries/CMSIS/NN/Source/ConvolutionFunctions/arm_convolve_HWC_q7_fast_nonsquare.c **** 
ARM GAS  /tmp/ccef1Oo3.s 			page 12


 162:./Libraries/CMSIS/NN/Source/ConvolutionFunctions/arm_convolve_HWC_q7_fast_nonsquare.c ****         /* left part */
 163:./Libraries/CMSIS/NN/Source/ConvolutionFunctions/arm_convolve_HWC_q7_fast_nonsquare.c ****         for (i_out_x = 0; i_out_x < padding_x; i_out_x++)
 164:./Libraries/CMSIS/NN/Source/ConvolutionFunctions/arm_convolve_HWC_q7_fast_nonsquare.c ****         {
 165:./Libraries/CMSIS/NN/Source/ConvolutionFunctions/arm_convolve_HWC_q7_fast_nonsquare.c ****             /* This part implements the im2col function */
 166:./Libraries/CMSIS/NN/Source/ConvolutionFunctions/arm_convolve_HWC_q7_fast_nonsquare.c ****             for (i_ker_y = i_out_y * stride_y - padding_y; i_ker_y < i_out_y * stride_y - padding_y
 167:./Libraries/CMSIS/NN/Source/ConvolutionFunctions/arm_convolve_HWC_q7_fast_nonsquare.c ****                  i_ker_y++)
 168:./Libraries/CMSIS/NN/Source/ConvolutionFunctions/arm_convolve_HWC_q7_fast_nonsquare.c ****             {
 169:./Libraries/CMSIS/NN/Source/ConvolutionFunctions/arm_convolve_HWC_q7_fast_nonsquare.c ****                 for (i_ker_x = i_out_x * stride_x - padding_x; i_ker_x < i_out_x * stride_x - paddi
 170:./Libraries/CMSIS/NN/Source/ConvolutionFunctions/arm_convolve_HWC_q7_fast_nonsquare.c ****                      i_ker_x++)
 171:./Libraries/CMSIS/NN/Source/ConvolutionFunctions/arm_convolve_HWC_q7_fast_nonsquare.c ****                 {
 172:./Libraries/CMSIS/NN/Source/ConvolutionFunctions/arm_convolve_HWC_q7_fast_nonsquare.c ****                     if (i_ker_x < 0 || i_ker_x >= dim_im_in_x)
 173:./Libraries/CMSIS/NN/Source/ConvolutionFunctions/arm_convolve_HWC_q7_fast_nonsquare.c ****                     {
 174:./Libraries/CMSIS/NN/Source/ConvolutionFunctions/arm_convolve_HWC_q7_fast_nonsquare.c ****                         /* arm_fill_q15(0, pBuffer, ch_im_in); */
 175:./Libraries/CMSIS/NN/Source/ConvolutionFunctions/arm_convolve_HWC_q7_fast_nonsquare.c ****                         memset(pBuffer, 0, sizeof(q15_t)*ch_im_in);
 176:./Libraries/CMSIS/NN/Source/ConvolutionFunctions/arm_convolve_HWC_q7_fast_nonsquare.c ****                     } else
 177:./Libraries/CMSIS/NN/Source/ConvolutionFunctions/arm_convolve_HWC_q7_fast_nonsquare.c ****                     {
 178:./Libraries/CMSIS/NN/Source/ConvolutionFunctions/arm_convolve_HWC_q7_fast_nonsquare.c ****                         arm_q7_to_q15_reordered_no_shift((q7_t *) Im_in + (i_ker_y * dim_im_in_x + 
 179:./Libraries/CMSIS/NN/Source/ConvolutionFunctions/arm_convolve_HWC_q7_fast_nonsquare.c ****                                                          pBuffer, ch_im_in);
 180:./Libraries/CMSIS/NN/Source/ConvolutionFunctions/arm_convolve_HWC_q7_fast_nonsquare.c ****                     }
 181:./Libraries/CMSIS/NN/Source/ConvolutionFunctions/arm_convolve_HWC_q7_fast_nonsquare.c ****                     pBuffer += ch_im_in;
 182:./Libraries/CMSIS/NN/Source/ConvolutionFunctions/arm_convolve_HWC_q7_fast_nonsquare.c ****                 }
 183:./Libraries/CMSIS/NN/Source/ConvolutionFunctions/arm_convolve_HWC_q7_fast_nonsquare.c ****             }
 184:./Libraries/CMSIS/NN/Source/ConvolutionFunctions/arm_convolve_HWC_q7_fast_nonsquare.c **** 
 185:./Libraries/CMSIS/NN/Source/ConvolutionFunctions/arm_convolve_HWC_q7_fast_nonsquare.c ****             if (pBuffer == bufferA + 2 * ch_im_in * dim_kernel_x * dim_kernel_y)
 377              		.loc 1 185 51 view .LVU114
 378 01b0 0B9B     		ldr	r3, [sp, #44]
 175:./Libraries/CMSIS/NN/Source/ConvolutionFunctions/arm_convolve_HWC_q7_fast_nonsquare.c ****                     } else
 379              		.loc 1 175 25 view .LVU115
 380 01b2 4FEA4B09 		lsl	r9, fp, #1
 186:./Libraries/CMSIS/NN/Source/ConvolutionFunctions/arm_convolve_HWC_q7_fast_nonsquare.c ****             {
 187:./Libraries/CMSIS/NN/Source/ConvolutionFunctions/arm_convolve_HWC_q7_fast_nonsquare.c ****                 pOut =
 188:./Libraries/CMSIS/NN/Source/ConvolutionFunctions/arm_convolve_HWC_q7_fast_nonsquare.c ****                     arm_nn_mat_mult_kernel_q7_q15_reordered(wt, bufferA, ch_im_out, ch_im_in * dim_
 381              		.loc 1 188 21 view .LVU116
 382 01b6 169D     		ldr	r5, [sp, #88]
 383 01b8 5746     		mov	r7, r10
 185:./Libraries/CMSIS/NN/Source/ConvolutionFunctions/arm_convolve_HWC_q7_fast_nonsquare.c ****             {
 384              		.loc 1 185 51 view .LVU117
 385 01ba 0BFB03F1 		mul	r1, fp, r3
 386 01be 0A98     		ldr	r0, [sp, #40]
 387              		.loc 1 188 21 view .LVU118
 388 01c0 13FB05F2 		smulbb	r2, r3, r5
 389 01c4 0C9B     		ldr	r3, [sp, #48]
 185:./Libraries/CMSIS/NN/Source/ConvolutionFunctions/arm_convolve_HWC_q7_fast_nonsquare.c ****             {
 390              		.loc 1 185 51 view .LVU119
 391 01c6 08EE101A 		vmov	s16, r1	@ int
 392              		.loc 1 188 21 view .LVU120
 393 01ca 12FB0BF2 		smulbb	r2, r2, fp
 394 01ce 1B1A     		subs	r3, r3, r0
 395 01d0 0F93     		str	r3, [sp, #60]
 396 01d2 92B2     		uxth	r2, r2
 397 01d4 DDE91303 		ldrd	r0, r3, [sp, #76]
 398 01d8 09EE102A 		vmov	s18, r2	@ int
 399 01dc 13FB00F3 		smulbb	r3, r3, r0
 185:./Libraries/CMSIS/NN/Source/ConvolutionFunctions/arm_convolve_HWC_q7_fast_nonsquare.c ****             {
 400              		.loc 1 185 36 view .LVU121
 401 01e0 0846     		mov	r0, r1
 402 01e2 01FB05F1 		mul	r1, r1, r5
ARM GAS  /tmp/ccef1Oo3.s 			page 13


 189:./Libraries/CMSIS/NN/Source/ConvolutionFunctions/arm_convolve_HWC_q7_fast_nonsquare.c ****                                                   bias_shift, out_shift, bias, pOut);
 190:./Libraries/CMSIS/NN/Source/ConvolutionFunctions/arm_convolve_HWC_q7_fast_nonsquare.c ****                 /* counter reset */
 191:./Libraries/CMSIS/NN/Source/ConvolutionFunctions/arm_convolve_HWC_q7_fast_nonsquare.c ****                 pBuffer = bufferA;
 192:./Libraries/CMSIS/NN/Source/ConvolutionFunctions/arm_convolve_HWC_q7_fast_nonsquare.c ****             }
 193:./Libraries/CMSIS/NN/Source/ConvolutionFunctions/arm_convolve_HWC_q7_fast_nonsquare.c ****         }
 194:./Libraries/CMSIS/NN/Source/ConvolutionFunctions/arm_convolve_HWC_q7_fast_nonsquare.c **** 
 195:./Libraries/CMSIS/NN/Source/ConvolutionFunctions/arm_convolve_HWC_q7_fast_nonsquare.c ****         /* mid part */
 196:./Libraries/CMSIS/NN/Source/ConvolutionFunctions/arm_convolve_HWC_q7_fast_nonsquare.c ****         for (; i_out_x < dim_im_out_x - padding_x; i_out_x++)
 197:./Libraries/CMSIS/NN/Source/ConvolutionFunctions/arm_convolve_HWC_q7_fast_nonsquare.c ****         {
 198:./Libraries/CMSIS/NN/Source/ConvolutionFunctions/arm_convolve_HWC_q7_fast_nonsquare.c ****             /* This part implements the im2col function */
 199:./Libraries/CMSIS/NN/Source/ConvolutionFunctions/arm_convolve_HWC_q7_fast_nonsquare.c ****             for (i_ker_y = i_out_y * stride_y - padding_y; i_ker_y < i_out_y * stride_y - padding_y
 200:./Libraries/CMSIS/NN/Source/ConvolutionFunctions/arm_convolve_HWC_q7_fast_nonsquare.c ****                  i_ker_y++)
 201:./Libraries/CMSIS/NN/Source/ConvolutionFunctions/arm_convolve_HWC_q7_fast_nonsquare.c ****             {
 202:./Libraries/CMSIS/NN/Source/ConvolutionFunctions/arm_convolve_HWC_q7_fast_nonsquare.c ****                 arm_q7_to_q15_reordered_no_shift((q7_t *) Im_in +
 203:./Libraries/CMSIS/NN/Source/ConvolutionFunctions/arm_convolve_HWC_q7_fast_nonsquare.c ****                                                  (i_ker_y * dim_im_in_x + i_out_x * stride_x - padd
 204:./Libraries/CMSIS/NN/Source/ConvolutionFunctions/arm_convolve_HWC_q7_fast_nonsquare.c ****                                                  pBuffer, ch_im_in * dim_kernel_x);
 205:./Libraries/CMSIS/NN/Source/ConvolutionFunctions/arm_convolve_HWC_q7_fast_nonsquare.c ****                 pBuffer += ch_im_in * dim_kernel_x;
 403              		.loc 1 205 25 view .LVU122
 404 01e6 4000     		lsls	r0, r0, #1
 405 01e8 1B1B     		subs	r3, r3, r4
 406 01ea 0790     		str	r0, [sp, #28]
 407 01ec 9BB2     		uxth	r3, r3
 185:./Libraries/CMSIS/NN/Source/ConvolutionFunctions/arm_convolve_HWC_q7_fast_nonsquare.c ****             {
 408              		.loc 1 185 36 view .LVU123
 409 01ee 3898     		ldr	r0, [sp, #224]
 410 01f0 1893     		str	r3, [sp, #96]
 411 01f2 00EB8101 		add	r1, r0, r1, lsl #2
 412 01f6 0D91     		str	r1, [sp, #52]
 413              	.LVL28:
 414              	.L17:
 163:./Libraries/CMSIS/NN/Source/ConvolutionFunctions/arm_convolve_HWC_q7_fast_nonsquare.c ****         {
 415              		.loc 1 163 27 is_stmt 1 view .LVU124
 163:./Libraries/CMSIS/NN/Source/ConvolutionFunctions/arm_convolve_HWC_q7_fast_nonsquare.c ****         {
 416              		.loc 1 163 9 is_stmt 0 view .LVU125
 417 01f8 0A9B     		ldr	r3, [sp, #40]
 418 01fa 002B     		cmp	r3, #0
 419 01fc 00F08E82 		beq	.L94
 166:./Libraries/CMSIS/NN/Source/ConvolutionFunctions/arm_convolve_HWC_q7_fast_nonsquare.c ****                  i_ker_y++)
 420              		.loc 1 166 89 view .LVU126
 421 0200 139B     		ldr	r3, [sp, #76]
 163:./Libraries/CMSIS/NN/Source/ConvolutionFunctions/arm_convolve_HWC_q7_fast_nonsquare.c ****         {
 422              		.loc 1 163 22 view .LVU127
 423 0202 0024     		movs	r4, #0
 166:./Libraries/CMSIS/NN/Source/ConvolutionFunctions/arm_convolve_HWC_q7_fast_nonsquare.c ****                  i_ker_y++)
 424              		.loc 1 166 89 view .LVU128
 425 0204 DDE91612 		ldrd	r1, r2, [sp, #88]
 163:./Libraries/CMSIS/NN/Source/ConvolutionFunctions/arm_convolve_HWC_q7_fast_nonsquare.c ****         {
 426              		.loc 1 163 22 view .LVU129
 427 0208 0994     		str	r4, [sp, #36]
 166:./Libraries/CMSIS/NN/Source/ConvolutionFunctions/arm_convolve_HWC_q7_fast_nonsquare.c ****                  i_ker_y++)
 428              		.loc 1 166 89 view .LVU130
 429 020a 02FB0311 		mla	r1, r2, r3, r1
 430 020e 0A9B     		ldr	r3, [sp, #40]
 431 0210 5A42     		rsbs	r2, r3, #0
 166:./Libraries/CMSIS/NN/Source/ConvolutionFunctions/arm_convolve_HWC_q7_fast_nonsquare.c ****                  i_ker_y++)
 432              		.loc 1 166 26 view .LVU131
 433 0212 BDF96030 		ldrsh	r3, [sp, #96]
ARM GAS  /tmp/ccef1Oo3.s 			page 14


 434 0216 1093     		str	r3, [sp, #64]
 166:./Libraries/CMSIS/NN/Source/ConvolutionFunctions/arm_convolve_HWC_q7_fast_nonsquare.c ****                  i_ker_y++)
 435              		.loc 1 166 101 view .LVU132
 436 0218 159B     		ldr	r3, [sp, #84]
 437 021a CB1A     		subs	r3, r1, r3
 438 021c 0593     		str	r3, [sp, #20]
 439 021e 93B2     		uxth	r3, r2
 440 0220 0E93     		str	r3, [sp, #56]
 441              	.LVL29:
 442              	.L26:
 166:./Libraries/CMSIS/NN/Source/ConvolutionFunctions/arm_convolve_HWC_q7_fast_nonsquare.c ****                  i_ker_y++)
 443              		.loc 1 166 13 is_stmt 1 view .LVU133
 166:./Libraries/CMSIS/NN/Source/ConvolutionFunctions/arm_convolve_HWC_q7_fast_nonsquare.c ****                  i_ker_y++)
 444              		.loc 1 166 60 view .LVU134
 166:./Libraries/CMSIS/NN/Source/ConvolutionFunctions/arm_convolve_HWC_q7_fast_nonsquare.c ****                  i_ker_y++)
 445              		.loc 1 166 13 is_stmt 0 view .LVU135
 446 0222 109B     		ldr	r3, [sp, #64]
 447 0224 0599     		ldr	r1, [sp, #20]
 448 0226 8B42     		cmp	r3, r1
 449 0228 37DA     		bge	.L18
 169:./Libraries/CMSIS/NN/Source/ConvolutionFunctions/arm_convolve_HWC_q7_fast_nonsquare.c ****                      i_ker_x++)
 450              		.loc 1 169 93 view .LVU136
 451 022a 089A     		ldr	r2, [sp, #32]
 166:./Libraries/CMSIS/NN/Source/ConvolutionFunctions/arm_convolve_HWC_q7_fast_nonsquare.c ****                  i_ker_y++)
 452              		.loc 1 166 26 view .LVU137
 453 022c 1E46     		mov	r6, r3
 169:./Libraries/CMSIS/NN/Source/ConvolutionFunctions/arm_convolve_HWC_q7_fast_nonsquare.c ****                      i_ker_x++)
 454              		.loc 1 169 93 view .LVU138
 455 022e 0B99     		ldr	r1, [sp, #44]
 169:./Libraries/CMSIS/NN/Source/ConvolutionFunctions/arm_convolve_HWC_q7_fast_nonsquare.c ****                      i_ker_x++)
 456              		.loc 1 169 105 view .LVU139
 457 0230 9A46     		mov	r10, r3
 458 0232 0A9B     		ldr	r3, [sp, #40]
 169:./Libraries/CMSIS/NN/Source/ConvolutionFunctions/arm_convolve_HWC_q7_fast_nonsquare.c ****                      i_ker_x++)
 459              		.loc 1 169 93 view .LVU140
 460 0234 04FB0214 		mla	r4, r4, r2, r1
 169:./Libraries/CMSIS/NN/Source/ConvolutionFunctions/arm_convolve_HWC_q7_fast_nonsquare.c ****                      i_ker_x++)
 461              		.loc 1 169 30 view .LVU141
 462 0238 BDF93820 		ldrsh	r2, [sp, #56]
 169:./Libraries/CMSIS/NN/Source/ConvolutionFunctions/arm_convolve_HWC_q7_fast_nonsquare.c ****                      i_ker_x++)
 463              		.loc 1 169 105 view .LVU142
 464 023c E51A     		subs	r5, r4, r3
 169:./Libraries/CMSIS/NN/Source/ConvolutionFunctions/arm_convolve_HWC_q7_fast_nonsquare.c ****                      i_ker_x++)
 465              		.loc 1 169 30 view .LVU143
 466 023e 0692     		str	r2, [sp, #24]
 467              	.LVL30:
 468              	.L24:
 169:./Libraries/CMSIS/NN/Source/ConvolutionFunctions/arm_convolve_HWC_q7_fast_nonsquare.c ****                      i_ker_x++)
 469              		.loc 1 169 17 is_stmt 1 view .LVU144
 169:./Libraries/CMSIS/NN/Source/ConvolutionFunctions/arm_convolve_HWC_q7_fast_nonsquare.c ****                      i_ker_x++)
 470              		.loc 1 169 64 view .LVU145
 169:./Libraries/CMSIS/NN/Source/ConvolutionFunctions/arm_convolve_HWC_q7_fast_nonsquare.c ****                      i_ker_x++)
 471              		.loc 1 169 17 is_stmt 0 view .LVU146
 472 0240 069B     		ldr	r3, [sp, #24]
 473 0242 AB42     		cmp	r3, r5
 474 0244 23DA     		bge	.L19
 178:./Libraries/CMSIS/NN/Source/ConvolutionFunctions/arm_convolve_HWC_q7_fast_nonsquare.c ****                                                          pBuffer, ch_im_in);
ARM GAS  /tmp/ccef1Oo3.s 			page 15


 475              		.loc 1 178 84 view .LVU147
 476 0246 0AFB08FA 		mul	r10, r10, r8
 169:./Libraries/CMSIS/NN/Source/ConvolutionFunctions/arm_convolve_HWC_q7_fast_nonsquare.c ****                      i_ker_x++)
 477              		.loc 1 169 30 view .LVU148
 478 024a 1C46     		mov	r4, r3
 178:./Libraries/CMSIS/NN/Source/ConvolutionFunctions/arm_convolve_HWC_q7_fast_nonsquare.c ****                                                          pBuffer, ch_im_in);
 479              		.loc 1 178 84 view .LVU149
 480 024c 9C46     		mov	ip, r3
 481 024e 07E0     		b	.L23
 482              	.LVL31:
 483              	.L20:
 178:./Libraries/CMSIS/NN/Source/ConvolutionFunctions/arm_convolve_HWC_q7_fast_nonsquare.c ****                                                          pBuffer, ch_im_in);
 484              		.loc 1 178 84 view .LVU150
 485 0250 0134     		adds	r4, r4, #1
 486              	.LVL32:
 175:./Libraries/CMSIS/NN/Source/ConvolutionFunctions/arm_convolve_HWC_q7_fast_nonsquare.c ****                     } else
 487              		.loc 1 175 25 view .LVU151
 488 0252 FFF7FEFF 		bl	memset
 489              	.LVL33:
 181:./Libraries/CMSIS/NN/Source/ConvolutionFunctions/arm_convolve_HWC_q7_fast_nonsquare.c ****                 }
 490              		.loc 1 181 21 is_stmt 1 view .LVU152
 181:./Libraries/CMSIS/NN/Source/ConvolutionFunctions/arm_convolve_HWC_q7_fast_nonsquare.c ****                 }
 491              		.loc 1 181 29 is_stmt 0 view .LVU153
 492 0256 4F44     		add	r7, r7, r9
 493              	.LVL34:
 170:./Libraries/CMSIS/NN/Source/ConvolutionFunctions/arm_convolve_HWC_q7_fast_nonsquare.c ****                 {
 494              		.loc 1 170 22 is_stmt 1 view .LVU154
 495 0258 24B2     		sxth	r4, r4
 496              	.LVL35:
 169:./Libraries/CMSIS/NN/Source/ConvolutionFunctions/arm_convolve_HWC_q7_fast_nonsquare.c ****                      i_ker_x++)
 497              		.loc 1 169 64 view .LVU155
 169:./Libraries/CMSIS/NN/Source/ConvolutionFunctions/arm_convolve_HWC_q7_fast_nonsquare.c ****                      i_ker_x++)
 498              		.loc 1 169 17 is_stmt 0 view .LVU156
 499 025a AC42     		cmp	r4, r5
 169:./Libraries/CMSIS/NN/Source/ConvolutionFunctions/arm_convolve_HWC_q7_fast_nonsquare.c ****                      i_ker_x++)
 500              		.loc 1 169 72 view .LVU157
 501 025c A446     		mov	ip, r4
 169:./Libraries/CMSIS/NN/Source/ConvolutionFunctions/arm_convolve_HWC_q7_fast_nonsquare.c ****                      i_ker_x++)
 502              		.loc 1 169 17 view .LVU158
 503 025e 16DA     		bge	.L19
 504              	.LVL36:
 505              	.L23:
 172:./Libraries/CMSIS/NN/Source/ConvolutionFunctions/arm_convolve_HWC_q7_fast_nonsquare.c ****                     {
 506              		.loc 1 172 21 is_stmt 1 view .LVU159
 175:./Libraries/CMSIS/NN/Source/ConvolutionFunctions/arm_convolve_HWC_q7_fast_nonsquare.c ****                     } else
 507              		.loc 1 175 25 view .LVU160
 172:./Libraries/CMSIS/NN/Source/ConvolutionFunctions/arm_convolve_HWC_q7_fast_nonsquare.c ****                     {
 508              		.loc 1 172 24 is_stmt 0 view .LVU161
 509 0260 002C     		cmp	r4, #0
 175:./Libraries/CMSIS/NN/Source/ConvolutionFunctions/arm_convolve_HWC_q7_fast_nonsquare.c ****                     } else
 510              		.loc 1 175 25 view .LVU162
 511 0262 4A46     		mov	r2, r9
 512 0264 4FF00001 		mov	r1, #0
 513 0268 3846     		mov	r0, r7
 172:./Libraries/CMSIS/NN/Source/ConvolutionFunctions/arm_convolve_HWC_q7_fast_nonsquare.c ****                     {
 514              		.loc 1 172 24 view .LVU163
 515 026a F1DB     		blt	.L20
ARM GAS  /tmp/ccef1Oo3.s 			page 16


 516              	.LVL37:
 172:./Libraries/CMSIS/NN/Source/ConvolutionFunctions/arm_convolve_HWC_q7_fast_nonsquare.c ****                     {
 517              		.loc 1 172 37 discriminator 1 view .LVU164
 518 026c E045     		cmp	r8, ip
 519 026e EFDD     		ble	.L20
 178:./Libraries/CMSIS/NN/Source/ConvolutionFunctions/arm_convolve_HWC_q7_fast_nonsquare.c ****                                                          pBuffer, ch_im_in);
 520              		.loc 1 178 25 is_stmt 1 view .LVU165
 521 0270 0134     		adds	r4, r4, #1
 522              	.LVL38:
 178:./Libraries/CMSIS/NN/Source/ConvolutionFunctions/arm_convolve_HWC_q7_fast_nonsquare.c ****                                                          pBuffer, ch_im_in);
 523              		.loc 1 178 98 is_stmt 0 view .LVU166
 524 0272 0AEB0C00 		add	r0, r10, ip
 525              	.LVL39:
 178:./Libraries/CMSIS/NN/Source/ConvolutionFunctions/arm_convolve_HWC_q7_fast_nonsquare.c ****                                                          pBuffer, ch_im_in);
 526              		.loc 1 178 25 view .LVU167
 527 0276 049B     		ldr	r3, [sp, #16]
 528 0278 3946     		mov	r1, r7
 529 027a 24B2     		sxth	r4, r4
 530 027c 5A46     		mov	r2, fp
 531 027e 0BFB0030 		mla	r0, fp, r0, r3
 181:./Libraries/CMSIS/NN/Source/ConvolutionFunctions/arm_convolve_HWC_q7_fast_nonsquare.c ****                 }
 532              		.loc 1 181 29 view .LVU168
 533 0282 4F44     		add	r7, r7, r9
 534              	.LVL40:
 178:./Libraries/CMSIS/NN/Source/ConvolutionFunctions/arm_convolve_HWC_q7_fast_nonsquare.c ****                                                          pBuffer, ch_im_in);
 535              		.loc 1 178 25 view .LVU169
 536 0284 FFF7FEFF 		bl	arm_q7_to_q15_reordered_no_shift
 537              	.LVL41:
 181:./Libraries/CMSIS/NN/Source/ConvolutionFunctions/arm_convolve_HWC_q7_fast_nonsquare.c ****                 }
 538              		.loc 1 181 21 is_stmt 1 view .LVU170
 170:./Libraries/CMSIS/NN/Source/ConvolutionFunctions/arm_convolve_HWC_q7_fast_nonsquare.c ****                 {
 539              		.loc 1 170 22 view .LVU171
 169:./Libraries/CMSIS/NN/Source/ConvolutionFunctions/arm_convolve_HWC_q7_fast_nonsquare.c ****                      i_ker_x++)
 540              		.loc 1 169 64 view .LVU172
 169:./Libraries/CMSIS/NN/Source/ConvolutionFunctions/arm_convolve_HWC_q7_fast_nonsquare.c ****                      i_ker_x++)
 541              		.loc 1 169 17 is_stmt 0 view .LVU173
 542 0288 AC42     		cmp	r4, r5
 169:./Libraries/CMSIS/NN/Source/ConvolutionFunctions/arm_convolve_HWC_q7_fast_nonsquare.c ****                      i_ker_x++)
 543              		.loc 1 169 72 view .LVU174
 544 028a A446     		mov	ip, r4
 169:./Libraries/CMSIS/NN/Source/ConvolutionFunctions/arm_convolve_HWC_q7_fast_nonsquare.c ****                      i_ker_x++)
 545              		.loc 1 169 17 view .LVU175
 546 028c E8DB     		blt	.L23
 547              	.LVL42:
 548              	.L19:
 167:./Libraries/CMSIS/NN/Source/ConvolutionFunctions/arm_convolve_HWC_q7_fast_nonsquare.c ****             {
 549              		.loc 1 167 18 is_stmt 1 view .LVU176
 550 028e 0136     		adds	r6, r6, #1
 551              	.LVL43:
 166:./Libraries/CMSIS/NN/Source/ConvolutionFunctions/arm_convolve_HWC_q7_fast_nonsquare.c ****                  i_ker_y++)
 552              		.loc 1 166 13 is_stmt 0 view .LVU177
 553 0290 059B     		ldr	r3, [sp, #20]
 554 0292 36B2     		sxth	r6, r6
 555              	.LVL44:
 166:./Libraries/CMSIS/NN/Source/ConvolutionFunctions/arm_convolve_HWC_q7_fast_nonsquare.c ****                  i_ker_y++)
 556              		.loc 1 166 60 is_stmt 1 view .LVU178
 166:./Libraries/CMSIS/NN/Source/ConvolutionFunctions/arm_convolve_HWC_q7_fast_nonsquare.c ****                  i_ker_y++)
ARM GAS  /tmp/ccef1Oo3.s 			page 17


 557              		.loc 1 166 13 is_stmt 0 view .LVU179
 558 0294 9E42     		cmp	r6, r3
 166:./Libraries/CMSIS/NN/Source/ConvolutionFunctions/arm_convolve_HWC_q7_fast_nonsquare.c ****                  i_ker_y++)
 559              		.loc 1 166 68 view .LVU180
 560 0296 B246     		mov	r10, r6
 166:./Libraries/CMSIS/NN/Source/ConvolutionFunctions/arm_convolve_HWC_q7_fast_nonsquare.c ****                  i_ker_y++)
 561              		.loc 1 166 13 view .LVU181
 562 0298 D2DB     		blt	.L24
 563              	.LVL45:
 564              	.L18:
 185:./Libraries/CMSIS/NN/Source/ConvolutionFunctions/arm_convolve_HWC_q7_fast_nonsquare.c ****             {
 565              		.loc 1 185 13 is_stmt 1 view .LVU182
 185:./Libraries/CMSIS/NN/Source/ConvolutionFunctions/arm_convolve_HWC_q7_fast_nonsquare.c ****             {
 566              		.loc 1 185 16 is_stmt 0 view .LVU183
 567 029a 0D9B     		ldr	r3, [sp, #52]
 568 029c BB42     		cmp	r3, r7
 569 029e 00F01482 		beq	.L95
 570              	.L25:
 163:./Libraries/CMSIS/NN/Source/ConvolutionFunctions/arm_convolve_HWC_q7_fast_nonsquare.c ****         {
 571              		.loc 1 163 48 is_stmt 1 discriminator 2 view .LVU184
 572 02a2 0E9B     		ldr	r3, [sp, #56]
 573 02a4 0898     		ldr	r0, [sp, #32]
 574 02a6 0999     		ldr	r1, [sp, #36]
 575 02a8 0344     		add	r3, r3, r0
 576 02aa 0131     		adds	r1, r1, #1
 577 02ac 1A46     		mov	r2, r3
 578 02ae 0BB2     		sxth	r3, r1
 579 02b0 92B2     		uxth	r2, r2
 163:./Libraries/CMSIS/NN/Source/ConvolutionFunctions/arm_convolve_HWC_q7_fast_nonsquare.c ****         {
 580              		.loc 1 163 35 is_stmt 0 discriminator 2 view .LVU185
 581 02b2 1C46     		mov	r4, r3
 582 02b4 0993     		str	r3, [sp, #36]
 583              	.LVL46:
 163:./Libraries/CMSIS/NN/Source/ConvolutionFunctions/arm_convolve_HWC_q7_fast_nonsquare.c ****         {
 584              		.loc 1 163 27 is_stmt 1 discriminator 2 view .LVU186
 585 02b6 0E92     		str	r2, [sp, #56]
 163:./Libraries/CMSIS/NN/Source/ConvolutionFunctions/arm_convolve_HWC_q7_fast_nonsquare.c ****         {
 586              		.loc 1 163 9 is_stmt 0 discriminator 2 view .LVU187
 587 02b8 0A9A     		ldr	r2, [sp, #40]
 588 02ba 9342     		cmp	r3, r2
 589 02bc B1DB     		blt	.L26
 590              	.LVL47:
 591              	.L43:
 196:./Libraries/CMSIS/NN/Source/ConvolutionFunctions/arm_convolve_HWC_q7_fast_nonsquare.c ****         {
 592              		.loc 1 196 16 is_stmt 1 view .LVU188
 196:./Libraries/CMSIS/NN/Source/ConvolutionFunctions/arm_convolve_HWC_q7_fast_nonsquare.c ****         {
 593              		.loc 1 196 9 is_stmt 0 view .LVU189
 594 02be 0F9B     		ldr	r3, [sp, #60]
 595 02c0 A342     		cmp	r3, r4
 596 02c2 40DD     		ble	.L27
 199:./Libraries/CMSIS/NN/Source/ConvolutionFunctions/arm_convolve_HWC_q7_fast_nonsquare.c ****                  i_ker_y++)
 597              		.loc 1 199 89 view .LVU190
 598 02c4 139B     		ldr	r3, [sp, #76]
 199:./Libraries/CMSIS/NN/Source/ConvolutionFunctions/arm_convolve_HWC_q7_fast_nonsquare.c ****                  i_ker_y++)
 599              		.loc 1 199 26 view .LVU191
 600 02c6 BDF960A0 		ldrsh	r10, [sp, #96]
 199:./Libraries/CMSIS/NN/Source/ConvolutionFunctions/arm_convolve_HWC_q7_fast_nonsquare.c ****                  i_ker_y++)
ARM GAS  /tmp/ccef1Oo3.s 			page 18


 601              		.loc 1 199 101 view .LVU192
 602 02ca CDF83890 		str	r9, [sp, #56]
 603 02ce CDF818A0 		str	r10, [sp, #24]
 604 02d2 DDF810A0 		ldr	r10, [sp, #16]
 199:./Libraries/CMSIS/NN/Source/ConvolutionFunctions/arm_convolve_HWC_q7_fast_nonsquare.c ****                  i_ker_y++)
 605              		.loc 1 199 89 view .LVU193
 606 02d6 DDE91612 		ldrd	r1, r2, [sp, #88]
 607 02da 02FB0315 		mla	r5, r2, r3, r1
 199:./Libraries/CMSIS/NN/Source/ConvolutionFunctions/arm_convolve_HWC_q7_fast_nonsquare.c ****                  i_ker_y++)
 608              		.loc 1 199 101 view .LVU194
 609 02de 159B     		ldr	r3, [sp, #84]
 610 02e0 ED1A     		subs	r5, r5, r3
 611              	.LVL48:
 612              	.L31:
 199:./Libraries/CMSIS/NN/Source/ConvolutionFunctions/arm_convolve_HWC_q7_fast_nonsquare.c ****                  i_ker_y++)
 613              		.loc 1 199 13 is_stmt 1 view .LVU195
 199:./Libraries/CMSIS/NN/Source/ConvolutionFunctions/arm_convolve_HWC_q7_fast_nonsquare.c ****                  i_ker_y++)
 614              		.loc 1 199 60 view .LVU196
 199:./Libraries/CMSIS/NN/Source/ConvolutionFunctions/arm_convolve_HWC_q7_fast_nonsquare.c ****                  i_ker_y++)
 615              		.loc 1 199 13 is_stmt 0 view .LVU197
 616 02e2 069B     		ldr	r3, [sp, #24]
 617 02e4 AB42     		cmp	r3, r5
 618 02e6 20DA     		bge	.L28
 203:./Libraries/CMSIS/NN/Source/ConvolutionFunctions/arm_convolve_HWC_q7_fast_nonsquare.c ****                                                  pBuffer, ch_im_in * dim_kernel_x);
 619              		.loc 1 203 83 view .LVU198
 620 02e8 089A     		ldr	r2, [sp, #32]
 621 02ea 1846     		mov	r0, r3
 622 02ec DDF82890 		ldr	r9, [sp, #40]
 623 02f0 04FB02F6 		mul	r6, r4, r2
 199:./Libraries/CMSIS/NN/Source/ConvolutionFunctions/arm_convolve_HWC_q7_fast_nonsquare.c ****                  i_ker_y++)
 624              		.loc 1 199 26 view .LVU199
 625 02f4 1C46     		mov	r4, r3
 203:./Libraries/CMSIS/NN/Source/ConvolutionFunctions/arm_convolve_HWC_q7_fast_nonsquare.c ****                                                  pBuffer, ch_im_in * dim_kernel_x);
 626              		.loc 1 203 83 view .LVU200
 627 02f6 2B46     		mov	r3, r5
 628 02f8 18EE102A 		vmov	r2, s16	@ int
 629 02fc 3D46     		mov	r5, r7
 630 02fe 1F46     		mov	r7, r3
 631              	.LVL49:
 632              	.L29:
 202:./Libraries/CMSIS/NN/Source/ConvolutionFunctions/arm_convolve_HWC_q7_fast_nonsquare.c ****                                                  (i_ker_y * dim_im_in_x + i_out_x * stride_x - padd
 633              		.loc 1 202 17 is_stmt 1 view .LVU201
 203:./Libraries/CMSIS/NN/Source/ConvolutionFunctions/arm_convolve_HWC_q7_fast_nonsquare.c ****                                                  pBuffer, ch_im_in * dim_kernel_x);
 634              		.loc 1 203 73 is_stmt 0 view .LVU202
 635 0300 00FB0860 		mla	r0, r0, r8, r6
 636 0304 0134     		adds	r4, r4, #1
 637              	.LVL50:
 638              		.loc 1 205 25 view .LVU203
 639 0306 079B     		ldr	r3, [sp, #28]
 202:./Libraries/CMSIS/NN/Source/ConvolutionFunctions/arm_convolve_HWC_q7_fast_nonsquare.c ****                                                  (i_ker_y * dim_im_in_x + i_out_x * stride_x - padd
 640              		.loc 1 202 17 view .LVU204
 641 0308 2946     		mov	r1, r5
 203:./Libraries/CMSIS/NN/Source/ConvolutionFunctions/arm_convolve_HWC_q7_fast_nonsquare.c ****                                                  pBuffer, ch_im_in * dim_kernel_x);
 642              		.loc 1 203 94 view .LVU205
 643 030a A0EB0900 		sub	r0, r0, r9
 644 030e 24B2     		sxth	r4, r4
 202:./Libraries/CMSIS/NN/Source/ConvolutionFunctions/arm_convolve_HWC_q7_fast_nonsquare.c ****                                                  (i_ker_y * dim_im_in_x + i_out_x * stride_x - padd
ARM GAS  /tmp/ccef1Oo3.s 			page 19


 645              		.loc 1 202 17 view .LVU206
 646 0310 0592     		str	r2, [sp, #20]
 647              		.loc 1 205 25 view .LVU207
 648 0312 1D44     		add	r5, r5, r3
 649              	.LVL51:
 202:./Libraries/CMSIS/NN/Source/ConvolutionFunctions/arm_convolve_HWC_q7_fast_nonsquare.c ****                                                  (i_ker_y * dim_im_in_x + i_out_x * stride_x - padd
 650              		.loc 1 202 17 view .LVU208
 651 0314 0BFB00A0 		mla	r0, fp, r0, r10
 652 0318 FFF7FEFF 		bl	arm_q7_to_q15_reordered_no_shift
 653              	.LVL52:
 654              		.loc 1 205 17 is_stmt 1 view .LVU209
 200:./Libraries/CMSIS/NN/Source/ConvolutionFunctions/arm_convolve_HWC_q7_fast_nonsquare.c ****             {
 655              		.loc 1 200 18 view .LVU210
 199:./Libraries/CMSIS/NN/Source/ConvolutionFunctions/arm_convolve_HWC_q7_fast_nonsquare.c ****                  i_ker_y++)
 656              		.loc 1 199 60 view .LVU211
 199:./Libraries/CMSIS/NN/Source/ConvolutionFunctions/arm_convolve_HWC_q7_fast_nonsquare.c ****                  i_ker_y++)
 657              		.loc 1 199 13 is_stmt 0 view .LVU212
 658 031c BC42     		cmp	r4, r7
 199:./Libraries/CMSIS/NN/Source/ConvolutionFunctions/arm_convolve_HWC_q7_fast_nonsquare.c ****                  i_ker_y++)
 659              		.loc 1 199 68 view .LVU213
 660 031e 2046     		mov	r0, r4
 199:./Libraries/CMSIS/NN/Source/ConvolutionFunctions/arm_convolve_HWC_q7_fast_nonsquare.c ****                  i_ker_y++)
 661              		.loc 1 199 13 view .LVU214
 662 0320 059A     		ldr	r2, [sp, #20]
 663 0322 EDDB     		blt	.L29
 664 0324 3B46     		mov	r3, r7
 665 0326 2F46     		mov	r7, r5
 666 0328 1D46     		mov	r5, r3
 667              	.LVL53:
 668              	.L28:
 206:./Libraries/CMSIS/NN/Source/ConvolutionFunctions/arm_convolve_HWC_q7_fast_nonsquare.c ****             }
 207:./Libraries/CMSIS/NN/Source/ConvolutionFunctions/arm_convolve_HWC_q7_fast_nonsquare.c **** 
 208:./Libraries/CMSIS/NN/Source/ConvolutionFunctions/arm_convolve_HWC_q7_fast_nonsquare.c ****             if (pBuffer == bufferA + 2 * ch_im_in * dim_kernel_x * dim_kernel_y)
 669              		.loc 1 208 13 is_stmt 1 view .LVU215
 670              		.loc 1 208 16 is_stmt 0 view .LVU216
 671 032a 0D9B     		ldr	r3, [sp, #52]
 672 032c BB42     		cmp	r3, r7
 673 032e 00F0B981 		beq	.L96
 674              	.L30:
 196:./Libraries/CMSIS/NN/Source/ConvolutionFunctions/arm_convolve_HWC_q7_fast_nonsquare.c ****         {
 675              		.loc 1 196 52 is_stmt 1 view .LVU217
 676 0332 099A     		ldr	r2, [sp, #36]
 677 0334 0132     		adds	r2, r2, #1
 678 0336 13B2     		sxth	r3, r2
 196:./Libraries/CMSIS/NN/Source/ConvolutionFunctions/arm_convolve_HWC_q7_fast_nonsquare.c ****         {
 679              		.loc 1 196 9 is_stmt 0 view .LVU218
 680 0338 0F9A     		ldr	r2, [sp, #60]
 681 033a 9342     		cmp	r3, r2
 196:./Libraries/CMSIS/NN/Source/ConvolutionFunctions/arm_convolve_HWC_q7_fast_nonsquare.c ****         {
 682              		.loc 1 196 24 view .LVU219
 683 033c 1C46     		mov	r4, r3
 684 033e 0993     		str	r3, [sp, #36]
 685              	.LVL54:
 196:./Libraries/CMSIS/NN/Source/ConvolutionFunctions/arm_convolve_HWC_q7_fast_nonsquare.c ****         {
 686              		.loc 1 196 16 is_stmt 1 view .LVU220
 196:./Libraries/CMSIS/NN/Source/ConvolutionFunctions/arm_convolve_HWC_q7_fast_nonsquare.c ****         {
 687              		.loc 1 196 9 is_stmt 0 view .LVU221
ARM GAS  /tmp/ccef1Oo3.s 			page 20


 688 0340 CFDB     		blt	.L31
 196:./Libraries/CMSIS/NN/Source/ConvolutionFunctions/arm_convolve_HWC_q7_fast_nonsquare.c ****         {
 689              		.loc 1 196 9 view .LVU222
 690 0342 DDF83890 		ldr	r9, [sp, #56]
 691              	.LVL55:
 692              	.L27:
 209:./Libraries/CMSIS/NN/Source/ConvolutionFunctions/arm_convolve_HWC_q7_fast_nonsquare.c ****             {
 210:./Libraries/CMSIS/NN/Source/ConvolutionFunctions/arm_convolve_HWC_q7_fast_nonsquare.c ****                 pOut =
 211:./Libraries/CMSIS/NN/Source/ConvolutionFunctions/arm_convolve_HWC_q7_fast_nonsquare.c ****                     arm_nn_mat_mult_kernel_q7_q15_reordered(wt, bufferA, ch_im_out, ch_im_in * dim_
 212:./Libraries/CMSIS/NN/Source/ConvolutionFunctions/arm_convolve_HWC_q7_fast_nonsquare.c ****                                                   bias_shift, out_shift, bias, pOut);
 213:./Libraries/CMSIS/NN/Source/ConvolutionFunctions/arm_convolve_HWC_q7_fast_nonsquare.c ****                 /* counter reset */
 214:./Libraries/CMSIS/NN/Source/ConvolutionFunctions/arm_convolve_HWC_q7_fast_nonsquare.c ****                 pBuffer = bufferA;
 215:./Libraries/CMSIS/NN/Source/ConvolutionFunctions/arm_convolve_HWC_q7_fast_nonsquare.c ****             }
 216:./Libraries/CMSIS/NN/Source/ConvolutionFunctions/arm_convolve_HWC_q7_fast_nonsquare.c ****         }
 217:./Libraries/CMSIS/NN/Source/ConvolutionFunctions/arm_convolve_HWC_q7_fast_nonsquare.c **** 
 218:./Libraries/CMSIS/NN/Source/ConvolutionFunctions/arm_convolve_HWC_q7_fast_nonsquare.c ****         /* right part */
 219:./Libraries/CMSIS/NN/Source/ConvolutionFunctions/arm_convolve_HWC_q7_fast_nonsquare.c ****         for (; i_out_x < dim_im_out_x; i_out_x++)
 693              		.loc 1 219 16 is_stmt 1 view .LVU223
 694              		.loc 1 219 9 is_stmt 0 view .LVU224
 695 0346 0C9B     		ldr	r3, [sp, #48]
 696 0348 9C42     		cmp	r4, r3
 697 034a 61DA     		bge	.L32
 698              		.loc 1 219 9 view .LVU225
 699 034c DDE90823 		ldrd	r2, r3, [sp, #32]
 220:./Libraries/CMSIS/NN/Source/ConvolutionFunctions/arm_convolve_HWC_q7_fast_nonsquare.c ****         {
 221:./Libraries/CMSIS/NN/Source/ConvolutionFunctions/arm_convolve_HWC_q7_fast_nonsquare.c ****             /* This part implements the im2col function */
 222:./Libraries/CMSIS/NN/Source/ConvolutionFunctions/arm_convolve_HWC_q7_fast_nonsquare.c ****             for (i_ker_y = i_out_y * stride_y - padding_y; i_ker_y < i_out_y * stride_y - padding_y
 700              		.loc 1 222 89 view .LVU226
 701 0350 DDE91601 		ldrd	r0, r1, [sp, #88]
 702 0354 13FB02F2 		smulbb	r2, r3, r2
 703 0358 139B     		ldr	r3, [sp, #76]
 704 035a 01FB0301 		mla	r1, r1, r3, r0
 705              		.loc 1 222 26 view .LVU227
 706 035e BDF96030 		ldrsh	r3, [sp, #96]
 707 0362 1093     		str	r3, [sp, #64]
 708 0364 0A9B     		ldr	r3, [sp, #40]
 709 0366 D21A     		subs	r2, r2, r3
 710              		.loc 1 222 101 view .LVU228
 711 0368 159B     		ldr	r3, [sp, #84]
 712 036a CB1A     		subs	r3, r1, r3
 713 036c 0593     		str	r3, [sp, #20]
 714 036e 93B2     		uxth	r3, r2
 715 0370 0E93     		str	r3, [sp, #56]
 716              	.LVL56:
 717              	.L41:
 718              		.loc 1 222 13 is_stmt 1 view .LVU229
 719              		.loc 1 222 60 view .LVU230
 720              		.loc 1 222 13 is_stmt 0 view .LVU231
 721 0372 059B     		ldr	r3, [sp, #20]
 722 0374 1946     		mov	r1, r3
 723 0376 109B     		ldr	r3, [sp, #64]
 724 0378 9942     		cmp	r1, r3
 725 037a 37DD     		ble	.L33
 223:./Libraries/CMSIS/NN/Source/ConvolutionFunctions/arm_convolve_HWC_q7_fast_nonsquare.c ****                  i_ker_y++)
 224:./Libraries/CMSIS/NN/Source/ConvolutionFunctions/arm_convolve_HWC_q7_fast_nonsquare.c ****             {
 225:./Libraries/CMSIS/NN/Source/ConvolutionFunctions/arm_convolve_HWC_q7_fast_nonsquare.c ****                 for (i_ker_x = i_out_x * stride_x - padding_x; i_ker_x < i_out_x * stride_x - paddi
 726              		.loc 1 225 93 view .LVU232
ARM GAS  /tmp/ccef1Oo3.s 			page 21


 727 037c 089A     		ldr	r2, [sp, #32]
 222:./Libraries/CMSIS/NN/Source/ConvolutionFunctions/arm_convolve_HWC_q7_fast_nonsquare.c ****                  i_ker_y++)
 728              		.loc 1 222 26 view .LVU233
 729 037e 1E46     		mov	r6, r3
 730              		.loc 1 225 93 view .LVU234
 731 0380 0B99     		ldr	r1, [sp, #44]
 732              		.loc 1 225 105 view .LVU235
 733 0382 9A46     		mov	r10, r3
 734 0384 0A9B     		ldr	r3, [sp, #40]
 735              		.loc 1 225 93 view .LVU236
 736 0386 04FB0214 		mla	r4, r4, r2, r1
 737              		.loc 1 225 30 view .LVU237
 738 038a BDF93820 		ldrsh	r2, [sp, #56]
 739              		.loc 1 225 105 view .LVU238
 740 038e E51A     		subs	r5, r4, r3
 741              		.loc 1 225 30 view .LVU239
 742 0390 0692     		str	r2, [sp, #24]
 743              	.LVL57:
 744              	.L39:
 745              		.loc 1 225 17 is_stmt 1 view .LVU240
 746              		.loc 1 225 64 view .LVU241
 747              		.loc 1 225 17 is_stmt 0 view .LVU242
 748 0392 069B     		ldr	r3, [sp, #24]
 749 0394 9D42     		cmp	r5, r3
 750 0396 23DD     		ble	.L34
 226:./Libraries/CMSIS/NN/Source/ConvolutionFunctions/arm_convolve_HWC_q7_fast_nonsquare.c ****                      i_ker_x++)
 227:./Libraries/CMSIS/NN/Source/ConvolutionFunctions/arm_convolve_HWC_q7_fast_nonsquare.c ****                 {
 228:./Libraries/CMSIS/NN/Source/ConvolutionFunctions/arm_convolve_HWC_q7_fast_nonsquare.c ****                     if (i_ker_x < 0 || i_ker_x >= dim_im_in_x)
 229:./Libraries/CMSIS/NN/Source/ConvolutionFunctions/arm_convolve_HWC_q7_fast_nonsquare.c ****                     {
 230:./Libraries/CMSIS/NN/Source/ConvolutionFunctions/arm_convolve_HWC_q7_fast_nonsquare.c ****                         /* arm_fill_q15(0, pBuffer, ch_im_in); */
 231:./Libraries/CMSIS/NN/Source/ConvolutionFunctions/arm_convolve_HWC_q7_fast_nonsquare.c ****                         memset(pBuffer, 0, sizeof(q15_t)*ch_im_in);
 232:./Libraries/CMSIS/NN/Source/ConvolutionFunctions/arm_convolve_HWC_q7_fast_nonsquare.c ****                     } else
 233:./Libraries/CMSIS/NN/Source/ConvolutionFunctions/arm_convolve_HWC_q7_fast_nonsquare.c ****                     {
 234:./Libraries/CMSIS/NN/Source/ConvolutionFunctions/arm_convolve_HWC_q7_fast_nonsquare.c ****                         arm_q7_to_q15_reordered_no_shift((q7_t *) Im_in + (i_ker_y * dim_im_in_x + 
 751              		.loc 1 234 84 view .LVU243
 752 0398 0AFB08FA 		mul	r10, r10, r8
 225:./Libraries/CMSIS/NN/Source/ConvolutionFunctions/arm_convolve_HWC_q7_fast_nonsquare.c ****                      i_ker_x++)
 753              		.loc 1 225 30 view .LVU244
 754 039c 1C46     		mov	r4, r3
 755              		.loc 1 234 84 view .LVU245
 756 039e 9C46     		mov	ip, r3
 757 03a0 07E0     		b	.L38
 758              	.LVL58:
 759              	.L35:
 760              		.loc 1 234 84 view .LVU246
 761 03a2 0134     		adds	r4, r4, #1
 762              	.LVL59:
 231:./Libraries/CMSIS/NN/Source/ConvolutionFunctions/arm_convolve_HWC_q7_fast_nonsquare.c ****                     } else
 763              		.loc 1 231 25 view .LVU247
 764 03a4 FFF7FEFF 		bl	memset
 765              	.LVL60:
 235:./Libraries/CMSIS/NN/Source/ConvolutionFunctions/arm_convolve_HWC_q7_fast_nonsquare.c ****                                                          pBuffer, ch_im_in);
 236:./Libraries/CMSIS/NN/Source/ConvolutionFunctions/arm_convolve_HWC_q7_fast_nonsquare.c ****                     }
 237:./Libraries/CMSIS/NN/Source/ConvolutionFunctions/arm_convolve_HWC_q7_fast_nonsquare.c ****                     pBuffer += ch_im_in;
 766              		.loc 1 237 21 is_stmt 1 view .LVU248
 767              		.loc 1 237 29 is_stmt 0 view .LVU249
 768 03a8 4F44     		add	r7, r7, r9
ARM GAS  /tmp/ccef1Oo3.s 			page 22


 769              	.LVL61:
 226:./Libraries/CMSIS/NN/Source/ConvolutionFunctions/arm_convolve_HWC_q7_fast_nonsquare.c ****                 {
 770              		.loc 1 226 22 is_stmt 1 view .LVU250
 771 03aa 24B2     		sxth	r4, r4
 772              	.LVL62:
 225:./Libraries/CMSIS/NN/Source/ConvolutionFunctions/arm_convolve_HWC_q7_fast_nonsquare.c ****                      i_ker_x++)
 773              		.loc 1 225 64 view .LVU251
 225:./Libraries/CMSIS/NN/Source/ConvolutionFunctions/arm_convolve_HWC_q7_fast_nonsquare.c ****                      i_ker_x++)
 774              		.loc 1 225 17 is_stmt 0 view .LVU252
 775 03ac AC42     		cmp	r4, r5
 225:./Libraries/CMSIS/NN/Source/ConvolutionFunctions/arm_convolve_HWC_q7_fast_nonsquare.c ****                      i_ker_x++)
 776              		.loc 1 225 72 view .LVU253
 777 03ae A446     		mov	ip, r4
 225:./Libraries/CMSIS/NN/Source/ConvolutionFunctions/arm_convolve_HWC_q7_fast_nonsquare.c ****                      i_ker_x++)
 778              		.loc 1 225 17 view .LVU254
 779 03b0 16DA     		bge	.L34
 780              	.LVL63:
 781              	.L38:
 228:./Libraries/CMSIS/NN/Source/ConvolutionFunctions/arm_convolve_HWC_q7_fast_nonsquare.c ****                     {
 782              		.loc 1 228 21 is_stmt 1 view .LVU255
 231:./Libraries/CMSIS/NN/Source/ConvolutionFunctions/arm_convolve_HWC_q7_fast_nonsquare.c ****                     } else
 783              		.loc 1 231 25 view .LVU256
 228:./Libraries/CMSIS/NN/Source/ConvolutionFunctions/arm_convolve_HWC_q7_fast_nonsquare.c ****                     {
 784              		.loc 1 228 24 is_stmt 0 view .LVU257
 785 03b2 002C     		cmp	r4, #0
 231:./Libraries/CMSIS/NN/Source/ConvolutionFunctions/arm_convolve_HWC_q7_fast_nonsquare.c ****                     } else
 786              		.loc 1 231 25 view .LVU258
 787 03b4 4A46     		mov	r2, r9
 788 03b6 4FF00001 		mov	r1, #0
 789 03ba 3846     		mov	r0, r7
 228:./Libraries/CMSIS/NN/Source/ConvolutionFunctions/arm_convolve_HWC_q7_fast_nonsquare.c ****                     {
 790              		.loc 1 228 24 view .LVU259
 791 03bc F1DB     		blt	.L35
 792              	.LVL64:
 228:./Libraries/CMSIS/NN/Source/ConvolutionFunctions/arm_convolve_HWC_q7_fast_nonsquare.c ****                     {
 793              		.loc 1 228 37 discriminator 1 view .LVU260
 794 03be E045     		cmp	r8, ip
 795 03c0 EFDD     		ble	.L35
 234:./Libraries/CMSIS/NN/Source/ConvolutionFunctions/arm_convolve_HWC_q7_fast_nonsquare.c ****                                                          pBuffer, ch_im_in);
 796              		.loc 1 234 25 is_stmt 1 view .LVU261
 797 03c2 0134     		adds	r4, r4, #1
 798              	.LVL65:
 234:./Libraries/CMSIS/NN/Source/ConvolutionFunctions/arm_convolve_HWC_q7_fast_nonsquare.c ****                                                          pBuffer, ch_im_in);
 799              		.loc 1 234 98 is_stmt 0 view .LVU262
 800 03c4 0AEB0C00 		add	r0, r10, ip
 801              	.LVL66:
 234:./Libraries/CMSIS/NN/Source/ConvolutionFunctions/arm_convolve_HWC_q7_fast_nonsquare.c ****                                                          pBuffer, ch_im_in);
 802              		.loc 1 234 25 view .LVU263
 803 03c8 049B     		ldr	r3, [sp, #16]
 804 03ca 3946     		mov	r1, r7
 805 03cc 24B2     		sxth	r4, r4
 806 03ce 5A46     		mov	r2, fp
 807 03d0 0BFB0030 		mla	r0, fp, r0, r3
 808              		.loc 1 237 29 view .LVU264
 809 03d4 4F44     		add	r7, r7, r9
 810              	.LVL67:
 234:./Libraries/CMSIS/NN/Source/ConvolutionFunctions/arm_convolve_HWC_q7_fast_nonsquare.c ****                                                          pBuffer, ch_im_in);
ARM GAS  /tmp/ccef1Oo3.s 			page 23


 811              		.loc 1 234 25 view .LVU265
 812 03d6 FFF7FEFF 		bl	arm_q7_to_q15_reordered_no_shift
 813              	.LVL68:
 814              		.loc 1 237 21 is_stmt 1 view .LVU266
 226:./Libraries/CMSIS/NN/Source/ConvolutionFunctions/arm_convolve_HWC_q7_fast_nonsquare.c ****                 {
 815              		.loc 1 226 22 view .LVU267
 225:./Libraries/CMSIS/NN/Source/ConvolutionFunctions/arm_convolve_HWC_q7_fast_nonsquare.c ****                      i_ker_x++)
 816              		.loc 1 225 64 view .LVU268
 225:./Libraries/CMSIS/NN/Source/ConvolutionFunctions/arm_convolve_HWC_q7_fast_nonsquare.c ****                      i_ker_x++)
 817              		.loc 1 225 17 is_stmt 0 view .LVU269
 818 03da AC42     		cmp	r4, r5
 225:./Libraries/CMSIS/NN/Source/ConvolutionFunctions/arm_convolve_HWC_q7_fast_nonsquare.c ****                      i_ker_x++)
 819              		.loc 1 225 72 view .LVU270
 820 03dc A446     		mov	ip, r4
 225:./Libraries/CMSIS/NN/Source/ConvolutionFunctions/arm_convolve_HWC_q7_fast_nonsquare.c ****                      i_ker_x++)
 821              		.loc 1 225 17 view .LVU271
 822 03de E8DB     		blt	.L38
 823              	.LVL69:
 824              	.L34:
 223:./Libraries/CMSIS/NN/Source/ConvolutionFunctions/arm_convolve_HWC_q7_fast_nonsquare.c ****             {
 825              		.loc 1 223 18 is_stmt 1 view .LVU272
 826 03e0 0136     		adds	r6, r6, #1
 827              	.LVL70:
 222:./Libraries/CMSIS/NN/Source/ConvolutionFunctions/arm_convolve_HWC_q7_fast_nonsquare.c ****                  i_ker_y++)
 828              		.loc 1 222 13 is_stmt 0 view .LVU273
 829 03e2 059B     		ldr	r3, [sp, #20]
 830 03e4 36B2     		sxth	r6, r6
 831              	.LVL71:
 222:./Libraries/CMSIS/NN/Source/ConvolutionFunctions/arm_convolve_HWC_q7_fast_nonsquare.c ****                  i_ker_y++)
 832              		.loc 1 222 60 is_stmt 1 view .LVU274
 222:./Libraries/CMSIS/NN/Source/ConvolutionFunctions/arm_convolve_HWC_q7_fast_nonsquare.c ****                  i_ker_y++)
 833              		.loc 1 222 13 is_stmt 0 view .LVU275
 834 03e6 9E42     		cmp	r6, r3
 222:./Libraries/CMSIS/NN/Source/ConvolutionFunctions/arm_convolve_HWC_q7_fast_nonsquare.c ****                  i_ker_y++)
 835              		.loc 1 222 68 view .LVU276
 836 03e8 B246     		mov	r10, r6
 222:./Libraries/CMSIS/NN/Source/ConvolutionFunctions/arm_convolve_HWC_q7_fast_nonsquare.c ****                  i_ker_y++)
 837              		.loc 1 222 13 view .LVU277
 838 03ea D2DB     		blt	.L39
 839              	.LVL72:
 840              	.L33:
 238:./Libraries/CMSIS/NN/Source/ConvolutionFunctions/arm_convolve_HWC_q7_fast_nonsquare.c ****                 }
 239:./Libraries/CMSIS/NN/Source/ConvolutionFunctions/arm_convolve_HWC_q7_fast_nonsquare.c ****             }
 240:./Libraries/CMSIS/NN/Source/ConvolutionFunctions/arm_convolve_HWC_q7_fast_nonsquare.c **** 
 241:./Libraries/CMSIS/NN/Source/ConvolutionFunctions/arm_convolve_HWC_q7_fast_nonsquare.c ****             if (pBuffer == bufferA + 2 * ch_im_in * dim_kernel_x * dim_kernel_y)
 841              		.loc 1 241 13 is_stmt 1 view .LVU278
 842              		.loc 1 241 16 is_stmt 0 view .LVU279
 843 03ec 0D9B     		ldr	r3, [sp, #52]
 844 03ee BB42     		cmp	r3, r7
 845 03f0 00F04581 		beq	.L97
 846              	.L40:
 219:./Libraries/CMSIS/NN/Source/ConvolutionFunctions/arm_convolve_HWC_q7_fast_nonsquare.c ****         {
 847              		.loc 1 219 40 is_stmt 1 view .LVU280
 848 03f4 0E9B     		ldr	r3, [sp, #56]
 849 03f6 0898     		ldr	r0, [sp, #32]
 850 03f8 0999     		ldr	r1, [sp, #36]
 851 03fa 0344     		add	r3, r3, r0
ARM GAS  /tmp/ccef1Oo3.s 			page 24


 852 03fc 0131     		adds	r1, r1, #1
 853 03fe 1A46     		mov	r2, r3
 854 0400 0BB2     		sxth	r3, r1
 855 0402 92B2     		uxth	r2, r2
 219:./Libraries/CMSIS/NN/Source/ConvolutionFunctions/arm_convolve_HWC_q7_fast_nonsquare.c ****         {
 856              		.loc 1 219 24 is_stmt 0 view .LVU281
 857 0404 1C46     		mov	r4, r3
 858 0406 0993     		str	r3, [sp, #36]
 859              	.LVL73:
 219:./Libraries/CMSIS/NN/Source/ConvolutionFunctions/arm_convolve_HWC_q7_fast_nonsquare.c ****         {
 860              		.loc 1 219 16 is_stmt 1 view .LVU282
 861 0408 0E92     		str	r2, [sp, #56]
 219:./Libraries/CMSIS/NN/Source/ConvolutionFunctions/arm_convolve_HWC_q7_fast_nonsquare.c ****         {
 862              		.loc 1 219 9 is_stmt 0 view .LVU283
 863 040a 0C9A     		ldr	r2, [sp, #48]
 864 040c 9342     		cmp	r3, r2
 865 040e B0DB     		blt	.L41
 866              	.LVL74:
 867              	.L32:
 159:./Libraries/CMSIS/NN/Source/ConvolutionFunctions/arm_convolve_HWC_q7_fast_nonsquare.c ****     {
 868              		.loc 1 159 48 is_stmt 1 view .LVU284
 869 0410 189B     		ldr	r3, [sp, #96]
 870 0412 1398     		ldr	r0, [sp, #76]
 871 0414 1499     		ldr	r1, [sp, #80]
 872 0416 0344     		add	r3, r3, r0
 873 0418 0131     		adds	r1, r1, #1
 874 041a 1A46     		mov	r2, r3
 875 041c 0BB2     		sxth	r3, r1
 876 041e 92B2     		uxth	r2, r2
 877 0420 1493     		str	r3, [sp, #80]
 878              	.LVL75:
 159:./Libraries/CMSIS/NN/Source/ConvolutionFunctions/arm_convolve_HWC_q7_fast_nonsquare.c ****     {
 879              		.loc 1 159 12 view .LVU285
 159:./Libraries/CMSIS/NN/Source/ConvolutionFunctions/arm_convolve_HWC_q7_fast_nonsquare.c ****     {
 880              		.loc 1 159 20 is_stmt 0 view .LVU286
 881 0422 CDE91732 		strd	r3, r2, [sp, #92]
 159:./Libraries/CMSIS/NN/Source/ConvolutionFunctions/arm_convolve_HWC_q7_fast_nonsquare.c ****     {
 882              		.loc 1 159 5 view .LVU287
 883 0426 1A9A     		ldr	r2, [sp, #104]
 884 0428 9342     		cmp	r3, r2
 885 042a FFF6E5AE 		blt	.L17
 159:./Libraries/CMSIS/NN/Source/ConvolutionFunctions/arm_convolve_HWC_q7_fast_nonsquare.c ****     {
 886              		.loc 1 159 5 view .LVU288
 887 042e BA46     		mov	r10, r7
 888              	.LVL76:
 889              	.L16:
 242:./Libraries/CMSIS/NN/Source/ConvolutionFunctions/arm_convolve_HWC_q7_fast_nonsquare.c ****             {
 243:./Libraries/CMSIS/NN/Source/ConvolutionFunctions/arm_convolve_HWC_q7_fast_nonsquare.c ****                 pOut =
 244:./Libraries/CMSIS/NN/Source/ConvolutionFunctions/arm_convolve_HWC_q7_fast_nonsquare.c ****                     arm_nn_mat_mult_kernel_q7_q15_reordered(wt, bufferA, ch_im_out, ch_im_in * dim_
 245:./Libraries/CMSIS/NN/Source/ConvolutionFunctions/arm_convolve_HWC_q7_fast_nonsquare.c ****                                                   bias_shift, out_shift, bias, pOut);
 246:./Libraries/CMSIS/NN/Source/ConvolutionFunctions/arm_convolve_HWC_q7_fast_nonsquare.c ****                 /* counter reset */
 247:./Libraries/CMSIS/NN/Source/ConvolutionFunctions/arm_convolve_HWC_q7_fast_nonsquare.c ****                 pBuffer = bufferA;
 248:./Libraries/CMSIS/NN/Source/ConvolutionFunctions/arm_convolve_HWC_q7_fast_nonsquare.c ****             }
 249:./Libraries/CMSIS/NN/Source/ConvolutionFunctions/arm_convolve_HWC_q7_fast_nonsquare.c ****         }
 250:./Libraries/CMSIS/NN/Source/ConvolutionFunctions/arm_convolve_HWC_q7_fast_nonsquare.c ****     }
 251:./Libraries/CMSIS/NN/Source/ConvolutionFunctions/arm_convolve_HWC_q7_fast_nonsquare.c **** 
 252:./Libraries/CMSIS/NN/Source/ConvolutionFunctions/arm_convolve_HWC_q7_fast_nonsquare.c ****     for (; i_out_y < dim_im_out_y; i_out_y++)
ARM GAS  /tmp/ccef1Oo3.s 			page 25


 890              		.loc 1 252 12 is_stmt 1 view .LVU289
 891              		.loc 1 252 5 is_stmt 0 view .LVU290
 892 0430 1798     		ldr	r0, [sp, #92]
 893 0432 199A     		ldr	r2, [sp, #100]
 894 0434 9042     		cmp	r0, r2
 895 0436 80F29C80 		bge	.L44
 253:./Libraries/CMSIS/NN/Source/ConvolutionFunctions/arm_convolve_HWC_q7_fast_nonsquare.c ****     {
 254:./Libraries/CMSIS/NN/Source/ConvolutionFunctions/arm_convolve_HWC_q7_fast_nonsquare.c ****         for (i_out_x = 0; i_out_x < dim_im_out_x; i_out_x++)
 255:./Libraries/CMSIS/NN/Source/ConvolutionFunctions/arm_convolve_HWC_q7_fast_nonsquare.c ****         {
 256:./Libraries/CMSIS/NN/Source/ConvolutionFunctions/arm_convolve_HWC_q7_fast_nonsquare.c ****             /* This part implements the im2col function */
 257:./Libraries/CMSIS/NN/Source/ConvolutionFunctions/arm_convolve_HWC_q7_fast_nonsquare.c ****             for (i_ker_y = i_out_y * stride_y - padding_y; i_ker_y < i_out_y * stride_y - padding_y
 258:./Libraries/CMSIS/NN/Source/ConvolutionFunctions/arm_convolve_HWC_q7_fast_nonsquare.c ****                  i_ker_y++)
 259:./Libraries/CMSIS/NN/Source/ConvolutionFunctions/arm_convolve_HWC_q7_fast_nonsquare.c ****             {
 260:./Libraries/CMSIS/NN/Source/ConvolutionFunctions/arm_convolve_HWC_q7_fast_nonsquare.c ****                 for (i_ker_x = i_out_x * stride_x - padding_x; i_ker_x < i_out_x * stride_x - paddi
 261:./Libraries/CMSIS/NN/Source/ConvolutionFunctions/arm_convolve_HWC_q7_fast_nonsquare.c ****                      i_ker_x++)
 262:./Libraries/CMSIS/NN/Source/ConvolutionFunctions/arm_convolve_HWC_q7_fast_nonsquare.c ****                 {
 263:./Libraries/CMSIS/NN/Source/ConvolutionFunctions/arm_convolve_HWC_q7_fast_nonsquare.c ****                     if (i_ker_y < 0 || i_ker_y >= dim_im_in_y || i_ker_x < 0 || i_ker_x >= dim_im_i
 264:./Libraries/CMSIS/NN/Source/ConvolutionFunctions/arm_convolve_HWC_q7_fast_nonsquare.c ****                     {
 265:./Libraries/CMSIS/NN/Source/ConvolutionFunctions/arm_convolve_HWC_q7_fast_nonsquare.c ****                         /* arm_fill_q15(0, pBuffer, ch_im_in); */
 266:./Libraries/CMSIS/NN/Source/ConvolutionFunctions/arm_convolve_HWC_q7_fast_nonsquare.c ****                         memset(pBuffer, 0, sizeof(q15_t)*ch_im_in);
 267:./Libraries/CMSIS/NN/Source/ConvolutionFunctions/arm_convolve_HWC_q7_fast_nonsquare.c ****                     } else
 268:./Libraries/CMSIS/NN/Source/ConvolutionFunctions/arm_convolve_HWC_q7_fast_nonsquare.c ****                     {
 269:./Libraries/CMSIS/NN/Source/ConvolutionFunctions/arm_convolve_HWC_q7_fast_nonsquare.c ****                         arm_q7_to_q15_reordered_no_shift((q7_t *) Im_in + (i_ker_y * dim_im_in_x + 
 270:./Libraries/CMSIS/NN/Source/ConvolutionFunctions/arm_convolve_HWC_q7_fast_nonsquare.c ****                                                          pBuffer, ch_im_in);
 271:./Libraries/CMSIS/NN/Source/ConvolutionFunctions/arm_convolve_HWC_q7_fast_nonsquare.c ****                     }
 272:./Libraries/CMSIS/NN/Source/ConvolutionFunctions/arm_convolve_HWC_q7_fast_nonsquare.c ****                     pBuffer += ch_im_in;
 273:./Libraries/CMSIS/NN/Source/ConvolutionFunctions/arm_convolve_HWC_q7_fast_nonsquare.c ****                 }
 274:./Libraries/CMSIS/NN/Source/ConvolutionFunctions/arm_convolve_HWC_q7_fast_nonsquare.c ****             }
 275:./Libraries/CMSIS/NN/Source/ConvolutionFunctions/arm_convolve_HWC_q7_fast_nonsquare.c **** 
 276:./Libraries/CMSIS/NN/Source/ConvolutionFunctions/arm_convolve_HWC_q7_fast_nonsquare.c ****             if (pBuffer == bufferA + 2 * ch_im_in * dim_kernel_x * dim_kernel_y)
 896              		.loc 1 276 36 view .LVU291
 897 043a 0B9C     		ldr	r4, [sp, #44]
 266:./Libraries/CMSIS/NN/Source/ConvolutionFunctions/arm_convolve_HWC_q7_fast_nonsquare.c ****                     } else
 898              		.loc 1 266 25 view .LVU292
 899 043c 4FEA4B09 		lsl	r9, fp, #1
 900              		.loc 1 276 36 view .LVU293
 901 0440 169B     		ldr	r3, [sp, #88]
 902 0442 2146     		mov	r1, r4
 903 0444 CDF81480 		str	r8, [sp, #20]
 277:./Libraries/CMSIS/NN/Source/ConvolutionFunctions/arm_convolve_HWC_q7_fast_nonsquare.c ****             {
 278:./Libraries/CMSIS/NN/Source/ConvolutionFunctions/arm_convolve_HWC_q7_fast_nonsquare.c ****                 pOut =
 279:./Libraries/CMSIS/NN/Source/ConvolutionFunctions/arm_convolve_HWC_q7_fast_nonsquare.c ****                     arm_nn_mat_mult_kernel_q7_q15_reordered(wt, bufferA, ch_im_out, ch_im_in * dim_
 904              		.loc 1 279 21 view .LVU294
 905 0448 14FB03F2 		smulbb	r2, r4, r3
 906 044c DDF86C80 		ldr	r8, [sp, #108]
 276:./Libraries/CMSIS/NN/Source/ConvolutionFunctions/arm_convolve_HWC_q7_fast_nonsquare.c ****             {
 907              		.loc 1 276 36 view .LVU295
 908 0450 03FB01F1 		mul	r1, r3, r1
 909              		.loc 1 279 21 view .LVU296
 910 0454 12FB0BF2 		smulbb	r2, r2, fp
 911 0458 CDF824B0 		str	fp, [sp, #36]
 276:./Libraries/CMSIS/NN/Source/ConvolutionFunctions/arm_convolve_HWC_q7_fast_nonsquare.c ****             {
 912              		.loc 1 276 36 view .LVU297
 913 045c 0BFB01F1 		mul	r1, fp, r1
 914              		.loc 1 279 21 view .LVU298
 915 0460 92B2     		uxth	r2, r2
 916 0462 DDE91343 		ldrd	r4, r3, [sp, #76]
ARM GAS  /tmp/ccef1Oo3.s 			page 26


 917 0466 08EE102A 		vmov	s16, r2	@ int
 918 046a 0246     		mov	r2, r0
 919 046c 13FB04F3 		smulbb	r3, r3, r4
 920 0470 159C     		ldr	r4, [sp, #84]
 921 0472 1B1B     		subs	r3, r3, r4
 276:./Libraries/CMSIS/NN/Source/ConvolutionFunctions/arm_convolve_HWC_q7_fast_nonsquare.c ****             {
 922              		.loc 1 276 36 view .LVU299
 923 0474 389C     		ldr	r4, [sp, #224]
 924 0476 9BB2     		uxth	r3, r3
 925 0478 04EB8101 		add	r1, r4, r1, lsl #2
 926 047c 1793     		str	r3, [sp, #92]
 927 047e 0F91     		str	r1, [sp, #60]
 928              	.LVL77:
 929              	.L45:
 254:./Libraries/CMSIS/NN/Source/ConvolutionFunctions/arm_convolve_HWC_q7_fast_nonsquare.c ****         {
 930              		.loc 1 254 27 is_stmt 1 view .LVU300
 254:./Libraries/CMSIS/NN/Source/ConvolutionFunctions/arm_convolve_HWC_q7_fast_nonsquare.c ****         {
 931              		.loc 1 254 9 is_stmt 0 view .LVU301
 932 0480 0C9B     		ldr	r3, [sp, #48]
 933 0482 002B     		cmp	r3, #0
 934 0484 65D0     		beq	.L56
 257:./Libraries/CMSIS/NN/Source/ConvolutionFunctions/arm_convolve_HWC_q7_fast_nonsquare.c ****                  i_ker_y++)
 935              		.loc 1 257 89 view .LVU302
 936 0486 139B     		ldr	r3, [sp, #76]
 937 0488 1699     		ldr	r1, [sp, #88]
 257:./Libraries/CMSIS/NN/Source/ConvolutionFunctions/arm_convolve_HWC_q7_fast_nonsquare.c ****                  i_ker_y++)
 938              		.loc 1 257 26 view .LVU303
 939 048a BDF95C00 		ldrsh	r0, [sp, #92]
 257:./Libraries/CMSIS/NN/Source/ConvolutionFunctions/arm_convolve_HWC_q7_fast_nonsquare.c ****                  i_ker_y++)
 940              		.loc 1 257 89 view .LVU304
 941 048e 02FB0312 		mla	r2, r2, r3, r1
 942 0492 0A9B     		ldr	r3, [sp, #40]
 257:./Libraries/CMSIS/NN/Source/ConvolutionFunctions/arm_convolve_HWC_q7_fast_nonsquare.c ****                  i_ker_y++)
 943              		.loc 1 257 26 view .LVU305
 944 0494 1090     		str	r0, [sp, #64]
 257:./Libraries/CMSIS/NN/Source/ConvolutionFunctions/arm_convolve_HWC_q7_fast_nonsquare.c ****                  i_ker_y++)
 945              		.loc 1 257 101 view .LVU306
 946 0496 1598     		ldr	r0, [sp, #84]
 947 0498 5942     		rsbs	r1, r3, #0
 254:./Libraries/CMSIS/NN/Source/ConvolutionFunctions/arm_convolve_HWC_q7_fast_nonsquare.c ****         {
 948              		.loc 1 254 22 view .LVU307
 949 049a 0023     		movs	r3, #0
 257:./Libraries/CMSIS/NN/Source/ConvolutionFunctions/arm_convolve_HWC_q7_fast_nonsquare.c ****                  i_ker_y++)
 950              		.loc 1 257 101 view .LVU308
 951 049c 121A     		subs	r2, r2, r0
 254:./Libraries/CMSIS/NN/Source/ConvolutionFunctions/arm_convolve_HWC_q7_fast_nonsquare.c ****         {
 952              		.loc 1 254 22 view .LVU309
 953 049e 0E93     		str	r3, [sp, #56]
 257:./Libraries/CMSIS/NN/Source/ConvolutionFunctions/arm_convolve_HWC_q7_fast_nonsquare.c ****                  i_ker_y++)
 954              		.loc 1 257 101 view .LVU310
 955 04a0 0792     		str	r2, [sp, #28]
 956 04a2 8AB2     		uxth	r2, r1
 957 04a4 0D92     		str	r2, [sp, #52]
 254:./Libraries/CMSIS/NN/Source/ConvolutionFunctions/arm_convolve_HWC_q7_fast_nonsquare.c ****         {
 958              		.loc 1 254 35 view .LVU311
 959 04a6 1A46     		mov	r2, r3
 960              	.LVL78:
ARM GAS  /tmp/ccef1Oo3.s 			page 27


 961              	.L54:
 257:./Libraries/CMSIS/NN/Source/ConvolutionFunctions/arm_convolve_HWC_q7_fast_nonsquare.c ****                  i_ker_y++)
 962              		.loc 1 257 13 is_stmt 1 view .LVU312
 257:./Libraries/CMSIS/NN/Source/ConvolutionFunctions/arm_convolve_HWC_q7_fast_nonsquare.c ****                  i_ker_y++)
 963              		.loc 1 257 60 view .LVU313
 257:./Libraries/CMSIS/NN/Source/ConvolutionFunctions/arm_convolve_HWC_q7_fast_nonsquare.c ****                  i_ker_y++)
 964              		.loc 1 257 13 is_stmt 0 view .LVU314
 965 04a8 109B     		ldr	r3, [sp, #64]
 966 04aa 0798     		ldr	r0, [sp, #28]
 967 04ac 8342     		cmp	r3, r0
 968 04ae 3EDA     		bge	.L46
 260:./Libraries/CMSIS/NN/Source/ConvolutionFunctions/arm_convolve_HWC_q7_fast_nonsquare.c ****                      i_ker_x++)
 969              		.loc 1 260 93 view .LVU315
 970 04b0 0899     		ldr	r1, [sp, #32]
 257:./Libraries/CMSIS/NN/Source/ConvolutionFunctions/arm_convolve_HWC_q7_fast_nonsquare.c ****                  i_ker_y++)
 971              		.loc 1 257 26 view .LVU316
 972 04b2 1D46     		mov	r5, r3
 260:./Libraries/CMSIS/NN/Source/ConvolutionFunctions/arm_convolve_HWC_q7_fast_nonsquare.c ****                      i_ker_x++)
 973              		.loc 1 260 93 view .LVU317
 974 04b4 0B98     		ldr	r0, [sp, #44]
 260:./Libraries/CMSIS/NN/Source/ConvolutionFunctions/arm_convolve_HWC_q7_fast_nonsquare.c ****                      i_ker_x++)
 975              		.loc 1 260 105 view .LVU318
 976 04b6 1F46     		mov	r7, r3
 977 04b8 0A9B     		ldr	r3, [sp, #40]
 260:./Libraries/CMSIS/NN/Source/ConvolutionFunctions/arm_convolve_HWC_q7_fast_nonsquare.c ****                      i_ker_x++)
 978              		.loc 1 260 93 view .LVU319
 979 04ba 02FB0102 		mla	r2, r2, r1, r0
 260:./Libraries/CMSIS/NN/Source/ConvolutionFunctions/arm_convolve_HWC_q7_fast_nonsquare.c ****                      i_ker_x++)
 980              		.loc 1 260 30 view .LVU320
 981 04be BDF934B0 		ldrsh	fp, [sp, #52]
 260:./Libraries/CMSIS/NN/Source/ConvolutionFunctions/arm_convolve_HWC_q7_fast_nonsquare.c ****                      i_ker_x++)
 982              		.loc 1 260 105 view .LVU321
 983 04c2 D61A     		subs	r6, r2, r3
 984              	.LVL79:
 985              	.L52:
 260:./Libraries/CMSIS/NN/Source/ConvolutionFunctions/arm_convolve_HWC_q7_fast_nonsquare.c ****                      i_ker_x++)
 986              		.loc 1 260 17 is_stmt 1 view .LVU322
 260:./Libraries/CMSIS/NN/Source/ConvolutionFunctions/arm_convolve_HWC_q7_fast_nonsquare.c ****                      i_ker_x++)
 987              		.loc 1 260 64 view .LVU323
 260:./Libraries/CMSIS/NN/Source/ConvolutionFunctions/arm_convolve_HWC_q7_fast_nonsquare.c ****                      i_ker_x++)
 988              		.loc 1 260 17 is_stmt 0 view .LVU324
 989 04c4 5E45     		cmp	r6, fp
 990 04c6 2CDD     		ble	.L47
 269:./Libraries/CMSIS/NN/Source/ConvolutionFunctions/arm_convolve_HWC_q7_fast_nonsquare.c ****                                                          pBuffer, ch_im_in);
 991              		.loc 1 269 84 view .LVU325
 992 04c8 059B     		ldr	r3, [sp, #20]
 260:./Libraries/CMSIS/NN/Source/ConvolutionFunctions/arm_convolve_HWC_q7_fast_nonsquare.c ****                      i_ker_x++)
 993              		.loc 1 260 30 view .LVU326
 994 04ca 5C46     		mov	r4, fp
 269:./Libraries/CMSIS/NN/Source/ConvolutionFunctions/arm_convolve_HWC_q7_fast_nonsquare.c ****                                                          pBuffer, ch_im_in);
 995              		.loc 1 269 84 view .LVU327
 996 04cc DC46     		mov	ip, fp
 997 04ce 07FB03F3 		mul	r3, r7, r3
 998 04d2 0693     		str	r3, [sp, #24]
 999 04d4 07E0     		b	.L51
 1000              	.LVL80:
 1001              	.L48:
ARM GAS  /tmp/ccef1Oo3.s 			page 28


 269:./Libraries/CMSIS/NN/Source/ConvolutionFunctions/arm_convolve_HWC_q7_fast_nonsquare.c ****                                                          pBuffer, ch_im_in);
 1002              		.loc 1 269 84 view .LVU328
 1003 04d6 0134     		adds	r4, r4, #1
 1004              	.LVL81:
 266:./Libraries/CMSIS/NN/Source/ConvolutionFunctions/arm_convolve_HWC_q7_fast_nonsquare.c ****                     } else
 1005              		.loc 1 266 25 view .LVU329
 1006 04d8 FFF7FEFF 		bl	memset
 1007              	.LVL82:
 272:./Libraries/CMSIS/NN/Source/ConvolutionFunctions/arm_convolve_HWC_q7_fast_nonsquare.c ****                 }
 1008              		.loc 1 272 21 is_stmt 1 view .LVU330
 272:./Libraries/CMSIS/NN/Source/ConvolutionFunctions/arm_convolve_HWC_q7_fast_nonsquare.c ****                 }
 1009              		.loc 1 272 29 is_stmt 0 view .LVU331
 1010 04dc CA44     		add	r10, r10, r9
 1011              	.LVL83:
 261:./Libraries/CMSIS/NN/Source/ConvolutionFunctions/arm_convolve_HWC_q7_fast_nonsquare.c ****                 {
 1012              		.loc 1 261 22 is_stmt 1 view .LVU332
 1013 04de 24B2     		sxth	r4, r4
 1014              	.LVL84:
 260:./Libraries/CMSIS/NN/Source/ConvolutionFunctions/arm_convolve_HWC_q7_fast_nonsquare.c ****                      i_ker_x++)
 1015              		.loc 1 260 64 view .LVU333
 260:./Libraries/CMSIS/NN/Source/ConvolutionFunctions/arm_convolve_HWC_q7_fast_nonsquare.c ****                      i_ker_x++)
 1016              		.loc 1 260 17 is_stmt 0 view .LVU334
 1017 04e0 B442     		cmp	r4, r6
 260:./Libraries/CMSIS/NN/Source/ConvolutionFunctions/arm_convolve_HWC_q7_fast_nonsquare.c ****                      i_ker_x++)
 1018              		.loc 1 260 72 view .LVU335
 1019 04e2 A446     		mov	ip, r4
 260:./Libraries/CMSIS/NN/Source/ConvolutionFunctions/arm_convolve_HWC_q7_fast_nonsquare.c ****                      i_ker_x++)
 1020              		.loc 1 260 17 view .LVU336
 1021 04e4 1DDA     		bge	.L47
 1022              	.LVL85:
 1023              	.L51:
 263:./Libraries/CMSIS/NN/Source/ConvolutionFunctions/arm_convolve_HWC_q7_fast_nonsquare.c ****                     {
 1024              		.loc 1 263 21 is_stmt 1 view .LVU337
 266:./Libraries/CMSIS/NN/Source/ConvolutionFunctions/arm_convolve_HWC_q7_fast_nonsquare.c ****                     } else
 1025              		.loc 1 266 25 view .LVU338
 263:./Libraries/CMSIS/NN/Source/ConvolutionFunctions/arm_convolve_HWC_q7_fast_nonsquare.c ****                     {
 1026              		.loc 1 263 24 is_stmt 0 view .LVU339
 1027 04e6 002D     		cmp	r5, #0
 266:./Libraries/CMSIS/NN/Source/ConvolutionFunctions/arm_convolve_HWC_q7_fast_nonsquare.c ****                     } else
 1028              		.loc 1 266 25 view .LVU340
 1029 04e8 4A46     		mov	r2, r9
 1030 04ea 4FF00001 		mov	r1, #0
 1031 04ee 5046     		mov	r0, r10
 263:./Libraries/CMSIS/NN/Source/ConvolutionFunctions/arm_convolve_HWC_q7_fast_nonsquare.c ****                     {
 1032              		.loc 1 263 24 view .LVU341
 1033 04f0 F1DB     		blt	.L48
 1034              	.LVL86:
 263:./Libraries/CMSIS/NN/Source/ConvolutionFunctions/arm_convolve_HWC_q7_fast_nonsquare.c ****                     {
 1035              		.loc 1 263 63 discriminator 1 view .LVU342
 1036 04f2 B845     		cmp	r8, r7
 1037 04f4 EFDD     		ble	.L48
 1038 04f6 8C42     		cmp	r4, r1
 1039 04f8 EDDB     		blt	.L48
 263:./Libraries/CMSIS/NN/Source/ConvolutionFunctions/arm_convolve_HWC_q7_fast_nonsquare.c ****                     {
 1040              		.loc 1 263 78 discriminator 3 view .LVU343
 1041 04fa 059B     		ldr	r3, [sp, #20]
 1042 04fc 6345     		cmp	r3, ip
ARM GAS  /tmp/ccef1Oo3.s 			page 29


 1043 04fe EADD     		ble	.L48
 269:./Libraries/CMSIS/NN/Source/ConvolutionFunctions/arm_convolve_HWC_q7_fast_nonsquare.c ****                                                          pBuffer, ch_im_in);
 1044              		.loc 1 269 25 is_stmt 1 view .LVU344
 269:./Libraries/CMSIS/NN/Source/ConvolutionFunctions/arm_convolve_HWC_q7_fast_nonsquare.c ****                                                          pBuffer, ch_im_in);
 1045              		.loc 1 269 98 is_stmt 0 view .LVU345
 1046 0500 069B     		ldr	r3, [sp, #24]
 1047 0502 0134     		adds	r4, r4, #1
 1048              	.LVL87:
 269:./Libraries/CMSIS/NN/Source/ConvolutionFunctions/arm_convolve_HWC_q7_fast_nonsquare.c ****                                                          pBuffer, ch_im_in);
 1049              		.loc 1 269 25 view .LVU346
 1050 0504 5146     		mov	r1, r10
 272:./Libraries/CMSIS/NN/Source/ConvolutionFunctions/arm_convolve_HWC_q7_fast_nonsquare.c ****                 }
 1051              		.loc 1 272 29 view .LVU347
 1052 0506 CA44     		add	r10, r10, r9
 269:./Libraries/CMSIS/NN/Source/ConvolutionFunctions/arm_convolve_HWC_q7_fast_nonsquare.c ****                                                          pBuffer, ch_im_in);
 1053              		.loc 1 269 98 view .LVU348
 1054 0508 03EB0C00 		add	r0, r3, ip
 1055              	.LVL88:
 269:./Libraries/CMSIS/NN/Source/ConvolutionFunctions/arm_convolve_HWC_q7_fast_nonsquare.c ****                                                          pBuffer, ch_im_in);
 1056              		.loc 1 269 25 view .LVU349
 1057 050c 099B     		ldr	r3, [sp, #36]
 1058 050e 24B2     		sxth	r4, r4
 1059 0510 1A46     		mov	r2, r3
 1060 0512 049B     		ldr	r3, [sp, #16]
 1061 0514 02FB0030 		mla	r0, r2, r0, r3
 1062 0518 FFF7FEFF 		bl	arm_q7_to_q15_reordered_no_shift
 1063              	.LVL89:
 272:./Libraries/CMSIS/NN/Source/ConvolutionFunctions/arm_convolve_HWC_q7_fast_nonsquare.c ****                 }
 1064              		.loc 1 272 21 is_stmt 1 view .LVU350
 261:./Libraries/CMSIS/NN/Source/ConvolutionFunctions/arm_convolve_HWC_q7_fast_nonsquare.c ****                 {
 1065              		.loc 1 261 22 view .LVU351
 260:./Libraries/CMSIS/NN/Source/ConvolutionFunctions/arm_convolve_HWC_q7_fast_nonsquare.c ****                      i_ker_x++)
 1066              		.loc 1 260 64 view .LVU352
 260:./Libraries/CMSIS/NN/Source/ConvolutionFunctions/arm_convolve_HWC_q7_fast_nonsquare.c ****                      i_ker_x++)
 1067              		.loc 1 260 17 is_stmt 0 view .LVU353
 1068 051c B442     		cmp	r4, r6
 260:./Libraries/CMSIS/NN/Source/ConvolutionFunctions/arm_convolve_HWC_q7_fast_nonsquare.c ****                      i_ker_x++)
 1069              		.loc 1 260 72 view .LVU354
 1070 051e A446     		mov	ip, r4
 260:./Libraries/CMSIS/NN/Source/ConvolutionFunctions/arm_convolve_HWC_q7_fast_nonsquare.c ****                      i_ker_x++)
 1071              		.loc 1 260 17 view .LVU355
 1072 0520 E1DB     		blt	.L51
 1073              	.LVL90:
 1074              	.L47:
 258:./Libraries/CMSIS/NN/Source/ConvolutionFunctions/arm_convolve_HWC_q7_fast_nonsquare.c ****             {
 1075              		.loc 1 258 18 is_stmt 1 view .LVU356
 1076 0522 0135     		adds	r5, r5, #1
 1077              	.LVL91:
 257:./Libraries/CMSIS/NN/Source/ConvolutionFunctions/arm_convolve_HWC_q7_fast_nonsquare.c ****                  i_ker_y++)
 1078              		.loc 1 257 13 is_stmt 0 view .LVU357
 1079 0524 079B     		ldr	r3, [sp, #28]
 1080 0526 2DB2     		sxth	r5, r5
 1081              	.LVL92:
 257:./Libraries/CMSIS/NN/Source/ConvolutionFunctions/arm_convolve_HWC_q7_fast_nonsquare.c ****                  i_ker_y++)
 1082              		.loc 1 257 60 is_stmt 1 view .LVU358
 257:./Libraries/CMSIS/NN/Source/ConvolutionFunctions/arm_convolve_HWC_q7_fast_nonsquare.c ****                  i_ker_y++)
 1083              		.loc 1 257 13 is_stmt 0 view .LVU359
ARM GAS  /tmp/ccef1Oo3.s 			page 30


 1084 0528 9D42     		cmp	r5, r3
 257:./Libraries/CMSIS/NN/Source/ConvolutionFunctions/arm_convolve_HWC_q7_fast_nonsquare.c ****                  i_ker_y++)
 1085              		.loc 1 257 68 view .LVU360
 1086 052a 2F46     		mov	r7, r5
 257:./Libraries/CMSIS/NN/Source/ConvolutionFunctions/arm_convolve_HWC_q7_fast_nonsquare.c ****                  i_ker_y++)
 1087              		.loc 1 257 13 view .LVU361
 1088 052c CADB     		blt	.L52
 1089              	.LVL93:
 1090              	.L46:
 276:./Libraries/CMSIS/NN/Source/ConvolutionFunctions/arm_convolve_HWC_q7_fast_nonsquare.c ****             {
 1091              		.loc 1 276 13 is_stmt 1 view .LVU362
 276:./Libraries/CMSIS/NN/Source/ConvolutionFunctions/arm_convolve_HWC_q7_fast_nonsquare.c ****             {
 1092              		.loc 1 276 16 is_stmt 0 view .LVU363
 1093 052e 0F9B     		ldr	r3, [sp, #60]
 1094 0530 5345     		cmp	r3, r10
 1095 0532 00F09080 		beq	.L98
 1096              	.L53:
 254:./Libraries/CMSIS/NN/Source/ConvolutionFunctions/arm_convolve_HWC_q7_fast_nonsquare.c ****         {
 1097              		.loc 1 254 51 is_stmt 1 discriminator 2 view .LVU364
 1098 0536 0E99     		ldr	r1, [sp, #56]
 1099 0538 0D9B     		ldr	r3, [sp, #52]
 1100 053a 0898     		ldr	r0, [sp, #32]
 1101 053c 0131     		adds	r1, r1, #1
 1102 053e 0344     		add	r3, r3, r0
 1103 0540 1A46     		mov	r2, r3
 1104 0542 0BB2     		sxth	r3, r1
 254:./Libraries/CMSIS/NN/Source/ConvolutionFunctions/arm_convolve_HWC_q7_fast_nonsquare.c ****         {
 1105              		.loc 1 254 9 is_stmt 0 discriminator 2 view .LVU365
 1106 0544 0C99     		ldr	r1, [sp, #48]
 1107 0546 92B2     		uxth	r2, r2
 1108 0548 0E93     		str	r3, [sp, #56]
 1109              	.LVL94:
 254:./Libraries/CMSIS/NN/Source/ConvolutionFunctions/arm_convolve_HWC_q7_fast_nonsquare.c ****         {
 1110              		.loc 1 254 27 is_stmt 1 discriminator 2 view .LVU366
 254:./Libraries/CMSIS/NN/Source/ConvolutionFunctions/arm_convolve_HWC_q7_fast_nonsquare.c ****         {
 1111              		.loc 1 254 9 is_stmt 0 discriminator 2 view .LVU367
 1112 054a 8B42     		cmp	r3, r1
 1113 054c 0D92     		str	r2, [sp, #52]
 254:./Libraries/CMSIS/NN/Source/ConvolutionFunctions/arm_convolve_HWC_q7_fast_nonsquare.c ****         {
 1114              		.loc 1 254 35 discriminator 2 view .LVU368
 1115 054e 1A46     		mov	r2, r3
 254:./Libraries/CMSIS/NN/Source/ConvolutionFunctions/arm_convolve_HWC_q7_fast_nonsquare.c ****         {
 1116              		.loc 1 254 9 discriminator 2 view .LVU369
 1117 0550 AADB     		blt	.L54
 1118              	.LVL95:
 1119              	.L56:
 252:./Libraries/CMSIS/NN/Source/ConvolutionFunctions/arm_convolve_HWC_q7_fast_nonsquare.c ****     {
 1120              		.loc 1 252 36 is_stmt 1 view .LVU370
 1121 0552 1499     		ldr	r1, [sp, #80]
 1122 0554 179B     		ldr	r3, [sp, #92]
 1123 0556 1398     		ldr	r0, [sp, #76]
 1124 0558 0131     		adds	r1, r1, #1
 1125 055a 0344     		add	r3, r3, r0
 1126 055c 1A46     		mov	r2, r3
 1127 055e 0BB2     		sxth	r3, r1
 252:./Libraries/CMSIS/NN/Source/ConvolutionFunctions/arm_convolve_HWC_q7_fast_nonsquare.c ****     {
 1128              		.loc 1 252 5 is_stmt 0 view .LVU371
ARM GAS  /tmp/ccef1Oo3.s 			page 31


 1129 0560 1999     		ldr	r1, [sp, #100]
 1130 0562 92B2     		uxth	r2, r2
 1131 0564 1493     		str	r3, [sp, #80]
 1132              	.LVL96:
 252:./Libraries/CMSIS/NN/Source/ConvolutionFunctions/arm_convolve_HWC_q7_fast_nonsquare.c ****     {
 1133              		.loc 1 252 12 is_stmt 1 view .LVU372
 252:./Libraries/CMSIS/NN/Source/ConvolutionFunctions/arm_convolve_HWC_q7_fast_nonsquare.c ****     {
 1134              		.loc 1 252 5 is_stmt 0 view .LVU373
 1135 0566 8B42     		cmp	r3, r1
 1136 0568 1792     		str	r2, [sp, #92]
 252:./Libraries/CMSIS/NN/Source/ConvolutionFunctions/arm_convolve_HWC_q7_fast_nonsquare.c ****     {
 1137              		.loc 1 252 20 view .LVU374
 1138 056a 1A46     		mov	r2, r3
 252:./Libraries/CMSIS/NN/Source/ConvolutionFunctions/arm_convolve_HWC_q7_fast_nonsquare.c ****     {
 1139              		.loc 1 252 5 view .LVU375
 1140 056c 88DB     		blt	.L45
 252:./Libraries/CMSIS/NN/Source/ConvolutionFunctions/arm_convolve_HWC_q7_fast_nonsquare.c ****     {
 1141              		.loc 1 252 5 view .LVU376
 1142 056e DDF824B0 		ldr	fp, [sp, #36]
 1143              	.LVL97:
 1144              	.L44:
 280:./Libraries/CMSIS/NN/Source/ConvolutionFunctions/arm_convolve_HWC_q7_fast_nonsquare.c ****                                                   bias_shift, out_shift, bias, pOut);
 281:./Libraries/CMSIS/NN/Source/ConvolutionFunctions/arm_convolve_HWC_q7_fast_nonsquare.c ****                 /* counter reset */
 282:./Libraries/CMSIS/NN/Source/ConvolutionFunctions/arm_convolve_HWC_q7_fast_nonsquare.c ****                 pBuffer = bufferA;
 283:./Libraries/CMSIS/NN/Source/ConvolutionFunctions/arm_convolve_HWC_q7_fast_nonsquare.c ****             }
 284:./Libraries/CMSIS/NN/Source/ConvolutionFunctions/arm_convolve_HWC_q7_fast_nonsquare.c ****         }
 285:./Libraries/CMSIS/NN/Source/ConvolutionFunctions/arm_convolve_HWC_q7_fast_nonsquare.c ****     }
 286:./Libraries/CMSIS/NN/Source/ConvolutionFunctions/arm_convolve_HWC_q7_fast_nonsquare.c **** 
 287:./Libraries/CMSIS/NN/Source/ConvolutionFunctions/arm_convolve_HWC_q7_fast_nonsquare.c ****     /* check if there is left-over for compute */
 288:./Libraries/CMSIS/NN/Source/ConvolutionFunctions/arm_convolve_HWC_q7_fast_nonsquare.c ****     if (pBuffer != bufferA)
 1145              		.loc 1 288 5 is_stmt 1 view .LVU377
 1146              		.loc 1 288 8 is_stmt 0 view .LVU378
 1147 0572 389B     		ldr	r3, [sp, #224]
 1148 0574 5345     		cmp	r3, r10
 1149 0576 68D0     		beq	.L58
 1150              	.LVL98:
 1151              	.LBB25:
 289:./Libraries/CMSIS/NN/Source/ConvolutionFunctions/arm_convolve_HWC_q7_fast_nonsquare.c ****     {
 290:./Libraries/CMSIS/NN/Source/ConvolutionFunctions/arm_convolve_HWC_q7_fast_nonsquare.c ****         const q7_t *pA = wt;
 291:./Libraries/CMSIS/NN/Source/ConvolutionFunctions/arm_convolve_HWC_q7_fast_nonsquare.c ****         int       i;
 292:./Libraries/CMSIS/NN/Source/ConvolutionFunctions/arm_convolve_HWC_q7_fast_nonsquare.c ****         for (i = 0; i < ch_im_out; i++)
 1152              		.loc 1 292 21 is_stmt 1 view .LVU379
 1153              		.loc 1 292 9 is_stmt 0 view .LVU380
 1154 0578 18EE903A 		vmov	r3, s17	@ int
 1155 057c 002B     		cmp	r3, #0
 1156 057e 64D0     		beq	.L58
 1157              	.LBB26:
 293:./Libraries/CMSIS/NN/Source/ConvolutionFunctions/arm_convolve_HWC_q7_fast_nonsquare.c ****         {
 294:./Libraries/CMSIS/NN/Source/ConvolutionFunctions/arm_convolve_HWC_q7_fast_nonsquare.c ****             q31_t     sum = ((q31_t)(bias[i]) << bias_shift) + NN_ROUND(out_shift);
 295:./Libraries/CMSIS/NN/Source/ConvolutionFunctions/arm_convolve_HWC_q7_fast_nonsquare.c ****             q15_t    *pB = bufferA;
 296:./Libraries/CMSIS/NN/Source/ConvolutionFunctions/arm_convolve_HWC_q7_fast_nonsquare.c ****             /* basically each time it process 4 entries */
 297:./Libraries/CMSIS/NN/Source/ConvolutionFunctions/arm_convolve_HWC_q7_fast_nonsquare.c ****             uint16_t  colCnt = ch_im_in * dim_kernel_x * dim_kernel_y >> 2;
 1158              		.loc 1 297 41 view .LVU381
 1159 0580 0B9A     		ldr	r2, [sp, #44]
 294:./Libraries/CMSIS/NN/Source/ConvolutionFunctions/arm_convolve_HWC_q7_fast_nonsquare.c ****             q15_t    *pB = bufferA;
 1160              		.loc 1 294 64 view .LVU382
 1161 0582 4FF00108 		mov	r8, #1
ARM GAS  /tmp/ccef1Oo3.s 			page 32


 298:./Libraries/CMSIS/NN/Source/ConvolutionFunctions/arm_convolve_HWC_q7_fast_nonsquare.c **** 
 299:./Libraries/CMSIS/NN/Source/ConvolutionFunctions/arm_convolve_HWC_q7_fast_nonsquare.c ****             while (colCnt)
 300:./Libraries/CMSIS/NN/Source/ConvolutionFunctions/arm_convolve_HWC_q7_fast_nonsquare.c ****             {
 301:./Libraries/CMSIS/NN/Source/ConvolutionFunctions/arm_convolve_HWC_q7_fast_nonsquare.c **** 
 302:./Libraries/CMSIS/NN/Source/ConvolutionFunctions/arm_convolve_HWC_q7_fast_nonsquare.c ****                 q31_t     inA1, inA2;
 303:./Libraries/CMSIS/NN/Source/ConvolutionFunctions/arm_convolve_HWC_q7_fast_nonsquare.c ****                 q31_t     inB1, inB2;
 304:./Libraries/CMSIS/NN/Source/ConvolutionFunctions/arm_convolve_HWC_q7_fast_nonsquare.c **** 
 305:./Libraries/CMSIS/NN/Source/ConvolutionFunctions/arm_convolve_HWC_q7_fast_nonsquare.c ****                 pA = (const q7_t *)read_and_pad_reordered((void *)pA, &inA1, &inA2);
 306:./Libraries/CMSIS/NN/Source/ConvolutionFunctions/arm_convolve_HWC_q7_fast_nonsquare.c **** 
 307:./Libraries/CMSIS/NN/Source/ConvolutionFunctions/arm_convolve_HWC_q7_fast_nonsquare.c ****                 inB1 = *__SIMD32(pB)++;
 308:./Libraries/CMSIS/NN/Source/ConvolutionFunctions/arm_convolve_HWC_q7_fast_nonsquare.c ****                 sum = __SMLAD(inA1, inB1, sum);
 309:./Libraries/CMSIS/NN/Source/ConvolutionFunctions/arm_convolve_HWC_q7_fast_nonsquare.c ****                 inB2 = *__SIMD32(pB)++;
 310:./Libraries/CMSIS/NN/Source/ConvolutionFunctions/arm_convolve_HWC_q7_fast_nonsquare.c ****                 sum = __SMLAD(inA2, inB2, sum);
 311:./Libraries/CMSIS/NN/Source/ConvolutionFunctions/arm_convolve_HWC_q7_fast_nonsquare.c **** 
 312:./Libraries/CMSIS/NN/Source/ConvolutionFunctions/arm_convolve_HWC_q7_fast_nonsquare.c ****                 colCnt--;
 313:./Libraries/CMSIS/NN/Source/ConvolutionFunctions/arm_convolve_HWC_q7_fast_nonsquare.c ****             }
 314:./Libraries/CMSIS/NN/Source/ConvolutionFunctions/arm_convolve_HWC_q7_fast_nonsquare.c ****             colCnt = (ch_im_in * dim_kernel_y * dim_kernel_x) & 0x3;
 1162              		.loc 1 314 63 view .LVU383
 1163 0586 1699     		ldr	r1, [sp, #88]
 297:./Libraries/CMSIS/NN/Source/ConvolutionFunctions/arm_convolve_HWC_q7_fast_nonsquare.c **** 
 1164              		.loc 1 297 41 view .LVU384
 1165 0588 02FB0BF7 		mul	r7, r2, fp
 1166 058c 3298     		ldr	r0, [sp, #200]
 1167              		.loc 1 314 63 view .LVU385
 1168 058e 12FB01F2 		smulbb	r2, r2, r1
 1169 0592 2A9D     		ldr	r5, [sp, #168]
 297:./Libraries/CMSIS/NN/Source/ConvolutionFunctions/arm_convolve_HWC_q7_fast_nonsquare.c **** 
 1170              		.loc 1 297 56 view .LVU386
 1171 0594 01FB07F7 		mul	r7, r1, r7
 294:./Libraries/CMSIS/NN/Source/ConvolutionFunctions/arm_convolve_HWC_q7_fast_nonsquare.c ****             q15_t    *pB = bufferA;
 1172              		.loc 1 294 64 view .LVU387
 1173 0598 1199     		ldr	r1, [sp, #68]
 1174              		.loc 1 314 63 view .LVU388
 1175 059a 12FB0BF2 		smulbb	r2, r2, fp
 1176 059e 441E     		subs	r4, r0, #1
 297:./Libraries/CMSIS/NN/Source/ConvolutionFunctions/arm_convolve_HWC_q7_fast_nonsquare.c **** 
 1177              		.loc 1 297 23 view .LVU389
 1178 05a0 C7F38F07 		ubfx	r7, r7, #2, #16
 294:./Libraries/CMSIS/NN/Source/ConvolutionFunctions/arm_convolve_HWC_q7_fast_nonsquare.c ****             q15_t    *pB = bufferA;
 1179              		.loc 1 294 64 view .LVU390
 1180 05a4 08FA01F8 		lsl	r8, r8, r1
 1181              		.loc 1 314 20 view .LVU391
 1182 05a8 02F00302 		and	r2, r2, #3
 1183 05ac 3599     		ldr	r1, [sp, #212]
 1184 05ae 07F1FF3B 		add	fp, r7, #-1
 294:./Libraries/CMSIS/NN/Source/ConvolutionFunctions/arm_convolve_HWC_q7_fast_nonsquare.c ****             q15_t    *pB = bufferA;
 1185              		.loc 1 294 64 view .LVU392
 1186 05b2 4FEA5808 		lsr	r8, r8, #1
 1187 05b6 0B44     		add	r3, r3, r1
 1188 05b8 02F1FF39 		add	r9, r2, #-1
 1189 05bc 1FFA8BFB 		uxth	fp, fp
 1190 05c0 9E46     		mov	lr, r3
 1191 05c2 1FFA89F9 		uxth	r9, r9
 1192 05c6 0BF1010B 		add	fp, fp, #1
 1193 05ca 389B     		ldr	r3, [sp, #224]
 1194 05cc 09F10109 		add	r9, r9, #1
 1195 05d0 4FEA8B0A 		lsl	r10, fp, #2
ARM GAS  /tmp/ccef1Oo3.s 			page 33


 1196              	.LVL99:
 294:./Libraries/CMSIS/NN/Source/ConvolutionFunctions/arm_convolve_HWC_q7_fast_nonsquare.c ****             q15_t    *pB = bufferA;
 1197              		.loc 1 294 64 view .LVU393
 1198 05d4 03EBCB0B 		add	fp, r3, fp, lsl #3
 1199              	.LVL100:
 1200              	.L63:
 294:./Libraries/CMSIS/NN/Source/ConvolutionFunctions/arm_convolve_HWC_q7_fast_nonsquare.c ****             q15_t    *pB = bufferA;
 1201              		.loc 1 294 13 is_stmt 1 view .LVU394
 294:./Libraries/CMSIS/NN/Source/ConvolutionFunctions/arm_convolve_HWC_q7_fast_nonsquare.c ****             q15_t    *pB = bufferA;
 1202              		.loc 1 294 30 is_stmt 0 view .LVU395
 1203 05d8 14F9013F 		ldrsb	r3, [r4, #1]!
 1204              	.LVL101:
 294:./Libraries/CMSIS/NN/Source/ConvolutionFunctions/arm_convolve_HWC_q7_fast_nonsquare.c ****             q15_t    *pB = bufferA;
 1205              		.loc 1 294 47 view .LVU396
 1206 05dc 1299     		ldr	r1, [sp, #72]
 1207 05de 8B40     		lsls	r3, r3, r1
 294:./Libraries/CMSIS/NN/Source/ConvolutionFunctions/arm_convolve_HWC_q7_fast_nonsquare.c ****             q15_t    *pB = bufferA;
 1208              		.loc 1 294 62 view .LVU397
 1209 05e0 4344     		add	r3, r3, r8
 1210              	.LVL102:
 295:./Libraries/CMSIS/NN/Source/ConvolutionFunctions/arm_convolve_HWC_q7_fast_nonsquare.c ****             /* basically each time it process 4 entries */
 1211              		.loc 1 295 13 is_stmt 1 view .LVU398
 297:./Libraries/CMSIS/NN/Source/ConvolutionFunctions/arm_convolve_HWC_q7_fast_nonsquare.c **** 
 1212              		.loc 1 297 13 view .LVU399
 299:./Libraries/CMSIS/NN/Source/ConvolutionFunctions/arm_convolve_HWC_q7_fast_nonsquare.c ****             {
 1213              		.loc 1 299 13 view .LVU400
 299:./Libraries/CMSIS/NN/Source/ConvolutionFunctions/arm_convolve_HWC_q7_fast_nonsquare.c ****             {
 1214              		.loc 1 299 19 view .LVU401
 1215 05e2 002F     		cmp	r7, #0
 1216 05e4 00F09D80 		beq	.L66
 299:./Libraries/CMSIS/NN/Source/ConvolutionFunctions/arm_convolve_HWC_q7_fast_nonsquare.c ****             {
 1217              		.loc 1 299 19 is_stmt 0 view .LVU402
 1218 05e8 3899     		ldr	r1, [sp, #224]
 1219 05ea 05EB0A06 		add	r6, r5, r10
 1220 05ee 0492     		str	r2, [sp, #16]
 1221 05f0 0831     		adds	r1, r1, #8
 1222              	.LVL103:
 1223              	.L60:
 1224              	.LBB27:
 302:./Libraries/CMSIS/NN/Source/ConvolutionFunctions/arm_convolve_HWC_q7_fast_nonsquare.c ****                 q31_t     inB1, inB2;
 1225              		.loc 1 302 17 is_stmt 1 view .LVU403
 303:./Libraries/CMSIS/NN/Source/ConvolutionFunctions/arm_convolve_HWC_q7_fast_nonsquare.c **** 
 1226              		.loc 1 303 17 view .LVU404
 305:./Libraries/CMSIS/NN/Source/ConvolutionFunctions/arm_convolve_HWC_q7_fast_nonsquare.c **** 
 1227              		.loc 1 305 17 view .LVU405
 1228              	.LBB28:
 1229              	.LBI28:
 1230              		.file 2 "./Libraries/CMSIS/NN/Include/arm_nnsupportfunctions.h"
   1:./Libraries/CMSIS/NN/Include/arm_nnsupportfunctions.h **** /*
   2:./Libraries/CMSIS/NN/Include/arm_nnsupportfunctions.h ****  * Copyright (C) 2010-2018 Arm Limited or its affiliates. All rights reserved.
   3:./Libraries/CMSIS/NN/Include/arm_nnsupportfunctions.h ****  *
   4:./Libraries/CMSIS/NN/Include/arm_nnsupportfunctions.h ****  * SPDX-License-Identifier: Apache-2.0
   5:./Libraries/CMSIS/NN/Include/arm_nnsupportfunctions.h ****  *
   6:./Libraries/CMSIS/NN/Include/arm_nnsupportfunctions.h ****  * Licensed under the Apache License, Version 2.0 (the License); you may
   7:./Libraries/CMSIS/NN/Include/arm_nnsupportfunctions.h ****  * not use this file except in compliance with the License.
   8:./Libraries/CMSIS/NN/Include/arm_nnsupportfunctions.h ****  * You may obtain a copy of the License at
   9:./Libraries/CMSIS/NN/Include/arm_nnsupportfunctions.h ****  *
ARM GAS  /tmp/ccef1Oo3.s 			page 34


  10:./Libraries/CMSIS/NN/Include/arm_nnsupportfunctions.h ****  * www.apache.org/licenses/LICENSE-2.0
  11:./Libraries/CMSIS/NN/Include/arm_nnsupportfunctions.h ****  *
  12:./Libraries/CMSIS/NN/Include/arm_nnsupportfunctions.h ****  * Unless required by applicable law or agreed to in writing, software
  13:./Libraries/CMSIS/NN/Include/arm_nnsupportfunctions.h ****  * distributed under the License is distributed on an AS IS BASIS, WITHOUT
  14:./Libraries/CMSIS/NN/Include/arm_nnsupportfunctions.h ****  * WARRANTIES OR CONDITIONS OF ANY KIND, either express or implied.
  15:./Libraries/CMSIS/NN/Include/arm_nnsupportfunctions.h ****  * See the License for the specific language governing permissions and
  16:./Libraries/CMSIS/NN/Include/arm_nnsupportfunctions.h ****  * limitations under the License.
  17:./Libraries/CMSIS/NN/Include/arm_nnsupportfunctions.h ****  */
  18:./Libraries/CMSIS/NN/Include/arm_nnsupportfunctions.h **** 
  19:./Libraries/CMSIS/NN/Include/arm_nnsupportfunctions.h **** /* ----------------------------------------------------------------------
  20:./Libraries/CMSIS/NN/Include/arm_nnsupportfunctions.h ****  * Project:      CMSIS NN Library
  21:./Libraries/CMSIS/NN/Include/arm_nnsupportfunctions.h ****  * Title:        arm_nnsupportfunctions.h
  22:./Libraries/CMSIS/NN/Include/arm_nnsupportfunctions.h ****  * Description:  Public header file of support functions for CMSIS NN Library
  23:./Libraries/CMSIS/NN/Include/arm_nnsupportfunctions.h ****  *
  24:./Libraries/CMSIS/NN/Include/arm_nnsupportfunctions.h ****  * $Date:        13. July 2018
  25:./Libraries/CMSIS/NN/Include/arm_nnsupportfunctions.h ****  * $Revision:    V.1.0.0
  26:./Libraries/CMSIS/NN/Include/arm_nnsupportfunctions.h ****  *
  27:./Libraries/CMSIS/NN/Include/arm_nnsupportfunctions.h ****  * Target Processor:  Cortex-M cores
  28:./Libraries/CMSIS/NN/Include/arm_nnsupportfunctions.h ****  * -------------------------------------------------------------------- */
  29:./Libraries/CMSIS/NN/Include/arm_nnsupportfunctions.h **** 
  30:./Libraries/CMSIS/NN/Include/arm_nnsupportfunctions.h **** #ifndef _ARM_NNSUPPORTFUNCTIONS_H_
  31:./Libraries/CMSIS/NN/Include/arm_nnsupportfunctions.h **** #define _ARM_NNSUPPORTFUNCTIONS_H_
  32:./Libraries/CMSIS/NN/Include/arm_nnsupportfunctions.h **** 
  33:./Libraries/CMSIS/NN/Include/arm_nnsupportfunctions.h **** #include "arm_math.h"
  34:./Libraries/CMSIS/NN/Include/arm_nnsupportfunctions.h **** #include "arm_common_tables.h"
  35:./Libraries/CMSIS/NN/Include/arm_nnsupportfunctions.h **** 
  36:./Libraries/CMSIS/NN/Include/arm_nnsupportfunctions.h **** #ifdef __cplusplus
  37:./Libraries/CMSIS/NN/Include/arm_nnsupportfunctions.h **** extern    "C"
  38:./Libraries/CMSIS/NN/Include/arm_nnsupportfunctions.h **** {
  39:./Libraries/CMSIS/NN/Include/arm_nnsupportfunctions.h **** #endif
  40:./Libraries/CMSIS/NN/Include/arm_nnsupportfunctions.h **** 
  41:./Libraries/CMSIS/NN/Include/arm_nnsupportfunctions.h **** #define LEFT_SHIFT(_shift)  (_shift > 0 ? _shift : 0)
  42:./Libraries/CMSIS/NN/Include/arm_nnsupportfunctions.h **** #define RIGHT_SHIFT(_shift) (_shift > 0 ? 0 : -_shift)
  43:./Libraries/CMSIS/NN/Include/arm_nnsupportfunctions.h **** #define Q31_MIN (0x80000000L)
  44:./Libraries/CMSIS/NN/Include/arm_nnsupportfunctions.h **** #define Q31_MAX (0x7FFFFFFFL)
  45:./Libraries/CMSIS/NN/Include/arm_nnsupportfunctions.h **** 
  46:./Libraries/CMSIS/NN/Include/arm_nnsupportfunctions.h **** /**
  47:./Libraries/CMSIS/NN/Include/arm_nnsupportfunctions.h ****  * @brief Union for SIMD access of Q31/Q15/Q7 types
  48:./Libraries/CMSIS/NN/Include/arm_nnsupportfunctions.h ****  */
  49:./Libraries/CMSIS/NN/Include/arm_nnsupportfunctions.h **** union arm_nnword
  50:./Libraries/CMSIS/NN/Include/arm_nnsupportfunctions.h **** {
  51:./Libraries/CMSIS/NN/Include/arm_nnsupportfunctions.h ****     q31_t     word;
  52:./Libraries/CMSIS/NN/Include/arm_nnsupportfunctions.h ****                /**< Q31 type */
  53:./Libraries/CMSIS/NN/Include/arm_nnsupportfunctions.h ****     q15_t     half_words[2];
  54:./Libraries/CMSIS/NN/Include/arm_nnsupportfunctions.h ****                /**< Q15 type */
  55:./Libraries/CMSIS/NN/Include/arm_nnsupportfunctions.h ****     q7_t      bytes[4];
  56:./Libraries/CMSIS/NN/Include/arm_nnsupportfunctions.h ****                /**< Q7 type */
  57:./Libraries/CMSIS/NN/Include/arm_nnsupportfunctions.h **** };
  58:./Libraries/CMSIS/NN/Include/arm_nnsupportfunctions.h **** 
  59:./Libraries/CMSIS/NN/Include/arm_nnsupportfunctions.h **** /**
  60:./Libraries/CMSIS/NN/Include/arm_nnsupportfunctions.h ****  * @brief Struct for specifying activation function types
  61:./Libraries/CMSIS/NN/Include/arm_nnsupportfunctions.h ****  *
  62:./Libraries/CMSIS/NN/Include/arm_nnsupportfunctions.h ****  */
  63:./Libraries/CMSIS/NN/Include/arm_nnsupportfunctions.h **** typedef enum
  64:./Libraries/CMSIS/NN/Include/arm_nnsupportfunctions.h **** {
  65:./Libraries/CMSIS/NN/Include/arm_nnsupportfunctions.h ****     ARM_SIGMOID = 0,
  66:./Libraries/CMSIS/NN/Include/arm_nnsupportfunctions.h ****                 /**< Sigmoid activation function */
ARM GAS  /tmp/ccef1Oo3.s 			page 35


  67:./Libraries/CMSIS/NN/Include/arm_nnsupportfunctions.h ****     ARM_TANH = 1,
  68:./Libraries/CMSIS/NN/Include/arm_nnsupportfunctions.h ****              /**< Tanh activation function */
  69:./Libraries/CMSIS/NN/Include/arm_nnsupportfunctions.h **** } arm_nn_activation_type;
  70:./Libraries/CMSIS/NN/Include/arm_nnsupportfunctions.h **** 
  71:./Libraries/CMSIS/NN/Include/arm_nnsupportfunctions.h **** /**
  72:./Libraries/CMSIS/NN/Include/arm_nnsupportfunctions.h ****  * @defgroup nndata_convert Neural Network Data Conversion Functions
  73:./Libraries/CMSIS/NN/Include/arm_nnsupportfunctions.h ****  *
  74:./Libraries/CMSIS/NN/Include/arm_nnsupportfunctions.h ****  * Perform data type conversion in-between neural network operations
  75:./Libraries/CMSIS/NN/Include/arm_nnsupportfunctions.h ****  *
  76:./Libraries/CMSIS/NN/Include/arm_nnsupportfunctions.h ****  */
  77:./Libraries/CMSIS/NN/Include/arm_nnsupportfunctions.h **** 
  78:./Libraries/CMSIS/NN/Include/arm_nnsupportfunctions.h **** /**
  79:./Libraries/CMSIS/NN/Include/arm_nnsupportfunctions.h ****  * @brief Converts the elements of the Q7 vector to Q15 vector without left-shift
  80:./Libraries/CMSIS/NN/Include/arm_nnsupportfunctions.h ****  * @param[in]       *pSrc points to the Q7 input vector
  81:./Libraries/CMSIS/NN/Include/arm_nnsupportfunctions.h ****  * @param[out]      *pDst points to the Q15 output vector
  82:./Libraries/CMSIS/NN/Include/arm_nnsupportfunctions.h ****  * @param[in]       blockSize length of the input vector
  83:./Libraries/CMSIS/NN/Include/arm_nnsupportfunctions.h ****  * @return none.
  84:./Libraries/CMSIS/NN/Include/arm_nnsupportfunctions.h ****  *
  85:./Libraries/CMSIS/NN/Include/arm_nnsupportfunctions.h ****  */
  86:./Libraries/CMSIS/NN/Include/arm_nnsupportfunctions.h **** 
  87:./Libraries/CMSIS/NN/Include/arm_nnsupportfunctions.h **** void      arm_q7_to_q15_no_shift(const q7_t * pSrc, q15_t * pDst, uint32_t blockSize);
  88:./Libraries/CMSIS/NN/Include/arm_nnsupportfunctions.h **** 
  89:./Libraries/CMSIS/NN/Include/arm_nnsupportfunctions.h **** /**
  90:./Libraries/CMSIS/NN/Include/arm_nnsupportfunctions.h ****  * @brief  Converts the elements of the Q7 vector to reordered Q15 vector without left-shift
  91:./Libraries/CMSIS/NN/Include/arm_nnsupportfunctions.h ****  * @param[in]       *pSrc points to the Q7 input vector
  92:./Libraries/CMSIS/NN/Include/arm_nnsupportfunctions.h ****  * @param[out]      *pDst points to the Q15 output vector
  93:./Libraries/CMSIS/NN/Include/arm_nnsupportfunctions.h ****  * @param[in]       blockSize length of the input vector
  94:./Libraries/CMSIS/NN/Include/arm_nnsupportfunctions.h ****  * @return none.
  95:./Libraries/CMSIS/NN/Include/arm_nnsupportfunctions.h ****  *
  96:./Libraries/CMSIS/NN/Include/arm_nnsupportfunctions.h ****  */
  97:./Libraries/CMSIS/NN/Include/arm_nnsupportfunctions.h **** 
  98:./Libraries/CMSIS/NN/Include/arm_nnsupportfunctions.h **** void      arm_q7_to_q15_reordered_no_shift(const q7_t * pSrc, q15_t * pDst, uint32_t blockSize);
  99:./Libraries/CMSIS/NN/Include/arm_nnsupportfunctions.h **** 
 100:./Libraries/CMSIS/NN/Include/arm_nnsupportfunctions.h **** #if defined (ARM_MATH_DSP)
 101:./Libraries/CMSIS/NN/Include/arm_nnsupportfunctions.h **** 
 102:./Libraries/CMSIS/NN/Include/arm_nnsupportfunctions.h **** /**
 103:./Libraries/CMSIS/NN/Include/arm_nnsupportfunctions.h ****  * @brief read and expand one Q7 word into two Q15 words
 104:./Libraries/CMSIS/NN/Include/arm_nnsupportfunctions.h ****  */
 105:./Libraries/CMSIS/NN/Include/arm_nnsupportfunctions.h **** 
 106:./Libraries/CMSIS/NN/Include/arm_nnsupportfunctions.h **** __STATIC_FORCEINLINE void *read_and_pad(void *source, q31_t * out1, q31_t * out2)
 107:./Libraries/CMSIS/NN/Include/arm_nnsupportfunctions.h **** {
 108:./Libraries/CMSIS/NN/Include/arm_nnsupportfunctions.h ****         q31_t     inA = *__SIMD32(source)++;
 109:./Libraries/CMSIS/NN/Include/arm_nnsupportfunctions.h ****         q31_t     inAbuf1 = __SXTB16(__ROR(inA, 8));
 110:./Libraries/CMSIS/NN/Include/arm_nnsupportfunctions.h ****         q31_t     inAbuf2 = __SXTB16(inA);
 111:./Libraries/CMSIS/NN/Include/arm_nnsupportfunctions.h **** 
 112:./Libraries/CMSIS/NN/Include/arm_nnsupportfunctions.h **** #ifndef ARM_MATH_BIG_ENDIAN
 113:./Libraries/CMSIS/NN/Include/arm_nnsupportfunctions.h ****         *out2 = __PKHTB(inAbuf1, inAbuf2, 16);
 114:./Libraries/CMSIS/NN/Include/arm_nnsupportfunctions.h ****         *out1 = __PKHBT(inAbuf2, inAbuf1, 16);
 115:./Libraries/CMSIS/NN/Include/arm_nnsupportfunctions.h **** #else
 116:./Libraries/CMSIS/NN/Include/arm_nnsupportfunctions.h ****         *out1 = __PKHTB(inAbuf1, inAbuf2, 16);
 117:./Libraries/CMSIS/NN/Include/arm_nnsupportfunctions.h ****         *out2 = __PKHBT(inAbuf2, inAbuf1, 16);
 118:./Libraries/CMSIS/NN/Include/arm_nnsupportfunctions.h **** #endif
 119:./Libraries/CMSIS/NN/Include/arm_nnsupportfunctions.h **** 
 120:./Libraries/CMSIS/NN/Include/arm_nnsupportfunctions.h ****         return source;
 121:./Libraries/CMSIS/NN/Include/arm_nnsupportfunctions.h **** }
 122:./Libraries/CMSIS/NN/Include/arm_nnsupportfunctions.h **** 
 123:./Libraries/CMSIS/NN/Include/arm_nnsupportfunctions.h **** /**
ARM GAS  /tmp/ccef1Oo3.s 			page 36


 124:./Libraries/CMSIS/NN/Include/arm_nnsupportfunctions.h ****  * @brief read and expand one Q7 word into two Q15 words with reordering
 125:./Libraries/CMSIS/NN/Include/arm_nnsupportfunctions.h ****  */
 126:./Libraries/CMSIS/NN/Include/arm_nnsupportfunctions.h **** 
 127:./Libraries/CMSIS/NN/Include/arm_nnsupportfunctions.h **** __STATIC_FORCEINLINE void *read_and_pad_reordered(void *source, q31_t * out1, q31_t * out2)
 1231              		.loc 2 127 28 view .LVU406
 1232              	.LBB29:
 128:./Libraries/CMSIS/NN/Include/arm_nnsupportfunctions.h **** {
 129:./Libraries/CMSIS/NN/Include/arm_nnsupportfunctions.h ****         q31_t     inA = *__SIMD32(source)++;
 1233              		.loc 2 129 9 view .LVU407
 130:./Libraries/CMSIS/NN/Include/arm_nnsupportfunctions.h **** #ifndef ARM_MATH_BIG_ENDIAN
 131:./Libraries/CMSIS/NN/Include/arm_nnsupportfunctions.h ****         *out2 = __SXTB16(__ROR(inA, 8));
 1234              		.loc 2 131 9 view .LVU408
 1235              		.loc 2 131 17 is_stmt 0 view .LVU409
 1236 05f2 55F8040B 		ldr	r0, [r5], #4
 1237              	.LVL104:
 1238              	.LBB30:
 1239              	.LBI30:
 1240              		.file 3 "./Libraries/CMSIS/Core/Include/cmsis_gcc.h"
   1:./Libraries/CMSIS/Core/Include/cmsis_gcc.h **** /**************************************************************************//**
   2:./Libraries/CMSIS/Core/Include/cmsis_gcc.h ****  * @file     cmsis_gcc.h
   3:./Libraries/CMSIS/Core/Include/cmsis_gcc.h ****  * @brief    CMSIS compiler GCC header file
   4:./Libraries/CMSIS/Core/Include/cmsis_gcc.h ****  * @version  V5.2.0
   5:./Libraries/CMSIS/Core/Include/cmsis_gcc.h ****  * @date     08. May 2019
   6:./Libraries/CMSIS/Core/Include/cmsis_gcc.h ****  ******************************************************************************/
   7:./Libraries/CMSIS/Core/Include/cmsis_gcc.h **** /*
   8:./Libraries/CMSIS/Core/Include/cmsis_gcc.h ****  * Copyright (c) 2009-2019 Arm Limited. All rights reserved.
   9:./Libraries/CMSIS/Core/Include/cmsis_gcc.h ****  *
  10:./Libraries/CMSIS/Core/Include/cmsis_gcc.h ****  * SPDX-License-Identifier: Apache-2.0
  11:./Libraries/CMSIS/Core/Include/cmsis_gcc.h ****  *
  12:./Libraries/CMSIS/Core/Include/cmsis_gcc.h ****  * Licensed under the Apache License, Version 2.0 (the License); you may
  13:./Libraries/CMSIS/Core/Include/cmsis_gcc.h ****  * not use this file except in compliance with the License.
  14:./Libraries/CMSIS/Core/Include/cmsis_gcc.h ****  * You may obtain a copy of the License at
  15:./Libraries/CMSIS/Core/Include/cmsis_gcc.h ****  *
  16:./Libraries/CMSIS/Core/Include/cmsis_gcc.h ****  * www.apache.org/licenses/LICENSE-2.0
  17:./Libraries/CMSIS/Core/Include/cmsis_gcc.h ****  *
  18:./Libraries/CMSIS/Core/Include/cmsis_gcc.h ****  * Unless required by applicable law or agreed to in writing, software
  19:./Libraries/CMSIS/Core/Include/cmsis_gcc.h ****  * distributed under the License is distributed on an AS IS BASIS, WITHOUT
  20:./Libraries/CMSIS/Core/Include/cmsis_gcc.h ****  * WARRANTIES OR CONDITIONS OF ANY KIND, either express or implied.
  21:./Libraries/CMSIS/Core/Include/cmsis_gcc.h ****  * See the License for the specific language governing permissions and
  22:./Libraries/CMSIS/Core/Include/cmsis_gcc.h ****  * limitations under the License.
  23:./Libraries/CMSIS/Core/Include/cmsis_gcc.h ****  */
  24:./Libraries/CMSIS/Core/Include/cmsis_gcc.h **** 
  25:./Libraries/CMSIS/Core/Include/cmsis_gcc.h **** #ifndef __CMSIS_GCC_H
  26:./Libraries/CMSIS/Core/Include/cmsis_gcc.h **** #define __CMSIS_GCC_H
  27:./Libraries/CMSIS/Core/Include/cmsis_gcc.h **** 
  28:./Libraries/CMSIS/Core/Include/cmsis_gcc.h **** /* ignore some GCC warnings */
  29:./Libraries/CMSIS/Core/Include/cmsis_gcc.h **** #pragma GCC diagnostic push
  30:./Libraries/CMSIS/Core/Include/cmsis_gcc.h **** #pragma GCC diagnostic ignored "-Wsign-conversion"
  31:./Libraries/CMSIS/Core/Include/cmsis_gcc.h **** #pragma GCC diagnostic ignored "-Wconversion"
  32:./Libraries/CMSIS/Core/Include/cmsis_gcc.h **** #pragma GCC diagnostic ignored "-Wunused-parameter"
  33:./Libraries/CMSIS/Core/Include/cmsis_gcc.h **** 
  34:./Libraries/CMSIS/Core/Include/cmsis_gcc.h **** /* Fallback for __has_builtin */
  35:./Libraries/CMSIS/Core/Include/cmsis_gcc.h **** #ifndef __has_builtin
  36:./Libraries/CMSIS/Core/Include/cmsis_gcc.h ****   #define __has_builtin(x) (0)
  37:./Libraries/CMSIS/Core/Include/cmsis_gcc.h **** #endif
  38:./Libraries/CMSIS/Core/Include/cmsis_gcc.h **** 
  39:./Libraries/CMSIS/Core/Include/cmsis_gcc.h **** /* CMSIS compiler specific defines */
ARM GAS  /tmp/ccef1Oo3.s 			page 37


  40:./Libraries/CMSIS/Core/Include/cmsis_gcc.h **** #ifndef   __ASM
  41:./Libraries/CMSIS/Core/Include/cmsis_gcc.h ****   #define __ASM                                  __asm
  42:./Libraries/CMSIS/Core/Include/cmsis_gcc.h **** #endif
  43:./Libraries/CMSIS/Core/Include/cmsis_gcc.h **** #ifndef   __INLINE
  44:./Libraries/CMSIS/Core/Include/cmsis_gcc.h ****   #define __INLINE                               inline
  45:./Libraries/CMSIS/Core/Include/cmsis_gcc.h **** #endif
  46:./Libraries/CMSIS/Core/Include/cmsis_gcc.h **** #ifndef   __STATIC_INLINE
  47:./Libraries/CMSIS/Core/Include/cmsis_gcc.h ****   #define __STATIC_INLINE                        static inline
  48:./Libraries/CMSIS/Core/Include/cmsis_gcc.h **** #endif
  49:./Libraries/CMSIS/Core/Include/cmsis_gcc.h **** #ifndef   __STATIC_FORCEINLINE                 
  50:./Libraries/CMSIS/Core/Include/cmsis_gcc.h ****   #define __STATIC_FORCEINLINE                   __attribute__((always_inline)) static inline
  51:./Libraries/CMSIS/Core/Include/cmsis_gcc.h **** #endif                                           
  52:./Libraries/CMSIS/Core/Include/cmsis_gcc.h **** #ifndef   __NO_RETURN
  53:./Libraries/CMSIS/Core/Include/cmsis_gcc.h ****   #define __NO_RETURN                            __attribute__((__noreturn__))
  54:./Libraries/CMSIS/Core/Include/cmsis_gcc.h **** #endif
  55:./Libraries/CMSIS/Core/Include/cmsis_gcc.h **** #ifndef   __USED
  56:./Libraries/CMSIS/Core/Include/cmsis_gcc.h ****   #define __USED                                 __attribute__((used))
  57:./Libraries/CMSIS/Core/Include/cmsis_gcc.h **** #endif
  58:./Libraries/CMSIS/Core/Include/cmsis_gcc.h **** #ifndef   __WEAK
  59:./Libraries/CMSIS/Core/Include/cmsis_gcc.h ****   #define __WEAK                                 __attribute__((weak))
  60:./Libraries/CMSIS/Core/Include/cmsis_gcc.h **** #endif
  61:./Libraries/CMSIS/Core/Include/cmsis_gcc.h **** #ifndef   __PACKED
  62:./Libraries/CMSIS/Core/Include/cmsis_gcc.h ****   #define __PACKED                               __attribute__((packed, aligned(1)))
  63:./Libraries/CMSIS/Core/Include/cmsis_gcc.h **** #endif
  64:./Libraries/CMSIS/Core/Include/cmsis_gcc.h **** #ifndef   __PACKED_STRUCT
  65:./Libraries/CMSIS/Core/Include/cmsis_gcc.h ****   #define __PACKED_STRUCT                        struct __attribute__((packed, aligned(1)))
  66:./Libraries/CMSIS/Core/Include/cmsis_gcc.h **** #endif
  67:./Libraries/CMSIS/Core/Include/cmsis_gcc.h **** #ifndef   __PACKED_UNION
  68:./Libraries/CMSIS/Core/Include/cmsis_gcc.h ****   #define __PACKED_UNION                         union __attribute__((packed, aligned(1)))
  69:./Libraries/CMSIS/Core/Include/cmsis_gcc.h **** #endif
  70:./Libraries/CMSIS/Core/Include/cmsis_gcc.h **** #ifndef   __UNALIGNED_UINT32        /* deprecated */
  71:./Libraries/CMSIS/Core/Include/cmsis_gcc.h ****   #pragma GCC diagnostic push
  72:./Libraries/CMSIS/Core/Include/cmsis_gcc.h ****   #pragma GCC diagnostic ignored "-Wpacked"
  73:./Libraries/CMSIS/Core/Include/cmsis_gcc.h ****   #pragma GCC diagnostic ignored "-Wattributes"
  74:./Libraries/CMSIS/Core/Include/cmsis_gcc.h ****   struct __attribute__((packed)) T_UINT32 { uint32_t v; };
  75:./Libraries/CMSIS/Core/Include/cmsis_gcc.h ****   #pragma GCC diagnostic pop
  76:./Libraries/CMSIS/Core/Include/cmsis_gcc.h ****   #define __UNALIGNED_UINT32(x)                  (((struct T_UINT32 *)(x))->v)
  77:./Libraries/CMSIS/Core/Include/cmsis_gcc.h **** #endif
  78:./Libraries/CMSIS/Core/Include/cmsis_gcc.h **** #ifndef   __UNALIGNED_UINT16_WRITE
  79:./Libraries/CMSIS/Core/Include/cmsis_gcc.h ****   #pragma GCC diagnostic push
  80:./Libraries/CMSIS/Core/Include/cmsis_gcc.h ****   #pragma GCC diagnostic ignored "-Wpacked"
  81:./Libraries/CMSIS/Core/Include/cmsis_gcc.h ****   #pragma GCC diagnostic ignored "-Wattributes"
  82:./Libraries/CMSIS/Core/Include/cmsis_gcc.h ****   __PACKED_STRUCT T_UINT16_WRITE { uint16_t v; };
  83:./Libraries/CMSIS/Core/Include/cmsis_gcc.h ****   #pragma GCC diagnostic pop
  84:./Libraries/CMSIS/Core/Include/cmsis_gcc.h ****   #define __UNALIGNED_UINT16_WRITE(addr, val)    (void)((((struct T_UINT16_WRITE *)(void *)(addr))-
  85:./Libraries/CMSIS/Core/Include/cmsis_gcc.h **** #endif
  86:./Libraries/CMSIS/Core/Include/cmsis_gcc.h **** #ifndef   __UNALIGNED_UINT16_READ
  87:./Libraries/CMSIS/Core/Include/cmsis_gcc.h ****   #pragma GCC diagnostic push
  88:./Libraries/CMSIS/Core/Include/cmsis_gcc.h ****   #pragma GCC diagnostic ignored "-Wpacked"
  89:./Libraries/CMSIS/Core/Include/cmsis_gcc.h ****   #pragma GCC diagnostic ignored "-Wattributes"
  90:./Libraries/CMSIS/Core/Include/cmsis_gcc.h ****   __PACKED_STRUCT T_UINT16_READ { uint16_t v; };
  91:./Libraries/CMSIS/Core/Include/cmsis_gcc.h ****   #pragma GCC diagnostic pop
  92:./Libraries/CMSIS/Core/Include/cmsis_gcc.h ****   #define __UNALIGNED_UINT16_READ(addr)          (((const struct T_UINT16_READ *)(const void *)(add
  93:./Libraries/CMSIS/Core/Include/cmsis_gcc.h **** #endif
  94:./Libraries/CMSIS/Core/Include/cmsis_gcc.h **** #ifndef   __UNALIGNED_UINT32_WRITE
  95:./Libraries/CMSIS/Core/Include/cmsis_gcc.h ****   #pragma GCC diagnostic push
  96:./Libraries/CMSIS/Core/Include/cmsis_gcc.h ****   #pragma GCC diagnostic ignored "-Wpacked"
ARM GAS  /tmp/ccef1Oo3.s 			page 38


  97:./Libraries/CMSIS/Core/Include/cmsis_gcc.h ****   #pragma GCC diagnostic ignored "-Wattributes"
  98:./Libraries/CMSIS/Core/Include/cmsis_gcc.h ****   __PACKED_STRUCT T_UINT32_WRITE { uint32_t v; };
  99:./Libraries/CMSIS/Core/Include/cmsis_gcc.h ****   #pragma GCC diagnostic pop
 100:./Libraries/CMSIS/Core/Include/cmsis_gcc.h ****   #define __UNALIGNED_UINT32_WRITE(addr, val)    (void)((((struct T_UINT32_WRITE *)(void *)(addr))-
 101:./Libraries/CMSIS/Core/Include/cmsis_gcc.h **** #endif
 102:./Libraries/CMSIS/Core/Include/cmsis_gcc.h **** #ifndef   __UNALIGNED_UINT32_READ
 103:./Libraries/CMSIS/Core/Include/cmsis_gcc.h ****   #pragma GCC diagnostic push
 104:./Libraries/CMSIS/Core/Include/cmsis_gcc.h ****   #pragma GCC diagnostic ignored "-Wpacked"
 105:./Libraries/CMSIS/Core/Include/cmsis_gcc.h ****   #pragma GCC diagnostic ignored "-Wattributes"
 106:./Libraries/CMSIS/Core/Include/cmsis_gcc.h ****   __PACKED_STRUCT T_UINT32_READ { uint32_t v; };
 107:./Libraries/CMSIS/Core/Include/cmsis_gcc.h ****   #pragma GCC diagnostic pop
 108:./Libraries/CMSIS/Core/Include/cmsis_gcc.h ****   #define __UNALIGNED_UINT32_READ(addr)          (((const struct T_UINT32_READ *)(const void *)(add
 109:./Libraries/CMSIS/Core/Include/cmsis_gcc.h **** #endif
 110:./Libraries/CMSIS/Core/Include/cmsis_gcc.h **** #ifndef   __ALIGNED
 111:./Libraries/CMSIS/Core/Include/cmsis_gcc.h ****   #define __ALIGNED(x)                           __attribute__((aligned(x)))
 112:./Libraries/CMSIS/Core/Include/cmsis_gcc.h **** #endif
 113:./Libraries/CMSIS/Core/Include/cmsis_gcc.h **** #ifndef   __RESTRICT
 114:./Libraries/CMSIS/Core/Include/cmsis_gcc.h ****   #define __RESTRICT                             __restrict
 115:./Libraries/CMSIS/Core/Include/cmsis_gcc.h **** #endif
 116:./Libraries/CMSIS/Core/Include/cmsis_gcc.h **** #ifndef   __COMPILER_BARRIER
 117:./Libraries/CMSIS/Core/Include/cmsis_gcc.h ****   #define __COMPILER_BARRIER()                   __ASM volatile("":::"memory")
 118:./Libraries/CMSIS/Core/Include/cmsis_gcc.h **** #endif
 119:./Libraries/CMSIS/Core/Include/cmsis_gcc.h **** 
 120:./Libraries/CMSIS/Core/Include/cmsis_gcc.h **** /* #########################  Startup and Lowlevel Init  ######################## */
 121:./Libraries/CMSIS/Core/Include/cmsis_gcc.h **** 
 122:./Libraries/CMSIS/Core/Include/cmsis_gcc.h **** #ifndef __PROGRAM_START
 123:./Libraries/CMSIS/Core/Include/cmsis_gcc.h **** 
 124:./Libraries/CMSIS/Core/Include/cmsis_gcc.h **** /**
 125:./Libraries/CMSIS/Core/Include/cmsis_gcc.h ****   \brief   Initializes data and bss sections
 126:./Libraries/CMSIS/Core/Include/cmsis_gcc.h ****   \details This default implementations initialized all data and additional bss
 127:./Libraries/CMSIS/Core/Include/cmsis_gcc.h ****            sections relying on .copy.table and .zero.table specified properly
 128:./Libraries/CMSIS/Core/Include/cmsis_gcc.h ****            in the used linker script.
 129:./Libraries/CMSIS/Core/Include/cmsis_gcc.h ****   
 130:./Libraries/CMSIS/Core/Include/cmsis_gcc.h ****  */
 131:./Libraries/CMSIS/Core/Include/cmsis_gcc.h **** __STATIC_FORCEINLINE __NO_RETURN void __cmsis_start(void)
 132:./Libraries/CMSIS/Core/Include/cmsis_gcc.h **** {
 133:./Libraries/CMSIS/Core/Include/cmsis_gcc.h ****   extern void _start(void) __NO_RETURN;
 134:./Libraries/CMSIS/Core/Include/cmsis_gcc.h ****   
 135:./Libraries/CMSIS/Core/Include/cmsis_gcc.h ****   typedef struct {
 136:./Libraries/CMSIS/Core/Include/cmsis_gcc.h ****     uint32_t const* src;
 137:./Libraries/CMSIS/Core/Include/cmsis_gcc.h ****     uint32_t* dest;
 138:./Libraries/CMSIS/Core/Include/cmsis_gcc.h ****     uint32_t  wlen;
 139:./Libraries/CMSIS/Core/Include/cmsis_gcc.h ****   } __copy_table_t;
 140:./Libraries/CMSIS/Core/Include/cmsis_gcc.h ****   
 141:./Libraries/CMSIS/Core/Include/cmsis_gcc.h ****   typedef struct {
 142:./Libraries/CMSIS/Core/Include/cmsis_gcc.h ****     uint32_t* dest;
 143:./Libraries/CMSIS/Core/Include/cmsis_gcc.h ****     uint32_t  wlen;
 144:./Libraries/CMSIS/Core/Include/cmsis_gcc.h ****   } __zero_table_t;
 145:./Libraries/CMSIS/Core/Include/cmsis_gcc.h ****   
 146:./Libraries/CMSIS/Core/Include/cmsis_gcc.h ****   extern const __copy_table_t __copy_table_start__;
 147:./Libraries/CMSIS/Core/Include/cmsis_gcc.h ****   extern const __copy_table_t __copy_table_end__;
 148:./Libraries/CMSIS/Core/Include/cmsis_gcc.h ****   extern const __zero_table_t __zero_table_start__;
 149:./Libraries/CMSIS/Core/Include/cmsis_gcc.h ****   extern const __zero_table_t __zero_table_end__;
 150:./Libraries/CMSIS/Core/Include/cmsis_gcc.h **** 
 151:./Libraries/CMSIS/Core/Include/cmsis_gcc.h ****   for (__copy_table_t const* pTable = &__copy_table_start__; pTable < &__copy_table_end__; ++pTable
 152:./Libraries/CMSIS/Core/Include/cmsis_gcc.h ****     for(uint32_t i=0u; i<pTable->wlen; ++i) {
 153:./Libraries/CMSIS/Core/Include/cmsis_gcc.h ****       pTable->dest[i] = pTable->src[i];
ARM GAS  /tmp/ccef1Oo3.s 			page 39


 154:./Libraries/CMSIS/Core/Include/cmsis_gcc.h ****     }
 155:./Libraries/CMSIS/Core/Include/cmsis_gcc.h ****   }
 156:./Libraries/CMSIS/Core/Include/cmsis_gcc.h ****  
 157:./Libraries/CMSIS/Core/Include/cmsis_gcc.h ****   for (__zero_table_t const* pTable = &__zero_table_start__; pTable < &__zero_table_end__; ++pTable
 158:./Libraries/CMSIS/Core/Include/cmsis_gcc.h ****     for(uint32_t i=0u; i<pTable->wlen; ++i) {
 159:./Libraries/CMSIS/Core/Include/cmsis_gcc.h ****       pTable->dest[i] = 0u;
 160:./Libraries/CMSIS/Core/Include/cmsis_gcc.h ****     }
 161:./Libraries/CMSIS/Core/Include/cmsis_gcc.h ****   }
 162:./Libraries/CMSIS/Core/Include/cmsis_gcc.h ****  
 163:./Libraries/CMSIS/Core/Include/cmsis_gcc.h ****   _start();
 164:./Libraries/CMSIS/Core/Include/cmsis_gcc.h **** }
 165:./Libraries/CMSIS/Core/Include/cmsis_gcc.h ****   
 166:./Libraries/CMSIS/Core/Include/cmsis_gcc.h **** #define __PROGRAM_START           __cmsis_start
 167:./Libraries/CMSIS/Core/Include/cmsis_gcc.h **** #endif
 168:./Libraries/CMSIS/Core/Include/cmsis_gcc.h **** 
 169:./Libraries/CMSIS/Core/Include/cmsis_gcc.h **** #ifndef __INITIAL_SP
 170:./Libraries/CMSIS/Core/Include/cmsis_gcc.h **** #define __INITIAL_SP              __StackTop
 171:./Libraries/CMSIS/Core/Include/cmsis_gcc.h **** #endif
 172:./Libraries/CMSIS/Core/Include/cmsis_gcc.h **** 
 173:./Libraries/CMSIS/Core/Include/cmsis_gcc.h **** #ifndef __STACK_LIMIT
 174:./Libraries/CMSIS/Core/Include/cmsis_gcc.h **** #define __STACK_LIMIT             __StackLimit
 175:./Libraries/CMSIS/Core/Include/cmsis_gcc.h **** #endif
 176:./Libraries/CMSIS/Core/Include/cmsis_gcc.h **** 
 177:./Libraries/CMSIS/Core/Include/cmsis_gcc.h **** #ifndef __VECTOR_TABLE
 178:./Libraries/CMSIS/Core/Include/cmsis_gcc.h **** #define __VECTOR_TABLE            __Vectors
 179:./Libraries/CMSIS/Core/Include/cmsis_gcc.h **** #endif
 180:./Libraries/CMSIS/Core/Include/cmsis_gcc.h **** 
 181:./Libraries/CMSIS/Core/Include/cmsis_gcc.h **** #ifndef __VECTOR_TABLE_ATTRIBUTE
 182:./Libraries/CMSIS/Core/Include/cmsis_gcc.h **** #define __VECTOR_TABLE_ATTRIBUTE  __attribute((used, section(".vectors")))
 183:./Libraries/CMSIS/Core/Include/cmsis_gcc.h **** #endif
 184:./Libraries/CMSIS/Core/Include/cmsis_gcc.h **** 
 185:./Libraries/CMSIS/Core/Include/cmsis_gcc.h **** /* ###########################  Core Function Access  ########################### */
 186:./Libraries/CMSIS/Core/Include/cmsis_gcc.h **** /** \ingroup  CMSIS_Core_FunctionInterface
 187:./Libraries/CMSIS/Core/Include/cmsis_gcc.h ****     \defgroup CMSIS_Core_RegAccFunctions CMSIS Core Register Access Functions
 188:./Libraries/CMSIS/Core/Include/cmsis_gcc.h ****   @{
 189:./Libraries/CMSIS/Core/Include/cmsis_gcc.h ****  */
 190:./Libraries/CMSIS/Core/Include/cmsis_gcc.h **** 
 191:./Libraries/CMSIS/Core/Include/cmsis_gcc.h **** /**
 192:./Libraries/CMSIS/Core/Include/cmsis_gcc.h ****   \brief   Enable IRQ Interrupts
 193:./Libraries/CMSIS/Core/Include/cmsis_gcc.h ****   \details Enables IRQ interrupts by clearing the I-bit in the CPSR.
 194:./Libraries/CMSIS/Core/Include/cmsis_gcc.h ****            Can only be executed in Privileged modes.
 195:./Libraries/CMSIS/Core/Include/cmsis_gcc.h ****  */
 196:./Libraries/CMSIS/Core/Include/cmsis_gcc.h **** __STATIC_FORCEINLINE void __enable_irq(void)
 197:./Libraries/CMSIS/Core/Include/cmsis_gcc.h **** {
 198:./Libraries/CMSIS/Core/Include/cmsis_gcc.h ****   __ASM volatile ("cpsie i" : : : "memory");
 199:./Libraries/CMSIS/Core/Include/cmsis_gcc.h **** }
 200:./Libraries/CMSIS/Core/Include/cmsis_gcc.h **** 
 201:./Libraries/CMSIS/Core/Include/cmsis_gcc.h **** 
 202:./Libraries/CMSIS/Core/Include/cmsis_gcc.h **** /**
 203:./Libraries/CMSIS/Core/Include/cmsis_gcc.h ****   \brief   Disable IRQ Interrupts
 204:./Libraries/CMSIS/Core/Include/cmsis_gcc.h ****   \details Disables IRQ interrupts by setting the I-bit in the CPSR.
 205:./Libraries/CMSIS/Core/Include/cmsis_gcc.h ****            Can only be executed in Privileged modes.
 206:./Libraries/CMSIS/Core/Include/cmsis_gcc.h ****  */
 207:./Libraries/CMSIS/Core/Include/cmsis_gcc.h **** __STATIC_FORCEINLINE void __disable_irq(void)
 208:./Libraries/CMSIS/Core/Include/cmsis_gcc.h **** {
 209:./Libraries/CMSIS/Core/Include/cmsis_gcc.h ****   __ASM volatile ("cpsid i" : : : "memory");
 210:./Libraries/CMSIS/Core/Include/cmsis_gcc.h **** }
ARM GAS  /tmp/ccef1Oo3.s 			page 40


 211:./Libraries/CMSIS/Core/Include/cmsis_gcc.h **** 
 212:./Libraries/CMSIS/Core/Include/cmsis_gcc.h **** 
 213:./Libraries/CMSIS/Core/Include/cmsis_gcc.h **** /**
 214:./Libraries/CMSIS/Core/Include/cmsis_gcc.h ****   \brief   Get Control Register
 215:./Libraries/CMSIS/Core/Include/cmsis_gcc.h ****   \details Returns the content of the Control Register.
 216:./Libraries/CMSIS/Core/Include/cmsis_gcc.h ****   \return               Control Register value
 217:./Libraries/CMSIS/Core/Include/cmsis_gcc.h ****  */
 218:./Libraries/CMSIS/Core/Include/cmsis_gcc.h **** __STATIC_FORCEINLINE uint32_t __get_CONTROL(void)
 219:./Libraries/CMSIS/Core/Include/cmsis_gcc.h **** {
 220:./Libraries/CMSIS/Core/Include/cmsis_gcc.h ****   uint32_t result;
 221:./Libraries/CMSIS/Core/Include/cmsis_gcc.h **** 
 222:./Libraries/CMSIS/Core/Include/cmsis_gcc.h ****   __ASM volatile ("MRS %0, control" : "=r" (result) );
 223:./Libraries/CMSIS/Core/Include/cmsis_gcc.h ****   return(result);
 224:./Libraries/CMSIS/Core/Include/cmsis_gcc.h **** }
 225:./Libraries/CMSIS/Core/Include/cmsis_gcc.h **** 
 226:./Libraries/CMSIS/Core/Include/cmsis_gcc.h **** 
 227:./Libraries/CMSIS/Core/Include/cmsis_gcc.h **** #if (defined (__ARM_FEATURE_CMSE ) && (__ARM_FEATURE_CMSE == 3))
 228:./Libraries/CMSIS/Core/Include/cmsis_gcc.h **** /**
 229:./Libraries/CMSIS/Core/Include/cmsis_gcc.h ****   \brief   Get Control Register (non-secure)
 230:./Libraries/CMSIS/Core/Include/cmsis_gcc.h ****   \details Returns the content of the non-secure Control Register when in secure mode.
 231:./Libraries/CMSIS/Core/Include/cmsis_gcc.h ****   \return               non-secure Control Register value
 232:./Libraries/CMSIS/Core/Include/cmsis_gcc.h ****  */
 233:./Libraries/CMSIS/Core/Include/cmsis_gcc.h **** __STATIC_FORCEINLINE uint32_t __TZ_get_CONTROL_NS(void)
 234:./Libraries/CMSIS/Core/Include/cmsis_gcc.h **** {
 235:./Libraries/CMSIS/Core/Include/cmsis_gcc.h ****   uint32_t result;
 236:./Libraries/CMSIS/Core/Include/cmsis_gcc.h **** 
 237:./Libraries/CMSIS/Core/Include/cmsis_gcc.h ****   __ASM volatile ("MRS %0, control_ns" : "=r" (result) );
 238:./Libraries/CMSIS/Core/Include/cmsis_gcc.h ****   return(result);
 239:./Libraries/CMSIS/Core/Include/cmsis_gcc.h **** }
 240:./Libraries/CMSIS/Core/Include/cmsis_gcc.h **** #endif
 241:./Libraries/CMSIS/Core/Include/cmsis_gcc.h **** 
 242:./Libraries/CMSIS/Core/Include/cmsis_gcc.h **** 
 243:./Libraries/CMSIS/Core/Include/cmsis_gcc.h **** /**
 244:./Libraries/CMSIS/Core/Include/cmsis_gcc.h ****   \brief   Set Control Register
 245:./Libraries/CMSIS/Core/Include/cmsis_gcc.h ****   \details Writes the given value to the Control Register.
 246:./Libraries/CMSIS/Core/Include/cmsis_gcc.h ****   \param [in]    control  Control Register value to set
 247:./Libraries/CMSIS/Core/Include/cmsis_gcc.h ****  */
 248:./Libraries/CMSIS/Core/Include/cmsis_gcc.h **** __STATIC_FORCEINLINE void __set_CONTROL(uint32_t control)
 249:./Libraries/CMSIS/Core/Include/cmsis_gcc.h **** {
 250:./Libraries/CMSIS/Core/Include/cmsis_gcc.h ****   __ASM volatile ("MSR control, %0" : : "r" (control) : "memory");
 251:./Libraries/CMSIS/Core/Include/cmsis_gcc.h **** }
 252:./Libraries/CMSIS/Core/Include/cmsis_gcc.h **** 
 253:./Libraries/CMSIS/Core/Include/cmsis_gcc.h **** 
 254:./Libraries/CMSIS/Core/Include/cmsis_gcc.h **** #if (defined (__ARM_FEATURE_CMSE ) && (__ARM_FEATURE_CMSE == 3))
 255:./Libraries/CMSIS/Core/Include/cmsis_gcc.h **** /**
 256:./Libraries/CMSIS/Core/Include/cmsis_gcc.h ****   \brief   Set Control Register (non-secure)
 257:./Libraries/CMSIS/Core/Include/cmsis_gcc.h ****   \details Writes the given value to the non-secure Control Register when in secure state.
 258:./Libraries/CMSIS/Core/Include/cmsis_gcc.h ****   \param [in]    control  Control Register value to set
 259:./Libraries/CMSIS/Core/Include/cmsis_gcc.h ****  */
 260:./Libraries/CMSIS/Core/Include/cmsis_gcc.h **** __STATIC_FORCEINLINE void __TZ_set_CONTROL_NS(uint32_t control)
 261:./Libraries/CMSIS/Core/Include/cmsis_gcc.h **** {
 262:./Libraries/CMSIS/Core/Include/cmsis_gcc.h ****   __ASM volatile ("MSR control_ns, %0" : : "r" (control) : "memory");
 263:./Libraries/CMSIS/Core/Include/cmsis_gcc.h **** }
 264:./Libraries/CMSIS/Core/Include/cmsis_gcc.h **** #endif
 265:./Libraries/CMSIS/Core/Include/cmsis_gcc.h **** 
 266:./Libraries/CMSIS/Core/Include/cmsis_gcc.h **** 
 267:./Libraries/CMSIS/Core/Include/cmsis_gcc.h **** /**
ARM GAS  /tmp/ccef1Oo3.s 			page 41


 268:./Libraries/CMSIS/Core/Include/cmsis_gcc.h ****   \brief   Get IPSR Register
 269:./Libraries/CMSIS/Core/Include/cmsis_gcc.h ****   \details Returns the content of the IPSR Register.
 270:./Libraries/CMSIS/Core/Include/cmsis_gcc.h ****   \return               IPSR Register value
 271:./Libraries/CMSIS/Core/Include/cmsis_gcc.h ****  */
 272:./Libraries/CMSIS/Core/Include/cmsis_gcc.h **** __STATIC_FORCEINLINE uint32_t __get_IPSR(void)
 273:./Libraries/CMSIS/Core/Include/cmsis_gcc.h **** {
 274:./Libraries/CMSIS/Core/Include/cmsis_gcc.h ****   uint32_t result;
 275:./Libraries/CMSIS/Core/Include/cmsis_gcc.h **** 
 276:./Libraries/CMSIS/Core/Include/cmsis_gcc.h ****   __ASM volatile ("MRS %0, ipsr" : "=r" (result) );
 277:./Libraries/CMSIS/Core/Include/cmsis_gcc.h ****   return(result);
 278:./Libraries/CMSIS/Core/Include/cmsis_gcc.h **** }
 279:./Libraries/CMSIS/Core/Include/cmsis_gcc.h **** 
 280:./Libraries/CMSIS/Core/Include/cmsis_gcc.h **** 
 281:./Libraries/CMSIS/Core/Include/cmsis_gcc.h **** /**
 282:./Libraries/CMSIS/Core/Include/cmsis_gcc.h ****   \brief   Get APSR Register
 283:./Libraries/CMSIS/Core/Include/cmsis_gcc.h ****   \details Returns the content of the APSR Register.
 284:./Libraries/CMSIS/Core/Include/cmsis_gcc.h ****   \return               APSR Register value
 285:./Libraries/CMSIS/Core/Include/cmsis_gcc.h ****  */
 286:./Libraries/CMSIS/Core/Include/cmsis_gcc.h **** __STATIC_FORCEINLINE uint32_t __get_APSR(void)
 287:./Libraries/CMSIS/Core/Include/cmsis_gcc.h **** {
 288:./Libraries/CMSIS/Core/Include/cmsis_gcc.h ****   uint32_t result;
 289:./Libraries/CMSIS/Core/Include/cmsis_gcc.h **** 
 290:./Libraries/CMSIS/Core/Include/cmsis_gcc.h ****   __ASM volatile ("MRS %0, apsr" : "=r" (result) );
 291:./Libraries/CMSIS/Core/Include/cmsis_gcc.h ****   return(result);
 292:./Libraries/CMSIS/Core/Include/cmsis_gcc.h **** }
 293:./Libraries/CMSIS/Core/Include/cmsis_gcc.h **** 
 294:./Libraries/CMSIS/Core/Include/cmsis_gcc.h **** 
 295:./Libraries/CMSIS/Core/Include/cmsis_gcc.h **** /**
 296:./Libraries/CMSIS/Core/Include/cmsis_gcc.h ****   \brief   Get xPSR Register
 297:./Libraries/CMSIS/Core/Include/cmsis_gcc.h ****   \details Returns the content of the xPSR Register.
 298:./Libraries/CMSIS/Core/Include/cmsis_gcc.h ****   \return               xPSR Register value
 299:./Libraries/CMSIS/Core/Include/cmsis_gcc.h ****  */
 300:./Libraries/CMSIS/Core/Include/cmsis_gcc.h **** __STATIC_FORCEINLINE uint32_t __get_xPSR(void)
 301:./Libraries/CMSIS/Core/Include/cmsis_gcc.h **** {
 302:./Libraries/CMSIS/Core/Include/cmsis_gcc.h ****   uint32_t result;
 303:./Libraries/CMSIS/Core/Include/cmsis_gcc.h **** 
 304:./Libraries/CMSIS/Core/Include/cmsis_gcc.h ****   __ASM volatile ("MRS %0, xpsr" : "=r" (result) );
 305:./Libraries/CMSIS/Core/Include/cmsis_gcc.h ****   return(result);
 306:./Libraries/CMSIS/Core/Include/cmsis_gcc.h **** }
 307:./Libraries/CMSIS/Core/Include/cmsis_gcc.h **** 
 308:./Libraries/CMSIS/Core/Include/cmsis_gcc.h **** 
 309:./Libraries/CMSIS/Core/Include/cmsis_gcc.h **** /**
 310:./Libraries/CMSIS/Core/Include/cmsis_gcc.h ****   \brief   Get Process Stack Pointer
 311:./Libraries/CMSIS/Core/Include/cmsis_gcc.h ****   \details Returns the current value of the Process Stack Pointer (PSP).
 312:./Libraries/CMSIS/Core/Include/cmsis_gcc.h ****   \return               PSP Register value
 313:./Libraries/CMSIS/Core/Include/cmsis_gcc.h ****  */
 314:./Libraries/CMSIS/Core/Include/cmsis_gcc.h **** __STATIC_FORCEINLINE uint32_t __get_PSP(void)
 315:./Libraries/CMSIS/Core/Include/cmsis_gcc.h **** {
 316:./Libraries/CMSIS/Core/Include/cmsis_gcc.h ****   uint32_t result;
 317:./Libraries/CMSIS/Core/Include/cmsis_gcc.h **** 
 318:./Libraries/CMSIS/Core/Include/cmsis_gcc.h ****   __ASM volatile ("MRS %0, psp"  : "=r" (result) );
 319:./Libraries/CMSIS/Core/Include/cmsis_gcc.h ****   return(result);
 320:./Libraries/CMSIS/Core/Include/cmsis_gcc.h **** }
 321:./Libraries/CMSIS/Core/Include/cmsis_gcc.h **** 
 322:./Libraries/CMSIS/Core/Include/cmsis_gcc.h **** 
 323:./Libraries/CMSIS/Core/Include/cmsis_gcc.h **** #if (defined (__ARM_FEATURE_CMSE ) && (__ARM_FEATURE_CMSE == 3))
 324:./Libraries/CMSIS/Core/Include/cmsis_gcc.h **** /**
ARM GAS  /tmp/ccef1Oo3.s 			page 42


 325:./Libraries/CMSIS/Core/Include/cmsis_gcc.h ****   \brief   Get Process Stack Pointer (non-secure)
 326:./Libraries/CMSIS/Core/Include/cmsis_gcc.h ****   \details Returns the current value of the non-secure Process Stack Pointer (PSP) when in secure s
 327:./Libraries/CMSIS/Core/Include/cmsis_gcc.h ****   \return               PSP Register value
 328:./Libraries/CMSIS/Core/Include/cmsis_gcc.h ****  */
 329:./Libraries/CMSIS/Core/Include/cmsis_gcc.h **** __STATIC_FORCEINLINE uint32_t __TZ_get_PSP_NS(void)
 330:./Libraries/CMSIS/Core/Include/cmsis_gcc.h **** {
 331:./Libraries/CMSIS/Core/Include/cmsis_gcc.h ****   uint32_t result;
 332:./Libraries/CMSIS/Core/Include/cmsis_gcc.h **** 
 333:./Libraries/CMSIS/Core/Include/cmsis_gcc.h ****   __ASM volatile ("MRS %0, psp_ns"  : "=r" (result) );
 334:./Libraries/CMSIS/Core/Include/cmsis_gcc.h ****   return(result);
 335:./Libraries/CMSIS/Core/Include/cmsis_gcc.h **** }
 336:./Libraries/CMSIS/Core/Include/cmsis_gcc.h **** #endif
 337:./Libraries/CMSIS/Core/Include/cmsis_gcc.h **** 
 338:./Libraries/CMSIS/Core/Include/cmsis_gcc.h **** 
 339:./Libraries/CMSIS/Core/Include/cmsis_gcc.h **** /**
 340:./Libraries/CMSIS/Core/Include/cmsis_gcc.h ****   \brief   Set Process Stack Pointer
 341:./Libraries/CMSIS/Core/Include/cmsis_gcc.h ****   \details Assigns the given value to the Process Stack Pointer (PSP).
 342:./Libraries/CMSIS/Core/Include/cmsis_gcc.h ****   \param [in]    topOfProcStack  Process Stack Pointer value to set
 343:./Libraries/CMSIS/Core/Include/cmsis_gcc.h ****  */
 344:./Libraries/CMSIS/Core/Include/cmsis_gcc.h **** __STATIC_FORCEINLINE void __set_PSP(uint32_t topOfProcStack)
 345:./Libraries/CMSIS/Core/Include/cmsis_gcc.h **** {
 346:./Libraries/CMSIS/Core/Include/cmsis_gcc.h ****   __ASM volatile ("MSR psp, %0" : : "r" (topOfProcStack) : );
 347:./Libraries/CMSIS/Core/Include/cmsis_gcc.h **** }
 348:./Libraries/CMSIS/Core/Include/cmsis_gcc.h **** 
 349:./Libraries/CMSIS/Core/Include/cmsis_gcc.h **** 
 350:./Libraries/CMSIS/Core/Include/cmsis_gcc.h **** #if (defined (__ARM_FEATURE_CMSE ) && (__ARM_FEATURE_CMSE == 3))
 351:./Libraries/CMSIS/Core/Include/cmsis_gcc.h **** /**
 352:./Libraries/CMSIS/Core/Include/cmsis_gcc.h ****   \brief   Set Process Stack Pointer (non-secure)
 353:./Libraries/CMSIS/Core/Include/cmsis_gcc.h ****   \details Assigns the given value to the non-secure Process Stack Pointer (PSP) when in secure sta
 354:./Libraries/CMSIS/Core/Include/cmsis_gcc.h ****   \param [in]    topOfProcStack  Process Stack Pointer value to set
 355:./Libraries/CMSIS/Core/Include/cmsis_gcc.h ****  */
 356:./Libraries/CMSIS/Core/Include/cmsis_gcc.h **** __STATIC_FORCEINLINE void __TZ_set_PSP_NS(uint32_t topOfProcStack)
 357:./Libraries/CMSIS/Core/Include/cmsis_gcc.h **** {
 358:./Libraries/CMSIS/Core/Include/cmsis_gcc.h ****   __ASM volatile ("MSR psp_ns, %0" : : "r" (topOfProcStack) : );
 359:./Libraries/CMSIS/Core/Include/cmsis_gcc.h **** }
 360:./Libraries/CMSIS/Core/Include/cmsis_gcc.h **** #endif
 361:./Libraries/CMSIS/Core/Include/cmsis_gcc.h **** 
 362:./Libraries/CMSIS/Core/Include/cmsis_gcc.h **** 
 363:./Libraries/CMSIS/Core/Include/cmsis_gcc.h **** /**
 364:./Libraries/CMSIS/Core/Include/cmsis_gcc.h ****   \brief   Get Main Stack Pointer
 365:./Libraries/CMSIS/Core/Include/cmsis_gcc.h ****   \details Returns the current value of the Main Stack Pointer (MSP).
 366:./Libraries/CMSIS/Core/Include/cmsis_gcc.h ****   \return               MSP Register value
 367:./Libraries/CMSIS/Core/Include/cmsis_gcc.h ****  */
 368:./Libraries/CMSIS/Core/Include/cmsis_gcc.h **** __STATIC_FORCEINLINE uint32_t __get_MSP(void)
 369:./Libraries/CMSIS/Core/Include/cmsis_gcc.h **** {
 370:./Libraries/CMSIS/Core/Include/cmsis_gcc.h ****   uint32_t result;
 371:./Libraries/CMSIS/Core/Include/cmsis_gcc.h **** 
 372:./Libraries/CMSIS/Core/Include/cmsis_gcc.h ****   __ASM volatile ("MRS %0, msp" : "=r" (result) );
 373:./Libraries/CMSIS/Core/Include/cmsis_gcc.h ****   return(result);
 374:./Libraries/CMSIS/Core/Include/cmsis_gcc.h **** }
 375:./Libraries/CMSIS/Core/Include/cmsis_gcc.h **** 
 376:./Libraries/CMSIS/Core/Include/cmsis_gcc.h **** 
 377:./Libraries/CMSIS/Core/Include/cmsis_gcc.h **** #if (defined (__ARM_FEATURE_CMSE ) && (__ARM_FEATURE_CMSE == 3))
 378:./Libraries/CMSIS/Core/Include/cmsis_gcc.h **** /**
 379:./Libraries/CMSIS/Core/Include/cmsis_gcc.h ****   \brief   Get Main Stack Pointer (non-secure)
 380:./Libraries/CMSIS/Core/Include/cmsis_gcc.h ****   \details Returns the current value of the non-secure Main Stack Pointer (MSP) when in secure stat
 381:./Libraries/CMSIS/Core/Include/cmsis_gcc.h ****   \return               MSP Register value
ARM GAS  /tmp/ccef1Oo3.s 			page 43


 382:./Libraries/CMSIS/Core/Include/cmsis_gcc.h ****  */
 383:./Libraries/CMSIS/Core/Include/cmsis_gcc.h **** __STATIC_FORCEINLINE uint32_t __TZ_get_MSP_NS(void)
 384:./Libraries/CMSIS/Core/Include/cmsis_gcc.h **** {
 385:./Libraries/CMSIS/Core/Include/cmsis_gcc.h ****   uint32_t result;
 386:./Libraries/CMSIS/Core/Include/cmsis_gcc.h **** 
 387:./Libraries/CMSIS/Core/Include/cmsis_gcc.h ****   __ASM volatile ("MRS %0, msp_ns" : "=r" (result) );
 388:./Libraries/CMSIS/Core/Include/cmsis_gcc.h ****   return(result);
 389:./Libraries/CMSIS/Core/Include/cmsis_gcc.h **** }
 390:./Libraries/CMSIS/Core/Include/cmsis_gcc.h **** #endif
 391:./Libraries/CMSIS/Core/Include/cmsis_gcc.h **** 
 392:./Libraries/CMSIS/Core/Include/cmsis_gcc.h **** 
 393:./Libraries/CMSIS/Core/Include/cmsis_gcc.h **** /**
 394:./Libraries/CMSIS/Core/Include/cmsis_gcc.h ****   \brief   Set Main Stack Pointer
 395:./Libraries/CMSIS/Core/Include/cmsis_gcc.h ****   \details Assigns the given value to the Main Stack Pointer (MSP).
 396:./Libraries/CMSIS/Core/Include/cmsis_gcc.h ****   \param [in]    topOfMainStack  Main Stack Pointer value to set
 397:./Libraries/CMSIS/Core/Include/cmsis_gcc.h ****  */
 398:./Libraries/CMSIS/Core/Include/cmsis_gcc.h **** __STATIC_FORCEINLINE void __set_MSP(uint32_t topOfMainStack)
 399:./Libraries/CMSIS/Core/Include/cmsis_gcc.h **** {
 400:./Libraries/CMSIS/Core/Include/cmsis_gcc.h ****   __ASM volatile ("MSR msp, %0" : : "r" (topOfMainStack) : );
 401:./Libraries/CMSIS/Core/Include/cmsis_gcc.h **** }
 402:./Libraries/CMSIS/Core/Include/cmsis_gcc.h **** 
 403:./Libraries/CMSIS/Core/Include/cmsis_gcc.h **** 
 404:./Libraries/CMSIS/Core/Include/cmsis_gcc.h **** #if (defined (__ARM_FEATURE_CMSE ) && (__ARM_FEATURE_CMSE == 3))
 405:./Libraries/CMSIS/Core/Include/cmsis_gcc.h **** /**
 406:./Libraries/CMSIS/Core/Include/cmsis_gcc.h ****   \brief   Set Main Stack Pointer (non-secure)
 407:./Libraries/CMSIS/Core/Include/cmsis_gcc.h ****   \details Assigns the given value to the non-secure Main Stack Pointer (MSP) when in secure state.
 408:./Libraries/CMSIS/Core/Include/cmsis_gcc.h ****   \param [in]    topOfMainStack  Main Stack Pointer value to set
 409:./Libraries/CMSIS/Core/Include/cmsis_gcc.h ****  */
 410:./Libraries/CMSIS/Core/Include/cmsis_gcc.h **** __STATIC_FORCEINLINE void __TZ_set_MSP_NS(uint32_t topOfMainStack)
 411:./Libraries/CMSIS/Core/Include/cmsis_gcc.h **** {
 412:./Libraries/CMSIS/Core/Include/cmsis_gcc.h ****   __ASM volatile ("MSR msp_ns, %0" : : "r" (topOfMainStack) : );
 413:./Libraries/CMSIS/Core/Include/cmsis_gcc.h **** }
 414:./Libraries/CMSIS/Core/Include/cmsis_gcc.h **** #endif
 415:./Libraries/CMSIS/Core/Include/cmsis_gcc.h **** 
 416:./Libraries/CMSIS/Core/Include/cmsis_gcc.h **** 
 417:./Libraries/CMSIS/Core/Include/cmsis_gcc.h **** #if (defined (__ARM_FEATURE_CMSE ) && (__ARM_FEATURE_CMSE == 3))
 418:./Libraries/CMSIS/Core/Include/cmsis_gcc.h **** /**
 419:./Libraries/CMSIS/Core/Include/cmsis_gcc.h ****   \brief   Get Stack Pointer (non-secure)
 420:./Libraries/CMSIS/Core/Include/cmsis_gcc.h ****   \details Returns the current value of the non-secure Stack Pointer (SP) when in secure state.
 421:./Libraries/CMSIS/Core/Include/cmsis_gcc.h ****   \return               SP Register value
 422:./Libraries/CMSIS/Core/Include/cmsis_gcc.h ****  */
 423:./Libraries/CMSIS/Core/Include/cmsis_gcc.h **** __STATIC_FORCEINLINE uint32_t __TZ_get_SP_NS(void)
 424:./Libraries/CMSIS/Core/Include/cmsis_gcc.h **** {
 425:./Libraries/CMSIS/Core/Include/cmsis_gcc.h ****   uint32_t result;
 426:./Libraries/CMSIS/Core/Include/cmsis_gcc.h **** 
 427:./Libraries/CMSIS/Core/Include/cmsis_gcc.h ****   __ASM volatile ("MRS %0, sp_ns" : "=r" (result) );
 428:./Libraries/CMSIS/Core/Include/cmsis_gcc.h ****   return(result);
 429:./Libraries/CMSIS/Core/Include/cmsis_gcc.h **** }
 430:./Libraries/CMSIS/Core/Include/cmsis_gcc.h **** 
 431:./Libraries/CMSIS/Core/Include/cmsis_gcc.h **** 
 432:./Libraries/CMSIS/Core/Include/cmsis_gcc.h **** /**
 433:./Libraries/CMSIS/Core/Include/cmsis_gcc.h ****   \brief   Set Stack Pointer (non-secure)
 434:./Libraries/CMSIS/Core/Include/cmsis_gcc.h ****   \details Assigns the given value to the non-secure Stack Pointer (SP) when in secure state.
 435:./Libraries/CMSIS/Core/Include/cmsis_gcc.h ****   \param [in]    topOfStack  Stack Pointer value to set
 436:./Libraries/CMSIS/Core/Include/cmsis_gcc.h ****  */
 437:./Libraries/CMSIS/Core/Include/cmsis_gcc.h **** __STATIC_FORCEINLINE void __TZ_set_SP_NS(uint32_t topOfStack)
 438:./Libraries/CMSIS/Core/Include/cmsis_gcc.h **** {
ARM GAS  /tmp/ccef1Oo3.s 			page 44


 439:./Libraries/CMSIS/Core/Include/cmsis_gcc.h ****   __ASM volatile ("MSR sp_ns, %0" : : "r" (topOfStack) : );
 440:./Libraries/CMSIS/Core/Include/cmsis_gcc.h **** }
 441:./Libraries/CMSIS/Core/Include/cmsis_gcc.h **** #endif
 442:./Libraries/CMSIS/Core/Include/cmsis_gcc.h **** 
 443:./Libraries/CMSIS/Core/Include/cmsis_gcc.h **** 
 444:./Libraries/CMSIS/Core/Include/cmsis_gcc.h **** /**
 445:./Libraries/CMSIS/Core/Include/cmsis_gcc.h ****   \brief   Get Priority Mask
 446:./Libraries/CMSIS/Core/Include/cmsis_gcc.h ****   \details Returns the current state of the priority mask bit from the Priority Mask Register.
 447:./Libraries/CMSIS/Core/Include/cmsis_gcc.h ****   \return               Priority Mask value
 448:./Libraries/CMSIS/Core/Include/cmsis_gcc.h ****  */
 449:./Libraries/CMSIS/Core/Include/cmsis_gcc.h **** __STATIC_FORCEINLINE uint32_t __get_PRIMASK(void)
 450:./Libraries/CMSIS/Core/Include/cmsis_gcc.h **** {
 451:./Libraries/CMSIS/Core/Include/cmsis_gcc.h ****   uint32_t result;
 452:./Libraries/CMSIS/Core/Include/cmsis_gcc.h **** 
 453:./Libraries/CMSIS/Core/Include/cmsis_gcc.h ****   __ASM volatile ("MRS %0, primask" : "=r" (result) :: "memory");
 454:./Libraries/CMSIS/Core/Include/cmsis_gcc.h ****   return(result);
 455:./Libraries/CMSIS/Core/Include/cmsis_gcc.h **** }
 456:./Libraries/CMSIS/Core/Include/cmsis_gcc.h **** 
 457:./Libraries/CMSIS/Core/Include/cmsis_gcc.h **** 
 458:./Libraries/CMSIS/Core/Include/cmsis_gcc.h **** #if (defined (__ARM_FEATURE_CMSE ) && (__ARM_FEATURE_CMSE == 3))
 459:./Libraries/CMSIS/Core/Include/cmsis_gcc.h **** /**
 460:./Libraries/CMSIS/Core/Include/cmsis_gcc.h ****   \brief   Get Priority Mask (non-secure)
 461:./Libraries/CMSIS/Core/Include/cmsis_gcc.h ****   \details Returns the current state of the non-secure priority mask bit from the Priority Mask Reg
 462:./Libraries/CMSIS/Core/Include/cmsis_gcc.h ****   \return               Priority Mask value
 463:./Libraries/CMSIS/Core/Include/cmsis_gcc.h ****  */
 464:./Libraries/CMSIS/Core/Include/cmsis_gcc.h **** __STATIC_FORCEINLINE uint32_t __TZ_get_PRIMASK_NS(void)
 465:./Libraries/CMSIS/Core/Include/cmsis_gcc.h **** {
 466:./Libraries/CMSIS/Core/Include/cmsis_gcc.h ****   uint32_t result;
 467:./Libraries/CMSIS/Core/Include/cmsis_gcc.h **** 
 468:./Libraries/CMSIS/Core/Include/cmsis_gcc.h ****   __ASM volatile ("MRS %0, primask_ns" : "=r" (result) :: "memory");
 469:./Libraries/CMSIS/Core/Include/cmsis_gcc.h ****   return(result);
 470:./Libraries/CMSIS/Core/Include/cmsis_gcc.h **** }
 471:./Libraries/CMSIS/Core/Include/cmsis_gcc.h **** #endif
 472:./Libraries/CMSIS/Core/Include/cmsis_gcc.h **** 
 473:./Libraries/CMSIS/Core/Include/cmsis_gcc.h **** 
 474:./Libraries/CMSIS/Core/Include/cmsis_gcc.h **** /**
 475:./Libraries/CMSIS/Core/Include/cmsis_gcc.h ****   \brief   Set Priority Mask
 476:./Libraries/CMSIS/Core/Include/cmsis_gcc.h ****   \details Assigns the given value to the Priority Mask Register.
 477:./Libraries/CMSIS/Core/Include/cmsis_gcc.h ****   \param [in]    priMask  Priority Mask
 478:./Libraries/CMSIS/Core/Include/cmsis_gcc.h ****  */
 479:./Libraries/CMSIS/Core/Include/cmsis_gcc.h **** __STATIC_FORCEINLINE void __set_PRIMASK(uint32_t priMask)
 480:./Libraries/CMSIS/Core/Include/cmsis_gcc.h **** {
 481:./Libraries/CMSIS/Core/Include/cmsis_gcc.h ****   __ASM volatile ("MSR primask, %0" : : "r" (priMask) : "memory");
 482:./Libraries/CMSIS/Core/Include/cmsis_gcc.h **** }
 483:./Libraries/CMSIS/Core/Include/cmsis_gcc.h **** 
 484:./Libraries/CMSIS/Core/Include/cmsis_gcc.h **** 
 485:./Libraries/CMSIS/Core/Include/cmsis_gcc.h **** #if (defined (__ARM_FEATURE_CMSE ) && (__ARM_FEATURE_CMSE == 3))
 486:./Libraries/CMSIS/Core/Include/cmsis_gcc.h **** /**
 487:./Libraries/CMSIS/Core/Include/cmsis_gcc.h ****   \brief   Set Priority Mask (non-secure)
 488:./Libraries/CMSIS/Core/Include/cmsis_gcc.h ****   \details Assigns the given value to the non-secure Priority Mask Register when in secure state.
 489:./Libraries/CMSIS/Core/Include/cmsis_gcc.h ****   \param [in]    priMask  Priority Mask
 490:./Libraries/CMSIS/Core/Include/cmsis_gcc.h ****  */
 491:./Libraries/CMSIS/Core/Include/cmsis_gcc.h **** __STATIC_FORCEINLINE void __TZ_set_PRIMASK_NS(uint32_t priMask)
 492:./Libraries/CMSIS/Core/Include/cmsis_gcc.h **** {
 493:./Libraries/CMSIS/Core/Include/cmsis_gcc.h ****   __ASM volatile ("MSR primask_ns, %0" : : "r" (priMask) : "memory");
 494:./Libraries/CMSIS/Core/Include/cmsis_gcc.h **** }
 495:./Libraries/CMSIS/Core/Include/cmsis_gcc.h **** #endif
ARM GAS  /tmp/ccef1Oo3.s 			page 45


 496:./Libraries/CMSIS/Core/Include/cmsis_gcc.h **** 
 497:./Libraries/CMSIS/Core/Include/cmsis_gcc.h **** 
 498:./Libraries/CMSIS/Core/Include/cmsis_gcc.h **** #if ((defined (__ARM_ARCH_7M__      ) && (__ARM_ARCH_7M__      == 1)) || \
 499:./Libraries/CMSIS/Core/Include/cmsis_gcc.h ****      (defined (__ARM_ARCH_7EM__     ) && (__ARM_ARCH_7EM__     == 1)) || \
 500:./Libraries/CMSIS/Core/Include/cmsis_gcc.h ****      (defined (__ARM_ARCH_8M_MAIN__ ) && (__ARM_ARCH_8M_MAIN__ == 1))    )
 501:./Libraries/CMSIS/Core/Include/cmsis_gcc.h **** /**
 502:./Libraries/CMSIS/Core/Include/cmsis_gcc.h ****   \brief   Enable FIQ
 503:./Libraries/CMSIS/Core/Include/cmsis_gcc.h ****   \details Enables FIQ interrupts by clearing the F-bit in the CPSR.
 504:./Libraries/CMSIS/Core/Include/cmsis_gcc.h ****            Can only be executed in Privileged modes.
 505:./Libraries/CMSIS/Core/Include/cmsis_gcc.h ****  */
 506:./Libraries/CMSIS/Core/Include/cmsis_gcc.h **** __STATIC_FORCEINLINE void __enable_fault_irq(void)
 507:./Libraries/CMSIS/Core/Include/cmsis_gcc.h **** {
 508:./Libraries/CMSIS/Core/Include/cmsis_gcc.h ****   __ASM volatile ("cpsie f" : : : "memory");
 509:./Libraries/CMSIS/Core/Include/cmsis_gcc.h **** }
 510:./Libraries/CMSIS/Core/Include/cmsis_gcc.h **** 
 511:./Libraries/CMSIS/Core/Include/cmsis_gcc.h **** 
 512:./Libraries/CMSIS/Core/Include/cmsis_gcc.h **** /**
 513:./Libraries/CMSIS/Core/Include/cmsis_gcc.h ****   \brief   Disable FIQ
 514:./Libraries/CMSIS/Core/Include/cmsis_gcc.h ****   \details Disables FIQ interrupts by setting the F-bit in the CPSR.
 515:./Libraries/CMSIS/Core/Include/cmsis_gcc.h ****            Can only be executed in Privileged modes.
 516:./Libraries/CMSIS/Core/Include/cmsis_gcc.h ****  */
 517:./Libraries/CMSIS/Core/Include/cmsis_gcc.h **** __STATIC_FORCEINLINE void __disable_fault_irq(void)
 518:./Libraries/CMSIS/Core/Include/cmsis_gcc.h **** {
 519:./Libraries/CMSIS/Core/Include/cmsis_gcc.h ****   __ASM volatile ("cpsid f" : : : "memory");
 520:./Libraries/CMSIS/Core/Include/cmsis_gcc.h **** }
 521:./Libraries/CMSIS/Core/Include/cmsis_gcc.h **** 
 522:./Libraries/CMSIS/Core/Include/cmsis_gcc.h **** 
 523:./Libraries/CMSIS/Core/Include/cmsis_gcc.h **** /**
 524:./Libraries/CMSIS/Core/Include/cmsis_gcc.h ****   \brief   Get Base Priority
 525:./Libraries/CMSIS/Core/Include/cmsis_gcc.h ****   \details Returns the current value of the Base Priority register.
 526:./Libraries/CMSIS/Core/Include/cmsis_gcc.h ****   \return               Base Priority register value
 527:./Libraries/CMSIS/Core/Include/cmsis_gcc.h ****  */
 528:./Libraries/CMSIS/Core/Include/cmsis_gcc.h **** __STATIC_FORCEINLINE uint32_t __get_BASEPRI(void)
 529:./Libraries/CMSIS/Core/Include/cmsis_gcc.h **** {
 530:./Libraries/CMSIS/Core/Include/cmsis_gcc.h ****   uint32_t result;
 531:./Libraries/CMSIS/Core/Include/cmsis_gcc.h **** 
 532:./Libraries/CMSIS/Core/Include/cmsis_gcc.h ****   __ASM volatile ("MRS %0, basepri" : "=r" (result) );
 533:./Libraries/CMSIS/Core/Include/cmsis_gcc.h ****   return(result);
 534:./Libraries/CMSIS/Core/Include/cmsis_gcc.h **** }
 535:./Libraries/CMSIS/Core/Include/cmsis_gcc.h **** 
 536:./Libraries/CMSIS/Core/Include/cmsis_gcc.h **** 
 537:./Libraries/CMSIS/Core/Include/cmsis_gcc.h **** #if (defined (__ARM_FEATURE_CMSE ) && (__ARM_FEATURE_CMSE == 3))
 538:./Libraries/CMSIS/Core/Include/cmsis_gcc.h **** /**
 539:./Libraries/CMSIS/Core/Include/cmsis_gcc.h ****   \brief   Get Base Priority (non-secure)
 540:./Libraries/CMSIS/Core/Include/cmsis_gcc.h ****   \details Returns the current value of the non-secure Base Priority register when in secure state.
 541:./Libraries/CMSIS/Core/Include/cmsis_gcc.h ****   \return               Base Priority register value
 542:./Libraries/CMSIS/Core/Include/cmsis_gcc.h ****  */
 543:./Libraries/CMSIS/Core/Include/cmsis_gcc.h **** __STATIC_FORCEINLINE uint32_t __TZ_get_BASEPRI_NS(void)
 544:./Libraries/CMSIS/Core/Include/cmsis_gcc.h **** {
 545:./Libraries/CMSIS/Core/Include/cmsis_gcc.h ****   uint32_t result;
 546:./Libraries/CMSIS/Core/Include/cmsis_gcc.h **** 
 547:./Libraries/CMSIS/Core/Include/cmsis_gcc.h ****   __ASM volatile ("MRS %0, basepri_ns" : "=r" (result) );
 548:./Libraries/CMSIS/Core/Include/cmsis_gcc.h ****   return(result);
 549:./Libraries/CMSIS/Core/Include/cmsis_gcc.h **** }
 550:./Libraries/CMSIS/Core/Include/cmsis_gcc.h **** #endif
 551:./Libraries/CMSIS/Core/Include/cmsis_gcc.h **** 
 552:./Libraries/CMSIS/Core/Include/cmsis_gcc.h **** 
ARM GAS  /tmp/ccef1Oo3.s 			page 46


 553:./Libraries/CMSIS/Core/Include/cmsis_gcc.h **** /**
 554:./Libraries/CMSIS/Core/Include/cmsis_gcc.h ****   \brief   Set Base Priority
 555:./Libraries/CMSIS/Core/Include/cmsis_gcc.h ****   \details Assigns the given value to the Base Priority register.
 556:./Libraries/CMSIS/Core/Include/cmsis_gcc.h ****   \param [in]    basePri  Base Priority value to set
 557:./Libraries/CMSIS/Core/Include/cmsis_gcc.h ****  */
 558:./Libraries/CMSIS/Core/Include/cmsis_gcc.h **** __STATIC_FORCEINLINE void __set_BASEPRI(uint32_t basePri)
 559:./Libraries/CMSIS/Core/Include/cmsis_gcc.h **** {
 560:./Libraries/CMSIS/Core/Include/cmsis_gcc.h ****   __ASM volatile ("MSR basepri, %0" : : "r" (basePri) : "memory");
 561:./Libraries/CMSIS/Core/Include/cmsis_gcc.h **** }
 562:./Libraries/CMSIS/Core/Include/cmsis_gcc.h **** 
 563:./Libraries/CMSIS/Core/Include/cmsis_gcc.h **** 
 564:./Libraries/CMSIS/Core/Include/cmsis_gcc.h **** #if (defined (__ARM_FEATURE_CMSE ) && (__ARM_FEATURE_CMSE == 3))
 565:./Libraries/CMSIS/Core/Include/cmsis_gcc.h **** /**
 566:./Libraries/CMSIS/Core/Include/cmsis_gcc.h ****   \brief   Set Base Priority (non-secure)
 567:./Libraries/CMSIS/Core/Include/cmsis_gcc.h ****   \details Assigns the given value to the non-secure Base Priority register when in secure state.
 568:./Libraries/CMSIS/Core/Include/cmsis_gcc.h ****   \param [in]    basePri  Base Priority value to set
 569:./Libraries/CMSIS/Core/Include/cmsis_gcc.h ****  */
 570:./Libraries/CMSIS/Core/Include/cmsis_gcc.h **** __STATIC_FORCEINLINE void __TZ_set_BASEPRI_NS(uint32_t basePri)
 571:./Libraries/CMSIS/Core/Include/cmsis_gcc.h **** {
 572:./Libraries/CMSIS/Core/Include/cmsis_gcc.h ****   __ASM volatile ("MSR basepri_ns, %0" : : "r" (basePri) : "memory");
 573:./Libraries/CMSIS/Core/Include/cmsis_gcc.h **** }
 574:./Libraries/CMSIS/Core/Include/cmsis_gcc.h **** #endif
 575:./Libraries/CMSIS/Core/Include/cmsis_gcc.h **** 
 576:./Libraries/CMSIS/Core/Include/cmsis_gcc.h **** 
 577:./Libraries/CMSIS/Core/Include/cmsis_gcc.h **** /**
 578:./Libraries/CMSIS/Core/Include/cmsis_gcc.h ****   \brief   Set Base Priority with condition
 579:./Libraries/CMSIS/Core/Include/cmsis_gcc.h ****   \details Assigns the given value to the Base Priority register only if BASEPRI masking is disable
 580:./Libraries/CMSIS/Core/Include/cmsis_gcc.h ****            or the new value increases the BASEPRI priority level.
 581:./Libraries/CMSIS/Core/Include/cmsis_gcc.h ****   \param [in]    basePri  Base Priority value to set
 582:./Libraries/CMSIS/Core/Include/cmsis_gcc.h ****  */
 583:./Libraries/CMSIS/Core/Include/cmsis_gcc.h **** __STATIC_FORCEINLINE void __set_BASEPRI_MAX(uint32_t basePri)
 584:./Libraries/CMSIS/Core/Include/cmsis_gcc.h **** {
 585:./Libraries/CMSIS/Core/Include/cmsis_gcc.h ****   __ASM volatile ("MSR basepri_max, %0" : : "r" (basePri) : "memory");
 586:./Libraries/CMSIS/Core/Include/cmsis_gcc.h **** }
 587:./Libraries/CMSIS/Core/Include/cmsis_gcc.h **** 
 588:./Libraries/CMSIS/Core/Include/cmsis_gcc.h **** 
 589:./Libraries/CMSIS/Core/Include/cmsis_gcc.h **** /**
 590:./Libraries/CMSIS/Core/Include/cmsis_gcc.h ****   \brief   Get Fault Mask
 591:./Libraries/CMSIS/Core/Include/cmsis_gcc.h ****   \details Returns the current value of the Fault Mask register.
 592:./Libraries/CMSIS/Core/Include/cmsis_gcc.h ****   \return               Fault Mask register value
 593:./Libraries/CMSIS/Core/Include/cmsis_gcc.h ****  */
 594:./Libraries/CMSIS/Core/Include/cmsis_gcc.h **** __STATIC_FORCEINLINE uint32_t __get_FAULTMASK(void)
 595:./Libraries/CMSIS/Core/Include/cmsis_gcc.h **** {
 596:./Libraries/CMSIS/Core/Include/cmsis_gcc.h ****   uint32_t result;
 597:./Libraries/CMSIS/Core/Include/cmsis_gcc.h **** 
 598:./Libraries/CMSIS/Core/Include/cmsis_gcc.h ****   __ASM volatile ("MRS %0, faultmask" : "=r" (result) );
 599:./Libraries/CMSIS/Core/Include/cmsis_gcc.h ****   return(result);
 600:./Libraries/CMSIS/Core/Include/cmsis_gcc.h **** }
 601:./Libraries/CMSIS/Core/Include/cmsis_gcc.h **** 
 602:./Libraries/CMSIS/Core/Include/cmsis_gcc.h **** 
 603:./Libraries/CMSIS/Core/Include/cmsis_gcc.h **** #if (defined (__ARM_FEATURE_CMSE ) && (__ARM_FEATURE_CMSE == 3))
 604:./Libraries/CMSIS/Core/Include/cmsis_gcc.h **** /**
 605:./Libraries/CMSIS/Core/Include/cmsis_gcc.h ****   \brief   Get Fault Mask (non-secure)
 606:./Libraries/CMSIS/Core/Include/cmsis_gcc.h ****   \details Returns the current value of the non-secure Fault Mask register when in secure state.
 607:./Libraries/CMSIS/Core/Include/cmsis_gcc.h ****   \return               Fault Mask register value
 608:./Libraries/CMSIS/Core/Include/cmsis_gcc.h ****  */
 609:./Libraries/CMSIS/Core/Include/cmsis_gcc.h **** __STATIC_FORCEINLINE uint32_t __TZ_get_FAULTMASK_NS(void)
ARM GAS  /tmp/ccef1Oo3.s 			page 47


 610:./Libraries/CMSIS/Core/Include/cmsis_gcc.h **** {
 611:./Libraries/CMSIS/Core/Include/cmsis_gcc.h ****   uint32_t result;
 612:./Libraries/CMSIS/Core/Include/cmsis_gcc.h **** 
 613:./Libraries/CMSIS/Core/Include/cmsis_gcc.h ****   __ASM volatile ("MRS %0, faultmask_ns" : "=r" (result) );
 614:./Libraries/CMSIS/Core/Include/cmsis_gcc.h ****   return(result);
 615:./Libraries/CMSIS/Core/Include/cmsis_gcc.h **** }
 616:./Libraries/CMSIS/Core/Include/cmsis_gcc.h **** #endif
 617:./Libraries/CMSIS/Core/Include/cmsis_gcc.h **** 
 618:./Libraries/CMSIS/Core/Include/cmsis_gcc.h **** 
 619:./Libraries/CMSIS/Core/Include/cmsis_gcc.h **** /**
 620:./Libraries/CMSIS/Core/Include/cmsis_gcc.h ****   \brief   Set Fault Mask
 621:./Libraries/CMSIS/Core/Include/cmsis_gcc.h ****   \details Assigns the given value to the Fault Mask register.
 622:./Libraries/CMSIS/Core/Include/cmsis_gcc.h ****   \param [in]    faultMask  Fault Mask value to set
 623:./Libraries/CMSIS/Core/Include/cmsis_gcc.h ****  */
 624:./Libraries/CMSIS/Core/Include/cmsis_gcc.h **** __STATIC_FORCEINLINE void __set_FAULTMASK(uint32_t faultMask)
 625:./Libraries/CMSIS/Core/Include/cmsis_gcc.h **** {
 626:./Libraries/CMSIS/Core/Include/cmsis_gcc.h ****   __ASM volatile ("MSR faultmask, %0" : : "r" (faultMask) : "memory");
 627:./Libraries/CMSIS/Core/Include/cmsis_gcc.h **** }
 628:./Libraries/CMSIS/Core/Include/cmsis_gcc.h **** 
 629:./Libraries/CMSIS/Core/Include/cmsis_gcc.h **** 
 630:./Libraries/CMSIS/Core/Include/cmsis_gcc.h **** #if (defined (__ARM_FEATURE_CMSE ) && (__ARM_FEATURE_CMSE == 3))
 631:./Libraries/CMSIS/Core/Include/cmsis_gcc.h **** /**
 632:./Libraries/CMSIS/Core/Include/cmsis_gcc.h ****   \brief   Set Fault Mask (non-secure)
 633:./Libraries/CMSIS/Core/Include/cmsis_gcc.h ****   \details Assigns the given value to the non-secure Fault Mask register when in secure state.
 634:./Libraries/CMSIS/Core/Include/cmsis_gcc.h ****   \param [in]    faultMask  Fault Mask value to set
 635:./Libraries/CMSIS/Core/Include/cmsis_gcc.h ****  */
 636:./Libraries/CMSIS/Core/Include/cmsis_gcc.h **** __STATIC_FORCEINLINE void __TZ_set_FAULTMASK_NS(uint32_t faultMask)
 637:./Libraries/CMSIS/Core/Include/cmsis_gcc.h **** {
 638:./Libraries/CMSIS/Core/Include/cmsis_gcc.h ****   __ASM volatile ("MSR faultmask_ns, %0" : : "r" (faultMask) : "memory");
 639:./Libraries/CMSIS/Core/Include/cmsis_gcc.h **** }
 640:./Libraries/CMSIS/Core/Include/cmsis_gcc.h **** #endif
 641:./Libraries/CMSIS/Core/Include/cmsis_gcc.h **** 
 642:./Libraries/CMSIS/Core/Include/cmsis_gcc.h **** #endif /* ((defined (__ARM_ARCH_7M__      ) && (__ARM_ARCH_7M__      == 1)) || \
 643:./Libraries/CMSIS/Core/Include/cmsis_gcc.h ****            (defined (__ARM_ARCH_7EM__     ) && (__ARM_ARCH_7EM__     == 1)) || \
 644:./Libraries/CMSIS/Core/Include/cmsis_gcc.h ****            (defined (__ARM_ARCH_8M_MAIN__ ) && (__ARM_ARCH_8M_MAIN__ == 1))    ) */
 645:./Libraries/CMSIS/Core/Include/cmsis_gcc.h **** 
 646:./Libraries/CMSIS/Core/Include/cmsis_gcc.h **** 
 647:./Libraries/CMSIS/Core/Include/cmsis_gcc.h **** #if ((defined (__ARM_ARCH_8M_MAIN__ ) && (__ARM_ARCH_8M_MAIN__ == 1)) || \
 648:./Libraries/CMSIS/Core/Include/cmsis_gcc.h ****      (defined (__ARM_ARCH_8M_BASE__ ) && (__ARM_ARCH_8M_BASE__ == 1))    )
 649:./Libraries/CMSIS/Core/Include/cmsis_gcc.h **** 
 650:./Libraries/CMSIS/Core/Include/cmsis_gcc.h **** /**
 651:./Libraries/CMSIS/Core/Include/cmsis_gcc.h ****   \brief   Get Process Stack Pointer Limit
 652:./Libraries/CMSIS/Core/Include/cmsis_gcc.h ****   Devices without ARMv8-M Main Extensions (i.e. Cortex-M23) lack the non-secure
 653:./Libraries/CMSIS/Core/Include/cmsis_gcc.h ****   Stack Pointer Limit register hence zero is returned always in non-secure
 654:./Libraries/CMSIS/Core/Include/cmsis_gcc.h ****   mode.
 655:./Libraries/CMSIS/Core/Include/cmsis_gcc.h ****   
 656:./Libraries/CMSIS/Core/Include/cmsis_gcc.h ****   \details Returns the current value of the Process Stack Pointer Limit (PSPLIM).
 657:./Libraries/CMSIS/Core/Include/cmsis_gcc.h ****   \return               PSPLIM Register value
 658:./Libraries/CMSIS/Core/Include/cmsis_gcc.h ****  */
 659:./Libraries/CMSIS/Core/Include/cmsis_gcc.h **** __STATIC_FORCEINLINE uint32_t __get_PSPLIM(void)
 660:./Libraries/CMSIS/Core/Include/cmsis_gcc.h **** {
 661:./Libraries/CMSIS/Core/Include/cmsis_gcc.h **** #if (!(defined (__ARM_ARCH_8M_MAIN__ ) && (__ARM_ARCH_8M_MAIN__ == 1)) && \
 662:./Libraries/CMSIS/Core/Include/cmsis_gcc.h ****     (!defined (__ARM_FEATURE_CMSE) || (__ARM_FEATURE_CMSE < 3)))
 663:./Libraries/CMSIS/Core/Include/cmsis_gcc.h ****     // without main extensions, the non-secure PSPLIM is RAZ/WI
 664:./Libraries/CMSIS/Core/Include/cmsis_gcc.h ****   return 0U;
 665:./Libraries/CMSIS/Core/Include/cmsis_gcc.h **** #else
 666:./Libraries/CMSIS/Core/Include/cmsis_gcc.h ****   uint32_t result;
ARM GAS  /tmp/ccef1Oo3.s 			page 48


 667:./Libraries/CMSIS/Core/Include/cmsis_gcc.h ****   __ASM volatile ("MRS %0, psplim"  : "=r" (result) );
 668:./Libraries/CMSIS/Core/Include/cmsis_gcc.h ****   return result;
 669:./Libraries/CMSIS/Core/Include/cmsis_gcc.h **** #endif
 670:./Libraries/CMSIS/Core/Include/cmsis_gcc.h **** }
 671:./Libraries/CMSIS/Core/Include/cmsis_gcc.h **** 
 672:./Libraries/CMSIS/Core/Include/cmsis_gcc.h **** #if (defined (__ARM_FEATURE_CMSE) && (__ARM_FEATURE_CMSE == 3))
 673:./Libraries/CMSIS/Core/Include/cmsis_gcc.h **** /**
 674:./Libraries/CMSIS/Core/Include/cmsis_gcc.h ****   \brief   Get Process Stack Pointer Limit (non-secure)
 675:./Libraries/CMSIS/Core/Include/cmsis_gcc.h ****   Devices without ARMv8-M Main Extensions (i.e. Cortex-M23) lack the non-secure
 676:./Libraries/CMSIS/Core/Include/cmsis_gcc.h ****   Stack Pointer Limit register hence zero is returned always.
 677:./Libraries/CMSIS/Core/Include/cmsis_gcc.h **** 
 678:./Libraries/CMSIS/Core/Include/cmsis_gcc.h ****   \details Returns the current value of the non-secure Process Stack Pointer Limit (PSPLIM) when in
 679:./Libraries/CMSIS/Core/Include/cmsis_gcc.h ****   \return               PSPLIM Register value
 680:./Libraries/CMSIS/Core/Include/cmsis_gcc.h ****  */
 681:./Libraries/CMSIS/Core/Include/cmsis_gcc.h **** __STATIC_FORCEINLINE uint32_t __TZ_get_PSPLIM_NS(void)
 682:./Libraries/CMSIS/Core/Include/cmsis_gcc.h **** {
 683:./Libraries/CMSIS/Core/Include/cmsis_gcc.h **** #if (!(defined (__ARM_ARCH_8M_MAIN__ ) && (__ARM_ARCH_8M_MAIN__ == 1)))
 684:./Libraries/CMSIS/Core/Include/cmsis_gcc.h ****   // without main extensions, the non-secure PSPLIM is RAZ/WI
 685:./Libraries/CMSIS/Core/Include/cmsis_gcc.h ****   return 0U;
 686:./Libraries/CMSIS/Core/Include/cmsis_gcc.h **** #else
 687:./Libraries/CMSIS/Core/Include/cmsis_gcc.h ****   uint32_t result;
 688:./Libraries/CMSIS/Core/Include/cmsis_gcc.h ****   __ASM volatile ("MRS %0, psplim_ns"  : "=r" (result) );
 689:./Libraries/CMSIS/Core/Include/cmsis_gcc.h ****   return result;
 690:./Libraries/CMSIS/Core/Include/cmsis_gcc.h **** #endif
 691:./Libraries/CMSIS/Core/Include/cmsis_gcc.h **** }
 692:./Libraries/CMSIS/Core/Include/cmsis_gcc.h **** #endif
 693:./Libraries/CMSIS/Core/Include/cmsis_gcc.h **** 
 694:./Libraries/CMSIS/Core/Include/cmsis_gcc.h **** 
 695:./Libraries/CMSIS/Core/Include/cmsis_gcc.h **** /**
 696:./Libraries/CMSIS/Core/Include/cmsis_gcc.h ****   \brief   Set Process Stack Pointer Limit
 697:./Libraries/CMSIS/Core/Include/cmsis_gcc.h ****   Devices without ARMv8-M Main Extensions (i.e. Cortex-M23) lack the non-secure
 698:./Libraries/CMSIS/Core/Include/cmsis_gcc.h ****   Stack Pointer Limit register hence the write is silently ignored in non-secure
 699:./Libraries/CMSIS/Core/Include/cmsis_gcc.h ****   mode.
 700:./Libraries/CMSIS/Core/Include/cmsis_gcc.h ****   
 701:./Libraries/CMSIS/Core/Include/cmsis_gcc.h ****   \details Assigns the given value to the Process Stack Pointer Limit (PSPLIM).
 702:./Libraries/CMSIS/Core/Include/cmsis_gcc.h ****   \param [in]    ProcStackPtrLimit  Process Stack Pointer Limit value to set
 703:./Libraries/CMSIS/Core/Include/cmsis_gcc.h ****  */
 704:./Libraries/CMSIS/Core/Include/cmsis_gcc.h **** __STATIC_FORCEINLINE void __set_PSPLIM(uint32_t ProcStackPtrLimit)
 705:./Libraries/CMSIS/Core/Include/cmsis_gcc.h **** {
 706:./Libraries/CMSIS/Core/Include/cmsis_gcc.h **** #if (!(defined (__ARM_ARCH_8M_MAIN__ ) && (__ARM_ARCH_8M_MAIN__ == 1)) && \
 707:./Libraries/CMSIS/Core/Include/cmsis_gcc.h ****     (!defined (__ARM_FEATURE_CMSE) || (__ARM_FEATURE_CMSE < 3)))
 708:./Libraries/CMSIS/Core/Include/cmsis_gcc.h ****   // without main extensions, the non-secure PSPLIM is RAZ/WI
 709:./Libraries/CMSIS/Core/Include/cmsis_gcc.h ****   (void)ProcStackPtrLimit;
 710:./Libraries/CMSIS/Core/Include/cmsis_gcc.h **** #else
 711:./Libraries/CMSIS/Core/Include/cmsis_gcc.h ****   __ASM volatile ("MSR psplim, %0" : : "r" (ProcStackPtrLimit));
 712:./Libraries/CMSIS/Core/Include/cmsis_gcc.h **** #endif
 713:./Libraries/CMSIS/Core/Include/cmsis_gcc.h **** }
 714:./Libraries/CMSIS/Core/Include/cmsis_gcc.h **** 
 715:./Libraries/CMSIS/Core/Include/cmsis_gcc.h **** 
 716:./Libraries/CMSIS/Core/Include/cmsis_gcc.h **** #if (defined (__ARM_FEATURE_CMSE  ) && (__ARM_FEATURE_CMSE   == 3))
 717:./Libraries/CMSIS/Core/Include/cmsis_gcc.h **** /**
 718:./Libraries/CMSIS/Core/Include/cmsis_gcc.h ****   \brief   Set Process Stack Pointer (non-secure)
 719:./Libraries/CMSIS/Core/Include/cmsis_gcc.h ****   Devices without ARMv8-M Main Extensions (i.e. Cortex-M23) lack the non-secure
 720:./Libraries/CMSIS/Core/Include/cmsis_gcc.h ****   Stack Pointer Limit register hence the write is silently ignored.
 721:./Libraries/CMSIS/Core/Include/cmsis_gcc.h **** 
 722:./Libraries/CMSIS/Core/Include/cmsis_gcc.h ****   \details Assigns the given value to the non-secure Process Stack Pointer Limit (PSPLIM) when in s
 723:./Libraries/CMSIS/Core/Include/cmsis_gcc.h ****   \param [in]    ProcStackPtrLimit  Process Stack Pointer Limit value to set
ARM GAS  /tmp/ccef1Oo3.s 			page 49


 724:./Libraries/CMSIS/Core/Include/cmsis_gcc.h ****  */
 725:./Libraries/CMSIS/Core/Include/cmsis_gcc.h **** __STATIC_FORCEINLINE void __TZ_set_PSPLIM_NS(uint32_t ProcStackPtrLimit)
 726:./Libraries/CMSIS/Core/Include/cmsis_gcc.h **** {
 727:./Libraries/CMSIS/Core/Include/cmsis_gcc.h **** #if (!(defined (__ARM_ARCH_8M_MAIN__ ) && (__ARM_ARCH_8M_MAIN__ == 1)))
 728:./Libraries/CMSIS/Core/Include/cmsis_gcc.h ****   // without main extensions, the non-secure PSPLIM is RAZ/WI
 729:./Libraries/CMSIS/Core/Include/cmsis_gcc.h ****   (void)ProcStackPtrLimit;
 730:./Libraries/CMSIS/Core/Include/cmsis_gcc.h **** #else
 731:./Libraries/CMSIS/Core/Include/cmsis_gcc.h ****   __ASM volatile ("MSR psplim_ns, %0\n" : : "r" (ProcStackPtrLimit));
 732:./Libraries/CMSIS/Core/Include/cmsis_gcc.h **** #endif
 733:./Libraries/CMSIS/Core/Include/cmsis_gcc.h **** }
 734:./Libraries/CMSIS/Core/Include/cmsis_gcc.h **** #endif
 735:./Libraries/CMSIS/Core/Include/cmsis_gcc.h **** 
 736:./Libraries/CMSIS/Core/Include/cmsis_gcc.h **** 
 737:./Libraries/CMSIS/Core/Include/cmsis_gcc.h **** /**
 738:./Libraries/CMSIS/Core/Include/cmsis_gcc.h ****   \brief   Get Main Stack Pointer Limit
 739:./Libraries/CMSIS/Core/Include/cmsis_gcc.h ****   Devices without ARMv8-M Main Extensions (i.e. Cortex-M23) lack the non-secure
 740:./Libraries/CMSIS/Core/Include/cmsis_gcc.h ****   Stack Pointer Limit register hence zero is returned always in non-secure
 741:./Libraries/CMSIS/Core/Include/cmsis_gcc.h ****   mode.
 742:./Libraries/CMSIS/Core/Include/cmsis_gcc.h **** 
 743:./Libraries/CMSIS/Core/Include/cmsis_gcc.h ****   \details Returns the current value of the Main Stack Pointer Limit (MSPLIM).
 744:./Libraries/CMSIS/Core/Include/cmsis_gcc.h ****   \return               MSPLIM Register value
 745:./Libraries/CMSIS/Core/Include/cmsis_gcc.h ****  */
 746:./Libraries/CMSIS/Core/Include/cmsis_gcc.h **** __STATIC_FORCEINLINE uint32_t __get_MSPLIM(void)
 747:./Libraries/CMSIS/Core/Include/cmsis_gcc.h **** {
 748:./Libraries/CMSIS/Core/Include/cmsis_gcc.h **** #if (!(defined (__ARM_ARCH_8M_MAIN__ ) && (__ARM_ARCH_8M_MAIN__ == 1)) && \
 749:./Libraries/CMSIS/Core/Include/cmsis_gcc.h ****     (!defined (__ARM_FEATURE_CMSE) || (__ARM_FEATURE_CMSE < 3)))
 750:./Libraries/CMSIS/Core/Include/cmsis_gcc.h ****   // without main extensions, the non-secure MSPLIM is RAZ/WI
 751:./Libraries/CMSIS/Core/Include/cmsis_gcc.h ****   return 0U;
 752:./Libraries/CMSIS/Core/Include/cmsis_gcc.h **** #else
 753:./Libraries/CMSIS/Core/Include/cmsis_gcc.h ****   uint32_t result;
 754:./Libraries/CMSIS/Core/Include/cmsis_gcc.h ****   __ASM volatile ("MRS %0, msplim" : "=r" (result) );
 755:./Libraries/CMSIS/Core/Include/cmsis_gcc.h ****   return result;
 756:./Libraries/CMSIS/Core/Include/cmsis_gcc.h **** #endif
 757:./Libraries/CMSIS/Core/Include/cmsis_gcc.h **** }
 758:./Libraries/CMSIS/Core/Include/cmsis_gcc.h **** 
 759:./Libraries/CMSIS/Core/Include/cmsis_gcc.h **** 
 760:./Libraries/CMSIS/Core/Include/cmsis_gcc.h **** #if (defined (__ARM_FEATURE_CMSE  ) && (__ARM_FEATURE_CMSE   == 3))
 761:./Libraries/CMSIS/Core/Include/cmsis_gcc.h **** /**
 762:./Libraries/CMSIS/Core/Include/cmsis_gcc.h ****   \brief   Get Main Stack Pointer Limit (non-secure)
 763:./Libraries/CMSIS/Core/Include/cmsis_gcc.h ****   Devices without ARMv8-M Main Extensions (i.e. Cortex-M23) lack the non-secure
 764:./Libraries/CMSIS/Core/Include/cmsis_gcc.h ****   Stack Pointer Limit register hence zero is returned always.
 765:./Libraries/CMSIS/Core/Include/cmsis_gcc.h **** 
 766:./Libraries/CMSIS/Core/Include/cmsis_gcc.h ****   \details Returns the current value of the non-secure Main Stack Pointer Limit(MSPLIM) when in sec
 767:./Libraries/CMSIS/Core/Include/cmsis_gcc.h ****   \return               MSPLIM Register value
 768:./Libraries/CMSIS/Core/Include/cmsis_gcc.h ****  */
 769:./Libraries/CMSIS/Core/Include/cmsis_gcc.h **** __STATIC_FORCEINLINE uint32_t __TZ_get_MSPLIM_NS(void)
 770:./Libraries/CMSIS/Core/Include/cmsis_gcc.h **** {
 771:./Libraries/CMSIS/Core/Include/cmsis_gcc.h **** #if (!(defined (__ARM_ARCH_8M_MAIN__ ) && (__ARM_ARCH_8M_MAIN__ == 1)))
 772:./Libraries/CMSIS/Core/Include/cmsis_gcc.h ****   // without main extensions, the non-secure MSPLIM is RAZ/WI
 773:./Libraries/CMSIS/Core/Include/cmsis_gcc.h ****   return 0U;
 774:./Libraries/CMSIS/Core/Include/cmsis_gcc.h **** #else
 775:./Libraries/CMSIS/Core/Include/cmsis_gcc.h ****   uint32_t result;
 776:./Libraries/CMSIS/Core/Include/cmsis_gcc.h ****   __ASM volatile ("MRS %0, msplim_ns" : "=r" (result) );
 777:./Libraries/CMSIS/Core/Include/cmsis_gcc.h ****   return result;
 778:./Libraries/CMSIS/Core/Include/cmsis_gcc.h **** #endif
 779:./Libraries/CMSIS/Core/Include/cmsis_gcc.h **** }
 780:./Libraries/CMSIS/Core/Include/cmsis_gcc.h **** #endif
ARM GAS  /tmp/ccef1Oo3.s 			page 50


 781:./Libraries/CMSIS/Core/Include/cmsis_gcc.h **** 
 782:./Libraries/CMSIS/Core/Include/cmsis_gcc.h **** 
 783:./Libraries/CMSIS/Core/Include/cmsis_gcc.h **** /**
 784:./Libraries/CMSIS/Core/Include/cmsis_gcc.h ****   \brief   Set Main Stack Pointer Limit
 785:./Libraries/CMSIS/Core/Include/cmsis_gcc.h ****   Devices without ARMv8-M Main Extensions (i.e. Cortex-M23) lack the non-secure
 786:./Libraries/CMSIS/Core/Include/cmsis_gcc.h ****   Stack Pointer Limit register hence the write is silently ignored in non-secure
 787:./Libraries/CMSIS/Core/Include/cmsis_gcc.h ****   mode.
 788:./Libraries/CMSIS/Core/Include/cmsis_gcc.h **** 
 789:./Libraries/CMSIS/Core/Include/cmsis_gcc.h ****   \details Assigns the given value to the Main Stack Pointer Limit (MSPLIM).
 790:./Libraries/CMSIS/Core/Include/cmsis_gcc.h ****   \param [in]    MainStackPtrLimit  Main Stack Pointer Limit value to set
 791:./Libraries/CMSIS/Core/Include/cmsis_gcc.h ****  */
 792:./Libraries/CMSIS/Core/Include/cmsis_gcc.h **** __STATIC_FORCEINLINE void __set_MSPLIM(uint32_t MainStackPtrLimit)
 793:./Libraries/CMSIS/Core/Include/cmsis_gcc.h **** {
 794:./Libraries/CMSIS/Core/Include/cmsis_gcc.h **** #if (!(defined (__ARM_ARCH_8M_MAIN__ ) && (__ARM_ARCH_8M_MAIN__ == 1)) && \
 795:./Libraries/CMSIS/Core/Include/cmsis_gcc.h ****     (!defined (__ARM_FEATURE_CMSE) || (__ARM_FEATURE_CMSE < 3)))
 796:./Libraries/CMSIS/Core/Include/cmsis_gcc.h ****   // without main extensions, the non-secure MSPLIM is RAZ/WI
 797:./Libraries/CMSIS/Core/Include/cmsis_gcc.h ****   (void)MainStackPtrLimit;
 798:./Libraries/CMSIS/Core/Include/cmsis_gcc.h **** #else
 799:./Libraries/CMSIS/Core/Include/cmsis_gcc.h ****   __ASM volatile ("MSR msplim, %0" : : "r" (MainStackPtrLimit));
 800:./Libraries/CMSIS/Core/Include/cmsis_gcc.h **** #endif
 801:./Libraries/CMSIS/Core/Include/cmsis_gcc.h **** }
 802:./Libraries/CMSIS/Core/Include/cmsis_gcc.h **** 
 803:./Libraries/CMSIS/Core/Include/cmsis_gcc.h **** 
 804:./Libraries/CMSIS/Core/Include/cmsis_gcc.h **** #if (defined (__ARM_FEATURE_CMSE  ) && (__ARM_FEATURE_CMSE   == 3))
 805:./Libraries/CMSIS/Core/Include/cmsis_gcc.h **** /**
 806:./Libraries/CMSIS/Core/Include/cmsis_gcc.h ****   \brief   Set Main Stack Pointer Limit (non-secure)
 807:./Libraries/CMSIS/Core/Include/cmsis_gcc.h ****   Devices without ARMv8-M Main Extensions (i.e. Cortex-M23) lack the non-secure
 808:./Libraries/CMSIS/Core/Include/cmsis_gcc.h ****   Stack Pointer Limit register hence the write is silently ignored.
 809:./Libraries/CMSIS/Core/Include/cmsis_gcc.h **** 
 810:./Libraries/CMSIS/Core/Include/cmsis_gcc.h ****   \details Assigns the given value to the non-secure Main Stack Pointer Limit (MSPLIM) when in secu
 811:./Libraries/CMSIS/Core/Include/cmsis_gcc.h ****   \param [in]    MainStackPtrLimit  Main Stack Pointer value to set
 812:./Libraries/CMSIS/Core/Include/cmsis_gcc.h ****  */
 813:./Libraries/CMSIS/Core/Include/cmsis_gcc.h **** __STATIC_FORCEINLINE void __TZ_set_MSPLIM_NS(uint32_t MainStackPtrLimit)
 814:./Libraries/CMSIS/Core/Include/cmsis_gcc.h **** {
 815:./Libraries/CMSIS/Core/Include/cmsis_gcc.h **** #if (!(defined (__ARM_ARCH_8M_MAIN__ ) && (__ARM_ARCH_8M_MAIN__ == 1)))
 816:./Libraries/CMSIS/Core/Include/cmsis_gcc.h ****   // without main extensions, the non-secure MSPLIM is RAZ/WI
 817:./Libraries/CMSIS/Core/Include/cmsis_gcc.h ****   (void)MainStackPtrLimit;
 818:./Libraries/CMSIS/Core/Include/cmsis_gcc.h **** #else
 819:./Libraries/CMSIS/Core/Include/cmsis_gcc.h ****   __ASM volatile ("MSR msplim_ns, %0" : : "r" (MainStackPtrLimit));
 820:./Libraries/CMSIS/Core/Include/cmsis_gcc.h **** #endif
 821:./Libraries/CMSIS/Core/Include/cmsis_gcc.h **** }
 822:./Libraries/CMSIS/Core/Include/cmsis_gcc.h **** #endif
 823:./Libraries/CMSIS/Core/Include/cmsis_gcc.h **** 
 824:./Libraries/CMSIS/Core/Include/cmsis_gcc.h **** #endif /* ((defined (__ARM_ARCH_8M_MAIN__ ) && (__ARM_ARCH_8M_MAIN__ == 1)) || \
 825:./Libraries/CMSIS/Core/Include/cmsis_gcc.h ****            (defined (__ARM_ARCH_8M_BASE__ ) && (__ARM_ARCH_8M_BASE__ == 1))    ) */
 826:./Libraries/CMSIS/Core/Include/cmsis_gcc.h **** 
 827:./Libraries/CMSIS/Core/Include/cmsis_gcc.h **** 
 828:./Libraries/CMSIS/Core/Include/cmsis_gcc.h **** /**
 829:./Libraries/CMSIS/Core/Include/cmsis_gcc.h ****   \brief   Get FPSCR
 830:./Libraries/CMSIS/Core/Include/cmsis_gcc.h ****   \details Returns the current value of the Floating Point Status/Control register.
 831:./Libraries/CMSIS/Core/Include/cmsis_gcc.h ****   \return               Floating Point Status/Control register value
 832:./Libraries/CMSIS/Core/Include/cmsis_gcc.h ****  */
 833:./Libraries/CMSIS/Core/Include/cmsis_gcc.h **** __STATIC_FORCEINLINE uint32_t __get_FPSCR(void)
 834:./Libraries/CMSIS/Core/Include/cmsis_gcc.h **** {
 835:./Libraries/CMSIS/Core/Include/cmsis_gcc.h **** #if ((defined (__FPU_PRESENT) && (__FPU_PRESENT == 1U)) && \
 836:./Libraries/CMSIS/Core/Include/cmsis_gcc.h ****      (defined (__FPU_USED   ) && (__FPU_USED    == 1U))     )
 837:./Libraries/CMSIS/Core/Include/cmsis_gcc.h **** #if __has_builtin(__builtin_arm_get_fpscr) 
ARM GAS  /tmp/ccef1Oo3.s 			page 51


 838:./Libraries/CMSIS/Core/Include/cmsis_gcc.h **** // Re-enable using built-in when GCC has been fixed
 839:./Libraries/CMSIS/Core/Include/cmsis_gcc.h **** // || (__GNUC__ > 7) || (__GNUC__ == 7 && __GNUC_MINOR__ >= 2)
 840:./Libraries/CMSIS/Core/Include/cmsis_gcc.h ****   /* see https://gcc.gnu.org/ml/gcc-patches/2017-04/msg00443.html */
 841:./Libraries/CMSIS/Core/Include/cmsis_gcc.h ****   return __builtin_arm_get_fpscr();
 842:./Libraries/CMSIS/Core/Include/cmsis_gcc.h **** #else
 843:./Libraries/CMSIS/Core/Include/cmsis_gcc.h ****   uint32_t result;
 844:./Libraries/CMSIS/Core/Include/cmsis_gcc.h **** 
 845:./Libraries/CMSIS/Core/Include/cmsis_gcc.h ****   __ASM volatile ("VMRS %0, fpscr" : "=r" (result) );
 846:./Libraries/CMSIS/Core/Include/cmsis_gcc.h ****   return(result);
 847:./Libraries/CMSIS/Core/Include/cmsis_gcc.h **** #endif
 848:./Libraries/CMSIS/Core/Include/cmsis_gcc.h **** #else
 849:./Libraries/CMSIS/Core/Include/cmsis_gcc.h ****   return(0U);
 850:./Libraries/CMSIS/Core/Include/cmsis_gcc.h **** #endif
 851:./Libraries/CMSIS/Core/Include/cmsis_gcc.h **** }
 852:./Libraries/CMSIS/Core/Include/cmsis_gcc.h **** 
 853:./Libraries/CMSIS/Core/Include/cmsis_gcc.h **** 
 854:./Libraries/CMSIS/Core/Include/cmsis_gcc.h **** /**
 855:./Libraries/CMSIS/Core/Include/cmsis_gcc.h ****   \brief   Set FPSCR
 856:./Libraries/CMSIS/Core/Include/cmsis_gcc.h ****   \details Assigns the given value to the Floating Point Status/Control register.
 857:./Libraries/CMSIS/Core/Include/cmsis_gcc.h ****   \param [in]    fpscr  Floating Point Status/Control value to set
 858:./Libraries/CMSIS/Core/Include/cmsis_gcc.h ****  */
 859:./Libraries/CMSIS/Core/Include/cmsis_gcc.h **** __STATIC_FORCEINLINE void __set_FPSCR(uint32_t fpscr)
 860:./Libraries/CMSIS/Core/Include/cmsis_gcc.h **** {
 861:./Libraries/CMSIS/Core/Include/cmsis_gcc.h **** #if ((defined (__FPU_PRESENT) && (__FPU_PRESENT == 1U)) && \
 862:./Libraries/CMSIS/Core/Include/cmsis_gcc.h ****      (defined (__FPU_USED   ) && (__FPU_USED    == 1U))     )
 863:./Libraries/CMSIS/Core/Include/cmsis_gcc.h **** #if __has_builtin(__builtin_arm_set_fpscr)
 864:./Libraries/CMSIS/Core/Include/cmsis_gcc.h **** // Re-enable using built-in when GCC has been fixed
 865:./Libraries/CMSIS/Core/Include/cmsis_gcc.h **** // || (__GNUC__ > 7) || (__GNUC__ == 7 && __GNUC_MINOR__ >= 2)
 866:./Libraries/CMSIS/Core/Include/cmsis_gcc.h ****   /* see https://gcc.gnu.org/ml/gcc-patches/2017-04/msg00443.html */
 867:./Libraries/CMSIS/Core/Include/cmsis_gcc.h ****   __builtin_arm_set_fpscr(fpscr);
 868:./Libraries/CMSIS/Core/Include/cmsis_gcc.h **** #else
 869:./Libraries/CMSIS/Core/Include/cmsis_gcc.h ****   __ASM volatile ("VMSR fpscr, %0" : : "r" (fpscr) : "vfpcc", "memory");
 870:./Libraries/CMSIS/Core/Include/cmsis_gcc.h **** #endif
 871:./Libraries/CMSIS/Core/Include/cmsis_gcc.h **** #else
 872:./Libraries/CMSIS/Core/Include/cmsis_gcc.h ****   (void)fpscr;
 873:./Libraries/CMSIS/Core/Include/cmsis_gcc.h **** #endif
 874:./Libraries/CMSIS/Core/Include/cmsis_gcc.h **** }
 875:./Libraries/CMSIS/Core/Include/cmsis_gcc.h **** 
 876:./Libraries/CMSIS/Core/Include/cmsis_gcc.h **** 
 877:./Libraries/CMSIS/Core/Include/cmsis_gcc.h **** /*@} end of CMSIS_Core_RegAccFunctions */
 878:./Libraries/CMSIS/Core/Include/cmsis_gcc.h **** 
 879:./Libraries/CMSIS/Core/Include/cmsis_gcc.h **** 
 880:./Libraries/CMSIS/Core/Include/cmsis_gcc.h **** /* ##########################  Core Instruction Access  ######################### */
 881:./Libraries/CMSIS/Core/Include/cmsis_gcc.h **** /** \defgroup CMSIS_Core_InstructionInterface CMSIS Core Instruction Interface
 882:./Libraries/CMSIS/Core/Include/cmsis_gcc.h ****   Access to dedicated instructions
 883:./Libraries/CMSIS/Core/Include/cmsis_gcc.h ****   @{
 884:./Libraries/CMSIS/Core/Include/cmsis_gcc.h **** */
 885:./Libraries/CMSIS/Core/Include/cmsis_gcc.h **** 
 886:./Libraries/CMSIS/Core/Include/cmsis_gcc.h **** /* Define macros for porting to both thumb1 and thumb2.
 887:./Libraries/CMSIS/Core/Include/cmsis_gcc.h ****  * For thumb1, use low register (r0-r7), specified by constraint "l"
 888:./Libraries/CMSIS/Core/Include/cmsis_gcc.h ****  * Otherwise, use general registers, specified by constraint "r" */
 889:./Libraries/CMSIS/Core/Include/cmsis_gcc.h **** #if defined (__thumb__) && !defined (__thumb2__)
 890:./Libraries/CMSIS/Core/Include/cmsis_gcc.h **** #define __CMSIS_GCC_OUT_REG(r) "=l" (r)
 891:./Libraries/CMSIS/Core/Include/cmsis_gcc.h **** #define __CMSIS_GCC_RW_REG(r) "+l" (r)
 892:./Libraries/CMSIS/Core/Include/cmsis_gcc.h **** #define __CMSIS_GCC_USE_REG(r) "l" (r)
 893:./Libraries/CMSIS/Core/Include/cmsis_gcc.h **** #else
 894:./Libraries/CMSIS/Core/Include/cmsis_gcc.h **** #define __CMSIS_GCC_OUT_REG(r) "=r" (r)
ARM GAS  /tmp/ccef1Oo3.s 			page 52


 895:./Libraries/CMSIS/Core/Include/cmsis_gcc.h **** #define __CMSIS_GCC_RW_REG(r) "+r" (r)
 896:./Libraries/CMSIS/Core/Include/cmsis_gcc.h **** #define __CMSIS_GCC_USE_REG(r) "r" (r)
 897:./Libraries/CMSIS/Core/Include/cmsis_gcc.h **** #endif
 898:./Libraries/CMSIS/Core/Include/cmsis_gcc.h **** 
 899:./Libraries/CMSIS/Core/Include/cmsis_gcc.h **** /**
 900:./Libraries/CMSIS/Core/Include/cmsis_gcc.h ****   \brief   No Operation
 901:./Libraries/CMSIS/Core/Include/cmsis_gcc.h ****   \details No Operation does nothing. This instruction can be used for code alignment purposes.
 902:./Libraries/CMSIS/Core/Include/cmsis_gcc.h ****  */
 903:./Libraries/CMSIS/Core/Include/cmsis_gcc.h **** #define __NOP()                             __ASM volatile ("nop")
 904:./Libraries/CMSIS/Core/Include/cmsis_gcc.h **** 
 905:./Libraries/CMSIS/Core/Include/cmsis_gcc.h **** /**
 906:./Libraries/CMSIS/Core/Include/cmsis_gcc.h ****   \brief   Wait For Interrupt
 907:./Libraries/CMSIS/Core/Include/cmsis_gcc.h ****   \details Wait For Interrupt is a hint instruction that suspends execution until one of a number o
 908:./Libraries/CMSIS/Core/Include/cmsis_gcc.h ****  */
 909:./Libraries/CMSIS/Core/Include/cmsis_gcc.h **** #define __WFI()                             __ASM volatile ("wfi")
 910:./Libraries/CMSIS/Core/Include/cmsis_gcc.h **** 
 911:./Libraries/CMSIS/Core/Include/cmsis_gcc.h **** 
 912:./Libraries/CMSIS/Core/Include/cmsis_gcc.h **** /**
 913:./Libraries/CMSIS/Core/Include/cmsis_gcc.h ****   \brief   Wait For Event
 914:./Libraries/CMSIS/Core/Include/cmsis_gcc.h ****   \details Wait For Event is a hint instruction that permits the processor to enter
 915:./Libraries/CMSIS/Core/Include/cmsis_gcc.h ****            a low-power state until one of a number of events occurs.
 916:./Libraries/CMSIS/Core/Include/cmsis_gcc.h ****  */
 917:./Libraries/CMSIS/Core/Include/cmsis_gcc.h **** #define __WFE()                             __ASM volatile ("wfe")
 918:./Libraries/CMSIS/Core/Include/cmsis_gcc.h **** 
 919:./Libraries/CMSIS/Core/Include/cmsis_gcc.h **** 
 920:./Libraries/CMSIS/Core/Include/cmsis_gcc.h **** /**
 921:./Libraries/CMSIS/Core/Include/cmsis_gcc.h ****   \brief   Send Event
 922:./Libraries/CMSIS/Core/Include/cmsis_gcc.h ****   \details Send Event is a hint instruction. It causes an event to be signaled to the CPU.
 923:./Libraries/CMSIS/Core/Include/cmsis_gcc.h ****  */
 924:./Libraries/CMSIS/Core/Include/cmsis_gcc.h **** #define __SEV()                             __ASM volatile ("sev")
 925:./Libraries/CMSIS/Core/Include/cmsis_gcc.h **** 
 926:./Libraries/CMSIS/Core/Include/cmsis_gcc.h **** 
 927:./Libraries/CMSIS/Core/Include/cmsis_gcc.h **** /**
 928:./Libraries/CMSIS/Core/Include/cmsis_gcc.h ****   \brief   Instruction Synchronization Barrier
 929:./Libraries/CMSIS/Core/Include/cmsis_gcc.h ****   \details Instruction Synchronization Barrier flushes the pipeline in the processor,
 930:./Libraries/CMSIS/Core/Include/cmsis_gcc.h ****            so that all instructions following the ISB are fetched from cache or memory,
 931:./Libraries/CMSIS/Core/Include/cmsis_gcc.h ****            after the instruction has been completed.
 932:./Libraries/CMSIS/Core/Include/cmsis_gcc.h ****  */
 933:./Libraries/CMSIS/Core/Include/cmsis_gcc.h **** __STATIC_FORCEINLINE void __ISB(void)
 934:./Libraries/CMSIS/Core/Include/cmsis_gcc.h **** {
 935:./Libraries/CMSIS/Core/Include/cmsis_gcc.h ****   __ASM volatile ("isb 0xF":::"memory");
 936:./Libraries/CMSIS/Core/Include/cmsis_gcc.h **** }
 937:./Libraries/CMSIS/Core/Include/cmsis_gcc.h **** 
 938:./Libraries/CMSIS/Core/Include/cmsis_gcc.h **** 
 939:./Libraries/CMSIS/Core/Include/cmsis_gcc.h **** /**
 940:./Libraries/CMSIS/Core/Include/cmsis_gcc.h ****   \brief   Data Synchronization Barrier
 941:./Libraries/CMSIS/Core/Include/cmsis_gcc.h ****   \details Acts as a special kind of Data Memory Barrier.
 942:./Libraries/CMSIS/Core/Include/cmsis_gcc.h ****            It completes when all explicit memory accesses before this instruction complete.
 943:./Libraries/CMSIS/Core/Include/cmsis_gcc.h ****  */
 944:./Libraries/CMSIS/Core/Include/cmsis_gcc.h **** __STATIC_FORCEINLINE void __DSB(void)
 945:./Libraries/CMSIS/Core/Include/cmsis_gcc.h **** {
 946:./Libraries/CMSIS/Core/Include/cmsis_gcc.h ****   __ASM volatile ("dsb 0xF":::"memory");
 947:./Libraries/CMSIS/Core/Include/cmsis_gcc.h **** }
 948:./Libraries/CMSIS/Core/Include/cmsis_gcc.h **** 
 949:./Libraries/CMSIS/Core/Include/cmsis_gcc.h **** 
 950:./Libraries/CMSIS/Core/Include/cmsis_gcc.h **** /**
 951:./Libraries/CMSIS/Core/Include/cmsis_gcc.h ****   \brief   Data Memory Barrier
ARM GAS  /tmp/ccef1Oo3.s 			page 53


 952:./Libraries/CMSIS/Core/Include/cmsis_gcc.h ****   \details Ensures the apparent order of the explicit memory operations before
 953:./Libraries/CMSIS/Core/Include/cmsis_gcc.h ****            and after the instruction, without ensuring their completion.
 954:./Libraries/CMSIS/Core/Include/cmsis_gcc.h ****  */
 955:./Libraries/CMSIS/Core/Include/cmsis_gcc.h **** __STATIC_FORCEINLINE void __DMB(void)
 956:./Libraries/CMSIS/Core/Include/cmsis_gcc.h **** {
 957:./Libraries/CMSIS/Core/Include/cmsis_gcc.h ****   __ASM volatile ("dmb 0xF":::"memory");
 958:./Libraries/CMSIS/Core/Include/cmsis_gcc.h **** }
 959:./Libraries/CMSIS/Core/Include/cmsis_gcc.h **** 
 960:./Libraries/CMSIS/Core/Include/cmsis_gcc.h **** 
 961:./Libraries/CMSIS/Core/Include/cmsis_gcc.h **** /**
 962:./Libraries/CMSIS/Core/Include/cmsis_gcc.h ****   \brief   Reverse byte order (32 bit)
 963:./Libraries/CMSIS/Core/Include/cmsis_gcc.h ****   \details Reverses the byte order in unsigned integer value. For example, 0x12345678 becomes 0x785
 964:./Libraries/CMSIS/Core/Include/cmsis_gcc.h ****   \param [in]    value  Value to reverse
 965:./Libraries/CMSIS/Core/Include/cmsis_gcc.h ****   \return               Reversed value
 966:./Libraries/CMSIS/Core/Include/cmsis_gcc.h ****  */
 967:./Libraries/CMSIS/Core/Include/cmsis_gcc.h **** __STATIC_FORCEINLINE uint32_t __REV(uint32_t value)
 968:./Libraries/CMSIS/Core/Include/cmsis_gcc.h **** {
 969:./Libraries/CMSIS/Core/Include/cmsis_gcc.h **** #if (__GNUC__ > 4) || (__GNUC__ == 4 && __GNUC_MINOR__ >= 5)
 970:./Libraries/CMSIS/Core/Include/cmsis_gcc.h ****   return __builtin_bswap32(value);
 971:./Libraries/CMSIS/Core/Include/cmsis_gcc.h **** #else
 972:./Libraries/CMSIS/Core/Include/cmsis_gcc.h ****   uint32_t result;
 973:./Libraries/CMSIS/Core/Include/cmsis_gcc.h **** 
 974:./Libraries/CMSIS/Core/Include/cmsis_gcc.h ****   __ASM volatile ("rev %0, %1" : __CMSIS_GCC_OUT_REG (result) : __CMSIS_GCC_USE_REG (value) );
 975:./Libraries/CMSIS/Core/Include/cmsis_gcc.h ****   return result;
 976:./Libraries/CMSIS/Core/Include/cmsis_gcc.h **** #endif
 977:./Libraries/CMSIS/Core/Include/cmsis_gcc.h **** }
 978:./Libraries/CMSIS/Core/Include/cmsis_gcc.h **** 
 979:./Libraries/CMSIS/Core/Include/cmsis_gcc.h **** 
 980:./Libraries/CMSIS/Core/Include/cmsis_gcc.h **** /**
 981:./Libraries/CMSIS/Core/Include/cmsis_gcc.h ****   \brief   Reverse byte order (16 bit)
 982:./Libraries/CMSIS/Core/Include/cmsis_gcc.h ****   \details Reverses the byte order within each halfword of a word. For example, 0x12345678 becomes 
 983:./Libraries/CMSIS/Core/Include/cmsis_gcc.h ****   \param [in]    value  Value to reverse
 984:./Libraries/CMSIS/Core/Include/cmsis_gcc.h ****   \return               Reversed value
 985:./Libraries/CMSIS/Core/Include/cmsis_gcc.h ****  */
 986:./Libraries/CMSIS/Core/Include/cmsis_gcc.h **** __STATIC_FORCEINLINE uint32_t __REV16(uint32_t value)
 987:./Libraries/CMSIS/Core/Include/cmsis_gcc.h **** {
 988:./Libraries/CMSIS/Core/Include/cmsis_gcc.h ****   uint32_t result;
 989:./Libraries/CMSIS/Core/Include/cmsis_gcc.h **** 
 990:./Libraries/CMSIS/Core/Include/cmsis_gcc.h ****   __ASM volatile ("rev16 %0, %1" : __CMSIS_GCC_OUT_REG (result) : __CMSIS_GCC_USE_REG (value) );
 991:./Libraries/CMSIS/Core/Include/cmsis_gcc.h ****   return result;
 992:./Libraries/CMSIS/Core/Include/cmsis_gcc.h **** }
 993:./Libraries/CMSIS/Core/Include/cmsis_gcc.h **** 
 994:./Libraries/CMSIS/Core/Include/cmsis_gcc.h **** 
 995:./Libraries/CMSIS/Core/Include/cmsis_gcc.h **** /**
 996:./Libraries/CMSIS/Core/Include/cmsis_gcc.h ****   \brief   Reverse byte order (16 bit)
 997:./Libraries/CMSIS/Core/Include/cmsis_gcc.h ****   \details Reverses the byte order in a 16-bit value and returns the signed 16-bit result. For exam
 998:./Libraries/CMSIS/Core/Include/cmsis_gcc.h ****   \param [in]    value  Value to reverse
 999:./Libraries/CMSIS/Core/Include/cmsis_gcc.h ****   \return               Reversed value
1000:./Libraries/CMSIS/Core/Include/cmsis_gcc.h ****  */
1001:./Libraries/CMSIS/Core/Include/cmsis_gcc.h **** __STATIC_FORCEINLINE int16_t __REVSH(int16_t value)
1002:./Libraries/CMSIS/Core/Include/cmsis_gcc.h **** {
1003:./Libraries/CMSIS/Core/Include/cmsis_gcc.h **** #if (__GNUC__ > 4) || (__GNUC__ == 4 && __GNUC_MINOR__ >= 8)
1004:./Libraries/CMSIS/Core/Include/cmsis_gcc.h ****   return (int16_t)__builtin_bswap16(value);
1005:./Libraries/CMSIS/Core/Include/cmsis_gcc.h **** #else
1006:./Libraries/CMSIS/Core/Include/cmsis_gcc.h ****   int16_t result;
1007:./Libraries/CMSIS/Core/Include/cmsis_gcc.h **** 
1008:./Libraries/CMSIS/Core/Include/cmsis_gcc.h ****   __ASM volatile ("revsh %0, %1" : __CMSIS_GCC_OUT_REG (result) : __CMSIS_GCC_USE_REG (value) );
ARM GAS  /tmp/ccef1Oo3.s 			page 54


1009:./Libraries/CMSIS/Core/Include/cmsis_gcc.h ****   return result;
1010:./Libraries/CMSIS/Core/Include/cmsis_gcc.h **** #endif
1011:./Libraries/CMSIS/Core/Include/cmsis_gcc.h **** }
1012:./Libraries/CMSIS/Core/Include/cmsis_gcc.h **** 
1013:./Libraries/CMSIS/Core/Include/cmsis_gcc.h **** 
1014:./Libraries/CMSIS/Core/Include/cmsis_gcc.h **** /**
1015:./Libraries/CMSIS/Core/Include/cmsis_gcc.h ****   \brief   Rotate Right in unsigned value (32 bit)
1016:./Libraries/CMSIS/Core/Include/cmsis_gcc.h ****   \details Rotate Right (immediate) provides the value of the contents of a register rotated by a v
1017:./Libraries/CMSIS/Core/Include/cmsis_gcc.h ****   \param [in]    op1  Value to rotate
1018:./Libraries/CMSIS/Core/Include/cmsis_gcc.h ****   \param [in]    op2  Number of Bits to rotate
1019:./Libraries/CMSIS/Core/Include/cmsis_gcc.h ****   \return               Rotated value
1020:./Libraries/CMSIS/Core/Include/cmsis_gcc.h ****  */
1021:./Libraries/CMSIS/Core/Include/cmsis_gcc.h **** __STATIC_FORCEINLINE uint32_t __ROR(uint32_t op1, uint32_t op2)
 1241              		.loc 3 1021 31 is_stmt 1 view .LVU410
 1242              	.LBB31:
1022:./Libraries/CMSIS/Core/Include/cmsis_gcc.h **** {
1023:./Libraries/CMSIS/Core/Include/cmsis_gcc.h ****   op2 %= 32U;
 1243              		.loc 3 1023 3 view .LVU411
1024:./Libraries/CMSIS/Core/Include/cmsis_gcc.h ****   if (op2 == 0U)
 1244              		.loc 3 1024 3 view .LVU412
1025:./Libraries/CMSIS/Core/Include/cmsis_gcc.h ****   {
1026:./Libraries/CMSIS/Core/Include/cmsis_gcc.h ****     return op1;
1027:./Libraries/CMSIS/Core/Include/cmsis_gcc.h ****   }
1028:./Libraries/CMSIS/Core/Include/cmsis_gcc.h ****   return (op1 >> op2) | (op1 << (32U - op2));
 1245              		.loc 3 1028 3 view .LVU413
 1246              		.loc 3 1028 3 is_stmt 0 view .LVU414
 1247              	.LBE31:
 1248              	.LBE30:
 1249              	.LBB33:
 1250              	.LBI33:
1029:./Libraries/CMSIS/Core/Include/cmsis_gcc.h **** }
1030:./Libraries/CMSIS/Core/Include/cmsis_gcc.h **** 
1031:./Libraries/CMSIS/Core/Include/cmsis_gcc.h **** 
1032:./Libraries/CMSIS/Core/Include/cmsis_gcc.h **** /**
1033:./Libraries/CMSIS/Core/Include/cmsis_gcc.h ****   \brief   Breakpoint
1034:./Libraries/CMSIS/Core/Include/cmsis_gcc.h ****   \details Causes the processor to enter Debug state.
1035:./Libraries/CMSIS/Core/Include/cmsis_gcc.h ****            Debug tools can use this to investigate system state when the instruction at a particula
1036:./Libraries/CMSIS/Core/Include/cmsis_gcc.h ****   \param [in]    value  is ignored by the processor.
1037:./Libraries/CMSIS/Core/Include/cmsis_gcc.h ****                  If required, a debugger can use it to store additional information about the break
1038:./Libraries/CMSIS/Core/Include/cmsis_gcc.h ****  */
1039:./Libraries/CMSIS/Core/Include/cmsis_gcc.h **** #define __BKPT(value)                       __ASM volatile ("bkpt "#value)
1040:./Libraries/CMSIS/Core/Include/cmsis_gcc.h **** 
1041:./Libraries/CMSIS/Core/Include/cmsis_gcc.h **** 
1042:./Libraries/CMSIS/Core/Include/cmsis_gcc.h **** /**
1043:./Libraries/CMSIS/Core/Include/cmsis_gcc.h ****   \brief   Reverse bit order of value
1044:./Libraries/CMSIS/Core/Include/cmsis_gcc.h ****   \details Reverses the bit order of the given value.
1045:./Libraries/CMSIS/Core/Include/cmsis_gcc.h ****   \param [in]    value  Value to reverse
1046:./Libraries/CMSIS/Core/Include/cmsis_gcc.h ****   \return               Reversed value
1047:./Libraries/CMSIS/Core/Include/cmsis_gcc.h ****  */
1048:./Libraries/CMSIS/Core/Include/cmsis_gcc.h **** __STATIC_FORCEINLINE uint32_t __RBIT(uint32_t value)
1049:./Libraries/CMSIS/Core/Include/cmsis_gcc.h **** {
1050:./Libraries/CMSIS/Core/Include/cmsis_gcc.h ****   uint32_t result;
1051:./Libraries/CMSIS/Core/Include/cmsis_gcc.h **** 
1052:./Libraries/CMSIS/Core/Include/cmsis_gcc.h **** #if ((defined (__ARM_ARCH_7M__      ) && (__ARM_ARCH_7M__      == 1)) || \
1053:./Libraries/CMSIS/Core/Include/cmsis_gcc.h ****      (defined (__ARM_ARCH_7EM__     ) && (__ARM_ARCH_7EM__     == 1)) || \
1054:./Libraries/CMSIS/Core/Include/cmsis_gcc.h ****      (defined (__ARM_ARCH_8M_MAIN__ ) && (__ARM_ARCH_8M_MAIN__ == 1))    )
1055:./Libraries/CMSIS/Core/Include/cmsis_gcc.h ****    __ASM volatile ("rbit %0, %1" : "=r" (result) : "r" (value) );
ARM GAS  /tmp/ccef1Oo3.s 			page 55


1056:./Libraries/CMSIS/Core/Include/cmsis_gcc.h **** #else
1057:./Libraries/CMSIS/Core/Include/cmsis_gcc.h ****   uint32_t s = (4U /*sizeof(v)*/ * 8U) - 1U; /* extra shift needed at end */
1058:./Libraries/CMSIS/Core/Include/cmsis_gcc.h **** 
1059:./Libraries/CMSIS/Core/Include/cmsis_gcc.h ****   result = value;                      /* r will be reversed bits of v; first get LSB of v */
1060:./Libraries/CMSIS/Core/Include/cmsis_gcc.h ****   for (value >>= 1U; value != 0U; value >>= 1U)
1061:./Libraries/CMSIS/Core/Include/cmsis_gcc.h ****   {
1062:./Libraries/CMSIS/Core/Include/cmsis_gcc.h ****     result <<= 1U;
1063:./Libraries/CMSIS/Core/Include/cmsis_gcc.h ****     result |= value & 1U;
1064:./Libraries/CMSIS/Core/Include/cmsis_gcc.h ****     s--;
1065:./Libraries/CMSIS/Core/Include/cmsis_gcc.h ****   }
1066:./Libraries/CMSIS/Core/Include/cmsis_gcc.h ****   result <<= s;                        /* shift when v's highest bits are zero */
1067:./Libraries/CMSIS/Core/Include/cmsis_gcc.h **** #endif
1068:./Libraries/CMSIS/Core/Include/cmsis_gcc.h ****   return result;
1069:./Libraries/CMSIS/Core/Include/cmsis_gcc.h **** }
1070:./Libraries/CMSIS/Core/Include/cmsis_gcc.h **** 
1071:./Libraries/CMSIS/Core/Include/cmsis_gcc.h **** 
1072:./Libraries/CMSIS/Core/Include/cmsis_gcc.h **** /**
1073:./Libraries/CMSIS/Core/Include/cmsis_gcc.h ****   \brief   Count leading zeros
1074:./Libraries/CMSIS/Core/Include/cmsis_gcc.h ****   \details Counts the number of leading zeros of a data value.
1075:./Libraries/CMSIS/Core/Include/cmsis_gcc.h ****   \param [in]  value  Value to count the leading zeros
1076:./Libraries/CMSIS/Core/Include/cmsis_gcc.h ****   \return             number of leading zeros in value
1077:./Libraries/CMSIS/Core/Include/cmsis_gcc.h ****  */
1078:./Libraries/CMSIS/Core/Include/cmsis_gcc.h **** __STATIC_FORCEINLINE uint8_t __CLZ(uint32_t value)
1079:./Libraries/CMSIS/Core/Include/cmsis_gcc.h **** {
1080:./Libraries/CMSIS/Core/Include/cmsis_gcc.h ****   /* Even though __builtin_clz produces a CLZ instruction on ARM, formally
1081:./Libraries/CMSIS/Core/Include/cmsis_gcc.h ****      __builtin_clz(0) is undefined behaviour, so handle this case specially.
1082:./Libraries/CMSIS/Core/Include/cmsis_gcc.h ****      This guarantees ARM-compatible results if happening to compile on a non-ARM
1083:./Libraries/CMSIS/Core/Include/cmsis_gcc.h ****      target, and ensures the compiler doesn't decide to activate any
1084:./Libraries/CMSIS/Core/Include/cmsis_gcc.h ****      optimisations using the logic "value was passed to __builtin_clz, so it
1085:./Libraries/CMSIS/Core/Include/cmsis_gcc.h ****      is non-zero".
1086:./Libraries/CMSIS/Core/Include/cmsis_gcc.h ****      ARM GCC 7.3 and possibly earlier will optimise this test away, leaving a
1087:./Libraries/CMSIS/Core/Include/cmsis_gcc.h ****      single CLZ instruction.
1088:./Libraries/CMSIS/Core/Include/cmsis_gcc.h ****    */
1089:./Libraries/CMSIS/Core/Include/cmsis_gcc.h ****   if (value == 0U)
1090:./Libraries/CMSIS/Core/Include/cmsis_gcc.h ****   {
1091:./Libraries/CMSIS/Core/Include/cmsis_gcc.h ****     return 32U;
1092:./Libraries/CMSIS/Core/Include/cmsis_gcc.h ****   }
1093:./Libraries/CMSIS/Core/Include/cmsis_gcc.h ****   return __builtin_clz(value);
1094:./Libraries/CMSIS/Core/Include/cmsis_gcc.h **** }
1095:./Libraries/CMSIS/Core/Include/cmsis_gcc.h **** 
1096:./Libraries/CMSIS/Core/Include/cmsis_gcc.h **** 
1097:./Libraries/CMSIS/Core/Include/cmsis_gcc.h **** #if ((defined (__ARM_ARCH_7M__      ) && (__ARM_ARCH_7M__      == 1)) || \
1098:./Libraries/CMSIS/Core/Include/cmsis_gcc.h ****      (defined (__ARM_ARCH_7EM__     ) && (__ARM_ARCH_7EM__     == 1)) || \
1099:./Libraries/CMSIS/Core/Include/cmsis_gcc.h ****      (defined (__ARM_ARCH_8M_MAIN__ ) && (__ARM_ARCH_8M_MAIN__ == 1)) || \
1100:./Libraries/CMSIS/Core/Include/cmsis_gcc.h ****      (defined (__ARM_ARCH_8M_BASE__ ) && (__ARM_ARCH_8M_BASE__ == 1))    )
1101:./Libraries/CMSIS/Core/Include/cmsis_gcc.h **** /**
1102:./Libraries/CMSIS/Core/Include/cmsis_gcc.h ****   \brief   LDR Exclusive (8 bit)
1103:./Libraries/CMSIS/Core/Include/cmsis_gcc.h ****   \details Executes a exclusive LDR instruction for 8 bit value.
1104:./Libraries/CMSIS/Core/Include/cmsis_gcc.h ****   \param [in]    ptr  Pointer to data
1105:./Libraries/CMSIS/Core/Include/cmsis_gcc.h ****   \return             value of type uint8_t at (*ptr)
1106:./Libraries/CMSIS/Core/Include/cmsis_gcc.h ****  */
1107:./Libraries/CMSIS/Core/Include/cmsis_gcc.h **** __STATIC_FORCEINLINE uint8_t __LDREXB(volatile uint8_t *addr)
1108:./Libraries/CMSIS/Core/Include/cmsis_gcc.h **** {
1109:./Libraries/CMSIS/Core/Include/cmsis_gcc.h ****     uint32_t result;
1110:./Libraries/CMSIS/Core/Include/cmsis_gcc.h **** 
1111:./Libraries/CMSIS/Core/Include/cmsis_gcc.h **** #if (__GNUC__ > 4) || (__GNUC__ == 4 && __GNUC_MINOR__ >= 8)
1112:./Libraries/CMSIS/Core/Include/cmsis_gcc.h ****    __ASM volatile ("ldrexb %0, %1" : "=r" (result) : "Q" (*addr) );
ARM GAS  /tmp/ccef1Oo3.s 			page 56


1113:./Libraries/CMSIS/Core/Include/cmsis_gcc.h **** #else
1114:./Libraries/CMSIS/Core/Include/cmsis_gcc.h ****     /* Prior to GCC 4.8, "Q" will be expanded to [rx, #0] which is not
1115:./Libraries/CMSIS/Core/Include/cmsis_gcc.h ****        accepted by assembler. So has to use following less efficient pattern.
1116:./Libraries/CMSIS/Core/Include/cmsis_gcc.h ****     */
1117:./Libraries/CMSIS/Core/Include/cmsis_gcc.h ****    __ASM volatile ("ldrexb %0, [%1]" : "=r" (result) : "r" (addr) : "memory" );
1118:./Libraries/CMSIS/Core/Include/cmsis_gcc.h **** #endif
1119:./Libraries/CMSIS/Core/Include/cmsis_gcc.h ****    return ((uint8_t) result);    /* Add explicit type cast here */
1120:./Libraries/CMSIS/Core/Include/cmsis_gcc.h **** }
1121:./Libraries/CMSIS/Core/Include/cmsis_gcc.h **** 
1122:./Libraries/CMSIS/Core/Include/cmsis_gcc.h **** 
1123:./Libraries/CMSIS/Core/Include/cmsis_gcc.h **** /**
1124:./Libraries/CMSIS/Core/Include/cmsis_gcc.h ****   \brief   LDR Exclusive (16 bit)
1125:./Libraries/CMSIS/Core/Include/cmsis_gcc.h ****   \details Executes a exclusive LDR instruction for 16 bit values.
1126:./Libraries/CMSIS/Core/Include/cmsis_gcc.h ****   \param [in]    ptr  Pointer to data
1127:./Libraries/CMSIS/Core/Include/cmsis_gcc.h ****   \return        value of type uint16_t at (*ptr)
1128:./Libraries/CMSIS/Core/Include/cmsis_gcc.h ****  */
1129:./Libraries/CMSIS/Core/Include/cmsis_gcc.h **** __STATIC_FORCEINLINE uint16_t __LDREXH(volatile uint16_t *addr)
1130:./Libraries/CMSIS/Core/Include/cmsis_gcc.h **** {
1131:./Libraries/CMSIS/Core/Include/cmsis_gcc.h ****     uint32_t result;
1132:./Libraries/CMSIS/Core/Include/cmsis_gcc.h **** 
1133:./Libraries/CMSIS/Core/Include/cmsis_gcc.h **** #if (__GNUC__ > 4) || (__GNUC__ == 4 && __GNUC_MINOR__ >= 8)
1134:./Libraries/CMSIS/Core/Include/cmsis_gcc.h ****    __ASM volatile ("ldrexh %0, %1" : "=r" (result) : "Q" (*addr) );
1135:./Libraries/CMSIS/Core/Include/cmsis_gcc.h **** #else
1136:./Libraries/CMSIS/Core/Include/cmsis_gcc.h ****     /* Prior to GCC 4.8, "Q" will be expanded to [rx, #0] which is not
1137:./Libraries/CMSIS/Core/Include/cmsis_gcc.h ****        accepted by assembler. So has to use following less efficient pattern.
1138:./Libraries/CMSIS/Core/Include/cmsis_gcc.h ****     */
1139:./Libraries/CMSIS/Core/Include/cmsis_gcc.h ****    __ASM volatile ("ldrexh %0, [%1]" : "=r" (result) : "r" (addr) : "memory" );
1140:./Libraries/CMSIS/Core/Include/cmsis_gcc.h **** #endif
1141:./Libraries/CMSIS/Core/Include/cmsis_gcc.h ****    return ((uint16_t) result);    /* Add explicit type cast here */
1142:./Libraries/CMSIS/Core/Include/cmsis_gcc.h **** }
1143:./Libraries/CMSIS/Core/Include/cmsis_gcc.h **** 
1144:./Libraries/CMSIS/Core/Include/cmsis_gcc.h **** 
1145:./Libraries/CMSIS/Core/Include/cmsis_gcc.h **** /**
1146:./Libraries/CMSIS/Core/Include/cmsis_gcc.h ****   \brief   LDR Exclusive (32 bit)
1147:./Libraries/CMSIS/Core/Include/cmsis_gcc.h ****   \details Executes a exclusive LDR instruction for 32 bit values.
1148:./Libraries/CMSIS/Core/Include/cmsis_gcc.h ****   \param [in]    ptr  Pointer to data
1149:./Libraries/CMSIS/Core/Include/cmsis_gcc.h ****   \return        value of type uint32_t at (*ptr)
1150:./Libraries/CMSIS/Core/Include/cmsis_gcc.h ****  */
1151:./Libraries/CMSIS/Core/Include/cmsis_gcc.h **** __STATIC_FORCEINLINE uint32_t __LDREXW(volatile uint32_t *addr)
1152:./Libraries/CMSIS/Core/Include/cmsis_gcc.h **** {
1153:./Libraries/CMSIS/Core/Include/cmsis_gcc.h ****     uint32_t result;
1154:./Libraries/CMSIS/Core/Include/cmsis_gcc.h **** 
1155:./Libraries/CMSIS/Core/Include/cmsis_gcc.h ****    __ASM volatile ("ldrex %0, %1" : "=r" (result) : "Q" (*addr) );
1156:./Libraries/CMSIS/Core/Include/cmsis_gcc.h ****    return(result);
1157:./Libraries/CMSIS/Core/Include/cmsis_gcc.h **** }
1158:./Libraries/CMSIS/Core/Include/cmsis_gcc.h **** 
1159:./Libraries/CMSIS/Core/Include/cmsis_gcc.h **** 
1160:./Libraries/CMSIS/Core/Include/cmsis_gcc.h **** /**
1161:./Libraries/CMSIS/Core/Include/cmsis_gcc.h ****   \brief   STR Exclusive (8 bit)
1162:./Libraries/CMSIS/Core/Include/cmsis_gcc.h ****   \details Executes a exclusive STR instruction for 8 bit values.
1163:./Libraries/CMSIS/Core/Include/cmsis_gcc.h ****   \param [in]  value  Value to store
1164:./Libraries/CMSIS/Core/Include/cmsis_gcc.h ****   \param [in]    ptr  Pointer to location
1165:./Libraries/CMSIS/Core/Include/cmsis_gcc.h ****   \return          0  Function succeeded
1166:./Libraries/CMSIS/Core/Include/cmsis_gcc.h ****   \return          1  Function failed
1167:./Libraries/CMSIS/Core/Include/cmsis_gcc.h ****  */
1168:./Libraries/CMSIS/Core/Include/cmsis_gcc.h **** __STATIC_FORCEINLINE uint32_t __STREXB(uint8_t value, volatile uint8_t *addr)
1169:./Libraries/CMSIS/Core/Include/cmsis_gcc.h **** {
ARM GAS  /tmp/ccef1Oo3.s 			page 57


1170:./Libraries/CMSIS/Core/Include/cmsis_gcc.h ****    uint32_t result;
1171:./Libraries/CMSIS/Core/Include/cmsis_gcc.h **** 
1172:./Libraries/CMSIS/Core/Include/cmsis_gcc.h ****    __ASM volatile ("strexb %0, %2, %1" : "=&r" (result), "=Q" (*addr) : "r" ((uint32_t)value) );
1173:./Libraries/CMSIS/Core/Include/cmsis_gcc.h ****    return(result);
1174:./Libraries/CMSIS/Core/Include/cmsis_gcc.h **** }
1175:./Libraries/CMSIS/Core/Include/cmsis_gcc.h **** 
1176:./Libraries/CMSIS/Core/Include/cmsis_gcc.h **** 
1177:./Libraries/CMSIS/Core/Include/cmsis_gcc.h **** /**
1178:./Libraries/CMSIS/Core/Include/cmsis_gcc.h ****   \brief   STR Exclusive (16 bit)
1179:./Libraries/CMSIS/Core/Include/cmsis_gcc.h ****   \details Executes a exclusive STR instruction for 16 bit values.
1180:./Libraries/CMSIS/Core/Include/cmsis_gcc.h ****   \param [in]  value  Value to store
1181:./Libraries/CMSIS/Core/Include/cmsis_gcc.h ****   \param [in]    ptr  Pointer to location
1182:./Libraries/CMSIS/Core/Include/cmsis_gcc.h ****   \return          0  Function succeeded
1183:./Libraries/CMSIS/Core/Include/cmsis_gcc.h ****   \return          1  Function failed
1184:./Libraries/CMSIS/Core/Include/cmsis_gcc.h ****  */
1185:./Libraries/CMSIS/Core/Include/cmsis_gcc.h **** __STATIC_FORCEINLINE uint32_t __STREXH(uint16_t value, volatile uint16_t *addr)
1186:./Libraries/CMSIS/Core/Include/cmsis_gcc.h **** {
1187:./Libraries/CMSIS/Core/Include/cmsis_gcc.h ****    uint32_t result;
1188:./Libraries/CMSIS/Core/Include/cmsis_gcc.h **** 
1189:./Libraries/CMSIS/Core/Include/cmsis_gcc.h ****    __ASM volatile ("strexh %0, %2, %1" : "=&r" (result), "=Q" (*addr) : "r" ((uint32_t)value) );
1190:./Libraries/CMSIS/Core/Include/cmsis_gcc.h ****    return(result);
1191:./Libraries/CMSIS/Core/Include/cmsis_gcc.h **** }
1192:./Libraries/CMSIS/Core/Include/cmsis_gcc.h **** 
1193:./Libraries/CMSIS/Core/Include/cmsis_gcc.h **** 
1194:./Libraries/CMSIS/Core/Include/cmsis_gcc.h **** /**
1195:./Libraries/CMSIS/Core/Include/cmsis_gcc.h ****   \brief   STR Exclusive (32 bit)
1196:./Libraries/CMSIS/Core/Include/cmsis_gcc.h ****   \details Executes a exclusive STR instruction for 32 bit values.
1197:./Libraries/CMSIS/Core/Include/cmsis_gcc.h ****   \param [in]  value  Value to store
1198:./Libraries/CMSIS/Core/Include/cmsis_gcc.h ****   \param [in]    ptr  Pointer to location
1199:./Libraries/CMSIS/Core/Include/cmsis_gcc.h ****   \return          0  Function succeeded
1200:./Libraries/CMSIS/Core/Include/cmsis_gcc.h ****   \return          1  Function failed
1201:./Libraries/CMSIS/Core/Include/cmsis_gcc.h ****  */
1202:./Libraries/CMSIS/Core/Include/cmsis_gcc.h **** __STATIC_FORCEINLINE uint32_t __STREXW(uint32_t value, volatile uint32_t *addr)
1203:./Libraries/CMSIS/Core/Include/cmsis_gcc.h **** {
1204:./Libraries/CMSIS/Core/Include/cmsis_gcc.h ****    uint32_t result;
1205:./Libraries/CMSIS/Core/Include/cmsis_gcc.h **** 
1206:./Libraries/CMSIS/Core/Include/cmsis_gcc.h ****    __ASM volatile ("strex %0, %2, %1" : "=&r" (result), "=Q" (*addr) : "r" (value) );
1207:./Libraries/CMSIS/Core/Include/cmsis_gcc.h ****    return(result);
1208:./Libraries/CMSIS/Core/Include/cmsis_gcc.h **** }
1209:./Libraries/CMSIS/Core/Include/cmsis_gcc.h **** 
1210:./Libraries/CMSIS/Core/Include/cmsis_gcc.h **** 
1211:./Libraries/CMSIS/Core/Include/cmsis_gcc.h **** /**
1212:./Libraries/CMSIS/Core/Include/cmsis_gcc.h ****   \brief   Remove the exclusive lock
1213:./Libraries/CMSIS/Core/Include/cmsis_gcc.h ****   \details Removes the exclusive lock which is created by LDREX.
1214:./Libraries/CMSIS/Core/Include/cmsis_gcc.h ****  */
1215:./Libraries/CMSIS/Core/Include/cmsis_gcc.h **** __STATIC_FORCEINLINE void __CLREX(void)
1216:./Libraries/CMSIS/Core/Include/cmsis_gcc.h **** {
1217:./Libraries/CMSIS/Core/Include/cmsis_gcc.h ****   __ASM volatile ("clrex" ::: "memory");
1218:./Libraries/CMSIS/Core/Include/cmsis_gcc.h **** }
1219:./Libraries/CMSIS/Core/Include/cmsis_gcc.h **** 
1220:./Libraries/CMSIS/Core/Include/cmsis_gcc.h **** #endif /* ((defined (__ARM_ARCH_7M__      ) && (__ARM_ARCH_7M__      == 1)) || \
