ARM GAS  /var/folders/wl/rshn8xbx1dsfj1zgryf4g1240000gn/T//cc5l6web.s 			page 1


   1              		.cpu cortex-m7
   2              		.eabi_attribute 28, 1
   3              		.eabi_attribute 20, 1
   4              		.eabi_attribute 21, 1
   5              		.eabi_attribute 23, 3
   6              		.eabi_attribute 24, 1
   7              		.eabi_attribute 25, 1
   8              		.eabi_attribute 26, 1
   9              		.eabi_attribute 30, 2
  10              		.eabi_attribute 34, 1
  11              		.eabi_attribute 18, 4
  12              		.file	"arm_biquad_cascade_df1_q31.c"
  13              		.text
  14              	.Ltext0:
  15              		.cfi_sections	.debug_frame
  16              		.section	.text.arm_biquad_cascade_df1_q31,"ax",%progbits
  17              		.align	1
  18              		.p2align 2,,3
  19              		.global	arm_biquad_cascade_df1_q31
  20              		.arch armv7e-m
  21              		.syntax unified
  22              		.thumb
  23              		.thumb_func
  24              		.fpu fpv5-d16
  26              	arm_biquad_cascade_df1_q31:
  27              	.LVL0:
  28              	.LFB145:
  29              		.file 1 ".//Libraries/CMSIS/DSP/Source/FilteringFunctions/arm_biquad_cascade_df1_q31.c"
   1:.//Libraries/CMSIS/DSP/Source/FilteringFunctions/arm_biquad_cascade_df1_q31.c **** /* ----------------------------------------------------------------------
   2:.//Libraries/CMSIS/DSP/Source/FilteringFunctions/arm_biquad_cascade_df1_q31.c ****  * Project:      CMSIS DSP Library
   3:.//Libraries/CMSIS/DSP/Source/FilteringFunctions/arm_biquad_cascade_df1_q31.c ****  * Title:        arm_biquad_cascade_df1_q31.c
   4:.//Libraries/CMSIS/DSP/Source/FilteringFunctions/arm_biquad_cascade_df1_q31.c ****  * Description:  Processing function for the Q31 Biquad cascade filter
   5:.//Libraries/CMSIS/DSP/Source/FilteringFunctions/arm_biquad_cascade_df1_q31.c ****  *
   6:.//Libraries/CMSIS/DSP/Source/FilteringFunctions/arm_biquad_cascade_df1_q31.c ****  * $Date:        18. March 2019
   7:.//Libraries/CMSIS/DSP/Source/FilteringFunctions/arm_biquad_cascade_df1_q31.c ****  * $Revision:    V1.6.0
   8:.//Libraries/CMSIS/DSP/Source/FilteringFunctions/arm_biquad_cascade_df1_q31.c ****  *
   9:.//Libraries/CMSIS/DSP/Source/FilteringFunctions/arm_biquad_cascade_df1_q31.c ****  * Target Processor: Cortex-M cores
  10:.//Libraries/CMSIS/DSP/Source/FilteringFunctions/arm_biquad_cascade_df1_q31.c ****  * -------------------------------------------------------------------- */
  11:.//Libraries/CMSIS/DSP/Source/FilteringFunctions/arm_biquad_cascade_df1_q31.c **** /*
  12:.//Libraries/CMSIS/DSP/Source/FilteringFunctions/arm_biquad_cascade_df1_q31.c ****  * Copyright (C) 2010-2019 ARM Limited or its affiliates. All rights reserved.
  13:.//Libraries/CMSIS/DSP/Source/FilteringFunctions/arm_biquad_cascade_df1_q31.c ****  *
  14:.//Libraries/CMSIS/DSP/Source/FilteringFunctions/arm_biquad_cascade_df1_q31.c ****  * SPDX-License-Identifier: Apache-2.0
  15:.//Libraries/CMSIS/DSP/Source/FilteringFunctions/arm_biquad_cascade_df1_q31.c ****  *
  16:.//Libraries/CMSIS/DSP/Source/FilteringFunctions/arm_biquad_cascade_df1_q31.c ****  * Licensed under the Apache License, Version 2.0 (the License); you may
  17:.//Libraries/CMSIS/DSP/Source/FilteringFunctions/arm_biquad_cascade_df1_q31.c ****  * not use this file except in compliance with the License.
  18:.//Libraries/CMSIS/DSP/Source/FilteringFunctions/arm_biquad_cascade_df1_q31.c ****  * You may obtain a copy of the License at
  19:.//Libraries/CMSIS/DSP/Source/FilteringFunctions/arm_biquad_cascade_df1_q31.c ****  *
  20:.//Libraries/CMSIS/DSP/Source/FilteringFunctions/arm_biquad_cascade_df1_q31.c ****  * www.apache.org/licenses/LICENSE-2.0
  21:.//Libraries/CMSIS/DSP/Source/FilteringFunctions/arm_biquad_cascade_df1_q31.c ****  *
  22:.//Libraries/CMSIS/DSP/Source/FilteringFunctions/arm_biquad_cascade_df1_q31.c ****  * Unless required by applicable law or agreed to in writing, software
  23:.//Libraries/CMSIS/DSP/Source/FilteringFunctions/arm_biquad_cascade_df1_q31.c ****  * distributed under the License is distributed on an AS IS BASIS, WITHOUT
  24:.//Libraries/CMSIS/DSP/Source/FilteringFunctions/arm_biquad_cascade_df1_q31.c ****  * WARRANTIES OR CONDITIONS OF ANY KIND, either express or implied.
  25:.//Libraries/CMSIS/DSP/Source/FilteringFunctions/arm_biquad_cascade_df1_q31.c ****  * See the License for the specific language governing permissions and
  26:.//Libraries/CMSIS/DSP/Source/FilteringFunctions/arm_biquad_cascade_df1_q31.c ****  * limitations under the License.
  27:.//Libraries/CMSIS/DSP/Source/FilteringFunctions/arm_biquad_cascade_df1_q31.c ****  */
  28:.//Libraries/CMSIS/DSP/Source/FilteringFunctions/arm_biquad_cascade_df1_q31.c **** 
  29:.//Libraries/CMSIS/DSP/Source/FilteringFunctions/arm_biquad_cascade_df1_q31.c **** #include "arm_math.h"
ARM GAS  /var/folders/wl/rshn8xbx1dsfj1zgryf4g1240000gn/T//cc5l6web.s 			page 2


  30:.//Libraries/CMSIS/DSP/Source/FilteringFunctions/arm_biquad_cascade_df1_q31.c **** 
  31:.//Libraries/CMSIS/DSP/Source/FilteringFunctions/arm_biquad_cascade_df1_q31.c **** /**
  32:.//Libraries/CMSIS/DSP/Source/FilteringFunctions/arm_biquad_cascade_df1_q31.c ****   @ingroup groupFilters
  33:.//Libraries/CMSIS/DSP/Source/FilteringFunctions/arm_biquad_cascade_df1_q31.c ****  */
  34:.//Libraries/CMSIS/DSP/Source/FilteringFunctions/arm_biquad_cascade_df1_q31.c **** 
  35:.//Libraries/CMSIS/DSP/Source/FilteringFunctions/arm_biquad_cascade_df1_q31.c **** /**
  36:.//Libraries/CMSIS/DSP/Source/FilteringFunctions/arm_biquad_cascade_df1_q31.c ****   @addtogroup BiquadCascadeDF1
  37:.//Libraries/CMSIS/DSP/Source/FilteringFunctions/arm_biquad_cascade_df1_q31.c ****   @{
  38:.//Libraries/CMSIS/DSP/Source/FilteringFunctions/arm_biquad_cascade_df1_q31.c ****  */
  39:.//Libraries/CMSIS/DSP/Source/FilteringFunctions/arm_biquad_cascade_df1_q31.c **** 
  40:.//Libraries/CMSIS/DSP/Source/FilteringFunctions/arm_biquad_cascade_df1_q31.c **** /**
  41:.//Libraries/CMSIS/DSP/Source/FilteringFunctions/arm_biquad_cascade_df1_q31.c ****   @brief         Processing function for the Q31 Biquad cascade filter.
  42:.//Libraries/CMSIS/DSP/Source/FilteringFunctions/arm_biquad_cascade_df1_q31.c ****   @param[in]     S         points to an instance of the Q31 Biquad cascade structure
  43:.//Libraries/CMSIS/DSP/Source/FilteringFunctions/arm_biquad_cascade_df1_q31.c ****   @param[in]     pSrc      points to the block of input data
  44:.//Libraries/CMSIS/DSP/Source/FilteringFunctions/arm_biquad_cascade_df1_q31.c ****   @param[out]    pDst      points to the block of output data
  45:.//Libraries/CMSIS/DSP/Source/FilteringFunctions/arm_biquad_cascade_df1_q31.c ****   @param[in]     blockSize  number of samples to process
  46:.//Libraries/CMSIS/DSP/Source/FilteringFunctions/arm_biquad_cascade_df1_q31.c ****   @return        none
  47:.//Libraries/CMSIS/DSP/Source/FilteringFunctions/arm_biquad_cascade_df1_q31.c **** 
  48:.//Libraries/CMSIS/DSP/Source/FilteringFunctions/arm_biquad_cascade_df1_q31.c ****   @par           Scaling and Overflow Behavior
  49:.//Libraries/CMSIS/DSP/Source/FilteringFunctions/arm_biquad_cascade_df1_q31.c ****                    The function is implemented using an internal 64-bit accumulator.
  50:.//Libraries/CMSIS/DSP/Source/FilteringFunctions/arm_biquad_cascade_df1_q31.c ****                    The accumulator has a 2.62 format and maintains full precision of the intermedia
  51:.//Libraries/CMSIS/DSP/Source/FilteringFunctions/arm_biquad_cascade_df1_q31.c ****                    Thus, if the accumulator result overflows it wraps around rather than clip.
  52:.//Libraries/CMSIS/DSP/Source/FilteringFunctions/arm_biquad_cascade_df1_q31.c ****                    In order to avoid overflows completely the input signal must be scaled down by 2
  53:.//Libraries/CMSIS/DSP/Source/FilteringFunctions/arm_biquad_cascade_df1_q31.c ****                    After all 5 multiply-accumulates are performed, the 2.62 accumulator is shifted 
  54:.//Libraries/CMSIS/DSP/Source/FilteringFunctions/arm_biquad_cascade_df1_q31.c ****                    1.31 format by discarding the low 32 bits.
  55:.//Libraries/CMSIS/DSP/Source/FilteringFunctions/arm_biquad_cascade_df1_q31.c ****   @remark
  56:.//Libraries/CMSIS/DSP/Source/FilteringFunctions/arm_biquad_cascade_df1_q31.c ****                    Refer to \ref arm_biquad_cascade_df1_fast_q31() for a faster but less precise im
  57:.//Libraries/CMSIS/DSP/Source/FilteringFunctions/arm_biquad_cascade_df1_q31.c ****  */
  58:.//Libraries/CMSIS/DSP/Source/FilteringFunctions/arm_biquad_cascade_df1_q31.c **** 
  59:.//Libraries/CMSIS/DSP/Source/FilteringFunctions/arm_biquad_cascade_df1_q31.c **** void arm_biquad_cascade_df1_q31(
  60:.//Libraries/CMSIS/DSP/Source/FilteringFunctions/arm_biquad_cascade_df1_q31.c ****   const arm_biquad_casd_df1_inst_q31 * S,
  61:.//Libraries/CMSIS/DSP/Source/FilteringFunctions/arm_biquad_cascade_df1_q31.c ****   const q31_t * pSrc,
  62:.//Libraries/CMSIS/DSP/Source/FilteringFunctions/arm_biquad_cascade_df1_q31.c ****         q31_t * pDst,
  63:.//Libraries/CMSIS/DSP/Source/FilteringFunctions/arm_biquad_cascade_df1_q31.c ****         uint32_t blockSize)
  64:.//Libraries/CMSIS/DSP/Source/FilteringFunctions/arm_biquad_cascade_df1_q31.c **** {
  30              		.loc 1 64 1 view -0
  31              		.cfi_startproc
  32              		@ args = 0, pretend = 0, frame = 48
  33              		@ frame_needed = 0, uses_anonymous_args = 0
  65:.//Libraries/CMSIS/DSP/Source/FilteringFunctions/arm_biquad_cascade_df1_q31.c ****   const q31_t *pIn = pSrc;                             /* Source pointer */
  34              		.loc 1 65 3 view .LVU1
  64:.//Libraries/CMSIS/DSP/Source/FilteringFunctions/arm_biquad_cascade_df1_q31.c ****   const q31_t *pIn = pSrc;                             /* Source pointer */
  35              		.loc 1 64 1 is_stmt 0 view .LVU2
  36 0000 2DE9F04F 		push	{r4, r5, r6, r7, r8, r9, r10, fp, lr}
  37              	.LCFI0:
  38              		.cfi_def_cfa_offset 36
  39              		.cfi_offset 4, -36
  40              		.cfi_offset 5, -32
  41              		.cfi_offset 6, -28
  42              		.cfi_offset 7, -24
  43              		.cfi_offset 8, -20
  44              		.cfi_offset 9, -16
  45              		.cfi_offset 10, -12
  46              		.cfi_offset 11, -8
  47              		.cfi_offset 14, -4
  48 0004 8DB0     		sub	sp, sp, #52
  49              	.LCFI1:
ARM GAS  /var/folders/wl/rshn8xbx1dsfj1zgryf4g1240000gn/T//cc5l6web.s 			page 3


  50              		.cfi_def_cfa_offset 88
  64:.//Libraries/CMSIS/DSP/Source/FilteringFunctions/arm_biquad_cascade_df1_q31.c ****   const q31_t *pIn = pSrc;                             /* Source pointer */
  51              		.loc 1 64 1 view .LVU3
  52 0006 8A46     		mov	r10, r1
  53              	.LVL1:
  66:.//Libraries/CMSIS/DSP/Source/FilteringFunctions/arm_biquad_cascade_df1_q31.c ****         q31_t *pOut = pDst;                            /* Destination pointer */
  54              		.loc 1 66 9 is_stmt 1 view .LVU4
  67:.//Libraries/CMSIS/DSP/Source/FilteringFunctions/arm_biquad_cascade_df1_q31.c ****         q31_t *pState = S->pState;                     /* pState pointer */
  68:.//Libraries/CMSIS/DSP/Source/FilteringFunctions/arm_biquad_cascade_df1_q31.c ****   const q31_t *pCoeffs = S->pCoeffs;                   /* Coefficient pointer */
  69:.//Libraries/CMSIS/DSP/Source/FilteringFunctions/arm_biquad_cascade_df1_q31.c ****         q63_t acc;                                     /* Accumulator */
  70:.//Libraries/CMSIS/DSP/Source/FilteringFunctions/arm_biquad_cascade_df1_q31.c ****         q31_t b0, b1, b2, a1, a2;                      /* Filter coefficients */
  71:.//Libraries/CMSIS/DSP/Source/FilteringFunctions/arm_biquad_cascade_df1_q31.c ****         q31_t Xn1, Xn2, Yn1, Yn2;                      /* Filter pState variables */
  72:.//Libraries/CMSIS/DSP/Source/FilteringFunctions/arm_biquad_cascade_df1_q31.c ****         q31_t Xn;                                      /* Temporary input */
  73:.//Libraries/CMSIS/DSP/Source/FilteringFunctions/arm_biquad_cascade_df1_q31.c ****         uint32_t uShift = ((uint32_t) S->postShift + 1U);
  55              		.loc 1 73 28 is_stmt 0 view .LVU5
  56 0008 017B     		ldrb	r1, [r0, #12]	@ zero_extendqisi2
  57              	.LVL2:
  64:.//Libraries/CMSIS/DSP/Source/FilteringFunctions/arm_biquad_cascade_df1_q31.c ****   const q31_t *pIn = pSrc;                             /* Source pointer */
  58              		.loc 1 64 1 view .LVU6
  59 000a 0992     		str	r2, [sp, #36]
  60              	.LVL3:
  67:.//Libraries/CMSIS/DSP/Source/FilteringFunctions/arm_biquad_cascade_df1_q31.c ****         q31_t *pState = S->pState;                     /* pState pointer */
  61              		.loc 1 67 9 is_stmt 1 view .LVU7
  68:.//Libraries/CMSIS/DSP/Source/FilteringFunctions/arm_biquad_cascade_df1_q31.c ****         q63_t acc;                                     /* Accumulator */
  62              		.loc 1 68 3 view .LVU8
  69:.//Libraries/CMSIS/DSP/Source/FilteringFunctions/arm_biquad_cascade_df1_q31.c ****         q31_t b0, b1, b2, a1, a2;                      /* Filter coefficients */
  63              		.loc 1 69 9 view .LVU9
  70:.//Libraries/CMSIS/DSP/Source/FilteringFunctions/arm_biquad_cascade_df1_q31.c ****         q31_t Xn1, Xn2, Yn1, Yn2;                      /* Filter pState variables */
  64              		.loc 1 70 9 view .LVU10
  71:.//Libraries/CMSIS/DSP/Source/FilteringFunctions/arm_biquad_cascade_df1_q31.c ****         q31_t Xn;                                      /* Temporary input */
  65              		.loc 1 71 9 view .LVU11
  72:.//Libraries/CMSIS/DSP/Source/FilteringFunctions/arm_biquad_cascade_df1_q31.c ****         uint32_t uShift = ((uint32_t) S->postShift + 1U);
  66              		.loc 1 72 9 view .LVU12
  67              		.loc 1 73 9 view .LVU13
  74:.//Libraries/CMSIS/DSP/Source/FilteringFunctions/arm_biquad_cascade_df1_q31.c ****         uint32_t lShift = 32U - uShift;                /* Shift to be applied to the output */
  68              		.loc 1 74 9 view .LVU14
  64:.//Libraries/CMSIS/DSP/Source/FilteringFunctions/arm_biquad_cascade_df1_q31.c ****   const q31_t *pIn = pSrc;                             /* Source pointer */
  69              		.loc 1 64 1 is_stmt 0 view .LVU15
  70 000c 0B93     		str	r3, [sp, #44]
  71              		.loc 1 74 18 view .LVU16
  72 000e C1F11F09 		rsb	r9, r1, #31
  73              	.LVL4:
  75:.//Libraries/CMSIS/DSP/Source/FilteringFunctions/arm_biquad_cascade_df1_q31.c ****         uint32_t sample, stage = S->numStages;         /* Loop counters */
  74              		.loc 1 75 9 is_stmt 1 view .LVU17
  75 0012 0131     		adds	r1, r1, #1
  76              	.LVL5:
  77              		.loc 1 75 9 is_stmt 0 view .LVU18
  78 0014 D0E90132 		ldrd	r3, r2, [r0, #4]
  79              	.LVL6:
  80              		.loc 1 75 9 view .LVU19
  81 0018 0691     		str	r1, [sp, #24]
  82 001a 1432     		adds	r2, r2, #20
  83 001c 03F11008 		add	r8, r3, #16
  84              		.loc 1 75 26 view .LVU20
  85 0020 0368     		ldr	r3, [r0]
  86 0022 0792     		str	r2, [sp, #28]
  87 0024 0893     		str	r3, [sp, #32]
ARM GAS  /var/folders/wl/rshn8xbx1dsfj1zgryf4g1240000gn/T//cc5l6web.s 			page 4


  88              	.LVL7:
  89              	.L5:
  76:.//Libraries/CMSIS/DSP/Source/FilteringFunctions/arm_biquad_cascade_df1_q31.c **** 
  77:.//Libraries/CMSIS/DSP/Source/FilteringFunctions/arm_biquad_cascade_df1_q31.c **** #if defined (ARM_MATH_LOOPUNROLL)
  78:.//Libraries/CMSIS/DSP/Source/FilteringFunctions/arm_biquad_cascade_df1_q31.c ****         q31_t acc_l, acc_h;                            /* temporary output variables */
  79:.//Libraries/CMSIS/DSP/Source/FilteringFunctions/arm_biquad_cascade_df1_q31.c **** #endif
  80:.//Libraries/CMSIS/DSP/Source/FilteringFunctions/arm_biquad_cascade_df1_q31.c **** 
  81:.//Libraries/CMSIS/DSP/Source/FilteringFunctions/arm_biquad_cascade_df1_q31.c ****   do
  90              		.loc 1 81 3 is_stmt 1 view .LVU21
  82:.//Libraries/CMSIS/DSP/Source/FilteringFunctions/arm_biquad_cascade_df1_q31.c ****   {
  83:.//Libraries/CMSIS/DSP/Source/FilteringFunctions/arm_biquad_cascade_df1_q31.c ****     /* Reading the coefficients */
  84:.//Libraries/CMSIS/DSP/Source/FilteringFunctions/arm_biquad_cascade_df1_q31.c ****     b0 = *pCoeffs++;
  91              		.loc 1 84 5 view .LVU22
  92              		.loc 1 84 8 is_stmt 0 view .LVU23
  93 0026 079B     		ldr	r3, [sp, #28]
  94 0028 53F8142C 		ldr	r2, [r3, #-20]
  85:.//Libraries/CMSIS/DSP/Source/FilteringFunctions/arm_biquad_cascade_df1_q31.c ****     b1 = *pCoeffs++;
  86:.//Libraries/CMSIS/DSP/Source/FilteringFunctions/arm_biquad_cascade_df1_q31.c ****     b2 = *pCoeffs++;
  87:.//Libraries/CMSIS/DSP/Source/FilteringFunctions/arm_biquad_cascade_df1_q31.c ****     a1 = *pCoeffs++;
  88:.//Libraries/CMSIS/DSP/Source/FilteringFunctions/arm_biquad_cascade_df1_q31.c ****     a2 = *pCoeffs++;
  95              		.loc 1 88 8 view .LVU24
  96 002c 53F804BC 		ldr	fp, [r3, #-4]
  84:.//Libraries/CMSIS/DSP/Source/FilteringFunctions/arm_biquad_cascade_df1_q31.c ****     b1 = *pCoeffs++;
  97              		.loc 1 84 8 view .LVU25
  98 0030 0392     		str	r2, [sp, #12]
  99              	.LVL8:
  85:.//Libraries/CMSIS/DSP/Source/FilteringFunctions/arm_biquad_cascade_df1_q31.c ****     b1 = *pCoeffs++;
 100              		.loc 1 85 5 is_stmt 1 view .LVU26
  85:.//Libraries/CMSIS/DSP/Source/FilteringFunctions/arm_biquad_cascade_df1_q31.c ****     b1 = *pCoeffs++;
 101              		.loc 1 85 8 is_stmt 0 view .LVU27
 102 0032 53F8102C 		ldr	r2, [r3, #-16]
 103              	.LVL9:
  85:.//Libraries/CMSIS/DSP/Source/FilteringFunctions/arm_biquad_cascade_df1_q31.c ****     b1 = *pCoeffs++;
 104              		.loc 1 85 8 view .LVU28
 105 0036 0492     		str	r2, [sp, #16]
 106              	.LVL10:
  86:.//Libraries/CMSIS/DSP/Source/FilteringFunctions/arm_biquad_cascade_df1_q31.c ****     a1 = *pCoeffs++;
 107              		.loc 1 86 5 is_stmt 1 view .LVU29
  86:.//Libraries/CMSIS/DSP/Source/FilteringFunctions/arm_biquad_cascade_df1_q31.c ****     a1 = *pCoeffs++;
 108              		.loc 1 86 8 is_stmt 0 view .LVU30
 109 0038 53F80C2C 		ldr	r2, [r3, #-12]
 110              	.LVL11:
  86:.//Libraries/CMSIS/DSP/Source/FilteringFunctions/arm_biquad_cascade_df1_q31.c ****     a1 = *pCoeffs++;
 111              		.loc 1 86 8 view .LVU31
 112 003c 0592     		str	r2, [sp, #20]
 113              	.LVL12:
  87:.//Libraries/CMSIS/DSP/Source/FilteringFunctions/arm_biquad_cascade_df1_q31.c ****     a2 = *pCoeffs++;
 114              		.loc 1 87 5 is_stmt 1 view .LVU32
  87:.//Libraries/CMSIS/DSP/Source/FilteringFunctions/arm_biquad_cascade_df1_q31.c ****     a2 = *pCoeffs++;
 115              		.loc 1 87 8 is_stmt 0 view .LVU33
 116 003e 53F8082C 		ldr	r2, [r3, #-8]
 117              	.LVL13:
 118              		.loc 1 88 5 is_stmt 1 view .LVU34
  89:.//Libraries/CMSIS/DSP/Source/FilteringFunctions/arm_biquad_cascade_df1_q31.c **** 
  90:.//Libraries/CMSIS/DSP/Source/FilteringFunctions/arm_biquad_cascade_df1_q31.c ****     /* Reading the pState values */
  91:.//Libraries/CMSIS/DSP/Source/FilteringFunctions/arm_biquad_cascade_df1_q31.c ****     Xn1 = pState[0];
 119              		.loc 1 91 5 view .LVU35
ARM GAS  /var/folders/wl/rshn8xbx1dsfj1zgryf4g1240000gn/T//cc5l6web.s 			page 5


  92:.//Libraries/CMSIS/DSP/Source/FilteringFunctions/arm_biquad_cascade_df1_q31.c ****     Xn2 = pState[1];
  93:.//Libraries/CMSIS/DSP/Source/FilteringFunctions/arm_biquad_cascade_df1_q31.c ****     Yn1 = pState[2];
  94:.//Libraries/CMSIS/DSP/Source/FilteringFunctions/arm_biquad_cascade_df1_q31.c ****     Yn2 = pState[3];
  95:.//Libraries/CMSIS/DSP/Source/FilteringFunctions/arm_biquad_cascade_df1_q31.c **** 
  96:.//Libraries/CMSIS/DSP/Source/FilteringFunctions/arm_biquad_cascade_df1_q31.c **** #if defined (ARM_MATH_LOOPUNROLL)
  97:.//Libraries/CMSIS/DSP/Source/FilteringFunctions/arm_biquad_cascade_df1_q31.c **** 
  98:.//Libraries/CMSIS/DSP/Source/FilteringFunctions/arm_biquad_cascade_df1_q31.c ****     /* Apply loop unrolling and compute 4 output values simultaneously. */
  99:.//Libraries/CMSIS/DSP/Source/FilteringFunctions/arm_biquad_cascade_df1_q31.c ****     /* Variable acc hold output values that are being computed:
 100:.//Libraries/CMSIS/DSP/Source/FilteringFunctions/arm_biquad_cascade_df1_q31.c ****      *
 101:.//Libraries/CMSIS/DSP/Source/FilteringFunctions/arm_biquad_cascade_df1_q31.c ****      * acc =  b0 * x[n] + b1 * x[n-1] + b2 * x[n-2] + a1 * y[n-1] + a2 * y[n-2]
 102:.//Libraries/CMSIS/DSP/Source/FilteringFunctions/arm_biquad_cascade_df1_q31.c ****      */
 103:.//Libraries/CMSIS/DSP/Source/FilteringFunctions/arm_biquad_cascade_df1_q31.c **** 
 104:.//Libraries/CMSIS/DSP/Source/FilteringFunctions/arm_biquad_cascade_df1_q31.c ****     /* Loop unrolling: Compute 4 outputs at a time */
 105:.//Libraries/CMSIS/DSP/Source/FilteringFunctions/arm_biquad_cascade_df1_q31.c ****     sample = blockSize >> 2U;
 106:.//Libraries/CMSIS/DSP/Source/FilteringFunctions/arm_biquad_cascade_df1_q31.c **** 
 107:.//Libraries/CMSIS/DSP/Source/FilteringFunctions/arm_biquad_cascade_df1_q31.c ****     while (sample > 0U)
 108:.//Libraries/CMSIS/DSP/Source/FilteringFunctions/arm_biquad_cascade_df1_q31.c ****     {
 109:.//Libraries/CMSIS/DSP/Source/FilteringFunctions/arm_biquad_cascade_df1_q31.c ****       /* Read the first input */
 110:.//Libraries/CMSIS/DSP/Source/FilteringFunctions/arm_biquad_cascade_df1_q31.c ****       Xn = *pIn++;
 111:.//Libraries/CMSIS/DSP/Source/FilteringFunctions/arm_biquad_cascade_df1_q31.c **** 
 112:.//Libraries/CMSIS/DSP/Source/FilteringFunctions/arm_biquad_cascade_df1_q31.c ****       /* acc =  b0 * x[n] + b1 * x[n-1] + b2 * x[n-2] + a1 * y[n-1] + a2 * y[n-2] */
 113:.//Libraries/CMSIS/DSP/Source/FilteringFunctions/arm_biquad_cascade_df1_q31.c ****       acc = ((q63_t) b0 * Xn) + ((q63_t) b1 * Xn1) + ((q63_t) b2 * Xn2) + ((q63_t) a1 * Yn1) + ((q6
 114:.//Libraries/CMSIS/DSP/Source/FilteringFunctions/arm_biquad_cascade_df1_q31.c **** 
 115:.//Libraries/CMSIS/DSP/Source/FilteringFunctions/arm_biquad_cascade_df1_q31.c ****       /* The result is converted to 1.31 , Yn2 variable is reused */
 116:.//Libraries/CMSIS/DSP/Source/FilteringFunctions/arm_biquad_cascade_df1_q31.c ****       acc_l = (acc      ) & 0xffffffff; /* Calc lower part of acc */
 117:.//Libraries/CMSIS/DSP/Source/FilteringFunctions/arm_biquad_cascade_df1_q31.c ****       acc_h = (acc >> 32) & 0xffffffff; /* Calc upper part of acc */
 118:.//Libraries/CMSIS/DSP/Source/FilteringFunctions/arm_biquad_cascade_df1_q31.c **** 
 119:.//Libraries/CMSIS/DSP/Source/FilteringFunctions/arm_biquad_cascade_df1_q31.c ****       /* Apply shift for lower part of acc and upper part of acc */
 120:.//Libraries/CMSIS/DSP/Source/FilteringFunctions/arm_biquad_cascade_df1_q31.c ****       Yn2 = (uint32_t) acc_l >> lShift | acc_h << uShift;
 121:.//Libraries/CMSIS/DSP/Source/FilteringFunctions/arm_biquad_cascade_df1_q31.c **** 
 122:.//Libraries/CMSIS/DSP/Source/FilteringFunctions/arm_biquad_cascade_df1_q31.c ****       /* Store output in destination buffer. */
 123:.//Libraries/CMSIS/DSP/Source/FilteringFunctions/arm_biquad_cascade_df1_q31.c ****       *pOut++ = Yn2;
 124:.//Libraries/CMSIS/DSP/Source/FilteringFunctions/arm_biquad_cascade_df1_q31.c **** 
 125:.//Libraries/CMSIS/DSP/Source/FilteringFunctions/arm_biquad_cascade_df1_q31.c ****       /* Read the second input */
 126:.//Libraries/CMSIS/DSP/Source/FilteringFunctions/arm_biquad_cascade_df1_q31.c ****       Xn2 = *pIn++;
 127:.//Libraries/CMSIS/DSP/Source/FilteringFunctions/arm_biquad_cascade_df1_q31.c **** 
 128:.//Libraries/CMSIS/DSP/Source/FilteringFunctions/arm_biquad_cascade_df1_q31.c ****       /* acc =  b0 * x[n] + b1 * x[n-1] + b2 * x[n-2] + a1 * y[n-1] + a2 * y[n-2] */
 129:.//Libraries/CMSIS/DSP/Source/FilteringFunctions/arm_biquad_cascade_df1_q31.c ****       acc = ((q63_t) b0 * Xn2) + ((q63_t) b1 * Xn) + ((q63_t) b2 * Xn1) + ((q63_t) a1 * Yn2) + ((q6
 130:.//Libraries/CMSIS/DSP/Source/FilteringFunctions/arm_biquad_cascade_df1_q31.c **** 
 131:.//Libraries/CMSIS/DSP/Source/FilteringFunctions/arm_biquad_cascade_df1_q31.c ****       /* The result is converted to 1.31, Yn1 variable is reused  */
 132:.//Libraries/CMSIS/DSP/Source/FilteringFunctions/arm_biquad_cascade_df1_q31.c ****       acc_l = (acc      ) & 0xffffffff; /* Calc lower part of acc */
 133:.//Libraries/CMSIS/DSP/Source/FilteringFunctions/arm_biquad_cascade_df1_q31.c ****       acc_h = (acc >> 32) & 0xffffffff; /* Calc upper part of acc */
 134:.//Libraries/CMSIS/DSP/Source/FilteringFunctions/arm_biquad_cascade_df1_q31.c **** 
 135:.//Libraries/CMSIS/DSP/Source/FilteringFunctions/arm_biquad_cascade_df1_q31.c ****       /* Apply shift for lower part of acc and upper part of acc */
 136:.//Libraries/CMSIS/DSP/Source/FilteringFunctions/arm_biquad_cascade_df1_q31.c ****       Yn1 = (uint32_t) acc_l >> lShift | acc_h << uShift;
 137:.//Libraries/CMSIS/DSP/Source/FilteringFunctions/arm_biquad_cascade_df1_q31.c **** 
 138:.//Libraries/CMSIS/DSP/Source/FilteringFunctions/arm_biquad_cascade_df1_q31.c ****       /* Store output in destination buffer. */
 139:.//Libraries/CMSIS/DSP/Source/FilteringFunctions/arm_biquad_cascade_df1_q31.c ****       *pOut++ = Yn1;
 140:.//Libraries/CMSIS/DSP/Source/FilteringFunctions/arm_biquad_cascade_df1_q31.c **** 
 141:.//Libraries/CMSIS/DSP/Source/FilteringFunctions/arm_biquad_cascade_df1_q31.c ****       /* Read the third input */
 142:.//Libraries/CMSIS/DSP/Source/FilteringFunctions/arm_biquad_cascade_df1_q31.c ****       Xn1 = *pIn++;
 143:.//Libraries/CMSIS/DSP/Source/FilteringFunctions/arm_biquad_cascade_df1_q31.c **** 
 144:.//Libraries/CMSIS/DSP/Source/FilteringFunctions/arm_biquad_cascade_df1_q31.c ****       /* acc =  b0 * x[n] + b1 * x[n-1] + b2 * x[n-2] + a1 * y[n-1] + a2 * y[n-2] */
 145:.//Libraries/CMSIS/DSP/Source/FilteringFunctions/arm_biquad_cascade_df1_q31.c ****       acc = ((q63_t) b0 * Xn1) + ((q63_t) b1 * Xn2) + ((q63_t) b2 * Xn) + ((q63_t) a1 * Yn1) + ((q6
 146:.//Libraries/CMSIS/DSP/Source/FilteringFunctions/arm_biquad_cascade_df1_q31.c **** 
 147:.//Libraries/CMSIS/DSP/Source/FilteringFunctions/arm_biquad_cascade_df1_q31.c ****       /* The result is converted to 1.31, Yn2 variable is reused  */
 148:.//Libraries/CMSIS/DSP/Source/FilteringFunctions/arm_biquad_cascade_df1_q31.c ****       acc_l = (acc      ) & 0xffffffff; /* Calc lower part of acc */
ARM GAS  /var/folders/wl/rshn8xbx1dsfj1zgryf4g1240000gn/T//cc5l6web.s 			page 6


 149:.//Libraries/CMSIS/DSP/Source/FilteringFunctions/arm_biquad_cascade_df1_q31.c ****       acc_h = (acc >> 32) & 0xffffffff; /* Calc upper part of acc */
 150:.//Libraries/CMSIS/DSP/Source/FilteringFunctions/arm_biquad_cascade_df1_q31.c **** 
 151:.//Libraries/CMSIS/DSP/Source/FilteringFunctions/arm_biquad_cascade_df1_q31.c ****       /* Apply shift for lower part of acc and upper part of acc */
 152:.//Libraries/CMSIS/DSP/Source/FilteringFunctions/arm_biquad_cascade_df1_q31.c ****       Yn2 = (uint32_t) acc_l >> lShift | acc_h << uShift;
 153:.//Libraries/CMSIS/DSP/Source/FilteringFunctions/arm_biquad_cascade_df1_q31.c **** 
 154:.//Libraries/CMSIS/DSP/Source/FilteringFunctions/arm_biquad_cascade_df1_q31.c ****       /* Store output in destination buffer. */
 155:.//Libraries/CMSIS/DSP/Source/FilteringFunctions/arm_biquad_cascade_df1_q31.c ****       *pOut++ = Yn2;
 156:.//Libraries/CMSIS/DSP/Source/FilteringFunctions/arm_biquad_cascade_df1_q31.c **** 
 157:.//Libraries/CMSIS/DSP/Source/FilteringFunctions/arm_biquad_cascade_df1_q31.c ****       /* Read the forth input */
 158:.//Libraries/CMSIS/DSP/Source/FilteringFunctions/arm_biquad_cascade_df1_q31.c ****       Xn = *pIn++;
 159:.//Libraries/CMSIS/DSP/Source/FilteringFunctions/arm_biquad_cascade_df1_q31.c **** 
 160:.//Libraries/CMSIS/DSP/Source/FilteringFunctions/arm_biquad_cascade_df1_q31.c ****       /* acc =  b0 * x[n] + b1 * x[n-1] + b2 * x[n-2] + a1 * y[n-1] + a2 * y[n-2] */
 161:.//Libraries/CMSIS/DSP/Source/FilteringFunctions/arm_biquad_cascade_df1_q31.c ****       acc = ((q63_t) b0 * Xn) + ((q63_t) b1 * Xn1) + ((q63_t) b2 * Xn2) + ((q63_t) a1 * Yn2) + ((q6
 162:.//Libraries/CMSIS/DSP/Source/FilteringFunctions/arm_biquad_cascade_df1_q31.c **** 
 163:.//Libraries/CMSIS/DSP/Source/FilteringFunctions/arm_biquad_cascade_df1_q31.c ****       /* The result is converted to 1.31, Yn1 variable is reused  */
 164:.//Libraries/CMSIS/DSP/Source/FilteringFunctions/arm_biquad_cascade_df1_q31.c ****       acc_l = (acc      ) & 0xffffffff; /* Calc lower part of acc */
 165:.//Libraries/CMSIS/DSP/Source/FilteringFunctions/arm_biquad_cascade_df1_q31.c ****       acc_h = (acc >> 32) & 0xffffffff; /* Calc upper part of acc */
 166:.//Libraries/CMSIS/DSP/Source/FilteringFunctions/arm_biquad_cascade_df1_q31.c **** 
 167:.//Libraries/CMSIS/DSP/Source/FilteringFunctions/arm_biquad_cascade_df1_q31.c ****       /* Apply shift for lower part of acc and upper part of acc */
 168:.//Libraries/CMSIS/DSP/Source/FilteringFunctions/arm_biquad_cascade_df1_q31.c ****       Yn1 = (uint32_t) acc_l >> lShift | acc_h << uShift;
 169:.//Libraries/CMSIS/DSP/Source/FilteringFunctions/arm_biquad_cascade_df1_q31.c **** 
 170:.//Libraries/CMSIS/DSP/Source/FilteringFunctions/arm_biquad_cascade_df1_q31.c ****       /* Store output in destination buffer. */
 171:.//Libraries/CMSIS/DSP/Source/FilteringFunctions/arm_biquad_cascade_df1_q31.c ****       *pOut++ = Yn1;
 172:.//Libraries/CMSIS/DSP/Source/FilteringFunctions/arm_biquad_cascade_df1_q31.c **** 
 173:.//Libraries/CMSIS/DSP/Source/FilteringFunctions/arm_biquad_cascade_df1_q31.c ****       /* Every time after the output is computed state should be updated. */
 174:.//Libraries/CMSIS/DSP/Source/FilteringFunctions/arm_biquad_cascade_df1_q31.c ****       /* The states should be updated as: */
 175:.//Libraries/CMSIS/DSP/Source/FilteringFunctions/arm_biquad_cascade_df1_q31.c ****       /* Xn2 = Xn1 */
 176:.//Libraries/CMSIS/DSP/Source/FilteringFunctions/arm_biquad_cascade_df1_q31.c ****       /* Xn1 = Xn  */
 177:.//Libraries/CMSIS/DSP/Source/FilteringFunctions/arm_biquad_cascade_df1_q31.c ****       /* Yn2 = Yn1 */
 178:.//Libraries/CMSIS/DSP/Source/FilteringFunctions/arm_biquad_cascade_df1_q31.c ****       /* Yn1 = acc */
 179:.//Libraries/CMSIS/DSP/Source/FilteringFunctions/arm_biquad_cascade_df1_q31.c ****       Xn2 = Xn1;
 180:.//Libraries/CMSIS/DSP/Source/FilteringFunctions/arm_biquad_cascade_df1_q31.c ****       Xn1 = Xn;
 181:.//Libraries/CMSIS/DSP/Source/FilteringFunctions/arm_biquad_cascade_df1_q31.c **** 
 182:.//Libraries/CMSIS/DSP/Source/FilteringFunctions/arm_biquad_cascade_df1_q31.c ****       /* decrement loop counter */
 183:.//Libraries/CMSIS/DSP/Source/FilteringFunctions/arm_biquad_cascade_df1_q31.c ****       sample--;
 184:.//Libraries/CMSIS/DSP/Source/FilteringFunctions/arm_biquad_cascade_df1_q31.c ****     }
 185:.//Libraries/CMSIS/DSP/Source/FilteringFunctions/arm_biquad_cascade_df1_q31.c **** 
 186:.//Libraries/CMSIS/DSP/Source/FilteringFunctions/arm_biquad_cascade_df1_q31.c ****     /* Loop unrolling: Compute remaining outputs */
 187:.//Libraries/CMSIS/DSP/Source/FilteringFunctions/arm_biquad_cascade_df1_q31.c ****     sample = blockSize & 0x3U;
 188:.//Libraries/CMSIS/DSP/Source/FilteringFunctions/arm_biquad_cascade_df1_q31.c **** 
 189:.//Libraries/CMSIS/DSP/Source/FilteringFunctions/arm_biquad_cascade_df1_q31.c **** #else
 190:.//Libraries/CMSIS/DSP/Source/FilteringFunctions/arm_biquad_cascade_df1_q31.c **** 
 191:.//Libraries/CMSIS/DSP/Source/FilteringFunctions/arm_biquad_cascade_df1_q31.c ****     /* Initialize blkCnt with number of samples */
 192:.//Libraries/CMSIS/DSP/Source/FilteringFunctions/arm_biquad_cascade_df1_q31.c ****     sample = blockSize;
 193:.//Libraries/CMSIS/DSP/Source/FilteringFunctions/arm_biquad_cascade_df1_q31.c **** 
 194:.//Libraries/CMSIS/DSP/Source/FilteringFunctions/arm_biquad_cascade_df1_q31.c **** #endif /* #if defined (ARM_MATH_LOOPUNROLL) */
 195:.//Libraries/CMSIS/DSP/Source/FilteringFunctions/arm_biquad_cascade_df1_q31.c **** 
 196:.//Libraries/CMSIS/DSP/Source/FilteringFunctions/arm_biquad_cascade_df1_q31.c ****     while (sample > 0U)
 120              		.loc 1 196 11 is_stmt 0 view .LVU36
 121 0042 0B9B     		ldr	r3, [sp, #44]
  92:.//Libraries/CMSIS/DSP/Source/FilteringFunctions/arm_biquad_cascade_df1_q31.c ****     Xn2 = pState[1];
 122              		.loc 1 92 9 view .LVU37
 123 0044 58E9044E 		ldrd	r4, lr, [r8, #-16]
 124              	.LVL14:
  93:.//Libraries/CMSIS/DSP/Source/FilteringFunctions/arm_biquad_cascade_df1_q31.c ****     Yn2 = pState[3];
 125              		.loc 1 93 5 is_stmt 1 view .LVU38
  94:.//Libraries/CMSIS/DSP/Source/FilteringFunctions/arm_biquad_cascade_df1_q31.c **** 
ARM GAS  /var/folders/wl/rshn8xbx1dsfj1zgryf4g1240000gn/T//cc5l6web.s 			page 7


 126              		.loc 1 94 9 is_stmt 0 view .LVU39
 127 0048 58E90206 		ldrd	r0, r6, [r8, #-8]
 128              	.LVL15:
 192:.//Libraries/CMSIS/DSP/Source/FilteringFunctions/arm_biquad_cascade_df1_q31.c **** 
 129              		.loc 1 192 5 is_stmt 1 view .LVU40
 130              		.loc 1 196 5 view .LVU41
 131              		.loc 1 196 11 view .LVU42
 132 004c 002B     		cmp	r3, #0
 133 004e 48D0     		beq	.L6
 134 0050 CDF82880 		str	r8, [sp, #40]
 135 0054 9C46     		mov	ip, r3
 136 0056 099F     		ldr	r7, [sp, #36]
 137 0058 9046     		mov	r8, r2
 138              	.LVL16:
 139              		.loc 1 196 11 is_stmt 0 view .LVU43
 140 005a 0296     		str	r6, [sp, #8]
 141 005c 01E0     		b	.L4
 142              	.LVL17:
 143              	.L7:
 197:.//Libraries/CMSIS/DSP/Source/FilteringFunctions/arm_biquad_cascade_df1_q31.c ****     {
 198:.//Libraries/CMSIS/DSP/Source/FilteringFunctions/arm_biquad_cascade_df1_q31.c ****       /* Read the input */
 199:.//Libraries/CMSIS/DSP/Source/FilteringFunctions/arm_biquad_cascade_df1_q31.c ****       Xn = *pIn++;
 144              		.loc 1 199 10 view .LVU44
 145 005e 2C46     		mov	r4, r5
 146              	.LVL18:
 200:.//Libraries/CMSIS/DSP/Source/FilteringFunctions/arm_biquad_cascade_df1_q31.c **** 
 201:.//Libraries/CMSIS/DSP/Source/FilteringFunctions/arm_biquad_cascade_df1_q31.c ****       /* acc =  b0 * x[n] + b1 * x[n-1] + b2 * x[n-2] + a1 * y[n-1] + a2 * y[n-2] */
 202:.//Libraries/CMSIS/DSP/Source/FilteringFunctions/arm_biquad_cascade_df1_q31.c ****       acc = ((q63_t) b0 * Xn) + ((q63_t) b1 * Xn1) + ((q63_t) b2 * Xn2) + ((q63_t) a1 * Yn1) + ((q6
 203:.//Libraries/CMSIS/DSP/Source/FilteringFunctions/arm_biquad_cascade_df1_q31.c **** 
 204:.//Libraries/CMSIS/DSP/Source/FilteringFunctions/arm_biquad_cascade_df1_q31.c ****       /* The result is converted to 1.31  */
 205:.//Libraries/CMSIS/DSP/Source/FilteringFunctions/arm_biquad_cascade_df1_q31.c ****       acc = acc >> lShift;
 206:.//Libraries/CMSIS/DSP/Source/FilteringFunctions/arm_biquad_cascade_df1_q31.c **** 
 207:.//Libraries/CMSIS/DSP/Source/FilteringFunctions/arm_biquad_cascade_df1_q31.c ****       /* Store output in destination buffer. */
 208:.//Libraries/CMSIS/DSP/Source/FilteringFunctions/arm_biquad_cascade_df1_q31.c ****       *pOut++ = (q31_t) acc;
 147              		.loc 1 208 17 view .LVU45
 148 0060 0198     		ldr	r0, [sp, #4]
 149              	.LVL19:
 150              	.L4:
 199:.//Libraries/CMSIS/DSP/Source/FilteringFunctions/arm_biquad_cascade_df1_q31.c **** 
 151              		.loc 1 199 7 is_stmt 1 view .LVU46
 202:.//Libraries/CMSIS/DSP/Source/FilteringFunctions/arm_biquad_cascade_df1_q31.c **** 
 152              		.loc 1 202 45 is_stmt 0 view .LVU47
 153 0062 049B     		ldr	r3, [sp, #16]
 205:.//Libraries/CMSIS/DSP/Source/FilteringFunctions/arm_biquad_cascade_df1_q31.c **** 
 154              		.loc 1 205 11 view .LVU48
 155 0064 B9F12001 		subs	r1, r9, #32
 202:.//Libraries/CMSIS/DSP/Source/FilteringFunctions/arm_biquad_cascade_df1_q31.c **** 
 156              		.loc 1 202 31 view .LVU49
 157 0068 039E     		ldr	r6, [sp, #12]
 158              		.loc 1 208 12 view .LVU50
 159 006a 07F10407 		add	r7, r7, #4
 160              	.LVL20:
 199:.//Libraries/CMSIS/DSP/Source/FilteringFunctions/arm_biquad_cascade_df1_q31.c **** 
 161              		.loc 1 199 10 view .LVU51
 162 006e 5AF8045B 		ldr	r5, [r10], #4
 163              	.LVL21:
 202:.//Libraries/CMSIS/DSP/Source/FilteringFunctions/arm_biquad_cascade_df1_q31.c **** 
ARM GAS  /var/folders/wl/rshn8xbx1dsfj1zgryf4g1240000gn/T//cc5l6web.s 			page 8


 164              		.loc 1 202 7 is_stmt 1 view .LVU52
 202:.//Libraries/CMSIS/DSP/Source/FilteringFunctions/arm_biquad_cascade_df1_q31.c **** 
 165              		.loc 1 202 45 is_stmt 0 view .LVU53
 166 0072 84FB0323 		smull	r2, r3, r4, r3
 202:.//Libraries/CMSIS/DSP/Source/FilteringFunctions/arm_biquad_cascade_df1_q31.c **** 
 167              		.loc 1 202 31 view .LVU54
 168 0076 C6FB0523 		smlal	r2, r3, r6, r5
 202:.//Libraries/CMSIS/DSP/Source/FilteringFunctions/arm_biquad_cascade_df1_q31.c **** 
 169              		.loc 1 202 52 view .LVU55
 170 007a 059E     		ldr	r6, [sp, #20]
 171 007c C6FB0E23 		smlal	r2, r3, r6, lr
 202:.//Libraries/CMSIS/DSP/Source/FilteringFunctions/arm_biquad_cascade_df1_q31.c **** 
 172              		.loc 1 202 11 view .LVU56
 173 0080 029E     		ldr	r6, [sp, #8]
 202:.//Libraries/CMSIS/DSP/Source/FilteringFunctions/arm_biquad_cascade_df1_q31.c **** 
 174              		.loc 1 202 73 view .LVU57
 175 0082 C8FB0023 		smlal	r2, r3, r8, r0
 176 0086 A646     		mov	lr, r4
 177              	.LVL22:
 202:.//Libraries/CMSIS/DSP/Source/FilteringFunctions/arm_biquad_cascade_df1_q31.c **** 
 178              		.loc 1 202 11 view .LVU58
 179 0088 CBFB0623 		smlal	r2, r3, fp, r6
 180              	.LVL23:
 205:.//Libraries/CMSIS/DSP/Source/FilteringFunctions/arm_biquad_cascade_df1_q31.c **** 
 181              		.loc 1 205 7 is_stmt 1 view .LVU59
 182              		.loc 1 208 7 view .LVU60
 205:.//Libraries/CMSIS/DSP/Source/FilteringFunctions/arm_biquad_cascade_df1_q31.c **** 
 183              		.loc 1 205 11 is_stmt 0 view .LVU61
 184 008c 22FA09F6 		lsr	r6, r2, r9
 185 0090 43FA01F1 		asr	r1, r3, r1
 186 0094 0290     		str	r0, [sp, #8]
 187              	.LVL24:
 205:.//Libraries/CMSIS/DSP/Source/FilteringFunctions/arm_biquad_cascade_df1_q31.c **** 
 188              		.loc 1 205 11 view .LVU62
 189 0096 0196     		str	r6, [sp, #4]
 190 0098 069E     		ldr	r6, [sp, #24]
 191 009a 019A     		ldr	r2, [sp, #4]
 192              	.LVL25:
 205:.//Libraries/CMSIS/DSP/Source/FilteringFunctions/arm_biquad_cascade_df1_q31.c **** 
 193              		.loc 1 205 11 view .LVU63
 194 009c 03FA06F3 		lsl	r3, r3, r6
 195 00a0 42EA0302 		orr	r2, r2, r3
 196 00a4 1346     		mov	r3, r2
 197 00a6 0192     		str	r2, [sp, #4]
 198 00a8 01D4     		bmi	.L3
 205:.//Libraries/CMSIS/DSP/Source/FilteringFunctions/arm_biquad_cascade_df1_q31.c **** 
 199              		.loc 1 205 11 view .LVU64
 200 00aa 0B43     		orrs	r3, r3, r1
 201 00ac 0193     		str	r3, [sp, #4]
 202              	.L3:
 203              		.loc 1 208 15 view .LVU65
 204 00ae 019B     		ldr	r3, [sp, #4]
 196:.//Libraries/CMSIS/DSP/Source/FilteringFunctions/arm_biquad_cascade_df1_q31.c ****     {
 205              		.loc 1 196 11 view .LVU66
 206 00b0 BCF1010C 		subs	ip, ip, #1
 207              	.LVL26:
 208              		.loc 1 208 15 view .LVU67
ARM GAS  /var/folders/wl/rshn8xbx1dsfj1zgryf4g1240000gn/T//cc5l6web.s 			page 9


 209 00b4 47F8043C 		str	r3, [r7, #-4]
 209:.//Libraries/CMSIS/DSP/Source/FilteringFunctions/arm_biquad_cascade_df1_q31.c **** 
 210:.//Libraries/CMSIS/DSP/Source/FilteringFunctions/arm_biquad_cascade_df1_q31.c ****       /* Every time after the output is computed state should be updated. */
 211:.//Libraries/CMSIS/DSP/Source/FilteringFunctions/arm_biquad_cascade_df1_q31.c ****       /* The states should be updated as: */
 212:.//Libraries/CMSIS/DSP/Source/FilteringFunctions/arm_biquad_cascade_df1_q31.c ****       /* Xn2 = Xn1 */
 213:.//Libraries/CMSIS/DSP/Source/FilteringFunctions/arm_biquad_cascade_df1_q31.c ****       /* Xn1 = Xn  */
 214:.//Libraries/CMSIS/DSP/Source/FilteringFunctions/arm_biquad_cascade_df1_q31.c ****       /* Yn2 = Yn1 */
 215:.//Libraries/CMSIS/DSP/Source/FilteringFunctions/arm_biquad_cascade_df1_q31.c ****       /* Yn1 = acc */
 216:.//Libraries/CMSIS/DSP/Source/FilteringFunctions/arm_biquad_cascade_df1_q31.c ****       Xn2 = Xn1;
 210              		.loc 1 216 7 is_stmt 1 view .LVU68
 211              	.LVL27:
 217:.//Libraries/CMSIS/DSP/Source/FilteringFunctions/arm_biquad_cascade_df1_q31.c ****       Xn1 = Xn;
 212              		.loc 1 217 7 view .LVU69
 218:.//Libraries/CMSIS/DSP/Source/FilteringFunctions/arm_biquad_cascade_df1_q31.c ****       Yn2 = Yn1;
 213              		.loc 1 218 7 view .LVU70
 219:.//Libraries/CMSIS/DSP/Source/FilteringFunctions/arm_biquad_cascade_df1_q31.c ****       Yn1 = (q31_t) acc;
 214              		.loc 1 219 7 view .LVU71
 220:.//Libraries/CMSIS/DSP/Source/FilteringFunctions/arm_biquad_cascade_df1_q31.c **** 
 221:.//Libraries/CMSIS/DSP/Source/FilteringFunctions/arm_biquad_cascade_df1_q31.c ****       /* decrement loop counter */
 222:.//Libraries/CMSIS/DSP/Source/FilteringFunctions/arm_biquad_cascade_df1_q31.c ****       sample--;
 215              		.loc 1 222 7 view .LVU72
 196:.//Libraries/CMSIS/DSP/Source/FilteringFunctions/arm_biquad_cascade_df1_q31.c ****     {
 216              		.loc 1 196 11 view .LVU73
 217 00b8 D1D1     		bne	.L7
 218 00ba DDF82880 		ldr	r8, [sp, #40]
 219              	.LVL28:
 220              	.L2:
 223:.//Libraries/CMSIS/DSP/Source/FilteringFunctions/arm_biquad_cascade_df1_q31.c ****     }
 224:.//Libraries/CMSIS/DSP/Source/FilteringFunctions/arm_biquad_cascade_df1_q31.c **** 
 225:.//Libraries/CMSIS/DSP/Source/FilteringFunctions/arm_biquad_cascade_df1_q31.c ****     /* Store the updated state variables back into the pState array */
 226:.//Libraries/CMSIS/DSP/Source/FilteringFunctions/arm_biquad_cascade_df1_q31.c ****     *pState++ = Xn1;
 221              		.loc 1 226 5 view .LVU74
 222              		.loc 1 226 5 is_stmt 0 view .LVU75
 223 00be 079A     		ldr	r2, [sp, #28]
 224              		.loc 1 226 15 view .LVU76
 225 00c0 48F8105C 		str	r5, [r8, #-16]
 227:.//Libraries/CMSIS/DSP/Source/FilteringFunctions/arm_biquad_cascade_df1_q31.c ****     *pState++ = Xn2;
 226              		.loc 1 227 5 is_stmt 1 view .LVU77
 227              		.loc 1 227 5 is_stmt 0 view .LVU78
 228 00c4 1432     		adds	r2, r2, #20
 228:.//Libraries/CMSIS/DSP/Source/FilteringFunctions/arm_biquad_cascade_df1_q31.c ****     *pState++ = Yn1;
 229:.//Libraries/CMSIS/DSP/Source/FilteringFunctions/arm_biquad_cascade_df1_q31.c ****     *pState++ = Yn2;
 229              		.loc 1 229 15 view .LVU79
 230 00c6 48F8040C 		str	r0, [r8, #-4]
 228:.//Libraries/CMSIS/DSP/Source/FilteringFunctions/arm_biquad_cascade_df1_q31.c ****     *pState++ = Yn1;
 231              		.loc 1 228 15 view .LVU80
 232 00ca 48E90343 		strd	r4, r3, [r8, #-12]
 233              		.loc 1 229 5 is_stmt 1 view .LVU81
 234              	.LVL29:
 230:.//Libraries/CMSIS/DSP/Source/FilteringFunctions/arm_biquad_cascade_df1_q31.c **** 
 231:.//Libraries/CMSIS/DSP/Source/FilteringFunctions/arm_biquad_cascade_df1_q31.c ****     /* The first stage goes from the input buffer to the output buffer. */
 232:.//Libraries/CMSIS/DSP/Source/FilteringFunctions/arm_biquad_cascade_df1_q31.c ****     /* Subsequent numStages occur in-place in the output buffer */
 233:.//Libraries/CMSIS/DSP/Source/FilteringFunctions/arm_biquad_cascade_df1_q31.c ****     pIn = pDst;
 235              		.loc 1 233 5 view .LVU82
 234:.//Libraries/CMSIS/DSP/Source/FilteringFunctions/arm_biquad_cascade_df1_q31.c **** 
 235:.//Libraries/CMSIS/DSP/Source/FilteringFunctions/arm_biquad_cascade_df1_q31.c ****     /* Reset output pointer */
 236:.//Libraries/CMSIS/DSP/Source/FilteringFunctions/arm_biquad_cascade_df1_q31.c ****     pOut = pDst;
ARM GAS  /var/folders/wl/rshn8xbx1dsfj1zgryf4g1240000gn/T//cc5l6web.s 			page 10


 236              		.loc 1 236 5 view .LVU83
 237:.//Libraries/CMSIS/DSP/Source/FilteringFunctions/arm_biquad_cascade_df1_q31.c **** 
 238:.//Libraries/CMSIS/DSP/Source/FilteringFunctions/arm_biquad_cascade_df1_q31.c ****     /* decrement loop counter */
 239:.//Libraries/CMSIS/DSP/Source/FilteringFunctions/arm_biquad_cascade_df1_q31.c ****     stage--;
 237              		.loc 1 239 5 view .LVU84
 240:.//Libraries/CMSIS/DSP/Source/FilteringFunctions/arm_biquad_cascade_df1_q31.c **** 
 241:.//Libraries/CMSIS/DSP/Source/FilteringFunctions/arm_biquad_cascade_df1_q31.c ****   } while (stage > 0U);
 238              		.loc 1 241 11 view .LVU85
 239              		.loc 1 241 3 is_stmt 0 view .LVU86
 240 00ce 089B     		ldr	r3, [sp, #32]
 241              	.LVL30:
 242              		.loc 1 241 3 view .LVU87
 243 00d0 08F11008 		add	r8, r8, #16
 244              	.LVL31:
 245              		.loc 1 241 3 view .LVU88
 246 00d4 0792     		str	r2, [sp, #28]
 247              	.LVL32:
 248              		.loc 1 241 3 view .LVU89
 249 00d6 013B     		subs	r3, r3, #1
 250              	.LVL33:
 251              		.loc 1 241 3 view .LVU90
 252 00d8 0893     		str	r3, [sp, #32]
 253 00da 07D0     		beq	.L11
 233:.//Libraries/CMSIS/DSP/Source/FilteringFunctions/arm_biquad_cascade_df1_q31.c **** 
 254              		.loc 1 233 9 view .LVU91
 255 00dc DDF824A0 		ldr	r10, [sp, #36]
 256 00e0 A1E7     		b	.L5
 257              	.LVL34:
 258              	.L6:
  93:.//Libraries/CMSIS/DSP/Source/FilteringFunctions/arm_biquad_cascade_df1_q31.c ****     Yn2 = pState[3];
 259              		.loc 1 93 9 view .LVU92
 260 00e2 0346     		mov	r3, r0
 261              	.LVL35:
  91:.//Libraries/CMSIS/DSP/Source/FilteringFunctions/arm_biquad_cascade_df1_q31.c ****     Xn2 = pState[1];
 262              		.loc 1 91 9 view .LVU93
 263 00e4 2546     		mov	r5, r4
  94:.//Libraries/CMSIS/DSP/Source/FilteringFunctions/arm_biquad_cascade_df1_q31.c **** 
 264              		.loc 1 94 9 view .LVU94
 265 00e6 3046     		mov	r0, r6
 266              	.LVL36:
  92:.//Libraries/CMSIS/DSP/Source/FilteringFunctions/arm_biquad_cascade_df1_q31.c ****     Yn1 = pState[2];
 267              		.loc 1 92 9 view .LVU95
 268 00e8 7446     		mov	r4, lr
 269              	.LVL37:
  92:.//Libraries/CMSIS/DSP/Source/FilteringFunctions/arm_biquad_cascade_df1_q31.c ****     Yn1 = pState[2];
 270              		.loc 1 92 9 view .LVU96
 271 00ea E8E7     		b	.L2
 272              	.LVL38:
 273              	.L11:
 242:.//Libraries/CMSIS/DSP/Source/FilteringFunctions/arm_biquad_cascade_df1_q31.c **** 
 243:.//Libraries/CMSIS/DSP/Source/FilteringFunctions/arm_biquad_cascade_df1_q31.c **** }
 274              		.loc 1 243 1 view .LVU97
 275 00ec 0DB0     		add	sp, sp, #52
 276              	.LCFI2:
 277              		.cfi_def_cfa_offset 36
 278              		@ sp needed
 279 00ee BDE8F08F 		pop	{r4, r5, r6, r7, r8, r9, r10, fp, pc}
ARM GAS  /var/folders/wl/rshn8xbx1dsfj1zgryf4g1240000gn/T//cc5l6web.s 			page 11


 280              		.loc 1 243 1 view .LVU98
 281              		.cfi_endproc
 282              	.LFE145:
 284 00f2 00BF     		.text
 285              	.Letext0:
 286              		.file 2 "/opt/homebrew/Cellar/arm-none-eabi-gcc/9-2019-q4-major/gcc/arm-none-eabi/include/machine/
 287              		.file 3 "/opt/homebrew/Cellar/arm-none-eabi-gcc/9-2019-q4-major/gcc/arm-none-eabi/include/sys/_std
 288              		.file 4 "/opt/homebrew/Cellar/arm-none-eabi-gcc/9-2019-q4-major/gcc/arm-none-eabi/include/sys/lock
 289              		.file 5 "/opt/homebrew/Cellar/arm-none-eabi-gcc/9-2019-q4-major/gcc/arm-none-eabi/include/sys/_typ
 290              		.file 6 "/opt/homebrew/Cellar/arm-none-eabi-gcc/9-2019-q4-major/gcc/lib/gcc/arm-none-eabi/9.2.1/in
 291              		.file 7 "/opt/homebrew/Cellar/arm-none-eabi-gcc/9-2019-q4-major/gcc/arm-none-eabi/include/sys/reen
 292              		.file 8 "/opt/homebrew/Cellar/arm-none-eabi-gcc/9-2019-q4-major/gcc/arm-none-eabi/include/math.h"
 293              		.file 9 ".//Libraries/CMSIS/DSP/Include/arm_math.h"
ARM GAS  /var/folders/wl/rshn8xbx1dsfj1zgryf4g1240000gn/T//cc5l6web.s 			page 12

