ARM GAS  /tmp/ccG13w40.s 			page 1


   1              		.cpu cortex-m7
   2              		.eabi_attribute 28, 1
   3              		.eabi_attribute 20, 1
   4              		.eabi_attribute 21, 1
   5              		.eabi_attribute 23, 3
   6              		.eabi_attribute 24, 1
   7              		.eabi_attribute 25, 1
   8              		.eabi_attribute 26, 1
   9              		.eabi_attribute 30, 2
  10              		.eabi_attribute 34, 1
  11              		.eabi_attribute 18, 4
  12              		.file	"arm_mat_scale_q15.c"
  13              		.text
  14              	.Ltext0:
  15              		.cfi_sections	.debug_frame
  16              		.section	.text.arm_mat_scale_q15,"ax",%progbits
  17              		.align	1
  18              		.p2align 2,,3
  19              		.global	arm_mat_scale_q15
  20              		.arch armv7e-m
  21              		.syntax unified
  22              		.thumb
  23              		.thumb_func
  24              		.fpu fpv5-d16
  26              	arm_mat_scale_q15:
  27              	.LVL0:
  28              	.LFB145:
  29              		.file 1 "./Libraries/CMSIS/DSP/Source/MatrixFunctions/arm_mat_scale_q15.c"
   1:./Libraries/CMSIS/DSP/Source/MatrixFunctions/arm_mat_scale_q15.c **** /* ----------------------------------------------------------------------
   2:./Libraries/CMSIS/DSP/Source/MatrixFunctions/arm_mat_scale_q15.c ****  * Project:      CMSIS DSP Library
   3:./Libraries/CMSIS/DSP/Source/MatrixFunctions/arm_mat_scale_q15.c ****  * Title:        arm_mat_scale_q15.c
   4:./Libraries/CMSIS/DSP/Source/MatrixFunctions/arm_mat_scale_q15.c ****  * Description:  Multiplies a Q15 matrix by a scalar
   5:./Libraries/CMSIS/DSP/Source/MatrixFunctions/arm_mat_scale_q15.c ****  *
   6:./Libraries/CMSIS/DSP/Source/MatrixFunctions/arm_mat_scale_q15.c ****  * $Date:        18. March 2019
   7:./Libraries/CMSIS/DSP/Source/MatrixFunctions/arm_mat_scale_q15.c ****  * $Revision:    V1.6.0
   8:./Libraries/CMSIS/DSP/Source/MatrixFunctions/arm_mat_scale_q15.c ****  *
   9:./Libraries/CMSIS/DSP/Source/MatrixFunctions/arm_mat_scale_q15.c ****  * Target Processor: Cortex-M cores
  10:./Libraries/CMSIS/DSP/Source/MatrixFunctions/arm_mat_scale_q15.c ****  * -------------------------------------------------------------------- */
  11:./Libraries/CMSIS/DSP/Source/MatrixFunctions/arm_mat_scale_q15.c **** /*
  12:./Libraries/CMSIS/DSP/Source/MatrixFunctions/arm_mat_scale_q15.c ****  * Copyright (C) 2010-2019 ARM Limited or its affiliates. All rights reserved.
  13:./Libraries/CMSIS/DSP/Source/MatrixFunctions/arm_mat_scale_q15.c ****  *
  14:./Libraries/CMSIS/DSP/Source/MatrixFunctions/arm_mat_scale_q15.c ****  * SPDX-License-Identifier: Apache-2.0
  15:./Libraries/CMSIS/DSP/Source/MatrixFunctions/arm_mat_scale_q15.c ****  *
  16:./Libraries/CMSIS/DSP/Source/MatrixFunctions/arm_mat_scale_q15.c ****  * Licensed under the Apache License, Version 2.0 (the License); you may
  17:./Libraries/CMSIS/DSP/Source/MatrixFunctions/arm_mat_scale_q15.c ****  * not use this file except in compliance with the License.
  18:./Libraries/CMSIS/DSP/Source/MatrixFunctions/arm_mat_scale_q15.c ****  * You may obtain a copy of the License at
  19:./Libraries/CMSIS/DSP/Source/MatrixFunctions/arm_mat_scale_q15.c ****  *
  20:./Libraries/CMSIS/DSP/Source/MatrixFunctions/arm_mat_scale_q15.c ****  * www.apache.org/licenses/LICENSE-2.0
  21:./Libraries/CMSIS/DSP/Source/MatrixFunctions/arm_mat_scale_q15.c ****  *
  22:./Libraries/CMSIS/DSP/Source/MatrixFunctions/arm_mat_scale_q15.c ****  * Unless required by applicable law or agreed to in writing, software
  23:./Libraries/CMSIS/DSP/Source/MatrixFunctions/arm_mat_scale_q15.c ****  * distributed under the License is distributed on an AS IS BASIS, WITHOUT
  24:./Libraries/CMSIS/DSP/Source/MatrixFunctions/arm_mat_scale_q15.c ****  * WARRANTIES OR CONDITIONS OF ANY KIND, either express or implied.
  25:./Libraries/CMSIS/DSP/Source/MatrixFunctions/arm_mat_scale_q15.c ****  * See the License for the specific language governing permissions and
  26:./Libraries/CMSIS/DSP/Source/MatrixFunctions/arm_mat_scale_q15.c ****  * limitations under the License.
  27:./Libraries/CMSIS/DSP/Source/MatrixFunctions/arm_mat_scale_q15.c ****  */
  28:./Libraries/CMSIS/DSP/Source/MatrixFunctions/arm_mat_scale_q15.c **** 
  29:./Libraries/CMSIS/DSP/Source/MatrixFunctions/arm_mat_scale_q15.c **** #include "arm_math.h"
ARM GAS  /tmp/ccG13w40.s 			page 2


  30:./Libraries/CMSIS/DSP/Source/MatrixFunctions/arm_mat_scale_q15.c **** 
  31:./Libraries/CMSIS/DSP/Source/MatrixFunctions/arm_mat_scale_q15.c **** /**
  32:./Libraries/CMSIS/DSP/Source/MatrixFunctions/arm_mat_scale_q15.c ****   @ingroup groupMatrix
  33:./Libraries/CMSIS/DSP/Source/MatrixFunctions/arm_mat_scale_q15.c ****  */
  34:./Libraries/CMSIS/DSP/Source/MatrixFunctions/arm_mat_scale_q15.c **** 
  35:./Libraries/CMSIS/DSP/Source/MatrixFunctions/arm_mat_scale_q15.c **** /**
  36:./Libraries/CMSIS/DSP/Source/MatrixFunctions/arm_mat_scale_q15.c ****   @addtogroup MatrixScale
  37:./Libraries/CMSIS/DSP/Source/MatrixFunctions/arm_mat_scale_q15.c ****   @{
  38:./Libraries/CMSIS/DSP/Source/MatrixFunctions/arm_mat_scale_q15.c ****  */
  39:./Libraries/CMSIS/DSP/Source/MatrixFunctions/arm_mat_scale_q15.c **** 
  40:./Libraries/CMSIS/DSP/Source/MatrixFunctions/arm_mat_scale_q15.c **** /**
  41:./Libraries/CMSIS/DSP/Source/MatrixFunctions/arm_mat_scale_q15.c ****   @brief         Q15 matrix scaling.
  42:./Libraries/CMSIS/DSP/Source/MatrixFunctions/arm_mat_scale_q15.c ****   @param[in]     pSrc        points to input matrix
  43:./Libraries/CMSIS/DSP/Source/MatrixFunctions/arm_mat_scale_q15.c ****   @param[in]     scaleFract  fractional portion of the scale factor
  44:./Libraries/CMSIS/DSP/Source/MatrixFunctions/arm_mat_scale_q15.c ****   @param[in]     shift       number of bits to shift the result by
  45:./Libraries/CMSIS/DSP/Source/MatrixFunctions/arm_mat_scale_q15.c ****   @param[out]    pDst        points to output matrix structure
  46:./Libraries/CMSIS/DSP/Source/MatrixFunctions/arm_mat_scale_q15.c ****   @return        execution status
  47:./Libraries/CMSIS/DSP/Source/MatrixFunctions/arm_mat_scale_q15.c ****                    - \ref ARM_MATH_SUCCESS       : Operation successful
  48:./Libraries/CMSIS/DSP/Source/MatrixFunctions/arm_mat_scale_q15.c ****                    - \ref ARM_MATH_SIZE_MISMATCH : Matrix size check failed
  49:./Libraries/CMSIS/DSP/Source/MatrixFunctions/arm_mat_scale_q15.c **** 
  50:./Libraries/CMSIS/DSP/Source/MatrixFunctions/arm_mat_scale_q15.c ****   @par           Scaling and Overflow Behavior
  51:./Libraries/CMSIS/DSP/Source/MatrixFunctions/arm_mat_scale_q15.c ****                    The input data <code>*pSrc</code> and <code>scaleFract</code> are in 1.15 format
  52:./Libraries/CMSIS/DSP/Source/MatrixFunctions/arm_mat_scale_q15.c ****                    These are multiplied to yield a 2.30 intermediate result and this is shifted wit
  53:./Libraries/CMSIS/DSP/Source/MatrixFunctions/arm_mat_scale_q15.c ****  */
  54:./Libraries/CMSIS/DSP/Source/MatrixFunctions/arm_mat_scale_q15.c **** 
  55:./Libraries/CMSIS/DSP/Source/MatrixFunctions/arm_mat_scale_q15.c **** arm_status arm_mat_scale_q15(
  56:./Libraries/CMSIS/DSP/Source/MatrixFunctions/arm_mat_scale_q15.c ****   const arm_matrix_instance_q15 * pSrc,
  57:./Libraries/CMSIS/DSP/Source/MatrixFunctions/arm_mat_scale_q15.c ****         q15_t                     scaleFract,
  58:./Libraries/CMSIS/DSP/Source/MatrixFunctions/arm_mat_scale_q15.c ****         int32_t                   shift,
  59:./Libraries/CMSIS/DSP/Source/MatrixFunctions/arm_mat_scale_q15.c ****         arm_matrix_instance_q15 * pDst)
  60:./Libraries/CMSIS/DSP/Source/MatrixFunctions/arm_mat_scale_q15.c **** {
  30              		.loc 1 60 1 view -0
  31              		.cfi_startproc
  32              		@ args = 0, pretend = 0, frame = 0
  33              		@ frame_needed = 0, uses_anonymous_args = 0
  34              		@ link register save eliminated.
  61:./Libraries/CMSIS/DSP/Source/MatrixFunctions/arm_mat_scale_q15.c ****         q15_t *pIn = pSrc->pData;                      /* Input data matrix pointer */
  35              		.loc 1 61 9 view .LVU1
  60:./Libraries/CMSIS/DSP/Source/MatrixFunctions/arm_mat_scale_q15.c ****         q15_t *pIn = pSrc->pData;                      /* Input data matrix pointer */
  36              		.loc 1 60 1 is_stmt 0 view .LVU2
  37 0000 70B4     		push	{r4, r5, r6}
  38              	.LCFI0:
  39              		.cfi_def_cfa_offset 12
  40              		.cfi_offset 4, -12
  41              		.cfi_offset 5, -8
  42              		.cfi_offset 6, -4
  62:./Libraries/CMSIS/DSP/Source/MatrixFunctions/arm_mat_scale_q15.c ****         q15_t *pOut = pDst->pData;                     /* Output data matrix pointer */
  43              		.loc 1 62 16 view .LVU3
  44 0002 5D68     		ldr	r5, [r3, #4]
  63:./Libraries/CMSIS/DSP/Source/MatrixFunctions/arm_mat_scale_q15.c ****         uint32_t numSamples;                           /* Total number of elements in the matrix */
  64:./Libraries/CMSIS/DSP/Source/MatrixFunctions/arm_mat_scale_q15.c ****         uint32_t blkCnt;                               /* Loop counter */
  65:./Libraries/CMSIS/DSP/Source/MatrixFunctions/arm_mat_scale_q15.c ****         arm_status status;                             /* Status of matrix scaling */
  66:./Libraries/CMSIS/DSP/Source/MatrixFunctions/arm_mat_scale_q15.c ****         int32_t kShift = 15 - shift;                   /* Total shift to apply after scaling */
  67:./Libraries/CMSIS/DSP/Source/MatrixFunctions/arm_mat_scale_q15.c **** 
  68:./Libraries/CMSIS/DSP/Source/MatrixFunctions/arm_mat_scale_q15.c **** #if defined (ARM_MATH_LOOPUNROLL) && defined (ARM_MATH_DSP)
  69:./Libraries/CMSIS/DSP/Source/MatrixFunctions/arm_mat_scale_q15.c ****         q31_t inA1, inA2;
  70:./Libraries/CMSIS/DSP/Source/MatrixFunctions/arm_mat_scale_q15.c ****         q31_t out1, out2, out3, out4;                  /* Temporary output variables */
ARM GAS  /tmp/ccG13w40.s 			page 3


  71:./Libraries/CMSIS/DSP/Source/MatrixFunctions/arm_mat_scale_q15.c ****         q15_t in1, in2, in3, in4;                      /* Temporary input variables */
  72:./Libraries/CMSIS/DSP/Source/MatrixFunctions/arm_mat_scale_q15.c **** #endif
  73:./Libraries/CMSIS/DSP/Source/MatrixFunctions/arm_mat_scale_q15.c **** 
  74:./Libraries/CMSIS/DSP/Source/MatrixFunctions/arm_mat_scale_q15.c **** #ifdef ARM_MATH_MATRIX_CHECK
  75:./Libraries/CMSIS/DSP/Source/MatrixFunctions/arm_mat_scale_q15.c **** 
  76:./Libraries/CMSIS/DSP/Source/MatrixFunctions/arm_mat_scale_q15.c ****   /* Check for matrix mismatch condition */
  77:./Libraries/CMSIS/DSP/Source/MatrixFunctions/arm_mat_scale_q15.c ****   if ((pSrc->numRows != pDst->numRows) ||
  78:./Libraries/CMSIS/DSP/Source/MatrixFunctions/arm_mat_scale_q15.c ****       (pSrc->numCols != pDst->numCols)   )
  79:./Libraries/CMSIS/DSP/Source/MatrixFunctions/arm_mat_scale_q15.c ****   {
  80:./Libraries/CMSIS/DSP/Source/MatrixFunctions/arm_mat_scale_q15.c ****     /* Set status as ARM_MATH_SIZE_MISMATCH */
  81:./Libraries/CMSIS/DSP/Source/MatrixFunctions/arm_mat_scale_q15.c ****     status = ARM_MATH_SIZE_MISMATCH;
  82:./Libraries/CMSIS/DSP/Source/MatrixFunctions/arm_mat_scale_q15.c ****   }
  83:./Libraries/CMSIS/DSP/Source/MatrixFunctions/arm_mat_scale_q15.c ****   else
  84:./Libraries/CMSIS/DSP/Source/MatrixFunctions/arm_mat_scale_q15.c **** 
  85:./Libraries/CMSIS/DSP/Source/MatrixFunctions/arm_mat_scale_q15.c **** #endif /* #ifdef ARM_MATH_MATRIX_CHECK */
  86:./Libraries/CMSIS/DSP/Source/MatrixFunctions/arm_mat_scale_q15.c **** 
  87:./Libraries/CMSIS/DSP/Source/MatrixFunctions/arm_mat_scale_q15.c ****   {
  88:./Libraries/CMSIS/DSP/Source/MatrixFunctions/arm_mat_scale_q15.c ****     /* Total number of samples in input matrix */
  89:./Libraries/CMSIS/DSP/Source/MatrixFunctions/arm_mat_scale_q15.c ****     numSamples = (uint32_t) pSrc->numRows * pSrc->numCols;
  45              		.loc 1 89 18 view .LVU4
  46 0004 0688     		ldrh	r6, [r0]
  47              		.loc 1 89 49 view .LVU5
  48 0006 4388     		ldrh	r3, [r0, #2]
  49              	.LVL1:
  61:./Libraries/CMSIS/DSP/Source/MatrixFunctions/arm_mat_scale_q15.c ****         q15_t *pOut = pDst->pData;                     /* Output data matrix pointer */
  50              		.loc 1 61 16 view .LVU6
  51 0008 4468     		ldr	r4, [r0, #4]
  52              	.LVL2:
  62:./Libraries/CMSIS/DSP/Source/MatrixFunctions/arm_mat_scale_q15.c ****         q15_t *pOut = pDst->pData;                     /* Output data matrix pointer */
  53              		.loc 1 62 9 is_stmt 1 view .LVU7
  63:./Libraries/CMSIS/DSP/Source/MatrixFunctions/arm_mat_scale_q15.c ****         uint32_t numSamples;                           /* Total number of elements in the matrix */
  54              		.loc 1 63 9 view .LVU8
  64:./Libraries/CMSIS/DSP/Source/MatrixFunctions/arm_mat_scale_q15.c ****         arm_status status;                             /* Status of matrix scaling */
  55              		.loc 1 64 9 view .LVU9
  65:./Libraries/CMSIS/DSP/Source/MatrixFunctions/arm_mat_scale_q15.c ****         int32_t kShift = 15 - shift;                   /* Total shift to apply after scaling */
  56              		.loc 1 65 9 view .LVU10
  66:./Libraries/CMSIS/DSP/Source/MatrixFunctions/arm_mat_scale_q15.c **** 
  57              		.loc 1 66 9 view .LVU11
  58              		.loc 1 89 5 view .LVU12
  59              		.loc 1 89 16 is_stmt 0 view .LVU13
  60 000a 03FB06F6 		mul	r6, r3, r6
  61              	.LVL3:
  90:./Libraries/CMSIS/DSP/Source/MatrixFunctions/arm_mat_scale_q15.c **** 
  91:./Libraries/CMSIS/DSP/Source/MatrixFunctions/arm_mat_scale_q15.c **** #if defined (ARM_MATH_LOOPUNROLL)
  92:./Libraries/CMSIS/DSP/Source/MatrixFunctions/arm_mat_scale_q15.c **** 
  93:./Libraries/CMSIS/DSP/Source/MatrixFunctions/arm_mat_scale_q15.c ****     /* Loop unrolling: Compute 4 outputs at a time */
  94:./Libraries/CMSIS/DSP/Source/MatrixFunctions/arm_mat_scale_q15.c ****     blkCnt = numSamples >> 2U;
  95:./Libraries/CMSIS/DSP/Source/MatrixFunctions/arm_mat_scale_q15.c **** 
  96:./Libraries/CMSIS/DSP/Source/MatrixFunctions/arm_mat_scale_q15.c ****     while (blkCnt > 0U)
  97:./Libraries/CMSIS/DSP/Source/MatrixFunctions/arm_mat_scale_q15.c ****     {
  98:./Libraries/CMSIS/DSP/Source/MatrixFunctions/arm_mat_scale_q15.c ****       /* C(m,n) = A(m,n) * k */
  99:./Libraries/CMSIS/DSP/Source/MatrixFunctions/arm_mat_scale_q15.c **** 
 100:./Libraries/CMSIS/DSP/Source/MatrixFunctions/arm_mat_scale_q15.c **** #if defined (ARM_MATH_DSP)
 101:./Libraries/CMSIS/DSP/Source/MatrixFunctions/arm_mat_scale_q15.c ****       /* read 2 times 2 samples at a time from source */
 102:./Libraries/CMSIS/DSP/Source/MatrixFunctions/arm_mat_scale_q15.c ****       inA1 = read_q15x2_ia ((q15_t **) &pIn);
 103:./Libraries/CMSIS/DSP/Source/MatrixFunctions/arm_mat_scale_q15.c ****       inA2 = read_q15x2_ia ((q15_t **) &pIn);
 104:./Libraries/CMSIS/DSP/Source/MatrixFunctions/arm_mat_scale_q15.c **** 
ARM GAS  /tmp/ccG13w40.s 			page 4


 105:./Libraries/CMSIS/DSP/Source/MatrixFunctions/arm_mat_scale_q15.c ****       /* Scale inputs and store result in temporary variables
 106:./Libraries/CMSIS/DSP/Source/MatrixFunctions/arm_mat_scale_q15.c ****        * in single cycle by packing the outputs */
 107:./Libraries/CMSIS/DSP/Source/MatrixFunctions/arm_mat_scale_q15.c ****       out1 = (q31_t) ((q15_t) (inA1 >> 16) * scaleFract);
 108:./Libraries/CMSIS/DSP/Source/MatrixFunctions/arm_mat_scale_q15.c ****       out2 = (q31_t) ((q15_t) (inA1      ) * scaleFract);
 109:./Libraries/CMSIS/DSP/Source/MatrixFunctions/arm_mat_scale_q15.c ****       out3 = (q31_t) ((q15_t) (inA2 >> 16) * scaleFract);
 110:./Libraries/CMSIS/DSP/Source/MatrixFunctions/arm_mat_scale_q15.c ****       out4 = (q31_t) ((q15_t) (inA2      ) * scaleFract);
 111:./Libraries/CMSIS/DSP/Source/MatrixFunctions/arm_mat_scale_q15.c **** 
 112:./Libraries/CMSIS/DSP/Source/MatrixFunctions/arm_mat_scale_q15.c ****       /* apply shifting */
 113:./Libraries/CMSIS/DSP/Source/MatrixFunctions/arm_mat_scale_q15.c ****       out1 = out1 >> kShift;
 114:./Libraries/CMSIS/DSP/Source/MatrixFunctions/arm_mat_scale_q15.c ****       out2 = out2 >> kShift;
 115:./Libraries/CMSIS/DSP/Source/MatrixFunctions/arm_mat_scale_q15.c ****       out3 = out3 >> kShift;
 116:./Libraries/CMSIS/DSP/Source/MatrixFunctions/arm_mat_scale_q15.c ****       out4 = out4 >> kShift;
 117:./Libraries/CMSIS/DSP/Source/MatrixFunctions/arm_mat_scale_q15.c **** 
 118:./Libraries/CMSIS/DSP/Source/MatrixFunctions/arm_mat_scale_q15.c ****       /* saturate the output */
 119:./Libraries/CMSIS/DSP/Source/MatrixFunctions/arm_mat_scale_q15.c ****       in1 = (q15_t) (__SSAT(out1, 16));
 120:./Libraries/CMSIS/DSP/Source/MatrixFunctions/arm_mat_scale_q15.c ****       in2 = (q15_t) (__SSAT(out2, 16));
 121:./Libraries/CMSIS/DSP/Source/MatrixFunctions/arm_mat_scale_q15.c ****       in3 = (q15_t) (__SSAT(out3, 16));
 122:./Libraries/CMSIS/DSP/Source/MatrixFunctions/arm_mat_scale_q15.c ****       in4 = (q15_t) (__SSAT(out4, 16));
 123:./Libraries/CMSIS/DSP/Source/MatrixFunctions/arm_mat_scale_q15.c **** 
 124:./Libraries/CMSIS/DSP/Source/MatrixFunctions/arm_mat_scale_q15.c ****       /* store result to destination */
 125:./Libraries/CMSIS/DSP/Source/MatrixFunctions/arm_mat_scale_q15.c ****       write_q15x2_ia (&pOut, __PKHBT(in2, in1, 16));
 126:./Libraries/CMSIS/DSP/Source/MatrixFunctions/arm_mat_scale_q15.c ****       write_q15x2_ia (&pOut, __PKHBT(in4, in3, 16));
 127:./Libraries/CMSIS/DSP/Source/MatrixFunctions/arm_mat_scale_q15.c **** 
 128:./Libraries/CMSIS/DSP/Source/MatrixFunctions/arm_mat_scale_q15.c **** #else
 129:./Libraries/CMSIS/DSP/Source/MatrixFunctions/arm_mat_scale_q15.c ****       *pOut++ = (q15_t) (__SSAT(((q31_t) (*pIn++) * scaleFract) >> kShift, 16));
 130:./Libraries/CMSIS/DSP/Source/MatrixFunctions/arm_mat_scale_q15.c ****       *pOut++ = (q15_t) (__SSAT(((q31_t) (*pIn++) * scaleFract) >> kShift, 16));
 131:./Libraries/CMSIS/DSP/Source/MatrixFunctions/arm_mat_scale_q15.c ****       *pOut++ = (q15_t) (__SSAT(((q31_t) (*pIn++) * scaleFract) >> kShift, 16));
 132:./Libraries/CMSIS/DSP/Source/MatrixFunctions/arm_mat_scale_q15.c ****       *pOut++ = (q15_t) (__SSAT(((q31_t) (*pIn++) * scaleFract) >> kShift, 16));
 133:./Libraries/CMSIS/DSP/Source/MatrixFunctions/arm_mat_scale_q15.c **** #endif
 134:./Libraries/CMSIS/DSP/Source/MatrixFunctions/arm_mat_scale_q15.c **** 
 135:./Libraries/CMSIS/DSP/Source/MatrixFunctions/arm_mat_scale_q15.c ****       /* Decrement loop counter */
 136:./Libraries/CMSIS/DSP/Source/MatrixFunctions/arm_mat_scale_q15.c ****       blkCnt--;
 137:./Libraries/CMSIS/DSP/Source/MatrixFunctions/arm_mat_scale_q15.c ****     }
 138:./Libraries/CMSIS/DSP/Source/MatrixFunctions/arm_mat_scale_q15.c **** 
 139:./Libraries/CMSIS/DSP/Source/MatrixFunctions/arm_mat_scale_q15.c ****     /* Loop unrolling: Compute remaining outputs */
 140:./Libraries/CMSIS/DSP/Source/MatrixFunctions/arm_mat_scale_q15.c ****     blkCnt = numSamples % 0x4U;
 141:./Libraries/CMSIS/DSP/Source/MatrixFunctions/arm_mat_scale_q15.c **** 
 142:./Libraries/CMSIS/DSP/Source/MatrixFunctions/arm_mat_scale_q15.c **** #else
 143:./Libraries/CMSIS/DSP/Source/MatrixFunctions/arm_mat_scale_q15.c **** 
 144:./Libraries/CMSIS/DSP/Source/MatrixFunctions/arm_mat_scale_q15.c ****     /* Initialize blkCnt with number of samples */
 145:./Libraries/CMSIS/DSP/Source/MatrixFunctions/arm_mat_scale_q15.c ****     blkCnt = numSamples;
  62              		.loc 1 145 5 is_stmt 1 view .LVU14
 146:./Libraries/CMSIS/DSP/Source/MatrixFunctions/arm_mat_scale_q15.c **** 
 147:./Libraries/CMSIS/DSP/Source/MatrixFunctions/arm_mat_scale_q15.c **** #endif /* #if defined (ARM_MATH_LOOPUNROLL) */
 148:./Libraries/CMSIS/DSP/Source/MatrixFunctions/arm_mat_scale_q15.c **** 
 149:./Libraries/CMSIS/DSP/Source/MatrixFunctions/arm_mat_scale_q15.c ****     while (blkCnt > 0U)
  63              		.loc 1 149 5 view .LVU15
  64              		.loc 1 149 11 view .LVU16
  65 000e 6EB1     		cbz	r6, .L6
  66 0010 C2F10F02 		rsb	r2, r2, #15
  67              	.LVL4:
  68              	.L2:
 150:./Libraries/CMSIS/DSP/Source/MatrixFunctions/arm_mat_scale_q15.c ****     {
 151:./Libraries/CMSIS/DSP/Source/MatrixFunctions/arm_mat_scale_q15.c ****       /* C(m,n) = A(m,n) * k */
 152:./Libraries/CMSIS/DSP/Source/MatrixFunctions/arm_mat_scale_q15.c **** 
 153:./Libraries/CMSIS/DSP/Source/MatrixFunctions/arm_mat_scale_q15.c ****       /* Scale, saturate and store result in destination buffer. */
 154:./Libraries/CMSIS/DSP/Source/MatrixFunctions/arm_mat_scale_q15.c ****       *pOut++ = (q15_t) (__SSAT(((q31_t) (*pIn++) * scaleFract) >> kShift, 16));
ARM GAS  /tmp/ccG13w40.s 			page 5


  69              		.loc 1 154 7 view .LVU17
  70              	.LBB2:
  71              		.loc 1 154 26 view .LVU18
  72              		.loc 1 154 26 view .LVU19
  73 0014 34F8023B 		ldrh	r3, [r4], #2
  74              	.LVL5:
  75              		.loc 1 154 26 is_stmt 0 view .LVU20
  76              	.LBE2:
 149:./Libraries/CMSIS/DSP/Source/MatrixFunctions/arm_mat_scale_q15.c ****     {
  77              		.loc 1 149 11 view .LVU21
  78 0018 013E     		subs	r6, r6, #1
  79              	.LVL6:
  80              	.LBB3:
  81              		.loc 1 154 26 view .LVU22
  82 001a 13FB01F3 		smulbb	r3, r3, r1
  83 001e 43FA02F3 		asr	r3, r3, r2
  84              		.syntax unified
  85              	@ 154 "./Libraries/CMSIS/DSP/Source/MatrixFunctions/arm_mat_scale_q15.c" 1
  86 0022 03F30F03 		ssat r3, #16, r3
  87              	@ 0 "" 2
  88              	.LVL7:
  89              		.loc 1 154 26 is_stmt 1 view .LVU23
  90              		.loc 1 154 26 is_stmt 0 view .LVU24
  91              		.thumb
  92              		.syntax unified
  93              	.LBE3:
  94              		.loc 1 154 17 view .LVU25
  95 0026 25F8023B 		strh	r3, [r5], #2	@ movhi
  96              	.LVL8:
 155:./Libraries/CMSIS/DSP/Source/MatrixFunctions/arm_mat_scale_q15.c **** 
 156:./Libraries/CMSIS/DSP/Source/MatrixFunctions/arm_mat_scale_q15.c ****       /* Decrement loop counter */
 157:./Libraries/CMSIS/DSP/Source/MatrixFunctions/arm_mat_scale_q15.c ****       blkCnt--;
  97              		.loc 1 157 7 is_stmt 1 view .LVU26
 149:./Libraries/CMSIS/DSP/Source/MatrixFunctions/arm_mat_scale_q15.c ****     {
  98              		.loc 1 149 11 view .LVU27
  99 002a F3D1     		bne	.L2
 100              	.LVL9:
 101              	.L6:
 158:./Libraries/CMSIS/DSP/Source/MatrixFunctions/arm_mat_scale_q15.c ****     }
 159:./Libraries/CMSIS/DSP/Source/MatrixFunctions/arm_mat_scale_q15.c **** 
 160:./Libraries/CMSIS/DSP/Source/MatrixFunctions/arm_mat_scale_q15.c ****     /* Set status as ARM_MATH_SUCCESS */
 161:./Libraries/CMSIS/DSP/Source/MatrixFunctions/arm_mat_scale_q15.c ****     status = ARM_MATH_SUCCESS;
 162:./Libraries/CMSIS/DSP/Source/MatrixFunctions/arm_mat_scale_q15.c ****   }
 163:./Libraries/CMSIS/DSP/Source/MatrixFunctions/arm_mat_scale_q15.c **** 
 164:./Libraries/CMSIS/DSP/Source/MatrixFunctions/arm_mat_scale_q15.c ****   /* Return to application */
 165:./Libraries/CMSIS/DSP/Source/MatrixFunctions/arm_mat_scale_q15.c ****   return (status);
 166:./Libraries/CMSIS/DSP/Source/MatrixFunctions/arm_mat_scale_q15.c **** }
 102              		.loc 1 166 1 is_stmt 0 view .LVU28
 103 002c 0020     		movs	r0, #0
 104              	.LVL10:
 105              		.loc 1 166 1 view .LVU29
 106 002e 70BC     		pop	{r4, r5, r6}
 107              	.LCFI1:
 108              		.cfi_restore 6
 109              		.cfi_restore 5
 110              		.cfi_restore 4
 111              		.cfi_def_cfa_offset 0
ARM GAS  /tmp/ccG13w40.s 			page 6


 112              	.LVL11:
 113              		.loc 1 166 1 view .LVU30
 114 0030 7047     		bx	lr
 115              		.cfi_endproc
 116              	.LFE145:
 118 0032 00BF     		.text
 119              	.Letext0:
 120              		.file 2 "/usr/lib/gcc/arm-none-eabi/9.2.1/include/stdint.h"
 121              		.file 3 "/usr/lib/gcc/arm-none-eabi/9.2.1/include/stddef.h"
 122              		.file 4 "/usr/include/newlib/sys/_types.h"
 123              		.file 5 "/usr/include/newlib/sys/reent.h"
 124              		.file 6 "/usr/include/newlib/sys/lock.h"
 125              		.file 7 "/usr/include/newlib/math.h"
 126              		.file 8 "./Libraries/CMSIS/DSP/Include/arm_math.h"
ARM GAS  /tmp/ccG13w40.s 			page 7

