ARM GAS  /tmp/ccYejWuY.s 			page 1


   1              		.cpu cortex-m7
   2              		.eabi_attribute 28, 1
   3              		.eabi_attribute 20, 1
   4              		.eabi_attribute 21, 1
   5              		.eabi_attribute 23, 3
   6              		.eabi_attribute 24, 1
   7              		.eabi_attribute 25, 1
   8              		.eabi_attribute 26, 1
   9              		.eabi_attribute 30, 2
  10              		.eabi_attribute 34, 1
  11              		.eabi_attribute 18, 4
  12              		.file	"arm_cmplx_mult_cmplx_q31.c"
  13              		.text
  14              	.Ltext0:
  15              		.cfi_sections	.debug_frame
  16              		.section	.text.arm_cmplx_mult_cmplx_q31,"ax",%progbits
  17              		.align	1
  18              		.p2align 2,,3
  19              		.global	arm_cmplx_mult_cmplx_q31
  20              		.arch armv7e-m
  21              		.syntax unified
  22              		.thumb
  23              		.thumb_func
  24              		.fpu fpv5-d16
  26              	arm_cmplx_mult_cmplx_q31:
  27              	.LVL0:
  28              	.LFB145:
  29              		.file 1 "./Libraries/CMSIS/DSP/Source/ComplexMathFunctions/arm_cmplx_mult_cmplx_q31.c"
   1:./Libraries/CMSIS/DSP/Source/ComplexMathFunctions/arm_cmplx_mult_cmplx_q31.c **** /* ----------------------------------------------------------------------
   2:./Libraries/CMSIS/DSP/Source/ComplexMathFunctions/arm_cmplx_mult_cmplx_q31.c ****  * Project:      CMSIS DSP Library
   3:./Libraries/CMSIS/DSP/Source/ComplexMathFunctions/arm_cmplx_mult_cmplx_q31.c ****  * Title:        arm_cmplx_mult_cmplx_q31.c
   4:./Libraries/CMSIS/DSP/Source/ComplexMathFunctions/arm_cmplx_mult_cmplx_q31.c ****  * Description:  Q31 complex-by-complex multiplication
   5:./Libraries/CMSIS/DSP/Source/ComplexMathFunctions/arm_cmplx_mult_cmplx_q31.c ****  *
   6:./Libraries/CMSIS/DSP/Source/ComplexMathFunctions/arm_cmplx_mult_cmplx_q31.c ****  * $Date:        18. March 2019
   7:./Libraries/CMSIS/DSP/Source/ComplexMathFunctions/arm_cmplx_mult_cmplx_q31.c ****  * $Revision:    V1.6.0
   8:./Libraries/CMSIS/DSP/Source/ComplexMathFunctions/arm_cmplx_mult_cmplx_q31.c ****  *
   9:./Libraries/CMSIS/DSP/Source/ComplexMathFunctions/arm_cmplx_mult_cmplx_q31.c ****  * Target Processor: Cortex-M cores
  10:./Libraries/CMSIS/DSP/Source/ComplexMathFunctions/arm_cmplx_mult_cmplx_q31.c ****  * -------------------------------------------------------------------- */
  11:./Libraries/CMSIS/DSP/Source/ComplexMathFunctions/arm_cmplx_mult_cmplx_q31.c **** /*
  12:./Libraries/CMSIS/DSP/Source/ComplexMathFunctions/arm_cmplx_mult_cmplx_q31.c ****  * Copyright (C) 2010-2019 ARM Limited or its affiliates. All rights reserved.
  13:./Libraries/CMSIS/DSP/Source/ComplexMathFunctions/arm_cmplx_mult_cmplx_q31.c ****  *
  14:./Libraries/CMSIS/DSP/Source/ComplexMathFunctions/arm_cmplx_mult_cmplx_q31.c ****  * SPDX-License-Identifier: Apache-2.0
  15:./Libraries/CMSIS/DSP/Source/ComplexMathFunctions/arm_cmplx_mult_cmplx_q31.c ****  *
  16:./Libraries/CMSIS/DSP/Source/ComplexMathFunctions/arm_cmplx_mult_cmplx_q31.c ****  * Licensed under the Apache License, Version 2.0 (the License); you may
  17:./Libraries/CMSIS/DSP/Source/ComplexMathFunctions/arm_cmplx_mult_cmplx_q31.c ****  * not use this file except in compliance with the License.
  18:./Libraries/CMSIS/DSP/Source/ComplexMathFunctions/arm_cmplx_mult_cmplx_q31.c ****  * You may obtain a copy of the License at
  19:./Libraries/CMSIS/DSP/Source/ComplexMathFunctions/arm_cmplx_mult_cmplx_q31.c ****  *
  20:./Libraries/CMSIS/DSP/Source/ComplexMathFunctions/arm_cmplx_mult_cmplx_q31.c ****  * www.apache.org/licenses/LICENSE-2.0
  21:./Libraries/CMSIS/DSP/Source/ComplexMathFunctions/arm_cmplx_mult_cmplx_q31.c ****  *
  22:./Libraries/CMSIS/DSP/Source/ComplexMathFunctions/arm_cmplx_mult_cmplx_q31.c ****  * Unless required by applicable law or agreed to in writing, software
  23:./Libraries/CMSIS/DSP/Source/ComplexMathFunctions/arm_cmplx_mult_cmplx_q31.c ****  * distributed under the License is distributed on an AS IS BASIS, WITHOUT
  24:./Libraries/CMSIS/DSP/Source/ComplexMathFunctions/arm_cmplx_mult_cmplx_q31.c ****  * WARRANTIES OR CONDITIONS OF ANY KIND, either express or implied.
  25:./Libraries/CMSIS/DSP/Source/ComplexMathFunctions/arm_cmplx_mult_cmplx_q31.c ****  * See the License for the specific language governing permissions and
  26:./Libraries/CMSIS/DSP/Source/ComplexMathFunctions/arm_cmplx_mult_cmplx_q31.c ****  * limitations under the License.
  27:./Libraries/CMSIS/DSP/Source/ComplexMathFunctions/arm_cmplx_mult_cmplx_q31.c ****  */
  28:./Libraries/CMSIS/DSP/Source/ComplexMathFunctions/arm_cmplx_mult_cmplx_q31.c **** 
  29:./Libraries/CMSIS/DSP/Source/ComplexMathFunctions/arm_cmplx_mult_cmplx_q31.c **** #include "arm_math.h"
ARM GAS  /tmp/ccYejWuY.s 			page 2


  30:./Libraries/CMSIS/DSP/Source/ComplexMathFunctions/arm_cmplx_mult_cmplx_q31.c **** 
  31:./Libraries/CMSIS/DSP/Source/ComplexMathFunctions/arm_cmplx_mult_cmplx_q31.c **** /**
  32:./Libraries/CMSIS/DSP/Source/ComplexMathFunctions/arm_cmplx_mult_cmplx_q31.c ****   @ingroup groupCmplxMath
  33:./Libraries/CMSIS/DSP/Source/ComplexMathFunctions/arm_cmplx_mult_cmplx_q31.c ****  */
  34:./Libraries/CMSIS/DSP/Source/ComplexMathFunctions/arm_cmplx_mult_cmplx_q31.c **** 
  35:./Libraries/CMSIS/DSP/Source/ComplexMathFunctions/arm_cmplx_mult_cmplx_q31.c **** /**
  36:./Libraries/CMSIS/DSP/Source/ComplexMathFunctions/arm_cmplx_mult_cmplx_q31.c ****   @addtogroup CmplxByCmplxMult
  37:./Libraries/CMSIS/DSP/Source/ComplexMathFunctions/arm_cmplx_mult_cmplx_q31.c ****   @{
  38:./Libraries/CMSIS/DSP/Source/ComplexMathFunctions/arm_cmplx_mult_cmplx_q31.c ****  */
  39:./Libraries/CMSIS/DSP/Source/ComplexMathFunctions/arm_cmplx_mult_cmplx_q31.c **** 
  40:./Libraries/CMSIS/DSP/Source/ComplexMathFunctions/arm_cmplx_mult_cmplx_q31.c **** /**
  41:./Libraries/CMSIS/DSP/Source/ComplexMathFunctions/arm_cmplx_mult_cmplx_q31.c ****   @brief         Q31 complex-by-complex multiplication.
  42:./Libraries/CMSIS/DSP/Source/ComplexMathFunctions/arm_cmplx_mult_cmplx_q31.c ****   @param[in]     pSrcA       points to first input vector
  43:./Libraries/CMSIS/DSP/Source/ComplexMathFunctions/arm_cmplx_mult_cmplx_q31.c ****   @param[in]     pSrcB       points to second input vector
  44:./Libraries/CMSIS/DSP/Source/ComplexMathFunctions/arm_cmplx_mult_cmplx_q31.c ****   @param[out]    pDst        points to output vector
  45:./Libraries/CMSIS/DSP/Source/ComplexMathFunctions/arm_cmplx_mult_cmplx_q31.c ****   @param[in]     numSamples  number of samples in each vector
  46:./Libraries/CMSIS/DSP/Source/ComplexMathFunctions/arm_cmplx_mult_cmplx_q31.c ****   @return        none
  47:./Libraries/CMSIS/DSP/Source/ComplexMathFunctions/arm_cmplx_mult_cmplx_q31.c **** 
  48:./Libraries/CMSIS/DSP/Source/ComplexMathFunctions/arm_cmplx_mult_cmplx_q31.c ****   @par           Scaling and Overflow Behavior
  49:./Libraries/CMSIS/DSP/Source/ComplexMathFunctions/arm_cmplx_mult_cmplx_q31.c ****                    The function implements 1.31 by 1.31 multiplications and finally output is conve
  50:./Libraries/CMSIS/DSP/Source/ComplexMathFunctions/arm_cmplx_mult_cmplx_q31.c ****                    Input down scaling is not required.
  51:./Libraries/CMSIS/DSP/Source/ComplexMathFunctions/arm_cmplx_mult_cmplx_q31.c ****  */
  52:./Libraries/CMSIS/DSP/Source/ComplexMathFunctions/arm_cmplx_mult_cmplx_q31.c **** 
  53:./Libraries/CMSIS/DSP/Source/ComplexMathFunctions/arm_cmplx_mult_cmplx_q31.c **** void arm_cmplx_mult_cmplx_q31(
  54:./Libraries/CMSIS/DSP/Source/ComplexMathFunctions/arm_cmplx_mult_cmplx_q31.c ****   const q31_t * pSrcA,
  55:./Libraries/CMSIS/DSP/Source/ComplexMathFunctions/arm_cmplx_mult_cmplx_q31.c ****   const q31_t * pSrcB,
  56:./Libraries/CMSIS/DSP/Source/ComplexMathFunctions/arm_cmplx_mult_cmplx_q31.c ****         q31_t * pDst,
  57:./Libraries/CMSIS/DSP/Source/ComplexMathFunctions/arm_cmplx_mult_cmplx_q31.c ****         uint32_t numSamples)
  58:./Libraries/CMSIS/DSP/Source/ComplexMathFunctions/arm_cmplx_mult_cmplx_q31.c **** {
  30              		.loc 1 58 1 view -0
  31              		.cfi_startproc
  32              		@ args = 0, pretend = 0, frame = 8
  33              		@ frame_needed = 0, uses_anonymous_args = 0
  59:./Libraries/CMSIS/DSP/Source/ComplexMathFunctions/arm_cmplx_mult_cmplx_q31.c ****         uint32_t blkCnt;                               /* Loop counter */
  34              		.loc 1 59 9 view .LVU1
  60:./Libraries/CMSIS/DSP/Source/ComplexMathFunctions/arm_cmplx_mult_cmplx_q31.c ****         q31_t a, b, c, d;                              /* Temporary variables */
  35              		.loc 1 60 9 view .LVU2
  61:./Libraries/CMSIS/DSP/Source/ComplexMathFunctions/arm_cmplx_mult_cmplx_q31.c **** 
  62:./Libraries/CMSIS/DSP/Source/ComplexMathFunctions/arm_cmplx_mult_cmplx_q31.c **** #if defined (ARM_MATH_LOOPUNROLL)
  63:./Libraries/CMSIS/DSP/Source/ComplexMathFunctions/arm_cmplx_mult_cmplx_q31.c **** 
  64:./Libraries/CMSIS/DSP/Source/ComplexMathFunctions/arm_cmplx_mult_cmplx_q31.c ****   /* Loop unrolling: Compute 4 outputs at a time */
  65:./Libraries/CMSIS/DSP/Source/ComplexMathFunctions/arm_cmplx_mult_cmplx_q31.c ****   blkCnt = numSamples >> 2U;
  66:./Libraries/CMSIS/DSP/Source/ComplexMathFunctions/arm_cmplx_mult_cmplx_q31.c **** 
  67:./Libraries/CMSIS/DSP/Source/ComplexMathFunctions/arm_cmplx_mult_cmplx_q31.c ****   while (blkCnt > 0U)
  68:./Libraries/CMSIS/DSP/Source/ComplexMathFunctions/arm_cmplx_mult_cmplx_q31.c ****   {
  69:./Libraries/CMSIS/DSP/Source/ComplexMathFunctions/arm_cmplx_mult_cmplx_q31.c ****     /* C[2 * i    ] = A[2 * i] * B[2 * i    ] - A[2 * i + 1] * B[2 * i + 1]. */
  70:./Libraries/CMSIS/DSP/Source/ComplexMathFunctions/arm_cmplx_mult_cmplx_q31.c ****     /* C[2 * i + 1] = A[2 * i] * B[2 * i + 1] + A[2 * i + 1] * B[2 * i    ]. */
  71:./Libraries/CMSIS/DSP/Source/ComplexMathFunctions/arm_cmplx_mult_cmplx_q31.c **** 
  72:./Libraries/CMSIS/DSP/Source/ComplexMathFunctions/arm_cmplx_mult_cmplx_q31.c ****     a = *pSrcA++;
  73:./Libraries/CMSIS/DSP/Source/ComplexMathFunctions/arm_cmplx_mult_cmplx_q31.c ****     b = *pSrcA++;
  74:./Libraries/CMSIS/DSP/Source/ComplexMathFunctions/arm_cmplx_mult_cmplx_q31.c ****     c = *pSrcB++;
  75:./Libraries/CMSIS/DSP/Source/ComplexMathFunctions/arm_cmplx_mult_cmplx_q31.c ****     d = *pSrcB++;
  76:./Libraries/CMSIS/DSP/Source/ComplexMathFunctions/arm_cmplx_mult_cmplx_q31.c ****     /* store result in 3.29 format in destination buffer. */
  77:./Libraries/CMSIS/DSP/Source/ComplexMathFunctions/arm_cmplx_mult_cmplx_q31.c ****     *pDst++ = (q31_t) ( (((q63_t) a * c) >> 33) - (((q63_t) b * d) >> 33) );
  78:./Libraries/CMSIS/DSP/Source/ComplexMathFunctions/arm_cmplx_mult_cmplx_q31.c ****     *pDst++ = (q31_t) ( (((q63_t) a * d) >> 33) + (((q63_t) b * c) >> 33) );
  79:./Libraries/CMSIS/DSP/Source/ComplexMathFunctions/arm_cmplx_mult_cmplx_q31.c **** 
  80:./Libraries/CMSIS/DSP/Source/ComplexMathFunctions/arm_cmplx_mult_cmplx_q31.c ****     a = *pSrcA++;
ARM GAS  /tmp/ccYejWuY.s 			page 3


  81:./Libraries/CMSIS/DSP/Source/ComplexMathFunctions/arm_cmplx_mult_cmplx_q31.c ****     b = *pSrcA++;
  82:./Libraries/CMSIS/DSP/Source/ComplexMathFunctions/arm_cmplx_mult_cmplx_q31.c ****     c = *pSrcB++;
  83:./Libraries/CMSIS/DSP/Source/ComplexMathFunctions/arm_cmplx_mult_cmplx_q31.c ****     d = *pSrcB++;
  84:./Libraries/CMSIS/DSP/Source/ComplexMathFunctions/arm_cmplx_mult_cmplx_q31.c ****     *pDst++ = (q31_t) ( (((q63_t) a * c) >> 33) - (((q63_t) b * d) >> 33) );
  85:./Libraries/CMSIS/DSP/Source/ComplexMathFunctions/arm_cmplx_mult_cmplx_q31.c ****     *pDst++ = (q31_t) ( (((q63_t) a * d) >> 33) + (((q63_t) b * c) >> 33) );
  86:./Libraries/CMSIS/DSP/Source/ComplexMathFunctions/arm_cmplx_mult_cmplx_q31.c **** 
  87:./Libraries/CMSIS/DSP/Source/ComplexMathFunctions/arm_cmplx_mult_cmplx_q31.c ****     a = *pSrcA++;
  88:./Libraries/CMSIS/DSP/Source/ComplexMathFunctions/arm_cmplx_mult_cmplx_q31.c ****     b = *pSrcA++;
  89:./Libraries/CMSIS/DSP/Source/ComplexMathFunctions/arm_cmplx_mult_cmplx_q31.c ****     c = *pSrcB++;
  90:./Libraries/CMSIS/DSP/Source/ComplexMathFunctions/arm_cmplx_mult_cmplx_q31.c ****     d = *pSrcB++;
  91:./Libraries/CMSIS/DSP/Source/ComplexMathFunctions/arm_cmplx_mult_cmplx_q31.c ****     *pDst++ = (q31_t) ( (((q63_t) a * c) >> 33) - (((q63_t) b * d) >> 33) );
  92:./Libraries/CMSIS/DSP/Source/ComplexMathFunctions/arm_cmplx_mult_cmplx_q31.c ****     *pDst++ = (q31_t) ( (((q63_t) a * d) >> 33) + (((q63_t) b * c) >> 33) );
  93:./Libraries/CMSIS/DSP/Source/ComplexMathFunctions/arm_cmplx_mult_cmplx_q31.c **** 
  94:./Libraries/CMSIS/DSP/Source/ComplexMathFunctions/arm_cmplx_mult_cmplx_q31.c ****     a = *pSrcA++;
  95:./Libraries/CMSIS/DSP/Source/ComplexMathFunctions/arm_cmplx_mult_cmplx_q31.c ****     b = *pSrcA++;
  96:./Libraries/CMSIS/DSP/Source/ComplexMathFunctions/arm_cmplx_mult_cmplx_q31.c ****     c = *pSrcB++;
  97:./Libraries/CMSIS/DSP/Source/ComplexMathFunctions/arm_cmplx_mult_cmplx_q31.c ****     d = *pSrcB++;
  98:./Libraries/CMSIS/DSP/Source/ComplexMathFunctions/arm_cmplx_mult_cmplx_q31.c ****     *pDst++ = (q31_t) ( (((q63_t) a * c) >> 33) - (((q63_t) b * d) >> 33) );
  99:./Libraries/CMSIS/DSP/Source/ComplexMathFunctions/arm_cmplx_mult_cmplx_q31.c ****     *pDst++ = (q31_t) ( (((q63_t) a * d) >> 33) + (((q63_t) b * c) >> 33) );
 100:./Libraries/CMSIS/DSP/Source/ComplexMathFunctions/arm_cmplx_mult_cmplx_q31.c **** 
 101:./Libraries/CMSIS/DSP/Source/ComplexMathFunctions/arm_cmplx_mult_cmplx_q31.c ****     /* Decrement loop counter */
 102:./Libraries/CMSIS/DSP/Source/ComplexMathFunctions/arm_cmplx_mult_cmplx_q31.c ****     blkCnt--;
 103:./Libraries/CMSIS/DSP/Source/ComplexMathFunctions/arm_cmplx_mult_cmplx_q31.c ****   }
 104:./Libraries/CMSIS/DSP/Source/ComplexMathFunctions/arm_cmplx_mult_cmplx_q31.c **** 
 105:./Libraries/CMSIS/DSP/Source/ComplexMathFunctions/arm_cmplx_mult_cmplx_q31.c ****   /* Loop unrolling: Compute remaining outputs */
 106:./Libraries/CMSIS/DSP/Source/ComplexMathFunctions/arm_cmplx_mult_cmplx_q31.c ****   blkCnt = numSamples % 0x4U;
 107:./Libraries/CMSIS/DSP/Source/ComplexMathFunctions/arm_cmplx_mult_cmplx_q31.c **** 
 108:./Libraries/CMSIS/DSP/Source/ComplexMathFunctions/arm_cmplx_mult_cmplx_q31.c **** #else
 109:./Libraries/CMSIS/DSP/Source/ComplexMathFunctions/arm_cmplx_mult_cmplx_q31.c **** 
 110:./Libraries/CMSIS/DSP/Source/ComplexMathFunctions/arm_cmplx_mult_cmplx_q31.c ****   /* Initialize blkCnt with number of samples */
 111:./Libraries/CMSIS/DSP/Source/ComplexMathFunctions/arm_cmplx_mult_cmplx_q31.c ****   blkCnt = numSamples;
  36              		.loc 1 111 3 view .LVU3
 112:./Libraries/CMSIS/DSP/Source/ComplexMathFunctions/arm_cmplx_mult_cmplx_q31.c **** 
 113:./Libraries/CMSIS/DSP/Source/ComplexMathFunctions/arm_cmplx_mult_cmplx_q31.c **** #endif /* #if defined (ARM_MATH_LOOPUNROLL) */
 114:./Libraries/CMSIS/DSP/Source/ComplexMathFunctions/arm_cmplx_mult_cmplx_q31.c **** 
 115:./Libraries/CMSIS/DSP/Source/ComplexMathFunctions/arm_cmplx_mult_cmplx_q31.c ****   while (blkCnt > 0U)
  37              		.loc 1 115 3 view .LVU4
  38              		.loc 1 115 9 view .LVU5
  39 0000 93B3     		cbz	r3, .L9
  40 0002 01F1040C 		add	ip, r1, #4
  58:./Libraries/CMSIS/DSP/Source/ComplexMathFunctions/arm_cmplx_mult_cmplx_q31.c ****         uint32_t blkCnt;                               /* Loop counter */
  41              		.loc 1 58 1 is_stmt 0 view .LVU6
  42 0006 2DE9F04F 		push	{r4, r5, r6, r7, r8, r9, r10, fp, lr}
  43              	.LCFI0:
  44              		.cfi_def_cfa_offset 36
  45              		.cfi_offset 4, -36
  46              		.cfi_offset 5, -32
  47              		.cfi_offset 6, -28
  48              		.cfi_offset 7, -24
  49              		.cfi_offset 8, -20
  50              		.cfi_offset 9, -16
  51              		.cfi_offset 10, -12
  52              		.cfi_offset 11, -8
  53              		.cfi_offset 14, -4
  54 000a 9A46     		mov	r10, r3
  55 000c 83B0     		sub	sp, sp, #12
  56              	.LCFI1:
ARM GAS  /tmp/ccYejWuY.s 			page 4


  57              		.cfi_def_cfa_offset 48
  58              		.loc 1 115 9 view .LVU7
  59 000e 0023     		movs	r3, #0
  60              	.LVL1:
  61              		.loc 1 115 9 view .LVU8
  62 0010 00F1040E 		add	lr, r0, #4
  63 0014 02F1040B 		add	fp, r2, #4
  64              	.LVL2:
  65              	.L3:
 116:./Libraries/CMSIS/DSP/Source/ComplexMathFunctions/arm_cmplx_mult_cmplx_q31.c ****   {
 117:./Libraries/CMSIS/DSP/Source/ComplexMathFunctions/arm_cmplx_mult_cmplx_q31.c ****     /* C[2 * i    ] = A[2 * i] * B[2 * i    ] - A[2 * i + 1] * B[2 * i + 1]. */
 118:./Libraries/CMSIS/DSP/Source/ComplexMathFunctions/arm_cmplx_mult_cmplx_q31.c ****     /* C[2 * i + 1] = A[2 * i] * B[2 * i + 1] + A[2 * i + 1] * B[2 * i    ]. */
 119:./Libraries/CMSIS/DSP/Source/ComplexMathFunctions/arm_cmplx_mult_cmplx_q31.c **** 
 120:./Libraries/CMSIS/DSP/Source/ComplexMathFunctions/arm_cmplx_mult_cmplx_q31.c ****     a = *pSrcA++;
  66              		.loc 1 120 5 is_stmt 1 view .LVU9
 121:./Libraries/CMSIS/DSP/Source/ComplexMathFunctions/arm_cmplx_mult_cmplx_q31.c ****     b = *pSrcA++;
  67              		.loc 1 121 5 view .LVU10
  68              		.loc 1 121 7 is_stmt 0 view .LVU11
  69 0018 5EF83360 		ldr	r6, [lr, r3, lsl #3]
  70              	.LVL3:
 122:./Libraries/CMSIS/DSP/Source/ComplexMathFunctions/arm_cmplx_mult_cmplx_q31.c ****     c = *pSrcB++;
  71              		.loc 1 122 5 is_stmt 1 view .LVU12
 123:./Libraries/CMSIS/DSP/Source/ComplexMathFunctions/arm_cmplx_mult_cmplx_q31.c ****     d = *pSrcB++;
 124:./Libraries/CMSIS/DSP/Source/ComplexMathFunctions/arm_cmplx_mult_cmplx_q31.c **** 
 125:./Libraries/CMSIS/DSP/Source/ComplexMathFunctions/arm_cmplx_mult_cmplx_q31.c ****     /* store result in 3.29 format in destination buffer. */
 126:./Libraries/CMSIS/DSP/Source/ComplexMathFunctions/arm_cmplx_mult_cmplx_q31.c ****     *pDst++ = (q31_t) ( (((q63_t) a * c) >> 33) - (((q63_t) b * d) >> 33) );
  72              		.loc 1 126 63 is_stmt 0 view .LVU13
  73 001c 5CF83350 		ldr	r5, [ip, r3, lsl #3]
 122:./Libraries/CMSIS/DSP/Source/ComplexMathFunctions/arm_cmplx_mult_cmplx_q31.c ****     c = *pSrcB++;
  74              		.loc 1 122 7 view .LVU14
  75 0020 51F83340 		ldr	r4, [r1, r3, lsl #3]
  76              	.LVL4:
 123:./Libraries/CMSIS/DSP/Source/ComplexMathFunctions/arm_cmplx_mult_cmplx_q31.c ****     d = *pSrcB++;
  77              		.loc 1 123 5 is_stmt 1 view .LVU15
  78              		.loc 1 126 5 view .LVU16
  79              		.loc 1 126 63 is_stmt 0 view .LVU17
  80 0024 86FB0589 		smull	r8, r9, r6, r5
  81              		.loc 1 126 37 view .LVU18
  82 0028 50F83350 		ldr	r5, [r0, r3, lsl #3]
  83              	.LVL5:
 127:./Libraries/CMSIS/DSP/Source/ComplexMathFunctions/arm_cmplx_mult_cmplx_q31.c ****     *pDst++ = (q31_t) ( (((q63_t) a * d) >> 33) + (((q63_t) b * c) >> 33) );
  84              		.loc 1 127 63 view .LVU19
  85 002c 84FB0667 		smull	r6, r7, r4, r6
  86              	.LVL6:
  87              		.loc 1 127 37 view .LVU20
  88 0030 5CF83360 		ldr	r6, [ip, r3, lsl #3]
 126:./Libraries/CMSIS/DSP/Source/ComplexMathFunctions/arm_cmplx_mult_cmplx_q31.c ****     *pDst++ = (q31_t) ( (((q63_t) a * d) >> 33) + (((q63_t) b * c) >> 33) );
  89              		.loc 1 126 37 view .LVU21
  90 0034 85FB0445 		smull	r4, r5, r5, r4
  91              	.LVL7:
 126:./Libraries/CMSIS/DSP/Source/ComplexMathFunctions/arm_cmplx_mult_cmplx_q31.c ****     *pDst++ = (q31_t) ( (((q63_t) a * d) >> 33) + (((q63_t) b * c) >> 33) );
  92              		.loc 1 126 68 view .LVU22
  93 0038 4FEA6908 		asr	r8, r9, #1
 126:./Libraries/CMSIS/DSP/Source/ComplexMathFunctions/arm_cmplx_mult_cmplx_q31.c ****     *pDst++ = (q31_t) ( (((q63_t) a * d) >> 33) + (((q63_t) b * c) >> 33) );
  94              		.loc 1 126 37 view .LVU23
  95 003c CDE90045 		strd	r4, [sp]
  96              		.loc 1 127 37 view .LVU24
ARM GAS  /tmp/ccYejWuY.s 			page 5


  97 0040 50F83350 		ldr	r5, [r0, r3, lsl #3]
  98              		.loc 1 127 68 view .LVU25
  99 0044 7C10     		asrs	r4, r7, #1
 100              		.loc 1 127 37 view .LVU26
 101 0046 85FB0667 		smull	r6, r7, r5, r6
 126:./Libraries/CMSIS/DSP/Source/ComplexMathFunctions/arm_cmplx_mult_cmplx_q31.c ****     *pDst++ = (q31_t) ( (((q63_t) a * d) >> 33) + (((q63_t) b * c) >> 33) );
 102              		.loc 1 126 49 view .LVU27
 103 004a 019D     		ldr	r5, [sp, #4]
 104              		.loc 1 127 49 view .LVU28
 105 004c 04EB6704 		add	r4, r4, r7, asr #1
 126:./Libraries/CMSIS/DSP/Source/ComplexMathFunctions/arm_cmplx_mult_cmplx_q31.c ****     *pDst++ = (q31_t) ( (((q63_t) a * d) >> 33) + (((q63_t) b * c) >> 33) );
 106              		.loc 1 126 49 view .LVU29
 107 0050 C8EB6505 		rsb	r5, r8, r5, asr #1
 126:./Libraries/CMSIS/DSP/Source/ComplexMathFunctions/arm_cmplx_mult_cmplx_q31.c ****     *pDst++ = (q31_t) ( (((q63_t) a * d) >> 33) + (((q63_t) b * c) >> 33) );
 108              		.loc 1 126 13 view .LVU30
 109 0054 42F83350 		str	r5, [r2, r3, lsl #3]
 110              	.LVL8:
 111              		.loc 1 127 5 is_stmt 1 view .LVU31
 112              		.loc 1 127 13 is_stmt 0 view .LVU32
 113 0058 4BF83340 		str	r4, [fp, r3, lsl #3]
 128:./Libraries/CMSIS/DSP/Source/ComplexMathFunctions/arm_cmplx_mult_cmplx_q31.c **** 
 129:./Libraries/CMSIS/DSP/Source/ComplexMathFunctions/arm_cmplx_mult_cmplx_q31.c ****     /* Decrement loop counter */
 130:./Libraries/CMSIS/DSP/Source/ComplexMathFunctions/arm_cmplx_mult_cmplx_q31.c ****     blkCnt--;
 114              		.loc 1 130 5 is_stmt 1 view .LVU33
 115              	.LVL9:
 115:./Libraries/CMSIS/DSP/Source/ComplexMathFunctions/arm_cmplx_mult_cmplx_q31.c ****   {
 116              		.loc 1 115 9 view .LVU34
 117 005c 0133     		adds	r3, r3, #1
 118              	.LVL10:
 115:./Libraries/CMSIS/DSP/Source/ComplexMathFunctions/arm_cmplx_mult_cmplx_q31.c ****   {
 119              		.loc 1 115 9 is_stmt 0 view .LVU35
 120 005e 9A45     		cmp	r10, r3
 121 0060 DAD1     		bne	.L3
 131:./Libraries/CMSIS/DSP/Source/ComplexMathFunctions/arm_cmplx_mult_cmplx_q31.c ****   }
 132:./Libraries/CMSIS/DSP/Source/ComplexMathFunctions/arm_cmplx_mult_cmplx_q31.c **** 
 133:./Libraries/CMSIS/DSP/Source/ComplexMathFunctions/arm_cmplx_mult_cmplx_q31.c **** }
 122              		.loc 1 133 1 view .LVU36
 123 0062 03B0     		add	sp, sp, #12
 124              	.LCFI2:
 125              		.cfi_def_cfa_offset 36
 126              		@ sp needed
 127 0064 BDE8F08F 		pop	{r4, r5, r6, r7, r8, r9, r10, fp, pc}
 128              	.LVL11:
 129              	.L9:
 130              	.LCFI3:
 131              		.cfi_def_cfa_offset 0
 132              		.cfi_restore 4
 133              		.cfi_restore 5
 134              		.cfi_restore 6
 135              		.cfi_restore 7
 136              		.cfi_restore 8
 137              		.cfi_restore 9
 138              		.cfi_restore 10
 139              		.cfi_restore 11
 140              		.cfi_restore 14
 141              		.loc 1 133 1 view .LVU37
 142 0068 7047     		bx	lr
ARM GAS  /tmp/ccYejWuY.s 			page 6


 143              		.cfi_endproc
 144              	.LFE145:
 146 006a 00BF     		.text
 147              	.Letext0:
 148              		.file 2 "/usr/lib/gcc/arm-none-eabi/9.2.1/include/stdint.h"
 149              		.file 3 "/usr/lib/gcc/arm-none-eabi/9.2.1/include/stddef.h"
 150              		.file 4 "/usr/include/newlib/sys/_types.h"
 151              		.file 5 "/usr/include/newlib/sys/reent.h"
 152              		.file 6 "/usr/include/newlib/sys/lock.h"
 153              		.file 7 "/usr/include/newlib/math.h"
 154              		.file 8 "./Libraries/CMSIS/DSP/Include/arm_math.h"
ARM GAS  /tmp/ccYejWuY.s 			page 7

