ARM GAS  /var/folders/wl/rshn8xbx1dsfj1zgryf4g1240000gn/T//ccl9qlqB.s 			page 1


   1              		.cpu cortex-m7
   2              		.eabi_attribute 28, 1
   3              		.eabi_attribute 20, 1
   4              		.eabi_attribute 21, 1
   5              		.eabi_attribute 23, 3
   6              		.eabi_attribute 24, 1
   7              		.eabi_attribute 25, 1
   8              		.eabi_attribute 26, 1
   9              		.eabi_attribute 30, 2
  10              		.eabi_attribute 34, 1
  11              		.eabi_attribute 18, 4
  12              		.file	"arm_bitreversal2.c"
  13              		.text
  14              	.Ltext0:
  15              		.cfi_sections	.debug_frame
  16              		.section	.text.arm_bitreversal_32,"ax",%progbits
  17              		.align	1
  18              		.p2align 2,,3
  19              		.global	arm_bitreversal_32
  20              		.arch armv7e-m
  21              		.syntax unified
  22              		.thumb
  23              		.thumb_func
  24              		.fpu fpv5-d16
  26              	arm_bitreversal_32:
  27              	.LVL0:
  28              	.LFB145:
  29              		.file 1 ".//Libraries/CMSIS/DSP/Source/TransformFunctions/arm_bitreversal2.c"
   1:.//Libraries/CMSIS/DSP/Source/TransformFunctions/arm_bitreversal2.c **** /* ----------------------------------------------------------------------
   2:.//Libraries/CMSIS/DSP/Source/TransformFunctions/arm_bitreversal2.c ****  * Project:      CMSIS DSP Library
   3:.//Libraries/CMSIS/DSP/Source/TransformFunctions/arm_bitreversal2.c ****  * Title:        arm_bitreversal2.c
   4:.//Libraries/CMSIS/DSP/Source/TransformFunctions/arm_bitreversal2.c ****  * Description:  Bitreversal functions
   5:.//Libraries/CMSIS/DSP/Source/TransformFunctions/arm_bitreversal2.c ****  *
   6:.//Libraries/CMSIS/DSP/Source/TransformFunctions/arm_bitreversal2.c ****  * $Date:        18. March 2019
   7:.//Libraries/CMSIS/DSP/Source/TransformFunctions/arm_bitreversal2.c ****  * $Revision:    V1.0.0
   8:.//Libraries/CMSIS/DSP/Source/TransformFunctions/arm_bitreversal2.c ****  *
   9:.//Libraries/CMSIS/DSP/Source/TransformFunctions/arm_bitreversal2.c ****  * Target Processor: Cortex-M cores
  10:.//Libraries/CMSIS/DSP/Source/TransformFunctions/arm_bitreversal2.c ****  * -------------------------------------------------------------------- */
  11:.//Libraries/CMSIS/DSP/Source/TransformFunctions/arm_bitreversal2.c **** /*
  12:.//Libraries/CMSIS/DSP/Source/TransformFunctions/arm_bitreversal2.c ****  * Copyright (C) 2019 ARM Limited or its affiliates. All rights reserved.
  13:.//Libraries/CMSIS/DSP/Source/TransformFunctions/arm_bitreversal2.c ****  *
  14:.//Libraries/CMSIS/DSP/Source/TransformFunctions/arm_bitreversal2.c ****  * SPDX-License-Identifier: Apache-2.0
  15:.//Libraries/CMSIS/DSP/Source/TransformFunctions/arm_bitreversal2.c ****  *
  16:.//Libraries/CMSIS/DSP/Source/TransformFunctions/arm_bitreversal2.c ****  * Licensed under the Apache License, Version 2.0 (the License); you may
  17:.//Libraries/CMSIS/DSP/Source/TransformFunctions/arm_bitreversal2.c ****  * not use this file except in compliance with the License.
  18:.//Libraries/CMSIS/DSP/Source/TransformFunctions/arm_bitreversal2.c ****  * You may obtain a copy of the License at
  19:.//Libraries/CMSIS/DSP/Source/TransformFunctions/arm_bitreversal2.c ****  *
  20:.//Libraries/CMSIS/DSP/Source/TransformFunctions/arm_bitreversal2.c ****  * www.apache.org/licenses/LICENSE-2.0
  21:.//Libraries/CMSIS/DSP/Source/TransformFunctions/arm_bitreversal2.c ****  *
  22:.//Libraries/CMSIS/DSP/Source/TransformFunctions/arm_bitreversal2.c ****  * Unless required by applicable law or agreed to in writing, software
  23:.//Libraries/CMSIS/DSP/Source/TransformFunctions/arm_bitreversal2.c ****  * distributed under the License is distributed on an AS IS BASIS, WITHOUT
  24:.//Libraries/CMSIS/DSP/Source/TransformFunctions/arm_bitreversal2.c ****  * WARRANTIES OR CONDITIONS OF ANY KIND, either express or implied.
  25:.//Libraries/CMSIS/DSP/Source/TransformFunctions/arm_bitreversal2.c ****  * See the License for the specific language governing permissions and
  26:.//Libraries/CMSIS/DSP/Source/TransformFunctions/arm_bitreversal2.c ****  * limitations under the License.
  27:.//Libraries/CMSIS/DSP/Source/TransformFunctions/arm_bitreversal2.c ****  */
  28:.//Libraries/CMSIS/DSP/Source/TransformFunctions/arm_bitreversal2.c **** 
  29:.//Libraries/CMSIS/DSP/Source/TransformFunctions/arm_bitreversal2.c **** #include "arm_math.h"
ARM GAS  /var/folders/wl/rshn8xbx1dsfj1zgryf4g1240000gn/T//ccl9qlqB.s 			page 2


  30:.//Libraries/CMSIS/DSP/Source/TransformFunctions/arm_bitreversal2.c **** #include "arm_common_tables.h"
  31:.//Libraries/CMSIS/DSP/Source/TransformFunctions/arm_bitreversal2.c **** 
  32:.//Libraries/CMSIS/DSP/Source/TransformFunctions/arm_bitreversal2.c **** /**
  33:.//Libraries/CMSIS/DSP/Source/TransformFunctions/arm_bitreversal2.c ****   @brief         In-place 32 bit reversal function.
  34:.//Libraries/CMSIS/DSP/Source/TransformFunctions/arm_bitreversal2.c ****   @param[in,out] pSrc        points to in-place buffer of unknown 32-bit data type
  35:.//Libraries/CMSIS/DSP/Source/TransformFunctions/arm_bitreversal2.c ****   @param[in]     bitRevLen   bit reversal table length
  36:.//Libraries/CMSIS/DSP/Source/TransformFunctions/arm_bitreversal2.c ****   @param[in]     pBitRevTab  points to bit reversal table
  37:.//Libraries/CMSIS/DSP/Source/TransformFunctions/arm_bitreversal2.c ****   @return        none
  38:.//Libraries/CMSIS/DSP/Source/TransformFunctions/arm_bitreversal2.c **** */
  39:.//Libraries/CMSIS/DSP/Source/TransformFunctions/arm_bitreversal2.c **** 
  40:.//Libraries/CMSIS/DSP/Source/TransformFunctions/arm_bitreversal2.c **** void arm_bitreversal_32(
  41:.//Libraries/CMSIS/DSP/Source/TransformFunctions/arm_bitreversal2.c ****         uint32_t *pSrc, 
  42:.//Libraries/CMSIS/DSP/Source/TransformFunctions/arm_bitreversal2.c ****   const uint16_t bitRevLen, 
  43:.//Libraries/CMSIS/DSP/Source/TransformFunctions/arm_bitreversal2.c ****   const uint16_t *pBitRevTab)
  44:.//Libraries/CMSIS/DSP/Source/TransformFunctions/arm_bitreversal2.c **** {
  30              		.loc 1 44 1 view -0
  31              		.cfi_startproc
  32              		@ args = 0, pretend = 0, frame = 0
  33              		@ frame_needed = 0, uses_anonymous_args = 0
  45:.//Libraries/CMSIS/DSP/Source/TransformFunctions/arm_bitreversal2.c ****   uint32_t a, b, i, tmp;
  34              		.loc 1 45 3 view .LVU1
  46:.//Libraries/CMSIS/DSP/Source/TransformFunctions/arm_bitreversal2.c **** 
  47:.//Libraries/CMSIS/DSP/Source/TransformFunctions/arm_bitreversal2.c ****   for (i = 0; i < bitRevLen; )
  35              		.loc 1 47 3 view .LVU2
  36              		.loc 1 47 15 view .LVU3
  37              		.loc 1 47 3 is_stmt 0 view .LVU4
  38 0000 21B3     		cbz	r1, .L9
  39 0002 02F1020C 		add	ip, r2, #2
  44:.//Libraries/CMSIS/DSP/Source/TransformFunctions/arm_bitreversal2.c ****   uint32_t a, b, i, tmp;
  40              		.loc 1 44 1 view .LVU5
  41 0006 2DE9F041 		push	{r4, r5, r6, r7, r8, lr}
  42              	.LCFI0:
  43              		.cfi_def_cfa_offset 24
  44              		.cfi_offset 4, -24
  45              		.cfi_offset 5, -20
  46              		.cfi_offset 6, -16
  47              		.cfi_offset 7, -12
  48              		.cfi_offset 8, -8
  49              		.cfi_offset 14, -4
  50 000a 9046     		mov	r8, r2
  51              		.loc 1 47 10 view .LVU6
  52 000c 0025     		movs	r5, #0
  53              	.LVL1:
  54              	.L3:
  48:.//Libraries/CMSIS/DSP/Source/TransformFunctions/arm_bitreversal2.c ****   {
  49:.//Libraries/CMSIS/DSP/Source/TransformFunctions/arm_bitreversal2.c ****      a = pBitRevTab[i    ] >> 2;
  55              		.loc 1 49 6 is_stmt 1 view .LVU7
  50:.//Libraries/CMSIS/DSP/Source/TransformFunctions/arm_bitreversal2.c ****      b = pBitRevTab[i + 1] >> 2;
  56              		.loc 1 50 6 view .LVU8
  51:.//Libraries/CMSIS/DSP/Source/TransformFunctions/arm_bitreversal2.c **** 
  52:.//Libraries/CMSIS/DSP/Source/TransformFunctions/arm_bitreversal2.c ****      //real
  53:.//Libraries/CMSIS/DSP/Source/TransformFunctions/arm_bitreversal2.c ****      tmp = pSrc[a];
  57              		.loc 1 53 6 view .LVU9
  49:.//Libraries/CMSIS/DSP/Source/TransformFunctions/arm_bitreversal2.c ****      b = pBitRevTab[i + 1] >> 2;
  58              		.loc 1 49 28 is_stmt 0 view .LVU10
  59 000e 38F81540 		ldrh	r4, [r8, r5, lsl #1]
  50:.//Libraries/CMSIS/DSP/Source/TransformFunctions/arm_bitreversal2.c ****      b = pBitRevTab[i + 1] >> 2;
ARM GAS  /var/folders/wl/rshn8xbx1dsfj1zgryf4g1240000gn/T//ccl9qlqB.s 			page 3


  60              		.loc 1 50 28 view .LVU11
  61 0012 3CF81530 		ldrh	r3, [ip, r5, lsl #1]
  54:.//Libraries/CMSIS/DSP/Source/TransformFunctions/arm_bitreversal2.c ****      pSrc[a] = pSrc[b];
  55:.//Libraries/CMSIS/DSP/Source/TransformFunctions/arm_bitreversal2.c ****      pSrc[b] = tmp;
  56:.//Libraries/CMSIS/DSP/Source/TransformFunctions/arm_bitreversal2.c **** 
  57:.//Libraries/CMSIS/DSP/Source/TransformFunctions/arm_bitreversal2.c ****      //complex
  58:.//Libraries/CMSIS/DSP/Source/TransformFunctions/arm_bitreversal2.c ****      tmp = pSrc[a+1];
  59:.//Libraries/CMSIS/DSP/Source/TransformFunctions/arm_bitreversal2.c ****      pSrc[a+1] = pSrc[b+1];
  60:.//Libraries/CMSIS/DSP/Source/TransformFunctions/arm_bitreversal2.c ****      pSrc[b+1] = tmp;
  61:.//Libraries/CMSIS/DSP/Source/TransformFunctions/arm_bitreversal2.c **** 
  62:.//Libraries/CMSIS/DSP/Source/TransformFunctions/arm_bitreversal2.c ****     i += 2;
  62              		.loc 1 62 7 view .LVU12
  63 0016 0235     		adds	r5, r5, #2
  64              	.LVL2:
  49:.//Libraries/CMSIS/DSP/Source/TransformFunctions/arm_bitreversal2.c ****      b = pBitRevTab[i + 1] >> 2;
  65              		.loc 1 49 8 view .LVU13
  66 0018 A408     		lsrs	r4, r4, #2
  50:.//Libraries/CMSIS/DSP/Source/TransformFunctions/arm_bitreversal2.c **** 
  67              		.loc 1 50 8 view .LVU14
  68 001a 9B08     		lsrs	r3, r3, #2
  47:.//Libraries/CMSIS/DSP/Source/TransformFunctions/arm_bitreversal2.c ****   {
  69              		.loc 1 47 3 view .LVU15
  70 001c 8D42     		cmp	r5, r1
  53:.//Libraries/CMSIS/DSP/Source/TransformFunctions/arm_bitreversal2.c ****      pSrc[a] = pSrc[b];
  71              		.loc 1 53 16 view .LVU16
  72 001e 4FEA8407 		lsl	r7, r4, #2
  53:.//Libraries/CMSIS/DSP/Source/TransformFunctions/arm_bitreversal2.c ****      pSrc[a] = pSrc[b];
  73              		.loc 1 53 10 view .LVU17
  74 0022 50F824E0 		ldr	lr, [r0, r4, lsl #2]
  75              	.LVL3:
  54:.//Libraries/CMSIS/DSP/Source/TransformFunctions/arm_bitreversal2.c ****      pSrc[b] = tmp;
  76              		.loc 1 54 6 is_stmt 1 view .LVU18
  54:.//Libraries/CMSIS/DSP/Source/TransformFunctions/arm_bitreversal2.c ****      pSrc[b] = tmp;
  77              		.loc 1 54 20 is_stmt 0 view .LVU19
  78 0026 4FEA8306 		lsl	r6, r3, #2
  54:.//Libraries/CMSIS/DSP/Source/TransformFunctions/arm_bitreversal2.c ****      pSrc[b] = tmp;
  79              		.loc 1 54 14 view .LVU20
  80 002a 50F82320 		ldr	r2, [r0, r3, lsl #2]
  58:.//Libraries/CMSIS/DSP/Source/TransformFunctions/arm_bitreversal2.c ****      pSrc[a+1] = pSrc[b+1];
  81              		.loc 1 58 16 view .LVU21
  82 002e 07F10407 		add	r7, r7, #4
  59:.//Libraries/CMSIS/DSP/Source/TransformFunctions/arm_bitreversal2.c ****      pSrc[b+1] = tmp;
  83              		.loc 1 59 22 view .LVU22
  84 0032 06F10406 		add	r6, r6, #4
  54:.//Libraries/CMSIS/DSP/Source/TransformFunctions/arm_bitreversal2.c ****      pSrc[b] = tmp;
  85              		.loc 1 54 14 view .LVU23
  86 0036 40F82420 		str	r2, [r0, r4, lsl #2]
  87              	.LVL4:
  55:.//Libraries/CMSIS/DSP/Source/TransformFunctions/arm_bitreversal2.c **** 
  88              		.loc 1 55 6 is_stmt 1 view .LVU24
  55:.//Libraries/CMSIS/DSP/Source/TransformFunctions/arm_bitreversal2.c **** 
  89              		.loc 1 55 14 is_stmt 0 view .LVU25
  90 003a 40F823E0 		str	lr, [r0, r3, lsl #2]
  58:.//Libraries/CMSIS/DSP/Source/TransformFunctions/arm_bitreversal2.c ****      pSrc[a+1] = pSrc[b+1];
  91              		.loc 1 58 6 is_stmt 1 view .LVU26
  58:.//Libraries/CMSIS/DSP/Source/TransformFunctions/arm_bitreversal2.c ****      pSrc[a+1] = pSrc[b+1];
  92              		.loc 1 58 10 is_stmt 0 view .LVU27
ARM GAS  /var/folders/wl/rshn8xbx1dsfj1zgryf4g1240000gn/T//ccl9qlqB.s 			page 4


  93 003e C459     		ldr	r4, [r0, r7]
  94              	.LVL5:
  59:.//Libraries/CMSIS/DSP/Source/TransformFunctions/arm_bitreversal2.c ****      pSrc[b+1] = tmp;
  95              		.loc 1 59 6 is_stmt 1 view .LVU28
  59:.//Libraries/CMSIS/DSP/Source/TransformFunctions/arm_bitreversal2.c ****      pSrc[b+1] = tmp;
  96              		.loc 1 59 22 is_stmt 0 view .LVU29
  97 0040 8359     		ldr	r3, [r0, r6]
  59:.//Libraries/CMSIS/DSP/Source/TransformFunctions/arm_bitreversal2.c ****      pSrc[b+1] = tmp;
  98              		.loc 1 59 16 view .LVU30
  99 0042 C351     		str	r3, [r0, r7]
  60:.//Libraries/CMSIS/DSP/Source/TransformFunctions/arm_bitreversal2.c **** 
 100              		.loc 1 60 6 is_stmt 1 view .LVU31
  60:.//Libraries/CMSIS/DSP/Source/TransformFunctions/arm_bitreversal2.c **** 
 101              		.loc 1 60 16 is_stmt 0 view .LVU32
 102 0044 8451     		str	r4, [r0, r6]
 103              		.loc 1 62 5 is_stmt 1 view .LVU33
 104              	.LVL6:
  47:.//Libraries/CMSIS/DSP/Source/TransformFunctions/arm_bitreversal2.c ****   {
 105              		.loc 1 47 15 view .LVU34
  47:.//Libraries/CMSIS/DSP/Source/TransformFunctions/arm_bitreversal2.c ****   {
 106              		.loc 1 47 3 is_stmt 0 view .LVU35
 107 0046 E2D3     		bcc	.L3
  63:.//Libraries/CMSIS/DSP/Source/TransformFunctions/arm_bitreversal2.c ****   }
  64:.//Libraries/CMSIS/DSP/Source/TransformFunctions/arm_bitreversal2.c **** }
 108              		.loc 1 64 1 view .LVU36
 109 0048 BDE8F081 		pop	{r4, r5, r6, r7, r8, pc}
 110              	.LVL7:
 111              	.L9:
 112              	.LCFI1:
 113              		.cfi_def_cfa_offset 0
 114              		.cfi_restore 4
 115              		.cfi_restore 5
 116              		.cfi_restore 6
 117              		.cfi_restore 7
 118              		.cfi_restore 8
 119              		.cfi_restore 14
 120              		.loc 1 64 1 view .LVU37
 121 004c 7047     		bx	lr
 122              		.cfi_endproc
 123              	.LFE145:
 125 004e 00BF     		.section	.text.arm_bitreversal_16,"ax",%progbits
 126              		.align	1
 127              		.p2align 2,,3
 128              		.global	arm_bitreversal_16
 129              		.syntax unified
 130              		.thumb
 131              		.thumb_func
 132              		.fpu fpv5-d16
 134              	arm_bitreversal_16:
 135              	.LVL8:
 136              	.LFB146:
  65:.//Libraries/CMSIS/DSP/Source/TransformFunctions/arm_bitreversal2.c **** 
  66:.//Libraries/CMSIS/DSP/Source/TransformFunctions/arm_bitreversal2.c **** 
  67:.//Libraries/CMSIS/DSP/Source/TransformFunctions/arm_bitreversal2.c **** /**
  68:.//Libraries/CMSIS/DSP/Source/TransformFunctions/arm_bitreversal2.c ****   @brief         In-place 16 bit reversal function.
  69:.//Libraries/CMSIS/DSP/Source/TransformFunctions/arm_bitreversal2.c ****   @param[in,out] pSrc        points to in-place buffer of unknown 16-bit data type
  70:.//Libraries/CMSIS/DSP/Source/TransformFunctions/arm_bitreversal2.c ****   @param[in]     bitRevLen   bit reversal table length
ARM GAS  /var/folders/wl/rshn8xbx1dsfj1zgryf4g1240000gn/T//ccl9qlqB.s 			page 5


  71:.//Libraries/CMSIS/DSP/Source/TransformFunctions/arm_bitreversal2.c ****   @param[in]     pBitRevTab  points to bit reversal table
  72:.//Libraries/CMSIS/DSP/Source/TransformFunctions/arm_bitreversal2.c ****   @return        none
  73:.//Libraries/CMSIS/DSP/Source/TransformFunctions/arm_bitreversal2.c **** */
  74:.//Libraries/CMSIS/DSP/Source/TransformFunctions/arm_bitreversal2.c **** 
  75:.//Libraries/CMSIS/DSP/Source/TransformFunctions/arm_bitreversal2.c **** void arm_bitreversal_16(
  76:.//Libraries/CMSIS/DSP/Source/TransformFunctions/arm_bitreversal2.c ****         uint16_t *pSrc, 
  77:.//Libraries/CMSIS/DSP/Source/TransformFunctions/arm_bitreversal2.c ****   const uint16_t bitRevLen, 
  78:.//Libraries/CMSIS/DSP/Source/TransformFunctions/arm_bitreversal2.c ****   const uint16_t *pBitRevTab)
  79:.//Libraries/CMSIS/DSP/Source/TransformFunctions/arm_bitreversal2.c **** {
 137              		.loc 1 79 1 is_stmt 1 view -0
 138              		.cfi_startproc
 139              		@ args = 0, pretend = 0, frame = 0
 140              		@ frame_needed = 0, uses_anonymous_args = 0
  80:.//Libraries/CMSIS/DSP/Source/TransformFunctions/arm_bitreversal2.c ****   uint16_t a, b, i, tmp;
 141              		.loc 1 80 3 view .LVU39
  81:.//Libraries/CMSIS/DSP/Source/TransformFunctions/arm_bitreversal2.c **** 
  82:.//Libraries/CMSIS/DSP/Source/TransformFunctions/arm_bitreversal2.c ****   for (i = 0; i < bitRevLen; )
 142              		.loc 1 82 3 view .LVU40
 143              		.loc 1 82 15 view .LVU41
 144              		.loc 1 82 3 is_stmt 0 view .LVU42
 145 0000 01B3     		cbz	r1, .L21
 146              		.loc 1 82 10 view .LVU43
 147 0002 0023     		movs	r3, #0
  79:.//Libraries/CMSIS/DSP/Source/TransformFunctions/arm_bitreversal2.c ****   uint16_t a, b, i, tmp;
 148              		.loc 1 79 1 view .LVU44
 149 0004 F0B5     		push	{r4, r5, r6, r7, lr}
 150              	.LCFI2:
 151              		.cfi_def_cfa_offset 20
 152              		.cfi_offset 4, -20
 153              		.cfi_offset 5, -16
 154              		.cfi_offset 6, -12
 155              		.cfi_offset 7, -8
 156              		.cfi_offset 14, -4
 157              	.LVL9:
 158              	.L15:
  83:.//Libraries/CMSIS/DSP/Source/TransformFunctions/arm_bitreversal2.c ****   {
  84:.//Libraries/CMSIS/DSP/Source/TransformFunctions/arm_bitreversal2.c ****      a = pBitRevTab[i    ] >> 2;
 159              		.loc 1 84 6 is_stmt 1 view .LVU45
  85:.//Libraries/CMSIS/DSP/Source/TransformFunctions/arm_bitreversal2.c ****      b = pBitRevTab[i + 1] >> 2;
 160              		.loc 1 85 6 view .LVU46
  86:.//Libraries/CMSIS/DSP/Source/TransformFunctions/arm_bitreversal2.c **** 
  87:.//Libraries/CMSIS/DSP/Source/TransformFunctions/arm_bitreversal2.c ****      //real
  88:.//Libraries/CMSIS/DSP/Source/TransformFunctions/arm_bitreversal2.c ****      tmp = pSrc[a];
 161              		.loc 1 88 6 view .LVU47
  85:.//Libraries/CMSIS/DSP/Source/TransformFunctions/arm_bitreversal2.c ****      b = pBitRevTab[i + 1] >> 2;
 162              		.loc 1 85 20 is_stmt 0 view .LVU48
 163 0006 02EB4304 		add	r4, r2, r3, lsl #1
  84:.//Libraries/CMSIS/DSP/Source/TransformFunctions/arm_bitreversal2.c ****      b = pBitRevTab[i + 1] >> 2;
 164              		.loc 1 84 8 view .LVU49
 165 000a 32F81350 		ldrh	r5, [r2, r3, lsl #1]
  89:.//Libraries/CMSIS/DSP/Source/TransformFunctions/arm_bitreversal2.c ****      pSrc[a] = pSrc[b];
  90:.//Libraries/CMSIS/DSP/Source/TransformFunctions/arm_bitreversal2.c ****      pSrc[b] = tmp;
  91:.//Libraries/CMSIS/DSP/Source/TransformFunctions/arm_bitreversal2.c **** 
  92:.//Libraries/CMSIS/DSP/Source/TransformFunctions/arm_bitreversal2.c ****      //complex
  93:.//Libraries/CMSIS/DSP/Source/TransformFunctions/arm_bitreversal2.c ****      tmp = pSrc[a+1];
  94:.//Libraries/CMSIS/DSP/Source/TransformFunctions/arm_bitreversal2.c ****      pSrc[a+1] = pSrc[b+1];
  95:.//Libraries/CMSIS/DSP/Source/TransformFunctions/arm_bitreversal2.c ****      pSrc[b+1] = tmp;
ARM GAS  /var/folders/wl/rshn8xbx1dsfj1zgryf4g1240000gn/T//ccl9qlqB.s 			page 6


  96:.//Libraries/CMSIS/DSP/Source/TransformFunctions/arm_bitreversal2.c **** 
  97:.//Libraries/CMSIS/DSP/Source/TransformFunctions/arm_bitreversal2.c ****     i += 2;
 166              		.loc 1 97 7 view .LVU50
 167 000e 0233     		adds	r3, r3, #2
 168              	.LVL10:
  85:.//Libraries/CMSIS/DSP/Source/TransformFunctions/arm_bitreversal2.c **** 
 169              		.loc 1 85 8 view .LVU51
 170 0010 6488     		ldrh	r4, [r4, #2]
  88:.//Libraries/CMSIS/DSP/Source/TransformFunctions/arm_bitreversal2.c ****      pSrc[a] = pSrc[b];
 171              		.loc 1 88 16 view .LVU52
 172 0012 AD08     		lsrs	r5, r5, #2
 173              		.loc 1 97 7 view .LVU53
 174 0014 9BB2     		uxth	r3, r3
 175              	.LVL11:
  89:.//Libraries/CMSIS/DSP/Source/TransformFunctions/arm_bitreversal2.c ****      pSrc[a] = pSrc[b];
 176              		.loc 1 89 20 view .LVU54
 177 0016 A408     		lsrs	r4, r4, #2
 178              	.LVL12:
  88:.//Libraries/CMSIS/DSP/Source/TransformFunctions/arm_bitreversal2.c ****      pSrc[a] = pSrc[b];
 179              		.loc 1 88 10 view .LVU55
 180 0018 30F815C0 		ldrh	ip, [r0, r5, lsl #1]
 181              	.LVL13:
  89:.//Libraries/CMSIS/DSP/Source/TransformFunctions/arm_bitreversal2.c ****      pSrc[a] = pSrc[b];
 182              		.loc 1 89 6 is_stmt 1 view .LVU56
  88:.//Libraries/CMSIS/DSP/Source/TransformFunctions/arm_bitreversal2.c ****      pSrc[a] = pSrc[b];
 183              		.loc 1 88 16 is_stmt 0 view .LVU57
 184 001c 6F00     		lsls	r7, r5, #1
  82:.//Libraries/CMSIS/DSP/Source/TransformFunctions/arm_bitreversal2.c ****   {
 185              		.loc 1 82 3 view .LVU58
 186 001e 9942     		cmp	r1, r3
  89:.//Libraries/CMSIS/DSP/Source/TransformFunctions/arm_bitreversal2.c ****      pSrc[b] = tmp;
 187              		.loc 1 89 20 view .LVU59
 188 0020 4FEA4406 		lsl	r6, r4, #1
 189 0024 30F814E0 		ldrh	lr, [r0, r4, lsl #1]
  93:.//Libraries/CMSIS/DSP/Source/TransformFunctions/arm_bitreversal2.c ****      pSrc[a+1] = pSrc[b+1];
 190              		.loc 1 93 16 view .LVU60
 191 0028 07F10207 		add	r7, r7, #2
  94:.//Libraries/CMSIS/DSP/Source/TransformFunctions/arm_bitreversal2.c ****      pSrc[b+1] = tmp;
 192              		.loc 1 94 22 view .LVU61
 193 002c 06F10206 		add	r6, r6, #2
  89:.//Libraries/CMSIS/DSP/Source/TransformFunctions/arm_bitreversal2.c ****      pSrc[b] = tmp;
 194              		.loc 1 89 14 view .LVU62
 195 0030 20F815E0 		strh	lr, [r0, r5, lsl #1]	@ movhi
  90:.//Libraries/CMSIS/DSP/Source/TransformFunctions/arm_bitreversal2.c **** 
 196              		.loc 1 90 6 is_stmt 1 view .LVU63
  90:.//Libraries/CMSIS/DSP/Source/TransformFunctions/arm_bitreversal2.c **** 
 197              		.loc 1 90 14 is_stmt 0 view .LVU64
 198 0034 20F814C0 		strh	ip, [r0, r4, lsl #1]	@ movhi
  93:.//Libraries/CMSIS/DSP/Source/TransformFunctions/arm_bitreversal2.c ****      pSrc[a+1] = pSrc[b+1];
 199              		.loc 1 93 6 is_stmt 1 view .LVU65
  93:.//Libraries/CMSIS/DSP/Source/TransformFunctions/arm_bitreversal2.c ****      pSrc[a+1] = pSrc[b+1];
 200              		.loc 1 93 10 is_stmt 0 view .LVU66
 201 0038 C45B     		ldrh	r4, [r0, r7]
 202              	.LVL14:
  94:.//Libraries/CMSIS/DSP/Source/TransformFunctions/arm_bitreversal2.c ****      pSrc[b+1] = tmp;
 203              		.loc 1 94 6 is_stmt 1 view .LVU67
  94:.//Libraries/CMSIS/DSP/Source/TransformFunctions/arm_bitreversal2.c ****      pSrc[b+1] = tmp;
ARM GAS  /var/folders/wl/rshn8xbx1dsfj1zgryf4g1240000gn/T//ccl9qlqB.s 			page 7


 204              		.loc 1 94 22 is_stmt 0 view .LVU68
 205 003a 855B     		ldrh	r5, [r0, r6]
  94:.//Libraries/CMSIS/DSP/Source/TransformFunctions/arm_bitreversal2.c ****      pSrc[b+1] = tmp;
 206              		.loc 1 94 16 view .LVU69
 207 003c C553     		strh	r5, [r0, r7]	@ movhi
  95:.//Libraries/CMSIS/DSP/Source/TransformFunctions/arm_bitreversal2.c **** 
 208              		.loc 1 95 6 is_stmt 1 view .LVU70
  95:.//Libraries/CMSIS/DSP/Source/TransformFunctions/arm_bitreversal2.c **** 
 209              		.loc 1 95 16 is_stmt 0 view .LVU71
 210 003e 8453     		strh	r4, [r0, r6]	@ movhi
 211              		.loc 1 97 5 is_stmt 1 view .LVU72
 212              	.LVL15:
  82:.//Libraries/CMSIS/DSP/Source/TransformFunctions/arm_bitreversal2.c ****   {
 213              		.loc 1 82 15 view .LVU73
  82:.//Libraries/CMSIS/DSP/Source/TransformFunctions/arm_bitreversal2.c ****   {
 214              		.loc 1 82 3 is_stmt 0 view .LVU74
 215 0040 E1D8     		bhi	.L15
  98:.//Libraries/CMSIS/DSP/Source/TransformFunctions/arm_bitreversal2.c ****   }
  99:.//Libraries/CMSIS/DSP/Source/TransformFunctions/arm_bitreversal2.c **** }
 216              		.loc 1 99 1 view .LVU75
 217 0042 F0BD     		pop	{r4, r5, r6, r7, pc}
 218              	.LVL16:
 219              	.L21:
 220              	.LCFI3:
 221              		.cfi_def_cfa_offset 0
 222              		.cfi_restore 4
 223              		.cfi_restore 5
 224              		.cfi_restore 6
 225              		.cfi_restore 7
 226              		.cfi_restore 14
 227              		.loc 1 99 1 view .LVU76
 228 0044 7047     		bx	lr
 229              		.cfi_endproc
 230              	.LFE146:
 232 0046 00BF     		.text
 233              	.Letext0:
 234              		.file 2 "/opt/homebrew/Cellar/arm-none-eabi-gcc/9-2019-q4-major/gcc/arm-none-eabi/include/machine/
 235              		.file 3 "/opt/homebrew/Cellar/arm-none-eabi-gcc/9-2019-q4-major/gcc/arm-none-eabi/include/sys/_std
 236              		.file 4 "/opt/homebrew/Cellar/arm-none-eabi-gcc/9-2019-q4-major/gcc/arm-none-eabi/include/sys/lock
 237              		.file 5 "/opt/homebrew/Cellar/arm-none-eabi-gcc/9-2019-q4-major/gcc/arm-none-eabi/include/sys/_typ
 238              		.file 6 "/opt/homebrew/Cellar/arm-none-eabi-gcc/9-2019-q4-major/gcc/lib/gcc/arm-none-eabi/9.2.1/in
 239              		.file 7 "/opt/homebrew/Cellar/arm-none-eabi-gcc/9-2019-q4-major/gcc/arm-none-eabi/include/sys/reen
 240              		.file 8 "/opt/homebrew/Cellar/arm-none-eabi-gcc/9-2019-q4-major/gcc/arm-none-eabi/include/math.h"
 241              		.file 9 ".//Libraries/CMSIS/DSP/Include/arm_math.h"
 242              		.file 10 ".//Libraries/CMSIS/DSP/Include/arm_common_tables.h"
ARM GAS  /var/folders/wl/rshn8xbx1dsfj1zgryf4g1240000gn/T//ccl9qlqB.s 			page 8


DEFINED SYMBOLS
                            *ABS*:0000000000000000 arm_bitreversal2.c
/var/folders/wl/rshn8xbx1dsfj1zgryf4g1240000gn/T//ccl9qlqB.s:17     .text.arm_bitreversal_32:0000000000000000 $t
/var/folders/wl/rshn8xbx1dsfj1zgryf4g1240000gn/T//ccl9qlqB.s:26     .text.arm_bitreversal_32:0000000000000000 arm_bitreversal_32
/var/folders/wl/rshn8xbx1dsfj1zgryf4g1240000gn/T//ccl9qlqB.s:126    .text.arm_bitreversal_16:0000000000000000 $t
/var/folders/wl/rshn8xbx1dsfj1zgryf4g1240000gn/T//ccl9qlqB.s:134    .text.arm_bitreversal_16:0000000000000000 arm_bitreversal_16

NO UNDEFINED SYMBOLS
