ARM GAS  /tmp/ccYeYjSp.s 			page 1


   1              		.cpu cortex-m7
   2              		.eabi_attribute 28, 1
   3              		.eabi_attribute 20, 1
   4              		.eabi_attribute 21, 1
   5              		.eabi_attribute 23, 3
   6              		.eabi_attribute 24, 1
   7              		.eabi_attribute 25, 1
   8              		.eabi_attribute 26, 1
   9              		.eabi_attribute 30, 2
  10              		.eabi_attribute 34, 1
  11              		.eabi_attribute 18, 4
  12              		.file	"ff_gen_drv.c"
  13              		.text
  14              	.Ltext0:
  15              		.cfi_sections	.debug_frame
  16              		.section	.text.FATFS_UnLinkDriverEx.part.0,"ax",%progbits
  17              		.align	1
  18              		.p2align 2,,3
  19              		.arch armv7e-m
  20              		.syntax unified
  21              		.thumb
  22              		.thumb_func
  23              		.fpu fpv5-d16
  25              	FATFS_UnLinkDriverEx.part.0:
  26              	.LVL0:
  27              	.LFB341:
  28              		.file 1 "./Libraries/FatFs/Src/ff_gen_drv.c"
   1:./Libraries/FatFs/Src/ff_gen_drv.c **** /**
   2:./Libraries/FatFs/Src/ff_gen_drv.c ****   ******************************************************************************
   3:./Libraries/FatFs/Src/ff_gen_drv.c ****   * @file    ff_gen_drv.c
   4:./Libraries/FatFs/Src/ff_gen_drv.c ****   * @author  MCD Application Team
   5:./Libraries/FatFs/Src/ff_gen_drv.c ****   * @brief   FatFs generic low level driver.
   6:./Libraries/FatFs/Src/ff_gen_drv.c ****   *****************************************************************************
   7:./Libraries/FatFs/Src/ff_gen_drv.c ****   * @attention
   8:./Libraries/FatFs/Src/ff_gen_drv.c ****   *
   9:./Libraries/FatFs/Src/ff_gen_drv.c ****   * Copyright (c) 2017 STMicroelectronics. All rights reserved.
  10:./Libraries/FatFs/Src/ff_gen_drv.c ****   *
  11:./Libraries/FatFs/Src/ff_gen_drv.c ****   * This software component is licensed by ST under BSD 3-Clause license,
  12:./Libraries/FatFs/Src/ff_gen_drv.c ****   * the "License"; You may not use this file except in compliance with the
  13:./Libraries/FatFs/Src/ff_gen_drv.c ****   * License. You may obtain a copy of the License at:
  14:./Libraries/FatFs/Src/ff_gen_drv.c ****   *                       opensource.org/licenses/BSD-3-Clause
  15:./Libraries/FatFs/Src/ff_gen_drv.c ****   *
  16:./Libraries/FatFs/Src/ff_gen_drv.c ****   ******************************************************************************
  17:./Libraries/FatFs/Src/ff_gen_drv.c **** **/
  18:./Libraries/FatFs/Src/ff_gen_drv.c **** /* Includes ------------------------------------------------------------------*/
  19:./Libraries/FatFs/Src/ff_gen_drv.c **** #include "ff_gen_drv.h"
  20:./Libraries/FatFs/Src/ff_gen_drv.c **** 
  21:./Libraries/FatFs/Src/ff_gen_drv.c **** /* Private typedef -----------------------------------------------------------*/
  22:./Libraries/FatFs/Src/ff_gen_drv.c **** /* Private define ------------------------------------------------------------*/
  23:./Libraries/FatFs/Src/ff_gen_drv.c **** /* Private variables ---------------------------------------------------------*/
  24:./Libraries/FatFs/Src/ff_gen_drv.c **** Disk_drvTypeDef disk = {{0},{0},{0},0};
  25:./Libraries/FatFs/Src/ff_gen_drv.c **** 
  26:./Libraries/FatFs/Src/ff_gen_drv.c **** /* Private function prototypes -----------------------------------------------*/
  27:./Libraries/FatFs/Src/ff_gen_drv.c **** /* Private functions ---------------------------------------------------------*/
  28:./Libraries/FatFs/Src/ff_gen_drv.c **** 
  29:./Libraries/FatFs/Src/ff_gen_drv.c **** /**
  30:./Libraries/FatFs/Src/ff_gen_drv.c ****   * @brief  Links a compatible diskio driver/lun id and increments the number of active
ARM GAS  /tmp/ccYeYjSp.s 			page 2


  31:./Libraries/FatFs/Src/ff_gen_drv.c ****   *         linked drivers.
  32:./Libraries/FatFs/Src/ff_gen_drv.c ****   * @note   The number of linked drivers (volumes) is up to 10 due to FatFs limits.
  33:./Libraries/FatFs/Src/ff_gen_drv.c ****   * @param  drv: pointer to the disk IO Driver structure
  34:./Libraries/FatFs/Src/ff_gen_drv.c ****   * @param  path: pointer to the logical drive path
  35:./Libraries/FatFs/Src/ff_gen_drv.c ****   * @param  lun : only used for USB Key Disk to add multi-lun management
  36:./Libraries/FatFs/Src/ff_gen_drv.c ****             else the parameter must be equal to 0
  37:./Libraries/FatFs/Src/ff_gen_drv.c ****   * @retval Returns 0 in case of success, otherwise 1.
  38:./Libraries/FatFs/Src/ff_gen_drv.c ****   */
  39:./Libraries/FatFs/Src/ff_gen_drv.c **** uint8_t FATFS_LinkDriverEx(const Diskio_drvTypeDef *drv, char *path, uint8_t lun)
  40:./Libraries/FatFs/Src/ff_gen_drv.c **** {
  41:./Libraries/FatFs/Src/ff_gen_drv.c ****   uint8_t ret = 1;
  42:./Libraries/FatFs/Src/ff_gen_drv.c ****   uint8_t DiskNum = 0;
  43:./Libraries/FatFs/Src/ff_gen_drv.c **** 
  44:./Libraries/FatFs/Src/ff_gen_drv.c ****   if(disk.nbr < _VOLUMES)
  45:./Libraries/FatFs/Src/ff_gen_drv.c ****   {
  46:./Libraries/FatFs/Src/ff_gen_drv.c ****     disk.is_initialized[disk.nbr] = 0;
  47:./Libraries/FatFs/Src/ff_gen_drv.c ****     disk.drv[disk.nbr] = drv;
  48:./Libraries/FatFs/Src/ff_gen_drv.c ****     disk.lun[disk.nbr] = lun;
  49:./Libraries/FatFs/Src/ff_gen_drv.c ****     DiskNum = disk.nbr++;
  50:./Libraries/FatFs/Src/ff_gen_drv.c ****     path[0] = DiskNum + '0';
  51:./Libraries/FatFs/Src/ff_gen_drv.c ****     path[1] = ':';
  52:./Libraries/FatFs/Src/ff_gen_drv.c ****     path[2] = '/';
  53:./Libraries/FatFs/Src/ff_gen_drv.c ****     path[3] = 0;
  54:./Libraries/FatFs/Src/ff_gen_drv.c ****     ret = 0;
  55:./Libraries/FatFs/Src/ff_gen_drv.c ****   }
  56:./Libraries/FatFs/Src/ff_gen_drv.c **** 
  57:./Libraries/FatFs/Src/ff_gen_drv.c ****   return ret;
  58:./Libraries/FatFs/Src/ff_gen_drv.c **** }
  59:./Libraries/FatFs/Src/ff_gen_drv.c **** 
  60:./Libraries/FatFs/Src/ff_gen_drv.c **** /**
  61:./Libraries/FatFs/Src/ff_gen_drv.c ****   * @brief  Links a compatible diskio driver and increments the number of active
  62:./Libraries/FatFs/Src/ff_gen_drv.c ****   *         linked drivers.
  63:./Libraries/FatFs/Src/ff_gen_drv.c ****   * @note   The number of linked drivers (volumes) is up to 10 due to FatFs limits
  64:./Libraries/FatFs/Src/ff_gen_drv.c ****   * @param  drv: pointer to the disk IO Driver structure
  65:./Libraries/FatFs/Src/ff_gen_drv.c ****   * @param  path: pointer to the logical drive path
  66:./Libraries/FatFs/Src/ff_gen_drv.c ****   * @retval Returns 0 in case of success, otherwise 1.
  67:./Libraries/FatFs/Src/ff_gen_drv.c ****   */
  68:./Libraries/FatFs/Src/ff_gen_drv.c **** uint8_t FATFS_LinkDriver(const Diskio_drvTypeDef *drv, char *path)
  69:./Libraries/FatFs/Src/ff_gen_drv.c **** {
  70:./Libraries/FatFs/Src/ff_gen_drv.c ****   return FATFS_LinkDriverEx(drv, path, 0);
  71:./Libraries/FatFs/Src/ff_gen_drv.c **** }
  72:./Libraries/FatFs/Src/ff_gen_drv.c **** 
  73:./Libraries/FatFs/Src/ff_gen_drv.c **** /**
  74:./Libraries/FatFs/Src/ff_gen_drv.c ****   * @brief  Unlinks a diskio driver and decrements the number of active linked
  75:./Libraries/FatFs/Src/ff_gen_drv.c ****   *         drivers.
  76:./Libraries/FatFs/Src/ff_gen_drv.c ****   * @param  path: pointer to the logical drive path
  77:./Libraries/FatFs/Src/ff_gen_drv.c ****   * @param  lun : not used
  78:./Libraries/FatFs/Src/ff_gen_drv.c ****   * @retval Returns 0 in case of success, otherwise 1.
  79:./Libraries/FatFs/Src/ff_gen_drv.c ****   */
  80:./Libraries/FatFs/Src/ff_gen_drv.c **** uint8_t FATFS_UnLinkDriverEx(char *path, uint8_t lun)
  29              		.loc 1 80 9 view -0
  30              		.cfi_startproc
  31              		@ args = 0, pretend = 0, frame = 0
  32              		@ frame_needed = 0, uses_anonymous_args = 0
  33              		@ link register save eliminated.
  81:./Libraries/FatFs/Src/ff_gen_drv.c **** {
  82:./Libraries/FatFs/Src/ff_gen_drv.c ****   uint8_t DiskNum = 0;
ARM GAS  /tmp/ccYeYjSp.s 			page 3


  83:./Libraries/FatFs/Src/ff_gen_drv.c ****   uint8_t ret = 1;
  84:./Libraries/FatFs/Src/ff_gen_drv.c **** 
  85:./Libraries/FatFs/Src/ff_gen_drv.c ****   if(disk.nbr >= 1)
  86:./Libraries/FatFs/Src/ff_gen_drv.c ****   {
  87:./Libraries/FatFs/Src/ff_gen_drv.c ****     DiskNum = path[0] - '0';
  34              		.loc 1 87 5 view .LVU1
  88:./Libraries/FatFs/Src/ff_gen_drv.c ****     if(disk.drv[DiskNum] != 0)
  35              		.loc 1 88 5 view .LVU2
  80:./Libraries/FatFs/Src/ff_gen_drv.c **** {
  36              		.loc 1 80 9 is_stmt 0 view .LVU3
  37 0000 30B4     		push	{r4, r5}
  38              	.LCFI0:
  39              		.cfi_def_cfa_offset 8
  40              		.cfi_offset 4, -8
  41              		.cfi_offset 5, -4
  87:./Libraries/FatFs/Src/ff_gen_drv.c ****     if(disk.drv[DiskNum] != 0)
  42              		.loc 1 87 13 view .LVU4
  43 0002 0378     		ldrb	r3, [r0]	@ zero_extendqisi2
  44              		.loc 1 88 16 view .LVU5
  45 0004 0A49     		ldr	r1, .L6
  87:./Libraries/FatFs/Src/ff_gen_drv.c ****     if(disk.drv[DiskNum] != 0)
  46              		.loc 1 87 13 view .LVU6
  47 0006 303B     		subs	r3, r3, #48
  48              		.loc 1 88 16 view .LVU7
  49 0008 DBB2     		uxtb	r3, r3
  50 000a 01EB8305 		add	r5, r1, r3, lsl #2
  51              		.loc 1 88 7 view .LVU8
  52 000e 6A68     		ldr	r2, [r5, #4]
  53 0010 52B1     		cbz	r2, .L3
  89:./Libraries/FatFs/Src/ff_gen_drv.c ****     {
  90:./Libraries/FatFs/Src/ff_gen_drv.c ****       disk.drv[DiskNum] = 0;
  54              		.loc 1 90 7 is_stmt 1 view .LVU9
  91:./Libraries/FatFs/Src/ff_gen_drv.c ****       disk.lun[DiskNum] = 0;
  92:./Libraries/FatFs/Src/ff_gen_drv.c ****       disk.nbr--;
  55              		.loc 1 92 11 is_stmt 0 view .LVU10
  56 0012 4A7A     		ldrb	r2, [r1, #9]	@ zero_extendqisi2
  90:./Libraries/FatFs/Src/ff_gen_drv.c ****       disk.lun[DiskNum] = 0;
  57              		.loc 1 90 25 view .LVU11
  58 0014 0024     		movs	r4, #0
  91:./Libraries/FatFs/Src/ff_gen_drv.c ****       disk.lun[DiskNum] = 0;
  59              		.loc 1 91 25 view .LVU12
  60 0016 0B44     		add	r3, r3, r1
  61              		.loc 1 92 15 view .LVU13
  62 0018 013A     		subs	r2, r2, #1
  93:./Libraries/FatFs/Src/ff_gen_drv.c ****       ret = 0;
  63              		.loc 1 93 11 view .LVU14
  64 001a 2046     		mov	r0, r4
  65              	.LVL1:
  91:./Libraries/FatFs/Src/ff_gen_drv.c ****       disk.lun[DiskNum] = 0;
  66              		.loc 1 91 25 view .LVU15
  67 001c 1C72     		strb	r4, [r3, #8]
  68              	.LVL2:
  92:./Libraries/FatFs/Src/ff_gen_drv.c ****       ret = 0;
  69              		.loc 1 92 15 view .LVU16
  70 001e D3B2     		uxtb	r3, r2
  90:./Libraries/FatFs/Src/ff_gen_drv.c ****       disk.lun[DiskNum] = 0;
  71              		.loc 1 90 25 view .LVU17
ARM GAS  /tmp/ccYeYjSp.s 			page 4


  72 0020 6C60     		str	r4, [r5, #4]
  91:./Libraries/FatFs/Src/ff_gen_drv.c ****       disk.nbr--;
  73              		.loc 1 91 7 is_stmt 1 view .LVU18
  92:./Libraries/FatFs/Src/ff_gen_drv.c ****       ret = 0;
  74              		.loc 1 92 7 view .LVU19
  92:./Libraries/FatFs/Src/ff_gen_drv.c ****       ret = 0;
  75              		.loc 1 92 15 is_stmt 0 view .LVU20
  76 0022 4B72     		strb	r3, [r1, #9]
  77              		.loc 1 93 7 is_stmt 1 view .LVU21
  78              	.LVL3:
  94:./Libraries/FatFs/Src/ff_gen_drv.c ****     }
  95:./Libraries/FatFs/Src/ff_gen_drv.c ****   }
  96:./Libraries/FatFs/Src/ff_gen_drv.c **** 
  97:./Libraries/FatFs/Src/ff_gen_drv.c ****   return ret;
  79              		.loc 1 97 3 view .LVU22
  98:./Libraries/FatFs/Src/ff_gen_drv.c **** }
  80              		.loc 1 98 1 is_stmt 0 view .LVU23
  81 0024 30BC     		pop	{r4, r5}
  82              	.LCFI1:
  83              		.cfi_remember_state
  84              		.cfi_restore 5
  85              		.cfi_restore 4
  86              		.cfi_def_cfa_offset 0
  87 0026 7047     		bx	lr
  88              	.LVL4:
  89              	.L3:
  90              	.LCFI2:
  91              		.cfi_restore_state
  83:./Libraries/FatFs/Src/ff_gen_drv.c **** 
  92              		.loc 1 83 11 view .LVU24
  93 0028 0120     		movs	r0, #1
  94              	.LVL5:
  97:./Libraries/FatFs/Src/ff_gen_drv.c **** }
  95              		.loc 1 97 3 is_stmt 1 view .LVU25
  96              		.loc 1 98 1 is_stmt 0 view .LVU26
  97 002a 30BC     		pop	{r4, r5}
  98              	.LCFI3:
  99              		.cfi_restore 5
 100              		.cfi_restore 4
 101              		.cfi_def_cfa_offset 0
 102 002c 7047     		bx	lr
 103              	.L7:
 104 002e 00BF     		.align	2
 105              	.L6:
 106 0030 00000000 		.word	.LANCHOR0
 107              		.cfi_endproc
 108              	.LFE341:
 110              		.section	.text.FATFS_LinkDriverEx,"ax",%progbits
 111              		.align	1
 112              		.p2align 2,,3
 113              		.global	FATFS_LinkDriverEx
 114              		.syntax unified
 115              		.thumb
 116              		.thumb_func
 117              		.fpu fpv5-d16
 119              	FATFS_LinkDriverEx:
 120              	.LVL6:
ARM GAS  /tmp/ccYeYjSp.s 			page 5


 121              	.LFB335:
  40:./Libraries/FatFs/Src/ff_gen_drv.c ****   uint8_t ret = 1;
 122              		.loc 1 40 1 is_stmt 1 view -0
 123              		.cfi_startproc
 124              		@ args = 0, pretend = 0, frame = 0
 125              		@ frame_needed = 0, uses_anonymous_args = 0
  41:./Libraries/FatFs/Src/ff_gen_drv.c ****   uint8_t DiskNum = 0;
 126              		.loc 1 41 3 view .LVU28
  42:./Libraries/FatFs/Src/ff_gen_drv.c **** 
 127              		.loc 1 42 3 view .LVU29
  44:./Libraries/FatFs/Src/ff_gen_drv.c ****   {
 128              		.loc 1 44 3 view .LVU30
  44:./Libraries/FatFs/Src/ff_gen_drv.c ****   {
 129              		.loc 1 44 10 is_stmt 0 view .LVU31
 130 0000 134B     		ldr	r3, .L12
  40:./Libraries/FatFs/Src/ff_gen_drv.c ****   uint8_t ret = 1;
 131              		.loc 1 40 1 view .LVU32
 132 0002 2DE9F041 		push	{r4, r5, r6, r7, r8, lr}
 133              	.LCFI4:
 134              		.cfi_def_cfa_offset 24
 135              		.cfi_offset 4, -24
 136              		.cfi_offset 5, -20
 137              		.cfi_offset 6, -16
 138              		.cfi_offset 7, -12
 139              		.cfi_offset 8, -8
 140              		.cfi_offset 14, -4
  44:./Libraries/FatFs/Src/ff_gen_drv.c ****   {
 141              		.loc 1 44 10 view .LVU33
 142 0006 5D7A     		ldrb	r5, [r3, #9]	@ zero_extendqisi2
  44:./Libraries/FatFs/Src/ff_gen_drv.c ****   {
 143              		.loc 1 44 5 view .LVU34
 144 0008 F5B9     		cbnz	r5, .L10
 145              	.LBB8:
 146              	.LBB9:
  46:./Libraries/FatFs/Src/ff_gen_drv.c ****     disk.drv[disk.nbr] = drv;
 147              		.loc 1 46 29 view .LVU35
 148 000a 93F80980 		ldrb	r8, [r3, #9]	@ zero_extendqisi2
 149 000e 0446     		mov	r4, r0
 150              	.LVL7:
  46:./Libraries/FatFs/Src/ff_gen_drv.c ****     disk.drv[disk.nbr] = drv;
 151              		.loc 1 46 29 view .LVU36
 152              	.LBE9:
 153              	.LBI8:
  39:./Libraries/FatFs/Src/ff_gen_drv.c **** {
 154              		.loc 1 39 9 is_stmt 1 view .LVU37
 155              	.LBB10:
  46:./Libraries/FatFs/Src/ff_gen_drv.c ****     disk.drv[disk.nbr] = drv;
 156              		.loc 1 46 5 view .LVU38
  47:./Libraries/FatFs/Src/ff_gen_drv.c ****     disk.lun[disk.nbr] = lun;
 157              		.loc 1 47 18 is_stmt 0 view .LVU39
 158 0010 5F7A     		ldrb	r7, [r3, #9]	@ zero_extendqisi2
 159 0012 05F0FF00 		and	r0, r5, #255
 160              	.LVL8:
  48:./Libraries/FatFs/Src/ff_gen_drv.c ****     DiskNum = disk.nbr++;
 161              		.loc 1 48 18 view .LVU40
 162 0016 5E7A     		ldrb	r6, [r3, #9]	@ zero_extendqisi2
  51:./Libraries/FatFs/Src/ff_gen_drv.c ****     path[2] = '/';
ARM GAS  /tmp/ccYeYjSp.s 			page 6


 163              		.loc 1 51 13 view .LVU41
 164 0018 4FF03A0E 		mov	lr, #58
  49:./Libraries/FatFs/Src/ff_gen_drv.c ****     path[0] = DiskNum + '0';
 165              		.loc 1 49 19 view .LVU42
 166 001c 5D7A     		ldrb	r5, [r3, #9]	@ zero_extendqisi2
  47:./Libraries/FatFs/Src/ff_gen_drv.c ****     disk.lun[disk.nbr] = lun;
 167              		.loc 1 47 24 view .LVU43
 168 001e 03EB8707 		add	r7, r3, r7, lsl #2
  48:./Libraries/FatFs/Src/ff_gen_drv.c ****     DiskNum = disk.nbr++;
 169              		.loc 1 48 24 view .LVU44
 170 0022 1E44     		add	r6, r6, r3
  52:./Libraries/FatFs/Src/ff_gen_drv.c ****     path[3] = 0;
 171              		.loc 1 52 13 view .LVU45
 172 0024 4FF02F0C 		mov	ip, #47
  47:./Libraries/FatFs/Src/ff_gen_drv.c ****     disk.lun[disk.nbr] = lun;
 173              		.loc 1 47 24 view .LVU46
 174 0028 7C60     		str	r4, [r7, #4]
  49:./Libraries/FatFs/Src/ff_gen_drv.c ****     path[0] = DiskNum + '0';
 175              		.loc 1 49 23 view .LVU47
 176 002a 6C1C     		adds	r4, r5, #1
 177              	.LVL9:
  48:./Libraries/FatFs/Src/ff_gen_drv.c ****     DiskNum = disk.nbr++;
 178              		.loc 1 48 24 view .LVU48
 179 002c 3272     		strb	r2, [r6, #8]
  50:./Libraries/FatFs/Src/ff_gen_drv.c ****     path[1] = ':';
 180              		.loc 1 50 23 view .LVU49
 181 002e 3035     		adds	r5, r5, #48
  49:./Libraries/FatFs/Src/ff_gen_drv.c ****     path[0] = DiskNum + '0';
 182              		.loc 1 49 23 view .LVU50
 183 0030 E2B2     		uxtb	r2, r4
 184              	.LVL10:
  46:./Libraries/FatFs/Src/ff_gen_drv.c ****     disk.drv[disk.nbr] = drv;
 185              		.loc 1 46 35 view .LVU51
 186 0032 03F80800 		strb	r0, [r3, r8]
  47:./Libraries/FatFs/Src/ff_gen_drv.c ****     disk.lun[disk.nbr] = lun;
 187              		.loc 1 47 5 is_stmt 1 view .LVU52
  48:./Libraries/FatFs/Src/ff_gen_drv.c ****     DiskNum = disk.nbr++;
 188              		.loc 1 48 5 view .LVU53
  49:./Libraries/FatFs/Src/ff_gen_drv.c ****     path[0] = DiskNum + '0';
 189              		.loc 1 49 5 view .LVU54
  49:./Libraries/FatFs/Src/ff_gen_drv.c ****     path[0] = DiskNum + '0';
 190              		.loc 1 49 23 is_stmt 0 view .LVU55
 191 0036 5A72     		strb	r2, [r3, #9]
 192              	.LVL11:
  50:./Libraries/FatFs/Src/ff_gen_drv.c ****     path[1] = ':';
 193              		.loc 1 50 5 is_stmt 1 view .LVU56
  50:./Libraries/FatFs/Src/ff_gen_drv.c ****     path[1] = ':';
 194              		.loc 1 50 13 is_stmt 0 view .LVU57
 195 0038 0D70     		strb	r5, [r1]
 196              	.LVL12:
  51:./Libraries/FatFs/Src/ff_gen_drv.c ****     path[2] = '/';
 197              		.loc 1 51 5 is_stmt 1 view .LVU58
  53:./Libraries/FatFs/Src/ff_gen_drv.c ****     ret = 0;
 198              		.loc 1 53 13 is_stmt 0 view .LVU59
 199 003a C870     		strb	r0, [r1, #3]
  51:./Libraries/FatFs/Src/ff_gen_drv.c ****     path[2] = '/';
 200              		.loc 1 51 13 view .LVU60
ARM GAS  /tmp/ccYeYjSp.s 			page 7


 201 003c 81F801E0 		strb	lr, [r1, #1]
  52:./Libraries/FatFs/Src/ff_gen_drv.c ****     path[3] = 0;
 202              		.loc 1 52 5 is_stmt 1 view .LVU61
  52:./Libraries/FatFs/Src/ff_gen_drv.c ****     path[3] = 0;
 203              		.loc 1 52 13 is_stmt 0 view .LVU62
 204 0040 81F802C0 		strb	ip, [r1, #2]
  53:./Libraries/FatFs/Src/ff_gen_drv.c ****     ret = 0;
 205              		.loc 1 53 5 is_stmt 1 view .LVU63
  54:./Libraries/FatFs/Src/ff_gen_drv.c ****   }
 206              		.loc 1 54 5 view .LVU64
 207              	.LVL13:
  57:./Libraries/FatFs/Src/ff_gen_drv.c **** }
 208              		.loc 1 57 3 view .LVU65
  57:./Libraries/FatFs/Src/ff_gen_drv.c **** }
 209              		.loc 1 57 3 is_stmt 0 view .LVU66
 210              	.LBE10:
 211              	.LBE8:
  57:./Libraries/FatFs/Src/ff_gen_drv.c **** }
 212              		.loc 1 57 3 is_stmt 1 view .LVU67
  58:./Libraries/FatFs/Src/ff_gen_drv.c **** 
 213              		.loc 1 58 1 is_stmt 0 view .LVU68
 214 0044 BDE8F081 		pop	{r4, r5, r6, r7, r8, pc}
 215              	.LVL14:
 216              	.L10:
  41:./Libraries/FatFs/Src/ff_gen_drv.c ****   uint8_t DiskNum = 0;
 217              		.loc 1 41 11 view .LVU69
 218 0048 0120     		movs	r0, #1
 219              	.LVL15:
  57:./Libraries/FatFs/Src/ff_gen_drv.c **** }
 220              		.loc 1 57 3 is_stmt 1 view .LVU70
  58:./Libraries/FatFs/Src/ff_gen_drv.c **** 
 221              		.loc 1 58 1 is_stmt 0 view .LVU71
 222 004a BDE8F081 		pop	{r4, r5, r6, r7, r8, pc}
 223              	.L13:
 224 004e 00BF     		.align	2
 225              	.L12:
 226 0050 00000000 		.word	.LANCHOR0
 227              		.cfi_endproc
 228              	.LFE335:
 230              		.section	.text.FATFS_LinkDriver,"ax",%progbits
 231              		.align	1
 232              		.p2align 2,,3
 233              		.global	FATFS_LinkDriver
 234              		.syntax unified
 235              		.thumb
 236              		.thumb_func
 237              		.fpu fpv5-d16
 239              	FATFS_LinkDriver:
 240              	.LVL16:
 241              	.LFB336:
  69:./Libraries/FatFs/Src/ff_gen_drv.c ****   return FATFS_LinkDriverEx(drv, path, 0);
 242              		.loc 1 69 1 is_stmt 1 view -0
 243              		.cfi_startproc
 244              		@ args = 0, pretend = 0, frame = 0
 245              		@ frame_needed = 0, uses_anonymous_args = 0
  70:./Libraries/FatFs/Src/ff_gen_drv.c **** }
 246              		.loc 1 70 3 view .LVU73
ARM GAS  /tmp/ccYeYjSp.s 			page 8


 247              	.LBB15:
 248              	.LBB16:
  44:./Libraries/FatFs/Src/ff_gen_drv.c ****   {
 249              		.loc 1 44 10 is_stmt 0 view .LVU74
 250 0000 104B     		ldr	r3, .L18
 251              	.LBE16:
 252              	.LBE15:
  69:./Libraries/FatFs/Src/ff_gen_drv.c ****   return FATFS_LinkDriverEx(drv, path, 0);
 253              		.loc 1 69 1 view .LVU75
 254 0002 F0B5     		push	{r4, r5, r6, r7, lr}
 255              	.LCFI5:
 256              		.cfi_def_cfa_offset 20
 257              		.cfi_offset 4, -20
 258              		.cfi_offset 5, -16
 259              		.cfi_offset 6, -12
 260              		.cfi_offset 7, -8
 261              		.cfi_offset 14, -4
 262              	.LBB23:
 263              	.LBB20:
  44:./Libraries/FatFs/Src/ff_gen_drv.c ****   {
 264              		.loc 1 44 10 view .LVU76
 265 0004 5C7A     		ldrb	r4, [r3, #9]	@ zero_extendqisi2
 266              	.LVL17:
  44:./Libraries/FatFs/Src/ff_gen_drv.c ****   {
 267              		.loc 1 44 10 view .LVU77
 268              	.LBE20:
 269              	.LBI15:
  39:./Libraries/FatFs/Src/ff_gen_drv.c **** {
 270              		.loc 1 39 9 is_stmt 1 view .LVU78
 271              	.LBB21:
  41:./Libraries/FatFs/Src/ff_gen_drv.c ****   uint8_t DiskNum = 0;
 272              		.loc 1 41 3 view .LVU79
  42:./Libraries/FatFs/Src/ff_gen_drv.c **** 
 273              		.loc 1 42 3 view .LVU80
  44:./Libraries/FatFs/Src/ff_gen_drv.c ****   {
 274              		.loc 1 44 3 view .LVU81
  44:./Libraries/FatFs/Src/ff_gen_drv.c ****   {
 275              		.loc 1 44 5 is_stmt 0 view .LVU82
 276 0006 DCB9     		cbnz	r4, .L16
 277              	.LBB17:
 278              	.LBB18:
  46:./Libraries/FatFs/Src/ff_gen_drv.c ****     disk.drv[disk.nbr] = drv;
 279              		.loc 1 46 29 view .LVU83
 280 0008 93F809E0 		ldrb	lr, [r3, #9]	@ zero_extendqisi2
 281 000c 0246     		mov	r2, r0
 282              	.LVL18:
  46:./Libraries/FatFs/Src/ff_gen_drv.c ****     disk.drv[disk.nbr] = drv;
 283              		.loc 1 46 29 view .LVU84
 284              	.LBE18:
 285              	.LBI17:
  39:./Libraries/FatFs/Src/ff_gen_drv.c **** {
 286              		.loc 1 39 9 is_stmt 1 view .LVU85
 287              	.LBB19:
  46:./Libraries/FatFs/Src/ff_gen_drv.c ****     disk.drv[disk.nbr] = drv;
 288              		.loc 1 46 5 view .LVU86
  47:./Libraries/FatFs/Src/ff_gen_drv.c ****     disk.lun[disk.nbr] = lun;
 289              		.loc 1 47 18 is_stmt 0 view .LVU87
ARM GAS  /tmp/ccYeYjSp.s 			page 9


 290 000e 5E7A     		ldrb	r6, [r3, #9]	@ zero_extendqisi2
 291 0010 04F0FF00 		and	r0, r4, #255
 292              	.LVL19:
  48:./Libraries/FatFs/Src/ff_gen_drv.c ****     DiskNum = disk.nbr++;
 293              		.loc 1 48 18 view .LVU88
 294 0014 5D7A     		ldrb	r5, [r3, #9]	@ zero_extendqisi2
  51:./Libraries/FatFs/Src/ff_gen_drv.c ****     path[2] = '/';
 295              		.loc 1 51 13 view .LVU89
 296 0016 4FF03A0C 		mov	ip, #58
  49:./Libraries/FatFs/Src/ff_gen_drv.c ****     path[0] = DiskNum + '0';
 297              		.loc 1 49 19 view .LVU90
 298 001a 5C7A     		ldrb	r4, [r3, #9]	@ zero_extendqisi2
  47:./Libraries/FatFs/Src/ff_gen_drv.c ****     disk.lun[disk.nbr] = lun;
 299              		.loc 1 47 24 view .LVU91
 300 001c 03EB8606 		add	r6, r3, r6, lsl #2
  52:./Libraries/FatFs/Src/ff_gen_drv.c ****     path[3] = 0;
 301              		.loc 1 52 13 view .LVU92
 302 0020 2F27     		movs	r7, #47
  48:./Libraries/FatFs/Src/ff_gen_drv.c ****     DiskNum = disk.nbr++;
 303              		.loc 1 48 24 view .LVU93
 304 0022 1D44     		add	r5, r5, r3
  47:./Libraries/FatFs/Src/ff_gen_drv.c ****     disk.lun[disk.nbr] = lun;
 305              		.loc 1 47 24 view .LVU94
 306 0024 7260     		str	r2, [r6, #4]
  49:./Libraries/FatFs/Src/ff_gen_drv.c ****     path[0] = DiskNum + '0';
 307              		.loc 1 49 23 view .LVU95
 308 0026 621C     		adds	r2, r4, #1
 309              	.LVL20:
  50:./Libraries/FatFs/Src/ff_gen_drv.c ****     path[1] = ':';
 310              		.loc 1 50 23 view .LVU96
 311 0028 3034     		adds	r4, r4, #48
  48:./Libraries/FatFs/Src/ff_gen_drv.c ****     DiskNum = disk.nbr++;
 312              		.loc 1 48 24 view .LVU97
 313 002a 2872     		strb	r0, [r5, #8]
  49:./Libraries/FatFs/Src/ff_gen_drv.c ****     path[0] = DiskNum + '0';
 314              		.loc 1 49 23 view .LVU98
 315 002c D2B2     		uxtb	r2, r2
  46:./Libraries/FatFs/Src/ff_gen_drv.c ****     disk.drv[disk.nbr] = drv;
 316              		.loc 1 46 35 view .LVU99
 317 002e 03F80E00 		strb	r0, [r3, lr]
  47:./Libraries/FatFs/Src/ff_gen_drv.c ****     disk.lun[disk.nbr] = lun;
 318              		.loc 1 47 5 is_stmt 1 view .LVU100
  48:./Libraries/FatFs/Src/ff_gen_drv.c ****     DiskNum = disk.nbr++;
 319              		.loc 1 48 5 view .LVU101
  49:./Libraries/FatFs/Src/ff_gen_drv.c ****     path[0] = DiskNum + '0';
 320              		.loc 1 49 5 view .LVU102
  49:./Libraries/FatFs/Src/ff_gen_drv.c ****     path[0] = DiskNum + '0';
 321              		.loc 1 49 23 is_stmt 0 view .LVU103
 322 0032 5A72     		strb	r2, [r3, #9]
 323              	.LVL21:
  50:./Libraries/FatFs/Src/ff_gen_drv.c ****     path[1] = ':';
 324              		.loc 1 50 5 is_stmt 1 view .LVU104
  50:./Libraries/FatFs/Src/ff_gen_drv.c ****     path[1] = ':';
 325              		.loc 1 50 13 is_stmt 0 view .LVU105
 326 0034 0C70     		strb	r4, [r1]
 327              	.LVL22:
  51:./Libraries/FatFs/Src/ff_gen_drv.c ****     path[2] = '/';
ARM GAS  /tmp/ccYeYjSp.s 			page 10


 328              		.loc 1 51 5 is_stmt 1 view .LVU106
  53:./Libraries/FatFs/Src/ff_gen_drv.c ****     ret = 0;
 329              		.loc 1 53 13 is_stmt 0 view .LVU107
 330 0036 C870     		strb	r0, [r1, #3]
  51:./Libraries/FatFs/Src/ff_gen_drv.c ****     path[2] = '/';
 331              		.loc 1 51 13 view .LVU108
 332 0038 81F801C0 		strb	ip, [r1, #1]
  52:./Libraries/FatFs/Src/ff_gen_drv.c ****     path[3] = 0;
 333              		.loc 1 52 5 is_stmt 1 view .LVU109
  52:./Libraries/FatFs/Src/ff_gen_drv.c ****     path[3] = 0;
 334              		.loc 1 52 13 is_stmt 0 view .LVU110
 335 003c 8F70     		strb	r7, [r1, #2]
  53:./Libraries/FatFs/Src/ff_gen_drv.c ****     ret = 0;
 336              		.loc 1 53 5 is_stmt 1 view .LVU111
  54:./Libraries/FatFs/Src/ff_gen_drv.c ****   }
 337              		.loc 1 54 5 view .LVU112
 338              	.LVL23:
  57:./Libraries/FatFs/Src/ff_gen_drv.c **** }
 339              		.loc 1 57 3 view .LVU113
  57:./Libraries/FatFs/Src/ff_gen_drv.c **** }
 340              		.loc 1 57 3 is_stmt 0 view .LVU114
 341              	.LBE19:
 342              	.LBE17:
  57:./Libraries/FatFs/Src/ff_gen_drv.c **** }
 343              		.loc 1 57 3 is_stmt 1 view .LVU115
  57:./Libraries/FatFs/Src/ff_gen_drv.c **** }
 344              		.loc 1 57 3 is_stmt 0 view .LVU116
 345              	.LBE21:
 346              	.LBE23:
  71:./Libraries/FatFs/Src/ff_gen_drv.c **** 
 347              		.loc 1 71 1 view .LVU117
 348 003e F0BD     		pop	{r4, r5, r6, r7, pc}
 349              	.LVL24:
 350              	.L16:
 351              	.LBB24:
 352              	.LBB22:
  41:./Libraries/FatFs/Src/ff_gen_drv.c ****   uint8_t DiskNum = 0;
 353              		.loc 1 41 11 view .LVU118
 354 0040 0120     		movs	r0, #1
 355              	.LVL25:
  57:./Libraries/FatFs/Src/ff_gen_drv.c **** }
 356              		.loc 1 57 3 is_stmt 1 view .LVU119
  57:./Libraries/FatFs/Src/ff_gen_drv.c **** }
 357              		.loc 1 57 3 is_stmt 0 view .LVU120
 358              	.LBE22:
 359              	.LBE24:
  71:./Libraries/FatFs/Src/ff_gen_drv.c **** 
 360              		.loc 1 71 1 view .LVU121
 361 0042 F0BD     		pop	{r4, r5, r6, r7, pc}
 362              	.L19:
 363              		.align	2
 364              	.L18:
 365 0044 00000000 		.word	.LANCHOR0
 366              		.cfi_endproc
 367              	.LFE336:
 369              		.section	.text.FATFS_UnLinkDriverEx,"ax",%progbits
 370              		.align	1
ARM GAS  /tmp/ccYeYjSp.s 			page 11


 371              		.p2align 2,,3
 372              		.global	FATFS_UnLinkDriverEx
 373              		.syntax unified
 374              		.thumb
 375              		.thumb_func
 376              		.fpu fpv5-d16
 378              	FATFS_UnLinkDriverEx:
 379              	.LVL26:
 380              	.LFB337:
  81:./Libraries/FatFs/Src/ff_gen_drv.c ****   uint8_t DiskNum = 0;
 381              		.loc 1 81 1 is_stmt 1 view -0
 382              		.cfi_startproc
 383              		@ args = 0, pretend = 0, frame = 0
 384              		@ frame_needed = 0, uses_anonymous_args = 0
 385              		@ link register save eliminated.
  82:./Libraries/FatFs/Src/ff_gen_drv.c ****   uint8_t ret = 1;
 386              		.loc 1 82 3 view .LVU123
  83:./Libraries/FatFs/Src/ff_gen_drv.c **** 
 387              		.loc 1 83 3 view .LVU124
  85:./Libraries/FatFs/Src/ff_gen_drv.c ****   {
 388              		.loc 1 85 3 view .LVU125
  85:./Libraries/FatFs/Src/ff_gen_drv.c ****   {
 389              		.loc 1 85 10 is_stmt 0 view .LVU126
 390 0000 034B     		ldr	r3, .L22
 391 0002 5B7A     		ldrb	r3, [r3, #9]	@ zero_extendqisi2
  85:./Libraries/FatFs/Src/ff_gen_drv.c ****   {
 392              		.loc 1 85 5 view .LVU127
 393 0004 0BB1     		cbz	r3, .L21
 394 0006 FFF7FEBF 		b	FATFS_UnLinkDriverEx.part.0
 395              	.LVL27:
 396              	.L21:
  97:./Libraries/FatFs/Src/ff_gen_drv.c **** }
 397              		.loc 1 97 3 is_stmt 1 view .LVU128
 398              		.loc 1 98 1 is_stmt 0 view .LVU129
 399 000a 0120     		movs	r0, #1
 400              	.LVL28:
 401              		.loc 1 98 1 view .LVU130
 402 000c 7047     		bx	lr
 403              	.L23:
 404 000e 00BF     		.align	2
 405              	.L22:
 406 0010 00000000 		.word	.LANCHOR0
 407              		.cfi_endproc
 408              	.LFE337:
 410              		.section	.text.FATFS_UnLinkDriver,"ax",%progbits
 411              		.align	1
 412              		.p2align 2,,3
 413              		.global	FATFS_UnLinkDriver
 414              		.syntax unified
 415              		.thumb
 416              		.thumb_func
 417              		.fpu fpv5-d16
 419              	FATFS_UnLinkDriver:
 420              	.LVL29:
 421              	.LFB338:
  99:./Libraries/FatFs/Src/ff_gen_drv.c **** 
 100:./Libraries/FatFs/Src/ff_gen_drv.c **** /**
ARM GAS  /tmp/ccYeYjSp.s 			page 12


 101:./Libraries/FatFs/Src/ff_gen_drv.c ****   * @brief  Unlinks a diskio driver and decrements the number of active linked
 102:./Libraries/FatFs/Src/ff_gen_drv.c ****   *         drivers.
 103:./Libraries/FatFs/Src/ff_gen_drv.c ****   * @param  path: pointer to the logical drive path
 104:./Libraries/FatFs/Src/ff_gen_drv.c ****   * @retval Returns 0 in case of success, otherwise 1.
 105:./Libraries/FatFs/Src/ff_gen_drv.c ****   */
 106:./Libraries/FatFs/Src/ff_gen_drv.c **** uint8_t FATFS_UnLinkDriver(char *path)
 107:./Libraries/FatFs/Src/ff_gen_drv.c **** {
 422              		.loc 1 107 1 is_stmt 1 view -0
 423              		.cfi_startproc
 424              		@ args = 0, pretend = 0, frame = 0
 425              		@ frame_needed = 0, uses_anonymous_args = 0
 426              		@ link register save eliminated.
 108:./Libraries/FatFs/Src/ff_gen_drv.c ****   return FATFS_UnLinkDriverEx(path, 0);
 427              		.loc 1 108 3 view .LVU132
 428              	.LBB25:
 429              	.LBI25:
  80:./Libraries/FatFs/Src/ff_gen_drv.c **** {
 430              		.loc 1 80 9 view .LVU133
 431              	.LBB26:
  82:./Libraries/FatFs/Src/ff_gen_drv.c ****   uint8_t ret = 1;
 432              		.loc 1 82 3 view .LVU134
  83:./Libraries/FatFs/Src/ff_gen_drv.c **** 
 433              		.loc 1 83 3 view .LVU135
  85:./Libraries/FatFs/Src/ff_gen_drv.c ****   {
 434              		.loc 1 85 3 view .LVU136
  85:./Libraries/FatFs/Src/ff_gen_drv.c ****   {
 435              		.loc 1 85 10 is_stmt 0 view .LVU137
 436 0000 034B     		ldr	r3, .L26
 437 0002 5B7A     		ldrb	r3, [r3, #9]	@ zero_extendqisi2
  85:./Libraries/FatFs/Src/ff_gen_drv.c ****   {
 438              		.loc 1 85 5 view .LVU138
 439 0004 0BB1     		cbz	r3, .L25
 440 0006 FFF7FEBF 		b	FATFS_UnLinkDriverEx.part.0
 441              	.LVL30:
 442              	.L25:
  97:./Libraries/FatFs/Src/ff_gen_drv.c **** }
 443              		.loc 1 97 3 is_stmt 1 view .LVU139
  97:./Libraries/FatFs/Src/ff_gen_drv.c **** }
 444              		.loc 1 97 3 is_stmt 0 view .LVU140
 445              	.LBE26:
 446              	.LBE25:
 109:./Libraries/FatFs/Src/ff_gen_drv.c **** }
 447              		.loc 1 109 1 view .LVU141
 448 000a 0120     		movs	r0, #1
 449              	.LVL31:
 450              		.loc 1 109 1 view .LVU142
 451 000c 7047     		bx	lr
 452              	.L27:
 453 000e 00BF     		.align	2
 454              	.L26:
 455 0010 00000000 		.word	.LANCHOR0
 456              		.cfi_endproc
 457              	.LFE338:
 459              		.section	.text.FATFS_GetAttachedDriversNbr,"ax",%progbits
 460              		.align	1
 461              		.p2align 2,,3
 462              		.global	FATFS_GetAttachedDriversNbr
ARM GAS  /tmp/ccYeYjSp.s 			page 13


 463              		.syntax unified
 464              		.thumb
 465              		.thumb_func
 466              		.fpu fpv5-d16
 468              	FATFS_GetAttachedDriversNbr:
 469              	.LFB339:
 110:./Libraries/FatFs/Src/ff_gen_drv.c **** 
 111:./Libraries/FatFs/Src/ff_gen_drv.c **** /**
 112:./Libraries/FatFs/Src/ff_gen_drv.c ****   * @brief  Gets number of linked drivers to the FatFs module.
 113:./Libraries/FatFs/Src/ff_gen_drv.c ****   * @param  None
 114:./Libraries/FatFs/Src/ff_gen_drv.c ****   * @retval Number of attached drivers.
 115:./Libraries/FatFs/Src/ff_gen_drv.c ****   */
 116:./Libraries/FatFs/Src/ff_gen_drv.c **** uint8_t FATFS_GetAttachedDriversNbr(void)
 117:./Libraries/FatFs/Src/ff_gen_drv.c **** {
 470              		.loc 1 117 1 is_stmt 1 view -0
 471              		.cfi_startproc
 472              		@ args = 0, pretend = 0, frame = 0
 473              		@ frame_needed = 0, uses_anonymous_args = 0
 474              		@ link register save eliminated.
 118:./Libraries/FatFs/Src/ff_gen_drv.c ****   return disk.nbr;
 475              		.loc 1 118 3 view .LVU144
 476              		.loc 1 118 14 is_stmt 0 view .LVU145
 477 0000 014B     		ldr	r3, .L29
 478 0002 587A     		ldrb	r0, [r3, #9]	@ zero_extendqisi2
 119:./Libraries/FatFs/Src/ff_gen_drv.c **** }
 479              		.loc 1 119 1 view .LVU146
 480 0004 7047     		bx	lr
 481              	.L30:
 482 0006 00BF     		.align	2
 483              	.L29:
 484 0008 00000000 		.word	.LANCHOR0
 485              		.cfi_endproc
 486              	.LFE339:
 488              		.global	disk
 489              		.section	.bss.disk,"aw",%nobits
 490              		.align	2
 491              		.set	.LANCHOR0,. + 0
 494              	disk:
 495 0000 00000000 		.space	12
 495      00000000 
 495      00000000 
 496              		.text
 497              	.Letext0:
 498              		.file 2 "./Libraries/FatFs/Inc/integer.h"
 499              		.file 3 "./Libraries/FatFs/Inc/diskio.h"
 500              		.file 4 "/usr/lib/gcc/arm-none-eabi/9.2.1/include/stdint.h"
 501              		.file 5 "./Libraries/CMSIS/Core/Include/core_cm7.h"
 502              		.file 6 "./Libraries/CMSIS/Device/ST/STM32H7xx/Include/system_stm32h7xx.h"
 503              		.file 7 "/usr/lib/gcc/arm-none-eabi/9.2.1/include/stddef.h"
 504              		.file 8 "/usr/include/newlib/sys/_types.h"
 505              		.file 9 "/usr/include/newlib/sys/reent.h"
 506              		.file 10 "/usr/include/newlib/sys/lock.h"
 507              		.file 11 "/usr/include/newlib/math.h"
 508              		.file 12 "./Libraries/STM32H7xx_HAL_Driver/Inc/stm32h7xx_hal_def.h"
 509              		.file 13 "./Libraries/STM32H7xx_HAL_Driver/Inc/stm32h7xx_hal_flash.h"
 510              		.file 14 "./Libraries/STM32H7xx_HAL_Driver/Inc/stm32h7xx_hal_uart.h"
 511              		.file 15 "./Libraries/STM32H7xx_HAL_Driver/Inc/stm32h7xx_hal.h"
ARM GAS  /tmp/ccYeYjSp.s 			page 14


 512              		.file 16 "./Libraries/FatFs/Inc/ff_gen_drv.h"
ARM GAS  /tmp/ccYeYjSp.s 			page 15

