ARM GAS  /var/folders/wl/rshn8xbx1dsfj1zgryf4g1240000gn/T//ccpuhGwG.s 			page 1


   1              		.cpu cortex-m7
   2              		.eabi_attribute 28, 1
   3              		.eabi_attribute 20, 1
   4              		.eabi_attribute 21, 1
   5              		.eabi_attribute 23, 3
   6              		.eabi_attribute 24, 1
   7              		.eabi_attribute 25, 1
   8              		.eabi_attribute 26, 1
   9              		.eabi_attribute 30, 2
  10              		.eabi_attribute 34, 1
  11              		.eabi_attribute 18, 4
  12              		.file	"lcd.c"
  13              		.text
  14              	.Ltext0:
  15              		.cfi_sections	.debug_frame
  16              		.section	.text.LCD_ReadRegWrap,"ax",%progbits
  17              		.align	1
  18              		.p2align 2,,3
  19              		.arch armv7e-m
  20              		.syntax unified
  21              		.thumb
  22              		.thumb_func
  23              		.fpu fpv5-d16
  25              	LCD_ReadRegWrap:
  26              	.LVL0:
  27              	.LFB147:
  28              		.file 1 ".//BSP/Components/Src/lcd.c"
   1:.//BSP/Components/Src/lcd.c **** #include "../../system.h"
   2:.//BSP/Components/Src/lcd.c **** 
   3:.//BSP/Components/Src/lcd.c **** //Todo:加入與LCD相關的驅動程式
   4:.//BSP/Components/Src/lcd.c **** 
   5:.//BSP/Components/Src/lcd.c **** LCD_Drv_t   LCD_Driver = 
   6:.//BSP/Components/Src/lcd.c **** {
   7:.//BSP/Components/Src/lcd.c ****   LCD_Init,
   8:.//BSP/Components/Src/lcd.c ****   LCD_ReadID,
   9:.//BSP/Components/Src/lcd.c ****   LCD_DisplayOn,
  10:.//BSP/Components/Src/lcd.c ****   LCD_DisplayOff,
  11:.//BSP/Components/Src/lcd.c ****   LCD_SetBrightness,
  12:.//BSP/Components/Src/lcd.c ****   LCD_GetBrightness,  
  13:.//BSP/Components/Src/lcd.c ****   LCD_SetOrientation,
  14:.//BSP/Components/Src/lcd.c ****   LCD_GetOrientation,
  15:.//BSP/Components/Src/lcd.c **** //   LCD_SetCursor,
  16:.//BSP/Components/Src/lcd.c **** //   LCD_DrawBitmap,
  17:.//BSP/Components/Src/lcd.c **** //   LCD_FillRGBRect,
  18:.//BSP/Components/Src/lcd.c **** //   LCD_DrawHLine,
  19:.//BSP/Components/Src/lcd.c **** //   LCD_DrawVLine,
  20:.//BSP/Components/Src/lcd.c **** //   LCD_FillRect,
  21:.//BSP/Components/Src/lcd.c **** //   LCD_GetPixel,
  22:.//BSP/Components/Src/lcd.c **** //   LCD_SetPixel,
  23:.//BSP/Components/Src/lcd.c ****   LCD_GetXSize,
  24:.//BSP/Components/Src/lcd.c ****   LCD_GetYSize,
  25:.//BSP/Components/Src/lcd.c **** };
  26:.//BSP/Components/Src/lcd.c **** 
  27:.//BSP/Components/Src/lcd.c **** static int32_t LCD_ReadRegWrap(void *Handle, uint16_t Reg, uint8_t* Data, uint16_t Length);
  28:.//BSP/Components/Src/lcd.c **** static int32_t LCD_WriteRegWrap(void *Handle, uint16_t Reg, uint8_t *pData, uint16_t Length);
  29:.//BSP/Components/Src/lcd.c **** static int32_t LCD_IO_Delay(LCD_Object_t *pObj, uint32_t Delay);
  30:.//BSP/Components/Src/lcd.c **** 
ARM GAS  /var/folders/wl/rshn8xbx1dsfj1zgryf4g1240000gn/T//ccpuhGwG.s 			page 2


  31:.//BSP/Components/Src/lcd.c **** static LCD_Object_t LCD_object;
  32:.//BSP/Components/Src/lcd.c **** static LCD_Ctx_t LCDACtx;
  33:.//BSP/Components/Src/lcd.c **** /*
  34:.//BSP/Components/Src/lcd.c ****   * CASET value (Column Address Set) : X direction LCD GRAM boundaries
  35:.//BSP/Components/Src/lcd.c ****   * depending on LCD orientation mode and PASET value (Page Address Set) : Y direction
  36:.//BSP/Components/Src/lcd.c ****   * LCD GRAM boundaries depending on LCD orientation mode
  37:.//BSP/Components/Src/lcd.c ****   * XS[15:0] = 0x000 = 0, XE[15:0] = 0x31F = 799 for landscape mode : apply to CASET
  38:.//BSP/Components/Src/lcd.c ****   * YS[15:0] = 0x000 = 0, YE[15:0] = 0x31F = 799 for portrait mode : apply to PASET
  39:.//BSP/Components/Src/lcd.c ****   */
  40:.//BSP/Components/Src/lcd.c **** static const uint8_t LcdRegData27[] = {0x00, 0x00, 0x03, 0x1F};
  41:.//BSP/Components/Src/lcd.c **** /*
  42:.//BSP/Components/Src/lcd.c ****   * XS[15:0] = 0x000 = 0, XE[15:0] = 0x1DF = 479 for portrait mode : apply to CASET
  43:.//BSP/Components/Src/lcd.c ****   * YS[15:0] = 0x000 = 0, YE[15:0] = 0x1DF = 479 for landscape mode : apply to PASET
  44:.//BSP/Components/Src/lcd.c ****  */
  45:.//BSP/Components/Src/lcd.c **** static const uint8_t LcdRegData28[] = {0x00, 0x00, 0x01, 0xDF};
  46:.//BSP/Components/Src/lcd.c **** 
  47:.//BSP/Components/Src/lcd.c **** /*
  48:.//BSP/Components/Src/lcd.c **** ******************************************************************
  49:.//BSP/Components/Src/lcd.c **** *                       與LCD有關的基礎通訊控制函式
  50:.//BSP/Components/Src/lcd.c **** ******************************************************************
  51:.//BSP/Components/Src/lcd.c **** */
  52:.//BSP/Components/Src/lcd.c **** static int32_t LCD_ReadRegWrap(void *Handle, uint16_t Reg, uint8_t* pData, uint16_t Length)
  53:.//BSP/Components/Src/lcd.c **** {
  29              		.loc 1 53 1 view -0
  30              		.cfi_startproc
  31              		@ args = 0, pretend = 0, frame = 0
  32              		@ frame_needed = 0, uses_anonymous_args = 0
  33              		@ link register save eliminated.
  54:.//BSP/Components/Src/lcd.c ****   LCD_Object_t *pObj = (LCD_Object_t *)Handle;
  34              		.loc 1 54 3 view .LVU1
  55:.//BSP/Components/Src/lcd.c **** 
  56:.//BSP/Components/Src/lcd.c ****   return pObj->IO.ReadReg(pObj->IO.Address, Reg, pData, Length);
  35              		.loc 1 56 3 view .LVU2
  53:.//BSP/Components/Src/lcd.c ****   LCD_Object_t *pObj = (LCD_Object_t *)Handle;
  36              		.loc 1 53 1 is_stmt 0 view .LVU3
  37 0000 10B4     		push	{r4}
  38              	.LCFI0:
  39              		.cfi_def_cfa_offset 4
  40              		.cfi_offset 4, -4
  41              		.loc 1 56 10 view .LVU4
  42 0002 8468     		ldr	r4, [r0, #8]
  43 0004 0088     		ldrh	r0, [r0]
  44              	.LVL1:
  45              		.loc 1 56 10 view .LVU5
  46 0006 A446     		mov	ip, r4
  57:.//BSP/Components/Src/lcd.c **** }
  47              		.loc 1 57 1 view .LVU6
  48 0008 5DF8044B 		ldr	r4, [sp], #4
  49              	.LCFI1:
  50              		.cfi_restore 4
  51              		.cfi_def_cfa_offset 0
  56:.//BSP/Components/Src/lcd.c **** }
  52              		.loc 1 56 10 view .LVU7
  53 000c 6047     		bx	ip
  54              	.LVL2:
  56:.//BSP/Components/Src/lcd.c **** }
  55              		.loc 1 56 10 view .LVU8
ARM GAS  /var/folders/wl/rshn8xbx1dsfj1zgryf4g1240000gn/T//ccpuhGwG.s 			page 3


  56              		.cfi_endproc
  57              	.LFE147:
  59 000e 00BF     		.section	.text.LCD_WriteRegWrap,"ax",%progbits
  60              		.align	1
  61              		.p2align 2,,3
  62              		.syntax unified
  63              		.thumb
  64              		.thumb_func
  65              		.fpu fpv5-d16
  67              	LCD_WriteRegWrap:
  68              	.LVL3:
  69              	.LFB148:
  58:.//BSP/Components/Src/lcd.c **** 
  59:.//BSP/Components/Src/lcd.c **** static int32_t LCD_WriteRegWrap(void *Handle, uint16_t Reg, uint8_t *pData, uint16_t Length)
  60:.//BSP/Components/Src/lcd.c **** {
  70              		.loc 1 60 1 is_stmt 1 view -0
  71              		.cfi_startproc
  72              		@ args = 0, pretend = 0, frame = 0
  73              		@ frame_needed = 0, uses_anonymous_args = 0
  74              		@ link register save eliminated.
  61:.//BSP/Components/Src/lcd.c ****   LCD_Object_t *pObj = (LCD_Object_t *)Handle;
  75              		.loc 1 61 3 view .LVU10
  62:.//BSP/Components/Src/lcd.c **** 
  63:.//BSP/Components/Src/lcd.c ****   return pObj->IO.WriteReg(pObj->IO.Address, Reg, pData, Length);
  76              		.loc 1 63 3 view .LVU11
  60:.//BSP/Components/Src/lcd.c ****   LCD_Object_t *pObj = (LCD_Object_t *)Handle;
  77              		.loc 1 60 1 is_stmt 0 view .LVU12
  78 0000 10B4     		push	{r4}
  79              	.LCFI2:
  80              		.cfi_def_cfa_offset 4
  81              		.cfi_offset 4, -4
  82              		.loc 1 63 10 view .LVU13
  83 0002 4468     		ldr	r4, [r0, #4]
  84 0004 0088     		ldrh	r0, [r0]
  85              	.LVL4:
  86              		.loc 1 63 10 view .LVU14
  87 0006 A446     		mov	ip, r4
  64:.//BSP/Components/Src/lcd.c **** }
  88              		.loc 1 64 1 view .LVU15
  89 0008 5DF8044B 		ldr	r4, [sp], #4
  90              	.LCFI3:
  91              		.cfi_restore 4
  92              		.cfi_def_cfa_offset 0
  63:.//BSP/Components/Src/lcd.c **** }
  93              		.loc 1 63 10 view .LVU16
  94 000c 6047     		bx	ip
  95              	.LVL5:
  63:.//BSP/Components/Src/lcd.c **** }
  96              		.loc 1 63 10 view .LVU17
  97              		.cfi_endproc
  98              	.LFE148:
 100 000e 00BF     		.section	.text.LCD_ReadID,"ax",%progbits
 101              		.align	1
 102              		.p2align 2,,3
 103              		.global	LCD_ReadID
 104              		.syntax unified
 105              		.thumb
ARM GAS  /var/folders/wl/rshn8xbx1dsfj1zgryf4g1240000gn/T//ccpuhGwG.s 			page 4


 106              		.thumb_func
 107              		.fpu fpv5-d16
 109              	LCD_ReadID:
 110              	.LVL6:
 111              	.LFB152:
  65:.//BSP/Components/Src/lcd.c **** 
  66:.//BSP/Components/Src/lcd.c **** static int32_t LCD_IO_Delay(LCD_Object_t *pObj, uint32_t Delay)
  67:.//BSP/Components/Src/lcd.c **** {
  68:.//BSP/Components/Src/lcd.c ****   uint32_t tickstart;
  69:.//BSP/Components/Src/lcd.c ****   tickstart = pObj->IO.GetTick();
  70:.//BSP/Components/Src/lcd.c ****   while((pObj->IO.GetTick() - tickstart) < Delay)
  71:.//BSP/Components/Src/lcd.c ****   {
  72:.//BSP/Components/Src/lcd.c ****   }
  73:.//BSP/Components/Src/lcd.c ****   return OTM8009A_OK;
  74:.//BSP/Components/Src/lcd.c **** }
  75:.//BSP/Components/Src/lcd.c **** 
  76:.//BSP/Components/Src/lcd.c **** int32_t LCD_read_reg(LCD_ctx_t *ctx, uint16_t reg, uint8_t *pdata, uint16_t length)
  77:.//BSP/Components/Src/lcd.c **** {
  78:.//BSP/Components/Src/lcd.c ****   return ctx->ReadReg(ctx->handle, reg, pdata, length);
  79:.//BSP/Components/Src/lcd.c **** }
  80:.//BSP/Components/Src/lcd.c **** 
  81:.//BSP/Components/Src/lcd.c **** int32_t LCD_write_reg(LCD_ctx_t *ctx, uint16_t reg, const uint8_t *pdata, uint16_t length)
  82:.//BSP/Components/Src/lcd.c **** {
  83:.//BSP/Components/Src/lcd.c ****   return ctx->WriteReg(ctx->handle, reg, (uint8_t *)pdata, length);
  84:.//BSP/Components/Src/lcd.c **** }
  85:.//BSP/Components/Src/lcd.c **** /*
  86:.//BSP/Components/Src/lcd.c **** ******************************************************************
  87:.//BSP/Components/Src/lcd.c **** *                       LCD控制函式
  88:.//BSP/Components/Src/lcd.c **** ******************************************************************
  89:.//BSP/Components/Src/lcd.c **** */
  90:.//BSP/Components/Src/lcd.c **** 
  91:.//BSP/Components/Src/lcd.c **** int32_t LCD_ReadID(LCD_Object_t *pObj, uint32_t *Id)
  92:.//BSP/Components/Src/lcd.c **** { 
 112              		.loc 1 92 1 is_stmt 1 view -0
 113              		.cfi_startproc
 114              		@ args = 0, pretend = 0, frame = 0
 115              		@ frame_needed = 0, uses_anonymous_args = 0
  93:.//BSP/Components/Src/lcd.c ****   int32_t ret;
 116              		.loc 1 93 3 view .LVU19
  94:.//BSP/Components/Src/lcd.c ****   
  95:.//BSP/Components/Src/lcd.c ****   if(LCD_read_reg(&pObj->Ctx, OTM8009A_CMD_ID1, (uint8_t *)Id, 0)!= OTM8009A_OK)
 117              		.loc 1 95 3 view .LVU20
  92:.//BSP/Components/Src/lcd.c ****   int32_t ret;
 118              		.loc 1 92 1 is_stmt 0 view .LVU21
 119 0000 0A46     		mov	r2, r1
 120              	.LBB230:
 121              	.LBB231:
  78:.//BSP/Components/Src/lcd.c **** }
 122              		.loc 1 78 10 view .LVU22
 123 0002 0023     		movs	r3, #0
 124 0004 DA21     		movs	r1, #218
 125              	.LVL7:
  78:.//BSP/Components/Src/lcd.c **** }
 126              		.loc 1 78 10 view .LVU23
 127              	.LBE231:
 128              	.LBI230:
  76:.//BSP/Components/Src/lcd.c **** {
ARM GAS  /var/folders/wl/rshn8xbx1dsfj1zgryf4g1240000gn/T//ccpuhGwG.s 			page 5


 129              		.loc 1 76 9 is_stmt 1 view .LVU24
 130              	.LBB232:
  78:.//BSP/Components/Src/lcd.c **** }
 131              		.loc 1 78 3 view .LVU25
 132              	.LBE232:
 133              	.LBE230:
  92:.//BSP/Components/Src/lcd.c ****   int32_t ret;
 134              		.loc 1 92 1 is_stmt 0 view .LVU26
 135 0006 10B5     		push	{r4, lr}
 136              	.LCFI4:
 137              		.cfi_def_cfa_offset 8
 138              		.cfi_offset 4, -8
 139              		.cfi_offset 14, -4
 140              	.LBB234:
 141              	.LBB233:
  78:.//BSP/Components/Src/lcd.c **** }
 142              		.loc 1 78 10 view .LVU27
 143 0008 D0E90540 		ldrd	r4, r0, [r0, #20]
 144              	.LVL8:
  78:.//BSP/Components/Src/lcd.c **** }
 145              		.loc 1 78 10 view .LVU28
 146 000c A047     		blx	r4
 147              	.LVL9:
  78:.//BSP/Components/Src/lcd.c **** }
 148              		.loc 1 78 10 view .LVU29
 149              	.LBE233:
 150              	.LBE234:
  96:.//BSP/Components/Src/lcd.c ****   {
  97:.//BSP/Components/Src/lcd.c ****     ret = OTM8009A_ERROR;
  98:.//BSP/Components/Src/lcd.c ****   }
  99:.//BSP/Components/Src/lcd.c ****   else
 100:.//BSP/Components/Src/lcd.c ****   {
 101:.//BSP/Components/Src/lcd.c ****     ret = OTM8009A_OK;
 102:.//BSP/Components/Src/lcd.c ****   }
 103:.//BSP/Components/Src/lcd.c ****   
 104:.//BSP/Components/Src/lcd.c ****   return ret;  
 151              		.loc 1 104 3 is_stmt 1 view .LVU30
  95:.//BSP/Components/Src/lcd.c ****   {
 152              		.loc 1 95 5 is_stmt 0 view .LVU31
 153 000e 0038     		subs	r0, r0, #0
  95:.//BSP/Components/Src/lcd.c ****   {
 154              		.loc 1 95 5 view .LVU32
 155 0010 18BF     		it	ne
 156 0012 0120     		movne	r0, #1
 157              	.LVL10:
 105:.//BSP/Components/Src/lcd.c **** }  
 158              		.loc 1 105 1 view .LVU33
 159 0014 4042     		rsbs	r0, r0, #0
 160 0016 10BD     		pop	{r4, pc}
 161              		.cfi_endproc
 162              	.LFE152:
 164              		.section	.text.LCD_SetBrightness,"ax",%progbits
 165              		.align	1
 166              		.p2align 2,,3
 167              		.global	LCD_SetBrightness
 168              		.syntax unified
 169              		.thumb
ARM GAS  /var/folders/wl/rshn8xbx1dsfj1zgryf4g1240000gn/T//ccpuhGwG.s 			page 6


 170              		.thumb_func
 171              		.fpu fpv5-d16
 173              	LCD_SetBrightness:
 174              	.LVL11:
 175              	.LFB153:
 106:.//BSP/Components/Src/lcd.c **** 
 107:.//BSP/Components/Src/lcd.c **** /**
 108:.//BSP/Components/Src/lcd.c ****   * @brief  Set the display brightness.
 109:.//BSP/Components/Src/lcd.c ****   * @param  pObj Component object
 110:.//BSP/Components/Src/lcd.c ****   * @param  Brightness   display brightness to be set
 111:.//BSP/Components/Src/lcd.c ****   * @retval Component status
 112:.//BSP/Components/Src/lcd.c ****   */
 113:.//BSP/Components/Src/lcd.c **** int32_t LCD_SetBrightness(LCD_Object_t *pObj, uint32_t Brightness)
 114:.//BSP/Components/Src/lcd.c **** {
 176              		.loc 1 114 1 is_stmt 1 view -0
 177              		.cfi_startproc
 178              		@ args = 0, pretend = 0, frame = 8
 179              		@ frame_needed = 0, uses_anonymous_args = 0
 115:.//BSP/Components/Src/lcd.c ****   int32_t ret;
 180              		.loc 1 115 3 view .LVU35
 116:.//BSP/Components/Src/lcd.c ****   uint8_t brightness = (uint8_t)((Brightness * 255U)/100U);
 181              		.loc 1 116 3 view .LVU36
 114:.//BSP/Components/Src/lcd.c ****   int32_t ret;
 182              		.loc 1 114 1 is_stmt 0 view .LVU37
 183 0000 70B5     		push	{r4, r5, r6, lr}
 184              	.LCFI5:
 185              		.cfi_def_cfa_offset 16
 186              		.cfi_offset 4, -16
 187              		.cfi_offset 5, -12
 188              		.cfi_offset 6, -8
 189              		.cfi_offset 14, -4
 190 0002 0D46     		mov	r5, r1
 191              		.loc 1 116 53 view .LVU38
 192 0004 0B4E     		ldr	r6, .L12
 114:.//BSP/Components/Src/lcd.c ****   int32_t ret;
 193              		.loc 1 114 1 view .LVU39
 194 0006 82B0     		sub	sp, sp, #8
 195              	.LCFI6:
 196              		.cfi_def_cfa_offset 24
 197              	.LBB235:
 198              	.LBB236:
  83:.//BSP/Components/Src/lcd.c **** }
 199              		.loc 1 83 10 view .LVU40
 200 0008 0023     		movs	r3, #0
 201              	.LBE236:
 202              	.LBE235:
 203              		.loc 1 116 46 view .LVU41
 204 000a C5EB0524 		rsb	r4, r5, r5, lsl #8
 205              	.LBB240:
 206              	.LBB237:
  83:.//BSP/Components/Src/lcd.c **** }
 207              		.loc 1 83 10 view .LVU42
 208 000e 5121     		movs	r1, #81
 209              	.LVL12:
  83:.//BSP/Components/Src/lcd.c **** }
 210              		.loc 1 83 10 view .LVU43
 211 0010 0DF10702 		add	r2, sp, #7
ARM GAS  /var/folders/wl/rshn8xbx1dsfj1zgryf4g1240000gn/T//ccpuhGwG.s 			page 7


 212              	.LBE237:
 213              	.LBE240:
 214              		.loc 1 116 53 view .LVU44
 215 0014 A6FB0464 		umull	r6, r4, r6, r4
 216              	.LBB241:
 217              	.LBB238:
  83:.//BSP/Components/Src/lcd.c **** }
 218              		.loc 1 83 10 view .LVU45
 219 0018 0669     		ldr	r6, [r0, #16]
 220 001a 8069     		ldr	r0, [r0, #24]
 221              	.LVL13:
  83:.//BSP/Components/Src/lcd.c **** }
 222              		.loc 1 83 10 view .LVU46
 223              	.LBE238:
 224              	.LBE241:
 225              		.loc 1 116 53 view .LVU47
 226 001c 6409     		lsrs	r4, r4, #5
 227              		.loc 1 116 24 view .LVU48
 228 001e 8DF80740 		strb	r4, [sp, #7]
 117:.//BSP/Components/Src/lcd.c ****   
 118:.//BSP/Components/Src/lcd.c ****   /* Send Display on DCS command to display */
 119:.//BSP/Components/Src/lcd.c ****   if(LCD_write_reg(&pObj->Ctx, OTM8009A_CMD_WRDISBV, &brightness, 0) != OTM8009A_OK)
 229              		.loc 1 119 3 is_stmt 1 view .LVU49
 230              	.LVL14:
 231              	.LBB242:
 232              	.LBI235:
  81:.//BSP/Components/Src/lcd.c **** {
 233              		.loc 1 81 9 view .LVU50
 234              	.LBB239:
  83:.//BSP/Components/Src/lcd.c **** }
 235              		.loc 1 83 3 view .LVU51
  83:.//BSP/Components/Src/lcd.c **** }
 236              		.loc 1 83 10 is_stmt 0 view .LVU52
 237 0022 B047     		blx	r6
 238              	.LVL15:
  83:.//BSP/Components/Src/lcd.c **** }
 239              		.loc 1 83 10 view .LVU53
 240              	.LBE239:
 241              	.LBE242:
 242              		.loc 1 119 5 view .LVU54
 243 0024 18B9     		cbnz	r0, .L10
 120:.//BSP/Components/Src/lcd.c ****   {
 121:.//BSP/Components/Src/lcd.c ****     ret = OTM8009A_ERROR;
 122:.//BSP/Components/Src/lcd.c ****   }
 123:.//BSP/Components/Src/lcd.c ****   else
 124:.//BSP/Components/Src/lcd.c ****   {
 125:.//BSP/Components/Src/lcd.c ****     LCDACtx.Brightness = Brightness;
 244              		.loc 1 125 5 is_stmt 1 view .LVU55
 245              		.loc 1 125 24 is_stmt 0 view .LVU56
 246 0026 044B     		ldr	r3, .L12+4
 247 0028 9D60     		str	r5, [r3, #8]
 126:.//BSP/Components/Src/lcd.c ****     ret = OTM8009A_OK;
 248              		.loc 1 126 5 is_stmt 1 view .LVU57
 249              	.LVL16:
 250              	.L8:
 127:.//BSP/Components/Src/lcd.c ****   }
 128:.//BSP/Components/Src/lcd.c ****   
ARM GAS  /var/folders/wl/rshn8xbx1dsfj1zgryf4g1240000gn/T//ccpuhGwG.s 			page 8


 129:.//BSP/Components/Src/lcd.c ****   return ret;  
 130:.//BSP/Components/Src/lcd.c **** }
 251              		.loc 1 130 1 is_stmt 0 view .LVU58
 252 002a 02B0     		add	sp, sp, #8
 253              	.LCFI7:
 254              		.cfi_remember_state
 255              		.cfi_def_cfa_offset 16
 256              		@ sp needed
 257 002c 70BD     		pop	{r4, r5, r6, pc}
 258              	.LVL17:
 259              	.L10:
 260              	.LCFI8:
 261              		.cfi_restore_state
 121:.//BSP/Components/Src/lcd.c ****   }
 262              		.loc 1 121 9 view .LVU59
 263 002e 4FF0FF30 		mov	r0, #-1
 264              	.LVL18:
 129:.//BSP/Components/Src/lcd.c **** }
 265              		.loc 1 129 3 is_stmt 1 view .LVU60
 129:.//BSP/Components/Src/lcd.c **** }
 266              		.loc 1 129 10 is_stmt 0 view .LVU61
 267 0032 FAE7     		b	.L8
 268              	.L13:
 269              		.align	2
 270              	.L12:
 271 0034 1F85EB51 		.word	1374389535
 272 0038 00000000 		.word	.LANCHOR0
 273              		.cfi_endproc
 274              	.LFE153:
 276              		.section	.text.LCD_GetBrightness,"ax",%progbits
 277              		.align	1
 278              		.p2align 2,,3
 279              		.global	LCD_GetBrightness
 280              		.syntax unified
 281              		.thumb
 282              		.thumb_func
 283              		.fpu fpv5-d16
 285              	LCD_GetBrightness:
 286              	.LVL19:
 287              	.LFB154:
 131:.//BSP/Components/Src/lcd.c **** 
 132:.//BSP/Components/Src/lcd.c **** /**
 133:.//BSP/Components/Src/lcd.c ****   * @brief  Get the display brightness.
 134:.//BSP/Components/Src/lcd.c ****   * @param  pObj Component object
 135:.//BSP/Components/Src/lcd.c ****   * @param  Brightness   display brightness to be returned
 136:.//BSP/Components/Src/lcd.c ****   * @retval Component status
 137:.//BSP/Components/Src/lcd.c ****   */
 138:.//BSP/Components/Src/lcd.c **** int32_t LCD_GetBrightness(LCD_Object_t *pObj, uint32_t *Brightness)
 139:.//BSP/Components/Src/lcd.c **** {
 288              		.loc 1 139 1 is_stmt 1 view -0
 289              		.cfi_startproc
 290              		@ args = 0, pretend = 0, frame = 0
 291              		@ frame_needed = 0, uses_anonymous_args = 0
 292              		@ link register save eliminated.
 140:.//BSP/Components/Src/lcd.c ****   *Brightness = LCDACtx.Brightness;
 293              		.loc 1 140 3 view .LVU63
 294              		.loc 1 140 24 is_stmt 0 view .LVU64
ARM GAS  /var/folders/wl/rshn8xbx1dsfj1zgryf4g1240000gn/T//ccpuhGwG.s 			page 9


 295 0000 024B     		ldr	r3, .L15
 141:.//BSP/Components/Src/lcd.c ****   return OTM8009A_OK;  
 142:.//BSP/Components/Src/lcd.c **** }
 296              		.loc 1 142 1 view .LVU65
 297 0002 0020     		movs	r0, #0
 298              	.LVL20:
 140:.//BSP/Components/Src/lcd.c ****   *Brightness = LCDACtx.Brightness;
 299              		.loc 1 140 15 view .LVU66
 300 0004 9B68     		ldr	r3, [r3, #8]
 301 0006 0B60     		str	r3, [r1]
 141:.//BSP/Components/Src/lcd.c ****   return OTM8009A_OK;  
 302              		.loc 1 141 3 is_stmt 1 view .LVU67
 303              		.loc 1 142 1 is_stmt 0 view .LVU68
 304 0008 7047     		bx	lr
 305              	.L16:
 306 000a 00BF     		.align	2
 307              	.L15:
 308 000c 00000000 		.word	.LANCHOR0
 309              		.cfi_endproc
 310              	.LFE154:
 312              		.section	.text.LCD_DisplayOn,"ax",%progbits
 313              		.align	1
 314              		.p2align 2,,3
 315              		.global	LCD_DisplayOn
 316              		.syntax unified
 317              		.thumb
 318              		.thumb_func
 319              		.fpu fpv5-d16
 321              	LCD_DisplayOn:
 322              	.LVL21:
 323              	.LFB155:
 143:.//BSP/Components/Src/lcd.c **** 
 144:.//BSP/Components/Src/lcd.c **** /**
 145:.//BSP/Components/Src/lcd.c ****   * @brief  Set the display On.
 146:.//BSP/Components/Src/lcd.c ****   * @param  pObj Component object
 147:.//BSP/Components/Src/lcd.c ****   * @retval Component status
 148:.//BSP/Components/Src/lcd.c ****   */
 149:.//BSP/Components/Src/lcd.c **** int32_t LCD_DisplayOn(LCD_Object_t *pObj)
 150:.//BSP/Components/Src/lcd.c **** {
 324              		.loc 1 150 1 is_stmt 1 view -0
 325              		.cfi_startproc
 326              		@ args = 0, pretend = 0, frame = 8
 327              		@ frame_needed = 0, uses_anonymous_args = 0
 151:.//BSP/Components/Src/lcd.c ****   int32_t ret;
 328              		.loc 1 151 3 view .LVU70
 152:.//BSP/Components/Src/lcd.c ****   uint8_t display = 0;
 329              		.loc 1 152 3 view .LVU71
 150:.//BSP/Components/Src/lcd.c ****   int32_t ret;
 330              		.loc 1 150 1 is_stmt 0 view .LVU72
 331 0000 10B5     		push	{r4, lr}
 332              	.LCFI9:
 333              		.cfi_def_cfa_offset 8
 334              		.cfi_offset 4, -8
 335              		.cfi_offset 14, -4
 336              		.loc 1 152 11 view .LVU73
 337 0002 0023     		movs	r3, #0
 150:.//BSP/Components/Src/lcd.c ****   int32_t ret;
ARM GAS  /var/folders/wl/rshn8xbx1dsfj1zgryf4g1240000gn/T//ccpuhGwG.s 			page 10


 338              		.loc 1 150 1 view .LVU74
 339 0004 82B0     		sub	sp, sp, #8
 340              	.LCFI10:
 341              		.cfi_def_cfa_offset 16
 342              	.LBB243:
 343              	.LBB244:
  83:.//BSP/Components/Src/lcd.c **** }
 344              		.loc 1 83 10 view .LVU75
 345 0006 0469     		ldr	r4, [r0, #16]
 346 0008 2921     		movs	r1, #41
 347 000a 0DF10702 		add	r2, sp, #7
 348              	.LBE244:
 349              	.LBE243:
 350              		.loc 1 152 11 view .LVU76
 351 000e 8DF80730 		strb	r3, [sp, #7]
 153:.//BSP/Components/Src/lcd.c ****   
 154:.//BSP/Components/Src/lcd.c ****   /* Send Display on DCS command to display */
 155:.//BSP/Components/Src/lcd.c ****   if(LCD_write_reg(&pObj->Ctx, OTM8009A_CMD_DISPON, &display, 0) != OTM8009A_OK)
 352              		.loc 1 155 3 is_stmt 1 view .LVU77
 353              	.LVL22:
 354              	.LBB246:
 355              	.LBI243:
  81:.//BSP/Components/Src/lcd.c **** {
 356              		.loc 1 81 9 view .LVU78
 357              	.LBB245:
  83:.//BSP/Components/Src/lcd.c **** }
 358              		.loc 1 83 3 view .LVU79
  83:.//BSP/Components/Src/lcd.c **** }
 359              		.loc 1 83 10 is_stmt 0 view .LVU80
 360 0012 8069     		ldr	r0, [r0, #24]
 361              	.LVL23:
  83:.//BSP/Components/Src/lcd.c **** }
 362              		.loc 1 83 10 view .LVU81
 363 0014 A047     		blx	r4
 364              	.LVL24:
  83:.//BSP/Components/Src/lcd.c **** }
 365              		.loc 1 83 10 view .LVU82
 366              	.LBE245:
 367              	.LBE246:
 156:.//BSP/Components/Src/lcd.c ****   {
 157:.//BSP/Components/Src/lcd.c ****     ret = OTM8009A_ERROR;
 158:.//BSP/Components/Src/lcd.c ****   }
 159:.//BSP/Components/Src/lcd.c ****   else
 160:.//BSP/Components/Src/lcd.c ****   {
 161:.//BSP/Components/Src/lcd.c ****     ret = OTM8009A_OK;
 162:.//BSP/Components/Src/lcd.c ****   }
 163:.//BSP/Components/Src/lcd.c ****   
 164:.//BSP/Components/Src/lcd.c ****   return ret;
 368              		.loc 1 164 3 is_stmt 1 view .LVU83
 155:.//BSP/Components/Src/lcd.c ****   {
 369              		.loc 1 155 5 is_stmt 0 view .LVU84
 370 0016 0038     		subs	r0, r0, #0
 155:.//BSP/Components/Src/lcd.c ****   {
 371              		.loc 1 155 5 view .LVU85
 372 0018 18BF     		it	ne
 373 001a 0120     		movne	r0, #1
 374              	.LVL25:
ARM GAS  /var/folders/wl/rshn8xbx1dsfj1zgryf4g1240000gn/T//ccpuhGwG.s 			page 11


 165:.//BSP/Components/Src/lcd.c **** }
 375              		.loc 1 165 1 view .LVU86
 376 001c 4042     		rsbs	r0, r0, #0
 377 001e 02B0     		add	sp, sp, #8
 378              	.LCFI11:
 379              		.cfi_def_cfa_offset 8
 380              		@ sp needed
 381 0020 10BD     		pop	{r4, pc}
 382              		.cfi_endproc
 383              	.LFE155:
 385 0022 00BF     		.section	.text.LCD_DisplayOff,"ax",%progbits
 386              		.align	1
 387              		.p2align 2,,3
 388              		.global	LCD_DisplayOff
 389              		.syntax unified
 390              		.thumb
 391              		.thumb_func
 392              		.fpu fpv5-d16
 394              	LCD_DisplayOff:
 395              	.LVL26:
 396              	.LFB156:
 166:.//BSP/Components/Src/lcd.c **** 
 167:.//BSP/Components/Src/lcd.c **** /**
 168:.//BSP/Components/Src/lcd.c ****   * @brief  Set the display Off.
 169:.//BSP/Components/Src/lcd.c ****   * @param  pObj Component object
 170:.//BSP/Components/Src/lcd.c ****   * @retval Component status
 171:.//BSP/Components/Src/lcd.c ****   */
 172:.//BSP/Components/Src/lcd.c **** int32_t LCD_DisplayOff(LCD_Object_t *pObj)
 173:.//BSP/Components/Src/lcd.c **** {
 397              		.loc 1 173 1 is_stmt 1 view -0
 398              		.cfi_startproc
 399              		@ args = 0, pretend = 0, frame = 8
 400              		@ frame_needed = 0, uses_anonymous_args = 0
 174:.//BSP/Components/Src/lcd.c ****   int32_t ret;
 401              		.loc 1 174 3 view .LVU88
 175:.//BSP/Components/Src/lcd.c ****   uint8_t display = 0;
 402              		.loc 1 175 3 view .LVU89
 173:.//BSP/Components/Src/lcd.c ****   int32_t ret;
 403              		.loc 1 173 1 is_stmt 0 view .LVU90
 404 0000 10B5     		push	{r4, lr}
 405              	.LCFI12:
 406              		.cfi_def_cfa_offset 8
 407              		.cfi_offset 4, -8
 408              		.cfi_offset 14, -4
 409              		.loc 1 175 11 view .LVU91
 410 0002 0023     		movs	r3, #0
 173:.//BSP/Components/Src/lcd.c ****   int32_t ret;
 411              		.loc 1 173 1 view .LVU92
 412 0004 82B0     		sub	sp, sp, #8
 413              	.LCFI13:
 414              		.cfi_def_cfa_offset 16
 415              	.LBB247:
 416              	.LBB248:
  83:.//BSP/Components/Src/lcd.c **** }
 417              		.loc 1 83 10 view .LVU93
 418 0006 0469     		ldr	r4, [r0, #16]
 419 0008 2821     		movs	r1, #40
ARM GAS  /var/folders/wl/rshn8xbx1dsfj1zgryf4g1240000gn/T//ccpuhGwG.s 			page 12


 420 000a 0DF10702 		add	r2, sp, #7
 421              	.LBE248:
 422              	.LBE247:
 423              		.loc 1 175 11 view .LVU94
 424 000e 8DF80730 		strb	r3, [sp, #7]
 176:.//BSP/Components/Src/lcd.c ****   
 177:.//BSP/Components/Src/lcd.c ****   /* Send Display on DCS command to display */
 178:.//BSP/Components/Src/lcd.c ****   if(LCD_write_reg(&pObj->Ctx, OTM8009A_CMD_DISPOFF, &display, 0) != OTM8009A_OK)
 425              		.loc 1 178 3 is_stmt 1 view .LVU95
 426              	.LVL27:
 427              	.LBB250:
 428              	.LBI247:
  81:.//BSP/Components/Src/lcd.c **** {
 429              		.loc 1 81 9 view .LVU96
 430              	.LBB249:
  83:.//BSP/Components/Src/lcd.c **** }
 431              		.loc 1 83 3 view .LVU97
  83:.//BSP/Components/Src/lcd.c **** }
 432              		.loc 1 83 10 is_stmt 0 view .LVU98
 433 0012 8069     		ldr	r0, [r0, #24]
 434              	.LVL28:
  83:.//BSP/Components/Src/lcd.c **** }
 435              		.loc 1 83 10 view .LVU99
 436 0014 A047     		blx	r4
 437              	.LVL29:
  83:.//BSP/Components/Src/lcd.c **** }
 438              		.loc 1 83 10 view .LVU100
 439              	.LBE249:
 440              	.LBE250:
 179:.//BSP/Components/Src/lcd.c ****   {
 180:.//BSP/Components/Src/lcd.c ****     ret = OTM8009A_ERROR;
 181:.//BSP/Components/Src/lcd.c ****   }
 182:.//BSP/Components/Src/lcd.c ****   else
 183:.//BSP/Components/Src/lcd.c ****   {
 184:.//BSP/Components/Src/lcd.c ****     ret = OTM8009A_OK;
 185:.//BSP/Components/Src/lcd.c ****   }
 186:.//BSP/Components/Src/lcd.c ****   
 187:.//BSP/Components/Src/lcd.c ****   return ret;
 441              		.loc 1 187 3 is_stmt 1 view .LVU101
 178:.//BSP/Components/Src/lcd.c ****   {
 442              		.loc 1 178 5 is_stmt 0 view .LVU102
 443 0016 0038     		subs	r0, r0, #0
 178:.//BSP/Components/Src/lcd.c ****   {
 444              		.loc 1 178 5 view .LVU103
 445 0018 18BF     		it	ne
 446 001a 0120     		movne	r0, #1
 447              	.LVL30:
 188:.//BSP/Components/Src/lcd.c **** }
 448              		.loc 1 188 1 view .LVU104
 449 001c 4042     		rsbs	r0, r0, #0
 450 001e 02B0     		add	sp, sp, #8
 451              	.LCFI14:
 452              		.cfi_def_cfa_offset 8
 453              		@ sp needed
 454 0020 10BD     		pop	{r4, pc}
 455              		.cfi_endproc
 456              	.LFE156:
ARM GAS  /var/folders/wl/rshn8xbx1dsfj1zgryf4g1240000gn/T//ccpuhGwG.s 			page 13


 458 0022 00BF     		.section	.text.LCD_SetOrientation,"ax",%progbits
 459              		.align	1
 460              		.p2align 2,,3
 461              		.global	LCD_SetOrientation
 462              		.syntax unified
 463              		.thumb
 464              		.thumb_func
 465              		.fpu fpv5-d16
 467              	LCD_SetOrientation:
 468              	.LVL31:
 469              	.LFB157:
 189:.//BSP/Components/Src/lcd.c **** 
 190:.//BSP/Components/Src/lcd.c **** /**
 191:.//BSP/Components/Src/lcd.c **** * @brief  Set the display Orientation.
 192:.//BSP/Components/Src/lcd.c **** * @param  pObj Component object
 193:.//BSP/Components/Src/lcd.c **** * @param  Orientation   display Orientation to be set
 194:.//BSP/Components/Src/lcd.c **** * @retval Component status
 195:.//BSP/Components/Src/lcd.c **** */
 196:.//BSP/Components/Src/lcd.c **** int32_t LCD_SetOrientation(LCD_Object_t *pObj, uint32_t Orientation)
 197:.//BSP/Components/Src/lcd.c **** {
 470              		.loc 1 197 1 is_stmt 1 view -0
 471              		.cfi_startproc
 472              		@ args = 0, pretend = 0, frame = 8
 473              		@ frame_needed = 0, uses_anonymous_args = 0
 198:.//BSP/Components/Src/lcd.c ****   int32_t ret;
 474              		.loc 1 198 3 view .LVU106
 199:.//BSP/Components/Src/lcd.c ****   uint8_t tmp = OTM8009A_MADCTR_MODE_LANDSCAPE;
 475              		.loc 1 199 3 view .LVU107
 197:.//BSP/Components/Src/lcd.c ****   int32_t ret;
 476              		.loc 1 197 1 is_stmt 0 view .LVU108
 477 0000 2DE9F041 		push	{r4, r5, r6, r7, r8, lr}
 478              	.LCFI15:
 479              		.cfi_def_cfa_offset 24
 480              		.cfi_offset 4, -24
 481              		.cfi_offset 5, -20
 482              		.cfi_offset 6, -16
 483              		.cfi_offset 7, -12
 484              		.cfi_offset 8, -8
 485              		.cfi_offset 14, -4
 486              		.loc 1 199 11 view .LVU109
 487 0004 6023     		movs	r3, #96
 197:.//BSP/Components/Src/lcd.c ****   int32_t ret;
 488              		.loc 1 197 1 view .LVU110
 489 0006 82B0     		sub	sp, sp, #8
 490              	.LCFI16:
 491              		.cfi_def_cfa_offset 32
 200:.//BSP/Components/Src/lcd.c ****   uint8_t tmp1 = OTM8009A_MADCTR_MODE_PORTRAIT;
 492              		.loc 1 200 11 view .LVU111
 493 0008 0027     		movs	r7, #0
 201:.//BSP/Components/Src/lcd.c ****   
 202:.//BSP/Components/Src/lcd.c ****   if((Orientation != OTM8009A_ORIENTATION_LANDSCAPE) && (Orientation != OTM8009A_ORIENTATION_PORTRA
 494              		.loc 1 202 5 view .LVU112
 495 000a 0129     		cmp	r1, #1
 199:.//BSP/Components/Src/lcd.c ****   uint8_t tmp1 = OTM8009A_MADCTR_MODE_PORTRAIT;
 496              		.loc 1 199 11 view .LVU113
 497 000c 8DF80630 		strb	r3, [sp, #6]
 200:.//BSP/Components/Src/lcd.c ****   uint8_t tmp1 = OTM8009A_MADCTR_MODE_PORTRAIT;
ARM GAS  /var/folders/wl/rshn8xbx1dsfj1zgryf4g1240000gn/T//ccpuhGwG.s 			page 14


 498              		.loc 1 200 3 is_stmt 1 view .LVU114
 200:.//BSP/Components/Src/lcd.c ****   uint8_t tmp1 = OTM8009A_MADCTR_MODE_PORTRAIT;
 499              		.loc 1 200 11 is_stmt 0 view .LVU115
 500 0010 8DF80770 		strb	r7, [sp, #7]
 501              		.loc 1 202 3 is_stmt 1 view .LVU116
 502              		.loc 1 202 5 is_stmt 0 view .LVU117
 503 0014 3ED8     		bhi	.L25
 504 0016 0546     		mov	r5, r0
 203:.//BSP/Components/Src/lcd.c ****   {
 204:.//BSP/Components/Src/lcd.c ****     ret = OTM8009A_ERROR;
 205:.//BSP/Components/Src/lcd.c ****   }/* Send command to configure display orientation mode  */
 206:.//BSP/Components/Src/lcd.c ****   else if(Orientation == OTM8009A_ORIENTATION_LANDSCAPE)
 505              		.loc 1 206 8 is_stmt 1 view .LVU118
 506              		.loc 1 206 10 is_stmt 0 view .LVU119
 507 0018 20D0     		beq	.L27
 207:.//BSP/Components/Src/lcd.c ****   {
 208:.//BSP/Components/Src/lcd.c ****     ret = LCD_write_reg(&pObj->Ctx, OTM8009A_CMD_MADCTR, &tmp, 0);
 209:.//BSP/Components/Src/lcd.c ****     ret += LCD_write_reg(&pObj->Ctx, OTM8009A_CMD_CASET, LcdRegData27, 4);
 210:.//BSP/Components/Src/lcd.c ****     ret += LCD_write_reg(&pObj->Ctx, OTM8009A_CMD_PASET, LcdRegData28, 4);
 211:.//BSP/Components/Src/lcd.c ****     
 212:.//BSP/Components/Src/lcd.c ****     LCDACtx.Orientation = OTM8009A_ORIENTATION_LANDSCAPE;
 213:.//BSP/Components/Src/lcd.c ****   }
 214:.//BSP/Components/Src/lcd.c ****   else
 215:.//BSP/Components/Src/lcd.c ****   {
 216:.//BSP/Components/Src/lcd.c ****     ret = LCD_write_reg(&pObj->Ctx, OTM8009A_CMD_MADCTR, &tmp1, 0);
 508              		.loc 1 216 5 is_stmt 1 view .LVU120
 509              	.LVL32:
 510              	.LBB251:
 511              	.LBI251:
  81:.//BSP/Components/Src/lcd.c **** {
 512              		.loc 1 81 9 view .LVU121
 513              	.LBB252:
  83:.//BSP/Components/Src/lcd.c **** }
 514              		.loc 1 83 3 view .LVU122
  83:.//BSP/Components/Src/lcd.c **** }
 515              		.loc 1 83 10 is_stmt 0 view .LVU123
 516 001a 0469     		ldr	r4, [r0, #16]
 517 001c 3B46     		mov	r3, r7
 518 001e 0DF10702 		add	r2, sp, #7
 519              	.LVL33:
  83:.//BSP/Components/Src/lcd.c **** }
 520              		.loc 1 83 10 view .LVU124
 521 0022 3621     		movs	r1, #54
 522              	.LVL34:
  83:.//BSP/Components/Src/lcd.c **** }
 523              		.loc 1 83 10 view .LVU125
 524 0024 8069     		ldr	r0, [r0, #24]
 525              	.LVL35:
  83:.//BSP/Components/Src/lcd.c **** }
 526              		.loc 1 83 10 view .LVU126
 527 0026 A047     		blx	r4
 528              	.LVL36:
  83:.//BSP/Components/Src/lcd.c **** }
 529              		.loc 1 83 10 view .LVU127
 530              	.LBE252:
 531              	.LBE251:
 532              	.LBB254:
ARM GAS  /var/folders/wl/rshn8xbx1dsfj1zgryf4g1240000gn/T//ccpuhGwG.s 			page 15


 533              	.LBB255:
 534 0028 0423     		movs	r3, #4
 535              	.LBE255:
 536              	.LBE254:
 537              	.LBB258:
 538              	.LBB253:
 539 002a 0646     		mov	r6, r0
 540              	.LBE253:
 541              	.LBE258:
 542              	.LBB259:
 543              	.LBB256:
 544 002c 1B4A     		ldr	r2, .L28
 545 002e 2A21     		movs	r1, #42
 546 0030 2C69     		ldr	r4, [r5, #16]
 547 0032 A869     		ldr	r0, [r5, #24]
 548              	.LVL37:
  83:.//BSP/Components/Src/lcd.c **** }
 549              		.loc 1 83 10 view .LVU128
 550              	.LBE256:
 551              	.LBE259:
 217:.//BSP/Components/Src/lcd.c ****     ret += LCD_write_reg(&pObj->Ctx, OTM8009A_CMD_CASET, LcdRegData27, 4);
 552              		.loc 1 217 5 is_stmt 1 view .LVU129
 553              	.LBB260:
 554              	.LBI254:
  81:.//BSP/Components/Src/lcd.c **** {
 555              		.loc 1 81 9 view .LVU130
 556              	.LBB257:
  83:.//BSP/Components/Src/lcd.c **** }
 557              		.loc 1 83 3 view .LVU131
  83:.//BSP/Components/Src/lcd.c **** }
 558              		.loc 1 83 10 is_stmt 0 view .LVU132
 559 0034 A047     		blx	r4
 560              	.LVL38:
  83:.//BSP/Components/Src/lcd.c **** }
 561              		.loc 1 83 10 view .LVU133
 562 0036 0446     		mov	r4, r0
 563              	.LBE257:
 564              	.LBE260:
 565              	.LBB261:
 566              	.LBB262:
 567 0038 0423     		movs	r3, #4
 568 003a D5F81080 		ldr	r8, [r5, #16]
 569              	.LBE262:
 570              	.LBE261:
 571              		.loc 1 217 9 view .LVU134
 572 003e 3444     		add	r4, r4, r6
 573              	.LVL39:
 218:.//BSP/Components/Src/lcd.c ****     ret += LCD_write_reg(&pObj->Ctx, OTM8009A_CMD_PASET, LcdRegData28, 4);
 574              		.loc 1 218 5 is_stmt 1 view .LVU135
 575              	.LBB264:
 576              	.LBI261:
  81:.//BSP/Components/Src/lcd.c **** {
 577              		.loc 1 81 9 view .LVU136
 578              	.LBB263:
  83:.//BSP/Components/Src/lcd.c **** }
 579              		.loc 1 83 3 view .LVU137
  83:.//BSP/Components/Src/lcd.c **** }
ARM GAS  /var/folders/wl/rshn8xbx1dsfj1zgryf4g1240000gn/T//ccpuhGwG.s 			page 16


 580              		.loc 1 83 10 is_stmt 0 view .LVU138
 581 0040 A869     		ldr	r0, [r5, #24]
 582 0042 2B21     		movs	r1, #43
 583 0044 164A     		ldr	r2, .L28+4
 584 0046 C047     		blx	r8
 585              	.LVL40:
  83:.//BSP/Components/Src/lcd.c **** }
 586              		.loc 1 83 10 view .LVU139
 587              	.LBE263:
 588              	.LBE264:
 219:.//BSP/Components/Src/lcd.c ****     
 220:.//BSP/Components/Src/lcd.c ****     LCDACtx.Orientation = OTM8009A_ORIENTATION_PORTRAIT;
 589              		.loc 1 220 25 view .LVU140
 590 0048 164B     		ldr	r3, .L28+8
 218:.//BSP/Components/Src/lcd.c ****     
 591              		.loc 1 218 9 view .LVU141
 592 004a 2044     		add	r0, r0, r4
 593              	.LVL41:
 594              		.loc 1 220 5 is_stmt 1 view .LVU142
 595              		.loc 1 220 25 is_stmt 0 view .LVU143
 596 004c 1F60     		str	r7, [r3]
 597              	.L24:
 221:.//BSP/Components/Src/lcd.c ****   }
 222:.//BSP/Components/Src/lcd.c ****   
 223:.//BSP/Components/Src/lcd.c ****   if(ret != OTM8009A_OK)
 598              		.loc 1 223 3 is_stmt 1 view .LVU144
 599              		.loc 1 223 5 is_stmt 0 view .LVU145
 600 004e 0038     		subs	r0, r0, #0
 601              		.loc 1 223 5 view .LVU146
 602 0050 18BF     		it	ne
 603 0052 0120     		movne	r0, #1
 604              	.LVL42:
 605              		.loc 1 223 5 view .LVU147
 606 0054 4042     		rsbs	r0, r0, #0
 607              	.LVL43:
 608              	.L21:
 224:.//BSP/Components/Src/lcd.c ****   {
 225:.//BSP/Components/Src/lcd.c ****     ret = OTM8009A_ERROR;
 226:.//BSP/Components/Src/lcd.c ****   }
 227:.//BSP/Components/Src/lcd.c ****   
 228:.//BSP/Components/Src/lcd.c ****   return ret;
 229:.//BSP/Components/Src/lcd.c **** }
 609              		.loc 1 229 1 view .LVU148
 610 0056 02B0     		add	sp, sp, #8
 611              	.LCFI17:
 612              		.cfi_remember_state
 613              		.cfi_def_cfa_offset 24
 614              		@ sp needed
 615 0058 BDE8F081 		pop	{r4, r5, r6, r7, r8, pc}
 616              	.LVL44:
 617              	.L27:
 618              	.LCFI18:
 619              		.cfi_restore_state
 208:.//BSP/Components/Src/lcd.c ****     ret += LCD_write_reg(&pObj->Ctx, OTM8009A_CMD_CASET, LcdRegData27, 4);
 620              		.loc 1 208 5 is_stmt 1 view .LVU149
 621              	.LBB265:
 622              	.LBI265:
ARM GAS  /var/folders/wl/rshn8xbx1dsfj1zgryf4g1240000gn/T//ccpuhGwG.s 			page 17


  81:.//BSP/Components/Src/lcd.c **** {
 623              		.loc 1 81 9 view .LVU150
 624              	.LBB266:
  83:.//BSP/Components/Src/lcd.c **** }
 625              		.loc 1 83 3 view .LVU151
  83:.//BSP/Components/Src/lcd.c **** }
 626              		.loc 1 83 10 is_stmt 0 view .LVU152
 627 005c 3B46     		mov	r3, r7
 628 005e 0469     		ldr	r4, [r0, #16]
 629 0060 0E46     		mov	r6, r1
 630 0062 0DF10602 		add	r2, sp, #6
 631              	.LVL45:
  83:.//BSP/Components/Src/lcd.c **** }
 632              		.loc 1 83 10 view .LVU153
 633 0066 3621     		movs	r1, #54
 634              	.LVL46:
  83:.//BSP/Components/Src/lcd.c **** }
 635              		.loc 1 83 10 view .LVU154
 636 0068 8069     		ldr	r0, [r0, #24]
 637              	.LVL47:
  83:.//BSP/Components/Src/lcd.c **** }
 638              		.loc 1 83 10 view .LVU155
 639 006a A047     		blx	r4
 640              	.LVL48:
  83:.//BSP/Components/Src/lcd.c **** }
 641              		.loc 1 83 10 view .LVU156
 642              	.LBE266:
 643              	.LBE265:
 644              	.LBB268:
 645              	.LBB269:
 646 006c 0423     		movs	r3, #4
 647              	.LBE269:
 648              	.LBE268:
 649              	.LBB272:
 650              	.LBB267:
 651 006e 0746     		mov	r7, r0
 652              	.LBE267:
 653              	.LBE272:
 654              	.LBB273:
 655              	.LBB270:
 656 0070 0A4A     		ldr	r2, .L28
 657 0072 2A21     		movs	r1, #42
 658 0074 2C69     		ldr	r4, [r5, #16]
 659 0076 A869     		ldr	r0, [r5, #24]
 660              	.LVL49:
  83:.//BSP/Components/Src/lcd.c **** }
 661              		.loc 1 83 10 view .LVU157
 662              	.LBE270:
 663              	.LBE273:
 209:.//BSP/Components/Src/lcd.c ****     ret += LCD_write_reg(&pObj->Ctx, OTM8009A_CMD_PASET, LcdRegData28, 4);
 664              		.loc 1 209 5 is_stmt 1 view .LVU158
 665              	.LBB274:
 666              	.LBI268:
  81:.//BSP/Components/Src/lcd.c **** {
 667              		.loc 1 81 9 view .LVU159
 668              	.LBB271:
  83:.//BSP/Components/Src/lcd.c **** }
ARM GAS  /var/folders/wl/rshn8xbx1dsfj1zgryf4g1240000gn/T//ccpuhGwG.s 			page 18


 669              		.loc 1 83 3 view .LVU160
  83:.//BSP/Components/Src/lcd.c **** }
 670              		.loc 1 83 10 is_stmt 0 view .LVU161
 671 0078 A047     		blx	r4
 672              	.LVL50:
  83:.//BSP/Components/Src/lcd.c **** }
 673              		.loc 1 83 10 view .LVU162
 674 007a 0446     		mov	r4, r0
 675              	.LBE271:
 676              	.LBE274:
 677              	.LBB275:
 678              	.LBB276:
 679 007c 0423     		movs	r3, #4
 680 007e D5F81080 		ldr	r8, [r5, #16]
 681 0082 A869     		ldr	r0, [r5, #24]
 682 0084 2B21     		movs	r1, #43
 683 0086 064A     		ldr	r2, .L28+4
 684              	.LBE276:
 685              	.LBE275:
 209:.//BSP/Components/Src/lcd.c ****     ret += LCD_write_reg(&pObj->Ctx, OTM8009A_CMD_PASET, LcdRegData28, 4);
 686              		.loc 1 209 9 view .LVU163
 687 0088 3C44     		add	r4, r4, r7
 688              	.LVL51:
 210:.//BSP/Components/Src/lcd.c ****     
 689              		.loc 1 210 5 is_stmt 1 view .LVU164
 690              	.LBB278:
 691              	.LBI275:
  81:.//BSP/Components/Src/lcd.c **** {
 692              		.loc 1 81 9 view .LVU165
 693              	.LBB277:
  83:.//BSP/Components/Src/lcd.c **** }
 694              		.loc 1 83 3 view .LVU166
  83:.//BSP/Components/Src/lcd.c **** }
 695              		.loc 1 83 10 is_stmt 0 view .LVU167
 696 008a C047     		blx	r8
 697              	.LVL52:
  83:.//BSP/Components/Src/lcd.c **** }
 698              		.loc 1 83 10 view .LVU168
 699              	.LBE277:
 700              	.LBE278:
 212:.//BSP/Components/Src/lcd.c ****   }
 701              		.loc 1 212 25 view .LVU169
 702 008c 054B     		ldr	r3, .L28+8
 210:.//BSP/Components/Src/lcd.c ****     
 703              		.loc 1 210 9 view .LVU170
 704 008e 2044     		add	r0, r0, r4
 705              	.LVL53:
 212:.//BSP/Components/Src/lcd.c ****   }
 706              		.loc 1 212 5 is_stmt 1 view .LVU171
 212:.//BSP/Components/Src/lcd.c ****   }
 707              		.loc 1 212 25 is_stmt 0 view .LVU172
 708 0090 1E60     		str	r6, [r3]
 709 0092 DCE7     		b	.L24
 710              	.LVL54:
 711              	.L25:
 225:.//BSP/Components/Src/lcd.c ****   }
 712              		.loc 1 225 9 view .LVU173
ARM GAS  /var/folders/wl/rshn8xbx1dsfj1zgryf4g1240000gn/T//ccpuhGwG.s 			page 19


 713 0094 4FF0FF30 		mov	r0, #-1
 714              	.LVL55:
 228:.//BSP/Components/Src/lcd.c **** }
 715              		.loc 1 228 3 is_stmt 1 view .LVU174
 228:.//BSP/Components/Src/lcd.c **** }
 716              		.loc 1 228 10 is_stmt 0 view .LVU175
 717 0098 DDE7     		b	.L21
 718              	.L29:
 719 009a 00BF     		.align	2
 720              	.L28:
 721 009c 00000000 		.word	.LANCHOR1
 722 00a0 00000000 		.word	.LANCHOR2
 723 00a4 00000000 		.word	.LANCHOR0
 724              		.cfi_endproc
 725              	.LFE157:
 727              		.section	.text.LCD_GetOrientation,"ax",%progbits
 728              		.align	1
 729              		.p2align 2,,3
 730              		.global	LCD_GetOrientation
 731              		.syntax unified
 732              		.thumb
 733              		.thumb_func
 734              		.fpu fpv5-d16
 736              	LCD_GetOrientation:
 737              	.LVL56:
 738              	.LFB158:
 230:.//BSP/Components/Src/lcd.c **** 
 231:.//BSP/Components/Src/lcd.c **** /**
 232:.//BSP/Components/Src/lcd.c ****   * @brief  Set the display Orientation.
 233:.//BSP/Components/Src/lcd.c ****   * @param  pObj Component object
 234:.//BSP/Components/Src/lcd.c ****   * @param  Orientation   display Orientation to be returned
 235:.//BSP/Components/Src/lcd.c ****   * @retval Component status
 236:.//BSP/Components/Src/lcd.c ****   */
 237:.//BSP/Components/Src/lcd.c **** int32_t LCD_GetOrientation(LCD_Object_t *pObj, uint32_t *Orientation)
 238:.//BSP/Components/Src/lcd.c **** {
 739              		.loc 1 238 1 is_stmt 1 view -0
 740              		.cfi_startproc
 741              		@ args = 0, pretend = 0, frame = 0
 742              		@ frame_needed = 0, uses_anonymous_args = 0
 743              		@ link register save eliminated.
 239:.//BSP/Components/Src/lcd.c ****   /* Prevent unused argument(s) compilation warning */  
 240:.//BSP/Components/Src/lcd.c ****   (void)(pObj);
 744              		.loc 1 240 3 view .LVU177
 241:.//BSP/Components/Src/lcd.c ****   
 242:.//BSP/Components/Src/lcd.c ****   *Orientation = LCDACtx.Orientation;
 745              		.loc 1 242 3 view .LVU178
 746              		.loc 1 242 25 is_stmt 0 view .LVU179
 747 0000 024B     		ldr	r3, .L31
 243:.//BSP/Components/Src/lcd.c ****   
 244:.//BSP/Components/Src/lcd.c ****   return OTM8009A_OK;
 245:.//BSP/Components/Src/lcd.c **** }
 748              		.loc 1 245 1 view .LVU180
 749 0002 0020     		movs	r0, #0
 750              	.LVL57:
 242:.//BSP/Components/Src/lcd.c ****   
 751              		.loc 1 242 16 view .LVU181
 752 0004 1B68     		ldr	r3, [r3]
ARM GAS  /var/folders/wl/rshn8xbx1dsfj1zgryf4g1240000gn/T//ccpuhGwG.s 			page 20


 753 0006 0B60     		str	r3, [r1]
 244:.//BSP/Components/Src/lcd.c **** }
 754              		.loc 1 244 3 is_stmt 1 view .LVU182
 755              		.loc 1 245 1 is_stmt 0 view .LVU183
 756 0008 7047     		bx	lr
 757              	.L32:
 758 000a 00BF     		.align	2
 759              	.L31:
 760 000c 00000000 		.word	.LANCHOR0
 761              		.cfi_endproc
 762              	.LFE158:
 764              		.section	.text.LCD_GetXSize,"ax",%progbits
 765              		.align	1
 766              		.p2align 2,,3
 767              		.global	LCD_GetXSize
 768              		.syntax unified
 769              		.thumb
 770              		.thumb_func
 771              		.fpu fpv5-d16
 773              	LCD_GetXSize:
 774              	.LVL58:
 775              	.LFB159:
 246:.//BSP/Components/Src/lcd.c **** 
 247:.//BSP/Components/Src/lcd.c **** /**
 248:.//BSP/Components/Src/lcd.c ****   * @brief  Set the display Width.
 249:.//BSP/Components/Src/lcd.c ****   * @param  pObj Component object
 250:.//BSP/Components/Src/lcd.c ****   * @param  Xsize   display Width to be set
 251:.//BSP/Components/Src/lcd.c ****   * @retval Component status
 252:.//BSP/Components/Src/lcd.c ****   */
 253:.//BSP/Components/Src/lcd.c **** int32_t LCD_GetXSize(LCD_Object_t *pObj, uint32_t *Xsize)
 254:.//BSP/Components/Src/lcd.c **** {
 776              		.loc 1 254 1 is_stmt 1 view -0
 777              		.cfi_startproc
 778              		@ args = 0, pretend = 0, frame = 0
 779              		@ frame_needed = 0, uses_anonymous_args = 0
 780              		@ link register save eliminated.
 255:.//BSP/Components/Src/lcd.c ****   /* Prevent unused argument(s) compilation warning */  
 256:.//BSP/Components/Src/lcd.c ****   (void)(pObj);
 781              		.loc 1 256 3 view .LVU185
 257:.//BSP/Components/Src/lcd.c ****   
 258:.//BSP/Components/Src/lcd.c ****   switch(LCDACtx.Orientation)
 782              		.loc 1 258 3 view .LVU186
 783              		.loc 1 258 17 is_stmt 0 view .LVU187
 784 0000 064B     		ldr	r3, .L37
 785              		.loc 1 258 3 view .LVU188
 786 0002 1B68     		ldr	r3, [r3]
 787 0004 23B1     		cbz	r3, .L36
 259:.//BSP/Components/Src/lcd.c ****   {
 260:.//BSP/Components/Src/lcd.c ****   case OTM8009A_ORIENTATION_PORTRAIT:
 261:.//BSP/Components/Src/lcd.c ****     *Xsize = OTM8009A_480X800_WIDTH;
 262:.//BSP/Components/Src/lcd.c ****     break;
 263:.//BSP/Components/Src/lcd.c ****   case OTM8009A_ORIENTATION_LANDSCAPE:
 264:.//BSP/Components/Src/lcd.c ****     *Xsize = OTM8009A_800X480_WIDTH;
 788              		.loc 1 264 5 is_stmt 1 view .LVU189
 789              		.loc 1 264 12 is_stmt 0 view .LVU190
 790 0006 4FF44873 		mov	r3, #800
 265:.//BSP/Components/Src/lcd.c ****     break;
ARM GAS  /var/folders/wl/rshn8xbx1dsfj1zgryf4g1240000gn/T//ccpuhGwG.s 			page 21


 266:.//BSP/Components/Src/lcd.c ****   default:
 267:.//BSP/Components/Src/lcd.c ****     *Xsize = OTM8009A_800X480_WIDTH;
 268:.//BSP/Components/Src/lcd.c ****     break;
 269:.//BSP/Components/Src/lcd.c ****   }
 270:.//BSP/Components/Src/lcd.c ****   
 271:.//BSP/Components/Src/lcd.c ****   return OTM8009A_OK;
 272:.//BSP/Components/Src/lcd.c **** }
 791              		.loc 1 272 1 view .LVU191
 792 000a 0020     		movs	r0, #0
 793              	.LVL59:
 264:.//BSP/Components/Src/lcd.c ****     break;
 794              		.loc 1 264 12 view .LVU192
 795 000c 0B60     		str	r3, [r1]
 265:.//BSP/Components/Src/lcd.c ****     break;
 796              		.loc 1 265 5 is_stmt 1 view .LVU193
 271:.//BSP/Components/Src/lcd.c **** }
 797              		.loc 1 271 3 view .LVU194
 798              		.loc 1 272 1 is_stmt 0 view .LVU195
 799 000e 7047     		bx	lr
 800              	.LVL60:
 801              	.L36:
 261:.//BSP/Components/Src/lcd.c ****     break;
 802              		.loc 1 261 5 is_stmt 1 view .LVU196
 261:.//BSP/Components/Src/lcd.c ****     break;
 803              		.loc 1 261 12 is_stmt 0 view .LVU197
 804 0010 4FF4F073 		mov	r3, #480
 805              		.loc 1 272 1 view .LVU198
 806 0014 0020     		movs	r0, #0
 807              	.LVL61:
 261:.//BSP/Components/Src/lcd.c ****     break;
 808              		.loc 1 261 12 view .LVU199
 809 0016 0B60     		str	r3, [r1]
 262:.//BSP/Components/Src/lcd.c ****   case OTM8009A_ORIENTATION_LANDSCAPE:
 810              		.loc 1 262 5 is_stmt 1 view .LVU200
 271:.//BSP/Components/Src/lcd.c **** }
 811              		.loc 1 271 3 view .LVU201
 812              		.loc 1 272 1 is_stmt 0 view .LVU202
 813 0018 7047     		bx	lr
 814              	.L38:
 815 001a 00BF     		.align	2
 816              	.L37:
 817 001c 00000000 		.word	.LANCHOR0
 818              		.cfi_endproc
 819              	.LFE159:
 821              		.section	.text.LCD_GetYSize,"ax",%progbits
 822              		.align	1
 823              		.p2align 2,,3
 824              		.global	LCD_GetYSize
 825              		.syntax unified
 826              		.thumb
 827              		.thumb_func
 828              		.fpu fpv5-d16
 830              	LCD_GetYSize:
 831              	.LVL62:
 832              	.LFB160:
 273:.//BSP/Components/Src/lcd.c **** 
 274:.//BSP/Components/Src/lcd.c **** /**
ARM GAS  /var/folders/wl/rshn8xbx1dsfj1zgryf4g1240000gn/T//ccpuhGwG.s 			page 22


 275:.//BSP/Components/Src/lcd.c ****   * @brief  Set the display Height.
 276:.//BSP/Components/Src/lcd.c ****   * @param  pObj Component object
 277:.//BSP/Components/Src/lcd.c ****   * @param  Ysize   display Height to be set
 278:.//BSP/Components/Src/lcd.c ****   * @retval Component status
 279:.//BSP/Components/Src/lcd.c ****   */
 280:.//BSP/Components/Src/lcd.c **** int32_t LCD_GetYSize(LCD_Object_t *pObj, uint32_t *Ysize)
 281:.//BSP/Components/Src/lcd.c **** {
 833              		.loc 1 281 1 is_stmt 1 view -0
 834              		.cfi_startproc
 835              		@ args = 0, pretend = 0, frame = 0
 836              		@ frame_needed = 0, uses_anonymous_args = 0
 837              		@ link register save eliminated.
 282:.//BSP/Components/Src/lcd.c ****   /* Prevent unused argument(s) compilation warning */  
 283:.//BSP/Components/Src/lcd.c ****   (void)(pObj);
 838              		.loc 1 283 3 view .LVU204
 284:.//BSP/Components/Src/lcd.c ****   
 285:.//BSP/Components/Src/lcd.c ****   switch(LCDACtx.Orientation)
 839              		.loc 1 285 3 view .LVU205
 840              		.loc 1 285 17 is_stmt 0 view .LVU206
 841 0000 064B     		ldr	r3, .L43
 842              		.loc 1 285 3 view .LVU207
 843 0002 1B68     		ldr	r3, [r3]
 844 0004 23B1     		cbz	r3, .L42
 286:.//BSP/Components/Src/lcd.c ****   {
 287:.//BSP/Components/Src/lcd.c ****   case OTM8009A_ORIENTATION_PORTRAIT:
 288:.//BSP/Components/Src/lcd.c ****     *Ysize = OTM8009A_480X800_HEIGHT;
 289:.//BSP/Components/Src/lcd.c ****     break;
 290:.//BSP/Components/Src/lcd.c ****   case OTM8009A_ORIENTATION_LANDSCAPE:
 291:.//BSP/Components/Src/lcd.c ****     *Ysize = OTM8009A_800X480_HEIGHT;
 845              		.loc 1 291 5 is_stmt 1 view .LVU208
 846              		.loc 1 291 12 is_stmt 0 view .LVU209
 847 0006 4FF4F073 		mov	r3, #480
 292:.//BSP/Components/Src/lcd.c ****     break;
 293:.//BSP/Components/Src/lcd.c ****   default:
 294:.//BSP/Components/Src/lcd.c ****     *Ysize = OTM8009A_800X480_HEIGHT;
 295:.//BSP/Components/Src/lcd.c ****     break;
 296:.//BSP/Components/Src/lcd.c ****   }
 297:.//BSP/Components/Src/lcd.c ****   
 298:.//BSP/Components/Src/lcd.c ****   return OTM8009A_OK;
 299:.//BSP/Components/Src/lcd.c **** }
 848              		.loc 1 299 1 view .LVU210
 849 000a 0020     		movs	r0, #0
 850              	.LVL63:
 291:.//BSP/Components/Src/lcd.c ****     break;
 851              		.loc 1 291 12 view .LVU211
 852 000c 0B60     		str	r3, [r1]
 292:.//BSP/Components/Src/lcd.c ****     break;
 853              		.loc 1 292 5 is_stmt 1 view .LVU212
 298:.//BSP/Components/Src/lcd.c **** }
 854              		.loc 1 298 3 view .LVU213
 855              		.loc 1 299 1 is_stmt 0 view .LVU214
 856 000e 7047     		bx	lr
 857              	.LVL64:
 858              	.L42:
 288:.//BSP/Components/Src/lcd.c ****     break;
 859              		.loc 1 288 5 is_stmt 1 view .LVU215
 288:.//BSP/Components/Src/lcd.c ****     break;
ARM GAS  /var/folders/wl/rshn8xbx1dsfj1zgryf4g1240000gn/T//ccpuhGwG.s 			page 23


 860              		.loc 1 288 12 is_stmt 0 view .LVU216
 861 0010 4FF44873 		mov	r3, #800
 862              		.loc 1 299 1 view .LVU217
 863 0014 0020     		movs	r0, #0
 864              	.LVL65:
 288:.//BSP/Components/Src/lcd.c ****     break;
 865              		.loc 1 288 12 view .LVU218
 866 0016 0B60     		str	r3, [r1]
 289:.//BSP/Components/Src/lcd.c ****   case OTM8009A_ORIENTATION_LANDSCAPE:
 867              		.loc 1 289 5 is_stmt 1 view .LVU219
 298:.//BSP/Components/Src/lcd.c **** }
 868              		.loc 1 298 3 view .LVU220
 869              		.loc 1 299 1 is_stmt 0 view .LVU221
 870 0018 7047     		bx	lr
 871              	.L44:
 872 001a 00BF     		.align	2
 873              	.L43:
 874 001c 00000000 		.word	.LANCHOR0
 875              		.cfi_endproc
 876              	.LFE160:
 878              		.section	.text.LCD_Init,"ax",%progbits
 879              		.align	1
 880              		.p2align 2,,3
 881              		.global	LCD_Init
 882              		.syntax unified
 883              		.thumb
 884              		.thumb_func
 885              		.fpu fpv5-d16
 887              	LCD_Init:
 888              	.LFB161:
 300:.//BSP/Components/Src/lcd.c **** 
 301:.//BSP/Components/Src/lcd.c **** /*
 302:.//BSP/Components/Src/lcd.c **** ******************************************************************
 303:.//BSP/Components/Src/lcd.c **** *                       LCD初始化函式
 304:.//BSP/Components/Src/lcd.c **** ******************************************************************
 305:.//BSP/Components/Src/lcd.c **** */
 306:.//BSP/Components/Src/lcd.c **** void LCD_Init(void)
 307:.//BSP/Components/Src/lcd.c **** {
 889              		.loc 1 307 1 is_stmt 1 view -0
 890              		.cfi_startproc
 891              		@ args = 0, pretend = 0, frame = 8
 892              		@ frame_needed = 0, uses_anonymous_args = 0
 308:.//BSP/Components/Src/lcd.c ****     int32_t ret;
 893              		.loc 1 308 5 view .LVU223
 309:.//BSP/Components/Src/lcd.c ****     static DSI_LPCmdTypeDef LPCmd;
 894              		.loc 1 309 5 view .LVU224
 310:.//BSP/Components/Src/lcd.c **** 
 311:.//BSP/Components/Src/lcd.c ****     LTDC_DSI_Init();
 895              		.loc 1 311 5 view .LVU225
 307:.//BSP/Components/Src/lcd.c ****     int32_t ret;
 896              		.loc 1 307 1 is_stmt 0 view .LVU226
 897 0000 2DE9F041 		push	{r4, r5, r6, r7, r8, lr}
 898              	.LCFI19:
 899              		.cfi_def_cfa_offset 24
 900              		.cfi_offset 4, -24
 901              		.cfi_offset 5, -20
 902              		.cfi_offset 6, -16
ARM GAS  /var/folders/wl/rshn8xbx1dsfj1zgryf4g1240000gn/T//ccpuhGwG.s 			page 24


 903              		.cfi_offset 7, -12
 904              		.cfi_offset 8, -8
 905              		.cfi_offset 14, -4
 906 0004 82B0     		sub	sp, sp, #8
 907              	.LCFI20:
 908              		.cfi_def_cfa_offset 32
 312:.//BSP/Components/Src/lcd.c **** 
 313:.//BSP/Components/Src/lcd.c ****     LCD_object.IO.WriteReg=DSI_IO_Write;
 909              		.loc 1 313 27 view .LVU227
 910 0006 9B4C     		ldr	r4, .L53
 311:.//BSP/Components/Src/lcd.c **** 
 911              		.loc 1 311 5 view .LVU228
 912 0008 FFF7FEFF 		bl	LTDC_DSI_Init
 913              	.LVL66:
 914              		.loc 1 313 5 is_stmt 1 view .LVU229
 314:.//BSP/Components/Src/lcd.c ****     LCD_object.IO.ReadReg=DSI_IO_Read;
 915              		.loc 1 314 26 is_stmt 0 view .LVU230
 916 000c 9A4E     		ldr	r6, .L53+4
 313:.//BSP/Components/Src/lcd.c ****     LCD_object.IO.ReadReg=DSI_IO_Read;
 917              		.loc 1 313 27 view .LVU231
 918 000e DFF814C3 		ldr	ip, .L53+176
 315:.//BSP/Components/Src/lcd.c ****     LCD_object.IO.Address=0;
 919              		.loc 1 315 26 view .LVU232
 920 0012 0025     		movs	r5, #0
 316:.//BSP/Components/Src/lcd.c ****     LCD_object.IO.GetTick=HAL_GetTick;
 921              		.loc 1 316 26 view .LVU233
 922 0014 994A     		ldr	r2, .L53+8
 923              	.LBB279:
 924              	.LBB280:
  83:.//BSP/Components/Src/lcd.c **** }
 925              		.loc 1 83 10 view .LVU234
 926 0016 2046     		mov	r0, r4
 927              	.LBE280:
 928              	.LBE279:
 317:.//BSP/Components/Src/lcd.c **** 
 318:.//BSP/Components/Src/lcd.c ****     LCD_object.Ctx.ReadReg=LCD_ReadRegWrap;
 929              		.loc 1 318 27 view .LVU235
 930 0018 994F     		ldr	r7, .L53+12
 931              	.LBB285:
 932              	.LBB281:
  83:.//BSP/Components/Src/lcd.c **** }
 933              		.loc 1 83 10 view .LVU236
 934 001a 2B46     		mov	r3, r5
 935 001c 2946     		mov	r1, r5
 936              	.LBE281:
 937              	.LBE285:
 316:.//BSP/Components/Src/lcd.c **** 
 938              		.loc 1 316 26 view .LVU237
 939 001e E260     		str	r2, [r4, #12]
 940              	.LBB286:
 941              	.LBB282:
  83:.//BSP/Components/Src/lcd.c **** }
 942              		.loc 1 83 10 view .LVU238
 943 0020 984A     		ldr	r2, .L53+16
 944              	.LBE282:
 945              	.LBE286:
 315:.//BSP/Components/Src/lcd.c ****     LCD_object.IO.GetTick=HAL_GetTick;
ARM GAS  /var/folders/wl/rshn8xbx1dsfj1zgryf4g1240000gn/T//ccpuhGwG.s 			page 25


 946              		.loc 1 315 26 view .LVU239
 947 0022 2580     		strh	r5, [r4]	@ movhi
 319:.//BSP/Components/Src/lcd.c ****     LCD_object.Ctx.WriteReg=LCD_WriteRegWrap;
 320:.//BSP/Components/Src/lcd.c ****     LCD_object.Ctx.handle=&LCD_object;
 948              		.loc 1 320 26 view .LVU240
 949 0024 A461     		str	r4, [r4, #24]
 314:.//BSP/Components/Src/lcd.c ****     LCD_object.IO.Address=0;
 950              		.loc 1 314 26 view .LVU241
 951 0026 C4E901C6 		strd	ip, r6, [r4, #4]
 315:.//BSP/Components/Src/lcd.c ****     LCD_object.IO.GetTick=HAL_GetTick;
 952              		.loc 1 315 5 is_stmt 1 view .LVU242
 316:.//BSP/Components/Src/lcd.c **** 
 953              		.loc 1 316 5 view .LVU243
 318:.//BSP/Components/Src/lcd.c ****     LCD_object.Ctx.WriteReg=LCD_WriteRegWrap;
 954              		.loc 1 318 5 view .LVU244
 319:.//BSP/Components/Src/lcd.c ****     LCD_object.Ctx.handle=&LCD_object;
 955              		.loc 1 319 5 view .LVU245
 956              		.loc 1 320 5 view .LVU246
 321:.//BSP/Components/Src/lcd.c **** 
 322:.//BSP/Components/Src/lcd.c ****     static const uint8_t lcd_reg_data1[]  = {0x80,0x09,0x01};
 957              		.loc 1 322 5 view .LVU247
 323:.//BSP/Components/Src/lcd.c ****     static const uint8_t lcd_reg_data2[]  = {0x80,0x09};
 958              		.loc 1 323 5 view .LVU248
 324:.//BSP/Components/Src/lcd.c ****     static const uint8_t lcd_reg_data3[]  = {0x00,0x09,0x0F,0x0E,0x07,0x10,0x0B,0x0A,0x04,0x07,0x0B
 959              		.loc 1 324 5 view .LVU249
 325:.//BSP/Components/Src/lcd.c ****     static const uint8_t lcd_reg_data4[]  = {0x00,0x09,0x0F,0x0E,0x07,0x10,0x0B,0x0A,0x04,0x07,0x0B
 960              		.loc 1 325 5 view .LVU250
 326:.//BSP/Components/Src/lcd.c ****     static const uint8_t lcd_reg_data5[]  = {0x79,0x79};
 961              		.loc 1 326 5 view .LVU251
 327:.//BSP/Components/Src/lcd.c ****     static const uint8_t lcd_reg_data6[]  = {0x00,0x01};
 962              		.loc 1 327 5 view .LVU252
 328:.//BSP/Components/Src/lcd.c ****     static const uint8_t lcd_reg_data7[]  = {0x85,0x01,0x00,0x84,0x01,0x00};
 963              		.loc 1 328 5 view .LVU253
 329:.//BSP/Components/Src/lcd.c ****     static const uint8_t lcd_reg_data8[]  = {0x18,0x04,0x03,0x39,0x00,0x00,0x00,0x18,0x03,0x03,0x3A
 964              		.loc 1 329 5 view .LVU254
 330:.//BSP/Components/Src/lcd.c ****     static const uint8_t lcd_reg_data9[]  = {0x18,0x02,0x03,0x3B,0x00,0x00,0x00,0x18,0x01,0x03,0x3C
 965              		.loc 1 330 5 view .LVU255
 331:.//BSP/Components/Src/lcd.c ****     static const uint8_t lcd_reg_data10[] = {0x01,0x01,0x20,0x20,0x00,0x00,0x01,0x02,0x00,0x00};
 966              		.loc 1 331 5 view .LVU256
 332:.//BSP/Components/Src/lcd.c ****     static const uint8_t lcd_reg_data11[] = {0x00,0x00,0x00,0x00,0x00,0x00,0x00,0x00,0x00,0x00};
 967              		.loc 1 332 5 view .LVU257
 333:.//BSP/Components/Src/lcd.c ****     static const uint8_t lcd_reg_data12[] = {0x00,0x00,0x00,0x00,0x00,0x00,0x00,0x00,0x00,0x00,0x00
 968              		.loc 1 333 5 view .LVU258
 334:.//BSP/Components/Src/lcd.c ****     static const uint8_t lcd_reg_data13[] = {0x00,0x00,0x00,0x00,0x00,0x00,0x00,0x00,0x00,0x00,0x00
 969              		.loc 1 334 5 view .LVU259
 335:.//BSP/Components/Src/lcd.c ****     static const uint8_t lcd_reg_data14[] = {0x00,0x00,0x00,0x00,0x00,0x00,0x00,0x00,0x00,0x00};
 970              		.loc 1 335 5 view .LVU260
 336:.//BSP/Components/Src/lcd.c ****     static const uint8_t lcd_reg_data15[] = {0x00,0x04,0x04,0x04,0x04,0x04,0x00,0x00,0x00,0x00,0x00
 971              		.loc 1 336 5 view .LVU261
 337:.//BSP/Components/Src/lcd.c ****     static const uint8_t lcd_reg_data16[] = {0x00,0x00,0x00,0x00,0x00,0x00,0x04,0x04,0x04,0x04,0x04
 972              		.loc 1 337 5 view .LVU262
 338:.//BSP/Components/Src/lcd.c ****     static const uint8_t lcd_reg_data17[] = {0x00,0x00,0x00,0x00,0x00,0x00,0x00,0x00,0x00,0x00};
 973              		.loc 1 338 5 view .LVU263
 339:.//BSP/Components/Src/lcd.c ****     static const uint8_t lcd_reg_data18[] = {0xFF,0xFF,0xFF,0xFF,0xFF,0xFF,0xFF,0xFF,0xFF,0xFF};
 974              		.loc 1 339 5 view .LVU264
 340:.//BSP/Components/Src/lcd.c ****     static const uint8_t lcd_reg_data19[] = {0x00,0x26,0x09,0x0B,0x01,0x25,0x00,0x00,0x00,0x00};
 975              		.loc 1 340 5 view .LVU265
ARM GAS  /var/folders/wl/rshn8xbx1dsfj1zgryf4g1240000gn/T//ccpuhGwG.s 			page 26


 341:.//BSP/Components/Src/lcd.c ****     static const uint8_t lcd_reg_data20[] = {0x00,0x00,0x00,0x00,0x00,0x00,0x00,0x00,0x00,0x00,0x00
 976              		.loc 1 341 5 view .LVU266
 342:.//BSP/Components/Src/lcd.c ****     static const uint8_t lcd_reg_data21[] = {0x25,0x00,0x00,0x00,0x00,0x00,0x00,0x00,0x00,0x00,0x00
 977              		.loc 1 342 5 view .LVU267
 343:.//BSP/Components/Src/lcd.c ****     static const uint8_t lcd_reg_data22[] = {0x00,0x25,0x0C,0x0A,0x02,0x26,0x00,0x00,0x00,0x00};
 978              		.loc 1 343 5 view .LVU268
 344:.//BSP/Components/Src/lcd.c ****     static const uint8_t lcd_reg_data23[] = {0x00,0x00,0x00,0x00,0x00,0x00,0x00,0x00,0x00,0x00,0x00
 979              		.loc 1 344 5 view .LVU269
 345:.//BSP/Components/Src/lcd.c ****     static const uint8_t lcd_reg_data24[] = {0x26,0x00,0x00,0x00,0x00,0x00,0x00,0x00,0x00,0x00,0x00
 980              		.loc 1 345 5 view .LVU270
 346:.//BSP/Components/Src/lcd.c ****     static const uint8_t lcd_reg_data25[] = {0xFF,0xFF,0xFF};
 981              		.loc 1 346 5 view .LVU271
 347:.//BSP/Components/Src/lcd.c **** 
 348:.//BSP/Components/Src/lcd.c ****     static const uint8_t short_reg_data[] = {
 982              		.loc 1 348 5 view .LVU272
 349:.//BSP/Components/Src/lcd.c ****     0x00,0x00,0x80,0x30,0x8A,0x40,0xB1,0xA9,0x91,0x34,0xB4,0x50,0x4E,0x81,0x66,0xA1,0x08,
 350:.//BSP/Components/Src/lcd.c ****     0x92,0x01,0x95,0x94,0x33,0xA3,0x1B,0x82,0x83,0x83,0x0E,0xA6,0xA0,0xB0,0xC0,0xD0,0x90,
 351:.//BSP/Components/Src/lcd.c ****     0xE0,0xF0,0x00,OTM8009A_COLMOD_RGB565,OTM8009A_COLMOD_RGB888,0x7F,0x2C,0x02,0xFF,0x00,
 352:.//BSP/Components/Src/lcd.c ****     0x00,0x00,0x66,0xB6,0x06,0xB1,0x06};
 353:.//BSP/Components/Src/lcd.c **** 
 354:.//BSP/Components/Src/lcd.c ****     /* Enable CMD2 to access vendor specific commands                               */
 355:.//BSP/Components/Src/lcd.c ****     /* Enter in command 2 mode and set EXTC to enable address shift function (0x00) */ 
 356:.//BSP/Components/Src/lcd.c ****     ret = LCD_write_reg(&LCD_object.Ctx, OTM8009A_CMD_NOP, &short_reg_data[1], 0);
 983              		.loc 1 356 5 view .LVU273
 984              	.LVL67:
 985              	.LBB287:
 986              	.LBI279:
  81:.//BSP/Components/Src/lcd.c **** {
 987              		.loc 1 81 9 view .LVU274
 988              	.LBB283:
  83:.//BSP/Components/Src/lcd.c **** }
 989              		.loc 1 83 3 view .LVU275
 990              	.LBE283:
 991              	.LBE287:
 319:.//BSP/Components/Src/lcd.c ****     LCD_object.Ctx.handle=&LCD_object;
 992              		.loc 1 319 28 is_stmt 0 view .LVU276
 993 002a 974E     		ldr	r6, .L53+20
 994 002c C4E90467 		strd	r6, r7, [r4, #16]
 995              	.LBB288:
 996              	.LBB284:
  83:.//BSP/Components/Src/lcd.c **** }
 997              		.loc 1 83 10 view .LVU277
 998 0030 FFF7FEFF 		bl	LCD_WriteRegWrap
 999              	.LVL68:
  83:.//BSP/Components/Src/lcd.c **** }
 1000              		.loc 1 83 10 view .LVU278
 1001              	.LBE284:
 1002              	.LBE288:
 357:.//BSP/Components/Src/lcd.c **** 
 358:.//BSP/Components/Src/lcd.c ****     ret += LCD_write_reg(&LCD_object.Ctx, 0xFF, lcd_reg_data1, 3);
 1003              		.loc 1 358 5 is_stmt 1 view .LVU279
 1004              	.LBB289:
 1005              	.LBI289:
  81:.//BSP/Components/Src/lcd.c **** {
 1006              		.loc 1 81 9 view .LVU280
 1007              	.LBB290:
  83:.//BSP/Components/Src/lcd.c **** }
ARM GAS  /var/folders/wl/rshn8xbx1dsfj1zgryf4g1240000gn/T//ccpuhGwG.s 			page 27


 1008              		.loc 1 83 3 view .LVU281
  83:.//BSP/Components/Src/lcd.c **** }
 1009              		.loc 1 83 10 is_stmt 0 view .LVU282
 1010 0034 2669     		ldr	r6, [r4, #16]
 1011 0036 0323     		movs	r3, #3
 1012 0038 FF21     		movs	r1, #255
 1013 003a 944A     		ldr	r2, .L53+24
 1014 003c A069     		ldr	r0, [r4, #24]
 1015 003e B047     		blx	r6
 1016              	.LVL69:
  83:.//BSP/Components/Src/lcd.c **** }
 1017              		.loc 1 83 10 view .LVU283
 1018              	.LBE290:
 1019              	.LBE289:
 359:.//BSP/Components/Src/lcd.c ****     
 360:.//BSP/Components/Src/lcd.c ****     /* Enter ORISE Command 2 */
 361:.//BSP/Components/Src/lcd.c ****     /* Shift address to 0x80 */
 362:.//BSP/Components/Src/lcd.c ****     ret += LCD_write_reg(&LCD_object.Ctx, OTM8009A_CMD_NOP, &short_reg_data[2], 0);
 1020              		.loc 1 362 5 is_stmt 1 view .LVU284
 1021              	.LBB291:
 1022              	.LBI291:
  81:.//BSP/Components/Src/lcd.c **** {
 1023              		.loc 1 81 9 view .LVU285
 1024              	.LBB292:
  83:.//BSP/Components/Src/lcd.c **** }
 1025              		.loc 1 83 3 view .LVU286
  83:.//BSP/Components/Src/lcd.c **** }
 1026              		.loc 1 83 10 is_stmt 0 view .LVU287
 1027 0040 2B46     		mov	r3, r5
 1028 0042 2946     		mov	r1, r5
 1029 0044 2669     		ldr	r6, [r4, #16]
 1030 0046 924A     		ldr	r2, .L53+28
 1031 0048 A069     		ldr	r0, [r4, #24]
 1032 004a B047     		blx	r6
 1033              	.LVL70:
  83:.//BSP/Components/Src/lcd.c **** }
 1034              		.loc 1 83 10 view .LVU288
 1035              	.LBE292:
 1036              	.LBE291:
 363:.//BSP/Components/Src/lcd.c **** 
 364:.//BSP/Components/Src/lcd.c ****     ret += LCD_write_reg(&LCD_object.Ctx, 0xFF, lcd_reg_data2, 2);
 1037              		.loc 1 364 5 is_stmt 1 view .LVU289
 1038              	.LBB293:
 1039              	.LBI293:
  81:.//BSP/Components/Src/lcd.c **** {
 1040              		.loc 1 81 9 view .LVU290
 1041              	.LBB294:
  83:.//BSP/Components/Src/lcd.c **** }
 1042              		.loc 1 83 3 view .LVU291
  83:.//BSP/Components/Src/lcd.c **** }
 1043              		.loc 1 83 10 is_stmt 0 view .LVU292
 1044 004c 2669     		ldr	r6, [r4, #16]
 1045 004e 0223     		movs	r3, #2
 1046 0050 904A     		ldr	r2, .L53+32
 1047 0052 FF21     		movs	r1, #255
 1048 0054 A069     		ldr	r0, [r4, #24]
 1049 0056 B047     		blx	r6
ARM GAS  /var/folders/wl/rshn8xbx1dsfj1zgryf4g1240000gn/T//ccpuhGwG.s 			page 28


 1050              	.LVL71:
  83:.//BSP/Components/Src/lcd.c **** }
 1051              		.loc 1 83 10 view .LVU293
 1052              	.LBE294:
 1053              	.LBE293:
 365:.//BSP/Components/Src/lcd.c **** 
 366:.//BSP/Components/Src/lcd.c ****     /////////////////////////////////////////////////////////////////////
 367:.//BSP/Components/Src/lcd.c ****     /* SD_PCH_CTRL - 0xC480h - 129th parameter - Default 0x00          */
 368:.//BSP/Components/Src/lcd.c ****     /* Set SD_PT                                                       */
 369:.//BSP/Components/Src/lcd.c ****     /* -> Source output level during porch and non-display area to GND */
 370:.//BSP/Components/Src/lcd.c ****     ret += LCD_write_reg(&LCD_object.Ctx, OTM8009A_CMD_NOP, &short_reg_data[2], 0);
 1054              		.loc 1 370 5 is_stmt 1 view .LVU294
 1055              	.LBB295:
 1056              	.LBI295:
  81:.//BSP/Components/Src/lcd.c **** {
 1057              		.loc 1 81 9 view .LVU295
 1058              	.LBB296:
  83:.//BSP/Components/Src/lcd.c **** }
 1059              		.loc 1 83 3 view .LVU296
  83:.//BSP/Components/Src/lcd.c **** }
 1060              		.loc 1 83 10 is_stmt 0 view .LVU297
 1061 0058 2B46     		mov	r3, r5
 1062 005a 2946     		mov	r1, r5
 1063 005c 8C4A     		ldr	r2, .L53+28
 1064 005e 2669     		ldr	r6, [r4, #16]
 1065 0060 A069     		ldr	r0, [r4, #24]
 1066 0062 B047     		blx	r6
 1067              	.LVL72:
  83:.//BSP/Components/Src/lcd.c **** }
 1068              		.loc 1 83 10 view .LVU298
 1069              	.LBE296:
 1070              	.LBE295:
 371:.//BSP/Components/Src/lcd.c ****     ret += LCD_write_reg(&LCD_object.Ctx, 0xC4, &short_reg_data[3], 0);
 1071              		.loc 1 371 5 is_stmt 1 view .LVU299
 1072              	.LBB297:
 1073              	.LBI297:
  81:.//BSP/Components/Src/lcd.c **** {
 1074              		.loc 1 81 9 view .LVU300
 1075              	.LBB298:
  83:.//BSP/Components/Src/lcd.c **** }
 1076              		.loc 1 83 3 view .LVU301
  83:.//BSP/Components/Src/lcd.c **** }
 1077              		.loc 1 83 10 is_stmt 0 view .LVU302
 1078 0064 2B46     		mov	r3, r5
 1079 0066 C421     		movs	r1, #196
 1080 0068 2569     		ldr	r5, [r4, #16]
 1081 006a 8B4A     		ldr	r2, .L53+36
 1082 006c A069     		ldr	r0, [r4, #24]
 1083 006e A847     		blx	r5
 1084              	.LVL73:
  83:.//BSP/Components/Src/lcd.c **** }
 1085              		.loc 1 83 10 view .LVU303
 1086              	.LBE298:
 1087              	.LBE297:
 372:.//BSP/Components/Src/lcd.c **** 
 373:.//BSP/Components/Src/lcd.c ****     (void)LCD_IO_Delay(&LCD_object, 10);
 1088              		.loc 1 373 5 is_stmt 1 view .LVU304
ARM GAS  /var/folders/wl/rshn8xbx1dsfj1zgryf4g1240000gn/T//ccpuhGwG.s 			page 29


 1089              	.LBB299:
 1090              	.LBI299:
  66:.//BSP/Components/Src/lcd.c **** {
 1091              		.loc 1 66 16 view .LVU305
 1092              	.LBB300:
  68:.//BSP/Components/Src/lcd.c ****   tickstart = pObj->IO.GetTick();
 1093              		.loc 1 68 3 view .LVU306
  69:.//BSP/Components/Src/lcd.c ****   while((pObj->IO.GetTick() - tickstart) < Delay)
 1094              		.loc 1 69 3 view .LVU307
  69:.//BSP/Components/Src/lcd.c ****   while((pObj->IO.GetTick() - tickstart) < Delay)
 1095              		.loc 1 69 15 is_stmt 0 view .LVU308
 1096 0070 E368     		ldr	r3, [r4, #12]
 1097 0072 9847     		blx	r3
 1098              	.LVL74:
 1099 0074 0546     		mov	r5, r0
 1100              	.LVL75:
  70:.//BSP/Components/Src/lcd.c ****   {
 1101              		.loc 1 70 3 is_stmt 1 view .LVU309
 1102              	.L46:
  72:.//BSP/Components/Src/lcd.c ****   return OTM8009A_OK;
 1103              		.loc 1 72 3 view .LVU310
  70:.//BSP/Components/Src/lcd.c ****   {
 1104              		.loc 1 70 8 view .LVU311
  70:.//BSP/Components/Src/lcd.c ****   {
 1105              		.loc 1 70 10 is_stmt 0 view .LVU312
 1106 0076 E368     		ldr	r3, [r4, #12]
 1107 0078 9847     		blx	r3
 1108              	.LVL76:
  70:.//BSP/Components/Src/lcd.c ****   {
 1109              		.loc 1 70 29 view .LVU313
 1110 007a 401B     		subs	r0, r0, r5
  70:.//BSP/Components/Src/lcd.c ****   {
 1111              		.loc 1 70 8 view .LVU314
 1112 007c 0928     		cmp	r0, #9
 1113 007e FAD9     		bls	.L46
  73:.//BSP/Components/Src/lcd.c **** }
 1114              		.loc 1 73 3 is_stmt 1 view .LVU315
 1115              	.LVL77:
  73:.//BSP/Components/Src/lcd.c **** }
 1116              		.loc 1 73 3 is_stmt 0 view .LVU316
 1117              	.LBE300:
 1118              	.LBE299:
 374:.//BSP/Components/Src/lcd.c ****     /* Not documented */
 375:.//BSP/Components/Src/lcd.c ****     ret += LCD_write_reg(&LCD_object.Ctx, OTM8009A_CMD_NOP, &short_reg_data[4], 0);
 1119              		.loc 1 375 5 is_stmt 1 view .LVU317
 1120              	.LBB301:
 1121              	.LBI301:
  81:.//BSP/Components/Src/lcd.c **** {
 1122              		.loc 1 81 9 view .LVU318
 1123              	.LBB302:
  83:.//BSP/Components/Src/lcd.c **** }
 1124              		.loc 1 83 3 view .LVU319
  83:.//BSP/Components/Src/lcd.c **** }
 1125              		.loc 1 83 10 is_stmt 0 view .LVU320
 1126 0080 0023     		movs	r3, #0
 1127 0082 2569     		ldr	r5, [r4, #16]
 1128 0084 854A     		ldr	r2, .L53+40
ARM GAS  /var/folders/wl/rshn8xbx1dsfj1zgryf4g1240000gn/T//ccpuhGwG.s 			page 30


 1129 0086 1946     		mov	r1, r3
 1130 0088 A069     		ldr	r0, [r4, #24]
 1131 008a A847     		blx	r5
 1132              	.LVL78:
  83:.//BSP/Components/Src/lcd.c **** }
 1133              		.loc 1 83 10 view .LVU321
 1134              	.LBE302:
 1135              	.LBE301:
 376:.//BSP/Components/Src/lcd.c ****     ret += LCD_write_reg(&LCD_object.Ctx, 0xC4, &short_reg_data[5], 0);
 1136              		.loc 1 376 5 is_stmt 1 view .LVU322
 1137              	.LBB303:
 1138              	.LBI303:
  81:.//BSP/Components/Src/lcd.c **** {
 1139              		.loc 1 81 9 view .LVU323
 1140              	.LBB304:
  83:.//BSP/Components/Src/lcd.c **** }
 1141              		.loc 1 83 3 view .LVU324
  83:.//BSP/Components/Src/lcd.c **** }
 1142              		.loc 1 83 10 is_stmt 0 view .LVU325
 1143 008c 2569     		ldr	r5, [r4, #16]
 1144 008e 0023     		movs	r3, #0
 1145 0090 834A     		ldr	r2, .L53+44
 1146 0092 C421     		movs	r1, #196
 1147 0094 A069     		ldr	r0, [r4, #24]
 1148 0096 A847     		blx	r5
 1149              	.LVL79:
  83:.//BSP/Components/Src/lcd.c **** }
 1150              		.loc 1 83 10 view .LVU326
 1151              	.LBE304:
 1152              	.LBE303:
 377:.//BSP/Components/Src/lcd.c ****     (void)LCD_IO_Delay(&LCD_object, 10);
 1153              		.loc 1 377 5 is_stmt 1 view .LVU327
 1154              	.LBB305:
 1155              	.LBI305:
  66:.//BSP/Components/Src/lcd.c **** {
 1156              		.loc 1 66 16 view .LVU328
 1157              	.LBB306:
  68:.//BSP/Components/Src/lcd.c ****   tickstart = pObj->IO.GetTick();
 1158              		.loc 1 68 3 view .LVU329
  69:.//BSP/Components/Src/lcd.c ****   while((pObj->IO.GetTick() - tickstart) < Delay)
 1159              		.loc 1 69 3 view .LVU330
  69:.//BSP/Components/Src/lcd.c ****   while((pObj->IO.GetTick() - tickstart) < Delay)
 1160              		.loc 1 69 15 is_stmt 0 view .LVU331
 1161 0098 E368     		ldr	r3, [r4, #12]
 1162 009a 9847     		blx	r3
 1163              	.LVL80:
 1164 009c 0546     		mov	r5, r0
 1165              	.LVL81:
  70:.//BSP/Components/Src/lcd.c ****   {
 1166              		.loc 1 70 3 is_stmt 1 view .LVU332
 1167              	.L47:
  72:.//BSP/Components/Src/lcd.c ****   return OTM8009A_OK;
 1168              		.loc 1 72 3 view .LVU333
  70:.//BSP/Components/Src/lcd.c ****   {
 1169              		.loc 1 70 8 view .LVU334
  70:.//BSP/Components/Src/lcd.c ****   {
 1170              		.loc 1 70 10 is_stmt 0 view .LVU335
ARM GAS  /var/folders/wl/rshn8xbx1dsfj1zgryf4g1240000gn/T//ccpuhGwG.s 			page 31


 1171 009e E368     		ldr	r3, [r4, #12]
 1172 00a0 9847     		blx	r3
 1173              	.LVL82:
  70:.//BSP/Components/Src/lcd.c ****   {
 1174              		.loc 1 70 29 view .LVU336
 1175 00a2 401B     		subs	r0, r0, r5
  70:.//BSP/Components/Src/lcd.c ****   {
 1176              		.loc 1 70 8 view .LVU337
 1177 00a4 0928     		cmp	r0, #9
 1178 00a6 FAD9     		bls	.L47
  73:.//BSP/Components/Src/lcd.c **** }
 1179              		.loc 1 73 3 is_stmt 1 view .LVU338
 1180              	.LVL83:
  73:.//BSP/Components/Src/lcd.c **** }
 1181              		.loc 1 73 3 is_stmt 0 view .LVU339
 1182              	.LBE306:
 1183              	.LBE305:
 378:.//BSP/Components/Src/lcd.c ****     /////////////////////////////////////////////////////////////////////
 379:.//BSP/Components/Src/lcd.c **** 
 380:.//BSP/Components/Src/lcd.c ****     /* PWR_CTRL4 - 0xC4B0h - 178th parameter - Default 0xA8 */
 381:.//BSP/Components/Src/lcd.c ****     /* Set gvdd_en_test                                     */
 382:.//BSP/Components/Src/lcd.c ****     /* -> enable GVDD test mode !!!                         */
 383:.//BSP/Components/Src/lcd.c ****     ret += LCD_write_reg(&LCD_object.Ctx, OTM8009A_CMD_NOP, &short_reg_data[6], 0);
 1184              		.loc 1 383 5 is_stmt 1 view .LVU340
 1185              	.LBB307:
 1186              	.LBI307:
  81:.//BSP/Components/Src/lcd.c **** {
 1187              		.loc 1 81 9 view .LVU341
 1188              	.LBB308:
  83:.//BSP/Components/Src/lcd.c **** }
 1189              		.loc 1 83 3 view .LVU342
  83:.//BSP/Components/Src/lcd.c **** }
 1190              		.loc 1 83 10 is_stmt 0 view .LVU343
 1191 00a8 0023     		movs	r3, #0
 1192 00aa 2569     		ldr	r5, [r4, #16]
 1193 00ac 7D4A     		ldr	r2, .L53+48
 1194 00ae 1946     		mov	r1, r3
 1195 00b0 A069     		ldr	r0, [r4, #24]
 1196 00b2 A847     		blx	r5
 1197              	.LVL84:
  83:.//BSP/Components/Src/lcd.c **** }
 1198              		.loc 1 83 10 view .LVU344
 1199              	.LBE308:
 1200              	.LBE307:
 384:.//BSP/Components/Src/lcd.c ****     ret += LCD_write_reg(&LCD_object.Ctx, 0xC5, &short_reg_data[7], 0);
 1201              		.loc 1 384 5 is_stmt 1 view .LVU345
 1202              	.LBB309:
 1203              	.LBI309:
  81:.//BSP/Components/Src/lcd.c **** {
 1204              		.loc 1 81 9 view .LVU346
 1205              	.LBB310:
  83:.//BSP/Components/Src/lcd.c **** }
 1206              		.loc 1 83 3 view .LVU347
  83:.//BSP/Components/Src/lcd.c **** }
 1207              		.loc 1 83 10 is_stmt 0 view .LVU348
 1208 00b4 2569     		ldr	r5, [r4, #16]
 1209 00b6 0023     		movs	r3, #0
ARM GAS  /var/folders/wl/rshn8xbx1dsfj1zgryf4g1240000gn/T//ccpuhGwG.s 			page 32


 1210 00b8 7B4A     		ldr	r2, .L53+52
 1211 00ba C521     		movs	r1, #197
 1212 00bc A069     		ldr	r0, [r4, #24]
 1213 00be A847     		blx	r5
 1214              	.LVL85:
  83:.//BSP/Components/Src/lcd.c **** }
 1215              		.loc 1 83 10 view .LVU349
 1216              	.LBE310:
 1217              	.LBE309:
 385:.//BSP/Components/Src/lcd.c **** 
 386:.//BSP/Components/Src/lcd.c ****     /* PWR_CTRL2 - 0xC590h - 146th parameter - Default 0x79      */
 387:.//BSP/Components/Src/lcd.c ****     /* Set pump 4 vgh voltage                                    */
 388:.//BSP/Components/Src/lcd.c ****     /* -> from 15.0v down to 13.0v                               */
 389:.//BSP/Components/Src/lcd.c ****     /* Set pump 5 vgh voltage                                    */
 390:.//BSP/Components/Src/lcd.c ****     /* -> from -12.0v downto -9.0v                               */
 391:.//BSP/Components/Src/lcd.c ****     ret += LCD_write_reg(&LCD_object.Ctx, OTM8009A_CMD_NOP, &short_reg_data[8], 0);
 1218              		.loc 1 391 5 is_stmt 1 view .LVU350
 1219              	.LBB311:
 1220              	.LBI311:
  81:.//BSP/Components/Src/lcd.c **** {
 1221              		.loc 1 81 9 view .LVU351
 1222              	.LBB312:
  83:.//BSP/Components/Src/lcd.c **** }
 1223              		.loc 1 83 3 view .LVU352
  83:.//BSP/Components/Src/lcd.c **** }
 1224              		.loc 1 83 10 is_stmt 0 view .LVU353
 1225 00c0 0023     		movs	r3, #0
 1226 00c2 2569     		ldr	r5, [r4, #16]
 1227 00c4 1946     		mov	r1, r3
 1228 00c6 794A     		ldr	r2, .L53+56
 1229 00c8 A069     		ldr	r0, [r4, #24]
 1230 00ca A847     		blx	r5
 1231              	.LVL86:
  83:.//BSP/Components/Src/lcd.c **** }
 1232              		.loc 1 83 10 view .LVU354
 1233              	.LBE312:
 1234              	.LBE311:
 392:.//BSP/Components/Src/lcd.c ****     ret += LCD_write_reg(&LCD_object.Ctx, 0xC5, &short_reg_data[9], 0);
 1235              		.loc 1 392 5 is_stmt 1 view .LVU355
 1236              	.LBB313:
 1237              	.LBI313:
  81:.//BSP/Components/Src/lcd.c **** {
 1238              		.loc 1 81 9 view .LVU356
 1239              	.LBB314:
  83:.//BSP/Components/Src/lcd.c **** }
 1240              		.loc 1 83 3 view .LVU357
  83:.//BSP/Components/Src/lcd.c **** }
 1241              		.loc 1 83 10 is_stmt 0 view .LVU358
 1242 00cc 2569     		ldr	r5, [r4, #16]
 1243 00ce 0023     		movs	r3, #0
 1244 00d0 774A     		ldr	r2, .L53+60
 1245 00d2 C521     		movs	r1, #197
 1246 00d4 A069     		ldr	r0, [r4, #24]
 1247 00d6 A847     		blx	r5
 1248              	.LVL87:
  83:.//BSP/Components/Src/lcd.c **** }
 1249              		.loc 1 83 10 view .LVU359
ARM GAS  /var/folders/wl/rshn8xbx1dsfj1zgryf4g1240000gn/T//ccpuhGwG.s 			page 33


 1250              	.LBE314:
 1251              	.LBE313:
 393:.//BSP/Components/Src/lcd.c **** 
 394:.//BSP/Components/Src/lcd.c ****     /* P_DRV_M - 0xC0B4h - 181th parameter - Default 0x00 */
 395:.//BSP/Components/Src/lcd.c ****     /* -> Column inversion                                */
 396:.//BSP/Components/Src/lcd.c ****     ret += LCD_write_reg(&LCD_object.Ctx, OTM8009A_CMD_NOP, &short_reg_data[10], 0);
 1252              		.loc 1 396 5 is_stmt 1 view .LVU360
 1253              	.LBB315:
 1254              	.LBI315:
  81:.//BSP/Components/Src/lcd.c **** {
 1255              		.loc 1 81 9 view .LVU361
 1256              	.LBB316:
  83:.//BSP/Components/Src/lcd.c **** }
 1257              		.loc 1 83 3 view .LVU362
  83:.//BSP/Components/Src/lcd.c **** }
 1258              		.loc 1 83 10 is_stmt 0 view .LVU363
 1259 00d8 0023     		movs	r3, #0
 1260 00da 2569     		ldr	r5, [r4, #16]
 1261 00dc 1946     		mov	r1, r3
 1262 00de 754A     		ldr	r2, .L53+64
 1263 00e0 A069     		ldr	r0, [r4, #24]
 1264 00e2 A847     		blx	r5
 1265              	.LVL88:
  83:.//BSP/Components/Src/lcd.c **** }
 1266              		.loc 1 83 10 view .LVU364
 1267              	.LBE316:
 1268              	.LBE315:
 397:.//BSP/Components/Src/lcd.c ****     ret += LCD_write_reg(&LCD_object.Ctx, 0xC0, &short_reg_data[11], 0);
 1269              		.loc 1 397 5 is_stmt 1 view .LVU365
 1270              	.LBB317:
 1271              	.LBI317:
  81:.//BSP/Components/Src/lcd.c **** {
 1272              		.loc 1 81 9 view .LVU366
 1273              	.LBB318:
  83:.//BSP/Components/Src/lcd.c **** }
 1274              		.loc 1 83 3 view .LVU367
  83:.//BSP/Components/Src/lcd.c **** }
 1275              		.loc 1 83 10 is_stmt 0 view .LVU368
 1276 00e4 2569     		ldr	r5, [r4, #16]
 1277 00e6 0023     		movs	r3, #0
 1278 00e8 734A     		ldr	r2, .L53+68
 1279 00ea C021     		movs	r1, #192
 1280 00ec A069     		ldr	r0, [r4, #24]
 1281 00ee A847     		blx	r5
 1282              	.LVL89:
  83:.//BSP/Components/Src/lcd.c **** }
 1283              		.loc 1 83 10 view .LVU369
 1284              	.LBE318:
 1285              	.LBE317:
 398:.//BSP/Components/Src/lcd.c **** 
 399:.//BSP/Components/Src/lcd.c ****     /* VCOMDC - 0xD900h - 1st parameter - Default 0x39h */
 400:.//BSP/Components/Src/lcd.c ****     /* VCOM Voltage settings                            */
 401:.//BSP/Components/Src/lcd.c ****     /* -> from -1.0000v downto -1.2625v                 */
 402:.//BSP/Components/Src/lcd.c ****     ret += LCD_write_reg(&LCD_object.Ctx, OTM8009A_CMD_NOP, &short_reg_data[1], 0);
 1286              		.loc 1 402 5 is_stmt 1 view .LVU370
 1287              	.LBB319:
 1288              	.LBI319:
ARM GAS  /var/folders/wl/rshn8xbx1dsfj1zgryf4g1240000gn/T//ccpuhGwG.s 			page 34


  81:.//BSP/Components/Src/lcd.c **** {
 1289              		.loc 1 81 9 view .LVU371
 1290              	.LBB320:
  83:.//BSP/Components/Src/lcd.c **** }
 1291              		.loc 1 83 3 view .LVU372
  83:.//BSP/Components/Src/lcd.c **** }
 1292              		.loc 1 83 10 is_stmt 0 view .LVU373
 1293 00f0 0023     		movs	r3, #0
 1294 00f2 2569     		ldr	r5, [r4, #16]
 1295 00f4 1946     		mov	r1, r3
 1296 00f6 634A     		ldr	r2, .L53+16
 1297 00f8 A069     		ldr	r0, [r4, #24]
 1298 00fa A847     		blx	r5
 1299              	.LVL90:
  83:.//BSP/Components/Src/lcd.c **** }
 1300              		.loc 1 83 10 view .LVU374
 1301              	.LBE320:
 1302              	.LBE319:
 403:.//BSP/Components/Src/lcd.c ****     ret += LCD_write_reg(&LCD_object.Ctx, 0xD9, &short_reg_data[12], 0);
 1303              		.loc 1 403 5 is_stmt 1 view .LVU375
 1304              	.LBB321:
 1305              	.LBI321:
  81:.//BSP/Components/Src/lcd.c **** {
 1306              		.loc 1 81 9 view .LVU376
 1307              	.LBB322:
  83:.//BSP/Components/Src/lcd.c **** }
 1308              		.loc 1 83 3 view .LVU377
  83:.//BSP/Components/Src/lcd.c **** }
 1309              		.loc 1 83 10 is_stmt 0 view .LVU378
 1310 00fc 2569     		ldr	r5, [r4, #16]
 1311 00fe 0023     		movs	r3, #0
 1312 0100 6E4A     		ldr	r2, .L53+72
 1313 0102 D921     		movs	r1, #217
 1314 0104 A069     		ldr	r0, [r4, #24]
 1315 0106 A847     		blx	r5
 1316              	.LVL91:
  83:.//BSP/Components/Src/lcd.c **** }
 1317              		.loc 1 83 10 view .LVU379
 1318              	.LBE322:
 1319              	.LBE321:
 404:.//BSP/Components/Src/lcd.c **** 
 405:.//BSP/Components/Src/lcd.c ****     /* Oscillator adjustment for Idle/Normal mode (LPDT only) set to 65Hz (default is 60Hz) */
 406:.//BSP/Components/Src/lcd.c ****     ret += LCD_write_reg(&LCD_object.Ctx, OTM8009A_CMD_NOP, &short_reg_data[13], 0);
 1320              		.loc 1 406 5 is_stmt 1 view .LVU380
 1321              	.LBB323:
 1322              	.LBI323:
  81:.//BSP/Components/Src/lcd.c **** {
 1323              		.loc 1 81 9 view .LVU381
 1324              	.LBB324:
  83:.//BSP/Components/Src/lcd.c **** }
 1325              		.loc 1 83 3 view .LVU382
  83:.//BSP/Components/Src/lcd.c **** }
 1326              		.loc 1 83 10 is_stmt 0 view .LVU383
 1327 0108 0023     		movs	r3, #0
 1328 010a 2569     		ldr	r5, [r4, #16]
 1329 010c 1946     		mov	r1, r3
 1330 010e 6C4A     		ldr	r2, .L53+76
ARM GAS  /var/folders/wl/rshn8xbx1dsfj1zgryf4g1240000gn/T//ccpuhGwG.s 			page 35


 1331 0110 A069     		ldr	r0, [r4, #24]
 1332 0112 A847     		blx	r5
 1333              	.LVL92:
  83:.//BSP/Components/Src/lcd.c **** }
 1334              		.loc 1 83 10 view .LVU384
 1335              	.LBE324:
 1336              	.LBE323:
 407:.//BSP/Components/Src/lcd.c ****     ret += LCD_write_reg(&LCD_object.Ctx, 0xC1, &short_reg_data[14], 0);
 1337              		.loc 1 407 5 is_stmt 1 view .LVU385
 1338              	.LBB325:
 1339              	.LBI325:
  81:.//BSP/Components/Src/lcd.c **** {
 1340              		.loc 1 81 9 view .LVU386
 1341              	.LBB326:
  83:.//BSP/Components/Src/lcd.c **** }
 1342              		.loc 1 83 3 view .LVU387
  83:.//BSP/Components/Src/lcd.c **** }
 1343              		.loc 1 83 10 is_stmt 0 view .LVU388
 1344 0114 2569     		ldr	r5, [r4, #16]
 1345 0116 0023     		movs	r3, #0
 1346 0118 6A4A     		ldr	r2, .L53+80
 1347 011a C121     		movs	r1, #193
 1348 011c A069     		ldr	r0, [r4, #24]
 1349 011e A847     		blx	r5
 1350              	.LVL93:
  83:.//BSP/Components/Src/lcd.c **** }
 1351              		.loc 1 83 10 view .LVU389
 1352              	.LBE326:
 1353              	.LBE325:
 408:.//BSP/Components/Src/lcd.c **** 
 409:.//BSP/Components/Src/lcd.c ****     /* Video mode internal */
 410:.//BSP/Components/Src/lcd.c ****     ret += LCD_write_reg(&LCD_object.Ctx, OTM8009A_CMD_NOP, &short_reg_data[15], 0);
 1354              		.loc 1 410 5 is_stmt 1 view .LVU390
 1355              	.LBB327:
 1356              	.LBI327:
  81:.//BSP/Components/Src/lcd.c **** {
 1357              		.loc 1 81 9 view .LVU391
 1358              	.LBB328:
  83:.//BSP/Components/Src/lcd.c **** }
 1359              		.loc 1 83 3 view .LVU392
  83:.//BSP/Components/Src/lcd.c **** }
 1360              		.loc 1 83 10 is_stmt 0 view .LVU393
 1361 0120 0023     		movs	r3, #0
 1362 0122 2569     		ldr	r5, [r4, #16]
 1363 0124 1946     		mov	r1, r3
 1364 0126 684A     		ldr	r2, .L53+84
 1365 0128 A069     		ldr	r0, [r4, #24]
 1366 012a A847     		blx	r5
 1367              	.LVL94:
  83:.//BSP/Components/Src/lcd.c **** }
 1368              		.loc 1 83 10 view .LVU394
 1369              	.LBE328:
 1370              	.LBE327:
 411:.//BSP/Components/Src/lcd.c ****     ret += LCD_write_reg(&LCD_object.Ctx, 0xC1, &short_reg_data[16], 0);
 1371              		.loc 1 411 5 is_stmt 1 view .LVU395
 1372              	.LBB329:
 1373              	.LBI329:
ARM GAS  /var/folders/wl/rshn8xbx1dsfj1zgryf4g1240000gn/T//ccpuhGwG.s 			page 36


  81:.//BSP/Components/Src/lcd.c **** {
 1374              		.loc 1 81 9 view .LVU396
 1375              	.LBB330:
  83:.//BSP/Components/Src/lcd.c **** }
 1376              		.loc 1 83 3 view .LVU397
  83:.//BSP/Components/Src/lcd.c **** }
 1377              		.loc 1 83 10 is_stmt 0 view .LVU398
 1378 012c 2569     		ldr	r5, [r4, #16]
 1379 012e 0023     		movs	r3, #0
 1380 0130 664A     		ldr	r2, .L53+88
 1381 0132 C121     		movs	r1, #193
 1382 0134 A069     		ldr	r0, [r4, #24]
 1383 0136 A847     		blx	r5
 1384              	.LVL95:
  83:.//BSP/Components/Src/lcd.c **** }
 1385              		.loc 1 83 10 view .LVU399
 1386              	.LBE330:
 1387              	.LBE329:
 412:.//BSP/Components/Src/lcd.c **** 
 413:.//BSP/Components/Src/lcd.c ****     /* PWR_CTRL2 - 0xC590h - 147h parameter - Default 0x00 */
 414:.//BSP/Components/Src/lcd.c ****     /* Set pump 4&5 x6                                     */
 415:.//BSP/Components/Src/lcd.c ****     /* -> ONLY VALID when PUMP4_EN_ASDM_HV = "0"           */
 416:.//BSP/Components/Src/lcd.c ****     ret += LCD_write_reg(&LCD_object.Ctx, OTM8009A_CMD_NOP, &short_reg_data[17], 0);
 1388              		.loc 1 416 5 is_stmt 1 view .LVU400
 1389              	.LBB331:
 1390              	.LBI331:
  81:.//BSP/Components/Src/lcd.c **** {
 1391              		.loc 1 81 9 view .LVU401
 1392              	.LBB332:
  83:.//BSP/Components/Src/lcd.c **** }
 1393              		.loc 1 83 3 view .LVU402
  83:.//BSP/Components/Src/lcd.c **** }
 1394              		.loc 1 83 10 is_stmt 0 view .LVU403
 1395 0138 0023     		movs	r3, #0
 1396 013a 2569     		ldr	r5, [r4, #16]
 1397 013c 1946     		mov	r1, r3
 1398 013e 644A     		ldr	r2, .L53+92
 1399 0140 A069     		ldr	r0, [r4, #24]
 1400 0142 A847     		blx	r5
 1401              	.LVL96:
  83:.//BSP/Components/Src/lcd.c **** }
 1402              		.loc 1 83 10 view .LVU404
 1403              	.LBE332:
 1404              	.LBE331:
 417:.//BSP/Components/Src/lcd.c ****     ret += LCD_write_reg(&LCD_object.Ctx, 0xC5, &short_reg_data[18], 0);
 1405              		.loc 1 417 5 is_stmt 1 view .LVU405
 1406              	.LBB333:
 1407              	.LBI333:
  81:.//BSP/Components/Src/lcd.c **** {
 1408              		.loc 1 81 9 view .LVU406
 1409              	.LBB334:
  83:.//BSP/Components/Src/lcd.c **** }
 1410              		.loc 1 83 3 view .LVU407
  83:.//BSP/Components/Src/lcd.c **** }
 1411              		.loc 1 83 10 is_stmt 0 view .LVU408
 1412 0144 2569     		ldr	r5, [r4, #16]
 1413 0146 0023     		movs	r3, #0
ARM GAS  /var/folders/wl/rshn8xbx1dsfj1zgryf4g1240000gn/T//ccpuhGwG.s 			page 37


 1414 0148 624A     		ldr	r2, .L53+96
 1415 014a C521     		movs	r1, #197
 1416 014c A069     		ldr	r0, [r4, #24]
 1417 014e A847     		blx	r5
 1418              	.LVL97:
  83:.//BSP/Components/Src/lcd.c **** }
 1419              		.loc 1 83 10 view .LVU409
 1420              	.LBE334:
 1421              	.LBE333:
 418:.//BSP/Components/Src/lcd.c **** 
 419:.//BSP/Components/Src/lcd.c ****     /* PWR_CTRL2 - 0xC590h - 150th parameter - Default 0x33h */
 420:.//BSP/Components/Src/lcd.c ****     /* Change pump4 clock ratio                              */
 421:.//BSP/Components/Src/lcd.c ****     /* -> from 1 line to 1/2 line                            */
 422:.//BSP/Components/Src/lcd.c ****     ret += LCD_write_reg(&LCD_object.Ctx, OTM8009A_CMD_NOP, &short_reg_data[19], 0);
 1422              		.loc 1 422 5 is_stmt 1 view .LVU410
 1423              	.LBB335:
 1424              	.LBI335:
  81:.//BSP/Components/Src/lcd.c **** {
 1425              		.loc 1 81 9 view .LVU411
 1426              	.LBB336:
  83:.//BSP/Components/Src/lcd.c **** }
 1427              		.loc 1 83 3 view .LVU412
  83:.//BSP/Components/Src/lcd.c **** }
 1428              		.loc 1 83 10 is_stmt 0 view .LVU413
 1429 0150 0023     		movs	r3, #0
 1430 0152 2569     		ldr	r5, [r4, #16]
 1431 0154 1946     		mov	r1, r3
 1432 0156 604A     		ldr	r2, .L53+100
 1433 0158 A069     		ldr	r0, [r4, #24]
 1434 015a A847     		blx	r5
 1435              	.LVL98:
  83:.//BSP/Components/Src/lcd.c **** }
 1436              		.loc 1 83 10 view .LVU414
 1437              	.LBE336:
 1438              	.LBE335:
 423:.//BSP/Components/Src/lcd.c ****     ret += LCD_write_reg(&LCD_object.Ctx, 0xC5, &short_reg_data[9], 0);
 1439              		.loc 1 423 5 is_stmt 1 view .LVU415
 1440              	.LBB337:
 1441              	.LBI337:
  81:.//BSP/Components/Src/lcd.c **** {
 1442              		.loc 1 81 9 view .LVU416
 1443              	.LBB338:
  83:.//BSP/Components/Src/lcd.c **** }
 1444              		.loc 1 83 3 view .LVU417
  83:.//BSP/Components/Src/lcd.c **** }
 1445              		.loc 1 83 10 is_stmt 0 view .LVU418
 1446 015c 2569     		ldr	r5, [r4, #16]
 1447 015e 0023     		movs	r3, #0
 1448 0160 534A     		ldr	r2, .L53+60
 1449 0162 C521     		movs	r1, #197
 1450 0164 A069     		ldr	r0, [r4, #24]
 1451 0166 A847     		blx	r5
 1452              	.LVL99:
  83:.//BSP/Components/Src/lcd.c **** }
 1453              		.loc 1 83 10 view .LVU419
 1454              	.LBE338:
 1455              	.LBE337:
ARM GAS  /var/folders/wl/rshn8xbx1dsfj1zgryf4g1240000gn/T//ccpuhGwG.s 			page 38


 424:.//BSP/Components/Src/lcd.c **** 
 425:.//BSP/Components/Src/lcd.c ****     /* GVDD/NGVDD settings */
 426:.//BSP/Components/Src/lcd.c ****     ret += LCD_write_reg(&LCD_object.Ctx, OTM8009A_CMD_NOP, &short_reg_data[1], 0);
 1456              		.loc 1 426 5 is_stmt 1 view .LVU420
 1457              	.LBB339:
 1458              	.LBI339:
  81:.//BSP/Components/Src/lcd.c **** {
 1459              		.loc 1 81 9 view .LVU421
 1460              	.LBB340:
  83:.//BSP/Components/Src/lcd.c **** }
 1461              		.loc 1 83 3 view .LVU422
  83:.//BSP/Components/Src/lcd.c **** }
 1462              		.loc 1 83 10 is_stmt 0 view .LVU423
 1463 0168 0023     		movs	r3, #0
 1464 016a 2569     		ldr	r5, [r4, #16]
 1465 016c 1946     		mov	r1, r3
 1466 016e 454A     		ldr	r2, .L53+16
 1467 0170 A069     		ldr	r0, [r4, #24]
 1468 0172 A847     		blx	r5
 1469              	.LVL100:
  83:.//BSP/Components/Src/lcd.c **** }
 1470              		.loc 1 83 10 view .LVU424
 1471              	.LBE340:
 1472              	.LBE339:
 427:.//BSP/Components/Src/lcd.c ****     ret += LCD_write_reg(&LCD_object.Ctx, 0xD8, lcd_reg_data5, 2);
 1473              		.loc 1 427 5 is_stmt 1 view .LVU425
 1474              	.LBB341:
 1475              	.LBI341:
  81:.//BSP/Components/Src/lcd.c **** {
 1476              		.loc 1 81 9 view .LVU426
 1477              	.LBB342:
  83:.//BSP/Components/Src/lcd.c **** }
 1478              		.loc 1 83 3 view .LVU427
  83:.//BSP/Components/Src/lcd.c **** }
 1479              		.loc 1 83 10 is_stmt 0 view .LVU428
 1480 0174 2569     		ldr	r5, [r4, #16]
 1481 0176 0223     		movs	r3, #2
 1482 0178 584A     		ldr	r2, .L53+104
 1483 017a D821     		movs	r1, #216
 1484 017c A069     		ldr	r0, [r4, #24]
 1485 017e A847     		blx	r5
 1486              	.LVL101:
  83:.//BSP/Components/Src/lcd.c **** }
 1487              		.loc 1 83 10 view .LVU429
 1488              	.LBE342:
 1489              	.LBE341:
 428:.//BSP/Components/Src/lcd.c **** 
 429:.//BSP/Components/Src/lcd.c ****     /* PWR_CTRL2 - 0xC590h - 149th parameter - Default 0x33h */
 430:.//BSP/Components/Src/lcd.c ****     /* Rewrite the default value !                           */
 431:.//BSP/Components/Src/lcd.c ****     ret += LCD_write_reg(&LCD_object.Ctx, OTM8009A_CMD_NOP, &short_reg_data[20], 0);
 1490              		.loc 1 431 5 is_stmt 1 view .LVU430
 1491              	.LBB343:
 1492              	.LBI343:
  81:.//BSP/Components/Src/lcd.c **** {
 1493              		.loc 1 81 9 view .LVU431
 1494              	.LBB344:
  83:.//BSP/Components/Src/lcd.c **** }
ARM GAS  /var/folders/wl/rshn8xbx1dsfj1zgryf4g1240000gn/T//ccpuhGwG.s 			page 39


 1495              		.loc 1 83 3 view .LVU432
  83:.//BSP/Components/Src/lcd.c **** }
 1496              		.loc 1 83 10 is_stmt 0 view .LVU433
 1497 0180 0023     		movs	r3, #0
 1498 0182 2569     		ldr	r5, [r4, #16]
 1499 0184 1946     		mov	r1, r3
 1500 0186 564A     		ldr	r2, .L53+108
 1501 0188 A069     		ldr	r0, [r4, #24]
 1502 018a A847     		blx	r5
 1503              	.LVL102:
  83:.//BSP/Components/Src/lcd.c **** }
 1504              		.loc 1 83 10 view .LVU434
 1505              	.LBE344:
 1506              	.LBE343:
 432:.//BSP/Components/Src/lcd.c ****     ret += LCD_write_reg(&LCD_object.Ctx, 0xC5, &short_reg_data[21], 0);
 1507              		.loc 1 432 5 is_stmt 1 view .LVU435
 1508              	.LBB345:
 1509              	.LBI345:
  81:.//BSP/Components/Src/lcd.c **** {
 1510              		.loc 1 81 9 view .LVU436
 1511              	.LBB346:
  83:.//BSP/Components/Src/lcd.c **** }
 1512              		.loc 1 83 3 view .LVU437
  83:.//BSP/Components/Src/lcd.c **** }
 1513              		.loc 1 83 10 is_stmt 0 view .LVU438
 1514 018c 2569     		ldr	r5, [r4, #16]
 1515 018e 0023     		movs	r3, #0
 1516 0190 544A     		ldr	r2, .L53+112
 1517 0192 C521     		movs	r1, #197
 1518 0194 A069     		ldr	r0, [r4, #24]
 1519 0196 A847     		blx	r5
 1520              	.LVL103:
  83:.//BSP/Components/Src/lcd.c **** }
 1521              		.loc 1 83 10 view .LVU439
 1522              	.LBE346:
 1523              	.LBE345:
 433:.//BSP/Components/Src/lcd.c **** 
 434:.//BSP/Components/Src/lcd.c ****     /* Panel display timing Setting 3 */
 435:.//BSP/Components/Src/lcd.c ****     ret += LCD_write_reg(&LCD_object.Ctx, OTM8009A_CMD_NOP, &short_reg_data[22], 0);
 1524              		.loc 1 435 5 is_stmt 1 view .LVU440
 1525              	.LBB347:
 1526              	.LBI347:
  81:.//BSP/Components/Src/lcd.c **** {
 1527              		.loc 1 81 9 view .LVU441
 1528              	.LBB348:
  83:.//BSP/Components/Src/lcd.c **** }
 1529              		.loc 1 83 3 view .LVU442
  83:.//BSP/Components/Src/lcd.c **** }
 1530              		.loc 1 83 10 is_stmt 0 view .LVU443
 1531 0198 0023     		movs	r3, #0
 1532 019a 2569     		ldr	r5, [r4, #16]
 1533 019c 1946     		mov	r1, r3
 1534 019e 524A     		ldr	r2, .L53+116
 1535 01a0 A069     		ldr	r0, [r4, #24]
 1536 01a2 A847     		blx	r5
 1537              	.LVL104:
  83:.//BSP/Components/Src/lcd.c **** }
ARM GAS  /var/folders/wl/rshn8xbx1dsfj1zgryf4g1240000gn/T//ccpuhGwG.s 			page 40


 1538              		.loc 1 83 10 view .LVU444
 1539              	.LBE348:
 1540              	.LBE347:
 436:.//BSP/Components/Src/lcd.c ****     ret += LCD_write_reg(&LCD_object.Ctx, 0xC0, &short_reg_data[23], 0);
 1541              		.loc 1 436 5 is_stmt 1 view .LVU445
 1542              	.LBB349:
 1543              	.LBI349:
  81:.//BSP/Components/Src/lcd.c **** {
 1544              		.loc 1 81 9 view .LVU446
 1545              	.LBB350:
  83:.//BSP/Components/Src/lcd.c **** }
 1546              		.loc 1 83 3 view .LVU447
  83:.//BSP/Components/Src/lcd.c **** }
 1547              		.loc 1 83 10 is_stmt 0 view .LVU448
 1548 01a4 2569     		ldr	r5, [r4, #16]
 1549 01a6 0023     		movs	r3, #0
 1550 01a8 504A     		ldr	r2, .L53+120
 1551 01aa C021     		movs	r1, #192
 1552 01ac A069     		ldr	r0, [r4, #24]
 1553 01ae A847     		blx	r5
 1554              	.LVL105:
  83:.//BSP/Components/Src/lcd.c **** }
 1555              		.loc 1 83 10 view .LVU449
 1556              	.LBE350:
 1557              	.LBE349:
 437:.//BSP/Components/Src/lcd.c **** 
 438:.//BSP/Components/Src/lcd.c ****     /* Power control 1 */
 439:.//BSP/Components/Src/lcd.c ****     ret += LCD_write_reg(&LCD_object.Ctx, OTM8009A_CMD_NOP, &short_reg_data[24], 0);
 1558              		.loc 1 439 5 is_stmt 1 view .LVU450
 1559              	.LBB351:
 1560              	.LBI351:
  81:.//BSP/Components/Src/lcd.c **** {
 1561              		.loc 1 81 9 view .LVU451
 1562              	.LBB352:
  83:.//BSP/Components/Src/lcd.c **** }
 1563              		.loc 1 83 3 view .LVU452
  83:.//BSP/Components/Src/lcd.c **** }
 1564              		.loc 1 83 10 is_stmt 0 view .LVU453
 1565 01b0 0023     		movs	r3, #0
 1566 01b2 2569     		ldr	r5, [r4, #16]
 1567 01b4 1946     		mov	r1, r3
 1568 01b6 4E4A     		ldr	r2, .L53+124
 1569 01b8 A069     		ldr	r0, [r4, #24]
 1570 01ba A847     		blx	r5
 1571              	.LVL106:
  83:.//BSP/Components/Src/lcd.c **** }
 1572              		.loc 1 83 10 view .LVU454
 1573              	.LBE352:
 1574              	.LBE351:
 440:.//BSP/Components/Src/lcd.c ****     ret += LCD_write_reg(&LCD_object.Ctx, 0xC5, &short_reg_data[25], 0);
 1575              		.loc 1 440 5 is_stmt 1 view .LVU455
 1576              	.LBB353:
 1577              	.LBI353:
  81:.//BSP/Components/Src/lcd.c **** {
 1578              		.loc 1 81 9 view .LVU456
 1579              	.LBB354:
  83:.//BSP/Components/Src/lcd.c **** }
ARM GAS  /var/folders/wl/rshn8xbx1dsfj1zgryf4g1240000gn/T//ccpuhGwG.s 			page 41


 1580              		.loc 1 83 3 view .LVU457
  83:.//BSP/Components/Src/lcd.c **** }
 1581              		.loc 1 83 10 is_stmt 0 view .LVU458
 1582 01bc 2569     		ldr	r5, [r4, #16]
 1583 01be 0023     		movs	r3, #0
 1584 01c0 4C4A     		ldr	r2, .L53+128
 1585 01c2 C521     		movs	r1, #197
 1586 01c4 A069     		ldr	r0, [r4, #24]
 1587 01c6 A847     		blx	r5
 1588              	.LVL107:
  83:.//BSP/Components/Src/lcd.c **** }
 1589              		.loc 1 83 10 view .LVU459
 1590              	.LBE354:
 1591              	.LBE353:
 441:.//BSP/Components/Src/lcd.c **** 
 442:.//BSP/Components/Src/lcd.c ****     /* Source driver precharge */
 443:.//BSP/Components/Src/lcd.c ****     ret += LCD_write_reg(&LCD_object.Ctx, OTM8009A_CMD_NOP, &short_reg_data[13], 0);
 1592              		.loc 1 443 5 is_stmt 1 view .LVU460
 1593              	.LBB355:
 1594              	.LBI355:
  81:.//BSP/Components/Src/lcd.c **** {
 1595              		.loc 1 81 9 view .LVU461
 1596              	.LBB356:
  83:.//BSP/Components/Src/lcd.c **** }
 1597              		.loc 1 83 3 view .LVU462
  83:.//BSP/Components/Src/lcd.c **** }
 1598              		.loc 1 83 10 is_stmt 0 view .LVU463
 1599 01c8 0023     		movs	r3, #0
 1600 01ca 2569     		ldr	r5, [r4, #16]
 1601 01cc 1946     		mov	r1, r3
 1602 01ce 3C4A     		ldr	r2, .L53+76
 1603 01d0 A069     		ldr	r0, [r4, #24]
 1604 01d2 A847     		blx	r5
 1605              	.LVL108:
  83:.//BSP/Components/Src/lcd.c **** }
 1606              		.loc 1 83 10 view .LVU464
 1607              	.LBE356:
 1608              	.LBE355:
 444:.//BSP/Components/Src/lcd.c ****     ret += LCD_write_reg(&LCD_object.Ctx, 0xC4, &short_reg_data[26], 0);
 1609              		.loc 1 444 5 is_stmt 1 view .LVU465
 1610              	.LBB357:
 1611              	.LBI357:
  81:.//BSP/Components/Src/lcd.c **** {
 1612              		.loc 1 81 9 view .LVU466
 1613              	.LBB358:
  83:.//BSP/Components/Src/lcd.c **** }
 1614              		.loc 1 83 3 view .LVU467
  83:.//BSP/Components/Src/lcd.c **** }
 1615              		.loc 1 83 10 is_stmt 0 view .LVU468
 1616 01d4 2569     		ldr	r5, [r4, #16]
 1617 01d6 0023     		movs	r3, #0
 1618 01d8 474A     		ldr	r2, .L53+132
 1619 01da C421     		movs	r1, #196
 1620 01dc A069     		ldr	r0, [r4, #24]
 1621 01de A847     		blx	r5
 1622              	.LVL109:
  83:.//BSP/Components/Src/lcd.c **** }
ARM GAS  /var/folders/wl/rshn8xbx1dsfj1zgryf4g1240000gn/T//ccpuhGwG.s 			page 42


 1623              		.loc 1 83 10 view .LVU469
 1624              	.LBE358:
 1625              	.LBE357:
 445:.//BSP/Components/Src/lcd.c **** 
 446:.//BSP/Components/Src/lcd.c ****     ret += LCD_write_reg(&LCD_object.Ctx, OTM8009A_CMD_NOP, &short_reg_data[15], 0);
 1626              		.loc 1 446 5 is_stmt 1 view .LVU470
 1627              	.LBB359:
 1628              	.LBI359:
  81:.//BSP/Components/Src/lcd.c **** {
 1629              		.loc 1 81 9 view .LVU471
 1630              	.LBB360:
  83:.//BSP/Components/Src/lcd.c **** }
 1631              		.loc 1 83 3 view .LVU472
  83:.//BSP/Components/Src/lcd.c **** }
 1632              		.loc 1 83 10 is_stmt 0 view .LVU473
 1633 01e0 0023     		movs	r3, #0
 1634 01e2 2569     		ldr	r5, [r4, #16]
 1635 01e4 1946     		mov	r1, r3
 1636 01e6 384A     		ldr	r2, .L53+84
 1637 01e8 A069     		ldr	r0, [r4, #24]
 1638 01ea A847     		blx	r5
 1639              	.LVL110:
  83:.//BSP/Components/Src/lcd.c **** }
 1640              		.loc 1 83 10 view .LVU474
 1641              	.LBE360:
 1642              	.LBE359:
 447:.//BSP/Components/Src/lcd.c ****     ret += LCD_write_reg(&LCD_object.Ctx, 0xC1, &short_reg_data[27], 0);
 1643              		.loc 1 447 5 is_stmt 1 view .LVU475
 1644              	.LBB361:
 1645              	.LBI361:
  81:.//BSP/Components/Src/lcd.c **** {
 1646              		.loc 1 81 9 view .LVU476
 1647              	.LBB362:
  83:.//BSP/Components/Src/lcd.c **** }
 1648              		.loc 1 83 3 view .LVU477
  83:.//BSP/Components/Src/lcd.c **** }
 1649              		.loc 1 83 10 is_stmt 0 view .LVU478
 1650 01ec 2569     		ldr	r5, [r4, #16]
 1651 01ee 0023     		movs	r3, #0
 1652 01f0 424A     		ldr	r2, .L53+136
 1653 01f2 C121     		movs	r1, #193
 1654 01f4 A069     		ldr	r0, [r4, #24]
 1655 01f6 A847     		blx	r5
 1656              	.LVL111:
  83:.//BSP/Components/Src/lcd.c **** }
 1657              		.loc 1 83 10 view .LVU479
 1658              	.LBE362:
 1659              	.LBE361:
 448:.//BSP/Components/Src/lcd.c **** 
 449:.//BSP/Components/Src/lcd.c ****     ret += LCD_write_reg(&LCD_object.Ctx, OTM8009A_CMD_NOP, &short_reg_data[28], 0);
 1660              		.loc 1 449 5 is_stmt 1 view .LVU480
 1661              	.LBB363:
 1662              	.LBI363:
  81:.//BSP/Components/Src/lcd.c **** {
 1663              		.loc 1 81 9 view .LVU481
 1664              	.LBB364:
  83:.//BSP/Components/Src/lcd.c **** }
ARM GAS  /var/folders/wl/rshn8xbx1dsfj1zgryf4g1240000gn/T//ccpuhGwG.s 			page 43


 1665              		.loc 1 83 3 view .LVU482
  83:.//BSP/Components/Src/lcd.c **** }
 1666              		.loc 1 83 10 is_stmt 0 view .LVU483
 1667 01f8 0023     		movs	r3, #0
 1668 01fa 2569     		ldr	r5, [r4, #16]
 1669 01fc 1946     		mov	r1, r3
 1670 01fe 404A     		ldr	r2, .L53+140
 1671 0200 A069     		ldr	r0, [r4, #24]
 1672 0202 A847     		blx	r5
 1673              	.LVL112:
  83:.//BSP/Components/Src/lcd.c **** }
 1674              		.loc 1 83 10 view .LVU484
 1675              	.LBE364:
 1676              	.LBE363:
 450:.//BSP/Components/Src/lcd.c ****     ret += LCD_write_reg(&LCD_object.Ctx, 0xB3, lcd_reg_data6, 2);
 1677              		.loc 1 450 5 is_stmt 1 view .LVU485
 1678              	.LBB365:
 1679              	.LBI365:
  81:.//BSP/Components/Src/lcd.c **** {
 1680              		.loc 1 81 9 view .LVU486
 1681              	.LBB366:
  83:.//BSP/Components/Src/lcd.c **** }
 1682              		.loc 1 83 3 view .LVU487
  83:.//BSP/Components/Src/lcd.c **** }
 1683              		.loc 1 83 10 is_stmt 0 view .LVU488
 1684 0204 2569     		ldr	r5, [r4, #16]
 1685 0206 0223     		movs	r3, #2
 1686 0208 3E4A     		ldr	r2, .L53+144
 1687 020a B321     		movs	r1, #179
 1688 020c A069     		ldr	r0, [r4, #24]
 1689 020e A847     		blx	r5
 1690              	.LVL113:
  83:.//BSP/Components/Src/lcd.c **** }
 1691              		.loc 1 83 10 view .LVU489
 1692              	.LBE366:
 1693              	.LBE365:
 451:.//BSP/Components/Src/lcd.c **** 
 452:.//BSP/Components/Src/lcd.c ****     /* GOAVST */
 453:.//BSP/Components/Src/lcd.c ****     ret += LCD_write_reg(&LCD_object.Ctx, OTM8009A_CMD_NOP, &short_reg_data[2], 0);
 1694              		.loc 1 453 5 is_stmt 1 view .LVU490
 1695              	.LBB367:
 1696              	.LBI367:
  81:.//BSP/Components/Src/lcd.c **** {
 1697              		.loc 1 81 9 view .LVU491
 1698              	.LBB368:
  83:.//BSP/Components/Src/lcd.c **** }
 1699              		.loc 1 83 3 view .LVU492
  83:.//BSP/Components/Src/lcd.c **** }
 1700              		.loc 1 83 10 is_stmt 0 view .LVU493
 1701 0210 0023     		movs	r3, #0
 1702 0212 2569     		ldr	r5, [r4, #16]
 1703 0214 1946     		mov	r1, r3
 1704 0216 1E4A     		ldr	r2, .L53+28
 1705 0218 A069     		ldr	r0, [r4, #24]
 1706 021a A847     		blx	r5
 1707              	.LVL114:
  83:.//BSP/Components/Src/lcd.c **** }
ARM GAS  /var/folders/wl/rshn8xbx1dsfj1zgryf4g1240000gn/T//ccpuhGwG.s 			page 44


 1708              		.loc 1 83 10 view .LVU494
 1709              	.LBE368:
 1710              	.LBE367:
 454:.//BSP/Components/Src/lcd.c ****     ret += LCD_write_reg(&LCD_object.Ctx, 0xCE, lcd_reg_data7, 6);
 1711              		.loc 1 454 5 is_stmt 1 view .LVU495
 1712              	.LBB369:
 1713              	.LBI369:
  81:.//BSP/Components/Src/lcd.c **** {
 1714              		.loc 1 81 9 view .LVU496
 1715              	.LBB370:
  83:.//BSP/Components/Src/lcd.c **** }
 1716              		.loc 1 83 3 view .LVU497
  83:.//BSP/Components/Src/lcd.c **** }
 1717              		.loc 1 83 10 is_stmt 0 view .LVU498
 1718 021c 2569     		ldr	r5, [r4, #16]
 1719 021e 0623     		movs	r3, #6
 1720 0220 394A     		ldr	r2, .L53+148
 1721 0222 CE21     		movs	r1, #206
 1722 0224 A069     		ldr	r0, [r4, #24]
 1723 0226 A847     		blx	r5
 1724              	.LVL115:
  83:.//BSP/Components/Src/lcd.c **** }
 1725              		.loc 1 83 10 view .LVU499
 1726              	.LBE370:
 1727              	.LBE369:
 455:.//BSP/Components/Src/lcd.c **** 
 456:.//BSP/Components/Src/lcd.c ****     ret += LCD_write_reg(&LCD_object.Ctx, OTM8009A_CMD_NOP, &short_reg_data[29], 0);
 1728              		.loc 1 456 5 is_stmt 1 view .LVU500
 1729              	.LBB371:
 1730              	.LBI371:
  81:.//BSP/Components/Src/lcd.c **** {
 1731              		.loc 1 81 9 view .LVU501
 1732              	.LBB372:
  83:.//BSP/Components/Src/lcd.c **** }
 1733              		.loc 1 83 3 view .LVU502
  83:.//BSP/Components/Src/lcd.c **** }
 1734              		.loc 1 83 10 is_stmt 0 view .LVU503
 1735 0228 0023     		movs	r3, #0
 1736 022a 2569     		ldr	r5, [r4, #16]
 1737 022c 1946     		mov	r1, r3
 1738 022e 374A     		ldr	r2, .L53+152
 1739 0230 A069     		ldr	r0, [r4, #24]
 1740 0232 A847     		blx	r5
 1741              	.LVL116:
  83:.//BSP/Components/Src/lcd.c **** }
 1742              		.loc 1 83 10 view .LVU504
 1743              	.LBE372:
 1744              	.LBE371:
 457:.//BSP/Components/Src/lcd.c ****     ret += LCD_write_reg(&LCD_object.Ctx, 0xCE, lcd_reg_data8, 14);
 1745              		.loc 1 457 5 is_stmt 1 view .LVU505
 1746              	.LBB373:
 1747              	.LBI373:
  81:.//BSP/Components/Src/lcd.c **** {
 1748              		.loc 1 81 9 view .LVU506
 1749              	.LBB374:
  83:.//BSP/Components/Src/lcd.c **** }
 1750              		.loc 1 83 3 view .LVU507
ARM GAS  /var/folders/wl/rshn8xbx1dsfj1zgryf4g1240000gn/T//ccpuhGwG.s 			page 45


  83:.//BSP/Components/Src/lcd.c **** }
 1751              		.loc 1 83 10 is_stmt 0 view .LVU508
 1752 0234 2569     		ldr	r5, [r4, #16]
 1753 0236 0E23     		movs	r3, #14
 1754 0238 354A     		ldr	r2, .L53+156
 1755 023a CE21     		movs	r1, #206
 1756 023c A069     		ldr	r0, [r4, #24]
 1757 023e A847     		blx	r5
 1758              	.LVL117:
  83:.//BSP/Components/Src/lcd.c **** }
 1759              		.loc 1 83 10 view .LVU509
 1760              	.LBE374:
 1761              	.LBE373:
 458:.//BSP/Components/Src/lcd.c **** 
 459:.//BSP/Components/Src/lcd.c ****     ret += LCD_write_reg(&LCD_object.Ctx, OTM8009A_CMD_NOP, &short_reg_data[30], 0);
 1762              		.loc 1 459 5 is_stmt 1 view .LVU510
 1763              	.LBB375:
 1764              	.LBI375:
  81:.//BSP/Components/Src/lcd.c **** {
 1765              		.loc 1 81 9 view .LVU511
 1766              	.LBB376:
  83:.//BSP/Components/Src/lcd.c **** }
 1767              		.loc 1 83 3 view .LVU512
  83:.//BSP/Components/Src/lcd.c **** }
 1768              		.loc 1 83 10 is_stmt 0 view .LVU513
 1769 0240 0023     		movs	r3, #0
 1770 0242 2569     		ldr	r5, [r4, #16]
 1771 0244 1946     		mov	r1, r3
 1772 0246 334A     		ldr	r2, .L53+160
 1773 0248 A069     		ldr	r0, [r4, #24]
 1774 024a A847     		blx	r5
 1775              	.LVL118:
  83:.//BSP/Components/Src/lcd.c **** }
 1776              		.loc 1 83 10 view .LVU514
 1777              	.LBE376:
 1778              	.LBE375:
 460:.//BSP/Components/Src/lcd.c ****     ret += LCD_write_reg(&LCD_object.Ctx, 0xCE, lcd_reg_data9, 14);
 1779              		.loc 1 460 5 is_stmt 1 view .LVU515
 1780              	.LBB377:
 1781              	.LBI377:
  81:.//BSP/Components/Src/lcd.c **** {
 1782              		.loc 1 81 9 view .LVU516
 1783              	.LBB378:
  83:.//BSP/Components/Src/lcd.c **** }
 1784              		.loc 1 83 3 view .LVU517
  83:.//BSP/Components/Src/lcd.c **** }
 1785              		.loc 1 83 10 is_stmt 0 view .LVU518
 1786 024c 2569     		ldr	r5, [r4, #16]
 1787 024e 0E23     		movs	r3, #14
 1788 0250 314A     		ldr	r2, .L53+164
 1789 0252 CE21     		movs	r1, #206
 1790 0254 A069     		ldr	r0, [r4, #24]
 1791 0256 A847     		blx	r5
 1792              	.LVL119:
  83:.//BSP/Components/Src/lcd.c **** }
 1793              		.loc 1 83 10 view .LVU519
 1794              	.LBE378:
ARM GAS  /var/folders/wl/rshn8xbx1dsfj1zgryf4g1240000gn/T//ccpuhGwG.s 			page 46


 1795              	.LBE377:
 461:.//BSP/Components/Src/lcd.c **** 
 462:.//BSP/Components/Src/lcd.c ****     ret += LCD_write_reg(&LCD_object.Ctx, OTM8009A_CMD_NOP, &short_reg_data[31], 0);
 1796              		.loc 1 462 5 is_stmt 1 view .LVU520
 1797              	.LBB379:
 1798              	.LBI379:
  81:.//BSP/Components/Src/lcd.c **** {
 1799              		.loc 1 81 9 view .LVU521
 1800              	.LBB380:
  83:.//BSP/Components/Src/lcd.c **** }
 1801              		.loc 1 83 3 view .LVU522
  83:.//BSP/Components/Src/lcd.c **** }
 1802              		.loc 1 83 10 is_stmt 0 view .LVU523
 1803 0258 0023     		movs	r3, #0
 1804 025a 2569     		ldr	r5, [r4, #16]
 1805 025c 1946     		mov	r1, r3
 1806 025e 2F4A     		ldr	r2, .L53+168
 1807 0260 A069     		ldr	r0, [r4, #24]
 1808 0262 A847     		blx	r5
 1809              	.LVL120:
  83:.//BSP/Components/Src/lcd.c **** }
 1810              		.loc 1 83 10 view .LVU524
 1811              	.LBE380:
 1812              	.LBE379:
 463:.//BSP/Components/Src/lcd.c ****     ret += LCD_write_reg(&LCD_object.Ctx, 0xCF, lcd_reg_data10, 10);
 1813              		.loc 1 463 5 is_stmt 1 view .LVU525
 1814              	.LBB381:
 1815              	.LBI381:
  81:.//BSP/Components/Src/lcd.c **** {
 1816              		.loc 1 81 9 view .LVU526
 1817              	.LBB382:
  83:.//BSP/Components/Src/lcd.c **** }
 1818              		.loc 1 83 3 view .LVU527
  83:.//BSP/Components/Src/lcd.c **** }
 1819              		.loc 1 83 10 is_stmt 0 view .LVU528
 1820 0264 2569     		ldr	r5, [r4, #16]
 1821 0266 0A23     		movs	r3, #10
 1822 0268 2D4A     		ldr	r2, .L53+172
 1823 026a CF21     		movs	r1, #207
 1824 026c A069     		ldr	r0, [r4, #24]
 1825 026e A847     		blx	r5
 1826              	.LVL121:
 1827 0270 5AE0     		b	.L54
 1828              	.L55:
 1829 0272 00BF     		.align	2
 1830              	.L53:
 1831 0274 00000000 		.word	.LANCHOR3
 1832 0278 00000000 		.word	DSI_IO_Read
 1833 027c 00000000 		.word	HAL_GetTick
 1834 0280 00000000 		.word	LCD_ReadRegWrap
 1835 0284 01000000 		.word	.LANCHOR4+1
 1836 0288 00000000 		.word	LCD_WriteRegWrap
 1837 028c 00000000 		.word	.LANCHOR5
 1838 0290 02000000 		.word	.LANCHOR4+2
 1839 0294 00000000 		.word	.LANCHOR6
 1840 0298 03000000 		.word	.LANCHOR4+3
 1841 029c 04000000 		.word	.LANCHOR4+4
ARM GAS  /var/folders/wl/rshn8xbx1dsfj1zgryf4g1240000gn/T//ccpuhGwG.s 			page 47


 1842 02a0 05000000 		.word	.LANCHOR4+5
 1843 02a4 06000000 		.word	.LANCHOR4+6
 1844 02a8 07000000 		.word	.LANCHOR4+7
 1845 02ac 08000000 		.word	.LANCHOR4+8
 1846 02b0 09000000 		.word	.LANCHOR4+9
 1847 02b4 0A000000 		.word	.LANCHOR4+10
 1848 02b8 0B000000 		.word	.LANCHOR4+11
 1849 02bc 0C000000 		.word	.LANCHOR4+12
 1850 02c0 0D000000 		.word	.LANCHOR4+13
 1851 02c4 0E000000 		.word	.LANCHOR4+14
 1852 02c8 0F000000 		.word	.LANCHOR4+15
 1853 02cc 10000000 		.word	.LANCHOR4+16
 1854 02d0 11000000 		.word	.LANCHOR4+17
 1855 02d4 12000000 		.word	.LANCHOR4+18
 1856 02d8 13000000 		.word	.LANCHOR4+19
 1857 02dc 00000000 		.word	.LANCHOR7
 1858 02e0 14000000 		.word	.LANCHOR4+20
 1859 02e4 15000000 		.word	.LANCHOR4+21
 1860 02e8 16000000 		.word	.LANCHOR4+22
 1861 02ec 17000000 		.word	.LANCHOR4+23
 1862 02f0 18000000 		.word	.LANCHOR4+24
 1863 02f4 19000000 		.word	.LANCHOR4+25
 1864 02f8 1A000000 		.word	.LANCHOR4+26
 1865 02fc 1B000000 		.word	.LANCHOR4+27
 1866 0300 1C000000 		.word	.LANCHOR4+28
 1867 0304 00000000 		.word	.LANCHOR8
 1868 0308 00000000 		.word	.LANCHOR9
 1869 030c 1D000000 		.word	.LANCHOR4+29
 1870 0310 00000000 		.word	.LANCHOR10
 1871 0314 1E000000 		.word	.LANCHOR4+30
 1872 0318 00000000 		.word	.LANCHOR11
 1873 031c 1F000000 		.word	.LANCHOR4+31
 1874 0320 00000000 		.word	.LANCHOR12
 1875 0324 00000000 		.word	DSI_IO_Write
 1876              	.L54:
 1877              	.LVL122:
  83:.//BSP/Components/Src/lcd.c **** }
 1878              		.loc 1 83 10 view .LVU529
 1879              	.LBE382:
 1880              	.LBE381:
 464:.//BSP/Components/Src/lcd.c **** 
 465:.//BSP/Components/Src/lcd.c ****     ret += LCD_write_reg(&LCD_object.Ctx, OTM8009A_CMD_NOP, &short_reg_data[32], 0);
 1881              		.loc 1 465 5 is_stmt 1 view .LVU530
 1882              	.LBB383:
 1883              	.LBI383:
  81:.//BSP/Components/Src/lcd.c **** {
 1884              		.loc 1 81 9 view .LVU531
 1885              	.LBB384:
  83:.//BSP/Components/Src/lcd.c **** }
 1886              		.loc 1 83 3 view .LVU532
  83:.//BSP/Components/Src/lcd.c **** }
 1887              		.loc 1 83 10 is_stmt 0 view .LVU533
 1888 0328 0023     		movs	r3, #0
 1889 032a 2569     		ldr	r5, [r4, #16]
 1890 032c 1946     		mov	r1, r3
 1891 032e 9A4A     		ldr	r2, .L56
 1892 0330 A069     		ldr	r0, [r4, #24]
ARM GAS  /var/folders/wl/rshn8xbx1dsfj1zgryf4g1240000gn/T//ccpuhGwG.s 			page 48


 1893 0332 A847     		blx	r5
 1894              	.LVL123:
  83:.//BSP/Components/Src/lcd.c **** }
 1895              		.loc 1 83 10 view .LVU534
 1896              	.LBE384:
 1897              	.LBE383:
 466:.//BSP/Components/Src/lcd.c ****     ret += LCD_write_reg(&LCD_object.Ctx, 0xCF, &short_reg_data[45], 0);
 1898              		.loc 1 466 5 is_stmt 1 view .LVU535
 1899              	.LBB385:
 1900              	.LBI385:
  81:.//BSP/Components/Src/lcd.c **** {
 1901              		.loc 1 81 9 view .LVU536
 1902              	.LBB386:
  83:.//BSP/Components/Src/lcd.c **** }
 1903              		.loc 1 83 3 view .LVU537
  83:.//BSP/Components/Src/lcd.c **** }
 1904              		.loc 1 83 10 is_stmt 0 view .LVU538
 1905 0334 2569     		ldr	r5, [r4, #16]
 1906 0336 0023     		movs	r3, #0
 1907 0338 984A     		ldr	r2, .L56+4
 1908 033a CF21     		movs	r1, #207
 1909 033c A069     		ldr	r0, [r4, #24]
 1910 033e A847     		blx	r5
 1911              	.LVL124:
  83:.//BSP/Components/Src/lcd.c **** }
 1912              		.loc 1 83 10 view .LVU539
 1913              	.LBE386:
 1914              	.LBE385:
 467:.//BSP/Components/Src/lcd.c **** 
 468:.//BSP/Components/Src/lcd.c ****     ret += LCD_write_reg(&LCD_object.Ctx, OTM8009A_CMD_NOP, &short_reg_data[2], 0);
 1915              		.loc 1 468 5 is_stmt 1 view .LVU540
 1916              	.LBB387:
 1917              	.LBI387:
  81:.//BSP/Components/Src/lcd.c **** {
 1918              		.loc 1 81 9 view .LVU541
 1919              	.LBB388:
  83:.//BSP/Components/Src/lcd.c **** }
 1920              		.loc 1 83 3 view .LVU542
  83:.//BSP/Components/Src/lcd.c **** }
 1921              		.loc 1 83 10 is_stmt 0 view .LVU543
 1922 0340 0023     		movs	r3, #0
 1923 0342 2569     		ldr	r5, [r4, #16]
 1924 0344 1946     		mov	r1, r3
 1925 0346 964A     		ldr	r2, .L56+8
 1926 0348 A069     		ldr	r0, [r4, #24]
 1927 034a A847     		blx	r5
 1928              	.LVL125:
  83:.//BSP/Components/Src/lcd.c **** }
 1929              		.loc 1 83 10 view .LVU544
 1930              	.LBE388:
 1931              	.LBE387:
 469:.//BSP/Components/Src/lcd.c ****     ret += LCD_write_reg(&LCD_object.Ctx, 0xCB, lcd_reg_data11, 10);
 1932              		.loc 1 469 5 is_stmt 1 view .LVU545
 1933              	.LBB389:
 1934              	.LBI389:
  81:.//BSP/Components/Src/lcd.c **** {
 1935              		.loc 1 81 9 view .LVU546
ARM GAS  /var/folders/wl/rshn8xbx1dsfj1zgryf4g1240000gn/T//ccpuhGwG.s 			page 49


 1936              	.LBB390:
  83:.//BSP/Components/Src/lcd.c **** }
 1937              		.loc 1 83 3 view .LVU547
  83:.//BSP/Components/Src/lcd.c **** }
 1938              		.loc 1 83 10 is_stmt 0 view .LVU548
 1939 034c 2569     		ldr	r5, [r4, #16]
 1940 034e 0A23     		movs	r3, #10
 1941 0350 944A     		ldr	r2, .L56+12
 1942 0352 CB21     		movs	r1, #203
 1943 0354 A069     		ldr	r0, [r4, #24]
 1944 0356 A847     		blx	r5
 1945              	.LVL126:
  83:.//BSP/Components/Src/lcd.c **** }
 1946              		.loc 1 83 10 view .LVU549
 1947              	.LBE390:
 1948              	.LBE389:
 470:.//BSP/Components/Src/lcd.c **** 
 471:.//BSP/Components/Src/lcd.c ****     ret += LCD_write_reg(&LCD_object.Ctx, OTM8009A_CMD_NOP, &short_reg_data[33], 0);
 1949              		.loc 1 471 5 is_stmt 1 view .LVU550
 1950              	.LBB391:
 1951              	.LBI391:
  81:.//BSP/Components/Src/lcd.c **** {
 1952              		.loc 1 81 9 view .LVU551
 1953              	.LBB392:
  83:.//BSP/Components/Src/lcd.c **** }
 1954              		.loc 1 83 3 view .LVU552
  83:.//BSP/Components/Src/lcd.c **** }
 1955              		.loc 1 83 10 is_stmt 0 view .LVU553
 1956 0358 0023     		movs	r3, #0
 1957 035a 2569     		ldr	r5, [r4, #16]
 1958 035c 1946     		mov	r1, r3
 1959 035e 924A     		ldr	r2, .L56+16
 1960 0360 A069     		ldr	r0, [r4, #24]
 1961 0362 A847     		blx	r5
 1962              	.LVL127:
  83:.//BSP/Components/Src/lcd.c **** }
 1963              		.loc 1 83 10 view .LVU554
 1964              	.LBE392:
 1965              	.LBE391:
 472:.//BSP/Components/Src/lcd.c ****     ret += LCD_write_reg(&LCD_object.Ctx, 0xCB, lcd_reg_data12, 15);
 1966              		.loc 1 472 5 is_stmt 1 view .LVU555
 1967              	.LBB393:
 1968              	.LBI393:
  81:.//BSP/Components/Src/lcd.c **** {
 1969              		.loc 1 81 9 view .LVU556
 1970              	.LBB394:
  83:.//BSP/Components/Src/lcd.c **** }
 1971              		.loc 1 83 3 view .LVU557
  83:.//BSP/Components/Src/lcd.c **** }
 1972              		.loc 1 83 10 is_stmt 0 view .LVU558
 1973 0364 2569     		ldr	r5, [r4, #16]
 1974 0366 0F23     		movs	r3, #15
 1975 0368 904A     		ldr	r2, .L56+20
 1976 036a CB21     		movs	r1, #203
 1977 036c A069     		ldr	r0, [r4, #24]
 1978 036e A847     		blx	r5
 1979              	.LVL128:
ARM GAS  /var/folders/wl/rshn8xbx1dsfj1zgryf4g1240000gn/T//ccpuhGwG.s 			page 50


  83:.//BSP/Components/Src/lcd.c **** }
 1980              		.loc 1 83 10 view .LVU559
 1981              	.LBE394:
 1982              	.LBE393:
 473:.//BSP/Components/Src/lcd.c **** 
 474:.//BSP/Components/Src/lcd.c ****     ret += LCD_write_reg(&LCD_object.Ctx, OTM8009A_CMD_NOP, &short_reg_data[29], 0);
 1983              		.loc 1 474 5 is_stmt 1 view .LVU560
 1984              	.LBB395:
 1985              	.LBI395:
  81:.//BSP/Components/Src/lcd.c **** {
 1986              		.loc 1 81 9 view .LVU561
 1987              	.LBB396:
  83:.//BSP/Components/Src/lcd.c **** }
 1988              		.loc 1 83 3 view .LVU562
  83:.//BSP/Components/Src/lcd.c **** }
 1989              		.loc 1 83 10 is_stmt 0 view .LVU563
 1990 0370 0023     		movs	r3, #0
 1991 0372 2569     		ldr	r5, [r4, #16]
 1992 0374 1946     		mov	r1, r3
 1993 0376 8E4A     		ldr	r2, .L56+24
 1994 0378 A069     		ldr	r0, [r4, #24]
 1995 037a A847     		blx	r5
 1996              	.LVL129:
  83:.//BSP/Components/Src/lcd.c **** }
 1997              		.loc 1 83 10 view .LVU564
 1998              	.LBE396:
 1999              	.LBE395:
 475:.//BSP/Components/Src/lcd.c ****     ret += LCD_write_reg(&LCD_object.Ctx, 0xCB, lcd_reg_data13, 15);
 2000              		.loc 1 475 5 is_stmt 1 view .LVU565
 2001              	.LBB397:
 2002              	.LBI397:
  81:.//BSP/Components/Src/lcd.c **** {
 2003              		.loc 1 81 9 view .LVU566
 2004              	.LBB398:
  83:.//BSP/Components/Src/lcd.c **** }
 2005              		.loc 1 83 3 view .LVU567
  83:.//BSP/Components/Src/lcd.c **** }
 2006              		.loc 1 83 10 is_stmt 0 view .LVU568
 2007 037c 2569     		ldr	r5, [r4, #16]
 2008 037e 0F23     		movs	r3, #15
 2009 0380 8C4A     		ldr	r2, .L56+28
 2010 0382 CB21     		movs	r1, #203
 2011 0384 A069     		ldr	r0, [r4, #24]
 2012 0386 A847     		blx	r5
 2013              	.LVL130:
  83:.//BSP/Components/Src/lcd.c **** }
 2014              		.loc 1 83 10 view .LVU569
 2015              	.LBE398:
 2016              	.LBE397:
 476:.//BSP/Components/Src/lcd.c **** 
 477:.//BSP/Components/Src/lcd.c ****     ret += LCD_write_reg(&LCD_object.Ctx, OTM8009A_CMD_NOP, &short_reg_data[30], 0);
 2017              		.loc 1 477 5 is_stmt 1 view .LVU570
 2018              	.LBB399:
 2019              	.LBI399:
  81:.//BSP/Components/Src/lcd.c **** {
 2020              		.loc 1 81 9 view .LVU571
 2021              	.LBB400:
ARM GAS  /var/folders/wl/rshn8xbx1dsfj1zgryf4g1240000gn/T//ccpuhGwG.s 			page 51


  83:.//BSP/Components/Src/lcd.c **** }
 2022              		.loc 1 83 3 view .LVU572
  83:.//BSP/Components/Src/lcd.c **** }
 2023              		.loc 1 83 10 is_stmt 0 view .LVU573
 2024 0388 0023     		movs	r3, #0
 2025 038a 2569     		ldr	r5, [r4, #16]
 2026 038c 1946     		mov	r1, r3
 2027 038e 8A4A     		ldr	r2, .L56+32
 2028 0390 A069     		ldr	r0, [r4, #24]
 2029 0392 A847     		blx	r5
 2030              	.LVL131:
  83:.//BSP/Components/Src/lcd.c **** }
 2031              		.loc 1 83 10 view .LVU574
 2032              	.LBE400:
 2033              	.LBE399:
 478:.//BSP/Components/Src/lcd.c ****     ret += LCD_write_reg(&LCD_object.Ctx, 0xCB, lcd_reg_data14, 10);
 2034              		.loc 1 478 5 is_stmt 1 view .LVU575
 2035              	.LBB401:
 2036              	.LBI401:
  81:.//BSP/Components/Src/lcd.c **** {
 2037              		.loc 1 81 9 view .LVU576
 2038              	.LBB402:
  83:.//BSP/Components/Src/lcd.c **** }
 2039              		.loc 1 83 3 view .LVU577
  83:.//BSP/Components/Src/lcd.c **** }
 2040              		.loc 1 83 10 is_stmt 0 view .LVU578
 2041 0394 2569     		ldr	r5, [r4, #16]
 2042 0396 0A23     		movs	r3, #10
 2043 0398 884A     		ldr	r2, .L56+36
 2044 039a CB21     		movs	r1, #203
 2045 039c A069     		ldr	r0, [r4, #24]
 2046 039e A847     		blx	r5
 2047              	.LVL132:
  83:.//BSP/Components/Src/lcd.c **** }
 2048              		.loc 1 83 10 view .LVU579
 2049              	.LBE402:
 2050              	.LBE401:
 479:.//BSP/Components/Src/lcd.c **** 
 480:.//BSP/Components/Src/lcd.c ****     ret += LCD_write_reg(&LCD_object.Ctx, OTM8009A_CMD_NOP, &short_reg_data[31], 0);
 2051              		.loc 1 480 5 is_stmt 1 view .LVU580
 2052              	.LBB403:
 2053              	.LBI403:
  81:.//BSP/Components/Src/lcd.c **** {
 2054              		.loc 1 81 9 view .LVU581
 2055              	.LBB404:
  83:.//BSP/Components/Src/lcd.c **** }
 2056              		.loc 1 83 3 view .LVU582
  83:.//BSP/Components/Src/lcd.c **** }
 2057              		.loc 1 83 10 is_stmt 0 view .LVU583
 2058 03a0 0023     		movs	r3, #0
 2059 03a2 2569     		ldr	r5, [r4, #16]
 2060 03a4 1946     		mov	r1, r3
 2061 03a6 864A     		ldr	r2, .L56+40
 2062 03a8 A069     		ldr	r0, [r4, #24]
 2063 03aa A847     		blx	r5
 2064              	.LVL133:
  83:.//BSP/Components/Src/lcd.c **** }
ARM GAS  /var/folders/wl/rshn8xbx1dsfj1zgryf4g1240000gn/T//ccpuhGwG.s 			page 52


 2065              		.loc 1 83 10 view .LVU584
 2066              	.LBE404:
 2067              	.LBE403:
 481:.//BSP/Components/Src/lcd.c ****     ret += LCD_write_reg(&LCD_object.Ctx, 0xCB, lcd_reg_data15, 15);
 2068              		.loc 1 481 5 is_stmt 1 view .LVU585
 2069              	.LBB405:
 2070              	.LBI405:
  81:.//BSP/Components/Src/lcd.c **** {
 2071              		.loc 1 81 9 view .LVU586
 2072              	.LBB406:
  83:.//BSP/Components/Src/lcd.c **** }
 2073              		.loc 1 83 3 view .LVU587
  83:.//BSP/Components/Src/lcd.c **** }
 2074              		.loc 1 83 10 is_stmt 0 view .LVU588
 2075 03ac 2569     		ldr	r5, [r4, #16]
 2076 03ae 0F23     		movs	r3, #15
 2077 03b0 844A     		ldr	r2, .L56+44
 2078 03b2 CB21     		movs	r1, #203
 2079 03b4 A069     		ldr	r0, [r4, #24]
 2080 03b6 A847     		blx	r5
 2081              	.LVL134:
  83:.//BSP/Components/Src/lcd.c **** }
 2082              		.loc 1 83 10 view .LVU589
 2083              	.LBE406:
 2084              	.LBE405:
 482:.//BSP/Components/Src/lcd.c **** 
 483:.//BSP/Components/Src/lcd.c ****     ret += LCD_write_reg(&LCD_object.Ctx, OTM8009A_CMD_NOP, &short_reg_data[32], 0);
 2085              		.loc 1 483 5 is_stmt 1 view .LVU590
 2086              	.LBB407:
 2087              	.LBI407:
  81:.//BSP/Components/Src/lcd.c **** {
 2088              		.loc 1 81 9 view .LVU591
 2089              	.LBB408:
  83:.//BSP/Components/Src/lcd.c **** }
 2090              		.loc 1 83 3 view .LVU592
  83:.//BSP/Components/Src/lcd.c **** }
 2091              		.loc 1 83 10 is_stmt 0 view .LVU593
 2092 03b8 0023     		movs	r3, #0
 2093 03ba 2569     		ldr	r5, [r4, #16]
 2094 03bc 1946     		mov	r1, r3
 2095 03be 764A     		ldr	r2, .L56
 2096 03c0 A069     		ldr	r0, [r4, #24]
 2097 03c2 A847     		blx	r5
 2098              	.LVL135:
  83:.//BSP/Components/Src/lcd.c **** }
 2099              		.loc 1 83 10 view .LVU594
 2100              	.LBE408:
 2101              	.LBE407:
 484:.//BSP/Components/Src/lcd.c ****     ret += LCD_write_reg(&LCD_object.Ctx, 0xCB, lcd_reg_data16, 15);
 2102              		.loc 1 484 5 is_stmt 1 view .LVU595
 2103              	.LBB409:
 2104              	.LBI409:
  81:.//BSP/Components/Src/lcd.c **** {
 2105              		.loc 1 81 9 view .LVU596
 2106              	.LBB410:
  83:.//BSP/Components/Src/lcd.c **** }
 2107              		.loc 1 83 3 view .LVU597
ARM GAS  /var/folders/wl/rshn8xbx1dsfj1zgryf4g1240000gn/T//ccpuhGwG.s 			page 53


  83:.//BSP/Components/Src/lcd.c **** }
 2108              		.loc 1 83 10 is_stmt 0 view .LVU598
 2109 03c4 2569     		ldr	r5, [r4, #16]
 2110 03c6 0F23     		movs	r3, #15
 2111 03c8 7F4A     		ldr	r2, .L56+48
 2112 03ca CB21     		movs	r1, #203
 2113 03cc A069     		ldr	r0, [r4, #24]
 2114 03ce A847     		blx	r5
 2115              	.LVL136:
  83:.//BSP/Components/Src/lcd.c **** }
 2116              		.loc 1 83 10 view .LVU599
 2117              	.LBE410:
 2118              	.LBE409:
 485:.//BSP/Components/Src/lcd.c **** 
 486:.//BSP/Components/Src/lcd.c ****     ret += LCD_write_reg(&LCD_object.Ctx, OTM8009A_CMD_NOP, &short_reg_data[34], 0);
 2119              		.loc 1 486 5 is_stmt 1 view .LVU600
 2120              	.LBB411:
 2121              	.LBI411:
  81:.//BSP/Components/Src/lcd.c **** {
 2122              		.loc 1 81 9 view .LVU601
 2123              	.LBB412:
  83:.//BSP/Components/Src/lcd.c **** }
 2124              		.loc 1 83 3 view .LVU602
  83:.//BSP/Components/Src/lcd.c **** }
 2125              		.loc 1 83 10 is_stmt 0 view .LVU603
 2126 03d0 0023     		movs	r3, #0
 2127 03d2 2569     		ldr	r5, [r4, #16]
 2128 03d4 1946     		mov	r1, r3
 2129 03d6 7D4A     		ldr	r2, .L56+52
 2130 03d8 A069     		ldr	r0, [r4, #24]
 2131 03da A847     		blx	r5
 2132              	.LVL137:
  83:.//BSP/Components/Src/lcd.c **** }
 2133              		.loc 1 83 10 view .LVU604
 2134              	.LBE412:
 2135              	.LBE411:
 487:.//BSP/Components/Src/lcd.c ****     ret += LCD_write_reg(&LCD_object.Ctx, 0xCB, lcd_reg_data17, 10);
 2136              		.loc 1 487 5 is_stmt 1 view .LVU605
 2137              	.LBB413:
 2138              	.LBI413:
  81:.//BSP/Components/Src/lcd.c **** {
 2139              		.loc 1 81 9 view .LVU606
 2140              	.LBB414:
  83:.//BSP/Components/Src/lcd.c **** }
 2141              		.loc 1 83 3 view .LVU607
  83:.//BSP/Components/Src/lcd.c **** }
 2142              		.loc 1 83 10 is_stmt 0 view .LVU608
 2143 03dc 2569     		ldr	r5, [r4, #16]
 2144 03de 0A23     		movs	r3, #10
 2145 03e0 7B4A     		ldr	r2, .L56+56
 2146 03e2 CB21     		movs	r1, #203
 2147 03e4 A069     		ldr	r0, [r4, #24]
 2148 03e6 A847     		blx	r5
 2149              	.LVL138:
  83:.//BSP/Components/Src/lcd.c **** }
 2150              		.loc 1 83 10 view .LVU609
 2151              	.LBE414:
ARM GAS  /var/folders/wl/rshn8xbx1dsfj1zgryf4g1240000gn/T//ccpuhGwG.s 			page 54


 2152              	.LBE413:
 488:.//BSP/Components/Src/lcd.c **** 
 489:.//BSP/Components/Src/lcd.c ****     ret += LCD_write_reg(&LCD_object.Ctx, OTM8009A_CMD_NOP, &short_reg_data[35], 0);
 2153              		.loc 1 489 5 is_stmt 1 view .LVU610
 2154              	.LBB415:
 2155              	.LBI415:
  81:.//BSP/Components/Src/lcd.c **** {
 2156              		.loc 1 81 9 view .LVU611
 2157              	.LBB416:
  83:.//BSP/Components/Src/lcd.c **** }
 2158              		.loc 1 83 3 view .LVU612
  83:.//BSP/Components/Src/lcd.c **** }
 2159              		.loc 1 83 10 is_stmt 0 view .LVU613
 2160 03e8 0023     		movs	r3, #0
 2161 03ea 2569     		ldr	r5, [r4, #16]
 2162 03ec 1946     		mov	r1, r3
 2163 03ee 794A     		ldr	r2, .L56+60
 2164 03f0 A069     		ldr	r0, [r4, #24]
 2165 03f2 A847     		blx	r5
 2166              	.LVL139:
  83:.//BSP/Components/Src/lcd.c **** }
 2167              		.loc 1 83 10 view .LVU614
 2168              	.LBE416:
 2169              	.LBE415:
 490:.//BSP/Components/Src/lcd.c ****     ret += LCD_write_reg(&LCD_object.Ctx, 0xCB, lcd_reg_data18, 10);
 2170              		.loc 1 490 5 is_stmt 1 view .LVU615
 2171              	.LBB417:
 2172              	.LBI417:
  81:.//BSP/Components/Src/lcd.c **** {
 2173              		.loc 1 81 9 view .LVU616
 2174              	.LBB418:
  83:.//BSP/Components/Src/lcd.c **** }
 2175              		.loc 1 83 3 view .LVU617
  83:.//BSP/Components/Src/lcd.c **** }
 2176              		.loc 1 83 10 is_stmt 0 view .LVU618
 2177 03f4 2569     		ldr	r5, [r4, #16]
 2178 03f6 0A23     		movs	r3, #10
 2179 03f8 774A     		ldr	r2, .L56+64
 2180 03fa CB21     		movs	r1, #203
 2181 03fc A069     		ldr	r0, [r4, #24]
 2182 03fe A847     		blx	r5
 2183              	.LVL140:
  83:.//BSP/Components/Src/lcd.c **** }
 2184              		.loc 1 83 10 view .LVU619
 2185              	.LBE418:
 2186              	.LBE417:
 491:.//BSP/Components/Src/lcd.c **** 
 492:.//BSP/Components/Src/lcd.c ****     ret += LCD_write_reg(&LCD_object.Ctx, OTM8009A_CMD_NOP, &short_reg_data[2], 0);
 2187              		.loc 1 492 5 is_stmt 1 view .LVU620
 2188              	.LBB419:
 2189              	.LBI419:
  81:.//BSP/Components/Src/lcd.c **** {
 2190              		.loc 1 81 9 view .LVU621
 2191              	.LBB420:
  83:.//BSP/Components/Src/lcd.c **** }
 2192              		.loc 1 83 3 view .LVU622
  83:.//BSP/Components/Src/lcd.c **** }
ARM GAS  /var/folders/wl/rshn8xbx1dsfj1zgryf4g1240000gn/T//ccpuhGwG.s 			page 55


 2193              		.loc 1 83 10 is_stmt 0 view .LVU623
 2194 0400 0023     		movs	r3, #0
 2195 0402 2569     		ldr	r5, [r4, #16]
 2196 0404 1946     		mov	r1, r3
 2197 0406 664A     		ldr	r2, .L56+8
 2198 0408 A069     		ldr	r0, [r4, #24]
 2199 040a A847     		blx	r5
 2200              	.LVL141:
  83:.//BSP/Components/Src/lcd.c **** }
 2201              		.loc 1 83 10 view .LVU624
 2202              	.LBE420:
 2203              	.LBE419:
 493:.//BSP/Components/Src/lcd.c ****     ret += LCD_write_reg(&LCD_object.Ctx, 0xCC, lcd_reg_data19, 10);
 2204              		.loc 1 493 5 is_stmt 1 view .LVU625
 2205              	.LBB421:
 2206              	.LBI421:
  81:.//BSP/Components/Src/lcd.c **** {
 2207              		.loc 1 81 9 view .LVU626
 2208              	.LBB422:
  83:.//BSP/Components/Src/lcd.c **** }
 2209              		.loc 1 83 3 view .LVU627
  83:.//BSP/Components/Src/lcd.c **** }
 2210              		.loc 1 83 10 is_stmt 0 view .LVU628
 2211 040c 2569     		ldr	r5, [r4, #16]
 2212 040e 0A23     		movs	r3, #10
 2213 0410 724A     		ldr	r2, .L56+68
 2214 0412 CC21     		movs	r1, #204
 2215 0414 A069     		ldr	r0, [r4, #24]
 2216 0416 A847     		blx	r5
 2217              	.LVL142:
  83:.//BSP/Components/Src/lcd.c **** }
 2218              		.loc 1 83 10 view .LVU629
 2219              	.LBE422:
 2220              	.LBE421:
 494:.//BSP/Components/Src/lcd.c **** 
 495:.//BSP/Components/Src/lcd.c ****     ret += LCD_write_reg(&LCD_object.Ctx, OTM8009A_CMD_NOP, &short_reg_data[33], 0);
 2221              		.loc 1 495 5 is_stmt 1 view .LVU630
 2222              	.LBB423:
 2223              	.LBI423:
  81:.//BSP/Components/Src/lcd.c **** {
 2224              		.loc 1 81 9 view .LVU631
 2225              	.LBB424:
  83:.//BSP/Components/Src/lcd.c **** }
 2226              		.loc 1 83 3 view .LVU632
  83:.//BSP/Components/Src/lcd.c **** }
 2227              		.loc 1 83 10 is_stmt 0 view .LVU633
 2228 0418 0023     		movs	r3, #0
 2229 041a 2569     		ldr	r5, [r4, #16]
 2230 041c 1946     		mov	r1, r3
 2231 041e 624A     		ldr	r2, .L56+16
 2232 0420 A069     		ldr	r0, [r4, #24]
 2233 0422 A847     		blx	r5
 2234              	.LVL143:
  83:.//BSP/Components/Src/lcd.c **** }
 2235              		.loc 1 83 10 view .LVU634
 2236              	.LBE424:
 2237              	.LBE423:
ARM GAS  /var/folders/wl/rshn8xbx1dsfj1zgryf4g1240000gn/T//ccpuhGwG.s 			page 56


 496:.//BSP/Components/Src/lcd.c ****     ret += LCD_write_reg(&LCD_object.Ctx, 0xCC, lcd_reg_data20, 15);
 2238              		.loc 1 496 5 is_stmt 1 view .LVU635
 2239              	.LBB425:
 2240              	.LBI425:
  81:.//BSP/Components/Src/lcd.c **** {
 2241              		.loc 1 81 9 view .LVU636
 2242              	.LBB426:
  83:.//BSP/Components/Src/lcd.c **** }
 2243              		.loc 1 83 3 view .LVU637
  83:.//BSP/Components/Src/lcd.c **** }
 2244              		.loc 1 83 10 is_stmt 0 view .LVU638
 2245 0424 2569     		ldr	r5, [r4, #16]
 2246 0426 0F23     		movs	r3, #15
 2247 0428 6D4A     		ldr	r2, .L56+72
 2248 042a CC21     		movs	r1, #204
 2249 042c A069     		ldr	r0, [r4, #24]
 2250 042e A847     		blx	r5
 2251              	.LVL144:
  83:.//BSP/Components/Src/lcd.c **** }
 2252              		.loc 1 83 10 view .LVU639
 2253              	.LBE426:
 2254              	.LBE425:
 497:.//BSP/Components/Src/lcd.c **** 
 498:.//BSP/Components/Src/lcd.c ****     ret += LCD_write_reg(&LCD_object.Ctx, OTM8009A_CMD_NOP, &short_reg_data[29], 0);
 2255              		.loc 1 498 5 is_stmt 1 view .LVU640
 2256              	.LBB427:
 2257              	.LBI427:
  81:.//BSP/Components/Src/lcd.c **** {
 2258              		.loc 1 81 9 view .LVU641
 2259              	.LBB428:
  83:.//BSP/Components/Src/lcd.c **** }
 2260              		.loc 1 83 3 view .LVU642
  83:.//BSP/Components/Src/lcd.c **** }
 2261              		.loc 1 83 10 is_stmt 0 view .LVU643
 2262 0430 0023     		movs	r3, #0
 2263 0432 2569     		ldr	r5, [r4, #16]
 2264 0434 1946     		mov	r1, r3
 2265 0436 5E4A     		ldr	r2, .L56+24
 2266 0438 A069     		ldr	r0, [r4, #24]
 2267 043a A847     		blx	r5
 2268              	.LVL145:
  83:.//BSP/Components/Src/lcd.c **** }
 2269              		.loc 1 83 10 view .LVU644
 2270              	.LBE428:
 2271              	.LBE427:
 499:.//BSP/Components/Src/lcd.c ****     ret += LCD_write_reg(&LCD_object.Ctx, 0xCC, lcd_reg_data21, 15);
 2272              		.loc 1 499 5 is_stmt 1 view .LVU645
 2273              	.LBB429:
 2274              	.LBI429:
  81:.//BSP/Components/Src/lcd.c **** {
 2275              		.loc 1 81 9 view .LVU646
 2276              	.LBB430:
  83:.//BSP/Components/Src/lcd.c **** }
 2277              		.loc 1 83 3 view .LVU647
  83:.//BSP/Components/Src/lcd.c **** }
 2278              		.loc 1 83 10 is_stmt 0 view .LVU648
 2279 043c 2569     		ldr	r5, [r4, #16]
ARM GAS  /var/folders/wl/rshn8xbx1dsfj1zgryf4g1240000gn/T//ccpuhGwG.s 			page 57


 2280 043e 0F23     		movs	r3, #15
 2281 0440 684A     		ldr	r2, .L56+76
 2282 0442 CC21     		movs	r1, #204
 2283 0444 A069     		ldr	r0, [r4, #24]
 2284 0446 A847     		blx	r5
 2285              	.LVL146:
  83:.//BSP/Components/Src/lcd.c **** }
 2286              		.loc 1 83 10 view .LVU649
 2287              	.LBE430:
 2288              	.LBE429:
 500:.//BSP/Components/Src/lcd.c **** 
 501:.//BSP/Components/Src/lcd.c ****     ret += LCD_write_reg(&LCD_object.Ctx, OTM8009A_CMD_NOP, &short_reg_data[30], 0);
 2289              		.loc 1 501 5 is_stmt 1 view .LVU650
 2290              	.LBB431:
 2291              	.LBI431:
  81:.//BSP/Components/Src/lcd.c **** {
 2292              		.loc 1 81 9 view .LVU651
 2293              	.LBB432:
  83:.//BSP/Components/Src/lcd.c **** }
 2294              		.loc 1 83 3 view .LVU652
  83:.//BSP/Components/Src/lcd.c **** }
 2295              		.loc 1 83 10 is_stmt 0 view .LVU653
 2296 0448 0023     		movs	r3, #0
 2297 044a 2569     		ldr	r5, [r4, #16]
 2298 044c 1946     		mov	r1, r3
 2299 044e 5A4A     		ldr	r2, .L56+32
 2300 0450 A069     		ldr	r0, [r4, #24]
 2301 0452 A847     		blx	r5
 2302              	.LVL147:
  83:.//BSP/Components/Src/lcd.c **** }
 2303              		.loc 1 83 10 view .LVU654
 2304              	.LBE432:
 2305              	.LBE431:
 502:.//BSP/Components/Src/lcd.c ****     ret += LCD_write_reg(&LCD_object.Ctx, 0xCC, lcd_reg_data22, 10);
 2306              		.loc 1 502 5 is_stmt 1 view .LVU655
 2307              	.LBB433:
 2308              	.LBI433:
  81:.//BSP/Components/Src/lcd.c **** {
 2309              		.loc 1 81 9 view .LVU656
 2310              	.LBB434:
  83:.//BSP/Components/Src/lcd.c **** }
 2311              		.loc 1 83 3 view .LVU657
  83:.//BSP/Components/Src/lcd.c **** }
 2312              		.loc 1 83 10 is_stmt 0 view .LVU658
 2313 0454 2569     		ldr	r5, [r4, #16]
 2314 0456 0A23     		movs	r3, #10
 2315 0458 634A     		ldr	r2, .L56+80
 2316 045a CC21     		movs	r1, #204
 2317 045c A069     		ldr	r0, [r4, #24]
 2318 045e A847     		blx	r5
 2319              	.LVL148:
  83:.//BSP/Components/Src/lcd.c **** }
 2320              		.loc 1 83 10 view .LVU659
 2321              	.LBE434:
 2322              	.LBE433:
 503:.//BSP/Components/Src/lcd.c **** 
 504:.//BSP/Components/Src/lcd.c ****     ret += LCD_write_reg(&LCD_object.Ctx, OTM8009A_CMD_NOP, &short_reg_data[31], 0);
ARM GAS  /var/folders/wl/rshn8xbx1dsfj1zgryf4g1240000gn/T//ccpuhGwG.s 			page 58


 2323              		.loc 1 504 5 is_stmt 1 view .LVU660
 2324              	.LBB435:
 2325              	.LBI435:
  81:.//BSP/Components/Src/lcd.c **** {
 2326              		.loc 1 81 9 view .LVU661
 2327              	.LBB436:
  83:.//BSP/Components/Src/lcd.c **** }
 2328              		.loc 1 83 3 view .LVU662
  83:.//BSP/Components/Src/lcd.c **** }
 2329              		.loc 1 83 10 is_stmt 0 view .LVU663
 2330 0460 0023     		movs	r3, #0
 2331 0462 2569     		ldr	r5, [r4, #16]
 2332 0464 1946     		mov	r1, r3
 2333 0466 564A     		ldr	r2, .L56+40
 2334 0468 A069     		ldr	r0, [r4, #24]
 2335 046a A847     		blx	r5
 2336              	.LVL149:
  83:.//BSP/Components/Src/lcd.c **** }
 2337              		.loc 1 83 10 view .LVU664
 2338              	.LBE436:
 2339              	.LBE435:
 505:.//BSP/Components/Src/lcd.c ****     ret += LCD_write_reg(&LCD_object.Ctx, 0xCC, lcd_reg_data23, 15);
 2340              		.loc 1 505 5 is_stmt 1 view .LVU665
 2341              	.LBB437:
 2342              	.LBI437:
  81:.//BSP/Components/Src/lcd.c **** {
 2343              		.loc 1 81 9 view .LVU666
 2344              	.LBB438:
  83:.//BSP/Components/Src/lcd.c **** }
 2345              		.loc 1 83 3 view .LVU667
  83:.//BSP/Components/Src/lcd.c **** }
 2346              		.loc 1 83 10 is_stmt 0 view .LVU668
 2347 046c 2569     		ldr	r5, [r4, #16]
 2348 046e 0F23     		movs	r3, #15
 2349 0470 5E4A     		ldr	r2, .L56+84
 2350 0472 CC21     		movs	r1, #204
 2351 0474 A069     		ldr	r0, [r4, #24]
 2352 0476 A847     		blx	r5
 2353              	.LVL150:
  83:.//BSP/Components/Src/lcd.c **** }
 2354              		.loc 1 83 10 view .LVU669
 2355              	.LBE438:
 2356              	.LBE437:
 506:.//BSP/Components/Src/lcd.c **** 
 507:.//BSP/Components/Src/lcd.c ****     ret += LCD_write_reg(&LCD_object.Ctx, OTM8009A_CMD_NOP, &short_reg_data[32], 0);
 2357              		.loc 1 507 5 is_stmt 1 view .LVU670
 2358              	.LBB439:
 2359              	.LBI439:
  81:.//BSP/Components/Src/lcd.c **** {
 2360              		.loc 1 81 9 view .LVU671
 2361              	.LBB440:
  83:.//BSP/Components/Src/lcd.c **** }
 2362              		.loc 1 83 3 view .LVU672
  83:.//BSP/Components/Src/lcd.c **** }
 2363              		.loc 1 83 10 is_stmt 0 view .LVU673
 2364 0478 0023     		movs	r3, #0
 2365 047a 2569     		ldr	r5, [r4, #16]
ARM GAS  /var/folders/wl/rshn8xbx1dsfj1zgryf4g1240000gn/T//ccpuhGwG.s 			page 59


 2366 047c 1946     		mov	r1, r3
 2367 047e 464A     		ldr	r2, .L56
 2368 0480 A069     		ldr	r0, [r4, #24]
 2369 0482 A847     		blx	r5
 2370              	.LVL151:
  83:.//BSP/Components/Src/lcd.c **** }
 2371              		.loc 1 83 10 view .LVU674
 2372              	.LBE440:
 2373              	.LBE439:
 508:.//BSP/Components/Src/lcd.c ****     ret += LCD_write_reg(&LCD_object.Ctx, 0xCC, lcd_reg_data24, 15);
 2374              		.loc 1 508 5 is_stmt 1 view .LVU675
 2375              	.LBB441:
 2376              	.LBI441:
  81:.//BSP/Components/Src/lcd.c **** {
 2377              		.loc 1 81 9 view .LVU676
 2378              	.LBB442:
  83:.//BSP/Components/Src/lcd.c **** }
 2379              		.loc 1 83 3 view .LVU677
  83:.//BSP/Components/Src/lcd.c **** }
 2380              		.loc 1 83 10 is_stmt 0 view .LVU678
 2381 0484 2569     		ldr	r5, [r4, #16]
 2382 0486 0F23     		movs	r3, #15
 2383 0488 594A     		ldr	r2, .L56+88
 2384 048a CC21     		movs	r1, #204
 2385 048c A069     		ldr	r0, [r4, #24]
 2386 048e A847     		blx	r5
 2387              	.LVL152:
  83:.//BSP/Components/Src/lcd.c **** }
 2388              		.loc 1 83 10 view .LVU679
 2389              	.LBE442:
 2390              	.LBE441:
 509:.//BSP/Components/Src/lcd.c **** 
 510:.//BSP/Components/Src/lcd.c ****     /////////////////////////////////////////////////////////////////////////////
 511:.//BSP/Components/Src/lcd.c ****     /* PWR_CTRL1 - 0xc580h - 130th parameter - default 0x00 */
 512:.//BSP/Components/Src/lcd.c ****     /* Pump 1 min and max DM                                */
 513:.//BSP/Components/Src/lcd.c ****     ret += LCD_write_reg(&LCD_object.Ctx, OTM8009A_CMD_NOP, &short_reg_data[13], 0);
 2391              		.loc 1 513 5 is_stmt 1 view .LVU680
 2392              	.LBB443:
 2393              	.LBI443:
  81:.//BSP/Components/Src/lcd.c **** {
 2394              		.loc 1 81 9 view .LVU681
 2395              	.LBB444:
  83:.//BSP/Components/Src/lcd.c **** }
 2396              		.loc 1 83 3 view .LVU682
  83:.//BSP/Components/Src/lcd.c **** }
 2397              		.loc 1 83 10 is_stmt 0 view .LVU683
 2398 0490 0023     		movs	r3, #0
 2399 0492 2569     		ldr	r5, [r4, #16]
 2400 0494 1946     		mov	r1, r3
 2401 0496 574A     		ldr	r2, .L56+92
 2402 0498 A069     		ldr	r0, [r4, #24]
 2403 049a A847     		blx	r5
 2404              	.LVL153:
  83:.//BSP/Components/Src/lcd.c **** }
 2405              		.loc 1 83 10 view .LVU684
 2406              	.LBE444:
 2407              	.LBE443:
ARM GAS  /var/folders/wl/rshn8xbx1dsfj1zgryf4g1240000gn/T//ccpuhGwG.s 			page 60


 514:.//BSP/Components/Src/lcd.c ****     ret += LCD_write_reg(&LCD_object.Ctx, 0xC5, &short_reg_data[46], 0);
 2408              		.loc 1 514 5 is_stmt 1 view .LVU685
 2409              	.LBB445:
 2410              	.LBI445:
  81:.//BSP/Components/Src/lcd.c **** {
 2411              		.loc 1 81 9 view .LVU686
 2412              	.LBB446:
  83:.//BSP/Components/Src/lcd.c **** }
 2413              		.loc 1 83 3 view .LVU687
  83:.//BSP/Components/Src/lcd.c **** }
 2414              		.loc 1 83 10 is_stmt 0 view .LVU688
 2415 049c 2569     		ldr	r5, [r4, #16]
 2416 049e 0023     		movs	r3, #0
 2417 04a0 554A     		ldr	r2, .L56+96
 2418 04a2 C521     		movs	r1, #197
 2419 04a4 A069     		ldr	r0, [r4, #24]
 2420 04a6 A847     		blx	r5
 2421              	.LVL154:
  83:.//BSP/Components/Src/lcd.c **** }
 2422              		.loc 1 83 10 view .LVU689
 2423              	.LBE446:
 2424              	.LBE445:
 515:.//BSP/Components/Src/lcd.c ****     ret += LCD_write_reg(&LCD_object.Ctx, OTM8009A_CMD_NOP, &short_reg_data[47], 0);
 2425              		.loc 1 515 5 is_stmt 1 view .LVU690
 2426              	.LBB447:
 2427              	.LBI447:
  81:.//BSP/Components/Src/lcd.c **** {
 2428              		.loc 1 81 9 view .LVU691
 2429              	.LBB448:
  83:.//BSP/Components/Src/lcd.c **** }
 2430              		.loc 1 83 3 view .LVU692
  83:.//BSP/Components/Src/lcd.c **** }
 2431              		.loc 1 83 10 is_stmt 0 view .LVU693
 2432 04a8 0023     		movs	r3, #0
 2433 04aa 2569     		ldr	r5, [r4, #16]
 2434 04ac 1946     		mov	r1, r3
 2435 04ae 534A     		ldr	r2, .L56+100
 2436 04b0 A069     		ldr	r0, [r4, #24]
 2437 04b2 A847     		blx	r5
 2438              	.LVL155:
  83:.//BSP/Components/Src/lcd.c **** }
 2439              		.loc 1 83 10 view .LVU694
 2440              	.LBE448:
 2441              	.LBE447:
 516:.//BSP/Components/Src/lcd.c ****     ret += LCD_write_reg(&LCD_object.Ctx, 0xF5, &short_reg_data[48], 0);
 2442              		.loc 1 516 5 is_stmt 1 view .LVU695
 2443              	.LBB449:
 2444              	.LBI449:
  81:.//BSP/Components/Src/lcd.c **** {
 2445              		.loc 1 81 9 view .LVU696
 2446              	.LBB450:
  83:.//BSP/Components/Src/lcd.c **** }
 2447              		.loc 1 83 3 view .LVU697
  83:.//BSP/Components/Src/lcd.c **** }
 2448              		.loc 1 83 10 is_stmt 0 view .LVU698
 2449 04b4 2569     		ldr	r5, [r4, #16]
 2450 04b6 0023     		movs	r3, #0
ARM GAS  /var/folders/wl/rshn8xbx1dsfj1zgryf4g1240000gn/T//ccpuhGwG.s 			page 61


 2451 04b8 514A     		ldr	r2, .L56+104
 2452 04ba F521     		movs	r1, #245
 2453 04bc A069     		ldr	r0, [r4, #24]
 2454 04be A847     		blx	r5
 2455              	.LVL156:
  83:.//BSP/Components/Src/lcd.c **** }
 2456              		.loc 1 83 10 view .LVU699
 2457              	.LBE450:
 2458              	.LBE449:
 517:.//BSP/Components/Src/lcd.c ****     /////////////////////////////////////////////////////////////////////////////
 518:.//BSP/Components/Src/lcd.c **** 
 519:.//BSP/Components/Src/lcd.c ****     /* CABC LEDPWM frequency adjusted to 19,5kHz */
 520:.//BSP/Components/Src/lcd.c ****     ret += LCD_write_reg(&LCD_object.Ctx, OTM8009A_CMD_NOP, &short_reg_data[49], 0);
 2459              		.loc 1 520 5 is_stmt 1 view .LVU700
 2460              	.LBB451:
 2461              	.LBI451:
  81:.//BSP/Components/Src/lcd.c **** {
 2462              		.loc 1 81 9 view .LVU701
 2463              	.LBB452:
  83:.//BSP/Components/Src/lcd.c **** }
 2464              		.loc 1 83 3 view .LVU702
  83:.//BSP/Components/Src/lcd.c **** }
 2465              		.loc 1 83 10 is_stmt 0 view .LVU703
 2466 04c0 0023     		movs	r3, #0
 2467 04c2 2569     		ldr	r5, [r4, #16]
 2468 04c4 1946     		mov	r1, r3
 2469 04c6 4F4A     		ldr	r2, .L56+108
 2470 04c8 A069     		ldr	r0, [r4, #24]
 2471 04ca A847     		blx	r5
 2472              	.LVL157:
  83:.//BSP/Components/Src/lcd.c **** }
 2473              		.loc 1 83 10 view .LVU704
 2474              	.LBE452:
 2475              	.LBE451:
 521:.//BSP/Components/Src/lcd.c ****     ret += LCD_write_reg(&LCD_object.Ctx, 0xC6, &short_reg_data[50], 0);
 2476              		.loc 1 521 5 is_stmt 1 view .LVU705
 2477              	.LBB453:
 2478              	.LBI453:
  81:.//BSP/Components/Src/lcd.c **** {
 2479              		.loc 1 81 9 view .LVU706
 2480              	.LBB454:
  83:.//BSP/Components/Src/lcd.c **** }
 2481              		.loc 1 83 3 view .LVU707
  83:.//BSP/Components/Src/lcd.c **** }
 2482              		.loc 1 83 10 is_stmt 0 view .LVU708
 2483 04cc 2569     		ldr	r5, [r4, #16]
 2484 04ce 0023     		movs	r3, #0
 2485 04d0 4D4A     		ldr	r2, .L56+112
 2486 04d2 C621     		movs	r1, #198
 2487 04d4 A069     		ldr	r0, [r4, #24]
 2488 04d6 A847     		blx	r5
 2489              	.LVL158:
  83:.//BSP/Components/Src/lcd.c **** }
 2490              		.loc 1 83 10 view .LVU709
 2491              	.LBE454:
 2492              	.LBE453:
 522:.//BSP/Components/Src/lcd.c **** 
ARM GAS  /var/folders/wl/rshn8xbx1dsfj1zgryf4g1240000gn/T//ccpuhGwG.s 			page 62


 523:.//BSP/Components/Src/lcd.c ****     /* Exit CMD2 mode */
 524:.//BSP/Components/Src/lcd.c ****     ret += LCD_write_reg(&LCD_object.Ctx, OTM8009A_CMD_NOP, &short_reg_data[1], 0);
 2493              		.loc 1 524 5 is_stmt 1 view .LVU710
 2494              	.LBB455:
 2495              	.LBI455:
  81:.//BSP/Components/Src/lcd.c **** {
 2496              		.loc 1 81 9 view .LVU711
 2497              	.LBB456:
  83:.//BSP/Components/Src/lcd.c **** }
 2498              		.loc 1 83 3 view .LVU712
  83:.//BSP/Components/Src/lcd.c **** }
 2499              		.loc 1 83 10 is_stmt 0 view .LVU713
 2500 04d8 0023     		movs	r3, #0
 2501 04da 2569     		ldr	r5, [r4, #16]
 2502 04dc 1946     		mov	r1, r3
 2503 04de 4B4A     		ldr	r2, .L56+116
 2504 04e0 A069     		ldr	r0, [r4, #24]
 2505 04e2 A847     		blx	r5
 2506              	.LVL159:
  83:.//BSP/Components/Src/lcd.c **** }
 2507              		.loc 1 83 10 view .LVU714
 2508              	.LBE456:
 2509              	.LBE455:
 525:.//BSP/Components/Src/lcd.c ****     ret += LCD_write_reg(&LCD_object.Ctx, 0xFF, lcd_reg_data25, 3);
 2510              		.loc 1 525 5 is_stmt 1 view .LVU715
 2511              	.LBB457:
 2512              	.LBI457:
  81:.//BSP/Components/Src/lcd.c **** {
 2513              		.loc 1 81 9 view .LVU716
 2514              	.LBB458:
  83:.//BSP/Components/Src/lcd.c **** }
 2515              		.loc 1 83 3 view .LVU717
  83:.//BSP/Components/Src/lcd.c **** }
 2516              		.loc 1 83 10 is_stmt 0 view .LVU718
 2517 04e4 2569     		ldr	r5, [r4, #16]
 2518 04e6 0323     		movs	r3, #3
 2519 04e8 494A     		ldr	r2, .L56+120
 2520 04ea FF21     		movs	r1, #255
 2521 04ec A069     		ldr	r0, [r4, #24]
 2522 04ee A847     		blx	r5
 2523              	.LVL160:
  83:.//BSP/Components/Src/lcd.c **** }
 2524              		.loc 1 83 10 view .LVU719
 2525              	.LBE458:
 2526              	.LBE457:
 526:.//BSP/Components/Src/lcd.c **** 
 527:.//BSP/Components/Src/lcd.c ****     /*************************************************************************** */
 528:.//BSP/Components/Src/lcd.c ****     /* Standard DCS Initialization TO KEEP CAN BE DONE IN HSDT                   */
 529:.//BSP/Components/Src/lcd.c ****     /*************************************************************************** */
 530:.//BSP/Components/Src/lcd.c **** 
 531:.//BSP/Components/Src/lcd.c ****     /* NOP - goes back to DCS std command ? */
 532:.//BSP/Components/Src/lcd.c ****     ret += LCD_write_reg(&LCD_object.Ctx, OTM8009A_CMD_NOP, &short_reg_data[1], 0);
 2527              		.loc 1 532 5 is_stmt 1 view .LVU720
 2528              	.LBB459:
 2529              	.LBI459:
  81:.//BSP/Components/Src/lcd.c **** {
 2530              		.loc 1 81 9 view .LVU721
ARM GAS  /var/folders/wl/rshn8xbx1dsfj1zgryf4g1240000gn/T//ccpuhGwG.s 			page 63


 2531              	.LBB460:
  83:.//BSP/Components/Src/lcd.c **** }
 2532              		.loc 1 83 3 view .LVU722
  83:.//BSP/Components/Src/lcd.c **** }
 2533              		.loc 1 83 10 is_stmt 0 view .LVU723
 2534 04f0 0023     		movs	r3, #0
 2535 04f2 2569     		ldr	r5, [r4, #16]
 2536 04f4 1946     		mov	r1, r3
 2537 04f6 454A     		ldr	r2, .L56+116
 2538 04f8 A069     		ldr	r0, [r4, #24]
 2539 04fa A847     		blx	r5
 2540              	.LVL161:
  83:.//BSP/Components/Src/lcd.c **** }
 2541              		.loc 1 83 10 view .LVU724
 2542              	.LBE460:
 2543              	.LBE459:
 533:.//BSP/Components/Src/lcd.c **** 
 534:.//BSP/Components/Src/lcd.c ****     /* Gamma correction 2.2+ table (HSDT possible) */
 535:.//BSP/Components/Src/lcd.c ****     ret += LCD_write_reg(&LCD_object.Ctx, OTM8009A_CMD_NOP, &short_reg_data[1], 0);
 2544              		.loc 1 535 5 is_stmt 1 view .LVU725
 2545              	.LBB461:
 2546              	.LBI461:
  81:.//BSP/Components/Src/lcd.c **** {
 2547              		.loc 1 81 9 view .LVU726
 2548              	.LBB462:
  83:.//BSP/Components/Src/lcd.c **** }
 2549              		.loc 1 83 3 view .LVU727
  83:.//BSP/Components/Src/lcd.c **** }
 2550              		.loc 1 83 10 is_stmt 0 view .LVU728
 2551 04fc 0023     		movs	r3, #0
 2552 04fe 2569     		ldr	r5, [r4, #16]
 2553 0500 1946     		mov	r1, r3
 2554 0502 424A     		ldr	r2, .L56+116
 2555 0504 A069     		ldr	r0, [r4, #24]
 2556 0506 A847     		blx	r5
 2557              	.LVL162:
  83:.//BSP/Components/Src/lcd.c **** }
 2558              		.loc 1 83 10 view .LVU729
 2559              	.LBE462:
 2560              	.LBE461:
 536:.//BSP/Components/Src/lcd.c ****     ret += LCD_write_reg(&LCD_object.Ctx, 0xE1, lcd_reg_data3, 16);
 2561              		.loc 1 536 5 is_stmt 1 view .LVU730
 2562              	.LBB463:
 2563              	.LBI463:
  81:.//BSP/Components/Src/lcd.c **** {
 2564              		.loc 1 81 9 view .LVU731
 2565              	.LBB464:
  83:.//BSP/Components/Src/lcd.c **** }
 2566              		.loc 1 83 3 view .LVU732
  83:.//BSP/Components/Src/lcd.c **** }
 2567              		.loc 1 83 10 is_stmt 0 view .LVU733
 2568 0508 2569     		ldr	r5, [r4, #16]
 2569 050a 1023     		movs	r3, #16
 2570 050c 414A     		ldr	r2, .L56+124
 2571 050e E121     		movs	r1, #225
 2572 0510 A069     		ldr	r0, [r4, #24]
 2573 0512 A847     		blx	r5
ARM GAS  /var/folders/wl/rshn8xbx1dsfj1zgryf4g1240000gn/T//ccpuhGwG.s 			page 64


 2574              	.LVL163:
  83:.//BSP/Components/Src/lcd.c **** }
 2575              		.loc 1 83 10 view .LVU734
 2576              	.LBE464:
 2577              	.LBE463:
 537:.//BSP/Components/Src/lcd.c **** 
 538:.//BSP/Components/Src/lcd.c ****     /* Gamma correction 2.2- table (HSDT possible) */
 539:.//BSP/Components/Src/lcd.c ****     ret += LCD_write_reg(&LCD_object.Ctx, OTM8009A_CMD_NOP, &short_reg_data[1], 0);
 2578              		.loc 1 539 5 is_stmt 1 view .LVU735
 2579              	.LBB465:
 2580              	.LBI465:
  81:.//BSP/Components/Src/lcd.c **** {
 2581              		.loc 1 81 9 view .LVU736
 2582              	.LBB466:
  83:.//BSP/Components/Src/lcd.c **** }
 2583              		.loc 1 83 3 view .LVU737
  83:.//BSP/Components/Src/lcd.c **** }
 2584              		.loc 1 83 10 is_stmt 0 view .LVU738
 2585 0514 0023     		movs	r3, #0
 2586 0516 2569     		ldr	r5, [r4, #16]
 2587 0518 1946     		mov	r1, r3
 2588 051a 3C4A     		ldr	r2, .L56+116
 2589 051c A069     		ldr	r0, [r4, #24]
 2590 051e A847     		blx	r5
 2591              	.LVL164:
  83:.//BSP/Components/Src/lcd.c **** }
 2592              		.loc 1 83 10 view .LVU739
 2593              	.LBE466:
 2594              	.LBE465:
 540:.//BSP/Components/Src/lcd.c ****     ret += LCD_write_reg(&LCD_object.Ctx, 0xE2, lcd_reg_data4, 16);
 2595              		.loc 1 540 5 is_stmt 1 view .LVU740
 2596              	.LBB467:
 2597              	.LBI467:
  81:.//BSP/Components/Src/lcd.c **** {
 2598              		.loc 1 81 9 view .LVU741
 2599              	.LBB468:
  83:.//BSP/Components/Src/lcd.c **** }
 2600              		.loc 1 83 3 view .LVU742
  83:.//BSP/Components/Src/lcd.c **** }
 2601              		.loc 1 83 10 is_stmt 0 view .LVU743
 2602 0520 2569     		ldr	r5, [r4, #16]
 2603 0522 1023     		movs	r3, #16
 2604 0524 3C4A     		ldr	r2, .L56+128
 2605 0526 E221     		movs	r1, #226
 2606 0528 A069     		ldr	r0, [r4, #24]
 2607 052a A847     		blx	r5
 2608              	.LVL165:
  83:.//BSP/Components/Src/lcd.c **** }
 2609              		.loc 1 83 10 view .LVU744
 2610              	.LBE468:
 2611              	.LBE467:
 541:.//BSP/Components/Src/lcd.c **** 
 542:.//BSP/Components/Src/lcd.c ****     /* Send Sleep Out command to display : no parameter */
 543:.//BSP/Components/Src/lcd.c ****     ret += LCD_write_reg(&LCD_object.Ctx, OTM8009A_CMD_SLPOUT, &short_reg_data[36], 0);
 2612              		.loc 1 543 5 is_stmt 1 view .LVU745
 2613              	.LBB469:
 2614              	.LBI469:
ARM GAS  /var/folders/wl/rshn8xbx1dsfj1zgryf4g1240000gn/T//ccpuhGwG.s 			page 65


  81:.//BSP/Components/Src/lcd.c **** {
 2615              		.loc 1 81 9 view .LVU746
 2616              	.LBB470:
  83:.//BSP/Components/Src/lcd.c **** }
 2617              		.loc 1 83 3 view .LVU747
  83:.//BSP/Components/Src/lcd.c **** }
 2618              		.loc 1 83 10 is_stmt 0 view .LVU748
 2619 052c 2569     		ldr	r5, [r4, #16]
 2620 052e 0023     		movs	r3, #0
 2621 0530 3A4A     		ldr	r2, .L56+132
 2622 0532 1121     		movs	r1, #17
 2623 0534 A069     		ldr	r0, [r4, #24]
 2624 0536 A847     		blx	r5
 2625              	.LVL166:
  83:.//BSP/Components/Src/lcd.c **** }
 2626              		.loc 1 83 10 view .LVU749
 2627              	.LBE470:
 2628              	.LBE469:
 544:.//BSP/Components/Src/lcd.c **** 
 545:.//BSP/Components/Src/lcd.c ****     /* Wait for sleep out exit */
 546:.//BSP/Components/Src/lcd.c ****     (void)LCD_IO_Delay(&LCD_object, 120);
 2629              		.loc 1 546 5 is_stmt 1 view .LVU750
 2630              	.LBB471:
 2631              	.LBI471:
  66:.//BSP/Components/Src/lcd.c **** {
 2632              		.loc 1 66 16 view .LVU751
 2633              	.LBB472:
  68:.//BSP/Components/Src/lcd.c ****   tickstart = pObj->IO.GetTick();
 2634              		.loc 1 68 3 view .LVU752
  69:.//BSP/Components/Src/lcd.c ****   while((pObj->IO.GetTick() - tickstart) < Delay)
 2635              		.loc 1 69 3 view .LVU753
  69:.//BSP/Components/Src/lcd.c ****   while((pObj->IO.GetTick() - tickstart) < Delay)
 2636              		.loc 1 69 15 is_stmt 0 view .LVU754
 2637 0538 E368     		ldr	r3, [r4, #12]
 2638 053a 9847     		blx	r3
 2639              	.LVL167:
 2640 053c 0546     		mov	r5, r0
 2641              	.LVL168:
  70:.//BSP/Components/Src/lcd.c ****   {
 2642              		.loc 1 70 3 is_stmt 1 view .LVU755
 2643              	.L48:
  72:.//BSP/Components/Src/lcd.c ****   return OTM8009A_OK;
 2644              		.loc 1 72 3 view .LVU756
  70:.//BSP/Components/Src/lcd.c ****   {
 2645              		.loc 1 70 8 view .LVU757
  70:.//BSP/Components/Src/lcd.c ****   {
 2646              		.loc 1 70 10 is_stmt 0 view .LVU758
 2647 053e E368     		ldr	r3, [r4, #12]
 2648 0540 9847     		blx	r3
 2649              	.LVL169:
  70:.//BSP/Components/Src/lcd.c ****   {
 2650              		.loc 1 70 29 view .LVU759
 2651 0542 401B     		subs	r0, r0, r5
  70:.//BSP/Components/Src/lcd.c ****   {
 2652              		.loc 1 70 8 view .LVU760
 2653 0544 7728     		cmp	r0, #119
 2654 0546 FAD9     		bls	.L48
ARM GAS  /var/folders/wl/rshn8xbx1dsfj1zgryf4g1240000gn/T//ccpuhGwG.s 			page 66


  73:.//BSP/Components/Src/lcd.c **** }
 2655              		.loc 1 73 3 is_stmt 1 view .LVU761
 2656              	.LVL170:
  73:.//BSP/Components/Src/lcd.c **** }
 2657              		.loc 1 73 3 is_stmt 0 view .LVU762
 2658              	.LBE472:
 2659              	.LBE471:
 547:.//BSP/Components/Src/lcd.c **** 
 548:.//BSP/Components/Src/lcd.c **** 
 549:.//BSP/Components/Src/lcd.c ****     /* Set Pixel color format to RGB888 */
 550:.//BSP/Components/Src/lcd.c ****     ret += LCD_write_reg(&LCD_object.Ctx, OTM8009A_CMD_COLMOD, &short_reg_data[38], 0);
 2660              		.loc 1 550 5 is_stmt 1 view .LVU763
 2661              	.LBB473:
 2662              	.LBI473:
  81:.//BSP/Components/Src/lcd.c **** {
 2663              		.loc 1 81 9 view .LVU764
 2664              	.LBB474:
  83:.//BSP/Components/Src/lcd.c **** }
 2665              		.loc 1 83 3 view .LVU765
  83:.//BSP/Components/Src/lcd.c **** }
 2666              		.loc 1 83 10 is_stmt 0 view .LVU766
 2667 0548 0023     		movs	r3, #0
 2668 054a 2669     		ldr	r6, [r4, #16]
 2669 054c 344A     		ldr	r2, .L56+136
 2670 054e 3A21     		movs	r1, #58
 2671 0550 A069     		ldr	r0, [r4, #24]
 2672              	.LBE474:
 2673              	.LBE473:
 551:.//BSP/Components/Src/lcd.c ****     LCDACtx.ColorCode = OTM8009A_FORMAT_RGB888;
 2674              		.loc 1 551 23 view .LVU767
 2675 0552 1D46     		mov	r5, r3
 2676              	.LBB476:
 2677              	.LBB475:
  83:.//BSP/Components/Src/lcd.c **** }
 2678              		.loc 1 83 10 view .LVU768
 2679 0554 B047     		blx	r6
 2680              	.LVL171:
  83:.//BSP/Components/Src/lcd.c **** }
 2681              		.loc 1 83 10 view .LVU769
 2682              	.LBE475:
 2683              	.LBE476:
 2684              		.loc 1 551 5 is_stmt 1 view .LVU770
 552:.//BSP/Components/Src/lcd.c **** 
 553:.//BSP/Components/Src/lcd.c ****     /* Send command to configure display in landscape orientation mode. By default
 554:.//BSP/Components/Src/lcd.c ****     the orientation mode is portrait  */
 555:.//BSP/Components/Src/lcd.c ****     #ifdef OTM8009A_ORIENTATION_LANDSCAPE
 556:.//BSP/Components/Src/lcd.c ****         uint8_t tmp = OTM8009A_MADCTR_MODE_LANDSCAPE;
 2685              		.loc 1 556 17 is_stmt 0 view .LVU771
 2686 0556 6022     		movs	r2, #96
 551:.//BSP/Components/Src/lcd.c ****     LCDACtx.ColorCode = OTM8009A_FORMAT_RGB888;
 2687              		.loc 1 551 23 view .LVU772
 2688 0558 324F     		ldr	r7, .L56+140
 2689              	.LBB477:
 2690              	.LBB478:
  83:.//BSP/Components/Src/lcd.c **** }
 2691              		.loc 1 83 10 view .LVU773
 2692 055a 2B46     		mov	r3, r5
ARM GAS  /var/folders/wl/rshn8xbx1dsfj1zgryf4g1240000gn/T//ccpuhGwG.s 			page 67


 2693 055c 2669     		ldr	r6, [r4, #16]
 2694 055e 3621     		movs	r1, #54
 2695              	.LBE478:
 2696              	.LBE477:
 2697              		.loc 1 556 17 view .LVU774
 2698 0560 8DF80320 		strb	r2, [sp, #3]
 2699              	.LBB481:
 2700              	.LBB479:
  83:.//BSP/Components/Src/lcd.c **** }
 2701              		.loc 1 83 10 view .LVU775
 2702 0564 0DF10302 		add	r2, sp, #3
 2703 0568 A069     		ldr	r0, [r4, #24]
 2704              	.LBE479:
 2705              	.LBE481:
 557:.//BSP/Components/Src/lcd.c ****         ret += LCD_write_reg(&LCD_object.Ctx, OTM8009A_CMD_MADCTR, &tmp, 0);
 558:.//BSP/Components/Src/lcd.c ****         ret += LCD_write_reg(&LCD_object.Ctx, OTM8009A_CMD_CASET, LcdRegData27, 4);
 559:.//BSP/Components/Src/lcd.c ****         ret += LCD_write_reg(&LCD_object.Ctx, OTM8009A_CMD_PASET, LcdRegData28, 4);
 560:.//BSP/Components/Src/lcd.c **** 
 561:.//BSP/Components/Src/lcd.c ****         LCDACtx.Orientation = OTM8009A_ORIENTATION_LANDSCAPE;
 2706              		.loc 1 561 29 view .LVU776
 2707 056a 4FF00108 		mov	r8, #1
 551:.//BSP/Components/Src/lcd.c **** 
 2708              		.loc 1 551 23 view .LVU777
 2709 056e 7D60     		str	r5, [r7, #4]
 556:.//BSP/Components/Src/lcd.c ****         ret += LCD_write_reg(&LCD_object.Ctx, OTM8009A_CMD_MADCTR, &tmp, 0);
 2710              		.loc 1 556 9 is_stmt 1 view .LVU778
 557:.//BSP/Components/Src/lcd.c ****         ret += LCD_write_reg(&LCD_object.Ctx, OTM8009A_CMD_MADCTR, &tmp, 0);
 2711              		.loc 1 557 9 view .LVU779
 2712              	.LVL172:
 2713              	.LBB482:
 2714              	.LBI477:
  81:.//BSP/Components/Src/lcd.c **** {
 2715              		.loc 1 81 9 view .LVU780
 2716              	.LBB480:
  83:.//BSP/Components/Src/lcd.c **** }
 2717              		.loc 1 83 3 view .LVU781
  83:.//BSP/Components/Src/lcd.c **** }
 2718              		.loc 1 83 10 is_stmt 0 view .LVU782
 2719 0570 B047     		blx	r6
 2720              	.LVL173:
  83:.//BSP/Components/Src/lcd.c **** }
 2721              		.loc 1 83 10 view .LVU783
 2722              	.LBE480:
 2723              	.LBE482:
 558:.//BSP/Components/Src/lcd.c ****         ret += LCD_write_reg(&LCD_object.Ctx, OTM8009A_CMD_PASET, LcdRegData28, 4);
 2724              		.loc 1 558 9 is_stmt 1 view .LVU784
 2725              	.LBB483:
 2726              	.LBI483:
  81:.//BSP/Components/Src/lcd.c **** {
 2727              		.loc 1 81 9 view .LVU785
 2728              	.LBB484:
  83:.//BSP/Components/Src/lcd.c **** }
 2729              		.loc 1 83 3 view .LVU786
  83:.//BSP/Components/Src/lcd.c **** }
 2730              		.loc 1 83 10 is_stmt 0 view .LVU787
 2731 0572 2669     		ldr	r6, [r4, #16]
 2732 0574 0423     		movs	r3, #4
ARM GAS  /var/folders/wl/rshn8xbx1dsfj1zgryf4g1240000gn/T//ccpuhGwG.s 			page 68


 2733 0576 2C4A     		ldr	r2, .L56+144
 2734 0578 2A21     		movs	r1, #42
 2735 057a A069     		ldr	r0, [r4, #24]
 2736 057c B047     		blx	r6
 2737              	.LVL174:
  83:.//BSP/Components/Src/lcd.c **** }
 2738              		.loc 1 83 10 view .LVU788
 2739              	.LBE484:
 2740              	.LBE483:
 559:.//BSP/Components/Src/lcd.c **** 
 2741              		.loc 1 559 9 is_stmt 1 view .LVU789
 2742              	.LBB485:
 2743              	.LBI485:
  81:.//BSP/Components/Src/lcd.c **** {
 2744              		.loc 1 81 9 view .LVU790
 2745              	.LBB486:
  83:.//BSP/Components/Src/lcd.c **** }
 2746              		.loc 1 83 3 view .LVU791
  83:.//BSP/Components/Src/lcd.c **** }
 2747              		.loc 1 83 10 is_stmt 0 view .LVU792
 2748 057e 2669     		ldr	r6, [r4, #16]
 2749 0580 0423     		movs	r3, #4
 2750 0582 2A4A     		ldr	r2, .L56+148
 2751 0584 2B21     		movs	r1, #43
 2752 0586 A069     		ldr	r0, [r4, #24]
 2753 0588 B047     		blx	r6
 2754              	.LVL175:
  83:.//BSP/Components/Src/lcd.c **** }
 2755              		.loc 1 83 10 view .LVU793
 2756              	.LBE486:
 2757              	.LBE485:
 2758              		.loc 1 561 9 is_stmt 1 view .LVU794
 2759              	.LBB487:
 2760              	.LBB488:
  83:.//BSP/Components/Src/lcd.c **** }
 2761              		.loc 1 83 10 is_stmt 0 view .LVU795
 2762 058a 2B46     		mov	r3, r5
 2763 058c 2669     		ldr	r6, [r4, #16]
 2764 058e 5121     		movs	r1, #81
 2765 0590 274A     		ldr	r2, .L56+152
 2766 0592 A069     		ldr	r0, [r4, #24]
 2767 0594 4EE0     		b	.L57
 2768              	.L58:
 2769 0596 00BF     		.align	2
 2770              	.L56:
 2771 0598 20000000 		.word	.LANCHOR4+32
 2772 059c 2D000000 		.word	.LANCHOR4+45
 2773 05a0 02000000 		.word	.LANCHOR4+2
 2774 05a4 00000000 		.word	.LANCHOR13
 2775 05a8 21000000 		.word	.LANCHOR4+33
 2776 05ac 00000000 		.word	.LANCHOR14
 2777 05b0 1D000000 		.word	.LANCHOR4+29
 2778 05b4 00000000 		.word	.LANCHOR15
 2779 05b8 1E000000 		.word	.LANCHOR4+30
 2780 05bc 00000000 		.word	.LANCHOR16
 2781 05c0 1F000000 		.word	.LANCHOR4+31
 2782 05c4 00000000 		.word	.LANCHOR17
ARM GAS  /var/folders/wl/rshn8xbx1dsfj1zgryf4g1240000gn/T//ccpuhGwG.s 			page 69


 2783 05c8 00000000 		.word	.LANCHOR18
 2784 05cc 22000000 		.word	.LANCHOR4+34
 2785 05d0 00000000 		.word	.LANCHOR19
 2786 05d4 23000000 		.word	.LANCHOR4+35
 2787 05d8 00000000 		.word	.LANCHOR20
 2788 05dc 00000000 		.word	.LANCHOR21
 2789 05e0 00000000 		.word	.LANCHOR22
 2790 05e4 00000000 		.word	.LANCHOR23
 2791 05e8 00000000 		.word	.LANCHOR24
 2792 05ec 00000000 		.word	.LANCHOR25
 2793 05f0 00000000 		.word	.LANCHOR26
 2794 05f4 0D000000 		.word	.LANCHOR4+13
 2795 05f8 2E000000 		.word	.LANCHOR4+46
 2796 05fc 2F000000 		.word	.LANCHOR4+47
 2797 0600 30000000 		.word	.LANCHOR4+48
 2798 0604 31000000 		.word	.LANCHOR4+49
 2799 0608 32000000 		.word	.LANCHOR4+50
 2800 060c 01000000 		.word	.LANCHOR4+1
 2801 0610 00000000 		.word	.LANCHOR27
 2802 0614 00000000 		.word	.LANCHOR28
 2803 0618 00000000 		.word	.LANCHOR29
 2804 061c 24000000 		.word	.LANCHOR4+36
 2805 0620 26000000 		.word	.LANCHOR4+38
 2806 0624 00000000 		.word	.LANCHOR0
 2807 0628 00000000 		.word	.LANCHOR1
 2808 062c 00000000 		.word	.LANCHOR2
 2809 0630 27000000 		.word	.LANCHOR4+39
 2810              	.L57:
 2811              	.LBE488:
 2812              	.LBE487:
 2813              		.loc 1 561 29 view .LVU796
 2814 0634 C7F80080 		str	r8, [r7]
 562:.//BSP/Components/Src/lcd.c ****     #elif OTM8009A_ORIENTATION_PORTRAIT
 563:.//BSP/Components/Src/lcd.c ****         LCDACtx.Orientation = OTM8009A_ORIENTATION_PORTRAIT;
 564:.//BSP/Components/Src/lcd.c ****     #endif
 565:.//BSP/Components/Src/lcd.c **** 
 566:.//BSP/Components/Src/lcd.c ****     /** CABC : Content Adaptive Backlight Control section start >> */
 567:.//BSP/Components/Src/lcd.c ****     /* Note : defaut is 0 (lowest Brightness], 0xFF is highest Brightness, try 0x7F : intermediate 
 568:.//BSP/Components/Src/lcd.c ****     ret += LCD_write_reg(&LCD_object.Ctx, OTM8009A_CMD_WRDISBV, &short_reg_data[39], 0);
 2815              		.loc 1 568 5 is_stmt 1 view .LVU797
 2816              	.LVL176:
 2817              	.LBB490:
 2818              	.LBI487:
  81:.//BSP/Components/Src/lcd.c **** {
 2819              		.loc 1 81 9 view .LVU798
 2820              	.LBB489:
  83:.//BSP/Components/Src/lcd.c **** }
 2821              		.loc 1 83 3 view .LVU799
  83:.//BSP/Components/Src/lcd.c **** }
 2822              		.loc 1 83 10 is_stmt 0 view .LVU800
 2823 0638 B047     		blx	r6
 2824              	.LVL177:
  83:.//BSP/Components/Src/lcd.c **** }
 2825              		.loc 1 83 10 view .LVU801
 2826              	.LBE489:
 2827              	.LBE490:
 569:.//BSP/Components/Src/lcd.c ****     /* Store default brightness */
ARM GAS  /var/folders/wl/rshn8xbx1dsfj1zgryf4g1240000gn/T//ccpuhGwG.s 			page 70


 570:.//BSP/Components/Src/lcd.c ****     LCDACtx.Brightness = ((uint32_t)short_reg_data[39] / 0xFFU) * 100U;
 2828              		.loc 1 570 5 is_stmt 1 view .LVU802
 2829              	.LBB491:
 2830              	.LBB492:
  83:.//BSP/Components/Src/lcd.c **** }
 2831              		.loc 1 83 10 is_stmt 0 view .LVU803
 2832 063a 2B46     		mov	r3, r5
 2833 063c 2669     		ldr	r6, [r4, #16]
 2834 063e 244A     		ldr	r2, .L59
 2835 0640 5321     		movs	r1, #83
 2836 0642 A069     		ldr	r0, [r4, #24]
 2837              	.LBE492:
 2838              	.LBE491:
 2839              		.loc 1 570 24 view .LVU804
 2840 0644 BD60     		str	r5, [r7, #8]
 571:.//BSP/Components/Src/lcd.c **** 
 572:.//BSP/Components/Src/lcd.c ****     /* defaut is 0, try 0x2C - Brightness Control Block, Display Dimming & BackLight on */
 573:.//BSP/Components/Src/lcd.c ****     ret += LCD_write_reg(&LCD_object.Ctx, OTM8009A_CMD_WRCTRLD, &short_reg_data[40], 0);
 2841              		.loc 1 573 5 is_stmt 1 view .LVU805
 2842              	.LVL178:
 2843              	.LBB494:
 2844              	.LBI491:
  81:.//BSP/Components/Src/lcd.c **** {
 2845              		.loc 1 81 9 view .LVU806
 2846              	.LBB493:
  83:.//BSP/Components/Src/lcd.c **** }
 2847              		.loc 1 83 3 view .LVU807
  83:.//BSP/Components/Src/lcd.c **** }
 2848              		.loc 1 83 10 is_stmt 0 view .LVU808
 2849 0646 B047     		blx	r6
 2850              	.LVL179:
  83:.//BSP/Components/Src/lcd.c **** }
 2851              		.loc 1 83 10 view .LVU809
 2852              	.LBE493:
 2853              	.LBE494:
 574:.//BSP/Components/Src/lcd.c **** 
 575:.//BSP/Components/Src/lcd.c ****     /* defaut is 0, try 0x02 - image Content based Adaptive Brightness [Still Picture] */
 576:.//BSP/Components/Src/lcd.c ****     ret += LCD_write_reg(&LCD_object.Ctx, OTM8009A_CMD_WRCABC, &short_reg_data[41], 0);
 2854              		.loc 1 576 5 is_stmt 1 view .LVU810
 2855              	.LBB495:
 2856              	.LBI495:
  81:.//BSP/Components/Src/lcd.c **** {
 2857              		.loc 1 81 9 view .LVU811
 2858              	.LBB496:
  83:.//BSP/Components/Src/lcd.c **** }
 2859              		.loc 1 83 3 view .LVU812
  83:.//BSP/Components/Src/lcd.c **** }
 2860              		.loc 1 83 10 is_stmt 0 view .LVU813
 2861 0648 2B46     		mov	r3, r5
 2862 064a 2769     		ldr	r7, [r4, #16]
 2863 064c 214A     		ldr	r2, .L59+4
 2864 064e 5521     		movs	r1, #85
 2865 0650 A069     		ldr	r0, [r4, #24]
 2866 0652 B847     		blx	r7
 2867              	.LVL180:
  83:.//BSP/Components/Src/lcd.c **** }
 2868              		.loc 1 83 10 view .LVU814
ARM GAS  /var/folders/wl/rshn8xbx1dsfj1zgryf4g1240000gn/T//ccpuhGwG.s 			page 71


 2869              	.LBE496:
 2870              	.LBE495:
 577:.//BSP/Components/Src/lcd.c **** 
 578:.//BSP/Components/Src/lcd.c ****     /* defaut is 0 (lowest Brightness], 0xFF is highest Brightness */
 579:.//BSP/Components/Src/lcd.c ****     ret += LCD_write_reg(&LCD_object.Ctx, OTM8009A_CMD_WRCABCMB, &short_reg_data[42], 0);
 2871              		.loc 1 579 5 is_stmt 1 view .LVU815
 2872              	.LBB497:
 2873              	.LBI497:
  81:.//BSP/Components/Src/lcd.c **** {
 2874              		.loc 1 81 9 view .LVU816
 2875              	.LBB498:
  83:.//BSP/Components/Src/lcd.c **** }
 2876              		.loc 1 83 3 view .LVU817
  83:.//BSP/Components/Src/lcd.c **** }
 2877              		.loc 1 83 10 is_stmt 0 view .LVU818
 2878 0654 2B46     		mov	r3, r5
 2879 0656 2769     		ldr	r7, [r4, #16]
 2880 0658 5E21     		movs	r1, #94
 2881 065a 1F4A     		ldr	r2, .L59+8
 2882 065c A069     		ldr	r0, [r4, #24]
 2883 065e B847     		blx	r7
 2884              	.LVL181:
  83:.//BSP/Components/Src/lcd.c **** }
 2885              		.loc 1 83 10 view .LVU819
 2886              	.LBE498:
 2887              	.LBE497:
 580:.//BSP/Components/Src/lcd.c **** 
 581:.//BSP/Components/Src/lcd.c ****     /** CABC : Content Adaptive Backlight Control section end << */
 582:.//BSP/Components/Src/lcd.c **** 
 583:.//BSP/Components/Src/lcd.c ****     /* Send Command Display On */
 584:.//BSP/Components/Src/lcd.c ****     ret += LCD_write_reg(&LCD_object.Ctx, OTM8009A_CMD_DISPON, &short_reg_data[43], 0);
 2888              		.loc 1 584 5 is_stmt 1 view .LVU820
 2889              	.LBB499:
 2890              	.LBI499:
  81:.//BSP/Components/Src/lcd.c **** {
 2891              		.loc 1 81 9 view .LVU821
 2892              	.LBB500:
  83:.//BSP/Components/Src/lcd.c **** }
 2893              		.loc 1 83 3 view .LVU822
  83:.//BSP/Components/Src/lcd.c **** }
 2894              		.loc 1 83 10 is_stmt 0 view .LVU823
 2895 0660 2B46     		mov	r3, r5
 2896 0662 2769     		ldr	r7, [r4, #16]
 2897 0664 2921     		movs	r1, #41
 2898 0666 1D4A     		ldr	r2, .L59+12
 2899 0668 A069     		ldr	r0, [r4, #24]
 2900 066a B847     		blx	r7
 2901              	.LVL182:
  83:.//BSP/Components/Src/lcd.c **** }
 2902              		.loc 1 83 10 view .LVU824
 2903              	.LBE500:
 2904              	.LBE499:
 585:.//BSP/Components/Src/lcd.c **** 
 586:.//BSP/Components/Src/lcd.c ****     /* NOP command */
 587:.//BSP/Components/Src/lcd.c ****     ret += LCD_write_reg(&LCD_object.Ctx, OTM8009A_CMD_NOP, &short_reg_data[1], 0);
 2905              		.loc 1 587 5 is_stmt 1 view .LVU825
 2906              	.LBB501:
ARM GAS  /var/folders/wl/rshn8xbx1dsfj1zgryf4g1240000gn/T//ccpuhGwG.s 			page 72


 2907              	.LBI501:
  81:.//BSP/Components/Src/lcd.c **** {
 2908              		.loc 1 81 9 view .LVU826
 2909              	.LBB502:
  83:.//BSP/Components/Src/lcd.c **** }
 2910              		.loc 1 83 3 view .LVU827
  83:.//BSP/Components/Src/lcd.c **** }
 2911              		.loc 1 83 10 is_stmt 0 view .LVU828
 2912 066c 2B46     		mov	r3, r5
 2913 066e 2946     		mov	r1, r5
 2914 0670 2769     		ldr	r7, [r4, #16]
 2915 0672 1B4A     		ldr	r2, .L59+16
 2916 0674 A069     		ldr	r0, [r4, #24]
 2917 0676 B847     		blx	r7
 2918              	.LVL183:
  83:.//BSP/Components/Src/lcd.c **** }
 2919              		.loc 1 83 10 view .LVU829
 2920              	.LBE502:
 2921              	.LBE501:
 588:.//BSP/Components/Src/lcd.c **** 
 589:.//BSP/Components/Src/lcd.c ****     /* Send Command GRAM memory write (no parameters) : this initiates frame write via other DSI co
 590:.//BSP/Components/Src/lcd.c ****     /* DSI host from LTDC incoming pixels in video mode */
 591:.//BSP/Components/Src/lcd.c ****     ret += LCD_write_reg(&LCD_object.Ctx, OTM8009A_CMD_RAMWR, &short_reg_data[44], 0);
 2922              		.loc 1 591 5 is_stmt 1 view .LVU830
 2923              	.LBB503:
 2924              	.LBI503:
  81:.//BSP/Components/Src/lcd.c **** {
 2925              		.loc 1 81 9 view .LVU831
 2926              	.LBB504:
  83:.//BSP/Components/Src/lcd.c **** }
 2927              		.loc 1 83 3 view .LVU832
  83:.//BSP/Components/Src/lcd.c **** }
 2928              		.loc 1 83 10 is_stmt 0 view .LVU833
 2929 0678 2B46     		mov	r3, r5
 2930 067a 1A4A     		ldr	r2, .L59+20
 2931 067c 2C21     		movs	r1, #44
 2932 067e 2769     		ldr	r7, [r4, #16]
 2933 0680 A069     		ldr	r0, [r4, #24]
 2934 0682 B847     		blx	r7
 2935              	.LVL184:
  83:.//BSP/Components/Src/lcd.c **** }
 2936              		.loc 1 83 10 view .LVU834
 2937              	.LBE504:
 2938              	.LBE503:
 592:.//BSP/Components/Src/lcd.c **** 
 593:.//BSP/Components/Src/lcd.c ****     LPCmd.LPGenShortWriteNoP    = DSI_LP_GSW0P_DISABLE;
 2939              		.loc 1 593 5 is_stmt 1 view .LVU835
 2940              		.loc 1 593 33 is_stmt 0 view .LVU836
 2941 0684 1848     		ldr	r0, .L59+24
 594:.//BSP/Components/Src/lcd.c ****     LPCmd.LPGenShortWriteOneP   = DSI_LP_GSW1P_DISABLE;
 595:.//BSP/Components/Src/lcd.c ****     LPCmd.LPGenShortWriteTwoP   = DSI_LP_GSW2P_DISABLE;
 596:.//BSP/Components/Src/lcd.c ****     LPCmd.LPGenShortReadNoP     = DSI_LP_GSR0P_DISABLE;
 597:.//BSP/Components/Src/lcd.c ****     LPCmd.LPGenShortReadOneP    = DSI_LP_GSR1P_DISABLE;
 598:.//BSP/Components/Src/lcd.c ****     LPCmd.LPGenShortReadTwoP    = DSI_LP_GSR2P_DISABLE;
 599:.//BSP/Components/Src/lcd.c ****     LPCmd.LPGenLongWrite        = DSI_LP_GLW_DISABLE;
 600:.//BSP/Components/Src/lcd.c ****     LPCmd.LPDcsShortWriteNoP    = DSI_LP_DSW0P_DISABLE;
 601:.//BSP/Components/Src/lcd.c ****     LPCmd.LPDcsShortWriteOneP   = DSI_LP_DSW1P_DISABLE;
ARM GAS  /var/folders/wl/rshn8xbx1dsfj1zgryf4g1240000gn/T//ccpuhGwG.s 			page 73


 602:.//BSP/Components/Src/lcd.c ****     LPCmd.LPDcsShortReadNoP     = DSI_LP_DSR0P_DISABLE;
 603:.//BSP/Components/Src/lcd.c ****     LPCmd.LPDcsLongWrite        = DSI_LP_DLW_DISABLE;
 604:.//BSP/Components/Src/lcd.c **** 
 605:.//BSP/Components/Src/lcd.c ****     DSI_Config_Channel(&LPCmd);
 606:.//BSP/Components/Src/lcd.c ****     uint8_t short_cmd[2]={OTM8009A_CMD_DISPOFF,0};
 607:.//BSP/Components/Src/lcd.c ****     DSI_IO_WriteCmd(1,short_cmd);
 608:.//BSP/Components/Src/lcd.c ****     LCD_LayerInit(0, LAYER0_ADDRESS,LCD_Driver.GetXSize,LCD_Driver.GetYSize);
 2942              		.loc 1 608 67 view .LVU837
 2943 0686 194C     		ldr	r4, .L59+28
 603:.//BSP/Components/Src/lcd.c **** 
 2944              		.loc 1 603 33 view .LVU838
 2945 0688 8562     		str	r5, [r0, #40]
 594:.//BSP/Components/Src/lcd.c ****     LPCmd.LPGenShortWriteOneP   = DSI_LP_GSW1P_DISABLE;
 2946              		.loc 1 594 33 view .LVU839
 2947 068a C0E90055 		strd	r5, r5, [r0]
 595:.//BSP/Components/Src/lcd.c ****     LPCmd.LPGenShortReadNoP     = DSI_LP_GSR0P_DISABLE;
 2948              		.loc 1 595 5 is_stmt 1 view .LVU840
 596:.//BSP/Components/Src/lcd.c ****     LPCmd.LPGenShortReadOneP    = DSI_LP_GSR1P_DISABLE;
 2949              		.loc 1 596 33 is_stmt 0 view .LVU841
 2950 068e C0E90255 		strd	r5, r5, [r0, #8]
 597:.//BSP/Components/Src/lcd.c ****     LPCmd.LPGenShortReadTwoP    = DSI_LP_GSR2P_DISABLE;
 2951              		.loc 1 597 5 is_stmt 1 view .LVU842
 598:.//BSP/Components/Src/lcd.c ****     LPCmd.LPGenLongWrite        = DSI_LP_GLW_DISABLE;
 2952              		.loc 1 598 33 is_stmt 0 view .LVU843
 2953 0692 C0E90455 		strd	r5, r5, [r0, #16]
 599:.//BSP/Components/Src/lcd.c ****     LPCmd.LPDcsShortWriteNoP    = DSI_LP_DSW0P_DISABLE;
 2954              		.loc 1 599 5 is_stmt 1 view .LVU844
 600:.//BSP/Components/Src/lcd.c ****     LPCmd.LPDcsShortWriteOneP   = DSI_LP_DSW1P_DISABLE;
 2955              		.loc 1 600 33 is_stmt 0 view .LVU845
 2956 0696 C0E90655 		strd	r5, r5, [r0, #24]
 601:.//BSP/Components/Src/lcd.c ****     LPCmd.LPDcsShortReadNoP     = DSI_LP_DSR0P_DISABLE;
 2957              		.loc 1 601 5 is_stmt 1 view .LVU846
 602:.//BSP/Components/Src/lcd.c ****     LPCmd.LPDcsLongWrite        = DSI_LP_DLW_DISABLE;
 2958              		.loc 1 602 33 is_stmt 0 view .LVU847
 2959 069a C0E90855 		strd	r5, r5, [r0, #32]
 603:.//BSP/Components/Src/lcd.c **** 
 2960              		.loc 1 603 5 is_stmt 1 view .LVU848
 605:.//BSP/Components/Src/lcd.c ****     uint8_t short_cmd[2]={OTM8009A_CMD_DISPOFF,0};
 2961              		.loc 1 605 5 view .LVU849
 2962 069e FFF7FEFF 		bl	DSI_Config_Channel
 2963              	.LVL185:
 606:.//BSP/Components/Src/lcd.c ****     DSI_IO_WriteCmd(1,short_cmd);
 2964              		.loc 1 606 5 view .LVU850
 606:.//BSP/Components/Src/lcd.c ****     DSI_IO_WriteCmd(1,short_cmd);
 2965              		.loc 1 606 13 is_stmt 0 view .LVU851
 2966 06a2 2823     		movs	r3, #40
 607:.//BSP/Components/Src/lcd.c ****     LCD_LayerInit(0, LAYER0_ADDRESS,LCD_Driver.GetXSize,LCD_Driver.GetYSize);
 2967              		.loc 1 607 5 view .LVU852
 2968 06a4 4046     		mov	r0, r8
 2969 06a6 01A9     		add	r1, sp, #4
 606:.//BSP/Components/Src/lcd.c ****     DSI_IO_WriteCmd(1,short_cmd);
 2970              		.loc 1 606 13 view .LVU853
 2971 06a8 ADF80430 		strh	r3, [sp, #4]	@ movhi
 607:.//BSP/Components/Src/lcd.c ****     LCD_LayerInit(0, LAYER0_ADDRESS,LCD_Driver.GetXSize,LCD_Driver.GetYSize);
 2972              		.loc 1 607 5 is_stmt 1 view .LVU854
 2973 06ac FFF7FEFF 		bl	DSI_IO_WriteCmd
 2974              	.LVL186:
ARM GAS  /var/folders/wl/rshn8xbx1dsfj1zgryf4g1240000gn/T//ccpuhGwG.s 			page 74


 2975              		.loc 1 608 5 view .LVU855
 2976 06b0 2846     		mov	r0, r5
 2977 06b2 4FF05041 		mov	r1, #-805306368
 2978 06b6 D4E91123 		ldrd	r2, r3, [r4, #68]
 2979 06ba FFF7FEFF 		bl	LCD_LayerInit
 2980              	.LVL187:
 609:.//BSP/Components/Src/lcd.c ****     LTDC_Set_Pitch(LCD_Driver.GetXSize,0);
 2981              		.loc 1 609 5 view .LVU856
 2982 06be 2946     		mov	r1, r5
 2983 06c0 606C     		ldr	r0, [r4, #68]
 2984 06c2 FFF7FEFF 		bl	LTDC_Set_Pitch
 2985              	.LVL188:
 610:.//BSP/Components/Src/lcd.c ****     LTDC_Enable();
 2986              		.loc 1 610 5 view .LVU857
 2987 06c6 FFF7FEFF 		bl	LTDC_Enable
 2988              	.LVL189:
 611:.//BSP/Components/Src/lcd.c **** }
 2989              		.loc 1 611 1 is_stmt 0 view .LVU858
 2990 06ca 02B0     		add	sp, sp, #8
 2991              	.LCFI21:
 2992              		.cfi_def_cfa_offset 24
 2993              		@ sp needed
 2994 06cc BDE8F081 		pop	{r4, r5, r6, r7, r8, pc}
 2995              	.L60:
 2996              		.align	2
 2997              	.L59:
 2998 06d0 28000000 		.word	.LANCHOR4+40
 2999 06d4 29000000 		.word	.LANCHOR4+41
 3000 06d8 2A000000 		.word	.LANCHOR4+42
 3001 06dc 2B000000 		.word	.LANCHOR4+43
 3002 06e0 01000000 		.word	.LANCHOR4+1
 3003 06e4 2C000000 		.word	.LANCHOR4+44
 3004 06e8 00000000 		.word	.LANCHOR30
 3005 06ec 00000000 		.word	.LANCHOR31
 3006              		.cfi_endproc
 3007              	.LFE161:
 3009              		.section	.text.LCD_read_reg,"ax",%progbits
 3010              		.align	1
 3011              		.p2align 2,,3
 3012              		.global	LCD_read_reg
 3013              		.syntax unified
 3014              		.thumb
 3015              		.thumb_func
 3016              		.fpu fpv5-d16
 3018              	LCD_read_reg:
 3019              	.LVL190:
 3020              	.LFB150:
  77:.//BSP/Components/Src/lcd.c ****   return ctx->ReadReg(ctx->handle, reg, pdata, length);
 3021              		.loc 1 77 1 is_stmt 1 view -0
 3022              		.cfi_startproc
 3023              		@ args = 0, pretend = 0, frame = 0
 3024              		@ frame_needed = 0, uses_anonymous_args = 0
 3025              		@ link register save eliminated.
  78:.//BSP/Components/Src/lcd.c **** }
 3026              		.loc 1 78 3 view .LVU860
  77:.//BSP/Components/Src/lcd.c ****   return ctx->ReadReg(ctx->handle, reg, pdata, length);
 3027              		.loc 1 77 1 is_stmt 0 view .LVU861
ARM GAS  /var/folders/wl/rshn8xbx1dsfj1zgryf4g1240000gn/T//ccpuhGwG.s 			page 75


 3028 0000 10B4     		push	{r4}
 3029              	.LCFI22:
 3030              		.cfi_def_cfa_offset 4
 3031              		.cfi_offset 4, -4
  78:.//BSP/Components/Src/lcd.c **** }
 3032              		.loc 1 78 10 view .LVU862
 3033 0002 D0E90140 		ldrd	r4, r0, [r0, #4]
 3034              	.LVL191:
  78:.//BSP/Components/Src/lcd.c **** }
 3035              		.loc 1 78 10 view .LVU863
 3036 0006 A446     		mov	ip, r4
  79:.//BSP/Components/Src/lcd.c **** 
 3037              		.loc 1 79 1 view .LVU864
 3038 0008 5DF8044B 		ldr	r4, [sp], #4
 3039              	.LCFI23:
 3040              		.cfi_restore 4
 3041              		.cfi_def_cfa_offset 0
  78:.//BSP/Components/Src/lcd.c **** }
 3042              		.loc 1 78 10 view .LVU865
 3043 000c 6047     		bx	ip
 3044              	.LVL192:
  78:.//BSP/Components/Src/lcd.c **** }
 3045              		.loc 1 78 10 view .LVU866
 3046              		.cfi_endproc
 3047              	.LFE150:
 3049 000e 00BF     		.section	.text.LCD_write_reg,"ax",%progbits
 3050              		.align	1
 3051              		.p2align 2,,3
 3052              		.global	LCD_write_reg
 3053              		.syntax unified
 3054              		.thumb
 3055              		.thumb_func
 3056              		.fpu fpv5-d16
 3058              	LCD_write_reg:
 3059              	.LVL193:
 3060              	.LFB151:
  82:.//BSP/Components/Src/lcd.c ****   return ctx->WriteReg(ctx->handle, reg, (uint8_t *)pdata, length);
 3061              		.loc 1 82 1 is_stmt 1 view -0
 3062              		.cfi_startproc
 3063              		@ args = 0, pretend = 0, frame = 0
 3064              		@ frame_needed = 0, uses_anonymous_args = 0
 3065              		@ link register save eliminated.
  83:.//BSP/Components/Src/lcd.c **** }
 3066              		.loc 1 83 3 view .LVU868
  82:.//BSP/Components/Src/lcd.c ****   return ctx->WriteReg(ctx->handle, reg, (uint8_t *)pdata, length);
 3067              		.loc 1 82 1 is_stmt 0 view .LVU869
 3068 0000 10B4     		push	{r4}
 3069              	.LCFI24:
 3070              		.cfi_def_cfa_offset 4
 3071              		.cfi_offset 4, -4
  83:.//BSP/Components/Src/lcd.c **** }
 3072              		.loc 1 83 10 view .LVU870
 3073 0002 0468     		ldr	r4, [r0]
 3074 0004 8068     		ldr	r0, [r0, #8]
 3075              	.LVL194:
  83:.//BSP/Components/Src/lcd.c **** }
 3076              		.loc 1 83 10 view .LVU871
ARM GAS  /var/folders/wl/rshn8xbx1dsfj1zgryf4g1240000gn/T//ccpuhGwG.s 			page 76


 3077 0006 A446     		mov	ip, r4
  84:.//BSP/Components/Src/lcd.c **** /*
 3078              		.loc 1 84 1 view .LVU872
 3079 0008 5DF8044B 		ldr	r4, [sp], #4
 3080              	.LCFI25:
 3081              		.cfi_restore 4
 3082              		.cfi_def_cfa_offset 0
  83:.//BSP/Components/Src/lcd.c **** }
 3083              		.loc 1 83 10 view .LVU873
 3084 000c 6047     		bx	ip
 3085              	.LVL195:
  83:.//BSP/Components/Src/lcd.c **** }
 3086              		.loc 1 83 10 view .LVU874
 3087              		.cfi_endproc
 3088              	.LFE151:
 3090              		.global	LCD_Driver
 3091 000e 00BF     		.section	.bss.LCDACtx,"aw",%nobits
 3092              		.align	2
 3093              		.set	.LANCHOR0,. + 0
 3096              	LCDACtx:
 3097 0000 00000000 		.space	12
 3097      00000000 
 3097      00000000 
 3098              		.section	.bss.LCD_object,"aw",%nobits
 3099              		.align	2
 3100              		.set	.LANCHOR3,. + 0
 3103              	LCD_object:
 3104 0000 00000000 		.space	32
 3104      00000000 
 3104      00000000 
 3104      00000000 
 3104      00000000 
 3105              		.section	.bss.LPCmd.13380,"aw",%nobits
 3106              		.align	2
 3107              		.set	.LANCHOR30,. + 0
 3110              	LPCmd.13380:
 3111 0000 00000000 		.space	52
 3111      00000000 
 3111      00000000 
 3111      00000000 
 3111      00000000 
 3112              		.section	.data.LCD_Driver,"aw"
 3113              		.align	2
 3114              		.set	.LANCHOR31,. + 0
 3117              	LCD_Driver:
 3118 0000 00000000 		.word	LCD_Init
 3119 0004 00000000 		.word	LCD_ReadID
 3120 0008 00000000 		.word	LCD_DisplayOn
 3121 000c 00000000 		.word	LCD_DisplayOff
 3122 0010 00000000 		.word	LCD_SetBrightness
 3123 0014 00000000 		.word	LCD_GetBrightness
 3124 0018 00000000 		.word	LCD_SetOrientation
 3125 001c 00000000 		.word	LCD_GetOrientation
 3126 0020 00000000 		.word	LCD_GetXSize
 3127 0024 00000000 		.word	LCD_GetYSize
 3128 0028 00000000 		.space	36
 3128      00000000 
ARM GAS  /var/folders/wl/rshn8xbx1dsfj1zgryf4g1240000gn/T//ccpuhGwG.s 			page 77


 3128      00000000 
 3128      00000000 
 3128      00000000 
 3129              		.section	.rodata.LcdRegData27,"a"
 3130              		.align	2
 3131              		.set	.LANCHOR1,. + 0
 3134              	LcdRegData27:
 3135 0000 0000031F 		.ascii	"\000\000\003\037"
 3136              		.section	.rodata.LcdRegData28,"a"
 3137              		.align	2
 3138              		.set	.LANCHOR2,. + 0
 3141              	LcdRegData28:
 3142 0000 000001DF 		.ascii	"\000\000\001\337"
 3143              		.section	.rodata.lcd_reg_data1.13381,"a"
 3144              		.align	2
 3145              		.set	.LANCHOR5,. + 0
 3148              	lcd_reg_data1.13381:
 3149 0000 800901   		.ascii	"\200\011\001"
 3150              		.section	.rodata.lcd_reg_data10.13390,"a"
 3151              		.align	2
 3152              		.set	.LANCHOR12,. + 0
 3155              	lcd_reg_data10.13390:
 3156 0000 01012020 		.ascii	"\001\001  \000\000\001\002\000\000"
 3156      00000102 
 3156      0000
 3157              		.section	.rodata.lcd_reg_data11.13391,"a"
 3158              		.align	2
 3159              		.set	.LANCHOR13,. + 0
 3162              	lcd_reg_data11.13391:
 3163 0000 00000000 		.space	10
 3163      00000000 
 3163      0000
 3164              		.section	.rodata.lcd_reg_data12.13392,"a"
 3165              		.align	2
 3166              		.set	.LANCHOR14,. + 0
 3169              	lcd_reg_data12.13392:
 3170 0000 00000000 		.space	15
 3170      00000000 
 3170      00000000 
 3170      000000
 3171              		.section	.rodata.lcd_reg_data13.13393,"a"
 3172              		.align	2
 3173              		.set	.LANCHOR15,. + 0
 3176              	lcd_reg_data13.13393:
 3177 0000 00000000 		.space	15
 3177      00000000 
 3177      00000000 
 3177      000000
 3178              		.section	.rodata.lcd_reg_data14.13394,"a"
 3179              		.align	2
 3180              		.set	.LANCHOR16,. + 0
 3183              	lcd_reg_data14.13394:
 3184 0000 00000000 		.space	10
 3184      00000000 
 3184      0000
 3185              		.section	.rodata.lcd_reg_data15.13395,"a"
 3186              		.align	2
ARM GAS  /var/folders/wl/rshn8xbx1dsfj1zgryf4g1240000gn/T//ccpuhGwG.s 			page 78


 3187              		.set	.LANCHOR17,. + 0
 3190              	lcd_reg_data15.13395:
 3191 0000 00040404 		.ascii	"\000\004\004\004\004\004\000\000\000\000\000\000\000"
 3191      04040000 
 3191      00000000 
 3191      00
 3192 000d 0000     		.ascii	"\000\000"
 3193              		.section	.rodata.lcd_reg_data16.13396,"a"
 3194              		.align	2
 3195              		.set	.LANCHOR18,. + 0
 3198              	lcd_reg_data16.13396:
 3199 0000 00000000 		.ascii	"\000\000\000\000\000\000\004\004\004\004\004\000\000"
 3199      00000404 
 3199      04040400 
 3199      00
 3200 000d 0000     		.ascii	"\000\000"
 3201              		.section	.rodata.lcd_reg_data17.13397,"a"
 3202              		.align	2
 3203              		.set	.LANCHOR19,. + 0
 3206              	lcd_reg_data17.13397:
 3207 0000 00000000 		.space	10
 3207      00000000 
 3207      0000
 3208              		.section	.rodata.lcd_reg_data18.13398,"a"
 3209              		.align	2
 3210              		.set	.LANCHOR20,. + 0
 3213              	lcd_reg_data18.13398:
 3214 0000 FFFFFFFF 		.ascii	"\377\377\377\377\377\377\377\377\377\377"
 3214      FFFFFFFF 
 3214      FFFF
 3215              		.section	.rodata.lcd_reg_data19.13399,"a"
 3216              		.align	2
 3217              		.set	.LANCHOR21,. + 0
 3220              	lcd_reg_data19.13399:
 3221 0000 0026090B 		.ascii	"\000&\011\013\001%\000\000\000\000"
 3221      01250000 
 3221      0000
 3222              		.section	.rodata.lcd_reg_data2.13382,"a"
 3223              		.align	2
 3224              		.set	.LANCHOR6,. + 0
 3227              	lcd_reg_data2.13382:
 3228 0000 8009     		.ascii	"\200\011"
 3229              		.section	.rodata.lcd_reg_data20.13400,"a"
 3230              		.align	2
 3231              		.set	.LANCHOR22,. + 0
 3234              	lcd_reg_data20.13400:
 3235 0000 00000000 		.ascii	"\000\000\000\000\000\000\000\000\000\000\000&\012\014"
 3235      00000000 
 3235      00000026 
 3235      0A0C
 3236 000e 02       		.ascii	"\002"
 3237              		.section	.rodata.lcd_reg_data21.13401,"a"
 3238              		.align	2
 3239              		.set	.LANCHOR23,. + 0
 3242              	lcd_reg_data21.13401:
 3243 0000 25000000 		.ascii	"%\000\000\000\000\000\000\000\000\000\000\000\000\000"
 3243      00000000 
ARM GAS  /var/folders/wl/rshn8xbx1dsfj1zgryf4g1240000gn/T//ccpuhGwG.s 			page 79


 3243      00000000 
 3243      0000
 3244 000e 00       		.ascii	"\000"
 3245              		.section	.rodata.lcd_reg_data22.13402,"a"
 3246              		.align	2
 3247              		.set	.LANCHOR24,. + 0
 3250              	lcd_reg_data22.13402:
 3251 0000 00250C0A 		.ascii	"\000%\014\012\002&\000\000\000\000"
 3251      02260000 
 3251      0000
 3252              		.section	.rodata.lcd_reg_data23.13403,"a"
 3253              		.align	2
 3254              		.set	.LANCHOR25,. + 0
 3257              	lcd_reg_data23.13403:
 3258 0000 00000000 		.ascii	"\000\000\000\000\000\000\000\000\000\000\000%\013\011"
 3258      00000000 
 3258      00000025 
 3258      0B09
 3259 000e 01       		.ascii	"\001"
 3260              		.section	.rodata.lcd_reg_data24.13404,"a"
 3261              		.align	2
 3262              		.set	.LANCHOR26,. + 0
 3265              	lcd_reg_data24.13404:
 3266 0000 26000000 		.ascii	"&\000\000\000\000\000\000\000\000\000\000\000\000\000"
 3266      00000000 
 3266      00000000 
 3266      0000
 3267 000e 00       		.ascii	"\000"
 3268              		.section	.rodata.lcd_reg_data25.13405,"a"
 3269              		.align	2
 3270              		.set	.LANCHOR27,. + 0
 3273              	lcd_reg_data25.13405:
 3274 0000 FFFFFF   		.ascii	"\377\377\377"
 3275              		.section	.rodata.lcd_reg_data3.13383,"a"
 3276              		.align	2
 3277              		.set	.LANCHOR28,. + 0
 3280              	lcd_reg_data3.13383:
 3281 0000 00090F0E 		.ascii	"\000\011\017\016\007\020\013\012\004\007\013\010\017"
 3281      07100B0A 
 3281      04070B08 
 3281      0F
 3282 000d 100A01   		.ascii	"\020\012\001"
 3283              		.section	.rodata.lcd_reg_data4.13384,"a"
 3284              		.align	2
 3285              		.set	.LANCHOR29,. + 0
 3288              	lcd_reg_data4.13384:
 3289 0000 00090F0E 		.ascii	"\000\011\017\016\007\020\013\012\004\007\013\010\017"
 3289      07100B0A 
 3289      04070B08 
 3289      0F
 3290 000d 100A01   		.ascii	"\020\012\001"
 3291              		.section	.rodata.lcd_reg_data5.13385,"a"
 3292              		.align	2
 3293              		.set	.LANCHOR7,. + 0
 3296              	lcd_reg_data5.13385:
 3297 0000 7979     		.ascii	"yy"
 3298              		.section	.rodata.lcd_reg_data6.13386,"a"
ARM GAS  /var/folders/wl/rshn8xbx1dsfj1zgryf4g1240000gn/T//ccpuhGwG.s 			page 80


 3299              		.align	2
 3300              		.set	.LANCHOR8,. + 0
 3303              	lcd_reg_data6.13386:
 3304 0000 0001     		.ascii	"\000\001"
 3305              		.section	.rodata.lcd_reg_data7.13387,"a"
 3306              		.align	2
 3307              		.set	.LANCHOR9,. + 0
 3310              	lcd_reg_data7.13387:
 3311 0000 85010084 		.ascii	"\205\001\000\204\001\000"
 3311      0100
 3312              		.section	.rodata.lcd_reg_data8.13388,"a"
 3313              		.align	2
 3314              		.set	.LANCHOR10,. + 0
 3317              	lcd_reg_data8.13388:
 3318 0000 18040339 		.ascii	"\030\004\0039\000\000\000\030\003\003:\000\000\000"
 3318      00000018 
 3318      03033A00 
 3318      0000
 3319              		.section	.rodata.lcd_reg_data9.13389,"a"
 3320              		.align	2
 3321              		.set	.LANCHOR11,. + 0
 3324              	lcd_reg_data9.13389:
 3325 0000 1802033B 		.ascii	"\030\002\003;\000\000\000\030\001\003<\000\000\000"
 3325      00000018 
 3325      01033C00 
 3325      0000
 3326              		.section	.rodata.short_reg_data.13406,"a"
 3327              		.align	2
 3328              		.set	.LANCHOR4,. + 0
 3331              	short_reg_data.13406:
 3332 0000 00008030 		.ascii	"\000\000\2000\212@\261\251\2214\264PN\201f\241\010\222"
 3332      8A40B1A9 
 3332      9134B450 
 3332      4E8166A1 
 3332      0892
 3333 0012 01959433 		.ascii	"\001\225\2243\243\033\202\203\203\016\246\240\260\300"
 3333      A31B8283 
 3333      830EA6A0 
 3333      B0C0
 3334 0020 D090E0F0 		.ascii	"\320\220\340\360\000Uw\177,\002\377\000\000\000f\266"
 3334      0055777F 
 3334      2C02FF00 
 3334      000066B6 
 3335 0030 06B106   		.ascii	"\006\261\006"
 3336              		.text
 3337              	.Letext0:
 3338              		.file 2 "/opt/homebrew/Cellar/arm-none-eabi-gcc/9-2019-q4-major/gcc/arm-none-eabi/include/machine/
 3339              		.file 3 "/opt/homebrew/Cellar/arm-none-eabi-gcc/9-2019-q4-major/gcc/arm-none-eabi/include/sys/_std
 3340              		.file 4 ".//Libraries/CMSIS/Core/Include/core_cm7.h"
 3341              		.file 5 ".//Libraries/CMSIS/Device/ST/STM32H7xx/Include/system_stm32h7xx.h"
 3342              		.file 6 "/opt/homebrew/Cellar/arm-none-eabi-gcc/9-2019-q4-major/gcc/arm-none-eabi/include/sys/lock
 3343              		.file 7 "/opt/homebrew/Cellar/arm-none-eabi-gcc/9-2019-q4-major/gcc/arm-none-eabi/include/sys/_typ
 3344              		.file 8 "/opt/homebrew/Cellar/arm-none-eabi-gcc/9-2019-q4-major/gcc/lib/gcc/arm-none-eabi/9.2.1/in
 3345              		.file 9 "/opt/homebrew/Cellar/arm-none-eabi-gcc/9-2019-q4-major/gcc/arm-none-eabi/include/sys/reen
 3346              		.file 10 "/opt/homebrew/Cellar/arm-none-eabi-gcc/9-2019-q4-major/gcc/arm-none-eabi/include/math.h"
 3347              		.file 11 ".//Libraries/STM32H7xx_HAL_Driver/Inc/stm32h7xx_hal_def.h"
 3348              		.file 12 ".//Libraries/STM32H7xx_HAL_Driver/Inc/stm32h7xx_hal_dsi.h"
ARM GAS  /var/folders/wl/rshn8xbx1dsfj1zgryf4g1240000gn/T//ccpuhGwG.s 			page 81


 3349              		.file 13 ".//Libraries/STM32H7xx_HAL_Driver/Inc/stm32h7xx_hal_flash.h"
 3350              		.file 14 ".//Libraries/STM32H7xx_HAL_Driver/Inc/stm32h7xx_hal_uart.h"
 3351              		.file 15 ".//Libraries/STM32H7xx_HAL_Driver/Inc/stm32h7xx_hal.h"
 3352              		.file 16 "/opt/homebrew/Cellar/arm-none-eabi-gcc/9-2019-q4-major/gcc/arm-none-eabi/include/stdlib.
 3353              		.file 17 ".//BSP/Components/Src/../../Components/Inc/lcd.h"
 3354              		.file 18 ".//BSP/Components/Src/../../Hardware/Inc/ltdc_dsi.h"
ARM GAS  /var/folders/wl/rshn8xbx1dsfj1zgryf4g1240000gn/T//ccpuhGwG.s 			page 82


DEFINED SYMBOLS
                            *ABS*:0000000000000000 lcd.c
/var/folders/wl/rshn8xbx1dsfj1zgryf4g1240000gn/T//ccpuhGwG.s:17     .text.LCD_ReadRegWrap:0000000000000000 $t
/var/folders/wl/rshn8xbx1dsfj1zgryf4g1240000gn/T//ccpuhGwG.s:25     .text.LCD_ReadRegWrap:0000000000000000 LCD_ReadRegWrap
/var/folders/wl/rshn8xbx1dsfj1zgryf4g1240000gn/T//ccpuhGwG.s:60     .text.LCD_WriteRegWrap:0000000000000000 $t
/var/folders/wl/rshn8xbx1dsfj1zgryf4g1240000gn/T//ccpuhGwG.s:67     .text.LCD_WriteRegWrap:0000000000000000 LCD_WriteRegWrap
/var/folders/wl/rshn8xbx1dsfj1zgryf4g1240000gn/T//ccpuhGwG.s:101    .text.LCD_ReadID:0000000000000000 $t
/var/folders/wl/rshn8xbx1dsfj1zgryf4g1240000gn/T//ccpuhGwG.s:109    .text.LCD_ReadID:0000000000000000 LCD_ReadID
/var/folders/wl/rshn8xbx1dsfj1zgryf4g1240000gn/T//ccpuhGwG.s:165    .text.LCD_SetBrightness:0000000000000000 $t
/var/folders/wl/rshn8xbx1dsfj1zgryf4g1240000gn/T//ccpuhGwG.s:173    .text.LCD_SetBrightness:0000000000000000 LCD_SetBrightness
/var/folders/wl/rshn8xbx1dsfj1zgryf4g1240000gn/T//ccpuhGwG.s:271    .text.LCD_SetBrightness:0000000000000034 $d
/var/folders/wl/rshn8xbx1dsfj1zgryf4g1240000gn/T//ccpuhGwG.s:277    .text.LCD_GetBrightness:0000000000000000 $t
/var/folders/wl/rshn8xbx1dsfj1zgryf4g1240000gn/T//ccpuhGwG.s:285    .text.LCD_GetBrightness:0000000000000000 LCD_GetBrightness
/var/folders/wl/rshn8xbx1dsfj1zgryf4g1240000gn/T//ccpuhGwG.s:308    .text.LCD_GetBrightness:000000000000000c $d
/var/folders/wl/rshn8xbx1dsfj1zgryf4g1240000gn/T//ccpuhGwG.s:313    .text.LCD_DisplayOn:0000000000000000 $t
/var/folders/wl/rshn8xbx1dsfj1zgryf4g1240000gn/T//ccpuhGwG.s:321    .text.LCD_DisplayOn:0000000000000000 LCD_DisplayOn
/var/folders/wl/rshn8xbx1dsfj1zgryf4g1240000gn/T//ccpuhGwG.s:386    .text.LCD_DisplayOff:0000000000000000 $t
/var/folders/wl/rshn8xbx1dsfj1zgryf4g1240000gn/T//ccpuhGwG.s:394    .text.LCD_DisplayOff:0000000000000000 LCD_DisplayOff
/var/folders/wl/rshn8xbx1dsfj1zgryf4g1240000gn/T//ccpuhGwG.s:459    .text.LCD_SetOrientation:0000000000000000 $t
/var/folders/wl/rshn8xbx1dsfj1zgryf4g1240000gn/T//ccpuhGwG.s:467    .text.LCD_SetOrientation:0000000000000000 LCD_SetOrientation
/var/folders/wl/rshn8xbx1dsfj1zgryf4g1240000gn/T//ccpuhGwG.s:721    .text.LCD_SetOrientation:000000000000009c $d
/var/folders/wl/rshn8xbx1dsfj1zgryf4g1240000gn/T//ccpuhGwG.s:728    .text.LCD_GetOrientation:0000000000000000 $t
/var/folders/wl/rshn8xbx1dsfj1zgryf4g1240000gn/T//ccpuhGwG.s:736    .text.LCD_GetOrientation:0000000000000000 LCD_GetOrientation
/var/folders/wl/rshn8xbx1dsfj1zgryf4g1240000gn/T//ccpuhGwG.s:760    .text.LCD_GetOrientation:000000000000000c $d
/var/folders/wl/rshn8xbx1dsfj1zgryf4g1240000gn/T//ccpuhGwG.s:765    .text.LCD_GetXSize:0000000000000000 $t
/var/folders/wl/rshn8xbx1dsfj1zgryf4g1240000gn/T//ccpuhGwG.s:773    .text.LCD_GetXSize:0000000000000000 LCD_GetXSize
/var/folders/wl/rshn8xbx1dsfj1zgryf4g1240000gn/T//ccpuhGwG.s:817    .text.LCD_GetXSize:000000000000001c $d
/var/folders/wl/rshn8xbx1dsfj1zgryf4g1240000gn/T//ccpuhGwG.s:822    .text.LCD_GetYSize:0000000000000000 $t
/var/folders/wl/rshn8xbx1dsfj1zgryf4g1240000gn/T//ccpuhGwG.s:830    .text.LCD_GetYSize:0000000000000000 LCD_GetYSize
/var/folders/wl/rshn8xbx1dsfj1zgryf4g1240000gn/T//ccpuhGwG.s:874    .text.LCD_GetYSize:000000000000001c $d
/var/folders/wl/rshn8xbx1dsfj1zgryf4g1240000gn/T//ccpuhGwG.s:879    .text.LCD_Init:0000000000000000 $t
/var/folders/wl/rshn8xbx1dsfj1zgryf4g1240000gn/T//ccpuhGwG.s:887    .text.LCD_Init:0000000000000000 LCD_Init
/var/folders/wl/rshn8xbx1dsfj1zgryf4g1240000gn/T//ccpuhGwG.s:1831   .text.LCD_Init:0000000000000274 $d
/var/folders/wl/rshn8xbx1dsfj1zgryf4g1240000gn/T//ccpuhGwG.s:1888   .text.LCD_Init:0000000000000328 $t
/var/folders/wl/rshn8xbx1dsfj1zgryf4g1240000gn/T//ccpuhGwG.s:2771   .text.LCD_Init:0000000000000598 $d
/var/folders/wl/rshn8xbx1dsfj1zgryf4g1240000gn/T//ccpuhGwG.s:2814   .text.LCD_Init:0000000000000634 $t
/var/folders/wl/rshn8xbx1dsfj1zgryf4g1240000gn/T//ccpuhGwG.s:2998   .text.LCD_Init:00000000000006d0 $d
/var/folders/wl/rshn8xbx1dsfj1zgryf4g1240000gn/T//ccpuhGwG.s:3010   .text.LCD_read_reg:0000000000000000 $t
/var/folders/wl/rshn8xbx1dsfj1zgryf4g1240000gn/T//ccpuhGwG.s:3018   .text.LCD_read_reg:0000000000000000 LCD_read_reg
/var/folders/wl/rshn8xbx1dsfj1zgryf4g1240000gn/T//ccpuhGwG.s:3050   .text.LCD_write_reg:0000000000000000 $t
/var/folders/wl/rshn8xbx1dsfj1zgryf4g1240000gn/T//ccpuhGwG.s:3058   .text.LCD_write_reg:0000000000000000 LCD_write_reg
/var/folders/wl/rshn8xbx1dsfj1zgryf4g1240000gn/T//ccpuhGwG.s:3117   .data.LCD_Driver:0000000000000000 LCD_Driver
/var/folders/wl/rshn8xbx1dsfj1zgryf4g1240000gn/T//ccpuhGwG.s:3092   .bss.LCDACtx:0000000000000000 $d
/var/folders/wl/rshn8xbx1dsfj1zgryf4g1240000gn/T//ccpuhGwG.s:3096   .bss.LCDACtx:0000000000000000 LCDACtx
/var/folders/wl/rshn8xbx1dsfj1zgryf4g1240000gn/T//ccpuhGwG.s:3099   .bss.LCD_object:0000000000000000 $d
/var/folders/wl/rshn8xbx1dsfj1zgryf4g1240000gn/T//ccpuhGwG.s:3103   .bss.LCD_object:0000000000000000 LCD_object
/var/folders/wl/rshn8xbx1dsfj1zgryf4g1240000gn/T//ccpuhGwG.s:3106   .bss.LPCmd.13380:0000000000000000 $d
/var/folders/wl/rshn8xbx1dsfj1zgryf4g1240000gn/T//ccpuhGwG.s:3110   .bss.LPCmd.13380:0000000000000000 LPCmd.13380
/var/folders/wl/rshn8xbx1dsfj1zgryf4g1240000gn/T//ccpuhGwG.s:3113   .data.LCD_Driver:0000000000000000 $d
/var/folders/wl/rshn8xbx1dsfj1zgryf4g1240000gn/T//ccpuhGwG.s:3130   .rodata.LcdRegData27:0000000000000000 $d
/var/folders/wl/rshn8xbx1dsfj1zgryf4g1240000gn/T//ccpuhGwG.s:3134   .rodata.LcdRegData27:0000000000000000 LcdRegData27
/var/folders/wl/rshn8xbx1dsfj1zgryf4g1240000gn/T//ccpuhGwG.s:3137   .rodata.LcdRegData28:0000000000000000 $d
/var/folders/wl/rshn8xbx1dsfj1zgryf4g1240000gn/T//ccpuhGwG.s:3141   .rodata.LcdRegData28:0000000000000000 LcdRegData28
/var/folders/wl/rshn8xbx1dsfj1zgryf4g1240000gn/T//ccpuhGwG.s:3144   .rodata.lcd_reg_data1.13381:0000000000000000 $d
/var/folders/wl/rshn8xbx1dsfj1zgryf4g1240000gn/T//ccpuhGwG.s:3148   .rodata.lcd_reg_data1.13381:0000000000000000 lcd_reg_data1.13381
/var/folders/wl/rshn8xbx1dsfj1zgryf4g1240000gn/T//ccpuhGwG.s:3151   .rodata.lcd_reg_data10.13390:0000000000000000 $d
/var/folders/wl/rshn8xbx1dsfj1zgryf4g1240000gn/T//ccpuhGwG.s:3155   .rodata.lcd_reg_data10.13390:0000000000000000 lcd_reg_data10.13390
ARM GAS  /var/folders/wl/rshn8xbx1dsfj1zgryf4g1240000gn/T//ccpuhGwG.s 			page 83


/var/folders/wl/rshn8xbx1dsfj1zgryf4g1240000gn/T//ccpuhGwG.s:3158   .rodata.lcd_reg_data11.13391:0000000000000000 $d
/var/folders/wl/rshn8xbx1dsfj1zgryf4g1240000gn/T//ccpuhGwG.s:3162   .rodata.lcd_reg_data11.13391:0000000000000000 lcd_reg_data11.13391
/var/folders/wl/rshn8xbx1dsfj1zgryf4g1240000gn/T//ccpuhGwG.s:3165   .rodata.lcd_reg_data12.13392:0000000000000000 $d
/var/folders/wl/rshn8xbx1dsfj1zgryf4g1240000gn/T//ccpuhGwG.s:3169   .rodata.lcd_reg_data12.13392:0000000000000000 lcd_reg_data12.13392
/var/folders/wl/rshn8xbx1dsfj1zgryf4g1240000gn/T//ccpuhGwG.s:3172   .rodata.lcd_reg_data13.13393:0000000000000000 $d
/var/folders/wl/rshn8xbx1dsfj1zgryf4g1240000gn/T//ccpuhGwG.s:3176   .rodata.lcd_reg_data13.13393:0000000000000000 lcd_reg_data13.13393
/var/folders/wl/rshn8xbx1dsfj1zgryf4g1240000gn/T//ccpuhGwG.s:3179   .rodata.lcd_reg_data14.13394:0000000000000000 $d
/var/folders/wl/rshn8xbx1dsfj1zgryf4g1240000gn/T//ccpuhGwG.s:3183   .rodata.lcd_reg_data14.13394:0000000000000000 lcd_reg_data14.13394
/var/folders/wl/rshn8xbx1dsfj1zgryf4g1240000gn/T//ccpuhGwG.s:3186   .rodata.lcd_reg_data15.13395:0000000000000000 $d
/var/folders/wl/rshn8xbx1dsfj1zgryf4g1240000gn/T//ccpuhGwG.s:3190   .rodata.lcd_reg_data15.13395:0000000000000000 lcd_reg_data15.13395
/var/folders/wl/rshn8xbx1dsfj1zgryf4g1240000gn/T//ccpuhGwG.s:3194   .rodata.lcd_reg_data16.13396:0000000000000000 $d
/var/folders/wl/rshn8xbx1dsfj1zgryf4g1240000gn/T//ccpuhGwG.s:3198   .rodata.lcd_reg_data16.13396:0000000000000000 lcd_reg_data16.13396
/var/folders/wl/rshn8xbx1dsfj1zgryf4g1240000gn/T//ccpuhGwG.s:3202   .rodata.lcd_reg_data17.13397:0000000000000000 $d
/var/folders/wl/rshn8xbx1dsfj1zgryf4g1240000gn/T//ccpuhGwG.s:3206   .rodata.lcd_reg_data17.13397:0000000000000000 lcd_reg_data17.13397
/var/folders/wl/rshn8xbx1dsfj1zgryf4g1240000gn/T//ccpuhGwG.s:3209   .rodata.lcd_reg_data18.13398:0000000000000000 $d
/var/folders/wl/rshn8xbx1dsfj1zgryf4g1240000gn/T//ccpuhGwG.s:3213   .rodata.lcd_reg_data18.13398:0000000000000000 lcd_reg_data18.13398
/var/folders/wl/rshn8xbx1dsfj1zgryf4g1240000gn/T//ccpuhGwG.s:3216   .rodata.lcd_reg_data19.13399:0000000000000000 $d
/var/folders/wl/rshn8xbx1dsfj1zgryf4g1240000gn/T//ccpuhGwG.s:3220   .rodata.lcd_reg_data19.13399:0000000000000000 lcd_reg_data19.13399
/var/folders/wl/rshn8xbx1dsfj1zgryf4g1240000gn/T//ccpuhGwG.s:3223   .rodata.lcd_reg_data2.13382:0000000000000000 $d
/var/folders/wl/rshn8xbx1dsfj1zgryf4g1240000gn/T//ccpuhGwG.s:3227   .rodata.lcd_reg_data2.13382:0000000000000000 lcd_reg_data2.13382
/var/folders/wl/rshn8xbx1dsfj1zgryf4g1240000gn/T//ccpuhGwG.s:3230   .rodata.lcd_reg_data20.13400:0000000000000000 $d
/var/folders/wl/rshn8xbx1dsfj1zgryf4g1240000gn/T//ccpuhGwG.s:3234   .rodata.lcd_reg_data20.13400:0000000000000000 lcd_reg_data20.13400
/var/folders/wl/rshn8xbx1dsfj1zgryf4g1240000gn/T//ccpuhGwG.s:3238   .rodata.lcd_reg_data21.13401:0000000000000000 $d
/var/folders/wl/rshn8xbx1dsfj1zgryf4g1240000gn/T//ccpuhGwG.s:3242   .rodata.lcd_reg_data21.13401:0000000000000000 lcd_reg_data21.13401
/var/folders/wl/rshn8xbx1dsfj1zgryf4g1240000gn/T//ccpuhGwG.s:3246   .rodata.lcd_reg_data22.13402:0000000000000000 $d
/var/folders/wl/rshn8xbx1dsfj1zgryf4g1240000gn/T//ccpuhGwG.s:3250   .rodata.lcd_reg_data22.13402:0000000000000000 lcd_reg_data22.13402
/var/folders/wl/rshn8xbx1dsfj1zgryf4g1240000gn/T//ccpuhGwG.s:3253   .rodata.lcd_reg_data23.13403:0000000000000000 $d
/var/folders/wl/rshn8xbx1dsfj1zgryf4g1240000gn/T//ccpuhGwG.s:3257   .rodata.lcd_reg_data23.13403:0000000000000000 lcd_reg_data23.13403
/var/folders/wl/rshn8xbx1dsfj1zgryf4g1240000gn/T//ccpuhGwG.s:3261   .rodata.lcd_reg_data24.13404:0000000000000000 $d
/var/folders/wl/rshn8xbx1dsfj1zgryf4g1240000gn/T//ccpuhGwG.s:3265   .rodata.lcd_reg_data24.13404:0000000000000000 lcd_reg_data24.13404
/var/folders/wl/rshn8xbx1dsfj1zgryf4g1240000gn/T//ccpuhGwG.s:3269   .rodata.lcd_reg_data25.13405:0000000000000000 $d
/var/folders/wl/rshn8xbx1dsfj1zgryf4g1240000gn/T//ccpuhGwG.s:3273   .rodata.lcd_reg_data25.13405:0000000000000000 lcd_reg_data25.13405
/var/folders/wl/rshn8xbx1dsfj1zgryf4g1240000gn/T//ccpuhGwG.s:3276   .rodata.lcd_reg_data3.13383:0000000000000000 $d
/var/folders/wl/rshn8xbx1dsfj1zgryf4g1240000gn/T//ccpuhGwG.s:3280   .rodata.lcd_reg_data3.13383:0000000000000000 lcd_reg_data3.13383
/var/folders/wl/rshn8xbx1dsfj1zgryf4g1240000gn/T//ccpuhGwG.s:3284   .rodata.lcd_reg_data4.13384:0000000000000000 $d
/var/folders/wl/rshn8xbx1dsfj1zgryf4g1240000gn/T//ccpuhGwG.s:3288   .rodata.lcd_reg_data4.13384:0000000000000000 lcd_reg_data4.13384
/var/folders/wl/rshn8xbx1dsfj1zgryf4g1240000gn/T//ccpuhGwG.s:3292   .rodata.lcd_reg_data5.13385:0000000000000000 $d
/var/folders/wl/rshn8xbx1dsfj1zgryf4g1240000gn/T//ccpuhGwG.s:3296   .rodata.lcd_reg_data5.13385:0000000000000000 lcd_reg_data5.13385
/var/folders/wl/rshn8xbx1dsfj1zgryf4g1240000gn/T//ccpuhGwG.s:3299   .rodata.lcd_reg_data6.13386:0000000000000000 $d
/var/folders/wl/rshn8xbx1dsfj1zgryf4g1240000gn/T//ccpuhGwG.s:3303   .rodata.lcd_reg_data6.13386:0000000000000000 lcd_reg_data6.13386
/var/folders/wl/rshn8xbx1dsfj1zgryf4g1240000gn/T//ccpuhGwG.s:3306   .rodata.lcd_reg_data7.13387:0000000000000000 $d
/var/folders/wl/rshn8xbx1dsfj1zgryf4g1240000gn/T//ccpuhGwG.s:3310   .rodata.lcd_reg_data7.13387:0000000000000000 lcd_reg_data7.13387
/var/folders/wl/rshn8xbx1dsfj1zgryf4g1240000gn/T//ccpuhGwG.s:3313   .rodata.lcd_reg_data8.13388:0000000000000000 $d
/var/folders/wl/rshn8xbx1dsfj1zgryf4g1240000gn/T//ccpuhGwG.s:3317   .rodata.lcd_reg_data8.13388:0000000000000000 lcd_reg_data8.13388
/var/folders/wl/rshn8xbx1dsfj1zgryf4g1240000gn/T//ccpuhGwG.s:3320   .rodata.lcd_reg_data9.13389:0000000000000000 $d
/var/folders/wl/rshn8xbx1dsfj1zgryf4g1240000gn/T//ccpuhGwG.s:3324   .rodata.lcd_reg_data9.13389:0000000000000000 lcd_reg_data9.13389
/var/folders/wl/rshn8xbx1dsfj1zgryf4g1240000gn/T//ccpuhGwG.s:3327   .rodata.short_reg_data.13406:0000000000000000 $d
/var/folders/wl/rshn8xbx1dsfj1zgryf4g1240000gn/T//ccpuhGwG.s:3331   .rodata.short_reg_data.13406:0000000000000000 short_reg_data.13406

UNDEFINED SYMBOLS
LTDC_DSI_Init
DSI_IO_Read
HAL_GetTick
DSI_IO_Write
DSI_Config_Channel
DSI_IO_WriteCmd
LCD_LayerInit
ARM GAS  /var/folders/wl/rshn8xbx1dsfj1zgryf4g1240000gn/T//ccpuhGwG.s 			page 84


LTDC_Set_Pitch
LTDC_Enable
