ARM GAS  /tmp/ccK9zPb4.s 			page 1


   1              		.cpu cortex-m7
   2              		.eabi_attribute 28, 1
   3              		.eabi_attribute 20, 1
   4              		.eabi_attribute 21, 1
   5              		.eabi_attribute 23, 3
   6              		.eabi_attribute 24, 1
   7              		.eabi_attribute 25, 1
   8              		.eabi_attribute 26, 1
   9              		.eabi_attribute 30, 6
  10              		.eabi_attribute 34, 1
  11              		.eabi_attribute 18, 4
  12              		.file	"lcd.c"
  13              		.text
  14              	.Ltext0:
  15              		.cfi_sections	.debug_frame
  16              		.section	.text.lcd_init,"ax",%progbits
  17              		.align	1
  18              		.global	lcd_init
  19              		.arch armv7e-m
  20              		.syntax unified
  21              		.thumb
  22              		.thumb_func
  23              		.fpu fpv5-d16
  25              	lcd_init:
  26              	.LFB338:
  27              		.file 1 "./BSP/Components/Src/lcd.c"
   1:./BSP/Components/Src/lcd.c **** #include "../../system.h"
   2:./BSP/Components/Src/lcd.c **** 
   3:./BSP/Components/Src/lcd.c **** //Todo:加入與LCD相關的驅動程式
   4:./BSP/Components/Src/lcd.c **** void LCD_write_reg(lcd_objectTypeDef *object,uint16_t reg, uint8_t *data, uint16_t length);
   5:./BSP/Components/Src/lcd.c **** void LCD_read_reg(lcd_objectTypeDef *object,uint16_t reg, uint8_t *data, uint16_t length);
   6:./BSP/Components/Src/lcd.c **** 
   7:./BSP/Components/Src/lcd.c **** void lcd_init(lcd_objectTypeDef *object,uint32_t colorCoding,uint32_t orientation)
   8:./BSP/Components/Src/lcd.c **** {
  28              		.loc 1 8 1
  29              		.cfi_startproc
  30              		@ args = 0, pretend = 0, frame = 72
  31              		@ frame_needed = 1, uses_anonymous_args = 0
  32 0000 90B5     		push	{r4, r7, lr}
  33              	.LCFI0:
  34              		.cfi_def_cfa_offset 12
  35              		.cfi_offset 4, -12
  36              		.cfi_offset 7, -8
  37              		.cfi_offset 14, -4
  38 0002 95B0     		sub	sp, sp, #84
  39              	.LCFI1:
  40              		.cfi_def_cfa_offset 96
  41 0004 02AF     		add	r7, sp, #8
  42              	.LCFI2:
  43              		.cfi_def_cfa 7, 88
  44 0006 F860     		str	r0, [r7, #12]
  45 0008 B960     		str	r1, [r7, #8]
  46 000a 7A60     		str	r2, [r7, #4]
   9:./BSP/Components/Src/lcd.c ****   LTDC_DSI_object_Init(&object->dsi_object);
  47              		.loc 1 9 3
  48 000c FB68     		ldr	r3, [r7, #12]
  49 000e 1846     		mov	r0, r3
ARM GAS  /tmp/ccK9zPb4.s 			page 2


  50 0010 FFF7FEFF 		bl	LTDC_DSI_object_Init
  10:./BSP/Components/Src/lcd.c ****   object->lcd_write_reg=LCD_write_reg;
  51              		.loc 1 10 24
  52 0014 FB68     		ldr	r3, [r7, #12]
  53 0016 AB4A     		ldr	r2, .L8
  54 0018 C3F84421 		str	r2, [r3, #324]
  11:./BSP/Components/Src/lcd.c ****   object->lcd_read_reg=LCD_read_reg;
  55              		.loc 1 11 23
  56 001c FB68     		ldr	r3, [r7, #12]
  57 001e AA4A     		ldr	r2, .L8+4
  58 0020 C3F84821 		str	r2, [r3, #328]
  12:./BSP/Components/Src/lcd.c **** 
  13:./BSP/Components/Src/lcd.c ****   static const uint8_t lcd_reg_data1[]  = {0x80,0x09,0x01};
  14:./BSP/Components/Src/lcd.c ****   static const uint8_t lcd_reg_data2[]  = {0x80,0x09};
  15:./BSP/Components/Src/lcd.c ****   static const uint8_t lcd_reg_data3[]  = {0x00,0x09,0x0F,0x0E,0x07,0x10,0x0B,0x0A,0x04,0x07,0x0B,0
  16:./BSP/Components/Src/lcd.c ****   static const uint8_t lcd_reg_data4[]  = {0x00,0x09,0x0F,0x0E,0x07,0x10,0x0B,0x0A,0x04,0x07,0x0B,0
  17:./BSP/Components/Src/lcd.c ****   static const uint8_t lcd_reg_data5[]  = {0x79,0x79};
  18:./BSP/Components/Src/lcd.c ****   static const uint8_t lcd_reg_data6[]  = {0x00,0x01};
  19:./BSP/Components/Src/lcd.c ****   static const uint8_t lcd_reg_data7[]  = {0x85,0x01,0x00,0x84,0x01,0x00};
  20:./BSP/Components/Src/lcd.c ****   static const uint8_t lcd_reg_data8[]  = {0x18,0x04,0x03,0x39,0x00,0x00,0x00,0x18,0x03,0x03,0x3A,0
  21:./BSP/Components/Src/lcd.c ****   static const uint8_t lcd_reg_data9[]  = {0x18,0x02,0x03,0x3B,0x00,0x00,0x00,0x18,0x01,0x03,0x3C,0
  22:./BSP/Components/Src/lcd.c ****   static const uint8_t lcd_reg_data10[] = {0x01,0x01,0x20,0x20,0x00,0x00,0x01,0x02,0x00,0x00};
  23:./BSP/Components/Src/lcd.c ****   static const uint8_t lcd_reg_data11[] = {0x00,0x00,0x00,0x00,0x00,0x00,0x00,0x00,0x00,0x00};
  24:./BSP/Components/Src/lcd.c ****   static const uint8_t lcd_reg_data12[] = {0x00,0x00,0x00,0x00,0x00,0x00,0x00,0x00,0x00,0x00,0x00,0
  25:./BSP/Components/Src/lcd.c ****   static const uint8_t lcd_reg_data13[] = {0x00,0x00,0x00,0x00,0x00,0x00,0x00,0x00,0x00,0x00,0x00,0
  26:./BSP/Components/Src/lcd.c ****   static const uint8_t lcd_reg_data14[] = {0x00,0x00,0x00,0x00,0x00,0x00,0x00,0x00,0x00,0x00};
  27:./BSP/Components/Src/lcd.c ****   static const uint8_t lcd_reg_data15[] = {0x00,0x04,0x04,0x04,0x04,0x04,0x00,0x00,0x00,0x00,0x00,0
  28:./BSP/Components/Src/lcd.c ****   static const uint8_t lcd_reg_data16[] = {0x00,0x00,0x00,0x00,0x00,0x00,0x04,0x04,0x04,0x04,0x04,0
  29:./BSP/Components/Src/lcd.c ****   static const uint8_t lcd_reg_data17[] = {0x00,0x00,0x00,0x00,0x00,0x00,0x00,0x00,0x00,0x00};
  30:./BSP/Components/Src/lcd.c ****   static const uint8_t lcd_reg_data18[] = {0xFF,0xFF,0xFF,0xFF,0xFF,0xFF,0xFF,0xFF,0xFF,0xFF};
  31:./BSP/Components/Src/lcd.c ****   static const uint8_t lcd_reg_data19[] = {0x00,0x26,0x09,0x0B,0x01,0x25,0x00,0x00,0x00,0x00};
  32:./BSP/Components/Src/lcd.c ****   static const uint8_t lcd_reg_data20[] = {0x00,0x00,0x00,0x00,0x00,0x00,0x00,0x00,0x00,0x00,0x00,0
  33:./BSP/Components/Src/lcd.c ****   static const uint8_t lcd_reg_data21[] = {0x25,0x00,0x00,0x00,0x00,0x00,0x00,0x00,0x00,0x00,0x00,0
  34:./BSP/Components/Src/lcd.c ****   static const uint8_t lcd_reg_data22[] = {0x00,0x25,0x0C,0x0A,0x02,0x26,0x00,0x00,0x00,0x00};
  35:./BSP/Components/Src/lcd.c ****   static const uint8_t lcd_reg_data23[] = {0x00,0x00,0x00,0x00,0x00,0x00,0x00,0x00,0x00,0x00,0x00,0
  36:./BSP/Components/Src/lcd.c ****   static const uint8_t lcd_reg_data24[] = {0x26,0x00,0x00,0x00,0x00,0x00,0x00,0x00,0x00,0x00,0x00,0
  37:./BSP/Components/Src/lcd.c ****   static const uint8_t lcd_reg_data25[] = {0xFF,0xFF,0xFF};
  38:./BSP/Components/Src/lcd.c ****   static const uint8_t LcdRegData27[] = {0x00, 0x00, 0x03, 0x1F};
  39:./BSP/Components/Src/lcd.c ****   static const uint8_t LcdRegData28[] = {0x00, 0x00, 0x01, 0xDF};
  40:./BSP/Components/Src/lcd.c ****   static const uint8_t short_reg_data[] = {
  41:./BSP/Components/Src/lcd.c ****     0x00,0x00,0x80,0x30,0x8A,0x40,0xB1,0xA9,0x91,0x34,0xB4,0x50,0x4E,0x81,0x66,0xA1,0x08,
  42:./BSP/Components/Src/lcd.c ****     0x92,0x01,0x95,0x94,0x33,0xA3,0x1B,0x82,0x83,0x83,0x0E,0xA6,0xA0,0xB0,0xC0,0xD0,0x90,
  43:./BSP/Components/Src/lcd.c ****     0xE0,0xF0,0x00,OTM8009A_COLMOD_RGB565,OTM8009A_COLMOD_RGB888,0x7F,0x2C,0x02,0xFF,0x00,
  44:./BSP/Components/Src/lcd.c ****     0x00,0x00,0x66,0xB6,0x06,0xB1,0x06
  45:./BSP/Components/Src/lcd.c ****   };
  46:./BSP/Components/Src/lcd.c ****   
  47:./BSP/Components/Src/lcd.c ****   /* Enable CMD2 to access vendor specific commands                               */
  48:./BSP/Components/Src/lcd.c ****   /* Enter in command 2 mode and set EXTC to enable address shift function (0x00) */ 
  49:./BSP/Components/Src/lcd.c ****   object->lcd_write_reg(object,OTM8009A_CMD_NOP,&short_reg_data[1],0);
  59              		.loc 1 49 9
  60 0024 FB68     		ldr	r3, [r7, #12]
  61 0026 D3F84441 		ldr	r4, [r3, #324]
  62              		.loc 1 49 3
  63 002a 0023     		movs	r3, #0
  64 002c A74A     		ldr	r2, .L8+8
  65 002e 0021     		movs	r1, #0
  66 0030 F868     		ldr	r0, [r7, #12]
ARM GAS  /tmp/ccK9zPb4.s 			page 3


  67 0032 A047     		blx	r4
  68              	.LVL0:
  50:./BSP/Components/Src/lcd.c ****   
  51:./BSP/Components/Src/lcd.c ****   object->lcd_write_reg(object,0xFF, lcd_reg_data1, 3);
  69              		.loc 1 51 9
  70 0034 FB68     		ldr	r3, [r7, #12]
  71 0036 D3F84441 		ldr	r4, [r3, #324]
  72              		.loc 1 51 3
  73 003a 0323     		movs	r3, #3
  74 003c A44A     		ldr	r2, .L8+12
  75 003e FF21     		movs	r1, #255
  76 0040 F868     		ldr	r0, [r7, #12]
  77 0042 A047     		blx	r4
  78              	.LVL1:
  52:./BSP/Components/Src/lcd.c ****   /* Enter ORISE Command 2 */
  53:./BSP/Components/Src/lcd.c ****   /* Shift address to 0x80 */
  54:./BSP/Components/Src/lcd.c ****   object->lcd_write_reg(object, OTM8009A_CMD_NOP, &short_reg_data[2], 0);
  79              		.loc 1 54 9
  80 0044 FB68     		ldr	r3, [r7, #12]
  81 0046 D3F84441 		ldr	r4, [r3, #324]
  82              		.loc 1 54 3
  83 004a 0023     		movs	r3, #0
  84 004c A14A     		ldr	r2, .L8+16
  85 004e 0021     		movs	r1, #0
  86 0050 F868     		ldr	r0, [r7, #12]
  87 0052 A047     		blx	r4
  88              	.LVL2:
  55:./BSP/Components/Src/lcd.c ****   
  56:./BSP/Components/Src/lcd.c ****   object->lcd_write_reg(object, 0xFF, lcd_reg_data2, 2);
  89              		.loc 1 56 9
  90 0054 FB68     		ldr	r3, [r7, #12]
  91 0056 D3F84441 		ldr	r4, [r3, #324]
  92              		.loc 1 56 3
  93 005a 0223     		movs	r3, #2
  94 005c 9E4A     		ldr	r2, .L8+20
  95 005e FF21     		movs	r1, #255
  96 0060 F868     		ldr	r0, [r7, #12]
  97 0062 A047     		blx	r4
  98              	.LVL3:
  57:./BSP/Components/Src/lcd.c ****   
  58:./BSP/Components/Src/lcd.c ****   /////////////////////////////////////////////////////////////////////
  59:./BSP/Components/Src/lcd.c ****   /* SD_PCH_CTRL - 0xC480h - 129th parameter - Default 0x00          */
  60:./BSP/Components/Src/lcd.c ****   /* Set SD_PT                                                       */
  61:./BSP/Components/Src/lcd.c ****   /* -> Source output level during porch and non-display area to GND */
  62:./BSP/Components/Src/lcd.c ****   object->lcd_write_reg(object, OTM8009A_CMD_NOP, &short_reg_data[2], 0);
  99              		.loc 1 62 9
 100 0064 FB68     		ldr	r3, [r7, #12]
 101 0066 D3F84441 		ldr	r4, [r3, #324]
 102              		.loc 1 62 3
 103 006a 0023     		movs	r3, #0
 104 006c 994A     		ldr	r2, .L8+16
 105 006e 0021     		movs	r1, #0
 106 0070 F868     		ldr	r0, [r7, #12]
 107 0072 A047     		blx	r4
 108              	.LVL4:
  63:./BSP/Components/Src/lcd.c ****   object->lcd_write_reg(object, 0xC4, &short_reg_data[3], 0);
 109              		.loc 1 63 9
ARM GAS  /tmp/ccK9zPb4.s 			page 4


 110 0074 FB68     		ldr	r3, [r7, #12]
 111 0076 D3F84441 		ldr	r4, [r3, #324]
 112              		.loc 1 63 3
 113 007a 0023     		movs	r3, #0
 114 007c 974A     		ldr	r2, .L8+24
 115 007e C421     		movs	r1, #196
 116 0080 F868     		ldr	r0, [r7, #12]
 117 0082 A047     		blx	r4
 118              	.LVL5:
  64:./BSP/Components/Src/lcd.c ****   
  65:./BSP/Components/Src/lcd.c ****   HAL_Delay(10);
 119              		.loc 1 65 3
 120 0084 0A20     		movs	r0, #10
 121 0086 FFF7FEFF 		bl	HAL_Delay
  66:./BSP/Components/Src/lcd.c ****   /* Not documented */
  67:./BSP/Components/Src/lcd.c ****   object->lcd_write_reg(object, OTM8009A_CMD_NOP, &short_reg_data[4], 0);
 122              		.loc 1 67 9
 123 008a FB68     		ldr	r3, [r7, #12]
 124 008c D3F84441 		ldr	r4, [r3, #324]
 125              		.loc 1 67 3
 126 0090 0023     		movs	r3, #0
 127 0092 934A     		ldr	r2, .L8+28
 128 0094 0021     		movs	r1, #0
 129 0096 F868     		ldr	r0, [r7, #12]
 130 0098 A047     		blx	r4
 131              	.LVL6:
  68:./BSP/Components/Src/lcd.c ****   object->lcd_write_reg(object, 0xC4, &short_reg_data[5], 0);
 132              		.loc 1 68 9
 133 009a FB68     		ldr	r3, [r7, #12]
 134 009c D3F84441 		ldr	r4, [r3, #324]
 135              		.loc 1 68 3
 136 00a0 0023     		movs	r3, #0
 137 00a2 904A     		ldr	r2, .L8+32
 138 00a4 C421     		movs	r1, #196
 139 00a6 F868     		ldr	r0, [r7, #12]
 140 00a8 A047     		blx	r4
 141              	.LVL7:
  69:./BSP/Components/Src/lcd.c ****   HAL_Delay(10);
 142              		.loc 1 69 3
 143 00aa 0A20     		movs	r0, #10
 144 00ac FFF7FEFF 		bl	HAL_Delay
  70:./BSP/Components/Src/lcd.c ****   /////////////////////////////////////////////////////////////////////
  71:./BSP/Components/Src/lcd.c ****   
  72:./BSP/Components/Src/lcd.c ****   /* PWR_CTRL4 - 0xC4B0h - 178th parameter - Default 0xA8 */
  73:./BSP/Components/Src/lcd.c ****   /* Set gvdd_en_test                                     */
  74:./BSP/Components/Src/lcd.c ****   /* -> enable GVDD test mode !!!                         */
  75:./BSP/Components/Src/lcd.c ****   object->lcd_write_reg(object, OTM8009A_CMD_NOP, &short_reg_data[6], 0);
 145              		.loc 1 75 9
 146 00b0 FB68     		ldr	r3, [r7, #12]
 147 00b2 D3F84441 		ldr	r4, [r3, #324]
 148              		.loc 1 75 3
 149 00b6 0023     		movs	r3, #0
 150 00b8 8B4A     		ldr	r2, .L8+36
 151 00ba 0021     		movs	r1, #0
 152 00bc F868     		ldr	r0, [r7, #12]
 153 00be A047     		blx	r4
 154              	.LVL8:
ARM GAS  /tmp/ccK9zPb4.s 			page 5


  76:./BSP/Components/Src/lcd.c ****   object->lcd_write_reg(object, 0xC5, &short_reg_data[7], 0);
 155              		.loc 1 76 9
 156 00c0 FB68     		ldr	r3, [r7, #12]
 157 00c2 D3F84441 		ldr	r4, [r3, #324]
 158              		.loc 1 76 3
 159 00c6 0023     		movs	r3, #0
 160 00c8 884A     		ldr	r2, .L8+40
 161 00ca C521     		movs	r1, #197
 162 00cc F868     		ldr	r0, [r7, #12]
 163 00ce A047     		blx	r4
 164              	.LVL9:
  77:./BSP/Components/Src/lcd.c ****   
  78:./BSP/Components/Src/lcd.c ****   /* PWR_CTRL2 - 0xC590h - 146th parameter - Default 0x79      */
  79:./BSP/Components/Src/lcd.c ****   /* Set pump 4 vgh voltage                                    */
  80:./BSP/Components/Src/lcd.c ****   /* -> from 15.0v down to 13.0v                               */
  81:./BSP/Components/Src/lcd.c ****   /* Set pump 5 vgh voltage                                    */
  82:./BSP/Components/Src/lcd.c ****   /* -> from -12.0v downto -9.0v                               */
  83:./BSP/Components/Src/lcd.c ****   object->lcd_write_reg(object, OTM8009A_CMD_NOP, &short_reg_data[8], 0);
 165              		.loc 1 83 9
 166 00d0 FB68     		ldr	r3, [r7, #12]
 167 00d2 D3F84441 		ldr	r4, [r3, #324]
 168              		.loc 1 83 3
 169 00d6 0023     		movs	r3, #0
 170 00d8 854A     		ldr	r2, .L8+44
 171 00da 0021     		movs	r1, #0
 172 00dc F868     		ldr	r0, [r7, #12]
 173 00de A047     		blx	r4
 174              	.LVL10:
  84:./BSP/Components/Src/lcd.c ****   object->lcd_write_reg(object, 0xC5, &short_reg_data[9], 0);
 175              		.loc 1 84 9
 176 00e0 FB68     		ldr	r3, [r7, #12]
 177 00e2 D3F84441 		ldr	r4, [r3, #324]
 178              		.loc 1 84 3
 179 00e6 0023     		movs	r3, #0
 180 00e8 824A     		ldr	r2, .L8+48
 181 00ea C521     		movs	r1, #197
 182 00ec F868     		ldr	r0, [r7, #12]
 183 00ee A047     		blx	r4
 184              	.LVL11:
  85:./BSP/Components/Src/lcd.c ****   
  86:./BSP/Components/Src/lcd.c ****   /* P_DRV_M - 0xC0B4h - 181th parameter - Default 0x00 */
  87:./BSP/Components/Src/lcd.c ****   /* -> Column inversion                                */
  88:./BSP/Components/Src/lcd.c ****   object->lcd_write_reg(object, OTM8009A_CMD_NOP, &short_reg_data[10], 0);
 185              		.loc 1 88 9
 186 00f0 FB68     		ldr	r3, [r7, #12]
 187 00f2 D3F84441 		ldr	r4, [r3, #324]
 188              		.loc 1 88 3
 189 00f6 0023     		movs	r3, #0
 190 00f8 7F4A     		ldr	r2, .L8+52
 191 00fa 0021     		movs	r1, #0
 192 00fc F868     		ldr	r0, [r7, #12]
 193 00fe A047     		blx	r4
 194              	.LVL12:
  89:./BSP/Components/Src/lcd.c ****   object->lcd_write_reg(object, 0xC0, &short_reg_data[11], 0);
 195              		.loc 1 89 9
 196 0100 FB68     		ldr	r3, [r7, #12]
 197 0102 D3F84441 		ldr	r4, [r3, #324]
ARM GAS  /tmp/ccK9zPb4.s 			page 6


 198              		.loc 1 89 3
 199 0106 0023     		movs	r3, #0
 200 0108 7C4A     		ldr	r2, .L8+56
 201 010a C021     		movs	r1, #192
 202 010c F868     		ldr	r0, [r7, #12]
 203 010e A047     		blx	r4
 204              	.LVL13:
  90:./BSP/Components/Src/lcd.c ****   
  91:./BSP/Components/Src/lcd.c ****   /* VCOMDC - 0xD900h - 1st parameter - Default 0x39h */
  92:./BSP/Components/Src/lcd.c ****   /* VCOM Voltage settings                            */
  93:./BSP/Components/Src/lcd.c ****   /* -> from -1.0000v downto -1.2625v                 */
  94:./BSP/Components/Src/lcd.c ****   object->lcd_write_reg(object, OTM8009A_CMD_NOP, &short_reg_data[1], 0);
 205              		.loc 1 94 9
 206 0110 FB68     		ldr	r3, [r7, #12]
 207 0112 D3F84441 		ldr	r4, [r3, #324]
 208              		.loc 1 94 3
 209 0116 0023     		movs	r3, #0
 210 0118 6C4A     		ldr	r2, .L8+8
 211 011a 0021     		movs	r1, #0
 212 011c F868     		ldr	r0, [r7, #12]
 213 011e A047     		blx	r4
 214              	.LVL14:
  95:./BSP/Components/Src/lcd.c ****   object->lcd_write_reg(object, 0xD9, &short_reg_data[12], 0);
 215              		.loc 1 95 9
 216 0120 FB68     		ldr	r3, [r7, #12]
 217 0122 D3F84441 		ldr	r4, [r3, #324]
 218              		.loc 1 95 3
 219 0126 0023     		movs	r3, #0
 220 0128 754A     		ldr	r2, .L8+60
 221 012a D921     		movs	r1, #217
 222 012c F868     		ldr	r0, [r7, #12]
 223 012e A047     		blx	r4
 224              	.LVL15:
  96:./BSP/Components/Src/lcd.c ****   
  97:./BSP/Components/Src/lcd.c ****   /* Oscillator adjustment for Idle/Normal mode (LPDT only) set to 65Hz (default is 60Hz) */
  98:./BSP/Components/Src/lcd.c ****   object->lcd_write_reg(object, OTM8009A_CMD_NOP, &short_reg_data[13], 0);
 225              		.loc 1 98 9
 226 0130 FB68     		ldr	r3, [r7, #12]
 227 0132 D3F84441 		ldr	r4, [r3, #324]
 228              		.loc 1 98 3
 229 0136 0023     		movs	r3, #0
 230 0138 724A     		ldr	r2, .L8+64
 231 013a 0021     		movs	r1, #0
 232 013c F868     		ldr	r0, [r7, #12]
 233 013e A047     		blx	r4
 234              	.LVL16:
  99:./BSP/Components/Src/lcd.c ****   object->lcd_write_reg(object, 0xC1, &short_reg_data[14], 0);
 235              		.loc 1 99 9
 236 0140 FB68     		ldr	r3, [r7, #12]
 237 0142 D3F84441 		ldr	r4, [r3, #324]
 238              		.loc 1 99 3
 239 0146 0023     		movs	r3, #0
 240 0148 6F4A     		ldr	r2, .L8+68
 241 014a C121     		movs	r1, #193
 242 014c F868     		ldr	r0, [r7, #12]
 243 014e A047     		blx	r4
 244              	.LVL17:
ARM GAS  /tmp/ccK9zPb4.s 			page 7


 100:./BSP/Components/Src/lcd.c ****   
 101:./BSP/Components/Src/lcd.c ****   /* Video mode internal */
 102:./BSP/Components/Src/lcd.c ****   object->lcd_write_reg(object, OTM8009A_CMD_NOP, &short_reg_data[15], 0);
 245              		.loc 1 102 9
 246 0150 FB68     		ldr	r3, [r7, #12]
 247 0152 D3F84441 		ldr	r4, [r3, #324]
 248              		.loc 1 102 3
 249 0156 0023     		movs	r3, #0
 250 0158 6C4A     		ldr	r2, .L8+72
 251 015a 0021     		movs	r1, #0
 252 015c F868     		ldr	r0, [r7, #12]
 253 015e A047     		blx	r4
 254              	.LVL18:
 103:./BSP/Components/Src/lcd.c ****   object->lcd_write_reg(object, 0xC1, &short_reg_data[16], 0);
 255              		.loc 1 103 9
 256 0160 FB68     		ldr	r3, [r7, #12]
 257 0162 D3F84441 		ldr	r4, [r3, #324]
 258              		.loc 1 103 3
 259 0166 0023     		movs	r3, #0
 260 0168 694A     		ldr	r2, .L8+76
 261 016a C121     		movs	r1, #193
 262 016c F868     		ldr	r0, [r7, #12]
 263 016e A047     		blx	r4
 264              	.LVL19:
 104:./BSP/Components/Src/lcd.c ****   
 105:./BSP/Components/Src/lcd.c ****   /* PWR_CTRL2 - 0xC590h - 147h parameter - Default 0x00 */
 106:./BSP/Components/Src/lcd.c ****   /* Set pump 4&5 x6                                     */
 107:./BSP/Components/Src/lcd.c ****   /* -> ONLY VALID when PUMP4_EN_ASDM_HV = "0"           */
 108:./BSP/Components/Src/lcd.c ****   object->lcd_write_reg(object, OTM8009A_CMD_NOP, &short_reg_data[17], 0);
 265              		.loc 1 108 9
 266 0170 FB68     		ldr	r3, [r7, #12]
 267 0172 D3F84441 		ldr	r4, [r3, #324]
 268              		.loc 1 108 3
 269 0176 0023     		movs	r3, #0
 270 0178 664A     		ldr	r2, .L8+80
 271 017a 0021     		movs	r1, #0
 272 017c F868     		ldr	r0, [r7, #12]
 273 017e A047     		blx	r4
 274              	.LVL20:
 109:./BSP/Components/Src/lcd.c ****   object->lcd_write_reg(object, 0xC5, &short_reg_data[18], 0);
 275              		.loc 1 109 9
 276 0180 FB68     		ldr	r3, [r7, #12]
 277 0182 D3F84441 		ldr	r4, [r3, #324]
 278              		.loc 1 109 3
 279 0186 0023     		movs	r3, #0
 280 0188 634A     		ldr	r2, .L8+84
 281 018a C521     		movs	r1, #197
 282 018c F868     		ldr	r0, [r7, #12]
 283 018e A047     		blx	r4
 284              	.LVL21:
 110:./BSP/Components/Src/lcd.c ****   
 111:./BSP/Components/Src/lcd.c ****   /* PWR_CTRL2 - 0xC590h - 150th parameter - Default 0x33h */
 112:./BSP/Components/Src/lcd.c ****   /* Change pump4 clock ratio                              */
 113:./BSP/Components/Src/lcd.c ****   /* -> from 1 line to 1/2 line                            */
 114:./BSP/Components/Src/lcd.c ****   object->lcd_write_reg(object, OTM8009A_CMD_NOP, &short_reg_data[19], 0);
 285              		.loc 1 114 9
 286 0190 FB68     		ldr	r3, [r7, #12]
ARM GAS  /tmp/ccK9zPb4.s 			page 8


 287 0192 D3F84441 		ldr	r4, [r3, #324]
 288              		.loc 1 114 3
 289 0196 0023     		movs	r3, #0
 290 0198 604A     		ldr	r2, .L8+88
 291 019a 0021     		movs	r1, #0
 292 019c F868     		ldr	r0, [r7, #12]
 293 019e A047     		blx	r4
 294              	.LVL22:
 115:./BSP/Components/Src/lcd.c ****   object->lcd_write_reg(object, 0xC5, &short_reg_data[9], 0);
 295              		.loc 1 115 9
 296 01a0 FB68     		ldr	r3, [r7, #12]
 297 01a2 D3F84441 		ldr	r4, [r3, #324]
 298              		.loc 1 115 3
 299 01a6 0023     		movs	r3, #0
 300 01a8 524A     		ldr	r2, .L8+48
 301 01aa C521     		movs	r1, #197
 302 01ac F868     		ldr	r0, [r7, #12]
 303 01ae A047     		blx	r4
 304              	.LVL23:
 116:./BSP/Components/Src/lcd.c ****   
 117:./BSP/Components/Src/lcd.c ****   /* GVDD/NGVDD settings */
 118:./BSP/Components/Src/lcd.c ****   object->lcd_write_reg(object, OTM8009A_CMD_NOP, &short_reg_data[1], 0);
 305              		.loc 1 118 9
 306 01b0 FB68     		ldr	r3, [r7, #12]
 307 01b2 D3F84441 		ldr	r4, [r3, #324]
 308              		.loc 1 118 3
 309 01b6 0023     		movs	r3, #0
 310 01b8 444A     		ldr	r2, .L8+8
 311 01ba 0021     		movs	r1, #0
 312 01bc F868     		ldr	r0, [r7, #12]
 313 01be A047     		blx	r4
 314              	.LVL24:
 119:./BSP/Components/Src/lcd.c ****   object->lcd_write_reg(object, 0xD8, lcd_reg_data5, 2);
 315              		.loc 1 119 9
 316 01c0 FB68     		ldr	r3, [r7, #12]
 317 01c2 D3F84441 		ldr	r4, [r3, #324]
 318              		.loc 1 119 3
 319 01c6 0223     		movs	r3, #2
 320 01c8 554A     		ldr	r2, .L8+92
 321 01ca D821     		movs	r1, #216
 322 01cc F868     		ldr	r0, [r7, #12]
 323 01ce A047     		blx	r4
 324              	.LVL25:
 120:./BSP/Components/Src/lcd.c ****   
 121:./BSP/Components/Src/lcd.c ****   /* PWR_CTRL2 - 0xC590h - 149th parameter - Default 0x33h */
 122:./BSP/Components/Src/lcd.c ****   /* Rewrite the default value !                           */
 123:./BSP/Components/Src/lcd.c ****   object->lcd_write_reg(object, OTM8009A_CMD_NOP, &short_reg_data[20], 0);
 325              		.loc 1 123 9
 326 01d0 FB68     		ldr	r3, [r7, #12]
 327 01d2 D3F84441 		ldr	r4, [r3, #324]
 328              		.loc 1 123 3
 329 01d6 0023     		movs	r3, #0
 330 01d8 524A     		ldr	r2, .L8+96
 331 01da 0021     		movs	r1, #0
 332 01dc F868     		ldr	r0, [r7, #12]
 333 01de A047     		blx	r4
 334              	.LVL26:
ARM GAS  /tmp/ccK9zPb4.s 			page 9


 124:./BSP/Components/Src/lcd.c ****   object->lcd_write_reg(object, 0xC5, &short_reg_data[21], 0);
 335              		.loc 1 124 9
 336 01e0 FB68     		ldr	r3, [r7, #12]
 337 01e2 D3F84441 		ldr	r4, [r3, #324]
 338              		.loc 1 124 3
 339 01e6 0023     		movs	r3, #0
 340 01e8 4F4A     		ldr	r2, .L8+100
 341 01ea C521     		movs	r1, #197
 342 01ec F868     		ldr	r0, [r7, #12]
 343 01ee A047     		blx	r4
 344              	.LVL27:
 125:./BSP/Components/Src/lcd.c ****   
 126:./BSP/Components/Src/lcd.c ****   /* Panel display timing Setting 3 */
 127:./BSP/Components/Src/lcd.c ****   object->lcd_write_reg(object, OTM8009A_CMD_NOP, &short_reg_data[22], 0);
 345              		.loc 1 127 9
 346 01f0 FB68     		ldr	r3, [r7, #12]
 347 01f2 D3F84441 		ldr	r4, [r3, #324]
 348              		.loc 1 127 3
 349 01f6 0023     		movs	r3, #0
 350 01f8 4C4A     		ldr	r2, .L8+104
 351 01fa 0021     		movs	r1, #0
 352 01fc F868     		ldr	r0, [r7, #12]
 353 01fe A047     		blx	r4
 354              	.LVL28:
 128:./BSP/Components/Src/lcd.c ****   object->lcd_write_reg(object, 0xC0, &short_reg_data[23], 0);
 355              		.loc 1 128 9
 356 0200 FB68     		ldr	r3, [r7, #12]
 357 0202 D3F84441 		ldr	r4, [r3, #324]
 358              		.loc 1 128 3
 359 0206 0023     		movs	r3, #0
 360 0208 494A     		ldr	r2, .L8+108
 361 020a C021     		movs	r1, #192
 362 020c F868     		ldr	r0, [r7, #12]
 363 020e A047     		blx	r4
 364              	.LVL29:
 129:./BSP/Components/Src/lcd.c ****   
 130:./BSP/Components/Src/lcd.c ****   /* Power control 1 */
 131:./BSP/Components/Src/lcd.c ****   object->lcd_write_reg(object, OTM8009A_CMD_NOP, &short_reg_data[24], 0);
 365              		.loc 1 131 9
 366 0210 FB68     		ldr	r3, [r7, #12]
 367 0212 D3F84441 		ldr	r4, [r3, #324]
 368              		.loc 1 131 3
 369 0216 0023     		movs	r3, #0
 370 0218 464A     		ldr	r2, .L8+112
 371 021a 0021     		movs	r1, #0
 372 021c F868     		ldr	r0, [r7, #12]
 373 021e A047     		blx	r4
 374              	.LVL30:
 132:./BSP/Components/Src/lcd.c ****   object->lcd_write_reg(object, 0xC5, &short_reg_data[25], 0);
 375              		.loc 1 132 9
 376 0220 FB68     		ldr	r3, [r7, #12]
 377 0222 D3F84441 		ldr	r4, [r3, #324]
 378              		.loc 1 132 3
 379 0226 0023     		movs	r3, #0
 380 0228 434A     		ldr	r2, .L8+116
 381 022a C521     		movs	r1, #197
 382 022c F868     		ldr	r0, [r7, #12]
ARM GAS  /tmp/ccK9zPb4.s 			page 10


 383 022e A047     		blx	r4
 384              	.LVL31:
 133:./BSP/Components/Src/lcd.c ****   
 134:./BSP/Components/Src/lcd.c ****   /* Source driver precharge */
 135:./BSP/Components/Src/lcd.c ****   object->lcd_write_reg(object, OTM8009A_CMD_NOP, &short_reg_data[13], 0);
 385              		.loc 1 135 9
 386 0230 FB68     		ldr	r3, [r7, #12]
 387 0232 D3F84441 		ldr	r4, [r3, #324]
 388              		.loc 1 135 3
 389 0236 0023     		movs	r3, #0
 390 0238 324A     		ldr	r2, .L8+64
 391 023a 0021     		movs	r1, #0
 392 023c F868     		ldr	r0, [r7, #12]
 393 023e A047     		blx	r4
 394              	.LVL32:
 136:./BSP/Components/Src/lcd.c ****   object->lcd_write_reg(object, 0xC4, &short_reg_data[26], 0);
 395              		.loc 1 136 9
 396 0240 FB68     		ldr	r3, [r7, #12]
 397 0242 D3F84441 		ldr	r4, [r3, #324]
 398              		.loc 1 136 3
 399 0246 0023     		movs	r3, #0
 400 0248 3C4A     		ldr	r2, .L8+120
 401 024a C421     		movs	r1, #196
 402 024c F868     		ldr	r0, [r7, #12]
 403 024e A047     		blx	r4
 404              	.LVL33:
 137:./BSP/Components/Src/lcd.c ****   
 138:./BSP/Components/Src/lcd.c ****   object->lcd_write_reg(object, OTM8009A_CMD_NOP, &short_reg_data[15], 0);
 405              		.loc 1 138 9
 406 0250 FB68     		ldr	r3, [r7, #12]
 407 0252 D3F84441 		ldr	r4, [r3, #324]
 408              		.loc 1 138 3
 409 0256 0023     		movs	r3, #0
 410 0258 2C4A     		ldr	r2, .L8+72
 411 025a 0021     		movs	r1, #0
 412 025c F868     		ldr	r0, [r7, #12]
 413 025e A047     		blx	r4
 414              	.LVL34:
 139:./BSP/Components/Src/lcd.c ****   object->lcd_write_reg(object, 0xC1, &short_reg_data[27], 0);
 415              		.loc 1 139 9
 416 0260 FB68     		ldr	r3, [r7, #12]
 417 0262 D3F84441 		ldr	r4, [r3, #324]
 418              		.loc 1 139 3
 419 0266 0023     		movs	r3, #0
 420 0268 354A     		ldr	r2, .L8+124
 421 026a C121     		movs	r1, #193
 422 026c F868     		ldr	r0, [r7, #12]
 423 026e A047     		blx	r4
 424              	.LVL35:
 140:./BSP/Components/Src/lcd.c ****   
 141:./BSP/Components/Src/lcd.c ****   object->lcd_write_reg(object, OTM8009A_CMD_NOP, &short_reg_data[28], 0);
 425              		.loc 1 141 9
 426 0270 FB68     		ldr	r3, [r7, #12]
 427 0272 D3F84441 		ldr	r4, [r3, #324]
 428              		.loc 1 141 3
 429 0276 0023     		movs	r3, #0
 430 0278 324A     		ldr	r2, .L8+128
ARM GAS  /tmp/ccK9zPb4.s 			page 11


 431 027a 0021     		movs	r1, #0
 432 027c F868     		ldr	r0, [r7, #12]
 433 027e A047     		blx	r4
 434              	.LVL36:
 142:./BSP/Components/Src/lcd.c ****   object->lcd_write_reg(object, 0xB3, lcd_reg_data6, 2);
 435              		.loc 1 142 9
 436 0280 FB68     		ldr	r3, [r7, #12]
 437 0282 D3F84441 		ldr	r4, [r3, #324]
 438              		.loc 1 142 3
 439 0286 0223     		movs	r3, #2
 440 0288 2F4A     		ldr	r2, .L8+132
 441 028a B321     		movs	r1, #179
 442 028c F868     		ldr	r0, [r7, #12]
 443 028e A047     		blx	r4
 444              	.LVL37:
 143:./BSP/Components/Src/lcd.c ****   
 144:./BSP/Components/Src/lcd.c ****   /* GOAVST */
 145:./BSP/Components/Src/lcd.c ****   object->lcd_write_reg(object, OTM8009A_CMD_NOP, &short_reg_data[2], 0);
 445              		.loc 1 145 9
 446 0290 FB68     		ldr	r3, [r7, #12]
 447 0292 D3F84441 		ldr	r4, [r3, #324]
 448              		.loc 1 145 3
 449 0296 0023     		movs	r3, #0
 450 0298 0E4A     		ldr	r2, .L8+16
 451 029a 0021     		movs	r1, #0
 452 029c F868     		ldr	r0, [r7, #12]
 453 029e A047     		blx	r4
 454              	.LVL38:
 146:./BSP/Components/Src/lcd.c ****   object->lcd_write_reg(object, 0xCE, lcd_reg_data7, 6);
 455              		.loc 1 146 9
 456 02a0 FB68     		ldr	r3, [r7, #12]
 457 02a2 D3F84441 		ldr	r4, [r3, #324]
 458              		.loc 1 146 3
 459 02a6 0623     		movs	r3, #6
 460 02a8 284A     		ldr	r2, .L8+136
 461 02aa CE21     		movs	r1, #206
 462 02ac F868     		ldr	r0, [r7, #12]
 463 02ae A047     		blx	r4
 464              	.LVL39:
 147:./BSP/Components/Src/lcd.c ****   
 148:./BSP/Components/Src/lcd.c ****   object->lcd_write_reg(object, OTM8009A_CMD_NOP, &short_reg_data[29], 0);
 465              		.loc 1 148 9
 466 02b0 FB68     		ldr	r3, [r7, #12]
 467 02b2 D3F84441 		ldr	r4, [r3, #324]
 468              		.loc 1 148 3
 469 02b6 0023     		movs	r3, #0
 470 02b8 254A     		ldr	r2, .L8+140
 471 02ba 0021     		movs	r1, #0
 472 02bc F868     		ldr	r0, [r7, #12]
 473 02be A047     		blx	r4
 474              	.LVL40:
 475 02c0 48E0     		b	.L9
 476              	.L10:
 477 02c2 00BF     		.align	2
 478              	.L8:
 479 02c4 00000000 		.word	LCD_write_reg
 480 02c8 00000000 		.word	LCD_read_reg
ARM GAS  /tmp/ccK9zPb4.s 			page 12


 481 02cc 01000000 		.word	short_reg_data.16592+1
 482 02d0 00000000 		.word	lcd_reg_data1.16565
 483 02d4 02000000 		.word	short_reg_data.16592+2
 484 02d8 00000000 		.word	lcd_reg_data2.16566
 485 02dc 03000000 		.word	short_reg_data.16592+3
 486 02e0 04000000 		.word	short_reg_data.16592+4
 487 02e4 05000000 		.word	short_reg_data.16592+5
 488 02e8 06000000 		.word	short_reg_data.16592+6
 489 02ec 07000000 		.word	short_reg_data.16592+7
 490 02f0 08000000 		.word	short_reg_data.16592+8
 491 02f4 09000000 		.word	short_reg_data.16592+9
 492 02f8 0A000000 		.word	short_reg_data.16592+10
 493 02fc 0B000000 		.word	short_reg_data.16592+11
 494 0300 0C000000 		.word	short_reg_data.16592+12
 495 0304 0D000000 		.word	short_reg_data.16592+13
 496 0308 0E000000 		.word	short_reg_data.16592+14
 497 030c 0F000000 		.word	short_reg_data.16592+15
 498 0310 10000000 		.word	short_reg_data.16592+16
 499 0314 11000000 		.word	short_reg_data.16592+17
 500 0318 12000000 		.word	short_reg_data.16592+18
 501 031c 13000000 		.word	short_reg_data.16592+19
 502 0320 00000000 		.word	lcd_reg_data5.16569
 503 0324 14000000 		.word	short_reg_data.16592+20
 504 0328 15000000 		.word	short_reg_data.16592+21
 505 032c 16000000 		.word	short_reg_data.16592+22
 506 0330 17000000 		.word	short_reg_data.16592+23
 507 0334 18000000 		.word	short_reg_data.16592+24
 508 0338 19000000 		.word	short_reg_data.16592+25
 509 033c 1A000000 		.word	short_reg_data.16592+26
 510 0340 1B000000 		.word	short_reg_data.16592+27
 511 0344 1C000000 		.word	short_reg_data.16592+28
 512 0348 00000000 		.word	lcd_reg_data6.16570
 513 034c 00000000 		.word	lcd_reg_data7.16571
 514 0350 1D000000 		.word	short_reg_data.16592+29
 515              	.L9:
 149:./BSP/Components/Src/lcd.c ****   object->lcd_write_reg(object, 0xCE, lcd_reg_data8, 14);
 516              		.loc 1 149 9
 517 0354 FB68     		ldr	r3, [r7, #12]
 518 0356 D3F84441 		ldr	r4, [r3, #324]
 519              		.loc 1 149 3
 520 035a 0E23     		movs	r3, #14
 521 035c A94A     		ldr	r2, .L11
 522 035e CE21     		movs	r1, #206
 523 0360 F868     		ldr	r0, [r7, #12]
 524 0362 A047     		blx	r4
 525              	.LVL41:
 150:./BSP/Components/Src/lcd.c ****   
 151:./BSP/Components/Src/lcd.c ****   object->lcd_write_reg(object, OTM8009A_CMD_NOP, &short_reg_data[30], 0);
 526              		.loc 1 151 9
 527 0364 FB68     		ldr	r3, [r7, #12]
 528 0366 D3F84441 		ldr	r4, [r3, #324]
 529              		.loc 1 151 3
 530 036a 0023     		movs	r3, #0
 531 036c A64A     		ldr	r2, .L11+4
 532 036e 0021     		movs	r1, #0
 533 0370 F868     		ldr	r0, [r7, #12]
 534 0372 A047     		blx	r4
ARM GAS  /tmp/ccK9zPb4.s 			page 13


 535              	.LVL42:
 152:./BSP/Components/Src/lcd.c ****   object->lcd_write_reg(object, 0xCE, lcd_reg_data9, 14);
 536              		.loc 1 152 9
 537 0374 FB68     		ldr	r3, [r7, #12]
 538 0376 D3F84441 		ldr	r4, [r3, #324]
 539              		.loc 1 152 3
 540 037a 0E23     		movs	r3, #14
 541 037c A34A     		ldr	r2, .L11+8
 542 037e CE21     		movs	r1, #206
 543 0380 F868     		ldr	r0, [r7, #12]
 544 0382 A047     		blx	r4
 545              	.LVL43:
 153:./BSP/Components/Src/lcd.c ****   
 154:./BSP/Components/Src/lcd.c ****   object->lcd_write_reg(object, OTM8009A_CMD_NOP, &short_reg_data[31], 0);
 546              		.loc 1 154 9
 547 0384 FB68     		ldr	r3, [r7, #12]
 548 0386 D3F84441 		ldr	r4, [r3, #324]
 549              		.loc 1 154 3
 550 038a 0023     		movs	r3, #0
 551 038c A04A     		ldr	r2, .L11+12
 552 038e 0021     		movs	r1, #0
 553 0390 F868     		ldr	r0, [r7, #12]
 554 0392 A047     		blx	r4
 555              	.LVL44:
 155:./BSP/Components/Src/lcd.c ****   object->lcd_write_reg(object, 0xCF, lcd_reg_data10, 10);
 556              		.loc 1 155 9
 557 0394 FB68     		ldr	r3, [r7, #12]
 558 0396 D3F84441 		ldr	r4, [r3, #324]
 559              		.loc 1 155 3
 560 039a 0A23     		movs	r3, #10
 561 039c 9D4A     		ldr	r2, .L11+16
 562 039e CF21     		movs	r1, #207
 563 03a0 F868     		ldr	r0, [r7, #12]
 564 03a2 A047     		blx	r4
 565              	.LVL45:
 156:./BSP/Components/Src/lcd.c ****   
 157:./BSP/Components/Src/lcd.c ****   object->lcd_write_reg(object, OTM8009A_CMD_NOP, &short_reg_data[32], 0);
 566              		.loc 1 157 9
 567 03a4 FB68     		ldr	r3, [r7, #12]
 568 03a6 D3F84441 		ldr	r4, [r3, #324]
 569              		.loc 1 157 3
 570 03aa 0023     		movs	r3, #0
 571 03ac 9A4A     		ldr	r2, .L11+20
 572 03ae 0021     		movs	r1, #0
 573 03b0 F868     		ldr	r0, [r7, #12]
 574 03b2 A047     		blx	r4
 575              	.LVL46:
 158:./BSP/Components/Src/lcd.c ****   object->lcd_write_reg(object, 0xCF, &short_reg_data[45], 0);
 576              		.loc 1 158 9
 577 03b4 FB68     		ldr	r3, [r7, #12]
 578 03b6 D3F84441 		ldr	r4, [r3, #324]
 579              		.loc 1 158 3
 580 03ba 0023     		movs	r3, #0
 581 03bc 974A     		ldr	r2, .L11+24
 582 03be CF21     		movs	r1, #207
 583 03c0 F868     		ldr	r0, [r7, #12]
 584 03c2 A047     		blx	r4
ARM GAS  /tmp/ccK9zPb4.s 			page 14


 585              	.LVL47:
 159:./BSP/Components/Src/lcd.c ****   
 160:./BSP/Components/Src/lcd.c ****   object->lcd_write_reg(object, OTM8009A_CMD_NOP, &short_reg_data[2], 0);
 586              		.loc 1 160 9
 587 03c4 FB68     		ldr	r3, [r7, #12]
 588 03c6 D3F84441 		ldr	r4, [r3, #324]
 589              		.loc 1 160 3
 590 03ca 0023     		movs	r3, #0
 591 03cc 944A     		ldr	r2, .L11+28
 592 03ce 0021     		movs	r1, #0
 593 03d0 F868     		ldr	r0, [r7, #12]
 594 03d2 A047     		blx	r4
 595              	.LVL48:
 161:./BSP/Components/Src/lcd.c ****   object->lcd_write_reg(object, 0xCB, lcd_reg_data11, 10);
 596              		.loc 1 161 9
 597 03d4 FB68     		ldr	r3, [r7, #12]
 598 03d6 D3F84441 		ldr	r4, [r3, #324]
 599              		.loc 1 161 3
 600 03da 0A23     		movs	r3, #10
 601 03dc 914A     		ldr	r2, .L11+32
 602 03de CB21     		movs	r1, #203
 603 03e0 F868     		ldr	r0, [r7, #12]
 604 03e2 A047     		blx	r4
 605              	.LVL49:
 162:./BSP/Components/Src/lcd.c ****   
 163:./BSP/Components/Src/lcd.c ****   object->lcd_write_reg(object, OTM8009A_CMD_NOP, &short_reg_data[33], 0);
 606              		.loc 1 163 9
 607 03e4 FB68     		ldr	r3, [r7, #12]
 608 03e6 D3F84441 		ldr	r4, [r3, #324]
 609              		.loc 1 163 3
 610 03ea 0023     		movs	r3, #0
 611 03ec 8E4A     		ldr	r2, .L11+36
 612 03ee 0021     		movs	r1, #0
 613 03f0 F868     		ldr	r0, [r7, #12]
 614 03f2 A047     		blx	r4
 615              	.LVL50:
 164:./BSP/Components/Src/lcd.c ****   object->lcd_write_reg(object, 0xCB, lcd_reg_data12, 15);
 616              		.loc 1 164 9
 617 03f4 FB68     		ldr	r3, [r7, #12]
 618 03f6 D3F84441 		ldr	r4, [r3, #324]
 619              		.loc 1 164 3
 620 03fa 0F23     		movs	r3, #15
 621 03fc 8B4A     		ldr	r2, .L11+40
 622 03fe CB21     		movs	r1, #203
 623 0400 F868     		ldr	r0, [r7, #12]
 624 0402 A047     		blx	r4
 625              	.LVL51:
 165:./BSP/Components/Src/lcd.c ****   
 166:./BSP/Components/Src/lcd.c ****   object->lcd_write_reg(object, OTM8009A_CMD_NOP, &short_reg_data[29], 0);
 626              		.loc 1 166 9
 627 0404 FB68     		ldr	r3, [r7, #12]
 628 0406 D3F84441 		ldr	r4, [r3, #324]
 629              		.loc 1 166 3
 630 040a 0023     		movs	r3, #0
 631 040c 884A     		ldr	r2, .L11+44
 632 040e 0021     		movs	r1, #0
 633 0410 F868     		ldr	r0, [r7, #12]
ARM GAS  /tmp/ccK9zPb4.s 			page 15


 634 0412 A047     		blx	r4
 635              	.LVL52:
 167:./BSP/Components/Src/lcd.c ****   object->lcd_write_reg(object, 0xCB, lcd_reg_data13, 15);
 636              		.loc 1 167 9
 637 0414 FB68     		ldr	r3, [r7, #12]
 638 0416 D3F84441 		ldr	r4, [r3, #324]
 639              		.loc 1 167 3
 640 041a 0F23     		movs	r3, #15
 641 041c 854A     		ldr	r2, .L11+48
 642 041e CB21     		movs	r1, #203
 643 0420 F868     		ldr	r0, [r7, #12]
 644 0422 A047     		blx	r4
 645              	.LVL53:
 168:./BSP/Components/Src/lcd.c ****   
 169:./BSP/Components/Src/lcd.c ****   object->lcd_write_reg(object, OTM8009A_CMD_NOP, &short_reg_data[30], 0);
 646              		.loc 1 169 9
 647 0424 FB68     		ldr	r3, [r7, #12]
 648 0426 D3F84441 		ldr	r4, [r3, #324]
 649              		.loc 1 169 3
 650 042a 0023     		movs	r3, #0
 651 042c 764A     		ldr	r2, .L11+4
 652 042e 0021     		movs	r1, #0
 653 0430 F868     		ldr	r0, [r7, #12]
 654 0432 A047     		blx	r4
 655              	.LVL54:
 170:./BSP/Components/Src/lcd.c ****   object->lcd_write_reg(object, 0xCB, lcd_reg_data14, 10);
 656              		.loc 1 170 9
 657 0434 FB68     		ldr	r3, [r7, #12]
 658 0436 D3F84441 		ldr	r4, [r3, #324]
 659              		.loc 1 170 3
 660 043a 0A23     		movs	r3, #10
 661 043c 7E4A     		ldr	r2, .L11+52
 662 043e CB21     		movs	r1, #203
 663 0440 F868     		ldr	r0, [r7, #12]
 664 0442 A047     		blx	r4
 665              	.LVL55:
 171:./BSP/Components/Src/lcd.c ****   
 172:./BSP/Components/Src/lcd.c ****   object->lcd_write_reg(object, OTM8009A_CMD_NOP, &short_reg_data[31], 0);
 666              		.loc 1 172 9
 667 0444 FB68     		ldr	r3, [r7, #12]
 668 0446 D3F84441 		ldr	r4, [r3, #324]
 669              		.loc 1 172 3
 670 044a 0023     		movs	r3, #0
 671 044c 704A     		ldr	r2, .L11+12
 672 044e 0021     		movs	r1, #0
 673 0450 F868     		ldr	r0, [r7, #12]
 674 0452 A047     		blx	r4
 675              	.LVL56:
 173:./BSP/Components/Src/lcd.c ****   object->lcd_write_reg(object, 0xCB, lcd_reg_data15, 15);
 676              		.loc 1 173 9
 677 0454 FB68     		ldr	r3, [r7, #12]
 678 0456 D3F84441 		ldr	r4, [r3, #324]
 679              		.loc 1 173 3
 680 045a 0F23     		movs	r3, #15
 681 045c 774A     		ldr	r2, .L11+56
 682 045e CB21     		movs	r1, #203
 683 0460 F868     		ldr	r0, [r7, #12]
ARM GAS  /tmp/ccK9zPb4.s 			page 16


 684 0462 A047     		blx	r4
 685              	.LVL57:
 174:./BSP/Components/Src/lcd.c ****   
 175:./BSP/Components/Src/lcd.c ****   object->lcd_write_reg(object, OTM8009A_CMD_NOP, &short_reg_data[32], 0);
 686              		.loc 1 175 9
 687 0464 FB68     		ldr	r3, [r7, #12]
 688 0466 D3F84441 		ldr	r4, [r3, #324]
 689              		.loc 1 175 3
 690 046a 0023     		movs	r3, #0
 691 046c 6A4A     		ldr	r2, .L11+20
 692 046e 0021     		movs	r1, #0
 693 0470 F868     		ldr	r0, [r7, #12]
 694 0472 A047     		blx	r4
 695              	.LVL58:
 176:./BSP/Components/Src/lcd.c ****   object->lcd_write_reg(object, 0xCB, lcd_reg_data16, 15);
 696              		.loc 1 176 9
 697 0474 FB68     		ldr	r3, [r7, #12]
 698 0476 D3F84441 		ldr	r4, [r3, #324]
 699              		.loc 1 176 3
 700 047a 0F23     		movs	r3, #15
 701 047c 704A     		ldr	r2, .L11+60
 702 047e CB21     		movs	r1, #203
 703 0480 F868     		ldr	r0, [r7, #12]
 704 0482 A047     		blx	r4
 705              	.LVL59:
 177:./BSP/Components/Src/lcd.c ****   
 178:./BSP/Components/Src/lcd.c ****   object->lcd_write_reg(object, OTM8009A_CMD_NOP, &short_reg_data[34], 0);
 706              		.loc 1 178 9
 707 0484 FB68     		ldr	r3, [r7, #12]
 708 0486 D3F84441 		ldr	r4, [r3, #324]
 709              		.loc 1 178 3
 710 048a 0023     		movs	r3, #0
 711 048c 6D4A     		ldr	r2, .L11+64
 712 048e 0021     		movs	r1, #0
 713 0490 F868     		ldr	r0, [r7, #12]
 714 0492 A047     		blx	r4
 715              	.LVL60:
 179:./BSP/Components/Src/lcd.c ****   object->lcd_write_reg(object, 0xCB, lcd_reg_data17, 10);
 716              		.loc 1 179 9
 717 0494 FB68     		ldr	r3, [r7, #12]
 718 0496 D3F84441 		ldr	r4, [r3, #324]
 719              		.loc 1 179 3
 720 049a 0A23     		movs	r3, #10
 721 049c 6A4A     		ldr	r2, .L11+68
 722 049e CB21     		movs	r1, #203
 723 04a0 F868     		ldr	r0, [r7, #12]
 724 04a2 A047     		blx	r4
 725              	.LVL61:
 180:./BSP/Components/Src/lcd.c ****   
 181:./BSP/Components/Src/lcd.c ****   object->lcd_write_reg(object, OTM8009A_CMD_NOP, &short_reg_data[35], 0);
 726              		.loc 1 181 9
 727 04a4 FB68     		ldr	r3, [r7, #12]
 728 04a6 D3F84441 		ldr	r4, [r3, #324]
 729              		.loc 1 181 3
 730 04aa 0023     		movs	r3, #0
 731 04ac 674A     		ldr	r2, .L11+72
 732 04ae 0021     		movs	r1, #0
ARM GAS  /tmp/ccK9zPb4.s 			page 17


 733 04b0 F868     		ldr	r0, [r7, #12]
 734 04b2 A047     		blx	r4
 735              	.LVL62:
 182:./BSP/Components/Src/lcd.c ****   object->lcd_write_reg(object, 0xCB, lcd_reg_data18, 10);
 736              		.loc 1 182 9
 737 04b4 FB68     		ldr	r3, [r7, #12]
 738 04b6 D3F84441 		ldr	r4, [r3, #324]
 739              		.loc 1 182 3
 740 04ba 0A23     		movs	r3, #10
 741 04bc 644A     		ldr	r2, .L11+76
 742 04be CB21     		movs	r1, #203
 743 04c0 F868     		ldr	r0, [r7, #12]
 744 04c2 A047     		blx	r4
 745              	.LVL63:
 183:./BSP/Components/Src/lcd.c ****   
 184:./BSP/Components/Src/lcd.c ****   object->lcd_write_reg(object, OTM8009A_CMD_NOP, &short_reg_data[2], 0);
 746              		.loc 1 184 9
 747 04c4 FB68     		ldr	r3, [r7, #12]
 748 04c6 D3F84441 		ldr	r4, [r3, #324]
 749              		.loc 1 184 3
 750 04ca 0023     		movs	r3, #0
 751 04cc 544A     		ldr	r2, .L11+28
 752 04ce 0021     		movs	r1, #0
 753 04d0 F868     		ldr	r0, [r7, #12]
 754 04d2 A047     		blx	r4
 755              	.LVL64:
 185:./BSP/Components/Src/lcd.c ****   object->lcd_write_reg(object, 0xCC, lcd_reg_data19, 10);
 756              		.loc 1 185 9
 757 04d4 FB68     		ldr	r3, [r7, #12]
 758 04d6 D3F84441 		ldr	r4, [r3, #324]
 759              		.loc 1 185 3
 760 04da 0A23     		movs	r3, #10
 761 04dc 5D4A     		ldr	r2, .L11+80
 762 04de CC21     		movs	r1, #204
 763 04e0 F868     		ldr	r0, [r7, #12]
 764 04e2 A047     		blx	r4
 765              	.LVL65:
 186:./BSP/Components/Src/lcd.c ****   
 187:./BSP/Components/Src/lcd.c ****   object->lcd_write_reg(object, OTM8009A_CMD_NOP, &short_reg_data[33], 0);
 766              		.loc 1 187 9
 767 04e4 FB68     		ldr	r3, [r7, #12]
 768 04e6 D3F84441 		ldr	r4, [r3, #324]
 769              		.loc 1 187 3
 770 04ea 0023     		movs	r3, #0
 771 04ec 4E4A     		ldr	r2, .L11+36
 772 04ee 0021     		movs	r1, #0
 773 04f0 F868     		ldr	r0, [r7, #12]
 774 04f2 A047     		blx	r4
 775              	.LVL66:
 188:./BSP/Components/Src/lcd.c ****   object->lcd_write_reg(object, 0xCC, lcd_reg_data20, 15);
 776              		.loc 1 188 9
 777 04f4 FB68     		ldr	r3, [r7, #12]
 778 04f6 D3F84441 		ldr	r4, [r3, #324]
 779              		.loc 1 188 3
 780 04fa 0F23     		movs	r3, #15
 781 04fc 564A     		ldr	r2, .L11+84
 782 04fe CC21     		movs	r1, #204
ARM GAS  /tmp/ccK9zPb4.s 			page 18


 783 0500 F868     		ldr	r0, [r7, #12]
 784 0502 A047     		blx	r4
 785              	.LVL67:
 189:./BSP/Components/Src/lcd.c ****   
 190:./BSP/Components/Src/lcd.c ****   object->lcd_write_reg(object, OTM8009A_CMD_NOP, &short_reg_data[29], 0);
 786              		.loc 1 190 9
 787 0504 FB68     		ldr	r3, [r7, #12]
 788 0506 D3F84441 		ldr	r4, [r3, #324]
 789              		.loc 1 190 3
 790 050a 0023     		movs	r3, #0
 791 050c 484A     		ldr	r2, .L11+44
 792 050e 0021     		movs	r1, #0
 793 0510 F868     		ldr	r0, [r7, #12]
 794 0512 A047     		blx	r4
 795              	.LVL68:
 191:./BSP/Components/Src/lcd.c ****   object->lcd_write_reg(object, 0xCC, lcd_reg_data21, 15);
 796              		.loc 1 191 9
 797 0514 FB68     		ldr	r3, [r7, #12]
 798 0516 D3F84441 		ldr	r4, [r3, #324]
 799              		.loc 1 191 3
 800 051a 0F23     		movs	r3, #15
 801 051c 4F4A     		ldr	r2, .L11+88
 802 051e CC21     		movs	r1, #204
 803 0520 F868     		ldr	r0, [r7, #12]
 804 0522 A047     		blx	r4
 805              	.LVL69:
 192:./BSP/Components/Src/lcd.c ****   
 193:./BSP/Components/Src/lcd.c ****   object->lcd_write_reg(object, OTM8009A_CMD_NOP, &short_reg_data[30], 0);
 806              		.loc 1 193 9
 807 0524 FB68     		ldr	r3, [r7, #12]
 808 0526 D3F84441 		ldr	r4, [r3, #324]
 809              		.loc 1 193 3
 810 052a 0023     		movs	r3, #0
 811 052c 364A     		ldr	r2, .L11+4
 812 052e 0021     		movs	r1, #0
 813 0530 F868     		ldr	r0, [r7, #12]
 814 0532 A047     		blx	r4
 815              	.LVL70:
 194:./BSP/Components/Src/lcd.c ****   object->lcd_write_reg(object, 0xCC, lcd_reg_data22, 10);
 816              		.loc 1 194 9
 817 0534 FB68     		ldr	r3, [r7, #12]
 818 0536 D3F84441 		ldr	r4, [r3, #324]
 819              		.loc 1 194 3
 820 053a 0A23     		movs	r3, #10
 821 053c 484A     		ldr	r2, .L11+92
 822 053e CC21     		movs	r1, #204
 823 0540 F868     		ldr	r0, [r7, #12]
 824 0542 A047     		blx	r4
 825              	.LVL71:
 195:./BSP/Components/Src/lcd.c ****   
 196:./BSP/Components/Src/lcd.c ****   object->lcd_write_reg(object, OTM8009A_CMD_NOP, &short_reg_data[31], 0);
 826              		.loc 1 196 9
 827 0544 FB68     		ldr	r3, [r7, #12]
 828 0546 D3F84441 		ldr	r4, [r3, #324]
 829              		.loc 1 196 3
 830 054a 0023     		movs	r3, #0
 831 054c 304A     		ldr	r2, .L11+12
ARM GAS  /tmp/ccK9zPb4.s 			page 19


 832 054e 0021     		movs	r1, #0
 833 0550 F868     		ldr	r0, [r7, #12]
 834 0552 A047     		blx	r4
 835              	.LVL72:
 197:./BSP/Components/Src/lcd.c ****   object->lcd_write_reg(object, 0xCC, lcd_reg_data23, 15);
 836              		.loc 1 197 9
 837 0554 FB68     		ldr	r3, [r7, #12]
 838 0556 D3F84441 		ldr	r4, [r3, #324]
 839              		.loc 1 197 3
 840 055a 0F23     		movs	r3, #15
 841 055c 414A     		ldr	r2, .L11+96
 842 055e CC21     		movs	r1, #204
 843 0560 F868     		ldr	r0, [r7, #12]
 844 0562 A047     		blx	r4
 845              	.LVL73:
 198:./BSP/Components/Src/lcd.c ****   
 199:./BSP/Components/Src/lcd.c ****   object->lcd_write_reg(object, OTM8009A_CMD_NOP, &short_reg_data[32], 0);
 846              		.loc 1 199 9
 847 0564 FB68     		ldr	r3, [r7, #12]
 848 0566 D3F84441 		ldr	r4, [r3, #324]
 849              		.loc 1 199 3
 850 056a 0023     		movs	r3, #0
 851 056c 2A4A     		ldr	r2, .L11+20
 852 056e 0021     		movs	r1, #0
 853 0570 F868     		ldr	r0, [r7, #12]
 854 0572 A047     		blx	r4
 855              	.LVL74:
 200:./BSP/Components/Src/lcd.c ****   object->lcd_write_reg(object, 0xCC, lcd_reg_data24, 15);
 856              		.loc 1 200 9
 857 0574 FB68     		ldr	r3, [r7, #12]
 858 0576 D3F84441 		ldr	r4, [r3, #324]
 859              		.loc 1 200 3
 860 057a 0F23     		movs	r3, #15
 861 057c 3A4A     		ldr	r2, .L11+100
 862 057e CC21     		movs	r1, #204
 863 0580 F868     		ldr	r0, [r7, #12]
 864 0582 A047     		blx	r4
 865              	.LVL75:
 201:./BSP/Components/Src/lcd.c ****   
 202:./BSP/Components/Src/lcd.c ****   /////////////////////////////////////////////////////////////////////////////
 203:./BSP/Components/Src/lcd.c ****   /* PWR_CTRL1 - 0xc580h - 130th parameter - default 0x00 */
 204:./BSP/Components/Src/lcd.c ****   /* Pump 1 min and max DM                                */
 205:./BSP/Components/Src/lcd.c ****   object->lcd_write_reg(object, OTM8009A_CMD_NOP, &short_reg_data[13], 0);
 866              		.loc 1 205 9
 867 0584 FB68     		ldr	r3, [r7, #12]
 868 0586 D3F84441 		ldr	r4, [r3, #324]
 869              		.loc 1 205 3
 870 058a 0023     		movs	r3, #0
 871 058c 374A     		ldr	r2, .L11+104
 872 058e 0021     		movs	r1, #0
 873 0590 F868     		ldr	r0, [r7, #12]
 874 0592 A047     		blx	r4
 875              	.LVL76:
 206:./BSP/Components/Src/lcd.c ****   object->lcd_write_reg(object, 0xC5, &short_reg_data[46], 0);
 876              		.loc 1 206 9
 877 0594 FB68     		ldr	r3, [r7, #12]
 878 0596 D3F84441 		ldr	r4, [r3, #324]
ARM GAS  /tmp/ccK9zPb4.s 			page 20


 879              		.loc 1 206 3
 880 059a 0023     		movs	r3, #0
 881 059c 344A     		ldr	r2, .L11+108
 882 059e C521     		movs	r1, #197
 883 05a0 F868     		ldr	r0, [r7, #12]
 884 05a2 A047     		blx	r4
 885              	.LVL77:
 207:./BSP/Components/Src/lcd.c ****   object->lcd_write_reg(object, OTM8009A_CMD_NOP, &short_reg_data[47], 0);
 886              		.loc 1 207 9
 887 05a4 FB68     		ldr	r3, [r7, #12]
 888 05a6 D3F84441 		ldr	r4, [r3, #324]
 889              		.loc 1 207 3
 890 05aa 0023     		movs	r3, #0
 891 05ac 314A     		ldr	r2, .L11+112
 892 05ae 0021     		movs	r1, #0
 893 05b0 F868     		ldr	r0, [r7, #12]
 894 05b2 A047     		blx	r4
 895              	.LVL78:
 208:./BSP/Components/Src/lcd.c ****   object->lcd_write_reg(object, 0xF5, &short_reg_data[48], 0);
 896              		.loc 1 208 9
 897 05b4 FB68     		ldr	r3, [r7, #12]
 898 05b6 D3F84441 		ldr	r4, [r3, #324]
 899              		.loc 1 208 3
 900 05ba 0023     		movs	r3, #0
 901 05bc 2E4A     		ldr	r2, .L11+116
 902 05be F521     		movs	r1, #245
 903 05c0 F868     		ldr	r0, [r7, #12]
 904 05c2 A047     		blx	r4
 905              	.LVL79:
 209:./BSP/Components/Src/lcd.c ****   /////////////////////////////////////////////////////////////////////////////
 210:./BSP/Components/Src/lcd.c ****   
 211:./BSP/Components/Src/lcd.c ****   /* CABC LEDPWM frequency adjusted to 19,5kHz */
 212:./BSP/Components/Src/lcd.c ****   object->lcd_write_reg(object, OTM8009A_CMD_NOP, &short_reg_data[49], 0);
 906              		.loc 1 212 9
 907 05c4 FB68     		ldr	r3, [r7, #12]
 908 05c6 D3F84441 		ldr	r4, [r3, #324]
 909              		.loc 1 212 3
 910 05ca 0023     		movs	r3, #0
 911 05cc 2B4A     		ldr	r2, .L11+120
 912 05ce 0021     		movs	r1, #0
 913 05d0 F868     		ldr	r0, [r7, #12]
 914 05d2 A047     		blx	r4
 915              	.LVL80:
 213:./BSP/Components/Src/lcd.c ****   object->lcd_write_reg(object, 0xC6, &short_reg_data[50], 0);
 916              		.loc 1 213 9
 917 05d4 FB68     		ldr	r3, [r7, #12]
 918 05d6 D3F84441 		ldr	r4, [r3, #324]
 919              		.loc 1 213 3
 920 05da 0023     		movs	r3, #0
 921 05dc 284A     		ldr	r2, .L11+124
 922 05de C621     		movs	r1, #198
 923 05e0 F868     		ldr	r0, [r7, #12]
 924 05e2 A047     		blx	r4
 925              	.LVL81:
 214:./BSP/Components/Src/lcd.c ****   
 215:./BSP/Components/Src/lcd.c ****   /* Exit CMD2 mode */
 216:./BSP/Components/Src/lcd.c ****   object->lcd_write_reg(object, OTM8009A_CMD_NOP, &short_reg_data[1], 0);
ARM GAS  /tmp/ccK9zPb4.s 			page 21


 926              		.loc 1 216 9
 927 05e4 FB68     		ldr	r3, [r7, #12]
 928 05e6 D3F84441 		ldr	r4, [r3, #324]
 929              		.loc 1 216 3
 930 05ea 0023     		movs	r3, #0
 931 05ec 254A     		ldr	r2, .L11+128
 932 05ee 0021     		movs	r1, #0
 933 05f0 F868     		ldr	r0, [r7, #12]
 934 05f2 A047     		blx	r4
 935              	.LVL82:
 217:./BSP/Components/Src/lcd.c ****   object->lcd_write_reg(object, 0xFF, lcd_reg_data25, 3);
 936              		.loc 1 217 9
 937 05f4 FB68     		ldr	r3, [r7, #12]
 938 05f6 D3F84441 		ldr	r4, [r3, #324]
 939              		.loc 1 217 3
 940 05fa 0323     		movs	r3, #3
 941 05fc 224A     		ldr	r2, .L11+132
 942 05fe FF21     		movs	r1, #255
 943 0600 44E0     		b	.L12
 944              	.L13:
 945 0602 00BF     		.align	2
 946              	.L11:
 947 0604 00000000 		.word	lcd_reg_data8.16572
 948 0608 1E000000 		.word	short_reg_data.16592+30
 949 060c 00000000 		.word	lcd_reg_data9.16573
 950 0610 1F000000 		.word	short_reg_data.16592+31
 951 0614 00000000 		.word	lcd_reg_data10.16574
 952 0618 20000000 		.word	short_reg_data.16592+32
 953 061c 2D000000 		.word	short_reg_data.16592+45
 954 0620 02000000 		.word	short_reg_data.16592+2
 955 0624 00000000 		.word	lcd_reg_data11.16575
 956 0628 21000000 		.word	short_reg_data.16592+33
 957 062c 00000000 		.word	lcd_reg_data12.16576
 958 0630 1D000000 		.word	short_reg_data.16592+29
 959 0634 00000000 		.word	lcd_reg_data13.16577
 960 0638 00000000 		.word	lcd_reg_data14.16578
 961 063c 00000000 		.word	lcd_reg_data15.16579
 962 0640 00000000 		.word	lcd_reg_data16.16580
 963 0644 22000000 		.word	short_reg_data.16592+34
 964 0648 00000000 		.word	lcd_reg_data17.16581
 965 064c 23000000 		.word	short_reg_data.16592+35
 966 0650 00000000 		.word	lcd_reg_data18.16582
 967 0654 00000000 		.word	lcd_reg_data19.16583
 968 0658 00000000 		.word	lcd_reg_data20.16584
 969 065c 00000000 		.word	lcd_reg_data21.16585
 970 0660 00000000 		.word	lcd_reg_data22.16586
 971 0664 00000000 		.word	lcd_reg_data23.16587
 972 0668 00000000 		.word	lcd_reg_data24.16588
 973 066c 0D000000 		.word	short_reg_data.16592+13
 974 0670 2E000000 		.word	short_reg_data.16592+46
 975 0674 2F000000 		.word	short_reg_data.16592+47
 976 0678 30000000 		.word	short_reg_data.16592+48
 977 067c 31000000 		.word	short_reg_data.16592+49
 978 0680 32000000 		.word	short_reg_data.16592+50
 979 0684 01000000 		.word	short_reg_data.16592+1
 980 0688 00000000 		.word	lcd_reg_data25.16589
 981              	.L12:
ARM GAS  /tmp/ccK9zPb4.s 			page 22


 982 068c F868     		ldr	r0, [r7, #12]
 983 068e A047     		blx	r4
 984              	.LVL83:
 218:./BSP/Components/Src/lcd.c ****   
 219:./BSP/Components/Src/lcd.c ****   /*************************************************************************** */
 220:./BSP/Components/Src/lcd.c ****   /* Standard DCS Initialization TO KEEP CAN BE DONE IN HSDT                   */
 221:./BSP/Components/Src/lcd.c ****   /*************************************************************************** */
 222:./BSP/Components/Src/lcd.c ****   
 223:./BSP/Components/Src/lcd.c ****   /* NOP - goes back to DCS std command ? */
 224:./BSP/Components/Src/lcd.c ****   object->lcd_write_reg(object, OTM8009A_CMD_NOP, &short_reg_data[1], 0);
 985              		.loc 1 224 9
 986 0690 FB68     		ldr	r3, [r7, #12]
 987 0692 D3F84441 		ldr	r4, [r3, #324]
 988              		.loc 1 224 3
 989 0696 0023     		movs	r3, #0
 990 0698 814A     		ldr	r2, .L14
 991 069a 0021     		movs	r1, #0
 992 069c F868     		ldr	r0, [r7, #12]
 993 069e A047     		blx	r4
 994              	.LVL84:
 225:./BSP/Components/Src/lcd.c ****   
 226:./BSP/Components/Src/lcd.c ****   /* Gamma correction 2.2+ table (HSDT possible) */
 227:./BSP/Components/Src/lcd.c ****   object->lcd_write_reg(object, OTM8009A_CMD_NOP, &short_reg_data[1], 0);
 995              		.loc 1 227 9
 996 06a0 FB68     		ldr	r3, [r7, #12]
 997 06a2 D3F84441 		ldr	r4, [r3, #324]
 998              		.loc 1 227 3
 999 06a6 0023     		movs	r3, #0
 1000 06a8 7D4A     		ldr	r2, .L14
 1001 06aa 0021     		movs	r1, #0
 1002 06ac F868     		ldr	r0, [r7, #12]
 1003 06ae A047     		blx	r4
 1004              	.LVL85:
 228:./BSP/Components/Src/lcd.c ****   object->lcd_write_reg(object, 0xE1, lcd_reg_data3, 16);
 1005              		.loc 1 228 9
 1006 06b0 FB68     		ldr	r3, [r7, #12]
 1007 06b2 D3F84441 		ldr	r4, [r3, #324]
 1008              		.loc 1 228 3
 1009 06b6 1023     		movs	r3, #16
 1010 06b8 7A4A     		ldr	r2, .L14+4
 1011 06ba E121     		movs	r1, #225
 1012 06bc F868     		ldr	r0, [r7, #12]
 1013 06be A047     		blx	r4
 1014              	.LVL86:
 229:./BSP/Components/Src/lcd.c ****   
 230:./BSP/Components/Src/lcd.c ****   /* Gamma correction 2.2- table (HSDT possible) */
 231:./BSP/Components/Src/lcd.c ****   object->lcd_write_reg(object, OTM8009A_CMD_NOP, &short_reg_data[1], 0);
 1015              		.loc 1 231 9
 1016 06c0 FB68     		ldr	r3, [r7, #12]
 1017 06c2 D3F84441 		ldr	r4, [r3, #324]
 1018              		.loc 1 231 3
 1019 06c6 0023     		movs	r3, #0
 1020 06c8 754A     		ldr	r2, .L14
 1021 06ca 0021     		movs	r1, #0
 1022 06cc F868     		ldr	r0, [r7, #12]
 1023 06ce A047     		blx	r4
 1024              	.LVL87:
ARM GAS  /tmp/ccK9zPb4.s 			page 23


 232:./BSP/Components/Src/lcd.c ****   object->lcd_write_reg(object, 0xE2, lcd_reg_data4, 16);
 1025              		.loc 1 232 9
 1026 06d0 FB68     		ldr	r3, [r7, #12]
 1027 06d2 D3F84441 		ldr	r4, [r3, #324]
 1028              		.loc 1 232 3
 1029 06d6 1023     		movs	r3, #16
 1030 06d8 734A     		ldr	r2, .L14+8
 1031 06da E221     		movs	r1, #226
 1032 06dc F868     		ldr	r0, [r7, #12]
 1033 06de A047     		blx	r4
 1034              	.LVL88:
 233:./BSP/Components/Src/lcd.c ****   
 234:./BSP/Components/Src/lcd.c ****   /* Send Sleep Out command to display : no parameter */
 235:./BSP/Components/Src/lcd.c ****   object->lcd_write_reg(object, OTM8009A_CMD_SLPOUT, &short_reg_data[36], 0);
 1035              		.loc 1 235 9
 1036 06e0 FB68     		ldr	r3, [r7, #12]
 1037 06e2 D3F84441 		ldr	r4, [r3, #324]
 1038              		.loc 1 235 3
 1039 06e6 0023     		movs	r3, #0
 1040 06e8 704A     		ldr	r2, .L14+12
 1041 06ea 1121     		movs	r1, #17
 1042 06ec F868     		ldr	r0, [r7, #12]
 1043 06ee A047     		blx	r4
 1044              	.LVL89:
 236:./BSP/Components/Src/lcd.c ****   
 237:./BSP/Components/Src/lcd.c ****   /* Wait for sleep out exit */
 238:./BSP/Components/Src/lcd.c ****   HAL_Delay(120);
 1045              		.loc 1 238 3
 1046 06f0 7820     		movs	r0, #120
 1047 06f2 FFF7FEFF 		bl	HAL_Delay
 239:./BSP/Components/Src/lcd.c ****   
 240:./BSP/Components/Src/lcd.c ****   switch(colorCoding)
 1048              		.loc 1 240 3
 1049 06f6 BB68     		ldr	r3, [r7, #8]
 1050 06f8 002B     		cmp	r3, #0
 1051 06fa 0FD0     		beq	.L2
 1052 06fc BB68     		ldr	r3, [r7, #8]
 1053 06fe 022B     		cmp	r3, #2
 1054 0700 19D1     		bne	.L7
 241:./BSP/Components/Src/lcd.c ****   {
 242:./BSP/Components/Src/lcd.c ****   case OTM8009A_FORMAT_RBG565 :
 243:./BSP/Components/Src/lcd.c ****     /* Set Pixel color format to RGB565 */
 244:./BSP/Components/Src/lcd.c ****     object->lcd_write_reg(object, OTM8009A_CMD_COLMOD, &short_reg_data[37], 0);
 1055              		.loc 1 244 11
 1056 0702 FB68     		ldr	r3, [r7, #12]
 1057 0704 D3F84441 		ldr	r4, [r3, #324]
 1058              		.loc 1 244 5
 1059 0708 0023     		movs	r3, #0
 1060 070a 694A     		ldr	r2, .L14+16
 1061 070c 3A21     		movs	r1, #58
 1062 070e F868     		ldr	r0, [r7, #12]
 1063 0710 A047     		blx	r4
 1064              	.LVL90:
 245:./BSP/Components/Src/lcd.c ****     object->colorCode = OTM8009A_FORMAT_RBG565;
 1065              		.loc 1 245 23
 1066 0712 FB68     		ldr	r3, [r7, #12]
 1067 0714 0222     		movs	r2, #2
ARM GAS  /tmp/ccK9zPb4.s 			page 24


 1068 0716 C3F83821 		str	r2, [r3, #312]
 246:./BSP/Components/Src/lcd.c ****     break;
 1069              		.loc 1 246 5
 1070 071a 0DE0     		b	.L4
 1071              	.L2:
 247:./BSP/Components/Src/lcd.c ****   case OTM8009A_FORMAT_RGB888 :
 248:./BSP/Components/Src/lcd.c ****     /* Set Pixel color format to RGB888 */
 249:./BSP/Components/Src/lcd.c ****     object->lcd_write_reg(object, OTM8009A_CMD_COLMOD, &short_reg_data[38], 0);
 1072              		.loc 1 249 11
 1073 071c FB68     		ldr	r3, [r7, #12]
 1074 071e D3F84441 		ldr	r4, [r3, #324]
 1075              		.loc 1 249 5
 1076 0722 0023     		movs	r3, #0
 1077 0724 634A     		ldr	r2, .L14+20
 1078 0726 3A21     		movs	r1, #58
 1079 0728 F868     		ldr	r0, [r7, #12]
 1080 072a A047     		blx	r4
 1081              	.LVL91:
 250:./BSP/Components/Src/lcd.c ****     object->colorCode = OTM8009A_FORMAT_RGB888;
 1082              		.loc 1 250 23
 1083 072c FB68     		ldr	r3, [r7, #12]
 1084 072e 0022     		movs	r2, #0
 1085 0730 C3F83821 		str	r2, [r3, #312]
 251:./BSP/Components/Src/lcd.c ****     break;
 1086              		.loc 1 251 5
 1087 0734 00E0     		b	.L4
 1088              	.L7:
 252:./BSP/Components/Src/lcd.c ****   default :
 253:./BSP/Components/Src/lcd.c ****     break;
 1089              		.loc 1 253 5
 1090 0736 00BF     		nop
 1091              	.L4:
 254:./BSP/Components/Src/lcd.c ****   }
 255:./BSP/Components/Src/lcd.c ****   
 256:./BSP/Components/Src/lcd.c ****   /* Send command to configure display in landscape orientation mode. By default
 257:./BSP/Components/Src/lcd.c ****   the orientation mode is portrait  */
 258:./BSP/Components/Src/lcd.c ****   if(orientation == OTM8009A_ORIENTATION_LANDSCAPE)
 1092              		.loc 1 258 5
 1093 0738 7B68     		ldr	r3, [r7, #4]
 1094 073a 012B     		cmp	r3, #1
 1095 073c 1FD1     		bne	.L5
 1096              	.LBB2:
 259:./BSP/Components/Src/lcd.c ****   {
 260:./BSP/Components/Src/lcd.c **** 	uint8_t tmp = OTM8009A_MADCTR_MODE_LANDSCAPE;
 1097              		.loc 1 260 10
 1098 073e 6023     		movs	r3, #96
 1099 0740 FB74     		strb	r3, [r7, #19]
 261:./BSP/Components/Src/lcd.c ****     object->lcd_write_reg(object, OTM8009A_CMD_MADCTR, &tmp, 0);
 1100              		.loc 1 261 11
 1101 0742 FB68     		ldr	r3, [r7, #12]
 1102 0744 D3F84441 		ldr	r4, [r3, #324]
 1103              		.loc 1 261 5
 1104 0748 07F11302 		add	r2, r7, #19
 1105 074c 0023     		movs	r3, #0
 1106 074e 3621     		movs	r1, #54
 1107 0750 F868     		ldr	r0, [r7, #12]
 1108 0752 A047     		blx	r4
ARM GAS  /tmp/ccK9zPb4.s 			page 25


 1109              	.LVL92:
 262:./BSP/Components/Src/lcd.c ****     object->lcd_write_reg(object, OTM8009A_CMD_CASET, LcdRegData27, 4);
 1110              		.loc 1 262 11
 1111 0754 FB68     		ldr	r3, [r7, #12]
 1112 0756 D3F84441 		ldr	r4, [r3, #324]
 1113              		.loc 1 262 5
 1114 075a 0423     		movs	r3, #4
 1115 075c 564A     		ldr	r2, .L14+24
 1116 075e 2A21     		movs	r1, #42
 1117 0760 F868     		ldr	r0, [r7, #12]
 1118 0762 A047     		blx	r4
 1119              	.LVL93:
 263:./BSP/Components/Src/lcd.c ****     object->lcd_write_reg(object, OTM8009A_CMD_PASET, LcdRegData28, 4);
 1120              		.loc 1 263 11
 1121 0764 FB68     		ldr	r3, [r7, #12]
 1122 0766 D3F84441 		ldr	r4, [r3, #324]
 1123              		.loc 1 263 5
 1124 076a 0423     		movs	r3, #4
 1125 076c 534A     		ldr	r2, .L14+28
 1126 076e 2B21     		movs	r1, #43
 1127 0770 F868     		ldr	r0, [r7, #12]
 1128 0772 A047     		blx	r4
 1129              	.LVL94:
 264:./BSP/Components/Src/lcd.c ****     
 265:./BSP/Components/Src/lcd.c ****     object->orientation = OTM8009A_ORIENTATION_LANDSCAPE;
 1130              		.loc 1 265 25
 1131 0774 FB68     		ldr	r3, [r7, #12]
 1132 0776 0122     		movs	r2, #1
 1133 0778 C3F83C21 		str	r2, [r3, #316]
 1134              	.LBE2:
 1135 077c 03E0     		b	.L6
 1136              	.L5:
 266:./BSP/Components/Src/lcd.c ****   }
 267:./BSP/Components/Src/lcd.c ****   else
 268:./BSP/Components/Src/lcd.c ****   {
 269:./BSP/Components/Src/lcd.c ****     object->orientation = OTM8009A_ORIENTATION_PORTRAIT;
 1137              		.loc 1 269 25
 1138 077e FB68     		ldr	r3, [r7, #12]
 1139 0780 0022     		movs	r2, #0
 1140 0782 C3F83C21 		str	r2, [r3, #316]
 1141              	.L6:
 270:./BSP/Components/Src/lcd.c ****   }
 271:./BSP/Components/Src/lcd.c ****   
 272:./BSP/Components/Src/lcd.c ****   /** CABC : Content Adaptive Backlight Control section start >> */
 273:./BSP/Components/Src/lcd.c ****   /* Note : defaut is 0 (lowest Brightness], 0xFF is highest Brightness, try 0x7F : intermediate va
 274:./BSP/Components/Src/lcd.c ****   object->lcd_write_reg(object, OTM8009A_CMD_WRDISBV, &short_reg_data[39], 0);
 1142              		.loc 1 274 9
 1143 0786 FB68     		ldr	r3, [r7, #12]
 1144 0788 D3F84441 		ldr	r4, [r3, #324]
 1145              		.loc 1 274 3
 1146 078c 0023     		movs	r3, #0
 1147 078e 4C4A     		ldr	r2, .L14+32
 1148 0790 5121     		movs	r1, #81
 1149 0792 F868     		ldr	r0, [r7, #12]
 1150 0794 A047     		blx	r4
 1151              	.LVL95:
 275:./BSP/Components/Src/lcd.c ****   /* Store default brightness */
ARM GAS  /tmp/ccK9zPb4.s 			page 26


 276:./BSP/Components/Src/lcd.c ****   object->brightness = ((uint32_t)short_reg_data[39] / 0xFFU) * 100U;
 1152              		.loc 1 276 49
 1153 0796 4B4B     		ldr	r3, .L14+36
 1154 0798 93F82730 		ldrb	r3, [r3, #39]	@ zero_extendqisi2
 1155              		.loc 1 276 54
 1156 079c 4A4A     		ldr	r2, .L14+40
 1157 079e A2FB0323 		umull	r2, r3, r2, r3
 1158 07a2 DB09     		lsrs	r3, r3, #7
 1159 07a4 DBB2     		uxtb	r3, r3
 1160 07a6 1A46     		mov	r2, r3
 1161              		.loc 1 276 63
 1162 07a8 6423     		movs	r3, #100
 1163 07aa 03FB02F2 		mul	r2, r3, r2
 1164              		.loc 1 276 22
 1165 07ae FB68     		ldr	r3, [r7, #12]
 1166 07b0 C3F84021 		str	r2, [r3, #320]
 277:./BSP/Components/Src/lcd.c ****   
 278:./BSP/Components/Src/lcd.c ****   /* defaut is 0, try 0x2C - Brightness Control Block, Display Dimming & BackLight on */
 279:./BSP/Components/Src/lcd.c ****   object->lcd_write_reg(object, OTM8009A_CMD_WRCTRLD, &short_reg_data[40], 0);
 1167              		.loc 1 279 9
 1168 07b4 FB68     		ldr	r3, [r7, #12]
 1169 07b6 D3F84441 		ldr	r4, [r3, #324]
 1170              		.loc 1 279 3
 1171 07ba 0023     		movs	r3, #0
 1172 07bc 434A     		ldr	r2, .L14+44
 1173 07be 5321     		movs	r1, #83
 1174 07c0 F868     		ldr	r0, [r7, #12]
 1175 07c2 A047     		blx	r4
 1176              	.LVL96:
 280:./BSP/Components/Src/lcd.c ****   
 281:./BSP/Components/Src/lcd.c ****   /* defaut is 0, try 0x02 - image Content based Adaptive Brightness [Still Picture] */
 282:./BSP/Components/Src/lcd.c ****   object->lcd_write_reg(object, OTM8009A_CMD_WRCABC, &short_reg_data[41], 0);
 1177              		.loc 1 282 9
 1178 07c4 FB68     		ldr	r3, [r7, #12]
 1179 07c6 D3F84441 		ldr	r4, [r3, #324]
 1180              		.loc 1 282 3
 1181 07ca 0023     		movs	r3, #0
 1182 07cc 404A     		ldr	r2, .L14+48
 1183 07ce 5521     		movs	r1, #85
 1184 07d0 F868     		ldr	r0, [r7, #12]
 1185 07d2 A047     		blx	r4
 1186              	.LVL97:
 283:./BSP/Components/Src/lcd.c ****   
 284:./BSP/Components/Src/lcd.c ****   /* defaut is 0 (lowest Brightness], 0xFF is highest Brightness */
 285:./BSP/Components/Src/lcd.c ****   object->lcd_write_reg(object, OTM8009A_CMD_WRCABCMB, &short_reg_data[42], 0);
 1187              		.loc 1 285 9
 1188 07d4 FB68     		ldr	r3, [r7, #12]
 1189 07d6 D3F84441 		ldr	r4, [r3, #324]
 1190              		.loc 1 285 3
 1191 07da 0023     		movs	r3, #0
 1192 07dc 3D4A     		ldr	r2, .L14+52
 1193 07de 5E21     		movs	r1, #94
 1194 07e0 F868     		ldr	r0, [r7, #12]
 1195 07e2 A047     		blx	r4
 1196              	.LVL98:
 286:./BSP/Components/Src/lcd.c ****   
 287:./BSP/Components/Src/lcd.c ****   /** CABC : Content Adaptive Backlight Control section end << */
ARM GAS  /tmp/ccK9zPb4.s 			page 27


 288:./BSP/Components/Src/lcd.c ****   
 289:./BSP/Components/Src/lcd.c ****   /* Send Command Display On */
 290:./BSP/Components/Src/lcd.c ****   object->lcd_write_reg(object, OTM8009A_CMD_DISPON, &short_reg_data[43], 0);
 1197              		.loc 1 290 9
 1198 07e4 FB68     		ldr	r3, [r7, #12]
 1199 07e6 D3F84441 		ldr	r4, [r3, #324]
 1200              		.loc 1 290 3
 1201 07ea 0023     		movs	r3, #0
 1202 07ec 3A4A     		ldr	r2, .L14+56
 1203 07ee 2921     		movs	r1, #41
 1204 07f0 F868     		ldr	r0, [r7, #12]
 1205 07f2 A047     		blx	r4
 1206              	.LVL99:
 291:./BSP/Components/Src/lcd.c ****   
 292:./BSP/Components/Src/lcd.c ****   /* NOP command */
 293:./BSP/Components/Src/lcd.c ****   object->lcd_write_reg(object, OTM8009A_CMD_NOP, &short_reg_data[1], 0);
 1207              		.loc 1 293 9
 1208 07f4 FB68     		ldr	r3, [r7, #12]
 1209 07f6 D3F84441 		ldr	r4, [r3, #324]
 1210              		.loc 1 293 3
 1211 07fa 0023     		movs	r3, #0
 1212 07fc 284A     		ldr	r2, .L14
 1213 07fe 0021     		movs	r1, #0
 1214 0800 F868     		ldr	r0, [r7, #12]
 1215 0802 A047     		blx	r4
 1216              	.LVL100:
 294:./BSP/Components/Src/lcd.c ****   
 295:./BSP/Components/Src/lcd.c ****   /* Send Command GRAM memory write (no parameters) : this initiates frame write via other DSI comm
 296:./BSP/Components/Src/lcd.c ****   /* DSI host from LTDC incoming pixels in video mode */
 297:./BSP/Components/Src/lcd.c ****   object->lcd_write_reg(object, OTM8009A_CMD_RAMWR, &short_reg_data[44], 0);
 1217              		.loc 1 297 9
 1218 0804 FB68     		ldr	r3, [r7, #12]
 1219 0806 D3F84441 		ldr	r4, [r3, #324]
 1220              		.loc 1 297 3
 1221 080a 0023     		movs	r3, #0
 1222 080c 334A     		ldr	r2, .L14+60
 1223 080e 2C21     		movs	r1, #44
 1224 0810 F868     		ldr	r0, [r7, #12]
 1225 0812 A047     		blx	r4
 1226              	.LVL101:
 298:./BSP/Components/Src/lcd.c **** 
 299:./BSP/Components/Src/lcd.c ****   /* Configure the audio driver */
 300:./BSP/Components/Src/lcd.c ****   HAL_DSI_ShortWrite(&object->dsi_object.hdsi, 0, DSI_DCS_SHORT_PKT_WRITE_P1, OTM8009A_CMD_DISPOFF,
 1227              		.loc 1 300 3
 1228 0814 FB68     		ldr	r3, [r7, #12]
 1229 0816 03F16800 		add	r0, r3, #104
 1230 081a 0023     		movs	r3, #0
 1231 081c 0093     		str	r3, [sp]
 1232 081e 2823     		movs	r3, #40
 1233 0820 1522     		movs	r2, #21
 1234 0822 0021     		movs	r1, #0
 1235 0824 FFF7FEFF 		bl	HAL_DSI_ShortWrite
 301:./BSP/Components/Src/lcd.c **** 
 302:./BSP/Components/Src/lcd.c ****   DSI_LPCmdTypeDef LPCmd = {0};
 1236              		.loc 1 302 20
 1237 0828 07F11403 		add	r3, r7, #20
 1238 082c 3422     		movs	r2, #52
ARM GAS  /tmp/ccK9zPb4.s 			page 28


 1239 082e 0021     		movs	r1, #0
 1240 0830 1846     		mov	r0, r3
 1241 0832 FFF7FEFF 		bl	memset
 303:./BSP/Components/Src/lcd.c **** 
 304:./BSP/Components/Src/lcd.c ****   LPCmd.LPGenShortWriteNoP = DSI_LP_GSW0P_DISABLE;
 1242              		.loc 1 304 28
 1243 0836 0023     		movs	r3, #0
 1244 0838 7B61     		str	r3, [r7, #20]
 305:./BSP/Components/Src/lcd.c ****   LPCmd.LPGenShortWriteOneP = DSI_LP_GSW1P_DISABLE;
 1245              		.loc 1 305 29
 1246 083a 0023     		movs	r3, #0
 1247 083c BB61     		str	r3, [r7, #24]
 306:./BSP/Components/Src/lcd.c ****   LPCmd.LPGenShortWriteTwoP = DSI_LP_GSW2P_DISABLE;
 1248              		.loc 1 306 29
 1249 083e 0023     		movs	r3, #0
 1250 0840 FB61     		str	r3, [r7, #28]
 307:./BSP/Components/Src/lcd.c ****   LPCmd.LPGenShortReadNoP = DSI_LP_GSR0P_DISABLE;
 1251              		.loc 1 307 27
 1252 0842 0023     		movs	r3, #0
 1253 0844 3B62     		str	r3, [r7, #32]
 308:./BSP/Components/Src/lcd.c ****   LPCmd.LPGenShortReadOneP = DSI_LP_GSR1P_DISABLE;
 1254              		.loc 1 308 28
 1255 0846 0023     		movs	r3, #0
 1256 0848 7B62     		str	r3, [r7, #36]
 309:./BSP/Components/Src/lcd.c ****   LPCmd.LPGenShortReadTwoP = DSI_LP_GSR2P_DISABLE;
 1257              		.loc 1 309 28
 1258 084a 0023     		movs	r3, #0
 1259 084c BB62     		str	r3, [r7, #40]
 310:./BSP/Components/Src/lcd.c ****   LPCmd.LPGenLongWrite = DSI_LP_GLW_DISABLE;
 1260              		.loc 1 310 24
 1261 084e 0023     		movs	r3, #0
 1262 0850 FB62     		str	r3, [r7, #44]
 311:./BSP/Components/Src/lcd.c ****   LPCmd.LPDcsShortWriteNoP = DSI_LP_DSW0P_DISABLE;
 1263              		.loc 1 311 28
 1264 0852 0023     		movs	r3, #0
 1265 0854 3B63     		str	r3, [r7, #48]
 312:./BSP/Components/Src/lcd.c ****   LPCmd.LPDcsShortWriteOneP = DSI_LP_DSW1P_DISABLE;
 1266              		.loc 1 312 29
 1267 0856 0023     		movs	r3, #0
 1268 0858 7B63     		str	r3, [r7, #52]
 313:./BSP/Components/Src/lcd.c ****   LPCmd.LPDcsShortReadNoP = DSI_LP_DSR0P_DISABLE;
 1269              		.loc 1 313 27
 1270 085a 0023     		movs	r3, #0
 1271 085c BB63     		str	r3, [r7, #56]
 314:./BSP/Components/Src/lcd.c ****   LPCmd.LPDcsLongWrite = DSI_LP_DLW_DISABLE;
 1272              		.loc 1 314 24
 1273 085e 0023     		movs	r3, #0
 1274 0860 FB63     		str	r3, [r7, #60]
 315:./BSP/Components/Src/lcd.c ****   HAL_DSI_ConfigCommand(&object->dsi_object.hdsi, &LPCmd);
 1275              		.loc 1 315 3
 1276 0862 FB68     		ldr	r3, [r7, #12]
 1277 0864 6833     		adds	r3, r3, #104
 1278 0866 07F11402 		add	r2, r7, #20
 1279 086a 1146     		mov	r1, r2
 1280 086c 1846     		mov	r0, r3
 1281 086e FFF7FEFF 		bl	HAL_DSI_ConfigCommand
 316:./BSP/Components/Src/lcd.c **** 
ARM GAS  /tmp/ccK9zPb4.s 			page 29


 317:./BSP/Components/Src/lcd.c ****   HAL_LTDC_SetPitch(&object->dsi_object.hltdc, 800, 0);
 1282              		.loc 1 317 3
 1283 0872 FB68     		ldr	r3, [r7, #12]
 1284 0874 8433     		adds	r3, r3, #132
 1285 0876 0022     		movs	r2, #0
 1286 0878 4FF44871 		mov	r1, #800
 1287 087c 1846     		mov	r0, r3
 1288 087e FFF7FEFF 		bl	HAL_LTDC_SetPitch
 318:./BSP/Components/Src/lcd.c ****   __HAL_LTDC_ENABLE(&object->dsi_object.hltdc);
 1289              		.loc 1 318 3
 1290 0882 FB68     		ldr	r3, [r7, #12]
 1291 0884 D3F88430 		ldr	r3, [r3, #132]
 1292 0888 9A69     		ldr	r2, [r3, #24]
 1293 088a FB68     		ldr	r3, [r7, #12]
 1294 088c D3F88430 		ldr	r3, [r3, #132]
 1295 0890 42F00102 		orr	r2, r2, #1
 1296 0894 9A61     		str	r2, [r3, #24]
 319:./BSP/Components/Src/lcd.c **** }
 1297              		.loc 1 319 1
 1298 0896 00BF     		nop
 1299 0898 4C37     		adds	r7, r7, #76
 1300              	.LCFI3:
 1301              		.cfi_def_cfa_offset 12
 1302 089a BD46     		mov	sp, r7
 1303              	.LCFI4:
 1304              		.cfi_def_cfa_register 13
 1305              		@ sp needed
 1306 089c 90BD     		pop	{r4, r7, pc}
 1307              	.L15:
 1308 089e 00BF     		.align	2
 1309              	.L14:
 1310 08a0 01000000 		.word	short_reg_data.16592+1
 1311 08a4 00000000 		.word	lcd_reg_data3.16567
 1312 08a8 00000000 		.word	lcd_reg_data4.16568
 1313 08ac 24000000 		.word	short_reg_data.16592+36
 1314 08b0 25000000 		.word	short_reg_data.16592+37
 1315 08b4 26000000 		.word	short_reg_data.16592+38
 1316 08b8 00000000 		.word	LcdRegData27.16590
 1317 08bc 00000000 		.word	LcdRegData28.16591
 1318 08c0 27000000 		.word	short_reg_data.16592+39
 1319 08c4 00000000 		.word	short_reg_data.16592
 1320 08c8 81808080 		.word	-2139062143
 1321 08cc 28000000 		.word	short_reg_data.16592+40
 1322 08d0 29000000 		.word	short_reg_data.16592+41
 1323 08d4 2A000000 		.word	short_reg_data.16592+42
 1324 08d8 2B000000 		.word	short_reg_data.16592+43
 1325 08dc 2C000000 		.word	short_reg_data.16592+44
 1326              		.cfi_endproc
 1327              	.LFE338:
 1329              		.section	.text.LCD_write_reg,"ax",%progbits
 1330              		.align	1
 1331              		.global	LCD_write_reg
 1332              		.syntax unified
 1333              		.thumb
 1334              		.thumb_func
 1335              		.fpu fpv5-d16
 1337              	LCD_write_reg:
ARM GAS  /tmp/ccK9zPb4.s 			page 30


 1338              	.LFB339:
 320:./BSP/Components/Src/lcd.c **** 
 321:./BSP/Components/Src/lcd.c **** void LCD_write_reg(lcd_objectTypeDef *object,uint16_t reg, uint8_t *data, uint16_t length)
 322:./BSP/Components/Src/lcd.c **** {
 1339              		.loc 1 322 1
 1340              		.cfi_startproc
 1341              		@ args = 0, pretend = 0, frame = 16
 1342              		@ frame_needed = 1, uses_anonymous_args = 0
 1343 0000 90B5     		push	{r4, r7, lr}
 1344              	.LCFI5:
 1345              		.cfi_def_cfa_offset 12
 1346              		.cfi_offset 4, -12
 1347              		.cfi_offset 7, -8
 1348              		.cfi_offset 14, -4
 1349 0002 87B0     		sub	sp, sp, #28
 1350              	.LCFI6:
 1351              		.cfi_def_cfa_offset 40
 1352 0004 02AF     		add	r7, sp, #8
 1353              	.LCFI7:
 1354              		.cfi_def_cfa 7, 32
 1355 0006 F860     		str	r0, [r7, #12]
 1356 0008 7A60     		str	r2, [r7, #4]
 1357 000a 1A46     		mov	r2, r3
 1358 000c 0B46     		mov	r3, r1	@ movhi
 1359 000e 7B81     		strh	r3, [r7, #10]	@ movhi
 1360 0010 1346     		mov	r3, r2	@ movhi
 1361 0012 3B81     		strh	r3, [r7, #8]	@ movhi
 323:./BSP/Components/Src/lcd.c ****   object->dsi_object.dsi_IO_write(&object->dsi_object,0,reg,data,length);
 1362              		.loc 1 323 21
 1363 0014 FB68     		ldr	r3, [r7, #12]
 1364 0016 D3F83041 		ldr	r4, [r3, #304]
 1365              		.loc 1 323 35
 1366 001a F868     		ldr	r0, [r7, #12]
 1367              		.loc 1 323 3
 1368 001c 7A89     		ldrh	r2, [r7, #10]
 1369 001e 3B89     		ldrh	r3, [r7, #8]
 1370 0020 0093     		str	r3, [sp]
 1371 0022 7B68     		ldr	r3, [r7, #4]
 1372 0024 0021     		movs	r1, #0
 1373 0026 A047     		blx	r4
 1374              	.LVL102:
 324:./BSP/Components/Src/lcd.c **** }
 1375              		.loc 1 324 1
 1376 0028 00BF     		nop
 1377 002a 1437     		adds	r7, r7, #20
 1378              	.LCFI8:
 1379              		.cfi_def_cfa_offset 12
 1380 002c BD46     		mov	sp, r7
 1381              	.LCFI9:
 1382              		.cfi_def_cfa_register 13
 1383              		@ sp needed
 1384 002e 90BD     		pop	{r4, r7, pc}
 1385              		.cfi_endproc
 1386              	.LFE339:
 1388              		.section	.text.LCD_read_reg,"ax",%progbits
 1389              		.align	1
 1390              		.global	LCD_read_reg
ARM GAS  /tmp/ccK9zPb4.s 			page 31


 1391              		.syntax unified
 1392              		.thumb
 1393              		.thumb_func
 1394              		.fpu fpv5-d16
 1396              	LCD_read_reg:
 1397              	.LFB340:
 325:./BSP/Components/Src/lcd.c **** 
 326:./BSP/Components/Src/lcd.c **** void LCD_read_reg(lcd_objectTypeDef *object,uint16_t reg, uint8_t *data, uint16_t length)
 327:./BSP/Components/Src/lcd.c **** {
 1398              		.loc 1 327 1
 1399              		.cfi_startproc
 1400              		@ args = 0, pretend = 0, frame = 16
 1401              		@ frame_needed = 1, uses_anonymous_args = 0
 1402 0000 90B5     		push	{r4, r7, lr}
 1403              	.LCFI10:
 1404              		.cfi_def_cfa_offset 12
 1405              		.cfi_offset 4, -12
 1406              		.cfi_offset 7, -8
 1407              		.cfi_offset 14, -4
 1408 0002 87B0     		sub	sp, sp, #28
 1409              	.LCFI11:
 1410              		.cfi_def_cfa_offset 40
 1411 0004 02AF     		add	r7, sp, #8
 1412              	.LCFI12:
 1413              		.cfi_def_cfa 7, 32
 1414 0006 F860     		str	r0, [r7, #12]
 1415 0008 7A60     		str	r2, [r7, #4]
 1416 000a 1A46     		mov	r2, r3
 1417 000c 0B46     		mov	r3, r1	@ movhi
 1418 000e 7B81     		strh	r3, [r7, #10]	@ movhi
 1419 0010 1346     		mov	r3, r2	@ movhi
 1420 0012 3B81     		strh	r3, [r7, #8]	@ movhi
 328:./BSP/Components/Src/lcd.c ****   object->dsi_object.dsi_IO_read(&object->dsi_object,0,reg,data,length);
 1421              		.loc 1 328 21
 1422 0014 FB68     		ldr	r3, [r7, #12]
 1423 0016 D3F83441 		ldr	r4, [r3, #308]
 1424              		.loc 1 328 34
 1425 001a F868     		ldr	r0, [r7, #12]
 1426              		.loc 1 328 3
 1427 001c 7A89     		ldrh	r2, [r7, #10]
 1428 001e 3B89     		ldrh	r3, [r7, #8]
 1429 0020 0093     		str	r3, [sp]
 1430 0022 7B68     		ldr	r3, [r7, #4]
 1431 0024 0021     		movs	r1, #0
 1432 0026 A047     		blx	r4
 1433              	.LVL103:
 329:./BSP/Components/Src/lcd.c **** }...
 1434              		.loc 1 329 1
 1435 0028 00BF     		nop
 1436 002a 1437     		adds	r7, r7, #20
 1437              	.LCFI13:
 1438              		.cfi_def_cfa_offset 12
 1439 002c BD46     		mov	sp, r7
 1440              	.LCFI14:
 1441              		.cfi_def_cfa_register 13
 1442              		@ sp needed
 1443 002e 90BD     		pop	{r4, r7, pc}
ARM GAS  /tmp/ccK9zPb4.s 			page 32


 1444              		.cfi_endproc
 1445              	.LFE340:
 1447              		.section	.rodata.short_reg_data.16592,"a"
 1448              		.align	2
 1451              	short_reg_data.16592:
 1452 0000 00008030 		.ascii	"\000\000\2000\212@\261\251\2214\264PN\201f\241\010\222"
 1452      8A40B1A9 
 1452      9134B450 
 1452      4E8166A1 
 1452      0892
 1453 0012 01959433 		.ascii	"\001\225\2243\243\033\202\203\203\016\246\240\260\300"
 1453      A31B8283 
 1453      830EA6A0 
 1453      B0C0
 1454 0020 D090E0F0 		.ascii	"\320\220\340\360\000Uw\177,\002\377\000\000\000f\266"
 1454      0055777F 
 1454      2C02FF00 
 1454      000066B6 
 1455 0030 06B106   		.ascii	"\006\261\006"
 1456              		.section	.rodata.lcd_reg_data1.16565,"a"
 1457              		.align	2
 1460              	lcd_reg_data1.16565:
 1461 0000 800901   		.ascii	"\200\011\001"
 1462              		.section	.rodata.lcd_reg_data2.16566,"a"
 1463              		.align	2
 1466              	lcd_reg_data2.16566:
 1467 0000 8009     		.ascii	"\200\011"
 1468              		.section	.rodata.lcd_reg_data5.16569,"a"
 1469              		.align	2
 1472              	lcd_reg_data5.16569:
 1473 0000 7979     		.ascii	"yy"
 1474              		.section	.rodata.lcd_reg_data6.16570,"a"
 1475              		.align	2
 1478              	lcd_reg_data6.16570:
 1479 0000 0001     		.ascii	"\000\001"
 1480              		.section	.rodata.lcd_reg_data7.16571,"a"
 1481              		.align	2
 1484              	lcd_reg_data7.16571:
 1485 0000 85010084 		.ascii	"\205\001\000\204\001\000"
 1485      0100
 1486              		.section	.rodata.lcd_reg_data8.16572,"a"
 1487              		.align	2
 1490              	lcd_reg_data8.16572:
 1491 0000 18040339 		.ascii	"\030\004\0039\000\000\000\030\003\003:\000\000\000"
 1491      00000018 
 1491      03033A00 
 1491      0000
 1492              		.section	.rodata.lcd_reg_data9.16573,"a"
 1493              		.align	2
 1496              	lcd_reg_data9.16573:
 1497 0000 1802033B 		.ascii	"\030\002\003;\000\000\000\030\001\003<\000\000\000"
 1497      00000018 
 1497      01033C00 
 1497      0000
 1498              		.section	.rodata.lcd_reg_data10.16574,"a"
 1499              		.align	2
 1502              	lcd_reg_data10.16574:
ARM GAS  /tmp/ccK9zPb4.s 			page 33


 1503 0000 01012020 		.ascii	"\001\001  \000\000\001\002\000\000"
 1503      00000102 
 1503      0000
 1504              		.section	.rodata.lcd_reg_data11.16575,"a"
 1505              		.align	2
 1508              	lcd_reg_data11.16575:
 1509 0000 00000000 		.space	10
 1509      00000000 
 1509      0000
 1510              		.section	.rodata.lcd_reg_data12.16576,"a"
 1511              		.align	2
 1514              	lcd_reg_data12.16576:
 1515 0000 00000000 		.space	15
 1515      00000000 
 1515      00000000 
 1515      000000
 1516              		.section	.rodata.lcd_reg_data13.16577,"a"
 1517              		.align	2
 1520              	lcd_reg_data13.16577:
 1521 0000 00000000 		.space	15
 1521      00000000 
 1521      00000000 
 1521      000000
 1522              		.section	.rodata.lcd_reg_data14.16578,"a"
 1523              		.align	2
 1526              	lcd_reg_data14.16578:
 1527 0000 00000000 		.space	10
 1527      00000000 
 1527      0000
 1528              		.section	.rodata.lcd_reg_data15.16579,"a"
 1529              		.align	2
 1532              	lcd_reg_data15.16579:
 1533 0000 00040404 		.ascii	"\000\004\004\004\004\004\000\000\000\000\000\000\000"
 1533      04040000 
 1533      00000000 
 1533      00
 1534 000d 0000     		.ascii	"\000\000"
 1535              		.section	.rodata.lcd_reg_data16.16580,"a"
 1536              		.align	2
 1539              	lcd_reg_data16.16580:
 1540 0000 00000000 		.ascii	"\000\000\000\000\000\000\004\004\004\004\004\000\000"
 1540      00000404 
 1540      04040400 
 1540      00
 1541 000d 0000     		.ascii	"\000\000"
 1542              		.section	.rodata.lcd_reg_data17.16581,"a"
 1543              		.align	2
 1546              	lcd_reg_data17.16581:
 1547 0000 00000000 		.space	10
 1547      00000000 
 1547      0000
 1548              		.section	.rodata.lcd_reg_data18.16582,"a"
 1549              		.align	2
 1552              	lcd_reg_data18.16582:
 1553 0000 FFFFFFFF 		.ascii	"\377\377\377\377\377\377\377\377\377\377"
 1553      FFFFFFFF 
 1553      FFFF
ARM GAS  /tmp/ccK9zPb4.s 			page 34


 1554              		.section	.rodata.lcd_reg_data19.16583,"a"
 1555              		.align	2
 1558              	lcd_reg_data19.16583:
 1559 0000 0026090B 		.ascii	"\000&\011\013\001%\000\000\000\000"
 1559      01250000 
 1559      0000
 1560              		.section	.rodata.lcd_reg_data20.16584,"a"
 1561              		.align	2
 1564              	lcd_reg_data20.16584:
 1565 0000 00000000 		.ascii	"\000\000\000\000\000\000\000\000\000\000\000&\012\014"
 1565      00000000 
 1565      00000026 
 1565      0A0C
 1566 000e 02       		.ascii	"\002"
 1567              		.section	.rodata.lcd_reg_data21.16585,"a"
 1568              		.align	2
 1571              	lcd_reg_data21.16585:
 1572 0000 25000000 		.ascii	"%\000\000\000\000\000\000\000\000\000\000\000\000\000"
 1572      00000000 
 1572      00000000 
 1572      0000
 1573 000e 00       		.ascii	"\000"
 1574              		.section	.rodata.lcd_reg_data22.16586,"a"
 1575              		.align	2
 1578              	lcd_reg_data22.16586:
 1579 0000 00250C0A 		.ascii	"\000%\014\012\002&\000\000\000\000"
 1579      02260000 
 1579      0000
 1580              		.section	.rodata.lcd_reg_data23.16587,"a"
 1581              		.align	2
 1584              	lcd_reg_data23.16587:
 1585 0000 00000000 		.ascii	"\000\000\000\000\000\000\000\000\000\000\000%\013\011"
 1585      00000000 
 1585      00000025 
 1585      0B09
 1586 000e 01       		.ascii	"\001"
 1587              		.section	.rodata.lcd_reg_data24.16588,"a"
 1588              		.align	2
 1591              	lcd_reg_data24.16588:
 1592 0000 26000000 		.ascii	"&\000\000\000\000\000\000\000\000\000\000\000\000\000"
 1592      00000000 
 1592      00000000 
 1592      0000
 1593 000e 00       		.ascii	"\000"
 1594              		.section	.rodata.lcd_reg_data25.16589,"a"
 1595              		.align	2
 1598              	lcd_reg_data25.16589:
 1599 0000 FFFFFF   		.ascii	"\377\377\377"
 1600              		.section	.rodata.lcd_reg_data3.16567,"a"
 1601              		.align	2
 1604              	lcd_reg_data3.16567:
 1605 0000 00090F0E 		.ascii	"\000\011\017\016\007\020\013\012\004\007\013\010\017"
 1605      07100B0A 
 1605      04070B08 
 1605      0F
 1606 000d 100A01   		.ascii	"\020\012\001"
 1607              		.section	.rodata.lcd_reg_data4.16568,"a"
ARM GAS  /tmp/ccK9zPb4.s 			page 35


 1608              		.align	2
 1611              	lcd_reg_data4.16568:
 1612 0000 00090F0E 		.ascii	"\000\011\017\016\007\020\013\012\004\007\013\010\017"
 1612      07100B0A 
 1612      04070B08 
 1612      0F
 1613 000d 100A01   		.ascii	"\020\012\001"
 1614              		.section	.rodata.LcdRegData27.16590,"a"
 1615              		.align	2
 1618              	LcdRegData27.16590:
 1619 0000 0000031F 		.ascii	"\000\000\003\037"
 1620              		.section	.rodata.LcdRegData28.16591,"a"
 1621              		.align	2
 1624              	LcdRegData28.16591:
 1625 0000 000001DF 		.ascii	"\000\000\001\337"
 1626              		.text
 1627              	.Letext0:
 1628              		.file 2 "/usr/lib/gcc/arm-none-eabi/9.2.1/include/stdint.h"
 1629              		.file 3 "./Libraries/CMSIS/Core/Include/core_cm7.h"
 1630              		.file 4 "./Libraries/CMSIS/Device/ST/STM32H7xx/Include/system_stm32h7xx.h"
 1631              		.file 5 "./Libraries/CMSIS/Device/ST/STM32H7xx/Include/stm32h747xx.h"
 1632              		.file 6 "/usr/lib/gcc/arm-none-eabi/9.2.1/include/stddef.h"
 1633              		.file 7 "/usr/include/newlib/sys/_types.h"
 1634              		.file 8 "/usr/include/newlib/sys/reent.h"
 1635              		.file 9 "/usr/include/newlib/sys/lock.h"
 1636              		.file 10 "/usr/include/newlib/math.h"
 1637              		.file 11 "./Libraries/STM32H7xx_HAL_Driver/Inc/stm32h7xx_hal_def.h"
 1638              		.file 12 "./Libraries/STM32H7xx_HAL_Driver/Inc/stm32h7xx_hal_dma2d.h"
 1639              		.file 13 "./Libraries/STM32H7xx_HAL_Driver/Inc/stm32h7xx_hal_dsi.h"
 1640              		.file 14 "./Libraries/STM32H7xx_HAL_Driver/Inc/stm32h7xx_hal_flash.h"
 1641              		.file 15 "./Libraries/STM32H7xx_HAL_Driver/Inc/stm32h7xx_hal_ltdc.h"
 1642              		.file 16 "./Libraries/STM32H7xx_HAL_Driver/Inc/stm32h7xx_hal_uart.h"
 1643              		.file 17 "./Libraries/STM32H7xx_HAL_Driver/Inc/stm32h7xx_hal.h"
 1644              		.file 18 "/usr/include/newlib/stdlib.h"
 1645              		.file 19 "./BSP/Components/Src/../../Components/Inc/../../Hardware/Inc/ltdc_dsi.h"
 1646              		.file 20 "./BSP/Components/Src/../../Components/Inc/lcd.h"
ARM GAS  /tmp/ccK9zPb4.s 			page 36


DEFINED SYMBOLS
                            *ABS*:0000000000000000 lcd.c
     /tmp/ccK9zPb4.s:17     .text.lcd_init:0000000000000000 $t
     /tmp/ccK9zPb4.s:25     .text.lcd_init:0000000000000000 lcd_init
     /tmp/ccK9zPb4.s:479    .text.lcd_init:00000000000002c4 $d
     /tmp/ccK9zPb4.s:1337   .text.LCD_write_reg:0000000000000000 LCD_write_reg
     /tmp/ccK9zPb4.s:1396   .text.LCD_read_reg:0000000000000000 LCD_read_reg
     /tmp/ccK9zPb4.s:1451   .rodata.short_reg_data.16592:0000000000000000 short_reg_data.16592
     /tmp/ccK9zPb4.s:1460   .rodata.lcd_reg_data1.16565:0000000000000000 lcd_reg_data1.16565
     /tmp/ccK9zPb4.s:1466   .rodata.lcd_reg_data2.16566:0000000000000000 lcd_reg_data2.16566
     /tmp/ccK9zPb4.s:1472   .rodata.lcd_reg_data5.16569:0000000000000000 lcd_reg_data5.16569
     /tmp/ccK9zPb4.s:1478   .rodata.lcd_reg_data6.16570:0000000000000000 lcd_reg_data6.16570
     /tmp/ccK9zPb4.s:1484   .rodata.lcd_reg_data7.16571:0000000000000000 lcd_reg_data7.16571
     /tmp/ccK9zPb4.s:517    .text.lcd_init:0000000000000354 $t
     /tmp/ccK9zPb4.s:947    .text.lcd_init:0000000000000604 $d
     /tmp/ccK9zPb4.s:1490   .rodata.lcd_reg_data8.16572:0000000000000000 lcd_reg_data8.16572
     /tmp/ccK9zPb4.s:1496   .rodata.lcd_reg_data9.16573:0000000000000000 lcd_reg_data9.16573
     /tmp/ccK9zPb4.s:1502   .rodata.lcd_reg_data10.16574:0000000000000000 lcd_reg_data10.16574
     /tmp/ccK9zPb4.s:1508   .rodata.lcd_reg_data11.16575:0000000000000000 lcd_reg_data11.16575
     /tmp/ccK9zPb4.s:1514   .rodata.lcd_reg_data12.16576:0000000000000000 lcd_reg_data12.16576
     /tmp/ccK9zPb4.s:1520   .rodata.lcd_reg_data13.16577:0000000000000000 lcd_reg_data13.16577
     /tmp/ccK9zPb4.s:1526   .rodata.lcd_reg_data14.16578:0000000000000000 lcd_reg_data14.16578
     /tmp/ccK9zPb4.s:1532   .rodata.lcd_reg_data15.16579:0000000000000000 lcd_reg_data15.16579
     /tmp/ccK9zPb4.s:1539   .rodata.lcd_reg_data16.16580:0000000000000000 lcd_reg_data16.16580
     /tmp/ccK9zPb4.s:1546   .rodata.lcd_reg_data17.16581:0000000000000000 lcd_reg_data17.16581
     /tmp/ccK9zPb4.s:1552   .rodata.lcd_reg_data18.16582:0000000000000000 lcd_reg_data18.16582
     /tmp/ccK9zPb4.s:1558   .rodata.lcd_reg_data19.16583:0000000000000000 lcd_reg_data19.16583
     /tmp/ccK9zPb4.s:1564   .rodata.lcd_reg_data20.16584:0000000000000000 lcd_reg_data20.16584
     /tmp/ccK9zPb4.s:1571   .rodata.lcd_reg_data21.16585:0000000000000000 lcd_reg_data21.16585
     /tmp/ccK9zPb4.s:1578   .rodata.lcd_reg_data22.16586:0000000000000000 lcd_reg_data22.16586
     /tmp/ccK9zPb4.s:1584   .rodata.lcd_reg_data23.16587:0000000000000000 lcd_reg_data23.16587
     /tmp/ccK9zPb4.s:1591   .rodata.lcd_reg_data24.16588:0000000000000000 lcd_reg_data24.16588
     /tmp/ccK9zPb4.s:1598   .rodata.lcd_reg_data25.16589:0000000000000000 lcd_reg_data25.16589
     /tmp/ccK9zPb4.s:982    .text.lcd_init:000000000000068c $t
     /tmp/ccK9zPb4.s:1310   .text.lcd_init:00000000000008a0 $d
     /tmp/ccK9zPb4.s:1604   .rodata.lcd_reg_data3.16567:0000000000000000 lcd_reg_data3.16567
     /tmp/ccK9zPb4.s:1611   .rodata.lcd_reg_data4.16568:0000000000000000 lcd_reg_data4.16568
     /tmp/ccK9zPb4.s:1618   .rodata.LcdRegData27.16590:0000000000000000 LcdRegData27.16590
     /tmp/ccK9zPb4.s:1624   .rodata.LcdRegData28.16591:0000000000000000 LcdRegData28.16591
     /tmp/ccK9zPb4.s:1330   .text.LCD_write_reg:0000000000000000 $t
     /tmp/ccK9zPb4.s:1389   .text.LCD_read_reg:0000000000000000 $t
     /tmp/ccK9zPb4.s:1448   .rodata.short_reg_data.16592:0000000000000000 $d
     /tmp/ccK9zPb4.s:1457   .rodata.lcd_reg_data1.16565:0000000000000000 $d
     /tmp/ccK9zPb4.s:1463   .rodata.lcd_reg_data2.16566:0000000000000000 $d
     /tmp/ccK9zPb4.s:1469   .rodata.lcd_reg_data5.16569:0000000000000000 $d
     /tmp/ccK9zPb4.s:1475   .rodata.lcd_reg_data6.16570:0000000000000000 $d
     /tmp/ccK9zPb4.s:1481   .rodata.lcd_reg_data7.16571:0000000000000000 $d
     /tmp/ccK9zPb4.s:1487   .rodata.lcd_reg_data8.16572:0000000000000000 $d
     /tmp/ccK9zPb4.s:1493   .rodata.lcd_reg_data9.16573:0000000000000000 $d
     /tmp/ccK9zPb4.s:1499   .rodata.lcd_reg_data10.16574:0000000000000000 $d
     /tmp/ccK9zPb4.s:1505   .rodata.lcd_reg_data11.16575:0000000000000000 $d
     /tmp/ccK9zPb4.s:1511   .rodata.lcd_reg_data12.16576:0000000000000000 $d
     /tmp/ccK9zPb4.s:1517   .rodata.lcd_reg_data13.16577:0000000000000000 $d
     /tmp/ccK9zPb4.s:1523   .rodata.lcd_reg_data14.16578:0000000000000000 $d
     /tmp/ccK9zPb4.s:1529   .rodata.lcd_reg_data15.16579:0000000000000000 $d
     /tmp/ccK9zPb4.s:1536   .rodata.lcd_reg_data16.16580:0000000000000000 $d
     /tmp/ccK9zPb4.s:1543   .rodata.lcd_reg_data17.16581:0000000000000000 $d
ARM GAS  /tmp/ccK9zPb4.s 			page 37


     /tmp/ccK9zPb4.s:1549   .rodata.lcd_reg_data18.16582:0000000000000000 $d
     /tmp/ccK9zPb4.s:1555   .rodata.lcd_reg_data19.16583:0000000000000000 $d
     /tmp/ccK9zPb4.s:1561   .rodata.lcd_reg_data20.16584:0000000000000000 $d
     /tmp/ccK9zPb4.s:1568   .rodata.lcd_reg_data21.16585:0000000000000000 $d
     /tmp/ccK9zPb4.s:1575   .rodata.lcd_reg_data22.16586:0000000000000000 $d
     /tmp/ccK9zPb4.s:1581   .rodata.lcd_reg_data23.16587:0000000000000000 $d
     /tmp/ccK9zPb4.s:1588   .rodata.lcd_reg_data24.16588:0000000000000000 $d
     /tmp/ccK9zPb4.s:1595   .rodata.lcd_reg_data25.16589:0000000000000000 $d
     /tmp/ccK9zPb4.s:1601   .rodata.lcd_reg_data3.16567:0000000000000000 $d
     /tmp/ccK9zPb4.s:1608   .rodata.lcd_reg_data4.16568:0000000000000000 $d
     /tmp/ccK9zPb4.s:1615   .rodata.LcdRegData27.16590:0000000000000000 $d
     /tmp/ccK9zPb4.s:1621   .rodata.LcdRegData28.16591:0000000000000000 $d

UNDEFINED SYMBOLS
LTDC_DSI_object_Init
HAL_Delay
HAL_DSI_ShortWrite
memset
HAL_DSI_ConfigCommand
HAL_LTDC_SetPitch
