ARM GAS  /tmp/ccXFHKJi.s 			page 1


   1              		.cpu cortex-m7
   2              		.eabi_attribute 28, 1
   3              		.eabi_attribute 20, 1
   4              		.eabi_attribute 21, 1
   5              		.eabi_attribute 23, 3
   6              		.eabi_attribute 24, 1
   7              		.eabi_attribute 25, 1
   8              		.eabi_attribute 26, 1
   9              		.eabi_attribute 30, 6
  10              		.eabi_attribute 34, 1
  11              		.eabi_attribute 18, 4
  12              		.file	"main.c"
  13              		.text
  14              	.Ltext0:
  15              		.cfi_sections	.debug_frame
  16              		.comm	defaultTaskHandle,4,4
  17              		.global	defaultTask_attributes
  18              		.section	.rodata
  19              		.align	2
  20              	.LC0:
  21 0000 64656661 		.ascii	"defaultTask\000"
  21      756C7454 
  21      61736B00 
  22              		.section	.rodata.defaultTask_attributes,"a"
  23              		.align	2
  26              	defaultTask_attributes:
  27 0000 00000000 		.word	.LC0
  28 0004 00000000 		.space	16
  28      00000000 
  28      00000000 
  28      00000000 
  29 0014 00020000 		.word	512
  30 0018 18000000 		.word	24
  31 001c 00000000 		.space	8
  31      00000000 
  32              		.global	test
  33              		.section	.bss.test,"aw",%nobits
  34              		.align	2
  37              	test:
  38 0000 00000000 		.space	4
  39              		.section	.text.main,"ax",%progbits
  40              		.align	1
  41              		.global	main
  42              		.arch armv7e-m
  43              		.syntax unified
  44              		.thumb
  45              		.thumb_func
  46              		.fpu fpv5-d16
  48              	main:
  49              	.LFB338:
  50              		.file 1 "./User/code/Src/main.c"
   1:./User/code/Src/main.c **** #include "main.h"
   2:./User/code/Src/main.c **** #include "cmsis_os.h"
   3:./User/code/Src/main.c **** #include "fatfs.h"
   4:./User/code/Src/main.c **** #include "../../../BSP/system.h"
   5:./User/code/Src/main.c **** 
   6:./User/code/Src/main.c **** osThreadId_t defaultTaskHandle;
ARM GAS  /tmp/ccXFHKJi.s 			page 2


   7:./User/code/Src/main.c **** 
   8:./User/code/Src/main.c **** const osThreadAttr_t defaultTask_attributes = {
   9:./User/code/Src/main.c ****   .name = "defaultTask",
  10:./User/code/Src/main.c ****   .stack_size = 128 * 4,
  11:./User/code/Src/main.c ****   .priority = (osPriority_t) osPriorityNormal,
  12:./User/code/Src/main.c **** };
  13:./User/code/Src/main.c **** 
  14:./User/code/Src/main.c **** uint32_t test=0;
  15:./User/code/Src/main.c **** 
  16:./User/code/Src/main.c **** void StartDefaultTask(void *argument);
  17:./User/code/Src/main.c **** 
  18:./User/code/Src/main.c **** int main(void)
  19:./User/code/Src/main.c **** {
  51              		.loc 1 19 1
  52              		.cfi_startproc
  53              		@ args = 0, pretend = 0, frame = 0
  54              		@ frame_needed = 1, uses_anonymous_args = 0
  55 0000 80B5     		push	{r7, lr}
  56              	.LCFI0:
  57              		.cfi_def_cfa_offset 8
  58              		.cfi_offset 7, -8
  59              		.cfi_offset 14, -4
  60 0002 00AF     		add	r7, sp, #0
  61              	.LCFI1:
  62              		.cfi_def_cfa_register 7
  20:./User/code/Src/main.c ****   Hardware_Init();
  63              		.loc 1 20 3
  64 0004 FFF7FEFF 		bl	Hardware_Init
  21:./User/code/Src/main.c ****   osKernelInitialize();
  65              		.loc 1 21 3
  66 0008 FFF7FEFF 		bl	osKernelInitialize
  22:./User/code/Src/main.c ****   defaultTaskHandle = osThreadNew(StartDefaultTask, NULL, &defaultTask_attributes);
  67              		.loc 1 22 23
  68 000c 054A     		ldr	r2, .L3
  69 000e 0021     		movs	r1, #0
  70 0010 0548     		ldr	r0, .L3+4
  71 0012 FFF7FEFF 		bl	osThreadNew
  72 0016 0346     		mov	r3, r0
  73              		.loc 1 22 21
  74 0018 044A     		ldr	r2, .L3+8
  75 001a 1360     		str	r3, [r2]
  23:./User/code/Src/main.c ****   osKernelStart();
  76              		.loc 1 23 3
  77 001c FFF7FEFF 		bl	osKernelStart
  78              	.L2:
  24:./User/code/Src/main.c **** 
  25:./User/code/Src/main.c ****   while (1);
  79              		.loc 1 25 9 discriminator 1
  80 0020 FEE7     		b	.L2
  81              	.L4:
  82 0022 00BF     		.align	2
  83              	.L3:
  84 0024 00000000 		.word	defaultTask_attributes
  85 0028 00000000 		.word	StartDefaultTask
  86 002c 00000000 		.word	defaultTaskHandle
  87              		.cfi_endproc
  88              	.LFE338:
ARM GAS  /tmp/ccXFHKJi.s 			page 3


  90              		.section	.text.StartDefaultTask,"ax",%progbits
  91              		.align	1
  92              		.global	StartDefaultTask
  93              		.syntax unified
  94              		.thumb
  95              		.thumb_func
  96              		.fpu fpv5-d16
  98              	StartDefaultTask:
  99              	.LFB339:
  26:./User/code/Src/main.c **** }
  27:./User/code/Src/main.c **** 
  28:./User/code/Src/main.c **** void StartDefaultTask(void *argument)
  29:./User/code/Src/main.c **** {
 100              		.loc 1 29 1
 101              		.cfi_startproc
 102              		@ args = 0, pretend = 0, frame = 8
 103              		@ frame_needed = 1, uses_anonymous_args = 0
 104 0000 80B5     		push	{r7, lr}
 105              	.LCFI2:
 106              		.cfi_def_cfa_offset 8
 107              		.cfi_offset 7, -8
 108              		.cfi_offset 14, -4
 109 0002 82B0     		sub	sp, sp, #8
 110              	.LCFI3:
 111              		.cfi_def_cfa_offset 16
 112 0004 00AF     		add	r7, sp, #0
 113              	.LCFI4:
 114              		.cfi_def_cfa_register 7
 115 0006 7860     		str	r0, [r7, #4]
 116              	.L6:
  30:./User/code/Src/main.c ****   /* USER CODE BEGIN 5 */
  31:./User/code/Src/main.c ****   /* Infinite loop */
  32:./User/code/Src/main.c ****   for(;;)
  33:./User/code/Src/main.c ****   {
  34:./User/code/Src/main.c ****     test++;
 117              		.loc 1 34 9 discriminator 1
 118 0008 044B     		ldr	r3, .L7
 119 000a 1B68     		ldr	r3, [r3]
 120 000c 0133     		adds	r3, r3, #1
 121 000e 034A     		ldr	r2, .L7
 122 0010 1360     		str	r3, [r2]
  35:./User/code/Src/main.c **** 
  36:./User/code/Src/main.c ****     osDelay(100);
 123              		.loc 1 36 5 discriminator 1
 124 0012 6420     		movs	r0, #100
 125 0014 FFF7FEFF 		bl	osDelay
  34:./User/code/Src/main.c **** 
 126              		.loc 1 34 9 discriminator 1
 127 0018 F6E7     		b	.L6
 128              	.L8:
 129 001a 00BF     		.align	2
 130              	.L7:
 131 001c 00000000 		.word	test
 132              		.cfi_endproc
 133              	.LFE339:
 135              		.text
 136              	.Letext0:
ARM GAS  /tmp/ccXFHKJi.s 			page 4


 137              		.file 2 "/usr/lib/gcc/arm-none-eabi/9.2.1/include/stdint.h"
 138              		.file 3 "./Libraries/CMSIS/Core/Include/core_cm7.h"
 139              		.file 4 "./Libraries/CMSIS/Device/ST/STM32H7xx/Include/system_stm32h7xx.h"
 140              		.file 5 "/usr/lib/gcc/arm-none-eabi/9.2.1/include/stddef.h"
 141              		.file 6 "/usr/include/newlib/sys/_types.h"
 142              		.file 7 "/usr/include/newlib/sys/reent.h"
 143              		.file 8 "/usr/include/newlib/sys/lock.h"
 144              		.file 9 "/usr/include/newlib/math.h"
 145              		.file 10 "./Libraries/STM32H7xx_HAL_Driver/Inc/stm32h7xx_hal_def.h"
 146              		.file 11 "./Libraries/STM32H7xx_HAL_Driver/Inc/stm32h7xx_hal_flash.h"
 147              		.file 12 "./Libraries/STM32H7xx_HAL_Driver/Inc/stm32h7xx_hal_uart.h"
 148              		.file 13 "./Libraries/STM32H7xx_HAL_Driver/Inc/stm32h7xx_hal.h"
 149              		.file 14 "./Libraries/FreeRTOS/Source/CMSIS_RTOS/cmsis_os2.h"
 150              		.file 15 "./Libraries/FatFs/Inc/integer.h"
 151              		.file 16 "./Libraries/FatFs/Inc/ff.h"
 152              		.file 17 "./Libraries/FatFs/Inc/diskio.h"
 153              		.file 18 "./Libraries/FatFs/Inc/ff_gen_drv.h"
 154              		.file 19 "./User/code/Inc/user_diskio.h"
 155              		.file 20 "./User/code/Inc/fatfs.h"
 156              		.file 21 "/usr/include/newlib/stdlib.h"
 157              		.file 22 "./User/code/Src/../../../BSP/Components/Inc/lcd.h"
ARM GAS  /tmp/ccXFHKJi.s 			page 5


DEFINED SYMBOLS
                            *ABS*:0000000000000000 main.c
                            *COM*:0000000000000004 defaultTaskHandle
     /tmp/ccXFHKJi.s:26     .rodata.defaultTask_attributes:0000000000000000 defaultTask_attributes
     /tmp/ccXFHKJi.s:19     .rodata:0000000000000000 $d
     /tmp/ccXFHKJi.s:23     .rodata.defaultTask_attributes:0000000000000000 $d
     /tmp/ccXFHKJi.s:37     .bss.test:0000000000000000 test
     /tmp/ccXFHKJi.s:34     .bss.test:0000000000000000 $d
     /tmp/ccXFHKJi.s:40     .text.main:0000000000000000 $t
     /tmp/ccXFHKJi.s:48     .text.main:0000000000000000 main
     /tmp/ccXFHKJi.s:84     .text.main:0000000000000024 $d
     /tmp/ccXFHKJi.s:98     .text.StartDefaultTask:0000000000000000 StartDefaultTask
     /tmp/ccXFHKJi.s:91     .text.StartDefaultTask:0000000000000000 $t
     /tmp/ccXFHKJi.s:131    .text.StartDefaultTask:000000000000001c $d

UNDEFINED SYMBOLS
Hardware_Init
osKernelInitialize
osThreadNew
osKernelStart
osDelay
