ARM GAS  /tmp/ccwb5fXg.s 			page 1


   1              		.cpu cortex-m7
   2              		.eabi_attribute 28, 1
   3              		.eabi_attribute 20, 1
   4              		.eabi_attribute 21, 1
   5              		.eabi_attribute 23, 3
   6              		.eabi_attribute 24, 1
   7              		.eabi_attribute 25, 1
   8              		.eabi_attribute 26, 1
   9              		.eabi_attribute 30, 2
  10              		.eabi_attribute 34, 1
  11              		.eabi_attribute 18, 4
  12              		.file	"main.c"
  13              		.text
  14              	.Ltext0:
  15              		.cfi_sections	.debug_frame
  16              		.section	.text.StartDefaultTask,"ax",%progbits
  17              		.align	1
  18              		.p2align 2,,3
  19              		.global	StartDefaultTask
  20              		.arch armv7e-m
  21              		.syntax unified
  22              		.thumb
  23              		.thumb_func
  24              		.fpu fpv5-d16
  26              	StartDefaultTask:
  27              	.LVL0:
  28              	.LFB339:
  29              		.file 1 "./User/code/Src/main.c"
   1:./User/code/Src/main.c **** #include "main.h"
   2:./User/code/Src/main.c **** #include "cmsis_os.h"
   3:./User/code/Src/main.c **** #include "fatfs.h"
   4:./User/code/Src/main.c **** #include "../../../BSP/system.h"
   5:./User/code/Src/main.c **** 
   6:./User/code/Src/main.c **** osThreadId_t defaultTaskHandle;
   7:./User/code/Src/main.c **** const osThreadAttr_t defaultTask_attributes = {
   8:./User/code/Src/main.c ****   .name = "defaultTask",
   9:./User/code/Src/main.c ****   .stack_size = 128 * 4,
  10:./User/code/Src/main.c ****   .priority = (osPriority_t) osPriorityNormal,
  11:./User/code/Src/main.c **** };
  12:./User/code/Src/main.c **** 
  13:./User/code/Src/main.c **** uint32_t test=0;
  14:./User/code/Src/main.c **** 
  15:./User/code/Src/main.c **** void PeriphCommonClock_Config(void);
  16:./User/code/Src/main.c **** 
  17:./User/code/Src/main.c **** void StartDefaultTask(void *argument);
  18:./User/code/Src/main.c **** 
  19:./User/code/Src/main.c **** int main(void)
  20:./User/code/Src/main.c **** {
  21:./User/code/Src/main.c ****   Hardware_Init();
  22:./User/code/Src/main.c ****   osKernelInitialize();
  23:./User/code/Src/main.c ****   defaultTaskHandle = osThreadNew(StartDefaultTask, NULL, &defaultTask_attributes);
  24:./User/code/Src/main.c ****   osKernelStart();
  25:./User/code/Src/main.c **** 
  26:./User/code/Src/main.c ****   while (1)
  27:./User/code/Src/main.c ****   {
  28:./User/code/Src/main.c ****   }
  29:./User/code/Src/main.c **** }
ARM GAS  /tmp/ccwb5fXg.s 			page 2


  30:./User/code/Src/main.c **** 
  31:./User/code/Src/main.c **** void StartDefaultTask(void *argument)
  32:./User/code/Src/main.c **** {
  30              		.loc 1 32 1 view -0
  31              		.cfi_startproc
  32              		@ Volatile: function does not return.
  33              		@ args = 0, pretend = 0, frame = 0
  34              		@ frame_needed = 0, uses_anonymous_args = 0
  35              		.loc 1 32 1 is_stmt 0 view .LVU1
  36 0000 044C     		ldr	r4, .L5
  37 0002 08B5     		push	{r3, lr}
  38              	.LCFI0:
  39              		.cfi_def_cfa_offset 8
  40              		.cfi_offset 3, -8
  41              		.cfi_offset 14, -4
  42              	.LVL1:
  43              	.L2:
  33:./User/code/Src/main.c ****   /* USER CODE BEGIN 5 */
  34:./User/code/Src/main.c ****   /* Infinite loop */
  35:./User/code/Src/main.c ****   for(;;)
  44              		.loc 1 35 3 is_stmt 1 discriminator 1 view .LVU2
  36:./User/code/Src/main.c ****   {
  37:./User/code/Src/main.c ****     test++;
  45              		.loc 1 37 5 discriminator 1 view .LVU3
  46              		.loc 1 37 9 is_stmt 0 discriminator 1 view .LVU4
  47 0004 2368     		ldr	r3, [r4]
  38:./User/code/Src/main.c ****     osDelay(1);
  48              		.loc 1 38 5 discriminator 1 view .LVU5
  49 0006 0120     		movs	r0, #1
  37:./User/code/Src/main.c ****     osDelay(1);
  50              		.loc 1 37 9 discriminator 1 view .LVU6
  51 0008 0344     		add	r3, r3, r0
  52 000a 2360     		str	r3, [r4]
  53              		.loc 1 38 5 is_stmt 1 discriminator 1 view .LVU7
  54 000c FFF7FEFF 		bl	osDelay
  55              	.LVL2:
  35:./User/code/Src/main.c ****   {
  56              		.loc 1 35 8 discriminator 1 view .LVU8
  57 0010 F8E7     		b	.L2
  58              	.L6:
  59 0012 00BF     		.align	2
  60              	.L5:
  61 0014 00000000 		.word	.LANCHOR0
  62              		.cfi_endproc
  63              	.LFE339:
  65              		.section	.text.startup.main,"ax",%progbits
  66              		.align	1
  67              		.p2align 2,,3
  68              		.global	main
  69              		.syntax unified
  70              		.thumb
  71              		.thumb_func
  72              		.fpu fpv5-d16
  74              	main:
  75              	.LFB338:
  20:./User/code/Src/main.c ****   Hardware_Init();
  76              		.loc 1 20 1 view -0
ARM GAS  /tmp/ccwb5fXg.s 			page 3


  77              		.cfi_startproc
  78              		@ Volatile: function does not return.
  79              		@ args = 0, pretend = 0, frame = 0
  80              		@ frame_needed = 0, uses_anonymous_args = 0
  21:./User/code/Src/main.c ****   osKernelInitialize();
  81              		.loc 1 21 3 view .LVU10
  20:./User/code/Src/main.c ****   Hardware_Init();
  82              		.loc 1 20 1 is_stmt 0 view .LVU11
  83 0000 08B5     		push	{r3, lr}
  84              	.LCFI1:
  85              		.cfi_def_cfa_offset 8
  86              		.cfi_offset 3, -8
  87              		.cfi_offset 14, -4
  21:./User/code/Src/main.c ****   osKernelInitialize();
  88              		.loc 1 21 3 view .LVU12
  89 0002 FFF7FEFF 		bl	Hardware_Init
  90              	.LVL3:
  22:./User/code/Src/main.c ****   defaultTaskHandle = osThreadNew(StartDefaultTask, NULL, &defaultTask_attributes);
  91              		.loc 1 22 3 is_stmt 1 view .LVU13
  92 0006 FFF7FEFF 		bl	osKernelInitialize
  93              	.LVL4:
  23:./User/code/Src/main.c ****   osKernelStart();
  94              		.loc 1 23 3 view .LVU14
  23:./User/code/Src/main.c ****   osKernelStart();
  95              		.loc 1 23 23 is_stmt 0 view .LVU15
  96 000a 054A     		ldr	r2, .L10
  97 000c 0021     		movs	r1, #0
  98 000e 0548     		ldr	r0, .L10+4
  99 0010 FFF7FEFF 		bl	osThreadNew
 100              	.LVL5:
  23:./User/code/Src/main.c ****   osKernelStart();
 101              		.loc 1 23 21 view .LVU16
 102 0014 044B     		ldr	r3, .L10+8
 103 0016 1860     		str	r0, [r3]
  24:./User/code/Src/main.c **** 
 104              		.loc 1 24 3 is_stmt 1 view .LVU17
 105 0018 FFF7FEFF 		bl	osKernelStart
 106              	.LVL6:
 107              	.L8:
  26:./User/code/Src/main.c ****   {
 108              		.loc 1 26 3 discriminator 1 view .LVU18
  28:./User/code/Src/main.c **** }
 109              		.loc 1 28 3 discriminator 1 view .LVU19
  26:./User/code/Src/main.c ****   {
 110              		.loc 1 26 9 discriminator 1 view .LVU20
  26:./User/code/Src/main.c ****   {
 111              		.loc 1 26 3 discriminator 1 view .LVU21
  28:./User/code/Src/main.c **** }
 112              		.loc 1 28 3 discriminator 1 view .LVU22
  26:./User/code/Src/main.c ****   {
 113              		.loc 1 26 9 discriminator 1 view .LVU23
 114 001c FEE7     		b	.L8
 115              	.L11:
 116 001e 00BF     		.align	2
 117              	.L10:
 118 0020 00000000 		.word	.LANCHOR1
 119 0024 00000000 		.word	StartDefaultTask
ARM GAS  /tmp/ccwb5fXg.s 			page 4


 120 0028 00000000 		.word	defaultTaskHandle
 121              		.cfi_endproc
 122              	.LFE338:
 124              		.global	test
 125              		.global	defaultTask_attributes
 126              		.section	.rodata.str1.4,"aMS",%progbits,1
 127              		.align	2
 128              	.LC0:
 129 0000 64656661 		.ascii	"defaultTask\000"
 129      756C7454 
 129      61736B00 
 130              		.comm	defaultTaskHandle,4,4
 131              		.section	.bss.test,"aw",%nobits
 132              		.align	2
 133              		.set	.LANCHOR0,. + 0
 136              	test:
 137 0000 00000000 		.space	4
 138              		.section	.rodata.defaultTask_attributes,"a"
 139              		.align	2
 140              		.set	.LANCHOR1,. + 0
 143              	defaultTask_attributes:
 144 0000 00000000 		.word	.LC0
 145 0004 00000000 		.space	16
 145      00000000 
 145      00000000 
 145      00000000 
 146 0014 00020000 		.word	512
 147 0018 18000000 		.word	24
 148 001c 00000000 		.space	8
 148      00000000 
 149              		.text
 150              	.Letext0:
 151              		.file 2 "/usr/lib/gcc/arm-none-eabi/9.2.1/include/stdint.h"
 152              		.file 3 "./Libraries/CMSIS/Core/Include/core_cm7.h"
 153              		.file 4 "./Libraries/CMSIS/Device/ST/STM32H7xx/Include/system_stm32h7xx.h"
 154              		.file 5 "/usr/lib/gcc/arm-none-eabi/9.2.1/include/stddef.h"
 155              		.file 6 "/usr/include/newlib/sys/_types.h"
 156              		.file 7 "/usr/include/newlib/sys/reent.h"
 157              		.file 8 "/usr/include/newlib/sys/lock.h"
 158              		.file 9 "/usr/include/newlib/math.h"
 159              		.file 10 "./Libraries/STM32H7xx_HAL_Driver/Inc/stm32h7xx_hal_def.h"
 160              		.file 11 "./Libraries/STM32H7xx_HAL_Driver/Inc/stm32h7xx_hal_flash.h"
 161              		.file 12 "./Libraries/STM32H7xx_HAL_Driver/Inc/stm32h7xx_hal_uart.h"
 162              		.file 13 "./Libraries/STM32H7xx_HAL_Driver/Inc/stm32h7xx_hal.h"
 163              		.file 14 "./Libraries/FreeRTOS/Source/CMSIS_RTOS/cmsis_os2.h"
 164              		.file 15 "./Libraries/FatFs/Inc/integer.h"
 165              		.file 16 "./Libraries/FatFs/Inc/ff.h"
 166              		.file 17 "./Libraries/FatFs/Inc/diskio.h"
 167              		.file 18 "./Libraries/FatFs/Inc/ff_gen_drv.h"
 168              		.file 19 "./User/code/Inc/user_diskio.h"
 169              		.file 20 "./User/code/Inc/fatfs.h"
 170              		.file 21 "/usr/include/newlib/stdlib.h"
 171              		.file 22 "./User/code/Src/../../../BSP/Components/Inc/lcd.h"
 172              		.file 23 "./User/code/Src/../../../BSP/system.h"
ARM GAS  /tmp/ccwb5fXg.s 			page 5

