ARM GAS  /var/folders/wl/rshn8xbx1dsfj1zgryf4g1240000gn/T//ccdiVCjG.s 			page 1


   1              		.cpu cortex-m7
   2              		.eabi_attribute 28, 1
   3              		.eabi_attribute 20, 1
   4              		.eabi_attribute 21, 1
   5              		.eabi_attribute 23, 3
   6              		.eabi_attribute 24, 1
   7              		.eabi_attribute 25, 1
   8              		.eabi_attribute 26, 1
   9              		.eabi_attribute 30, 2
  10              		.eabi_attribute 34, 1
  11              		.eabi_attribute 18, 4
  12              		.file	"main.c"
  13              		.text
  14              	.Ltext0:
  15              		.cfi_sections	.debug_frame
  16              		.section	.text.StartDefaultTask,"ax",%progbits
  17              		.align	1
  18              		.p2align 2,,3
  19              		.global	StartDefaultTask
  20              		.arch armv7e-m
  21              		.syntax unified
  22              		.thumb
  23              		.thumb_func
  24              		.fpu fpv5-d16
  26              	StartDefaultTask:
  27              	.LFB347:
  28              		.file 1 ".//User/code/Src/main.c"
   1:.//User/code/Src/main.c **** /* USER CODE BEGIN Header */
   2:.//User/code/Src/main.c **** /**
   3:.//User/code/Src/main.c ****   ******************************************************************************
   4:.//User/code/Src/main.c ****   * @file           : main.c
   5:.//User/code/Src/main.c ****   * @brief          : Main program body
   6:.//User/code/Src/main.c ****   ******************************************************************************
   7:.//User/code/Src/main.c ****   * @attention
   8:.//User/code/Src/main.c ****   *
   9:.//User/code/Src/main.c ****   * <h2><center>&copy; Copyright (c) 2021 STMicroelectronics.
  10:.//User/code/Src/main.c ****   * All rights reserved.</center></h2>
  11:.//User/code/Src/main.c ****   *
  12:.//User/code/Src/main.c ****   * This software component is licensed by ST under BSD 3-Clause license,
  13:.//User/code/Src/main.c ****   * the "License"; You may not use this file except in compliance with the
  14:.//User/code/Src/main.c ****   * License. You may obtain a copy of the License at:
  15:.//User/code/Src/main.c ****   *                        opensource.org/licenses/BSD-3-Clause
  16:.//User/code/Src/main.c ****   *
  17:.//User/code/Src/main.c ****   ******************************************************************************
  18:.//User/code/Src/main.c ****   */
  19:.//User/code/Src/main.c **** /* USER CODE END Header */
  20:.//User/code/Src/main.c **** /* Includes ------------------------------------------------------------------*/
  21:.//User/code/Src/main.c **** #include "main.h"
  22:.//User/code/Src/main.c **** #include "cmsis_os.h"
  23:.//User/code/Src/main.c **** #include "fatfs.h"
  24:.//User/code/Src/main.c **** #include "../../../BSP/system.h"
  25:.//User/code/Src/main.c **** /* Private includes ----------------------------------------------------------*/
  26:.//User/code/Src/main.c **** /* USER CODE BEGIN Includes */
  27:.//User/code/Src/main.c **** 
  28:.//User/code/Src/main.c **** /* USER CODE END Includes */
  29:.//User/code/Src/main.c **** 
  30:.//User/code/Src/main.c **** /* Private typedef -----------------------------------------------------------*/
ARM GAS  /var/folders/wl/rshn8xbx1dsfj1zgryf4g1240000gn/T//ccdiVCjG.s 			page 2


  31:.//User/code/Src/main.c **** /* USER CODE BEGIN PTD */
  32:.//User/code/Src/main.c **** 
  33:.//User/code/Src/main.c **** /* USER CODE END PTD */
  34:.//User/code/Src/main.c **** 
  35:.//User/code/Src/main.c **** /* Private define ------------------------------------------------------------*/
  36:.//User/code/Src/main.c **** /* USER CODE BEGIN PD */
  37:.//User/code/Src/main.c **** 
  38:.//User/code/Src/main.c **** #ifndef HSEM_ID_0
  39:.//User/code/Src/main.c **** #define HSEM_ID_0 (0U) /* HW semaphore 0*/
  40:.//User/code/Src/main.c **** #endif
  41:.//User/code/Src/main.c **** /* USER CODE END PD */
  42:.//User/code/Src/main.c **** 
  43:.//User/code/Src/main.c **** /* Private macro -------------------------------------------------------------*/
  44:.//User/code/Src/main.c **** /* USER CODE BEGIN PM */
  45:.//User/code/Src/main.c **** 
  46:.//User/code/Src/main.c **** /* USER CODE END PM */
  47:.//User/code/Src/main.c **** 
  48:.//User/code/Src/main.c **** /* Private variables ---------------------------------------------------------*/
  49:.//User/code/Src/main.c **** 
  50:.//User/code/Src/main.c **** CRC_HandleTypeDef hcrc;
  51:.//User/code/Src/main.c **** 
  52:.//User/code/Src/main.c **** DSI_HandleTypeDef hdsi;
  53:.//User/code/Src/main.c **** 
  54:.//User/code/Src/main.c **** I2C_HandleTypeDef hi2c4;
  55:.//User/code/Src/main.c **** DMA_HandleTypeDef hdma_i2c4_rx;
  56:.//User/code/Src/main.c **** DMA_HandleTypeDef hdma_i2c4_tx;
  57:.//User/code/Src/main.c **** 
  58:.//User/code/Src/main.c **** LTDC_HandleTypeDef hltdc;
  59:.//User/code/Src/main.c **** 
  60:.//User/code/Src/main.c **** UART_HandleTypeDef huart1;
  61:.//User/code/Src/main.c **** 
  62:.//User/code/Src/main.c **** /* Definitions for defaultTask */
  63:.//User/code/Src/main.c **** osThreadId_t defaultTaskHandle;
  64:.//User/code/Src/main.c **** const osThreadAttr_t defaultTask_attributes = {
  65:.//User/code/Src/main.c ****   .name = "defaultTask",
  66:.//User/code/Src/main.c ****   .stack_size = 128 * 4,
  67:.//User/code/Src/main.c ****   .priority = (osPriority_t) osPriorityNormal,
  68:.//User/code/Src/main.c **** };
  69:.//User/code/Src/main.c **** /* USER CODE BEGIN PV */
  70:.//User/code/Src/main.c **** 
  71:.//User/code/Src/main.c **** /* USER CODE END PV */
  72:.//User/code/Src/main.c **** 
  73:.//User/code/Src/main.c **** /* Private function prototypes -----------------------------------------------*/
  74:.//User/code/Src/main.c **** void SystemClock_Config(void);
  75:.//User/code/Src/main.c **** void PeriphCommonClock_Config(void);
  76:.//User/code/Src/main.c **** static void MX_GPIO_Init(void);
  77:.//User/code/Src/main.c **** static void MX_BDMA_Init(void);
  78:.//User/code/Src/main.c **** static void MX_I2C4_Init(void);
  79:.//User/code/Src/main.c **** static void MX_USART1_UART_Init(void);
  80:.//User/code/Src/main.c **** static void MX_DSIHOST_DSI_Init(void);
  81:.//User/code/Src/main.c **** static void MX_LTDC_Init(void);
  82:.//User/code/Src/main.c **** static void MX_CRC_Init(void);
  83:.//User/code/Src/main.c **** void StartDefaultTask(void *argument);
  84:.//User/code/Src/main.c **** 
  85:.//User/code/Src/main.c **** /* USER CODE BEGIN PFP */
  86:.//User/code/Src/main.c **** 
  87:.//User/code/Src/main.c **** /* USER CODE END PFP */
ARM GAS  /var/folders/wl/rshn8xbx1dsfj1zgryf4g1240000gn/T//ccdiVCjG.s 			page 3


  88:.//User/code/Src/main.c **** 
  89:.//User/code/Src/main.c **** /* Private user code ---------------------------------------------------------*/
  90:.//User/code/Src/main.c **** /* USER CODE BEGIN 0 */
  91:.//User/code/Src/main.c **** 
  92:.//User/code/Src/main.c **** /* USER CODE END 0 */
  93:.//User/code/Src/main.c **** 
  94:.//User/code/Src/main.c **** /**
  95:.//User/code/Src/main.c ****   * @brief  The application entry point.
  96:.//User/code/Src/main.c ****   * @retval int
  97:.//User/code/Src/main.c ****   */
  98:.//User/code/Src/main.c **** int main(void)
  99:.//User/code/Src/main.c **** {
 100:.//User/code/Src/main.c ****   /* USER CODE BEGIN 1 */
 101:.//User/code/Src/main.c **** 
 102:.//User/code/Src/main.c ****   /* USER CODE END 1 */
 103:.//User/code/Src/main.c **** /* USER CODE BEGIN Boot_Mode_Sequence_0 */
 104:.//User/code/Src/main.c ****   int32_t timeout;
 105:.//User/code/Src/main.c **** /* USER CODE END Boot_Mode_Sequence_0 */
 106:.//User/code/Src/main.c **** 
 107:.//User/code/Src/main.c **** /* USER CODE BEGIN Boot_Mode_Sequence_1 */
 108:.//User/code/Src/main.c ****   /* Wait until CPU2 boots and enters in stop mode or timeout*/
 109:.//User/code/Src/main.c ****   timeout = 0xFFFF;
 110:.//User/code/Src/main.c ****   while((__HAL_RCC_GET_FLAG(RCC_FLAG_D2CKRDY) != RESET) && (timeout-- > 0));
 111:.//User/code/Src/main.c ****   if ( timeout < 0 )
 112:.//User/code/Src/main.c ****   {
 113:.//User/code/Src/main.c ****   Error_Handler(__FILE__, __LINE__);
 114:.//User/code/Src/main.c ****   }
 115:.//User/code/Src/main.c **** /* USER CODE END Boot_Mode_Sequence_1 */
 116:.//User/code/Src/main.c ****   /* MCU Configuration--------------------------------------------------------*/
 117:.//User/code/Src/main.c **** 
 118:.//User/code/Src/main.c ****   /* Reset of all peripherals, Initializes the Flash interface and the Systick. */
 119:.//User/code/Src/main.c ****   HAL_Init();
 120:.//User/code/Src/main.c **** 
 121:.//User/code/Src/main.c ****   /* USER CODE BEGIN Init */
 122:.//User/code/Src/main.c **** 
 123:.//User/code/Src/main.c ****   /* USER CODE END Init */
 124:.//User/code/Src/main.c **** 
 125:.//User/code/Src/main.c ****   /* Configure the system clock */
 126:.//User/code/Src/main.c ****   SystemClock_Config();
 127:.//User/code/Src/main.c **** 
 128:.//User/code/Src/main.c **** /* Configure the peripherals common clocks */
 129:.//User/code/Src/main.c ****   PeriphCommonClock_Config();
 130:.//User/code/Src/main.c **** /* USER CODE BEGIN Boot_Mode_Sequence_2 */
 131:.//User/code/Src/main.c **** /* When system initialization is finished, Cortex-M7 will release Cortex-M4 by means of
 132:.//User/code/Src/main.c **** HSEM notification */
 133:.//User/code/Src/main.c **** /*HW semaphore Clock enable*/
 134:.//User/code/Src/main.c **** __HAL_RCC_HSEM_CLK_ENABLE();
 135:.//User/code/Src/main.c **** /*Take HSEM */
 136:.//User/code/Src/main.c **** HAL_HSEM_FastTake(HSEM_ID_0);
 137:.//User/code/Src/main.c **** /*Release HSEM in order to notify the CPU2(CM4)*/
 138:.//User/code/Src/main.c **** HAL_HSEM_Release(HSEM_ID_0,0);
 139:.//User/code/Src/main.c **** /* wait until CPU2 wakes up from stop mode */
 140:.//User/code/Src/main.c **** timeout = 0xFFFF;
 141:.//User/code/Src/main.c **** while((__HAL_RCC_GET_FLAG(RCC_FLAG_D2CKRDY) == RESET) && (timeout-- > 0));
 142:.//User/code/Src/main.c **** if ( timeout < 0 )
 143:.//User/code/Src/main.c **** {
 144:.//User/code/Src/main.c **** Error_Handler(__FILE__, __LINE__);
ARM GAS  /var/folders/wl/rshn8xbx1dsfj1zgryf4g1240000gn/T//ccdiVCjG.s 			page 4


 145:.//User/code/Src/main.c **** }
 146:.//User/code/Src/main.c **** /* USER CODE END Boot_Mode_Sequence_2 */
 147:.//User/code/Src/main.c **** 
 148:.//User/code/Src/main.c ****   /* USER CODE BEGIN SysInit */
 149:.//User/code/Src/main.c **** 
 150:.//User/code/Src/main.c ****   /* USER CODE END SysInit */
 151:.//User/code/Src/main.c **** 
 152:.//User/code/Src/main.c ****   /* Initialize all configured peripherals */
 153:.//User/code/Src/main.c ****   MX_GPIO_Init();
 154:.//User/code/Src/main.c ****   MX_BDMA_Init();
 155:.//User/code/Src/main.c ****   MX_I2C4_Init();
 156:.//User/code/Src/main.c ****   MX_USART1_UART_Init();
 157:.//User/code/Src/main.c ****   MX_DSIHOST_DSI_Init();
 158:.//User/code/Src/main.c ****   MX_LTDC_Init();
 159:.//User/code/Src/main.c ****   MX_CRC_Init();
 160:.//User/code/Src/main.c ****   MX_FATFS_Init();
 161:.//User/code/Src/main.c ****   /* USER CODE BEGIN 2 */
 162:.//User/code/Src/main.c **** 
 163:.//User/code/Src/main.c ****   /* USER CODE END 2 */
 164:.//User/code/Src/main.c **** 
 165:.//User/code/Src/main.c ****   /* Init scheduler */
 166:.//User/code/Src/main.c ****   osKernelInitialize();
 167:.//User/code/Src/main.c **** 
 168:.//User/code/Src/main.c ****   /* USER CODE BEGIN RTOS_MUTEX */
 169:.//User/code/Src/main.c ****   /* add mutexes, ... */
 170:.//User/code/Src/main.c ****   /* USER CODE END RTOS_MUTEX */
 171:.//User/code/Src/main.c **** 
 172:.//User/code/Src/main.c ****   /* USER CODE BEGIN RTOS_SEMAPHORES */
 173:.//User/code/Src/main.c ****   /* add semaphores, ... */
 174:.//User/code/Src/main.c ****   /* USER CODE END RTOS_SEMAPHORES */
 175:.//User/code/Src/main.c **** 
 176:.//User/code/Src/main.c ****   /* USER CODE BEGIN RTOS_TIMERS */
 177:.//User/code/Src/main.c ****   /* start timers, add new ones, ... */
 178:.//User/code/Src/main.c ****   /* USER CODE END RTOS_TIMERS */
 179:.//User/code/Src/main.c **** 
 180:.//User/code/Src/main.c ****   /* USER CODE BEGIN RTOS_QUEUES */
 181:.//User/code/Src/main.c ****   /* add queues, ... */
 182:.//User/code/Src/main.c ****   /* USER CODE END RTOS_QUEUES */
 183:.//User/code/Src/main.c **** 
 184:.//User/code/Src/main.c ****   /* Create the thread(s) */
 185:.//User/code/Src/main.c ****   /* creation of defaultTask */
 186:.//User/code/Src/main.c ****   defaultTaskHandle = osThreadNew(StartDefaultTask, NULL, &defaultTask_attributes);
 187:.//User/code/Src/main.c **** 
 188:.//User/code/Src/main.c ****   /* USER CODE BEGIN RTOS_THREADS */
 189:.//User/code/Src/main.c ****   /* add threads, ... */
 190:.//User/code/Src/main.c ****   /* USER CODE END RTOS_THREADS */
 191:.//User/code/Src/main.c **** 
 192:.//User/code/Src/main.c ****   /* USER CODE BEGIN RTOS_EVENTS */
 193:.//User/code/Src/main.c ****   /* add events, ... */
 194:.//User/code/Src/main.c ****   /* USER CODE END RTOS_EVENTS */
 195:.//User/code/Src/main.c **** 
 196:.//User/code/Src/main.c ****   /* Start scheduler */
 197:.//User/code/Src/main.c ****   osKernelStart();
 198:.//User/code/Src/main.c **** 
 199:.//User/code/Src/main.c ****   /* We should never get here as control is now taken by the scheduler */
 200:.//User/code/Src/main.c ****   /* Infinite loop */
 201:.//User/code/Src/main.c ****   /* USER CODE BEGIN WHILE */
ARM GAS  /var/folders/wl/rshn8xbx1dsfj1zgryf4g1240000gn/T//ccdiVCjG.s 			page 5


 202:.//User/code/Src/main.c ****   while (1)
 203:.//User/code/Src/main.c ****   {
 204:.//User/code/Src/main.c ****     /* USER CODE END WHILE */
 205:.//User/code/Src/main.c **** 
 206:.//User/code/Src/main.c ****     /* USER CODE BEGIN 3 */
 207:.//User/code/Src/main.c ****   }
 208:.//User/code/Src/main.c ****   /* USER CODE END 3 */
 209:.//User/code/Src/main.c **** }
 210:.//User/code/Src/main.c **** 
 211:.//User/code/Src/main.c **** /**
 212:.//User/code/Src/main.c ****   * @brief System Clock Configuration
 213:.//User/code/Src/main.c ****   * @retval None
 214:.//User/code/Src/main.c ****   */
 215:.//User/code/Src/main.c **** 
 216:.//User/code/Src/main.c **** 
 217:.//User/code/Src/main.c **** /**
 218:.//User/code/Src/main.c ****   * @brief Peripherals Common Clock Configuration
 219:.//User/code/Src/main.c ****   * @retval None
 220:.//User/code/Src/main.c ****   */
 221:.//User/code/Src/main.c **** void PeriphCommonClock_Config(void)
 222:.//User/code/Src/main.c **** {
 223:.//User/code/Src/main.c ****   RCC_PeriphCLKInitTypeDef PeriphClkInitStruct = {0};
 224:.//User/code/Src/main.c **** 
 225:.//User/code/Src/main.c ****   /** Initializes the peripherals clock
 226:.//User/code/Src/main.c ****   */
 227:.//User/code/Src/main.c ****   PeriphClkInitStruct.PeriphClockSelection = RCC_PERIPHCLK_ADC;
 228:.//User/code/Src/main.c ****   PeriphClkInitStruct.PLL2.PLL2M = 2;
 229:.//User/code/Src/main.c ****   PeriphClkInitStruct.PLL2.PLL2N = 12;
 230:.//User/code/Src/main.c ****   PeriphClkInitStruct.PLL2.PLL2P = 2;
 231:.//User/code/Src/main.c ****   PeriphClkInitStruct.PLL2.PLL2Q = 2;
 232:.//User/code/Src/main.c ****   PeriphClkInitStruct.PLL2.PLL2R = 2;
 233:.//User/code/Src/main.c ****   PeriphClkInitStruct.PLL2.PLL2RGE = RCC_PLL2VCIRANGE_3;
 234:.//User/code/Src/main.c ****   PeriphClkInitStruct.PLL2.PLL2VCOSEL = RCC_PLL2VCOMEDIUM;
 235:.//User/code/Src/main.c ****   PeriphClkInitStruct.PLL2.PLL2FRACN = 0;
 236:.//User/code/Src/main.c ****   PeriphClkInitStruct.AdcClockSelection = RCC_ADCCLKSOURCE_PLL2;
 237:.//User/code/Src/main.c ****   if (HAL_RCCEx_PeriphCLKConfig(&PeriphClkInitStruct) != HAL_OK)
 238:.//User/code/Src/main.c ****   {
 239:.//User/code/Src/main.c ****     Error_Handler(__FILE__, __LINE__);
 240:.//User/code/Src/main.c ****   }
 241:.//User/code/Src/main.c **** }
 242:.//User/code/Src/main.c **** 
 243:.//User/code/Src/main.c **** /**
 244:.//User/code/Src/main.c ****   * @brief CRC Initialization Function
 245:.//User/code/Src/main.c ****   * @param None
 246:.//User/code/Src/main.c ****   * @retval None
 247:.//User/code/Src/main.c ****   */
 248:.//User/code/Src/main.c **** static void MX_CRC_Init(void)
 249:.//User/code/Src/main.c **** {
 250:.//User/code/Src/main.c **** 
 251:.//User/code/Src/main.c ****   /* USER CODE BEGIN CRC_Init 0 */
 252:.//User/code/Src/main.c **** 
 253:.//User/code/Src/main.c ****   /* USER CODE END CRC_Init 0 */
 254:.//User/code/Src/main.c **** 
 255:.//User/code/Src/main.c ****   /* USER CODE BEGIN CRC_Init 1 */
 256:.//User/code/Src/main.c **** 
 257:.//User/code/Src/main.c ****   /* USER CODE END CRC_Init 1 */
 258:.//User/code/Src/main.c ****   hcrc.Instance = CRC;
ARM GAS  /var/folders/wl/rshn8xbx1dsfj1zgryf4g1240000gn/T//ccdiVCjG.s 			page 6


 259:.//User/code/Src/main.c ****   hcrc.Init.DefaultPolynomialUse = DEFAULT_POLYNOMIAL_ENABLE;
 260:.//User/code/Src/main.c ****   hcrc.Init.DefaultInitValueUse = DEFAULT_INIT_VALUE_ENABLE;
 261:.//User/code/Src/main.c ****   hcrc.Init.InputDataInversionMode = CRC_INPUTDATA_INVERSION_NONE;
 262:.//User/code/Src/main.c ****   hcrc.Init.OutputDataInversionMode = CRC_OUTPUTDATA_INVERSION_DISABLE;
 263:.//User/code/Src/main.c ****   hcrc.InputDataFormat = CRC_INPUTDATA_FORMAT_BYTES;
 264:.//User/code/Src/main.c ****   if (HAL_CRC_Init(&hcrc) != HAL_OK)
 265:.//User/code/Src/main.c ****   {
 266:.//User/code/Src/main.c ****     Error_Handler(__FILE__, __LINE__);
 267:.//User/code/Src/main.c ****   }
 268:.//User/code/Src/main.c ****   /* USER CODE BEGIN CRC_Init 2 */
 269:.//User/code/Src/main.c **** 
 270:.//User/code/Src/main.c ****   /* USER CODE END CRC_Init 2 */
 271:.//User/code/Src/main.c **** 
 272:.//User/code/Src/main.c **** }
 273:.//User/code/Src/main.c **** 
 274:.//User/code/Src/main.c **** /**
 275:.//User/code/Src/main.c ****   * @brief DSIHOST Initialization Function
 276:.//User/code/Src/main.c ****   * @param None
 277:.//User/code/Src/main.c ****   * @retval None
 278:.//User/code/Src/main.c ****   */
 279:.//User/code/Src/main.c **** static void MX_DSIHOST_DSI_Init(void)
 280:.//User/code/Src/main.c **** {
 281:.//User/code/Src/main.c **** 
 282:.//User/code/Src/main.c ****   /* USER CODE BEGIN DSIHOST_Init 0 */
 283:.//User/code/Src/main.c **** 
 284:.//User/code/Src/main.c ****   /* USER CODE END DSIHOST_Init 0 */
 285:.//User/code/Src/main.c **** 
 286:.//User/code/Src/main.c ****   DSI_PLLInitTypeDef PLLInit = {0};
 287:.//User/code/Src/main.c ****   DSI_HOST_TimeoutTypeDef HostTimeouts = {0};
 288:.//User/code/Src/main.c ****   DSI_PHY_TimerTypeDef PhyTimings = {0};
 289:.//User/code/Src/main.c ****   DSI_LPCmdTypeDef LPCmd = {0};
 290:.//User/code/Src/main.c ****   DSI_CmdCfgTypeDef CmdCfg = {0};
 291:.//User/code/Src/main.c **** 
 292:.//User/code/Src/main.c ****   /* USER CODE BEGIN DSIHOST_Init 1 */
 293:.//User/code/Src/main.c **** 
 294:.//User/code/Src/main.c ****   /* USER CODE END DSIHOST_Init 1 */
 295:.//User/code/Src/main.c ****   hdsi.Instance = DSI;
 296:.//User/code/Src/main.c ****   hdsi.Init.AutomaticClockLaneControl = DSI_AUTO_CLK_LANE_CTRL_DISABLE;
 297:.//User/code/Src/main.c ****   hdsi.Init.TXEscapeCkdiv = 2;
 298:.//User/code/Src/main.c ****   hdsi.Init.NumberOfLanes = DSI_TWO_DATA_LANES;
 299:.//User/code/Src/main.c ****   PLLInit.PLLNDIV = 10;
 300:.//User/code/Src/main.c ****   PLLInit.PLLIDF = DSI_PLL_IN_DIV1;
 301:.//User/code/Src/main.c ****   PLLInit.PLLODF = DSI_PLL_OUT_DIV1;
 302:.//User/code/Src/main.c ****   if (HAL_DSI_Init(&hdsi, &PLLInit) != HAL_OK)
 303:.//User/code/Src/main.c ****   {
 304:.//User/code/Src/main.c ****     Error_Handler(__FILE__, __LINE__);
 305:.//User/code/Src/main.c ****   }
 306:.//User/code/Src/main.c ****   HostTimeouts.TimeoutCkdiv = 1;
 307:.//User/code/Src/main.c ****   HostTimeouts.HighSpeedTransmissionTimeout = 0;
 308:.//User/code/Src/main.c ****   HostTimeouts.LowPowerReceptionTimeout = 0;
 309:.//User/code/Src/main.c ****   HostTimeouts.HighSpeedReadTimeout = 0;
 310:.//User/code/Src/main.c ****   HostTimeouts.LowPowerReadTimeout = 0;
 311:.//User/code/Src/main.c ****   HostTimeouts.HighSpeedWriteTimeout = 0;
 312:.//User/code/Src/main.c ****   HostTimeouts.HighSpeedWritePrespMode = DSI_HS_PM_DISABLE;
 313:.//User/code/Src/main.c ****   HostTimeouts.LowPowerWriteTimeout = 0;
 314:.//User/code/Src/main.c ****   HostTimeouts.BTATimeout = 0;
 315:.//User/code/Src/main.c ****   if (HAL_DSI_ConfigHostTimeouts(&hdsi, &HostTimeouts) != HAL_OK)
ARM GAS  /var/folders/wl/rshn8xbx1dsfj1zgryf4g1240000gn/T//ccdiVCjG.s 			page 7


 316:.//User/code/Src/main.c ****   {
 317:.//User/code/Src/main.c ****     Error_Handler(__FILE__, __LINE__);
 318:.//User/code/Src/main.c ****   }
 319:.//User/code/Src/main.c ****   PhyTimings.ClockLaneHS2LPTime = 20;
 320:.//User/code/Src/main.c ****   PhyTimings.ClockLaneLP2HSTime = 18;
 321:.//User/code/Src/main.c ****   PhyTimings.DataLaneHS2LPTime = 10;
 322:.//User/code/Src/main.c ****   PhyTimings.DataLaneLP2HSTime = 13;
 323:.//User/code/Src/main.c ****   PhyTimings.DataLaneMaxReadTime = 0;
 324:.//User/code/Src/main.c ****   PhyTimings.StopWaitTime = 0;
 325:.//User/code/Src/main.c ****   if (HAL_DSI_ConfigPhyTimer(&hdsi, &PhyTimings) != HAL_OK)
 326:.//User/code/Src/main.c ****   {
 327:.//User/code/Src/main.c ****     Error_Handler(__FILE__, __LINE__);
 328:.//User/code/Src/main.c ****   }
 329:.//User/code/Src/main.c ****   if (HAL_DSI_ConfigFlowControl(&hdsi, DSI_FLOW_CONTROL_BTA) != HAL_OK)
 330:.//User/code/Src/main.c ****   {
 331:.//User/code/Src/main.c ****     Error_Handler(__FILE__, __LINE__);
 332:.//User/code/Src/main.c ****   }
 333:.//User/code/Src/main.c ****   if (HAL_DSI_SetLowPowerRXFilter(&hdsi, 10000) != HAL_OK)
 334:.//User/code/Src/main.c ****   {
 335:.//User/code/Src/main.c ****     Error_Handler(__FILE__, __LINE__);
 336:.//User/code/Src/main.c ****   }
 337:.//User/code/Src/main.c ****   if (HAL_DSI_ConfigErrorMonitor(&hdsi, HAL_DSI_ERROR_NONE) != HAL_OK)
 338:.//User/code/Src/main.c ****   {
 339:.//User/code/Src/main.c ****     Error_Handler(__FILE__, __LINE__);
 340:.//User/code/Src/main.c ****   }
 341:.//User/code/Src/main.c ****   LPCmd.LPGenShortWriteNoP = DSI_LP_GSW0P_DISABLE;
 342:.//User/code/Src/main.c ****   LPCmd.LPGenShortWriteOneP = DSI_LP_GSW1P_DISABLE;
 343:.//User/code/Src/main.c ****   LPCmd.LPGenShortWriteTwoP = DSI_LP_GSW2P_DISABLE;
 344:.//User/code/Src/main.c ****   LPCmd.LPGenShortReadNoP = DSI_LP_GSR0P_DISABLE;
 345:.//User/code/Src/main.c ****   LPCmd.LPGenShortReadOneP = DSI_LP_GSR1P_DISABLE;
 346:.//User/code/Src/main.c ****   LPCmd.LPGenShortReadTwoP = DSI_LP_GSR2P_DISABLE;
 347:.//User/code/Src/main.c ****   LPCmd.LPGenLongWrite = DSI_LP_GLW_DISABLE;
 348:.//User/code/Src/main.c ****   LPCmd.LPDcsShortWriteNoP = DSI_LP_DSW0P_DISABLE;
 349:.//User/code/Src/main.c ****   LPCmd.LPDcsShortWriteOneP = DSI_LP_DSW1P_DISABLE;
 350:.//User/code/Src/main.c ****   LPCmd.LPDcsShortReadNoP = DSI_LP_DSR0P_DISABLE;
 351:.//User/code/Src/main.c ****   LPCmd.LPDcsLongWrite = DSI_LP_DLW_DISABLE;
 352:.//User/code/Src/main.c ****   LPCmd.LPMaxReadPacket = DSI_LP_MRDP_DISABLE;
 353:.//User/code/Src/main.c ****   LPCmd.AcknowledgeRequest = DSI_ACKNOWLEDGE_DISABLE;
 354:.//User/code/Src/main.c ****   if (HAL_DSI_ConfigCommand(&hdsi, &LPCmd) != HAL_OK)
 355:.//User/code/Src/main.c ****   {
 356:.//User/code/Src/main.c ****     Error_Handler(__FILE__, __LINE__);
 357:.//User/code/Src/main.c ****   }
 358:.//User/code/Src/main.c ****   CmdCfg.VirtualChannelID = 0;
 359:.//User/code/Src/main.c ****   CmdCfg.ColorCoding = DSI_RGB888;
 360:.//User/code/Src/main.c ****   CmdCfg.CommandSize = 400;
 361:.//User/code/Src/main.c ****   CmdCfg.TearingEffectSource = DSI_TE_EXTERNAL;
 362:.//User/code/Src/main.c ****   CmdCfg.TearingEffectPolarity = DSI_TE_RISING_EDGE;
 363:.//User/code/Src/main.c ****   CmdCfg.HSPolarity = DSI_HSYNC_ACTIVE_LOW;
 364:.//User/code/Src/main.c ****   CmdCfg.VSPolarity = DSI_VSYNC_ACTIVE_LOW;
 365:.//User/code/Src/main.c ****   CmdCfg.DEPolarity = DSI_DATA_ENABLE_ACTIVE_HIGH;
 366:.//User/code/Src/main.c ****   CmdCfg.VSyncPol = DSI_VSYNC_FALLING;
 367:.//User/code/Src/main.c ****   CmdCfg.AutomaticRefresh = DSI_AR_ENABLE;
 368:.//User/code/Src/main.c ****   CmdCfg.TEAcknowledgeRequest = DSI_TE_ACKNOWLEDGE_DISABLE;
 369:.//User/code/Src/main.c ****   if (HAL_DSI_ConfigAdaptedCommandMode(&hdsi, &CmdCfg) != HAL_OK)
 370:.//User/code/Src/main.c ****   {
 371:.//User/code/Src/main.c ****     Error_Handler(__FILE__, __LINE__);
 372:.//User/code/Src/main.c ****   }
ARM GAS  /var/folders/wl/rshn8xbx1dsfj1zgryf4g1240000gn/T//ccdiVCjG.s 			page 8


 373:.//User/code/Src/main.c ****   if (HAL_DSI_SetGenericVCID(&hdsi, 0) != HAL_OK)
 374:.//User/code/Src/main.c ****   {
 375:.//User/code/Src/main.c ****     Error_Handler(__FILE__, __LINE__);
 376:.//User/code/Src/main.c ****   }
 377:.//User/code/Src/main.c ****   /* USER CODE BEGIN DSIHOST_Init 2 */
 378:.//User/code/Src/main.c **** 
 379:.//User/code/Src/main.c ****   /* USER CODE END DSIHOST_Init 2 */
 380:.//User/code/Src/main.c **** 
 381:.//User/code/Src/main.c **** }
 382:.//User/code/Src/main.c **** 
 383:.//User/code/Src/main.c **** /**
 384:.//User/code/Src/main.c ****   * @brief I2C4 Initialization Function
 385:.//User/code/Src/main.c ****   * @param None
 386:.//User/code/Src/main.c ****   * @retval None
 387:.//User/code/Src/main.c ****   */
 388:.//User/code/Src/main.c **** static void MX_I2C4_Init(void)
 389:.//User/code/Src/main.c **** {
 390:.//User/code/Src/main.c **** 
 391:.//User/code/Src/main.c ****   /* USER CODE BEGIN I2C4_Init 0 */
 392:.//User/code/Src/main.c **** 
 393:.//User/code/Src/main.c ****   /* USER CODE END I2C4_Init 0 */
 394:.//User/code/Src/main.c **** 
 395:.//User/code/Src/main.c ****   /* USER CODE BEGIN I2C4_Init 1 */
 396:.//User/code/Src/main.c **** 
 397:.//User/code/Src/main.c ****   /* USER CODE END I2C4_Init 1 */
 398:.//User/code/Src/main.c ****   hi2c4.Instance = I2C4;
 399:.//User/code/Src/main.c ****   hi2c4.Init.Timing = 0x10C0ECFF;
 400:.//User/code/Src/main.c ****   hi2c4.Init.OwnAddress1 = 0;
 401:.//User/code/Src/main.c ****   hi2c4.Init.AddressingMode = I2C_ADDRESSINGMODE_7BIT;
 402:.//User/code/Src/main.c ****   hi2c4.Init.DualAddressMode = I2C_DUALADDRESS_DISABLE;
 403:.//User/code/Src/main.c ****   hi2c4.Init.OwnAddress2 = 0;
 404:.//User/code/Src/main.c ****   hi2c4.Init.OwnAddress2Masks = I2C_OA2_NOMASK;
 405:.//User/code/Src/main.c ****   hi2c4.Init.GeneralCallMode = I2C_GENERALCALL_DISABLE;
 406:.//User/code/Src/main.c ****   hi2c4.Init.NoStretchMode = I2C_NOSTRETCH_DISABLE;
 407:.//User/code/Src/main.c ****   if (HAL_I2C_Init(&hi2c4) != HAL_OK)
 408:.//User/code/Src/main.c ****   {
 409:.//User/code/Src/main.c ****     Error_Handler(__FILE__, __LINE__);
 410:.//User/code/Src/main.c ****   }
 411:.//User/code/Src/main.c ****   /** Configure Analogue filter
 412:.//User/code/Src/main.c ****   */
 413:.//User/code/Src/main.c ****   if (HAL_I2CEx_ConfigAnalogFilter(&hi2c4, I2C_ANALOGFILTER_ENABLE) != HAL_OK)
 414:.//User/code/Src/main.c ****   {
 415:.//User/code/Src/main.c ****     Error_Handler(__FILE__, __LINE__);
 416:.//User/code/Src/main.c ****   }
 417:.//User/code/Src/main.c ****   /** Configure Digital filter
 418:.//User/code/Src/main.c ****   */
 419:.//User/code/Src/main.c ****   if (HAL_I2CEx_ConfigDigitalFilter(&hi2c4, 0) != HAL_OK)
 420:.//User/code/Src/main.c ****   {
 421:.//User/code/Src/main.c ****     Error_Handler(__FILE__, __LINE__);
 422:.//User/code/Src/main.c ****   }
 423:.//User/code/Src/main.c ****   /* USER CODE BEGIN I2C4_Init 2 */
 424:.//User/code/Src/main.c **** 
 425:.//User/code/Src/main.c ****   /* USER CODE END I2C4_Init 2 */
 426:.//User/code/Src/main.c **** 
 427:.//User/code/Src/main.c **** }
 428:.//User/code/Src/main.c **** 
 429:.//User/code/Src/main.c **** /**
ARM GAS  /var/folders/wl/rshn8xbx1dsfj1zgryf4g1240000gn/T//ccdiVCjG.s 			page 9


 430:.//User/code/Src/main.c ****   * @brief LTDC Initialization Function
 431:.//User/code/Src/main.c ****   * @param None
 432:.//User/code/Src/main.c ****   * @retval None
 433:.//User/code/Src/main.c ****   */
 434:.//User/code/Src/main.c **** static void MX_LTDC_Init(void)
 435:.//User/code/Src/main.c **** {
 436:.//User/code/Src/main.c **** 
 437:.//User/code/Src/main.c ****   /* USER CODE BEGIN LTDC_Init 0 */
 438:.//User/code/Src/main.c **** 
 439:.//User/code/Src/main.c ****   /* USER CODE END LTDC_Init 0 */
 440:.//User/code/Src/main.c **** 
 441:.//User/code/Src/main.c ****   LTDC_LayerCfgTypeDef pLayerCfg = {0};
 442:.//User/code/Src/main.c ****   LTDC_LayerCfgTypeDef pLayerCfg1 = {0};
 443:.//User/code/Src/main.c **** 
 444:.//User/code/Src/main.c ****   /* USER CODE BEGIN LTDC_Init 1 */
 445:.//User/code/Src/main.c **** 
 446:.//User/code/Src/main.c ****   /* USER CODE END LTDC_Init 1 */
 447:.//User/code/Src/main.c ****   hltdc.Instance = LTDC;
 448:.//User/code/Src/main.c ****   hltdc.Init.HSPolarity = LTDC_HSPOLARITY_AL;
 449:.//User/code/Src/main.c ****   hltdc.Init.VSPolarity = LTDC_VSPOLARITY_AL;
 450:.//User/code/Src/main.c ****   hltdc.Init.DEPolarity = LTDC_DEPOLARITY_AL;
 451:.//User/code/Src/main.c ****   hltdc.Init.PCPolarity = LTDC_PCPOLARITY_IPC;
 452:.//User/code/Src/main.c ****   hltdc.Init.HorizontalSync = 1;
 453:.//User/code/Src/main.c ****   hltdc.Init.VerticalSync = 1;
 454:.//User/code/Src/main.c ****   hltdc.Init.AccumulatedHBP = 2;
 455:.//User/code/Src/main.c ****   hltdc.Init.AccumulatedVBP = 2;
 456:.//User/code/Src/main.c ****   hltdc.Init.AccumulatedActiveW = 402;
 457:.//User/code/Src/main.c ****   hltdc.Init.AccumulatedActiveH = 482;
 458:.//User/code/Src/main.c ****   hltdc.Init.TotalWidth = 403;
 459:.//User/code/Src/main.c ****   hltdc.Init.TotalHeigh = 483;
 460:.//User/code/Src/main.c ****   hltdc.Init.Backcolor.Blue = 0;
 461:.//User/code/Src/main.c ****   hltdc.Init.Backcolor.Green = 0;
 462:.//User/code/Src/main.c ****   hltdc.Init.Backcolor.Red = 0;
 463:.//User/code/Src/main.c ****   if (HAL_LTDC_Init(&hltdc) != HAL_OK)
 464:.//User/code/Src/main.c ****   {
 465:.//User/code/Src/main.c ****     Error_Handler(__FILE__, __LINE__);
 466:.//User/code/Src/main.c ****   }
 467:.//User/code/Src/main.c ****   pLayerCfg.WindowX0 = 0;
 468:.//User/code/Src/main.c ****   pLayerCfg.WindowX1 = 0;
 469:.//User/code/Src/main.c ****   pLayerCfg.WindowY0 = 0;
 470:.//User/code/Src/main.c ****   pLayerCfg.WindowY1 = 0;
 471:.//User/code/Src/main.c ****   pLayerCfg.PixelFormat = LTDC_PIXEL_FORMAT_ARGB8888;
 472:.//User/code/Src/main.c ****   pLayerCfg.Alpha = 0;
 473:.//User/code/Src/main.c ****   pLayerCfg.Alpha0 = 0;
 474:.//User/code/Src/main.c ****   pLayerCfg.BlendingFactor1 = LTDC_BLENDING_FACTOR1_CA;
 475:.//User/code/Src/main.c ****   pLayerCfg.BlendingFactor2 = LTDC_BLENDING_FACTOR2_CA;
 476:.//User/code/Src/main.c ****   pLayerCfg.FBStartAdress = 0;
 477:.//User/code/Src/main.c ****   pLayerCfg.ImageWidth = 0;
 478:.//User/code/Src/main.c ****   pLayerCfg.ImageHeight = 0;
 479:.//User/code/Src/main.c ****   pLayerCfg.Backcolor.Blue = 0;
 480:.//User/code/Src/main.c ****   pLayerCfg.Backcolor.Green = 0;
 481:.//User/code/Src/main.c ****   pLayerCfg.Backcolor.Red = 0;
 482:.//User/code/Src/main.c ****   if (HAL_LTDC_ConfigLayer(&hltdc, &pLayerCfg, 0) != HAL_OK)
 483:.//User/code/Src/main.c ****   {
 484:.//User/code/Src/main.c ****     Error_Handler(__FILE__, __LINE__);
 485:.//User/code/Src/main.c ****   }
 486:.//User/code/Src/main.c ****   pLayerCfg1.WindowX0 = 0;
ARM GAS  /var/folders/wl/rshn8xbx1dsfj1zgryf4g1240000gn/T//ccdiVCjG.s 			page 10


 487:.//User/code/Src/main.c ****   pLayerCfg1.WindowX1 = 0;
 488:.//User/code/Src/main.c ****   pLayerCfg1.WindowY0 = 0;
 489:.//User/code/Src/main.c ****   pLayerCfg1.WindowY1 = 0;
 490:.//User/code/Src/main.c ****   pLayerCfg1.PixelFormat = LTDC_PIXEL_FORMAT_ARGB8888;
 491:.//User/code/Src/main.c ****   pLayerCfg1.Alpha = 0;
 492:.//User/code/Src/main.c ****   pLayerCfg1.Alpha0 = 0;
 493:.//User/code/Src/main.c ****   pLayerCfg1.BlendingFactor1 = LTDC_BLENDING_FACTOR1_CA;
 494:.//User/code/Src/main.c ****   pLayerCfg1.BlendingFactor2 = LTDC_BLENDING_FACTOR2_CA;
 495:.//User/code/Src/main.c ****   pLayerCfg1.FBStartAdress = 0;
 496:.//User/code/Src/main.c ****   pLayerCfg1.ImageWidth = 0;
 497:.//User/code/Src/main.c ****   pLayerCfg1.ImageHeight = 0;
 498:.//User/code/Src/main.c ****   pLayerCfg1.Backcolor.Blue = 0;
 499:.//User/code/Src/main.c ****   pLayerCfg1.Backcolor.Green = 0;
 500:.//User/code/Src/main.c ****   pLayerCfg1.Backcolor.Red = 0;
 501:.//User/code/Src/main.c ****   if (HAL_LTDC_ConfigLayer(&hltdc, &pLayerCfg1, 1) != HAL_OK)
 502:.//User/code/Src/main.c ****   {
 503:.//User/code/Src/main.c ****     Error_Handler(__FILE__, __LINE__);
 504:.//User/code/Src/main.c ****   }
 505:.//User/code/Src/main.c ****   /* USER CODE BEGIN LTDC_Init 2 */
 506:.//User/code/Src/main.c **** 
 507:.//User/code/Src/main.c ****   /* USER CODE END LTDC_Init 2 */
 508:.//User/code/Src/main.c **** 
 509:.//User/code/Src/main.c **** }
 510:.//User/code/Src/main.c **** 
 511:.//User/code/Src/main.c **** /**
 512:.//User/code/Src/main.c ****   * @brief USART1 Initialization Function
 513:.//User/code/Src/main.c ****   * @param None
 514:.//User/code/Src/main.c ****   * @retval None
 515:.//User/code/Src/main.c ****   */
 516:.//User/code/Src/main.c **** static void MX_USART1_UART_Init(void)
 517:.//User/code/Src/main.c **** {
 518:.//User/code/Src/main.c **** 
 519:.//User/code/Src/main.c ****   /* USER CODE BEGIN USART1_Init 0 */
 520:.//User/code/Src/main.c **** 
 521:.//User/code/Src/main.c ****   /* USER CODE END USART1_Init 0 */
 522:.//User/code/Src/main.c **** 
 523:.//User/code/Src/main.c ****   /* USER CODE BEGIN USART1_Init 1 */
 524:.//User/code/Src/main.c **** 
 525:.//User/code/Src/main.c ****   /* USER CODE END USART1_Init 1 */
 526:.//User/code/Src/main.c ****   huart1.Instance = USART1;
 527:.//User/code/Src/main.c ****   huart1.Init.BaudRate = 115200;
 528:.//User/code/Src/main.c ****   huart1.Init.WordLength = UART_WORDLENGTH_8B;
 529:.//User/code/Src/main.c ****   huart1.Init.StopBits = UART_STOPBITS_1;
 530:.//User/code/Src/main.c ****   huart1.Init.Parity = UART_PARITY_NONE;
 531:.//User/code/Src/main.c ****   huart1.Init.Mode = UART_MODE_TX_RX;
 532:.//User/code/Src/main.c ****   huart1.Init.HwFlowCtl = UART_HWCONTROL_NONE;
 533:.//User/code/Src/main.c ****   huart1.Init.OverSampling = UART_OVERSAMPLING_16;
 534:.//User/code/Src/main.c ****   huart1.Init.OneBitSampling = UART_ONE_BIT_SAMPLE_DISABLE;
 535:.//User/code/Src/main.c ****   huart1.Init.ClockPrescaler = UART_PRESCALER_DIV1;
 536:.//User/code/Src/main.c ****   huart1.AdvancedInit.AdvFeatureInit = UART_ADVFEATURE_NO_INIT;
 537:.//User/code/Src/main.c ****   if (HAL_UART_Init(&huart1) != HAL_OK)
 538:.//User/code/Src/main.c ****   {
 539:.//User/code/Src/main.c ****     Error_Handler(__FILE__, __LINE__);
 540:.//User/code/Src/main.c ****   }
 541:.//User/code/Src/main.c ****   if (HAL_UARTEx_SetTxFifoThreshold(&huart1, UART_TXFIFO_THRESHOLD_1_8) != HAL_OK)
 542:.//User/code/Src/main.c ****   {
 543:.//User/code/Src/main.c ****     Error_Handler(__FILE__, __LINE__);
ARM GAS  /var/folders/wl/rshn8xbx1dsfj1zgryf4g1240000gn/T//ccdiVCjG.s 			page 11


 544:.//User/code/Src/main.c ****   }
 545:.//User/code/Src/main.c ****   if (HAL_UARTEx_SetRxFifoThreshold(&huart1, UART_RXFIFO_THRESHOLD_1_8) != HAL_OK)
 546:.//User/code/Src/main.c ****   {
 547:.//User/code/Src/main.c ****     Error_Handler(__FILE__, __LINE__);
 548:.//User/code/Src/main.c ****   }
 549:.//User/code/Src/main.c ****   if (HAL_UARTEx_DisableFifoMode(&huart1) != HAL_OK)
 550:.//User/code/Src/main.c ****   {
 551:.//User/code/Src/main.c ****     Error_Handler(__FILE__, __LINE__);
 552:.//User/code/Src/main.c ****   }
 553:.//User/code/Src/main.c ****   /* USER CODE BEGIN USART1_Init 2 */
 554:.//User/code/Src/main.c **** 
 555:.//User/code/Src/main.c ****   /* USER CODE END USART1_Init 2 */
 556:.//User/code/Src/main.c **** 
 557:.//User/code/Src/main.c **** }
 558:.//User/code/Src/main.c **** 
 559:.//User/code/Src/main.c **** /**
 560:.//User/code/Src/main.c ****   * Enable DMA controller clock
 561:.//User/code/Src/main.c ****   */
 562:.//User/code/Src/main.c **** static void MX_BDMA_Init(void)
 563:.//User/code/Src/main.c **** {
 564:.//User/code/Src/main.c **** 
 565:.//User/code/Src/main.c ****   /* DMA controller clock enable */
 566:.//User/code/Src/main.c ****   __HAL_RCC_BDMA_CLK_ENABLE();
 567:.//User/code/Src/main.c **** 
 568:.//User/code/Src/main.c ****   /* DMA interrupt init */
 569:.//User/code/Src/main.c ****   /* BDMA_Channel0_IRQn interrupt configuration */
 570:.//User/code/Src/main.c ****   HAL_NVIC_SetPriority(BDMA_Channel0_IRQn, 5, 0);
 571:.//User/code/Src/main.c ****   HAL_NVIC_EnableIRQ(BDMA_Channel0_IRQn);
 572:.//User/code/Src/main.c ****   /* BDMA_Channel1_IRQn interrupt configuration */
 573:.//User/code/Src/main.c ****   HAL_NVIC_SetPriority(BDMA_Channel1_IRQn, 5, 0);
 574:.//User/code/Src/main.c ****   HAL_NVIC_EnableIRQ(BDMA_Channel1_IRQn);
 575:.//User/code/Src/main.c **** 
 576:.//User/code/Src/main.c **** }
 577:.//User/code/Src/main.c **** 
 578:.//User/code/Src/main.c **** /**
 579:.//User/code/Src/main.c ****   * @brief GPIO Initialization Function
 580:.//User/code/Src/main.c ****   * @param None
 581:.//User/code/Src/main.c ****   * @retval None
 582:.//User/code/Src/main.c ****   */
 583:.//User/code/Src/main.c **** static void MX_GPIO_Init(void)
 584:.//User/code/Src/main.c **** {
 585:.//User/code/Src/main.c ****   GPIO_InitTypeDef GPIO_InitStruct = {0};
 586:.//User/code/Src/main.c **** 
 587:.//User/code/Src/main.c ****   /* GPIO Ports Clock Enable */
 588:.//User/code/Src/main.c ****   __HAL_RCC_GPIOA_CLK_ENABLE();
 589:.//User/code/Src/main.c ****   __HAL_RCC_GPIOC_CLK_ENABLE();
 590:.//User/code/Src/main.c ****   __HAL_RCC_GPIOH_CLK_ENABLE();
 591:.//User/code/Src/main.c ****   __HAL_RCC_GPIOD_CLK_ENABLE();
 592:.//User/code/Src/main.c **** 
 593:.//User/code/Src/main.c ****   /*Configure GPIO pin : CEC_CK_MCO1_Pin */
 594:.//User/code/Src/main.c ****   GPIO_InitStruct.Pin = CEC_CK_MCO1_Pin;
 595:.//User/code/Src/main.c ****   GPIO_InitStruct.Mode = GPIO_MODE_AF_PP;
 596:.//User/code/Src/main.c ****   GPIO_InitStruct.Pull = GPIO_NOPULL;
 597:.//User/code/Src/main.c ****   GPIO_InitStruct.Speed = GPIO_SPEED_FREQ_LOW;
 598:.//User/code/Src/main.c ****   GPIO_InitStruct.Alternate = GPIO_AF0_MCO;
 599:.//User/code/Src/main.c ****   HAL_GPIO_Init(CEC_CK_MCO1_GPIO_Port, &GPIO_InitStruct);
 600:.//User/code/Src/main.c **** 
ARM GAS  /var/folders/wl/rshn8xbx1dsfj1zgryf4g1240000gn/T//ccdiVCjG.s 			page 12


 601:.//User/code/Src/main.c **** }
 602:.//User/code/Src/main.c **** 
 603:.//User/code/Src/main.c **** /* USER CODE BEGIN 4 */
 604:.//User/code/Src/main.c **** 
 605:.//User/code/Src/main.c **** /* USER CODE END 4 */
 606:.//User/code/Src/main.c **** 
 607:.//User/code/Src/main.c **** /* USER CODE BEGIN Header_StartDefaultTask */
 608:.//User/code/Src/main.c **** /**
 609:.//User/code/Src/main.c ****   * @brief  Function implementing the defaultTask thread.
 610:.//User/code/Src/main.c ****   * @param  argument: Not used
 611:.//User/code/Src/main.c ****   * @retval None
 612:.//User/code/Src/main.c ****   */
 613:.//User/code/Src/main.c **** /* USER CODE END Header_StartDefaultTask */
 614:.//User/code/Src/main.c **** void StartDefaultTask(void *argument)
 615:.//User/code/Src/main.c **** {
  29              		.loc 1 615 1 view -0
  30              		.cfi_startproc
  31              		@ Volatile: function does not return.
  32              		@ args = 0, pretend = 0, frame = 0
  33              		@ frame_needed = 0, uses_anonymous_args = 0
  34              	.LVL0:
  35              		.loc 1 615 1 is_stmt 0 view .LVU1
  36 0000 08B5     		push	{r3, lr}
  37              	.LCFI0:
  38              		.cfi_def_cfa_offset 8
  39              		.cfi_offset 3, -8
  40              		.cfi_offset 14, -4
  41              	.LVL1:
  42              	.L2:
 616:.//User/code/Src/main.c ****   /* USER CODE BEGIN 5 */
 617:.//User/code/Src/main.c ****   /* Infinite loop */
 618:.//User/code/Src/main.c ****   for(;;)
  43              		.loc 1 618 3 is_stmt 1 discriminator 1 view .LVU2
 619:.//User/code/Src/main.c ****   {
 620:.//User/code/Src/main.c ****     osDelay(1);
  44              		.loc 1 620 5 discriminator 1 view .LVU3
  45 0002 0120     		movs	r0, #1
  46 0004 FFF7FEFF 		bl	osDelay
  47              	.LVL2:
 618:.//User/code/Src/main.c ****   {
  48              		.loc 1 618 8 discriminator 1 view .LVU4
  49 0008 FBE7     		b	.L2
  50              		.cfi_endproc
  51              	.LFE347:
  53 000a 00BF     		.section	.rodata.PeriphCommonClock_Config.str1.4,"aMS",%progbits,1
  54              		.align	2
  55              	.LC0:
  56 0000 2E2F2F55 		.ascii	".//User/code/Src/main.c\000"
  56      7365722F 
  56      636F6465 
  56      2F537263 
  56      2F6D6169 
  57              		.section	.text.PeriphCommonClock_Config,"ax",%progbits
  58              		.align	1
  59              		.p2align 2,,3
  60              		.global	PeriphCommonClock_Config
  61              		.syntax unified
ARM GAS  /var/folders/wl/rshn8xbx1dsfj1zgryf4g1240000gn/T//ccdiVCjG.s 			page 13


  62              		.thumb
  63              		.thumb_func
  64              		.fpu fpv5-d16
  66              	PeriphCommonClock_Config:
  67              	.LFB339:
 222:.//User/code/Src/main.c ****   RCC_PeriphCLKInitTypeDef PeriphClkInitStruct = {0};
  68              		.loc 1 222 1 view -0
  69              		.cfi_startproc
  70              		@ args = 0, pretend = 0, frame = 192
  71              		@ frame_needed = 0, uses_anonymous_args = 0
 223:.//User/code/Src/main.c **** 
  72              		.loc 1 223 3 view .LVU6
 222:.//User/code/Src/main.c ****   RCC_PeriphCLKInitTypeDef PeriphClkInitStruct = {0};
  73              		.loc 1 222 1 is_stmt 0 view .LVU7
  74 0000 30B5     		push	{r4, r5, lr}
  75              	.LCFI1:
  76              		.cfi_def_cfa_offset 12
  77              		.cfi_offset 4, -12
  78              		.cfi_offset 5, -8
  79              		.cfi_offset 14, -4
  80 0002 B1B0     		sub	sp, sp, #196
  81              	.LCFI2:
  82              		.cfi_def_cfa_offset 208
 223:.//User/code/Src/main.c **** 
  83              		.loc 1 223 28 view .LVU8
  84 0004 9C22     		movs	r2, #156
  85 0006 0021     		movs	r1, #0
 229:.//User/code/Src/main.c ****   PeriphClkInitStruct.PLL2.PLL2P = 2;
  86              		.loc 1 229 34 view .LVU9
  87 0008 0C25     		movs	r5, #12
 223:.//User/code/Src/main.c **** 
  88              		.loc 1 223 28 view .LVU10
  89 000a 09A8     		add	r0, sp, #36
 233:.//User/code/Src/main.c ****   PeriphClkInitStruct.PLL2.PLL2VCOSEL = RCC_PLL2VCOMEDIUM;
  90              		.loc 1 233 36 view .LVU11
  91 000c C024     		movs	r4, #192
 223:.//User/code/Src/main.c **** 
  92              		.loc 1 223 28 view .LVU12
  93 000e FFF7FEFF 		bl	memset
  94              	.LVL3:
 227:.//User/code/Src/main.c ****   PeriphClkInitStruct.PLL2.PLL2M = 2;
  95              		.loc 1 227 3 is_stmt 1 view .LVU13
 227:.//User/code/Src/main.c ****   PeriphClkInitStruct.PLL2.PLL2M = 2;
  96              		.loc 1 227 44 is_stmt 0 view .LVU14
  97 0012 4FF40020 		mov	r0, #524288
 228:.//User/code/Src/main.c ****   PeriphClkInitStruct.PLL2.PLL2N = 12;
  98              		.loc 1 228 34 view .LVU15
  99 0016 0223     		movs	r3, #2
 234:.//User/code/Src/main.c ****   PeriphClkInitStruct.PLL2.PLL2FRACN = 0;
 100              		.loc 1 234 39 view .LVU16
 101 0018 2021     		movs	r1, #32
 235:.//User/code/Src/main.c ****   PeriphClkInitStruct.AdcClockSelection = RCC_ADCCLKSOURCE_PLL2;
 102              		.loc 1 235 38 view .LVU17
 103 001a 0022     		movs	r2, #0
 227:.//User/code/Src/main.c ****   PeriphClkInitStruct.PLL2.PLL2M = 2;
 104              		.loc 1 227 44 view .LVU18
 105 001c 0090     		str	r0, [sp]
ARM GAS  /var/folders/wl/rshn8xbx1dsfj1zgryf4g1240000gn/T//ccdiVCjG.s 			page 14


 228:.//User/code/Src/main.c ****   PeriphClkInitStruct.PLL2.PLL2N = 12;
 106              		.loc 1 228 3 is_stmt 1 view .LVU19
 237:.//User/code/Src/main.c ****   {
 107              		.loc 1 237 7 is_stmt 0 view .LVU20
 108 001e 6846     		mov	r0, sp
 228:.//User/code/Src/main.c ****   PeriphClkInitStruct.PLL2.PLL2N = 12;
 109              		.loc 1 228 34 view .LVU21
 110 0020 0193     		str	r3, [sp, #4]
 229:.//User/code/Src/main.c ****   PeriphClkInitStruct.PLL2.PLL2P = 2;
 111              		.loc 1 229 3 is_stmt 1 view .LVU22
 232:.//User/code/Src/main.c ****   PeriphClkInitStruct.PLL2.PLL2RGE = RCC_PLL2VCIRANGE_3;
 112              		.loc 1 232 34 is_stmt 0 view .LVU23
 113 0022 0593     		str	r3, [sp, #20]
 229:.//User/code/Src/main.c ****   PeriphClkInitStruct.PLL2.PLL2P = 2;
 114              		.loc 1 229 34 view .LVU24
 115 0024 0295     		str	r5, [sp, #8]
 230:.//User/code/Src/main.c ****   PeriphClkInitStruct.PLL2.PLL2Q = 2;
 116              		.loc 1 230 3 is_stmt 1 view .LVU25
 231:.//User/code/Src/main.c ****   PeriphClkInitStruct.PLL2.PLL2R = 2;
 117              		.loc 1 231 3 view .LVU26
 232:.//User/code/Src/main.c ****   PeriphClkInitStruct.PLL2.PLL2RGE = RCC_PLL2VCIRANGE_3;
 118              		.loc 1 232 3 view .LVU27
 233:.//User/code/Src/main.c ****   PeriphClkInitStruct.PLL2.PLL2VCOSEL = RCC_PLL2VCOMEDIUM;
 119              		.loc 1 233 3 view .LVU28
 235:.//User/code/Src/main.c ****   PeriphClkInitStruct.AdcClockSelection = RCC_ADCCLKSOURCE_PLL2;
 120              		.loc 1 235 38 is_stmt 0 view .LVU29
 121 0026 0892     		str	r2, [sp, #32]
 231:.//User/code/Src/main.c ****   PeriphClkInitStruct.PLL2.PLL2R = 2;
 122              		.loc 1 231 34 view .LVU30
 123 0028 CDE90333 		strd	r3, r3, [sp, #12]
 234:.//User/code/Src/main.c ****   PeriphClkInitStruct.PLL2.PLL2FRACN = 0;
 124              		.loc 1 234 39 view .LVU31
 125 002c CDE90641 		strd	r4, r1, [sp, #24]
 235:.//User/code/Src/main.c ****   PeriphClkInitStruct.AdcClockSelection = RCC_ADCCLKSOURCE_PLL2;
 126              		.loc 1 235 3 is_stmt 1 view .LVU32
 236:.//User/code/Src/main.c ****   if (HAL_RCCEx_PeriphCLKConfig(&PeriphClkInitStruct) != HAL_OK)
 127              		.loc 1 236 3 view .LVU33
 237:.//User/code/Src/main.c ****   {
 128              		.loc 1 237 3 view .LVU34
 237:.//User/code/Src/main.c ****   {
 129              		.loc 1 237 7 is_stmt 0 view .LVU35
 130 0030 FFF7FEFF 		bl	HAL_RCCEx_PeriphCLKConfig
 131              	.LVL4:
 237:.//User/code/Src/main.c ****   {
 132              		.loc 1 237 6 view .LVU36
 133 0034 08B9     		cbnz	r0, .L11
 241:.//User/code/Src/main.c **** 
 134              		.loc 1 241 1 view .LVU37
 135 0036 31B0     		add	sp, sp, #196
 136              	.LCFI3:
 137              		.cfi_remember_state
 138              		.cfi_def_cfa_offset 12
 139              		@ sp needed
 140 0038 30BD     		pop	{r4, r5, pc}
 141              	.L11:
 142              	.LCFI4:
 143              		.cfi_restore_state
ARM GAS  /var/folders/wl/rshn8xbx1dsfj1zgryf4g1240000gn/T//ccdiVCjG.s 			page 15


 144              	.LBB4:
 145              	.LBI4:
 221:.//User/code/Src/main.c **** {
 146              		.loc 1 221 6 is_stmt 1 view .LVU38
 147              	.LBB5:
 239:.//User/code/Src/main.c ****   }
 148              		.loc 1 239 5 view .LVU39
 149 003a EF21     		movs	r1, #239
 150 003c 0248     		ldr	r0, .L12
 151 003e FFF7FEFF 		bl	Error_Handler
 152              	.LVL5:
 153              	.LBE5:
 154              	.LBE4:
 241:.//User/code/Src/main.c **** 
 155              		.loc 1 241 1 is_stmt 0 view .LVU40
 156 0042 31B0     		add	sp, sp, #196
 157              	.LCFI5:
 158              		.cfi_def_cfa_offset 12
 159              		@ sp needed
 160 0044 30BD     		pop	{r4, r5, pc}
 161              	.L13:
 162 0046 00BF     		.align	2
 163              	.L12:
 164 0048 00000000 		.word	.LC0
 165              		.cfi_endproc
 166              	.LFE339:
 168              		.section	.text.startup.main,"ax",%progbits
 169              		.align	1
 170              		.p2align 2,,3
 171              		.global	main
 172              		.syntax unified
 173              		.thumb
 174              		.thumb_func
 175              		.fpu fpv5-d16
 177              	main:
 178              	.LFB338:
  99:.//User/code/Src/main.c ****   /* USER CODE BEGIN 1 */
 179              		.loc 1 99 1 is_stmt 1 view -0
 180              		.cfi_startproc
 181              		@ args = 0, pretend = 0, frame = 200
 182              		@ frame_needed = 0, uses_anonymous_args = 0
 104:.//User/code/Src/main.c **** /* USER CODE END Boot_Mode_Sequence_0 */
 183              		.loc 1 104 3 view .LVU42
 109:.//User/code/Src/main.c ****   while((__HAL_RCC_GET_FLAG(RCC_FLAG_D2CKRDY) != RESET) && (timeout-- > 0));
 184              		.loc 1 109 3 view .LVU43
 185              	.LVL6:
 110:.//User/code/Src/main.c ****   if ( timeout < 0 )
 186              		.loc 1 110 3 view .LVU44
  99:.//User/code/Src/main.c ****   /* USER CODE BEGIN 1 */
 187              		.loc 1 99 1 is_stmt 0 view .LVU45
 188 0000 30B5     		push	{r4, r5, lr}
 189              	.LCFI6:
 190              		.cfi_def_cfa_offset 12
 191              		.cfi_offset 4, -12
 192              		.cfi_offset 5, -8
 193              		.cfi_offset 14, -4
 110:.//User/code/Src/main.c ****   if ( timeout < 0 )
ARM GAS  /var/folders/wl/rshn8xbx1dsfj1zgryf4g1240000gn/T//ccdiVCjG.s 			page 16


 194              		.loc 1 110 8 view .LVU46
 195 0002 4FF48033 		mov	r3, #65536
  99:.//User/code/Src/main.c ****   /* USER CODE BEGIN 1 */
 196              		.loc 1 99 1 view .LVU47
 197 0006 B3B0     		sub	sp, sp, #204
 198              	.LCFI7:
 199              		.cfi_def_cfa_offset 216
 110:.//User/code/Src/main.c ****   if ( timeout < 0 )
 200              		.loc 1 110 10 view .LVU48
 201 0008 124A     		ldr	r2, .L134
 110:.//User/code/Src/main.c ****   if ( timeout < 0 )
 202              		.loc 1 110 8 view .LVU49
 203 000a 02E0     		b	.L16
 204              	.LVL7:
 205              	.L111:
 110:.//User/code/Src/main.c ****   if ( timeout < 0 )
 206              		.loc 1 110 57 discriminator 1 view .LVU50
 207 000c 013B     		subs	r3, r3, #1
 208              	.LVL8:
 110:.//User/code/Src/main.c ****   if ( timeout < 0 )
 209              		.loc 1 110 57 discriminator 1 view .LVU51
 210 000e 00F0F481 		beq	.L110
 211              	.LVL9:
 212              	.L16:
 110:.//User/code/Src/main.c ****   if ( timeout < 0 )
 213              		.loc 1 110 76 is_stmt 1 discriminator 2 view .LVU52
 110:.//User/code/Src/main.c ****   if ( timeout < 0 )
 214              		.loc 1 110 8 discriminator 2 view .LVU53
 110:.//User/code/Src/main.c ****   if ( timeout < 0 )
 215              		.loc 1 110 10 is_stmt 0 discriminator 2 view .LVU54
 216 0012 1168     		ldr	r1, [r2]
 110:.//User/code/Src/main.c ****   if ( timeout < 0 )
 217              		.loc 1 110 8 discriminator 2 view .LVU55
 218 0014 0904     		lsls	r1, r1, #16
 219 0016 F9D4     		bmi	.L111
 220              	.LVL10:
 221              	.L15:
 119:.//User/code/Src/main.c **** 
 222              		.loc 1 119 3 is_stmt 1 view .LVU56
 223              	.LBB26:
 134:.//User/code/Src/main.c **** /*Take HSEM */
 224              		.loc 1 134 1 is_stmt 0 view .LVU57
 225 0018 0E4C     		ldr	r4, .L134
 226              	.LBE26:
 119:.//User/code/Src/main.c **** 
 227              		.loc 1 119 3 view .LVU58
 228 001a FFF7FEFF 		bl	HAL_Init
 229              	.LVL11:
 126:.//User/code/Src/main.c **** 
 230              		.loc 1 126 3 is_stmt 1 view .LVU59
 231 001e FFF7FEFF 		bl	SystemClock_Config
 232              	.LVL12:
 129:.//User/code/Src/main.c **** /* USER CODE BEGIN Boot_Mode_Sequence_2 */
 233              		.loc 1 129 3 view .LVU60
 234 0022 FFF7FEFF 		bl	PeriphCommonClock_Config
 235              	.LVL13:
 134:.//User/code/Src/main.c **** /*Take HSEM */
ARM GAS  /var/folders/wl/rshn8xbx1dsfj1zgryf4g1240000gn/T//ccdiVCjG.s 			page 17


 236              		.loc 1 134 1 view .LVU61
 237              	.LBB27:
 134:.//User/code/Src/main.c **** /*Take HSEM */
 238              		.loc 1 134 1 view .LVU62
 134:.//User/code/Src/main.c **** /*Take HSEM */
 239              		.loc 1 134 1 view .LVU63
 240 0026 D4F8E030 		ldr	r3, [r4, #224]
 241              	.LBE27:
 136:.//User/code/Src/main.c **** /*Release HSEM in order to notify the CPU2(CM4)*/
 242              		.loc 1 136 1 is_stmt 0 view .LVU64
 243 002a 0020     		movs	r0, #0
 244              	.LBB28:
 134:.//User/code/Src/main.c **** /*Take HSEM */
 245              		.loc 1 134 1 view .LVU65
 246 002c 43F00073 		orr	r3, r3, #33554432
 247 0030 C4F8E030 		str	r3, [r4, #224]
 134:.//User/code/Src/main.c **** /*Take HSEM */
 248              		.loc 1 134 1 is_stmt 1 view .LVU66
 249 0034 D4F8E030 		ldr	r3, [r4, #224]
 250 0038 03F00073 		and	r3, r3, #33554432
 251 003c 0093     		str	r3, [sp]
 134:.//User/code/Src/main.c **** /*Take HSEM */
 252              		.loc 1 134 1 view .LVU67
 253 003e 009B     		ldr	r3, [sp]
 254              	.LBE28:
 134:.//User/code/Src/main.c **** /*Take HSEM */
 255              		.loc 1 134 1 view .LVU68
 136:.//User/code/Src/main.c **** /*Release HSEM in order to notify the CPU2(CM4)*/
 256              		.loc 1 136 1 view .LVU69
 257 0040 FFF7FEFF 		bl	HAL_HSEM_FastTake
 258              	.LVL14:
 138:.//User/code/Src/main.c **** /* wait until CPU2 wakes up from stop mode */
 259              		.loc 1 138 1 view .LVU70
 260 0044 0021     		movs	r1, #0
 261 0046 0846     		mov	r0, r1
 262 0048 FFF7FEFF 		bl	HAL_HSEM_Release
 263              	.LVL15:
 140:.//User/code/Src/main.c **** while((__HAL_RCC_GET_FLAG(RCC_FLAG_D2CKRDY) == RESET) && (timeout-- > 0));
 264              		.loc 1 140 1 view .LVU71
 141:.//User/code/Src/main.c **** if ( timeout < 0 )
 265              		.loc 1 141 1 view .LVU72
 141:.//User/code/Src/main.c **** if ( timeout < 0 )
 266              		.loc 1 141 6 is_stmt 0 view .LVU73
 267 004c 4FF48033 		mov	r3, #65536
 268 0050 05E0     		b	.L19
 269              	.L135:
 270 0052 00BF     		.align	2
 271              	.L134:
 272 0054 00440258 		.word	1476543488
 273              	.LVL16:
 274              	.L113:
 141:.//User/code/Src/main.c **** if ( timeout < 0 )
 275              		.loc 1 141 55 discriminator 1 view .LVU74
 276 0058 013B     		subs	r3, r3, #1
 277              	.LVL17:
 141:.//User/code/Src/main.c **** if ( timeout < 0 )
 278              		.loc 1 141 55 discriminator 1 view .LVU75
ARM GAS  /var/folders/wl/rshn8xbx1dsfj1zgryf4g1240000gn/T//ccdiVCjG.s 			page 18


 279 005a 00F04B82 		beq	.L112
 280              	.LVL18:
 281              	.L19:
 141:.//User/code/Src/main.c **** if ( timeout < 0 )
 282              		.loc 1 141 74 is_stmt 1 discriminator 2 view .LVU76
 141:.//User/code/Src/main.c **** if ( timeout < 0 )
 283              		.loc 1 141 6 discriminator 2 view .LVU77
 141:.//User/code/Src/main.c **** if ( timeout < 0 )
 284              		.loc 1 141 8 is_stmt 0 discriminator 2 view .LVU78
 285 005e 2268     		ldr	r2, [r4]
 141:.//User/code/Src/main.c **** if ( timeout < 0 )
 286              		.loc 1 141 6 discriminator 2 view .LVU79
 287 0060 1204     		lsls	r2, r2, #16
 288 0062 F9D5     		bpl	.L113
 289              	.LVL19:
 290              	.L18:
 153:.//User/code/Src/main.c ****   MX_BDMA_Init();
 291              		.loc 1 153 3 is_stmt 1 view .LVU80
 292              	.LBB29:
 293              	.LBI29:
 583:.//User/code/Src/main.c **** {
 294              		.loc 1 583 13 view .LVU81
 295              	.LBB30:
 585:.//User/code/Src/main.c **** 
 296              		.loc 1 585 3 view .LVU82
 588:.//User/code/Src/main.c ****   __HAL_RCC_GPIOC_CLK_ENABLE();
 297              		.loc 1 588 3 view .LVU83
 298              	.LBB31:
 588:.//User/code/Src/main.c ****   __HAL_RCC_GPIOC_CLK_ENABLE();
 299              		.loc 1 588 3 view .LVU84
 588:.//User/code/Src/main.c ****   __HAL_RCC_GPIOC_CLK_ENABLE();
 300              		.loc 1 588 3 view .LVU85
 301 0064 CB4C     		ldr	r4, .L136
 302              	.LBE31:
 594:.//User/code/Src/main.c ****   GPIO_InitStruct.Mode = GPIO_MODE_AF_PP;
 303              		.loc 1 594 23 is_stmt 0 view .LVU86
 304 0066 4FF48070 		mov	r0, #256
 596:.//User/code/Src/main.c ****   GPIO_InitStruct.Speed = GPIO_SPEED_FREQ_LOW;
 305              		.loc 1 596 24 view .LVU87
 306 006a 0025     		movs	r5, #0
 595:.//User/code/Src/main.c ****   GPIO_InitStruct.Pull = GPIO_NOPULL;
 307              		.loc 1 595 24 view .LVU88
 308 006c 0222     		movs	r2, #2
 309              	.LBB32:
 588:.//User/code/Src/main.c ****   __HAL_RCC_GPIOC_CLK_ENABLE();
 310              		.loc 1 588 3 view .LVU89
 311 006e D4F8E030 		ldr	r3, [r4, #224]
 312              	.LBE32:
 599:.//User/code/Src/main.c **** 
 313              		.loc 1 599 3 view .LVU90
 314 0072 25A9     		add	r1, sp, #148
 315              	.LBB33:
 588:.//User/code/Src/main.c ****   __HAL_RCC_GPIOC_CLK_ENABLE();
 316              		.loc 1 588 3 view .LVU91
 317 0074 43F00103 		orr	r3, r3, #1
 318 0078 C4F8E030 		str	r3, [r4, #224]
 588:.//User/code/Src/main.c ****   __HAL_RCC_GPIOC_CLK_ENABLE();
ARM GAS  /var/folders/wl/rshn8xbx1dsfj1zgryf4g1240000gn/T//ccdiVCjG.s 			page 19


 319              		.loc 1 588 3 is_stmt 1 view .LVU92
 320 007c D4F8E030 		ldr	r3, [r4, #224]
 321 0080 03F00103 		and	r3, r3, #1
 322 0084 0293     		str	r3, [sp, #8]
 588:.//User/code/Src/main.c ****   __HAL_RCC_GPIOC_CLK_ENABLE();
 323              		.loc 1 588 3 view .LVU93
 324 0086 029B     		ldr	r3, [sp, #8]
 325              	.LBE33:
 588:.//User/code/Src/main.c ****   __HAL_RCC_GPIOC_CLK_ENABLE();
 326              		.loc 1 588 3 view .LVU94
 589:.//User/code/Src/main.c ****   __HAL_RCC_GPIOH_CLK_ENABLE();
 327              		.loc 1 589 3 view .LVU95
 328              	.LBB34:
 589:.//User/code/Src/main.c ****   __HAL_RCC_GPIOH_CLK_ENABLE();
 329              		.loc 1 589 3 view .LVU96
 589:.//User/code/Src/main.c ****   __HAL_RCC_GPIOH_CLK_ENABLE();
 330              		.loc 1 589 3 view .LVU97
 331 0088 D4F8E030 		ldr	r3, [r4, #224]
 332 008c 43F00403 		orr	r3, r3, #4
 333 0090 C4F8E030 		str	r3, [r4, #224]
 589:.//User/code/Src/main.c ****   __HAL_RCC_GPIOH_CLK_ENABLE();
 334              		.loc 1 589 3 view .LVU98
 335 0094 D4F8E030 		ldr	r3, [r4, #224]
 336 0098 03F00403 		and	r3, r3, #4
 337 009c 0393     		str	r3, [sp, #12]
 589:.//User/code/Src/main.c ****   __HAL_RCC_GPIOH_CLK_ENABLE();
 338              		.loc 1 589 3 view .LVU99
 339 009e 039B     		ldr	r3, [sp, #12]
 340              	.LBE34:
 589:.//User/code/Src/main.c ****   __HAL_RCC_GPIOH_CLK_ENABLE();
 341              		.loc 1 589 3 view .LVU100
 590:.//User/code/Src/main.c ****   __HAL_RCC_GPIOD_CLK_ENABLE();
 342              		.loc 1 590 3 view .LVU101
 343              	.LBB35:
 590:.//User/code/Src/main.c ****   __HAL_RCC_GPIOD_CLK_ENABLE();
 344              		.loc 1 590 3 view .LVU102
 590:.//User/code/Src/main.c ****   __HAL_RCC_GPIOD_CLK_ENABLE();
 345              		.loc 1 590 3 view .LVU103
 346 00a0 D4F8E030 		ldr	r3, [r4, #224]
 347 00a4 43F08003 		orr	r3, r3, #128
 348 00a8 C4F8E030 		str	r3, [r4, #224]
 590:.//User/code/Src/main.c ****   __HAL_RCC_GPIOD_CLK_ENABLE();
 349              		.loc 1 590 3 view .LVU104
 350 00ac D4F8E030 		ldr	r3, [r4, #224]
 351 00b0 03F08003 		and	r3, r3, #128
 352 00b4 0493     		str	r3, [sp, #16]
 590:.//User/code/Src/main.c ****   __HAL_RCC_GPIOD_CLK_ENABLE();
 353              		.loc 1 590 3 view .LVU105
 354 00b6 049B     		ldr	r3, [sp, #16]
 355              	.LBE35:
 590:.//User/code/Src/main.c ****   __HAL_RCC_GPIOD_CLK_ENABLE();
 356              		.loc 1 590 3 view .LVU106
 591:.//User/code/Src/main.c **** 
 357              		.loc 1 591 3 view .LVU107
 358              	.LBB36:
 591:.//User/code/Src/main.c **** 
 359              		.loc 1 591 3 view .LVU108
ARM GAS  /var/folders/wl/rshn8xbx1dsfj1zgryf4g1240000gn/T//ccdiVCjG.s 			page 20


 591:.//User/code/Src/main.c **** 
 360              		.loc 1 591 3 view .LVU109
 361 00b8 D4F8E030 		ldr	r3, [r4, #224]
 362 00bc 43F00803 		orr	r3, r3, #8
 363 00c0 C4F8E030 		str	r3, [r4, #224]
 591:.//User/code/Src/main.c **** 
 364              		.loc 1 591 3 view .LVU110
 365 00c4 D4F8E030 		ldr	r3, [r4, #224]
 366              	.LBE36:
 594:.//User/code/Src/main.c ****   GPIO_InitStruct.Mode = GPIO_MODE_AF_PP;
 367              		.loc 1 594 23 is_stmt 0 view .LVU111
 368 00c8 2590     		str	r0, [sp, #148]
 369              	.LBB37:
 591:.//User/code/Src/main.c **** 
 370              		.loc 1 591 3 view .LVU112
 371 00ca 03F00803 		and	r3, r3, #8
 372              	.LBE37:
 599:.//User/code/Src/main.c **** 
 373              		.loc 1 599 3 view .LVU113
 374 00ce B248     		ldr	r0, .L136+4
 595:.//User/code/Src/main.c ****   GPIO_InitStruct.Pull = GPIO_NOPULL;
 375              		.loc 1 595 24 view .LVU114
 376 00d0 2692     		str	r2, [sp, #152]
 377              	.LBB38:
 591:.//User/code/Src/main.c **** 
 378              		.loc 1 591 3 view .LVU115
 379 00d2 0593     		str	r3, [sp, #20]
 591:.//User/code/Src/main.c **** 
 380              		.loc 1 591 3 is_stmt 1 view .LVU116
 381 00d4 059B     		ldr	r3, [sp, #20]
 382              	.LBE38:
 591:.//User/code/Src/main.c **** 
 383              		.loc 1 591 3 view .LVU117
 594:.//User/code/Src/main.c ****   GPIO_InitStruct.Mode = GPIO_MODE_AF_PP;
 384              		.loc 1 594 3 view .LVU118
 595:.//User/code/Src/main.c ****   GPIO_InitStruct.Pull = GPIO_NOPULL;
 385              		.loc 1 595 3 view .LVU119
 596:.//User/code/Src/main.c ****   GPIO_InitStruct.Speed = GPIO_SPEED_FREQ_LOW;
 386              		.loc 1 596 3 view .LVU120
 598:.//User/code/Src/main.c ****   HAL_GPIO_Init(CEC_CK_MCO1_GPIO_Port, &GPIO_InitStruct);
 387              		.loc 1 598 29 is_stmt 0 view .LVU121
 388 00d6 2995     		str	r5, [sp, #164]
 597:.//User/code/Src/main.c ****   GPIO_InitStruct.Alternate = GPIO_AF0_MCO;
 389              		.loc 1 597 25 view .LVU122
 390 00d8 CDE92755 		strd	r5, r5, [sp, #156]
 598:.//User/code/Src/main.c ****   HAL_GPIO_Init(CEC_CK_MCO1_GPIO_Port, &GPIO_InitStruct);
 391              		.loc 1 598 3 is_stmt 1 view .LVU123
 599:.//User/code/Src/main.c **** 
 392              		.loc 1 599 3 view .LVU124
 393 00dc FFF7FEFF 		bl	HAL_GPIO_Init
 394              	.LVL20:
 395              	.LBE30:
 396              	.LBE29:
 154:.//User/code/Src/main.c ****   MX_I2C4_Init();
 397              		.loc 1 154 3 view .LVU125
 398              	.LBB39:
 399              	.LBI39:
ARM GAS  /var/folders/wl/rshn8xbx1dsfj1zgryf4g1240000gn/T//ccdiVCjG.s 			page 21


 562:.//User/code/Src/main.c **** {
 400              		.loc 1 562 13 view .LVU126
 401              	.LBB40:
 566:.//User/code/Src/main.c **** 
 402              		.loc 1 566 3 view .LVU127
 403              	.LBB41:
 566:.//User/code/Src/main.c **** 
 404              		.loc 1 566 3 view .LVU128
 566:.//User/code/Src/main.c **** 
 405              		.loc 1 566 3 view .LVU129
 406 00e0 D4F8E030 		ldr	r3, [r4, #224]
 407              	.LBE41:
 570:.//User/code/Src/main.c ****   HAL_NVIC_EnableIRQ(BDMA_Channel0_IRQn);
 408              		.loc 1 570 3 is_stmt 0 view .LVU130
 409 00e4 2A46     		mov	r2, r5
 410 00e6 0521     		movs	r1, #5
 411              	.LBB42:
 566:.//User/code/Src/main.c **** 
 412              		.loc 1 566 3 view .LVU131
 413 00e8 43F40013 		orr	r3, r3, #2097152
 414              	.LBE42:
 570:.//User/code/Src/main.c ****   HAL_NVIC_EnableIRQ(BDMA_Channel0_IRQn);
 415              		.loc 1 570 3 view .LVU132
 416 00ec 8120     		movs	r0, #129
 417              	.LBB43:
 566:.//User/code/Src/main.c **** 
 418              		.loc 1 566 3 view .LVU133
 419 00ee C4F8E030 		str	r3, [r4, #224]
 566:.//User/code/Src/main.c **** 
 420              		.loc 1 566 3 is_stmt 1 view .LVU134
 421 00f2 D4F8E030 		ldr	r3, [r4, #224]
 422 00f6 03F40013 		and	r3, r3, #2097152
 423 00fa 0193     		str	r3, [sp, #4]
 566:.//User/code/Src/main.c **** 
 424              		.loc 1 566 3 view .LVU135
 425 00fc 019B     		ldr	r3, [sp, #4]
 426              	.LBE43:
 566:.//User/code/Src/main.c **** 
 427              		.loc 1 566 3 view .LVU136
 570:.//User/code/Src/main.c ****   HAL_NVIC_EnableIRQ(BDMA_Channel0_IRQn);
 428              		.loc 1 570 3 view .LVU137
 429 00fe FFF7FEFF 		bl	HAL_NVIC_SetPriority
 430              	.LVL21:
 571:.//User/code/Src/main.c ****   /* BDMA_Channel1_IRQn interrupt configuration */
 431              		.loc 1 571 3 view .LVU138
 432 0102 8120     		movs	r0, #129
 433 0104 FFF7FEFF 		bl	HAL_NVIC_EnableIRQ
 434              	.LVL22:
 573:.//User/code/Src/main.c ****   HAL_NVIC_EnableIRQ(BDMA_Channel1_IRQn);
 435              		.loc 1 573 3 view .LVU139
 436 0108 2A46     		mov	r2, r5
 437 010a 0521     		movs	r1, #5
 438 010c 8220     		movs	r0, #130
 439 010e FFF7FEFF 		bl	HAL_NVIC_SetPriority
 440              	.LVL23:
 574:.//User/code/Src/main.c **** 
 441              		.loc 1 574 3 view .LVU140
ARM GAS  /var/folders/wl/rshn8xbx1dsfj1zgryf4g1240000gn/T//ccdiVCjG.s 			page 22


 442 0112 8220     		movs	r0, #130
 443 0114 FFF7FEFF 		bl	HAL_NVIC_EnableIRQ
 444              	.LVL24:
 445              	.LBE40:
 446              	.LBE39:
 155:.//User/code/Src/main.c ****   MX_USART1_UART_Init();
 447              		.loc 1 155 3 view .LVU141
 448              	.LBB44:
 449              	.LBI44:
 388:.//User/code/Src/main.c **** {
 450              		.loc 1 388 13 view .LVU142
 451              	.LBB45:
 398:.//User/code/Src/main.c ****   hi2c4.Init.Timing = 0x10C0ECFF;
 452              		.loc 1 398 3 view .LVU143
 398:.//User/code/Src/main.c ****   hi2c4.Init.Timing = 0x10C0ECFF;
 453              		.loc 1 398 18 is_stmt 0 view .LVU144
 454 0118 A048     		ldr	r0, .L136+8
 455 011a A149     		ldr	r1, .L136+12
 401:.//User/code/Src/main.c ****   hi2c4.Init.DualAddressMode = I2C_DUALADDRESS_DISABLE;
 456              		.loc 1 401 29 view .LVU145
 457 011c 0123     		movs	r3, #1
 399:.//User/code/Src/main.c ****   hi2c4.Init.OwnAddress1 = 0;
 458              		.loc 1 399 21 view .LVU146
 459 011e A14A     		ldr	r2, .L136+16
 400:.//User/code/Src/main.c ****   hi2c4.Init.AddressingMode = I2C_ADDRESSINGMODE_7BIT;
 460              		.loc 1 400 26 view .LVU147
 461 0120 8560     		str	r5, [r0, #8]
 406:.//User/code/Src/main.c ****   if (HAL_I2C_Init(&hi2c4) != HAL_OK)
 462              		.loc 1 406 28 view .LVU148
 463 0122 0562     		str	r5, [r0, #32]
 401:.//User/code/Src/main.c ****   hi2c4.Init.DualAddressMode = I2C_DUALADDRESS_DISABLE;
 464              		.loc 1 401 29 view .LVU149
 465 0124 C360     		str	r3, [r0, #12]
 403:.//User/code/Src/main.c ****   hi2c4.Init.OwnAddress2Masks = I2C_OA2_NOMASK;
 466              		.loc 1 403 26 view .LVU150
 467 0126 C0E90455 		strd	r5, r5, [r0, #16]
 405:.//User/code/Src/main.c ****   hi2c4.Init.NoStretchMode = I2C_NOSTRETCH_DISABLE;
 468              		.loc 1 405 30 view .LVU151
 469 012a C0E90655 		strd	r5, r5, [r0, #24]
 399:.//User/code/Src/main.c ****   hi2c4.Init.OwnAddress1 = 0;
 470              		.loc 1 399 21 view .LVU152
 471 012e C0E90012 		strd	r1, r2, [r0]
 400:.//User/code/Src/main.c ****   hi2c4.Init.AddressingMode = I2C_ADDRESSINGMODE_7BIT;
 472              		.loc 1 400 3 is_stmt 1 view .LVU153
 401:.//User/code/Src/main.c ****   hi2c4.Init.DualAddressMode = I2C_DUALADDRESS_DISABLE;
 473              		.loc 1 401 3 view .LVU154
 402:.//User/code/Src/main.c ****   hi2c4.Init.OwnAddress2 = 0;
 474              		.loc 1 402 3 view .LVU155
 403:.//User/code/Src/main.c ****   hi2c4.Init.OwnAddress2Masks = I2C_OA2_NOMASK;
 475              		.loc 1 403 3 view .LVU156
 404:.//User/code/Src/main.c ****   hi2c4.Init.GeneralCallMode = I2C_GENERALCALL_DISABLE;
 476              		.loc 1 404 3 view .LVU157
 405:.//User/code/Src/main.c ****   hi2c4.Init.NoStretchMode = I2C_NOSTRETCH_DISABLE;
 477              		.loc 1 405 3 view .LVU158
 406:.//User/code/Src/main.c ****   if (HAL_I2C_Init(&hi2c4) != HAL_OK)
 478              		.loc 1 406 3 view .LVU159
 407:.//User/code/Src/main.c ****   {
ARM GAS  /var/folders/wl/rshn8xbx1dsfj1zgryf4g1240000gn/T//ccdiVCjG.s 			page 23


 479              		.loc 1 407 3 view .LVU160
 407:.//User/code/Src/main.c ****   {
 480              		.loc 1 407 7 is_stmt 0 view .LVU161
 481 0132 FFF7FEFF 		bl	HAL_I2C_Init
 482              	.LVL25:
 407:.//User/code/Src/main.c ****   {
 483              		.loc 1 407 6 view .LVU162
 484 0136 0028     		cmp	r0, #0
 485 0138 40F0D681 		bne	.L114
 486              	.L21:
 413:.//User/code/Src/main.c ****   {
 487              		.loc 1 413 3 is_stmt 1 view .LVU163
 413:.//User/code/Src/main.c ****   {
 488              		.loc 1 413 7 is_stmt 0 view .LVU164
 489 013c 0021     		movs	r1, #0
 490 013e 9748     		ldr	r0, .L136+8
 491 0140 FFF7FEFF 		bl	HAL_I2CEx_ConfigAnalogFilter
 492              	.LVL26:
 413:.//User/code/Src/main.c ****   {
 493              		.loc 1 413 6 view .LVU165
 494 0144 0028     		cmp	r0, #0
 495 0146 40F0C981 		bne	.L115
 496              	.L22:
 419:.//User/code/Src/main.c ****   {
 497              		.loc 1 419 3 is_stmt 1 view .LVU166
 419:.//User/code/Src/main.c ****   {
 498              		.loc 1 419 7 is_stmt 0 view .LVU167
 499 014a 0021     		movs	r1, #0
 500 014c 9348     		ldr	r0, .L136+8
 501 014e FFF7FEFF 		bl	HAL_I2CEx_ConfigDigitalFilter
 502              	.LVL27:
 419:.//User/code/Src/main.c ****   {
 503              		.loc 1 419 6 view .LVU168
 504 0152 0028     		cmp	r0, #0
 505 0154 40F0BC81 		bne	.L116
 506              	.L23:
 507              	.LBE45:
 508              	.LBE44:
 156:.//User/code/Src/main.c ****   MX_DSIHOST_DSI_Init();
 509              		.loc 1 156 3 is_stmt 1 view .LVU169
 510              	.LBB47:
 511              	.LBI47:
 516:.//User/code/Src/main.c **** {
 512              		.loc 1 516 13 view .LVU170
 513              	.LBB48:
 526:.//User/code/Src/main.c ****   huart1.Init.BaudRate = 115200;
 514              		.loc 1 526 3 view .LVU171
 526:.//User/code/Src/main.c ****   huart1.Init.BaudRate = 115200;
 515              		.loc 1 526 19 is_stmt 0 view .LVU172
 516 0158 9348     		ldr	r0, .L136+20
 528:.//User/code/Src/main.c ****   huart1.Init.StopBits = UART_STOPBITS_1;
 517              		.loc 1 528 26 view .LVU173
 518 015a 0023     		movs	r3, #0
 527:.//User/code/Src/main.c ****   huart1.Init.WordLength = UART_WORDLENGTH_8B;
 519              		.loc 1 527 24 view .LVU174
 520 015c 4FF4E134 		mov	r4, #115200
 526:.//User/code/Src/main.c ****   huart1.Init.BaudRate = 115200;
ARM GAS  /var/folders/wl/rshn8xbx1dsfj1zgryf4g1240000gn/T//ccdiVCjG.s 			page 24


 521              		.loc 1 526 19 view .LVU175
 522 0160 9249     		ldr	r1, .L136+24
 531:.//User/code/Src/main.c ****   huart1.Init.HwFlowCtl = UART_HWCONTROL_NONE;
 523              		.loc 1 531 20 view .LVU176
 524 0162 0C22     		movs	r2, #12
 530:.//User/code/Src/main.c ****   huart1.Init.Mode = UART_MODE_TX_RX;
 525              		.loc 1 530 22 view .LVU177
 526 0164 0361     		str	r3, [r0, #16]
 536:.//User/code/Src/main.c ****   if (HAL_UART_Init(&huart1) != HAL_OK)
 527              		.loc 1 536 38 view .LVU178
 528 0166 8362     		str	r3, [r0, #40]
 531:.//User/code/Src/main.c ****   huart1.Init.HwFlowCtl = UART_HWCONTROL_NONE;
 529              		.loc 1 531 20 view .LVU179
 530 0168 4261     		str	r2, [r0, #20]
 526:.//User/code/Src/main.c ****   huart1.Init.BaudRate = 115200;
 531              		.loc 1 526 19 view .LVU180
 532 016a C0E90014 		strd	r1, r4, [r0]
 527:.//User/code/Src/main.c ****   huart1.Init.WordLength = UART_WORDLENGTH_8B;
 533              		.loc 1 527 3 is_stmt 1 view .LVU181
 528:.//User/code/Src/main.c ****   huart1.Init.StopBits = UART_STOPBITS_1;
 534              		.loc 1 528 3 view .LVU182
 529:.//User/code/Src/main.c ****   huart1.Init.Parity = UART_PARITY_NONE;
 535              		.loc 1 529 24 is_stmt 0 view .LVU183
 536 016e C0E90233 		strd	r3, r3, [r0, #8]
 530:.//User/code/Src/main.c ****   huart1.Init.Mode = UART_MODE_TX_RX;
 537              		.loc 1 530 3 is_stmt 1 view .LVU184
 531:.//User/code/Src/main.c ****   huart1.Init.HwFlowCtl = UART_HWCONTROL_NONE;
 538              		.loc 1 531 3 view .LVU185
 532:.//User/code/Src/main.c ****   huart1.Init.OverSampling = UART_OVERSAMPLING_16;
 539              		.loc 1 532 3 view .LVU186
 533:.//User/code/Src/main.c ****   huart1.Init.OneBitSampling = UART_ONE_BIT_SAMPLE_DISABLE;
 540              		.loc 1 533 28 is_stmt 0 view .LVU187
 541 0172 C0E90633 		strd	r3, r3, [r0, #24]
 534:.//User/code/Src/main.c ****   huart1.Init.ClockPrescaler = UART_PRESCALER_DIV1;
 542              		.loc 1 534 3 is_stmt 1 view .LVU188
 535:.//User/code/Src/main.c ****   huart1.AdvancedInit.AdvFeatureInit = UART_ADVFEATURE_NO_INIT;
 543              		.loc 1 535 30 is_stmt 0 view .LVU189
 544 0176 C0E90833 		strd	r3, r3, [r0, #32]
 536:.//User/code/Src/main.c ****   if (HAL_UART_Init(&huart1) != HAL_OK)
 545              		.loc 1 536 3 is_stmt 1 view .LVU190
 537:.//User/code/Src/main.c ****   {
 546              		.loc 1 537 3 view .LVU191
 537:.//User/code/Src/main.c ****   {
 547              		.loc 1 537 7 is_stmt 0 view .LVU192
 548 017a FFF7FEFF 		bl	HAL_UART_Init
 549              	.LVL28:
 537:.//User/code/Src/main.c ****   {
 550              		.loc 1 537 6 view .LVU193
 551 017e 0028     		cmp	r0, #0
 552 0180 40F0A081 		bne	.L117
 553              	.L24:
 541:.//User/code/Src/main.c ****   {
 554              		.loc 1 541 3 is_stmt 1 view .LVU194
 541:.//User/code/Src/main.c ****   {
 555              		.loc 1 541 7 is_stmt 0 view .LVU195
 556 0184 0021     		movs	r1, #0
 557 0186 8848     		ldr	r0, .L136+20
ARM GAS  /var/folders/wl/rshn8xbx1dsfj1zgryf4g1240000gn/T//ccdiVCjG.s 			page 25


 558 0188 FFF7FEFF 		bl	HAL_UARTEx_SetTxFifoThreshold
 559              	.LVL29:
 541:.//User/code/Src/main.c ****   {
 560              		.loc 1 541 6 view .LVU196
 561 018c 0028     		cmp	r0, #0
 562 018e 40F09381 		bne	.L118
 563              	.L25:
 545:.//User/code/Src/main.c ****   {
 564              		.loc 1 545 3 is_stmt 1 view .LVU197
 545:.//User/code/Src/main.c ****   {
 565              		.loc 1 545 7 is_stmt 0 view .LVU198
 566 0192 0021     		movs	r1, #0
 567 0194 8448     		ldr	r0, .L136+20
 568 0196 FFF7FEFF 		bl	HAL_UARTEx_SetRxFifoThreshold
 569              	.LVL30:
 545:.//User/code/Src/main.c ****   {
 570              		.loc 1 545 6 view .LVU199
 571 019a 0028     		cmp	r0, #0
 572 019c 40F08681 		bne	.L119
 573              	.L26:
 549:.//User/code/Src/main.c ****   {
 574              		.loc 1 549 3 is_stmt 1 view .LVU200
 549:.//User/code/Src/main.c ****   {
 575              		.loc 1 549 7 is_stmt 0 view .LVU201
 576 01a0 8148     		ldr	r0, .L136+20
 577 01a2 FFF7FEFF 		bl	HAL_UARTEx_DisableFifoMode
 578              	.LVL31:
 549:.//User/code/Src/main.c ****   {
 579              		.loc 1 549 6 view .LVU202
 580 01a6 0028     		cmp	r0, #0
 581 01a8 40F07A81 		bne	.L120
 582              	.L27:
 583              	.LBE48:
 584              	.LBE47:
 157:.//User/code/Src/main.c ****   MX_LTDC_Init();
 585              		.loc 1 157 3 is_stmt 1 view .LVU203
 586              	.LBB50:
 587              	.LBI50:
 279:.//User/code/Src/main.c **** {
 588              		.loc 1 279 13 view .LVU204
 589              	.LBB51:
 286:.//User/code/Src/main.c ****   DSI_HOST_TimeoutTypeDef HostTimeouts = {0};
 590              		.loc 1 286 3 view .LVU205
 287:.//User/code/Src/main.c ****   DSI_PHY_TimerTypeDef PhyTimings = {0};
 591              		.loc 1 287 3 view .LVU206
 288:.//User/code/Src/main.c ****   DSI_LPCmdTypeDef LPCmd = {0};
 592              		.loc 1 288 24 is_stmt 0 view .LVU207
 593 01ac 0024     		movs	r4, #0
 287:.//User/code/Src/main.c ****   DSI_PHY_TimerTypeDef PhyTimings = {0};
 594              		.loc 1 287 27 view .LVU208
 595 01ae 2422     		movs	r2, #36
 596 01b0 0FA8     		add	r0, sp, #60
 297:.//User/code/Src/main.c ****   hdsi.Init.NumberOfLanes = DSI_TWO_DATA_LANES;
 597              		.loc 1 297 27 view .LVU209
 598 01b2 0225     		movs	r5, #2
 287:.//User/code/Src/main.c ****   DSI_PHY_TimerTypeDef PhyTimings = {0};
 599              		.loc 1 287 27 view .LVU210
ARM GAS  /var/folders/wl/rshn8xbx1dsfj1zgryf4g1240000gn/T//ccdiVCjG.s 			page 26


 600 01b4 2146     		mov	r1, r4
 601 01b6 FFF7FEFF 		bl	memset
 602              	.LVL32:
 288:.//User/code/Src/main.c ****   DSI_LPCmdTypeDef LPCmd = {0};
 603              		.loc 1 288 3 is_stmt 1 view .LVU211
 289:.//User/code/Src/main.c ****   DSI_CmdCfgTypeDef CmdCfg = {0};
 604              		.loc 1 289 20 is_stmt 0 view .LVU212
 605 01ba 2146     		mov	r1, r4
 606 01bc 3422     		movs	r2, #52
 607 01be 25A8     		add	r0, sp, #148
 288:.//User/code/Src/main.c ****   DSI_LPCmdTypeDef LPCmd = {0};
 608              		.loc 1 288 24 view .LVU213
 609 01c0 CDE90944 		strd	r4, r4, [sp, #36]
 610 01c4 CDE90B44 		strd	r4, r4, [sp, #44]
 611 01c8 CDE90D44 		strd	r4, r4, [sp, #52]
 289:.//User/code/Src/main.c ****   DSI_CmdCfgTypeDef CmdCfg = {0};
 612              		.loc 1 289 3 is_stmt 1 view .LVU214
 289:.//User/code/Src/main.c ****   DSI_CmdCfgTypeDef CmdCfg = {0};
 613              		.loc 1 289 20 is_stmt 0 view .LVU215
 614 01cc FFF7FEFF 		bl	memset
 615              	.LVL33:
 290:.//User/code/Src/main.c **** 
 616              		.loc 1 290 3 is_stmt 1 view .LVU216
 290:.//User/code/Src/main.c **** 
 617              		.loc 1 290 21 is_stmt 0 view .LVU217
 618 01d0 2146     		mov	r1, r4
 619 01d2 2C22     		movs	r2, #44
 620 01d4 18A8     		add	r0, sp, #96
 621 01d6 FFF7FEFF 		bl	memset
 622              	.LVL34:
 295:.//User/code/Src/main.c ****   hdsi.Init.AutomaticClockLaneControl = DSI_AUTO_CLK_LANE_CTRL_DISABLE;
 623              		.loc 1 295 3 is_stmt 1 view .LVU218
 295:.//User/code/Src/main.c ****   hdsi.Init.AutomaticClockLaneControl = DSI_AUTO_CLK_LANE_CTRL_DISABLE;
 624              		.loc 1 295 17 is_stmt 0 view .LVU219
 625 01da 7548     		ldr	r0, .L136+28
 626 01dc 4FF0A041 		mov	r1, #1342177280
 298:.//User/code/Src/main.c ****   PLLInit.PLLNDIV = 10;
 627              		.loc 1 298 27 view .LVU220
 628 01e0 0123     		movs	r3, #1
 299:.//User/code/Src/main.c ****   PLLInit.PLLIDF = DSI_PLL_IN_DIV1;
 629              		.loc 1 299 19 view .LVU221
 630 01e2 0A22     		movs	r2, #10
 301:.//User/code/Src/main.c ****   if (HAL_DSI_Init(&hdsi, &PLLInit) != HAL_OK)
 631              		.loc 1 301 18 view .LVU222
 632 01e4 0894     		str	r4, [sp, #32]
 295:.//User/code/Src/main.c ****   hdsi.Init.AutomaticClockLaneControl = DSI_AUTO_CLK_LANE_CTRL_DISABLE;
 633              		.loc 1 295 17 view .LVU223
 634 01e6 C0E90014 		strd	r1, r4, [r0]
 296:.//User/code/Src/main.c ****   hdsi.Init.TXEscapeCkdiv = 2;
 635              		.loc 1 296 3 is_stmt 1 view .LVU224
 297:.//User/code/Src/main.c ****   hdsi.Init.NumberOfLanes = DSI_TWO_DATA_LANES;
 636              		.loc 1 297 3 view .LVU225
 302:.//User/code/Src/main.c ****   {
 637              		.loc 1 302 7 is_stmt 0 view .LVU226
 638 01ea 06A9     		add	r1, sp, #24
 298:.//User/code/Src/main.c ****   PLLInit.PLLNDIV = 10;
 639              		.loc 1 298 27 view .LVU227
ARM GAS  /var/folders/wl/rshn8xbx1dsfj1zgryf4g1240000gn/T//ccdiVCjG.s 			page 27


 640 01ec C0E90253 		strd	r5, r3, [r0, #8]
 299:.//User/code/Src/main.c ****   PLLInit.PLLIDF = DSI_PLL_IN_DIV1;
 641              		.loc 1 299 3 is_stmt 1 view .LVU228
 299:.//User/code/Src/main.c ****   PLLInit.PLLIDF = DSI_PLL_IN_DIV1;
 642              		.loc 1 299 19 is_stmt 0 view .LVU229
 643 01f0 CDE90623 		strd	r2, r3, [sp, #24]
 300:.//User/code/Src/main.c ****   PLLInit.PLLODF = DSI_PLL_OUT_DIV1;
 644              		.loc 1 300 3 is_stmt 1 view .LVU230
 301:.//User/code/Src/main.c ****   if (HAL_DSI_Init(&hdsi, &PLLInit) != HAL_OK)
 645              		.loc 1 301 3 view .LVU231
 302:.//User/code/Src/main.c ****   {
 646              		.loc 1 302 3 view .LVU232
 302:.//User/code/Src/main.c ****   {
 647              		.loc 1 302 7 is_stmt 0 view .LVU233
 648 01f4 FFF7FEFF 		bl	HAL_DSI_Init
 649              	.LVL35:
 302:.//User/code/Src/main.c ****   {
 650              		.loc 1 302 6 view .LVU234
 651 01f8 0028     		cmp	r0, #0
 652 01fa 40F04B81 		bne	.L121
 653              	.L28:
 306:.//User/code/Src/main.c ****   HostTimeouts.HighSpeedTransmissionTimeout = 0;
 654              		.loc 1 306 3 is_stmt 1 view .LVU235
 307:.//User/code/Src/main.c ****   HostTimeouts.LowPowerReceptionTimeout = 0;
 655              		.loc 1 307 45 is_stmt 0 view .LVU236
 656 01fe 0023     		movs	r3, #0
 306:.//User/code/Src/main.c ****   HostTimeouts.HighSpeedTransmissionTimeout = 0;
 657              		.loc 1 306 29 view .LVU237
 658 0200 0122     		movs	r2, #1
 315:.//User/code/Src/main.c ****   {
 659              		.loc 1 315 7 view .LVU238
 660 0202 0FA9     		add	r1, sp, #60
 661 0204 6A48     		ldr	r0, .L136+28
 314:.//User/code/Src/main.c ****   if (HAL_DSI_ConfigHostTimeouts(&hdsi, &HostTimeouts) != HAL_OK)
 662              		.loc 1 314 27 view .LVU239
 663 0206 1793     		str	r3, [sp, #92]
 307:.//User/code/Src/main.c ****   HostTimeouts.LowPowerReceptionTimeout = 0;
 664              		.loc 1 307 45 view .LVU240
 665 0208 CDE90F23 		strd	r2, r3, [sp, #60]
 308:.//User/code/Src/main.c ****   HostTimeouts.HighSpeedReadTimeout = 0;
 666              		.loc 1 308 3 is_stmt 1 view .LVU241
 309:.//User/code/Src/main.c ****   HostTimeouts.LowPowerReadTimeout = 0;
 667              		.loc 1 309 37 is_stmt 0 view .LVU242
 668 020c CDE91133 		strd	r3, r3, [sp, #68]
 310:.//User/code/Src/main.c ****   HostTimeouts.HighSpeedWriteTimeout = 0;
 669              		.loc 1 310 3 is_stmt 1 view .LVU243
 311:.//User/code/Src/main.c ****   HostTimeouts.HighSpeedWritePrespMode = DSI_HS_PM_DISABLE;
 670              		.loc 1 311 38 is_stmt 0 view .LVU244
 671 0210 CDE91333 		strd	r3, r3, [sp, #76]
 312:.//User/code/Src/main.c ****   HostTimeouts.LowPowerWriteTimeout = 0;
 672              		.loc 1 312 3 is_stmt 1 view .LVU245
 313:.//User/code/Src/main.c ****   HostTimeouts.BTATimeout = 0;
 673              		.loc 1 313 37 is_stmt 0 view .LVU246
 674 0214 CDE91533 		strd	r3, r3, [sp, #84]
 314:.//User/code/Src/main.c ****   if (HAL_DSI_ConfigHostTimeouts(&hdsi, &HostTimeouts) != HAL_OK)
 675              		.loc 1 314 3 is_stmt 1 view .LVU247
 315:.//User/code/Src/main.c ****   {
ARM GAS  /var/folders/wl/rshn8xbx1dsfj1zgryf4g1240000gn/T//ccdiVCjG.s 			page 28


 676              		.loc 1 315 3 view .LVU248
 315:.//User/code/Src/main.c ****   {
 677              		.loc 1 315 7 is_stmt 0 view .LVU249
 678 0218 FFF7FEFF 		bl	HAL_DSI_ConfigHostTimeouts
 679              	.LVL36:
 315:.//User/code/Src/main.c ****   {
 680              		.loc 1 315 6 view .LVU250
 681 021c 0028     		cmp	r0, #0
 682 021e 40F03381 		bne	.L122
 683              	.L29:
 319:.//User/code/Src/main.c ****   PhyTimings.ClockLaneLP2HSTime = 18;
 684              		.loc 1 319 3 is_stmt 1 view .LVU251
 319:.//User/code/Src/main.c ****   PhyTimings.ClockLaneLP2HSTime = 18;
 685              		.loc 1 319 33 is_stmt 0 view .LVU252
 686 0222 1422     		movs	r2, #20
 320:.//User/code/Src/main.c ****   PhyTimings.DataLaneHS2LPTime = 10;
 687              		.loc 1 320 33 view .LVU253
 688 0224 1223     		movs	r3, #18
 321:.//User/code/Src/main.c ****   PhyTimings.DataLaneLP2HSTime = 13;
 689              		.loc 1 321 32 view .LVU254
 690 0226 0A20     		movs	r0, #10
 325:.//User/code/Src/main.c ****   {
 691              		.loc 1 325 7 view .LVU255
 692 0228 09A9     		add	r1, sp, #36
 319:.//User/code/Src/main.c ****   PhyTimings.ClockLaneLP2HSTime = 18;
 693              		.loc 1 319 33 view .LVU256
 694 022a 0992     		str	r2, [sp, #36]
 320:.//User/code/Src/main.c ****   PhyTimings.DataLaneHS2LPTime = 10;
 695              		.loc 1 320 3 is_stmt 1 view .LVU257
 322:.//User/code/Src/main.c ****   PhyTimings.DataLaneMaxReadTime = 0;
 696              		.loc 1 322 32 is_stmt 0 view .LVU258
 697 022c 0D22     		movs	r2, #13
 320:.//User/code/Src/main.c ****   PhyTimings.DataLaneHS2LPTime = 10;
 698              		.loc 1 320 33 view .LVU259
 699 022e 0A93     		str	r3, [sp, #40]
 321:.//User/code/Src/main.c ****   PhyTimings.DataLaneLP2HSTime = 13;
 700              		.loc 1 321 3 is_stmt 1 view .LVU260
 323:.//User/code/Src/main.c ****   PhyTimings.StopWaitTime = 0;
 701              		.loc 1 323 34 is_stmt 0 view .LVU261
 702 0230 0023     		movs	r3, #0
 321:.//User/code/Src/main.c ****   PhyTimings.DataLaneLP2HSTime = 13;
 703              		.loc 1 321 32 view .LVU262
 704 0232 0B90     		str	r0, [sp, #44]
 322:.//User/code/Src/main.c ****   PhyTimings.DataLaneMaxReadTime = 0;
 705              		.loc 1 322 3 is_stmt 1 view .LVU263
 325:.//User/code/Src/main.c ****   {
 706              		.loc 1 325 7 is_stmt 0 view .LVU264
 707 0234 5E48     		ldr	r0, .L136+28
 324:.//User/code/Src/main.c ****   if (HAL_DSI_ConfigPhyTimer(&hdsi, &PhyTimings) != HAL_OK)
 708              		.loc 1 324 27 view .LVU265
 709 0236 0E93     		str	r3, [sp, #56]
 323:.//User/code/Src/main.c ****   PhyTimings.StopWaitTime = 0;
 710              		.loc 1 323 34 view .LVU266
 711 0238 CDE90C23 		strd	r2, r3, [sp, #48]
 324:.//User/code/Src/main.c ****   if (HAL_DSI_ConfigPhyTimer(&hdsi, &PhyTimings) != HAL_OK)
 712              		.loc 1 324 3 is_stmt 1 view .LVU267
 325:.//User/code/Src/main.c ****   {
ARM GAS  /var/folders/wl/rshn8xbx1dsfj1zgryf4g1240000gn/T//ccdiVCjG.s 			page 29


 713              		.loc 1 325 3 view .LVU268
 325:.//User/code/Src/main.c ****   {
 714              		.loc 1 325 7 is_stmt 0 view .LVU269
 715 023c FFF7FEFF 		bl	HAL_DSI_ConfigPhyTimer
 716              	.LVL37:
 325:.//User/code/Src/main.c ****   {
 717              		.loc 1 325 6 view .LVU270
 718 0240 0028     		cmp	r0, #0
 719 0242 40F01B81 		bne	.L123
 720              	.L30:
 329:.//User/code/Src/main.c ****   {
 721              		.loc 1 329 3 is_stmt 1 view .LVU271
 329:.//User/code/Src/main.c ****   {
 722              		.loc 1 329 7 is_stmt 0 view .LVU272
 723 0246 0421     		movs	r1, #4
 724 0248 5948     		ldr	r0, .L136+28
 725 024a FFF7FEFF 		bl	HAL_DSI_ConfigFlowControl
 726              	.LVL38:
 329:.//User/code/Src/main.c ****   {
 727              		.loc 1 329 6 view .LVU273
 728 024e 0028     		cmp	r0, #0
 729 0250 40F00E81 		bne	.L124
 730              	.L31:
 333:.//User/code/Src/main.c ****   {
 731              		.loc 1 333 3 is_stmt 1 view .LVU274
 333:.//User/code/Src/main.c ****   {
 732              		.loc 1 333 7 is_stmt 0 view .LVU275
 733 0254 42F21071 		movw	r1, #10000
 734 0258 5548     		ldr	r0, .L136+28
 735 025a FFF7FEFF 		bl	HAL_DSI_SetLowPowerRXFilter
 736              	.LVL39:
 333:.//User/code/Src/main.c ****   {
 737              		.loc 1 333 6 view .LVU276
 738 025e 0028     		cmp	r0, #0
 739 0260 40F00081 		bne	.L125
 740              	.L32:
 337:.//User/code/Src/main.c ****   {
 741              		.loc 1 337 3 is_stmt 1 view .LVU277
 337:.//User/code/Src/main.c ****   {
 742              		.loc 1 337 7 is_stmt 0 view .LVU278
 743 0264 0021     		movs	r1, #0
 744 0266 5248     		ldr	r0, .L136+28
 745 0268 FFF7FEFF 		bl	HAL_DSI_ConfigErrorMonitor
 746              	.LVL40:
 337:.//User/code/Src/main.c ****   {
 747              		.loc 1 337 6 view .LVU279
 748 026c 0028     		cmp	r0, #0
 749 026e 40F0F380 		bne	.L126
 750              	.L33:
 341:.//User/code/Src/main.c ****   LPCmd.LPGenShortWriteOneP = DSI_LP_GSW1P_DISABLE;
 751              		.loc 1 341 3 is_stmt 1 view .LVU280
 341:.//User/code/Src/main.c ****   LPCmd.LPGenShortWriteOneP = DSI_LP_GSW1P_DISABLE;
 752              		.loc 1 341 28 is_stmt 0 view .LVU281
 753 0272 0023     		movs	r3, #0
 354:.//User/code/Src/main.c ****   {
 754              		.loc 1 354 7 view .LVU282
 755 0274 25A9     		add	r1, sp, #148
ARM GAS  /var/folders/wl/rshn8xbx1dsfj1zgryf4g1240000gn/T//ccdiVCjG.s 			page 30


 756 0276 4E48     		ldr	r0, .L136+28
 353:.//User/code/Src/main.c ****   if (HAL_DSI_ConfigCommand(&hdsi, &LPCmd) != HAL_OK)
 757              		.loc 1 353 28 view .LVU283
 758 0278 3193     		str	r3, [sp, #196]
 342:.//User/code/Src/main.c ****   LPCmd.LPGenShortWriteTwoP = DSI_LP_GSW2P_DISABLE;
 759              		.loc 1 342 29 view .LVU284
 760 027a CDE92533 		strd	r3, r3, [sp, #148]
 343:.//User/code/Src/main.c ****   LPCmd.LPGenShortReadNoP = DSI_LP_GSR0P_DISABLE;
 761              		.loc 1 343 3 is_stmt 1 view .LVU285
 344:.//User/code/Src/main.c ****   LPCmd.LPGenShortReadOneP = DSI_LP_GSR1P_DISABLE;
 762              		.loc 1 344 27 is_stmt 0 view .LVU286
 763 027e CDE92733 		strd	r3, r3, [sp, #156]
 345:.//User/code/Src/main.c ****   LPCmd.LPGenShortReadTwoP = DSI_LP_GSR2P_DISABLE;
 764              		.loc 1 345 3 is_stmt 1 view .LVU287
 346:.//User/code/Src/main.c ****   LPCmd.LPGenLongWrite = DSI_LP_GLW_DISABLE;
 765              		.loc 1 346 28 is_stmt 0 view .LVU288
 766 0282 CDE92933 		strd	r3, r3, [sp, #164]
 347:.//User/code/Src/main.c ****   LPCmd.LPDcsShortWriteNoP = DSI_LP_DSW0P_DISABLE;
 767              		.loc 1 347 3 is_stmt 1 view .LVU289
 348:.//User/code/Src/main.c ****   LPCmd.LPDcsShortWriteOneP = DSI_LP_DSW1P_DISABLE;
 768              		.loc 1 348 28 is_stmt 0 view .LVU290
 769 0286 CDE92B33 		strd	r3, r3, [sp, #172]
 349:.//User/code/Src/main.c ****   LPCmd.LPDcsShortReadNoP = DSI_LP_DSR0P_DISABLE;
 770              		.loc 1 349 3 is_stmt 1 view .LVU291
 350:.//User/code/Src/main.c ****   LPCmd.LPDcsLongWrite = DSI_LP_DLW_DISABLE;
 771              		.loc 1 350 27 is_stmt 0 view .LVU292
 772 028a CDE92D33 		strd	r3, r3, [sp, #180]
 351:.//User/code/Src/main.c ****   LPCmd.LPMaxReadPacket = DSI_LP_MRDP_DISABLE;
 773              		.loc 1 351 3 is_stmt 1 view .LVU293
 352:.//User/code/Src/main.c ****   LPCmd.AcknowledgeRequest = DSI_ACKNOWLEDGE_DISABLE;
 774              		.loc 1 352 25 is_stmt 0 view .LVU294
 775 028e CDE92F33 		strd	r3, r3, [sp, #188]
 353:.//User/code/Src/main.c ****   if (HAL_DSI_ConfigCommand(&hdsi, &LPCmd) != HAL_OK)
 776              		.loc 1 353 3 is_stmt 1 view .LVU295
 354:.//User/code/Src/main.c ****   {
 777              		.loc 1 354 3 view .LVU296
 354:.//User/code/Src/main.c ****   {
 778              		.loc 1 354 7 is_stmt 0 view .LVU297
 779 0292 FFF7FEFF 		bl	HAL_DSI_ConfigCommand
 780              	.LVL41:
 354:.//User/code/Src/main.c ****   {
 781              		.loc 1 354 6 view .LVU298
 782 0296 0028     		cmp	r0, #0
 783 0298 40F0D880 		bne	.L127
 784              	.L34:
 358:.//User/code/Src/main.c ****   CmdCfg.ColorCoding = DSI_RGB888;
 785              		.loc 1 358 3 is_stmt 1 view .LVU299
 358:.//User/code/Src/main.c ****   CmdCfg.ColorCoding = DSI_RGB888;
 786              		.loc 1 358 27 is_stmt 0 view .LVU300
 787 029c 0023     		movs	r3, #0
 360:.//User/code/Src/main.c ****   CmdCfg.TearingEffectSource = DSI_TE_EXTERNAL;
 788              		.loc 1 360 22 view .LVU301
 789 029e 4FF4C871 		mov	r1, #400
 363:.//User/code/Src/main.c ****   CmdCfg.VSPolarity = DSI_VSYNC_ACTIVE_LOW;
 790              		.loc 1 363 21 view .LVU302
 791 02a2 0420     		movs	r0, #4
 359:.//User/code/Src/main.c ****   CmdCfg.CommandSize = 400;
ARM GAS  /var/folders/wl/rshn8xbx1dsfj1zgryf4g1240000gn/T//ccdiVCjG.s 			page 31


 792              		.loc 1 359 22 view .LVU303
 793 02a4 0525     		movs	r5, #5
 361:.//User/code/Src/main.c ****   CmdCfg.TearingEffectPolarity = DSI_TE_RISING_EDGE;
 794              		.loc 1 361 30 view .LVU304
 795 02a6 1024     		movs	r4, #16
 364:.//User/code/Src/main.c ****   CmdCfg.DEPolarity = DSI_DATA_ENABLE_ACTIVE_HIGH;
 796              		.loc 1 364 21 view .LVU305
 797 02a8 0222     		movs	r2, #2
 358:.//User/code/Src/main.c ****   CmdCfg.ColorCoding = DSI_RGB888;
 798              		.loc 1 358 27 view .LVU306
 799 02aa 1893     		str	r3, [sp, #96]
 359:.//User/code/Src/main.c ****   CmdCfg.CommandSize = 400;
 800              		.loc 1 359 3 is_stmt 1 view .LVU307
 362:.//User/code/Src/main.c ****   CmdCfg.HSPolarity = DSI_HSYNC_ACTIVE_LOW;
 801              		.loc 1 362 32 is_stmt 0 view .LVU308
 802 02ac 1C93     		str	r3, [sp, #112]
 368:.//User/code/Src/main.c ****   if (HAL_DSI_ConfigAdaptedCommandMode(&hdsi, &CmdCfg) != HAL_OK)
 803              		.loc 1 368 31 view .LVU309
 804 02ae 2293     		str	r3, [sp, #136]
 363:.//User/code/Src/main.c ****   CmdCfg.VSPolarity = DSI_VSYNC_ACTIVE_LOW;
 805              		.loc 1 363 21 view .LVU310
 806 02b0 1D90     		str	r0, [sp, #116]
 369:.//User/code/Src/main.c ****   {
 807              		.loc 1 369 7 view .LVU311
 808 02b2 3F48     		ldr	r0, .L136+28
 361:.//User/code/Src/main.c ****   CmdCfg.TearingEffectPolarity = DSI_TE_RISING_EDGE;
 809              		.loc 1 361 30 view .LVU312
 810 02b4 1B94     		str	r4, [sp, #108]
 364:.//User/code/Src/main.c ****   CmdCfg.DEPolarity = DSI_DATA_ENABLE_ACTIVE_HIGH;
 811              		.loc 1 364 21 view .LVU313
 812 02b6 1E92     		str	r2, [sp, #120]
 366:.//User/code/Src/main.c ****   CmdCfg.AutomaticRefresh = DSI_AR_ENABLE;
 813              		.loc 1 366 19 view .LVU314
 814 02b8 CDE91F33 		strd	r3, r3, [sp, #124]
 367:.//User/code/Src/main.c ****   CmdCfg.TEAcknowledgeRequest = DSI_TE_ACKNOWLEDGE_DISABLE;
 815              		.loc 1 367 27 view .LVU315
 816 02bc 4023     		movs	r3, #64
 360:.//User/code/Src/main.c ****   CmdCfg.TearingEffectSource = DSI_TE_EXTERNAL;
 817              		.loc 1 360 22 view .LVU316
 818 02be CDE91951 		strd	r5, r1, [sp, #100]
 361:.//User/code/Src/main.c ****   CmdCfg.TearingEffectPolarity = DSI_TE_RISING_EDGE;
 819              		.loc 1 361 3 is_stmt 1 view .LVU317
 362:.//User/code/Src/main.c ****   CmdCfg.HSPolarity = DSI_HSYNC_ACTIVE_LOW;
 820              		.loc 1 362 3 view .LVU318
 363:.//User/code/Src/main.c ****   CmdCfg.VSPolarity = DSI_VSYNC_ACTIVE_LOW;
 821              		.loc 1 363 3 view .LVU319
 364:.//User/code/Src/main.c ****   CmdCfg.DEPolarity = DSI_DATA_ENABLE_ACTIVE_HIGH;
 822              		.loc 1 364 3 view .LVU320
 365:.//User/code/Src/main.c ****   CmdCfg.VSyncPol = DSI_VSYNC_FALLING;
 823              		.loc 1 365 3 view .LVU321
 366:.//User/code/Src/main.c ****   CmdCfg.AutomaticRefresh = DSI_AR_ENABLE;
 824              		.loc 1 366 3 view .LVU322
 367:.//User/code/Src/main.c ****   CmdCfg.TEAcknowledgeRequest = DSI_TE_ACKNOWLEDGE_DISABLE;
 825              		.loc 1 367 3 view .LVU323
 369:.//User/code/Src/main.c ****   {
 826              		.loc 1 369 7 is_stmt 0 view .LVU324
 827 02c2 18A9     		add	r1, sp, #96
ARM GAS  /var/folders/wl/rshn8xbx1dsfj1zgryf4g1240000gn/T//ccdiVCjG.s 			page 32


 367:.//User/code/Src/main.c ****   CmdCfg.TEAcknowledgeRequest = DSI_TE_ACKNOWLEDGE_DISABLE;
 828              		.loc 1 367 27 view .LVU325
 829 02c4 2193     		str	r3, [sp, #132]
 368:.//User/code/Src/main.c ****   if (HAL_DSI_ConfigAdaptedCommandMode(&hdsi, &CmdCfg) != HAL_OK)
 830              		.loc 1 368 3 is_stmt 1 view .LVU326
 369:.//User/code/Src/main.c ****   {
 831              		.loc 1 369 3 view .LVU327
 369:.//User/code/Src/main.c ****   {
 832              		.loc 1 369 7 is_stmt 0 view .LVU328
 833 02c6 FFF7FEFF 		bl	HAL_DSI_ConfigAdaptedCommandMode
 834              	.LVL42:
 369:.//User/code/Src/main.c ****   {
 835              		.loc 1 369 6 view .LVU329
 836 02ca 0028     		cmp	r0, #0
 837 02cc 40F0B880 		bne	.L128
 838              	.L35:
 373:.//User/code/Src/main.c ****   {
 839              		.loc 1 373 3 is_stmt 1 view .LVU330
 373:.//User/code/Src/main.c ****   {
 840              		.loc 1 373 7 is_stmt 0 view .LVU331
 841 02d0 0021     		movs	r1, #0
 842 02d2 3748     		ldr	r0, .L136+28
 843 02d4 FFF7FEFF 		bl	HAL_DSI_SetGenericVCID
 844              	.LVL43:
 373:.//User/code/Src/main.c ****   {
 845              		.loc 1 373 6 view .LVU332
 846 02d8 0028     		cmp	r0, #0
 847 02da 40F0AB80 		bne	.L129
 848              	.L36:
 849              	.LBE51:
 850              	.LBE50:
 158:.//User/code/Src/main.c ****   MX_CRC_Init();
 851              		.loc 1 158 3 is_stmt 1 view .LVU333
 852              	.LBB53:
 853              	.LBI53:
 434:.//User/code/Src/main.c **** {
 854              		.loc 1 434 13 view .LVU334
 855              	.LBB54:
 441:.//User/code/Src/main.c ****   LTDC_LayerCfgTypeDef pLayerCfg1 = {0};
 856              		.loc 1 441 3 view .LVU335
 441:.//User/code/Src/main.c ****   LTDC_LayerCfgTypeDef pLayerCfg1 = {0};
 857              		.loc 1 441 24 is_stmt 0 view .LVU336
 858 02de 3422     		movs	r2, #52
 859 02e0 0021     		movs	r1, #0
 860 02e2 18A8     		add	r0, sp, #96
 447:.//User/code/Src/main.c ****   hltdc.Init.HSPolarity = LTDC_HSPOLARITY_AL;
 861              		.loc 1 447 18 view .LVU337
 862 02e4 334C     		ldr	r4, .L136+32
 441:.//User/code/Src/main.c ****   LTDC_LayerCfgTypeDef pLayerCfg1 = {0};
 863              		.loc 1 441 24 view .LVU338
 864 02e6 FFF7FEFF 		bl	memset
 865              	.LVL44:
 442:.//User/code/Src/main.c **** 
 866              		.loc 1 442 3 is_stmt 1 view .LVU339
 442:.//User/code/Src/main.c **** 
 867              		.loc 1 442 24 is_stmt 0 view .LVU340
 868 02ea 3422     		movs	r2, #52
ARM GAS  /var/folders/wl/rshn8xbx1dsfj1zgryf4g1240000gn/T//ccdiVCjG.s 			page 33


 869 02ec 0021     		movs	r1, #0
 870 02ee 25A8     		add	r0, sp, #148
 871 02f0 FFF7FEFF 		bl	memset
 872              	.LVL45:
 447:.//User/code/Src/main.c ****   hltdc.Init.HSPolarity = LTDC_HSPOLARITY_AL;
 873              		.loc 1 447 3 is_stmt 1 view .LVU341
 448:.//User/code/Src/main.c ****   hltdc.Init.VSPolarity = LTDC_VSPOLARITY_AL;
 874              		.loc 1 448 3 view .LVU342
 449:.//User/code/Src/main.c ****   hltdc.Init.DEPolarity = LTDC_DEPOLARITY_AL;
 875              		.loc 1 449 3 view .LVU343
 450:.//User/code/Src/main.c ****   hltdc.Init.PCPolarity = LTDC_PCPOLARITY_IPC;
 876              		.loc 1 450 3 view .LVU344
 451:.//User/code/Src/main.c ****   hltdc.Init.HorizontalSync = 1;
 877              		.loc 1 451 3 view .LVU345
 452:.//User/code/Src/main.c ****   hltdc.Init.VerticalSync = 1;
 878              		.loc 1 452 3 view .LVU346
 453:.//User/code/Src/main.c ****   hltdc.Init.AccumulatedHBP = 2;
 879              		.loc 1 453 3 view .LVU347
 454:.//User/code/Src/main.c ****   hltdc.Init.AccumulatedVBP = 2;
 880              		.loc 1 454 3 view .LVU348
 455:.//User/code/Src/main.c ****   hltdc.Init.AccumulatedActiveW = 402;
 881              		.loc 1 455 3 view .LVU349
 456:.//User/code/Src/main.c ****   hltdc.Init.AccumulatedActiveH = 482;
 882              		.loc 1 456 3 view .LVU350
 457:.//User/code/Src/main.c ****   hltdc.Init.TotalWidth = 403;
 883              		.loc 1 457 3 view .LVU351
 458:.//User/code/Src/main.c ****   hltdc.Init.TotalHeigh = 483;
 884              		.loc 1 458 3 view .LVU352
 459:.//User/code/Src/main.c ****   hltdc.Init.Backcolor.Blue = 0;
 885              		.loc 1 459 3 view .LVU353
 460:.//User/code/Src/main.c ****   hltdc.Init.Backcolor.Green = 0;
 886              		.loc 1 460 3 view .LVU354
 461:.//User/code/Src/main.c ****   hltdc.Init.Backcolor.Red = 0;
 887              		.loc 1 461 3 view .LVU355
 462:.//User/code/Src/main.c ****   if (HAL_LTDC_Init(&hltdc) != HAL_OK)
 888              		.loc 1 462 3 view .LVU356
 447:.//User/code/Src/main.c ****   hltdc.Init.HSPolarity = LTDC_HSPOLARITY_AL;
 889              		.loc 1 447 18 is_stmt 0 view .LVU357
 890 02f4 3048     		ldr	r0, .L136+36
 456:.//User/code/Src/main.c ****   hltdc.Init.AccumulatedActiveH = 482;
 891              		.loc 1 456 33 view .LVU358
 892 02f6 4FF4C973 		mov	r3, #402
 457:.//User/code/Src/main.c ****   hltdc.Init.TotalWidth = 403;
 893              		.loc 1 457 33 view .LVU359
 894 02fa 4FF4F171 		mov	r1, #482
 458:.//User/code/Src/main.c ****   hltdc.Init.TotalHeigh = 483;
 895              		.loc 1 458 25 view .LVU360
 896 02fe 40F29312 		movw	r2, #403
 447:.//User/code/Src/main.c ****   hltdc.Init.HSPolarity = LTDC_HSPOLARITY_AL;
 897              		.loc 1 447 18 view .LVU361
 898 0302 0460     		str	r4, [r0]
 456:.//User/code/Src/main.c ****   hltdc.Init.AccumulatedActiveH = 482;
 899              		.loc 1 456 33 view .LVU362
 900 0304 4362     		str	r3, [r0, #36]
 448:.//User/code/Src/main.c ****   hltdc.Init.VSPolarity = LTDC_VSPOLARITY_AL;
 901              		.loc 1 448 25 view .LVU363
 902 0306 0023     		movs	r3, #0
ARM GAS  /var/folders/wl/rshn8xbx1dsfj1zgryf4g1240000gn/T//ccdiVCjG.s 			page 34


 459:.//User/code/Src/main.c ****   hltdc.Init.Backcolor.Blue = 0;
 903              		.loc 1 459 25 view .LVU364
 904 0308 40F2E314 		movw	r4, #483
 457:.//User/code/Src/main.c ****   hltdc.Init.TotalWidth = 403;
 905              		.loc 1 457 33 view .LVU365
 906 030c 8162     		str	r1, [r0, #40]
 458:.//User/code/Src/main.c ****   hltdc.Init.TotalHeigh = 483;
 907              		.loc 1 458 25 view .LVU366
 908 030e C262     		str	r2, [r0, #44]
 452:.//User/code/Src/main.c ****   hltdc.Init.VerticalSync = 1;
 909              		.loc 1 452 29 view .LVU367
 910 0310 0121     		movs	r1, #1
 454:.//User/code/Src/main.c ****   hltdc.Init.AccumulatedVBP = 2;
 911              		.loc 1 454 29 view .LVU368
 912 0312 0222     		movs	r2, #2
 460:.//User/code/Src/main.c ****   hltdc.Init.Backcolor.Green = 0;
 913              		.loc 1 460 29 view .LVU369
 914 0314 8386     		strh	r3, [r0, #52]	@ movhi
 459:.//User/code/Src/main.c ****   hltdc.Init.Backcolor.Blue = 0;
 915              		.loc 1 459 25 view .LVU370
 916 0316 0463     		str	r4, [r0, #48]
 462:.//User/code/Src/main.c ****   if (HAL_LTDC_Init(&hltdc) != HAL_OK)
 917              		.loc 1 462 28 view .LVU371
 918 0318 80F83630 		strb	r3, [r0, #54]
 463:.//User/code/Src/main.c ****   {
 919              		.loc 1 463 3 is_stmt 1 view .LVU372
 449:.//User/code/Src/main.c ****   hltdc.Init.DEPolarity = LTDC_DEPOLARITY_AL;
 920              		.loc 1 449 25 is_stmt 0 view .LVU373
 921 031c C0E90133 		strd	r3, r3, [r0, #4]
 451:.//User/code/Src/main.c ****   hltdc.Init.HorizontalSync = 1;
 922              		.loc 1 451 25 view .LVU374
 923 0320 C0E90333 		strd	r3, r3, [r0, #12]
 453:.//User/code/Src/main.c ****   hltdc.Init.AccumulatedHBP = 2;
 924              		.loc 1 453 27 view .LVU375
 925 0324 C0E90511 		strd	r1, r1, [r0, #20]
 455:.//User/code/Src/main.c ****   hltdc.Init.AccumulatedActiveW = 402;
 926              		.loc 1 455 29 view .LVU376
 927 0328 C0E90722 		strd	r2, r2, [r0, #28]
 463:.//User/code/Src/main.c ****   {
 928              		.loc 1 463 7 view .LVU377
 929 032c FFF7FEFF 		bl	HAL_LTDC_Init
 930              	.LVL46:
 463:.//User/code/Src/main.c ****   {
 931              		.loc 1 463 6 view .LVU378
 932 0330 0028     		cmp	r0, #0
 933 0332 79D1     		bne	.L130
 934              	.L37:
 467:.//User/code/Src/main.c ****   pLayerCfg.WindowX1 = 0;
 935              		.loc 1 467 3 is_stmt 1 view .LVU379
 468:.//User/code/Src/main.c ****   pLayerCfg.WindowY0 = 0;
 936              		.loc 1 468 3 view .LVU380
 469:.//User/code/Src/main.c ****   pLayerCfg.WindowY1 = 0;
 937              		.loc 1 469 3 view .LVU381
 470:.//User/code/Src/main.c ****   pLayerCfg.PixelFormat = LTDC_PIXEL_FORMAT_ARGB8888;
 938              		.loc 1 470 3 view .LVU382
 471:.//User/code/Src/main.c ****   pLayerCfg.Alpha = 0;
 939              		.loc 1 471 3 view .LVU383
ARM GAS  /var/folders/wl/rshn8xbx1dsfj1zgryf4g1240000gn/T//ccdiVCjG.s 			page 35


 472:.//User/code/Src/main.c ****   pLayerCfg.Alpha0 = 0;
 940              		.loc 1 472 3 view .LVU384
 473:.//User/code/Src/main.c ****   pLayerCfg.BlendingFactor1 = LTDC_BLENDING_FACTOR1_CA;
 941              		.loc 1 473 3 view .LVU385
 474:.//User/code/Src/main.c ****   pLayerCfg.BlendingFactor2 = LTDC_BLENDING_FACTOR2_CA;
 942              		.loc 1 474 3 view .LVU386
 475:.//User/code/Src/main.c ****   pLayerCfg.FBStartAdress = 0;
 943              		.loc 1 475 3 view .LVU387
 476:.//User/code/Src/main.c ****   pLayerCfg.ImageWidth = 0;
 944              		.loc 1 476 3 view .LVU388
 477:.//User/code/Src/main.c ****   pLayerCfg.ImageHeight = 0;
 945              		.loc 1 477 3 view .LVU389
 478:.//User/code/Src/main.c ****   pLayerCfg.Backcolor.Blue = 0;
 946              		.loc 1 478 3 view .LVU390
 479:.//User/code/Src/main.c ****   pLayerCfg.Backcolor.Green = 0;
 947              		.loc 1 479 3 view .LVU391
 480:.//User/code/Src/main.c ****   pLayerCfg.Backcolor.Red = 0;
 948              		.loc 1 480 3 view .LVU392
 481:.//User/code/Src/main.c ****   if (HAL_LTDC_ConfigLayer(&hltdc, &pLayerCfg, 0) != HAL_OK)
 949              		.loc 1 481 3 view .LVU393
 467:.//User/code/Src/main.c ****   pLayerCfg.WindowX1 = 0;
 950              		.loc 1 467 22 is_stmt 0 view .LVU394
 951 0334 0022     		movs	r2, #0
 474:.//User/code/Src/main.c ****   pLayerCfg.BlendingFactor2 = LTDC_BLENDING_FACTOR2_CA;
 952              		.loc 1 474 29 view .LVU395
 953 0336 4FF48064 		mov	r4, #1024
 475:.//User/code/Src/main.c ****   pLayerCfg.FBStartAdress = 0;
 954              		.loc 1 475 29 view .LVU396
 955 033a 0523     		movs	r3, #5
 482:.//User/code/Src/main.c ****   {
 956              		.loc 1 482 7 view .LVU397
 957 033c 18A9     		add	r1, sp, #96
 958 033e 1E48     		ldr	r0, .L136+36
 473:.//User/code/Src/main.c ****   pLayerCfg.BlendingFactor1 = LTDC_BLENDING_FACTOR1_CA;
 959              		.loc 1 473 20 view .LVU398
 960 0340 1E92     		str	r2, [sp, #120]
 478:.//User/code/Src/main.c ****   pLayerCfg.Backcolor.Blue = 0;
 961              		.loc 1 478 25 view .LVU399
 962 0342 2392     		str	r2, [sp, #140]
 479:.//User/code/Src/main.c ****   pLayerCfg.Backcolor.Green = 0;
 963              		.loc 1 479 28 view .LVU400
 964 0344 ADF89020 		strh	r2, [sp, #144]	@ movhi
 481:.//User/code/Src/main.c ****   if (HAL_LTDC_ConfigLayer(&hltdc, &pLayerCfg, 0) != HAL_OK)
 965              		.loc 1 481 27 view .LVU401
 966 0348 8DF89220 		strb	r2, [sp, #146]
 482:.//User/code/Src/main.c ****   {
 967              		.loc 1 482 3 is_stmt 1 view .LVU402
 468:.//User/code/Src/main.c ****   pLayerCfg.WindowY0 = 0;
 968              		.loc 1 468 22 is_stmt 0 view .LVU403
 969 034c CDE91822 		strd	r2, r2, [sp, #96]
 470:.//User/code/Src/main.c ****   pLayerCfg.PixelFormat = LTDC_PIXEL_FORMAT_ARGB8888;
 970              		.loc 1 470 22 view .LVU404
 971 0350 CDE91A22 		strd	r2, r2, [sp, #104]
 472:.//User/code/Src/main.c ****   pLayerCfg.Alpha0 = 0;
 972              		.loc 1 472 19 view .LVU405
 973 0354 CDE91C22 		strd	r2, r2, [sp, #112]
 477:.//User/code/Src/main.c ****   pLayerCfg.ImageHeight = 0;
ARM GAS  /var/folders/wl/rshn8xbx1dsfj1zgryf4g1240000gn/T//ccdiVCjG.s 			page 36


 974              		.loc 1 477 24 view .LVU406
 975 0358 CDE92122 		strd	r2, r2, [sp, #132]
 475:.//User/code/Src/main.c ****   pLayerCfg.FBStartAdress = 0;
 976              		.loc 1 475 29 view .LVU407
 977 035c CDE91F43 		strd	r4, r3, [sp, #124]
 482:.//User/code/Src/main.c ****   {
 978              		.loc 1 482 7 view .LVU408
 979 0360 FFF7FEFF 		bl	HAL_LTDC_ConfigLayer
 980              	.LVL47:
 482:.//User/code/Src/main.c ****   {
 981              		.loc 1 482 6 view .LVU409
 982 0364 0028     		cmp	r0, #0
 983 0366 59D1     		bne	.L131
 984              	.L38:
 486:.//User/code/Src/main.c ****   pLayerCfg1.WindowX1 = 0;
 985              		.loc 1 486 3 is_stmt 1 view .LVU410
 487:.//User/code/Src/main.c ****   pLayerCfg1.WindowY0 = 0;
 986              		.loc 1 487 3 view .LVU411
 488:.//User/code/Src/main.c ****   pLayerCfg1.WindowY1 = 0;
 987              		.loc 1 488 3 view .LVU412
 489:.//User/code/Src/main.c ****   pLayerCfg1.PixelFormat = LTDC_PIXEL_FORMAT_ARGB8888;
 988              		.loc 1 489 3 view .LVU413
 490:.//User/code/Src/main.c ****   pLayerCfg1.Alpha = 0;
 989              		.loc 1 490 3 view .LVU414
 491:.//User/code/Src/main.c ****   pLayerCfg1.Alpha0 = 0;
 990              		.loc 1 491 3 view .LVU415
 492:.//User/code/Src/main.c ****   pLayerCfg1.BlendingFactor1 = LTDC_BLENDING_FACTOR1_CA;
 991              		.loc 1 492 3 view .LVU416
 493:.//User/code/Src/main.c ****   pLayerCfg1.BlendingFactor2 = LTDC_BLENDING_FACTOR2_CA;
 992              		.loc 1 493 3 view .LVU417
 494:.//User/code/Src/main.c ****   pLayerCfg1.FBStartAdress = 0;
 993              		.loc 1 494 3 view .LVU418
 495:.//User/code/Src/main.c ****   pLayerCfg1.ImageWidth = 0;
 994              		.loc 1 495 3 view .LVU419
 496:.//User/code/Src/main.c ****   pLayerCfg1.ImageHeight = 0;
 995              		.loc 1 496 3 view .LVU420
 497:.//User/code/Src/main.c ****   pLayerCfg1.Backcolor.Blue = 0;
 996              		.loc 1 497 3 view .LVU421
 498:.//User/code/Src/main.c ****   pLayerCfg1.Backcolor.Green = 0;
 997              		.loc 1 498 3 view .LVU422
 499:.//User/code/Src/main.c ****   pLayerCfg1.Backcolor.Red = 0;
 998              		.loc 1 499 3 view .LVU423
 500:.//User/code/Src/main.c ****   if (HAL_LTDC_ConfigLayer(&hltdc, &pLayerCfg1, 1) != HAL_OK)
 999              		.loc 1 500 3 view .LVU424
 486:.//User/code/Src/main.c ****   pLayerCfg1.WindowX1 = 0;
 1000              		.loc 1 486 23 is_stmt 0 view .LVU425
 1001 0368 0023     		movs	r3, #0
 493:.//User/code/Src/main.c ****   pLayerCfg1.BlendingFactor2 = LTDC_BLENDING_FACTOR2_CA;
 1002              		.loc 1 493 30 view .LVU426
 1003 036a 4FF48065 		mov	r5, #1024
 494:.//User/code/Src/main.c ****   pLayerCfg1.FBStartAdress = 0;
 1004              		.loc 1 494 30 view .LVU427
 1005 036e 0524     		movs	r4, #5
 501:.//User/code/Src/main.c ****   {
 1006              		.loc 1 501 7 view .LVU428
 1007 0370 25A9     		add	r1, sp, #148
 1008 0372 0122     		movs	r2, #1
ARM GAS  /var/folders/wl/rshn8xbx1dsfj1zgryf4g1240000gn/T//ccdiVCjG.s 			page 37


 1009 0374 1048     		ldr	r0, .L136+36
 492:.//User/code/Src/main.c ****   pLayerCfg1.BlendingFactor1 = LTDC_BLENDING_FACTOR1_CA;
 1010              		.loc 1 492 21 view .LVU429
 1011 0376 2B93     		str	r3, [sp, #172]
 497:.//User/code/Src/main.c ****   pLayerCfg1.Backcolor.Blue = 0;
 1012              		.loc 1 497 26 view .LVU430
 1013 0378 3093     		str	r3, [sp, #192]
 498:.//User/code/Src/main.c ****   pLayerCfg1.Backcolor.Green = 0;
 1014              		.loc 1 498 29 view .LVU431
 1015 037a ADF8C430 		strh	r3, [sp, #196]	@ movhi
 500:.//User/code/Src/main.c ****   if (HAL_LTDC_ConfigLayer(&hltdc, &pLayerCfg1, 1) != HAL_OK)
 1016              		.loc 1 500 28 view .LVU432
 1017 037e 8DF8C630 		strb	r3, [sp, #198]
 501:.//User/code/Src/main.c ****   {
 1018              		.loc 1 501 3 is_stmt 1 view .LVU433
 487:.//User/code/Src/main.c ****   pLayerCfg1.WindowY0 = 0;
 1019              		.loc 1 487 23 is_stmt 0 view .LVU434
 1020 0382 CDE92533 		strd	r3, r3, [sp, #148]
 489:.//User/code/Src/main.c ****   pLayerCfg1.PixelFormat = LTDC_PIXEL_FORMAT_ARGB8888;
 1021              		.loc 1 489 23 view .LVU435
 1022 0386 CDE92733 		strd	r3, r3, [sp, #156]
 491:.//User/code/Src/main.c ****   pLayerCfg1.Alpha0 = 0;
 1023              		.loc 1 491 20 view .LVU436
 1024 038a CDE92933 		strd	r3, r3, [sp, #164]
 496:.//User/code/Src/main.c ****   pLayerCfg1.ImageHeight = 0;
 1025              		.loc 1 496 25 view .LVU437
 1026 038e CDE92E33 		strd	r3, r3, [sp, #184]
 1027 0392 13E0     		b	.L137
 1028              	.L138:
 1029              		.align	2
 1030              	.L136:
 1031 0394 00440258 		.word	1476543488
 1032 0398 00000258 		.word	1476526080
 1033 039c 00000000 		.word	hi2c4
 1034 03a0 001C0058 		.word	1476402176
 1035 03a4 FFECC010 		.word	281079039
 1036 03a8 00000000 		.word	huart1
 1037 03ac 00100140 		.word	1073811456
 1038 03b0 00000000 		.word	hdsi
 1039 03b4 00100050 		.word	1342181376
 1040 03b8 00000000 		.word	hltdc
 1041              	.L137:
 494:.//User/code/Src/main.c ****   pLayerCfg1.FBStartAdress = 0;
 1042              		.loc 1 494 30 view .LVU438
 1043 03bc CDE92C54 		strd	r5, r4, [sp, #176]
 501:.//User/code/Src/main.c ****   {
 1044              		.loc 1 501 7 view .LVU439
 1045 03c0 FFF7FEFF 		bl	HAL_LTDC_ConfigLayer
 1046              	.LVL48:
 501:.//User/code/Src/main.c ****   {
 1047              		.loc 1 501 6 view .LVU440
 1048 03c4 20BB     		cbnz	r0, .L132
 1049              	.L39:
 1050              	.LBE54:
 1051              	.LBE53:
 159:.//User/code/Src/main.c ****   MX_FATFS_Init();
 1052              		.loc 1 159 3 is_stmt 1 view .LVU441
ARM GAS  /var/folders/wl/rshn8xbx1dsfj1zgryf4g1240000gn/T//ccdiVCjG.s 			page 38


 1053              	.LBB56:
 1054              	.LBI56:
 248:.//User/code/Src/main.c **** {
 1055              		.loc 1 248 13 view .LVU442
 1056              	.LBB57:
 258:.//User/code/Src/main.c ****   hcrc.Init.DefaultPolynomialUse = DEFAULT_POLYNOMIAL_ENABLE;
 1057              		.loc 1 258 3 view .LVU443
 259:.//User/code/Src/main.c ****   hcrc.Init.DefaultInitValueUse = DEFAULT_INIT_VALUE_ENABLE;
 1058              		.loc 1 259 3 view .LVU444
 260:.//User/code/Src/main.c ****   hcrc.Init.InputDataInversionMode = CRC_INPUTDATA_INVERSION_NONE;
 1059              		.loc 1 260 3 view .LVU445
 258:.//User/code/Src/main.c ****   hcrc.Init.DefaultPolynomialUse = DEFAULT_POLYNOMIAL_ENABLE;
 1060              		.loc 1 258 17 is_stmt 0 view .LVU446
 1061 03c6 4E48     		ldr	r0, .L139
 259:.//User/code/Src/main.c ****   hcrc.Init.DefaultInitValueUse = DEFAULT_INIT_VALUE_ENABLE;
 1062              		.loc 1 259 34 view .LVU447
 1063 03c8 0023     		movs	r3, #0
 263:.//User/code/Src/main.c ****   if (HAL_CRC_Init(&hcrc) != HAL_OK)
 1064              		.loc 1 263 24 view .LVU448
 1065 03ca 0121     		movs	r1, #1
 258:.//User/code/Src/main.c ****   hcrc.Init.DefaultPolynomialUse = DEFAULT_POLYNOMIAL_ENABLE;
 1066              		.loc 1 258 17 view .LVU449
 1067 03cc 4D4A     		ldr	r2, .L139+4
 259:.//User/code/Src/main.c ****   hcrc.Init.DefaultInitValueUse = DEFAULT_INIT_VALUE_ENABLE;
 1068              		.loc 1 259 34 view .LVU450
 1069 03ce 8380     		strh	r3, [r0, #4]	@ movhi
 261:.//User/code/Src/main.c ****   hcrc.Init.OutputDataInversionMode = CRC_OUTPUTDATA_INVERSION_DISABLE;
 1070              		.loc 1 261 3 is_stmt 1 view .LVU451
 263:.//User/code/Src/main.c ****   if (HAL_CRC_Init(&hcrc) != HAL_OK)
 1071              		.loc 1 263 24 is_stmt 0 view .LVU452
 1072 03d0 0162     		str	r1, [r0, #32]
 258:.//User/code/Src/main.c ****   hcrc.Init.DefaultPolynomialUse = DEFAULT_POLYNOMIAL_ENABLE;
 1073              		.loc 1 258 17 view .LVU453
 1074 03d2 0260     		str	r2, [r0]
 262:.//User/code/Src/main.c ****   hcrc.InputDataFormat = CRC_INPUTDATA_FORMAT_BYTES;
 1075              		.loc 1 262 37 view .LVU454
 1076 03d4 C0E90533 		strd	r3, r3, [r0, #20]
 263:.//User/code/Src/main.c ****   if (HAL_CRC_Init(&hcrc) != HAL_OK)
 1077              		.loc 1 263 3 is_stmt 1 view .LVU455
 264:.//User/code/Src/main.c ****   {
 1078              		.loc 1 264 3 view .LVU456
 264:.//User/code/Src/main.c ****   {
 1079              		.loc 1 264 7 is_stmt 0 view .LVU457
 1080 03d8 FFF7FEFF 		bl	HAL_CRC_Init
 1081              	.LVL49:
 264:.//User/code/Src/main.c ****   {
 1082              		.loc 1 264 6 view .LVU458
 1083 03dc 90B9     		cbnz	r0, .L133
 1084              	.L40:
 1085              	.LBE57:
 1086              	.LBE56:
 160:.//User/code/Src/main.c ****   /* USER CODE BEGIN 2 */
 1087              		.loc 1 160 3 is_stmt 1 view .LVU459
 1088 03de FFF7FEFF 		bl	MX_FATFS_Init
 1089              	.LVL50:
 166:.//User/code/Src/main.c **** 
 1090              		.loc 1 166 3 view .LVU460
ARM GAS  /var/folders/wl/rshn8xbx1dsfj1zgryf4g1240000gn/T//ccdiVCjG.s 			page 39


 1091 03e2 FFF7FEFF 		bl	osKernelInitialize
 1092              	.LVL51:
 186:.//User/code/Src/main.c **** 
 1093              		.loc 1 186 3 view .LVU461
 186:.//User/code/Src/main.c **** 
 1094              		.loc 1 186 23 is_stmt 0 view .LVU462
 1095 03e6 484A     		ldr	r2, .L139+8
 1096 03e8 0021     		movs	r1, #0
 1097 03ea 4848     		ldr	r0, .L139+12
 1098 03ec FFF7FEFF 		bl	osThreadNew
 1099              	.LVL52:
 186:.//User/code/Src/main.c **** 
 1100              		.loc 1 186 21 view .LVU463
 1101 03f0 474B     		ldr	r3, .L139+16
 1102 03f2 1860     		str	r0, [r3]
 197:.//User/code/Src/main.c **** 
 1103              		.loc 1 197 3 is_stmt 1 view .LVU464
 1104 03f4 FFF7FEFF 		bl	osKernelStart
 1105              	.LVL53:
 1106              	.L41:
 202:.//User/code/Src/main.c ****   {
 1107              		.loc 1 202 3 discriminator 1 view .LVU465
 207:.//User/code/Src/main.c ****   /* USER CODE END 3 */
 1108              		.loc 1 207 3 discriminator 1 view .LVU466
 202:.//User/code/Src/main.c ****   {
 1109              		.loc 1 202 9 discriminator 1 view .LVU467
 202:.//User/code/Src/main.c ****   {
 1110              		.loc 1 202 3 discriminator 1 view .LVU468
 207:.//User/code/Src/main.c ****   /* USER CODE END 3 */
 1111              		.loc 1 207 3 discriminator 1 view .LVU469
 202:.//User/code/Src/main.c ****   {
 1112              		.loc 1 202 9 discriminator 1 view .LVU470
 1113 03f8 FEE7     		b	.L41
 1114              	.LVL54:
 1115              	.L110:
 111:.//User/code/Src/main.c ****   {
 1116              		.loc 1 111 3 view .LVU471
 113:.//User/code/Src/main.c ****   }
 1117              		.loc 1 113 3 view .LVU472
 1118 03fa 7121     		movs	r1, #113
 1119 03fc 4548     		ldr	r0, .L139+20
 1120 03fe FFF7FEFF 		bl	Error_Handler
 1121              	.LVL55:
 1122 0402 09E6     		b	.L15
 1123              	.LVL56:
 1124              	.L133:
 1125              	.LBB59:
 1126              	.LBB58:
 266:.//User/code/Src/main.c ****   }
 1127              		.loc 1 266 5 view .LVU473
 1128 0404 4FF48571 		mov	r1, #266
 1129 0408 4248     		ldr	r0, .L139+20
 1130 040a FFF7FEFF 		bl	Error_Handler
 1131              	.LVL57:
 1132 040e E6E7     		b	.L40
 1133              	.L132:
 1134              	.LBE58:
ARM GAS  /var/folders/wl/rshn8xbx1dsfj1zgryf4g1240000gn/T//ccdiVCjG.s 			page 40


 1135              	.LBE59:
 1136              	.LBB60:
 1137              	.LBB55:
 503:.//User/code/Src/main.c ****   }
 1138              		.loc 1 503 5 view .LVU474
 1139 0410 40F2F711 		movw	r1, #503
 1140 0414 3F48     		ldr	r0, .L139+20
 1141 0416 FFF7FEFF 		bl	Error_Handler
 1142              	.LVL58:
 1143 041a D4E7     		b	.L39
 1144              	.L131:
 484:.//User/code/Src/main.c ****   }
 1145              		.loc 1 484 5 view .LVU475
 1146 041c 4FF4F271 		mov	r1, #484
 1147 0420 3C48     		ldr	r0, .L139+20
 1148 0422 FFF7FEFF 		bl	Error_Handler
 1149              	.LVL59:
 1150 0426 9FE7     		b	.L38
 1151              	.L130:
 465:.//User/code/Src/main.c ****   }
 1152              		.loc 1 465 5 view .LVU476
 1153 0428 40F2D111 		movw	r1, #465
 1154 042c 3948     		ldr	r0, .L139+20
 1155 042e FFF7FEFF 		bl	Error_Handler
 1156              	.LVL60:
 1157 0432 7FE7     		b	.L37
 1158              	.L129:
 1159              	.LBE55:
 1160              	.LBE60:
 1161              	.LBB61:
 1162              	.LBB52:
 375:.//User/code/Src/main.c ****   }
 1163              		.loc 1 375 5 view .LVU477
 1164 0434 40F27711 		movw	r1, #375
 1165 0438 3648     		ldr	r0, .L139+20
 1166 043a FFF7FEFF 		bl	Error_Handler
 1167              	.LVL61:
 1168 043e 4EE7     		b	.L36
 1169              	.L128:
 371:.//User/code/Src/main.c ****   }
 1170              		.loc 1 371 5 view .LVU478
 1171 0440 40F27311 		movw	r1, #371
 1172 0444 3348     		ldr	r0, .L139+20
 1173 0446 FFF7FEFF 		bl	Error_Handler
 1174              	.LVL62:
 1175 044a 41E7     		b	.L35
 1176              	.L127:
 356:.//User/code/Src/main.c ****   }
 1177              		.loc 1 356 5 view .LVU479
 1178 044c 4FF4B271 		mov	r1, #356
 1179 0450 3048     		ldr	r0, .L139+20
 1180 0452 FFF7FEFF 		bl	Error_Handler
 1181              	.LVL63:
 1182 0456 21E7     		b	.L34
 1183              	.L126:
 339:.//User/code/Src/main.c ****   }
 1184              		.loc 1 339 5 view .LVU480
ARM GAS  /var/folders/wl/rshn8xbx1dsfj1zgryf4g1240000gn/T//ccdiVCjG.s 			page 41


 1185 0458 40F25311 		movw	r1, #339
 1186 045c 2D48     		ldr	r0, .L139+20
 1187 045e FFF7FEFF 		bl	Error_Handler
 1188              	.LVL64:
 1189 0462 06E7     		b	.L33
 1190              	.L125:
 335:.//User/code/Src/main.c ****   }
 1191              		.loc 1 335 5 view .LVU481
 1192 0464 40F24F11 		movw	r1, #335
 1193 0468 2A48     		ldr	r0, .L139+20
 1194 046a FFF7FEFF 		bl	Error_Handler
 1195              	.LVL65:
 1196 046e F9E6     		b	.L32
 1197              	.L124:
 331:.//User/code/Src/main.c ****   }
 1198              		.loc 1 331 5 view .LVU482
 1199 0470 40F24B11 		movw	r1, #331
 1200 0474 2748     		ldr	r0, .L139+20
 1201 0476 FFF7FEFF 		bl	Error_Handler
 1202              	.LVL66:
 1203 047a EBE6     		b	.L31
 1204              	.L123:
 327:.//User/code/Src/main.c ****   }
 1205              		.loc 1 327 5 view .LVU483
 1206 047c 40F24711 		movw	r1, #327
 1207 0480 2448     		ldr	r0, .L139+20
 1208 0482 FFF7FEFF 		bl	Error_Handler
 1209              	.LVL67:
 1210 0486 DEE6     		b	.L30
 1211              	.L122:
 317:.//User/code/Src/main.c ****   }
 1212              		.loc 1 317 5 view .LVU484
 1213 0488 40F23D11 		movw	r1, #317
 1214 048c 2148     		ldr	r0, .L139+20
 1215 048e FFF7FEFF 		bl	Error_Handler
 1216              	.LVL68:
 1217 0492 C6E6     		b	.L29
 1218              	.L121:
 304:.//User/code/Src/main.c ****   }
 1219              		.loc 1 304 5 view .LVU485
 1220 0494 4FF49871 		mov	r1, #304
 1221 0498 1E48     		ldr	r0, .L139+20
 1222 049a FFF7FEFF 		bl	Error_Handler
 1223              	.LVL69:
 1224 049e AEE6     		b	.L28
 1225              	.L120:
 1226              	.LBE52:
 1227              	.LBE61:
 1228              	.LBB62:
 1229              	.LBB49:
 551:.//User/code/Src/main.c ****   }
 1230              		.loc 1 551 5 view .LVU486
 1231 04a0 40F22721 		movw	r1, #551
 1232 04a4 1B48     		ldr	r0, .L139+20
 1233 04a6 FFF7FEFF 		bl	Error_Handler
 1234              	.LVL70:
 1235 04aa 7FE6     		b	.L27
ARM GAS  /var/folders/wl/rshn8xbx1dsfj1zgryf4g1240000gn/T//ccdiVCjG.s 			page 42


 1236              	.L119:
 547:.//User/code/Src/main.c ****   }
 1237              		.loc 1 547 5 view .LVU487
 1238 04ac 40F22321 		movw	r1, #547
 1239 04b0 1848     		ldr	r0, .L139+20
 1240 04b2 FFF7FEFF 		bl	Error_Handler
 1241              	.LVL71:
 1242 04b6 73E6     		b	.L26
 1243              	.L118:
 543:.//User/code/Src/main.c ****   }
 1244              		.loc 1 543 5 view .LVU488
 1245 04b8 40F21F21 		movw	r1, #543
 1246 04bc 1548     		ldr	r0, .L139+20
 1247 04be FFF7FEFF 		bl	Error_Handler
 1248              	.LVL72:
 1249 04c2 66E6     		b	.L25
 1250              	.L117:
 539:.//User/code/Src/main.c ****   }
 1251              		.loc 1 539 5 view .LVU489
 1252 04c4 40F21B21 		movw	r1, #539
 1253 04c8 1248     		ldr	r0, .L139+20
 1254 04ca FFF7FEFF 		bl	Error_Handler
 1255              	.LVL73:
 1256 04ce 59E6     		b	.L24
 1257              	.L116:
 1258              	.LBE49:
 1259              	.LBE62:
 1260              	.LBB63:
 1261              	.LBB46:
 421:.//User/code/Src/main.c ****   }
 1262              		.loc 1 421 5 view .LVU490
 1263 04d0 40F2A511 		movw	r1, #421
 1264 04d4 0F48     		ldr	r0, .L139+20
 1265 04d6 FFF7FEFF 		bl	Error_Handler
 1266              	.LVL74:
 1267 04da 3DE6     		b	.L23
 1268              	.L115:
 415:.//User/code/Src/main.c ****   }
 1269              		.loc 1 415 5 view .LVU491
 1270 04dc 40F29F11 		movw	r1, #415
 1271 04e0 0C48     		ldr	r0, .L139+20
 1272 04e2 FFF7FEFF 		bl	Error_Handler
 1273              	.LVL75:
 1274 04e6 30E6     		b	.L22
 1275              	.L114:
 409:.//User/code/Src/main.c ****   }
 1276              		.loc 1 409 5 view .LVU492
 1277 04e8 40F29911 		movw	r1, #409
 1278 04ec 0948     		ldr	r0, .L139+20
 1279 04ee FFF7FEFF 		bl	Error_Handler
 1280              	.LVL76:
 1281 04f2 23E6     		b	.L21
 1282              	.LVL77:
 1283              	.L112:
 409:.//User/code/Src/main.c ****   }
 1284              		.loc 1 409 5 is_stmt 0 view .LVU493
 1285              	.LBE46:
ARM GAS  /var/folders/wl/rshn8xbx1dsfj1zgryf4g1240000gn/T//ccdiVCjG.s 			page 43


 1286              	.LBE63:
 142:.//User/code/Src/main.c **** {
 1287              		.loc 1 142 1 is_stmt 1 view .LVU494
 144:.//User/code/Src/main.c **** }
 1288              		.loc 1 144 1 view .LVU495
 1289 04f4 9021     		movs	r1, #144
 1290 04f6 0748     		ldr	r0, .L139+20
 1291 04f8 FFF7FEFF 		bl	Error_Handler
 1292              	.LVL78:
 1293 04fc B2E5     		b	.L18
 1294              	.L140:
 1295 04fe 00BF     		.align	2
 1296              	.L139:
 1297 0500 00000000 		.word	hcrc
 1298 0504 004C0258 		.word	1476545536
 1299 0508 00000000 		.word	.LANCHOR0
 1300 050c 00000000 		.word	StartDefaultTask
 1301 0510 00000000 		.word	defaultTaskHandle
 1302 0514 00000000 		.word	.LC0
 1303              		.cfi_endproc
 1304              	.LFE338:
 1306              		.section	.text.HAL_TIM_PeriodElapsedCallback,"ax",%progbits
 1307              		.align	1
 1308              		.p2align 2,,3
 1309              		.global	HAL_TIM_PeriodElapsedCallback
 1310              		.syntax unified
 1311              		.thumb
 1312              		.thumb_func
 1313              		.fpu fpv5-d16
 1315              	HAL_TIM_PeriodElapsedCallback:
 1316              	.LVL79:
 1317              	.LFB348:
 621:.//User/code/Src/main.c ****   }
 622:.//User/code/Src/main.c ****   /* USER CODE END 5 */
 623:.//User/code/Src/main.c **** }
 624:.//User/code/Src/main.c **** 
 625:.//User/code/Src/main.c ****  /**
 626:.//User/code/Src/main.c ****   * @brief  Period elapsed callback in non blocking mode
 627:.//User/code/Src/main.c ****   * @note   This function is called  when TIM2 interrupt took place, inside
 628:.//User/code/Src/main.c ****   * HAL_TIM_IRQHandler(). It makes a direct call to HAL_IncTick() to increment
 629:.//User/code/Src/main.c ****   * a global variable "uwTick" used as application time base.
 630:.//User/code/Src/main.c ****   * @param  htim : TIM handle
 631:.//User/code/Src/main.c ****   * @retval None
 632:.//User/code/Src/main.c ****   */
 633:.//User/code/Src/main.c **** void HAL_TIM_PeriodElapsedCallback(TIM_HandleTypeDef *htim)
 634:.//User/code/Src/main.c **** {
 1318              		.loc 1 634 1 view -0
 1319              		.cfi_startproc
 1320              		@ args = 0, pretend = 0, frame = 0
 1321              		@ frame_needed = 0, uses_anonymous_args = 0
 1322              		@ link register save eliminated.
 635:.//User/code/Src/main.c ****   /* USER CODE BEGIN Callback 0 */
 636:.//User/code/Src/main.c **** 
 637:.//User/code/Src/main.c ****   /* USER CODE END Callback 0 */
 638:.//User/code/Src/main.c ****   if (htim->Instance == TIM2) {
 1323              		.loc 1 638 3 view .LVU497
 1324              		.loc 1 638 6 is_stmt 0 view .LVU498
ARM GAS  /var/folders/wl/rshn8xbx1dsfj1zgryf4g1240000gn/T//ccdiVCjG.s 			page 44


 1325 0000 0368     		ldr	r3, [r0]
 1326 0002 B3F1804F 		cmp	r3, #1073741824
 1327 0006 00D0     		beq	.L143
 639:.//User/code/Src/main.c ****     HAL_IncTick();
 640:.//User/code/Src/main.c ****   }
 641:.//User/code/Src/main.c ****   /* USER CODE BEGIN Callback 1 */
 642:.//User/code/Src/main.c **** 
 643:.//User/code/Src/main.c ****   /* USER CODE END Callback 1 */
 644:.//User/code/Src/main.c **** }
 1328              		.loc 1 644 1 view .LVU499
 1329 0008 7047     		bx	lr
 1330              	.L143:
 639:.//User/code/Src/main.c ****     HAL_IncTick();
 1331              		.loc 1 639 5 is_stmt 1 view .LVU500
 1332 000a FFF7FEBF 		b	HAL_IncTick
 1333              	.LVL80:
 639:.//User/code/Src/main.c ****     HAL_IncTick();
 1334              		.loc 1 639 5 is_stmt 0 view .LVU501
 1335              		.cfi_endproc
 1336              	.LFE348:
 1338              		.global	defaultTask_attributes
 1339 000e 00BF     		.section	.rodata.str1.4,"aMS",%progbits,1
 1340              		.align	2
 1341              	.LC1:
 1342 0000 64656661 		.ascii	"defaultTask\000"
 1342      756C7454 
 1342      61736B00 
 1343              		.comm	defaultTaskHandle,4,4
 1344              		.comm	huart1,144,4
 1345              		.comm	hltdc,168,4
 1346              		.comm	hdma_i2c4_tx,120,4
 1347              		.comm	hdma_i2c4_rx,120,4
 1348              		.comm	hi2c4,76,4
 1349              		.comm	hdsi,28,4
 1350              		.comm	hcrc,36,4
 1351              		.section	.rodata.defaultTask_attributes,"a"
 1352              		.align	2
 1353              		.set	.LANCHOR0,. + 0
 1356              	defaultTask_attributes:
 1357 0000 00000000 		.word	.LC1
 1358 0004 00000000 		.space	16
 1358      00000000 
 1358      00000000 
 1358      00000000 
 1359 0014 00020000 		.word	512
 1360 0018 18000000 		.word	24
 1361 001c 00000000 		.space	8
 1361      00000000 
 1362              		.text
 1363              	.Letext0:
 1364              		.file 2 "/opt/homebrew/Cellar/arm-none-eabi-gcc/9-2019-q4-major/gcc/arm-none-eabi/include/machine/
 1365              		.file 3 "/opt/homebrew/Cellar/arm-none-eabi-gcc/9-2019-q4-major/gcc/arm-none-eabi/include/sys/_std
 1366              		.file 4 ".//Libraries/CMSIS/Core/Include/core_cm7.h"
 1367              		.file 5 ".//Libraries/CMSIS/Device/ST/STM32H7xx/Include/system_stm32h7xx.h"
 1368              		.file 6 ".//Libraries/CMSIS/Device/ST/STM32H7xx/Include/stm32h747xx.h"
 1369              		.file 7 ".//Libraries/CMSIS/Device/ST/STM32H7xx/Include/stm32h7xx.h"
 1370              		.file 8 "/opt/homebrew/Cellar/arm-none-eabi-gcc/9-2019-q4-major/gcc/arm-none-eabi/include/sys/lock
ARM GAS  /var/folders/wl/rshn8xbx1dsfj1zgryf4g1240000gn/T//ccdiVCjG.s 			page 45


 1371              		.file 9 "/opt/homebrew/Cellar/arm-none-eabi-gcc/9-2019-q4-major/gcc/arm-none-eabi/include/sys/_typ
 1372              		.file 10 "/opt/homebrew/Cellar/arm-none-eabi-gcc/9-2019-q4-major/gcc/lib/gcc/arm-none-eabi/9.2.1/i
 1373              		.file 11 "/opt/homebrew/Cellar/arm-none-eabi-gcc/9-2019-q4-major/gcc/arm-none-eabi/include/sys/ree
 1374              		.file 12 "/opt/homebrew/Cellar/arm-none-eabi-gcc/9-2019-q4-major/gcc/arm-none-eabi/include/math.h"
 1375              		.file 13 ".//Libraries/STM32H7xx_HAL_Driver/Inc/stm32h7xx_hal_def.h"
 1376              		.file 14 ".//Libraries/STM32H7xx_HAL_Driver/Inc/stm32h7xx_hal_rcc_ex.h"
 1377              		.file 15 ".//Libraries/STM32H7xx_HAL_Driver/Inc/stm32h7xx_hal_gpio.h"
 1378              		.file 16 ".//Libraries/STM32H7xx_HAL_Driver/Inc/stm32h7xx_hal_dma.h"
 1379              		.file 17 ".//Libraries/STM32H7xx_HAL_Driver/Inc/stm32h7xx_hal_dsi.h"
 1380              		.file 18 ".//Libraries/STM32H7xx_HAL_Driver/Inc/stm32h7xx_hal_crc.h"
 1381              		.file 19 ".//Libraries/STM32H7xx_HAL_Driver/Inc/stm32h7xx_hal_flash.h"
 1382              		.file 20 ".//Libraries/STM32H7xx_HAL_Driver/Inc/stm32h7xx_hal_i2c.h"
 1383              		.file 21 ".//Libraries/STM32H7xx_HAL_Driver/Inc/stm32h7xx_hal_ltdc.h"
 1384              		.file 22 ".//Libraries/STM32H7xx_HAL_Driver/Inc/stm32h7xx_hal_tim.h"
 1385              		.file 23 ".//Libraries/STM32H7xx_HAL_Driver/Inc/stm32h7xx_hal_uart.h"
 1386              		.file 24 ".//Libraries/STM32H7xx_HAL_Driver/Inc/stm32h7xx_hal.h"
 1387              		.file 25 ".//Libraries/FreeRTOS/Source/CMSIS_RTOS/cmsis_os2.h"
 1388              		.file 26 ".//Libraries/FatFs/Inc/integer.h"
 1389              		.file 27 ".//Libraries/FatFs/Inc/ff.h"
 1390              		.file 28 ".//Libraries/FatFs/Inc/diskio.h"
 1391              		.file 29 ".//Libraries/FatFs/Inc/ff_gen_drv.h"
 1392              		.file 30 ".//User/code/Inc/user_diskio.h"
 1393              		.file 31 ".//User/code/Inc/fatfs.h"
 1394              		.file 32 "/opt/homebrew/Cellar/arm-none-eabi-gcc/9-2019-q4-major/gcc/arm-none-eabi/include/stdlib.
 1395              		.file 33 ".//User/code/Src/../../../BSP/Components/Inc/lcd.h"
 1396              		.file 34 ".//Libraries/STM32H7xx_HAL_Driver/Inc/stm32h7xx_hal_cortex.h"
 1397              		.file 35 ".//Libraries/STM32H7xx_HAL_Driver/Inc/stm32h7xx_hal_i2c_ex.h"
 1398              		.file 36 ".//User/code/Src/../../../BSP/system.h"
 1399              		.file 37 ".//Libraries/STM32H7xx_HAL_Driver/Inc/stm32h7xx_hal_uart_ex.h"
 1400              		.file 38 ".//Libraries/STM32H7xx_HAL_Driver/Inc/stm32h7xx_hal_hsem.h"
 1401              		.file 39 "<built-in>"
ARM GAS  /var/folders/wl/rshn8xbx1dsfj1zgryf4g1240000gn/T//ccdiVCjG.s 			page 46


DEFINED SYMBOLS
                            *ABS*:0000000000000000 main.c
/var/folders/wl/rshn8xbx1dsfj1zgryf4g1240000gn/T//ccdiVCjG.s:17     .text.StartDefaultTask:0000000000000000 $t
/var/folders/wl/rshn8xbx1dsfj1zgryf4g1240000gn/T//ccdiVCjG.s:26     .text.StartDefaultTask:0000000000000000 StartDefaultTask
/var/folders/wl/rshn8xbx1dsfj1zgryf4g1240000gn/T//ccdiVCjG.s:54     .rodata.PeriphCommonClock_Config.str1.4:0000000000000000 $d
/var/folders/wl/rshn8xbx1dsfj1zgryf4g1240000gn/T//ccdiVCjG.s:58     .text.PeriphCommonClock_Config:0000000000000000 $t
/var/folders/wl/rshn8xbx1dsfj1zgryf4g1240000gn/T//ccdiVCjG.s:66     .text.PeriphCommonClock_Config:0000000000000000 PeriphCommonClock_Config
/var/folders/wl/rshn8xbx1dsfj1zgryf4g1240000gn/T//ccdiVCjG.s:164    .text.PeriphCommonClock_Config:0000000000000048 $d
/var/folders/wl/rshn8xbx1dsfj1zgryf4g1240000gn/T//ccdiVCjG.s:169    .text.startup.main:0000000000000000 $t
/var/folders/wl/rshn8xbx1dsfj1zgryf4g1240000gn/T//ccdiVCjG.s:177    .text.startup.main:0000000000000000 main
/var/folders/wl/rshn8xbx1dsfj1zgryf4g1240000gn/T//ccdiVCjG.s:272    .text.startup.main:0000000000000054 $d
/var/folders/wl/rshn8xbx1dsfj1zgryf4g1240000gn/T//ccdiVCjG.s:276    .text.startup.main:0000000000000058 $t
/var/folders/wl/rshn8xbx1dsfj1zgryf4g1240000gn/T//ccdiVCjG.s:1031   .text.startup.main:0000000000000394 $d
                            *COM*:000000000000004c hi2c4
                            *COM*:0000000000000090 huart1
                            *COM*:000000000000001c hdsi
                            *COM*:00000000000000a8 hltdc
/var/folders/wl/rshn8xbx1dsfj1zgryf4g1240000gn/T//ccdiVCjG.s:1043   .text.startup.main:00000000000003bc $t
/var/folders/wl/rshn8xbx1dsfj1zgryf4g1240000gn/T//ccdiVCjG.s:1297   .text.startup.main:0000000000000500 $d
                            *COM*:0000000000000024 hcrc
                            *COM*:0000000000000004 defaultTaskHandle
/var/folders/wl/rshn8xbx1dsfj1zgryf4g1240000gn/T//ccdiVCjG.s:1307   .text.HAL_TIM_PeriodElapsedCallback:0000000000000000 $t
/var/folders/wl/rshn8xbx1dsfj1zgryf4g1240000gn/T//ccdiVCjG.s:1315   .text.HAL_TIM_PeriodElapsedCallback:0000000000000000 HAL_TIM_PeriodElapsedCallback
/var/folders/wl/rshn8xbx1dsfj1zgryf4g1240000gn/T//ccdiVCjG.s:1356   .rodata.defaultTask_attributes:0000000000000000 defaultTask_attributes
/var/folders/wl/rshn8xbx1dsfj1zgryf4g1240000gn/T//ccdiVCjG.s:1340   .rodata.str1.4:0000000000000000 $d
                            *COM*:0000000000000078 hdma_i2c4_tx
                            *COM*:0000000000000078 hdma_i2c4_rx
/var/folders/wl/rshn8xbx1dsfj1zgryf4g1240000gn/T//ccdiVCjG.s:1352   .rodata.defaultTask_attributes:0000000000000000 $d

UNDEFINED SYMBOLS
osDelay
memset
HAL_RCCEx_PeriphCLKConfig
Error_Handler
HAL_Init
SystemClock_Config
HAL_HSEM_FastTake
HAL_HSEM_Release
HAL_GPIO_Init
HAL_NVIC_SetPriority
HAL_NVIC_EnableIRQ
HAL_I2C_Init
HAL_I2CEx_ConfigAnalogFilter
HAL_I2CEx_ConfigDigitalFilter
HAL_UART_Init
HAL_UARTEx_SetTxFifoThreshold
HAL_UARTEx_SetRxFifoThreshold
HAL_UARTEx_DisableFifoMode
HAL_DSI_Init
HAL_DSI_ConfigHostTimeouts
HAL_DSI_ConfigPhyTimer
HAL_DSI_ConfigFlowControl
HAL_DSI_SetLowPowerRXFilter
HAL_DSI_ConfigErrorMonitor
HAL_DSI_ConfigCommand
HAL_DSI_ConfigAdaptedCommandMode
HAL_DSI_SetGenericVCID
ARM GAS  /var/folders/wl/rshn8xbx1dsfj1zgryf4g1240000gn/T//ccdiVCjG.s 			page 47


HAL_LTDC_Init
HAL_LTDC_ConfigLayer
HAL_CRC_Init
MX_FATFS_Init
osKernelInitialize
osThreadNew
osKernelStart
HAL_IncTick
