ARM GAS  /tmp/ccpRhGjm.s 			page 1


   1              		.cpu cortex-m7
   2              		.eabi_attribute 28, 1
   3              		.eabi_attribute 20, 1
   4              		.eabi_attribute 21, 1
   5              		.eabi_attribute 23, 3
   6              		.eabi_attribute 24, 1
   7              		.eabi_attribute 25, 1
   8              		.eabi_attribute 26, 1
   9              		.eabi_attribute 30, 6
  10              		.eabi_attribute 34, 1
  11              		.eabi_attribute 18, 4
  12              		.file	"qspi.c"
  13              		.text
  14              	.Ltext0:
  15              		.cfi_sections	.debug_frame
  16              		.comm	hmdma_quadspi_fifo_th,108,4
  17              		.section	.text.QSPI_object_Init,"ax",%progbits
  18              		.align	1
  19              		.global	QSPI_object_Init
  20              		.arch armv7e-m
  21              		.syntax unified
  22              		.thumb
  23              		.thumb_func
  24              		.fpu fpv5-d16
  26              	QSPI_object_Init:
  27              	.LFB338:
  28              		.file 1 "./BSP/Hardware/Src/qspi.c"
   1:./BSP/Hardware/Src/qspi.c **** #include "../../system.h"
   2:./BSP/Hardware/Src/qspi.c **** 
   3:./BSP/Hardware/Src/qspi.c **** MDMA_HandleTypeDef hmdma_quadspi_fifo_th;
   4:./BSP/Hardware/Src/qspi.c **** 
   5:./BSP/Hardware/Src/qspi.c **** #define QSPI_BK1_IO0_Pin GPIO_PIN_11
   6:./BSP/Hardware/Src/qspi.c **** #define QSPI_BK1_IO0_GPIO_Port GPIOD
   7:./BSP/Hardware/Src/qspi.c **** #define QSPI_BK1_IO1_Pin GPIO_PIN_9
   8:./BSP/Hardware/Src/qspi.c **** #define QSPI_BK1_IO1_GPIO_Port GPIOF
   9:./BSP/Hardware/Src/qspi.c **** #define QSPI_BK1_IO2_Pin GPIO_PIN_7
  10:./BSP/Hardware/Src/qspi.c **** #define QSPI_BK1_IO2_GPIO_Port GPIOF
  11:./BSP/Hardware/Src/qspi.c **** #define QSPI_BK1_IO3_Pin GPIO_PIN_6
  12:./BSP/Hardware/Src/qspi.c **** #define QSPI_BK1_IO3_GPIO_Port GPIOF
  13:./BSP/Hardware/Src/qspi.c **** 
  14:./BSP/Hardware/Src/qspi.c **** #define QSPI_BK2_IO0_Pin GPIO_PIN_2
  15:./BSP/Hardware/Src/qspi.c **** #define QSPI_BK2_IO0_GPIO_Port GPIOH
  16:./BSP/Hardware/Src/qspi.c **** #define QSPI_BK2_IO1_Pin GPIO_PIN_3
  17:./BSP/Hardware/Src/qspi.c **** #define QSPI_BK2_IO1_GPIO_Port GPIOH
  18:./BSP/Hardware/Src/qspi.c **** #define QSPI_BK2_IO2_Pin GPIO_PIN_9
  19:./BSP/Hardware/Src/qspi.c **** #define QSPI_BK2_IO2_GPIO_Port GPIOG
  20:./BSP/Hardware/Src/qspi.c **** #define QSPI_BK2_IO3_Pin GPIO_PIN_14
  21:./BSP/Hardware/Src/qspi.c **** #define QSPI_BK2_IO3_GPIO_Port GPIOG
  22:./BSP/Hardware/Src/qspi.c **** 
  23:./BSP/Hardware/Src/qspi.c **** #define QSPI_BK1_NCS_Pin GPIO_PIN_6
  24:./BSP/Hardware/Src/qspi.c **** #define QSPI_BK1_NCS_GPIO_Port GPIOG
  25:./BSP/Hardware/Src/qspi.c **** #define QSPI_CLK_Pin GPIO_PIN_2
  26:./BSP/Hardware/Src/qspi.c **** #define QSPI_CLK_GPIO_Port GPIOB
  27:./BSP/Hardware/Src/qspi.c **** 
  28:./BSP/Hardware/Src/qspi.c **** void QSPI_Init(QSPI_objectTypeDef *object);
  29:./BSP/Hardware/Src/qspi.c **** void QSPI_Write_Command(QSPI_objectTypeDef *object,QSPI_CommandTypeDef *cmd);
  30:./BSP/Hardware/Src/qspi.c **** void QSPI_Write_Data(QSPI_objectTypeDef *object,uint8_t *reg);
ARM GAS  /tmp/ccpRhGjm.s 			page 2


  31:./BSP/Hardware/Src/qspi.c **** void QSPI_Read_Data(QSPI_objectTypeDef *object,uint8_t *reg);
  32:./BSP/Hardware/Src/qspi.c **** void QSPI_Auto_Polling(QSPI_objectTypeDef *object,QSPI_CommandTypeDef *cmd,QSPI_AutoPollingTypeDef 
  33:./BSP/Hardware/Src/qspi.c **** void QSPI_MemoryMapped(QSPI_objectTypeDef *object,QSPI_CommandTypeDef *cmd,QSPI_MemoryMappedTypeDef
  34:./BSP/Hardware/Src/qspi.c **** 
  35:./BSP/Hardware/Src/qspi.c **** void QSPI_object_Init(QSPI_objectTypeDef *object,QSPI_objectAttr attr)
  36:./BSP/Hardware/Src/qspi.c **** {
  29              		.loc 1 36 1
  30              		.cfi_startproc
  31              		@ args = 44, pretend = 16, frame = 8
  32              		@ frame_needed = 1, uses_anonymous_args = 0
  33              		@ link register save eliminated.
  34 0000 84B0     		sub	sp, sp, #16
  35              	.LCFI0:
  36              		.cfi_def_cfa_offset 16
  37 0002 B0B4     		push	{r4, r5, r7}
  38              	.LCFI1:
  39              		.cfi_def_cfa_offset 28
  40              		.cfi_offset 4, -28
  41              		.cfi_offset 5, -24
  42              		.cfi_offset 7, -20
  43 0004 83B0     		sub	sp, sp, #12
  44              	.LCFI2:
  45              		.cfi_def_cfa_offset 40
  46 0006 00AF     		add	r7, sp, #0
  47              	.LCFI3:
  48              		.cfi_def_cfa_register 7
  49 0008 7860     		str	r0, [r7, #4]
  50 000a 07F11C00 		add	r0, r7, #28
  51 000e 80E80E00 		stm	r0, {r1, r2, r3}
  37:./BSP/Hardware/Src/qspi.c ****     object->qspi_init=QSPI_Init;
  52              		.loc 1 37 22
  53 0012 7B68     		ldr	r3, [r7, #4]
  54 0014 134A     		ldr	r2, .L2
  55 0016 5A67     		str	r2, [r3, #116]
  38:./BSP/Hardware/Src/qspi.c ****     object->qspi_writeCmd=QSPI_Write_Command;
  56              		.loc 1 38 26
  57 0018 7B68     		ldr	r3, [r7, #4]
  58 001a 134A     		ldr	r2, .L2+4
  59 001c 9A67     		str	r2, [r3, #120]
  39:./BSP/Hardware/Src/qspi.c ****     object->qspi_writeData=QSPI_Write_Data;
  60              		.loc 1 39 27
  61 001e 7B68     		ldr	r3, [r7, #4]
  62 0020 124A     		ldr	r2, .L2+8
  63 0022 DA67     		str	r2, [r3, #124]
  40:./BSP/Hardware/Src/qspi.c ****     object->qspi_readData=QSPI_Read_Data;
  64              		.loc 1 40 26
  65 0024 7B68     		ldr	r3, [r7, #4]
  66 0026 124A     		ldr	r2, .L2+12
  67 0028 C3F88020 		str	r2, [r3, #128]
  41:./BSP/Hardware/Src/qspi.c ****     object->qspi_autoPolling=QSPI_Auto_Polling;
  68              		.loc 1 41 29
  69 002c 7B68     		ldr	r3, [r7, #4]
  70 002e 114A     		ldr	r2, .L2+16
  71 0030 C3F88420 		str	r2, [r3, #132]
  42:./BSP/Hardware/Src/qspi.c ****     object->qspi_memoryMapped=QSPI_MemoryMapped;
  72              		.loc 1 42 30
  73 0034 7B68     		ldr	r3, [r7, #4]
ARM GAS  /tmp/ccpRhGjm.s 			page 3


  74 0036 104A     		ldr	r2, .L2+20
  75 0038 C3F88820 		str	r2, [r3, #136]
  43:./BSP/Hardware/Src/qspi.c ****     object->object_attr=attr;
  76              		.loc 1 43 24
  77 003c 7B68     		ldr	r3, [r7, #4]
  78 003e 03F14C04 		add	r4, r3, #76
  79 0042 07F11C05 		add	r5, r7, #28
  80 0046 0FCD     		ldmia	r5!, {r0, r1, r2, r3}
  81 0048 0FC4     		stmia	r4!, {r0, r1, r2, r3}
  82 004a 0FCD     		ldmia	r5!, {r0, r1, r2, r3}
  83 004c 0FC4     		stmia	r4!, {r0, r1, r2, r3}
  84 004e 95E80300 		ldm	r5, {r0, r1}
  85 0052 84E80300 		stm	r4, {r0, r1}
  44:./BSP/Hardware/Src/qspi.c **** }
  86              		.loc 1 44 1
  87 0056 00BF     		nop
  88 0058 0C37     		adds	r7, r7, #12
  89              	.LCFI4:
  90              		.cfi_def_cfa_offset 28
  91 005a BD46     		mov	sp, r7
  92              	.LCFI5:
  93              		.cfi_def_cfa_register 13
  94              		@ sp needed
  95 005c B0BC     		pop	{r4, r5, r7}
  96              	.LCFI6:
  97              		.cfi_restore 7
  98              		.cfi_restore 5
  99              		.cfi_restore 4
 100              		.cfi_def_cfa_offset 16
 101 005e 04B0     		add	sp, sp, #16
 102              	.LCFI7:
 103              		.cfi_def_cfa_offset 0
 104 0060 7047     		bx	lr
 105              	.L3:
 106 0062 00BF     		.align	2
 107              	.L2:
 108 0064 00000000 		.word	QSPI_Init
 109 0068 00000000 		.word	QSPI_Write_Command
 110 006c 00000000 		.word	QSPI_Write_Data
 111 0070 00000000 		.word	QSPI_Read_Data
 112 0074 00000000 		.word	QSPI_Auto_Polling
 113 0078 00000000 		.word	QSPI_MemoryMapped
 114              		.cfi_endproc
 115              	.LFE338:
 117              		.section	.rodata
 118              		.align	2
 119              	.LC0:
 120 0000 2E2F4253 		.ascii	"./BSP/Hardware/Src/qspi.c\000"
 120      502F4861 
 120      72647761 
 120      72652F53 
 120      72632F71 
 121              		.section	.text.QSPI_Init,"ax",%progbits
 122              		.align	1
 123              		.global	QSPI_Init
 124              		.syntax unified
 125              		.thumb
ARM GAS  /tmp/ccpRhGjm.s 			page 4


 126              		.thumb_func
 127              		.fpu fpv5-d16
 129              	QSPI_Init:
 130              	.LFB339:
  45:./BSP/Hardware/Src/qspi.c **** 
  46:./BSP/Hardware/Src/qspi.c **** void QSPI_Init(QSPI_objectTypeDef *object)
  47:./BSP/Hardware/Src/qspi.c **** {
 131              		.loc 1 47 1
 132              		.cfi_startproc
 133              		@ args = 0, pretend = 0, frame = 8
 134              		@ frame_needed = 1, uses_anonymous_args = 0
 135 0000 80B5     		push	{r7, lr}
 136              	.LCFI8:
 137              		.cfi_def_cfa_offset 8
 138              		.cfi_offset 7, -8
 139              		.cfi_offset 14, -4
 140 0002 82B0     		sub	sp, sp, #8
 141              	.LCFI9:
 142              		.cfi_def_cfa_offset 16
 143 0004 00AF     		add	r7, sp, #0
 144              	.LCFI10:
 145              		.cfi_def_cfa_register 7
 146 0006 7860     		str	r0, [r7, #4]
  48:./BSP/Hardware/Src/qspi.c ****     object->hqspi.Instance                = object->object_attr.Instance;
 147              		.loc 1 48 64
 148 0008 7B68     		ldr	r3, [r7, #4]
 149 000a DA6C     		ldr	r2, [r3, #76]
 150              		.loc 1 48 43
 151 000c 7B68     		ldr	r3, [r7, #4]
 152 000e 1A60     		str	r2, [r3]
  49:./BSP/Hardware/Src/qspi.c ****     object->hqspi.Init.ClockPrescaler     = object->object_attr.ClockPrescaler;
 153              		.loc 1 49 64
 154 0010 7B68     		ldr	r3, [r7, #4]
 155 0012 1A6D     		ldr	r2, [r3, #80]
 156              		.loc 1 49 43
 157 0014 7B68     		ldr	r3, [r7, #4]
 158 0016 5A60     		str	r2, [r3, #4]
  50:./BSP/Hardware/Src/qspi.c ****     object->hqspi.Init.FifoThreshold      = object->object_attr.FifoThreshold;
 159              		.loc 1 50 64
 160 0018 7B68     		ldr	r3, [r7, #4]
 161 001a 5A6D     		ldr	r2, [r3, #84]
 162              		.loc 1 50 43
 163 001c 7B68     		ldr	r3, [r7, #4]
 164 001e 9A60     		str	r2, [r3, #8]
  51:./BSP/Hardware/Src/qspi.c ****     object->hqspi.Init.SampleShifting     = object->object_attr.SampleShifting;
 165              		.loc 1 51 64
 166 0020 7B68     		ldr	r3, [r7, #4]
 167 0022 9A6D     		ldr	r2, [r3, #88]
 168              		.loc 1 51 43
 169 0024 7B68     		ldr	r3, [r7, #4]
 170 0026 DA60     		str	r2, [r3, #12]
  52:./BSP/Hardware/Src/qspi.c ****     object->hqspi.Init.FlashSize          = object->object_attr.FlashSize;
 171              		.loc 1 52 64
 172 0028 7B68     		ldr	r3, [r7, #4]
 173 002a DA6D     		ldr	r2, [r3, #92]
 174              		.loc 1 52 43
 175 002c 7B68     		ldr	r3, [r7, #4]
ARM GAS  /tmp/ccpRhGjm.s 			page 5


 176 002e 1A61     		str	r2, [r3, #16]
  53:./BSP/Hardware/Src/qspi.c ****     object->hqspi.Init.ChipSelectHighTime = object->object_attr.ChipSelectHighTime; 
 177              		.loc 1 53 64
 178 0030 7B68     		ldr	r3, [r7, #4]
 179 0032 1A6E     		ldr	r2, [r3, #96]
 180              		.loc 1 53 43
 181 0034 7B68     		ldr	r3, [r7, #4]
 182 0036 5A61     		str	r2, [r3, #20]
  54:./BSP/Hardware/Src/qspi.c ****     object->hqspi.Init.ClockMode          = object->object_attr.ClockMode;
 183              		.loc 1 54 64
 184 0038 7B68     		ldr	r3, [r7, #4]
 185 003a 5A6E     		ldr	r2, [r3, #100]
 186              		.loc 1 54 43
 187 003c 7B68     		ldr	r3, [r7, #4]
 188 003e 9A61     		str	r2, [r3, #24]
  55:./BSP/Hardware/Src/qspi.c ****     object->hqspi.Init.FlashID            = object->object_attr.DualFlash;
 189              		.loc 1 55 64
 190 0040 7B68     		ldr	r3, [r7, #4]
 191 0042 DA6E     		ldr	r2, [r3, #108]
 192              		.loc 1 55 43
 193 0044 7B68     		ldr	r3, [r7, #4]
 194 0046 DA61     		str	r2, [r3, #28]
  56:./BSP/Hardware/Src/qspi.c ****     object->hqspi.Init.DualFlash          = object->object_attr.DualFlash;
 195              		.loc 1 56 64
 196 0048 7B68     		ldr	r3, [r7, #4]
 197 004a DA6E     		ldr	r2, [r3, #108]
 198              		.loc 1 56 43
 199 004c 7B68     		ldr	r3, [r7, #4]
 200 004e 1A62     		str	r2, [r3, #32]
  57:./BSP/Hardware/Src/qspi.c ****     
  58:./BSP/Hardware/Src/qspi.c ****     if(HAL_QSPI_Init(&object->hqspi) != HAL_OK)
 201              		.loc 1 58 8
 202 0050 7B68     		ldr	r3, [r7, #4]
 203 0052 1846     		mov	r0, r3
 204 0054 FFF7FEFF 		bl	HAL_QSPI_Init
 205 0058 0346     		mov	r3, r0
 206              		.loc 1 58 7
 207 005a 002B     		cmp	r3, #0
 208 005c 03D0     		beq	.L6
  59:./BSP/Hardware/Src/qspi.c ****     {
  60:./BSP/Hardware/Src/qspi.c ****       Error_Handler(__FILE__, __LINE__);
 209              		.loc 1 60 7
 210 005e 3C21     		movs	r1, #60
 211 0060 0348     		ldr	r0, .L7
 212 0062 FFF7FEFF 		bl	Error_Handler
 213              	.L6:
  61:./BSP/Hardware/Src/qspi.c ****     }
  62:./BSP/Hardware/Src/qspi.c **** }
 214              		.loc 1 62 1
 215 0066 00BF     		nop
 216 0068 0837     		adds	r7, r7, #8
 217              	.LCFI11:
 218              		.cfi_def_cfa_offset 8
 219 006a BD46     		mov	sp, r7
 220              	.LCFI12:
 221              		.cfi_def_cfa_register 13
 222              		@ sp needed
ARM GAS  /tmp/ccpRhGjm.s 			page 6


 223 006c 80BD     		pop	{r7, pc}
 224              	.L8:
 225 006e 00BF     		.align	2
 226              	.L7:
 227 0070 00000000 		.word	.LC0
 228              		.cfi_endproc
 229              	.LFE339:
 231              		.section	.text.HAL_QSPI_MspInit,"ax",%progbits
 232              		.align	1
 233              		.global	HAL_QSPI_MspInit
 234              		.syntax unified
 235              		.thumb
 236              		.thumb_func
 237              		.fpu fpv5-d16
 239              	HAL_QSPI_MspInit:
 240              	.LFB340:
  63:./BSP/Hardware/Src/qspi.c **** 
  64:./BSP/Hardware/Src/qspi.c **** void HAL_QSPI_MspInit(QSPI_HandleTypeDef* hqspi)
  65:./BSP/Hardware/Src/qspi.c **** {
 241              		.loc 1 65 1
 242              		.cfi_startproc
 243              		@ args = 0, pretend = 0, frame = 248
 244              		@ frame_needed = 1, uses_anonymous_args = 0
 245 0000 80B5     		push	{r7, lr}
 246              	.LCFI13:
 247              		.cfi_def_cfa_offset 8
 248              		.cfi_offset 7, -8
 249              		.cfi_offset 14, -4
 250 0002 BEB0     		sub	sp, sp, #248
 251              	.LCFI14:
 252              		.cfi_def_cfa_offset 256
 253 0004 00AF     		add	r7, sp, #0
 254              	.LCFI15:
 255              		.cfi_def_cfa_register 7
 256 0006 7860     		str	r0, [r7, #4]
  66:./BSP/Hardware/Src/qspi.c ****     GPIO_InitTypeDef GPIO_InitStruct;
  67:./BSP/Hardware/Src/qspi.c ****     RCC_PeriphCLKInitTypeDef PeriphClkInitStruct = {0};
 257              		.loc 1 67 30
 258 0008 07F12403 		add	r3, r7, #36
 259 000c C022     		movs	r2, #192
 260 000e 0021     		movs	r1, #0
 261 0010 1846     		mov	r0, r3
 262 0012 FFF7FEFF 		bl	memset
  68:./BSP/Hardware/Src/qspi.c ****     /*##-1- Enable peripherals and GPIO Clocks #################################*/
  69:./BSP/Hardware/Src/qspi.c ****     PeriphClkInitStruct.PeriphClockSelection = RCC_PERIPHCLK_QSPI;
 263              		.loc 1 69 46
 264 0016 4FF00073 		mov	r3, #33554432
 265 001a 7B62     		str	r3, [r7, #36]
  70:./BSP/Hardware/Src/qspi.c ****     PeriphClkInitStruct.QspiClockSelection = RCC_QSPICLKSOURCE_D1HCLK;
 266              		.loc 1 70 44
 267 001c 0023     		movs	r3, #0
 268 001e FB66     		str	r3, [r7, #108]
  71:./BSP/Hardware/Src/qspi.c ****     if (HAL_RCCEx_PeriphCLKConfig(&PeriphClkInitStruct) != HAL_OK)
 269              		.loc 1 71 9
 270 0020 07F12403 		add	r3, r7, #36
 271 0024 1846     		mov	r0, r3
 272 0026 FFF7FEFF 		bl	HAL_RCCEx_PeriphCLKConfig
ARM GAS  /tmp/ccpRhGjm.s 			page 7


 273 002a 0346     		mov	r3, r0
 274              		.loc 1 71 8
 275 002c 002B     		cmp	r3, #0
 276 002e 03D0     		beq	.L10
  72:./BSP/Hardware/Src/qspi.c ****     {
  73:./BSP/Hardware/Src/qspi.c ****       Error_Handler(__FILE__, __LINE__);
 277              		.loc 1 73 7
 278 0030 4921     		movs	r1, #73
 279 0032 B248     		ldr	r0, .L13
 280 0034 FFF7FEFF 		bl	Error_Handler
 281              	.L10:
 282              	.LBB2:
  74:./BSP/Hardware/Src/qspi.c ****     }
  75:./BSP/Hardware/Src/qspi.c ****     /* Enable the QuadSPI memory interface clock */
  76:./BSP/Hardware/Src/qspi.c ****     __HAL_RCC_QSPI_CLK_ENABLE();
 283              		.loc 1 76 5
 284 0038 B14B     		ldr	r3, .L13+4
 285 003a D3F8D430 		ldr	r3, [r3, #212]
 286 003e B04A     		ldr	r2, .L13+4
 287 0040 43F48043 		orr	r3, r3, #16384
 288 0044 C2F8D430 		str	r3, [r2, #212]
 289 0048 AD4B     		ldr	r3, .L13+4
 290 004a D3F8D430 		ldr	r3, [r3, #212]
 291 004e 03F48043 		and	r3, r3, #16384
 292 0052 3B62     		str	r3, [r7, #32]
 293 0054 3B6A     		ldr	r3, [r7, #32]
 294              	.LBE2:
 295              	.LBB3:
  77:./BSP/Hardware/Src/qspi.c ****     __HAL_RCC_MDMA_CLK_ENABLE();
 296              		.loc 1 77 5
 297 0056 AA4B     		ldr	r3, .L13+4
 298 0058 D3F8D430 		ldr	r3, [r3, #212]
 299 005c A84A     		ldr	r2, .L13+4
 300 005e 43F00103 		orr	r3, r3, #1
 301 0062 C2F8D430 		str	r3, [r2, #212]
 302 0066 A64B     		ldr	r3, .L13+4
 303 0068 D3F8D430 		ldr	r3, [r3, #212]
 304 006c 03F00103 		and	r3, r3, #1
 305 0070 FB61     		str	r3, [r7, #28]
 306 0072 FB69     		ldr	r3, [r7, #28]
 307              	.LBE3:
  78:./BSP/Hardware/Src/qspi.c ****     /* Reset the QuadSPI memory interface */
  79:./BSP/Hardware/Src/qspi.c ****     __HAL_RCC_QSPI_FORCE_RESET();
 308              		.loc 1 79 5
 309 0074 A24B     		ldr	r3, .L13+4
 310 0076 DB6F     		ldr	r3, [r3, #124]
 311 0078 A14A     		ldr	r2, .L13+4
 312 007a 43F48043 		orr	r3, r3, #16384
 313 007e D367     		str	r3, [r2, #124]
  80:./BSP/Hardware/Src/qspi.c ****     __HAL_RCC_QSPI_RELEASE_RESET();
 314              		.loc 1 80 5
 315 0080 9F4B     		ldr	r3, .L13+4
 316 0082 DB6F     		ldr	r3, [r3, #124]
 317 0084 9E4A     		ldr	r2, .L13+4
 318 0086 23F48043 		bic	r3, r3, #16384
 319 008a D367     		str	r3, [r2, #124]
 320              	.LBB4:
ARM GAS  /tmp/ccpRhGjm.s 			page 8


  81:./BSP/Hardware/Src/qspi.c **** 
  82:./BSP/Hardware/Src/qspi.c ****     __HAL_RCC_GPIOG_CLK_ENABLE();
 321              		.loc 1 82 5
 322 008c 9C4B     		ldr	r3, .L13+4
 323 008e D3F8E030 		ldr	r3, [r3, #224]
 324 0092 9B4A     		ldr	r2, .L13+4
 325 0094 43F04003 		orr	r3, r3, #64
 326 0098 C2F8E030 		str	r3, [r2, #224]
 327 009c 984B     		ldr	r3, .L13+4
 328 009e D3F8E030 		ldr	r3, [r3, #224]
 329 00a2 03F04003 		and	r3, r3, #64
 330 00a6 BB61     		str	r3, [r7, #24]
 331 00a8 BB69     		ldr	r3, [r7, #24]
 332              	.LBE4:
 333              	.LBB5:
  83:./BSP/Hardware/Src/qspi.c ****     __HAL_RCC_GPIOF_CLK_ENABLE();
 334              		.loc 1 83 5
 335 00aa 954B     		ldr	r3, .L13+4
 336 00ac D3F8E030 		ldr	r3, [r3, #224]
 337 00b0 934A     		ldr	r2, .L13+4
 338 00b2 43F02003 		orr	r3, r3, #32
 339 00b6 C2F8E030 		str	r3, [r2, #224]
 340 00ba 914B     		ldr	r3, .L13+4
 341 00bc D3F8E030 		ldr	r3, [r3, #224]
 342 00c0 03F02003 		and	r3, r3, #32
 343 00c4 7B61     		str	r3, [r7, #20]
 344 00c6 7B69     		ldr	r3, [r7, #20]
 345              	.LBE5:
 346              	.LBB6:
  84:./BSP/Hardware/Src/qspi.c ****     __HAL_RCC_GPIOH_CLK_ENABLE();
 347              		.loc 1 84 5
 348 00c8 8D4B     		ldr	r3, .L13+4
 349 00ca D3F8E030 		ldr	r3, [r3, #224]
 350 00ce 8C4A     		ldr	r2, .L13+4
 351 00d0 43F08003 		orr	r3, r3, #128
 352 00d4 C2F8E030 		str	r3, [r2, #224]
 353 00d8 894B     		ldr	r3, .L13+4
 354 00da D3F8E030 		ldr	r3, [r3, #224]
 355 00de 03F08003 		and	r3, r3, #128
 356 00e2 3B61     		str	r3, [r7, #16]
 357 00e4 3B69     		ldr	r3, [r7, #16]
 358              	.LBE6:
 359              	.LBB7:
  85:./BSP/Hardware/Src/qspi.c ****     __HAL_RCC_GPIOB_CLK_ENABLE();
 360              		.loc 1 85 5
 361 00e6 864B     		ldr	r3, .L13+4
 362 00e8 D3F8E030 		ldr	r3, [r3, #224]
 363 00ec 844A     		ldr	r2, .L13+4
 364 00ee 43F00203 		orr	r3, r3, #2
 365 00f2 C2F8E030 		str	r3, [r2, #224]
 366 00f6 824B     		ldr	r3, .L13+4
 367 00f8 D3F8E030 		ldr	r3, [r3, #224]
 368 00fc 03F00203 		and	r3, r3, #2
 369 0100 FB60     		str	r3, [r7, #12]
 370 0102 FB68     		ldr	r3, [r7, #12]
 371              	.LBE7:
 372              	.LBB8:
ARM GAS  /tmp/ccpRhGjm.s 			page 9


  86:./BSP/Hardware/Src/qspi.c ****     __HAL_RCC_GPIOD_CLK_ENABLE();
 373              		.loc 1 86 5
 374 0104 7E4B     		ldr	r3, .L13+4
 375 0106 D3F8E030 		ldr	r3, [r3, #224]
 376 010a 7D4A     		ldr	r2, .L13+4
 377 010c 43F00803 		orr	r3, r3, #8
 378 0110 C2F8E030 		str	r3, [r2, #224]
 379 0114 7A4B     		ldr	r3, .L13+4
 380 0116 D3F8E030 		ldr	r3, [r3, #224]
 381 011a 03F00803 		and	r3, r3, #8
 382 011e BB60     		str	r3, [r7, #8]
 383 0120 BB68     		ldr	r3, [r7, #8]
 384              	.LBE8:
  87:./BSP/Hardware/Src/qspi.c ****     /*##-2- Configure peripheral GPIO ##########################################*/
  88:./BSP/Hardware/Src/qspi.c **** 
  89:./BSP/Hardware/Src/qspi.c ****     /**QUADSPI GPIO Configuration
  90:./BSP/Hardware/Src/qspi.c ****     PG9     ------> QUADSPI_BK2_IO2
  91:./BSP/Hardware/Src/qspi.c ****     PG14     ------> QUADSPI_BK2_IO3
  92:./BSP/Hardware/Src/qspi.c ****     PG6     ------> QUADSPI_BK1_NCS
  93:./BSP/Hardware/Src/qspi.c ****     PF6     ------> QUADSPI_BK1_IO3
  94:./BSP/Hardware/Src/qspi.c ****     PF7     ------> QUADSPI_BK1_IO2
  95:./BSP/Hardware/Src/qspi.c ****     PF9     ------> QUADSPI_BK1_IO1
  96:./BSP/Hardware/Src/qspi.c ****     PH2     ------> QUADSPI_BK2_IO0
  97:./BSP/Hardware/Src/qspi.c ****     PH3     ------> QUADSPI_BK2_IO1
  98:./BSP/Hardware/Src/qspi.c ****     PB2     ------> QUADSPI_CLK
  99:./BSP/Hardware/Src/qspi.c ****     PD11     ------> QUADSPI_BK1_IO0
 100:./BSP/Hardware/Src/qspi.c ****     */
 101:./BSP/Hardware/Src/qspi.c ****    
 102:./BSP/Hardware/Src/qspi.c ****     GPIO_InitStruct.Pin = QSPI_BK2_IO2_Pin|QSPI_BK2_IO3_Pin;
 385              		.loc 1 102 25
 386 0122 4FF48443 		mov	r3, #16896
 387 0126 C7F8E430 		str	r3, [r7, #228]
 103:./BSP/Hardware/Src/qspi.c ****     GPIO_InitStruct.Mode = GPIO_MODE_AF_PP;
 388              		.loc 1 103 26
 389 012a 0223     		movs	r3, #2
 390 012c C7F8E830 		str	r3, [r7, #232]
 104:./BSP/Hardware/Src/qspi.c ****     GPIO_InitStruct.Pull = GPIO_NOPULL;
 391              		.loc 1 104 26
 392 0130 0023     		movs	r3, #0
 393 0132 C7F8EC30 		str	r3, [r7, #236]
 105:./BSP/Hardware/Src/qspi.c ****     GPIO_InitStruct.Speed = GPIO_SPEED_FREQ_VERY_HIGH;
 394              		.loc 1 105 27
 395 0136 0323     		movs	r3, #3
 396 0138 C7F8F030 		str	r3, [r7, #240]
 106:./BSP/Hardware/Src/qspi.c ****     GPIO_InitStruct.Alternate = GPIO_AF9_QUADSPI;
 397              		.loc 1 106 31
 398 013c 0923     		movs	r3, #9
 399 013e C7F8F430 		str	r3, [r7, #244]
 107:./BSP/Hardware/Src/qspi.c ****     HAL_GPIO_Init(GPIOG, &GPIO_InitStruct);
 400              		.loc 1 107 5
 401 0142 07F1E403 		add	r3, r7, #228
 402 0146 1946     		mov	r1, r3
 403 0148 6E48     		ldr	r0, .L13+8
 404 014a FFF7FEFF 		bl	HAL_GPIO_Init
 108:./BSP/Hardware/Src/qspi.c **** 
 109:./BSP/Hardware/Src/qspi.c ****     GPIO_InitStruct.Pin = QSPI_BK1_NCS_Pin;
 405              		.loc 1 109 25
ARM GAS  /tmp/ccpRhGjm.s 			page 10


 406 014e 4023     		movs	r3, #64
 407 0150 C7F8E430 		str	r3, [r7, #228]
 110:./BSP/Hardware/Src/qspi.c ****     GPIO_InitStruct.Mode = GPIO_MODE_AF_PP;
 408              		.loc 1 110 26
 409 0154 0223     		movs	r3, #2
 410 0156 C7F8E830 		str	r3, [r7, #232]
 111:./BSP/Hardware/Src/qspi.c ****     GPIO_InitStruct.Pull = GPIO_NOPULL;
 411              		.loc 1 111 26
 412 015a 0023     		movs	r3, #0
 413 015c C7F8EC30 		str	r3, [r7, #236]
 112:./BSP/Hardware/Src/qspi.c ****     GPIO_InitStruct.Speed = GPIO_SPEED_FREQ_VERY_HIGH;
 414              		.loc 1 112 27
 415 0160 0323     		movs	r3, #3
 416 0162 C7F8F030 		str	r3, [r7, #240]
 113:./BSP/Hardware/Src/qspi.c ****     GPIO_InitStruct.Alternate = GPIO_AF10_QUADSPI;
 417              		.loc 1 113 31
 418 0166 0A23     		movs	r3, #10
 419 0168 C7F8F430 		str	r3, [r7, #244]
 114:./BSP/Hardware/Src/qspi.c ****     HAL_GPIO_Init(QSPI_BK1_NCS_GPIO_Port, &GPIO_InitStruct);
 420              		.loc 1 114 5
 421 016c 07F1E403 		add	r3, r7, #228
 422 0170 1946     		mov	r1, r3
 423 0172 6448     		ldr	r0, .L13+8
 424 0174 FFF7FEFF 		bl	HAL_GPIO_Init
 115:./BSP/Hardware/Src/qspi.c **** 
 116:./BSP/Hardware/Src/qspi.c ****     GPIO_InitStruct.Pin = QSPI_BK1_IO3_Pin|QSPI_BK1_IO2_Pin;
 425              		.loc 1 116 25
 426 0178 C023     		movs	r3, #192
 427 017a C7F8E430 		str	r3, [r7, #228]
 117:./BSP/Hardware/Src/qspi.c ****     GPIO_InitStruct.Mode = GPIO_MODE_AF_PP;
 428              		.loc 1 117 26
 429 017e 0223     		movs	r3, #2
 430 0180 C7F8E830 		str	r3, [r7, #232]
 118:./BSP/Hardware/Src/qspi.c ****     GPIO_InitStruct.Pull = GPIO_NOPULL;
 431              		.loc 1 118 26
 432 0184 0023     		movs	r3, #0
 433 0186 C7F8EC30 		str	r3, [r7, #236]
 119:./BSP/Hardware/Src/qspi.c ****     GPIO_InitStruct.Speed = GPIO_SPEED_FREQ_VERY_HIGH;
 434              		.loc 1 119 27
 435 018a 0323     		movs	r3, #3
 436 018c C7F8F030 		str	r3, [r7, #240]
 120:./BSP/Hardware/Src/qspi.c ****     GPIO_InitStruct.Alternate = GPIO_AF9_QUADSPI;
 437              		.loc 1 120 31
 438 0190 0923     		movs	r3, #9
 439 0192 C7F8F430 		str	r3, [r7, #244]
 121:./BSP/Hardware/Src/qspi.c ****     HAL_GPIO_Init(GPIOF, &GPIO_InitStruct);
 440              		.loc 1 121 5
 441 0196 07F1E403 		add	r3, r7, #228
 442 019a 1946     		mov	r1, r3
 443 019c 5A48     		ldr	r0, .L13+12
 444 019e FFF7FEFF 		bl	HAL_GPIO_Init
 122:./BSP/Hardware/Src/qspi.c **** 
 123:./BSP/Hardware/Src/qspi.c ****     GPIO_InitStruct.Pin = QSPI_BK1_IO1_Pin;
 445              		.loc 1 123 25
 446 01a2 4FF40073 		mov	r3, #512
 447 01a6 C7F8E430 		str	r3, [r7, #228]
 124:./BSP/Hardware/Src/qspi.c ****     GPIO_InitStruct.Mode = GPIO_MODE_AF_PP;
ARM GAS  /tmp/ccpRhGjm.s 			page 11


 448              		.loc 1 124 26
 449 01aa 0223     		movs	r3, #2
 450 01ac C7F8E830 		str	r3, [r7, #232]
 125:./BSP/Hardware/Src/qspi.c ****     GPIO_InitStruct.Pull = GPIO_NOPULL;
 451              		.loc 1 125 26
 452 01b0 0023     		movs	r3, #0
 453 01b2 C7F8EC30 		str	r3, [r7, #236]
 126:./BSP/Hardware/Src/qspi.c ****     GPIO_InitStruct.Speed = GPIO_SPEED_FREQ_VERY_HIGH;
 454              		.loc 1 126 27
 455 01b6 0323     		movs	r3, #3
 456 01b8 C7F8F030 		str	r3, [r7, #240]
 127:./BSP/Hardware/Src/qspi.c ****     GPIO_InitStruct.Alternate = GPIO_AF10_QUADSPI;
 457              		.loc 1 127 31
 458 01bc 0A23     		movs	r3, #10
 459 01be C7F8F430 		str	r3, [r7, #244]
 128:./BSP/Hardware/Src/qspi.c ****     HAL_GPIO_Init(QSPI_BK1_IO1_GPIO_Port, &GPIO_InitStruct);
 460              		.loc 1 128 5
 461 01c2 07F1E403 		add	r3, r7, #228
 462 01c6 1946     		mov	r1, r3
 463 01c8 4F48     		ldr	r0, .L13+12
 464 01ca FFF7FEFF 		bl	HAL_GPIO_Init
 129:./BSP/Hardware/Src/qspi.c **** 
 130:./BSP/Hardware/Src/qspi.c ****     GPIO_InitStruct.Pin = QSPI_BK2_IO0_Pin|QSPI_BK2_IO1_Pin;
 465              		.loc 1 130 25
 466 01ce 0C23     		movs	r3, #12
 467 01d0 C7F8E430 		str	r3, [r7, #228]
 131:./BSP/Hardware/Src/qspi.c ****     GPIO_InitStruct.Mode = GPIO_MODE_AF_PP;
 468              		.loc 1 131 26
 469 01d4 0223     		movs	r3, #2
 470 01d6 C7F8E830 		str	r3, [r7, #232]
 132:./BSP/Hardware/Src/qspi.c ****     GPIO_InitStruct.Pull = GPIO_NOPULL;
 471              		.loc 1 132 26
 472 01da 0023     		movs	r3, #0
 473 01dc C7F8EC30 		str	r3, [r7, #236]
 133:./BSP/Hardware/Src/qspi.c ****     GPIO_InitStruct.Speed = GPIO_SPEED_FREQ_VERY_HIGH;
 474              		.loc 1 133 27
 475 01e0 0323     		movs	r3, #3
 476 01e2 C7F8F030 		str	r3, [r7, #240]
 134:./BSP/Hardware/Src/qspi.c ****     GPIO_InitStruct.Alternate = GPIO_AF9_QUADSPI;
 477              		.loc 1 134 31
 478 01e6 0923     		movs	r3, #9
 479 01e8 C7F8F430 		str	r3, [r7, #244]
 135:./BSP/Hardware/Src/qspi.c ****     HAL_GPIO_Init(GPIOH, &GPIO_InitStruct);
 480              		.loc 1 135 5
 481 01ec 07F1E403 		add	r3, r7, #228
 482 01f0 1946     		mov	r1, r3
 483 01f2 4648     		ldr	r0, .L13+16
 484 01f4 FFF7FEFF 		bl	HAL_GPIO_Init
 136:./BSP/Hardware/Src/qspi.c **** 
 137:./BSP/Hardware/Src/qspi.c ****     GPIO_InitStruct.Pin = QSPI_CLK_Pin;
 485              		.loc 1 137 25
 486 01f8 0423     		movs	r3, #4
 487 01fa C7F8E430 		str	r3, [r7, #228]
 138:./BSP/Hardware/Src/qspi.c ****     GPIO_InitStruct.Mode = GPIO_MODE_AF_PP;
 488              		.loc 1 138 26
 489 01fe 0223     		movs	r3, #2
 490 0200 C7F8E830 		str	r3, [r7, #232]
ARM GAS  /tmp/ccpRhGjm.s 			page 12


 139:./BSP/Hardware/Src/qspi.c ****     GPIO_InitStruct.Pull = GPIO_NOPULL;
 491              		.loc 1 139 26
 492 0204 0023     		movs	r3, #0
 493 0206 C7F8EC30 		str	r3, [r7, #236]
 140:./BSP/Hardware/Src/qspi.c ****     GPIO_InitStruct.Speed = GPIO_SPEED_FREQ_VERY_HIGH;
 494              		.loc 1 140 27
 495 020a 0323     		movs	r3, #3
 496 020c C7F8F030 		str	r3, [r7, #240]
 141:./BSP/Hardware/Src/qspi.c ****     GPIO_InitStruct.Alternate = GPIO_AF9_QUADSPI;
 497              		.loc 1 141 31
 498 0210 0923     		movs	r3, #9
 499 0212 C7F8F430 		str	r3, [r7, #244]
 142:./BSP/Hardware/Src/qspi.c ****     HAL_GPIO_Init(QSPI_CLK_GPIO_Port, &GPIO_InitStruct);
 500              		.loc 1 142 5
 501 0216 07F1E403 		add	r3, r7, #228
 502 021a 1946     		mov	r1, r3
 503 021c 3C48     		ldr	r0, .L13+20
 504 021e FFF7FEFF 		bl	HAL_GPIO_Init
 143:./BSP/Hardware/Src/qspi.c **** 
 144:./BSP/Hardware/Src/qspi.c ****     GPIO_InitStruct.Pin = QSPI_BK1_IO0_Pin;
 505              		.loc 1 144 25
 506 0222 4FF40063 		mov	r3, #2048
 507 0226 C7F8E430 		str	r3, [r7, #228]
 145:./BSP/Hardware/Src/qspi.c ****     GPIO_InitStruct.Mode = GPIO_MODE_AF_PP;
 508              		.loc 1 145 26
 509 022a 0223     		movs	r3, #2
 510 022c C7F8E830 		str	r3, [r7, #232]
 146:./BSP/Hardware/Src/qspi.c ****     GPIO_InitStruct.Pull = GPIO_NOPULL;
 511              		.loc 1 146 26
 512 0230 0023     		movs	r3, #0
 513 0232 C7F8EC30 		str	r3, [r7, #236]
 147:./BSP/Hardware/Src/qspi.c ****     GPIO_InitStruct.Speed = GPIO_SPEED_FREQ_VERY_HIGH;
 514              		.loc 1 147 27
 515 0236 0323     		movs	r3, #3
 516 0238 C7F8F030 		str	r3, [r7, #240]
 148:./BSP/Hardware/Src/qspi.c ****     GPIO_InitStruct.Alternate = GPIO_AF9_QUADSPI;
 517              		.loc 1 148 31
 518 023c 0923     		movs	r3, #9
 519 023e C7F8F430 		str	r3, [r7, #244]
 149:./BSP/Hardware/Src/qspi.c ****     HAL_GPIO_Init(QSPI_BK1_IO0_GPIO_Port, &GPIO_InitStruct);
 520              		.loc 1 149 5
 521 0242 07F1E403 		add	r3, r7, #228
 522 0246 1946     		mov	r1, r3
 523 0248 3248     		ldr	r0, .L13+24
 524 024a FFF7FEFF 		bl	HAL_GPIO_Init
 150:./BSP/Hardware/Src/qspi.c **** 
 151:./BSP/Hardware/Src/qspi.c ****     /* QUADSPI MDMA Init */
 152:./BSP/Hardware/Src/qspi.c ****     /* QUADSPI_FIFO_TH Init */
 153:./BSP/Hardware/Src/qspi.c ****     hmdma_quadspi_fifo_th.Instance = MDMA_Channel0;
 525              		.loc 1 153 36
 526 024e 324B     		ldr	r3, .L13+28
 527 0250 324A     		ldr	r2, .L13+32
 528 0252 1A60     		str	r2, [r3]
 154:./BSP/Hardware/Src/qspi.c ****     hmdma_quadspi_fifo_th.Init.Request = MDMA_REQUEST_QUADSPI_FIFO_TH;
 529              		.loc 1 154 40
 530 0254 304B     		ldr	r3, .L13+28
 531 0256 1622     		movs	r2, #22
ARM GAS  /tmp/ccpRhGjm.s 			page 13


 532 0258 5A60     		str	r2, [r3, #4]
 155:./BSP/Hardware/Src/qspi.c ****     hmdma_quadspi_fifo_th.Init.TransferTriggerMode = MDMA_BUFFER_TRANSFER;
 533              		.loc 1 155 52
 534 025a 2F4B     		ldr	r3, .L13+28
 535 025c 0022     		movs	r2, #0
 536 025e 9A60     		str	r2, [r3, #8]
 156:./BSP/Hardware/Src/qspi.c ****     hmdma_quadspi_fifo_th.Init.Priority = MDMA_PRIORITY_LOW;
 537              		.loc 1 156 41
 538 0260 2D4B     		ldr	r3, .L13+28
 539 0262 0022     		movs	r2, #0
 540 0264 DA60     		str	r2, [r3, #12]
 157:./BSP/Hardware/Src/qspi.c ****     hmdma_quadspi_fifo_th.Init.Endianness = MDMA_LITTLE_ENDIANNESS_PRESERVE;
 541              		.loc 1 157 43
 542 0266 2C4B     		ldr	r3, .L13+28
 543 0268 0022     		movs	r2, #0
 544 026a 1A61     		str	r2, [r3, #16]
 158:./BSP/Hardware/Src/qspi.c ****     hmdma_quadspi_fifo_th.Init.SourceInc = MDMA_SRC_INC_BYTE;
 545              		.loc 1 158 42
 546 026c 2A4B     		ldr	r3, .L13+28
 547 026e 0222     		movs	r2, #2
 548 0270 5A61     		str	r2, [r3, #20]
 159:./BSP/Hardware/Src/qspi.c ****     hmdma_quadspi_fifo_th.Init.DestinationInc = MDMA_DEST_INC_DISABLE;
 549              		.loc 1 159 47
 550 0272 294B     		ldr	r3, .L13+28
 551 0274 0022     		movs	r2, #0
 552 0276 9A61     		str	r2, [r3, #24]
 160:./BSP/Hardware/Src/qspi.c ****     hmdma_quadspi_fifo_th.Init.SourceDataSize = MDMA_SRC_DATASIZE_BYTE;
 553              		.loc 1 160 47
 554 0278 274B     		ldr	r3, .L13+28
 555 027a 0022     		movs	r2, #0
 556 027c DA61     		str	r2, [r3, #28]
 161:./BSP/Hardware/Src/qspi.c ****     hmdma_quadspi_fifo_th.Init.DestDataSize = MDMA_DEST_DATASIZE_BYTE;
 557              		.loc 1 161 45
 558 027e 264B     		ldr	r3, .L13+28
 559 0280 0022     		movs	r2, #0
 560 0282 1A62     		str	r2, [r3, #32]
 162:./BSP/Hardware/Src/qspi.c ****     hmdma_quadspi_fifo_th.Init.DataAlignment = MDMA_DATAALIGN_PACKENABLE;
 561              		.loc 1 162 46
 562 0284 244B     		ldr	r3, .L13+28
 563 0286 4FF00072 		mov	r2, #33554432
 564 028a 5A62     		str	r2, [r3, #36]
 163:./BSP/Hardware/Src/qspi.c ****     hmdma_quadspi_fifo_th.Init.BufferTransferLength = 1;
 565              		.loc 1 163 53
 566 028c 224B     		ldr	r3, .L13+28
 567 028e 0122     		movs	r2, #1
 568 0290 9A62     		str	r2, [r3, #40]
 164:./BSP/Hardware/Src/qspi.c ****     hmdma_quadspi_fifo_th.Init.SourceBurst = MDMA_SOURCE_BURST_SINGLE;
 569              		.loc 1 164 44
 570 0292 214B     		ldr	r3, .L13+28
 571 0294 0022     		movs	r2, #0
 572 0296 DA62     		str	r2, [r3, #44]
 165:./BSP/Hardware/Src/qspi.c ****     hmdma_quadspi_fifo_th.Init.DestBurst = MDMA_DEST_BURST_SINGLE;
 573              		.loc 1 165 42
 574 0298 1F4B     		ldr	r3, .L13+28
 575 029a 0022     		movs	r2, #0
 576 029c 1A63     		str	r2, [r3, #48]
 166:./BSP/Hardware/Src/qspi.c ****     hmdma_quadspi_fifo_th.Init.SourceBlockAddressOffset = 0;
ARM GAS  /tmp/ccpRhGjm.s 			page 14


 577              		.loc 1 166 57
 578 029e 1E4B     		ldr	r3, .L13+28
 579 02a0 0022     		movs	r2, #0
 580 02a2 5A63     		str	r2, [r3, #52]
 167:./BSP/Hardware/Src/qspi.c ****     hmdma_quadspi_fifo_th.Init.DestBlockAddressOffset = 0;
 581              		.loc 1 167 55
 582 02a4 1C4B     		ldr	r3, .L13+28
 583 02a6 0022     		movs	r2, #0
 584 02a8 9A63     		str	r2, [r3, #56]
 168:./BSP/Hardware/Src/qspi.c ****     if (HAL_MDMA_Init(&hmdma_quadspi_fifo_th) != HAL_OK)
 585              		.loc 1 168 9
 586 02aa 1B48     		ldr	r0, .L13+28
 587 02ac FFF7FEFF 		bl	HAL_MDMA_Init
 588 02b0 0346     		mov	r3, r0
 589              		.loc 1 168 8
 590 02b2 002B     		cmp	r3, #0
 591 02b4 03D0     		beq	.L11
 169:./BSP/Hardware/Src/qspi.c ****     {
 170:./BSP/Hardware/Src/qspi.c ****       Error_Handler(__FILE__, __LINE__);
 592              		.loc 1 170 7
 593 02b6 AA21     		movs	r1, #170
 594 02b8 1048     		ldr	r0, .L13
 595 02ba FFF7FEFF 		bl	Error_Handler
 596              	.L11:
 171:./BSP/Hardware/Src/qspi.c ****     }
 172:./BSP/Hardware/Src/qspi.c **** 
 173:./BSP/Hardware/Src/qspi.c ****     if (HAL_MDMA_ConfigPostRequestMask(&hmdma_quadspi_fifo_th, 0, 0) != HAL_OK)
 597              		.loc 1 173 9
 598 02be 0022     		movs	r2, #0
 599 02c0 0021     		movs	r1, #0
 600 02c2 1548     		ldr	r0, .L13+28
 601 02c4 FFF7FEFF 		bl	HAL_MDMA_ConfigPostRequestMask
 602 02c8 0346     		mov	r3, r0
 603              		.loc 1 173 8
 604 02ca 002B     		cmp	r3, #0
 605 02cc 03D0     		beq	.L12
 174:./BSP/Hardware/Src/qspi.c ****     {
 175:./BSP/Hardware/Src/qspi.c ****       Error_Handler(__FILE__, __LINE__);
 606              		.loc 1 175 7
 607 02ce AF21     		movs	r1, #175
 608 02d0 0A48     		ldr	r0, .L13
 609 02d2 FFF7FEFF 		bl	Error_Handler
 610              	.L12:
 176:./BSP/Hardware/Src/qspi.c ****     }
 177:./BSP/Hardware/Src/qspi.c **** 
 178:./BSP/Hardware/Src/qspi.c ****     __HAL_LINKDMA(hqspi,hmdma,hmdma_quadspi_fifo_th);
 611              		.loc 1 178 5
 612 02d6 7B68     		ldr	r3, [r7, #4]
 613 02d8 0F4A     		ldr	r2, .L13+28
 614 02da DA63     		str	r2, [r3, #60]
 615 02dc 0E4A     		ldr	r2, .L13+28
 616 02de 7B68     		ldr	r3, [r7, #4]
 617 02e0 1364     		str	r3, [r2, #64]
 179:./BSP/Hardware/Src/qspi.c **** 
 180:./BSP/Hardware/Src/qspi.c ****     /*##-3- Configure the NVIC for QSPI #########################################*/
 181:./BSP/Hardware/Src/qspi.c ****     /* NVIC configuration for QSPI interrupt */
 182:./BSP/Hardware/Src/qspi.c ****     HAL_NVIC_SetPriority(QUADSPI_IRQn, 0x0F, 0);
ARM GAS  /tmp/ccpRhGjm.s 			page 15


 618              		.loc 1 182 5
 619 02e2 0022     		movs	r2, #0
 620 02e4 0F21     		movs	r1, #15
 621 02e6 5C20     		movs	r0, #92
 622 02e8 FFF7FEFF 		bl	HAL_NVIC_SetPriority
 183:./BSP/Hardware/Src/qspi.c ****     HAL_NVIC_EnableIRQ(QUADSPI_IRQn);
 623              		.loc 1 183 5
 624 02ec 5C20     		movs	r0, #92
 625 02ee FFF7FEFF 		bl	HAL_NVIC_EnableIRQ
 184:./BSP/Hardware/Src/qspi.c **** }
 626              		.loc 1 184 1
 627 02f2 00BF     		nop
 628 02f4 F837     		adds	r7, r7, #248
 629              	.LCFI16:
 630              		.cfi_def_cfa_offset 8
 631 02f6 BD46     		mov	sp, r7
 632              	.LCFI17:
 633              		.cfi_def_cfa_register 13
 634              		@ sp needed
 635 02f8 80BD     		pop	{r7, pc}
 636              	.L14:
 637 02fa 00BF     		.align	2
 638              	.L13:
 639 02fc 00000000 		.word	.LC0
 640 0300 00440258 		.word	1476543488
 641 0304 00180258 		.word	1476532224
 642 0308 00140258 		.word	1476531200
 643 030c 001C0258 		.word	1476533248
 644 0310 00040258 		.word	1476527104
 645 0314 000C0258 		.word	1476529152
 646 0318 00000000 		.word	hmdma_quadspi_fifo_th
 647 031c 40000052 		.word	1375731776
 648              		.cfi_endproc
 649              	.LFE340:
 651              		.section	.text.QSPI_Write_Command,"ax",%progbits
 652              		.align	1
 653              		.global	QSPI_Write_Command
 654              		.syntax unified
 655              		.thumb
 656              		.thumb_func
 657              		.fpu fpv5-d16
 659              	QSPI_Write_Command:
 660              	.LFB341:
 185:./BSP/Hardware/Src/qspi.c **** 
 186:./BSP/Hardware/Src/qspi.c **** void QSPI_Write_Command(QSPI_objectTypeDef *object,QSPI_CommandTypeDef *cmd)
 187:./BSP/Hardware/Src/qspi.c **** {
 661              		.loc 1 187 1
 662              		.cfi_startproc
 663              		@ args = 0, pretend = 0, frame = 8
 664              		@ frame_needed = 1, uses_anonymous_args = 0
 665 0000 80B5     		push	{r7, lr}
 666              	.LCFI18:
 667              		.cfi_def_cfa_offset 8
 668              		.cfi_offset 7, -8
 669              		.cfi_offset 14, -4
 670 0002 82B0     		sub	sp, sp, #8
 671              	.LCFI19:
ARM GAS  /tmp/ccpRhGjm.s 			page 16


 672              		.cfi_def_cfa_offset 16
 673 0004 00AF     		add	r7, sp, #0
 674              	.LCFI20:
 675              		.cfi_def_cfa_register 7
 676 0006 7860     		str	r0, [r7, #4]
 677 0008 3960     		str	r1, [r7]
 188:./BSP/Hardware/Src/qspi.c ****     if(HAL_QSPI_Command(&object->hqspi,cmd,HAL_QSPI_TIMEOUT_DEFAULT_VALUE != HAL_OK))
 678              		.loc 1 188 8
 679 000a 7B68     		ldr	r3, [r7, #4]
 680 000c 0122     		movs	r2, #1
 681 000e 3968     		ldr	r1, [r7]
 682 0010 1846     		mov	r0, r3
 683 0012 FFF7FEFF 		bl	HAL_QSPI_Command
 684 0016 0346     		mov	r3, r0
 685              		.loc 1 188 7
 686 0018 002B     		cmp	r3, #0
 687 001a 03D0     		beq	.L17
 189:./BSP/Hardware/Src/qspi.c ****     {
 190:./BSP/Hardware/Src/qspi.c ****         Error_Handler(__FILE__, __LINE__);
 688              		.loc 1 190 9
 689 001c BE21     		movs	r1, #190
 690 001e 0348     		ldr	r0, .L18
 691 0020 FFF7FEFF 		bl	Error_Handler
 692              	.L17:
 191:./BSP/Hardware/Src/qspi.c ****     }
 192:./BSP/Hardware/Src/qspi.c **** }
 693              		.loc 1 192 1
 694 0024 00BF     		nop
 695 0026 0837     		adds	r7, r7, #8
 696              	.LCFI21:
 697              		.cfi_def_cfa_offset 8
 698 0028 BD46     		mov	sp, r7
 699              	.LCFI22:
 700              		.cfi_def_cfa_register 13
 701              		@ sp needed
 702 002a 80BD     		pop	{r7, pc}
 703              	.L19:
 704              		.align	2
 705              	.L18:
 706 002c 00000000 		.word	.LC0
 707              		.cfi_endproc
 708              	.LFE341:
 710              		.section	.text.QSPI_Write_Data,"ax",%progbits
 711              		.align	1
 712              		.global	QSPI_Write_Data
 713              		.syntax unified
 714              		.thumb
 715              		.thumb_func
 716              		.fpu fpv5-d16
 718              	QSPI_Write_Data:
 719              	.LFB342:
 193:./BSP/Hardware/Src/qspi.c **** 
 194:./BSP/Hardware/Src/qspi.c **** void QSPI_Write_Data(QSPI_objectTypeDef *object,uint8_t *reg)
 195:./BSP/Hardware/Src/qspi.c **** {
 720              		.loc 1 195 1
 721              		.cfi_startproc
 722              		@ args = 0, pretend = 0, frame = 8
ARM GAS  /tmp/ccpRhGjm.s 			page 17


 723              		@ frame_needed = 1, uses_anonymous_args = 0
 724 0000 80B5     		push	{r7, lr}
 725              	.LCFI23:
 726              		.cfi_def_cfa_offset 8
 727              		.cfi_offset 7, -8
 728              		.cfi_offset 14, -4
 729 0002 82B0     		sub	sp, sp, #8
 730              	.LCFI24:
 731              		.cfi_def_cfa_offset 16
 732 0004 00AF     		add	r7, sp, #0
 733              	.LCFI25:
 734              		.cfi_def_cfa_register 7
 735 0006 7860     		str	r0, [r7, #4]
 736 0008 3960     		str	r1, [r7]
 196:./BSP/Hardware/Src/qspi.c ****     if (HAL_QSPI_Transmit(&object->hqspi, reg, HAL_QPSI_TIMEOUT_DEFAULT_VALUE) != HAL_OK)
 737              		.loc 1 196 9
 738 000a 7B68     		ldr	r3, [r7, #4]
 739 000c 41F28832 		movw	r2, #5000
 740 0010 3968     		ldr	r1, [r7]
 741 0012 1846     		mov	r0, r3
 742 0014 FFF7FEFF 		bl	HAL_QSPI_Transmit
 743 0018 0346     		mov	r3, r0
 744              		.loc 1 196 8
 745 001a 002B     		cmp	r3, #0
 746 001c 03D0     		beq	.L22
 197:./BSP/Hardware/Src/qspi.c ****     {
 198:./BSP/Hardware/Src/qspi.c ****         Error_Handler(__FILE__, __LINE__);
 747              		.loc 1 198 9
 748 001e C621     		movs	r1, #198
 749 0020 0348     		ldr	r0, .L23
 750 0022 FFF7FEFF 		bl	Error_Handler
 751              	.L22:
 199:./BSP/Hardware/Src/qspi.c ****     }
 200:./BSP/Hardware/Src/qspi.c **** }
 752              		.loc 1 200 1
 753 0026 00BF     		nop
 754 0028 0837     		adds	r7, r7, #8
 755              	.LCFI26:
 756              		.cfi_def_cfa_offset 8
 757 002a BD46     		mov	sp, r7
 758              	.LCFI27:
 759              		.cfi_def_cfa_register 13
 760              		@ sp needed
 761 002c 80BD     		pop	{r7, pc}
 762              	.L24:
 763 002e 00BF     		.align	2
 764              	.L23:
 765 0030 00000000 		.word	.LC0
 766              		.cfi_endproc
 767              	.LFE342:
 769              		.section	.text.QSPI_Read_Data,"ax",%progbits
 770              		.align	1
 771              		.global	QSPI_Read_Data
 772              		.syntax unified
 773              		.thumb
 774              		.thumb_func
 775              		.fpu fpv5-d16
ARM GAS  /tmp/ccpRhGjm.s 			page 18


 777              	QSPI_Read_Data:
 778              	.LFB343:
 201:./BSP/Hardware/Src/qspi.c **** 
 202:./BSP/Hardware/Src/qspi.c **** void QSPI_Read_Data(QSPI_objectTypeDef *object,uint8_t *reg)
 203:./BSP/Hardware/Src/qspi.c **** {
 779              		.loc 1 203 1
 780              		.cfi_startproc
 781              		@ args = 0, pretend = 0, frame = 8
 782              		@ frame_needed = 1, uses_anonymous_args = 0
 783 0000 80B5     		push	{r7, lr}
 784              	.LCFI28:
 785              		.cfi_def_cfa_offset 8
 786              		.cfi_offset 7, -8
 787              		.cfi_offset 14, -4
 788 0002 82B0     		sub	sp, sp, #8
 789              	.LCFI29:
 790              		.cfi_def_cfa_offset 16
 791 0004 00AF     		add	r7, sp, #0
 792              	.LCFI30:
 793              		.cfi_def_cfa_register 7
 794 0006 7860     		str	r0, [r7, #4]
 795 0008 3960     		str	r1, [r7]
 204:./BSP/Hardware/Src/qspi.c ****     if (HAL_QSPI_Receive(&object->hqspi, reg, HAL_QPSI_TIMEOUT_DEFAULT_VALUE) != HAL_OK)
 796              		.loc 1 204 9
 797 000a 7B68     		ldr	r3, [r7, #4]
 798 000c 41F28832 		movw	r2, #5000
 799 0010 3968     		ldr	r1, [r7]
 800 0012 1846     		mov	r0, r3
 801 0014 FFF7FEFF 		bl	HAL_QSPI_Receive
 802 0018 0346     		mov	r3, r0
 803              		.loc 1 204 8
 804 001a 002B     		cmp	r3, #0
 805 001c 03D0     		beq	.L27
 205:./BSP/Hardware/Src/qspi.c ****     {
 206:./BSP/Hardware/Src/qspi.c ****         Error_Handler(__FILE__, __LINE__);
 806              		.loc 1 206 9
 807 001e CE21     		movs	r1, #206
 808 0020 0348     		ldr	r0, .L28
 809 0022 FFF7FEFF 		bl	Error_Handler
 810              	.L27:
 207:./BSP/Hardware/Src/qspi.c ****     }
 208:./BSP/Hardware/Src/qspi.c **** }
 811              		.loc 1 208 1
 812 0026 00BF     		nop
 813 0028 0837     		adds	r7, r7, #8
 814              	.LCFI31:
 815              		.cfi_def_cfa_offset 8
 816 002a BD46     		mov	sp, r7
 817              	.LCFI32:
 818              		.cfi_def_cfa_register 13
 819              		@ sp needed
 820 002c 80BD     		pop	{r7, pc}
 821              	.L29:
 822 002e 00BF     		.align	2
 823              	.L28:
 824 0030 00000000 		.word	.LC0
 825              		.cfi_endproc
ARM GAS  /tmp/ccpRhGjm.s 			page 19


 826              	.LFE343:
 828              		.section	.text.QSPI_Auto_Polling,"ax",%progbits
 829              		.align	1
 830              		.global	QSPI_Auto_Polling
 831              		.syntax unified
 832              		.thumb
 833              		.thumb_func
 834              		.fpu fpv5-d16
 836              	QSPI_Auto_Polling:
 837              	.LFB344:
 209:./BSP/Hardware/Src/qspi.c **** 
 210:./BSP/Hardware/Src/qspi.c **** void QSPI_Auto_Polling(QSPI_objectTypeDef *object,QSPI_CommandTypeDef *cmd,QSPI_AutoPollingTypeDef 
 211:./BSP/Hardware/Src/qspi.c **** {
 838              		.loc 1 211 1
 839              		.cfi_startproc
 840              		@ args = 0, pretend = 0, frame = 16
 841              		@ frame_needed = 1, uses_anonymous_args = 0
 842 0000 80B5     		push	{r7, lr}
 843              	.LCFI33:
 844              		.cfi_def_cfa_offset 8
 845              		.cfi_offset 7, -8
 846              		.cfi_offset 14, -4
 847 0002 84B0     		sub	sp, sp, #16
 848              	.LCFI34:
 849              		.cfi_def_cfa_offset 24
 850 0004 00AF     		add	r7, sp, #0
 851              	.LCFI35:
 852              		.cfi_def_cfa_register 7
 853 0006 F860     		str	r0, [r7, #12]
 854 0008 B960     		str	r1, [r7, #8]
 855 000a 7A60     		str	r2, [r7, #4]
 212:./BSP/Hardware/Src/qspi.c ****     if (HAL_QSPI_AutoPolling(&object->hqspi, cmd, cofig, HAL_QPSI_TIMEOUT_DEFAULT_VALUE) != HAL_OK)
 856              		.loc 1 212 9
 857 000c F868     		ldr	r0, [r7, #12]
 858 000e 41F28833 		movw	r3, #5000
 859 0012 7A68     		ldr	r2, [r7, #4]
 860 0014 B968     		ldr	r1, [r7, #8]
 861 0016 FFF7FEFF 		bl	HAL_QSPI_AutoPolling
 862 001a 0346     		mov	r3, r0
 863              		.loc 1 212 8
 864 001c 002B     		cmp	r3, #0
 865 001e 03D0     		beq	.L32
 213:./BSP/Hardware/Src/qspi.c ****     {
 214:./BSP/Hardware/Src/qspi.c ****         Error_Handler(__FILE__, __LINE__);
 866              		.loc 1 214 9
 867 0020 D621     		movs	r1, #214
 868 0022 0348     		ldr	r0, .L33
 869 0024 FFF7FEFF 		bl	Error_Handler
 870              	.L32:
 215:./BSP/Hardware/Src/qspi.c ****     }
 216:./BSP/Hardware/Src/qspi.c **** }
 871              		.loc 1 216 1
 872 0028 00BF     		nop
 873 002a 1037     		adds	r7, r7, #16
 874              	.LCFI36:
 875              		.cfi_def_cfa_offset 8
 876 002c BD46     		mov	sp, r7
ARM GAS  /tmp/ccpRhGjm.s 			page 20


 877              	.LCFI37:
 878              		.cfi_def_cfa_register 13
 879              		@ sp needed
 880 002e 80BD     		pop	{r7, pc}
 881              	.L34:
 882              		.align	2
 883              	.L33:
 884 0030 00000000 		.word	.LC0
 885              		.cfi_endproc
 886              	.LFE344:
 888              		.section	.text.QSPI_MemoryMapped,"ax",%progbits
 889              		.align	1
 890              		.global	QSPI_MemoryMapped
 891              		.syntax unified
 892              		.thumb
 893              		.thumb_func
 894              		.fpu fpv5-d16
 896              	QSPI_MemoryMapped:
 897              	.LFB345:
 217:./BSP/Hardware/Src/qspi.c **** 
 218:./BSP/Hardware/Src/qspi.c **** void QSPI_MemoryMapped(QSPI_objectTypeDef *object,QSPI_CommandTypeDef *cmd,QSPI_MemoryMappedTypeDef
 219:./BSP/Hardware/Src/qspi.c **** {
 898              		.loc 1 219 1
 899              		.cfi_startproc
 900              		@ args = 0, pretend = 0, frame = 16
 901              		@ frame_needed = 1, uses_anonymous_args = 0
 902 0000 80B5     		push	{r7, lr}
 903              	.LCFI38:
 904              		.cfi_def_cfa_offset 8
 905              		.cfi_offset 7, -8
 906              		.cfi_offset 14, -4
 907 0002 84B0     		sub	sp, sp, #16
 908              	.LCFI39:
 909              		.cfi_def_cfa_offset 24
 910 0004 00AF     		add	r7, sp, #0
 911              	.LCFI40:
 912              		.cfi_def_cfa_register 7
 913 0006 F860     		str	r0, [r7, #12]
 914 0008 B960     		str	r1, [r7, #8]
 915 000a 7A60     		str	r2, [r7, #4]
 220:./BSP/Hardware/Src/qspi.c ****     if (HAL_QSPI_MemoryMapped(&object->hqspi, cmd, config) != HAL_OK)
 916              		.loc 1 220 9
 917 000c FB68     		ldr	r3, [r7, #12]
 918 000e 7A68     		ldr	r2, [r7, #4]
 919 0010 B968     		ldr	r1, [r7, #8]
 920 0012 1846     		mov	r0, r3
 921 0014 FFF7FEFF 		bl	HAL_QSPI_MemoryMapped
 922 0018 0346     		mov	r3, r0
 923              		.loc 1 220 8
 924 001a 002B     		cmp	r3, #0
 925 001c 03D0     		beq	.L37
 221:./BSP/Hardware/Src/qspi.c ****     {
 222:./BSP/Hardware/Src/qspi.c ****         Error_Handler(__FILE__, __LINE__);
 926              		.loc 1 222 9
 927 001e DE21     		movs	r1, #222
 928 0020 0348     		ldr	r0, .L38
 929 0022 FFF7FEFF 		bl	Error_Handler
ARM GAS  /tmp/ccpRhGjm.s 			page 21


 930              	.L37:
 223:./BSP/Hardware/Src/qspi.c ****     }
 224:./BSP/Hardware/Src/qspi.c **** }...
 931              		.loc 1 224 1
 932 0026 00BF     		nop
 933 0028 1037     		adds	r7, r7, #16
 934              	.LCFI41:
 935              		.cfi_def_cfa_offset 8
 936 002a BD46     		mov	sp, r7
 937              	.LCFI42:
 938              		.cfi_def_cfa_register 13
 939              		@ sp needed
 940 002c 80BD     		pop	{r7, pc}
 941              	.L39:
 942 002e 00BF     		.align	2
 943              	.L38:
 944 0030 00000000 		.word	.LC0
 945              		.cfi_endproc
 946              	.LFE345:
 948              		.text
 949              	.Letext0:
 950              		.file 2 "/usr/lib/gcc/arm-none-eabi/9.2.1/include/stdint.h"
 951              		.file 3 "./Libraries/CMSIS/Core/Include/core_cm7.h"
 952              		.file 4 "./Libraries/CMSIS/Device/ST/STM32H7xx/Include/system_stm32h7xx.h"
 953              		.file 5 "./Libraries/CMSIS/Device/ST/STM32H7xx/Include/stm32h747xx.h"
 954              		.file 6 "/usr/lib/gcc/arm-none-eabi/9.2.1/include/stddef.h"
 955              		.file 7 "/usr/include/newlib/sys/_types.h"
 956              		.file 8 "/usr/include/newlib/sys/reent.h"
 957              		.file 9 "/usr/include/newlib/sys/lock.h"
 958              		.file 10 "/usr/include/newlib/math.h"
 959              		.file 11 "./Libraries/STM32H7xx_HAL_Driver/Inc/stm32h7xx_hal_def.h"
 960              		.file 12 "./Libraries/STM32H7xx_HAL_Driver/Inc/stm32h7xx_hal_rcc_ex.h"
 961              		.file 13 "./Libraries/STM32H7xx_HAL_Driver/Inc/stm32h7xx_hal_gpio.h"
 962              		.file 14 "./Libraries/STM32H7xx_HAL_Driver/Inc/stm32h7xx_hal_mdma.h"
 963              		.file 15 "./Libraries/STM32H7xx_HAL_Driver/Inc/stm32h7xx_hal_flash.h"
 964              		.file 16 "./Libraries/STM32H7xx_HAL_Driver/Inc/stm32h7xx_hal_qspi.h"
 965              		.file 17 "./Libraries/STM32H7xx_HAL_Driver/Inc/stm32h7xx_hal_uart.h"
 966              		.file 18 "./Libraries/STM32H7xx_HAL_Driver/Inc/stm32h7xx_hal.h"
 967              		.file 19 "/usr/include/newlib/stdlib.h"
 968              		.file 20 "./BSP/Hardware/Src/../../Components/Inc/lcd.h"
 969              		.file 21 "./BSP/Hardware/Src/../../Hardware/Inc/qspi.h"
ARM GAS  /tmp/ccpRhGjm.s 			page 22

