ARM GAS  /tmp/ccMzZN2U.s 			page 1


   1              		.cpu cortex-m7
   2              		.eabi_attribute 28, 1
   3              		.eabi_attribute 20, 1
   4              		.eabi_attribute 21, 1
   5              		.eabi_attribute 23, 3
   6              		.eabi_attribute 24, 1
   7              		.eabi_attribute 25, 1
   8              		.eabi_attribute 26, 1
   9              		.eabi_attribute 30, 6
  10              		.eabi_attribute 34, 1
  11              		.eabi_attribute 18, 4
  12              		.file	"qspi.c"
  13              		.text
  14              	.Ltext0:
  15              		.cfi_sections	.debug_frame
  16              		.comm	hmdma_quadspi_fifo_th,108,4
  17              		.comm	qspi_object_temp,140,4
  18              		.section	.text.QSPI_object_Init,"ax",%progbits
  19              		.align	1
  20              		.global	QSPI_object_Init
  21              		.arch armv7e-m
  22              		.syntax unified
  23              		.thumb
  24              		.thumb_func
  25              		.fpu fpv5-d16
  27              	QSPI_object_Init:
  28              	.LFB338:
  29              		.file 1 "./BSP/Hardware/Src/qspi.c"
   1:./BSP/Hardware/Src/qspi.c **** #include "../../system.h"
   2:./BSP/Hardware/Src/qspi.c **** 
   3:./BSP/Hardware/Src/qspi.c **** MDMA_HandleTypeDef hmdma_quadspi_fifo_th;
   4:./BSP/Hardware/Src/qspi.c **** QSPI_objectTypeDef qspi_object_temp;
   5:./BSP/Hardware/Src/qspi.c **** 
   6:./BSP/Hardware/Src/qspi.c **** void QSPI_Init(QSPI_objectTypeDef *object);
   7:./BSP/Hardware/Src/qspi.c **** void QSPI_Write_Command(QSPI_objectTypeDef *object,QSPI_CommandTypeDef *cmd);
   8:./BSP/Hardware/Src/qspi.c **** void QSPI_Write_Data(QSPI_objectTypeDef *object,uint8_t *reg);
   9:./BSP/Hardware/Src/qspi.c **** void QSPI_Read_Data_DMA(QSPI_objectTypeDef *object,uint8_t *reg);
  10:./BSP/Hardware/Src/qspi.c **** void QSPI_Auto_Polling(QSPI_objectTypeDef *object,QSPI_CommandTypeDef *cmd,QSPI_AutoPollingTypeDef 
  11:./BSP/Hardware/Src/qspi.c **** void QSPI_MemoryMapped(QSPI_objectTypeDef *object,QSPI_CommandTypeDef *cmd,QSPI_MemoryMappedTypeDef
  12:./BSP/Hardware/Src/qspi.c **** 
  13:./BSP/Hardware/Src/qspi.c **** QSPI_objectTypeDef  *QSPI_object_Init(QSPI_objectAttr attr)
  14:./BSP/Hardware/Src/qspi.c **** {
  30              		.loc 1 14 1
  31              		.cfi_startproc
  32              		@ args = 36, pretend = 16, frame = 0
  33              		@ frame_needed = 1, uses_anonymous_args = 0
  34 0000 84B0     		sub	sp, sp, #16
  35              	.LCFI0:
  36              		.cfi_def_cfa_offset 16
  37 0002 B0B5     		push	{r4, r5, r7, lr}
  38              	.LCFI1:
  39              		.cfi_def_cfa_offset 32
  40              		.cfi_offset 4, -32
  41              		.cfi_offset 5, -28
  42              		.cfi_offset 7, -24
  43              		.cfi_offset 14, -20
  44 0004 00AF     		add	r7, sp, #0
ARM GAS  /tmp/ccMzZN2U.s 			page 2


  45              	.LCFI2:
  46              		.cfi_def_cfa_register 7
  47 0006 07F11004 		add	r4, r7, #16
  48 000a 84E80F00 		stm	r4, {r0, r1, r2, r3}
  15:./BSP/Hardware/Src/qspi.c ****     qspi_object_temp.qspi_init=QSPI_Init;
  49              		.loc 1 15 31
  50 000e 154B     		ldr	r3, .L3
  51 0010 154A     		ldr	r2, .L3+4
  52 0012 5A67     		str	r2, [r3, #116]
  16:./BSP/Hardware/Src/qspi.c ****     qspi_object_temp.qspi_writeCmd=QSPI_Write_Command;
  53              		.loc 1 16 35
  54 0014 134B     		ldr	r3, .L3
  55 0016 154A     		ldr	r2, .L3+8
  56 0018 9A67     		str	r2, [r3, #120]
  17:./BSP/Hardware/Src/qspi.c ****     qspi_object_temp.qspi_writeData_dma=QSPI_Write_Data;
  57              		.loc 1 17 40
  58 001a 124B     		ldr	r3, .L3
  59 001c 144A     		ldr	r2, .L3+12
  60 001e DA67     		str	r2, [r3, #124]
  18:./BSP/Hardware/Src/qspi.c ****     qspi_object_temp.qspi_readData_dma=QSPI_Read_Data_DMA;
  61              		.loc 1 18 39
  62 0020 104B     		ldr	r3, .L3
  63 0022 144A     		ldr	r2, .L3+16
  64 0024 C3F88020 		str	r2, [r3, #128]
  19:./BSP/Hardware/Src/qspi.c ****     qspi_object_temp.qspi_autoPolling=QSPI_Auto_Polling;
  65              		.loc 1 19 38
  66 0028 0E4B     		ldr	r3, .L3
  67 002a 134A     		ldr	r2, .L3+20
  68 002c C3F88420 		str	r2, [r3, #132]
  20:./BSP/Hardware/Src/qspi.c ****     qspi_object_temp.qspi_memoryMapped=QSPI_MemoryMapped;
  69              		.loc 1 20 39
  70 0030 0C4B     		ldr	r3, .L3
  71 0032 124A     		ldr	r2, .L3+24
  72 0034 C3F88820 		str	r2, [r3, #136]
  21:./BSP/Hardware/Src/qspi.c ****     qspi_object_temp.object_attr=attr;
  73              		.loc 1 21 33
  74 0038 0A4B     		ldr	r3, .L3
  75 003a 03F14C04 		add	r4, r3, #76
  76 003e 07F11005 		add	r5, r7, #16
  77 0042 0FCD     		ldmia	r5!, {r0, r1, r2, r3}
  78 0044 0FC4     		stmia	r4!, {r0, r1, r2, r3}
  79 0046 0FCD     		ldmia	r5!, {r0, r1, r2, r3}
  80 0048 0FC4     		stmia	r4!, {r0, r1, r2, r3}
  81 004a 2B68     		ldr	r3, [r5]
  82 004c 2360     		str	r3, [r4]
  22:./BSP/Hardware/Src/qspi.c **** 
  23:./BSP/Hardware/Src/qspi.c ****     qspi_object_temp.qspi_init(&qspi_object_temp);
  83              		.loc 1 23 21
  84 004e 054B     		ldr	r3, .L3
  85 0050 5B6F     		ldr	r3, [r3, #116]
  86              		.loc 1 23 5
  87 0052 0448     		ldr	r0, .L3
  88 0054 9847     		blx	r3
  89              	.LVL0:
  24:./BSP/Hardware/Src/qspi.c ****     return &qspi_object_temp;
  90              		.loc 1 24 12
  91 0056 034B     		ldr	r3, .L3
ARM GAS  /tmp/ccMzZN2U.s 			page 3


  25:./BSP/Hardware/Src/qspi.c **** }
  92              		.loc 1 25 1
  93 0058 1846     		mov	r0, r3
  94 005a BD46     		mov	sp, r7
  95              	.LCFI3:
  96              		.cfi_def_cfa_register 13
  97              		@ sp needed
  98 005c BDE8B040 		pop	{r4, r5, r7, lr}
  99              	.LCFI4:
 100              		.cfi_restore 14
 101              		.cfi_restore 7
 102              		.cfi_restore 5
 103              		.cfi_restore 4
 104              		.cfi_def_cfa_offset 16
 105 0060 04B0     		add	sp, sp, #16
 106              	.LCFI5:
 107              		.cfi_def_cfa_offset 0
 108 0062 7047     		bx	lr
 109              	.L4:
 110              		.align	2
 111              	.L3:
 112 0064 00000000 		.word	qspi_object_temp
 113 0068 00000000 		.word	QSPI_Init
 114 006c 00000000 		.word	QSPI_Write_Command
 115 0070 00000000 		.word	QSPI_Write_Data
 116 0074 00000000 		.word	QSPI_Read_Data_DMA
 117 0078 00000000 		.word	QSPI_Auto_Polling
 118 007c 00000000 		.word	QSPI_MemoryMapped
 119              		.cfi_endproc
 120              	.LFE338:
 122              		.section	.rodata
 123              		.align	2
 124              	.LC0:
 125 0000 2E2F4253 		.ascii	"./BSP/Hardware/Src/qspi.c\000"
 125      502F4861 
 125      72647761 
 125      72652F53 
 125      72632F71 
 126              		.section	.text.QSPI_Init,"ax",%progbits
 127              		.align	1
 128              		.global	QSPI_Init
 129              		.syntax unified
 130              		.thumb
 131              		.thumb_func
 132              		.fpu fpv5-d16
 134              	QSPI_Init:
 135              	.LFB339:
  26:./BSP/Hardware/Src/qspi.c **** 
  27:./BSP/Hardware/Src/qspi.c **** void QSPI_Init(QSPI_objectTypeDef *object)
  28:./BSP/Hardware/Src/qspi.c **** {
 136              		.loc 1 28 1
 137              		.cfi_startproc
 138              		@ args = 0, pretend = 0, frame = 8
 139              		@ frame_needed = 1, uses_anonymous_args = 0
 140 0000 80B5     		push	{r7, lr}
 141              	.LCFI6:
 142              		.cfi_def_cfa_offset 8
ARM GAS  /tmp/ccMzZN2U.s 			page 4


 143              		.cfi_offset 7, -8
 144              		.cfi_offset 14, -4
 145 0002 82B0     		sub	sp, sp, #8
 146              	.LCFI7:
 147              		.cfi_def_cfa_offset 16
 148 0004 00AF     		add	r7, sp, #0
 149              	.LCFI8:
 150              		.cfi_def_cfa_register 7
 151 0006 7860     		str	r0, [r7, #4]
  29:./BSP/Hardware/Src/qspi.c ****     object->hqspi.Instance                = object->object_attr.Instance;
 152              		.loc 1 29 64
 153 0008 7B68     		ldr	r3, [r7, #4]
 154 000a DA6C     		ldr	r2, [r3, #76]
 155              		.loc 1 29 43
 156 000c 7B68     		ldr	r3, [r7, #4]
 157 000e 1A60     		str	r2, [r3]
  30:./BSP/Hardware/Src/qspi.c ****     object->hqspi.Init.ClockPrescaler     = object->object_attr.ClockPrescaler;
 158              		.loc 1 30 64
 159 0010 7B68     		ldr	r3, [r7, #4]
 160 0012 1A6D     		ldr	r2, [r3, #80]
 161              		.loc 1 30 43
 162 0014 7B68     		ldr	r3, [r7, #4]
 163 0016 5A60     		str	r2, [r3, #4]
  31:./BSP/Hardware/Src/qspi.c ****     object->hqspi.Init.FifoThreshold      = object->object_attr.FifoThreshold;
 164              		.loc 1 31 64
 165 0018 7B68     		ldr	r3, [r7, #4]
 166 001a 5A6D     		ldr	r2, [r3, #84]
 167              		.loc 1 31 43
 168 001c 7B68     		ldr	r3, [r7, #4]
 169 001e 9A60     		str	r2, [r3, #8]
  32:./BSP/Hardware/Src/qspi.c ****     object->hqspi.Init.SampleShifting     = object->object_attr.SampleShifting;
 170              		.loc 1 32 64
 171 0020 7B68     		ldr	r3, [r7, #4]
 172 0022 9A6D     		ldr	r2, [r3, #88]
 173              		.loc 1 32 43
 174 0024 7B68     		ldr	r3, [r7, #4]
 175 0026 DA60     		str	r2, [r3, #12]
  33:./BSP/Hardware/Src/qspi.c ****     object->hqspi.Init.FlashSize          = object->object_attr.FlashSize;
 176              		.loc 1 33 64
 177 0028 7B68     		ldr	r3, [r7, #4]
 178 002a DA6D     		ldr	r2, [r3, #92]
 179              		.loc 1 33 43
 180 002c 7B68     		ldr	r3, [r7, #4]
 181 002e 1A61     		str	r2, [r3, #16]
  34:./BSP/Hardware/Src/qspi.c ****     object->hqspi.Init.ChipSelectHighTime = object->object_attr.ChipSelectHighTime; 
 182              		.loc 1 34 64
 183 0030 7B68     		ldr	r3, [r7, #4]
 184 0032 1A6E     		ldr	r2, [r3, #96]
 185              		.loc 1 34 43
 186 0034 7B68     		ldr	r3, [r7, #4]
 187 0036 5A61     		str	r2, [r3, #20]
  35:./BSP/Hardware/Src/qspi.c ****     object->hqspi.Init.ClockMode          = object->object_attr.ClockMode;
 188              		.loc 1 35 64
 189 0038 7B68     		ldr	r3, [r7, #4]
 190 003a 5A6E     		ldr	r2, [r3, #100]
 191              		.loc 1 35 43
 192 003c 7B68     		ldr	r3, [r7, #4]
ARM GAS  /tmp/ccMzZN2U.s 			page 5


 193 003e 9A61     		str	r2, [r3, #24]
  36:./BSP/Hardware/Src/qspi.c ****     object->hqspi.Init.DualFlash          = object->object_attr.DualFlash;
 194              		.loc 1 36 64
 195 0040 7B68     		ldr	r3, [r7, #4]
 196 0042 9A6E     		ldr	r2, [r3, #104]
 197              		.loc 1 36 43
 198 0044 7B68     		ldr	r3, [r7, #4]
 199 0046 1A62     		str	r2, [r3, #32]
  37:./BSP/Hardware/Src/qspi.c ****     
  38:./BSP/Hardware/Src/qspi.c ****     if(HAL_QSPI_Init(&object->hqspi) != HAL_OK)
 200              		.loc 1 38 8
 201 0048 7B68     		ldr	r3, [r7, #4]
 202 004a 1846     		mov	r0, r3
 203 004c FFF7FEFF 		bl	HAL_QSPI_Init
 204 0050 0346     		mov	r3, r0
 205              		.loc 1 38 7
 206 0052 002B     		cmp	r3, #0
 207 0054 03D0     		beq	.L7
  39:./BSP/Hardware/Src/qspi.c ****     {
  40:./BSP/Hardware/Src/qspi.c ****       Error_Handler(__FILE__, __LINE__);
 208              		.loc 1 40 7
 209 0056 2821     		movs	r1, #40
 210 0058 0348     		ldr	r0, .L8
 211 005a FFF7FEFF 		bl	Error_Handler
 212              	.L7:
  41:./BSP/Hardware/Src/qspi.c ****     }
  42:./BSP/Hardware/Src/qspi.c **** }
 213              		.loc 1 42 1
 214 005e 00BF     		nop
 215 0060 0837     		adds	r7, r7, #8
 216              	.LCFI9:
 217              		.cfi_def_cfa_offset 8
 218 0062 BD46     		mov	sp, r7
 219              	.LCFI10:
 220              		.cfi_def_cfa_register 13
 221              		@ sp needed
 222 0064 80BD     		pop	{r7, pc}
 223              	.L9:
 224 0066 00BF     		.align	2
 225              	.L8:
 226 0068 00000000 		.word	.LC0
 227              		.cfi_endproc
 228              	.LFE339:
 230              		.section	.text.HAL_QSPI_MspInit,"ax",%progbits
 231              		.align	1
 232              		.global	HAL_QSPI_MspInit
 233              		.syntax unified
 234              		.thumb
 235              		.thumb_func
 236              		.fpu fpv5-d16
 238              	HAL_QSPI_MspInit:
 239              	.LFB340:
  43:./BSP/Hardware/Src/qspi.c **** 
  44:./BSP/Hardware/Src/qspi.c **** void HAL_QSPI_MspInit(QSPI_HandleTypeDef* hqspi)
  45:./BSP/Hardware/Src/qspi.c **** {
 240              		.loc 1 45 1
 241              		.cfi_startproc
ARM GAS  /tmp/ccMzZN2U.s 			page 6


 242              		@ args = 0, pretend = 0, frame = 248
 243              		@ frame_needed = 1, uses_anonymous_args = 0
 244 0000 80B5     		push	{r7, lr}
 245              	.LCFI11:
 246              		.cfi_def_cfa_offset 8
 247              		.cfi_offset 7, -8
 248              		.cfi_offset 14, -4
 249 0002 BEB0     		sub	sp, sp, #248
 250              	.LCFI12:
 251              		.cfi_def_cfa_offset 256
 252 0004 00AF     		add	r7, sp, #0
 253              	.LCFI13:
 254              		.cfi_def_cfa_register 7
 255 0006 7860     		str	r0, [r7, #4]
  46:./BSP/Hardware/Src/qspi.c ****   GPIO_InitTypeDef GPIO_InitStruct = {0};
 256              		.loc 1 46 20
 257 0008 07F1E403 		add	r3, r7, #228
 258 000c 0022     		movs	r2, #0
 259 000e 1A60     		str	r2, [r3]
 260 0010 5A60     		str	r2, [r3, #4]
 261 0012 9A60     		str	r2, [r3, #8]
 262 0014 DA60     		str	r2, [r3, #12]
 263 0016 1A61     		str	r2, [r3, #16]
  47:./BSP/Hardware/Src/qspi.c ****   RCC_PeriphCLKInitTypeDef PeriphClkInitStruct = {0};
 264              		.loc 1 47 28
 265 0018 07F12403 		add	r3, r7, #36
 266 001c C022     		movs	r2, #192
 267 001e 0021     		movs	r1, #0
 268 0020 1846     		mov	r0, r3
 269 0022 FFF7FEFF 		bl	memset
  48:./BSP/Hardware/Src/qspi.c ****   if(hqspi->Instance==QUADSPI)
 270              		.loc 1 48 11
 271 0026 7B68     		ldr	r3, [r7, #4]
 272 0028 1B68     		ldr	r3, [r3]
 273              		.loc 1 48 5
 274 002a B94A     		ldr	r2, .L16
 275 002c 9342     		cmp	r3, r2
 276 002e 40F06A81 		bne	.L15
  49:./BSP/Hardware/Src/qspi.c ****   {
  50:./BSP/Hardware/Src/qspi.c ****   /* USER CODE BEGIN QUADSPI_MspInit 0 */
  51:./BSP/Hardware/Src/qspi.c **** 
  52:./BSP/Hardware/Src/qspi.c ****   /* USER CODE END QUADSPI_MspInit 0 */
  53:./BSP/Hardware/Src/qspi.c ****   /** Initializes the peripherals clock
  54:./BSP/Hardware/Src/qspi.c ****   */
  55:./BSP/Hardware/Src/qspi.c ****     PeriphClkInitStruct.PeriphClockSelection = RCC_PERIPHCLK_QSPI;
 277              		.loc 1 55 46
 278 0032 4FF00073 		mov	r3, #33554432
 279 0036 7B62     		str	r3, [r7, #36]
  56:./BSP/Hardware/Src/qspi.c ****     PeriphClkInitStruct.QspiClockSelection = RCC_QSPICLKSOURCE_D1HCLK;
 280              		.loc 1 56 44
 281 0038 0023     		movs	r3, #0
 282 003a FB66     		str	r3, [r7, #108]
  57:./BSP/Hardware/Src/qspi.c ****     if (HAL_RCCEx_PeriphCLKConfig(&PeriphClkInitStruct) != HAL_OK)
 283              		.loc 1 57 9
 284 003c 07F12403 		add	r3, r7, #36
 285 0040 1846     		mov	r0, r3
 286 0042 FFF7FEFF 		bl	HAL_RCCEx_PeriphCLKConfig
ARM GAS  /tmp/ccMzZN2U.s 			page 7


 287 0046 0346     		mov	r3, r0
 288              		.loc 1 57 8
 289 0048 002B     		cmp	r3, #0
 290 004a 03D0     		beq	.L12
  58:./BSP/Hardware/Src/qspi.c ****     {
  59:./BSP/Hardware/Src/qspi.c ****       Error_Handler(__FILE__, __LINE__);
 291              		.loc 1 59 7
 292 004c 3B21     		movs	r1, #59
 293 004e B148     		ldr	r0, .L16+4
 294 0050 FFF7FEFF 		bl	Error_Handler
 295              	.L12:
 296              	.LBB2:
  60:./BSP/Hardware/Src/qspi.c ****     }
  61:./BSP/Hardware/Src/qspi.c **** 
  62:./BSP/Hardware/Src/qspi.c ****     /* Peripheral clock enable */
  63:./BSP/Hardware/Src/qspi.c ****     __HAL_RCC_QSPI_CLK_ENABLE();
 297              		.loc 1 63 5
 298 0054 B04B     		ldr	r3, .L16+8
 299 0056 D3F8D430 		ldr	r3, [r3, #212]
 300 005a AF4A     		ldr	r2, .L16+8
 301 005c 43F48043 		orr	r3, r3, #16384
 302 0060 C2F8D430 		str	r3, [r2, #212]
 303 0064 AC4B     		ldr	r3, .L16+8
 304 0066 D3F8D430 		ldr	r3, [r3, #212]
 305 006a 03F48043 		and	r3, r3, #16384
 306 006e 3B62     		str	r3, [r7, #32]
 307 0070 3B6A     		ldr	r3, [r7, #32]
 308              	.LBE2:
 309              	.LBB3:
  64:./BSP/Hardware/Src/qspi.c ****     __HAL_RCC_MDMA_CLK_ENABLE();
 310              		.loc 1 64 5
 311 0072 A94B     		ldr	r3, .L16+8
 312 0074 D3F8D430 		ldr	r3, [r3, #212]
 313 0078 A74A     		ldr	r2, .L16+8
 314 007a 43F00103 		orr	r3, r3, #1
 315 007e C2F8D430 		str	r3, [r2, #212]
 316 0082 A54B     		ldr	r3, .L16+8
 317 0084 D3F8D430 		ldr	r3, [r3, #212]
 318 0088 03F00103 		and	r3, r3, #1
 319 008c FB61     		str	r3, [r7, #28]
 320 008e FB69     		ldr	r3, [r7, #28]
 321              	.LBE3:
 322              	.LBB4:
  65:./BSP/Hardware/Src/qspi.c **** 
  66:./BSP/Hardware/Src/qspi.c ****     __HAL_RCC_GPIOG_CLK_ENABLE();
 323              		.loc 1 66 5
 324 0090 A14B     		ldr	r3, .L16+8
 325 0092 D3F8E030 		ldr	r3, [r3, #224]
 326 0096 A04A     		ldr	r2, .L16+8
 327 0098 43F04003 		orr	r3, r3, #64
 328 009c C2F8E030 		str	r3, [r2, #224]
 329 00a0 9D4B     		ldr	r3, .L16+8
 330 00a2 D3F8E030 		ldr	r3, [r3, #224]
 331 00a6 03F04003 		and	r3, r3, #64
 332 00aa BB61     		str	r3, [r7, #24]
 333 00ac BB69     		ldr	r3, [r7, #24]
 334              	.LBE4:
ARM GAS  /tmp/ccMzZN2U.s 			page 8


 335              	.LBB5:
  67:./BSP/Hardware/Src/qspi.c ****     __HAL_RCC_GPIOF_CLK_ENABLE();
 336              		.loc 1 67 5
 337 00ae 9A4B     		ldr	r3, .L16+8
 338 00b0 D3F8E030 		ldr	r3, [r3, #224]
 339 00b4 984A     		ldr	r2, .L16+8
 340 00b6 43F02003 		orr	r3, r3, #32
 341 00ba C2F8E030 		str	r3, [r2, #224]
 342 00be 964B     		ldr	r3, .L16+8
 343 00c0 D3F8E030 		ldr	r3, [r3, #224]
 344 00c4 03F02003 		and	r3, r3, #32
 345 00c8 7B61     		str	r3, [r7, #20]
 346 00ca 7B69     		ldr	r3, [r7, #20]
 347              	.LBE5:
 348              	.LBB6:
  68:./BSP/Hardware/Src/qspi.c ****     __HAL_RCC_GPIOH_CLK_ENABLE();
 349              		.loc 1 68 5
 350 00cc 924B     		ldr	r3, .L16+8
 351 00ce D3F8E030 		ldr	r3, [r3, #224]
 352 00d2 914A     		ldr	r2, .L16+8
 353 00d4 43F08003 		orr	r3, r3, #128
 354 00d8 C2F8E030 		str	r3, [r2, #224]
 355 00dc 8E4B     		ldr	r3, .L16+8
 356 00de D3F8E030 		ldr	r3, [r3, #224]
 357 00e2 03F08003 		and	r3, r3, #128
 358 00e6 3B61     		str	r3, [r7, #16]
 359 00e8 3B69     		ldr	r3, [r7, #16]
 360              	.LBE6:
 361              	.LBB7:
  69:./BSP/Hardware/Src/qspi.c ****     __HAL_RCC_GPIOB_CLK_ENABLE();
 362              		.loc 1 69 5
 363 00ea 8B4B     		ldr	r3, .L16+8
 364 00ec D3F8E030 		ldr	r3, [r3, #224]
 365 00f0 894A     		ldr	r2, .L16+8
 366 00f2 43F00203 		orr	r3, r3, #2
 367 00f6 C2F8E030 		str	r3, [r2, #224]
 368 00fa 874B     		ldr	r3, .L16+8
 369 00fc D3F8E030 		ldr	r3, [r3, #224]
 370 0100 03F00203 		and	r3, r3, #2
 371 0104 FB60     		str	r3, [r7, #12]
 372 0106 FB68     		ldr	r3, [r7, #12]
 373              	.LBE7:
 374              	.LBB8:
  70:./BSP/Hardware/Src/qspi.c ****     __HAL_RCC_GPIOD_CLK_ENABLE();
 375              		.loc 1 70 5
 376 0108 834B     		ldr	r3, .L16+8
 377 010a D3F8E030 		ldr	r3, [r3, #224]
 378 010e 824A     		ldr	r2, .L16+8
 379 0110 43F00803 		orr	r3, r3, #8
 380 0114 C2F8E030 		str	r3, [r2, #224]
 381 0118 7F4B     		ldr	r3, .L16+8
 382 011a D3F8E030 		ldr	r3, [r3, #224]
 383 011e 03F00803 		and	r3, r3, #8
 384 0122 BB60     		str	r3, [r7, #8]
 385 0124 BB68     		ldr	r3, [r7, #8]
 386              	.LBE8:
  71:./BSP/Hardware/Src/qspi.c ****     /**QUADSPI GPIO Configuration
ARM GAS  /tmp/ccMzZN2U.s 			page 9


  72:./BSP/Hardware/Src/qspi.c ****     PG9     ------> QUADSPI_BK2_IO2
  73:./BSP/Hardware/Src/qspi.c ****     PG14     ------> QUADSPI_BK2_IO3
  74:./BSP/Hardware/Src/qspi.c ****     PG6     ------> QUADSPI_BK1_NCS
  75:./BSP/Hardware/Src/qspi.c ****     PF6     ------> QUADSPI_BK1_IO3
  76:./BSP/Hardware/Src/qspi.c ****     PF7     ------> QUADSPI_BK1_IO2
  77:./BSP/Hardware/Src/qspi.c ****     PF9     ------> QUADSPI_BK1_IO1
  78:./BSP/Hardware/Src/qspi.c ****     PH2     ------> QUADSPI_BK2_IO0
  79:./BSP/Hardware/Src/qspi.c ****     PH3     ------> QUADSPI_BK2_IO1
  80:./BSP/Hardware/Src/qspi.c ****     PB2     ------> QUADSPI_CLK
  81:./BSP/Hardware/Src/qspi.c ****     PD11     ------> QUADSPI_BK1_IO0
  82:./BSP/Hardware/Src/qspi.c ****     */
  83:./BSP/Hardware/Src/qspi.c ****     GPIO_InitStruct.Pin = GPIO_PIN_9|GPIO_PIN_14;
 387              		.loc 1 83 25
 388 0126 4FF48443 		mov	r3, #16896
 389 012a C7F8E430 		str	r3, [r7, #228]
  84:./BSP/Hardware/Src/qspi.c ****     GPIO_InitStruct.Mode = GPIO_MODE_AF_PP;
 390              		.loc 1 84 26
 391 012e 0223     		movs	r3, #2
 392 0130 C7F8E830 		str	r3, [r7, #232]
  85:./BSP/Hardware/Src/qspi.c ****     GPIO_InitStruct.Pull = GPIO_NOPULL;
 393              		.loc 1 85 26
 394 0134 0023     		movs	r3, #0
 395 0136 C7F8EC30 		str	r3, [r7, #236]
  86:./BSP/Hardware/Src/qspi.c ****     GPIO_InitStruct.Speed = GPIO_SPEED_FREQ_VERY_HIGH;
 396              		.loc 1 86 27
 397 013a 0323     		movs	r3, #3
 398 013c C7F8F030 		str	r3, [r7, #240]
  87:./BSP/Hardware/Src/qspi.c ****     GPIO_InitStruct.Alternate = GPIO_AF9_QUADSPI;
 399              		.loc 1 87 31
 400 0140 0923     		movs	r3, #9
 401 0142 C7F8F430 		str	r3, [r7, #244]
  88:./BSP/Hardware/Src/qspi.c ****     HAL_GPIO_Init(GPIOG, &GPIO_InitStruct);
 402              		.loc 1 88 5
 403 0146 07F1E403 		add	r3, r7, #228
 404 014a 1946     		mov	r1, r3
 405 014c 7348     		ldr	r0, .L16+12
 406 014e FFF7FEFF 		bl	HAL_GPIO_Init
  89:./BSP/Hardware/Src/qspi.c **** 
  90:./BSP/Hardware/Src/qspi.c ****     GPIO_InitStruct.Pin = GPIO_PIN_6;
 407              		.loc 1 90 25
 408 0152 4023     		movs	r3, #64
 409 0154 C7F8E430 		str	r3, [r7, #228]
  91:./BSP/Hardware/Src/qspi.c ****     GPIO_InitStruct.Mode = GPIO_MODE_AF_PP;
 410              		.loc 1 91 26
 411 0158 0223     		movs	r3, #2
 412 015a C7F8E830 		str	r3, [r7, #232]
  92:./BSP/Hardware/Src/qspi.c ****     GPIO_InitStruct.Pull = GPIO_NOPULL;
 413              		.loc 1 92 26
 414 015e 0023     		movs	r3, #0
 415 0160 C7F8EC30 		str	r3, [r7, #236]
  93:./BSP/Hardware/Src/qspi.c ****     GPIO_InitStruct.Speed = GPIO_SPEED_FREQ_VERY_HIGH;
 416              		.loc 1 93 27
 417 0164 0323     		movs	r3, #3
 418 0166 C7F8F030 		str	r3, [r7, #240]
  94:./BSP/Hardware/Src/qspi.c ****     GPIO_InitStruct.Alternate = GPIO_AF10_QUADSPI;
 419              		.loc 1 94 31
 420 016a 0A23     		movs	r3, #10
ARM GAS  /tmp/ccMzZN2U.s 			page 10


 421 016c C7F8F430 		str	r3, [r7, #244]
  95:./BSP/Hardware/Src/qspi.c ****     HAL_GPIO_Init(GPIOG, &GPIO_InitStruct);
 422              		.loc 1 95 5
 423 0170 07F1E403 		add	r3, r7, #228
 424 0174 1946     		mov	r1, r3
 425 0176 6948     		ldr	r0, .L16+12
 426 0178 FFF7FEFF 		bl	HAL_GPIO_Init
  96:./BSP/Hardware/Src/qspi.c **** 
  97:./BSP/Hardware/Src/qspi.c ****     GPIO_InitStruct.Pin = GPIO_PIN_6|GPIO_PIN_7;
 427              		.loc 1 97 25
 428 017c C023     		movs	r3, #192
 429 017e C7F8E430 		str	r3, [r7, #228]
  98:./BSP/Hardware/Src/qspi.c ****     GPIO_InitStruct.Mode = GPIO_MODE_AF_PP;
 430              		.loc 1 98 26
 431 0182 0223     		movs	r3, #2
 432 0184 C7F8E830 		str	r3, [r7, #232]
  99:./BSP/Hardware/Src/qspi.c ****     GPIO_InitStruct.Pull = GPIO_NOPULL;
 433              		.loc 1 99 26
 434 0188 0023     		movs	r3, #0
 435 018a C7F8EC30 		str	r3, [r7, #236]
 100:./BSP/Hardware/Src/qspi.c ****     GPIO_InitStruct.Speed = GPIO_SPEED_FREQ_VERY_HIGH;
 436              		.loc 1 100 27
 437 018e 0323     		movs	r3, #3
 438 0190 C7F8F030 		str	r3, [r7, #240]
 101:./BSP/Hardware/Src/qspi.c ****     GPIO_InitStruct.Alternate = GPIO_AF9_QUADSPI;
 439              		.loc 1 101 31
 440 0194 0923     		movs	r3, #9
 441 0196 C7F8F430 		str	r3, [r7, #244]
 102:./BSP/Hardware/Src/qspi.c ****     HAL_GPIO_Init(GPIOF, &GPIO_InitStruct);
 442              		.loc 1 102 5
 443 019a 07F1E403 		add	r3, r7, #228
 444 019e 1946     		mov	r1, r3
 445 01a0 5F48     		ldr	r0, .L16+16
 446 01a2 FFF7FEFF 		bl	HAL_GPIO_Init
 103:./BSP/Hardware/Src/qspi.c **** 
 104:./BSP/Hardware/Src/qspi.c ****     GPIO_InitStruct.Pin = GPIO_PIN_9;
 447              		.loc 1 104 25
 448 01a6 4FF40073 		mov	r3, #512
 449 01aa C7F8E430 		str	r3, [r7, #228]
 105:./BSP/Hardware/Src/qspi.c ****     GPIO_InitStruct.Mode = GPIO_MODE_AF_PP;
 450              		.loc 1 105 26
 451 01ae 0223     		movs	r3, #2
 452 01b0 C7F8E830 		str	r3, [r7, #232]
 106:./BSP/Hardware/Src/qspi.c ****     GPIO_InitStruct.Pull = GPIO_NOPULL;
 453              		.loc 1 106 26
 454 01b4 0023     		movs	r3, #0
 455 01b6 C7F8EC30 		str	r3, [r7, #236]
 107:./BSP/Hardware/Src/qspi.c ****     GPIO_InitStruct.Speed = GPIO_SPEED_FREQ_VERY_HIGH;
 456              		.loc 1 107 27
 457 01ba 0323     		movs	r3, #3
 458 01bc C7F8F030 		str	r3, [r7, #240]
 108:./BSP/Hardware/Src/qspi.c ****     GPIO_InitStruct.Alternate = GPIO_AF10_QUADSPI;
 459              		.loc 1 108 31
 460 01c0 0A23     		movs	r3, #10
 461 01c2 C7F8F430 		str	r3, [r7, #244]
 109:./BSP/Hardware/Src/qspi.c ****     HAL_GPIO_Init(GPIOF, &GPIO_InitStruct);
 462              		.loc 1 109 5
ARM GAS  /tmp/ccMzZN2U.s 			page 11


 463 01c6 07F1E403 		add	r3, r7, #228
 464 01ca 1946     		mov	r1, r3
 465 01cc 5448     		ldr	r0, .L16+16
 466 01ce FFF7FEFF 		bl	HAL_GPIO_Init
 110:./BSP/Hardware/Src/qspi.c **** 
 111:./BSP/Hardware/Src/qspi.c ****     GPIO_InitStruct.Pin = GPIO_PIN_2|GPIO_PIN_3;
 467              		.loc 1 111 25
 468 01d2 0C23     		movs	r3, #12
 469 01d4 C7F8E430 		str	r3, [r7, #228]
 112:./BSP/Hardware/Src/qspi.c ****     GPIO_InitStruct.Mode = GPIO_MODE_AF_PP;
 470              		.loc 1 112 26
 471 01d8 0223     		movs	r3, #2
 472 01da C7F8E830 		str	r3, [r7, #232]
 113:./BSP/Hardware/Src/qspi.c ****     GPIO_InitStruct.Pull = GPIO_NOPULL;
 473              		.loc 1 113 26
 474 01de 0023     		movs	r3, #0
 475 01e0 C7F8EC30 		str	r3, [r7, #236]
 114:./BSP/Hardware/Src/qspi.c ****     GPIO_InitStruct.Speed = GPIO_SPEED_FREQ_VERY_HIGH;
 476              		.loc 1 114 27
 477 01e4 0323     		movs	r3, #3
 478 01e6 C7F8F030 		str	r3, [r7, #240]
 115:./BSP/Hardware/Src/qspi.c ****     GPIO_InitStruct.Alternate = GPIO_AF9_QUADSPI;
 479              		.loc 1 115 31
 480 01ea 0923     		movs	r3, #9
 481 01ec C7F8F430 		str	r3, [r7, #244]
 116:./BSP/Hardware/Src/qspi.c ****     HAL_GPIO_Init(GPIOH, &GPIO_InitStruct);
 482              		.loc 1 116 5
 483 01f0 07F1E403 		add	r3, r7, #228
 484 01f4 1946     		mov	r1, r3
 485 01f6 4B48     		ldr	r0, .L16+20
 486 01f8 FFF7FEFF 		bl	HAL_GPIO_Init
 117:./BSP/Hardware/Src/qspi.c **** 
 118:./BSP/Hardware/Src/qspi.c ****     GPIO_InitStruct.Pin = GPIO_PIN_2;
 487              		.loc 1 118 25
 488 01fc 0423     		movs	r3, #4
 489 01fe C7F8E430 		str	r3, [r7, #228]
 119:./BSP/Hardware/Src/qspi.c ****     GPIO_InitStruct.Mode = GPIO_MODE_AF_PP;
 490              		.loc 1 119 26
 491 0202 0223     		movs	r3, #2
 492 0204 C7F8E830 		str	r3, [r7, #232]
 120:./BSP/Hardware/Src/qspi.c ****     GPIO_InitStruct.Pull = GPIO_NOPULL;
 493              		.loc 1 120 26
 494 0208 0023     		movs	r3, #0
 495 020a C7F8EC30 		str	r3, [r7, #236]
 121:./BSP/Hardware/Src/qspi.c ****     GPIO_InitStruct.Speed = GPIO_SPEED_FREQ_VERY_HIGH;
 496              		.loc 1 121 27
 497 020e 0323     		movs	r3, #3
 498 0210 C7F8F030 		str	r3, [r7, #240]
 122:./BSP/Hardware/Src/qspi.c ****     GPIO_InitStruct.Alternate = GPIO_AF9_QUADSPI;
 499              		.loc 1 122 31
 500 0214 0923     		movs	r3, #9
 501 0216 C7F8F430 		str	r3, [r7, #244]
 123:./BSP/Hardware/Src/qspi.c ****     HAL_GPIO_Init(GPIOB, &GPIO_InitStruct);
 502              		.loc 1 123 5
 503 021a 07F1E403 		add	r3, r7, #228
 504 021e 1946     		mov	r1, r3
 505 0220 4148     		ldr	r0, .L16+24
ARM GAS  /tmp/ccMzZN2U.s 			page 12


 506 0222 FFF7FEFF 		bl	HAL_GPIO_Init
 124:./BSP/Hardware/Src/qspi.c **** 
 125:./BSP/Hardware/Src/qspi.c ****     GPIO_InitStruct.Pin = GPIO_PIN_11;
 507              		.loc 1 125 25
 508 0226 4FF40063 		mov	r3, #2048
 509 022a C7F8E430 		str	r3, [r7, #228]
 126:./BSP/Hardware/Src/qspi.c ****     GPIO_InitStruct.Mode = GPIO_MODE_AF_PP;
 510              		.loc 1 126 26
 511 022e 0223     		movs	r3, #2
 512 0230 C7F8E830 		str	r3, [r7, #232]
 127:./BSP/Hardware/Src/qspi.c ****     GPIO_InitStruct.Pull = GPIO_NOPULL;
 513              		.loc 1 127 26
 514 0234 0023     		movs	r3, #0
 515 0236 C7F8EC30 		str	r3, [r7, #236]
 128:./BSP/Hardware/Src/qspi.c ****     GPIO_InitStruct.Speed = GPIO_SPEED_FREQ_VERY_HIGH;
 516              		.loc 1 128 27
 517 023a 0323     		movs	r3, #3
 518 023c C7F8F030 		str	r3, [r7, #240]
 129:./BSP/Hardware/Src/qspi.c ****     GPIO_InitStruct.Alternate = GPIO_AF9_QUADSPI;
 519              		.loc 1 129 31
 520 0240 0923     		movs	r3, #9
 521 0242 C7F8F430 		str	r3, [r7, #244]
 130:./BSP/Hardware/Src/qspi.c ****     HAL_GPIO_Init(GPIOD, &GPIO_InitStruct);
 522              		.loc 1 130 5
 523 0246 07F1E403 		add	r3, r7, #228
 524 024a 1946     		mov	r1, r3
 525 024c 3748     		ldr	r0, .L16+28
 526 024e FFF7FEFF 		bl	HAL_GPIO_Init
 131:./BSP/Hardware/Src/qspi.c **** 
 132:./BSP/Hardware/Src/qspi.c ****     HAL_NVIC_SetPriority(QUADSPI_IRQn, 0x0F, 0);
 527              		.loc 1 132 5
 528 0252 0022     		movs	r2, #0
 529 0254 0F21     		movs	r1, #15
 530 0256 5C20     		movs	r0, #92
 531 0258 FFF7FEFF 		bl	HAL_NVIC_SetPriority
 133:./BSP/Hardware/Src/qspi.c ****     HAL_NVIC_EnableIRQ(QUADSPI_IRQn);
 532              		.loc 1 133 5
 533 025c 5C20     		movs	r0, #92
 534 025e FFF7FEFF 		bl	HAL_NVIC_EnableIRQ
 134:./BSP/Hardware/Src/qspi.c **** 
 135:./BSP/Hardware/Src/qspi.c ****     /* QUADSPI MDMA Init */
 136:./BSP/Hardware/Src/qspi.c ****     /* QUADSPI_FIFO_TH Init */
 137:./BSP/Hardware/Src/qspi.c ****     hmdma_quadspi_fifo_th.Instance = MDMA_Channel0;
 535              		.loc 1 137 36
 536 0262 334B     		ldr	r3, .L16+32
 537 0264 334A     		ldr	r2, .L16+36
 538 0266 1A60     		str	r2, [r3]
 138:./BSP/Hardware/Src/qspi.c ****     hmdma_quadspi_fifo_th.Init.Request = MDMA_REQUEST_QUADSPI_FIFO_TH;
 539              		.loc 1 138 40
 540 0268 314B     		ldr	r3, .L16+32
 541 026a 1622     		movs	r2, #22
 542 026c 5A60     		str	r2, [r3, #4]
 139:./BSP/Hardware/Src/qspi.c ****     hmdma_quadspi_fifo_th.Init.TransferTriggerMode = MDMA_BUFFER_TRANSFER;
 543              		.loc 1 139 52
 544 026e 304B     		ldr	r3, .L16+32
 545 0270 0022     		movs	r2, #0
 546 0272 9A60     		str	r2, [r3, #8]
ARM GAS  /tmp/ccMzZN2U.s 			page 13


 140:./BSP/Hardware/Src/qspi.c ****     hmdma_quadspi_fifo_th.Init.Priority = MDMA_PRIORITY_HIGH;
 547              		.loc 1 140 41
 548 0274 2E4B     		ldr	r3, .L16+32
 549 0276 8022     		movs	r2, #128
 550 0278 DA60     		str	r2, [r3, #12]
 141:./BSP/Hardware/Src/qspi.c ****     hmdma_quadspi_fifo_th.Init.Endianness = MDMA_LITTLE_ENDIANNESS_PRESERVE;
 551              		.loc 1 141 43
 552 027a 2D4B     		ldr	r3, .L16+32
 553 027c 0022     		movs	r2, #0
 554 027e 1A61     		str	r2, [r3, #16]
 142:./BSP/Hardware/Src/qspi.c ****     hmdma_quadspi_fifo_th.Init.SourceInc = MDMA_SRC_INC_BYTE;
 555              		.loc 1 142 42
 556 0280 2B4B     		ldr	r3, .L16+32
 557 0282 0222     		movs	r2, #2
 558 0284 5A61     		str	r2, [r3, #20]
 143:./BSP/Hardware/Src/qspi.c ****     hmdma_quadspi_fifo_th.Init.DestinationInc = MDMA_DEST_INC_DISABLE;
 559              		.loc 1 143 47
 560 0286 2A4B     		ldr	r3, .L16+32
 561 0288 0022     		movs	r2, #0
 562 028a 9A61     		str	r2, [r3, #24]
 144:./BSP/Hardware/Src/qspi.c ****     hmdma_quadspi_fifo_th.Init.SourceDataSize = MDMA_SRC_DATASIZE_BYTE;
 563              		.loc 1 144 47
 564 028c 284B     		ldr	r3, .L16+32
 565 028e 0022     		movs	r2, #0
 566 0290 DA61     		str	r2, [r3, #28]
 145:./BSP/Hardware/Src/qspi.c ****     hmdma_quadspi_fifo_th.Init.DestDataSize = MDMA_DEST_DATASIZE_BYTE;
 567              		.loc 1 145 45
 568 0292 274B     		ldr	r3, .L16+32
 569 0294 0022     		movs	r2, #0
 570 0296 1A62     		str	r2, [r3, #32]
 146:./BSP/Hardware/Src/qspi.c ****     hmdma_quadspi_fifo_th.Init.DataAlignment = MDMA_DATAALIGN_PACKENABLE;
 571              		.loc 1 146 46
 572 0298 254B     		ldr	r3, .L16+32
 573 029a 4FF00072 		mov	r2, #33554432
 574 029e 5A62     		str	r2, [r3, #36]
 147:./BSP/Hardware/Src/qspi.c ****     hmdma_quadspi_fifo_th.Init.BufferTransferLength = 128;
 575              		.loc 1 147 53
 576 02a0 234B     		ldr	r3, .L16+32
 577 02a2 8022     		movs	r2, #128
 578 02a4 9A62     		str	r2, [r3, #40]
 148:./BSP/Hardware/Src/qspi.c ****     hmdma_quadspi_fifo_th.Init.SourceBurst = MDMA_SOURCE_BURST_SINGLE;
 579              		.loc 1 148 44
 580 02a6 224B     		ldr	r3, .L16+32
 581 02a8 0022     		movs	r2, #0
 582 02aa DA62     		str	r2, [r3, #44]
 149:./BSP/Hardware/Src/qspi.c ****     hmdma_quadspi_fifo_th.Init.DestBurst = MDMA_DEST_BURST_SINGLE;
 583              		.loc 1 149 42
 584 02ac 204B     		ldr	r3, .L16+32
 585 02ae 0022     		movs	r2, #0
 586 02b0 1A63     		str	r2, [r3, #48]
 150:./BSP/Hardware/Src/qspi.c ****     hmdma_quadspi_fifo_th.Init.SourceBlockAddressOffset = 0;
 587              		.loc 1 150 57
 588 02b2 1F4B     		ldr	r3, .L16+32
 589 02b4 0022     		movs	r2, #0
 590 02b6 5A63     		str	r2, [r3, #52]
 151:./BSP/Hardware/Src/qspi.c ****     hmdma_quadspi_fifo_th.Init.DestBlockAddressOffset = 0;
 591              		.loc 1 151 55
ARM GAS  /tmp/ccMzZN2U.s 			page 14


 592 02b8 1D4B     		ldr	r3, .L16+32
 593 02ba 0022     		movs	r2, #0
 594 02bc 9A63     		str	r2, [r3, #56]
 152:./BSP/Hardware/Src/qspi.c ****     if (HAL_MDMA_Init(&hmdma_quadspi_fifo_th) != HAL_OK)
 595              		.loc 1 152 9
 596 02be 1C48     		ldr	r0, .L16+32
 597 02c0 FFF7FEFF 		bl	HAL_MDMA_Init
 598 02c4 0346     		mov	r3, r0
 599              		.loc 1 152 8
 600 02c6 002B     		cmp	r3, #0
 601 02c8 03D0     		beq	.L13
 153:./BSP/Hardware/Src/qspi.c ****     {
 154:./BSP/Hardware/Src/qspi.c ****       Error_Handler(__FILE__, __LINE__);
 602              		.loc 1 154 7
 603 02ca 9A21     		movs	r1, #154
 604 02cc 1148     		ldr	r0, .L16+4
 605 02ce FFF7FEFF 		bl	Error_Handler
 606              	.L13:
 155:./BSP/Hardware/Src/qspi.c ****     }
 156:./BSP/Hardware/Src/qspi.c **** 
 157:./BSP/Hardware/Src/qspi.c ****     if (HAL_MDMA_ConfigPostRequestMask(&hmdma_quadspi_fifo_th, 0, 0) != HAL_OK)
 607              		.loc 1 157 9
 608 02d2 0022     		movs	r2, #0
 609 02d4 0021     		movs	r1, #0
 610 02d6 1648     		ldr	r0, .L16+32
 611 02d8 FFF7FEFF 		bl	HAL_MDMA_ConfigPostRequestMask
 612 02dc 0346     		mov	r3, r0
 613              		.loc 1 157 8
 614 02de 002B     		cmp	r3, #0
 615 02e0 03D0     		beq	.L14
 158:./BSP/Hardware/Src/qspi.c ****     {
 159:./BSP/Hardware/Src/qspi.c ****       Error_Handler(__FILE__, __LINE__);
 616              		.loc 1 159 7
 617 02e2 9F21     		movs	r1, #159
 618 02e4 0B48     		ldr	r0, .L16+4
 619 02e6 FFF7FEFF 		bl	Error_Handler
 620              	.L14:
 160:./BSP/Hardware/Src/qspi.c ****     }
 161:./BSP/Hardware/Src/qspi.c **** 
 162:./BSP/Hardware/Src/qspi.c ****     __HAL_LINKDMA(hqspi,hmdma,hmdma_quadspi_fifo_th);
 621              		.loc 1 162 5
 622 02ea 7B68     		ldr	r3, [r7, #4]
 623 02ec 104A     		ldr	r2, .L16+32
 624 02ee DA63     		str	r2, [r3, #60]
 625 02f0 0F4A     		ldr	r2, .L16+32
 626 02f2 7B68     		ldr	r3, [r7, #4]
 627 02f4 1364     		str	r3, [r2, #64]
 163:./BSP/Hardware/Src/qspi.c **** 
 164:./BSP/Hardware/Src/qspi.c ****     HAL_NVIC_SetPriority(MDMA_IRQn, 3, 0);
 628              		.loc 1 164 5
 629 02f6 0022     		movs	r2, #0
 630 02f8 0321     		movs	r1, #3
 631 02fa 7A20     		movs	r0, #122
 632 02fc FFF7FEFF 		bl	HAL_NVIC_SetPriority
 165:./BSP/Hardware/Src/qspi.c ****     HAL_NVIC_EnableIRQ(MDMA_IRQn);
 633              		.loc 1 165 5
 634 0300 7A20     		movs	r0, #122
ARM GAS  /tmp/ccMzZN2U.s 			page 15


 635 0302 FFF7FEFF 		bl	HAL_NVIC_EnableIRQ
 636              	.L15:
 166:./BSP/Hardware/Src/qspi.c ****   }
 167:./BSP/Hardware/Src/qspi.c **** }
 637              		.loc 1 167 1
 638 0306 00BF     		nop
 639 0308 F837     		adds	r7, r7, #248
 640              	.LCFI14:
 641              		.cfi_def_cfa_offset 8
 642 030a BD46     		mov	sp, r7
 643              	.LCFI15:
 644              		.cfi_def_cfa_register 13
 645              		@ sp needed
 646 030c 80BD     		pop	{r7, pc}
 647              	.L17:
 648 030e 00BF     		.align	2
 649              	.L16:
 650 0310 00500052 		.word	1375752192
 651 0314 00000000 		.word	.LC0
 652 0318 00440258 		.word	1476543488
 653 031c 00180258 		.word	1476532224
 654 0320 00140258 		.word	1476531200
 655 0324 001C0258 		.word	1476533248
 656 0328 00040258 		.word	1476527104
 657 032c 000C0258 		.word	1476529152
 658 0330 00000000 		.word	hmdma_quadspi_fifo_th
 659 0334 40000052 		.word	1375731776
 660              		.cfi_endproc
 661              	.LFE340:
 663              		.section	.text.MDMA_IRQHandler,"ax",%progbits
 664              		.align	1
 665              		.global	MDMA_IRQHandler
 666              		.syntax unified
 667              		.thumb
 668              		.thumb_func
 669              		.fpu fpv5-d16
 671              	MDMA_IRQHandler:
 672              	.LFB341:
 168:./BSP/Hardware/Src/qspi.c **** 
 169:./BSP/Hardware/Src/qspi.c **** void MDMA_IRQHandler(void)
 170:./BSP/Hardware/Src/qspi.c **** {
 673              		.loc 1 170 1
 674              		.cfi_startproc
 675              		@ args = 0, pretend = 0, frame = 0
 676              		@ frame_needed = 1, uses_anonymous_args = 0
 677 0000 80B5     		push	{r7, lr}
 678              	.LCFI16:
 679              		.cfi_def_cfa_offset 8
 680              		.cfi_offset 7, -8
 681              		.cfi_offset 14, -4
 682 0002 00AF     		add	r7, sp, #0
 683              	.LCFI17:
 684              		.cfi_def_cfa_register 7
 171:./BSP/Hardware/Src/qspi.c **** 	HAL_MDMA_IRQHandler(&hmdma_quadspi_fifo_th);
 685              		.loc 1 171 2
 686 0004 0248     		ldr	r0, .L19
 687 0006 FFF7FEFF 		bl	HAL_MDMA_IRQHandler
ARM GAS  /tmp/ccMzZN2U.s 			page 16


 172:./BSP/Hardware/Src/qspi.c **** }
 688              		.loc 1 172 1
 689 000a 00BF     		nop
 690 000c 80BD     		pop	{r7, pc}
 691              	.L20:
 692 000e 00BF     		.align	2
 693              	.L19:
 694 0010 00000000 		.word	hmdma_quadspi_fifo_th
 695              		.cfi_endproc
 696              	.LFE341:
 698              		.section	.text.QUADSPI_IRQHandler,"ax",%progbits
 699              		.align	1
 700              		.global	QUADSPI_IRQHandler
 701              		.syntax unified
 702              		.thumb
 703              		.thumb_func
 704              		.fpu fpv5-d16
 706              	QUADSPI_IRQHandler:
 707              	.LFB342:
 173:./BSP/Hardware/Src/qspi.c **** 
 174:./BSP/Hardware/Src/qspi.c **** void QUADSPI_IRQHandler(void)
 175:./BSP/Hardware/Src/qspi.c **** {
 708              		.loc 1 175 1
 709              		.cfi_startproc
 710              		@ args = 0, pretend = 0, frame = 0
 711              		@ frame_needed = 1, uses_anonymous_args = 0
 712 0000 80B5     		push	{r7, lr}
 713              	.LCFI18:
 714              		.cfi_def_cfa_offset 8
 715              		.cfi_offset 7, -8
 716              		.cfi_offset 14, -4
 717 0002 00AF     		add	r7, sp, #0
 718              	.LCFI19:
 719              		.cfi_def_cfa_register 7
 176:./BSP/Hardware/Src/qspi.c **** 	HAL_QSPI_IRQHandler(&qspi_object_temp.hqspi);
 720              		.loc 1 176 2
 721 0004 0248     		ldr	r0, .L22
 722 0006 FFF7FEFF 		bl	HAL_QSPI_IRQHandler
 177:./BSP/Hardware/Src/qspi.c **** }
 723              		.loc 1 177 1
 724 000a 00BF     		nop
 725 000c 80BD     		pop	{r7, pc}
 726              	.L23:
 727 000e 00BF     		.align	2
 728              	.L22:
 729 0010 00000000 		.word	qspi_object_temp
 730              		.cfi_endproc
 731              	.LFE342:
 733              		.section	.text.HAL_QSPI_CmdCpltCallback,"ax",%progbits
 734              		.align	1
 735              		.global	HAL_QSPI_CmdCpltCallback
 736              		.syntax unified
 737              		.thumb
 738              		.thumb_func
 739              		.fpu fpv5-d16
 741              	HAL_QSPI_CmdCpltCallback:
 742              	.LFB343:
ARM GAS  /tmp/ccMzZN2U.s 			page 17


 178:./BSP/Hardware/Src/qspi.c **** 
 179:./BSP/Hardware/Src/qspi.c **** void HAL_QSPI_CmdCpltCallback(QSPI_HandleTypeDef *hqspi)
 180:./BSP/Hardware/Src/qspi.c **** {
 743              		.loc 1 180 1
 744              		.cfi_startproc
 745              		@ args = 0, pretend = 0, frame = 8
 746              		@ frame_needed = 1, uses_anonymous_args = 0
 747              		@ link register save eliminated.
 748 0000 80B4     		push	{r7}
 749              	.LCFI20:
 750              		.cfi_def_cfa_offset 4
 751              		.cfi_offset 7, -4
 752 0002 83B0     		sub	sp, sp, #12
 753              	.LCFI21:
 754              		.cfi_def_cfa_offset 16
 755 0004 00AF     		add	r7, sp, #0
 756              	.LCFI22:
 757              		.cfi_def_cfa_register 7
 758 0006 7860     		str	r0, [r7, #4]
 181:./BSP/Hardware/Src/qspi.c **** 	qspi_object_temp.cmdCplt++;
 759              		.loc 1 181 18
 760 0008 074B     		ldr	r3, .L25
 761 000a 93F87230 		ldrb	r3, [r3, #114]
 762 000e DBB2     		uxtb	r3, r3
 763              		.loc 1 181 26
 764 0010 0133     		adds	r3, r3, #1
 765 0012 DAB2     		uxtb	r2, r3
 766 0014 044B     		ldr	r3, .L25
 767 0016 83F87220 		strb	r2, [r3, #114]
 182:./BSP/Hardware/Src/qspi.c **** }
 768              		.loc 1 182 1
 769 001a 00BF     		nop
 770 001c 0C37     		adds	r7, r7, #12
 771              	.LCFI23:
 772              		.cfi_def_cfa_offset 4
 773 001e BD46     		mov	sp, r7
 774              	.LCFI24:
 775              		.cfi_def_cfa_register 13
 776              		@ sp needed
 777 0020 5DF8047B 		ldr	r7, [sp], #4
 778              	.LCFI25:
 779              		.cfi_restore 7
 780              		.cfi_def_cfa_offset 0
 781 0024 7047     		bx	lr
 782              	.L26:
 783 0026 00BF     		.align	2
 784              	.L25:
 785 0028 00000000 		.word	qspi_object_temp
 786              		.cfi_endproc
 787              	.LFE343:
 789              		.section	.text.HAL_QSPI_RxCpltCallback,"ax",%progbits
 790              		.align	1
 791              		.global	HAL_QSPI_RxCpltCallback
 792              		.syntax unified
 793              		.thumb
 794              		.thumb_func
 795              		.fpu fpv5-d16
ARM GAS  /tmp/ccMzZN2U.s 			page 18


 797              	HAL_QSPI_RxCpltCallback:
 798              	.LFB344:
 183:./BSP/Hardware/Src/qspi.c **** 
 184:./BSP/Hardware/Src/qspi.c **** void HAL_QSPI_RxCpltCallback(QSPI_HandleTypeDef *hqspi)
 185:./BSP/Hardware/Src/qspi.c **** {
 799              		.loc 1 185 1
 800              		.cfi_startproc
 801              		@ args = 0, pretend = 0, frame = 8
 802              		@ frame_needed = 1, uses_anonymous_args = 0
 803              		@ link register save eliminated.
 804 0000 80B4     		push	{r7}
 805              	.LCFI26:
 806              		.cfi_def_cfa_offset 4
 807              		.cfi_offset 7, -4
 808 0002 83B0     		sub	sp, sp, #12
 809              	.LCFI27:
 810              		.cfi_def_cfa_offset 16
 811 0004 00AF     		add	r7, sp, #0
 812              	.LCFI28:
 813              		.cfi_def_cfa_register 7
 814 0006 7860     		str	r0, [r7, #4]
 186:./BSP/Hardware/Src/qspi.c **** 	qspi_object_temp.rxCplt++;
 815              		.loc 1 186 18
 816 0008 074B     		ldr	r3, .L28
 817 000a 93F87130 		ldrb	r3, [r3, #113]
 818 000e DBB2     		uxtb	r3, r3
 819              		.loc 1 186 25
 820 0010 0133     		adds	r3, r3, #1
 821 0012 DAB2     		uxtb	r2, r3
 822 0014 044B     		ldr	r3, .L28
 823 0016 83F87120 		strb	r2, [r3, #113]
 187:./BSP/Hardware/Src/qspi.c **** }
 824              		.loc 1 187 1
 825 001a 00BF     		nop
 826 001c 0C37     		adds	r7, r7, #12
 827              	.LCFI29:
 828              		.cfi_def_cfa_offset 4
 829 001e BD46     		mov	sp, r7
 830              	.LCFI30:
 831              		.cfi_def_cfa_register 13
 832              		@ sp needed
 833 0020 5DF8047B 		ldr	r7, [sp], #4
 834              	.LCFI31:
 835              		.cfi_restore 7
 836              		.cfi_def_cfa_offset 0
 837 0024 7047     		bx	lr
 838              	.L29:
 839 0026 00BF     		.align	2
 840              	.L28:
 841 0028 00000000 		.word	qspi_object_temp
 842              		.cfi_endproc
 843              	.LFE344:
 845              		.section	.text.HAL_QSPI_TxCpltCallback,"ax",%progbits
 846              		.align	1
 847              		.global	HAL_QSPI_TxCpltCallback
 848              		.syntax unified
 849              		.thumb
ARM GAS  /tmp/ccMzZN2U.s 			page 19


 850              		.thumb_func
 851              		.fpu fpv5-d16
 853              	HAL_QSPI_TxCpltCallback:
 854              	.LFB345:
 188:./BSP/Hardware/Src/qspi.c **** 
 189:./BSP/Hardware/Src/qspi.c **** void HAL_QSPI_TxCpltCallback(QSPI_HandleTypeDef *hqspi)
 190:./BSP/Hardware/Src/qspi.c **** {
 855              		.loc 1 190 1
 856              		.cfi_startproc
 857              		@ args = 0, pretend = 0, frame = 8
 858              		@ frame_needed = 1, uses_anonymous_args = 0
 859              		@ link register save eliminated.
 860 0000 80B4     		push	{r7}
 861              	.LCFI32:
 862              		.cfi_def_cfa_offset 4
 863              		.cfi_offset 7, -4
 864 0002 83B0     		sub	sp, sp, #12
 865              	.LCFI33:
 866              		.cfi_def_cfa_offset 16
 867 0004 00AF     		add	r7, sp, #0
 868              	.LCFI34:
 869              		.cfi_def_cfa_register 7
 870 0006 7860     		str	r0, [r7, #4]
 191:./BSP/Hardware/Src/qspi.c **** 	qspi_object_temp.txCplt++; 
 871              		.loc 1 191 18
 872 0008 074B     		ldr	r3, .L31
 873 000a 93F87030 		ldrb	r3, [r3, #112]
 874 000e DBB2     		uxtb	r3, r3
 875              		.loc 1 191 25
 876 0010 0133     		adds	r3, r3, #1
 877 0012 DAB2     		uxtb	r2, r3
 878 0014 044B     		ldr	r3, .L31
 879 0016 83F87020 		strb	r2, [r3, #112]
 192:./BSP/Hardware/Src/qspi.c **** }
 880              		.loc 1 192 1
 881 001a 00BF     		nop
 882 001c 0C37     		adds	r7, r7, #12
 883              	.LCFI35:
 884              		.cfi_def_cfa_offset 4
 885 001e BD46     		mov	sp, r7
 886              	.LCFI36:
 887              		.cfi_def_cfa_register 13
 888              		@ sp needed
 889 0020 5DF8047B 		ldr	r7, [sp], #4
 890              	.LCFI37:
 891              		.cfi_restore 7
 892              		.cfi_def_cfa_offset 0
 893 0024 7047     		bx	lr
 894              	.L32:
 895 0026 00BF     		.align	2
 896              	.L31:
 897 0028 00000000 		.word	qspi_object_temp
 898              		.cfi_endproc
 899              	.LFE345:
 901              		.section	.text.HAL_QSPI_StatusMatchCallback,"ax",%progbits
 902              		.align	1
 903              		.global	HAL_QSPI_StatusMatchCallback
ARM GAS  /tmp/ccMzZN2U.s 			page 20


 904              		.syntax unified
 905              		.thumb
 906              		.thumb_func
 907              		.fpu fpv5-d16
 909              	HAL_QSPI_StatusMatchCallback:
 910              	.LFB346:
 193:./BSP/Hardware/Src/qspi.c **** 
 194:./BSP/Hardware/Src/qspi.c **** 
 195:./BSP/Hardware/Src/qspi.c **** void HAL_QSPI_StatusMatchCallback(QSPI_HandleTypeDef *hqspi)
 196:./BSP/Hardware/Src/qspi.c **** {
 911              		.loc 1 196 1
 912              		.cfi_startproc
 913              		@ args = 0, pretend = 0, frame = 8
 914              		@ frame_needed = 1, uses_anonymous_args = 0
 915              		@ link register save eliminated.
 916 0000 80B4     		push	{r7}
 917              	.LCFI38:
 918              		.cfi_def_cfa_offset 4
 919              		.cfi_offset 7, -4
 920 0002 83B0     		sub	sp, sp, #12
 921              	.LCFI39:
 922              		.cfi_def_cfa_offset 16
 923 0004 00AF     		add	r7, sp, #0
 924              	.LCFI40:
 925              		.cfi_def_cfa_register 7
 926 0006 7860     		str	r0, [r7, #4]
 197:./BSP/Hardware/Src/qspi.c **** 	qspi_object_temp.statusMatch++;
 927              		.loc 1 197 18
 928 0008 074B     		ldr	r3, .L34
 929 000a 93F87330 		ldrb	r3, [r3, #115]
 930 000e DBB2     		uxtb	r3, r3
 931              		.loc 1 197 30
 932 0010 0133     		adds	r3, r3, #1
 933 0012 DAB2     		uxtb	r2, r3
 934 0014 044B     		ldr	r3, .L34
 935 0016 83F87320 		strb	r2, [r3, #115]
 198:./BSP/Hardware/Src/qspi.c **** }
 936              		.loc 1 198 1
 937 001a 00BF     		nop
 938 001c 0C37     		adds	r7, r7, #12
 939              	.LCFI41:
 940              		.cfi_def_cfa_offset 4
 941 001e BD46     		mov	sp, r7
 942              	.LCFI42:
 943              		.cfi_def_cfa_register 13
 944              		@ sp needed
 945 0020 5DF8047B 		ldr	r7, [sp], #4
 946              	.LCFI43:
 947              		.cfi_restore 7
 948              		.cfi_def_cfa_offset 0
 949 0024 7047     		bx	lr
 950              	.L35:
 951 0026 00BF     		.align	2
 952              	.L34:
 953 0028 00000000 		.word	qspi_object_temp
 954              		.cfi_endproc
 955              	.LFE346:
ARM GAS  /tmp/ccMzZN2U.s 			page 21


 957              		.section	.text.QSPI_Write_Command,"ax",%progbits
 958              		.align	1
 959              		.global	QSPI_Write_Command
 960              		.syntax unified
 961              		.thumb
 962              		.thumb_func
 963              		.fpu fpv5-d16
 965              	QSPI_Write_Command:
 966              	.LFB347:
 199:./BSP/Hardware/Src/qspi.c **** 
 200:./BSP/Hardware/Src/qspi.c **** void QSPI_Write_Command(QSPI_objectTypeDef *object,QSPI_CommandTypeDef *cmd)
 201:./BSP/Hardware/Src/qspi.c **** {
 967              		.loc 1 201 1
 968              		.cfi_startproc
 969              		@ args = 0, pretend = 0, frame = 8
 970              		@ frame_needed = 1, uses_anonymous_args = 0
 971 0000 80B5     		push	{r7, lr}
 972              	.LCFI44:
 973              		.cfi_def_cfa_offset 8
 974              		.cfi_offset 7, -8
 975              		.cfi_offset 14, -4
 976 0002 82B0     		sub	sp, sp, #8
 977              	.LCFI45:
 978              		.cfi_def_cfa_offset 16
 979 0004 00AF     		add	r7, sp, #0
 980              	.LCFI46:
 981              		.cfi_def_cfa_register 7
 982 0006 7860     		str	r0, [r7, #4]
 983 0008 3960     		str	r1, [r7]
 202:./BSP/Hardware/Src/qspi.c ****     if(HAL_QSPI_Command(&object->hqspi,cmd,HAL_QSPI_TIMEOUT_DEFAULT_VALUE != HAL_OK))
 984              		.loc 1 202 8
 985 000a 7B68     		ldr	r3, [r7, #4]
 986 000c 0122     		movs	r2, #1
 987 000e 3968     		ldr	r1, [r7]
 988 0010 1846     		mov	r0, r3
 989 0012 FFF7FEFF 		bl	HAL_QSPI_Command
 990 0016 0346     		mov	r3, r0
 991              		.loc 1 202 7
 992 0018 002B     		cmp	r3, #0
 993 001a 03D0     		beq	.L38
 203:./BSP/Hardware/Src/qspi.c ****     {
 204:./BSP/Hardware/Src/qspi.c ****         Error_Handler(__FILE__, __LINE__);
 994              		.loc 1 204 9
 995 001c CC21     		movs	r1, #204
 996 001e 0348     		ldr	r0, .L39
 997 0020 FFF7FEFF 		bl	Error_Handler
 998              	.L38:
 205:./BSP/Hardware/Src/qspi.c ****     }
 206:./BSP/Hardware/Src/qspi.c **** }
 999              		.loc 1 206 1
 1000 0024 00BF     		nop
 1001 0026 0837     		adds	r7, r7, #8
 1002              	.LCFI47:
 1003              		.cfi_def_cfa_offset 8
 1004 0028 BD46     		mov	sp, r7
 1005              	.LCFI48:
 1006              		.cfi_def_cfa_register 13
ARM GAS  /tmp/ccMzZN2U.s 			page 22


 1007              		@ sp needed
 1008 002a 80BD     		pop	{r7, pc}
 1009              	.L40:
 1010              		.align	2
 1011              	.L39:
 1012 002c 00000000 		.word	.LC0
 1013              		.cfi_endproc
 1014              	.LFE347:
 1016              		.section	.text.QSPI_Write_Data,"ax",%progbits
 1017              		.align	1
 1018              		.global	QSPI_Write_Data
 1019              		.syntax unified
 1020              		.thumb
 1021              		.thumb_func
 1022              		.fpu fpv5-d16
 1024              	QSPI_Write_Data:
 1025              	.LFB348:
 207:./BSP/Hardware/Src/qspi.c **** 
 208:./BSP/Hardware/Src/qspi.c **** void QSPI_Write_Data(QSPI_objectTypeDef *object,uint8_t *reg)
 209:./BSP/Hardware/Src/qspi.c **** {
 1026              		.loc 1 209 1
 1027              		.cfi_startproc
 1028              		@ args = 0, pretend = 0, frame = 8
 1029              		@ frame_needed = 1, uses_anonymous_args = 0
 1030 0000 80B5     		push	{r7, lr}
 1031              	.LCFI49:
 1032              		.cfi_def_cfa_offset 8
 1033              		.cfi_offset 7, -8
 1034              		.cfi_offset 14, -4
 1035 0002 82B0     		sub	sp, sp, #8
 1036              	.LCFI50:
 1037              		.cfi_def_cfa_offset 16
 1038 0004 00AF     		add	r7, sp, #0
 1039              	.LCFI51:
 1040              		.cfi_def_cfa_register 7
 1041 0006 7860     		str	r0, [r7, #4]
 1042 0008 3960     		str	r1, [r7]
 210:./BSP/Hardware/Src/qspi.c ****     if (HAL_QSPI_Transmit_DMA(&object->hqspi, reg) != HAL_OK)
 1043              		.loc 1 210 9
 1044 000a 7B68     		ldr	r3, [r7, #4]
 1045 000c 3968     		ldr	r1, [r7]
 1046 000e 1846     		mov	r0, r3
 1047 0010 FFF7FEFF 		bl	HAL_QSPI_Transmit_DMA
 1048 0014 0346     		mov	r3, r0
 1049              		.loc 1 210 8
 1050 0016 002B     		cmp	r3, #0
 1051 0018 03D0     		beq	.L43
 211:./BSP/Hardware/Src/qspi.c ****     {
 212:./BSP/Hardware/Src/qspi.c ****         Error_Handler(__FILE__, __LINE__);
 1052              		.loc 1 212 9
 1053 001a D421     		movs	r1, #212
 1054 001c 0348     		ldr	r0, .L44
 1055 001e FFF7FEFF 		bl	Error_Handler
 1056              	.L43:
 213:./BSP/Hardware/Src/qspi.c ****     }
 214:./BSP/Hardware/Src/qspi.c **** }
 1057              		.loc 1 214 1
ARM GAS  /tmp/ccMzZN2U.s 			page 23


 1058 0022 00BF     		nop
 1059 0024 0837     		adds	r7, r7, #8
 1060              	.LCFI52:
 1061              		.cfi_def_cfa_offset 8
 1062 0026 BD46     		mov	sp, r7
 1063              	.LCFI53:
 1064              		.cfi_def_cfa_register 13
 1065              		@ sp needed
 1066 0028 80BD     		pop	{r7, pc}
 1067              	.L45:
 1068 002a 00BF     		.align	2
 1069              	.L44:
 1070 002c 00000000 		.word	.LC0
 1071              		.cfi_endproc
 1072              	.LFE348:
 1074              		.section	.text.QSPI_Read_Data_DMA,"ax",%progbits
 1075              		.align	1
 1076              		.global	QSPI_Read_Data_DMA
 1077              		.syntax unified
 1078              		.thumb
 1079              		.thumb_func
 1080              		.fpu fpv5-d16
 1082              	QSPI_Read_Data_DMA:
 1083              	.LFB349:
 215:./BSP/Hardware/Src/qspi.c **** 
 216:./BSP/Hardware/Src/qspi.c **** void QSPI_Read_Data_DMA(QSPI_objectTypeDef *object,uint8_t *reg)
 217:./BSP/Hardware/Src/qspi.c **** {
 1084              		.loc 1 217 1
 1085              		.cfi_startproc
 1086              		@ args = 0, pretend = 0, frame = 8
 1087              		@ frame_needed = 1, uses_anonymous_args = 0
 1088 0000 80B5     		push	{r7, lr}
 1089              	.LCFI54:
 1090              		.cfi_def_cfa_offset 8
 1091              		.cfi_offset 7, -8
 1092              		.cfi_offset 14, -4
 1093 0002 82B0     		sub	sp, sp, #8
 1094              	.LCFI55:
 1095              		.cfi_def_cfa_offset 16
 1096 0004 00AF     		add	r7, sp, #0
 1097              	.LCFI56:
 1098              		.cfi_def_cfa_register 7
 1099 0006 7860     		str	r0, [r7, #4]
 1100 0008 3960     		str	r1, [r7]
 218:./BSP/Hardware/Src/qspi.c ****     if (HAL_QSPI_Receive_DMA(&object->hqspi, reg) != HAL_OK)
 1101              		.loc 1 218 9
 1102 000a 7B68     		ldr	r3, [r7, #4]
 1103 000c 3968     		ldr	r1, [r7]
 1104 000e 1846     		mov	r0, r3
 1105 0010 FFF7FEFF 		bl	HAL_QSPI_Receive_DMA
 1106 0014 0346     		mov	r3, r0
 1107              		.loc 1 218 8
 1108 0016 002B     		cmp	r3, #0
 1109 0018 03D0     		beq	.L48
 219:./BSP/Hardware/Src/qspi.c ****     {
 220:./BSP/Hardware/Src/qspi.c ****         Error_Handler(__FILE__, __LINE__);
 1110              		.loc 1 220 9
ARM GAS  /tmp/ccMzZN2U.s 			page 24


 1111 001a DC21     		movs	r1, #220
 1112 001c 0348     		ldr	r0, .L49
 1113 001e FFF7FEFF 		bl	Error_Handler
 1114              	.L48:
 221:./BSP/Hardware/Src/qspi.c ****     }
 222:./BSP/Hardware/Src/qspi.c **** }
 1115              		.loc 1 222 1
 1116 0022 00BF     		nop
 1117 0024 0837     		adds	r7, r7, #8
 1118              	.LCFI57:
 1119              		.cfi_def_cfa_offset 8
 1120 0026 BD46     		mov	sp, r7
 1121              	.LCFI58:
 1122              		.cfi_def_cfa_register 13
 1123              		@ sp needed
 1124 0028 80BD     		pop	{r7, pc}
 1125              	.L50:
 1126 002a 00BF     		.align	2
 1127              	.L49:
 1128 002c 00000000 		.word	.LC0
 1129              		.cfi_endproc
 1130              	.LFE349:
 1132              		.section	.text.QSPI_Auto_Polling,"ax",%progbits
 1133              		.align	1
 1134              		.global	QSPI_Auto_Polling
 1135              		.syntax unified
 1136              		.thumb
 1137              		.thumb_func
 1138              		.fpu fpv5-d16
 1140              	QSPI_Auto_Polling:
 1141              	.LFB350:
 223:./BSP/Hardware/Src/qspi.c **** 
 224:./BSP/Hardware/Src/qspi.c **** void QSPI_Auto_Polling(QSPI_objectTypeDef *object,QSPI_CommandTypeDef *cmd,QSPI_AutoPollingTypeDef 
 225:./BSP/Hardware/Src/qspi.c **** {
 1142              		.loc 1 225 1
 1143              		.cfi_startproc
 1144              		@ args = 0, pretend = 0, frame = 16
 1145              		@ frame_needed = 1, uses_anonymous_args = 0
 1146 0000 80B5     		push	{r7, lr}
 1147              	.LCFI59:
 1148              		.cfi_def_cfa_offset 8
 1149              		.cfi_offset 7, -8
 1150              		.cfi_offset 14, -4
 1151 0002 84B0     		sub	sp, sp, #16
 1152              	.LCFI60:
 1153              		.cfi_def_cfa_offset 24
 1154 0004 00AF     		add	r7, sp, #0
 1155              	.LCFI61:
 1156              		.cfi_def_cfa_register 7
 1157 0006 F860     		str	r0, [r7, #12]
 1158 0008 B960     		str	r1, [r7, #8]
 1159 000a 7A60     		str	r2, [r7, #4]
 226:./BSP/Hardware/Src/qspi.c ****     if (HAL_QSPI_AutoPolling(&object->hqspi, cmd, cofig, HAL_QPSI_TIMEOUT_DEFAULT_VALUE) != HAL_OK)
 1160              		.loc 1 226 9
 1161 000c F868     		ldr	r0, [r7, #12]
 1162 000e 41F28833 		movw	r3, #5000
 1163 0012 7A68     		ldr	r2, [r7, #4]
ARM GAS  /tmp/ccMzZN2U.s 			page 25


 1164 0014 B968     		ldr	r1, [r7, #8]
 1165 0016 FFF7FEFF 		bl	HAL_QSPI_AutoPolling
 1166 001a 0346     		mov	r3, r0
 1167              		.loc 1 226 8
 1168 001c 002B     		cmp	r3, #0
 1169 001e 03D0     		beq	.L53
 227:./BSP/Hardware/Src/qspi.c ****     {
 228:./BSP/Hardware/Src/qspi.c ****         Error_Handler(__FILE__, __LINE__);
 1170              		.loc 1 228 9
 1171 0020 E421     		movs	r1, #228
 1172 0022 0348     		ldr	r0, .L54
 1173 0024 FFF7FEFF 		bl	Error_Handler
 1174              	.L53:
 229:./BSP/Hardware/Src/qspi.c ****     }
 230:./BSP/Hardware/Src/qspi.c **** }
 1175              		.loc 1 230 1
 1176 0028 00BF     		nop
 1177 002a 1037     		adds	r7, r7, #16
 1178              	.LCFI62:
 1179              		.cfi_def_cfa_offset 8
 1180 002c BD46     		mov	sp, r7
 1181              	.LCFI63:
 1182              		.cfi_def_cfa_register 13
 1183              		@ sp needed
 1184 002e 80BD     		pop	{r7, pc}
 1185              	.L55:
 1186              		.align	2
 1187              	.L54:
 1188 0030 00000000 		.word	.LC0
 1189              		.cfi_endproc
 1190              	.LFE350:
 1192              		.section	.text.QSPI_MemoryMapped,"ax",%progbits
 1193              		.align	1
 1194              		.global	QSPI_MemoryMapped
 1195              		.syntax unified
 1196              		.thumb
 1197              		.thumb_func
 1198              		.fpu fpv5-d16
 1200              	QSPI_MemoryMapped:
 1201              	.LFB351:
 231:./BSP/Hardware/Src/qspi.c **** 
 232:./BSP/Hardware/Src/qspi.c **** void QSPI_MemoryMapped(QSPI_objectTypeDef *object,QSPI_CommandTypeDef *cmd,QSPI_MemoryMappedTypeDef
 233:./BSP/Hardware/Src/qspi.c **** {
 1202              		.loc 1 233 1
 1203              		.cfi_startproc
 1204              		@ args = 0, pretend = 0, frame = 16
 1205              		@ frame_needed = 1, uses_anonymous_args = 0
 1206 0000 80B5     		push	{r7, lr}
 1207              	.LCFI64:
 1208              		.cfi_def_cfa_offset 8
 1209              		.cfi_offset 7, -8
 1210              		.cfi_offset 14, -4
 1211 0002 84B0     		sub	sp, sp, #16
 1212              	.LCFI65:
 1213              		.cfi_def_cfa_offset 24
 1214 0004 00AF     		add	r7, sp, #0
 1215              	.LCFI66:
ARM GAS  /tmp/ccMzZN2U.s 			page 26


 1216              		.cfi_def_cfa_register 7
 1217 0006 F860     		str	r0, [r7, #12]
 1218 0008 B960     		str	r1, [r7, #8]
 1219 000a 7A60     		str	r2, [r7, #4]
 234:./BSP/Hardware/Src/qspi.c ****     if (HAL_QSPI_MemoryMapped(&object->hqspi, cmd, config) != HAL_OK)
 1220              		.loc 1 234 9
 1221 000c FB68     		ldr	r3, [r7, #12]
 1222 000e 7A68     		ldr	r2, [r7, #4]
 1223 0010 B968     		ldr	r1, [r7, #8]
 1224 0012 1846     		mov	r0, r3
 1225 0014 FFF7FEFF 		bl	HAL_QSPI_MemoryMapped
 1226 0018 0346     		mov	r3, r0
 1227              		.loc 1 234 8
 1228 001a 002B     		cmp	r3, #0
 1229 001c 03D0     		beq	.L58
 235:./BSP/Hardware/Src/qspi.c ****     {
 236:./BSP/Hardware/Src/qspi.c ****         Error_Handler(__FILE__, __LINE__);
 1230              		.loc 1 236 9
 1231 001e EC21     		movs	r1, #236
 1232 0020 0348     		ldr	r0, .L59
 1233 0022 FFF7FEFF 		bl	Error_Handler
 1234              	.L58:
 237:./BSP/Hardware/Src/qspi.c ****     }
 238:./BSP/Hardware/Src/qspi.c **** }...
 1235              		.loc 1 238 1
 1236 0026 00BF     		nop
 1237 0028 1037     		adds	r7, r7, #16
 1238              	.LCFI67:
 1239              		.cfi_def_cfa_offset 8
 1240 002a BD46     		mov	sp, r7
 1241              	.LCFI68:
 1242              		.cfi_def_cfa_register 13
 1243              		@ sp needed
 1244 002c 80BD     		pop	{r7, pc}
 1245              	.L60:
 1246 002e 00BF     		.align	2
 1247              	.L59:
 1248 0030 00000000 		.word	.LC0
 1249              		.cfi_endproc
 1250              	.LFE351:
 1252              		.text
 1253              	.Letext0:
 1254              		.file 2 "/usr/lib/gcc/arm-none-eabi/9.2.1/include/stdint.h"
 1255              		.file 3 "./Libraries/CMSIS/Core/Include/core_cm7.h"
 1256              		.file 4 "./Libraries/CMSIS/Device/ST/STM32H7xx/Include/system_stm32h7xx.h"
 1257              		.file 5 "./Libraries/CMSIS/Device/ST/STM32H7xx/Include/stm32h747xx.h"
 1258              		.file 6 "/usr/lib/gcc/arm-none-eabi/9.2.1/include/stddef.h"
 1259              		.file 7 "/usr/include/newlib/sys/_types.h"
 1260              		.file 8 "/usr/include/newlib/sys/reent.h"
 1261              		.file 9 "/usr/include/newlib/sys/lock.h"
 1262              		.file 10 "/usr/include/newlib/math.h"
 1263              		.file 11 "./Libraries/STM32H7xx_HAL_Driver/Inc/stm32h7xx_hal_def.h"
 1264              		.file 12 "./Libraries/STM32H7xx_HAL_Driver/Inc/stm32h7xx_hal_rcc_ex.h"
 1265              		.file 13 "./Libraries/STM32H7xx_HAL_Driver/Inc/stm32h7xx_hal_gpio.h"
 1266              		.file 14 "./Libraries/STM32H7xx_HAL_Driver/Inc/stm32h7xx_hal_mdma.h"
 1267              		.file 15 "./Libraries/STM32H7xx_HAL_Driver/Inc/stm32h7xx_hal_flash.h"
 1268              		.file 16 "./Libraries/STM32H7xx_HAL_Driver/Inc/stm32h7xx_hal_qspi.h"
ARM GAS  /tmp/ccMzZN2U.s 			page 27


 1269              		.file 17 "./Libraries/STM32H7xx_HAL_Driver/Inc/stm32h7xx_hal_uart.h"
 1270              		.file 18 "./Libraries/STM32H7xx_HAL_Driver/Inc/stm32h7xx_hal.h"
 1271              		.file 19 "/usr/include/newlib/stdlib.h"
 1272              		.file 20 "./BSP/Hardware/Src/../../Hardware/Inc/qspi.h"
ARM GAS  /tmp/ccMzZN2U.s 			page 28


DEFINED SYMBOLS
                            *ABS*:0000000000000000 qspi.c
                            *COM*:000000000000006c hmdma_quadspi_fifo_th
                            *COM*:000000000000008c qspi_object_temp
     /tmp/ccMzZN2U.s:19     .text.QSPI_object_Init:0000000000000000 $t
     /tmp/ccMzZN2U.s:27     .text.QSPI_object_Init:0000000000000000 QSPI_object_Init
     /tmp/ccMzZN2U.s:112    .text.QSPI_object_Init:0000000000000064 $d
     /tmp/ccMzZN2U.s:134    .text.QSPI_Init:0000000000000000 QSPI_Init
     /tmp/ccMzZN2U.s:965    .text.QSPI_Write_Command:0000000000000000 QSPI_Write_Command
     /tmp/ccMzZN2U.s:1024   .text.QSPI_Write_Data:0000000000000000 QSPI_Write_Data
     /tmp/ccMzZN2U.s:1082   .text.QSPI_Read_Data_DMA:0000000000000000 QSPI_Read_Data_DMA
     /tmp/ccMzZN2U.s:1140   .text.QSPI_Auto_Polling:0000000000000000 QSPI_Auto_Polling
     /tmp/ccMzZN2U.s:1200   .text.QSPI_MemoryMapped:0000000000000000 QSPI_MemoryMapped
     /tmp/ccMzZN2U.s:123    .rodata:0000000000000000 $d
     /tmp/ccMzZN2U.s:127    .text.QSPI_Init:0000000000000000 $t
     /tmp/ccMzZN2U.s:226    .text.QSPI_Init:0000000000000068 $d
     /tmp/ccMzZN2U.s:231    .text.HAL_QSPI_MspInit:0000000000000000 $t
     /tmp/ccMzZN2U.s:238    .text.HAL_QSPI_MspInit:0000000000000000 HAL_QSPI_MspInit
     /tmp/ccMzZN2U.s:650    .text.HAL_QSPI_MspInit:0000000000000310 $d
     /tmp/ccMzZN2U.s:664    .text.MDMA_IRQHandler:0000000000000000 $t
     /tmp/ccMzZN2U.s:671    .text.MDMA_IRQHandler:0000000000000000 MDMA_IRQHandler
     /tmp/ccMzZN2U.s:694    .text.MDMA_IRQHandler:0000000000000010 $d
     /tmp/ccMzZN2U.s:699    .text.QUADSPI_IRQHandler:0000000000000000 $t
     /tmp/ccMzZN2U.s:706    .text.QUADSPI_IRQHandler:0000000000000000 QUADSPI_IRQHandler
     /tmp/ccMzZN2U.s:729    .text.QUADSPI_IRQHandler:0000000000000010 $d
     /tmp/ccMzZN2U.s:734    .text.HAL_QSPI_CmdCpltCallback:0000000000000000 $t
     /tmp/ccMzZN2U.s:741    .text.HAL_QSPI_CmdCpltCallback:0000000000000000 HAL_QSPI_CmdCpltCallback
     /tmp/ccMzZN2U.s:785    .text.HAL_QSPI_CmdCpltCallback:0000000000000028 $d
     /tmp/ccMzZN2U.s:790    .text.HAL_QSPI_RxCpltCallback:0000000000000000 $t
     /tmp/ccMzZN2U.s:797    .text.HAL_QSPI_RxCpltCallback:0000000000000000 HAL_QSPI_RxCpltCallback
     /tmp/ccMzZN2U.s:841    .text.HAL_QSPI_RxCpltCallback:0000000000000028 $d
     /tmp/ccMzZN2U.s:846    .text.HAL_QSPI_TxCpltCallback:0000000000000000 $t
     /tmp/ccMzZN2U.s:853    .text.HAL_QSPI_TxCpltCallback:0000000000000000 HAL_QSPI_TxCpltCallback
     /tmp/ccMzZN2U.s:897    .text.HAL_QSPI_TxCpltCallback:0000000000000028 $d
     /tmp/ccMzZN2U.s:902    .text.HAL_QSPI_StatusMatchCallback:0000000000000000 $t
     /tmp/ccMzZN2U.s:909    .text.HAL_QSPI_StatusMatchCallback:0000000000000000 HAL_QSPI_StatusMatchCallback
     /tmp/ccMzZN2U.s:953    .text.HAL_QSPI_StatusMatchCallback:0000000000000028 $d
     /tmp/ccMzZN2U.s:958    .text.QSPI_Write_Command:0000000000000000 $t
     /tmp/ccMzZN2U.s:1012   .text.QSPI_Write_Command:000000000000002c $d
     /tmp/ccMzZN2U.s:1017   .text.QSPI_Write_Data:0000000000000000 $t
     /tmp/ccMzZN2U.s:1070   .text.QSPI_Write_Data:000000000000002c $d
     /tmp/ccMzZN2U.s:1075   .text.QSPI_Read_Data_DMA:0000000000000000 $t
     /tmp/ccMzZN2U.s:1128   .text.QSPI_Read_Data_DMA:000000000000002c $d
     /tmp/ccMzZN2U.s:1133   .text.QSPI_Auto_Polling:0000000000000000 $t
     /tmp/ccMzZN2U.s:1188   .text.QSPI_Auto_Polling:0000000000000030 $d
     /tmp/ccMzZN2U.s:1193   .text.QSPI_MemoryMapped:0000000000000000 $t
     /tmp/ccMzZN2U.s:1248   .text.QSPI_MemoryMapped:0000000000000030 $d

UNDEFINED SYMBOLS
HAL_QSPI_Init
Error_Handler
memset
HAL_RCCEx_PeriphCLKConfig
HAL_GPIO_Init
HAL_NVIC_SetPriority
HAL_NVIC_EnableIRQ
HAL_MDMA_Init
ARM GAS  /tmp/ccMzZN2U.s 			page 29


HAL_MDMA_ConfigPostRequestMask
HAL_MDMA_IRQHandler
HAL_QSPI_IRQHandler
HAL_QSPI_Command
HAL_QSPI_Transmit_DMA
HAL_QSPI_Receive_DMA
HAL_QSPI_AutoPolling
HAL_QSPI_MemoryMapped
