ARM GAS  /tmp/ccSKvF4m.s 			page 1


   1              		.cpu cortex-m7
   2              		.eabi_attribute 28, 1
   3              		.eabi_attribute 20, 1
   4              		.eabi_attribute 21, 1
   5              		.eabi_attribute 23, 3
   6              		.eabi_attribute 24, 1
   7              		.eabi_attribute 25, 1
   8              		.eabi_attribute 26, 1
   9              		.eabi_attribute 30, 2
  10              		.eabi_attribute 34, 1
  11              		.eabi_attribute 18, 4
  12              		.file	"stm32h7xx_hal_uart_ex.c"
  13              		.text
  14              	.Ltext0:
  15              		.cfi_sections	.debug_frame
  16              		.section	.text.UARTEx_SetNbDataToProcess.part.0,"ax",%progbits
  17              		.align	1
  18              		.p2align 2,,3
  19              		.arch armv7e-m
  20              		.syntax unified
  21              		.thumb
  22              		.thumb_func
  23              		.fpu fpv5-d16
  25              	UARTEx_SetNbDataToProcess.part.0:
  26              	.LVL0:
  27              	.LFB349:
  28              		.file 1 "./Libraries/STM32H7xx_HAL_Driver/Src/stm32h7xx_hal_uart_ex.c"
   1:./Libraries/STM32H7xx_HAL_Driver/Src/stm32h7xx_hal_uart_ex.c **** /**
   2:./Libraries/STM32H7xx_HAL_Driver/Src/stm32h7xx_hal_uart_ex.c ****   ******************************************************************************
   3:./Libraries/STM32H7xx_HAL_Driver/Src/stm32h7xx_hal_uart_ex.c ****   * @file    stm32h7xx_hal_uart_ex.c
   4:./Libraries/STM32H7xx_HAL_Driver/Src/stm32h7xx_hal_uart_ex.c ****   * @author  MCD Application Team
   5:./Libraries/STM32H7xx_HAL_Driver/Src/stm32h7xx_hal_uart_ex.c ****   * @brief   Extended UART HAL module driver.
   6:./Libraries/STM32H7xx_HAL_Driver/Src/stm32h7xx_hal_uart_ex.c ****   *          This file provides firmware functions to manage the following extended
   7:./Libraries/STM32H7xx_HAL_Driver/Src/stm32h7xx_hal_uart_ex.c ****   *          functionalities of the Universal Asynchronous Receiver Transmitter Peripheral (UART).
   8:./Libraries/STM32H7xx_HAL_Driver/Src/stm32h7xx_hal_uart_ex.c ****   *           + Initialization and de-initialization functions
   9:./Libraries/STM32H7xx_HAL_Driver/Src/stm32h7xx_hal_uart_ex.c ****   *           + Peripheral Control functions
  10:./Libraries/STM32H7xx_HAL_Driver/Src/stm32h7xx_hal_uart_ex.c ****   *
  11:./Libraries/STM32H7xx_HAL_Driver/Src/stm32h7xx_hal_uart_ex.c ****   *
  12:./Libraries/STM32H7xx_HAL_Driver/Src/stm32h7xx_hal_uart_ex.c ****   @verbatim
  13:./Libraries/STM32H7xx_HAL_Driver/Src/stm32h7xx_hal_uart_ex.c ****   ==============================================================================
  14:./Libraries/STM32H7xx_HAL_Driver/Src/stm32h7xx_hal_uart_ex.c ****                ##### UART peripheral extended features  #####
  15:./Libraries/STM32H7xx_HAL_Driver/Src/stm32h7xx_hal_uart_ex.c ****   ==============================================================================
  16:./Libraries/STM32H7xx_HAL_Driver/Src/stm32h7xx_hal_uart_ex.c **** 
  17:./Libraries/STM32H7xx_HAL_Driver/Src/stm32h7xx_hal_uart_ex.c ****     (#) Declare a UART_HandleTypeDef handle structure.
  18:./Libraries/STM32H7xx_HAL_Driver/Src/stm32h7xx_hal_uart_ex.c **** 
  19:./Libraries/STM32H7xx_HAL_Driver/Src/stm32h7xx_hal_uart_ex.c ****     (#) For the UART RS485 Driver Enable mode, initialize the UART registers
  20:./Libraries/STM32H7xx_HAL_Driver/Src/stm32h7xx_hal_uart_ex.c ****         by calling the HAL_RS485Ex_Init() API.
  21:./Libraries/STM32H7xx_HAL_Driver/Src/stm32h7xx_hal_uart_ex.c **** 
  22:./Libraries/STM32H7xx_HAL_Driver/Src/stm32h7xx_hal_uart_ex.c ****     (#) FIFO mode enabling/disabling and RX/TX FIFO threshold programming.
  23:./Libraries/STM32H7xx_HAL_Driver/Src/stm32h7xx_hal_uart_ex.c **** 
  24:./Libraries/STM32H7xx_HAL_Driver/Src/stm32h7xx_hal_uart_ex.c ****         -@- When UART operates in FIFO mode, FIFO mode must be enabled prior
  25:./Libraries/STM32H7xx_HAL_Driver/Src/stm32h7xx_hal_uart_ex.c ****             starting RX/TX transfers. Also RX/TX FIFO thresholds must be
  26:./Libraries/STM32H7xx_HAL_Driver/Src/stm32h7xx_hal_uart_ex.c ****             configured prior starting RX/TX transfers.
  27:./Libraries/STM32H7xx_HAL_Driver/Src/stm32h7xx_hal_uart_ex.c **** 
  28:./Libraries/STM32H7xx_HAL_Driver/Src/stm32h7xx_hal_uart_ex.c ****   @endverbatim
  29:./Libraries/STM32H7xx_HAL_Driver/Src/stm32h7xx_hal_uart_ex.c ****   ******************************************************************************
  30:./Libraries/STM32H7xx_HAL_Driver/Src/stm32h7xx_hal_uart_ex.c ****   * @attention
ARM GAS  /tmp/ccSKvF4m.s 			page 2


  31:./Libraries/STM32H7xx_HAL_Driver/Src/stm32h7xx_hal_uart_ex.c ****   *
  32:./Libraries/STM32H7xx_HAL_Driver/Src/stm32h7xx_hal_uart_ex.c ****   * <h2><center>&copy; Copyright (c) 2017 STMicroelectronics.
  33:./Libraries/STM32H7xx_HAL_Driver/Src/stm32h7xx_hal_uart_ex.c ****   * All rights reserved.</center></h2>
  34:./Libraries/STM32H7xx_HAL_Driver/Src/stm32h7xx_hal_uart_ex.c ****   *
  35:./Libraries/STM32H7xx_HAL_Driver/Src/stm32h7xx_hal_uart_ex.c ****   * This software component is licensed by ST under BSD 3-Clause license,
  36:./Libraries/STM32H7xx_HAL_Driver/Src/stm32h7xx_hal_uart_ex.c ****   * the "License"; You may not use this file except in compliance with the
  37:./Libraries/STM32H7xx_HAL_Driver/Src/stm32h7xx_hal_uart_ex.c ****   * License. You may obtain a copy of the License at:
  38:./Libraries/STM32H7xx_HAL_Driver/Src/stm32h7xx_hal_uart_ex.c ****   *                        opensource.org/licenses/BSD-3-Clause
  39:./Libraries/STM32H7xx_HAL_Driver/Src/stm32h7xx_hal_uart_ex.c ****   *
  40:./Libraries/STM32H7xx_HAL_Driver/Src/stm32h7xx_hal_uart_ex.c ****   ******************************************************************************
  41:./Libraries/STM32H7xx_HAL_Driver/Src/stm32h7xx_hal_uart_ex.c ****   */
  42:./Libraries/STM32H7xx_HAL_Driver/Src/stm32h7xx_hal_uart_ex.c **** 
  43:./Libraries/STM32H7xx_HAL_Driver/Src/stm32h7xx_hal_uart_ex.c **** /* Includes ------------------------------------------------------------------*/
  44:./Libraries/STM32H7xx_HAL_Driver/Src/stm32h7xx_hal_uart_ex.c **** #include "stm32h7xx_hal.h"
  45:./Libraries/STM32H7xx_HAL_Driver/Src/stm32h7xx_hal_uart_ex.c **** 
  46:./Libraries/STM32H7xx_HAL_Driver/Src/stm32h7xx_hal_uart_ex.c **** /** @addtogroup STM32H7xx_HAL_Driver
  47:./Libraries/STM32H7xx_HAL_Driver/Src/stm32h7xx_hal_uart_ex.c ****   * @{
  48:./Libraries/STM32H7xx_HAL_Driver/Src/stm32h7xx_hal_uart_ex.c ****   */
  49:./Libraries/STM32H7xx_HAL_Driver/Src/stm32h7xx_hal_uart_ex.c **** 
  50:./Libraries/STM32H7xx_HAL_Driver/Src/stm32h7xx_hal_uart_ex.c **** /** @defgroup UARTEx UARTEx
  51:./Libraries/STM32H7xx_HAL_Driver/Src/stm32h7xx_hal_uart_ex.c ****   * @brief UART Extended HAL module driver
  52:./Libraries/STM32H7xx_HAL_Driver/Src/stm32h7xx_hal_uart_ex.c ****   * @{
  53:./Libraries/STM32H7xx_HAL_Driver/Src/stm32h7xx_hal_uart_ex.c ****   */
  54:./Libraries/STM32H7xx_HAL_Driver/Src/stm32h7xx_hal_uart_ex.c **** 
  55:./Libraries/STM32H7xx_HAL_Driver/Src/stm32h7xx_hal_uart_ex.c **** #ifdef HAL_UART_MODULE_ENABLED
  56:./Libraries/STM32H7xx_HAL_Driver/Src/stm32h7xx_hal_uart_ex.c **** 
  57:./Libraries/STM32H7xx_HAL_Driver/Src/stm32h7xx_hal_uart_ex.c **** /* Private typedef -----------------------------------------------------------*/
  58:./Libraries/STM32H7xx_HAL_Driver/Src/stm32h7xx_hal_uart_ex.c **** /* Private define ------------------------------------------------------------*/
  59:./Libraries/STM32H7xx_HAL_Driver/Src/stm32h7xx_hal_uart_ex.c **** /** @defgroup UARTEX_Private_Constants UARTEx Private Constants
  60:./Libraries/STM32H7xx_HAL_Driver/Src/stm32h7xx_hal_uart_ex.c ****   * @{
  61:./Libraries/STM32H7xx_HAL_Driver/Src/stm32h7xx_hal_uart_ex.c ****   */
  62:./Libraries/STM32H7xx_HAL_Driver/Src/stm32h7xx_hal_uart_ex.c **** /* UART RX FIFO depth */
  63:./Libraries/STM32H7xx_HAL_Driver/Src/stm32h7xx_hal_uart_ex.c **** #define RX_FIFO_DEPTH 16U
  64:./Libraries/STM32H7xx_HAL_Driver/Src/stm32h7xx_hal_uart_ex.c **** 
  65:./Libraries/STM32H7xx_HAL_Driver/Src/stm32h7xx_hal_uart_ex.c **** /* UART TX FIFO depth */
  66:./Libraries/STM32H7xx_HAL_Driver/Src/stm32h7xx_hal_uart_ex.c **** #define TX_FIFO_DEPTH 16U
  67:./Libraries/STM32H7xx_HAL_Driver/Src/stm32h7xx_hal_uart_ex.c **** /**
  68:./Libraries/STM32H7xx_HAL_Driver/Src/stm32h7xx_hal_uart_ex.c ****   * @}
  69:./Libraries/STM32H7xx_HAL_Driver/Src/stm32h7xx_hal_uart_ex.c ****   */
  70:./Libraries/STM32H7xx_HAL_Driver/Src/stm32h7xx_hal_uart_ex.c **** 
  71:./Libraries/STM32H7xx_HAL_Driver/Src/stm32h7xx_hal_uart_ex.c **** /* Private macros ------------------------------------------------------------*/
  72:./Libraries/STM32H7xx_HAL_Driver/Src/stm32h7xx_hal_uart_ex.c **** /* Private variables ---------------------------------------------------------*/
  73:./Libraries/STM32H7xx_HAL_Driver/Src/stm32h7xx_hal_uart_ex.c **** /* Private function prototypes -----------------------------------------------*/
  74:./Libraries/STM32H7xx_HAL_Driver/Src/stm32h7xx_hal_uart_ex.c **** /** @defgroup UARTEx_Private_Functions UARTEx Private Functions
  75:./Libraries/STM32H7xx_HAL_Driver/Src/stm32h7xx_hal_uart_ex.c ****   * @{
  76:./Libraries/STM32H7xx_HAL_Driver/Src/stm32h7xx_hal_uart_ex.c ****   */
  77:./Libraries/STM32H7xx_HAL_Driver/Src/stm32h7xx_hal_uart_ex.c **** static void UARTEx_Wakeup_AddressConfig(UART_HandleTypeDef *huart, UART_WakeUpTypeDef WakeUpSelecti
  78:./Libraries/STM32H7xx_HAL_Driver/Src/stm32h7xx_hal_uart_ex.c **** static void UARTEx_SetNbDataToProcess(UART_HandleTypeDef *huart);
  79:./Libraries/STM32H7xx_HAL_Driver/Src/stm32h7xx_hal_uart_ex.c **** /**
  80:./Libraries/STM32H7xx_HAL_Driver/Src/stm32h7xx_hal_uart_ex.c ****   * @}
  81:./Libraries/STM32H7xx_HAL_Driver/Src/stm32h7xx_hal_uart_ex.c ****   */
  82:./Libraries/STM32H7xx_HAL_Driver/Src/stm32h7xx_hal_uart_ex.c **** 
  83:./Libraries/STM32H7xx_HAL_Driver/Src/stm32h7xx_hal_uart_ex.c **** /* Exported functions --------------------------------------------------------*/
  84:./Libraries/STM32H7xx_HAL_Driver/Src/stm32h7xx_hal_uart_ex.c **** 
  85:./Libraries/STM32H7xx_HAL_Driver/Src/stm32h7xx_hal_uart_ex.c **** /** @defgroup UARTEx_Exported_Functions  UARTEx Exported Functions
  86:./Libraries/STM32H7xx_HAL_Driver/Src/stm32h7xx_hal_uart_ex.c ****   * @{
  87:./Libraries/STM32H7xx_HAL_Driver/Src/stm32h7xx_hal_uart_ex.c ****   */
ARM GAS  /tmp/ccSKvF4m.s 			page 3


  88:./Libraries/STM32H7xx_HAL_Driver/Src/stm32h7xx_hal_uart_ex.c **** 
  89:./Libraries/STM32H7xx_HAL_Driver/Src/stm32h7xx_hal_uart_ex.c **** /** @defgroup UARTEx_Exported_Functions_Group1 Initialization and de-initialization functions
  90:./Libraries/STM32H7xx_HAL_Driver/Src/stm32h7xx_hal_uart_ex.c ****   * @brief    Extended Initialization and Configuration Functions
  91:./Libraries/STM32H7xx_HAL_Driver/Src/stm32h7xx_hal_uart_ex.c ****   *
  92:./Libraries/STM32H7xx_HAL_Driver/Src/stm32h7xx_hal_uart_ex.c **** @verbatim
  93:./Libraries/STM32H7xx_HAL_Driver/Src/stm32h7xx_hal_uart_ex.c **** ===============================================================================
  94:./Libraries/STM32H7xx_HAL_Driver/Src/stm32h7xx_hal_uart_ex.c ****             ##### Initialization and Configuration functions #####
  95:./Libraries/STM32H7xx_HAL_Driver/Src/stm32h7xx_hal_uart_ex.c ****  ===============================================================================
  96:./Libraries/STM32H7xx_HAL_Driver/Src/stm32h7xx_hal_uart_ex.c ****     [..]
  97:./Libraries/STM32H7xx_HAL_Driver/Src/stm32h7xx_hal_uart_ex.c ****     This subsection provides a set of functions allowing to initialize the USARTx or the UARTy
  98:./Libraries/STM32H7xx_HAL_Driver/Src/stm32h7xx_hal_uart_ex.c ****     in asynchronous mode.
  99:./Libraries/STM32H7xx_HAL_Driver/Src/stm32h7xx_hal_uart_ex.c ****       (+) For the asynchronous mode the parameters below can be configured:
 100:./Libraries/STM32H7xx_HAL_Driver/Src/stm32h7xx_hal_uart_ex.c ****         (++) Baud Rate
 101:./Libraries/STM32H7xx_HAL_Driver/Src/stm32h7xx_hal_uart_ex.c ****         (++) Word Length
 102:./Libraries/STM32H7xx_HAL_Driver/Src/stm32h7xx_hal_uart_ex.c ****         (++) Stop Bit
 103:./Libraries/STM32H7xx_HAL_Driver/Src/stm32h7xx_hal_uart_ex.c ****         (++) Parity: If the parity is enabled, then the MSB bit of the data written
 104:./Libraries/STM32H7xx_HAL_Driver/Src/stm32h7xx_hal_uart_ex.c ****              in the data register is transmitted but is changed by the parity bit.
 105:./Libraries/STM32H7xx_HAL_Driver/Src/stm32h7xx_hal_uart_ex.c ****         (++) Hardware flow control
 106:./Libraries/STM32H7xx_HAL_Driver/Src/stm32h7xx_hal_uart_ex.c ****         (++) Receiver/transmitter modes
 107:./Libraries/STM32H7xx_HAL_Driver/Src/stm32h7xx_hal_uart_ex.c ****         (++) Over Sampling Method
 108:./Libraries/STM32H7xx_HAL_Driver/Src/stm32h7xx_hal_uart_ex.c ****         (++) One-Bit Sampling Method
 109:./Libraries/STM32H7xx_HAL_Driver/Src/stm32h7xx_hal_uart_ex.c ****       (+) For the asynchronous mode, the following advanced features can be configured as well:
 110:./Libraries/STM32H7xx_HAL_Driver/Src/stm32h7xx_hal_uart_ex.c ****         (++) TX and/or RX pin level inversion
 111:./Libraries/STM32H7xx_HAL_Driver/Src/stm32h7xx_hal_uart_ex.c ****         (++) data logical level inversion
 112:./Libraries/STM32H7xx_HAL_Driver/Src/stm32h7xx_hal_uart_ex.c ****         (++) RX and TX pins swap
 113:./Libraries/STM32H7xx_HAL_Driver/Src/stm32h7xx_hal_uart_ex.c ****         (++) RX overrun detection disabling
 114:./Libraries/STM32H7xx_HAL_Driver/Src/stm32h7xx_hal_uart_ex.c ****         (++) DMA disabling on RX error
 115:./Libraries/STM32H7xx_HAL_Driver/Src/stm32h7xx_hal_uart_ex.c ****         (++) MSB first on communication line
 116:./Libraries/STM32H7xx_HAL_Driver/Src/stm32h7xx_hal_uart_ex.c ****         (++) auto Baud rate detection
 117:./Libraries/STM32H7xx_HAL_Driver/Src/stm32h7xx_hal_uart_ex.c ****     [..]
 118:./Libraries/STM32H7xx_HAL_Driver/Src/stm32h7xx_hal_uart_ex.c ****     The HAL_RS485Ex_Init() API follows the UART RS485 mode configuration
 119:./Libraries/STM32H7xx_HAL_Driver/Src/stm32h7xx_hal_uart_ex.c ****      procedures (details for the procedures are available in reference manual).
 120:./Libraries/STM32H7xx_HAL_Driver/Src/stm32h7xx_hal_uart_ex.c **** 
 121:./Libraries/STM32H7xx_HAL_Driver/Src/stm32h7xx_hal_uart_ex.c **** @endverbatim
 122:./Libraries/STM32H7xx_HAL_Driver/Src/stm32h7xx_hal_uart_ex.c **** 
 123:./Libraries/STM32H7xx_HAL_Driver/Src/stm32h7xx_hal_uart_ex.c ****   Depending on the frame length defined by the M1 and M0 bits (7-bit,
 124:./Libraries/STM32H7xx_HAL_Driver/Src/stm32h7xx_hal_uart_ex.c ****   8-bit or 9-bit), the possible UART formats are listed in the
 125:./Libraries/STM32H7xx_HAL_Driver/Src/stm32h7xx_hal_uart_ex.c ****   following table.
 126:./Libraries/STM32H7xx_HAL_Driver/Src/stm32h7xx_hal_uart_ex.c **** 
 127:./Libraries/STM32H7xx_HAL_Driver/Src/stm32h7xx_hal_uart_ex.c ****     Table 1. UART frame format.
 128:./Libraries/STM32H7xx_HAL_Driver/Src/stm32h7xx_hal_uart_ex.c ****     +-----------------------------------------------------------------------+
 129:./Libraries/STM32H7xx_HAL_Driver/Src/stm32h7xx_hal_uart_ex.c ****     |  M1 bit |  M0 bit |  PCE bit  |             UART frame                |
 130:./Libraries/STM32H7xx_HAL_Driver/Src/stm32h7xx_hal_uart_ex.c ****     |---------|---------|-----------|---------------------------------------|
 131:./Libraries/STM32H7xx_HAL_Driver/Src/stm32h7xx_hal_uart_ex.c ****     |    0    |    0    |    0      |    | SB |    8 bit data   | STB |     |
 132:./Libraries/STM32H7xx_HAL_Driver/Src/stm32h7xx_hal_uart_ex.c ****     |---------|---------|-----------|---------------------------------------|
 133:./Libraries/STM32H7xx_HAL_Driver/Src/stm32h7xx_hal_uart_ex.c ****     |    0    |    0    |    1      |    | SB | 7 bit data | PB | STB |     |
 134:./Libraries/STM32H7xx_HAL_Driver/Src/stm32h7xx_hal_uart_ex.c ****     |---------|---------|-----------|---------------------------------------|
 135:./Libraries/STM32H7xx_HAL_Driver/Src/stm32h7xx_hal_uart_ex.c ****     |    0    |    1    |    0      |    | SB |    9 bit data   | STB |     |
 136:./Libraries/STM32H7xx_HAL_Driver/Src/stm32h7xx_hal_uart_ex.c ****     |---------|---------|-----------|---------------------------------------|
 137:./Libraries/STM32H7xx_HAL_Driver/Src/stm32h7xx_hal_uart_ex.c ****     |    0    |    1    |    1      |    | SB | 8 bit data | PB | STB |     |
 138:./Libraries/STM32H7xx_HAL_Driver/Src/stm32h7xx_hal_uart_ex.c ****     |---------|---------|-----------|---------------------------------------|
 139:./Libraries/STM32H7xx_HAL_Driver/Src/stm32h7xx_hal_uart_ex.c ****     |    1    |    0    |    0      |    | SB |    7 bit data   | STB |     |
 140:./Libraries/STM32H7xx_HAL_Driver/Src/stm32h7xx_hal_uart_ex.c ****     |---------|---------|-----------|---------------------------------------|
 141:./Libraries/STM32H7xx_HAL_Driver/Src/stm32h7xx_hal_uart_ex.c ****     |    1    |    0    |    1      |    | SB | 6 bit data | PB | STB |     |
 142:./Libraries/STM32H7xx_HAL_Driver/Src/stm32h7xx_hal_uart_ex.c ****     +-----------------------------------------------------------------------+
 143:./Libraries/STM32H7xx_HAL_Driver/Src/stm32h7xx_hal_uart_ex.c **** 
 144:./Libraries/STM32H7xx_HAL_Driver/Src/stm32h7xx_hal_uart_ex.c ****   * @{
ARM GAS  /tmp/ccSKvF4m.s 			page 4


 145:./Libraries/STM32H7xx_HAL_Driver/Src/stm32h7xx_hal_uart_ex.c ****   */
 146:./Libraries/STM32H7xx_HAL_Driver/Src/stm32h7xx_hal_uart_ex.c **** 
 147:./Libraries/STM32H7xx_HAL_Driver/Src/stm32h7xx_hal_uart_ex.c **** /**
 148:./Libraries/STM32H7xx_HAL_Driver/Src/stm32h7xx_hal_uart_ex.c ****   * @brief Initialize the RS485 Driver enable feature according to the specified
 149:./Libraries/STM32H7xx_HAL_Driver/Src/stm32h7xx_hal_uart_ex.c ****   *         parameters in the UART_InitTypeDef and creates the associated handle.
 150:./Libraries/STM32H7xx_HAL_Driver/Src/stm32h7xx_hal_uart_ex.c ****   * @param huart            UART handle.
 151:./Libraries/STM32H7xx_HAL_Driver/Src/stm32h7xx_hal_uart_ex.c ****   * @param Polarity         Select the driver enable polarity.
 152:./Libraries/STM32H7xx_HAL_Driver/Src/stm32h7xx_hal_uart_ex.c ****   *          This parameter can be one of the following values:
 153:./Libraries/STM32H7xx_HAL_Driver/Src/stm32h7xx_hal_uart_ex.c ****   *          @arg @ref UART_DE_POLARITY_HIGH DE signal is active high
 154:./Libraries/STM32H7xx_HAL_Driver/Src/stm32h7xx_hal_uart_ex.c ****   *          @arg @ref UART_DE_POLARITY_LOW  DE signal is active low
 155:./Libraries/STM32H7xx_HAL_Driver/Src/stm32h7xx_hal_uart_ex.c ****   * @param AssertionTime    Driver Enable assertion time:
 156:./Libraries/STM32H7xx_HAL_Driver/Src/stm32h7xx_hal_uart_ex.c ****   *       5-bit value defining the time between the activation of the DE (Driver Enable)
 157:./Libraries/STM32H7xx_HAL_Driver/Src/stm32h7xx_hal_uart_ex.c ****   *       signal and the beginning of the start bit. It is expressed in sample time
 158:./Libraries/STM32H7xx_HAL_Driver/Src/stm32h7xx_hal_uart_ex.c ****   *       units (1/8 or 1/16 bit time, depending on the oversampling rate)
 159:./Libraries/STM32H7xx_HAL_Driver/Src/stm32h7xx_hal_uart_ex.c ****   * @param DeassertionTime  Driver Enable deassertion time:
 160:./Libraries/STM32H7xx_HAL_Driver/Src/stm32h7xx_hal_uart_ex.c ****   *       5-bit value defining the time between the end of the last stop bit, in a
 161:./Libraries/STM32H7xx_HAL_Driver/Src/stm32h7xx_hal_uart_ex.c ****   *       transmitted message, and the de-activation of the DE (Driver Enable) signal.
 162:./Libraries/STM32H7xx_HAL_Driver/Src/stm32h7xx_hal_uart_ex.c ****   *       It is expressed in sample time units (1/8 or 1/16 bit time, depending on the
 163:./Libraries/STM32H7xx_HAL_Driver/Src/stm32h7xx_hal_uart_ex.c ****   *       oversampling rate).
 164:./Libraries/STM32H7xx_HAL_Driver/Src/stm32h7xx_hal_uart_ex.c ****   * @retval HAL status
 165:./Libraries/STM32H7xx_HAL_Driver/Src/stm32h7xx_hal_uart_ex.c ****   */
 166:./Libraries/STM32H7xx_HAL_Driver/Src/stm32h7xx_hal_uart_ex.c **** HAL_StatusTypeDef HAL_RS485Ex_Init(UART_HandleTypeDef *huart, uint32_t Polarity, uint32_t Assertion
 167:./Libraries/STM32H7xx_HAL_Driver/Src/stm32h7xx_hal_uart_ex.c ****                                    uint32_t DeassertionTime)
 168:./Libraries/STM32H7xx_HAL_Driver/Src/stm32h7xx_hal_uart_ex.c **** {
 169:./Libraries/STM32H7xx_HAL_Driver/Src/stm32h7xx_hal_uart_ex.c ****   uint32_t temp;
 170:./Libraries/STM32H7xx_HAL_Driver/Src/stm32h7xx_hal_uart_ex.c **** 
 171:./Libraries/STM32H7xx_HAL_Driver/Src/stm32h7xx_hal_uart_ex.c ****   /* Check the UART handle allocation */
 172:./Libraries/STM32H7xx_HAL_Driver/Src/stm32h7xx_hal_uart_ex.c ****   if (huart == NULL)
 173:./Libraries/STM32H7xx_HAL_Driver/Src/stm32h7xx_hal_uart_ex.c ****   {
 174:./Libraries/STM32H7xx_HAL_Driver/Src/stm32h7xx_hal_uart_ex.c ****     return HAL_ERROR;
 175:./Libraries/STM32H7xx_HAL_Driver/Src/stm32h7xx_hal_uart_ex.c ****   }
 176:./Libraries/STM32H7xx_HAL_Driver/Src/stm32h7xx_hal_uart_ex.c ****   /* Check the Driver Enable UART instance */
 177:./Libraries/STM32H7xx_HAL_Driver/Src/stm32h7xx_hal_uart_ex.c ****   assert_param(IS_UART_DRIVER_ENABLE_INSTANCE(huart->Instance));
 178:./Libraries/STM32H7xx_HAL_Driver/Src/stm32h7xx_hal_uart_ex.c **** 
 179:./Libraries/STM32H7xx_HAL_Driver/Src/stm32h7xx_hal_uart_ex.c ****   /* Check the Driver Enable polarity */
 180:./Libraries/STM32H7xx_HAL_Driver/Src/stm32h7xx_hal_uart_ex.c ****   assert_param(IS_UART_DE_POLARITY(Polarity));
 181:./Libraries/STM32H7xx_HAL_Driver/Src/stm32h7xx_hal_uart_ex.c **** 
 182:./Libraries/STM32H7xx_HAL_Driver/Src/stm32h7xx_hal_uart_ex.c ****   /* Check the Driver Enable assertion time */
 183:./Libraries/STM32H7xx_HAL_Driver/Src/stm32h7xx_hal_uart_ex.c ****   assert_param(IS_UART_ASSERTIONTIME(AssertionTime));
 184:./Libraries/STM32H7xx_HAL_Driver/Src/stm32h7xx_hal_uart_ex.c **** 
 185:./Libraries/STM32H7xx_HAL_Driver/Src/stm32h7xx_hal_uart_ex.c ****   /* Check the Driver Enable deassertion time */
 186:./Libraries/STM32H7xx_HAL_Driver/Src/stm32h7xx_hal_uart_ex.c ****   assert_param(IS_UART_DEASSERTIONTIME(DeassertionTime));
 187:./Libraries/STM32H7xx_HAL_Driver/Src/stm32h7xx_hal_uart_ex.c **** 
 188:./Libraries/STM32H7xx_HAL_Driver/Src/stm32h7xx_hal_uart_ex.c ****   if (huart->gState == HAL_UART_STATE_RESET)
 189:./Libraries/STM32H7xx_HAL_Driver/Src/stm32h7xx_hal_uart_ex.c ****   {
 190:./Libraries/STM32H7xx_HAL_Driver/Src/stm32h7xx_hal_uart_ex.c ****     /* Allocate lock resource and initialize it */
 191:./Libraries/STM32H7xx_HAL_Driver/Src/stm32h7xx_hal_uart_ex.c ****     huart->Lock = HAL_UNLOCKED;
 192:./Libraries/STM32H7xx_HAL_Driver/Src/stm32h7xx_hal_uart_ex.c **** 
 193:./Libraries/STM32H7xx_HAL_Driver/Src/stm32h7xx_hal_uart_ex.c **** #if (USE_HAL_UART_REGISTER_CALLBACKS == 1)
 194:./Libraries/STM32H7xx_HAL_Driver/Src/stm32h7xx_hal_uart_ex.c ****     UART_InitCallbacksToDefault(huart);
 195:./Libraries/STM32H7xx_HAL_Driver/Src/stm32h7xx_hal_uart_ex.c **** 
 196:./Libraries/STM32H7xx_HAL_Driver/Src/stm32h7xx_hal_uart_ex.c ****     if (huart->MspInitCallback == NULL)
 197:./Libraries/STM32H7xx_HAL_Driver/Src/stm32h7xx_hal_uart_ex.c ****     {
 198:./Libraries/STM32H7xx_HAL_Driver/Src/stm32h7xx_hal_uart_ex.c ****       huart->MspInitCallback = HAL_UART_MspInit;
 199:./Libraries/STM32H7xx_HAL_Driver/Src/stm32h7xx_hal_uart_ex.c ****     }
 200:./Libraries/STM32H7xx_HAL_Driver/Src/stm32h7xx_hal_uart_ex.c **** 
 201:./Libraries/STM32H7xx_HAL_Driver/Src/stm32h7xx_hal_uart_ex.c ****     /* Init the low level hardware */
ARM GAS  /tmp/ccSKvF4m.s 			page 5


 202:./Libraries/STM32H7xx_HAL_Driver/Src/stm32h7xx_hal_uart_ex.c ****     huart->MspInitCallback(huart);
 203:./Libraries/STM32H7xx_HAL_Driver/Src/stm32h7xx_hal_uart_ex.c **** #else
 204:./Libraries/STM32H7xx_HAL_Driver/Src/stm32h7xx_hal_uart_ex.c ****     /* Init the low level hardware : GPIO, CLOCK, CORTEX */
 205:./Libraries/STM32H7xx_HAL_Driver/Src/stm32h7xx_hal_uart_ex.c ****     HAL_UART_MspInit(huart);
 206:./Libraries/STM32H7xx_HAL_Driver/Src/stm32h7xx_hal_uart_ex.c **** #endif /* (USE_HAL_UART_REGISTER_CALLBACKS) */
 207:./Libraries/STM32H7xx_HAL_Driver/Src/stm32h7xx_hal_uart_ex.c ****   }
 208:./Libraries/STM32H7xx_HAL_Driver/Src/stm32h7xx_hal_uart_ex.c **** 
 209:./Libraries/STM32H7xx_HAL_Driver/Src/stm32h7xx_hal_uart_ex.c ****   huart->gState = HAL_UART_STATE_BUSY;
 210:./Libraries/STM32H7xx_HAL_Driver/Src/stm32h7xx_hal_uart_ex.c **** 
 211:./Libraries/STM32H7xx_HAL_Driver/Src/stm32h7xx_hal_uart_ex.c ****   /* Disable the Peripheral */
 212:./Libraries/STM32H7xx_HAL_Driver/Src/stm32h7xx_hal_uart_ex.c ****   __HAL_UART_DISABLE(huart);
 213:./Libraries/STM32H7xx_HAL_Driver/Src/stm32h7xx_hal_uart_ex.c **** 
 214:./Libraries/STM32H7xx_HAL_Driver/Src/stm32h7xx_hal_uart_ex.c ****   /* Set the UART Communication parameters */
 215:./Libraries/STM32H7xx_HAL_Driver/Src/stm32h7xx_hal_uart_ex.c ****   if (UART_SetConfig(huart) == HAL_ERROR)
 216:./Libraries/STM32H7xx_HAL_Driver/Src/stm32h7xx_hal_uart_ex.c ****   {
 217:./Libraries/STM32H7xx_HAL_Driver/Src/stm32h7xx_hal_uart_ex.c ****     return HAL_ERROR;
 218:./Libraries/STM32H7xx_HAL_Driver/Src/stm32h7xx_hal_uart_ex.c ****   }
 219:./Libraries/STM32H7xx_HAL_Driver/Src/stm32h7xx_hal_uart_ex.c **** 
 220:./Libraries/STM32H7xx_HAL_Driver/Src/stm32h7xx_hal_uart_ex.c ****   if (huart->AdvancedInit.AdvFeatureInit != UART_ADVFEATURE_NO_INIT)
 221:./Libraries/STM32H7xx_HAL_Driver/Src/stm32h7xx_hal_uart_ex.c ****   {
 222:./Libraries/STM32H7xx_HAL_Driver/Src/stm32h7xx_hal_uart_ex.c ****     UART_AdvFeatureConfig(huart);
 223:./Libraries/STM32H7xx_HAL_Driver/Src/stm32h7xx_hal_uart_ex.c ****   }
 224:./Libraries/STM32H7xx_HAL_Driver/Src/stm32h7xx_hal_uart_ex.c **** 
 225:./Libraries/STM32H7xx_HAL_Driver/Src/stm32h7xx_hal_uart_ex.c ****   /* Enable the Driver Enable mode by setting the DEM bit in the CR3 register */
 226:./Libraries/STM32H7xx_HAL_Driver/Src/stm32h7xx_hal_uart_ex.c ****   SET_BIT(huart->Instance->CR3, USART_CR3_DEM);
 227:./Libraries/STM32H7xx_HAL_Driver/Src/stm32h7xx_hal_uart_ex.c **** 
 228:./Libraries/STM32H7xx_HAL_Driver/Src/stm32h7xx_hal_uart_ex.c ****   /* Set the Driver Enable polarity */
 229:./Libraries/STM32H7xx_HAL_Driver/Src/stm32h7xx_hal_uart_ex.c ****   MODIFY_REG(huart->Instance->CR3, USART_CR3_DEP, Polarity);
 230:./Libraries/STM32H7xx_HAL_Driver/Src/stm32h7xx_hal_uart_ex.c **** 
 231:./Libraries/STM32H7xx_HAL_Driver/Src/stm32h7xx_hal_uart_ex.c ****   /* Set the Driver Enable assertion and deassertion times */
 232:./Libraries/STM32H7xx_HAL_Driver/Src/stm32h7xx_hal_uart_ex.c ****   temp = (AssertionTime << UART_CR1_DEAT_ADDRESS_LSB_POS);
 233:./Libraries/STM32H7xx_HAL_Driver/Src/stm32h7xx_hal_uart_ex.c ****   temp |= (DeassertionTime << UART_CR1_DEDT_ADDRESS_LSB_POS);
 234:./Libraries/STM32H7xx_HAL_Driver/Src/stm32h7xx_hal_uart_ex.c ****   MODIFY_REG(huart->Instance->CR1, (USART_CR1_DEDT | USART_CR1_DEAT), temp);
 235:./Libraries/STM32H7xx_HAL_Driver/Src/stm32h7xx_hal_uart_ex.c **** 
 236:./Libraries/STM32H7xx_HAL_Driver/Src/stm32h7xx_hal_uart_ex.c ****   /* Enable the Peripheral */
 237:./Libraries/STM32H7xx_HAL_Driver/Src/stm32h7xx_hal_uart_ex.c ****   __HAL_UART_ENABLE(huart);
 238:./Libraries/STM32H7xx_HAL_Driver/Src/stm32h7xx_hal_uart_ex.c **** 
 239:./Libraries/STM32H7xx_HAL_Driver/Src/stm32h7xx_hal_uart_ex.c ****   /* TEACK and/or REACK to check before moving huart->gState and huart->RxState to Ready */
 240:./Libraries/STM32H7xx_HAL_Driver/Src/stm32h7xx_hal_uart_ex.c ****   return (UART_CheckIdleState(huart));
 241:./Libraries/STM32H7xx_HAL_Driver/Src/stm32h7xx_hal_uart_ex.c **** }
 242:./Libraries/STM32H7xx_HAL_Driver/Src/stm32h7xx_hal_uart_ex.c **** 
 243:./Libraries/STM32H7xx_HAL_Driver/Src/stm32h7xx_hal_uart_ex.c **** /**
 244:./Libraries/STM32H7xx_HAL_Driver/Src/stm32h7xx_hal_uart_ex.c ****   * @}
 245:./Libraries/STM32H7xx_HAL_Driver/Src/stm32h7xx_hal_uart_ex.c ****   */
 246:./Libraries/STM32H7xx_HAL_Driver/Src/stm32h7xx_hal_uart_ex.c **** 
 247:./Libraries/STM32H7xx_HAL_Driver/Src/stm32h7xx_hal_uart_ex.c **** /** @defgroup UARTEx_Exported_Functions_Group2 IO operation functions
 248:./Libraries/STM32H7xx_HAL_Driver/Src/stm32h7xx_hal_uart_ex.c ****   *  @brief Extended functions
 249:./Libraries/STM32H7xx_HAL_Driver/Src/stm32h7xx_hal_uart_ex.c ****   *
 250:./Libraries/STM32H7xx_HAL_Driver/Src/stm32h7xx_hal_uart_ex.c **** @verbatim
 251:./Libraries/STM32H7xx_HAL_Driver/Src/stm32h7xx_hal_uart_ex.c ****  ===============================================================================
 252:./Libraries/STM32H7xx_HAL_Driver/Src/stm32h7xx_hal_uart_ex.c ****                       ##### IO operation functions #####
 253:./Libraries/STM32H7xx_HAL_Driver/Src/stm32h7xx_hal_uart_ex.c ****  ===============================================================================
 254:./Libraries/STM32H7xx_HAL_Driver/Src/stm32h7xx_hal_uart_ex.c ****     This subsection provides a set of Wakeup and FIFO mode related callback functions.
 255:./Libraries/STM32H7xx_HAL_Driver/Src/stm32h7xx_hal_uart_ex.c **** 
 256:./Libraries/STM32H7xx_HAL_Driver/Src/stm32h7xx_hal_uart_ex.c ****     (#) Wakeup from Stop mode Callback:
 257:./Libraries/STM32H7xx_HAL_Driver/Src/stm32h7xx_hal_uart_ex.c ****         (+) HAL_UARTEx_WakeupCallback()
 258:./Libraries/STM32H7xx_HAL_Driver/Src/stm32h7xx_hal_uart_ex.c **** 
ARM GAS  /tmp/ccSKvF4m.s 			page 6


 259:./Libraries/STM32H7xx_HAL_Driver/Src/stm32h7xx_hal_uart_ex.c ****     (#) TX/RX Fifos Callbacks:
 260:./Libraries/STM32H7xx_HAL_Driver/Src/stm32h7xx_hal_uart_ex.c ****         (+) HAL_UARTEx_RxFifoFullCallback()
 261:./Libraries/STM32H7xx_HAL_Driver/Src/stm32h7xx_hal_uart_ex.c ****         (+) HAL_UARTEx_TxFifoEmptyCallback()
 262:./Libraries/STM32H7xx_HAL_Driver/Src/stm32h7xx_hal_uart_ex.c **** 
 263:./Libraries/STM32H7xx_HAL_Driver/Src/stm32h7xx_hal_uart_ex.c **** @endverbatim
 264:./Libraries/STM32H7xx_HAL_Driver/Src/stm32h7xx_hal_uart_ex.c ****   * @{
 265:./Libraries/STM32H7xx_HAL_Driver/Src/stm32h7xx_hal_uart_ex.c ****   */
 266:./Libraries/STM32H7xx_HAL_Driver/Src/stm32h7xx_hal_uart_ex.c **** 
 267:./Libraries/STM32H7xx_HAL_Driver/Src/stm32h7xx_hal_uart_ex.c **** /**
 268:./Libraries/STM32H7xx_HAL_Driver/Src/stm32h7xx_hal_uart_ex.c ****   * @brief UART wakeup from Stop mode callback.
 269:./Libraries/STM32H7xx_HAL_Driver/Src/stm32h7xx_hal_uart_ex.c ****   * @param huart UART handle.
 270:./Libraries/STM32H7xx_HAL_Driver/Src/stm32h7xx_hal_uart_ex.c ****   * @retval None
 271:./Libraries/STM32H7xx_HAL_Driver/Src/stm32h7xx_hal_uart_ex.c ****   */
 272:./Libraries/STM32H7xx_HAL_Driver/Src/stm32h7xx_hal_uart_ex.c **** __weak void HAL_UARTEx_WakeupCallback(UART_HandleTypeDef *huart)
 273:./Libraries/STM32H7xx_HAL_Driver/Src/stm32h7xx_hal_uart_ex.c **** {
 274:./Libraries/STM32H7xx_HAL_Driver/Src/stm32h7xx_hal_uart_ex.c ****   /* Prevent unused argument(s) compilation warning */
 275:./Libraries/STM32H7xx_HAL_Driver/Src/stm32h7xx_hal_uart_ex.c ****   UNUSED(huart);
 276:./Libraries/STM32H7xx_HAL_Driver/Src/stm32h7xx_hal_uart_ex.c **** 
 277:./Libraries/STM32H7xx_HAL_Driver/Src/stm32h7xx_hal_uart_ex.c ****   /* NOTE : This function should not be modified, when the callback is needed,
 278:./Libraries/STM32H7xx_HAL_Driver/Src/stm32h7xx_hal_uart_ex.c ****             the HAL_UARTEx_WakeupCallback can be implemented in the user file.
 279:./Libraries/STM32H7xx_HAL_Driver/Src/stm32h7xx_hal_uart_ex.c ****    */
 280:./Libraries/STM32H7xx_HAL_Driver/Src/stm32h7xx_hal_uart_ex.c **** }
 281:./Libraries/STM32H7xx_HAL_Driver/Src/stm32h7xx_hal_uart_ex.c **** 
 282:./Libraries/STM32H7xx_HAL_Driver/Src/stm32h7xx_hal_uart_ex.c **** /**
 283:./Libraries/STM32H7xx_HAL_Driver/Src/stm32h7xx_hal_uart_ex.c ****   * @brief  UART RX Fifo full callback.
 284:./Libraries/STM32H7xx_HAL_Driver/Src/stm32h7xx_hal_uart_ex.c ****   * @param  huart UART handle.
 285:./Libraries/STM32H7xx_HAL_Driver/Src/stm32h7xx_hal_uart_ex.c ****   * @retval None
 286:./Libraries/STM32H7xx_HAL_Driver/Src/stm32h7xx_hal_uart_ex.c ****   */
 287:./Libraries/STM32H7xx_HAL_Driver/Src/stm32h7xx_hal_uart_ex.c **** __weak void HAL_UARTEx_RxFifoFullCallback(UART_HandleTypeDef *huart)
 288:./Libraries/STM32H7xx_HAL_Driver/Src/stm32h7xx_hal_uart_ex.c **** {
 289:./Libraries/STM32H7xx_HAL_Driver/Src/stm32h7xx_hal_uart_ex.c ****   /* Prevent unused argument(s) compilation warning */
 290:./Libraries/STM32H7xx_HAL_Driver/Src/stm32h7xx_hal_uart_ex.c ****   UNUSED(huart);
 291:./Libraries/STM32H7xx_HAL_Driver/Src/stm32h7xx_hal_uart_ex.c **** 
 292:./Libraries/STM32H7xx_HAL_Driver/Src/stm32h7xx_hal_uart_ex.c ****   /* NOTE : This function should not be modified, when the callback is needed,
 293:./Libraries/STM32H7xx_HAL_Driver/Src/stm32h7xx_hal_uart_ex.c ****             the HAL_UARTEx_RxFifoFullCallback can be implemented in the user file.
 294:./Libraries/STM32H7xx_HAL_Driver/Src/stm32h7xx_hal_uart_ex.c ****    */
 295:./Libraries/STM32H7xx_HAL_Driver/Src/stm32h7xx_hal_uart_ex.c **** }
 296:./Libraries/STM32H7xx_HAL_Driver/Src/stm32h7xx_hal_uart_ex.c **** 
 297:./Libraries/STM32H7xx_HAL_Driver/Src/stm32h7xx_hal_uart_ex.c **** /**
 298:./Libraries/STM32H7xx_HAL_Driver/Src/stm32h7xx_hal_uart_ex.c ****   * @brief  UART TX Fifo empty callback.
 299:./Libraries/STM32H7xx_HAL_Driver/Src/stm32h7xx_hal_uart_ex.c ****   * @param  huart UART handle.
 300:./Libraries/STM32H7xx_HAL_Driver/Src/stm32h7xx_hal_uart_ex.c ****   * @retval None
 301:./Libraries/STM32H7xx_HAL_Driver/Src/stm32h7xx_hal_uart_ex.c ****   */
 302:./Libraries/STM32H7xx_HAL_Driver/Src/stm32h7xx_hal_uart_ex.c **** __weak void HAL_UARTEx_TxFifoEmptyCallback(UART_HandleTypeDef *huart)
 303:./Libraries/STM32H7xx_HAL_Driver/Src/stm32h7xx_hal_uart_ex.c **** {
 304:./Libraries/STM32H7xx_HAL_Driver/Src/stm32h7xx_hal_uart_ex.c ****   /* Prevent unused argument(s) compilation warning */
 305:./Libraries/STM32H7xx_HAL_Driver/Src/stm32h7xx_hal_uart_ex.c ****   UNUSED(huart);
 306:./Libraries/STM32H7xx_HAL_Driver/Src/stm32h7xx_hal_uart_ex.c **** 
 307:./Libraries/STM32H7xx_HAL_Driver/Src/stm32h7xx_hal_uart_ex.c ****   /* NOTE : This function should not be modified, when the callback is needed,
 308:./Libraries/STM32H7xx_HAL_Driver/Src/stm32h7xx_hal_uart_ex.c ****             the HAL_UARTEx_TxFifoEmptyCallback can be implemented in the user file.
 309:./Libraries/STM32H7xx_HAL_Driver/Src/stm32h7xx_hal_uart_ex.c ****    */
 310:./Libraries/STM32H7xx_HAL_Driver/Src/stm32h7xx_hal_uart_ex.c **** }
 311:./Libraries/STM32H7xx_HAL_Driver/Src/stm32h7xx_hal_uart_ex.c **** 
 312:./Libraries/STM32H7xx_HAL_Driver/Src/stm32h7xx_hal_uart_ex.c **** /**
 313:./Libraries/STM32H7xx_HAL_Driver/Src/stm32h7xx_hal_uart_ex.c ****   * @}
 314:./Libraries/STM32H7xx_HAL_Driver/Src/stm32h7xx_hal_uart_ex.c ****   */
 315:./Libraries/STM32H7xx_HAL_Driver/Src/stm32h7xx_hal_uart_ex.c **** 
ARM GAS  /tmp/ccSKvF4m.s 			page 7


 316:./Libraries/STM32H7xx_HAL_Driver/Src/stm32h7xx_hal_uart_ex.c **** /** @defgroup UARTEx_Exported_Functions_Group3 Peripheral Control functions
 317:./Libraries/STM32H7xx_HAL_Driver/Src/stm32h7xx_hal_uart_ex.c ****   * @brief    Extended Peripheral Control functions
 318:./Libraries/STM32H7xx_HAL_Driver/Src/stm32h7xx_hal_uart_ex.c ****   *
 319:./Libraries/STM32H7xx_HAL_Driver/Src/stm32h7xx_hal_uart_ex.c **** @verbatim
 320:./Libraries/STM32H7xx_HAL_Driver/Src/stm32h7xx_hal_uart_ex.c ****  ===============================================================================
 321:./Libraries/STM32H7xx_HAL_Driver/Src/stm32h7xx_hal_uart_ex.c ****                       ##### Peripheral Control functions #####
 322:./Libraries/STM32H7xx_HAL_Driver/Src/stm32h7xx_hal_uart_ex.c ****  ===============================================================================
 323:./Libraries/STM32H7xx_HAL_Driver/Src/stm32h7xx_hal_uart_ex.c ****     [..] This section provides the following functions:
 324:./Libraries/STM32H7xx_HAL_Driver/Src/stm32h7xx_hal_uart_ex.c ****      (+) HAL_MultiProcessorEx_AddressLength_Set() API optionally sets the UART node address
 325:./Libraries/STM32H7xx_HAL_Driver/Src/stm32h7xx_hal_uart_ex.c ****          detection length to more than 4 bits for multiprocessor address mark wake up.
 326:./Libraries/STM32H7xx_HAL_Driver/Src/stm32h7xx_hal_uart_ex.c ****      (+) HAL_UARTEx_StopModeWakeUpSourceConfig() API defines the wake-up from stop mode
 327:./Libraries/STM32H7xx_HAL_Driver/Src/stm32h7xx_hal_uart_ex.c ****          trigger: address match, Start Bit detection or RXNE bit status.
 328:./Libraries/STM32H7xx_HAL_Driver/Src/stm32h7xx_hal_uart_ex.c ****      (+) HAL_UARTEx_EnableStopMode() API enables the UART to wake up the MCU from stop mode
 329:./Libraries/STM32H7xx_HAL_Driver/Src/stm32h7xx_hal_uart_ex.c ****      (+) HAL_UARTEx_DisableStopMode() API disables the above functionality
 330:./Libraries/STM32H7xx_HAL_Driver/Src/stm32h7xx_hal_uart_ex.c ****      (+) HAL_UARTEx_EnableFifoMode() API enables the FIFO mode
 331:./Libraries/STM32H7xx_HAL_Driver/Src/stm32h7xx_hal_uart_ex.c ****      (+) HAL_UARTEx_DisableFifoMode() API disables the FIFO mode
 332:./Libraries/STM32H7xx_HAL_Driver/Src/stm32h7xx_hal_uart_ex.c ****      (+) HAL_UARTEx_SetTxFifoThreshold() API sets the TX FIFO threshold
 333:./Libraries/STM32H7xx_HAL_Driver/Src/stm32h7xx_hal_uart_ex.c ****      (+) HAL_UARTEx_SetRxFifoThreshold() API sets the RX FIFO threshold
 334:./Libraries/STM32H7xx_HAL_Driver/Src/stm32h7xx_hal_uart_ex.c **** 
 335:./Libraries/STM32H7xx_HAL_Driver/Src/stm32h7xx_hal_uart_ex.c ****     [..] This subsection also provides a set of additional functions providing enhanced reception
 336:./Libraries/STM32H7xx_HAL_Driver/Src/stm32h7xx_hal_uart_ex.c ****     services to user. (For example, these functions allow application to handle use cases
 337:./Libraries/STM32H7xx_HAL_Driver/Src/stm32h7xx_hal_uart_ex.c ****     where number of data to be received is unknown).
 338:./Libraries/STM32H7xx_HAL_Driver/Src/stm32h7xx_hal_uart_ex.c **** 
 339:./Libraries/STM32H7xx_HAL_Driver/Src/stm32h7xx_hal_uart_ex.c ****     (#) Compared to standard reception services which only consider number of received
 340:./Libraries/STM32H7xx_HAL_Driver/Src/stm32h7xx_hal_uart_ex.c ****         data elements as reception completion criteria, these functions also consider additional ev
 341:./Libraries/STM32H7xx_HAL_Driver/Src/stm32h7xx_hal_uart_ex.c ****         as triggers for updating reception status to caller :
 342:./Libraries/STM32H7xx_HAL_Driver/Src/stm32h7xx_hal_uart_ex.c ****        (+) Detection of inactivity period (RX line has not been active for a given period).
 343:./Libraries/STM32H7xx_HAL_Driver/Src/stm32h7xx_hal_uart_ex.c ****           (++) RX inactivity detected by IDLE event, i.e. RX line has been in idle state (normally 
 344:./Libraries/STM32H7xx_HAL_Driver/Src/stm32h7xx_hal_uart_ex.c ****                for 1 frame time, after last received byte.
 345:./Libraries/STM32H7xx_HAL_Driver/Src/stm32h7xx_hal_uart_ex.c ****           (++) RX inactivity detected by RTO, i.e. line has been in idle state
 346:./Libraries/STM32H7xx_HAL_Driver/Src/stm32h7xx_hal_uart_ex.c ****                for a programmable time, after last received byte.
 347:./Libraries/STM32H7xx_HAL_Driver/Src/stm32h7xx_hal_uart_ex.c ****        (+) Detection that a specific character has been received.
 348:./Libraries/STM32H7xx_HAL_Driver/Src/stm32h7xx_hal_uart_ex.c **** 
 349:./Libraries/STM32H7xx_HAL_Driver/Src/stm32h7xx_hal_uart_ex.c ****     (#) There are two mode of transfer:
 350:./Libraries/STM32H7xx_HAL_Driver/Src/stm32h7xx_hal_uart_ex.c ****        (+) Blocking mode: The reception is performed in polling mode, until either expected number 
 351:./Libraries/STM32H7xx_HAL_Driver/Src/stm32h7xx_hal_uart_ex.c ****            or till IDLE event occurs. Reception is handled only during function execution.
 352:./Libraries/STM32H7xx_HAL_Driver/Src/stm32h7xx_hal_uart_ex.c ****            When function exits, no data reception could occur. HAL status and number of actually re
 353:./Libraries/STM32H7xx_HAL_Driver/Src/stm32h7xx_hal_uart_ex.c ****            are returned by function after finishing transfer.
 354:./Libraries/STM32H7xx_HAL_Driver/Src/stm32h7xx_hal_uart_ex.c ****        (+) Non-Blocking mode: The reception is performed using Interrupts or DMA.
 355:./Libraries/STM32H7xx_HAL_Driver/Src/stm32h7xx_hal_uart_ex.c ****            These API's return the HAL status.
 356:./Libraries/STM32H7xx_HAL_Driver/Src/stm32h7xx_hal_uart_ex.c ****            The end of the data processing will be indicated through the
 357:./Libraries/STM32H7xx_HAL_Driver/Src/stm32h7xx_hal_uart_ex.c ****            dedicated UART IRQ when using Interrupt mode or the DMA IRQ when using DMA mode.
 358:./Libraries/STM32H7xx_HAL_Driver/Src/stm32h7xx_hal_uart_ex.c ****            The HAL_UARTEx_RxEventCallback() user callback will be executed during Receive process
 359:./Libraries/STM32H7xx_HAL_Driver/Src/stm32h7xx_hal_uart_ex.c ****            The HAL_UART_ErrorCallback()user callback will be executed when a reception error is det
 360:./Libraries/STM32H7xx_HAL_Driver/Src/stm32h7xx_hal_uart_ex.c **** 
 361:./Libraries/STM32H7xx_HAL_Driver/Src/stm32h7xx_hal_uart_ex.c ****     (#) Blocking mode API:
 362:./Libraries/STM32H7xx_HAL_Driver/Src/stm32h7xx_hal_uart_ex.c ****         (+) HAL_UARTEx_ReceiveToIdle()
 363:./Libraries/STM32H7xx_HAL_Driver/Src/stm32h7xx_hal_uart_ex.c **** 
 364:./Libraries/STM32H7xx_HAL_Driver/Src/stm32h7xx_hal_uart_ex.c ****     (#) Non-Blocking mode API with Interrupt:
 365:./Libraries/STM32H7xx_HAL_Driver/Src/stm32h7xx_hal_uart_ex.c ****         (+) HAL_UARTEx_ReceiveToIdle_IT()
 366:./Libraries/STM32H7xx_HAL_Driver/Src/stm32h7xx_hal_uart_ex.c **** 
 367:./Libraries/STM32H7xx_HAL_Driver/Src/stm32h7xx_hal_uart_ex.c ****     (#) Non-Blocking mode API with DMA:
 368:./Libraries/STM32H7xx_HAL_Driver/Src/stm32h7xx_hal_uart_ex.c ****         (+) HAL_UARTEx_ReceiveToIdle_DMA()
 369:./Libraries/STM32H7xx_HAL_Driver/Src/stm32h7xx_hal_uart_ex.c **** 
 370:./Libraries/STM32H7xx_HAL_Driver/Src/stm32h7xx_hal_uart_ex.c **** @endverbatim
 371:./Libraries/STM32H7xx_HAL_Driver/Src/stm32h7xx_hal_uart_ex.c ****   * @{
 372:./Libraries/STM32H7xx_HAL_Driver/Src/stm32h7xx_hal_uart_ex.c ****   */
ARM GAS  /tmp/ccSKvF4m.s 			page 8


 373:./Libraries/STM32H7xx_HAL_Driver/Src/stm32h7xx_hal_uart_ex.c **** 
 374:./Libraries/STM32H7xx_HAL_Driver/Src/stm32h7xx_hal_uart_ex.c **** /**
 375:./Libraries/STM32H7xx_HAL_Driver/Src/stm32h7xx_hal_uart_ex.c ****   * @brief By default in multiprocessor mode, when the wake up method is set
 376:./Libraries/STM32H7xx_HAL_Driver/Src/stm32h7xx_hal_uart_ex.c ****   *        to address mark, the UART handles only 4-bit long addresses detection;
 377:./Libraries/STM32H7xx_HAL_Driver/Src/stm32h7xx_hal_uart_ex.c ****   *        this API allows to enable longer addresses detection (6-, 7- or 8-bit
 378:./Libraries/STM32H7xx_HAL_Driver/Src/stm32h7xx_hal_uart_ex.c ****   *        long).
 379:./Libraries/STM32H7xx_HAL_Driver/Src/stm32h7xx_hal_uart_ex.c ****   * @note  Addresses detection lengths are: 6-bit address detection in 7-bit data mode,
 380:./Libraries/STM32H7xx_HAL_Driver/Src/stm32h7xx_hal_uart_ex.c ****   *        7-bit address detection in 8-bit data mode, 8-bit address detection in 9-bit data mode.
 381:./Libraries/STM32H7xx_HAL_Driver/Src/stm32h7xx_hal_uart_ex.c ****   * @param huart         UART handle.
 382:./Libraries/STM32H7xx_HAL_Driver/Src/stm32h7xx_hal_uart_ex.c ****   * @param AddressLength This parameter can be one of the following values:
 383:./Libraries/STM32H7xx_HAL_Driver/Src/stm32h7xx_hal_uart_ex.c ****   *          @arg @ref UART_ADDRESS_DETECT_4B 4-bit long address
 384:./Libraries/STM32H7xx_HAL_Driver/Src/stm32h7xx_hal_uart_ex.c ****   *          @arg @ref UART_ADDRESS_DETECT_7B 6-, 7- or 8-bit long address
 385:./Libraries/STM32H7xx_HAL_Driver/Src/stm32h7xx_hal_uart_ex.c ****   * @retval HAL status
 386:./Libraries/STM32H7xx_HAL_Driver/Src/stm32h7xx_hal_uart_ex.c ****   */
 387:./Libraries/STM32H7xx_HAL_Driver/Src/stm32h7xx_hal_uart_ex.c **** HAL_StatusTypeDef HAL_MultiProcessorEx_AddressLength_Set(UART_HandleTypeDef *huart, uint32_t Addres
 388:./Libraries/STM32H7xx_HAL_Driver/Src/stm32h7xx_hal_uart_ex.c **** {
 389:./Libraries/STM32H7xx_HAL_Driver/Src/stm32h7xx_hal_uart_ex.c ****   /* Check the UART handle allocation */
 390:./Libraries/STM32H7xx_HAL_Driver/Src/stm32h7xx_hal_uart_ex.c ****   if (huart == NULL)
 391:./Libraries/STM32H7xx_HAL_Driver/Src/stm32h7xx_hal_uart_ex.c ****   {
 392:./Libraries/STM32H7xx_HAL_Driver/Src/stm32h7xx_hal_uart_ex.c ****     return HAL_ERROR;
 393:./Libraries/STM32H7xx_HAL_Driver/Src/stm32h7xx_hal_uart_ex.c ****   }
 394:./Libraries/STM32H7xx_HAL_Driver/Src/stm32h7xx_hal_uart_ex.c **** 
 395:./Libraries/STM32H7xx_HAL_Driver/Src/stm32h7xx_hal_uart_ex.c ****   /* Check the address length parameter */
 396:./Libraries/STM32H7xx_HAL_Driver/Src/stm32h7xx_hal_uart_ex.c ****   assert_param(IS_UART_ADDRESSLENGTH_DETECT(AddressLength));
 397:./Libraries/STM32H7xx_HAL_Driver/Src/stm32h7xx_hal_uart_ex.c **** 
 398:./Libraries/STM32H7xx_HAL_Driver/Src/stm32h7xx_hal_uart_ex.c ****   huart->gState = HAL_UART_STATE_BUSY;
 399:./Libraries/STM32H7xx_HAL_Driver/Src/stm32h7xx_hal_uart_ex.c **** 
 400:./Libraries/STM32H7xx_HAL_Driver/Src/stm32h7xx_hal_uart_ex.c ****   /* Disable the Peripheral */
 401:./Libraries/STM32H7xx_HAL_Driver/Src/stm32h7xx_hal_uart_ex.c ****   __HAL_UART_DISABLE(huart);
 402:./Libraries/STM32H7xx_HAL_Driver/Src/stm32h7xx_hal_uart_ex.c **** 
 403:./Libraries/STM32H7xx_HAL_Driver/Src/stm32h7xx_hal_uart_ex.c ****   /* Set the address length */
 404:./Libraries/STM32H7xx_HAL_Driver/Src/stm32h7xx_hal_uart_ex.c ****   MODIFY_REG(huart->Instance->CR2, USART_CR2_ADDM7, AddressLength);
 405:./Libraries/STM32H7xx_HAL_Driver/Src/stm32h7xx_hal_uart_ex.c **** 
 406:./Libraries/STM32H7xx_HAL_Driver/Src/stm32h7xx_hal_uart_ex.c ****   /* Enable the Peripheral */
 407:./Libraries/STM32H7xx_HAL_Driver/Src/stm32h7xx_hal_uart_ex.c ****   __HAL_UART_ENABLE(huart);
 408:./Libraries/STM32H7xx_HAL_Driver/Src/stm32h7xx_hal_uart_ex.c **** 
 409:./Libraries/STM32H7xx_HAL_Driver/Src/stm32h7xx_hal_uart_ex.c ****   /* TEACK and/or REACK to check before moving huart->gState to Ready */
 410:./Libraries/STM32H7xx_HAL_Driver/Src/stm32h7xx_hal_uart_ex.c ****   return (UART_CheckIdleState(huart));
 411:./Libraries/STM32H7xx_HAL_Driver/Src/stm32h7xx_hal_uart_ex.c **** }
 412:./Libraries/STM32H7xx_HAL_Driver/Src/stm32h7xx_hal_uart_ex.c **** 
 413:./Libraries/STM32H7xx_HAL_Driver/Src/stm32h7xx_hal_uart_ex.c **** /**
 414:./Libraries/STM32H7xx_HAL_Driver/Src/stm32h7xx_hal_uart_ex.c ****   * @brief Set Wakeup from Stop mode interrupt flag selection.
 415:./Libraries/STM32H7xx_HAL_Driver/Src/stm32h7xx_hal_uart_ex.c ****   * @note It is the application responsibility to enable the interrupt used as
 416:./Libraries/STM32H7xx_HAL_Driver/Src/stm32h7xx_hal_uart_ex.c ****   *       usart_wkup interrupt source before entering low-power mode.
 417:./Libraries/STM32H7xx_HAL_Driver/Src/stm32h7xx_hal_uart_ex.c ****   * @param huart           UART handle.
 418:./Libraries/STM32H7xx_HAL_Driver/Src/stm32h7xx_hal_uart_ex.c ****   * @param WakeUpSelection Address match, Start Bit detection or RXNE/RXFNE bit status.
 419:./Libraries/STM32H7xx_HAL_Driver/Src/stm32h7xx_hal_uart_ex.c ****   *          This parameter can be one of the following values:
 420:./Libraries/STM32H7xx_HAL_Driver/Src/stm32h7xx_hal_uart_ex.c ****   *          @arg @ref UART_WAKEUP_ON_ADDRESS
 421:./Libraries/STM32H7xx_HAL_Driver/Src/stm32h7xx_hal_uart_ex.c ****   *          @arg @ref UART_WAKEUP_ON_STARTBIT
 422:./Libraries/STM32H7xx_HAL_Driver/Src/stm32h7xx_hal_uart_ex.c ****   *          @arg @ref UART_WAKEUP_ON_READDATA_NONEMPTY
 423:./Libraries/STM32H7xx_HAL_Driver/Src/stm32h7xx_hal_uart_ex.c ****   * @retval HAL status
 424:./Libraries/STM32H7xx_HAL_Driver/Src/stm32h7xx_hal_uart_ex.c ****   */
 425:./Libraries/STM32H7xx_HAL_Driver/Src/stm32h7xx_hal_uart_ex.c **** HAL_StatusTypeDef HAL_UARTEx_StopModeWakeUpSourceConfig(UART_HandleTypeDef *huart, UART_WakeUpTypeD
 426:./Libraries/STM32H7xx_HAL_Driver/Src/stm32h7xx_hal_uart_ex.c **** {
 427:./Libraries/STM32H7xx_HAL_Driver/Src/stm32h7xx_hal_uart_ex.c ****   HAL_StatusTypeDef status = HAL_OK;
 428:./Libraries/STM32H7xx_HAL_Driver/Src/stm32h7xx_hal_uart_ex.c ****   uint32_t tickstart;
 429:./Libraries/STM32H7xx_HAL_Driver/Src/stm32h7xx_hal_uart_ex.c **** 
ARM GAS  /tmp/ccSKvF4m.s 			page 9


 430:./Libraries/STM32H7xx_HAL_Driver/Src/stm32h7xx_hal_uart_ex.c ****   /* check the wake-up from stop mode UART instance */
 431:./Libraries/STM32H7xx_HAL_Driver/Src/stm32h7xx_hal_uart_ex.c ****   assert_param(IS_UART_WAKEUP_FROMSTOP_INSTANCE(huart->Instance));
 432:./Libraries/STM32H7xx_HAL_Driver/Src/stm32h7xx_hal_uart_ex.c ****   /* check the wake-up selection parameter */
 433:./Libraries/STM32H7xx_HAL_Driver/Src/stm32h7xx_hal_uart_ex.c ****   assert_param(IS_UART_WAKEUP_SELECTION(WakeUpSelection.WakeUpEvent));
 434:./Libraries/STM32H7xx_HAL_Driver/Src/stm32h7xx_hal_uart_ex.c **** 
 435:./Libraries/STM32H7xx_HAL_Driver/Src/stm32h7xx_hal_uart_ex.c ****   /* Process Locked */
 436:./Libraries/STM32H7xx_HAL_Driver/Src/stm32h7xx_hal_uart_ex.c ****   __HAL_LOCK(huart);
 437:./Libraries/STM32H7xx_HAL_Driver/Src/stm32h7xx_hal_uart_ex.c **** 
 438:./Libraries/STM32H7xx_HAL_Driver/Src/stm32h7xx_hal_uart_ex.c ****   huart->gState = HAL_UART_STATE_BUSY;
 439:./Libraries/STM32H7xx_HAL_Driver/Src/stm32h7xx_hal_uart_ex.c **** 
 440:./Libraries/STM32H7xx_HAL_Driver/Src/stm32h7xx_hal_uart_ex.c ****   /* Disable the Peripheral */
 441:./Libraries/STM32H7xx_HAL_Driver/Src/stm32h7xx_hal_uart_ex.c ****   __HAL_UART_DISABLE(huart);
 442:./Libraries/STM32H7xx_HAL_Driver/Src/stm32h7xx_hal_uart_ex.c **** 
 443:./Libraries/STM32H7xx_HAL_Driver/Src/stm32h7xx_hal_uart_ex.c ****   /* Set the wake-up selection scheme */
 444:./Libraries/STM32H7xx_HAL_Driver/Src/stm32h7xx_hal_uart_ex.c ****   MODIFY_REG(huart->Instance->CR3, USART_CR3_WUS, WakeUpSelection.WakeUpEvent);
 445:./Libraries/STM32H7xx_HAL_Driver/Src/stm32h7xx_hal_uart_ex.c **** 
 446:./Libraries/STM32H7xx_HAL_Driver/Src/stm32h7xx_hal_uart_ex.c ****   if (WakeUpSelection.WakeUpEvent == UART_WAKEUP_ON_ADDRESS)
 447:./Libraries/STM32H7xx_HAL_Driver/Src/stm32h7xx_hal_uart_ex.c ****   {
 448:./Libraries/STM32H7xx_HAL_Driver/Src/stm32h7xx_hal_uart_ex.c ****     UARTEx_Wakeup_AddressConfig(huart, WakeUpSelection);
 449:./Libraries/STM32H7xx_HAL_Driver/Src/stm32h7xx_hal_uart_ex.c ****   }
 450:./Libraries/STM32H7xx_HAL_Driver/Src/stm32h7xx_hal_uart_ex.c **** 
 451:./Libraries/STM32H7xx_HAL_Driver/Src/stm32h7xx_hal_uart_ex.c ****   /* Enable the Peripheral */
 452:./Libraries/STM32H7xx_HAL_Driver/Src/stm32h7xx_hal_uart_ex.c ****   __HAL_UART_ENABLE(huart);
 453:./Libraries/STM32H7xx_HAL_Driver/Src/stm32h7xx_hal_uart_ex.c **** 
 454:./Libraries/STM32H7xx_HAL_Driver/Src/stm32h7xx_hal_uart_ex.c ****   /* Init tickstart for timeout management */
 455:./Libraries/STM32H7xx_HAL_Driver/Src/stm32h7xx_hal_uart_ex.c ****   tickstart = HAL_GetTick();
 456:./Libraries/STM32H7xx_HAL_Driver/Src/stm32h7xx_hal_uart_ex.c **** 
 457:./Libraries/STM32H7xx_HAL_Driver/Src/stm32h7xx_hal_uart_ex.c ****   /* Wait until REACK flag is set */
 458:./Libraries/STM32H7xx_HAL_Driver/Src/stm32h7xx_hal_uart_ex.c ****   if (UART_WaitOnFlagUntilTimeout(huart, USART_ISR_REACK, RESET, tickstart, HAL_UART_TIMEOUT_VALUE)
 459:./Libraries/STM32H7xx_HAL_Driver/Src/stm32h7xx_hal_uart_ex.c ****   {
 460:./Libraries/STM32H7xx_HAL_Driver/Src/stm32h7xx_hal_uart_ex.c ****     status = HAL_TIMEOUT;
 461:./Libraries/STM32H7xx_HAL_Driver/Src/stm32h7xx_hal_uart_ex.c ****   }
 462:./Libraries/STM32H7xx_HAL_Driver/Src/stm32h7xx_hal_uart_ex.c ****   else
 463:./Libraries/STM32H7xx_HAL_Driver/Src/stm32h7xx_hal_uart_ex.c ****   {
 464:./Libraries/STM32H7xx_HAL_Driver/Src/stm32h7xx_hal_uart_ex.c ****     /* Initialize the UART State */
 465:./Libraries/STM32H7xx_HAL_Driver/Src/stm32h7xx_hal_uart_ex.c ****     huart->gState = HAL_UART_STATE_READY;
 466:./Libraries/STM32H7xx_HAL_Driver/Src/stm32h7xx_hal_uart_ex.c ****   }
 467:./Libraries/STM32H7xx_HAL_Driver/Src/stm32h7xx_hal_uart_ex.c **** 
 468:./Libraries/STM32H7xx_HAL_Driver/Src/stm32h7xx_hal_uart_ex.c ****   /* Process Unlocked */
 469:./Libraries/STM32H7xx_HAL_Driver/Src/stm32h7xx_hal_uart_ex.c ****   __HAL_UNLOCK(huart);
 470:./Libraries/STM32H7xx_HAL_Driver/Src/stm32h7xx_hal_uart_ex.c **** 
 471:./Libraries/STM32H7xx_HAL_Driver/Src/stm32h7xx_hal_uart_ex.c ****   return status;
 472:./Libraries/STM32H7xx_HAL_Driver/Src/stm32h7xx_hal_uart_ex.c **** }
 473:./Libraries/STM32H7xx_HAL_Driver/Src/stm32h7xx_hal_uart_ex.c **** 
 474:./Libraries/STM32H7xx_HAL_Driver/Src/stm32h7xx_hal_uart_ex.c **** /**
 475:./Libraries/STM32H7xx_HAL_Driver/Src/stm32h7xx_hal_uart_ex.c ****   * @brief Enable UART Stop Mode.
 476:./Libraries/STM32H7xx_HAL_Driver/Src/stm32h7xx_hal_uart_ex.c ****   * @note The UART is able to wake up the MCU from Stop 1 mode as long as UART clock is HSI or LSE.
 477:./Libraries/STM32H7xx_HAL_Driver/Src/stm32h7xx_hal_uart_ex.c ****   * @param huart UART handle.
 478:./Libraries/STM32H7xx_HAL_Driver/Src/stm32h7xx_hal_uart_ex.c ****   * @retval HAL status
 479:./Libraries/STM32H7xx_HAL_Driver/Src/stm32h7xx_hal_uart_ex.c ****   */
 480:./Libraries/STM32H7xx_HAL_Driver/Src/stm32h7xx_hal_uart_ex.c **** HAL_StatusTypeDef HAL_UARTEx_EnableStopMode(UART_HandleTypeDef *huart)
 481:./Libraries/STM32H7xx_HAL_Driver/Src/stm32h7xx_hal_uart_ex.c **** {
 482:./Libraries/STM32H7xx_HAL_Driver/Src/stm32h7xx_hal_uart_ex.c ****   /* Process Locked */
 483:./Libraries/STM32H7xx_HAL_Driver/Src/stm32h7xx_hal_uart_ex.c ****   __HAL_LOCK(huart);
 484:./Libraries/STM32H7xx_HAL_Driver/Src/stm32h7xx_hal_uart_ex.c **** 
 485:./Libraries/STM32H7xx_HAL_Driver/Src/stm32h7xx_hal_uart_ex.c ****   /* Set UESM bit */
 486:./Libraries/STM32H7xx_HAL_Driver/Src/stm32h7xx_hal_uart_ex.c ****   SET_BIT(huart->Instance->CR1, USART_CR1_UESM);
ARM GAS  /tmp/ccSKvF4m.s 			page 10


 487:./Libraries/STM32H7xx_HAL_Driver/Src/stm32h7xx_hal_uart_ex.c **** 
 488:./Libraries/STM32H7xx_HAL_Driver/Src/stm32h7xx_hal_uart_ex.c ****   /* Process Unlocked */
 489:./Libraries/STM32H7xx_HAL_Driver/Src/stm32h7xx_hal_uart_ex.c ****   __HAL_UNLOCK(huart);
 490:./Libraries/STM32H7xx_HAL_Driver/Src/stm32h7xx_hal_uart_ex.c **** 
 491:./Libraries/STM32H7xx_HAL_Driver/Src/stm32h7xx_hal_uart_ex.c ****   return HAL_OK;
 492:./Libraries/STM32H7xx_HAL_Driver/Src/stm32h7xx_hal_uart_ex.c **** }
 493:./Libraries/STM32H7xx_HAL_Driver/Src/stm32h7xx_hal_uart_ex.c **** 
 494:./Libraries/STM32H7xx_HAL_Driver/Src/stm32h7xx_hal_uart_ex.c **** /**
 495:./Libraries/STM32H7xx_HAL_Driver/Src/stm32h7xx_hal_uart_ex.c ****   * @brief Disable UART Stop Mode.
 496:./Libraries/STM32H7xx_HAL_Driver/Src/stm32h7xx_hal_uart_ex.c ****   * @param huart UART handle.
 497:./Libraries/STM32H7xx_HAL_Driver/Src/stm32h7xx_hal_uart_ex.c ****   * @retval HAL status
 498:./Libraries/STM32H7xx_HAL_Driver/Src/stm32h7xx_hal_uart_ex.c ****   */
 499:./Libraries/STM32H7xx_HAL_Driver/Src/stm32h7xx_hal_uart_ex.c **** HAL_StatusTypeDef HAL_UARTEx_DisableStopMode(UART_HandleTypeDef *huart)
 500:./Libraries/STM32H7xx_HAL_Driver/Src/stm32h7xx_hal_uart_ex.c **** {
 501:./Libraries/STM32H7xx_HAL_Driver/Src/stm32h7xx_hal_uart_ex.c ****   /* Process Locked */
 502:./Libraries/STM32H7xx_HAL_Driver/Src/stm32h7xx_hal_uart_ex.c ****   __HAL_LOCK(huart);
 503:./Libraries/STM32H7xx_HAL_Driver/Src/stm32h7xx_hal_uart_ex.c **** 
 504:./Libraries/STM32H7xx_HAL_Driver/Src/stm32h7xx_hal_uart_ex.c ****   /* Clear UESM bit */
 505:./Libraries/STM32H7xx_HAL_Driver/Src/stm32h7xx_hal_uart_ex.c ****   CLEAR_BIT(huart->Instance->CR1, USART_CR1_UESM);
 506:./Libraries/STM32H7xx_HAL_Driver/Src/stm32h7xx_hal_uart_ex.c **** 
 507:./Libraries/STM32H7xx_HAL_Driver/Src/stm32h7xx_hal_uart_ex.c ****   /* Process Unlocked */
 508:./Libraries/STM32H7xx_HAL_Driver/Src/stm32h7xx_hal_uart_ex.c ****   __HAL_UNLOCK(huart);
 509:./Libraries/STM32H7xx_HAL_Driver/Src/stm32h7xx_hal_uart_ex.c **** 
 510:./Libraries/STM32H7xx_HAL_Driver/Src/stm32h7xx_hal_uart_ex.c ****   return HAL_OK;
 511:./Libraries/STM32H7xx_HAL_Driver/Src/stm32h7xx_hal_uart_ex.c **** }
 512:./Libraries/STM32H7xx_HAL_Driver/Src/stm32h7xx_hal_uart_ex.c **** 
 513:./Libraries/STM32H7xx_HAL_Driver/Src/stm32h7xx_hal_uart_ex.c **** /**
 514:./Libraries/STM32H7xx_HAL_Driver/Src/stm32h7xx_hal_uart_ex.c ****   * @brief  Enable the FIFO mode.
 515:./Libraries/STM32H7xx_HAL_Driver/Src/stm32h7xx_hal_uart_ex.c ****   * @param huart      UART handle.
 516:./Libraries/STM32H7xx_HAL_Driver/Src/stm32h7xx_hal_uart_ex.c ****   * @retval HAL status
 517:./Libraries/STM32H7xx_HAL_Driver/Src/stm32h7xx_hal_uart_ex.c ****   */
 518:./Libraries/STM32H7xx_HAL_Driver/Src/stm32h7xx_hal_uart_ex.c **** HAL_StatusTypeDef HAL_UARTEx_EnableFifoMode(UART_HandleTypeDef *huart)
 519:./Libraries/STM32H7xx_HAL_Driver/Src/stm32h7xx_hal_uart_ex.c **** {
 520:./Libraries/STM32H7xx_HAL_Driver/Src/stm32h7xx_hal_uart_ex.c ****   uint32_t tmpcr1;
 521:./Libraries/STM32H7xx_HAL_Driver/Src/stm32h7xx_hal_uart_ex.c **** 
 522:./Libraries/STM32H7xx_HAL_Driver/Src/stm32h7xx_hal_uart_ex.c ****   /* Check parameters */
 523:./Libraries/STM32H7xx_HAL_Driver/Src/stm32h7xx_hal_uart_ex.c ****   assert_param(IS_UART_FIFO_INSTANCE(huart->Instance));
 524:./Libraries/STM32H7xx_HAL_Driver/Src/stm32h7xx_hal_uart_ex.c **** 
 525:./Libraries/STM32H7xx_HAL_Driver/Src/stm32h7xx_hal_uart_ex.c ****   /* Process Locked */
 526:./Libraries/STM32H7xx_HAL_Driver/Src/stm32h7xx_hal_uart_ex.c ****   __HAL_LOCK(huart);
 527:./Libraries/STM32H7xx_HAL_Driver/Src/stm32h7xx_hal_uart_ex.c **** 
 528:./Libraries/STM32H7xx_HAL_Driver/Src/stm32h7xx_hal_uart_ex.c ****   huart->gState = HAL_UART_STATE_BUSY;
 529:./Libraries/STM32H7xx_HAL_Driver/Src/stm32h7xx_hal_uart_ex.c **** 
 530:./Libraries/STM32H7xx_HAL_Driver/Src/stm32h7xx_hal_uart_ex.c ****   /* Save actual UART configuration */
 531:./Libraries/STM32H7xx_HAL_Driver/Src/stm32h7xx_hal_uart_ex.c ****   tmpcr1 = READ_REG(huart->Instance->CR1);
 532:./Libraries/STM32H7xx_HAL_Driver/Src/stm32h7xx_hal_uart_ex.c **** 
 533:./Libraries/STM32H7xx_HAL_Driver/Src/stm32h7xx_hal_uart_ex.c ****   /* Disable UART */
 534:./Libraries/STM32H7xx_HAL_Driver/Src/stm32h7xx_hal_uart_ex.c ****   __HAL_UART_DISABLE(huart);
 535:./Libraries/STM32H7xx_HAL_Driver/Src/stm32h7xx_hal_uart_ex.c **** 
 536:./Libraries/STM32H7xx_HAL_Driver/Src/stm32h7xx_hal_uart_ex.c ****   /* Enable FIFO mode */
 537:./Libraries/STM32H7xx_HAL_Driver/Src/stm32h7xx_hal_uart_ex.c ****   SET_BIT(tmpcr1, USART_CR1_FIFOEN);
 538:./Libraries/STM32H7xx_HAL_Driver/Src/stm32h7xx_hal_uart_ex.c ****   huart->FifoMode = UART_FIFOMODE_ENABLE;
 539:./Libraries/STM32H7xx_HAL_Driver/Src/stm32h7xx_hal_uart_ex.c **** 
 540:./Libraries/STM32H7xx_HAL_Driver/Src/stm32h7xx_hal_uart_ex.c ****   /* Restore UART configuration */
 541:./Libraries/STM32H7xx_HAL_Driver/Src/stm32h7xx_hal_uart_ex.c ****   WRITE_REG(huart->Instance->CR1, tmpcr1);
 542:./Libraries/STM32H7xx_HAL_Driver/Src/stm32h7xx_hal_uart_ex.c **** 
 543:./Libraries/STM32H7xx_HAL_Driver/Src/stm32h7xx_hal_uart_ex.c ****   /* Determine the number of data to process during RX/TX ISR execution */
ARM GAS  /tmp/ccSKvF4m.s 			page 11


 544:./Libraries/STM32H7xx_HAL_Driver/Src/stm32h7xx_hal_uart_ex.c ****   UARTEx_SetNbDataToProcess(huart);
 545:./Libraries/STM32H7xx_HAL_Driver/Src/stm32h7xx_hal_uart_ex.c **** 
 546:./Libraries/STM32H7xx_HAL_Driver/Src/stm32h7xx_hal_uart_ex.c ****   huart->gState = HAL_UART_STATE_READY;
 547:./Libraries/STM32H7xx_HAL_Driver/Src/stm32h7xx_hal_uart_ex.c **** 
 548:./Libraries/STM32H7xx_HAL_Driver/Src/stm32h7xx_hal_uart_ex.c ****   /* Process Unlocked */
 549:./Libraries/STM32H7xx_HAL_Driver/Src/stm32h7xx_hal_uart_ex.c ****   __HAL_UNLOCK(huart);
 550:./Libraries/STM32H7xx_HAL_Driver/Src/stm32h7xx_hal_uart_ex.c **** 
 551:./Libraries/STM32H7xx_HAL_Driver/Src/stm32h7xx_hal_uart_ex.c ****   return HAL_OK;
 552:./Libraries/STM32H7xx_HAL_Driver/Src/stm32h7xx_hal_uart_ex.c **** }
 553:./Libraries/STM32H7xx_HAL_Driver/Src/stm32h7xx_hal_uart_ex.c **** 
 554:./Libraries/STM32H7xx_HAL_Driver/Src/stm32h7xx_hal_uart_ex.c **** /**
 555:./Libraries/STM32H7xx_HAL_Driver/Src/stm32h7xx_hal_uart_ex.c ****   * @brief  Disable the FIFO mode.
 556:./Libraries/STM32H7xx_HAL_Driver/Src/stm32h7xx_hal_uart_ex.c ****   * @param huart      UART handle.
 557:./Libraries/STM32H7xx_HAL_Driver/Src/stm32h7xx_hal_uart_ex.c ****   * @retval HAL status
 558:./Libraries/STM32H7xx_HAL_Driver/Src/stm32h7xx_hal_uart_ex.c ****   */
 559:./Libraries/STM32H7xx_HAL_Driver/Src/stm32h7xx_hal_uart_ex.c **** HAL_StatusTypeDef HAL_UARTEx_DisableFifoMode(UART_HandleTypeDef *huart)
 560:./Libraries/STM32H7xx_HAL_Driver/Src/stm32h7xx_hal_uart_ex.c **** {
 561:./Libraries/STM32H7xx_HAL_Driver/Src/stm32h7xx_hal_uart_ex.c ****   uint32_t tmpcr1;
 562:./Libraries/STM32H7xx_HAL_Driver/Src/stm32h7xx_hal_uart_ex.c **** 
 563:./Libraries/STM32H7xx_HAL_Driver/Src/stm32h7xx_hal_uart_ex.c ****   /* Check parameters */
 564:./Libraries/STM32H7xx_HAL_Driver/Src/stm32h7xx_hal_uart_ex.c ****   assert_param(IS_UART_FIFO_INSTANCE(huart->Instance));
 565:./Libraries/STM32H7xx_HAL_Driver/Src/stm32h7xx_hal_uart_ex.c **** 
 566:./Libraries/STM32H7xx_HAL_Driver/Src/stm32h7xx_hal_uart_ex.c ****   /* Process Locked */
 567:./Libraries/STM32H7xx_HAL_Driver/Src/stm32h7xx_hal_uart_ex.c ****   __HAL_LOCK(huart);
 568:./Libraries/STM32H7xx_HAL_Driver/Src/stm32h7xx_hal_uart_ex.c **** 
 569:./Libraries/STM32H7xx_HAL_Driver/Src/stm32h7xx_hal_uart_ex.c ****   huart->gState = HAL_UART_STATE_BUSY;
 570:./Libraries/STM32H7xx_HAL_Driver/Src/stm32h7xx_hal_uart_ex.c **** 
 571:./Libraries/STM32H7xx_HAL_Driver/Src/stm32h7xx_hal_uart_ex.c ****   /* Save actual UART configuration */
 572:./Libraries/STM32H7xx_HAL_Driver/Src/stm32h7xx_hal_uart_ex.c ****   tmpcr1 = READ_REG(huart->Instance->CR1);
 573:./Libraries/STM32H7xx_HAL_Driver/Src/stm32h7xx_hal_uart_ex.c **** 
 574:./Libraries/STM32H7xx_HAL_Driver/Src/stm32h7xx_hal_uart_ex.c ****   /* Disable UART */
 575:./Libraries/STM32H7xx_HAL_Driver/Src/stm32h7xx_hal_uart_ex.c ****   __HAL_UART_DISABLE(huart);
 576:./Libraries/STM32H7xx_HAL_Driver/Src/stm32h7xx_hal_uart_ex.c **** 
 577:./Libraries/STM32H7xx_HAL_Driver/Src/stm32h7xx_hal_uart_ex.c ****   /* Enable FIFO mode */
 578:./Libraries/STM32H7xx_HAL_Driver/Src/stm32h7xx_hal_uart_ex.c ****   CLEAR_BIT(tmpcr1, USART_CR1_FIFOEN);
 579:./Libraries/STM32H7xx_HAL_Driver/Src/stm32h7xx_hal_uart_ex.c ****   huart->FifoMode = UART_FIFOMODE_DISABLE;
 580:./Libraries/STM32H7xx_HAL_Driver/Src/stm32h7xx_hal_uart_ex.c **** 
 581:./Libraries/STM32H7xx_HAL_Driver/Src/stm32h7xx_hal_uart_ex.c ****   /* Restore UART configuration */
 582:./Libraries/STM32H7xx_HAL_Driver/Src/stm32h7xx_hal_uart_ex.c ****   WRITE_REG(huart->Instance->CR1, tmpcr1);
 583:./Libraries/STM32H7xx_HAL_Driver/Src/stm32h7xx_hal_uart_ex.c **** 
 584:./Libraries/STM32H7xx_HAL_Driver/Src/stm32h7xx_hal_uart_ex.c ****   huart->gState = HAL_UART_STATE_READY;
 585:./Libraries/STM32H7xx_HAL_Driver/Src/stm32h7xx_hal_uart_ex.c **** 
 586:./Libraries/STM32H7xx_HAL_Driver/Src/stm32h7xx_hal_uart_ex.c ****   /* Process Unlocked */
 587:./Libraries/STM32H7xx_HAL_Driver/Src/stm32h7xx_hal_uart_ex.c ****   __HAL_UNLOCK(huart);
 588:./Libraries/STM32H7xx_HAL_Driver/Src/stm32h7xx_hal_uart_ex.c **** 
 589:./Libraries/STM32H7xx_HAL_Driver/Src/stm32h7xx_hal_uart_ex.c ****   return HAL_OK;
 590:./Libraries/STM32H7xx_HAL_Driver/Src/stm32h7xx_hal_uart_ex.c **** }
 591:./Libraries/STM32H7xx_HAL_Driver/Src/stm32h7xx_hal_uart_ex.c **** 
 592:./Libraries/STM32H7xx_HAL_Driver/Src/stm32h7xx_hal_uart_ex.c **** /**
 593:./Libraries/STM32H7xx_HAL_Driver/Src/stm32h7xx_hal_uart_ex.c ****   * @brief  Set the TXFIFO threshold.
 594:./Libraries/STM32H7xx_HAL_Driver/Src/stm32h7xx_hal_uart_ex.c ****   * @param huart      UART handle.
 595:./Libraries/STM32H7xx_HAL_Driver/Src/stm32h7xx_hal_uart_ex.c ****   * @param Threshold  TX FIFO threshold value
 596:./Libraries/STM32H7xx_HAL_Driver/Src/stm32h7xx_hal_uart_ex.c ****   *          This parameter can be one of the following values:
 597:./Libraries/STM32H7xx_HAL_Driver/Src/stm32h7xx_hal_uart_ex.c ****   *            @arg @ref UART_TXFIFO_THRESHOLD_1_8
 598:./Libraries/STM32H7xx_HAL_Driver/Src/stm32h7xx_hal_uart_ex.c ****   *            @arg @ref UART_TXFIFO_THRESHOLD_1_4
 599:./Libraries/STM32H7xx_HAL_Driver/Src/stm32h7xx_hal_uart_ex.c ****   *            @arg @ref UART_TXFIFO_THRESHOLD_1_2
 600:./Libraries/STM32H7xx_HAL_Driver/Src/stm32h7xx_hal_uart_ex.c ****   *            @arg @ref UART_TXFIFO_THRESHOLD_3_4
ARM GAS  /tmp/ccSKvF4m.s 			page 12


 601:./Libraries/STM32H7xx_HAL_Driver/Src/stm32h7xx_hal_uart_ex.c ****   *            @arg @ref UART_TXFIFO_THRESHOLD_7_8
 602:./Libraries/STM32H7xx_HAL_Driver/Src/stm32h7xx_hal_uart_ex.c ****   *            @arg @ref UART_TXFIFO_THRESHOLD_8_8
 603:./Libraries/STM32H7xx_HAL_Driver/Src/stm32h7xx_hal_uart_ex.c ****   * @retval HAL status
 604:./Libraries/STM32H7xx_HAL_Driver/Src/stm32h7xx_hal_uart_ex.c ****   */
 605:./Libraries/STM32H7xx_HAL_Driver/Src/stm32h7xx_hal_uart_ex.c **** HAL_StatusTypeDef HAL_UARTEx_SetTxFifoThreshold(UART_HandleTypeDef *huart, uint32_t Threshold)
 606:./Libraries/STM32H7xx_HAL_Driver/Src/stm32h7xx_hal_uart_ex.c **** {
 607:./Libraries/STM32H7xx_HAL_Driver/Src/stm32h7xx_hal_uart_ex.c ****   uint32_t tmpcr1;
 608:./Libraries/STM32H7xx_HAL_Driver/Src/stm32h7xx_hal_uart_ex.c **** 
 609:./Libraries/STM32H7xx_HAL_Driver/Src/stm32h7xx_hal_uart_ex.c ****   /* Check parameters */
 610:./Libraries/STM32H7xx_HAL_Driver/Src/stm32h7xx_hal_uart_ex.c ****   assert_param(IS_UART_FIFO_INSTANCE(huart->Instance));
 611:./Libraries/STM32H7xx_HAL_Driver/Src/stm32h7xx_hal_uart_ex.c ****   assert_param(IS_UART_TXFIFO_THRESHOLD(Threshold));
 612:./Libraries/STM32H7xx_HAL_Driver/Src/stm32h7xx_hal_uart_ex.c **** 
 613:./Libraries/STM32H7xx_HAL_Driver/Src/stm32h7xx_hal_uart_ex.c ****   /* Process Locked */
 614:./Libraries/STM32H7xx_HAL_Driver/Src/stm32h7xx_hal_uart_ex.c ****   __HAL_LOCK(huart);
 615:./Libraries/STM32H7xx_HAL_Driver/Src/stm32h7xx_hal_uart_ex.c **** 
 616:./Libraries/STM32H7xx_HAL_Driver/Src/stm32h7xx_hal_uart_ex.c ****   huart->gState = HAL_UART_STATE_BUSY;
 617:./Libraries/STM32H7xx_HAL_Driver/Src/stm32h7xx_hal_uart_ex.c **** 
 618:./Libraries/STM32H7xx_HAL_Driver/Src/stm32h7xx_hal_uart_ex.c ****   /* Save actual UART configuration */
 619:./Libraries/STM32H7xx_HAL_Driver/Src/stm32h7xx_hal_uart_ex.c ****   tmpcr1 = READ_REG(huart->Instance->CR1);
 620:./Libraries/STM32H7xx_HAL_Driver/Src/stm32h7xx_hal_uart_ex.c **** 
 621:./Libraries/STM32H7xx_HAL_Driver/Src/stm32h7xx_hal_uart_ex.c ****   /* Disable UART */
 622:./Libraries/STM32H7xx_HAL_Driver/Src/stm32h7xx_hal_uart_ex.c ****   __HAL_UART_DISABLE(huart);
 623:./Libraries/STM32H7xx_HAL_Driver/Src/stm32h7xx_hal_uart_ex.c **** 
 624:./Libraries/STM32H7xx_HAL_Driver/Src/stm32h7xx_hal_uart_ex.c ****   /* Update TX threshold configuration */
 625:./Libraries/STM32H7xx_HAL_Driver/Src/stm32h7xx_hal_uart_ex.c ****   MODIFY_REG(huart->Instance->CR3, USART_CR3_TXFTCFG, Threshold);
 626:./Libraries/STM32H7xx_HAL_Driver/Src/stm32h7xx_hal_uart_ex.c **** 
 627:./Libraries/STM32H7xx_HAL_Driver/Src/stm32h7xx_hal_uart_ex.c ****   /* Determine the number of data to process during RX/TX ISR execution */
 628:./Libraries/STM32H7xx_HAL_Driver/Src/stm32h7xx_hal_uart_ex.c ****   UARTEx_SetNbDataToProcess(huart);
 629:./Libraries/STM32H7xx_HAL_Driver/Src/stm32h7xx_hal_uart_ex.c **** 
 630:./Libraries/STM32H7xx_HAL_Driver/Src/stm32h7xx_hal_uart_ex.c ****   /* Restore UART configuration */
 631:./Libraries/STM32H7xx_HAL_Driver/Src/stm32h7xx_hal_uart_ex.c ****   WRITE_REG(huart->Instance->CR1, tmpcr1);
 632:./Libraries/STM32H7xx_HAL_Driver/Src/stm32h7xx_hal_uart_ex.c **** 
 633:./Libraries/STM32H7xx_HAL_Driver/Src/stm32h7xx_hal_uart_ex.c ****   huart->gState = HAL_UART_STATE_READY;
 634:./Libraries/STM32H7xx_HAL_Driver/Src/stm32h7xx_hal_uart_ex.c **** 
 635:./Libraries/STM32H7xx_HAL_Driver/Src/stm32h7xx_hal_uart_ex.c ****   /* Process Unlocked */
 636:./Libraries/STM32H7xx_HAL_Driver/Src/stm32h7xx_hal_uart_ex.c ****   __HAL_UNLOCK(huart);
 637:./Libraries/STM32H7xx_HAL_Driver/Src/stm32h7xx_hal_uart_ex.c **** 
 638:./Libraries/STM32H7xx_HAL_Driver/Src/stm32h7xx_hal_uart_ex.c ****   return HAL_OK;
 639:./Libraries/STM32H7xx_HAL_Driver/Src/stm32h7xx_hal_uart_ex.c **** }
 640:./Libraries/STM32H7xx_HAL_Driver/Src/stm32h7xx_hal_uart_ex.c **** 
 641:./Libraries/STM32H7xx_HAL_Driver/Src/stm32h7xx_hal_uart_ex.c **** /**
 642:./Libraries/STM32H7xx_HAL_Driver/Src/stm32h7xx_hal_uart_ex.c ****   * @brief  Set the RXFIFO threshold.
 643:./Libraries/STM32H7xx_HAL_Driver/Src/stm32h7xx_hal_uart_ex.c ****   * @param huart      UART handle.
 644:./Libraries/STM32H7xx_HAL_Driver/Src/stm32h7xx_hal_uart_ex.c ****   * @param Threshold  RX FIFO threshold value
 645:./Libraries/STM32H7xx_HAL_Driver/Src/stm32h7xx_hal_uart_ex.c ****   *          This parameter can be one of the following values:
 646:./Libraries/STM32H7xx_HAL_Driver/Src/stm32h7xx_hal_uart_ex.c ****   *            @arg @ref UART_RXFIFO_THRESHOLD_1_8
 647:./Libraries/STM32H7xx_HAL_Driver/Src/stm32h7xx_hal_uart_ex.c ****   *            @arg @ref UART_RXFIFO_THRESHOLD_1_4
 648:./Libraries/STM32H7xx_HAL_Driver/Src/stm32h7xx_hal_uart_ex.c ****   *            @arg @ref UART_RXFIFO_THRESHOLD_1_2
 649:./Libraries/STM32H7xx_HAL_Driver/Src/stm32h7xx_hal_uart_ex.c ****   *            @arg @ref UART_RXFIFO_THRESHOLD_3_4
 650:./Libraries/STM32H7xx_HAL_Driver/Src/stm32h7xx_hal_uart_ex.c ****   *            @arg @ref UART_RXFIFO_THRESHOLD_7_8
 651:./Libraries/STM32H7xx_HAL_Driver/Src/stm32h7xx_hal_uart_ex.c ****   *            @arg @ref UART_RXFIFO_THRESHOLD_8_8
 652:./Libraries/STM32H7xx_HAL_Driver/Src/stm32h7xx_hal_uart_ex.c ****   * @retval HAL status
 653:./Libraries/STM32H7xx_HAL_Driver/Src/stm32h7xx_hal_uart_ex.c ****   */
 654:./Libraries/STM32H7xx_HAL_Driver/Src/stm32h7xx_hal_uart_ex.c **** HAL_StatusTypeDef HAL_UARTEx_SetRxFifoThreshold(UART_HandleTypeDef *huart, uint32_t Threshold)
 655:./Libraries/STM32H7xx_HAL_Driver/Src/stm32h7xx_hal_uart_ex.c **** {
 656:./Libraries/STM32H7xx_HAL_Driver/Src/stm32h7xx_hal_uart_ex.c ****   uint32_t tmpcr1;
 657:./Libraries/STM32H7xx_HAL_Driver/Src/stm32h7xx_hal_uart_ex.c **** 
ARM GAS  /tmp/ccSKvF4m.s 			page 13


 658:./Libraries/STM32H7xx_HAL_Driver/Src/stm32h7xx_hal_uart_ex.c ****   /* Check the parameters */
 659:./Libraries/STM32H7xx_HAL_Driver/Src/stm32h7xx_hal_uart_ex.c ****   assert_param(IS_UART_FIFO_INSTANCE(huart->Instance));
 660:./Libraries/STM32H7xx_HAL_Driver/Src/stm32h7xx_hal_uart_ex.c ****   assert_param(IS_UART_RXFIFO_THRESHOLD(Threshold));
 661:./Libraries/STM32H7xx_HAL_Driver/Src/stm32h7xx_hal_uart_ex.c **** 
 662:./Libraries/STM32H7xx_HAL_Driver/Src/stm32h7xx_hal_uart_ex.c ****   /* Process Locked */
 663:./Libraries/STM32H7xx_HAL_Driver/Src/stm32h7xx_hal_uart_ex.c ****   __HAL_LOCK(huart);
 664:./Libraries/STM32H7xx_HAL_Driver/Src/stm32h7xx_hal_uart_ex.c **** 
 665:./Libraries/STM32H7xx_HAL_Driver/Src/stm32h7xx_hal_uart_ex.c ****   huart->gState = HAL_UART_STATE_BUSY;
 666:./Libraries/STM32H7xx_HAL_Driver/Src/stm32h7xx_hal_uart_ex.c **** 
 667:./Libraries/STM32H7xx_HAL_Driver/Src/stm32h7xx_hal_uart_ex.c ****   /* Save actual UART configuration */
 668:./Libraries/STM32H7xx_HAL_Driver/Src/stm32h7xx_hal_uart_ex.c ****   tmpcr1 = READ_REG(huart->Instance->CR1);
 669:./Libraries/STM32H7xx_HAL_Driver/Src/stm32h7xx_hal_uart_ex.c **** 
 670:./Libraries/STM32H7xx_HAL_Driver/Src/stm32h7xx_hal_uart_ex.c ****   /* Disable UART */
 671:./Libraries/STM32H7xx_HAL_Driver/Src/stm32h7xx_hal_uart_ex.c ****   __HAL_UART_DISABLE(huart);
 672:./Libraries/STM32H7xx_HAL_Driver/Src/stm32h7xx_hal_uart_ex.c **** 
 673:./Libraries/STM32H7xx_HAL_Driver/Src/stm32h7xx_hal_uart_ex.c ****   /* Update RX threshold configuration */
 674:./Libraries/STM32H7xx_HAL_Driver/Src/stm32h7xx_hal_uart_ex.c ****   MODIFY_REG(huart->Instance->CR3, USART_CR3_RXFTCFG, Threshold);
 675:./Libraries/STM32H7xx_HAL_Driver/Src/stm32h7xx_hal_uart_ex.c **** 
 676:./Libraries/STM32H7xx_HAL_Driver/Src/stm32h7xx_hal_uart_ex.c ****   /* Determine the number of data to process during RX/TX ISR execution */
 677:./Libraries/STM32H7xx_HAL_Driver/Src/stm32h7xx_hal_uart_ex.c ****   UARTEx_SetNbDataToProcess(huart);
 678:./Libraries/STM32H7xx_HAL_Driver/Src/stm32h7xx_hal_uart_ex.c **** 
 679:./Libraries/STM32H7xx_HAL_Driver/Src/stm32h7xx_hal_uart_ex.c ****   /* Restore UART configuration */
 680:./Libraries/STM32H7xx_HAL_Driver/Src/stm32h7xx_hal_uart_ex.c ****   WRITE_REG(huart->Instance->CR1, tmpcr1);
 681:./Libraries/STM32H7xx_HAL_Driver/Src/stm32h7xx_hal_uart_ex.c **** 
 682:./Libraries/STM32H7xx_HAL_Driver/Src/stm32h7xx_hal_uart_ex.c ****   huart->gState = HAL_UART_STATE_READY;
 683:./Libraries/STM32H7xx_HAL_Driver/Src/stm32h7xx_hal_uart_ex.c **** 
 684:./Libraries/STM32H7xx_HAL_Driver/Src/stm32h7xx_hal_uart_ex.c ****   /* Process Unlocked */
 685:./Libraries/STM32H7xx_HAL_Driver/Src/stm32h7xx_hal_uart_ex.c ****   __HAL_UNLOCK(huart);
 686:./Libraries/STM32H7xx_HAL_Driver/Src/stm32h7xx_hal_uart_ex.c **** 
 687:./Libraries/STM32H7xx_HAL_Driver/Src/stm32h7xx_hal_uart_ex.c ****   return HAL_OK;
 688:./Libraries/STM32H7xx_HAL_Driver/Src/stm32h7xx_hal_uart_ex.c **** }
 689:./Libraries/STM32H7xx_HAL_Driver/Src/stm32h7xx_hal_uart_ex.c **** 
 690:./Libraries/STM32H7xx_HAL_Driver/Src/stm32h7xx_hal_uart_ex.c **** /**
 691:./Libraries/STM32H7xx_HAL_Driver/Src/stm32h7xx_hal_uart_ex.c ****   * @brief Receive an amount of data in blocking mode till either the expected number of data
 692:./Libraries/STM32H7xx_HAL_Driver/Src/stm32h7xx_hal_uart_ex.c ****   *        is received or an IDLE event occurs.
 693:./Libraries/STM32H7xx_HAL_Driver/Src/stm32h7xx_hal_uart_ex.c ****   * @note  HAL_OK is returned if reception is completed (expected number of data has been received)
 694:./Libraries/STM32H7xx_HAL_Driver/Src/stm32h7xx_hal_uart_ex.c ****   *        or if reception is stopped after IDLE event (less than the expected number of data has b
 695:./Libraries/STM32H7xx_HAL_Driver/Src/stm32h7xx_hal_uart_ex.c ****   *        In this case, RxLen output parameter indicates number of data available in reception buf
 696:./Libraries/STM32H7xx_HAL_Driver/Src/stm32h7xx_hal_uart_ex.c ****   * @note  When UART parity is not enabled (PCE = 0), and Word Length is configured to 9 bits (M1-M
 697:./Libraries/STM32H7xx_HAL_Driver/Src/stm32h7xx_hal_uart_ex.c ****   *        the received data is handled as a set of uint16_t. In this case, Size must indicate the 
 698:./Libraries/STM32H7xx_HAL_Driver/Src/stm32h7xx_hal_uart_ex.c ****   *        of uint16_t available through pData.
 699:./Libraries/STM32H7xx_HAL_Driver/Src/stm32h7xx_hal_uart_ex.c ****   * @note When FIFO mode is enabled, the RXFNE flag is set as long as the RXFIFO
 700:./Libraries/STM32H7xx_HAL_Driver/Src/stm32h7xx_hal_uart_ex.c ****   *       is not empty. Read operations from the RDR register are performed when
 701:./Libraries/STM32H7xx_HAL_Driver/Src/stm32h7xx_hal_uart_ex.c ****   *       RXFNE flag is set. From hardware perspective, RXFNE flag and
 702:./Libraries/STM32H7xx_HAL_Driver/Src/stm32h7xx_hal_uart_ex.c ****   *       RXNE are mapped on the same bit-field.
 703:./Libraries/STM32H7xx_HAL_Driver/Src/stm32h7xx_hal_uart_ex.c ****   * @param huart   UART handle.
 704:./Libraries/STM32H7xx_HAL_Driver/Src/stm32h7xx_hal_uart_ex.c ****   * @param pData   Pointer to data buffer (uint8_t or uint16_t data elements).
 705:./Libraries/STM32H7xx_HAL_Driver/Src/stm32h7xx_hal_uart_ex.c ****   * @param Size    Amount of data elements (uint8_t or uint16_t) to be received.
 706:./Libraries/STM32H7xx_HAL_Driver/Src/stm32h7xx_hal_uart_ex.c ****   * @param RxLen   Number of data elements finally received
 707:./Libraries/STM32H7xx_HAL_Driver/Src/stm32h7xx_hal_uart_ex.c ****   *                (could be lower than Size, in case reception ends on IDLE event)
 708:./Libraries/STM32H7xx_HAL_Driver/Src/stm32h7xx_hal_uart_ex.c ****   * @param Timeout Timeout duration expressed in ms (covers the whole reception sequence).
 709:./Libraries/STM32H7xx_HAL_Driver/Src/stm32h7xx_hal_uart_ex.c ****   * @retval HAL status
 710:./Libraries/STM32H7xx_HAL_Driver/Src/stm32h7xx_hal_uart_ex.c ****   */
 711:./Libraries/STM32H7xx_HAL_Driver/Src/stm32h7xx_hal_uart_ex.c **** HAL_StatusTypeDef HAL_UARTEx_ReceiveToIdle(UART_HandleTypeDef *huart, uint8_t *pData, uint16_t Size
 712:./Libraries/STM32H7xx_HAL_Driver/Src/stm32h7xx_hal_uart_ex.c ****                                            uint32_t Timeout)
 713:./Libraries/STM32H7xx_HAL_Driver/Src/stm32h7xx_hal_uart_ex.c **** {
 714:./Libraries/STM32H7xx_HAL_Driver/Src/stm32h7xx_hal_uart_ex.c ****   uint8_t  *pdata8bits;
ARM GAS  /tmp/ccSKvF4m.s 			page 14


 715:./Libraries/STM32H7xx_HAL_Driver/Src/stm32h7xx_hal_uart_ex.c ****   uint16_t *pdata16bits;
 716:./Libraries/STM32H7xx_HAL_Driver/Src/stm32h7xx_hal_uart_ex.c ****   uint16_t uhMask;
 717:./Libraries/STM32H7xx_HAL_Driver/Src/stm32h7xx_hal_uart_ex.c ****   uint32_t tickstart;
 718:./Libraries/STM32H7xx_HAL_Driver/Src/stm32h7xx_hal_uart_ex.c **** 
 719:./Libraries/STM32H7xx_HAL_Driver/Src/stm32h7xx_hal_uart_ex.c ****   /* Check that a Rx process is not already ongoing */
 720:./Libraries/STM32H7xx_HAL_Driver/Src/stm32h7xx_hal_uart_ex.c ****   if (huart->RxState == HAL_UART_STATE_READY)
 721:./Libraries/STM32H7xx_HAL_Driver/Src/stm32h7xx_hal_uart_ex.c ****   {
 722:./Libraries/STM32H7xx_HAL_Driver/Src/stm32h7xx_hal_uart_ex.c ****     if ((pData == NULL) || (Size == 0U))
 723:./Libraries/STM32H7xx_HAL_Driver/Src/stm32h7xx_hal_uart_ex.c ****     {
 724:./Libraries/STM32H7xx_HAL_Driver/Src/stm32h7xx_hal_uart_ex.c ****       return  HAL_ERROR;
 725:./Libraries/STM32H7xx_HAL_Driver/Src/stm32h7xx_hal_uart_ex.c ****     }
 726:./Libraries/STM32H7xx_HAL_Driver/Src/stm32h7xx_hal_uart_ex.c **** 
 727:./Libraries/STM32H7xx_HAL_Driver/Src/stm32h7xx_hal_uart_ex.c ****     __HAL_LOCK(huart);
 728:./Libraries/STM32H7xx_HAL_Driver/Src/stm32h7xx_hal_uart_ex.c **** 
 729:./Libraries/STM32H7xx_HAL_Driver/Src/stm32h7xx_hal_uart_ex.c ****     huart->ErrorCode = HAL_UART_ERROR_NONE;
 730:./Libraries/STM32H7xx_HAL_Driver/Src/stm32h7xx_hal_uart_ex.c ****     huart->RxState = HAL_UART_STATE_BUSY_RX;
 731:./Libraries/STM32H7xx_HAL_Driver/Src/stm32h7xx_hal_uart_ex.c ****     huart->ReceptionType = HAL_UART_RECEPTION_TOIDLE;
 732:./Libraries/STM32H7xx_HAL_Driver/Src/stm32h7xx_hal_uart_ex.c **** 
 733:./Libraries/STM32H7xx_HAL_Driver/Src/stm32h7xx_hal_uart_ex.c ****     /* Init tickstart for timeout management */
 734:./Libraries/STM32H7xx_HAL_Driver/Src/stm32h7xx_hal_uart_ex.c ****     tickstart = HAL_GetTick();
 735:./Libraries/STM32H7xx_HAL_Driver/Src/stm32h7xx_hal_uart_ex.c **** 
 736:./Libraries/STM32H7xx_HAL_Driver/Src/stm32h7xx_hal_uart_ex.c ****     huart->RxXferSize  = Size;
 737:./Libraries/STM32H7xx_HAL_Driver/Src/stm32h7xx_hal_uart_ex.c ****     huart->RxXferCount = Size;
 738:./Libraries/STM32H7xx_HAL_Driver/Src/stm32h7xx_hal_uart_ex.c **** 
 739:./Libraries/STM32H7xx_HAL_Driver/Src/stm32h7xx_hal_uart_ex.c ****     /* Computation of UART mask to apply to RDR register */
 740:./Libraries/STM32H7xx_HAL_Driver/Src/stm32h7xx_hal_uart_ex.c ****     UART_MASK_COMPUTATION(huart);
 741:./Libraries/STM32H7xx_HAL_Driver/Src/stm32h7xx_hal_uart_ex.c ****     uhMask = huart->Mask;
 742:./Libraries/STM32H7xx_HAL_Driver/Src/stm32h7xx_hal_uart_ex.c **** 
 743:./Libraries/STM32H7xx_HAL_Driver/Src/stm32h7xx_hal_uart_ex.c ****     /* In case of 9bits/No Parity transfer, pRxData needs to be handled as a uint16_t pointer */
 744:./Libraries/STM32H7xx_HAL_Driver/Src/stm32h7xx_hal_uart_ex.c ****     if ((huart->Init.WordLength == UART_WORDLENGTH_9B) && (huart->Init.Parity == UART_PARITY_NONE))
 745:./Libraries/STM32H7xx_HAL_Driver/Src/stm32h7xx_hal_uart_ex.c ****     {
 746:./Libraries/STM32H7xx_HAL_Driver/Src/stm32h7xx_hal_uart_ex.c ****       pdata8bits  = NULL;
 747:./Libraries/STM32H7xx_HAL_Driver/Src/stm32h7xx_hal_uart_ex.c ****       pdata16bits = (uint16_t *) pData;
 748:./Libraries/STM32H7xx_HAL_Driver/Src/stm32h7xx_hal_uart_ex.c ****     }
 749:./Libraries/STM32H7xx_HAL_Driver/Src/stm32h7xx_hal_uart_ex.c ****     else
 750:./Libraries/STM32H7xx_HAL_Driver/Src/stm32h7xx_hal_uart_ex.c ****     {
 751:./Libraries/STM32H7xx_HAL_Driver/Src/stm32h7xx_hal_uart_ex.c ****       pdata8bits  = pData;
 752:./Libraries/STM32H7xx_HAL_Driver/Src/stm32h7xx_hal_uart_ex.c ****       pdata16bits = NULL;
 753:./Libraries/STM32H7xx_HAL_Driver/Src/stm32h7xx_hal_uart_ex.c ****     }
 754:./Libraries/STM32H7xx_HAL_Driver/Src/stm32h7xx_hal_uart_ex.c **** 
 755:./Libraries/STM32H7xx_HAL_Driver/Src/stm32h7xx_hal_uart_ex.c ****     __HAL_UNLOCK(huart);
 756:./Libraries/STM32H7xx_HAL_Driver/Src/stm32h7xx_hal_uart_ex.c **** 
 757:./Libraries/STM32H7xx_HAL_Driver/Src/stm32h7xx_hal_uart_ex.c ****     /* Initialize output number of received elements */
 758:./Libraries/STM32H7xx_HAL_Driver/Src/stm32h7xx_hal_uart_ex.c ****     *RxLen = 0U;
 759:./Libraries/STM32H7xx_HAL_Driver/Src/stm32h7xx_hal_uart_ex.c **** 
 760:./Libraries/STM32H7xx_HAL_Driver/Src/stm32h7xx_hal_uart_ex.c ****     /* as long as data have to be received */
 761:./Libraries/STM32H7xx_HAL_Driver/Src/stm32h7xx_hal_uart_ex.c ****     while (huart->RxXferCount > 0U)
 762:./Libraries/STM32H7xx_HAL_Driver/Src/stm32h7xx_hal_uart_ex.c ****     {
 763:./Libraries/STM32H7xx_HAL_Driver/Src/stm32h7xx_hal_uart_ex.c ****       /* Check if IDLE flag is set */
 764:./Libraries/STM32H7xx_HAL_Driver/Src/stm32h7xx_hal_uart_ex.c ****       if (__HAL_UART_GET_FLAG(huart, UART_FLAG_IDLE))
 765:./Libraries/STM32H7xx_HAL_Driver/Src/stm32h7xx_hal_uart_ex.c ****       {
 766:./Libraries/STM32H7xx_HAL_Driver/Src/stm32h7xx_hal_uart_ex.c ****         /* Clear IDLE flag in ISR */
 767:./Libraries/STM32H7xx_HAL_Driver/Src/stm32h7xx_hal_uart_ex.c ****         __HAL_UART_CLEAR_FLAG(huart, UART_CLEAR_IDLEF);
 768:./Libraries/STM32H7xx_HAL_Driver/Src/stm32h7xx_hal_uart_ex.c **** 
 769:./Libraries/STM32H7xx_HAL_Driver/Src/stm32h7xx_hal_uart_ex.c ****         /* If Set, but no data ever received, clear flag without exiting loop */
 770:./Libraries/STM32H7xx_HAL_Driver/Src/stm32h7xx_hal_uart_ex.c ****         /* If Set, and data has already been received, this means Idle Event is valid : End recepti
 771:./Libraries/STM32H7xx_HAL_Driver/Src/stm32h7xx_hal_uart_ex.c ****         if (*RxLen > 0U)
ARM GAS  /tmp/ccSKvF4m.s 			page 15


 772:./Libraries/STM32H7xx_HAL_Driver/Src/stm32h7xx_hal_uart_ex.c ****         {
 773:./Libraries/STM32H7xx_HAL_Driver/Src/stm32h7xx_hal_uart_ex.c ****           huart->RxState = HAL_UART_STATE_READY;
 774:./Libraries/STM32H7xx_HAL_Driver/Src/stm32h7xx_hal_uart_ex.c **** 
 775:./Libraries/STM32H7xx_HAL_Driver/Src/stm32h7xx_hal_uart_ex.c ****           return HAL_OK;
 776:./Libraries/STM32H7xx_HAL_Driver/Src/stm32h7xx_hal_uart_ex.c ****         }
 777:./Libraries/STM32H7xx_HAL_Driver/Src/stm32h7xx_hal_uart_ex.c ****       }
 778:./Libraries/STM32H7xx_HAL_Driver/Src/stm32h7xx_hal_uart_ex.c **** 
 779:./Libraries/STM32H7xx_HAL_Driver/Src/stm32h7xx_hal_uart_ex.c ****       /* Check if RXNE flag is set */
 780:./Libraries/STM32H7xx_HAL_Driver/Src/stm32h7xx_hal_uart_ex.c ****       if (__HAL_UART_GET_FLAG(huart, UART_FLAG_RXNE))
 781:./Libraries/STM32H7xx_HAL_Driver/Src/stm32h7xx_hal_uart_ex.c ****       {
 782:./Libraries/STM32H7xx_HAL_Driver/Src/stm32h7xx_hal_uart_ex.c ****         if (pdata8bits == NULL)
 783:./Libraries/STM32H7xx_HAL_Driver/Src/stm32h7xx_hal_uart_ex.c ****         {
 784:./Libraries/STM32H7xx_HAL_Driver/Src/stm32h7xx_hal_uart_ex.c ****           *pdata16bits = (uint16_t)(huart->Instance->RDR & uhMask);
 785:./Libraries/STM32H7xx_HAL_Driver/Src/stm32h7xx_hal_uart_ex.c ****           pdata16bits++;
 786:./Libraries/STM32H7xx_HAL_Driver/Src/stm32h7xx_hal_uart_ex.c ****         }
 787:./Libraries/STM32H7xx_HAL_Driver/Src/stm32h7xx_hal_uart_ex.c ****         else
 788:./Libraries/STM32H7xx_HAL_Driver/Src/stm32h7xx_hal_uart_ex.c ****         {
 789:./Libraries/STM32H7xx_HAL_Driver/Src/stm32h7xx_hal_uart_ex.c ****           *pdata8bits = (uint8_t)(huart->Instance->RDR & (uint8_t)uhMask);
 790:./Libraries/STM32H7xx_HAL_Driver/Src/stm32h7xx_hal_uart_ex.c ****           pdata8bits++;
 791:./Libraries/STM32H7xx_HAL_Driver/Src/stm32h7xx_hal_uart_ex.c ****         }
 792:./Libraries/STM32H7xx_HAL_Driver/Src/stm32h7xx_hal_uart_ex.c ****         /* Increment number of received elements */
 793:./Libraries/STM32H7xx_HAL_Driver/Src/stm32h7xx_hal_uart_ex.c ****         *RxLen += 1U;
 794:./Libraries/STM32H7xx_HAL_Driver/Src/stm32h7xx_hal_uart_ex.c ****         huart->RxXferCount--;
 795:./Libraries/STM32H7xx_HAL_Driver/Src/stm32h7xx_hal_uart_ex.c ****       }
 796:./Libraries/STM32H7xx_HAL_Driver/Src/stm32h7xx_hal_uart_ex.c **** 
 797:./Libraries/STM32H7xx_HAL_Driver/Src/stm32h7xx_hal_uart_ex.c ****       /* Check for the Timeout */
 798:./Libraries/STM32H7xx_HAL_Driver/Src/stm32h7xx_hal_uart_ex.c ****       if (Timeout != HAL_MAX_DELAY)
 799:./Libraries/STM32H7xx_HAL_Driver/Src/stm32h7xx_hal_uart_ex.c ****       {
 800:./Libraries/STM32H7xx_HAL_Driver/Src/stm32h7xx_hal_uart_ex.c ****         if (((HAL_GetTick() - tickstart) > Timeout) || (Timeout == 0U))
 801:./Libraries/STM32H7xx_HAL_Driver/Src/stm32h7xx_hal_uart_ex.c ****         {
 802:./Libraries/STM32H7xx_HAL_Driver/Src/stm32h7xx_hal_uart_ex.c ****           huart->RxState = HAL_UART_STATE_READY;
 803:./Libraries/STM32H7xx_HAL_Driver/Src/stm32h7xx_hal_uart_ex.c **** 
 804:./Libraries/STM32H7xx_HAL_Driver/Src/stm32h7xx_hal_uart_ex.c ****           return HAL_TIMEOUT;
 805:./Libraries/STM32H7xx_HAL_Driver/Src/stm32h7xx_hal_uart_ex.c ****         }
 806:./Libraries/STM32H7xx_HAL_Driver/Src/stm32h7xx_hal_uart_ex.c ****       }
 807:./Libraries/STM32H7xx_HAL_Driver/Src/stm32h7xx_hal_uart_ex.c ****     }
 808:./Libraries/STM32H7xx_HAL_Driver/Src/stm32h7xx_hal_uart_ex.c **** 
 809:./Libraries/STM32H7xx_HAL_Driver/Src/stm32h7xx_hal_uart_ex.c ****     /* Set number of received elements in output parameter : RxLen */
 810:./Libraries/STM32H7xx_HAL_Driver/Src/stm32h7xx_hal_uart_ex.c ****     *RxLen = huart->RxXferSize - huart->RxXferCount;
 811:./Libraries/STM32H7xx_HAL_Driver/Src/stm32h7xx_hal_uart_ex.c ****     /* At end of Rx process, restore huart->RxState to Ready */
 812:./Libraries/STM32H7xx_HAL_Driver/Src/stm32h7xx_hal_uart_ex.c ****     huart->RxState = HAL_UART_STATE_READY;
 813:./Libraries/STM32H7xx_HAL_Driver/Src/stm32h7xx_hal_uart_ex.c **** 
 814:./Libraries/STM32H7xx_HAL_Driver/Src/stm32h7xx_hal_uart_ex.c ****     return HAL_OK;
 815:./Libraries/STM32H7xx_HAL_Driver/Src/stm32h7xx_hal_uart_ex.c ****   }
 816:./Libraries/STM32H7xx_HAL_Driver/Src/stm32h7xx_hal_uart_ex.c ****   else
 817:./Libraries/STM32H7xx_HAL_Driver/Src/stm32h7xx_hal_uart_ex.c ****   {
 818:./Libraries/STM32H7xx_HAL_Driver/Src/stm32h7xx_hal_uart_ex.c ****     return HAL_BUSY;
 819:./Libraries/STM32H7xx_HAL_Driver/Src/stm32h7xx_hal_uart_ex.c ****   }
 820:./Libraries/STM32H7xx_HAL_Driver/Src/stm32h7xx_hal_uart_ex.c **** }
 821:./Libraries/STM32H7xx_HAL_Driver/Src/stm32h7xx_hal_uart_ex.c **** 
 822:./Libraries/STM32H7xx_HAL_Driver/Src/stm32h7xx_hal_uart_ex.c **** /**
 823:./Libraries/STM32H7xx_HAL_Driver/Src/stm32h7xx_hal_uart_ex.c ****   * @brief Receive an amount of data in interrupt mode till either the expected number of data
 824:./Libraries/STM32H7xx_HAL_Driver/Src/stm32h7xx_hal_uart_ex.c ****   *        is received or an IDLE event occurs.
 825:./Libraries/STM32H7xx_HAL_Driver/Src/stm32h7xx_hal_uart_ex.c ****   * @note  Reception is initiated by this function call. Further progress of reception is achieved 
 826:./Libraries/STM32H7xx_HAL_Driver/Src/stm32h7xx_hal_uart_ex.c ****   *        to UART interrupts raised by RXNE and IDLE events. Callback is called at end of receptio
 827:./Libraries/STM32H7xx_HAL_Driver/Src/stm32h7xx_hal_uart_ex.c ****   *        number of received data elements.
 828:./Libraries/STM32H7xx_HAL_Driver/Src/stm32h7xx_hal_uart_ex.c ****   * @note  When UART parity is not enabled (PCE = 0), and Word Length is configured to 9 bits (M1-M
ARM GAS  /tmp/ccSKvF4m.s 			page 16


 829:./Libraries/STM32H7xx_HAL_Driver/Src/stm32h7xx_hal_uart_ex.c ****   *        the received data is handled as a set of uint16_t. In this case, Size must indicate the 
 830:./Libraries/STM32H7xx_HAL_Driver/Src/stm32h7xx_hal_uart_ex.c ****   *        of uint16_t available through pData.
 831:./Libraries/STM32H7xx_HAL_Driver/Src/stm32h7xx_hal_uart_ex.c ****   * @param huart UART handle.
 832:./Libraries/STM32H7xx_HAL_Driver/Src/stm32h7xx_hal_uart_ex.c ****   * @param pData Pointer to data buffer (uint8_t or uint16_t data elements).
 833:./Libraries/STM32H7xx_HAL_Driver/Src/stm32h7xx_hal_uart_ex.c ****   * @param Size  Amount of data elements (uint8_t or uint16_t) to be received.
 834:./Libraries/STM32H7xx_HAL_Driver/Src/stm32h7xx_hal_uart_ex.c ****   * @retval HAL status
 835:./Libraries/STM32H7xx_HAL_Driver/Src/stm32h7xx_hal_uart_ex.c ****   */
 836:./Libraries/STM32H7xx_HAL_Driver/Src/stm32h7xx_hal_uart_ex.c **** HAL_StatusTypeDef HAL_UARTEx_ReceiveToIdle_IT(UART_HandleTypeDef *huart, uint8_t *pData, uint16_t S
 837:./Libraries/STM32H7xx_HAL_Driver/Src/stm32h7xx_hal_uart_ex.c **** {
 838:./Libraries/STM32H7xx_HAL_Driver/Src/stm32h7xx_hal_uart_ex.c ****   HAL_StatusTypeDef status;
 839:./Libraries/STM32H7xx_HAL_Driver/Src/stm32h7xx_hal_uart_ex.c **** 
 840:./Libraries/STM32H7xx_HAL_Driver/Src/stm32h7xx_hal_uart_ex.c ****   /* Check that a Rx process is not already ongoing */
 841:./Libraries/STM32H7xx_HAL_Driver/Src/stm32h7xx_hal_uart_ex.c ****   if (huart->RxState == HAL_UART_STATE_READY)
 842:./Libraries/STM32H7xx_HAL_Driver/Src/stm32h7xx_hal_uart_ex.c ****   {
 843:./Libraries/STM32H7xx_HAL_Driver/Src/stm32h7xx_hal_uart_ex.c ****     if ((pData == NULL) || (Size == 0U))
 844:./Libraries/STM32H7xx_HAL_Driver/Src/stm32h7xx_hal_uart_ex.c ****     {
 845:./Libraries/STM32H7xx_HAL_Driver/Src/stm32h7xx_hal_uart_ex.c ****       return HAL_ERROR;
 846:./Libraries/STM32H7xx_HAL_Driver/Src/stm32h7xx_hal_uart_ex.c ****     }
 847:./Libraries/STM32H7xx_HAL_Driver/Src/stm32h7xx_hal_uart_ex.c **** 
 848:./Libraries/STM32H7xx_HAL_Driver/Src/stm32h7xx_hal_uart_ex.c ****     __HAL_LOCK(huart);
 849:./Libraries/STM32H7xx_HAL_Driver/Src/stm32h7xx_hal_uart_ex.c **** 
 850:./Libraries/STM32H7xx_HAL_Driver/Src/stm32h7xx_hal_uart_ex.c ****     /* Set Reception type to reception till IDLE Event*/
 851:./Libraries/STM32H7xx_HAL_Driver/Src/stm32h7xx_hal_uart_ex.c ****     huart->ReceptionType = HAL_UART_RECEPTION_TOIDLE;
 852:./Libraries/STM32H7xx_HAL_Driver/Src/stm32h7xx_hal_uart_ex.c **** 
 853:./Libraries/STM32H7xx_HAL_Driver/Src/stm32h7xx_hal_uart_ex.c ****     status =  UART_Start_Receive_IT(huart, pData, Size);
 854:./Libraries/STM32H7xx_HAL_Driver/Src/stm32h7xx_hal_uart_ex.c **** 
 855:./Libraries/STM32H7xx_HAL_Driver/Src/stm32h7xx_hal_uart_ex.c ****     /* Check Rx process has been successfully started */
 856:./Libraries/STM32H7xx_HAL_Driver/Src/stm32h7xx_hal_uart_ex.c ****     if (status == HAL_OK)
 857:./Libraries/STM32H7xx_HAL_Driver/Src/stm32h7xx_hal_uart_ex.c ****     {
 858:./Libraries/STM32H7xx_HAL_Driver/Src/stm32h7xx_hal_uart_ex.c ****       if (huart->ReceptionType == HAL_UART_RECEPTION_TOIDLE)
 859:./Libraries/STM32H7xx_HAL_Driver/Src/stm32h7xx_hal_uart_ex.c ****       {
 860:./Libraries/STM32H7xx_HAL_Driver/Src/stm32h7xx_hal_uart_ex.c ****         __HAL_UART_CLEAR_FLAG(huart, UART_CLEAR_IDLEF);
 861:./Libraries/STM32H7xx_HAL_Driver/Src/stm32h7xx_hal_uart_ex.c ****         SET_BIT(huart->Instance->CR1, USART_CR1_IDLEIE);
 862:./Libraries/STM32H7xx_HAL_Driver/Src/stm32h7xx_hal_uart_ex.c ****       }
 863:./Libraries/STM32H7xx_HAL_Driver/Src/stm32h7xx_hal_uart_ex.c ****       else
 864:./Libraries/STM32H7xx_HAL_Driver/Src/stm32h7xx_hal_uart_ex.c ****       {
 865:./Libraries/STM32H7xx_HAL_Driver/Src/stm32h7xx_hal_uart_ex.c ****         /* In case of errors already pending when reception is started,
 866:./Libraries/STM32H7xx_HAL_Driver/Src/stm32h7xx_hal_uart_ex.c ****            Interrupts may have already been raised and lead to reception abortion.
 867:./Libraries/STM32H7xx_HAL_Driver/Src/stm32h7xx_hal_uart_ex.c ****            (Overrun error for instance).
 868:./Libraries/STM32H7xx_HAL_Driver/Src/stm32h7xx_hal_uart_ex.c ****            In such case Reception Type has been reset to HAL_UART_RECEPTION_STANDARD. */
 869:./Libraries/STM32H7xx_HAL_Driver/Src/stm32h7xx_hal_uart_ex.c ****         status = HAL_ERROR;
 870:./Libraries/STM32H7xx_HAL_Driver/Src/stm32h7xx_hal_uart_ex.c ****       }
 871:./Libraries/STM32H7xx_HAL_Driver/Src/stm32h7xx_hal_uart_ex.c ****     }
 872:./Libraries/STM32H7xx_HAL_Driver/Src/stm32h7xx_hal_uart_ex.c **** 
 873:./Libraries/STM32H7xx_HAL_Driver/Src/stm32h7xx_hal_uart_ex.c ****     return status;
 874:./Libraries/STM32H7xx_HAL_Driver/Src/stm32h7xx_hal_uart_ex.c ****   }
 875:./Libraries/STM32H7xx_HAL_Driver/Src/stm32h7xx_hal_uart_ex.c ****   else
 876:./Libraries/STM32H7xx_HAL_Driver/Src/stm32h7xx_hal_uart_ex.c ****   {
 877:./Libraries/STM32H7xx_HAL_Driver/Src/stm32h7xx_hal_uart_ex.c ****     return HAL_BUSY;
 878:./Libraries/STM32H7xx_HAL_Driver/Src/stm32h7xx_hal_uart_ex.c ****   }
 879:./Libraries/STM32H7xx_HAL_Driver/Src/stm32h7xx_hal_uart_ex.c **** }
 880:./Libraries/STM32H7xx_HAL_Driver/Src/stm32h7xx_hal_uart_ex.c **** 
 881:./Libraries/STM32H7xx_HAL_Driver/Src/stm32h7xx_hal_uart_ex.c **** /**
 882:./Libraries/STM32H7xx_HAL_Driver/Src/stm32h7xx_hal_uart_ex.c ****   * @brief Receive an amount of data in DMA mode till either the expected number
 883:./Libraries/STM32H7xx_HAL_Driver/Src/stm32h7xx_hal_uart_ex.c ****   *        of data is received or an IDLE event occurs.
 884:./Libraries/STM32H7xx_HAL_Driver/Src/stm32h7xx_hal_uart_ex.c ****   * @note  Reception is initiated by this function call. Further progress of reception is achieved 
 885:./Libraries/STM32H7xx_HAL_Driver/Src/stm32h7xx_hal_uart_ex.c ****   *        to DMA services, transferring automatically received data elements in user reception buf
ARM GAS  /tmp/ccSKvF4m.s 			page 17


 886:./Libraries/STM32H7xx_HAL_Driver/Src/stm32h7xx_hal_uart_ex.c ****   *        calling registered callbacks at half/end of reception. UART IDLE events are also used to
 887:./Libraries/STM32H7xx_HAL_Driver/Src/stm32h7xx_hal_uart_ex.c ****   *        reception phase as ended. In all cases, callback execution will indicate number of recei
 888:./Libraries/STM32H7xx_HAL_Driver/Src/stm32h7xx_hal_uart_ex.c ****   * @note  When the UART parity is enabled (PCE = 1), the received data contain
 889:./Libraries/STM32H7xx_HAL_Driver/Src/stm32h7xx_hal_uart_ex.c ****   *        the parity bit (MSB position).
 890:./Libraries/STM32H7xx_HAL_Driver/Src/stm32h7xx_hal_uart_ex.c ****   * @note  When UART parity is not enabled (PCE = 0), and Word Length is configured to 9 bits (M1-M
 891:./Libraries/STM32H7xx_HAL_Driver/Src/stm32h7xx_hal_uart_ex.c ****   *        the received data is handled as a set of uint16_t. In this case, Size must indicate the 
 892:./Libraries/STM32H7xx_HAL_Driver/Src/stm32h7xx_hal_uart_ex.c ****   *        of uint16_t available through pData.
 893:./Libraries/STM32H7xx_HAL_Driver/Src/stm32h7xx_hal_uart_ex.c ****   * @param huart UART handle.
 894:./Libraries/STM32H7xx_HAL_Driver/Src/stm32h7xx_hal_uart_ex.c ****   * @param pData Pointer to data buffer (uint8_t or uint16_t data elements).
 895:./Libraries/STM32H7xx_HAL_Driver/Src/stm32h7xx_hal_uart_ex.c ****   * @param Size  Amount of data elements (uint8_t or uint16_t) to be received.
 896:./Libraries/STM32H7xx_HAL_Driver/Src/stm32h7xx_hal_uart_ex.c ****   * @retval HAL status
 897:./Libraries/STM32H7xx_HAL_Driver/Src/stm32h7xx_hal_uart_ex.c ****   */
 898:./Libraries/STM32H7xx_HAL_Driver/Src/stm32h7xx_hal_uart_ex.c **** HAL_StatusTypeDef HAL_UARTEx_ReceiveToIdle_DMA(UART_HandleTypeDef *huart, uint8_t *pData, uint16_t 
 899:./Libraries/STM32H7xx_HAL_Driver/Src/stm32h7xx_hal_uart_ex.c **** {
 900:./Libraries/STM32H7xx_HAL_Driver/Src/stm32h7xx_hal_uart_ex.c ****   HAL_StatusTypeDef status;
 901:./Libraries/STM32H7xx_HAL_Driver/Src/stm32h7xx_hal_uart_ex.c **** 
 902:./Libraries/STM32H7xx_HAL_Driver/Src/stm32h7xx_hal_uart_ex.c ****   /* Check that a Rx process is not already ongoing */
 903:./Libraries/STM32H7xx_HAL_Driver/Src/stm32h7xx_hal_uart_ex.c ****   if (huart->RxState == HAL_UART_STATE_READY)
 904:./Libraries/STM32H7xx_HAL_Driver/Src/stm32h7xx_hal_uart_ex.c ****   {
 905:./Libraries/STM32H7xx_HAL_Driver/Src/stm32h7xx_hal_uart_ex.c ****     if ((pData == NULL) || (Size == 0U))
 906:./Libraries/STM32H7xx_HAL_Driver/Src/stm32h7xx_hal_uart_ex.c ****     {
 907:./Libraries/STM32H7xx_HAL_Driver/Src/stm32h7xx_hal_uart_ex.c ****       return HAL_ERROR;
 908:./Libraries/STM32H7xx_HAL_Driver/Src/stm32h7xx_hal_uart_ex.c ****     }
 909:./Libraries/STM32H7xx_HAL_Driver/Src/stm32h7xx_hal_uart_ex.c **** 
 910:./Libraries/STM32H7xx_HAL_Driver/Src/stm32h7xx_hal_uart_ex.c ****     __HAL_LOCK(huart);
 911:./Libraries/STM32H7xx_HAL_Driver/Src/stm32h7xx_hal_uart_ex.c **** 
 912:./Libraries/STM32H7xx_HAL_Driver/Src/stm32h7xx_hal_uart_ex.c ****     /* Set Reception type to reception till IDLE Event*/
 913:./Libraries/STM32H7xx_HAL_Driver/Src/stm32h7xx_hal_uart_ex.c ****     huart->ReceptionType = HAL_UART_RECEPTION_TOIDLE;
 914:./Libraries/STM32H7xx_HAL_Driver/Src/stm32h7xx_hal_uart_ex.c **** 
 915:./Libraries/STM32H7xx_HAL_Driver/Src/stm32h7xx_hal_uart_ex.c ****     status =  UART_Start_Receive_DMA(huart, pData, Size);
 916:./Libraries/STM32H7xx_HAL_Driver/Src/stm32h7xx_hal_uart_ex.c **** 
 917:./Libraries/STM32H7xx_HAL_Driver/Src/stm32h7xx_hal_uart_ex.c ****     /* Check Rx process has been successfully started */
 918:./Libraries/STM32H7xx_HAL_Driver/Src/stm32h7xx_hal_uart_ex.c ****     if (status == HAL_OK)
 919:./Libraries/STM32H7xx_HAL_Driver/Src/stm32h7xx_hal_uart_ex.c ****     {
 920:./Libraries/STM32H7xx_HAL_Driver/Src/stm32h7xx_hal_uart_ex.c ****       if (huart->ReceptionType == HAL_UART_RECEPTION_TOIDLE)
 921:./Libraries/STM32H7xx_HAL_Driver/Src/stm32h7xx_hal_uart_ex.c ****       {
 922:./Libraries/STM32H7xx_HAL_Driver/Src/stm32h7xx_hal_uart_ex.c ****         __HAL_UART_CLEAR_FLAG(huart, UART_CLEAR_IDLEF);
 923:./Libraries/STM32H7xx_HAL_Driver/Src/stm32h7xx_hal_uart_ex.c ****         SET_BIT(huart->Instance->CR1, USART_CR1_IDLEIE);
 924:./Libraries/STM32H7xx_HAL_Driver/Src/stm32h7xx_hal_uart_ex.c ****       }
 925:./Libraries/STM32H7xx_HAL_Driver/Src/stm32h7xx_hal_uart_ex.c ****       else
 926:./Libraries/STM32H7xx_HAL_Driver/Src/stm32h7xx_hal_uart_ex.c ****       {
 927:./Libraries/STM32H7xx_HAL_Driver/Src/stm32h7xx_hal_uart_ex.c ****         /* In case of errors already pending when reception is started,
 928:./Libraries/STM32H7xx_HAL_Driver/Src/stm32h7xx_hal_uart_ex.c ****            Interrupts may have already been raised and lead to reception abortion.
 929:./Libraries/STM32H7xx_HAL_Driver/Src/stm32h7xx_hal_uart_ex.c ****            (Overrun error for instance).
 930:./Libraries/STM32H7xx_HAL_Driver/Src/stm32h7xx_hal_uart_ex.c ****            In such case Reception Type has been reset to HAL_UART_RECEPTION_STANDARD. */
 931:./Libraries/STM32H7xx_HAL_Driver/Src/stm32h7xx_hal_uart_ex.c ****         status = HAL_ERROR;
 932:./Libraries/STM32H7xx_HAL_Driver/Src/stm32h7xx_hal_uart_ex.c ****       }
 933:./Libraries/STM32H7xx_HAL_Driver/Src/stm32h7xx_hal_uart_ex.c ****     }
 934:./Libraries/STM32H7xx_HAL_Driver/Src/stm32h7xx_hal_uart_ex.c **** 
 935:./Libraries/STM32H7xx_HAL_Driver/Src/stm32h7xx_hal_uart_ex.c ****     return status;
 936:./Libraries/STM32H7xx_HAL_Driver/Src/stm32h7xx_hal_uart_ex.c ****   }
 937:./Libraries/STM32H7xx_HAL_Driver/Src/stm32h7xx_hal_uart_ex.c ****   else
 938:./Libraries/STM32H7xx_HAL_Driver/Src/stm32h7xx_hal_uart_ex.c ****   {
 939:./Libraries/STM32H7xx_HAL_Driver/Src/stm32h7xx_hal_uart_ex.c ****     return HAL_BUSY;
 940:./Libraries/STM32H7xx_HAL_Driver/Src/stm32h7xx_hal_uart_ex.c ****   }
 941:./Libraries/STM32H7xx_HAL_Driver/Src/stm32h7xx_hal_uart_ex.c **** }
 942:./Libraries/STM32H7xx_HAL_Driver/Src/stm32h7xx_hal_uart_ex.c **** 
ARM GAS  /tmp/ccSKvF4m.s 			page 18


 943:./Libraries/STM32H7xx_HAL_Driver/Src/stm32h7xx_hal_uart_ex.c **** /**
 944:./Libraries/STM32H7xx_HAL_Driver/Src/stm32h7xx_hal_uart_ex.c ****   * @}
 945:./Libraries/STM32H7xx_HAL_Driver/Src/stm32h7xx_hal_uart_ex.c ****   */
 946:./Libraries/STM32H7xx_HAL_Driver/Src/stm32h7xx_hal_uart_ex.c **** 
 947:./Libraries/STM32H7xx_HAL_Driver/Src/stm32h7xx_hal_uart_ex.c **** /**
 948:./Libraries/STM32H7xx_HAL_Driver/Src/stm32h7xx_hal_uart_ex.c ****   * @}
 949:./Libraries/STM32H7xx_HAL_Driver/Src/stm32h7xx_hal_uart_ex.c ****   */
 950:./Libraries/STM32H7xx_HAL_Driver/Src/stm32h7xx_hal_uart_ex.c **** 
 951:./Libraries/STM32H7xx_HAL_Driver/Src/stm32h7xx_hal_uart_ex.c **** /** @addtogroup UARTEx_Private_Functions
 952:./Libraries/STM32H7xx_HAL_Driver/Src/stm32h7xx_hal_uart_ex.c ****   * @{
 953:./Libraries/STM32H7xx_HAL_Driver/Src/stm32h7xx_hal_uart_ex.c ****   */
 954:./Libraries/STM32H7xx_HAL_Driver/Src/stm32h7xx_hal_uart_ex.c **** 
 955:./Libraries/STM32H7xx_HAL_Driver/Src/stm32h7xx_hal_uart_ex.c **** /**
 956:./Libraries/STM32H7xx_HAL_Driver/Src/stm32h7xx_hal_uart_ex.c ****   * @brief Initialize the UART wake-up from stop mode parameters when triggered by address detectio
 957:./Libraries/STM32H7xx_HAL_Driver/Src/stm32h7xx_hal_uart_ex.c ****   * @param huart           UART handle.
 958:./Libraries/STM32H7xx_HAL_Driver/Src/stm32h7xx_hal_uart_ex.c ****   * @param WakeUpSelection UART wake up from stop mode parameters.
 959:./Libraries/STM32H7xx_HAL_Driver/Src/stm32h7xx_hal_uart_ex.c ****   * @retval None
 960:./Libraries/STM32H7xx_HAL_Driver/Src/stm32h7xx_hal_uart_ex.c ****   */
 961:./Libraries/STM32H7xx_HAL_Driver/Src/stm32h7xx_hal_uart_ex.c **** static void UARTEx_Wakeup_AddressConfig(UART_HandleTypeDef *huart, UART_WakeUpTypeDef WakeUpSelecti
 962:./Libraries/STM32H7xx_HAL_Driver/Src/stm32h7xx_hal_uart_ex.c **** {
 963:./Libraries/STM32H7xx_HAL_Driver/Src/stm32h7xx_hal_uart_ex.c ****   assert_param(IS_UART_ADDRESSLENGTH_DETECT(WakeUpSelection.AddressLength));
 964:./Libraries/STM32H7xx_HAL_Driver/Src/stm32h7xx_hal_uart_ex.c **** 
 965:./Libraries/STM32H7xx_HAL_Driver/Src/stm32h7xx_hal_uart_ex.c ****   /* Set the USART address length */
 966:./Libraries/STM32H7xx_HAL_Driver/Src/stm32h7xx_hal_uart_ex.c ****   MODIFY_REG(huart->Instance->CR2, USART_CR2_ADDM7, WakeUpSelection.AddressLength);
 967:./Libraries/STM32H7xx_HAL_Driver/Src/stm32h7xx_hal_uart_ex.c **** 
 968:./Libraries/STM32H7xx_HAL_Driver/Src/stm32h7xx_hal_uart_ex.c ****   /* Set the USART address node */
 969:./Libraries/STM32H7xx_HAL_Driver/Src/stm32h7xx_hal_uart_ex.c ****   MODIFY_REG(huart->Instance->CR2, USART_CR2_ADD, ((uint32_t)WakeUpSelection.Address << UART_CR2_AD
 970:./Libraries/STM32H7xx_HAL_Driver/Src/stm32h7xx_hal_uart_ex.c **** }
 971:./Libraries/STM32H7xx_HAL_Driver/Src/stm32h7xx_hal_uart_ex.c **** 
 972:./Libraries/STM32H7xx_HAL_Driver/Src/stm32h7xx_hal_uart_ex.c **** /**
 973:./Libraries/STM32H7xx_HAL_Driver/Src/stm32h7xx_hal_uart_ex.c ****   * @brief Calculate the number of data to process in RX/TX ISR.
 974:./Libraries/STM32H7xx_HAL_Driver/Src/stm32h7xx_hal_uart_ex.c ****   * @note The RX FIFO depth and the TX FIFO depth is extracted from
 975:./Libraries/STM32H7xx_HAL_Driver/Src/stm32h7xx_hal_uart_ex.c ****   *       the UART configuration registers.
 976:./Libraries/STM32H7xx_HAL_Driver/Src/stm32h7xx_hal_uart_ex.c ****   * @param huart UART handle.
 977:./Libraries/STM32H7xx_HAL_Driver/Src/stm32h7xx_hal_uart_ex.c ****   * @retval None
 978:./Libraries/STM32H7xx_HAL_Driver/Src/stm32h7xx_hal_uart_ex.c ****   */
 979:./Libraries/STM32H7xx_HAL_Driver/Src/stm32h7xx_hal_uart_ex.c **** static void UARTEx_SetNbDataToProcess(UART_HandleTypeDef *huart)
  29              		.loc 1 979 13 view -0
  30              		.cfi_startproc
  31              		@ args = 0, pretend = 0, frame = 0
  32              		@ frame_needed = 0, uses_anonymous_args = 0
  33              		@ link register save eliminated.
 980:./Libraries/STM32H7xx_HAL_Driver/Src/stm32h7xx_hal_uart_ex.c **** {
 981:./Libraries/STM32H7xx_HAL_Driver/Src/stm32h7xx_hal_uart_ex.c ****   uint8_t rx_fifo_depth;
 982:./Libraries/STM32H7xx_HAL_Driver/Src/stm32h7xx_hal_uart_ex.c ****   uint8_t tx_fifo_depth;
 983:./Libraries/STM32H7xx_HAL_Driver/Src/stm32h7xx_hal_uart_ex.c ****   uint8_t rx_fifo_threshold;
 984:./Libraries/STM32H7xx_HAL_Driver/Src/stm32h7xx_hal_uart_ex.c ****   uint8_t tx_fifo_threshold;
 985:./Libraries/STM32H7xx_HAL_Driver/Src/stm32h7xx_hal_uart_ex.c ****   static const uint8_t numerator[] = {1U, 1U, 1U, 3U, 7U, 1U, 0U, 0U};
 986:./Libraries/STM32H7xx_HAL_Driver/Src/stm32h7xx_hal_uart_ex.c ****   static const uint8_t denominator[] = {8U, 4U, 2U, 4U, 8U, 1U, 1U, 1U};
 987:./Libraries/STM32H7xx_HAL_Driver/Src/stm32h7xx_hal_uart_ex.c **** 
 988:./Libraries/STM32H7xx_HAL_Driver/Src/stm32h7xx_hal_uart_ex.c ****   if (huart->FifoMode == UART_FIFOMODE_DISABLE)
 989:./Libraries/STM32H7xx_HAL_Driver/Src/stm32h7xx_hal_uart_ex.c ****   {
 990:./Libraries/STM32H7xx_HAL_Driver/Src/stm32h7xx_hal_uart_ex.c ****     huart->NbTxDataToProcess = 1U;
 991:./Libraries/STM32H7xx_HAL_Driver/Src/stm32h7xx_hal_uart_ex.c ****     huart->NbRxDataToProcess = 1U;
 992:./Libraries/STM32H7xx_HAL_Driver/Src/stm32h7xx_hal_uart_ex.c ****   }
 993:./Libraries/STM32H7xx_HAL_Driver/Src/stm32h7xx_hal_uart_ex.c ****   else
 994:./Libraries/STM32H7xx_HAL_Driver/Src/stm32h7xx_hal_uart_ex.c ****   {
ARM GAS  /tmp/ccSKvF4m.s 			page 19


 995:./Libraries/STM32H7xx_HAL_Driver/Src/stm32h7xx_hal_uart_ex.c ****     rx_fifo_depth = RX_FIFO_DEPTH;
  34              		.loc 1 995 5 view .LVU1
 996:./Libraries/STM32H7xx_HAL_Driver/Src/stm32h7xx_hal_uart_ex.c ****     tx_fifo_depth = TX_FIFO_DEPTH;
  35              		.loc 1 996 5 view .LVU2
 997:./Libraries/STM32H7xx_HAL_Driver/Src/stm32h7xx_hal_uart_ex.c ****     rx_fifo_threshold = (uint8_t)(READ_BIT(huart->Instance->CR3, USART_CR3_RXFTCFG) >> USART_CR3_RX
  36              		.loc 1 997 5 view .LVU3
  37              		.loc 1 997 35 is_stmt 0 view .LVU4
  38 0000 0368     		ldr	r3, [r0]
 998:./Libraries/STM32H7xx_HAL_Driver/Src/stm32h7xx_hal_uart_ex.c ****     tx_fifo_threshold = (uint8_t)(READ_BIT(huart->Instance->CR3, USART_CR3_TXFTCFG) >> USART_CR3_TX
 999:./Libraries/STM32H7xx_HAL_Driver/Src/stm32h7xx_hal_uart_ex.c ****     huart->NbTxDataToProcess = ((uint16_t)tx_fifo_depth * numerator[tx_fifo_threshold]) /
  39              		.loc 1 999 68 view .LVU5
  40 0002 0C4A     		ldr	r2, .L4
 997:./Libraries/STM32H7xx_HAL_Driver/Src/stm32h7xx_hal_uart_ex.c ****     rx_fifo_threshold = (uint8_t)(READ_BIT(huart->Instance->CR3, USART_CR3_RXFTCFG) >> USART_CR3_RX
  41              		.loc 1 997 35 view .LVU6
  42 0004 9968     		ldr	r1, [r3, #8]
  43              	.LVL1:
 998:./Libraries/STM32H7xx_HAL_Driver/Src/stm32h7xx_hal_uart_ex.c ****     tx_fifo_threshold = (uint8_t)(READ_BIT(huart->Instance->CR3, USART_CR3_TXFTCFG) >> USART_CR3_TX
  44              		.loc 1 998 5 is_stmt 1 view .LVU7
 979:./Libraries/STM32H7xx_HAL_Driver/Src/stm32h7xx_hal_uart_ex.c **** {
  45              		.loc 1 979 13 is_stmt 0 view .LVU8
  46 0006 30B4     		push	{r4, r5}
  47              	.LCFI0:
  48              		.cfi_def_cfa_offset 8
  49              		.cfi_offset 4, -8
  50              		.cfi_offset 5, -4
 998:./Libraries/STM32H7xx_HAL_Driver/Src/stm32h7xx_hal_uart_ex.c ****     tx_fifo_threshold = (uint8_t)(READ_BIT(huart->Instance->CR3, USART_CR3_TXFTCFG) >> USART_CR3_TX
  51              		.loc 1 998 35 view .LVU9
  52 0008 9C68     		ldr	r4, [r3, #8]
  53              	.LVL2:
  54              		.loc 1 999 5 is_stmt 1 view .LVU10
1000:./Libraries/STM32H7xx_HAL_Driver/Src/stm32h7xx_hal_uart_ex.c ****                                (uint16_t)denominator[tx_fifo_threshold];
1001:./Libraries/STM32H7xx_HAL_Driver/Src/stm32h7xx_hal_uart_ex.c ****     huart->NbRxDataToProcess = ((uint16_t)rx_fifo_depth * numerator[rx_fifo_threshold]) /
  55              		.loc 1 1001 68 is_stmt 0 view .LVU11
  56 000a C1F34261 		ubfx	r1, r1, #25, #3
  57              	.LVL3:
1000:./Libraries/STM32H7xx_HAL_Driver/Src/stm32h7xx_hal_uart_ex.c ****                                (uint16_t)denominator[tx_fifo_threshold];
  58              		.loc 1 1000 53 view .LVU12
  59 000e 0A4D     		ldr	r5, .L4+4
 998:./Libraries/STM32H7xx_HAL_Driver/Src/stm32h7xx_hal_uart_ex.c ****     huart->NbTxDataToProcess = ((uint16_t)tx_fifo_depth * numerator[tx_fifo_threshold]) /
  60              		.loc 1 998 85 view .LVU13
  61 0010 640F     		lsrs	r4, r4, #29
  62              	.LVL4:
  63              		.loc 1 1001 57 view .LVU14
  64 0012 535C     		ldrb	r3, [r2, r1]	@ zero_extendqisi2
1002:./Libraries/STM32H7xx_HAL_Driver/Src/stm32h7xx_hal_uart_ex.c ****                                (uint16_t)denominator[rx_fifo_threshold];
  65              		.loc 1 1002 32 view .LVU15
  66 0014 695C     		ldrb	r1, [r5, r1]	@ zero_extendqisi2
 999:./Libraries/STM32H7xx_HAL_Driver/Src/stm32h7xx_hal_uart_ex.c ****                                (uint16_t)denominator[tx_fifo_threshold];
  67              		.loc 1 999 57 view .LVU16
  68 0016 125D     		ldrb	r2, [r2, r4]	@ zero_extendqisi2
1001:./Libraries/STM32H7xx_HAL_Driver/Src/stm32h7xx_hal_uart_ex.c ****                                (uint16_t)denominator[rx_fifo_threshold];
  69              		.loc 1 1001 57 view .LVU17
  70 0018 1B01     		lsls	r3, r3, #4
1000:./Libraries/STM32H7xx_HAL_Driver/Src/stm32h7xx_hal_uart_ex.c ****     huart->NbRxDataToProcess = ((uint16_t)rx_fifo_depth * numerator[rx_fifo_threshold]) /
  71              		.loc 1 1000 32 view .LVU18
  72 001a 2C5D     		ldrb	r4, [r5, r4]	@ zero_extendqisi2
 999:./Libraries/STM32H7xx_HAL_Driver/Src/stm32h7xx_hal_uart_ex.c ****                                (uint16_t)denominator[tx_fifo_threshold];
ARM GAS  /tmp/ccSKvF4m.s 			page 20


  73              		.loc 1 999 57 view .LVU19
  74 001c 1201     		lsls	r2, r2, #4
1001:./Libraries/STM32H7xx_HAL_Driver/Src/stm32h7xx_hal_uart_ex.c ****                                (uint16_t)denominator[rx_fifo_threshold];
  75              		.loc 1 1001 89 view .LVU20
  76 001e B3FBF1F3 		udiv	r3, r3, r1
 999:./Libraries/STM32H7xx_HAL_Driver/Src/stm32h7xx_hal_uart_ex.c ****                                (uint16_t)denominator[tx_fifo_threshold];
  77              		.loc 1 999 89 view .LVU21
  78 0022 B2FBF4F2 		udiv	r2, r2, r4
1001:./Libraries/STM32H7xx_HAL_Driver/Src/stm32h7xx_hal_uart_ex.c ****                                (uint16_t)denominator[rx_fifo_threshold];
  79              		.loc 1 1001 30 view .LVU22
  80 0026 A0F86830 		strh	r3, [r0, #104]	@ movhi
 999:./Libraries/STM32H7xx_HAL_Driver/Src/stm32h7xx_hal_uart_ex.c ****                                (uint16_t)denominator[tx_fifo_threshold];
  81              		.loc 1 999 30 view .LVU23
  82 002a A0F86A20 		strh	r2, [r0, #106]	@ movhi
1001:./Libraries/STM32H7xx_HAL_Driver/Src/stm32h7xx_hal_uart_ex.c ****                                (uint16_t)denominator[rx_fifo_threshold];
  83              		.loc 1 1001 5 is_stmt 1 view .LVU24
1003:./Libraries/STM32H7xx_HAL_Driver/Src/stm32h7xx_hal_uart_ex.c ****   }
1004:./Libraries/STM32H7xx_HAL_Driver/Src/stm32h7xx_hal_uart_ex.c **** }
  84              		.loc 1 1004 1 is_stmt 0 view .LVU25
  85 002e 30BC     		pop	{r4, r5}
  86              	.LCFI1:
  87              		.cfi_restore 5
  88              		.cfi_restore 4
  89              		.cfi_def_cfa_offset 0
  90 0030 7047     		bx	lr
  91              	.L5:
  92 0032 00BF     		.align	2
  93              	.L4:
  94 0034 00000000 		.word	.LANCHOR0
  95 0038 00000000 		.word	.LANCHOR1
  96              		.cfi_endproc
  97              	.LFE349:
  99              		.section	.text.HAL_RS485Ex_Init,"ax",%progbits
 100              		.align	1
 101              		.p2align 2,,3
 102              		.global	HAL_RS485Ex_Init
 103              		.syntax unified
 104              		.thumb
 105              		.thumb_func
 106              		.fpu fpv5-d16
 108              	HAL_RS485Ex_Init:
 109              	.LVL5:
 110              	.LFB331:
 168:./Libraries/STM32H7xx_HAL_Driver/Src/stm32h7xx_hal_uart_ex.c ****   uint32_t temp;
 111              		.loc 1 168 1 is_stmt 1 view -0
 112              		.cfi_startproc
 113              		@ args = 0, pretend = 0, frame = 0
 114              		@ frame_needed = 0, uses_anonymous_args = 0
 169:./Libraries/STM32H7xx_HAL_Driver/Src/stm32h7xx_hal_uart_ex.c **** 
 115              		.loc 1 169 3 view .LVU27
 172:./Libraries/STM32H7xx_HAL_Driver/Src/stm32h7xx_hal_uart_ex.c ****   {
 116              		.loc 1 172 3 view .LVU28
 172:./Libraries/STM32H7xx_HAL_Driver/Src/stm32h7xx_hal_uart_ex.c ****   {
 117              		.loc 1 172 6 is_stmt 0 view .LVU29
 118 0000 0028     		cmp	r0, #0
 119 0002 3ED0     		beq	.L19
 177:./Libraries/STM32H7xx_HAL_Driver/Src/stm32h7xx_hal_uart_ex.c **** 
ARM GAS  /tmp/ccSKvF4m.s 			page 21


 120              		.loc 1 177 3 is_stmt 1 view .LVU30
 180:./Libraries/STM32H7xx_HAL_Driver/Src/stm32h7xx_hal_uart_ex.c **** 
 121              		.loc 1 180 3 view .LVU31
 183:./Libraries/STM32H7xx_HAL_Driver/Src/stm32h7xx_hal_uart_ex.c **** 
 122              		.loc 1 183 3 view .LVU32
 186:./Libraries/STM32H7xx_HAL_Driver/Src/stm32h7xx_hal_uart_ex.c **** 
 123              		.loc 1 186 3 view .LVU33
 188:./Libraries/STM32H7xx_HAL_Driver/Src/stm32h7xx_hal_uart_ex.c ****   {
 124              		.loc 1 188 3 view .LVU34
 168:./Libraries/STM32H7xx_HAL_Driver/Src/stm32h7xx_hal_uart_ex.c ****   uint32_t temp;
 125              		.loc 1 168 1 is_stmt 0 view .LVU35
 126 0004 2DE9F041 		push	{r4, r5, r6, r7, r8, lr}
 127              	.LCFI2:
 128              		.cfi_def_cfa_offset 24
 129              		.cfi_offset 4, -24
 130              		.cfi_offset 5, -20
 131              		.cfi_offset 6, -16
 132              		.cfi_offset 7, -12
 133              		.cfi_offset 8, -8
 134              		.cfi_offset 14, -4
 135 0008 1D46     		mov	r5, r3
 188:./Libraries/STM32H7xx_HAL_Driver/Src/stm32h7xx_hal_uart_ex.c ****   {
 136              		.loc 1 188 12 view .LVU36
 137 000a D0F88430 		ldr	r3, [r0, #132]
 138              	.LVL6:
 188:./Libraries/STM32H7xx_HAL_Driver/Src/stm32h7xx_hal_uart_ex.c ****   {
 139              		.loc 1 188 12 view .LVU37
 140 000e 0F46     		mov	r7, r1
 141 0010 9046     		mov	r8, r2
 142 0012 0446     		mov	r4, r0
 188:./Libraries/STM32H7xx_HAL_Driver/Src/stm32h7xx_hal_uart_ex.c ****   {
 143              		.loc 1 188 6 view .LVU38
 144 0014 83B3     		cbz	r3, .L22
 145              	.LVL7:
 146              	.L9:
 209:./Libraries/STM32H7xx_HAL_Driver/Src/stm32h7xx_hal_uart_ex.c **** 
 147              		.loc 1 209 3 is_stmt 1 view .LVU39
 212:./Libraries/STM32H7xx_HAL_Driver/Src/stm32h7xx_hal_uart_ex.c **** 
 148              		.loc 1 212 3 is_stmt 0 view .LVU40
 149 0016 2268     		ldr	r2, [r4]
 209:./Libraries/STM32H7xx_HAL_Driver/Src/stm32h7xx_hal_uart_ex.c **** 
 150              		.loc 1 209 17 view .LVU41
 151 0018 2423     		movs	r3, #36
 215:./Libraries/STM32H7xx_HAL_Driver/Src/stm32h7xx_hal_uart_ex.c ****   {
 152              		.loc 1 215 7 view .LVU42
 153 001a 2046     		mov	r0, r4
 209:./Libraries/STM32H7xx_HAL_Driver/Src/stm32h7xx_hal_uart_ex.c **** 
 154              		.loc 1 209 17 view .LVU43
 155 001c C4F88430 		str	r3, [r4, #132]
 212:./Libraries/STM32H7xx_HAL_Driver/Src/stm32h7xx_hal_uart_ex.c **** 
 156              		.loc 1 212 3 is_stmt 1 view .LVU44
 157 0020 1368     		ldr	r3, [r2]
 158 0022 23F00103 		bic	r3, r3, #1
 159 0026 1360     		str	r3, [r2]
 215:./Libraries/STM32H7xx_HAL_Driver/Src/stm32h7xx_hal_uart_ex.c ****   {
 160              		.loc 1 215 3 view .LVU45
 215:./Libraries/STM32H7xx_HAL_Driver/Src/stm32h7xx_hal_uart_ex.c ****   {
ARM GAS  /tmp/ccSKvF4m.s 			page 22


 161              		.loc 1 215 7 is_stmt 0 view .LVU46
 162 0028 FFF7FEFF 		bl	UART_SetConfig
 163              	.LVL8:
 215:./Libraries/STM32H7xx_HAL_Driver/Src/stm32h7xx_hal_uart_ex.c ****   {
 164              		.loc 1 215 6 view .LVU47
 165 002c 0128     		cmp	r0, #1
 166 002e 20D0     		beq	.L8
 220:./Libraries/STM32H7xx_HAL_Driver/Src/stm32h7xx_hal_uart_ex.c ****   {
 167              		.loc 1 220 3 is_stmt 1 view .LVU48
 220:./Libraries/STM32H7xx_HAL_Driver/Src/stm32h7xx_hal_uart_ex.c ****   {
 168              		.loc 1 220 6 is_stmt 0 view .LVU49
 169 0030 A36A     		ldr	r3, [r4, #40]
 170 0032 D3B9     		cbnz	r3, .L23
 171              	.L11:
 226:./Libraries/STM32H7xx_HAL_Driver/Src/stm32h7xx_hal_uart_ex.c **** 
 172              		.loc 1 226 3 is_stmt 1 view .LVU50
 173 0034 2668     		ldr	r6, [r4]
 233:./Libraries/STM32H7xx_HAL_Driver/Src/stm32h7xx_hal_uart_ex.c ****   MODIFY_REG(huart->Instance->CR1, (USART_CR1_DEDT | USART_CR1_DEAT), temp);
 174              		.loc 1 233 28 is_stmt 0 view .LVU51
 175 0036 2B04     		lsls	r3, r5, #16
 234:./Libraries/STM32H7xx_HAL_Driver/Src/stm32h7xx_hal_uart_ex.c **** 
 176              		.loc 1 234 3 view .LVU52
 177 0038 134D     		ldr	r5, .L24
 178              	.LVL9:
 240:./Libraries/STM32H7xx_HAL_Driver/Src/stm32h7xx_hal_uart_ex.c **** }
 179              		.loc 1 240 11 view .LVU53
 180 003a 2046     		mov	r0, r4
 226:./Libraries/STM32H7xx_HAL_Driver/Src/stm32h7xx_hal_uart_ex.c **** 
 181              		.loc 1 226 3 view .LVU54
 182 003c B168     		ldr	r1, [r6, #8]
 233:./Libraries/STM32H7xx_HAL_Driver/Src/stm32h7xx_hal_uart_ex.c ****   MODIFY_REG(huart->Instance->CR1, (USART_CR1_DEDT | USART_CR1_DEAT), temp);
 183              		.loc 1 233 8 view .LVU55
 184 003e 43EA4852 		orr	r2, r3, r8, lsl #21
 226:./Libraries/STM32H7xx_HAL_Driver/Src/stm32h7xx_hal_uart_ex.c **** 
 185              		.loc 1 226 3 view .LVU56
 186 0042 41F48041 		orr	r1, r1, #16384
 187 0046 B160     		str	r1, [r6, #8]
 229:./Libraries/STM32H7xx_HAL_Driver/Src/stm32h7xx_hal_uart_ex.c **** 
 188              		.loc 1 229 3 is_stmt 1 view .LVU57
 189 0048 B368     		ldr	r3, [r6, #8]
 190 004a 23F40043 		bic	r3, r3, #32768
 191 004e 3B43     		orrs	r3, r3, r7
 192 0050 B360     		str	r3, [r6, #8]
 232:./Libraries/STM32H7xx_HAL_Driver/Src/stm32h7xx_hal_uart_ex.c ****   temp |= (DeassertionTime << UART_CR1_DEDT_ADDRESS_LSB_POS);
 193              		.loc 1 232 3 view .LVU58
 194              	.LVL10:
 233:./Libraries/STM32H7xx_HAL_Driver/Src/stm32h7xx_hal_uart_ex.c ****   MODIFY_REG(huart->Instance->CR1, (USART_CR1_DEDT | USART_CR1_DEAT), temp);
 195              		.loc 1 233 3 view .LVU59
 234:./Libraries/STM32H7xx_HAL_Driver/Src/stm32h7xx_hal_uart_ex.c **** 
 196              		.loc 1 234 3 view .LVU60
 197 0052 3368     		ldr	r3, [r6]
 198 0054 1D40     		ands	r5, r5, r3
 199 0056 1543     		orrs	r5, r5, r2
 200 0058 3560     		str	r5, [r6]
 237:./Libraries/STM32H7xx_HAL_Driver/Src/stm32h7xx_hal_uart_ex.c **** 
 201              		.loc 1 237 3 view .LVU61
 202 005a 3368     		ldr	r3, [r6]
ARM GAS  /tmp/ccSKvF4m.s 			page 23


 203 005c 43F00103 		orr	r3, r3, #1
 204 0060 3360     		str	r3, [r6]
 240:./Libraries/STM32H7xx_HAL_Driver/Src/stm32h7xx_hal_uart_ex.c **** }
 205              		.loc 1 240 3 view .LVU62
 241:./Libraries/STM32H7xx_HAL_Driver/Src/stm32h7xx_hal_uart_ex.c **** 
 206              		.loc 1 241 1 is_stmt 0 view .LVU63
 207 0062 BDE8F041 		pop	{r4, r5, r6, r7, r8, lr}
 208              	.LCFI3:
 209              		.cfi_remember_state
 210              		.cfi_restore 14
 211              		.cfi_restore 8
 212              		.cfi_restore 7
 213              		.cfi_restore 6
 214              		.cfi_restore 5
 215              		.cfi_restore 4
 216              		.cfi_def_cfa_offset 0
 217              	.LVL11:
 240:./Libraries/STM32H7xx_HAL_Driver/Src/stm32h7xx_hal_uart_ex.c **** }
 218              		.loc 1 240 11 view .LVU64
 219 0066 FFF7FEBF 		b	UART_CheckIdleState
 220              	.LVL12:
 221              	.L23:
 222              	.LCFI4:
 223              		.cfi_restore_state
 222:./Libraries/STM32H7xx_HAL_Driver/Src/stm32h7xx_hal_uart_ex.c ****   }
 224              		.loc 1 222 5 is_stmt 1 view .LVU65
 225 006a 2046     		mov	r0, r4
 226 006c FFF7FEFF 		bl	UART_AdvFeatureConfig
 227              	.LVL13:
 228 0070 E0E7     		b	.L11
 229              	.L8:
 241:./Libraries/STM32H7xx_HAL_Driver/Src/stm32h7xx_hal_uart_ex.c **** 
 230              		.loc 1 241 1 is_stmt 0 view .LVU66
 231 0072 0120     		movs	r0, #1
 232 0074 BDE8F081 		pop	{r4, r5, r6, r7, r8, pc}
 233              	.LVL14:
 234              	.L22:
 191:./Libraries/STM32H7xx_HAL_Driver/Src/stm32h7xx_hal_uart_ex.c **** 
 235              		.loc 1 191 5 is_stmt 1 view .LVU67
 191:./Libraries/STM32H7xx_HAL_Driver/Src/stm32h7xx_hal_uart_ex.c **** 
 236              		.loc 1 191 17 is_stmt 0 view .LVU68
 237 0078 80F88030 		strb	r3, [r0, #128]
 205:./Libraries/STM32H7xx_HAL_Driver/Src/stm32h7xx_hal_uart_ex.c **** #endif /* (USE_HAL_UART_REGISTER_CALLBACKS) */
 238              		.loc 1 205 5 is_stmt 1 view .LVU69
 239 007c FFF7FEFF 		bl	HAL_UART_MspInit
 240              	.LVL15:
 205:./Libraries/STM32H7xx_HAL_Driver/Src/stm32h7xx_hal_uart_ex.c **** #endif /* (USE_HAL_UART_REGISTER_CALLBACKS) */
 241              		.loc 1 205 5 is_stmt 0 view .LVU70
 242 0080 C9E7     		b	.L9
 243              	.LVL16:
 244              	.L19:
 245              	.LCFI5:
 246              		.cfi_def_cfa_offset 0
 247              		.cfi_restore 4
 248              		.cfi_restore 5
 249              		.cfi_restore 6
 250              		.cfi_restore 7
ARM GAS  /tmp/ccSKvF4m.s 			page 24


 251              		.cfi_restore 8
 252              		.cfi_restore 14
 241:./Libraries/STM32H7xx_HAL_Driver/Src/stm32h7xx_hal_uart_ex.c **** 
 253              		.loc 1 241 1 view .LVU71
 254 0082 0120     		movs	r0, #1
 255              	.LVL17:
 241:./Libraries/STM32H7xx_HAL_Driver/Src/stm32h7xx_hal_uart_ex.c **** 
 256              		.loc 1 241 1 view .LVU72
 257 0084 7047     		bx	lr
 258              	.L25:
 259 0086 00BF     		.align	2
 260              	.L24:
 261 0088 FFFF00FC 		.word	-67043329
 262              		.cfi_endproc
 263              	.LFE331:
 265              		.section	.text.HAL_UARTEx_WakeupCallback,"ax",%progbits
 266              		.align	1
 267              		.p2align 2,,3
 268              		.weak	HAL_UARTEx_WakeupCallback
 269              		.syntax unified
 270              		.thumb
 271              		.thumb_func
 272              		.fpu fpv5-d16
 274              	HAL_UARTEx_WakeupCallback:
 275              	.LVL18:
 276              	.LFB332:
 273:./Libraries/STM32H7xx_HAL_Driver/Src/stm32h7xx_hal_uart_ex.c ****   /* Prevent unused argument(s) compilation warning */
 277              		.loc 1 273 1 is_stmt 1 view -0
 278              		.cfi_startproc
 279              		@ args = 0, pretend = 0, frame = 0
 280              		@ frame_needed = 0, uses_anonymous_args = 0
 281              		@ link register save eliminated.
 275:./Libraries/STM32H7xx_HAL_Driver/Src/stm32h7xx_hal_uart_ex.c **** 
 282              		.loc 1 275 3 view .LVU74
 280:./Libraries/STM32H7xx_HAL_Driver/Src/stm32h7xx_hal_uart_ex.c **** 
 283              		.loc 1 280 1 is_stmt 0 view .LVU75
 284 0000 7047     		bx	lr
 285              		.cfi_endproc
 286              	.LFE332:
 288 0002 00BF     		.section	.text.HAL_UARTEx_RxFifoFullCallback,"ax",%progbits
 289              		.align	1
 290              		.p2align 2,,3
 291              		.weak	HAL_UARTEx_RxFifoFullCallback
 292              		.syntax unified
 293              		.thumb
 294              		.thumb_func
 295              		.fpu fpv5-d16
 297              	HAL_UARTEx_RxFifoFullCallback:
 298              	.LFB351:
 299              		.cfi_startproc
 300              		@ args = 0, pretend = 0, frame = 0
 301              		@ frame_needed = 0, uses_anonymous_args = 0
 302              		@ link register save eliminated.
 303 0000 7047     		bx	lr
 304              		.cfi_endproc
 305              	.LFE351:
 307 0002 00BF     		.section	.text.HAL_UARTEx_TxFifoEmptyCallback,"ax",%progbits
ARM GAS  /tmp/ccSKvF4m.s 			page 25


 308              		.align	1
 309              		.p2align 2,,3
 310              		.weak	HAL_UARTEx_TxFifoEmptyCallback
 311              		.syntax unified
 312              		.thumb
 313              		.thumb_func
 314              		.fpu fpv5-d16
 316              	HAL_UARTEx_TxFifoEmptyCallback:
 317              	.LFB353:
 318              		.cfi_startproc
 319              		@ args = 0, pretend = 0, frame = 0
 320              		@ frame_needed = 0, uses_anonymous_args = 0
 321              		@ link register save eliminated.
 322 0000 7047     		bx	lr
 323              		.cfi_endproc
 324              	.LFE353:
 326 0002 00BF     		.section	.text.HAL_MultiProcessorEx_AddressLength_Set,"ax",%progbits
 327              		.align	1
 328              		.p2align 2,,3
 329              		.global	HAL_MultiProcessorEx_AddressLength_Set
 330              		.syntax unified
 331              		.thumb
 332              		.thumb_func
 333              		.fpu fpv5-d16
 335              	HAL_MultiProcessorEx_AddressLength_Set:
 336              	.LVL19:
 337              	.LFB335:
 388:./Libraries/STM32H7xx_HAL_Driver/Src/stm32h7xx_hal_uart_ex.c ****   /* Check the UART handle allocation */
 338              		.loc 1 388 1 is_stmt 1 view -0
 339              		.cfi_startproc
 340              		@ args = 0, pretend = 0, frame = 0
 341              		@ frame_needed = 0, uses_anonymous_args = 0
 342              		@ link register save eliminated.
 390:./Libraries/STM32H7xx_HAL_Driver/Src/stm32h7xx_hal_uart_ex.c ****   {
 343              		.loc 1 390 3 view .LVU77
 390:./Libraries/STM32H7xx_HAL_Driver/Src/stm32h7xx_hal_uart_ex.c ****   {
 344              		.loc 1 390 6 is_stmt 0 view .LVU78
 345 0000 A8B1     		cbz	r0, .L30
 396:./Libraries/STM32H7xx_HAL_Driver/Src/stm32h7xx_hal_uart_ex.c **** 
 346              		.loc 1 396 3 is_stmt 1 view .LVU79
 398:./Libraries/STM32H7xx_HAL_Driver/Src/stm32h7xx_hal_uart_ex.c **** 
 347              		.loc 1 398 3 view .LVU80
 401:./Libraries/STM32H7xx_HAL_Driver/Src/stm32h7xx_hal_uart_ex.c **** 
 348              		.loc 1 401 3 is_stmt 0 view .LVU81
 349 0002 0268     		ldr	r2, [r0]
 388:./Libraries/STM32H7xx_HAL_Driver/Src/stm32h7xx_hal_uart_ex.c ****   /* Check the UART handle allocation */
 350              		.loc 1 388 1 view .LVU82
 351 0004 10B4     		push	{r4}
 352              	.LCFI6:
 353              		.cfi_def_cfa_offset 4
 354              		.cfi_offset 4, -4
 398:./Libraries/STM32H7xx_HAL_Driver/Src/stm32h7xx_hal_uart_ex.c **** 
 355              		.loc 1 398 17 view .LVU83
 356 0006 2424     		movs	r4, #36
 357 0008 C0F88440 		str	r4, [r0, #132]
 401:./Libraries/STM32H7xx_HAL_Driver/Src/stm32h7xx_hal_uart_ex.c **** 
 358              		.loc 1 401 3 is_stmt 1 view .LVU84
ARM GAS  /tmp/ccSKvF4m.s 			page 26


 359 000c 1368     		ldr	r3, [r2]
 411:./Libraries/STM32H7xx_HAL_Driver/Src/stm32h7xx_hal_uart_ex.c **** 
 360              		.loc 1 411 1 is_stmt 0 view .LVU85
 361 000e 5DF8044B 		ldr	r4, [sp], #4
 362              	.LCFI7:
 363              		.cfi_restore 4
 364              		.cfi_def_cfa_offset 0
 401:./Libraries/STM32H7xx_HAL_Driver/Src/stm32h7xx_hal_uart_ex.c **** 
 365              		.loc 1 401 3 view .LVU86
 366 0012 23F00103 		bic	r3, r3, #1
 367 0016 1360     		str	r3, [r2]
 404:./Libraries/STM32H7xx_HAL_Driver/Src/stm32h7xx_hal_uart_ex.c **** 
 368              		.loc 1 404 3 is_stmt 1 view .LVU87
 369 0018 5368     		ldr	r3, [r2, #4]
 370 001a 23F01003 		bic	r3, r3, #16
 371 001e 1943     		orrs	r1, r1, r3
 372              	.LVL20:
 404:./Libraries/STM32H7xx_HAL_Driver/Src/stm32h7xx_hal_uart_ex.c **** 
 373              		.loc 1 404 3 is_stmt 0 view .LVU88
 374 0020 5160     		str	r1, [r2, #4]
 407:./Libraries/STM32H7xx_HAL_Driver/Src/stm32h7xx_hal_uart_ex.c **** 
 375              		.loc 1 407 3 is_stmt 1 view .LVU89
 376 0022 1368     		ldr	r3, [r2]
 377 0024 43F00103 		orr	r3, r3, #1
 378 0028 1360     		str	r3, [r2]
 410:./Libraries/STM32H7xx_HAL_Driver/Src/stm32h7xx_hal_uart_ex.c **** }
 379              		.loc 1 410 3 view .LVU90
 410:./Libraries/STM32H7xx_HAL_Driver/Src/stm32h7xx_hal_uart_ex.c **** }
 380              		.loc 1 410 11 is_stmt 0 view .LVU91
 381 002a FFF7FEBF 		b	UART_CheckIdleState
 382              	.LVL21:
 383              	.L30:
 411:./Libraries/STM32H7xx_HAL_Driver/Src/stm32h7xx_hal_uart_ex.c **** 
 384              		.loc 1 411 1 view .LVU92
 385 002e 0120     		movs	r0, #1
 386              	.LVL22:
 411:./Libraries/STM32H7xx_HAL_Driver/Src/stm32h7xx_hal_uart_ex.c **** 
 387              		.loc 1 411 1 view .LVU93
 388 0030 7047     		bx	lr
 389              		.cfi_endproc
 390              	.LFE335:
 392 0032 00BF     		.section	.text.HAL_UARTEx_StopModeWakeUpSourceConfig,"ax",%progbits
 393              		.align	1
 394              		.p2align 2,,3
 395              		.global	HAL_UARTEx_StopModeWakeUpSourceConfig
 396              		.syntax unified
 397              		.thumb
 398              		.thumb_func
 399              		.fpu fpv5-d16
 401              	HAL_UARTEx_StopModeWakeUpSourceConfig:
 402              	.LVL23:
 403              	.LFB336:
 426:./Libraries/STM32H7xx_HAL_Driver/Src/stm32h7xx_hal_uart_ex.c ****   HAL_StatusTypeDef status = HAL_OK;
 404              		.loc 1 426 1 is_stmt 1 view -0
 405              		.cfi_startproc
 406              		@ args = 0, pretend = 0, frame = 8
 407              		@ frame_needed = 0, uses_anonymous_args = 0
ARM GAS  /tmp/ccSKvF4m.s 			page 27


 426:./Libraries/STM32H7xx_HAL_Driver/Src/stm32h7xx_hal_uart_ex.c ****   HAL_StatusTypeDef status = HAL_OK;
 408              		.loc 1 426 1 is_stmt 0 view .LVU95
 409 0000 30B5     		push	{r4, r5, lr}
 410              	.LCFI8:
 411              		.cfi_def_cfa_offset 12
 412              		.cfi_offset 4, -12
 413              		.cfi_offset 5, -8
 414              		.cfi_offset 14, -4
 415 0002 85B0     		sub	sp, sp, #20
 416              	.LCFI9:
 417              		.cfi_def_cfa_offset 32
 436:./Libraries/STM32H7xx_HAL_Driver/Src/stm32h7xx_hal_uart_ex.c **** 
 418              		.loc 1 436 3 view .LVU96
 419 0004 90F88030 		ldrb	r3, [r0, #128]	@ zero_extendqisi2
 426:./Libraries/STM32H7xx_HAL_Driver/Src/stm32h7xx_hal_uart_ex.c ****   HAL_StatusTypeDef status = HAL_OK;
 420              		.loc 1 426 1 view .LVU97
 421 0008 0446     		mov	r4, r0
 436:./Libraries/STM32H7xx_HAL_Driver/Src/stm32h7xx_hal_uart_ex.c **** 
 422              		.loc 1 436 3 view .LVU98
 423 000a 012B     		cmp	r3, #1
 426:./Libraries/STM32H7xx_HAL_Driver/Src/stm32h7xx_hal_uart_ex.c ****   HAL_StatusTypeDef status = HAL_OK;
 424              		.loc 1 426 1 view .LVU99
 425 000c 04A8     		add	r0, sp, #16
 426              	.LVL24:
 426:./Libraries/STM32H7xx_HAL_Driver/Src/stm32h7xx_hal_uart_ex.c ****   HAL_StatusTypeDef status = HAL_OK;
 427              		.loc 1 426 1 view .LVU100
 428 000e 00E90600 		stmdb	r0, {r1, r2}
 429 0012 0299     		ldr	r1, [sp, #8]
 430              	.LVL25:
 427:./Libraries/STM32H7xx_HAL_Driver/Src/stm32h7xx_hal_uart_ex.c ****   uint32_t tickstart;
 431              		.loc 1 427 3 is_stmt 1 view .LVU101
 428:./Libraries/STM32H7xx_HAL_Driver/Src/stm32h7xx_hal_uart_ex.c **** 
 432              		.loc 1 428 3 view .LVU102
 431:./Libraries/STM32H7xx_HAL_Driver/Src/stm32h7xx_hal_uart_ex.c ****   /* check the wake-up selection parameter */
 433              		.loc 1 431 3 view .LVU103
 433:./Libraries/STM32H7xx_HAL_Driver/Src/stm32h7xx_hal_uart_ex.c **** 
 434              		.loc 1 433 3 view .LVU104
 436:./Libraries/STM32H7xx_HAL_Driver/Src/stm32h7xx_hal_uart_ex.c **** 
 435              		.loc 1 436 3 view .LVU105
 436:./Libraries/STM32H7xx_HAL_Driver/Src/stm32h7xx_hal_uart_ex.c **** 
 436              		.loc 1 436 3 view .LVU106
 437 0014 3AD0     		beq	.L38
 436:./Libraries/STM32H7xx_HAL_Driver/Src/stm32h7xx_hal_uart_ex.c **** 
 438              		.loc 1 436 3 discriminator 2 view .LVU107
 441:./Libraries/STM32H7xx_HAL_Driver/Src/stm32h7xx_hal_uart_ex.c **** 
 439              		.loc 1 441 3 is_stmt 0 discriminator 2 view .LVU108
 440 0016 2368     		ldr	r3, [r4]
 438:./Libraries/STM32H7xx_HAL_Driver/Src/stm32h7xx_hal_uart_ex.c **** 
 441              		.loc 1 438 17 discriminator 2 view .LVU109
 442 0018 2422     		movs	r2, #36
 436:./Libraries/STM32H7xx_HAL_Driver/Src/stm32h7xx_hal_uart_ex.c **** 
 443              		.loc 1 436 3 discriminator 2 view .LVU110
 444 001a 0120     		movs	r0, #1
 438:./Libraries/STM32H7xx_HAL_Driver/Src/stm32h7xx_hal_uart_ex.c **** 
 445              		.loc 1 438 17 discriminator 2 view .LVU111
 446 001c C4F88420 		str	r2, [r4, #132]
 436:./Libraries/STM32H7xx_HAL_Driver/Src/stm32h7xx_hal_uart_ex.c **** 
ARM GAS  /tmp/ccSKvF4m.s 			page 28


 447              		.loc 1 436 3 discriminator 2 view .LVU112
 448 0020 84F88000 		strb	r0, [r4, #128]
 436:./Libraries/STM32H7xx_HAL_Driver/Src/stm32h7xx_hal_uart_ex.c **** 
 449              		.loc 1 436 3 is_stmt 1 discriminator 2 view .LVU113
 438:./Libraries/STM32H7xx_HAL_Driver/Src/stm32h7xx_hal_uart_ex.c **** 
 450              		.loc 1 438 3 discriminator 2 view .LVU114
 441:./Libraries/STM32H7xx_HAL_Driver/Src/stm32h7xx_hal_uart_ex.c **** 
 451              		.loc 1 441 3 discriminator 2 view .LVU115
 452 0024 1A68     		ldr	r2, [r3]
 453 0026 22F00102 		bic	r2, r2, #1
 454 002a 1A60     		str	r2, [r3]
 444:./Libraries/STM32H7xx_HAL_Driver/Src/stm32h7xx_hal_uart_ex.c **** 
 455              		.loc 1 444 3 discriminator 2 view .LVU116
 456 002c 9A68     		ldr	r2, [r3, #8]
 457 002e 22F44012 		bic	r2, r2, #3145728
 458 0032 0A43     		orrs	r2, r2, r1
 459 0034 9A60     		str	r2, [r3, #8]
 446:./Libraries/STM32H7xx_HAL_Driver/Src/stm32h7xx_hal_uart_ex.c ****   {
 460              		.loc 1 446 3 discriminator 2 view .LVU117
 446:./Libraries/STM32H7xx_HAL_Driver/Src/stm32h7xx_hal_uart_ex.c ****   {
 461              		.loc 1 446 6 is_stmt 0 discriminator 2 view .LVU118
 462 0036 71B9     		cbnz	r1, .L36
 448:./Libraries/STM32H7xx_HAL_Driver/Src/stm32h7xx_hal_uart_ex.c ****   }
 463              		.loc 1 448 5 is_stmt 1 view .LVU119
 464              	.LBB10:
 465              	.LBB11:
 966:./Libraries/STM32H7xx_HAL_Driver/Src/stm32h7xx_hal_uart_ex.c **** 
 466              		.loc 1 966 3 is_stmt 0 view .LVU120
 467 0038 5968     		ldr	r1, [r3, #4]
 468              	.LVL26:
 966:./Libraries/STM32H7xx_HAL_Driver/Src/stm32h7xx_hal_uart_ex.c **** 
 469              		.loc 1 966 3 view .LVU121
 470 003a BDF80C20 		ldrh	r2, [sp, #12]
 471 003e 21F01001 		bic	r1, r1, #16
 472              	.LBE11:
 473              	.LBE10:
 448:./Libraries/STM32H7xx_HAL_Driver/Src/stm32h7xx_hal_uart_ex.c ****   }
 474              		.loc 1 448 5 view .LVU122
 475 0042 9DF80E00 		ldrb	r0, [sp, #14]	@ zero_extendqisi2
 476              	.LVL27:
 477              	.LBB13:
 478              	.LBI10:
 961:./Libraries/STM32H7xx_HAL_Driver/Src/stm32h7xx_hal_uart_ex.c **** {
 479              		.loc 1 961 13 is_stmt 1 view .LVU123
 480              	.LBB12:
 963:./Libraries/STM32H7xx_HAL_Driver/Src/stm32h7xx_hal_uart_ex.c **** 
 481              		.loc 1 963 3 view .LVU124
 966:./Libraries/STM32H7xx_HAL_Driver/Src/stm32h7xx_hal_uart_ex.c **** 
 482              		.loc 1 966 3 view .LVU125
 483 0046 1143     		orrs	r1, r1, r2
 484 0048 5960     		str	r1, [r3, #4]
 969:./Libraries/STM32H7xx_HAL_Driver/Src/stm32h7xx_hal_uart_ex.c **** }
 485              		.loc 1 969 3 view .LVU126
 486 004a 5A68     		ldr	r2, [r3, #4]
 487 004c 22F07F42 		bic	r2, r2, #-16777216
 488 0050 42EA0062 		orr	r2, r2, r0, lsl #24
 489 0054 5A60     		str	r2, [r3, #4]
ARM GAS  /tmp/ccSKvF4m.s 			page 29


 490              	.LVL28:
 491              	.L36:
 969:./Libraries/STM32H7xx_HAL_Driver/Src/stm32h7xx_hal_uart_ex.c **** }
 492              		.loc 1 969 3 is_stmt 0 view .LVU127
 493              	.LBE12:
 494              	.LBE13:
 452:./Libraries/STM32H7xx_HAL_Driver/Src/stm32h7xx_hal_uart_ex.c **** 
 495              		.loc 1 452 3 is_stmt 1 view .LVU128
 496 0056 1A68     		ldr	r2, [r3]
 458:./Libraries/STM32H7xx_HAL_Driver/Src/stm32h7xx_hal_uart_ex.c ****   {
 497              		.loc 1 458 7 is_stmt 0 view .LVU129
 498 0058 6FF07E45 		mvn	r5, #-33554432
 452:./Libraries/STM32H7xx_HAL_Driver/Src/stm32h7xx_hal_uart_ex.c **** 
 499              		.loc 1 452 3 view .LVU130
 500 005c 42F00102 		orr	r2, r2, #1
 501 0060 1A60     		str	r2, [r3]
 455:./Libraries/STM32H7xx_HAL_Driver/Src/stm32h7xx_hal_uart_ex.c **** 
 502              		.loc 1 455 3 is_stmt 1 view .LVU131
 455:./Libraries/STM32H7xx_HAL_Driver/Src/stm32h7xx_hal_uart_ex.c **** 
 503              		.loc 1 455 15 is_stmt 0 view .LVU132
 504 0062 FFF7FEFF 		bl	HAL_GetTick
 505              	.LVL29:
 458:./Libraries/STM32H7xx_HAL_Driver/Src/stm32h7xx_hal_uart_ex.c ****   {
 506              		.loc 1 458 7 view .LVU133
 507 0066 0022     		movs	r2, #0
 455:./Libraries/STM32H7xx_HAL_Driver/Src/stm32h7xx_hal_uart_ex.c **** 
 508              		.loc 1 455 15 view .LVU134
 509 0068 0346     		mov	r3, r0
 510              	.LVL30:
 458:./Libraries/STM32H7xx_HAL_Driver/Src/stm32h7xx_hal_uart_ex.c ****   {
 511              		.loc 1 458 3 is_stmt 1 view .LVU135
 458:./Libraries/STM32H7xx_HAL_Driver/Src/stm32h7xx_hal_uart_ex.c ****   {
 512              		.loc 1 458 7 is_stmt 0 view .LVU136
 513 006a 4FF48001 		mov	r1, #4194304
 514 006e 2046     		mov	r0, r4
 515              	.LVL31:
 458:./Libraries/STM32H7xx_HAL_Driver/Src/stm32h7xx_hal_uart_ex.c ****   {
 516              		.loc 1 458 7 view .LVU137
 517 0070 0095     		str	r5, [sp]
 518 0072 FFF7FEFF 		bl	UART_WaitOnFlagUntilTimeout
 519              	.LVL32:
 458:./Libraries/STM32H7xx_HAL_Driver/Src/stm32h7xx_hal_uart_ex.c ****   {
 520              		.loc 1 458 6 view .LVU138
 521 0076 38B9     		cbnz	r0, .L39
 465:./Libraries/STM32H7xx_HAL_Driver/Src/stm32h7xx_hal_uart_ex.c ****   }
 522              		.loc 1 465 5 is_stmt 1 view .LVU139
 465:./Libraries/STM32H7xx_HAL_Driver/Src/stm32h7xx_hal_uart_ex.c ****   }
 523              		.loc 1 465 19 is_stmt 0 view .LVU140
 524 0078 2023     		movs	r3, #32
 525 007a C4F88430 		str	r3, [r4, #132]
 526              	.L37:
 527              	.LVL33:
 469:./Libraries/STM32H7xx_HAL_Driver/Src/stm32h7xx_hal_uart_ex.c **** 
 528              		.loc 1 469 3 is_stmt 1 view .LVU141
 469:./Libraries/STM32H7xx_HAL_Driver/Src/stm32h7xx_hal_uart_ex.c **** 
 529              		.loc 1 469 3 view .LVU142
 530 007e 0023     		movs	r3, #0
ARM GAS  /tmp/ccSKvF4m.s 			page 30


 531 0080 84F88030 		strb	r3, [r4, #128]
 469:./Libraries/STM32H7xx_HAL_Driver/Src/stm32h7xx_hal_uart_ex.c **** 
 532              		.loc 1 469 3 view .LVU143
 471:./Libraries/STM32H7xx_HAL_Driver/Src/stm32h7xx_hal_uart_ex.c **** }
 533              		.loc 1 471 3 view .LVU144
 472:./Libraries/STM32H7xx_HAL_Driver/Src/stm32h7xx_hal_uart_ex.c **** 
 534              		.loc 1 472 1 is_stmt 0 view .LVU145
 535 0084 05B0     		add	sp, sp, #20
 536              	.LCFI10:
 537              		.cfi_remember_state
 538              		.cfi_def_cfa_offset 12
 539              		@ sp needed
 540 0086 30BD     		pop	{r4, r5, pc}
 541              	.LVL34:
 542              	.L39:
 543              	.LCFI11:
 544              		.cfi_restore_state
 460:./Libraries/STM32H7xx_HAL_Driver/Src/stm32h7xx_hal_uart_ex.c ****   }
 545              		.loc 1 460 12 view .LVU146
 546 0088 0320     		movs	r0, #3
 547 008a F8E7     		b	.L37
 548              	.LVL35:
 549              	.L38:
 436:./Libraries/STM32H7xx_HAL_Driver/Src/stm32h7xx_hal_uart_ex.c **** 
 550              		.loc 1 436 3 view .LVU147
 551 008c 0220     		movs	r0, #2
 472:./Libraries/STM32H7xx_HAL_Driver/Src/stm32h7xx_hal_uart_ex.c **** 
 552              		.loc 1 472 1 view .LVU148
 553 008e 05B0     		add	sp, sp, #20
 554              	.LCFI12:
 555              		.cfi_def_cfa_offset 12
 556              		@ sp needed
 557 0090 30BD     		pop	{r4, r5, pc}
 472:./Libraries/STM32H7xx_HAL_Driver/Src/stm32h7xx_hal_uart_ex.c **** 
 558              		.loc 1 472 1 view .LVU149
 559              		.cfi_endproc
 560              	.LFE336:
 562 0092 00BF     		.section	.text.HAL_UARTEx_EnableStopMode,"ax",%progbits
 563              		.align	1
 564              		.p2align 2,,3
 565              		.global	HAL_UARTEx_EnableStopMode
 566              		.syntax unified
 567              		.thumb
 568              		.thumb_func
 569              		.fpu fpv5-d16
 571              	HAL_UARTEx_EnableStopMode:
 572              	.LVL36:
 573              	.LFB337:
 481:./Libraries/STM32H7xx_HAL_Driver/Src/stm32h7xx_hal_uart_ex.c ****   /* Process Locked */
 574              		.loc 1 481 1 is_stmt 1 view -0
 575              		.cfi_startproc
 576              		@ args = 0, pretend = 0, frame = 0
 577              		@ frame_needed = 0, uses_anonymous_args = 0
 578              		@ link register save eliminated.
 483:./Libraries/STM32H7xx_HAL_Driver/Src/stm32h7xx_hal_uart_ex.c **** 
 579              		.loc 1 483 3 view .LVU151
 483:./Libraries/STM32H7xx_HAL_Driver/Src/stm32h7xx_hal_uart_ex.c **** 
ARM GAS  /tmp/ccSKvF4m.s 			page 31


 580              		.loc 1 483 3 view .LVU152
 581 0000 90F88020 		ldrb	r2, [r0, #128]	@ zero_extendqisi2
 582 0004 012A     		cmp	r2, #1
 583 0006 0DD0     		beq	.L43
 584 0008 0346     		mov	r3, r0
 483:./Libraries/STM32H7xx_HAL_Driver/Src/stm32h7xx_hal_uart_ex.c **** 
 585              		.loc 1 483 3 discriminator 2 view .LVU153
 483:./Libraries/STM32H7xx_HAL_Driver/Src/stm32h7xx_hal_uart_ex.c **** 
 586              		.loc 1 483 3 discriminator 2 view .LVU154
 486:./Libraries/STM32H7xx_HAL_Driver/Src/stm32h7xx_hal_uart_ex.c **** 
 587              		.loc 1 486 3 discriminator 2 view .LVU155
 489:./Libraries/STM32H7xx_HAL_Driver/Src/stm32h7xx_hal_uart_ex.c **** 
 588              		.loc 1 489 3 is_stmt 0 discriminator 2 view .LVU156
 589 000a 0021     		movs	r1, #0
 481:./Libraries/STM32H7xx_HAL_Driver/Src/stm32h7xx_hal_uart_ex.c ****   /* Process Locked */
 590              		.loc 1 481 1 discriminator 2 view .LVU157
 591 000c 10B4     		push	{r4}
 592              	.LCFI13:
 593              		.cfi_def_cfa_offset 4
 594              		.cfi_offset 4, -4
 486:./Libraries/STM32H7xx_HAL_Driver/Src/stm32h7xx_hal_uart_ex.c **** 
 595              		.loc 1 486 3 discriminator 2 view .LVU158
 596 000e 0468     		ldr	r4, [r0]
 491:./Libraries/STM32H7xx_HAL_Driver/Src/stm32h7xx_hal_uart_ex.c **** }
 597              		.loc 1 491 10 discriminator 2 view .LVU159
 598 0010 0846     		mov	r0, r1
 599              	.LVL37:
 486:./Libraries/STM32H7xx_HAL_Driver/Src/stm32h7xx_hal_uart_ex.c **** 
 600              		.loc 1 486 3 discriminator 2 view .LVU160
 601 0012 2268     		ldr	r2, [r4]
 602 0014 42F00202 		orr	r2, r2, #2
 603 0018 2260     		str	r2, [r4]
 489:./Libraries/STM32H7xx_HAL_Driver/Src/stm32h7xx_hal_uart_ex.c **** 
 604              		.loc 1 489 3 is_stmt 1 discriminator 2 view .LVU161
 489:./Libraries/STM32H7xx_HAL_Driver/Src/stm32h7xx_hal_uart_ex.c **** 
 605              		.loc 1 489 3 discriminator 2 view .LVU162
 606 001a 83F88010 		strb	r1, [r3, #128]
 489:./Libraries/STM32H7xx_HAL_Driver/Src/stm32h7xx_hal_uart_ex.c **** 
 607              		.loc 1 489 3 discriminator 2 view .LVU163
 491:./Libraries/STM32H7xx_HAL_Driver/Src/stm32h7xx_hal_uart_ex.c **** }
 608              		.loc 1 491 3 discriminator 2 view .LVU164
 492:./Libraries/STM32H7xx_HAL_Driver/Src/stm32h7xx_hal_uart_ex.c **** 
 609              		.loc 1 492 1 is_stmt 0 discriminator 2 view .LVU165
 610 001e 5DF8044B 		ldr	r4, [sp], #4
 611              	.LCFI14:
 612              		.cfi_restore 4
 613              		.cfi_def_cfa_offset 0
 614 0022 7047     		bx	lr
 615              	.LVL38:
 616              	.L43:
 483:./Libraries/STM32H7xx_HAL_Driver/Src/stm32h7xx_hal_uart_ex.c **** 
 617              		.loc 1 483 3 view .LVU166
 618 0024 0220     		movs	r0, #2
 619              	.LVL39:
 492:./Libraries/STM32H7xx_HAL_Driver/Src/stm32h7xx_hal_uart_ex.c **** 
 620              		.loc 1 492 1 view .LVU167
 621 0026 7047     		bx	lr
ARM GAS  /tmp/ccSKvF4m.s 			page 32


 622              		.cfi_endproc
 623              	.LFE337:
 625              		.section	.text.HAL_UARTEx_DisableStopMode,"ax",%progbits
 626              		.align	1
 627              		.p2align 2,,3
 628              		.global	HAL_UARTEx_DisableStopMode
 629              		.syntax unified
 630              		.thumb
 631              		.thumb_func
 632              		.fpu fpv5-d16
 634              	HAL_UARTEx_DisableStopMode:
 635              	.LVL40:
 636              	.LFB338:
 500:./Libraries/STM32H7xx_HAL_Driver/Src/stm32h7xx_hal_uart_ex.c ****   /* Process Locked */
 637              		.loc 1 500 1 is_stmt 1 view -0
 638              		.cfi_startproc
 639              		@ args = 0, pretend = 0, frame = 0
 640              		@ frame_needed = 0, uses_anonymous_args = 0
 641              		@ link register save eliminated.
 502:./Libraries/STM32H7xx_HAL_Driver/Src/stm32h7xx_hal_uart_ex.c **** 
 642              		.loc 1 502 3 view .LVU169
 502:./Libraries/STM32H7xx_HAL_Driver/Src/stm32h7xx_hal_uart_ex.c **** 
 643              		.loc 1 502 3 view .LVU170
 644 0000 90F88020 		ldrb	r2, [r0, #128]	@ zero_extendqisi2
 645 0004 012A     		cmp	r2, #1
 646 0006 0DD0     		beq	.L50
 647 0008 0346     		mov	r3, r0
 502:./Libraries/STM32H7xx_HAL_Driver/Src/stm32h7xx_hal_uart_ex.c **** 
 648              		.loc 1 502 3 discriminator 2 view .LVU171
 502:./Libraries/STM32H7xx_HAL_Driver/Src/stm32h7xx_hal_uart_ex.c **** 
 649              		.loc 1 502 3 discriminator 2 view .LVU172
 505:./Libraries/STM32H7xx_HAL_Driver/Src/stm32h7xx_hal_uart_ex.c **** 
 650              		.loc 1 505 3 discriminator 2 view .LVU173
 508:./Libraries/STM32H7xx_HAL_Driver/Src/stm32h7xx_hal_uart_ex.c **** 
 651              		.loc 1 508 3 is_stmt 0 discriminator 2 view .LVU174
 652 000a 0021     		movs	r1, #0
 500:./Libraries/STM32H7xx_HAL_Driver/Src/stm32h7xx_hal_uart_ex.c ****   /* Process Locked */
 653              		.loc 1 500 1 discriminator 2 view .LVU175
 654 000c 10B4     		push	{r4}
 655              	.LCFI15:
 656              		.cfi_def_cfa_offset 4
 657              		.cfi_offset 4, -4
 505:./Libraries/STM32H7xx_HAL_Driver/Src/stm32h7xx_hal_uart_ex.c **** 
 658              		.loc 1 505 3 discriminator 2 view .LVU176
 659 000e 0468     		ldr	r4, [r0]
 510:./Libraries/STM32H7xx_HAL_Driver/Src/stm32h7xx_hal_uart_ex.c **** }
 660              		.loc 1 510 10 discriminator 2 view .LVU177
 661 0010 0846     		mov	r0, r1
 662              	.LVL41:
 505:./Libraries/STM32H7xx_HAL_Driver/Src/stm32h7xx_hal_uart_ex.c **** 
 663              		.loc 1 505 3 discriminator 2 view .LVU178
 664 0012 2268     		ldr	r2, [r4]
 665 0014 22F00202 		bic	r2, r2, #2
 666 0018 2260     		str	r2, [r4]
 508:./Libraries/STM32H7xx_HAL_Driver/Src/stm32h7xx_hal_uart_ex.c **** 
 667              		.loc 1 508 3 is_stmt 1 discriminator 2 view .LVU179
 508:./Libraries/STM32H7xx_HAL_Driver/Src/stm32h7xx_hal_uart_ex.c **** 
ARM GAS  /tmp/ccSKvF4m.s 			page 33


 668              		.loc 1 508 3 discriminator 2 view .LVU180
 669 001a 83F88010 		strb	r1, [r3, #128]
 508:./Libraries/STM32H7xx_HAL_Driver/Src/stm32h7xx_hal_uart_ex.c **** 
 670              		.loc 1 508 3 discriminator 2 view .LVU181
 510:./Libraries/STM32H7xx_HAL_Driver/Src/stm32h7xx_hal_uart_ex.c **** }
 671              		.loc 1 510 3 discriminator 2 view .LVU182
 511:./Libraries/STM32H7xx_HAL_Driver/Src/stm32h7xx_hal_uart_ex.c **** 
 672              		.loc 1 511 1 is_stmt 0 discriminator 2 view .LVU183
 673 001e 5DF8044B 		ldr	r4, [sp], #4
 674              	.LCFI16:
 675              		.cfi_restore 4
 676              		.cfi_def_cfa_offset 0
 677 0022 7047     		bx	lr
 678              	.LVL42:
 679              	.L50:
 502:./Libraries/STM32H7xx_HAL_Driver/Src/stm32h7xx_hal_uart_ex.c **** 
 680              		.loc 1 502 3 view .LVU184
 681 0024 0220     		movs	r0, #2
 682              	.LVL43:
 511:./Libraries/STM32H7xx_HAL_Driver/Src/stm32h7xx_hal_uart_ex.c **** 
 683              		.loc 1 511 1 view .LVU185
 684 0026 7047     		bx	lr
 685              		.cfi_endproc
 686              	.LFE338:
 688              		.section	.text.HAL_UARTEx_EnableFifoMode,"ax",%progbits
 689              		.align	1
 690              		.p2align 2,,3
 691              		.global	HAL_UARTEx_EnableFifoMode
 692              		.syntax unified
 693              		.thumb
 694              		.thumb_func
 695              		.fpu fpv5-d16
 697              	HAL_UARTEx_EnableFifoMode:
 698              	.LVL44:
 699              	.LFB339:
 519:./Libraries/STM32H7xx_HAL_Driver/Src/stm32h7xx_hal_uart_ex.c ****   uint32_t tmpcr1;
 700              		.loc 1 519 1 is_stmt 1 view -0
 701              		.cfi_startproc
 702              		@ args = 0, pretend = 0, frame = 0
 703              		@ frame_needed = 0, uses_anonymous_args = 0
 520:./Libraries/STM32H7xx_HAL_Driver/Src/stm32h7xx_hal_uart_ex.c **** 
 704              		.loc 1 520 3 view .LVU187
 523:./Libraries/STM32H7xx_HAL_Driver/Src/stm32h7xx_hal_uart_ex.c **** 
 705              		.loc 1 523 3 view .LVU188
 526:./Libraries/STM32H7xx_HAL_Driver/Src/stm32h7xx_hal_uart_ex.c **** 
 706              		.loc 1 526 3 view .LVU189
 526:./Libraries/STM32H7xx_HAL_Driver/Src/stm32h7xx_hal_uart_ex.c **** 
 707              		.loc 1 526 3 view .LVU190
 519:./Libraries/STM32H7xx_HAL_Driver/Src/stm32h7xx_hal_uart_ex.c ****   uint32_t tmpcr1;
 708              		.loc 1 519 1 is_stmt 0 view .LVU191
 709 0000 38B5     		push	{r3, r4, r5, lr}
 710              	.LCFI17:
 711              		.cfi_def_cfa_offset 16
 712              		.cfi_offset 3, -16
 713              		.cfi_offset 4, -12
 714              		.cfi_offset 5, -8
 715              		.cfi_offset 14, -4
ARM GAS  /tmp/ccSKvF4m.s 			page 34


 526:./Libraries/STM32H7xx_HAL_Driver/Src/stm32h7xx_hal_uart_ex.c **** 
 716              		.loc 1 526 3 view .LVU192
 717 0002 90F88030 		ldrb	r3, [r0, #128]	@ zero_extendqisi2
 718 0006 012B     		cmp	r3, #1
 719 0008 1AD0     		beq	.L57
 531:./Libraries/STM32H7xx_HAL_Driver/Src/stm32h7xx_hal_uart_ex.c **** 
 720              		.loc 1 531 12 discriminator 2 view .LVU193
 721 000a 0368     		ldr	r3, [r0]
 526:./Libraries/STM32H7xx_HAL_Driver/Src/stm32h7xx_hal_uart_ex.c **** 
 722              		.loc 1 526 3 discriminator 2 view .LVU194
 723 000c 0121     		movs	r1, #1
 528:./Libraries/STM32H7xx_HAL_Driver/Src/stm32h7xx_hal_uart_ex.c **** 
 724              		.loc 1 528 17 discriminator 2 view .LVU195
 725 000e 2422     		movs	r2, #36
 538:./Libraries/STM32H7xx_HAL_Driver/Src/stm32h7xx_hal_uart_ex.c **** 
 726              		.loc 1 538 19 discriminator 2 view .LVU196
 727 0010 4FF00055 		mov	r5, #536870912
 526:./Libraries/STM32H7xx_HAL_Driver/Src/stm32h7xx_hal_uart_ex.c **** 
 728              		.loc 1 526 3 discriminator 2 view .LVU197
 729 0014 80F88010 		strb	r1, [r0, #128]
 730 0018 0446     		mov	r4, r0
 526:./Libraries/STM32H7xx_HAL_Driver/Src/stm32h7xx_hal_uart_ex.c **** 
 731              		.loc 1 526 3 is_stmt 1 discriminator 2 view .LVU198
 526:./Libraries/STM32H7xx_HAL_Driver/Src/stm32h7xx_hal_uart_ex.c **** 
 732              		.loc 1 526 3 discriminator 2 view .LVU199
 528:./Libraries/STM32H7xx_HAL_Driver/Src/stm32h7xx_hal_uart_ex.c **** 
 733              		.loc 1 528 3 discriminator 2 view .LVU200
 528:./Libraries/STM32H7xx_HAL_Driver/Src/stm32h7xx_hal_uart_ex.c **** 
 734              		.loc 1 528 17 is_stmt 0 discriminator 2 view .LVU201
 735 001a C0F88420 		str	r2, [r0, #132]
 531:./Libraries/STM32H7xx_HAL_Driver/Src/stm32h7xx_hal_uart_ex.c **** 
 736              		.loc 1 531 3 is_stmt 1 discriminator 2 view .LVU202
 531:./Libraries/STM32H7xx_HAL_Driver/Src/stm32h7xx_hal_uart_ex.c **** 
 737              		.loc 1 531 10 is_stmt 0 discriminator 2 view .LVU203
 738 001e 1A68     		ldr	r2, [r3]
 739              	.LVL45:
 534:./Libraries/STM32H7xx_HAL_Driver/Src/stm32h7xx_hal_uart_ex.c **** 
 740              		.loc 1 534 3 is_stmt 1 discriminator 2 view .LVU204
 741 0020 1968     		ldr	r1, [r3]
 537:./Libraries/STM32H7xx_HAL_Driver/Src/stm32h7xx_hal_uart_ex.c ****   huart->FifoMode = UART_FIFOMODE_ENABLE;
 742              		.loc 1 537 3 is_stmt 0 discriminator 2 view .LVU205
 743 0022 2A43     		orrs	r2, r2, r5
 744              	.LVL46:
 534:./Libraries/STM32H7xx_HAL_Driver/Src/stm32h7xx_hal_uart_ex.c **** 
 745              		.loc 1 534 3 discriminator 2 view .LVU206
 746 0024 21F00101 		bic	r1, r1, #1
 747 0028 1960     		str	r1, [r3]
 537:./Libraries/STM32H7xx_HAL_Driver/Src/stm32h7xx_hal_uart_ex.c ****   huart->FifoMode = UART_FIFOMODE_ENABLE;
 748              		.loc 1 537 3 is_stmt 1 discriminator 2 view .LVU207
 749              	.LVL47:
 538:./Libraries/STM32H7xx_HAL_Driver/Src/stm32h7xx_hal_uart_ex.c **** 
 750              		.loc 1 538 3 discriminator 2 view .LVU208
 538:./Libraries/STM32H7xx_HAL_Driver/Src/stm32h7xx_hal_uart_ex.c **** 
 751              		.loc 1 538 19 is_stmt 0 discriminator 2 view .LVU209
 752 002a 4566     		str	r5, [r0, #100]
 541:./Libraries/STM32H7xx_HAL_Driver/Src/stm32h7xx_hal_uart_ex.c **** 
 753              		.loc 1 541 3 is_stmt 1 discriminator 2 view .LVU210
ARM GAS  /tmp/ccSKvF4m.s 			page 35


 754 002c 1A60     		str	r2, [r3]
 544:./Libraries/STM32H7xx_HAL_Driver/Src/stm32h7xx_hal_uart_ex.c **** 
 755              		.loc 1 544 3 discriminator 2 view .LVU211
 756              	.LVL48:
 757              	.LBB14:
 758              	.LBI14:
 979:./Libraries/STM32H7xx_HAL_Driver/Src/stm32h7xx_hal_uart_ex.c **** {
 759              		.loc 1 979 13 discriminator 2 view .LVU212
 760              	.LBB15:
 981:./Libraries/STM32H7xx_HAL_Driver/Src/stm32h7xx_hal_uart_ex.c ****   uint8_t tx_fifo_depth;
 761              		.loc 1 981 3 discriminator 2 view .LVU213
 982:./Libraries/STM32H7xx_HAL_Driver/Src/stm32h7xx_hal_uart_ex.c ****   uint8_t rx_fifo_threshold;
 762              		.loc 1 982 3 discriminator 2 view .LVU214
 983:./Libraries/STM32H7xx_HAL_Driver/Src/stm32h7xx_hal_uart_ex.c ****   uint8_t tx_fifo_threshold;
 763              		.loc 1 983 3 discriminator 2 view .LVU215
 984:./Libraries/STM32H7xx_HAL_Driver/Src/stm32h7xx_hal_uart_ex.c ****   static const uint8_t numerator[] = {1U, 1U, 1U, 3U, 7U, 1U, 0U, 0U};
 764              		.loc 1 984 3 discriminator 2 view .LVU216
 985:./Libraries/STM32H7xx_HAL_Driver/Src/stm32h7xx_hal_uart_ex.c ****   static const uint8_t denominator[] = {8U, 4U, 2U, 4U, 8U, 1U, 1U, 1U};
 765              		.loc 1 985 3 discriminator 2 view .LVU217
 986:./Libraries/STM32H7xx_HAL_Driver/Src/stm32h7xx_hal_uart_ex.c **** 
 766              		.loc 1 986 3 discriminator 2 view .LVU218
 988:./Libraries/STM32H7xx_HAL_Driver/Src/stm32h7xx_hal_uart_ex.c ****   {
 767              		.loc 1 988 3 discriminator 2 view .LVU219
 768 002e FFF7FEFF 		bl	UARTEx_SetNbDataToProcess.part.0
 769              	.LVL49:
 988:./Libraries/STM32H7xx_HAL_Driver/Src/stm32h7xx_hal_uart_ex.c ****   {
 770              		.loc 1 988 3 is_stmt 0 discriminator 2 view .LVU220
 771              	.LBE15:
 772              	.LBE14:
 546:./Libraries/STM32H7xx_HAL_Driver/Src/stm32h7xx_hal_uart_ex.c **** 
 773              		.loc 1 546 3 is_stmt 1 discriminator 2 view .LVU221
 546:./Libraries/STM32H7xx_HAL_Driver/Src/stm32h7xx_hal_uart_ex.c **** 
 774              		.loc 1 546 17 is_stmt 0 discriminator 2 view .LVU222
 775 0032 2023     		movs	r3, #32
 549:./Libraries/STM32H7xx_HAL_Driver/Src/stm32h7xx_hal_uart_ex.c **** 
 776              		.loc 1 549 3 discriminator 2 view .LVU223
 777 0034 0020     		movs	r0, #0
 778              	.LVL50:
 546:./Libraries/STM32H7xx_HAL_Driver/Src/stm32h7xx_hal_uart_ex.c **** 
 779              		.loc 1 546 17 discriminator 2 view .LVU224
 780 0036 C4F88430 		str	r3, [r4, #132]
 549:./Libraries/STM32H7xx_HAL_Driver/Src/stm32h7xx_hal_uart_ex.c **** 
 781              		.loc 1 549 3 is_stmt 1 discriminator 2 view .LVU225
 549:./Libraries/STM32H7xx_HAL_Driver/Src/stm32h7xx_hal_uart_ex.c **** 
 782              		.loc 1 549 3 discriminator 2 view .LVU226
 783 003a 84F88000 		strb	r0, [r4, #128]
 549:./Libraries/STM32H7xx_HAL_Driver/Src/stm32h7xx_hal_uart_ex.c **** 
 784              		.loc 1 549 3 discriminator 2 view .LVU227
 551:./Libraries/STM32H7xx_HAL_Driver/Src/stm32h7xx_hal_uart_ex.c **** }
 785              		.loc 1 551 3 discriminator 2 view .LVU228
 552:./Libraries/STM32H7xx_HAL_Driver/Src/stm32h7xx_hal_uart_ex.c **** 
 786              		.loc 1 552 1 is_stmt 0 discriminator 2 view .LVU229
 787 003e 38BD     		pop	{r3, r4, r5, pc}
 788              	.LVL51:
 789              	.L57:
 526:./Libraries/STM32H7xx_HAL_Driver/Src/stm32h7xx_hal_uart_ex.c **** 
 790              		.loc 1 526 3 view .LVU230
ARM GAS  /tmp/ccSKvF4m.s 			page 36


 791 0040 0220     		movs	r0, #2
 792              	.LVL52:
 552:./Libraries/STM32H7xx_HAL_Driver/Src/stm32h7xx_hal_uart_ex.c **** 
 793              		.loc 1 552 1 view .LVU231
 794 0042 38BD     		pop	{r3, r4, r5, pc}
 795              		.cfi_endproc
 796              	.LFE339:
 798              		.section	.text.HAL_UARTEx_DisableFifoMode,"ax",%progbits
 799              		.align	1
 800              		.p2align 2,,3
 801              		.global	HAL_UARTEx_DisableFifoMode
 802              		.syntax unified
 803              		.thumb
 804              		.thumb_func
 805              		.fpu fpv5-d16
 807              	HAL_UARTEx_DisableFifoMode:
 808              	.LVL53:
 809              	.LFB340:
 560:./Libraries/STM32H7xx_HAL_Driver/Src/stm32h7xx_hal_uart_ex.c ****   uint32_t tmpcr1;
 810              		.loc 1 560 1 is_stmt 1 view -0
 811              		.cfi_startproc
 812              		@ args = 0, pretend = 0, frame = 0
 813              		@ frame_needed = 0, uses_anonymous_args = 0
 814              		@ link register save eliminated.
 561:./Libraries/STM32H7xx_HAL_Driver/Src/stm32h7xx_hal_uart_ex.c **** 
 815              		.loc 1 561 3 view .LVU233
 564:./Libraries/STM32H7xx_HAL_Driver/Src/stm32h7xx_hal_uart_ex.c **** 
 816              		.loc 1 564 3 view .LVU234
 567:./Libraries/STM32H7xx_HAL_Driver/Src/stm32h7xx_hal_uart_ex.c **** 
 817              		.loc 1 567 3 view .LVU235
 567:./Libraries/STM32H7xx_HAL_Driver/Src/stm32h7xx_hal_uart_ex.c **** 
 818              		.loc 1 567 3 view .LVU236
 819 0000 90F88020 		ldrb	r2, [r0, #128]	@ zero_extendqisi2
 820 0004 012A     		cmp	r2, #1
 821 0006 17D0     		beq	.L61
 822 0008 0346     		mov	r3, r0
 567:./Libraries/STM32H7xx_HAL_Driver/Src/stm32h7xx_hal_uart_ex.c **** 
 823              		.loc 1 567 3 discriminator 2 view .LVU237
 567:./Libraries/STM32H7xx_HAL_Driver/Src/stm32h7xx_hal_uart_ex.c **** 
 824              		.loc 1 567 3 discriminator 2 view .LVU238
 569:./Libraries/STM32H7xx_HAL_Driver/Src/stm32h7xx_hal_uart_ex.c **** 
 825              		.loc 1 569 3 discriminator 2 view .LVU239
 569:./Libraries/STM32H7xx_HAL_Driver/Src/stm32h7xx_hal_uart_ex.c **** 
 826              		.loc 1 569 17 is_stmt 0 discriminator 2 view .LVU240
 827 000a 2420     		movs	r0, #36
 828              	.LVL54:
 579:./Libraries/STM32H7xx_HAL_Driver/Src/stm32h7xx_hal_uart_ex.c **** 
 829              		.loc 1 579 19 discriminator 2 view .LVU241
 830 000c 0021     		movs	r1, #0
 572:./Libraries/STM32H7xx_HAL_Driver/Src/stm32h7xx_hal_uart_ex.c **** 
 831              		.loc 1 572 12 discriminator 2 view .LVU242
 832 000e 1A68     		ldr	r2, [r3]
 560:./Libraries/STM32H7xx_HAL_Driver/Src/stm32h7xx_hal_uart_ex.c ****   uint32_t tmpcr1;
 833              		.loc 1 560 1 discriminator 2 view .LVU243
 834 0010 70B4     		push	{r4, r5, r6}
 835              	.LCFI18:
 836              		.cfi_def_cfa_offset 12
ARM GAS  /tmp/ccSKvF4m.s 			page 37


 837              		.cfi_offset 4, -12
 838              		.cfi_offset 5, -8
 839              		.cfi_offset 6, -4
 569:./Libraries/STM32H7xx_HAL_Driver/Src/stm32h7xx_hal_uart_ex.c **** 
 840              		.loc 1 569 17 discriminator 2 view .LVU244
 841 0012 C3F88400 		str	r0, [r3, #132]
 572:./Libraries/STM32H7xx_HAL_Driver/Src/stm32h7xx_hal_uart_ex.c **** 
 842              		.loc 1 572 3 is_stmt 1 discriminator 2 view .LVU245
 584:./Libraries/STM32H7xx_HAL_Driver/Src/stm32h7xx_hal_uart_ex.c **** 
 843              		.loc 1 584 17 is_stmt 0 discriminator 2 view .LVU246
 844 0016 2026     		movs	r6, #32
 572:./Libraries/STM32H7xx_HAL_Driver/Src/stm32h7xx_hal_uart_ex.c **** 
 845              		.loc 1 572 10 discriminator 2 view .LVU247
 846 0018 1468     		ldr	r4, [r2]
 847              	.LVL55:
 575:./Libraries/STM32H7xx_HAL_Driver/Src/stm32h7xx_hal_uart_ex.c **** 
 848              		.loc 1 575 3 is_stmt 1 discriminator 2 view .LVU248
 589:./Libraries/STM32H7xx_HAL_Driver/Src/stm32h7xx_hal_uart_ex.c **** }
 849              		.loc 1 589 10 is_stmt 0 discriminator 2 view .LVU249
 850 001a 0846     		mov	r0, r1
 575:./Libraries/STM32H7xx_HAL_Driver/Src/stm32h7xx_hal_uart_ex.c **** 
 851              		.loc 1 575 3 discriminator 2 view .LVU250
 852 001c 1568     		ldr	r5, [r2]
 578:./Libraries/STM32H7xx_HAL_Driver/Src/stm32h7xx_hal_uart_ex.c ****   huart->FifoMode = UART_FIFOMODE_DISABLE;
 853              		.loc 1 578 3 discriminator 2 view .LVU251
 854 001e 24F00054 		bic	r4, r4, #536870912
 855              	.LVL56:
 575:./Libraries/STM32H7xx_HAL_Driver/Src/stm32h7xx_hal_uart_ex.c **** 
 856              		.loc 1 575 3 discriminator 2 view .LVU252
 857 0022 25F00105 		bic	r5, r5, #1
 858 0026 1560     		str	r5, [r2]
 578:./Libraries/STM32H7xx_HAL_Driver/Src/stm32h7xx_hal_uart_ex.c ****   huart->FifoMode = UART_FIFOMODE_DISABLE;
 859              		.loc 1 578 3 is_stmt 1 discriminator 2 view .LVU253
 860              	.LVL57:
 579:./Libraries/STM32H7xx_HAL_Driver/Src/stm32h7xx_hal_uart_ex.c **** 
 861              		.loc 1 579 3 discriminator 2 view .LVU254
 579:./Libraries/STM32H7xx_HAL_Driver/Src/stm32h7xx_hal_uart_ex.c **** 
 862              		.loc 1 579 19 is_stmt 0 discriminator 2 view .LVU255
 863 0028 5966     		str	r1, [r3, #100]
 582:./Libraries/STM32H7xx_HAL_Driver/Src/stm32h7xx_hal_uart_ex.c **** 
 864              		.loc 1 582 3 is_stmt 1 discriminator 2 view .LVU256
 865 002a 1460     		str	r4, [r2]
 584:./Libraries/STM32H7xx_HAL_Driver/Src/stm32h7xx_hal_uart_ex.c **** 
 866              		.loc 1 584 3 discriminator 2 view .LVU257
 587:./Libraries/STM32H7xx_HAL_Driver/Src/stm32h7xx_hal_uart_ex.c **** 
 867              		.loc 1 587 3 is_stmt 0 discriminator 2 view .LVU258
 868 002c 83F88010 		strb	r1, [r3, #128]
 584:./Libraries/STM32H7xx_HAL_Driver/Src/stm32h7xx_hal_uart_ex.c **** 
 869              		.loc 1 584 17 discriminator 2 view .LVU259
 870 0030 C3F88460 		str	r6, [r3, #132]
 587:./Libraries/STM32H7xx_HAL_Driver/Src/stm32h7xx_hal_uart_ex.c **** 
 871              		.loc 1 587 3 is_stmt 1 discriminator 2 view .LVU260
 587:./Libraries/STM32H7xx_HAL_Driver/Src/stm32h7xx_hal_uart_ex.c **** 
 872              		.loc 1 587 3 discriminator 2 view .LVU261
 587:./Libraries/STM32H7xx_HAL_Driver/Src/stm32h7xx_hal_uart_ex.c **** 
 873              		.loc 1 587 3 discriminator 2 view .LVU262
 589:./Libraries/STM32H7xx_HAL_Driver/Src/stm32h7xx_hal_uart_ex.c **** }
ARM GAS  /tmp/ccSKvF4m.s 			page 38


 874              		.loc 1 589 3 discriminator 2 view .LVU263
 590:./Libraries/STM32H7xx_HAL_Driver/Src/stm32h7xx_hal_uart_ex.c **** 
 875              		.loc 1 590 1 is_stmt 0 discriminator 2 view .LVU264
 876 0034 70BC     		pop	{r4, r5, r6}
 877              	.LCFI19:
 878              		.cfi_restore 6
 879              		.cfi_restore 5
 880              		.cfi_restore 4
 881              		.cfi_def_cfa_offset 0
 882              	.LVL58:
 590:./Libraries/STM32H7xx_HAL_Driver/Src/stm32h7xx_hal_uart_ex.c **** 
 883              		.loc 1 590 1 discriminator 2 view .LVU265
 884 0036 7047     		bx	lr
 885              	.LVL59:
 886              	.L61:
 567:./Libraries/STM32H7xx_HAL_Driver/Src/stm32h7xx_hal_uart_ex.c **** 
 887              		.loc 1 567 3 view .LVU266
 888 0038 0220     		movs	r0, #2
 889              	.LVL60:
 590:./Libraries/STM32H7xx_HAL_Driver/Src/stm32h7xx_hal_uart_ex.c **** 
 890              		.loc 1 590 1 view .LVU267
 891 003a 7047     		bx	lr
 892              		.cfi_endproc
 893              	.LFE340:
 895              		.section	.text.HAL_UARTEx_SetTxFifoThreshold,"ax",%progbits
 896              		.align	1
 897              		.p2align 2,,3
 898              		.global	HAL_UARTEx_SetTxFifoThreshold
 899              		.syntax unified
 900              		.thumb
 901              		.thumb_func
 902              		.fpu fpv5-d16
 904              	HAL_UARTEx_SetTxFifoThreshold:
 905              	.LVL61:
 906              	.LFB341:
 606:./Libraries/STM32H7xx_HAL_Driver/Src/stm32h7xx_hal_uart_ex.c ****   uint32_t tmpcr1;
 907              		.loc 1 606 1 is_stmt 1 view -0
 908              		.cfi_startproc
 909              		@ args = 0, pretend = 0, frame = 0
 910              		@ frame_needed = 0, uses_anonymous_args = 0
 607:./Libraries/STM32H7xx_HAL_Driver/Src/stm32h7xx_hal_uart_ex.c **** 
 911              		.loc 1 607 3 view .LVU269
 610:./Libraries/STM32H7xx_HAL_Driver/Src/stm32h7xx_hal_uart_ex.c ****   assert_param(IS_UART_TXFIFO_THRESHOLD(Threshold));
 912              		.loc 1 610 3 view .LVU270
 611:./Libraries/STM32H7xx_HAL_Driver/Src/stm32h7xx_hal_uart_ex.c **** 
 913              		.loc 1 611 3 view .LVU271
 614:./Libraries/STM32H7xx_HAL_Driver/Src/stm32h7xx_hal_uart_ex.c **** 
 914              		.loc 1 614 3 view .LVU272
 614:./Libraries/STM32H7xx_HAL_Driver/Src/stm32h7xx_hal_uart_ex.c **** 
 915              		.loc 1 614 3 view .LVU273
 916 0000 90F88030 		ldrb	r3, [r0, #128]	@ zero_extendqisi2
 917 0004 012B     		cmp	r3, #1
 918 0006 24D0     		beq	.L70
 614:./Libraries/STM32H7xx_HAL_Driver/Src/stm32h7xx_hal_uart_ex.c **** 
 919              		.loc 1 614 3 discriminator 2 view .LVU274
 619:./Libraries/STM32H7xx_HAL_Driver/Src/stm32h7xx_hal_uart_ex.c **** 
 920              		.loc 1 619 12 is_stmt 0 discriminator 2 view .LVU275
ARM GAS  /tmp/ccSKvF4m.s 			page 39


 921 0008 0368     		ldr	r3, [r0]
 616:./Libraries/STM32H7xx_HAL_Driver/Src/stm32h7xx_hal_uart_ex.c **** 
 922              		.loc 1 616 17 discriminator 2 view .LVU276
 923 000a 2422     		movs	r2, #36
 606:./Libraries/STM32H7xx_HAL_Driver/Src/stm32h7xx_hal_uart_ex.c ****   uint32_t tmpcr1;
 924              		.loc 1 606 1 discriminator 2 view .LVU277
 925 000c 70B5     		push	{r4, r5, r6, lr}
 926              	.LCFI20:
 927              		.cfi_def_cfa_offset 16
 928              		.cfi_offset 4, -16
 929              		.cfi_offset 5, -12
 930              		.cfi_offset 6, -8
 931              		.cfi_offset 14, -4
 614:./Libraries/STM32H7xx_HAL_Driver/Src/stm32h7xx_hal_uart_ex.c **** 
 932              		.loc 1 614 3 discriminator 2 view .LVU278
 933 000e 0125     		movs	r5, #1
 616:./Libraries/STM32H7xx_HAL_Driver/Src/stm32h7xx_hal_uart_ex.c **** 
 934              		.loc 1 616 17 discriminator 2 view .LVU279
 935 0010 C0F88420 		str	r2, [r0, #132]
 936              	.LBB16:
 937              	.LBB17:
 988:./Libraries/STM32H7xx_HAL_Driver/Src/stm32h7xx_hal_uart_ex.c ****   {
 938              		.loc 1 988 6 discriminator 2 view .LVU280
 939 0014 466E     		ldr	r6, [r0, #100]
 940 0016 0446     		mov	r4, r0
 941              	.LBE17:
 942              	.LBE16:
 614:./Libraries/STM32H7xx_HAL_Driver/Src/stm32h7xx_hal_uart_ex.c **** 
 943              		.loc 1 614 3 discriminator 2 view .LVU281
 944 0018 80F88050 		strb	r5, [r0, #128]
 614:./Libraries/STM32H7xx_HAL_Driver/Src/stm32h7xx_hal_uart_ex.c **** 
 945              		.loc 1 614 3 is_stmt 1 discriminator 2 view .LVU282
 616:./Libraries/STM32H7xx_HAL_Driver/Src/stm32h7xx_hal_uart_ex.c **** 
 946              		.loc 1 616 3 discriminator 2 view .LVU283
 619:./Libraries/STM32H7xx_HAL_Driver/Src/stm32h7xx_hal_uart_ex.c **** 
 947              		.loc 1 619 3 discriminator 2 view .LVU284
 619:./Libraries/STM32H7xx_HAL_Driver/Src/stm32h7xx_hal_uart_ex.c **** 
 948              		.loc 1 619 10 is_stmt 0 discriminator 2 view .LVU285
 949 001c 1D68     		ldr	r5, [r3]
 950              	.LVL62:
 622:./Libraries/STM32H7xx_HAL_Driver/Src/stm32h7xx_hal_uart_ex.c **** 
 951              		.loc 1 622 3 is_stmt 1 discriminator 2 view .LVU286
 952 001e 1A68     		ldr	r2, [r3]
 953 0020 22F00102 		bic	r2, r2, #1
 954 0024 1A60     		str	r2, [r3]
 625:./Libraries/STM32H7xx_HAL_Driver/Src/stm32h7xx_hal_uart_ex.c **** 
 955              		.loc 1 625 3 discriminator 2 view .LVU287
 956 0026 9A68     		ldr	r2, [r3, #8]
 957 0028 22F06042 		bic	r2, r2, #-536870912
 958 002c 1143     		orrs	r1, r1, r2
 959              	.LVL63:
 625:./Libraries/STM32H7xx_HAL_Driver/Src/stm32h7xx_hal_uart_ex.c **** 
 960              		.loc 1 625 3 is_stmt 0 discriminator 2 view .LVU288
 961 002e 9960     		str	r1, [r3, #8]
 628:./Libraries/STM32H7xx_HAL_Driver/Src/stm32h7xx_hal_uart_ex.c **** 
 962              		.loc 1 628 3 is_stmt 1 discriminator 2 view .LVU289
 963              	.LVL64:
ARM GAS  /tmp/ccSKvF4m.s 			page 40


 964              	.LBB20:
 965              	.LBI16:
 979:./Libraries/STM32H7xx_HAL_Driver/Src/stm32h7xx_hal_uart_ex.c **** {
 966              		.loc 1 979 13 discriminator 2 view .LVU290
 967              	.LBB18:
 981:./Libraries/STM32H7xx_HAL_Driver/Src/stm32h7xx_hal_uart_ex.c ****   uint8_t tx_fifo_depth;
 968              		.loc 1 981 3 discriminator 2 view .LVU291
 982:./Libraries/STM32H7xx_HAL_Driver/Src/stm32h7xx_hal_uart_ex.c ****   uint8_t rx_fifo_threshold;
 969              		.loc 1 982 3 discriminator 2 view .LVU292
 983:./Libraries/STM32H7xx_HAL_Driver/Src/stm32h7xx_hal_uart_ex.c ****   uint8_t tx_fifo_threshold;
 970              		.loc 1 983 3 discriminator 2 view .LVU293
 984:./Libraries/STM32H7xx_HAL_Driver/Src/stm32h7xx_hal_uart_ex.c ****   static const uint8_t numerator[] = {1U, 1U, 1U, 3U, 7U, 1U, 0U, 0U};
 971              		.loc 1 984 3 discriminator 2 view .LVU294
 985:./Libraries/STM32H7xx_HAL_Driver/Src/stm32h7xx_hal_uart_ex.c ****   static const uint8_t denominator[] = {8U, 4U, 2U, 4U, 8U, 1U, 1U, 1U};
 972              		.loc 1 985 3 discriminator 2 view .LVU295
 986:./Libraries/STM32H7xx_HAL_Driver/Src/stm32h7xx_hal_uart_ex.c **** 
 973              		.loc 1 986 3 discriminator 2 view .LVU296
 988:./Libraries/STM32H7xx_HAL_Driver/Src/stm32h7xx_hal_uart_ex.c ****   {
 974              		.loc 1 988 3 discriminator 2 view .LVU297
 988:./Libraries/STM32H7xx_HAL_Driver/Src/stm32h7xx_hal_uart_ex.c ****   {
 975              		.loc 1 988 6 is_stmt 0 discriminator 2 view .LVU298
 976 0030 5EB1     		cbz	r6, .L75
 977 0032 FFF7FEFF 		bl	UARTEx_SetNbDataToProcess.part.0
 978              	.LVL65:
 979 0036 0368     		ldr	r3, [r0]
 980              	.L69:
 981              	.LVL66:
 988:./Libraries/STM32H7xx_HAL_Driver/Src/stm32h7xx_hal_uart_ex.c ****   {
 982              		.loc 1 988 6 discriminator 2 view .LVU299
 983              	.LBE18:
 984              	.LBE20:
 631:./Libraries/STM32H7xx_HAL_Driver/Src/stm32h7xx_hal_uart_ex.c **** 
 985              		.loc 1 631 3 is_stmt 1 view .LVU300
 636:./Libraries/STM32H7xx_HAL_Driver/Src/stm32h7xx_hal_uart_ex.c **** 
 986              		.loc 1 636 3 is_stmt 0 view .LVU301
 987 0038 0022     		movs	r2, #0
 633:./Libraries/STM32H7xx_HAL_Driver/Src/stm32h7xx_hal_uart_ex.c **** 
 988              		.loc 1 633 17 view .LVU302
 989 003a 2021     		movs	r1, #32
 631:./Libraries/STM32H7xx_HAL_Driver/Src/stm32h7xx_hal_uart_ex.c **** 
 990              		.loc 1 631 3 view .LVU303
 991 003c 1D60     		str	r5, [r3]
 633:./Libraries/STM32H7xx_HAL_Driver/Src/stm32h7xx_hal_uart_ex.c **** 
 992              		.loc 1 633 3 is_stmt 1 view .LVU304
 638:./Libraries/STM32H7xx_HAL_Driver/Src/stm32h7xx_hal_uart_ex.c **** }
 993              		.loc 1 638 10 is_stmt 0 view .LVU305
 994 003e 1046     		mov	r0, r2
 995              	.LVL67:
 633:./Libraries/STM32H7xx_HAL_Driver/Src/stm32h7xx_hal_uart_ex.c **** 
 996              		.loc 1 633 17 view .LVU306
 997 0040 C4F88410 		str	r1, [r4, #132]
 636:./Libraries/STM32H7xx_HAL_Driver/Src/stm32h7xx_hal_uart_ex.c **** 
 998              		.loc 1 636 3 is_stmt 1 view .LVU307
 636:./Libraries/STM32H7xx_HAL_Driver/Src/stm32h7xx_hal_uart_ex.c **** 
 999              		.loc 1 636 3 view .LVU308
 1000 0044 84F88020 		strb	r2, [r4, #128]
 636:./Libraries/STM32H7xx_HAL_Driver/Src/stm32h7xx_hal_uart_ex.c **** 
ARM GAS  /tmp/ccSKvF4m.s 			page 41


 1001              		.loc 1 636 3 view .LVU309
 638:./Libraries/STM32H7xx_HAL_Driver/Src/stm32h7xx_hal_uart_ex.c **** }
 1002              		.loc 1 638 3 view .LVU310
 639:./Libraries/STM32H7xx_HAL_Driver/Src/stm32h7xx_hal_uart_ex.c **** 
 1003              		.loc 1 639 1 is_stmt 0 view .LVU311
 1004 0048 70BD     		pop	{r4, r5, r6, pc}
 1005              	.LVL68:
 1006              	.L75:
 1007              	.LBB21:
 1008              	.LBB19:
 990:./Libraries/STM32H7xx_HAL_Driver/Src/stm32h7xx_hal_uart_ex.c ****     huart->NbRxDataToProcess = 1U;
 1009              		.loc 1 990 5 is_stmt 1 view .LVU312
 991:./Libraries/STM32H7xx_HAL_Driver/Src/stm32h7xx_hal_uart_ex.c ****   }
 1010              		.loc 1 991 5 view .LVU313
 991:./Libraries/STM32H7xx_HAL_Driver/Src/stm32h7xx_hal_uart_ex.c ****   }
 1011              		.loc 1 991 30 is_stmt 0 view .LVU314
 1012 004a 4FF00112 		mov	r2, #65537
 1013 004e 8266     		str	r2, [r0, #104]
 1014 0050 F2E7     		b	.L69
 1015              	.LVL69:
 1016              	.L70:
 1017              	.LCFI21:
 1018              		.cfi_def_cfa_offset 0
 1019              		.cfi_restore 4
 1020              		.cfi_restore 5
 1021              		.cfi_restore 6
 1022              		.cfi_restore 14
 991:./Libraries/STM32H7xx_HAL_Driver/Src/stm32h7xx_hal_uart_ex.c ****   }
 1023              		.loc 1 991 30 view .LVU315
 1024              	.LBE19:
 1025              	.LBE21:
 614:./Libraries/STM32H7xx_HAL_Driver/Src/stm32h7xx_hal_uart_ex.c **** 
 1026              		.loc 1 614 3 view .LVU316
 1027 0052 0220     		movs	r0, #2
 1028              	.LVL70:
 639:./Libraries/STM32H7xx_HAL_Driver/Src/stm32h7xx_hal_uart_ex.c **** 
 1029              		.loc 1 639 1 view .LVU317
 1030 0054 7047     		bx	lr
 1031              		.cfi_endproc
 1032              	.LFE341:
 1034 0056 00BF     		.section	.text.HAL_UARTEx_SetRxFifoThreshold,"ax",%progbits
 1035              		.align	1
 1036              		.p2align 2,,3
 1037              		.global	HAL_UARTEx_SetRxFifoThreshold
 1038              		.syntax unified
 1039              		.thumb
 1040              		.thumb_func
 1041              		.fpu fpv5-d16
 1043              	HAL_UARTEx_SetRxFifoThreshold:
 1044              	.LVL71:
 1045              	.LFB342:
 655:./Libraries/STM32H7xx_HAL_Driver/Src/stm32h7xx_hal_uart_ex.c ****   uint32_t tmpcr1;
 1046              		.loc 1 655 1 is_stmt 1 view -0
 1047              		.cfi_startproc
 1048              		@ args = 0, pretend = 0, frame = 0
 1049              		@ frame_needed = 0, uses_anonymous_args = 0
 656:./Libraries/STM32H7xx_HAL_Driver/Src/stm32h7xx_hal_uart_ex.c **** 
ARM GAS  /tmp/ccSKvF4m.s 			page 42


 1050              		.loc 1 656 3 view .LVU319
 659:./Libraries/STM32H7xx_HAL_Driver/Src/stm32h7xx_hal_uart_ex.c ****   assert_param(IS_UART_RXFIFO_THRESHOLD(Threshold));
 1051              		.loc 1 659 3 view .LVU320
 660:./Libraries/STM32H7xx_HAL_Driver/Src/stm32h7xx_hal_uart_ex.c **** 
 1052              		.loc 1 660 3 view .LVU321
 663:./Libraries/STM32H7xx_HAL_Driver/Src/stm32h7xx_hal_uart_ex.c **** 
 1053              		.loc 1 663 3 view .LVU322
 663:./Libraries/STM32H7xx_HAL_Driver/Src/stm32h7xx_hal_uart_ex.c **** 
 1054              		.loc 1 663 3 view .LVU323
 1055 0000 90F88030 		ldrb	r3, [r0, #128]	@ zero_extendqisi2
 1056 0004 012B     		cmp	r3, #1
 1057 0006 24D0     		beq	.L80
 663:./Libraries/STM32H7xx_HAL_Driver/Src/stm32h7xx_hal_uart_ex.c **** 
 1058              		.loc 1 663 3 discriminator 2 view .LVU324
 668:./Libraries/STM32H7xx_HAL_Driver/Src/stm32h7xx_hal_uart_ex.c **** 
 1059              		.loc 1 668 12 is_stmt 0 discriminator 2 view .LVU325
 1060 0008 0368     		ldr	r3, [r0]
 665:./Libraries/STM32H7xx_HAL_Driver/Src/stm32h7xx_hal_uart_ex.c **** 
 1061              		.loc 1 665 17 discriminator 2 view .LVU326
 1062 000a 2422     		movs	r2, #36
 655:./Libraries/STM32H7xx_HAL_Driver/Src/stm32h7xx_hal_uart_ex.c ****   uint32_t tmpcr1;
 1063              		.loc 1 655 1 discriminator 2 view .LVU327
 1064 000c 70B5     		push	{r4, r5, r6, lr}
 1065              	.LCFI22:
 1066              		.cfi_def_cfa_offset 16
 1067              		.cfi_offset 4, -16
 1068              		.cfi_offset 5, -12
 1069              		.cfi_offset 6, -8
 1070              		.cfi_offset 14, -4
 663:./Libraries/STM32H7xx_HAL_Driver/Src/stm32h7xx_hal_uart_ex.c **** 
 1071              		.loc 1 663 3 discriminator 2 view .LVU328
 1072 000e 0125     		movs	r5, #1
 665:./Libraries/STM32H7xx_HAL_Driver/Src/stm32h7xx_hal_uart_ex.c **** 
 1073              		.loc 1 665 17 discriminator 2 view .LVU329
 1074 0010 C0F88420 		str	r2, [r0, #132]
 1075              	.LBB22:
 1076              	.LBB23:
 988:./Libraries/STM32H7xx_HAL_Driver/Src/stm32h7xx_hal_uart_ex.c ****   {
 1077              		.loc 1 988 6 discriminator 2 view .LVU330
 1078 0014 466E     		ldr	r6, [r0, #100]
 1079 0016 0446     		mov	r4, r0
 1080              	.LBE23:
 1081              	.LBE22:
 663:./Libraries/STM32H7xx_HAL_Driver/Src/stm32h7xx_hal_uart_ex.c **** 
 1082              		.loc 1 663 3 discriminator 2 view .LVU331
 1083 0018 80F88050 		strb	r5, [r0, #128]
 663:./Libraries/STM32H7xx_HAL_Driver/Src/stm32h7xx_hal_uart_ex.c **** 
 1084              		.loc 1 663 3 is_stmt 1 discriminator 2 view .LVU332
 665:./Libraries/STM32H7xx_HAL_Driver/Src/stm32h7xx_hal_uart_ex.c **** 
 1085              		.loc 1 665 3 discriminator 2 view .LVU333
 668:./Libraries/STM32H7xx_HAL_Driver/Src/stm32h7xx_hal_uart_ex.c **** 
 1086              		.loc 1 668 3 discriminator 2 view .LVU334
 668:./Libraries/STM32H7xx_HAL_Driver/Src/stm32h7xx_hal_uart_ex.c **** 
 1087              		.loc 1 668 10 is_stmt 0 discriminator 2 view .LVU335
 1088 001c 1D68     		ldr	r5, [r3]
 1089              	.LVL72:
 671:./Libraries/STM32H7xx_HAL_Driver/Src/stm32h7xx_hal_uart_ex.c **** 
ARM GAS  /tmp/ccSKvF4m.s 			page 43


 1090              		.loc 1 671 3 is_stmt 1 discriminator 2 view .LVU336
 1091 001e 1A68     		ldr	r2, [r3]
 1092 0020 22F00102 		bic	r2, r2, #1
 1093 0024 1A60     		str	r2, [r3]
 674:./Libraries/STM32H7xx_HAL_Driver/Src/stm32h7xx_hal_uart_ex.c **** 
 1094              		.loc 1 674 3 discriminator 2 view .LVU337
 1095 0026 9A68     		ldr	r2, [r3, #8]
 1096 0028 22F06062 		bic	r2, r2, #234881024
 1097 002c 1143     		orrs	r1, r1, r2
 1098              	.LVL73:
 674:./Libraries/STM32H7xx_HAL_Driver/Src/stm32h7xx_hal_uart_ex.c **** 
 1099              		.loc 1 674 3 is_stmt 0 discriminator 2 view .LVU338
 1100 002e 9960     		str	r1, [r3, #8]
 677:./Libraries/STM32H7xx_HAL_Driver/Src/stm32h7xx_hal_uart_ex.c **** 
 1101              		.loc 1 677 3 is_stmt 1 discriminator 2 view .LVU339
 1102              	.LVL74:
 1103              	.LBB26:
 1104              	.LBI22:
 979:./Libraries/STM32H7xx_HAL_Driver/Src/stm32h7xx_hal_uart_ex.c **** {
 1105              		.loc 1 979 13 discriminator 2 view .LVU340
 1106              	.LBB24:
 981:./Libraries/STM32H7xx_HAL_Driver/Src/stm32h7xx_hal_uart_ex.c ****   uint8_t tx_fifo_depth;
 1107              		.loc 1 981 3 discriminator 2 view .LVU341
 982:./Libraries/STM32H7xx_HAL_Driver/Src/stm32h7xx_hal_uart_ex.c ****   uint8_t rx_fifo_threshold;
 1108              		.loc 1 982 3 discriminator 2 view .LVU342
 983:./Libraries/STM32H7xx_HAL_Driver/Src/stm32h7xx_hal_uart_ex.c ****   uint8_t tx_fifo_threshold;
 1109              		.loc 1 983 3 discriminator 2 view .LVU343
 984:./Libraries/STM32H7xx_HAL_Driver/Src/stm32h7xx_hal_uart_ex.c ****   static const uint8_t numerator[] = {1U, 1U, 1U, 3U, 7U, 1U, 0U, 0U};
 1110              		.loc 1 984 3 discriminator 2 view .LVU344
 985:./Libraries/STM32H7xx_HAL_Driver/Src/stm32h7xx_hal_uart_ex.c ****   static const uint8_t denominator[] = {8U, 4U, 2U, 4U, 8U, 1U, 1U, 1U};
 1111              		.loc 1 985 3 discriminator 2 view .LVU345
 986:./Libraries/STM32H7xx_HAL_Driver/Src/stm32h7xx_hal_uart_ex.c **** 
 1112              		.loc 1 986 3 discriminator 2 view .LVU346
 988:./Libraries/STM32H7xx_HAL_Driver/Src/stm32h7xx_hal_uart_ex.c ****   {
 1113              		.loc 1 988 3 discriminator 2 view .LVU347
 988:./Libraries/STM32H7xx_HAL_Driver/Src/stm32h7xx_hal_uart_ex.c ****   {
 1114              		.loc 1 988 6 is_stmt 0 discriminator 2 view .LVU348
 1115 0030 5EB1     		cbz	r6, .L85
 1116 0032 FFF7FEFF 		bl	UARTEx_SetNbDataToProcess.part.0
 1117              	.LVL75:
 1118 0036 0368     		ldr	r3, [r0]
 1119              	.L79:
 1120              	.LVL76:
 988:./Libraries/STM32H7xx_HAL_Driver/Src/stm32h7xx_hal_uart_ex.c ****   {
 1121              		.loc 1 988 6 discriminator 2 view .LVU349
 1122              	.LBE24:
 1123              	.LBE26:
 680:./Libraries/STM32H7xx_HAL_Driver/Src/stm32h7xx_hal_uart_ex.c **** 
 1124              		.loc 1 680 3 is_stmt 1 view .LVU350
 685:./Libraries/STM32H7xx_HAL_Driver/Src/stm32h7xx_hal_uart_ex.c **** 
 1125              		.loc 1 685 3 is_stmt 0 view .LVU351
 1126 0038 0022     		movs	r2, #0
 682:./Libraries/STM32H7xx_HAL_Driver/Src/stm32h7xx_hal_uart_ex.c **** 
 1127              		.loc 1 682 17 view .LVU352
 1128 003a 2021     		movs	r1, #32
 680:./Libraries/STM32H7xx_HAL_Driver/Src/stm32h7xx_hal_uart_ex.c **** 
 1129              		.loc 1 680 3 view .LVU353
ARM GAS  /tmp/ccSKvF4m.s 			page 44


 1130 003c 1D60     		str	r5, [r3]
 682:./Libraries/STM32H7xx_HAL_Driver/Src/stm32h7xx_hal_uart_ex.c **** 
 1131              		.loc 1 682 3 is_stmt 1 view .LVU354
 687:./Libraries/STM32H7xx_HAL_Driver/Src/stm32h7xx_hal_uart_ex.c **** }
 1132              		.loc 1 687 10 is_stmt 0 view .LVU355
 1133 003e 1046     		mov	r0, r2
 1134              	.LVL77:
 682:./Libraries/STM32H7xx_HAL_Driver/Src/stm32h7xx_hal_uart_ex.c **** 
 1135              		.loc 1 682 17 view .LVU356
 1136 0040 C4F88410 		str	r1, [r4, #132]
 685:./Libraries/STM32H7xx_HAL_Driver/Src/stm32h7xx_hal_uart_ex.c **** 
 1137              		.loc 1 685 3 is_stmt 1 view .LVU357
 685:./Libraries/STM32H7xx_HAL_Driver/Src/stm32h7xx_hal_uart_ex.c **** 
 1138              		.loc 1 685 3 view .LVU358
 1139 0044 84F88020 		strb	r2, [r4, #128]
 685:./Libraries/STM32H7xx_HAL_Driver/Src/stm32h7xx_hal_uart_ex.c **** 
 1140              		.loc 1 685 3 view .LVU359
 687:./Libraries/STM32H7xx_HAL_Driver/Src/stm32h7xx_hal_uart_ex.c **** }
 1141              		.loc 1 687 3 view .LVU360
 688:./Libraries/STM32H7xx_HAL_Driver/Src/stm32h7xx_hal_uart_ex.c **** 
 1142              		.loc 1 688 1 is_stmt 0 view .LVU361
 1143 0048 70BD     		pop	{r4, r5, r6, pc}
 1144              	.LVL78:
 1145              	.L85:
 1146              	.LBB27:
 1147              	.LBB25:
 990:./Libraries/STM32H7xx_HAL_Driver/Src/stm32h7xx_hal_uart_ex.c ****     huart->NbRxDataToProcess = 1U;
 1148              		.loc 1 990 5 is_stmt 1 view .LVU362
 991:./Libraries/STM32H7xx_HAL_Driver/Src/stm32h7xx_hal_uart_ex.c ****   }
 1149              		.loc 1 991 5 view .LVU363
 991:./Libraries/STM32H7xx_HAL_Driver/Src/stm32h7xx_hal_uart_ex.c ****   }
 1150              		.loc 1 991 30 is_stmt 0 view .LVU364
 1151 004a 4FF00112 		mov	r2, #65537
 1152 004e 8266     		str	r2, [r0, #104]
 1153 0050 F2E7     		b	.L79
 1154              	.LVL79:
 1155              	.L80:
 1156              	.LCFI23:
 1157              		.cfi_def_cfa_offset 0
 1158              		.cfi_restore 4
 1159              		.cfi_restore 5
 1160              		.cfi_restore 6
 1161              		.cfi_restore 14
 991:./Libraries/STM32H7xx_HAL_Driver/Src/stm32h7xx_hal_uart_ex.c ****   }
 1162              		.loc 1 991 30 view .LVU365
 1163              	.LBE25:
 1164              	.LBE27:
 663:./Libraries/STM32H7xx_HAL_Driver/Src/stm32h7xx_hal_uart_ex.c **** 
 1165              		.loc 1 663 3 view .LVU366
 1166 0052 0220     		movs	r0, #2
 1167              	.LVL80:
 688:./Libraries/STM32H7xx_HAL_Driver/Src/stm32h7xx_hal_uart_ex.c **** 
 1168              		.loc 1 688 1 view .LVU367
 1169 0054 7047     		bx	lr
 1170              		.cfi_endproc
 1171              	.LFE342:
 1173 0056 00BF     		.section	.text.HAL_UARTEx_ReceiveToIdle,"ax",%progbits
ARM GAS  /tmp/ccSKvF4m.s 			page 45


 1174              		.align	1
 1175              		.p2align 2,,3
 1176              		.global	HAL_UARTEx_ReceiveToIdle
 1177              		.syntax unified
 1178              		.thumb
 1179              		.thumb_func
 1180              		.fpu fpv5-d16
 1182              	HAL_UARTEx_ReceiveToIdle:
 1183              	.LVL81:
 1184              	.LFB343:
 713:./Libraries/STM32H7xx_HAL_Driver/Src/stm32h7xx_hal_uart_ex.c ****   uint8_t  *pdata8bits;
 1185              		.loc 1 713 1 is_stmt 1 view -0
 1186              		.cfi_startproc
 1187              		@ args = 4, pretend = 0, frame = 0
 1188              		@ frame_needed = 0, uses_anonymous_args = 0
 714:./Libraries/STM32H7xx_HAL_Driver/Src/stm32h7xx_hal_uart_ex.c ****   uint16_t *pdata16bits;
 1189              		.loc 1 714 3 view .LVU369
 715:./Libraries/STM32H7xx_HAL_Driver/Src/stm32h7xx_hal_uart_ex.c ****   uint16_t uhMask;
 1190              		.loc 1 715 3 view .LVU370
 716:./Libraries/STM32H7xx_HAL_Driver/Src/stm32h7xx_hal_uart_ex.c ****   uint32_t tickstart;
 1191              		.loc 1 716 3 view .LVU371
 717:./Libraries/STM32H7xx_HAL_Driver/Src/stm32h7xx_hal_uart_ex.c **** 
 1192              		.loc 1 717 3 view .LVU372
 720:./Libraries/STM32H7xx_HAL_Driver/Src/stm32h7xx_hal_uart_ex.c ****   {
 1193              		.loc 1 720 3 view .LVU373
 713:./Libraries/STM32H7xx_HAL_Driver/Src/stm32h7xx_hal_uart_ex.c ****   uint8_t  *pdata8bits;
 1194              		.loc 1 713 1 is_stmt 0 view .LVU374
 1195 0000 2DE9F84F 		push	{r3, r4, r5, r6, r7, r8, r9, r10, fp, lr}
 1196              	.LCFI24:
 1197              		.cfi_def_cfa_offset 40
 1198              		.cfi_offset 3, -40
 1199              		.cfi_offset 4, -36
 1200              		.cfi_offset 5, -32
 1201              		.cfi_offset 6, -28
 1202              		.cfi_offset 7, -24
 1203              		.cfi_offset 8, -20
 1204              		.cfi_offset 9, -16
 1205              		.cfi_offset 10, -12
 1206              		.cfi_offset 11, -8
 1207              		.cfi_offset 14, -4
 713:./Libraries/STM32H7xx_HAL_Driver/Src/stm32h7xx_hal_uart_ex.c ****   uint8_t  *pdata8bits;
 1208              		.loc 1 713 1 view .LVU375
 1209 0004 9946     		mov	r9, r3
 720:./Libraries/STM32H7xx_HAL_Driver/Src/stm32h7xx_hal_uart_ex.c ****   {
 1210              		.loc 1 720 12 view .LVU376
 1211 0006 D0F88830 		ldr	r3, [r0, #136]
 1212              	.LVL82:
 713:./Libraries/STM32H7xx_HAL_Driver/Src/stm32h7xx_hal_uart_ex.c ****   uint8_t  *pdata8bits;
 1213              		.loc 1 713 1 view .LVU377
 1214 000a DDF828A0 		ldr	r10, [sp, #40]
 720:./Libraries/STM32H7xx_HAL_Driver/Src/stm32h7xx_hal_uart_ex.c ****   {
 1215              		.loc 1 720 6 view .LVU378
 1216 000e 202B     		cmp	r3, #32
 1217 0010 68D1     		bne	.L106
 722:./Libraries/STM32H7xx_HAL_Driver/Src/stm32h7xx_hal_uart_ex.c ****     {
 1218              		.loc 1 722 5 is_stmt 1 view .LVU379
 1219 0012 8B46     		mov	fp, r1
ARM GAS  /tmp/ccSKvF4m.s 			page 46


 722:./Libraries/STM32H7xx_HAL_Driver/Src/stm32h7xx_hal_uart_ex.c ****     {
 1220              		.loc 1 722 8 is_stmt 0 view .LVU380
 1221 0014 0029     		cmp	r1, #0
 1222 0016 62D0     		beq	.L105
 1223 0018 B2FA82F5 		clz	r5, r2
 1224 001c 1746     		mov	r7, r2
 1225 001e 6D09     		lsrs	r5, r5, #5
 1226 0020 002A     		cmp	r2, #0
 1227 0022 5CD0     		beq	.L105
 727:./Libraries/STM32H7xx_HAL_Driver/Src/stm32h7xx_hal_uart_ex.c **** 
 1228              		.loc 1 727 5 view .LVU381
 1229 0024 90F88030 		ldrb	r3, [r0, #128]	@ zero_extendqisi2
 1230 0028 0446     		mov	r4, r0
 727:./Libraries/STM32H7xx_HAL_Driver/Src/stm32h7xx_hal_uart_ex.c **** 
 1231              		.loc 1 727 5 is_stmt 1 view .LVU382
 727:./Libraries/STM32H7xx_HAL_Driver/Src/stm32h7xx_hal_uart_ex.c **** 
 1232              		.loc 1 727 5 view .LVU383
 1233 002a 012B     		cmp	r3, #1
 1234 002c 5AD0     		beq	.L106
 727:./Libraries/STM32H7xx_HAL_Driver/Src/stm32h7xx_hal_uart_ex.c **** 
 1235              		.loc 1 727 5 discriminator 2 view .LVU384
 1236 002e 0123     		movs	r3, #1
 730:./Libraries/STM32H7xx_HAL_Driver/Src/stm32h7xx_hal_uart_ex.c ****     huart->ReceptionType = HAL_UART_RECEPTION_TOIDLE;
 1237              		.loc 1 730 20 is_stmt 0 discriminator 2 view .LVU385
 1238 0030 2222     		movs	r2, #34
 1239              	.LVL83:
 729:./Libraries/STM32H7xx_HAL_Driver/Src/stm32h7xx_hal_uart_ex.c ****     huart->RxState = HAL_UART_STATE_BUSY_RX;
 1240              		.loc 1 729 22 discriminator 2 view .LVU386
 1241 0032 C0F88C50 		str	r5, [r0, #140]
 727:./Libraries/STM32H7xx_HAL_Driver/Src/stm32h7xx_hal_uart_ex.c **** 
 1242              		.loc 1 727 5 discriminator 2 view .LVU387
 1243 0036 80F88030 		strb	r3, [r0, #128]
 727:./Libraries/STM32H7xx_HAL_Driver/Src/stm32h7xx_hal_uart_ex.c **** 
 1244              		.loc 1 727 5 is_stmt 1 discriminator 2 view .LVU388
 729:./Libraries/STM32H7xx_HAL_Driver/Src/stm32h7xx_hal_uart_ex.c ****     huart->RxState = HAL_UART_STATE_BUSY_RX;
 1245              		.loc 1 729 5 discriminator 2 view .LVU389
 730:./Libraries/STM32H7xx_HAL_Driver/Src/stm32h7xx_hal_uart_ex.c ****     huart->ReceptionType = HAL_UART_RECEPTION_TOIDLE;
 1246              		.loc 1 730 5 discriminator 2 view .LVU390
 730:./Libraries/STM32H7xx_HAL_Driver/Src/stm32h7xx_hal_uart_ex.c ****     huart->ReceptionType = HAL_UART_RECEPTION_TOIDLE;
 1247              		.loc 1 730 20 is_stmt 0 discriminator 2 view .LVU391
 1248 003a C0F88820 		str	r2, [r0, #136]
 731:./Libraries/STM32H7xx_HAL_Driver/Src/stm32h7xx_hal_uart_ex.c **** 
 1249              		.loc 1 731 5 is_stmt 1 discriminator 2 view .LVU392
 731:./Libraries/STM32H7xx_HAL_Driver/Src/stm32h7xx_hal_uart_ex.c **** 
 1250              		.loc 1 731 26 is_stmt 0 discriminator 2 view .LVU393
 1251 003e C366     		str	r3, [r0, #108]
 734:./Libraries/STM32H7xx_HAL_Driver/Src/stm32h7xx_hal_uart_ex.c **** 
 1252              		.loc 1 734 5 is_stmt 1 discriminator 2 view .LVU394
 734:./Libraries/STM32H7xx_HAL_Driver/Src/stm32h7xx_hal_uart_ex.c **** 
 1253              		.loc 1 734 17 is_stmt 0 discriminator 2 view .LVU395
 1254 0040 FFF7FEFF 		bl	HAL_GetTick
 1255              	.LVL84:
 740:./Libraries/STM32H7xx_HAL_Driver/Src/stm32h7xx_hal_uart_ex.c ****     uhMask = huart->Mask;
 1256              		.loc 1 740 5 discriminator 2 view .LVU396
 1257 0044 A368     		ldr	r3, [r4, #8]
 734:./Libraries/STM32H7xx_HAL_Driver/Src/stm32h7xx_hal_uart_ex.c **** 
 1258              		.loc 1 734 17 discriminator 2 view .LVU397
ARM GAS  /tmp/ccSKvF4m.s 			page 47


 1259 0046 0646     		mov	r6, r0
 1260              	.LVL85:
 736:./Libraries/STM32H7xx_HAL_Driver/Src/stm32h7xx_hal_uart_ex.c ****     huart->RxXferCount = Size;
 1261              		.loc 1 736 5 is_stmt 1 discriminator 2 view .LVU398
 736:./Libraries/STM32H7xx_HAL_Driver/Src/stm32h7xx_hal_uart_ex.c ****     huart->RxXferCount = Size;
 1262              		.loc 1 736 24 is_stmt 0 discriminator 2 view .LVU399
 1263 0048 A4F85C70 		strh	r7, [r4, #92]	@ movhi
 737:./Libraries/STM32H7xx_HAL_Driver/Src/stm32h7xx_hal_uart_ex.c **** 
 1264              		.loc 1 737 5 is_stmt 1 discriminator 2 view .LVU400
 740:./Libraries/STM32H7xx_HAL_Driver/Src/stm32h7xx_hal_uart_ex.c ****     uhMask = huart->Mask;
 1265              		.loc 1 740 5 is_stmt 0 discriminator 2 view .LVU401
 1266 004c B3F5805F 		cmp	r3, #4096
 737:./Libraries/STM32H7xx_HAL_Driver/Src/stm32h7xx_hal_uart_ex.c **** 
 1267              		.loc 1 737 24 discriminator 2 view .LVU402
 1268 0050 A4F85E70 		strh	r7, [r4, #94]	@ movhi
 740:./Libraries/STM32H7xx_HAL_Driver/Src/stm32h7xx_hal_uart_ex.c ****     uhMask = huart->Mask;
 1269              		.loc 1 740 5 is_stmt 1 discriminator 2 view .LVU403
 740:./Libraries/STM32H7xx_HAL_Driver/Src/stm32h7xx_hal_uart_ex.c ****     uhMask = huart->Mask;
 1270              		.loc 1 740 5 discriminator 2 view .LVU404
 1271 0054 62D0     		beq	.L131
 740:./Libraries/STM32H7xx_HAL_Driver/Src/stm32h7xx_hal_uart_ex.c ****     uhMask = huart->Mask;
 1272              		.loc 1 740 5 discriminator 2 view .LVU405
 1273 0056 002B     		cmp	r3, #0
 1274 0058 47D0     		beq	.L132
 740:./Libraries/STM32H7xx_HAL_Driver/Src/stm32h7xx_hal_uart_ex.c ****     uhMask = huart->Mask;
 1275              		.loc 1 740 5 discriminator 6 view .LVU406
 1276 005a B3F1805F 		cmp	r3, #268435456
 1277 005e 75D0     		beq	.L133
 740:./Libraries/STM32H7xx_HAL_Driver/Src/stm32h7xx_hal_uart_ex.c ****     uhMask = huart->Mask;
 1278              		.loc 1 740 5 discriminator 10 view .LVU407
 1279 0060 A4F86050 		strh	r5, [r4, #96]	@ movhi
 1280              	.L93:
 740:./Libraries/STM32H7xx_HAL_Driver/Src/stm32h7xx_hal_uart_ex.c ****     uhMask = huart->Mask;
 1281              		.loc 1 740 5 view .LVU408
 741:./Libraries/STM32H7xx_HAL_Driver/Src/stm32h7xx_hal_uart_ex.c **** 
 1282              		.loc 1 741 5 view .LVU409
 1283              	.LVL86:
 744:./Libraries/STM32H7xx_HAL_Driver/Src/stm32h7xx_hal_uart_ex.c ****     {
 1284              		.loc 1 744 5 view .LVU410
 752:./Libraries/STM32H7xx_HAL_Driver/Src/stm32h7xx_hal_uart_ex.c ****     }
 1285              		.loc 1 752 19 is_stmt 0 view .LVU411
 1286 0064 4FF00008 		mov	r8, #0
 1287              	.LVL87:
 1288              	.L103:
 755:./Libraries/STM32H7xx_HAL_Driver/Src/stm32h7xx_hal_uart_ex.c **** 
 1289              		.loc 1 755 5 is_stmt 1 view .LVU412
 755:./Libraries/STM32H7xx_HAL_Driver/Src/stm32h7xx_hal_uart_ex.c **** 
 1290              		.loc 1 755 5 view .LVU413
 1291 0068 0023     		movs	r3, #0
 1292 006a 84F88030 		strb	r3, [r4, #128]
 755:./Libraries/STM32H7xx_HAL_Driver/Src/stm32h7xx_hal_uart_ex.c **** 
 1293              		.loc 1 755 5 view .LVU414
 758:./Libraries/STM32H7xx_HAL_Driver/Src/stm32h7xx_hal_uart_ex.c **** 
 1294              		.loc 1 758 5 view .LVU415
 758:./Libraries/STM32H7xx_HAL_Driver/Src/stm32h7xx_hal_uart_ex.c **** 
 1295              		.loc 1 758 12 is_stmt 0 view .LVU416
 1296 006e A9F80030 		strh	r3, [r9]	@ movhi
ARM GAS  /tmp/ccSKvF4m.s 			page 48


 761:./Libraries/STM32H7xx_HAL_Driver/Src/stm32h7xx_hal_uart_ex.c ****     {
 1297              		.loc 1 761 5 is_stmt 1 view .LVU417
 761:./Libraries/STM32H7xx_HAL_Driver/Src/stm32h7xx_hal_uart_ex.c ****     {
 1298              		.loc 1 761 11 view .LVU418
 761:./Libraries/STM32H7xx_HAL_Driver/Src/stm32h7xx_hal_uart_ex.c ****     {
 1299              		.loc 1 761 17 is_stmt 0 view .LVU419
 1300 0072 B4F85E30 		ldrh	r3, [r4, #94]
 1301 0076 9BB2     		uxth	r3, r3
 761:./Libraries/STM32H7xx_HAL_Driver/Src/stm32h7xx_hal_uart_ex.c ****     {
 1302              		.loc 1 761 11 view .LVU420
 1303 0078 002B     		cmp	r3, #0
 1304 007a 3CD0     		beq	.L102
 767:./Libraries/STM32H7xx_HAL_Driver/Src/stm32h7xx_hal_uart_ex.c **** 
 1305              		.loc 1 767 9 view .LVU421
 1306 007c 1027     		movs	r7, #16
 1307 007e 1BE0     		b	.L95
 1308              	.LVL88:
 1309              	.L98:
 789:./Libraries/STM32H7xx_HAL_Driver/Src/stm32h7xx_hal_uart_ex.c ****           pdata8bits++;
 1310              		.loc 1 789 11 is_stmt 1 view .LVU422
 789:./Libraries/STM32H7xx_HAL_Driver/Src/stm32h7xx_hal_uart_ex.c ****           pdata8bits++;
 1311              		.loc 1 789 23 is_stmt 0 view .LVU423
 1312 0080 0BF8013B 		strb	r3, [fp], #1
 1313              	.LVL89:
 790:./Libraries/STM32H7xx_HAL_Driver/Src/stm32h7xx_hal_uart_ex.c ****         }
 1314              		.loc 1 790 11 is_stmt 1 view .LVU424
 1315              	.L99:
 793:./Libraries/STM32H7xx_HAL_Driver/Src/stm32h7xx_hal_uart_ex.c ****         huart->RxXferCount--;
 1316              		.loc 1 793 9 view .LVU425
 793:./Libraries/STM32H7xx_HAL_Driver/Src/stm32h7xx_hal_uart_ex.c ****         huart->RxXferCount--;
 1317              		.loc 1 793 16 is_stmt 0 view .LVU426
 1318 0084 B9F80030 		ldrh	r3, [r9]
 1319 0088 0133     		adds	r3, r3, #1
 1320 008a A9F80030 		strh	r3, [r9]	@ movhi
 794:./Libraries/STM32H7xx_HAL_Driver/Src/stm32h7xx_hal_uart_ex.c ****       }
 1321              		.loc 1 794 9 is_stmt 1 view .LVU427
 794:./Libraries/STM32H7xx_HAL_Driver/Src/stm32h7xx_hal_uart_ex.c ****       }
 1322              		.loc 1 794 14 is_stmt 0 view .LVU428
 1323 008e B4F85E30 		ldrh	r3, [r4, #94]
 794:./Libraries/STM32H7xx_HAL_Driver/Src/stm32h7xx_hal_uart_ex.c ****       }
 1324              		.loc 1 794 27 view .LVU429
 1325 0092 013B     		subs	r3, r3, #1
 1326 0094 9BB2     		uxth	r3, r3
 1327 0096 A4F85E30 		strh	r3, [r4, #94]	@ movhi
 1328              	.L97:
 798:./Libraries/STM32H7xx_HAL_Driver/Src/stm32h7xx_hal_uart_ex.c ****       {
 1329              		.loc 1 798 7 is_stmt 1 view .LVU430
 798:./Libraries/STM32H7xx_HAL_Driver/Src/stm32h7xx_hal_uart_ex.c ****       {
 1330              		.loc 1 798 10 is_stmt 0 view .LVU431
 1331 009a BAF1FF3F 		cmp	r10, #-1
 1332 009e 07D0     		beq	.L100
 800:./Libraries/STM32H7xx_HAL_Driver/Src/stm32h7xx_hal_uart_ex.c ****         {
 1333              		.loc 1 800 9 is_stmt 1 view .LVU432
 800:./Libraries/STM32H7xx_HAL_Driver/Src/stm32h7xx_hal_uart_ex.c ****         {
 1334              		.loc 1 800 15 is_stmt 0 view .LVU433
 1335 00a0 FFF7FEFF 		bl	HAL_GetTick
 1336              	.LVL90:
ARM GAS  /tmp/ccSKvF4m.s 			page 49


 800:./Libraries/STM32H7xx_HAL_Driver/Src/stm32h7xx_hal_uart_ex.c ****         {
 1337              		.loc 1 800 29 view .LVU434
 1338 00a4 801B     		subs	r0, r0, r6
 800:./Libraries/STM32H7xx_HAL_Driver/Src/stm32h7xx_hal_uart_ex.c ****         {
 1339              		.loc 1 800 53 view .LVU435
 1340 00a6 5045     		cmp	r0, r10
 1341 00a8 32D8     		bhi	.L107
 1342 00aa BAF1000F 		cmp	r10, #0
 1343 00ae 2FD0     		beq	.L107
 1344              	.L100:
 761:./Libraries/STM32H7xx_HAL_Driver/Src/stm32h7xx_hal_uart_ex.c ****     {
 1345              		.loc 1 761 11 is_stmt 1 view .LVU436
 761:./Libraries/STM32H7xx_HAL_Driver/Src/stm32h7xx_hal_uart_ex.c ****     {
 1346              		.loc 1 761 17 is_stmt 0 view .LVU437
 1347 00b0 B4F85E20 		ldrh	r2, [r4, #94]
 1348 00b4 92B2     		uxth	r2, r2
 761:./Libraries/STM32H7xx_HAL_Driver/Src/stm32h7xx_hal_uart_ex.c ****     {
 1349              		.loc 1 761 11 view .LVU438
 1350 00b6 F2B1     		cbz	r2, .L102
 1351              	.L95:
 764:./Libraries/STM32H7xx_HAL_Driver/Src/stm32h7xx_hal_uart_ex.c ****       {
 1352              		.loc 1 764 7 is_stmt 1 view .LVU439
 764:./Libraries/STM32H7xx_HAL_Driver/Src/stm32h7xx_hal_uart_ex.c ****       {
 1353              		.loc 1 764 11 is_stmt 0 view .LVU440
 1354 00b8 2268     		ldr	r2, [r4]
 1355 00ba D369     		ldr	r3, [r2, #28]
 764:./Libraries/STM32H7xx_HAL_Driver/Src/stm32h7xx_hal_uart_ex.c ****       {
 1356              		.loc 1 764 10 view .LVU441
 1357 00bc D906     		lsls	r1, r3, #27
 1358 00be 03D5     		bpl	.L96
 767:./Libraries/STM32H7xx_HAL_Driver/Src/stm32h7xx_hal_uart_ex.c **** 
 1359              		.loc 1 767 9 is_stmt 1 view .LVU442
 771:./Libraries/STM32H7xx_HAL_Driver/Src/stm32h7xx_hal_uart_ex.c ****         {
 1360              		.loc 1 771 12 is_stmt 0 view .LVU443
 1361 00c0 B9F80030 		ldrh	r3, [r9]
 767:./Libraries/STM32H7xx_HAL_Driver/Src/stm32h7xx_hal_uart_ex.c **** 
 1362              		.loc 1 767 9 view .LVU444
 1363 00c4 1762     		str	r7, [r2, #32]
 771:./Libraries/STM32H7xx_HAL_Driver/Src/stm32h7xx_hal_uart_ex.c ****         {
 1364              		.loc 1 771 9 is_stmt 1 view .LVU445
 771:./Libraries/STM32H7xx_HAL_Driver/Src/stm32h7xx_hal_uart_ex.c ****         {
 1365              		.loc 1 771 12 is_stmt 0 view .LVU446
 1366 00c6 B3BB     		cbnz	r3, .L134
 1367              	.L96:
 780:./Libraries/STM32H7xx_HAL_Driver/Src/stm32h7xx_hal_uart_ex.c ****       {
 1368              		.loc 1 780 7 is_stmt 1 view .LVU447
 780:./Libraries/STM32H7xx_HAL_Driver/Src/stm32h7xx_hal_uart_ex.c ****       {
 1369              		.loc 1 780 11 is_stmt 0 view .LVU448
 1370 00c8 D369     		ldr	r3, [r2, #28]
 780:./Libraries/STM32H7xx_HAL_Driver/Src/stm32h7xx_hal_uart_ex.c ****       {
 1371              		.loc 1 780 10 view .LVU449
 1372 00ca 9B06     		lsls	r3, r3, #26
 1373 00cc E5D5     		bpl	.L97
 782:./Libraries/STM32H7xx_HAL_Driver/Src/stm32h7xx_hal_uart_ex.c ****         {
 1374              		.loc 1 782 9 is_stmt 1 view .LVU450
 784:./Libraries/STM32H7xx_HAL_Driver/Src/stm32h7xx_hal_uart_ex.c ****           pdata16bits++;
 1375              		.loc 1 784 52 is_stmt 0 view .LVU451
ARM GAS  /tmp/ccSKvF4m.s 			page 50


 1376 00ce 536A     		ldr	r3, [r2, #36]
 784:./Libraries/STM32H7xx_HAL_Driver/Src/stm32h7xx_hal_uart_ex.c ****           pdata16bits++;
 1377              		.loc 1 784 26 view .LVU452
 1378 00d0 2B40     		ands	r3, r3, r5
 782:./Libraries/STM32H7xx_HAL_Driver/Src/stm32h7xx_hal_uart_ex.c ****         {
 1379              		.loc 1 782 12 view .LVU453
 1380 00d2 BBF1000F 		cmp	fp, #0
 1381 00d6 D3D1     		bne	.L98
 784:./Libraries/STM32H7xx_HAL_Driver/Src/stm32h7xx_hal_uart_ex.c ****           pdata16bits++;
 1382              		.loc 1 784 11 is_stmt 1 view .LVU454
 784:./Libraries/STM32H7xx_HAL_Driver/Src/stm32h7xx_hal_uart_ex.c ****           pdata16bits++;
 1383              		.loc 1 784 24 is_stmt 0 view .LVU455
 1384 00d8 28F8023B 		strh	r3, [r8], #2	@ movhi
 1385              	.LVL91:
 785:./Libraries/STM32H7xx_HAL_Driver/Src/stm32h7xx_hal_uart_ex.c ****         }
 1386              		.loc 1 785 11 is_stmt 1 view .LVU456
 785:./Libraries/STM32H7xx_HAL_Driver/Src/stm32h7xx_hal_uart_ex.c ****         }
 1387              		.loc 1 785 11 is_stmt 0 view .LVU457
 1388 00dc D2E7     		b	.L99
 1389              	.LVL92:
 1390              	.L105:
 724:./Libraries/STM32H7xx_HAL_Driver/Src/stm32h7xx_hal_uart_ex.c ****     }
 1391              		.loc 1 724 15 view .LVU458
 1392 00de 0120     		movs	r0, #1
 1393              	.LVL93:
 1394              	.L129:
 820:./Libraries/STM32H7xx_HAL_Driver/Src/stm32h7xx_hal_uart_ex.c **** 
 1395              		.loc 1 820 1 view .LVU459
 1396 00e0 BDE8F88F 		pop	{r3, r4, r5, r6, r7, r8, r9, r10, fp, pc}
 1397              	.LVL94:
 1398              	.L106:
 818:./Libraries/STM32H7xx_HAL_Driver/Src/stm32h7xx_hal_uart_ex.c ****   }
 1399              		.loc 1 818 12 view .LVU460
 1400 00e4 0220     		movs	r0, #2
 1401              	.LVL95:
 820:./Libraries/STM32H7xx_HAL_Driver/Src/stm32h7xx_hal_uart_ex.c **** 
 1402              		.loc 1 820 1 view .LVU461
 1403 00e6 BDE8F88F 		pop	{r3, r4, r5, r6, r7, r8, r9, r10, fp, pc}
 1404              	.LVL96:
 1405              	.L132:
 740:./Libraries/STM32H7xx_HAL_Driver/Src/stm32h7xx_hal_uart_ex.c ****     uhMask = huart->Mask;
 1406              		.loc 1 740 5 is_stmt 1 discriminator 5 view .LVU462
 1407 00ea 2369     		ldr	r3, [r4, #16]
 1408 00ec FBB9     		cbnz	r3, .L92
 740:./Libraries/STM32H7xx_HAL_Driver/Src/stm32h7xx_hal_uart_ex.c ****     uhMask = huart->Mask;
 1409              		.loc 1 740 5 discriminator 7 view .LVU463
 1410 00ee FF25     		movs	r5, #255
 1411 00f0 A4F86050 		strh	r5, [r4, #96]	@ movhi
 1412 00f4 B6E7     		b	.L93
 1413              	.LVL97:
 1414              	.L102:
 810:./Libraries/STM32H7xx_HAL_Driver/Src/stm32h7xx_hal_uart_ex.c ****     /* At end of Rx process, restore huart->RxState to Ready */
 1415              		.loc 1 810 5 view .LVU464
 810:./Libraries/STM32H7xx_HAL_Driver/Src/stm32h7xx_hal_uart_ex.c ****     /* At end of Rx process, restore huart->RxState to Ready */
 1416              		.loc 1 810 39 is_stmt 0 view .LVU465
 1417 00f6 B4F85E10 		ldrh	r1, [r4, #94]
 812:./Libraries/STM32H7xx_HAL_Driver/Src/stm32h7xx_hal_uart_ex.c **** 
ARM GAS  /tmp/ccSKvF4m.s 			page 51


 1418              		.loc 1 812 20 view .LVU466
 1419 00fa 2022     		movs	r2, #32
 810:./Libraries/STM32H7xx_HAL_Driver/Src/stm32h7xx_hal_uart_ex.c ****     /* At end of Rx process, restore huart->RxState to Ready */
 1420              		.loc 1 810 32 view .LVU467
 1421 00fc B4F85C30 		ldrh	r3, [r4, #92]
 814:./Libraries/STM32H7xx_HAL_Driver/Src/stm32h7xx_hal_uart_ex.c ****   }
 1422              		.loc 1 814 12 view .LVU468
 1423 0100 0020     		movs	r0, #0
 810:./Libraries/STM32H7xx_HAL_Driver/Src/stm32h7xx_hal_uart_ex.c ****     /* At end of Rx process, restore huart->RxState to Ready */
 1424              		.loc 1 810 32 view .LVU469
 1425 0102 5B1A     		subs	r3, r3, r1
 810:./Libraries/STM32H7xx_HAL_Driver/Src/stm32h7xx_hal_uart_ex.c ****     /* At end of Rx process, restore huart->RxState to Ready */
 1426              		.loc 1 810 12 view .LVU470
 1427 0104 A9F80030 		strh	r3, [r9]	@ movhi
 812:./Libraries/STM32H7xx_HAL_Driver/Src/stm32h7xx_hal_uart_ex.c **** 
 1428              		.loc 1 812 5 is_stmt 1 view .LVU471
 812:./Libraries/STM32H7xx_HAL_Driver/Src/stm32h7xx_hal_uart_ex.c **** 
 1429              		.loc 1 812 20 is_stmt 0 view .LVU472
 1430 0108 C4F88820 		str	r2, [r4, #136]
 814:./Libraries/STM32H7xx_HAL_Driver/Src/stm32h7xx_hal_uart_ex.c ****   }
 1431              		.loc 1 814 5 is_stmt 1 view .LVU473
 820:./Libraries/STM32H7xx_HAL_Driver/Src/stm32h7xx_hal_uart_ex.c **** 
 1432              		.loc 1 820 1 is_stmt 0 view .LVU474
 1433 010c BDE8F88F 		pop	{r3, r4, r5, r6, r7, r8, r9, r10, fp, pc}
 1434              	.LVL98:
 1435              	.L107:
 802:./Libraries/STM32H7xx_HAL_Driver/Src/stm32h7xx_hal_uart_ex.c **** 
 1436              		.loc 1 802 11 is_stmt 1 view .LVU475
 802:./Libraries/STM32H7xx_HAL_Driver/Src/stm32h7xx_hal_uart_ex.c **** 
 1437              		.loc 1 802 26 is_stmt 0 view .LVU476
 1438 0110 2023     		movs	r3, #32
 804:./Libraries/STM32H7xx_HAL_Driver/Src/stm32h7xx_hal_uart_ex.c ****         }
 1439              		.loc 1 804 18 view .LVU477
 1440 0112 0320     		movs	r0, #3
 802:./Libraries/STM32H7xx_HAL_Driver/Src/stm32h7xx_hal_uart_ex.c **** 
 1441              		.loc 1 802 26 view .LVU478
 1442 0114 C4F88830 		str	r3, [r4, #136]
 1443              	.LVL99:
 804:./Libraries/STM32H7xx_HAL_Driver/Src/stm32h7xx_hal_uart_ex.c ****         }
 1444              		.loc 1 804 11 is_stmt 1 view .LVU479
 820:./Libraries/STM32H7xx_HAL_Driver/Src/stm32h7xx_hal_uart_ex.c **** 
 1445              		.loc 1 820 1 is_stmt 0 view .LVU480
 1446 0118 BDE8F88F 		pop	{r3, r4, r5, r6, r7, r8, r9, r10, fp, pc}
 1447              	.LVL100:
 1448              	.L131:
 740:./Libraries/STM32H7xx_HAL_Driver/Src/stm32h7xx_hal_uart_ex.c ****     uhMask = huart->Mask;
 1449              		.loc 1 740 5 is_stmt 1 discriminator 1 view .LVU481
 1450 011c 2369     		ldr	r3, [r4, #16]
 1451 011e 7BB9     		cbnz	r3, .L135
 1452 0120 40F2FF15 		movw	r5, #511
 740:./Libraries/STM32H7xx_HAL_Driver/Src/stm32h7xx_hal_uart_ex.c ****     uhMask = huart->Mask;
 1453              		.loc 1 740 5 is_stmt 0 view .LVU482
 1454 0124 D846     		mov	r8, fp
 746:./Libraries/STM32H7xx_HAL_Driver/Src/stm32h7xx_hal_uart_ex.c ****       pdata16bits = (uint16_t *) pData;
 1455              		.loc 1 746 19 view .LVU483
 1456 0126 9B46     		mov	fp, r3
 1457              	.LVL101:
ARM GAS  /tmp/ccSKvF4m.s 			page 52


 746:./Libraries/STM32H7xx_HAL_Driver/Src/stm32h7xx_hal_uart_ex.c ****       pdata16bits = (uint16_t *) pData;
 1458              		.loc 1 746 19 view .LVU484
 1459 0128 A4F86050 		strh	r5, [r4, #96]	@ movhi
 740:./Libraries/STM32H7xx_HAL_Driver/Src/stm32h7xx_hal_uart_ex.c ****     uhMask = huart->Mask;
 1460              		.loc 1 740 5 is_stmt 1 view .LVU485
 741:./Libraries/STM32H7xx_HAL_Driver/Src/stm32h7xx_hal_uart_ex.c **** 
 1461              		.loc 1 741 5 view .LVU486
 1462              	.LVL102:
 744:./Libraries/STM32H7xx_HAL_Driver/Src/stm32h7xx_hal_uart_ex.c ****     {
 1463              		.loc 1 744 5 view .LVU487
 744:./Libraries/STM32H7xx_HAL_Driver/Src/stm32h7xx_hal_uart_ex.c ****     {
 1464              		.loc 1 744 5 is_stmt 0 view .LVU488
 1465 012c 9CE7     		b	.L103
 1466              	.LVL103:
 1467              	.L92:
 740:./Libraries/STM32H7xx_HAL_Driver/Src/stm32h7xx_hal_uart_ex.c ****     uhMask = huart->Mask;
 1468              		.loc 1 740 5 is_stmt 1 discriminator 8 view .LVU489
 1469 012e 7F25     		movs	r5, #127
 1470 0130 A4F86050 		strh	r5, [r4, #96]	@ movhi
 1471 0134 96E7     		b	.L93
 1472              	.LVL104:
 1473              	.L134:
 773:./Libraries/STM32H7xx_HAL_Driver/Src/stm32h7xx_hal_uart_ex.c **** 
 1474              		.loc 1 773 11 view .LVU490
 773:./Libraries/STM32H7xx_HAL_Driver/Src/stm32h7xx_hal_uart_ex.c **** 
 1475              		.loc 1 773 26 is_stmt 0 view .LVU491
 1476 0136 2023     		movs	r3, #32
 775:./Libraries/STM32H7xx_HAL_Driver/Src/stm32h7xx_hal_uart_ex.c ****         }
 1477              		.loc 1 775 18 view .LVU492
 1478 0138 0020     		movs	r0, #0
 773:./Libraries/STM32H7xx_HAL_Driver/Src/stm32h7xx_hal_uart_ex.c **** 
 1479              		.loc 1 773 26 view .LVU493
 1480 013a C4F88830 		str	r3, [r4, #136]
 1481              	.LVL105:
 775:./Libraries/STM32H7xx_HAL_Driver/Src/stm32h7xx_hal_uart_ex.c ****         }
 1482              		.loc 1 775 11 is_stmt 1 view .LVU494
 775:./Libraries/STM32H7xx_HAL_Driver/Src/stm32h7xx_hal_uart_ex.c ****         }
 1483              		.loc 1 775 18 is_stmt 0 view .LVU495
 1484 013e CFE7     		b	.L129
 1485              	.LVL106:
 1486              	.L135:
 740:./Libraries/STM32H7xx_HAL_Driver/Src/stm32h7xx_hal_uart_ex.c ****     uhMask = huart->Mask;
 1487              		.loc 1 740 5 is_stmt 1 view .LVU496
 1488 0140 FF23     		movs	r3, #255
 752:./Libraries/STM32H7xx_HAL_Driver/Src/stm32h7xx_hal_uart_ex.c ****     }
 1489              		.loc 1 752 19 is_stmt 0 view .LVU497
 1490 0142 A846     		mov	r8, r5
 1491 0144 A4F86030 		strh	r3, [r4, #96]	@ movhi
 740:./Libraries/STM32H7xx_HAL_Driver/Src/stm32h7xx_hal_uart_ex.c ****     uhMask = huart->Mask;
 1492              		.loc 1 740 5 is_stmt 1 view .LVU498
 741:./Libraries/STM32H7xx_HAL_Driver/Src/stm32h7xx_hal_uart_ex.c **** 
 1493              		.loc 1 741 5 view .LVU499
 1494              	.LVL107:
 744:./Libraries/STM32H7xx_HAL_Driver/Src/stm32h7xx_hal_uart_ex.c ****     {
 1495              		.loc 1 744 5 view .LVU500
 740:./Libraries/STM32H7xx_HAL_Driver/Src/stm32h7xx_hal_uart_ex.c ****     uhMask = huart->Mask;
 1496              		.loc 1 740 5 is_stmt 0 view .LVU501
ARM GAS  /tmp/ccSKvF4m.s 			page 53


 1497 0148 1D46     		mov	r5, r3
 1498 014a 8DE7     		b	.L103
 1499              	.LVL108:
 1500              	.L133:
 740:./Libraries/STM32H7xx_HAL_Driver/Src/stm32h7xx_hal_uart_ex.c ****     uhMask = huart->Mask;
 1501              		.loc 1 740 5 is_stmt 1 discriminator 9 view .LVU502
 1502 014c 2369     		ldr	r3, [r4, #16]
 1503 014e 002B     		cmp	r3, #0
 1504 0150 EDD0     		beq	.L92
 740:./Libraries/STM32H7xx_HAL_Driver/Src/stm32h7xx_hal_uart_ex.c ****     uhMask = huart->Mask;
 1505              		.loc 1 740 5 discriminator 12 view .LVU503
 1506 0152 3F25     		movs	r5, #63
 1507 0154 A4F86050 		strh	r5, [r4, #96]	@ movhi
 1508 0158 84E7     		b	.L93
 1509              		.cfi_endproc
 1510              	.LFE343:
 1512 015a 00BF     		.section	.text.HAL_UARTEx_ReceiveToIdle_IT,"ax",%progbits
 1513              		.align	1
 1514              		.p2align 2,,3
 1515              		.global	HAL_UARTEx_ReceiveToIdle_IT
 1516              		.syntax unified
 1517              		.thumb
 1518              		.thumb_func
 1519              		.fpu fpv5-d16
 1521              	HAL_UARTEx_ReceiveToIdle_IT:
 1522              	.LVL109:
 1523              	.LFB344:
 837:./Libraries/STM32H7xx_HAL_Driver/Src/stm32h7xx_hal_uart_ex.c ****   HAL_StatusTypeDef status;
 1524              		.loc 1 837 1 view -0
 1525              		.cfi_startproc
 1526              		@ args = 0, pretend = 0, frame = 0
 1527              		@ frame_needed = 0, uses_anonymous_args = 0
 838:./Libraries/STM32H7xx_HAL_Driver/Src/stm32h7xx_hal_uart_ex.c **** 
 1528              		.loc 1 838 3 view .LVU505
 841:./Libraries/STM32H7xx_HAL_Driver/Src/stm32h7xx_hal_uart_ex.c ****   {
 1529              		.loc 1 841 3 view .LVU506
 837:./Libraries/STM32H7xx_HAL_Driver/Src/stm32h7xx_hal_uart_ex.c ****   HAL_StatusTypeDef status;
 1530              		.loc 1 837 1 is_stmt 0 view .LVU507
 1531 0000 70B5     		push	{r4, r5, r6, lr}
 1532              	.LCFI25:
 1533              		.cfi_def_cfa_offset 16
 1534              		.cfi_offset 4, -16
 1535              		.cfi_offset 5, -12
 1536              		.cfi_offset 6, -8
 1537              		.cfi_offset 14, -4
 841:./Libraries/STM32H7xx_HAL_Driver/Src/stm32h7xx_hal_uart_ex.c ****   {
 1538              		.loc 1 841 12 view .LVU508
 1539 0002 D0F88860 		ldr	r6, [r0, #136]
 841:./Libraries/STM32H7xx_HAL_Driver/Src/stm32h7xx_hal_uart_ex.c ****   {
 1540              		.loc 1 841 6 view .LVU509
 1541 0006 202E     		cmp	r6, #32
 1542 0008 12D1     		bne	.L142
 843:./Libraries/STM32H7xx_HAL_Driver/Src/stm32h7xx_hal_uart_ex.c ****     {
 1543              		.loc 1 843 5 is_stmt 1 view .LVU510
 843:./Libraries/STM32H7xx_HAL_Driver/Src/stm32h7xx_hal_uart_ex.c ****     {
 1544              		.loc 1 843 8 is_stmt 0 view .LVU511
 1545 000a 79B1     		cbz	r1, .L140
ARM GAS  /tmp/ccSKvF4m.s 			page 54


 1546 000c 72B1     		cbz	r2, .L140
 848:./Libraries/STM32H7xx_HAL_Driver/Src/stm32h7xx_hal_uart_ex.c **** 
 1547              		.loc 1 848 5 view .LVU512
 1548 000e 90F88030 		ldrb	r3, [r0, #128]	@ zero_extendqisi2
 1549 0012 0446     		mov	r4, r0
 848:./Libraries/STM32H7xx_HAL_Driver/Src/stm32h7xx_hal_uart_ex.c **** 
 1550              		.loc 1 848 5 is_stmt 1 view .LVU513
 848:./Libraries/STM32H7xx_HAL_Driver/Src/stm32h7xx_hal_uart_ex.c **** 
 1551              		.loc 1 848 5 view .LVU514
 1552 0014 012B     		cmp	r3, #1
 1553 0016 0BD0     		beq	.L142
 848:./Libraries/STM32H7xx_HAL_Driver/Src/stm32h7xx_hal_uart_ex.c **** 
 1554              		.loc 1 848 5 discriminator 2 view .LVU515
 1555 0018 0123     		movs	r3, #1
 1556 001a 80F88030 		strb	r3, [r0, #128]
 848:./Libraries/STM32H7xx_HAL_Driver/Src/stm32h7xx_hal_uart_ex.c **** 
 1557              		.loc 1 848 5 discriminator 2 view .LVU516
 851:./Libraries/STM32H7xx_HAL_Driver/Src/stm32h7xx_hal_uart_ex.c **** 
 1558              		.loc 1 851 5 discriminator 2 view .LVU517
 851:./Libraries/STM32H7xx_HAL_Driver/Src/stm32h7xx_hal_uart_ex.c **** 
 1559              		.loc 1 851 26 is_stmt 0 discriminator 2 view .LVU518
 1560 001e C366     		str	r3, [r0, #108]
 853:./Libraries/STM32H7xx_HAL_Driver/Src/stm32h7xx_hal_uart_ex.c **** 
 1561              		.loc 1 853 5 is_stmt 1 discriminator 2 view .LVU519
 853:./Libraries/STM32H7xx_HAL_Driver/Src/stm32h7xx_hal_uart_ex.c **** 
 1562              		.loc 1 853 15 is_stmt 0 discriminator 2 view .LVU520
 1563 0020 FFF7FEFF 		bl	UART_Start_Receive_IT
 1564              	.LVL110:
 856:./Libraries/STM32H7xx_HAL_Driver/Src/stm32h7xx_hal_uart_ex.c ****     {
 1565              		.loc 1 856 5 is_stmt 1 discriminator 2 view .LVU521
 856:./Libraries/STM32H7xx_HAL_Driver/Src/stm32h7xx_hal_uart_ex.c ****     {
 1566              		.loc 1 856 8 is_stmt 0 discriminator 2 view .LVU522
 1567 0024 18B9     		cbnz	r0, .L137
 858:./Libraries/STM32H7xx_HAL_Driver/Src/stm32h7xx_hal_uart_ex.c ****       {
 1568              		.loc 1 858 7 is_stmt 1 view .LVU523
 858:./Libraries/STM32H7xx_HAL_Driver/Src/stm32h7xx_hal_uart_ex.c ****       {
 1569              		.loc 1 858 16 is_stmt 0 view .LVU524
 1570 0026 E36E     		ldr	r3, [r4, #108]
 858:./Libraries/STM32H7xx_HAL_Driver/Src/stm32h7xx_hal_uart_ex.c ****       {
 1571              		.loc 1 858 10 view .LVU525
 1572 0028 012B     		cmp	r3, #1
 1573 002a 03D0     		beq	.L144
 1574              	.LVL111:
 1575              	.L140:
 845:./Libraries/STM32H7xx_HAL_Driver/Src/stm32h7xx_hal_uart_ex.c ****     }
 1576              		.loc 1 845 14 view .LVU526
 1577 002c 0120     		movs	r0, #1
 1578              	.L137:
 879:./Libraries/STM32H7xx_HAL_Driver/Src/stm32h7xx_hal_uart_ex.c **** 
 1579              		.loc 1 879 1 view .LVU527
 1580 002e 70BD     		pop	{r4, r5, r6, pc}
 1581              	.LVL112:
 1582              	.L142:
 877:./Libraries/STM32H7xx_HAL_Driver/Src/stm32h7xx_hal_uart_ex.c ****   }
 1583              		.loc 1 877 12 view .LVU528
 1584 0030 0220     		movs	r0, #2
 1585              	.LVL113:
ARM GAS  /tmp/ccSKvF4m.s 			page 55


 879:./Libraries/STM32H7xx_HAL_Driver/Src/stm32h7xx_hal_uart_ex.c **** 
 1586              		.loc 1 879 1 view .LVU529
 1587 0032 70BD     		pop	{r4, r5, r6, pc}
 1588              	.LVL114:
 1589              	.L144:
 860:./Libraries/STM32H7xx_HAL_Driver/Src/stm32h7xx_hal_uart_ex.c ****         SET_BIT(huart->Instance->CR1, USART_CR1_IDLEIE);
 1590              		.loc 1 860 9 is_stmt 1 view .LVU530
 1591 0034 2368     		ldr	r3, [r4]
 1592 0036 1022     		movs	r2, #16
 1593 0038 1A62     		str	r2, [r3, #32]
 861:./Libraries/STM32H7xx_HAL_Driver/Src/stm32h7xx_hal_uart_ex.c ****       }
 1594              		.loc 1 861 9 view .LVU531
 1595 003a 1A68     		ldr	r2, [r3]
 1596 003c 42F01002 		orr	r2, r2, #16
 1597 0040 1A60     		str	r2, [r3]
 1598              	.LVL115:
 879:./Libraries/STM32H7xx_HAL_Driver/Src/stm32h7xx_hal_uart_ex.c **** 
 1599              		.loc 1 879 1 is_stmt 0 view .LVU532
 1600 0042 70BD     		pop	{r4, r5, r6, pc}
 879:./Libraries/STM32H7xx_HAL_Driver/Src/stm32h7xx_hal_uart_ex.c **** 
 1601              		.loc 1 879 1 view .LVU533
 1602              		.cfi_endproc
 1603              	.LFE344:
 1605              		.section	.text.HAL_UARTEx_ReceiveToIdle_DMA,"ax",%progbits
 1606              		.align	1
 1607              		.p2align 2,,3
 1608              		.global	HAL_UARTEx_ReceiveToIdle_DMA
 1609              		.syntax unified
 1610              		.thumb
 1611              		.thumb_func
 1612              		.fpu fpv5-d16
 1614              	HAL_UARTEx_ReceiveToIdle_DMA:
 1615              	.LVL116:
 1616              	.LFB345:
 899:./Libraries/STM32H7xx_HAL_Driver/Src/stm32h7xx_hal_uart_ex.c ****   HAL_StatusTypeDef status;
 1617              		.loc 1 899 1 is_stmt 1 view -0
 1618              		.cfi_startproc
 1619              		@ args = 0, pretend = 0, frame = 0
 1620              		@ frame_needed = 0, uses_anonymous_args = 0
 900:./Libraries/STM32H7xx_HAL_Driver/Src/stm32h7xx_hal_uart_ex.c **** 
 1621              		.loc 1 900 3 view .LVU535
 903:./Libraries/STM32H7xx_HAL_Driver/Src/stm32h7xx_hal_uart_ex.c ****   {
 1622              		.loc 1 903 3 view .LVU536
 899:./Libraries/STM32H7xx_HAL_Driver/Src/stm32h7xx_hal_uart_ex.c ****   HAL_StatusTypeDef status;
 1623              		.loc 1 899 1 is_stmt 0 view .LVU537
 1624 0000 70B5     		push	{r4, r5, r6, lr}
 1625              	.LCFI26:
 1626              		.cfi_def_cfa_offset 16
 1627              		.cfi_offset 4, -16
 1628              		.cfi_offset 5, -12
 1629              		.cfi_offset 6, -8
 1630              		.cfi_offset 14, -4
 903:./Libraries/STM32H7xx_HAL_Driver/Src/stm32h7xx_hal_uart_ex.c ****   {
 1631              		.loc 1 903 12 view .LVU538
 1632 0002 D0F88860 		ldr	r6, [r0, #136]
 903:./Libraries/STM32H7xx_HAL_Driver/Src/stm32h7xx_hal_uart_ex.c ****   {
 1633              		.loc 1 903 6 view .LVU539
ARM GAS  /tmp/ccSKvF4m.s 			page 56


 1634 0006 202E     		cmp	r6, #32
 1635 0008 12D1     		bne	.L151
 905:./Libraries/STM32H7xx_HAL_Driver/Src/stm32h7xx_hal_uart_ex.c ****     {
 1636              		.loc 1 905 5 is_stmt 1 view .LVU540
 905:./Libraries/STM32H7xx_HAL_Driver/Src/stm32h7xx_hal_uart_ex.c ****     {
 1637              		.loc 1 905 8 is_stmt 0 view .LVU541
 1638 000a 79B1     		cbz	r1, .L149
 1639 000c 72B1     		cbz	r2, .L149
 910:./Libraries/STM32H7xx_HAL_Driver/Src/stm32h7xx_hal_uart_ex.c **** 
 1640              		.loc 1 910 5 view .LVU542
 1641 000e 90F88030 		ldrb	r3, [r0, #128]	@ zero_extendqisi2
 1642 0012 0446     		mov	r4, r0
 910:./Libraries/STM32H7xx_HAL_Driver/Src/stm32h7xx_hal_uart_ex.c **** 
 1643              		.loc 1 910 5 is_stmt 1 view .LVU543
 910:./Libraries/STM32H7xx_HAL_Driver/Src/stm32h7xx_hal_uart_ex.c **** 
 1644              		.loc 1 910 5 view .LVU544
 1645 0014 012B     		cmp	r3, #1
 1646 0016 0BD0     		beq	.L151
 910:./Libraries/STM32H7xx_HAL_Driver/Src/stm32h7xx_hal_uart_ex.c **** 
 1647              		.loc 1 910 5 discriminator 2 view .LVU545
 1648 0018 0123     		movs	r3, #1
 1649 001a 80F88030 		strb	r3, [r0, #128]
 910:./Libraries/STM32H7xx_HAL_Driver/Src/stm32h7xx_hal_uart_ex.c **** 
 1650              		.loc 1 910 5 discriminator 2 view .LVU546
 913:./Libraries/STM32H7xx_HAL_Driver/Src/stm32h7xx_hal_uart_ex.c **** 
 1651              		.loc 1 913 5 discriminator 2 view .LVU547
 913:./Libraries/STM32H7xx_HAL_Driver/Src/stm32h7xx_hal_uart_ex.c **** 
 1652              		.loc 1 913 26 is_stmt 0 discriminator 2 view .LVU548
 1653 001e C366     		str	r3, [r0, #108]
 915:./Libraries/STM32H7xx_HAL_Driver/Src/stm32h7xx_hal_uart_ex.c **** 
 1654              		.loc 1 915 5 is_stmt 1 discriminator 2 view .LVU549
 915:./Libraries/STM32H7xx_HAL_Driver/Src/stm32h7xx_hal_uart_ex.c **** 
 1655              		.loc 1 915 15 is_stmt 0 discriminator 2 view .LVU550
 1656 0020 FFF7FEFF 		bl	UART_Start_Receive_DMA
 1657              	.LVL117:
 918:./Libraries/STM32H7xx_HAL_Driver/Src/stm32h7xx_hal_uart_ex.c ****     {
 1658              		.loc 1 918 5 is_stmt 1 discriminator 2 view .LVU551
 918:./Libraries/STM32H7xx_HAL_Driver/Src/stm32h7xx_hal_uart_ex.c ****     {
 1659              		.loc 1 918 8 is_stmt 0 discriminator 2 view .LVU552
 1660 0024 18B9     		cbnz	r0, .L146
 920:./Libraries/STM32H7xx_HAL_Driver/Src/stm32h7xx_hal_uart_ex.c ****       {
 1661              		.loc 1 920 7 is_stmt 1 view .LVU553
 920:./Libraries/STM32H7xx_HAL_Driver/Src/stm32h7xx_hal_uart_ex.c ****       {
 1662              		.loc 1 920 16 is_stmt 0 view .LVU554
 1663 0026 E36E     		ldr	r3, [r4, #108]
 920:./Libraries/STM32H7xx_HAL_Driver/Src/stm32h7xx_hal_uart_ex.c ****       {
 1664              		.loc 1 920 10 view .LVU555
 1665 0028 012B     		cmp	r3, #1
 1666 002a 03D0     		beq	.L153
 1667              	.LVL118:
 1668              	.L149:
 907:./Libraries/STM32H7xx_HAL_Driver/Src/stm32h7xx_hal_uart_ex.c ****     }
 1669              		.loc 1 907 14 view .LVU556
 1670 002c 0120     		movs	r0, #1
 1671              	.L146:
 941:./Libraries/STM32H7xx_HAL_Driver/Src/stm32h7xx_hal_uart_ex.c **** 
 1672              		.loc 1 941 1 view .LVU557
ARM GAS  /tmp/ccSKvF4m.s 			page 57


 1673 002e 70BD     		pop	{r4, r5, r6, pc}
 1674              	.LVL119:
 1675              	.L151:
 939:./Libraries/STM32H7xx_HAL_Driver/Src/stm32h7xx_hal_uart_ex.c ****   }
 1676              		.loc 1 939 12 view .LVU558
 1677 0030 0220     		movs	r0, #2
 1678              	.LVL120:
 941:./Libraries/STM32H7xx_HAL_Driver/Src/stm32h7xx_hal_uart_ex.c **** 
 1679              		.loc 1 941 1 view .LVU559
 1680 0032 70BD     		pop	{r4, r5, r6, pc}
 1681              	.LVL121:
 1682              	.L153:
 922:./Libraries/STM32H7xx_HAL_Driver/Src/stm32h7xx_hal_uart_ex.c ****         SET_BIT(huart->Instance->CR1, USART_CR1_IDLEIE);
 1683              		.loc 1 922 9 is_stmt 1 view .LVU560
 1684 0034 2368     		ldr	r3, [r4]
 1685 0036 1022     		movs	r2, #16
 1686 0038 1A62     		str	r2, [r3, #32]
 923:./Libraries/STM32H7xx_HAL_Driver/Src/stm32h7xx_hal_uart_ex.c ****       }
 1687              		.loc 1 923 9 view .LVU561
 1688 003a 1A68     		ldr	r2, [r3]
 1689 003c 42F01002 		orr	r2, r2, #16
 1690 0040 1A60     		str	r2, [r3]
 1691              	.LVL122:
 941:./Libraries/STM32H7xx_HAL_Driver/Src/stm32h7xx_hal_uart_ex.c **** 
 1692              		.loc 1 941 1 is_stmt 0 view .LVU562
 1693 0042 70BD     		pop	{r4, r5, r6, pc}
 941:./Libraries/STM32H7xx_HAL_Driver/Src/stm32h7xx_hal_uart_ex.c **** 
 1694              		.loc 1 941 1 view .LVU563
 1695              		.cfi_endproc
 1696              	.LFE345:
 1698              		.section	.rodata.denominator.14160,"a"
 1699              		.align	2
 1700              		.set	.LANCHOR1,. + 0
 1703              	denominator.14160:
 1704 0000 08040204 		.ascii	"\010\004\002\004\010\001\001\001"
 1704      08010101 
 1705              		.section	.rodata.numerator.14159,"a"
 1706              		.align	2
 1707              		.set	.LANCHOR0,. + 0
 1710              	numerator.14159:
 1711 0000 01010103 		.ascii	"\001\001\001\003\007\001\000\000"
 1711      07010000 
 1712              		.text
 1713              	.Letext0:
 1714              		.file 2 "/usr/lib/gcc/arm-none-eabi/9.2.1/include/stdint.h"
 1715              		.file 3 "./Libraries/CMSIS/Core/Include/core_cm7.h"
 1716              		.file 4 "./Libraries/CMSIS/Device/ST/STM32H7xx/Include/system_stm32h7xx.h"
 1717              		.file 5 "./Libraries/CMSIS/Device/ST/STM32H7xx/Include/stm32h747xx.h"
 1718              		.file 6 "/usr/lib/gcc/arm-none-eabi/9.2.1/include/stddef.h"
 1719              		.file 7 "/usr/include/newlib/sys/_types.h"
 1720              		.file 8 "/usr/include/newlib/sys/reent.h"
 1721              		.file 9 "/usr/include/newlib/sys/lock.h"
 1722              		.file 10 "/usr/include/newlib/math.h"
 1723              		.file 11 "./Libraries/CMSIS/Device/ST/STM32H7xx/Include/stm32h7xx.h"
 1724              		.file 12 "./Libraries/STM32H7xx_HAL_Driver/Inc/stm32h7xx_hal_def.h"
 1725              		.file 13 "./Libraries/STM32H7xx_HAL_Driver/Inc/stm32h7xx_hal_dma.h"
 1726              		.file 14 "./Libraries/STM32H7xx_HAL_Driver/Inc/stm32h7xx_hal_flash.h"
ARM GAS  /tmp/ccSKvF4m.s 			page 58


 1727              		.file 15 "./Libraries/STM32H7xx_HAL_Driver/Inc/stm32h7xx_hal_uart.h"
 1728              		.file 16 "./Libraries/STM32H7xx_HAL_Driver/Inc/stm32h7xx_hal_uart_ex.h"
 1729              		.file 17 "./Libraries/STM32H7xx_HAL_Driver/Inc/stm32h7xx_hal.h"
ARM GAS  /tmp/ccSKvF4m.s 			page 59


DEFINED SYMBOLS
                            *ABS*:0000000000000000 stm32h7xx_hal_uart_ex.c
     /tmp/ccSKvF4m.s:17     .text.UARTEx_SetNbDataToProcess.part.0:0000000000000000 $t
     /tmp/ccSKvF4m.s:25     .text.UARTEx_SetNbDataToProcess.part.0:0000000000000000 UARTEx_SetNbDataToProcess.part.0
     /tmp/ccSKvF4m.s:94     .text.UARTEx_SetNbDataToProcess.part.0:0000000000000034 $d
     /tmp/ccSKvF4m.s:100    .text.HAL_RS485Ex_Init:0000000000000000 $t
     /tmp/ccSKvF4m.s:108    .text.HAL_RS485Ex_Init:0000000000000000 HAL_RS485Ex_Init
     /tmp/ccSKvF4m.s:261    .text.HAL_RS485Ex_Init:0000000000000088 $d
     /tmp/ccSKvF4m.s:266    .text.HAL_UARTEx_WakeupCallback:0000000000000000 $t
     /tmp/ccSKvF4m.s:274    .text.HAL_UARTEx_WakeupCallback:0000000000000000 HAL_UARTEx_WakeupCallback
     /tmp/ccSKvF4m.s:289    .text.HAL_UARTEx_RxFifoFullCallback:0000000000000000 $t
     /tmp/ccSKvF4m.s:297    .text.HAL_UARTEx_RxFifoFullCallback:0000000000000000 HAL_UARTEx_RxFifoFullCallback
     /tmp/ccSKvF4m.s:308    .text.HAL_UARTEx_TxFifoEmptyCallback:0000000000000000 $t
     /tmp/ccSKvF4m.s:316    .text.HAL_UARTEx_TxFifoEmptyCallback:0000000000000000 HAL_UARTEx_TxFifoEmptyCallback
     /tmp/ccSKvF4m.s:327    .text.HAL_MultiProcessorEx_AddressLength_Set:0000000000000000 $t
     /tmp/ccSKvF4m.s:335    .text.HAL_MultiProcessorEx_AddressLength_Set:0000000000000000 HAL_MultiProcessorEx_AddressLength_Set
     /tmp/ccSKvF4m.s:393    .text.HAL_UARTEx_StopModeWakeUpSourceConfig:0000000000000000 $t
     /tmp/ccSKvF4m.s:401    .text.HAL_UARTEx_StopModeWakeUpSourceConfig:0000000000000000 HAL_UARTEx_StopModeWakeUpSourceConfig
     /tmp/ccSKvF4m.s:563    .text.HAL_UARTEx_EnableStopMode:0000000000000000 $t
     /tmp/ccSKvF4m.s:571    .text.HAL_UARTEx_EnableStopMode:0000000000000000 HAL_UARTEx_EnableStopMode
     /tmp/ccSKvF4m.s:626    .text.HAL_UARTEx_DisableStopMode:0000000000000000 $t
     /tmp/ccSKvF4m.s:634    .text.HAL_UARTEx_DisableStopMode:0000000000000000 HAL_UARTEx_DisableStopMode
     /tmp/ccSKvF4m.s:689    .text.HAL_UARTEx_EnableFifoMode:0000000000000000 $t
     /tmp/ccSKvF4m.s:697    .text.HAL_UARTEx_EnableFifoMode:0000000000000000 HAL_UARTEx_EnableFifoMode
     /tmp/ccSKvF4m.s:799    .text.HAL_UARTEx_DisableFifoMode:0000000000000000 $t
     /tmp/ccSKvF4m.s:807    .text.HAL_UARTEx_DisableFifoMode:0000000000000000 HAL_UARTEx_DisableFifoMode
     /tmp/ccSKvF4m.s:896    .text.HAL_UARTEx_SetTxFifoThreshold:0000000000000000 $t
     /tmp/ccSKvF4m.s:904    .text.HAL_UARTEx_SetTxFifoThreshold:0000000000000000 HAL_UARTEx_SetTxFifoThreshold
     /tmp/ccSKvF4m.s:1035   .text.HAL_UARTEx_SetRxFifoThreshold:0000000000000000 $t
     /tmp/ccSKvF4m.s:1043   .text.HAL_UARTEx_SetRxFifoThreshold:0000000000000000 HAL_UARTEx_SetRxFifoThreshold
     /tmp/ccSKvF4m.s:1174   .text.HAL_UARTEx_ReceiveToIdle:0000000000000000 $t
     /tmp/ccSKvF4m.s:1182   .text.HAL_UARTEx_ReceiveToIdle:0000000000000000 HAL_UARTEx_ReceiveToIdle
     /tmp/ccSKvF4m.s:1513   .text.HAL_UARTEx_ReceiveToIdle_IT:0000000000000000 $t
     /tmp/ccSKvF4m.s:1521   .text.HAL_UARTEx_ReceiveToIdle_IT:0000000000000000 HAL_UARTEx_ReceiveToIdle_IT
     /tmp/ccSKvF4m.s:1606   .text.HAL_UARTEx_ReceiveToIdle_DMA:0000000000000000 $t
     /tmp/ccSKvF4m.s:1614   .text.HAL_UARTEx_ReceiveToIdle_DMA:0000000000000000 HAL_UARTEx_ReceiveToIdle_DMA
     /tmp/ccSKvF4m.s:1699   .rodata.denominator.14160:0000000000000000 $d
     /tmp/ccSKvF4m.s:1703   .rodata.denominator.14160:0000000000000000 denominator.14160
     /tmp/ccSKvF4m.s:1706   .rodata.numerator.14159:0000000000000000 $d
     /tmp/ccSKvF4m.s:1710   .rodata.numerator.14159:0000000000000000 numerator.14159

UNDEFINED SYMBOLS
UART_SetConfig
UART_CheckIdleState
UART_AdvFeatureConfig
HAL_UART_MspInit
HAL_GetTick
UART_WaitOnFlagUntilTimeout
UART_Start_Receive_IT
UART_Start_Receive_DMA
