ARM GAS  /tmp/ccxx2olO.s 			page 1


   1              		.cpu cortex-m7
   2              		.eabi_attribute 28, 1
   3              		.eabi_attribute 20, 1
   4              		.eabi_attribute 21, 1
   5              		.eabi_attribute 23, 3
   6              		.eabi_attribute 24, 1
   7              		.eabi_attribute 25, 1
   8              		.eabi_attribute 26, 1
   9              		.eabi_attribute 30, 6
  10              		.eabi_attribute 34, 1
  11              		.eabi_attribute 18, 4
  12              		.file	"stm32h7xx_hal_tim_ex.c"
  13              		.text
  14              	.Ltext0:
  15              		.cfi_sections	.debug_frame
  16              		.section	.text.HAL_TIMEx_HallSensor_Init,"ax",%progbits
  17              		.align	1
  18              		.global	HAL_TIMEx_HallSensor_Init
  19              		.arch armv7e-m
  20              		.syntax unified
  21              		.thumb
  22              		.thumb_func
  23              		.fpu fpv5-d16
  25              	HAL_TIMEx_HallSensor_Init:
  26              	.LFB331:
  27              		.file 1 "./Libraries/STM32H7xx_HAL_Driver/Src/stm32h7xx_hal_tim_ex.c"
   1:./Libraries/STM32H7xx_HAL_Driver/Src/stm32h7xx_hal_tim_ex.c **** /**
   2:./Libraries/STM32H7xx_HAL_Driver/Src/stm32h7xx_hal_tim_ex.c ****   ******************************************************************************
   3:./Libraries/STM32H7xx_HAL_Driver/Src/stm32h7xx_hal_tim_ex.c ****   * @file    stm32h7xx_hal_tim_ex.c
   4:./Libraries/STM32H7xx_HAL_Driver/Src/stm32h7xx_hal_tim_ex.c ****   * @author  MCD Application Team
   5:./Libraries/STM32H7xx_HAL_Driver/Src/stm32h7xx_hal_tim_ex.c ****   * @brief   TIM HAL module driver.
   6:./Libraries/STM32H7xx_HAL_Driver/Src/stm32h7xx_hal_tim_ex.c ****   *          This file provides firmware functions to manage the following
   7:./Libraries/STM32H7xx_HAL_Driver/Src/stm32h7xx_hal_tim_ex.c ****   *          functionalities of the Timer Extended peripheral:
   8:./Libraries/STM32H7xx_HAL_Driver/Src/stm32h7xx_hal_tim_ex.c ****   *           + Time Hall Sensor Interface Initialization
   9:./Libraries/STM32H7xx_HAL_Driver/Src/stm32h7xx_hal_tim_ex.c ****   *           + Time Hall Sensor Interface Start
  10:./Libraries/STM32H7xx_HAL_Driver/Src/stm32h7xx_hal_tim_ex.c ****   *           + Time Complementary signal break and dead time configuration
  11:./Libraries/STM32H7xx_HAL_Driver/Src/stm32h7xx_hal_tim_ex.c ****   *           + Time Master and Slave synchronization configuration
  12:./Libraries/STM32H7xx_HAL_Driver/Src/stm32h7xx_hal_tim_ex.c ****   *           + Time Output Compare/PWM Channel Configuration (for channels 5 and 6)
  13:./Libraries/STM32H7xx_HAL_Driver/Src/stm32h7xx_hal_tim_ex.c ****   *           + Timer remapping capabilities configuration
  14:./Libraries/STM32H7xx_HAL_Driver/Src/stm32h7xx_hal_tim_ex.c ****   @verbatim
  15:./Libraries/STM32H7xx_HAL_Driver/Src/stm32h7xx_hal_tim_ex.c ****   ==============================================================================
  16:./Libraries/STM32H7xx_HAL_Driver/Src/stm32h7xx_hal_tim_ex.c ****                       ##### TIMER Extended features #####
  17:./Libraries/STM32H7xx_HAL_Driver/Src/stm32h7xx_hal_tim_ex.c ****   ==============================================================================
  18:./Libraries/STM32H7xx_HAL_Driver/Src/stm32h7xx_hal_tim_ex.c ****   [..]
  19:./Libraries/STM32H7xx_HAL_Driver/Src/stm32h7xx_hal_tim_ex.c ****     The Timer Extended features include:
  20:./Libraries/STM32H7xx_HAL_Driver/Src/stm32h7xx_hal_tim_ex.c ****     (#) Complementary outputs with programmable dead-time for :
  21:./Libraries/STM32H7xx_HAL_Driver/Src/stm32h7xx_hal_tim_ex.c ****         (++) Output Compare
  22:./Libraries/STM32H7xx_HAL_Driver/Src/stm32h7xx_hal_tim_ex.c ****         (++) PWM generation (Edge and Center-aligned Mode)
  23:./Libraries/STM32H7xx_HAL_Driver/Src/stm32h7xx_hal_tim_ex.c ****         (++) One-pulse mode output
  24:./Libraries/STM32H7xx_HAL_Driver/Src/stm32h7xx_hal_tim_ex.c ****     (#) Synchronization circuit to control the timer with external signals and to
  25:./Libraries/STM32H7xx_HAL_Driver/Src/stm32h7xx_hal_tim_ex.c ****         interconnect several timers together.
  26:./Libraries/STM32H7xx_HAL_Driver/Src/stm32h7xx_hal_tim_ex.c ****     (#) Break input to put the timer output signals in reset state or in a known state.
  27:./Libraries/STM32H7xx_HAL_Driver/Src/stm32h7xx_hal_tim_ex.c ****     (#) Supports incremental (quadrature) encoder and hall-sensor circuitry for
  28:./Libraries/STM32H7xx_HAL_Driver/Src/stm32h7xx_hal_tim_ex.c ****         positioning purposes
  29:./Libraries/STM32H7xx_HAL_Driver/Src/stm32h7xx_hal_tim_ex.c **** 
  30:./Libraries/STM32H7xx_HAL_Driver/Src/stm32h7xx_hal_tim_ex.c ****             ##### How to use this driver #####
  31:./Libraries/STM32H7xx_HAL_Driver/Src/stm32h7xx_hal_tim_ex.c ****   ==============================================================================
ARM GAS  /tmp/ccxx2olO.s 			page 2


  32:./Libraries/STM32H7xx_HAL_Driver/Src/stm32h7xx_hal_tim_ex.c ****     [..]
  33:./Libraries/STM32H7xx_HAL_Driver/Src/stm32h7xx_hal_tim_ex.c ****      (#) Initialize the TIM low level resources by implementing the following functions
  34:./Libraries/STM32H7xx_HAL_Driver/Src/stm32h7xx_hal_tim_ex.c ****          depending on the selected feature:
  35:./Libraries/STM32H7xx_HAL_Driver/Src/stm32h7xx_hal_tim_ex.c ****            (++) Hall Sensor output : HAL_TIMEx_HallSensor_MspInit()
  36:./Libraries/STM32H7xx_HAL_Driver/Src/stm32h7xx_hal_tim_ex.c **** 
  37:./Libraries/STM32H7xx_HAL_Driver/Src/stm32h7xx_hal_tim_ex.c ****      (#) Initialize the TIM low level resources :
  38:./Libraries/STM32H7xx_HAL_Driver/Src/stm32h7xx_hal_tim_ex.c ****         (##) Enable the TIM interface clock using __HAL_RCC_TIMx_CLK_ENABLE();
  39:./Libraries/STM32H7xx_HAL_Driver/Src/stm32h7xx_hal_tim_ex.c ****         (##) TIM pins configuration
  40:./Libraries/STM32H7xx_HAL_Driver/Src/stm32h7xx_hal_tim_ex.c ****             (+++) Enable the clock for the TIM GPIOs using the following function:
  41:./Libraries/STM32H7xx_HAL_Driver/Src/stm32h7xx_hal_tim_ex.c ****               __HAL_RCC_GPIOx_CLK_ENABLE();
  42:./Libraries/STM32H7xx_HAL_Driver/Src/stm32h7xx_hal_tim_ex.c ****             (+++) Configure these TIM pins in Alternate function mode using HAL_GPIO_Init();
  43:./Libraries/STM32H7xx_HAL_Driver/Src/stm32h7xx_hal_tim_ex.c **** 
  44:./Libraries/STM32H7xx_HAL_Driver/Src/stm32h7xx_hal_tim_ex.c ****      (#) The external Clock can be configured, if needed (the default clock is the
  45:./Libraries/STM32H7xx_HAL_Driver/Src/stm32h7xx_hal_tim_ex.c ****          internal clock from the APBx), using the following function:
  46:./Libraries/STM32H7xx_HAL_Driver/Src/stm32h7xx_hal_tim_ex.c ****          HAL_TIM_ConfigClockSource, the clock configuration should be done before
  47:./Libraries/STM32H7xx_HAL_Driver/Src/stm32h7xx_hal_tim_ex.c ****          any start function.
  48:./Libraries/STM32H7xx_HAL_Driver/Src/stm32h7xx_hal_tim_ex.c **** 
  49:./Libraries/STM32H7xx_HAL_Driver/Src/stm32h7xx_hal_tim_ex.c ****      (#) Configure the TIM in the desired functioning mode using one of the
  50:./Libraries/STM32H7xx_HAL_Driver/Src/stm32h7xx_hal_tim_ex.c ****          initialization function of this driver:
  51:./Libraries/STM32H7xx_HAL_Driver/Src/stm32h7xx_hal_tim_ex.c ****           (++) HAL_TIMEx_HallSensor_Init() and HAL_TIMEx_ConfigCommutEvent(): to use the
  52:./Libraries/STM32H7xx_HAL_Driver/Src/stm32h7xx_hal_tim_ex.c ****                Timer Hall Sensor Interface and the commutation event with the corresponding
  53:./Libraries/STM32H7xx_HAL_Driver/Src/stm32h7xx_hal_tim_ex.c ****                Interrupt and DMA request if needed (Note that One Timer is used to interface
  54:./Libraries/STM32H7xx_HAL_Driver/Src/stm32h7xx_hal_tim_ex.c ****                with the Hall sensor Interface and another Timer should be used to use
  55:./Libraries/STM32H7xx_HAL_Driver/Src/stm32h7xx_hal_tim_ex.c ****                the commutation event).
  56:./Libraries/STM32H7xx_HAL_Driver/Src/stm32h7xx_hal_tim_ex.c **** 
  57:./Libraries/STM32H7xx_HAL_Driver/Src/stm32h7xx_hal_tim_ex.c ****      (#) Activate the TIM peripheral using one of the start functions:
  58:./Libraries/STM32H7xx_HAL_Driver/Src/stm32h7xx_hal_tim_ex.c ****            (++) Complementary Output Compare : HAL_TIMEx_OCN_Start(), HAL_TIMEx_OCN_Start_DMA(), HA
  59:./Libraries/STM32H7xx_HAL_Driver/Src/stm32h7xx_hal_tim_ex.c ****            (++) Complementary PWM generation : HAL_TIMEx_PWMN_Start(), HAL_TIMEx_PWMN_Start_DMA(), 
  60:./Libraries/STM32H7xx_HAL_Driver/Src/stm32h7xx_hal_tim_ex.c ****            (++) Complementary One-pulse mode output : HAL_TIMEx_OnePulseN_Start(), HAL_TIMEx_OnePul
  61:./Libraries/STM32H7xx_HAL_Driver/Src/stm32h7xx_hal_tim_ex.c ****            (++) Hall Sensor output : HAL_TIMEx_HallSensor_Start(), HAL_TIMEx_HallSensor_Start_DMA()
  62:./Libraries/STM32H7xx_HAL_Driver/Src/stm32h7xx_hal_tim_ex.c **** 
  63:./Libraries/STM32H7xx_HAL_Driver/Src/stm32h7xx_hal_tim_ex.c ****   @endverbatim
  64:./Libraries/STM32H7xx_HAL_Driver/Src/stm32h7xx_hal_tim_ex.c ****   ******************************************************************************
  65:./Libraries/STM32H7xx_HAL_Driver/Src/stm32h7xx_hal_tim_ex.c ****   * @attention
  66:./Libraries/STM32H7xx_HAL_Driver/Src/stm32h7xx_hal_tim_ex.c ****   *
  67:./Libraries/STM32H7xx_HAL_Driver/Src/stm32h7xx_hal_tim_ex.c ****   * <h2><center>&copy; Copyright (c) 2017 STMicroelectronics.
  68:./Libraries/STM32H7xx_HAL_Driver/Src/stm32h7xx_hal_tim_ex.c ****   * All rights reserved.</center></h2>
  69:./Libraries/STM32H7xx_HAL_Driver/Src/stm32h7xx_hal_tim_ex.c ****   *
  70:./Libraries/STM32H7xx_HAL_Driver/Src/stm32h7xx_hal_tim_ex.c ****   * This software component is licensed by ST under BSD 3-Clause license,
  71:./Libraries/STM32H7xx_HAL_Driver/Src/stm32h7xx_hal_tim_ex.c ****   * the "License"; You may not use this file except in compliance with the
  72:./Libraries/STM32H7xx_HAL_Driver/Src/stm32h7xx_hal_tim_ex.c ****   * License. You may obtain a copy of the License at:
  73:./Libraries/STM32H7xx_HAL_Driver/Src/stm32h7xx_hal_tim_ex.c ****   *                        opensource.org/licenses/BSD-3-Clause
  74:./Libraries/STM32H7xx_HAL_Driver/Src/stm32h7xx_hal_tim_ex.c ****   *
  75:./Libraries/STM32H7xx_HAL_Driver/Src/stm32h7xx_hal_tim_ex.c ****   ******************************************************************************
  76:./Libraries/STM32H7xx_HAL_Driver/Src/stm32h7xx_hal_tim_ex.c ****   */
  77:./Libraries/STM32H7xx_HAL_Driver/Src/stm32h7xx_hal_tim_ex.c **** 
  78:./Libraries/STM32H7xx_HAL_Driver/Src/stm32h7xx_hal_tim_ex.c **** /* Includes ------------------------------------------------------------------*/
  79:./Libraries/STM32H7xx_HAL_Driver/Src/stm32h7xx_hal_tim_ex.c **** #include "stm32h7xx_hal.h"
  80:./Libraries/STM32H7xx_HAL_Driver/Src/stm32h7xx_hal_tim_ex.c **** 
  81:./Libraries/STM32H7xx_HAL_Driver/Src/stm32h7xx_hal_tim_ex.c **** /** @addtogroup STM32H7xx_HAL_Driver
  82:./Libraries/STM32H7xx_HAL_Driver/Src/stm32h7xx_hal_tim_ex.c ****   * @{
  83:./Libraries/STM32H7xx_HAL_Driver/Src/stm32h7xx_hal_tim_ex.c ****   */
  84:./Libraries/STM32H7xx_HAL_Driver/Src/stm32h7xx_hal_tim_ex.c **** 
  85:./Libraries/STM32H7xx_HAL_Driver/Src/stm32h7xx_hal_tim_ex.c **** /** @defgroup TIMEx TIMEx
  86:./Libraries/STM32H7xx_HAL_Driver/Src/stm32h7xx_hal_tim_ex.c ****   * @brief TIM Extended HAL module driver
  87:./Libraries/STM32H7xx_HAL_Driver/Src/stm32h7xx_hal_tim_ex.c ****   * @{
  88:./Libraries/STM32H7xx_HAL_Driver/Src/stm32h7xx_hal_tim_ex.c ****   */
ARM GAS  /tmp/ccxx2olO.s 			page 3


  89:./Libraries/STM32H7xx_HAL_Driver/Src/stm32h7xx_hal_tim_ex.c **** 
  90:./Libraries/STM32H7xx_HAL_Driver/Src/stm32h7xx_hal_tim_ex.c **** #ifdef HAL_TIM_MODULE_ENABLED
  91:./Libraries/STM32H7xx_HAL_Driver/Src/stm32h7xx_hal_tim_ex.c **** 
  92:./Libraries/STM32H7xx_HAL_Driver/Src/stm32h7xx_hal_tim_ex.c **** /* Private typedef -----------------------------------------------------------*/
  93:./Libraries/STM32H7xx_HAL_Driver/Src/stm32h7xx_hal_tim_ex.c **** /* Private define ------------------------------------------------------------*/
  94:./Libraries/STM32H7xx_HAL_Driver/Src/stm32h7xx_hal_tim_ex.c **** /* Private macros ------------------------------------------------------------*/
  95:./Libraries/STM32H7xx_HAL_Driver/Src/stm32h7xx_hal_tim_ex.c **** /* Private variables ---------------------------------------------------------*/
  96:./Libraries/STM32H7xx_HAL_Driver/Src/stm32h7xx_hal_tim_ex.c **** /* Private function prototypes -----------------------------------------------*/
  97:./Libraries/STM32H7xx_HAL_Driver/Src/stm32h7xx_hal_tim_ex.c **** static void TIM_DMADelayPulseNCplt(DMA_HandleTypeDef *hdma);
  98:./Libraries/STM32H7xx_HAL_Driver/Src/stm32h7xx_hal_tim_ex.c **** static void TIM_DMAErrorCCxN(DMA_HandleTypeDef *hdma);
  99:./Libraries/STM32H7xx_HAL_Driver/Src/stm32h7xx_hal_tim_ex.c **** static void TIM_CCxNChannelCmd(TIM_TypeDef *TIMx, uint32_t Channel, uint32_t ChannelNState);
 100:./Libraries/STM32H7xx_HAL_Driver/Src/stm32h7xx_hal_tim_ex.c **** 
 101:./Libraries/STM32H7xx_HAL_Driver/Src/stm32h7xx_hal_tim_ex.c **** /* Exported functions --------------------------------------------------------*/
 102:./Libraries/STM32H7xx_HAL_Driver/Src/stm32h7xx_hal_tim_ex.c **** /** @defgroup TIMEx_Exported_Functions TIM Extended Exported Functions
 103:./Libraries/STM32H7xx_HAL_Driver/Src/stm32h7xx_hal_tim_ex.c ****   * @{
 104:./Libraries/STM32H7xx_HAL_Driver/Src/stm32h7xx_hal_tim_ex.c ****   */
 105:./Libraries/STM32H7xx_HAL_Driver/Src/stm32h7xx_hal_tim_ex.c **** 
 106:./Libraries/STM32H7xx_HAL_Driver/Src/stm32h7xx_hal_tim_ex.c **** /** @defgroup TIMEx_Exported_Functions_Group1 Extended Timer Hall Sensor functions
 107:./Libraries/STM32H7xx_HAL_Driver/Src/stm32h7xx_hal_tim_ex.c ****   * @brief    Timer Hall Sensor functions
 108:./Libraries/STM32H7xx_HAL_Driver/Src/stm32h7xx_hal_tim_ex.c ****   *
 109:./Libraries/STM32H7xx_HAL_Driver/Src/stm32h7xx_hal_tim_ex.c **** @verbatim
 110:./Libraries/STM32H7xx_HAL_Driver/Src/stm32h7xx_hal_tim_ex.c ****   ==============================================================================
 111:./Libraries/STM32H7xx_HAL_Driver/Src/stm32h7xx_hal_tim_ex.c ****                       ##### Timer Hall Sensor functions #####
 112:./Libraries/STM32H7xx_HAL_Driver/Src/stm32h7xx_hal_tim_ex.c ****   ==============================================================================
 113:./Libraries/STM32H7xx_HAL_Driver/Src/stm32h7xx_hal_tim_ex.c ****   [..]
 114:./Libraries/STM32H7xx_HAL_Driver/Src/stm32h7xx_hal_tim_ex.c ****     This section provides functions allowing to:
 115:./Libraries/STM32H7xx_HAL_Driver/Src/stm32h7xx_hal_tim_ex.c ****     (+) Initialize and configure TIM HAL Sensor.
 116:./Libraries/STM32H7xx_HAL_Driver/Src/stm32h7xx_hal_tim_ex.c ****     (+) De-initialize TIM HAL Sensor.
 117:./Libraries/STM32H7xx_HAL_Driver/Src/stm32h7xx_hal_tim_ex.c ****     (+) Start the Hall Sensor Interface.
 118:./Libraries/STM32H7xx_HAL_Driver/Src/stm32h7xx_hal_tim_ex.c ****     (+) Stop the Hall Sensor Interface.
 119:./Libraries/STM32H7xx_HAL_Driver/Src/stm32h7xx_hal_tim_ex.c ****     (+) Start the Hall Sensor Interface and enable interrupts.
 120:./Libraries/STM32H7xx_HAL_Driver/Src/stm32h7xx_hal_tim_ex.c ****     (+) Stop the Hall Sensor Interface and disable interrupts.
 121:./Libraries/STM32H7xx_HAL_Driver/Src/stm32h7xx_hal_tim_ex.c ****     (+) Start the Hall Sensor Interface and enable DMA transfers.
 122:./Libraries/STM32H7xx_HAL_Driver/Src/stm32h7xx_hal_tim_ex.c ****     (+) Stop the Hall Sensor Interface and disable DMA transfers.
 123:./Libraries/STM32H7xx_HAL_Driver/Src/stm32h7xx_hal_tim_ex.c **** 
 124:./Libraries/STM32H7xx_HAL_Driver/Src/stm32h7xx_hal_tim_ex.c **** @endverbatim
 125:./Libraries/STM32H7xx_HAL_Driver/Src/stm32h7xx_hal_tim_ex.c ****   * @{
 126:./Libraries/STM32H7xx_HAL_Driver/Src/stm32h7xx_hal_tim_ex.c ****   */
 127:./Libraries/STM32H7xx_HAL_Driver/Src/stm32h7xx_hal_tim_ex.c **** /**
 128:./Libraries/STM32H7xx_HAL_Driver/Src/stm32h7xx_hal_tim_ex.c ****   * @brief  Initializes the TIM Hall Sensor Interface and initialize the associated handle.
 129:./Libraries/STM32H7xx_HAL_Driver/Src/stm32h7xx_hal_tim_ex.c ****   * @note   When the timer instance is initialized in Hall Sensor Interface mode,
 130:./Libraries/STM32H7xx_HAL_Driver/Src/stm32h7xx_hal_tim_ex.c ****   *         timer channels 1 and channel 2 are reserved and cannot be used for
 131:./Libraries/STM32H7xx_HAL_Driver/Src/stm32h7xx_hal_tim_ex.c ****   *         other purpose.
 132:./Libraries/STM32H7xx_HAL_Driver/Src/stm32h7xx_hal_tim_ex.c ****   * @param  htim TIM Hall Sensor Interface handle
 133:./Libraries/STM32H7xx_HAL_Driver/Src/stm32h7xx_hal_tim_ex.c ****   * @param  sConfig TIM Hall Sensor configuration structure
 134:./Libraries/STM32H7xx_HAL_Driver/Src/stm32h7xx_hal_tim_ex.c ****   * @retval HAL status
 135:./Libraries/STM32H7xx_HAL_Driver/Src/stm32h7xx_hal_tim_ex.c ****   */
 136:./Libraries/STM32H7xx_HAL_Driver/Src/stm32h7xx_hal_tim_ex.c **** HAL_StatusTypeDef HAL_TIMEx_HallSensor_Init(TIM_HandleTypeDef *htim, TIM_HallSensor_InitTypeDef *sC
 137:./Libraries/STM32H7xx_HAL_Driver/Src/stm32h7xx_hal_tim_ex.c **** {
  28              		.loc 1 137 1
  29              		.cfi_startproc
  30              		@ args = 0, pretend = 0, frame = 40
  31              		@ frame_needed = 1, uses_anonymous_args = 0
  32 0000 80B5     		push	{r7, lr}
  33              	.LCFI0:
  34              		.cfi_def_cfa_offset 8
  35              		.cfi_offset 7, -8
ARM GAS  /tmp/ccxx2olO.s 			page 4


  36              		.cfi_offset 14, -4
  37 0002 8AB0     		sub	sp, sp, #40
  38              	.LCFI1:
  39              		.cfi_def_cfa_offset 48
  40 0004 00AF     		add	r7, sp, #0
  41              	.LCFI2:
  42              		.cfi_def_cfa_register 7
  43 0006 7860     		str	r0, [r7, #4]
  44 0008 3960     		str	r1, [r7]
 138:./Libraries/STM32H7xx_HAL_Driver/Src/stm32h7xx_hal_tim_ex.c ****   TIM_OC_InitTypeDef OC_Config;
 139:./Libraries/STM32H7xx_HAL_Driver/Src/stm32h7xx_hal_tim_ex.c **** 
 140:./Libraries/STM32H7xx_HAL_Driver/Src/stm32h7xx_hal_tim_ex.c ****   /* Check the TIM handle allocation */
 141:./Libraries/STM32H7xx_HAL_Driver/Src/stm32h7xx_hal_tim_ex.c ****   if (htim == NULL)
  45              		.loc 1 141 6
  46 000a 7B68     		ldr	r3, [r7, #4]
  47 000c 002B     		cmp	r3, #0
  48 000e 01D1     		bne	.L2
 142:./Libraries/STM32H7xx_HAL_Driver/Src/stm32h7xx_hal_tim_ex.c ****   {
 143:./Libraries/STM32H7xx_HAL_Driver/Src/stm32h7xx_hal_tim_ex.c ****     return HAL_ERROR;
  49              		.loc 1 143 12
  50 0010 0123     		movs	r3, #1
  51 0012 9AE0     		b	.L5
  52              	.L2:
 144:./Libraries/STM32H7xx_HAL_Driver/Src/stm32h7xx_hal_tim_ex.c ****   }
 145:./Libraries/STM32H7xx_HAL_Driver/Src/stm32h7xx_hal_tim_ex.c **** 
 146:./Libraries/STM32H7xx_HAL_Driver/Src/stm32h7xx_hal_tim_ex.c ****   /* Check the parameters */
 147:./Libraries/STM32H7xx_HAL_Driver/Src/stm32h7xx_hal_tim_ex.c ****   assert_param(IS_TIM_HALL_SENSOR_INTERFACE_INSTANCE(htim->Instance));
 148:./Libraries/STM32H7xx_HAL_Driver/Src/stm32h7xx_hal_tim_ex.c ****   assert_param(IS_TIM_COUNTER_MODE(htim->Init.CounterMode));
 149:./Libraries/STM32H7xx_HAL_Driver/Src/stm32h7xx_hal_tim_ex.c ****   assert_param(IS_TIM_CLOCKDIVISION_DIV(htim->Init.ClockDivision));
 150:./Libraries/STM32H7xx_HAL_Driver/Src/stm32h7xx_hal_tim_ex.c ****   assert_param(IS_TIM_AUTORELOAD_PRELOAD(htim->Init.AutoReloadPreload));
 151:./Libraries/STM32H7xx_HAL_Driver/Src/stm32h7xx_hal_tim_ex.c ****   assert_param(IS_TIM_IC_POLARITY(sConfig->IC1Polarity));
 152:./Libraries/STM32H7xx_HAL_Driver/Src/stm32h7xx_hal_tim_ex.c ****   assert_param(IS_TIM_IC_PRESCALER(sConfig->IC1Prescaler));
 153:./Libraries/STM32H7xx_HAL_Driver/Src/stm32h7xx_hal_tim_ex.c ****   assert_param(IS_TIM_IC_FILTER(sConfig->IC1Filter));
 154:./Libraries/STM32H7xx_HAL_Driver/Src/stm32h7xx_hal_tim_ex.c **** 
 155:./Libraries/STM32H7xx_HAL_Driver/Src/stm32h7xx_hal_tim_ex.c ****   if (htim->State == HAL_TIM_STATE_RESET)
  53              		.loc 1 155 11
  54 0014 7B68     		ldr	r3, [r7, #4]
  55 0016 93F83D30 		ldrb	r3, [r3, #61]
  56 001a DBB2     		uxtb	r3, r3
  57              		.loc 1 155 6
  58 001c 002B     		cmp	r3, #0
  59 001e 06D1     		bne	.L4
 156:./Libraries/STM32H7xx_HAL_Driver/Src/stm32h7xx_hal_tim_ex.c ****   {
 157:./Libraries/STM32H7xx_HAL_Driver/Src/stm32h7xx_hal_tim_ex.c ****     /* Allocate lock resource and initialize it */
 158:./Libraries/STM32H7xx_HAL_Driver/Src/stm32h7xx_hal_tim_ex.c ****     htim->Lock = HAL_UNLOCKED;
  60              		.loc 1 158 16
  61 0020 7B68     		ldr	r3, [r7, #4]
  62 0022 0022     		movs	r2, #0
  63 0024 83F83C20 		strb	r2, [r3, #60]
 159:./Libraries/STM32H7xx_HAL_Driver/Src/stm32h7xx_hal_tim_ex.c **** 
 160:./Libraries/STM32H7xx_HAL_Driver/Src/stm32h7xx_hal_tim_ex.c **** #if (USE_HAL_TIM_REGISTER_CALLBACKS == 1)
 161:./Libraries/STM32H7xx_HAL_Driver/Src/stm32h7xx_hal_tim_ex.c ****     /* Reset interrupt callbacks to legacy week callbacks */
 162:./Libraries/STM32H7xx_HAL_Driver/Src/stm32h7xx_hal_tim_ex.c ****     TIM_ResetCallback(htim);
 163:./Libraries/STM32H7xx_HAL_Driver/Src/stm32h7xx_hal_tim_ex.c **** 
 164:./Libraries/STM32H7xx_HAL_Driver/Src/stm32h7xx_hal_tim_ex.c ****     if (htim->HallSensor_MspInitCallback == NULL)
 165:./Libraries/STM32H7xx_HAL_Driver/Src/stm32h7xx_hal_tim_ex.c ****     {
 166:./Libraries/STM32H7xx_HAL_Driver/Src/stm32h7xx_hal_tim_ex.c ****       htim->HallSensor_MspInitCallback = HAL_TIMEx_HallSensor_MspInit;
ARM GAS  /tmp/ccxx2olO.s 			page 5


 167:./Libraries/STM32H7xx_HAL_Driver/Src/stm32h7xx_hal_tim_ex.c ****     }
 168:./Libraries/STM32H7xx_HAL_Driver/Src/stm32h7xx_hal_tim_ex.c ****     /* Init the low level hardware : GPIO, CLOCK, NVIC */
 169:./Libraries/STM32H7xx_HAL_Driver/Src/stm32h7xx_hal_tim_ex.c ****     htim->HallSensor_MspInitCallback(htim);
 170:./Libraries/STM32H7xx_HAL_Driver/Src/stm32h7xx_hal_tim_ex.c **** #else
 171:./Libraries/STM32H7xx_HAL_Driver/Src/stm32h7xx_hal_tim_ex.c ****     /* Init the low level hardware : GPIO, CLOCK, NVIC and DMA */
 172:./Libraries/STM32H7xx_HAL_Driver/Src/stm32h7xx_hal_tim_ex.c ****     HAL_TIMEx_HallSensor_MspInit(htim);
  64              		.loc 1 172 5
  65 0028 7868     		ldr	r0, [r7, #4]
  66 002a FFF7FEFF 		bl	HAL_TIMEx_HallSensor_MspInit
  67              	.L4:
 173:./Libraries/STM32H7xx_HAL_Driver/Src/stm32h7xx_hal_tim_ex.c **** #endif /* USE_HAL_TIM_REGISTER_CALLBACKS */
 174:./Libraries/STM32H7xx_HAL_Driver/Src/stm32h7xx_hal_tim_ex.c ****   }
 175:./Libraries/STM32H7xx_HAL_Driver/Src/stm32h7xx_hal_tim_ex.c **** 
 176:./Libraries/STM32H7xx_HAL_Driver/Src/stm32h7xx_hal_tim_ex.c ****   /* Set the TIM state */
 177:./Libraries/STM32H7xx_HAL_Driver/Src/stm32h7xx_hal_tim_ex.c ****   htim->State = HAL_TIM_STATE_BUSY;
  68              		.loc 1 177 15
  69 002e 7B68     		ldr	r3, [r7, #4]
  70 0030 0222     		movs	r2, #2
  71 0032 83F83D20 		strb	r2, [r3, #61]
 178:./Libraries/STM32H7xx_HAL_Driver/Src/stm32h7xx_hal_tim_ex.c **** 
 179:./Libraries/STM32H7xx_HAL_Driver/Src/stm32h7xx_hal_tim_ex.c ****   /* Configure the Time base in the Encoder Mode */
 180:./Libraries/STM32H7xx_HAL_Driver/Src/stm32h7xx_hal_tim_ex.c ****   TIM_Base_SetConfig(htim->Instance, &htim->Init);
  72              		.loc 1 180 3
  73 0036 7B68     		ldr	r3, [r7, #4]
  74 0038 1A68     		ldr	r2, [r3]
  75 003a 7B68     		ldr	r3, [r7, #4]
  76 003c 0433     		adds	r3, r3, #4
  77 003e 1946     		mov	r1, r3
  78 0040 1046     		mov	r0, r2
  79 0042 FFF7FEFF 		bl	TIM_Base_SetConfig
 181:./Libraries/STM32H7xx_HAL_Driver/Src/stm32h7xx_hal_tim_ex.c **** 
 182:./Libraries/STM32H7xx_HAL_Driver/Src/stm32h7xx_hal_tim_ex.c ****   /* Configure the Channel 1 as Input Channel to interface with the three Outputs of the  Hall sens
 183:./Libraries/STM32H7xx_HAL_Driver/Src/stm32h7xx_hal_tim_ex.c ****   TIM_TI1_SetConfig(htim->Instance, sConfig->IC1Polarity, TIM_ICSELECTION_TRC, sConfig->IC1Filter);
  80              		.loc 1 183 3
  81 0046 7B68     		ldr	r3, [r7, #4]
  82 0048 1868     		ldr	r0, [r3]
  83 004a 3B68     		ldr	r3, [r7]
  84 004c 1968     		ldr	r1, [r3]
  85 004e 3B68     		ldr	r3, [r7]
  86 0050 9B68     		ldr	r3, [r3, #8]
  87 0052 0322     		movs	r2, #3
  88 0054 FFF7FEFF 		bl	TIM_TI1_SetConfig
 184:./Libraries/STM32H7xx_HAL_Driver/Src/stm32h7xx_hal_tim_ex.c **** 
 185:./Libraries/STM32H7xx_HAL_Driver/Src/stm32h7xx_hal_tim_ex.c ****   /* Reset the IC1PSC Bits */
 186:./Libraries/STM32H7xx_HAL_Driver/Src/stm32h7xx_hal_tim_ex.c ****   htim->Instance->CCMR1 &= ~TIM_CCMR1_IC1PSC;
  89              		.loc 1 186 7
  90 0058 7B68     		ldr	r3, [r7, #4]
  91 005a 1B68     		ldr	r3, [r3]
  92              		.loc 1 186 25
  93 005c 9A69     		ldr	r2, [r3, #24]
  94              		.loc 1 186 7
  95 005e 7B68     		ldr	r3, [r7, #4]
  96 0060 1B68     		ldr	r3, [r3]
  97              		.loc 1 186 25
  98 0062 22F00C02 		bic	r2, r2, #12
  99 0066 9A61     		str	r2, [r3, #24]
 187:./Libraries/STM32H7xx_HAL_Driver/Src/stm32h7xx_hal_tim_ex.c ****   /* Set the IC1PSC value */
ARM GAS  /tmp/ccxx2olO.s 			page 6


 188:./Libraries/STM32H7xx_HAL_Driver/Src/stm32h7xx_hal_tim_ex.c ****   htim->Instance->CCMR1 |= sConfig->IC1Prescaler;
 100              		.loc 1 188 7
 101 0068 7B68     		ldr	r3, [r7, #4]
 102 006a 1B68     		ldr	r3, [r3]
 103              		.loc 1 188 25
 104 006c 9969     		ldr	r1, [r3, #24]
 105              		.loc 1 188 35
 106 006e 3B68     		ldr	r3, [r7]
 107 0070 5A68     		ldr	r2, [r3, #4]
 108              		.loc 1 188 7
 109 0072 7B68     		ldr	r3, [r7, #4]
 110 0074 1B68     		ldr	r3, [r3]
 111              		.loc 1 188 25
 112 0076 0A43     		orrs	r2, r2, r1
 113 0078 9A61     		str	r2, [r3, #24]
 189:./Libraries/STM32H7xx_HAL_Driver/Src/stm32h7xx_hal_tim_ex.c **** 
 190:./Libraries/STM32H7xx_HAL_Driver/Src/stm32h7xx_hal_tim_ex.c ****   /* Enable the Hall sensor interface (XOR function of the three inputs) */
 191:./Libraries/STM32H7xx_HAL_Driver/Src/stm32h7xx_hal_tim_ex.c ****   htim->Instance->CR2 |= TIM_CR2_TI1S;
 114              		.loc 1 191 7
 115 007a 7B68     		ldr	r3, [r7, #4]
 116 007c 1B68     		ldr	r3, [r3]
 117              		.loc 1 191 23
 118 007e 5A68     		ldr	r2, [r3, #4]
 119              		.loc 1 191 7
 120 0080 7B68     		ldr	r3, [r7, #4]
 121 0082 1B68     		ldr	r3, [r3]
 122              		.loc 1 191 23
 123 0084 42F08002 		orr	r2, r2, #128
 124 0088 5A60     		str	r2, [r3, #4]
 192:./Libraries/STM32H7xx_HAL_Driver/Src/stm32h7xx_hal_tim_ex.c **** 
 193:./Libraries/STM32H7xx_HAL_Driver/Src/stm32h7xx_hal_tim_ex.c ****   /* Select the TIM_TS_TI1F_ED signal as Input trigger for the TIM */
 194:./Libraries/STM32H7xx_HAL_Driver/Src/stm32h7xx_hal_tim_ex.c ****   htim->Instance->SMCR &= ~TIM_SMCR_TS;
 125              		.loc 1 194 7
 126 008a 7B68     		ldr	r3, [r7, #4]
 127 008c 1B68     		ldr	r3, [r3]
 128              		.loc 1 194 24
 129 008e 9968     		ldr	r1, [r3, #8]
 130              		.loc 1 194 7
 131 0090 7B68     		ldr	r3, [r7, #4]
 132 0092 1A68     		ldr	r2, [r3]
 133              		.loc 1 194 24
 134 0094 2F4B     		ldr	r3, .L6
 135 0096 0B40     		ands	r3, r3, r1
 136 0098 9360     		str	r3, [r2, #8]
 195:./Libraries/STM32H7xx_HAL_Driver/Src/stm32h7xx_hal_tim_ex.c ****   htim->Instance->SMCR |= TIM_TS_TI1F_ED;
 137              		.loc 1 195 7
 138 009a 7B68     		ldr	r3, [r7, #4]
 139 009c 1B68     		ldr	r3, [r3]
 140              		.loc 1 195 24
 141 009e 9A68     		ldr	r2, [r3, #8]
 142              		.loc 1 195 7
 143 00a0 7B68     		ldr	r3, [r7, #4]
 144 00a2 1B68     		ldr	r3, [r3]
 145              		.loc 1 195 24
 146 00a4 42F04002 		orr	r2, r2, #64
 147 00a8 9A60     		str	r2, [r3, #8]
 196:./Libraries/STM32H7xx_HAL_Driver/Src/stm32h7xx_hal_tim_ex.c **** 
ARM GAS  /tmp/ccxx2olO.s 			page 7


 197:./Libraries/STM32H7xx_HAL_Driver/Src/stm32h7xx_hal_tim_ex.c ****   /* Use the TIM_TS_TI1F_ED signal to reset the TIM counter each edge detection */
 198:./Libraries/STM32H7xx_HAL_Driver/Src/stm32h7xx_hal_tim_ex.c ****   htim->Instance->SMCR &= ~TIM_SMCR_SMS;
 148              		.loc 1 198 7
 149 00aa 7B68     		ldr	r3, [r7, #4]
 150 00ac 1B68     		ldr	r3, [r3]
 151              		.loc 1 198 24
 152 00ae 9968     		ldr	r1, [r3, #8]
 153              		.loc 1 198 7
 154 00b0 7B68     		ldr	r3, [r7, #4]
 155 00b2 1A68     		ldr	r2, [r3]
 156              		.loc 1 198 24
 157 00b4 284B     		ldr	r3, .L6+4
 158 00b6 0B40     		ands	r3, r3, r1
 159 00b8 9360     		str	r3, [r2, #8]
 199:./Libraries/STM32H7xx_HAL_Driver/Src/stm32h7xx_hal_tim_ex.c ****   htim->Instance->SMCR |= TIM_SLAVEMODE_RESET;
 160              		.loc 1 199 7
 161 00ba 7B68     		ldr	r3, [r7, #4]
 162 00bc 1B68     		ldr	r3, [r3]
 163              		.loc 1 199 24
 164 00be 9A68     		ldr	r2, [r3, #8]
 165              		.loc 1 199 7
 166 00c0 7B68     		ldr	r3, [r7, #4]
 167 00c2 1B68     		ldr	r3, [r3]
 168              		.loc 1 199 24
 169 00c4 42F00402 		orr	r2, r2, #4
 170 00c8 9A60     		str	r2, [r3, #8]
 200:./Libraries/STM32H7xx_HAL_Driver/Src/stm32h7xx_hal_tim_ex.c **** 
 201:./Libraries/STM32H7xx_HAL_Driver/Src/stm32h7xx_hal_tim_ex.c ****   /* Program channel 2 in PWM 2 mode with the desired Commutation_Delay*/
 202:./Libraries/STM32H7xx_HAL_Driver/Src/stm32h7xx_hal_tim_ex.c ****   OC_Config.OCFastMode = TIM_OCFAST_DISABLE;
 171              		.loc 1 202 24
 172 00ca 0023     		movs	r3, #0
 173 00cc FB61     		str	r3, [r7, #28]
 203:./Libraries/STM32H7xx_HAL_Driver/Src/stm32h7xx_hal_tim_ex.c ****   OC_Config.OCIdleState = TIM_OCIDLESTATE_RESET;
 174              		.loc 1 203 25
 175 00ce 0023     		movs	r3, #0
 176 00d0 3B62     		str	r3, [r7, #32]
 204:./Libraries/STM32H7xx_HAL_Driver/Src/stm32h7xx_hal_tim_ex.c ****   OC_Config.OCMode = TIM_OCMODE_PWM2;
 177              		.loc 1 204 20
 178 00d2 7023     		movs	r3, #112
 179 00d4 FB60     		str	r3, [r7, #12]
 205:./Libraries/STM32H7xx_HAL_Driver/Src/stm32h7xx_hal_tim_ex.c ****   OC_Config.OCNIdleState = TIM_OCNIDLESTATE_RESET;
 180              		.loc 1 205 26
 181 00d6 0023     		movs	r3, #0
 182 00d8 7B62     		str	r3, [r7, #36]
 206:./Libraries/STM32H7xx_HAL_Driver/Src/stm32h7xx_hal_tim_ex.c ****   OC_Config.OCNPolarity = TIM_OCNPOLARITY_HIGH;
 183              		.loc 1 206 25
 184 00da 0023     		movs	r3, #0
 185 00dc BB61     		str	r3, [r7, #24]
 207:./Libraries/STM32H7xx_HAL_Driver/Src/stm32h7xx_hal_tim_ex.c ****   OC_Config.OCPolarity = TIM_OCPOLARITY_HIGH;
 186              		.loc 1 207 24
 187 00de 0023     		movs	r3, #0
 188 00e0 7B61     		str	r3, [r7, #20]
 208:./Libraries/STM32H7xx_HAL_Driver/Src/stm32h7xx_hal_tim_ex.c ****   OC_Config.Pulse = sConfig->Commutation_Delay;
 189              		.loc 1 208 28
 190 00e2 3B68     		ldr	r3, [r7]
 191 00e4 DB68     		ldr	r3, [r3, #12]
 192              		.loc 1 208 19
ARM GAS  /tmp/ccxx2olO.s 			page 8


 193 00e6 3B61     		str	r3, [r7, #16]
 209:./Libraries/STM32H7xx_HAL_Driver/Src/stm32h7xx_hal_tim_ex.c **** 
 210:./Libraries/STM32H7xx_HAL_Driver/Src/stm32h7xx_hal_tim_ex.c ****   TIM_OC2_SetConfig(htim->Instance, &OC_Config);
 194              		.loc 1 210 3
 195 00e8 7B68     		ldr	r3, [r7, #4]
 196 00ea 1B68     		ldr	r3, [r3]
 197 00ec 07F10C02 		add	r2, r7, #12
 198 00f0 1146     		mov	r1, r2
 199 00f2 1846     		mov	r0, r3
 200 00f4 FFF7FEFF 		bl	TIM_OC2_SetConfig
 211:./Libraries/STM32H7xx_HAL_Driver/Src/stm32h7xx_hal_tim_ex.c **** 
 212:./Libraries/STM32H7xx_HAL_Driver/Src/stm32h7xx_hal_tim_ex.c ****   /* Select OC2REF as trigger output on TRGO: write the MMS bits in the TIMx_CR2
 213:./Libraries/STM32H7xx_HAL_Driver/Src/stm32h7xx_hal_tim_ex.c ****     register to 101 */
 214:./Libraries/STM32H7xx_HAL_Driver/Src/stm32h7xx_hal_tim_ex.c ****   htim->Instance->CR2 &= ~TIM_CR2_MMS;
 201              		.loc 1 214 7
 202 00f8 7B68     		ldr	r3, [r7, #4]
 203 00fa 1B68     		ldr	r3, [r3]
 204              		.loc 1 214 23
 205 00fc 5A68     		ldr	r2, [r3, #4]
 206              		.loc 1 214 7
 207 00fe 7B68     		ldr	r3, [r7, #4]
 208 0100 1B68     		ldr	r3, [r3]
 209              		.loc 1 214 23
 210 0102 22F07002 		bic	r2, r2, #112
 211 0106 5A60     		str	r2, [r3, #4]
 215:./Libraries/STM32H7xx_HAL_Driver/Src/stm32h7xx_hal_tim_ex.c ****   htim->Instance->CR2 |= TIM_TRGO_OC2REF;
 212              		.loc 1 215 7
 213 0108 7B68     		ldr	r3, [r7, #4]
 214 010a 1B68     		ldr	r3, [r3]
 215              		.loc 1 215 23
 216 010c 5A68     		ldr	r2, [r3, #4]
 217              		.loc 1 215 7
 218 010e 7B68     		ldr	r3, [r7, #4]
 219 0110 1B68     		ldr	r3, [r3]
 220              		.loc 1 215 23
 221 0112 42F05002 		orr	r2, r2, #80
 222 0116 5A60     		str	r2, [r3, #4]
 216:./Libraries/STM32H7xx_HAL_Driver/Src/stm32h7xx_hal_tim_ex.c **** 
 217:./Libraries/STM32H7xx_HAL_Driver/Src/stm32h7xx_hal_tim_ex.c ****   /* Initialize the DMA burst operation state */
 218:./Libraries/STM32H7xx_HAL_Driver/Src/stm32h7xx_hal_tim_ex.c ****   htim->DMABurstState = HAL_DMA_BURST_STATE_READY;
 223              		.loc 1 218 23
 224 0118 7B68     		ldr	r3, [r7, #4]
 225 011a 0122     		movs	r2, #1
 226 011c 83F84820 		strb	r2, [r3, #72]
 219:./Libraries/STM32H7xx_HAL_Driver/Src/stm32h7xx_hal_tim_ex.c **** 
 220:./Libraries/STM32H7xx_HAL_Driver/Src/stm32h7xx_hal_tim_ex.c ****   /* Initialize the TIM channels state */
 221:./Libraries/STM32H7xx_HAL_Driver/Src/stm32h7xx_hal_tim_ex.c ****   TIM_CHANNEL_STATE_SET(htim, TIM_CHANNEL_1, HAL_TIM_CHANNEL_STATE_READY);
 227              		.loc 1 221 3
 228 0120 7B68     		ldr	r3, [r7, #4]
 229 0122 0122     		movs	r2, #1
 230 0124 83F83E20 		strb	r2, [r3, #62]
 222:./Libraries/STM32H7xx_HAL_Driver/Src/stm32h7xx_hal_tim_ex.c ****   TIM_CHANNEL_STATE_SET(htim, TIM_CHANNEL_2, HAL_TIM_CHANNEL_STATE_READY);
 231              		.loc 1 222 3
 232 0128 7B68     		ldr	r3, [r7, #4]
 233 012a 0122     		movs	r2, #1
 234 012c 83F83F20 		strb	r2, [r3, #63]
 223:./Libraries/STM32H7xx_HAL_Driver/Src/stm32h7xx_hal_tim_ex.c ****   TIM_CHANNEL_N_STATE_SET(htim, TIM_CHANNEL_1, HAL_TIM_CHANNEL_STATE_READY);
ARM GAS  /tmp/ccxx2olO.s 			page 9


 235              		.loc 1 223 3
 236 0130 7B68     		ldr	r3, [r7, #4]
 237 0132 0122     		movs	r2, #1
 238 0134 83F84420 		strb	r2, [r3, #68]
 224:./Libraries/STM32H7xx_HAL_Driver/Src/stm32h7xx_hal_tim_ex.c ****   TIM_CHANNEL_N_STATE_SET(htim, TIM_CHANNEL_2, HAL_TIM_CHANNEL_STATE_READY);
 239              		.loc 1 224 3
 240 0138 7B68     		ldr	r3, [r7, #4]
 241 013a 0122     		movs	r2, #1
 242 013c 83F84520 		strb	r2, [r3, #69]
 225:./Libraries/STM32H7xx_HAL_Driver/Src/stm32h7xx_hal_tim_ex.c **** 
 226:./Libraries/STM32H7xx_HAL_Driver/Src/stm32h7xx_hal_tim_ex.c ****   /* Initialize the TIM state*/
 227:./Libraries/STM32H7xx_HAL_Driver/Src/stm32h7xx_hal_tim_ex.c ****   htim->State = HAL_TIM_STATE_READY;
 243              		.loc 1 227 15
 244 0140 7B68     		ldr	r3, [r7, #4]
 245 0142 0122     		movs	r2, #1
 246 0144 83F83D20 		strb	r2, [r3, #61]
 228:./Libraries/STM32H7xx_HAL_Driver/Src/stm32h7xx_hal_tim_ex.c **** 
 229:./Libraries/STM32H7xx_HAL_Driver/Src/stm32h7xx_hal_tim_ex.c ****   return HAL_OK;
 247              		.loc 1 229 10
 248 0148 0023     		movs	r3, #0
 249              	.L5:
 230:./Libraries/STM32H7xx_HAL_Driver/Src/stm32h7xx_hal_tim_ex.c **** }
 250              		.loc 1 230 1 discriminator 1
 251 014a 1846     		mov	r0, r3
 252 014c 2837     		adds	r7, r7, #40
 253              	.LCFI3:
 254              		.cfi_def_cfa_offset 8
 255 014e BD46     		mov	sp, r7
 256              	.LCFI4:
 257              		.cfi_def_cfa_register 13
 258              		@ sp needed
 259 0150 80BD     		pop	{r7, pc}
 260              	.L7:
 261 0152 00BF     		.align	2
 262              	.L6:
 263 0154 8FFFCFFF 		.word	-3145841
 264 0158 F8FFFEFF 		.word	-65544
 265              		.cfi_endproc
 266              	.LFE331:
 268              		.section	.text.HAL_TIMEx_HallSensor_DeInit,"ax",%progbits
 269              		.align	1
 270              		.global	HAL_TIMEx_HallSensor_DeInit
 271              		.syntax unified
 272              		.thumb
 273              		.thumb_func
 274              		.fpu fpv5-d16
 276              	HAL_TIMEx_HallSensor_DeInit:
 277              	.LFB332:
 231:./Libraries/STM32H7xx_HAL_Driver/Src/stm32h7xx_hal_tim_ex.c **** 
 232:./Libraries/STM32H7xx_HAL_Driver/Src/stm32h7xx_hal_tim_ex.c **** /**
 233:./Libraries/STM32H7xx_HAL_Driver/Src/stm32h7xx_hal_tim_ex.c ****   * @brief  DeInitializes the TIM Hall Sensor interface
 234:./Libraries/STM32H7xx_HAL_Driver/Src/stm32h7xx_hal_tim_ex.c ****   * @param  htim TIM Hall Sensor Interface handle
 235:./Libraries/STM32H7xx_HAL_Driver/Src/stm32h7xx_hal_tim_ex.c ****   * @retval HAL status
 236:./Libraries/STM32H7xx_HAL_Driver/Src/stm32h7xx_hal_tim_ex.c ****   */
 237:./Libraries/STM32H7xx_HAL_Driver/Src/stm32h7xx_hal_tim_ex.c **** HAL_StatusTypeDef HAL_TIMEx_HallSensor_DeInit(TIM_HandleTypeDef *htim)
 238:./Libraries/STM32H7xx_HAL_Driver/Src/stm32h7xx_hal_tim_ex.c **** {
 278              		.loc 1 238 1
ARM GAS  /tmp/ccxx2olO.s 			page 10


 279              		.cfi_startproc
 280              		@ args = 0, pretend = 0, frame = 8
 281              		@ frame_needed = 1, uses_anonymous_args = 0
 282 0000 80B5     		push	{r7, lr}
 283              	.LCFI5:
 284              		.cfi_def_cfa_offset 8
 285              		.cfi_offset 7, -8
 286              		.cfi_offset 14, -4
 287 0002 82B0     		sub	sp, sp, #8
 288              	.LCFI6:
 289              		.cfi_def_cfa_offset 16
 290 0004 00AF     		add	r7, sp, #0
 291              	.LCFI7:
 292              		.cfi_def_cfa_register 7
 293 0006 7860     		str	r0, [r7, #4]
 239:./Libraries/STM32H7xx_HAL_Driver/Src/stm32h7xx_hal_tim_ex.c ****   /* Check the parameters */
 240:./Libraries/STM32H7xx_HAL_Driver/Src/stm32h7xx_hal_tim_ex.c ****   assert_param(IS_TIM_INSTANCE(htim->Instance));
 241:./Libraries/STM32H7xx_HAL_Driver/Src/stm32h7xx_hal_tim_ex.c **** 
 242:./Libraries/STM32H7xx_HAL_Driver/Src/stm32h7xx_hal_tim_ex.c ****   htim->State = HAL_TIM_STATE_BUSY;
 294              		.loc 1 242 15
 295 0008 7B68     		ldr	r3, [r7, #4]
 296 000a 0222     		movs	r2, #2
 297 000c 83F83D20 		strb	r2, [r3, #61]
 243:./Libraries/STM32H7xx_HAL_Driver/Src/stm32h7xx_hal_tim_ex.c **** 
 244:./Libraries/STM32H7xx_HAL_Driver/Src/stm32h7xx_hal_tim_ex.c ****   /* Disable the TIM Peripheral Clock */
 245:./Libraries/STM32H7xx_HAL_Driver/Src/stm32h7xx_hal_tim_ex.c ****   __HAL_TIM_DISABLE(htim);
 298              		.loc 1 245 3
 299 0010 7B68     		ldr	r3, [r7, #4]
 300 0012 1B68     		ldr	r3, [r3]
 301 0014 1A6A     		ldr	r2, [r3, #32]
 302 0016 41F21113 		movw	r3, #4369
 303 001a 1340     		ands	r3, r3, r2
 304 001c 002B     		cmp	r3, #0
 305 001e 0FD1     		bne	.L9
 306              		.loc 1 245 3 is_stmt 0 discriminator 1
 307 0020 7B68     		ldr	r3, [r7, #4]
 308 0022 1B68     		ldr	r3, [r3]
 309 0024 1A6A     		ldr	r2, [r3, #32]
 310 0026 40F24443 		movw	r3, #1092
 311 002a 1340     		ands	r3, r3, r2
 312 002c 002B     		cmp	r3, #0
 313 002e 07D1     		bne	.L9
 314              		.loc 1 245 3 discriminator 2
 315 0030 7B68     		ldr	r3, [r7, #4]
 316 0032 1B68     		ldr	r3, [r3]
 317 0034 1A68     		ldr	r2, [r3]
 318 0036 7B68     		ldr	r3, [r7, #4]
 319 0038 1B68     		ldr	r3, [r3]
 320 003a 22F00102 		bic	r2, r2, #1
 321 003e 1A60     		str	r2, [r3]
 322              	.L9:
 246:./Libraries/STM32H7xx_HAL_Driver/Src/stm32h7xx_hal_tim_ex.c **** 
 247:./Libraries/STM32H7xx_HAL_Driver/Src/stm32h7xx_hal_tim_ex.c **** #if (USE_HAL_TIM_REGISTER_CALLBACKS == 1)
 248:./Libraries/STM32H7xx_HAL_Driver/Src/stm32h7xx_hal_tim_ex.c ****   if (htim->HallSensor_MspDeInitCallback == NULL)
 249:./Libraries/STM32H7xx_HAL_Driver/Src/stm32h7xx_hal_tim_ex.c ****   {
 250:./Libraries/STM32H7xx_HAL_Driver/Src/stm32h7xx_hal_tim_ex.c ****     htim->HallSensor_MspDeInitCallback = HAL_TIMEx_HallSensor_MspDeInit;
 251:./Libraries/STM32H7xx_HAL_Driver/Src/stm32h7xx_hal_tim_ex.c ****   }
ARM GAS  /tmp/ccxx2olO.s 			page 11


 252:./Libraries/STM32H7xx_HAL_Driver/Src/stm32h7xx_hal_tim_ex.c ****   /* DeInit the low level hardware */
 253:./Libraries/STM32H7xx_HAL_Driver/Src/stm32h7xx_hal_tim_ex.c ****   htim->HallSensor_MspDeInitCallback(htim);
 254:./Libraries/STM32H7xx_HAL_Driver/Src/stm32h7xx_hal_tim_ex.c **** #else
 255:./Libraries/STM32H7xx_HAL_Driver/Src/stm32h7xx_hal_tim_ex.c ****   /* DeInit the low level hardware: GPIO, CLOCK, NVIC */
 256:./Libraries/STM32H7xx_HAL_Driver/Src/stm32h7xx_hal_tim_ex.c ****   HAL_TIMEx_HallSensor_MspDeInit(htim);
 323              		.loc 1 256 3 is_stmt 1
 324 0040 7868     		ldr	r0, [r7, #4]
 325 0042 FFF7FEFF 		bl	HAL_TIMEx_HallSensor_MspDeInit
 257:./Libraries/STM32H7xx_HAL_Driver/Src/stm32h7xx_hal_tim_ex.c **** #endif /* USE_HAL_TIM_REGISTER_CALLBACKS */
 258:./Libraries/STM32H7xx_HAL_Driver/Src/stm32h7xx_hal_tim_ex.c **** 
 259:./Libraries/STM32H7xx_HAL_Driver/Src/stm32h7xx_hal_tim_ex.c ****   /* Change the DMA burst operation state */
 260:./Libraries/STM32H7xx_HAL_Driver/Src/stm32h7xx_hal_tim_ex.c ****   htim->DMABurstState = HAL_DMA_BURST_STATE_RESET;
 326              		.loc 1 260 23
 327 0046 7B68     		ldr	r3, [r7, #4]
 328 0048 0022     		movs	r2, #0
 329 004a 83F84820 		strb	r2, [r3, #72]
 261:./Libraries/STM32H7xx_HAL_Driver/Src/stm32h7xx_hal_tim_ex.c **** 
 262:./Libraries/STM32H7xx_HAL_Driver/Src/stm32h7xx_hal_tim_ex.c ****   /* Change the TIM channels state */
 263:./Libraries/STM32H7xx_HAL_Driver/Src/stm32h7xx_hal_tim_ex.c ****   TIM_CHANNEL_STATE_SET(htim, TIM_CHANNEL_1, HAL_TIM_CHANNEL_STATE_RESET);
 330              		.loc 1 263 3
 331 004e 7B68     		ldr	r3, [r7, #4]
 332 0050 0022     		movs	r2, #0
 333 0052 83F83E20 		strb	r2, [r3, #62]
 264:./Libraries/STM32H7xx_HAL_Driver/Src/stm32h7xx_hal_tim_ex.c ****   TIM_CHANNEL_STATE_SET(htim, TIM_CHANNEL_2, HAL_TIM_CHANNEL_STATE_RESET);
 334              		.loc 1 264 3
 335 0056 7B68     		ldr	r3, [r7, #4]
 336 0058 0022     		movs	r2, #0
 337 005a 83F83F20 		strb	r2, [r3, #63]
 265:./Libraries/STM32H7xx_HAL_Driver/Src/stm32h7xx_hal_tim_ex.c ****   TIM_CHANNEL_N_STATE_SET(htim, TIM_CHANNEL_1, HAL_TIM_CHANNEL_STATE_RESET);
 338              		.loc 1 265 3
 339 005e 7B68     		ldr	r3, [r7, #4]
 340 0060 0022     		movs	r2, #0
 341 0062 83F84420 		strb	r2, [r3, #68]
 266:./Libraries/STM32H7xx_HAL_Driver/Src/stm32h7xx_hal_tim_ex.c ****   TIM_CHANNEL_N_STATE_SET(htim, TIM_CHANNEL_2, HAL_TIM_CHANNEL_STATE_RESET);
 342              		.loc 1 266 3
 343 0066 7B68     		ldr	r3, [r7, #4]
 344 0068 0022     		movs	r2, #0
 345 006a 83F84520 		strb	r2, [r3, #69]
 267:./Libraries/STM32H7xx_HAL_Driver/Src/stm32h7xx_hal_tim_ex.c **** 
 268:./Libraries/STM32H7xx_HAL_Driver/Src/stm32h7xx_hal_tim_ex.c ****   /* Change TIM state */
 269:./Libraries/STM32H7xx_HAL_Driver/Src/stm32h7xx_hal_tim_ex.c ****   htim->State = HAL_TIM_STATE_RESET;
 346              		.loc 1 269 15
 347 006e 7B68     		ldr	r3, [r7, #4]
 348 0070 0022     		movs	r2, #0
 349 0072 83F83D20 		strb	r2, [r3, #61]
 270:./Libraries/STM32H7xx_HAL_Driver/Src/stm32h7xx_hal_tim_ex.c **** 
 271:./Libraries/STM32H7xx_HAL_Driver/Src/stm32h7xx_hal_tim_ex.c ****   /* Release Lock */
 272:./Libraries/STM32H7xx_HAL_Driver/Src/stm32h7xx_hal_tim_ex.c ****   __HAL_UNLOCK(htim);
 350              		.loc 1 272 3
 351 0076 7B68     		ldr	r3, [r7, #4]
 352 0078 0022     		movs	r2, #0
 353 007a 83F83C20 		strb	r2, [r3, #60]
 273:./Libraries/STM32H7xx_HAL_Driver/Src/stm32h7xx_hal_tim_ex.c **** 
 274:./Libraries/STM32H7xx_HAL_Driver/Src/stm32h7xx_hal_tim_ex.c ****   return HAL_OK;
 354              		.loc 1 274 10
 355 007e 0023     		movs	r3, #0
 275:./Libraries/STM32H7xx_HAL_Driver/Src/stm32h7xx_hal_tim_ex.c **** }
ARM GAS  /tmp/ccxx2olO.s 			page 12


 356              		.loc 1 275 1
 357 0080 1846     		mov	r0, r3
 358 0082 0837     		adds	r7, r7, #8
 359              	.LCFI8:
 360              		.cfi_def_cfa_offset 8
 361 0084 BD46     		mov	sp, r7
 362              	.LCFI9:
 363              		.cfi_def_cfa_register 13
 364              		@ sp needed
 365 0086 80BD     		pop	{r7, pc}
 366              		.cfi_endproc
 367              	.LFE332:
 369              		.section	.text.HAL_TIMEx_HallSensor_MspInit,"ax",%progbits
 370              		.align	1
 371              		.weak	HAL_TIMEx_HallSensor_MspInit
 372              		.syntax unified
 373              		.thumb
 374              		.thumb_func
 375              		.fpu fpv5-d16
 377              	HAL_TIMEx_HallSensor_MspInit:
 378              	.LFB333:
 276:./Libraries/STM32H7xx_HAL_Driver/Src/stm32h7xx_hal_tim_ex.c **** 
 277:./Libraries/STM32H7xx_HAL_Driver/Src/stm32h7xx_hal_tim_ex.c **** /**
 278:./Libraries/STM32H7xx_HAL_Driver/Src/stm32h7xx_hal_tim_ex.c ****   * @brief  Initializes the TIM Hall Sensor MSP.
 279:./Libraries/STM32H7xx_HAL_Driver/Src/stm32h7xx_hal_tim_ex.c ****   * @param  htim TIM Hall Sensor Interface handle
 280:./Libraries/STM32H7xx_HAL_Driver/Src/stm32h7xx_hal_tim_ex.c ****   * @retval None
 281:./Libraries/STM32H7xx_HAL_Driver/Src/stm32h7xx_hal_tim_ex.c ****   */
 282:./Libraries/STM32H7xx_HAL_Driver/Src/stm32h7xx_hal_tim_ex.c **** __weak void HAL_TIMEx_HallSensor_MspInit(TIM_HandleTypeDef *htim)
 283:./Libraries/STM32H7xx_HAL_Driver/Src/stm32h7xx_hal_tim_ex.c **** {
 379              		.loc 1 283 1
 380              		.cfi_startproc
 381              		@ args = 0, pretend = 0, frame = 8
 382              		@ frame_needed = 1, uses_anonymous_args = 0
 383              		@ link register save eliminated.
 384 0000 80B4     		push	{r7}
 385              	.LCFI10:
 386              		.cfi_def_cfa_offset 4
 387              		.cfi_offset 7, -4
 388 0002 83B0     		sub	sp, sp, #12
 389              	.LCFI11:
 390              		.cfi_def_cfa_offset 16
 391 0004 00AF     		add	r7, sp, #0
 392              	.LCFI12:
 393              		.cfi_def_cfa_register 7
 394 0006 7860     		str	r0, [r7, #4]
 284:./Libraries/STM32H7xx_HAL_Driver/Src/stm32h7xx_hal_tim_ex.c ****   /* Prevent unused argument(s) compilation warning */
 285:./Libraries/STM32H7xx_HAL_Driver/Src/stm32h7xx_hal_tim_ex.c ****   UNUSED(htim);
 286:./Libraries/STM32H7xx_HAL_Driver/Src/stm32h7xx_hal_tim_ex.c **** 
 287:./Libraries/STM32H7xx_HAL_Driver/Src/stm32h7xx_hal_tim_ex.c ****   /* NOTE : This function should not be modified, when the callback is needed,
 288:./Libraries/STM32H7xx_HAL_Driver/Src/stm32h7xx_hal_tim_ex.c ****             the HAL_TIMEx_HallSensor_MspInit could be implemented in the user file
 289:./Libraries/STM32H7xx_HAL_Driver/Src/stm32h7xx_hal_tim_ex.c ****    */
 290:./Libraries/STM32H7xx_HAL_Driver/Src/stm32h7xx_hal_tim_ex.c **** }
 395              		.loc 1 290 1
 396 0008 00BF     		nop
 397 000a 0C37     		adds	r7, r7, #12
 398              	.LCFI13:
 399              		.cfi_def_cfa_offset 4
ARM GAS  /tmp/ccxx2olO.s 			page 13


 400 000c BD46     		mov	sp, r7
 401              	.LCFI14:
 402              		.cfi_def_cfa_register 13
 403              		@ sp needed
 404 000e 5DF8047B 		ldr	r7, [sp], #4
 405              	.LCFI15:
 406              		.cfi_restore 7
 407              		.cfi_def_cfa_offset 0
 408 0012 7047     		bx	lr
 409              		.cfi_endproc
 410              	.LFE333:
 412              		.section	.text.HAL_TIMEx_HallSensor_MspDeInit,"ax",%progbits
 413              		.align	1
 414              		.weak	HAL_TIMEx_HallSensor_MspDeInit
 415              		.syntax unified
 416              		.thumb
 417              		.thumb_func
 418              		.fpu fpv5-d16
 420              	HAL_TIMEx_HallSensor_MspDeInit:
 421              	.LFB334:
 291:./Libraries/STM32H7xx_HAL_Driver/Src/stm32h7xx_hal_tim_ex.c **** 
 292:./Libraries/STM32H7xx_HAL_Driver/Src/stm32h7xx_hal_tim_ex.c **** /**
 293:./Libraries/STM32H7xx_HAL_Driver/Src/stm32h7xx_hal_tim_ex.c ****   * @brief  DeInitializes TIM Hall Sensor MSP.
 294:./Libraries/STM32H7xx_HAL_Driver/Src/stm32h7xx_hal_tim_ex.c ****   * @param  htim TIM Hall Sensor Interface handle
 295:./Libraries/STM32H7xx_HAL_Driver/Src/stm32h7xx_hal_tim_ex.c ****   * @retval None
 296:./Libraries/STM32H7xx_HAL_Driver/Src/stm32h7xx_hal_tim_ex.c ****   */
 297:./Libraries/STM32H7xx_HAL_Driver/Src/stm32h7xx_hal_tim_ex.c **** __weak void HAL_TIMEx_HallSensor_MspDeInit(TIM_HandleTypeDef *htim)
 298:./Libraries/STM32H7xx_HAL_Driver/Src/stm32h7xx_hal_tim_ex.c **** {
 422              		.loc 1 298 1
 423              		.cfi_startproc
 424              		@ args = 0, pretend = 0, frame = 8
 425              		@ frame_needed = 1, uses_anonymous_args = 0
 426              		@ link register save eliminated.
 427 0000 80B4     		push	{r7}
 428              	.LCFI16:
 429              		.cfi_def_cfa_offset 4
 430              		.cfi_offset 7, -4
 431 0002 83B0     		sub	sp, sp, #12
 432              	.LCFI17:
 433              		.cfi_def_cfa_offset 16
 434 0004 00AF     		add	r7, sp, #0
 435              	.LCFI18:
 436              		.cfi_def_cfa_register 7
 437 0006 7860     		str	r0, [r7, #4]
 299:./Libraries/STM32H7xx_HAL_Driver/Src/stm32h7xx_hal_tim_ex.c ****   /* Prevent unused argument(s) compilation warning */
 300:./Libraries/STM32H7xx_HAL_Driver/Src/stm32h7xx_hal_tim_ex.c ****   UNUSED(htim);
 301:./Libraries/STM32H7xx_HAL_Driver/Src/stm32h7xx_hal_tim_ex.c **** 
 302:./Libraries/STM32H7xx_HAL_Driver/Src/stm32h7xx_hal_tim_ex.c ****   /* NOTE : This function should not be modified, when the callback is needed,
 303:./Libraries/STM32H7xx_HAL_Driver/Src/stm32h7xx_hal_tim_ex.c ****             the HAL_TIMEx_HallSensor_MspDeInit could be implemented in the user file
 304:./Libraries/STM32H7xx_HAL_Driver/Src/stm32h7xx_hal_tim_ex.c ****    */
 305:./Libraries/STM32H7xx_HAL_Driver/Src/stm32h7xx_hal_tim_ex.c **** }
 438              		.loc 1 305 1
 439 0008 00BF     		nop
 440 000a 0C37     		adds	r7, r7, #12
 441              	.LCFI19:
 442              		.cfi_def_cfa_offset 4
 443 000c BD46     		mov	sp, r7
ARM GAS  /tmp/ccxx2olO.s 			page 14


 444              	.LCFI20:
 445              		.cfi_def_cfa_register 13
 446              		@ sp needed
 447 000e 5DF8047B 		ldr	r7, [sp], #4
 448              	.LCFI21:
 449              		.cfi_restore 7
 450              		.cfi_def_cfa_offset 0
 451 0012 7047     		bx	lr
 452              		.cfi_endproc
 453              	.LFE334:
 455              		.section	.text.HAL_TIMEx_HallSensor_Start,"ax",%progbits
 456              		.align	1
 457              		.global	HAL_TIMEx_HallSensor_Start
 458              		.syntax unified
 459              		.thumb
 460              		.thumb_func
 461              		.fpu fpv5-d16
 463              	HAL_TIMEx_HallSensor_Start:
 464              	.LFB335:
 306:./Libraries/STM32H7xx_HAL_Driver/Src/stm32h7xx_hal_tim_ex.c **** 
 307:./Libraries/STM32H7xx_HAL_Driver/Src/stm32h7xx_hal_tim_ex.c **** /**
 308:./Libraries/STM32H7xx_HAL_Driver/Src/stm32h7xx_hal_tim_ex.c ****   * @brief  Starts the TIM Hall Sensor Interface.
 309:./Libraries/STM32H7xx_HAL_Driver/Src/stm32h7xx_hal_tim_ex.c ****   * @param  htim TIM Hall Sensor Interface handle
 310:./Libraries/STM32H7xx_HAL_Driver/Src/stm32h7xx_hal_tim_ex.c ****   * @retval HAL status
 311:./Libraries/STM32H7xx_HAL_Driver/Src/stm32h7xx_hal_tim_ex.c ****   */
 312:./Libraries/STM32H7xx_HAL_Driver/Src/stm32h7xx_hal_tim_ex.c **** HAL_StatusTypeDef HAL_TIMEx_HallSensor_Start(TIM_HandleTypeDef *htim)
 313:./Libraries/STM32H7xx_HAL_Driver/Src/stm32h7xx_hal_tim_ex.c **** {
 465              		.loc 1 313 1
 466              		.cfi_startproc
 467              		@ args = 0, pretend = 0, frame = 16
 468              		@ frame_needed = 1, uses_anonymous_args = 0
 469 0000 80B5     		push	{r7, lr}
 470              	.LCFI22:
 471              		.cfi_def_cfa_offset 8
 472              		.cfi_offset 7, -8
 473              		.cfi_offset 14, -4
 474 0002 84B0     		sub	sp, sp, #16
 475              	.LCFI23:
 476              		.cfi_def_cfa_offset 24
 477 0004 00AF     		add	r7, sp, #0
 478              	.LCFI24:
 479              		.cfi_def_cfa_register 7
 480 0006 7860     		str	r0, [r7, #4]
 314:./Libraries/STM32H7xx_HAL_Driver/Src/stm32h7xx_hal_tim_ex.c ****   uint32_t tmpsmcr;
 315:./Libraries/STM32H7xx_HAL_Driver/Src/stm32h7xx_hal_tim_ex.c ****   HAL_TIM_ChannelStateTypeDef channel_1_state = TIM_CHANNEL_STATE_GET(htim, TIM_CHANNEL_1);
 481              		.loc 1 315 31
 482 0008 7B68     		ldr	r3, [r7, #4]
 483 000a 93F83E30 		ldrb	r3, [r3, #62]
 484 000e FB73     		strb	r3, [r7, #15]
 316:./Libraries/STM32H7xx_HAL_Driver/Src/stm32h7xx_hal_tim_ex.c ****   HAL_TIM_ChannelStateTypeDef channel_2_state = TIM_CHANNEL_STATE_GET(htim, TIM_CHANNEL_2);
 485              		.loc 1 316 31
 486 0010 7B68     		ldr	r3, [r7, #4]
 487 0012 93F83F30 		ldrb	r3, [r3, #63]
 488 0016 BB73     		strb	r3, [r7, #14]
 317:./Libraries/STM32H7xx_HAL_Driver/Src/stm32h7xx_hal_tim_ex.c ****   HAL_TIM_ChannelStateTypeDef complementary_channel_1_state = TIM_CHANNEL_N_STATE_GET(htim, TIM_CHA
 489              		.loc 1 317 31
 490 0018 7B68     		ldr	r3, [r7, #4]
ARM GAS  /tmp/ccxx2olO.s 			page 15


 491 001a 93F84430 		ldrb	r3, [r3, #68]
 492 001e 7B73     		strb	r3, [r7, #13]
 318:./Libraries/STM32H7xx_HAL_Driver/Src/stm32h7xx_hal_tim_ex.c ****   HAL_TIM_ChannelStateTypeDef complementary_channel_2_state = TIM_CHANNEL_N_STATE_GET(htim, TIM_CHA
 493              		.loc 1 318 31
 494 0020 7B68     		ldr	r3, [r7, #4]
 495 0022 93F84530 		ldrb	r3, [r3, #69]
 496 0026 3B73     		strb	r3, [r7, #12]
 319:./Libraries/STM32H7xx_HAL_Driver/Src/stm32h7xx_hal_tim_ex.c **** 
 320:./Libraries/STM32H7xx_HAL_Driver/Src/stm32h7xx_hal_tim_ex.c ****   /* Check the parameters */
 321:./Libraries/STM32H7xx_HAL_Driver/Src/stm32h7xx_hal_tim_ex.c ****   assert_param(IS_TIM_HALL_SENSOR_INTERFACE_INSTANCE(htim->Instance));
 322:./Libraries/STM32H7xx_HAL_Driver/Src/stm32h7xx_hal_tim_ex.c **** 
 323:./Libraries/STM32H7xx_HAL_Driver/Src/stm32h7xx_hal_tim_ex.c ****   /* Check the TIM channels state */
 324:./Libraries/STM32H7xx_HAL_Driver/Src/stm32h7xx_hal_tim_ex.c ****   if ((channel_1_state != HAL_TIM_CHANNEL_STATE_READY)
 497              		.loc 1 324 6
 498 0028 FB7B     		ldrb	r3, [r7, #15]	@ zero_extendqisi2
 499 002a 012B     		cmp	r3, #1
 500 002c 08D1     		bne	.L14
 325:./Libraries/STM32H7xx_HAL_Driver/Src/stm32h7xx_hal_tim_ex.c ****       || (channel_2_state != HAL_TIM_CHANNEL_STATE_READY)
 501              		.loc 1 325 7
 502 002e BB7B     		ldrb	r3, [r7, #14]	@ zero_extendqisi2
 503 0030 012B     		cmp	r3, #1
 504 0032 05D1     		bne	.L14
 326:./Libraries/STM32H7xx_HAL_Driver/Src/stm32h7xx_hal_tim_ex.c ****       || (complementary_channel_1_state != HAL_TIM_CHANNEL_STATE_READY)
 505              		.loc 1 326 7
 506 0034 7B7B     		ldrb	r3, [r7, #13]	@ zero_extendqisi2
 507 0036 012B     		cmp	r3, #1
 508 0038 02D1     		bne	.L14
 327:./Libraries/STM32H7xx_HAL_Driver/Src/stm32h7xx_hal_tim_ex.c ****       || (complementary_channel_2_state != HAL_TIM_CHANNEL_STATE_READY))
 509              		.loc 1 327 7
 510 003a 3B7B     		ldrb	r3, [r7, #12]	@ zero_extendqisi2
 511 003c 012B     		cmp	r3, #1
 512 003e 01D0     		beq	.L15
 513              	.L14:
 328:./Libraries/STM32H7xx_HAL_Driver/Src/stm32h7xx_hal_tim_ex.c ****   {
 329:./Libraries/STM32H7xx_HAL_Driver/Src/stm32h7xx_hal_tim_ex.c ****     return HAL_ERROR;
 514              		.loc 1 329 12
 515 0040 0123     		movs	r3, #1
 516 0042 5AE0     		b	.L16
 517              	.L15:
 330:./Libraries/STM32H7xx_HAL_Driver/Src/stm32h7xx_hal_tim_ex.c ****   }
 331:./Libraries/STM32H7xx_HAL_Driver/Src/stm32h7xx_hal_tim_ex.c **** 
 332:./Libraries/STM32H7xx_HAL_Driver/Src/stm32h7xx_hal_tim_ex.c ****   /* Set the TIM channels state */
 333:./Libraries/STM32H7xx_HAL_Driver/Src/stm32h7xx_hal_tim_ex.c ****   TIM_CHANNEL_STATE_SET(htim, TIM_CHANNEL_1, HAL_TIM_CHANNEL_STATE_BUSY);
 518              		.loc 1 333 3
 519 0044 7B68     		ldr	r3, [r7, #4]
 520 0046 0222     		movs	r2, #2
 521 0048 83F83E20 		strb	r2, [r3, #62]
 334:./Libraries/STM32H7xx_HAL_Driver/Src/stm32h7xx_hal_tim_ex.c ****   TIM_CHANNEL_STATE_SET(htim, TIM_CHANNEL_2, HAL_TIM_CHANNEL_STATE_BUSY);
 522              		.loc 1 334 3
 523 004c 7B68     		ldr	r3, [r7, #4]
 524 004e 0222     		movs	r2, #2
 525 0050 83F83F20 		strb	r2, [r3, #63]
 335:./Libraries/STM32H7xx_HAL_Driver/Src/stm32h7xx_hal_tim_ex.c ****   TIM_CHANNEL_N_STATE_SET(htim, TIM_CHANNEL_1, HAL_TIM_CHANNEL_STATE_BUSY);
 526              		.loc 1 335 3
 527 0054 7B68     		ldr	r3, [r7, #4]
 528 0056 0222     		movs	r2, #2
 529 0058 83F84420 		strb	r2, [r3, #68]
ARM GAS  /tmp/ccxx2olO.s 			page 16


 336:./Libraries/STM32H7xx_HAL_Driver/Src/stm32h7xx_hal_tim_ex.c ****   TIM_CHANNEL_N_STATE_SET(htim, TIM_CHANNEL_2, HAL_TIM_CHANNEL_STATE_BUSY);
 530              		.loc 1 336 3
 531 005c 7B68     		ldr	r3, [r7, #4]
 532 005e 0222     		movs	r2, #2
 533 0060 83F84520 		strb	r2, [r3, #69]
 337:./Libraries/STM32H7xx_HAL_Driver/Src/stm32h7xx_hal_tim_ex.c **** 
 338:./Libraries/STM32H7xx_HAL_Driver/Src/stm32h7xx_hal_tim_ex.c ****   /* Enable the Input Capture channel 1
 339:./Libraries/STM32H7xx_HAL_Driver/Src/stm32h7xx_hal_tim_ex.c ****   (in the Hall Sensor Interface the three possible channels that can be used are TIM_CHANNEL_1, TIM
 340:./Libraries/STM32H7xx_HAL_Driver/Src/stm32h7xx_hal_tim_ex.c ****   TIM_CCxChannelCmd(htim->Instance, TIM_CHANNEL_1, TIM_CCx_ENABLE);
 534              		.loc 1 340 3
 535 0064 7B68     		ldr	r3, [r7, #4]
 536 0066 1B68     		ldr	r3, [r3]
 537 0068 0122     		movs	r2, #1
 538 006a 0021     		movs	r1, #0
 539 006c 1846     		mov	r0, r3
 540 006e FFF7FEFF 		bl	TIM_CCxChannelCmd
 341:./Libraries/STM32H7xx_HAL_Driver/Src/stm32h7xx_hal_tim_ex.c **** 
 342:./Libraries/STM32H7xx_HAL_Driver/Src/stm32h7xx_hal_tim_ex.c ****   /* Enable the Peripheral, except in trigger mode where enable is automatically done with trigger 
 343:./Libraries/STM32H7xx_HAL_Driver/Src/stm32h7xx_hal_tim_ex.c ****   if (IS_TIM_SLAVE_INSTANCE(htim->Instance))
 541              		.loc 1 343 7
 542 0072 7B68     		ldr	r3, [r7, #4]
 543 0074 1B68     		ldr	r3, [r3]
 544              		.loc 1 343 6
 545 0076 234A     		ldr	r2, .L22
 546 0078 9342     		cmp	r3, r2
 547 007a 1DD0     		beq	.L17
 548              		.loc 1 343 7 discriminator 1
 549 007c 7B68     		ldr	r3, [r7, #4]
 550 007e 1B68     		ldr	r3, [r3]
 551 0080 B3F1804F 		cmp	r3, #1073741824
 552 0084 18D0     		beq	.L17
 553              		.loc 1 343 7 is_stmt 0 discriminator 2
 554 0086 7B68     		ldr	r3, [r7, #4]
 555 0088 1B68     		ldr	r3, [r3]
 556 008a 1F4A     		ldr	r2, .L22+4
 557 008c 9342     		cmp	r3, r2
 558 008e 13D0     		beq	.L17
 559              		.loc 1 343 7 discriminator 3
 560 0090 7B68     		ldr	r3, [r7, #4]
 561 0092 1B68     		ldr	r3, [r3]
 562 0094 1D4A     		ldr	r2, .L22+8
 563 0096 9342     		cmp	r3, r2
 564 0098 0ED0     		beq	.L17
 565              		.loc 1 343 7 discriminator 4
 566 009a 7B68     		ldr	r3, [r7, #4]
 567 009c 1B68     		ldr	r3, [r3]
 568 009e 1C4A     		ldr	r2, .L22+12
 569 00a0 9342     		cmp	r3, r2
 570 00a2 09D0     		beq	.L17
 571              		.loc 1 343 7 discriminator 5
 572 00a4 7B68     		ldr	r3, [r7, #4]
 573 00a6 1B68     		ldr	r3, [r3]
 574 00a8 1A4A     		ldr	r2, .L22+16
 575 00aa 9342     		cmp	r3, r2
 576 00ac 04D0     		beq	.L17
 577              		.loc 1 343 7 discriminator 6
 578 00ae 7B68     		ldr	r3, [r7, #4]
ARM GAS  /tmp/ccxx2olO.s 			page 17


 579 00b0 1B68     		ldr	r3, [r3]
 580 00b2 194A     		ldr	r2, .L22+20
 581 00b4 9342     		cmp	r3, r2
 582 00b6 15D1     		bne	.L18
 583              	.L17:
 344:./Libraries/STM32H7xx_HAL_Driver/Src/stm32h7xx_hal_tim_ex.c ****   {
 345:./Libraries/STM32H7xx_HAL_Driver/Src/stm32h7xx_hal_tim_ex.c ****     tmpsmcr = htim->Instance->SMCR & TIM_SMCR_SMS;
 584              		.loc 1 345 19 is_stmt 1
 585 00b8 7B68     		ldr	r3, [r7, #4]
 586 00ba 1B68     		ldr	r3, [r3]
 587              		.loc 1 345 29
 588 00bc 9A68     		ldr	r2, [r3, #8]
 589              		.loc 1 345 13
 590 00be 174B     		ldr	r3, .L22+24
 591 00c0 1340     		ands	r3, r3, r2
 592 00c2 BB60     		str	r3, [r7, #8]
 346:./Libraries/STM32H7xx_HAL_Driver/Src/stm32h7xx_hal_tim_ex.c ****     if (!IS_TIM_SLAVEMODE_TRIGGER_ENABLED(tmpsmcr))
 593              		.loc 1 346 8
 594 00c4 BB68     		ldr	r3, [r7, #8]
 595 00c6 062B     		cmp	r3, #6
 596 00c8 15D0     		beq	.L21
 597              		.loc 1 346 9 discriminator 1
 598 00ca BB68     		ldr	r3, [r7, #8]
 599 00cc B3F5803F 		cmp	r3, #65536
 600 00d0 11D0     		beq	.L21
 347:./Libraries/STM32H7xx_HAL_Driver/Src/stm32h7xx_hal_tim_ex.c ****     {
 348:./Libraries/STM32H7xx_HAL_Driver/Src/stm32h7xx_hal_tim_ex.c ****       __HAL_TIM_ENABLE(htim);
 601              		.loc 1 348 7
 602 00d2 7B68     		ldr	r3, [r7, #4]
 603 00d4 1B68     		ldr	r3, [r3]
 604 00d6 1A68     		ldr	r2, [r3]
 605 00d8 7B68     		ldr	r3, [r7, #4]
 606 00da 1B68     		ldr	r3, [r3]
 607 00dc 42F00102 		orr	r2, r2, #1
 608 00e0 1A60     		str	r2, [r3]
 346:./Libraries/STM32H7xx_HAL_Driver/Src/stm32h7xx_hal_tim_ex.c ****     if (!IS_TIM_SLAVEMODE_TRIGGER_ENABLED(tmpsmcr))
 609              		.loc 1 346 8
 610 00e2 08E0     		b	.L21
 611              	.L18:
 349:./Libraries/STM32H7xx_HAL_Driver/Src/stm32h7xx_hal_tim_ex.c ****     }
 350:./Libraries/STM32H7xx_HAL_Driver/Src/stm32h7xx_hal_tim_ex.c ****   }
 351:./Libraries/STM32H7xx_HAL_Driver/Src/stm32h7xx_hal_tim_ex.c ****   else
 352:./Libraries/STM32H7xx_HAL_Driver/Src/stm32h7xx_hal_tim_ex.c ****   {
 353:./Libraries/STM32H7xx_HAL_Driver/Src/stm32h7xx_hal_tim_ex.c ****     __HAL_TIM_ENABLE(htim);
 612              		.loc 1 353 5
 613 00e4 7B68     		ldr	r3, [r7, #4]
 614 00e6 1B68     		ldr	r3, [r3]
 615 00e8 1A68     		ldr	r2, [r3]
 616 00ea 7B68     		ldr	r3, [r7, #4]
 617 00ec 1B68     		ldr	r3, [r3]
 618 00ee 42F00102 		orr	r2, r2, #1
 619 00f2 1A60     		str	r2, [r3]
 620 00f4 00E0     		b	.L20
 621              	.L21:
 346:./Libraries/STM32H7xx_HAL_Driver/Src/stm32h7xx_hal_tim_ex.c ****     {
 622              		.loc 1 346 8
 623 00f6 00BF     		nop
ARM GAS  /tmp/ccxx2olO.s 			page 18


 624              	.L20:
 354:./Libraries/STM32H7xx_HAL_Driver/Src/stm32h7xx_hal_tim_ex.c ****   }
 355:./Libraries/STM32H7xx_HAL_Driver/Src/stm32h7xx_hal_tim_ex.c **** 
 356:./Libraries/STM32H7xx_HAL_Driver/Src/stm32h7xx_hal_tim_ex.c ****   /* Return function status */
 357:./Libraries/STM32H7xx_HAL_Driver/Src/stm32h7xx_hal_tim_ex.c ****   return HAL_OK;
 625              		.loc 1 357 10
 626 00f8 0023     		movs	r3, #0
 627              	.L16:
 358:./Libraries/STM32H7xx_HAL_Driver/Src/stm32h7xx_hal_tim_ex.c **** }
 628              		.loc 1 358 1
 629 00fa 1846     		mov	r0, r3
 630 00fc 1037     		adds	r7, r7, #16
 631              	.LCFI25:
 632              		.cfi_def_cfa_offset 8
 633 00fe BD46     		mov	sp, r7
 634              	.LCFI26:
 635              		.cfi_def_cfa_register 13
 636              		@ sp needed
 637 0100 80BD     		pop	{r7, pc}
 638              	.L23:
 639 0102 00BF     		.align	2
 640              	.L22:
 641 0104 00000140 		.word	1073807360
 642 0108 00040040 		.word	1073742848
 643 010c 00080040 		.word	1073743872
 644 0110 000C0040 		.word	1073744896
 645 0114 00040140 		.word	1073808384
 646 0118 00180040 		.word	1073747968
 647 011c 07000100 		.word	65543
 648              		.cfi_endproc
 649              	.LFE335:
 651              		.section	.text.HAL_TIMEx_HallSensor_Stop,"ax",%progbits
 652              		.align	1
 653              		.global	HAL_TIMEx_HallSensor_Stop
 654              		.syntax unified
 655              		.thumb
 656              		.thumb_func
 657              		.fpu fpv5-d16
 659              	HAL_TIMEx_HallSensor_Stop:
 660              	.LFB336:
 359:./Libraries/STM32H7xx_HAL_Driver/Src/stm32h7xx_hal_tim_ex.c **** 
 360:./Libraries/STM32H7xx_HAL_Driver/Src/stm32h7xx_hal_tim_ex.c **** /**
 361:./Libraries/STM32H7xx_HAL_Driver/Src/stm32h7xx_hal_tim_ex.c ****   * @brief  Stops the TIM Hall sensor Interface.
 362:./Libraries/STM32H7xx_HAL_Driver/Src/stm32h7xx_hal_tim_ex.c ****   * @param  htim TIM Hall Sensor Interface handle
 363:./Libraries/STM32H7xx_HAL_Driver/Src/stm32h7xx_hal_tim_ex.c ****   * @retval HAL status
 364:./Libraries/STM32H7xx_HAL_Driver/Src/stm32h7xx_hal_tim_ex.c ****   */
 365:./Libraries/STM32H7xx_HAL_Driver/Src/stm32h7xx_hal_tim_ex.c **** HAL_StatusTypeDef HAL_TIMEx_HallSensor_Stop(TIM_HandleTypeDef *htim)
 366:./Libraries/STM32H7xx_HAL_Driver/Src/stm32h7xx_hal_tim_ex.c **** {
 661              		.loc 1 366 1
 662              		.cfi_startproc
 663              		@ args = 0, pretend = 0, frame = 8
 664              		@ frame_needed = 1, uses_anonymous_args = 0
 665 0000 80B5     		push	{r7, lr}
 666              	.LCFI27:
 667              		.cfi_def_cfa_offset 8
 668              		.cfi_offset 7, -8
 669              		.cfi_offset 14, -4
ARM GAS  /tmp/ccxx2olO.s 			page 19


 670 0002 82B0     		sub	sp, sp, #8
 671              	.LCFI28:
 672              		.cfi_def_cfa_offset 16
 673 0004 00AF     		add	r7, sp, #0
 674              	.LCFI29:
 675              		.cfi_def_cfa_register 7
 676 0006 7860     		str	r0, [r7, #4]
 367:./Libraries/STM32H7xx_HAL_Driver/Src/stm32h7xx_hal_tim_ex.c ****   /* Check the parameters */
 368:./Libraries/STM32H7xx_HAL_Driver/Src/stm32h7xx_hal_tim_ex.c ****   assert_param(IS_TIM_HALL_SENSOR_INTERFACE_INSTANCE(htim->Instance));
 369:./Libraries/STM32H7xx_HAL_Driver/Src/stm32h7xx_hal_tim_ex.c **** 
 370:./Libraries/STM32H7xx_HAL_Driver/Src/stm32h7xx_hal_tim_ex.c ****   /* Disable the Input Capture channels 1, 2 and 3
 371:./Libraries/STM32H7xx_HAL_Driver/Src/stm32h7xx_hal_tim_ex.c ****     (in the Hall Sensor Interface the three possible channels that can be used are TIM_CHANNEL_1, T
 372:./Libraries/STM32H7xx_HAL_Driver/Src/stm32h7xx_hal_tim_ex.c ****   TIM_CCxChannelCmd(htim->Instance, TIM_CHANNEL_1, TIM_CCx_DISABLE);
 677              		.loc 1 372 3
 678 0008 7B68     		ldr	r3, [r7, #4]
 679 000a 1B68     		ldr	r3, [r3]
 680 000c 0022     		movs	r2, #0
 681 000e 0021     		movs	r1, #0
 682 0010 1846     		mov	r0, r3
 683 0012 FFF7FEFF 		bl	TIM_CCxChannelCmd
 373:./Libraries/STM32H7xx_HAL_Driver/Src/stm32h7xx_hal_tim_ex.c **** 
 374:./Libraries/STM32H7xx_HAL_Driver/Src/stm32h7xx_hal_tim_ex.c ****   /* Disable the Peripheral */
 375:./Libraries/STM32H7xx_HAL_Driver/Src/stm32h7xx_hal_tim_ex.c ****   __HAL_TIM_DISABLE(htim);
 684              		.loc 1 375 3
 685 0016 7B68     		ldr	r3, [r7, #4]
 686 0018 1B68     		ldr	r3, [r3]
 687 001a 1A6A     		ldr	r2, [r3, #32]
 688 001c 41F21113 		movw	r3, #4369
 689 0020 1340     		ands	r3, r3, r2
 690 0022 002B     		cmp	r3, #0
 691 0024 0FD1     		bne	.L25
 692              		.loc 1 375 3 is_stmt 0 discriminator 1
 693 0026 7B68     		ldr	r3, [r7, #4]
 694 0028 1B68     		ldr	r3, [r3]
 695 002a 1A6A     		ldr	r2, [r3, #32]
 696 002c 40F24443 		movw	r3, #1092
 697 0030 1340     		ands	r3, r3, r2
 698 0032 002B     		cmp	r3, #0
 699 0034 07D1     		bne	.L25
 700              		.loc 1 375 3 discriminator 2
 701 0036 7B68     		ldr	r3, [r7, #4]
 702 0038 1B68     		ldr	r3, [r3]
 703 003a 1A68     		ldr	r2, [r3]
 704 003c 7B68     		ldr	r3, [r7, #4]
 705 003e 1B68     		ldr	r3, [r3]
 706 0040 22F00102 		bic	r2, r2, #1
 707 0044 1A60     		str	r2, [r3]
 708              	.L25:
 376:./Libraries/STM32H7xx_HAL_Driver/Src/stm32h7xx_hal_tim_ex.c **** 
 377:./Libraries/STM32H7xx_HAL_Driver/Src/stm32h7xx_hal_tim_ex.c ****   /* Set the TIM channels state */
 378:./Libraries/STM32H7xx_HAL_Driver/Src/stm32h7xx_hal_tim_ex.c ****   TIM_CHANNEL_STATE_SET(htim, TIM_CHANNEL_1, HAL_TIM_CHANNEL_STATE_READY);
 709              		.loc 1 378 3 is_stmt 1
 710 0046 7B68     		ldr	r3, [r7, #4]
 711 0048 0122     		movs	r2, #1
 712 004a 83F83E20 		strb	r2, [r3, #62]
 379:./Libraries/STM32H7xx_HAL_Driver/Src/stm32h7xx_hal_tim_ex.c ****   TIM_CHANNEL_STATE_SET(htim, TIM_CHANNEL_2, HAL_TIM_CHANNEL_STATE_READY);
 713              		.loc 1 379 3
ARM GAS  /tmp/ccxx2olO.s 			page 20


 714 004e 7B68     		ldr	r3, [r7, #4]
 715 0050 0122     		movs	r2, #1
 716 0052 83F83F20 		strb	r2, [r3, #63]
 380:./Libraries/STM32H7xx_HAL_Driver/Src/stm32h7xx_hal_tim_ex.c ****   TIM_CHANNEL_N_STATE_SET(htim, TIM_CHANNEL_1, HAL_TIM_CHANNEL_STATE_READY);
 717              		.loc 1 380 3
 718 0056 7B68     		ldr	r3, [r7, #4]
 719 0058 0122     		movs	r2, #1
 720 005a 83F84420 		strb	r2, [r3, #68]
 381:./Libraries/STM32H7xx_HAL_Driver/Src/stm32h7xx_hal_tim_ex.c ****   TIM_CHANNEL_N_STATE_SET(htim, TIM_CHANNEL_2, HAL_TIM_CHANNEL_STATE_READY);
 721              		.loc 1 381 3
 722 005e 7B68     		ldr	r3, [r7, #4]
 723 0060 0122     		movs	r2, #1
 724 0062 83F84520 		strb	r2, [r3, #69]
 382:./Libraries/STM32H7xx_HAL_Driver/Src/stm32h7xx_hal_tim_ex.c **** 
 383:./Libraries/STM32H7xx_HAL_Driver/Src/stm32h7xx_hal_tim_ex.c ****   /* Return function status */
 384:./Libraries/STM32H7xx_HAL_Driver/Src/stm32h7xx_hal_tim_ex.c ****   return HAL_OK;
 725              		.loc 1 384 10
 726 0066 0023     		movs	r3, #0
 385:./Libraries/STM32H7xx_HAL_Driver/Src/stm32h7xx_hal_tim_ex.c **** }
 727              		.loc 1 385 1
 728 0068 1846     		mov	r0, r3
 729 006a 0837     		adds	r7, r7, #8
 730              	.LCFI30:
 731              		.cfi_def_cfa_offset 8
 732 006c BD46     		mov	sp, r7
 733              	.LCFI31:
 734              		.cfi_def_cfa_register 13
 735              		@ sp needed
 736 006e 80BD     		pop	{r7, pc}
 737              		.cfi_endproc
 738              	.LFE336:
 740              		.section	.text.HAL_TIMEx_HallSensor_Start_IT,"ax",%progbits
 741              		.align	1
 742              		.global	HAL_TIMEx_HallSensor_Start_IT
 743              		.syntax unified
 744              		.thumb
 745              		.thumb_func
 746              		.fpu fpv5-d16
 748              	HAL_TIMEx_HallSensor_Start_IT:
 749              	.LFB337:
 386:./Libraries/STM32H7xx_HAL_Driver/Src/stm32h7xx_hal_tim_ex.c **** 
 387:./Libraries/STM32H7xx_HAL_Driver/Src/stm32h7xx_hal_tim_ex.c **** /**
 388:./Libraries/STM32H7xx_HAL_Driver/Src/stm32h7xx_hal_tim_ex.c ****   * @brief  Starts the TIM Hall Sensor Interface in interrupt mode.
 389:./Libraries/STM32H7xx_HAL_Driver/Src/stm32h7xx_hal_tim_ex.c ****   * @param  htim TIM Hall Sensor Interface handle
 390:./Libraries/STM32H7xx_HAL_Driver/Src/stm32h7xx_hal_tim_ex.c ****   * @retval HAL status
 391:./Libraries/STM32H7xx_HAL_Driver/Src/stm32h7xx_hal_tim_ex.c ****   */
 392:./Libraries/STM32H7xx_HAL_Driver/Src/stm32h7xx_hal_tim_ex.c **** HAL_StatusTypeDef HAL_TIMEx_HallSensor_Start_IT(TIM_HandleTypeDef *htim)
 393:./Libraries/STM32H7xx_HAL_Driver/Src/stm32h7xx_hal_tim_ex.c **** {
 750              		.loc 1 393 1
 751              		.cfi_startproc
 752              		@ args = 0, pretend = 0, frame = 16
 753              		@ frame_needed = 1, uses_anonymous_args = 0
 754 0000 80B5     		push	{r7, lr}
 755              	.LCFI32:
 756              		.cfi_def_cfa_offset 8
 757              		.cfi_offset 7, -8
 758              		.cfi_offset 14, -4
ARM GAS  /tmp/ccxx2olO.s 			page 21


 759 0002 84B0     		sub	sp, sp, #16
 760              	.LCFI33:
 761              		.cfi_def_cfa_offset 24
 762 0004 00AF     		add	r7, sp, #0
 763              	.LCFI34:
 764              		.cfi_def_cfa_register 7
 765 0006 7860     		str	r0, [r7, #4]
 394:./Libraries/STM32H7xx_HAL_Driver/Src/stm32h7xx_hal_tim_ex.c ****   uint32_t tmpsmcr;
 395:./Libraries/STM32H7xx_HAL_Driver/Src/stm32h7xx_hal_tim_ex.c ****   HAL_TIM_ChannelStateTypeDef channel_1_state = TIM_CHANNEL_STATE_GET(htim, TIM_CHANNEL_1);
 766              		.loc 1 395 31
 767 0008 7B68     		ldr	r3, [r7, #4]
 768 000a 93F83E30 		ldrb	r3, [r3, #62]
 769 000e FB73     		strb	r3, [r7, #15]
 396:./Libraries/STM32H7xx_HAL_Driver/Src/stm32h7xx_hal_tim_ex.c ****   HAL_TIM_ChannelStateTypeDef channel_2_state = TIM_CHANNEL_STATE_GET(htim, TIM_CHANNEL_2);
 770              		.loc 1 396 31
 771 0010 7B68     		ldr	r3, [r7, #4]
 772 0012 93F83F30 		ldrb	r3, [r3, #63]
 773 0016 BB73     		strb	r3, [r7, #14]
 397:./Libraries/STM32H7xx_HAL_Driver/Src/stm32h7xx_hal_tim_ex.c ****   HAL_TIM_ChannelStateTypeDef complementary_channel_1_state = TIM_CHANNEL_N_STATE_GET(htim, TIM_CHA
 774              		.loc 1 397 31
 775 0018 7B68     		ldr	r3, [r7, #4]
 776 001a 93F84430 		ldrb	r3, [r3, #68]
 777 001e 7B73     		strb	r3, [r7, #13]
 398:./Libraries/STM32H7xx_HAL_Driver/Src/stm32h7xx_hal_tim_ex.c ****   HAL_TIM_ChannelStateTypeDef complementary_channel_2_state = TIM_CHANNEL_N_STATE_GET(htim, TIM_CHA
 778              		.loc 1 398 31
 779 0020 7B68     		ldr	r3, [r7, #4]
 780 0022 93F84530 		ldrb	r3, [r3, #69]
 781 0026 3B73     		strb	r3, [r7, #12]
 399:./Libraries/STM32H7xx_HAL_Driver/Src/stm32h7xx_hal_tim_ex.c **** 
 400:./Libraries/STM32H7xx_HAL_Driver/Src/stm32h7xx_hal_tim_ex.c ****   /* Check the parameters */
 401:./Libraries/STM32H7xx_HAL_Driver/Src/stm32h7xx_hal_tim_ex.c ****   assert_param(IS_TIM_HALL_SENSOR_INTERFACE_INSTANCE(htim->Instance));
 402:./Libraries/STM32H7xx_HAL_Driver/Src/stm32h7xx_hal_tim_ex.c **** 
 403:./Libraries/STM32H7xx_HAL_Driver/Src/stm32h7xx_hal_tim_ex.c ****   /* Check the TIM channels state */
 404:./Libraries/STM32H7xx_HAL_Driver/Src/stm32h7xx_hal_tim_ex.c ****   if ((channel_1_state != HAL_TIM_CHANNEL_STATE_READY)
 782              		.loc 1 404 6
 783 0028 FB7B     		ldrb	r3, [r7, #15]	@ zero_extendqisi2
 784 002a 012B     		cmp	r3, #1
 785 002c 08D1     		bne	.L28
 405:./Libraries/STM32H7xx_HAL_Driver/Src/stm32h7xx_hal_tim_ex.c ****       || (channel_2_state != HAL_TIM_CHANNEL_STATE_READY)
 786              		.loc 1 405 7
 787 002e BB7B     		ldrb	r3, [r7, #14]	@ zero_extendqisi2
 788 0030 012B     		cmp	r3, #1
 789 0032 05D1     		bne	.L28
 406:./Libraries/STM32H7xx_HAL_Driver/Src/stm32h7xx_hal_tim_ex.c ****       || (complementary_channel_1_state != HAL_TIM_CHANNEL_STATE_READY)
 790              		.loc 1 406 7
 791 0034 7B7B     		ldrb	r3, [r7, #13]	@ zero_extendqisi2
 792 0036 012B     		cmp	r3, #1
 793 0038 02D1     		bne	.L28
 407:./Libraries/STM32H7xx_HAL_Driver/Src/stm32h7xx_hal_tim_ex.c ****       || (complementary_channel_2_state != HAL_TIM_CHANNEL_STATE_READY))
 794              		.loc 1 407 7
 795 003a 3B7B     		ldrb	r3, [r7, #12]	@ zero_extendqisi2
 796 003c 012B     		cmp	r3, #1
 797 003e 01D0     		beq	.L29
 798              	.L28:
 408:./Libraries/STM32H7xx_HAL_Driver/Src/stm32h7xx_hal_tim_ex.c ****   {
 409:./Libraries/STM32H7xx_HAL_Driver/Src/stm32h7xx_hal_tim_ex.c ****     return HAL_ERROR;
 799              		.loc 1 409 12
ARM GAS  /tmp/ccxx2olO.s 			page 22


 800 0040 0123     		movs	r3, #1
 801 0042 62E0     		b	.L30
 802              	.L29:
 410:./Libraries/STM32H7xx_HAL_Driver/Src/stm32h7xx_hal_tim_ex.c ****   }
 411:./Libraries/STM32H7xx_HAL_Driver/Src/stm32h7xx_hal_tim_ex.c **** 
 412:./Libraries/STM32H7xx_HAL_Driver/Src/stm32h7xx_hal_tim_ex.c ****   /* Set the TIM channels state */
 413:./Libraries/STM32H7xx_HAL_Driver/Src/stm32h7xx_hal_tim_ex.c ****   TIM_CHANNEL_STATE_SET(htim, TIM_CHANNEL_1, HAL_TIM_CHANNEL_STATE_BUSY);
 803              		.loc 1 413 3
 804 0044 7B68     		ldr	r3, [r7, #4]
 805 0046 0222     		movs	r2, #2
 806 0048 83F83E20 		strb	r2, [r3, #62]
 414:./Libraries/STM32H7xx_HAL_Driver/Src/stm32h7xx_hal_tim_ex.c ****   TIM_CHANNEL_STATE_SET(htim, TIM_CHANNEL_2, HAL_TIM_CHANNEL_STATE_BUSY);
 807              		.loc 1 414 3
 808 004c 7B68     		ldr	r3, [r7, #4]
 809 004e 0222     		movs	r2, #2
 810 0050 83F83F20 		strb	r2, [r3, #63]
 415:./Libraries/STM32H7xx_HAL_Driver/Src/stm32h7xx_hal_tim_ex.c ****   TIM_CHANNEL_N_STATE_SET(htim, TIM_CHANNEL_1, HAL_TIM_CHANNEL_STATE_BUSY);
 811              		.loc 1 415 3
 812 0054 7B68     		ldr	r3, [r7, #4]
 813 0056 0222     		movs	r2, #2
 814 0058 83F84420 		strb	r2, [r3, #68]
 416:./Libraries/STM32H7xx_HAL_Driver/Src/stm32h7xx_hal_tim_ex.c ****   TIM_CHANNEL_N_STATE_SET(htim, TIM_CHANNEL_2, HAL_TIM_CHANNEL_STATE_BUSY);
 815              		.loc 1 416 3
 816 005c 7B68     		ldr	r3, [r7, #4]
 817 005e 0222     		movs	r2, #2
 818 0060 83F84520 		strb	r2, [r3, #69]
 417:./Libraries/STM32H7xx_HAL_Driver/Src/stm32h7xx_hal_tim_ex.c **** 
 418:./Libraries/STM32H7xx_HAL_Driver/Src/stm32h7xx_hal_tim_ex.c ****   /* Enable the capture compare Interrupts 1 event */
 419:./Libraries/STM32H7xx_HAL_Driver/Src/stm32h7xx_hal_tim_ex.c ****   __HAL_TIM_ENABLE_IT(htim, TIM_IT_CC1);
 819              		.loc 1 419 3
 820 0064 7B68     		ldr	r3, [r7, #4]
 821 0066 1B68     		ldr	r3, [r3]
 822 0068 DA68     		ldr	r2, [r3, #12]
 823 006a 7B68     		ldr	r3, [r7, #4]
 824 006c 1B68     		ldr	r3, [r3]
 825 006e 42F00202 		orr	r2, r2, #2
 826 0072 DA60     		str	r2, [r3, #12]
 420:./Libraries/STM32H7xx_HAL_Driver/Src/stm32h7xx_hal_tim_ex.c **** 
 421:./Libraries/STM32H7xx_HAL_Driver/Src/stm32h7xx_hal_tim_ex.c ****   /* Enable the Input Capture channel 1
 422:./Libraries/STM32H7xx_HAL_Driver/Src/stm32h7xx_hal_tim_ex.c ****     (in the Hall Sensor Interface the three possible channels that can be used are TIM_CHANNEL_1, T
 423:./Libraries/STM32H7xx_HAL_Driver/Src/stm32h7xx_hal_tim_ex.c ****   TIM_CCxChannelCmd(htim->Instance, TIM_CHANNEL_1, TIM_CCx_ENABLE);
 827              		.loc 1 423 3
 828 0074 7B68     		ldr	r3, [r7, #4]
 829 0076 1B68     		ldr	r3, [r3]
 830 0078 0122     		movs	r2, #1
 831 007a 0021     		movs	r1, #0
 832 007c 1846     		mov	r0, r3
 833 007e FFF7FEFF 		bl	TIM_CCxChannelCmd
 424:./Libraries/STM32H7xx_HAL_Driver/Src/stm32h7xx_hal_tim_ex.c **** 
 425:./Libraries/STM32H7xx_HAL_Driver/Src/stm32h7xx_hal_tim_ex.c ****   /* Enable the Peripheral, except in trigger mode where enable is automatically done with trigger 
 426:./Libraries/STM32H7xx_HAL_Driver/Src/stm32h7xx_hal_tim_ex.c ****   if (IS_TIM_SLAVE_INSTANCE(htim->Instance))
 834              		.loc 1 426 7
 835 0082 7B68     		ldr	r3, [r7, #4]
 836 0084 1B68     		ldr	r3, [r3]
 837              		.loc 1 426 6
 838 0086 234A     		ldr	r2, .L36
 839 0088 9342     		cmp	r3, r2
ARM GAS  /tmp/ccxx2olO.s 			page 23


 840 008a 1DD0     		beq	.L31
 841              		.loc 1 426 7 discriminator 1
 842 008c 7B68     		ldr	r3, [r7, #4]
 843 008e 1B68     		ldr	r3, [r3]
 844 0090 B3F1804F 		cmp	r3, #1073741824
 845 0094 18D0     		beq	.L31
 846              		.loc 1 426 7 is_stmt 0 discriminator 2
 847 0096 7B68     		ldr	r3, [r7, #4]
 848 0098 1B68     		ldr	r3, [r3]
 849 009a 1F4A     		ldr	r2, .L36+4
 850 009c 9342     		cmp	r3, r2
 851 009e 13D0     		beq	.L31
 852              		.loc 1 426 7 discriminator 3
 853 00a0 7B68     		ldr	r3, [r7, #4]
 854 00a2 1B68     		ldr	r3, [r3]
 855 00a4 1D4A     		ldr	r2, .L36+8
 856 00a6 9342     		cmp	r3, r2
 857 00a8 0ED0     		beq	.L31
 858              		.loc 1 426 7 discriminator 4
 859 00aa 7B68     		ldr	r3, [r7, #4]
 860 00ac 1B68     		ldr	r3, [r3]
 861 00ae 1C4A     		ldr	r2, .L36+12
 862 00b0 9342     		cmp	r3, r2
 863 00b2 09D0     		beq	.L31
 864              		.loc 1 426 7 discriminator 5
 865 00b4 7B68     		ldr	r3, [r7, #4]
 866 00b6 1B68     		ldr	r3, [r3]
 867 00b8 1A4A     		ldr	r2, .L36+16
 868 00ba 9342     		cmp	r3, r2
 869 00bc 04D0     		beq	.L31
 870              		.loc 1 426 7 discriminator 6
 871 00be 7B68     		ldr	r3, [r7, #4]
 872 00c0 1B68     		ldr	r3, [r3]
 873 00c2 194A     		ldr	r2, .L36+20
 874 00c4 9342     		cmp	r3, r2
 875 00c6 15D1     		bne	.L32
 876              	.L31:
 427:./Libraries/STM32H7xx_HAL_Driver/Src/stm32h7xx_hal_tim_ex.c ****   {
 428:./Libraries/STM32H7xx_HAL_Driver/Src/stm32h7xx_hal_tim_ex.c ****     tmpsmcr = htim->Instance->SMCR & TIM_SMCR_SMS;
 877              		.loc 1 428 19 is_stmt 1
 878 00c8 7B68     		ldr	r3, [r7, #4]
 879 00ca 1B68     		ldr	r3, [r3]
 880              		.loc 1 428 29
 881 00cc 9A68     		ldr	r2, [r3, #8]
 882              		.loc 1 428 13
 883 00ce 174B     		ldr	r3, .L36+24
 884 00d0 1340     		ands	r3, r3, r2
 885 00d2 BB60     		str	r3, [r7, #8]
 429:./Libraries/STM32H7xx_HAL_Driver/Src/stm32h7xx_hal_tim_ex.c ****     if (!IS_TIM_SLAVEMODE_TRIGGER_ENABLED(tmpsmcr))
 886              		.loc 1 429 8
 887 00d4 BB68     		ldr	r3, [r7, #8]
 888 00d6 062B     		cmp	r3, #6
 889 00d8 15D0     		beq	.L35
 890              		.loc 1 429 9 discriminator 1
 891 00da BB68     		ldr	r3, [r7, #8]
 892 00dc B3F5803F 		cmp	r3, #65536
 893 00e0 11D0     		beq	.L35
ARM GAS  /tmp/ccxx2olO.s 			page 24


 430:./Libraries/STM32H7xx_HAL_Driver/Src/stm32h7xx_hal_tim_ex.c ****     {
 431:./Libraries/STM32H7xx_HAL_Driver/Src/stm32h7xx_hal_tim_ex.c ****       __HAL_TIM_ENABLE(htim);
 894              		.loc 1 431 7
 895 00e2 7B68     		ldr	r3, [r7, #4]
 896 00e4 1B68     		ldr	r3, [r3]
 897 00e6 1A68     		ldr	r2, [r3]
 898 00e8 7B68     		ldr	r3, [r7, #4]
 899 00ea 1B68     		ldr	r3, [r3]
 900 00ec 42F00102 		orr	r2, r2, #1
 901 00f0 1A60     		str	r2, [r3]
 429:./Libraries/STM32H7xx_HAL_Driver/Src/stm32h7xx_hal_tim_ex.c ****     if (!IS_TIM_SLAVEMODE_TRIGGER_ENABLED(tmpsmcr))
 902              		.loc 1 429 8
 903 00f2 08E0     		b	.L35
 904              	.L32:
 432:./Libraries/STM32H7xx_HAL_Driver/Src/stm32h7xx_hal_tim_ex.c ****     }
 433:./Libraries/STM32H7xx_HAL_Driver/Src/stm32h7xx_hal_tim_ex.c ****   }
 434:./Libraries/STM32H7xx_HAL_Driver/Src/stm32h7xx_hal_tim_ex.c ****   else
 435:./Libraries/STM32H7xx_HAL_Driver/Src/stm32h7xx_hal_tim_ex.c ****   {
 436:./Libraries/STM32H7xx_HAL_Driver/Src/stm32h7xx_hal_tim_ex.c ****     __HAL_TIM_ENABLE(htim);
 905              		.loc 1 436 5
 906 00f4 7B68     		ldr	r3, [r7, #4]
 907 00f6 1B68     		ldr	r3, [r3]
 908 00f8 1A68     		ldr	r2, [r3]
 909 00fa 7B68     		ldr	r3, [r7, #4]
 910 00fc 1B68     		ldr	r3, [r3]
 911 00fe 42F00102 		orr	r2, r2, #1
 912 0102 1A60     		str	r2, [r3]
 913 0104 00E0     		b	.L34
 914              	.L35:
 429:./Libraries/STM32H7xx_HAL_Driver/Src/stm32h7xx_hal_tim_ex.c ****     {
 915              		.loc 1 429 8
 916 0106 00BF     		nop
 917              	.L34:
 437:./Libraries/STM32H7xx_HAL_Driver/Src/stm32h7xx_hal_tim_ex.c ****   }
 438:./Libraries/STM32H7xx_HAL_Driver/Src/stm32h7xx_hal_tim_ex.c **** 
 439:./Libraries/STM32H7xx_HAL_Driver/Src/stm32h7xx_hal_tim_ex.c ****   /* Return function status */
 440:./Libraries/STM32H7xx_HAL_Driver/Src/stm32h7xx_hal_tim_ex.c ****   return HAL_OK;
 918              		.loc 1 440 10
 919 0108 0023     		movs	r3, #0
 920              	.L30:
 441:./Libraries/STM32H7xx_HAL_Driver/Src/stm32h7xx_hal_tim_ex.c **** }
 921              		.loc 1 441 1
 922 010a 1846     		mov	r0, r3
 923 010c 1037     		adds	r7, r7, #16
 924              	.LCFI35:
 925              		.cfi_def_cfa_offset 8
 926 010e BD46     		mov	sp, r7
 927              	.LCFI36:
 928              		.cfi_def_cfa_register 13
 929              		@ sp needed
 930 0110 80BD     		pop	{r7, pc}
 931              	.L37:
 932 0112 00BF     		.align	2
 933              	.L36:
 934 0114 00000140 		.word	1073807360
 935 0118 00040040 		.word	1073742848
 936 011c 00080040 		.word	1073743872
ARM GAS  /tmp/ccxx2olO.s 			page 25


 937 0120 000C0040 		.word	1073744896
 938 0124 00040140 		.word	1073808384
 939 0128 00180040 		.word	1073747968
 940 012c 07000100 		.word	65543
 941              		.cfi_endproc
 942              	.LFE337:
 944              		.section	.text.HAL_TIMEx_HallSensor_Stop_IT,"ax",%progbits
 945              		.align	1
 946              		.global	HAL_TIMEx_HallSensor_Stop_IT
 947              		.syntax unified
 948              		.thumb
 949              		.thumb_func
 950              		.fpu fpv5-d16
 952              	HAL_TIMEx_HallSensor_Stop_IT:
 953              	.LFB338:
 442:./Libraries/STM32H7xx_HAL_Driver/Src/stm32h7xx_hal_tim_ex.c **** 
 443:./Libraries/STM32H7xx_HAL_Driver/Src/stm32h7xx_hal_tim_ex.c **** /**
 444:./Libraries/STM32H7xx_HAL_Driver/Src/stm32h7xx_hal_tim_ex.c ****   * @brief  Stops the TIM Hall Sensor Interface in interrupt mode.
 445:./Libraries/STM32H7xx_HAL_Driver/Src/stm32h7xx_hal_tim_ex.c ****   * @param  htim TIM Hall Sensor Interface handle
 446:./Libraries/STM32H7xx_HAL_Driver/Src/stm32h7xx_hal_tim_ex.c ****   * @retval HAL status
 447:./Libraries/STM32H7xx_HAL_Driver/Src/stm32h7xx_hal_tim_ex.c ****   */
 448:./Libraries/STM32H7xx_HAL_Driver/Src/stm32h7xx_hal_tim_ex.c **** HAL_StatusTypeDef HAL_TIMEx_HallSensor_Stop_IT(TIM_HandleTypeDef *htim)
 449:./Libraries/STM32H7xx_HAL_Driver/Src/stm32h7xx_hal_tim_ex.c **** {
 954              		.loc 1 449 1
 955              		.cfi_startproc
 956              		@ args = 0, pretend = 0, frame = 8
 957              		@ frame_needed = 1, uses_anonymous_args = 0
 958 0000 80B5     		push	{r7, lr}
 959              	.LCFI37:
 960              		.cfi_def_cfa_offset 8
 961              		.cfi_offset 7, -8
 962              		.cfi_offset 14, -4
 963 0002 82B0     		sub	sp, sp, #8
 964              	.LCFI38:
 965              		.cfi_def_cfa_offset 16
 966 0004 00AF     		add	r7, sp, #0
 967              	.LCFI39:
 968              		.cfi_def_cfa_register 7
 969 0006 7860     		str	r0, [r7, #4]
 450:./Libraries/STM32H7xx_HAL_Driver/Src/stm32h7xx_hal_tim_ex.c ****   /* Check the parameters */
 451:./Libraries/STM32H7xx_HAL_Driver/Src/stm32h7xx_hal_tim_ex.c ****   assert_param(IS_TIM_HALL_SENSOR_INTERFACE_INSTANCE(htim->Instance));
 452:./Libraries/STM32H7xx_HAL_Driver/Src/stm32h7xx_hal_tim_ex.c **** 
 453:./Libraries/STM32H7xx_HAL_Driver/Src/stm32h7xx_hal_tim_ex.c ****   /* Disable the Input Capture channel 1
 454:./Libraries/STM32H7xx_HAL_Driver/Src/stm32h7xx_hal_tim_ex.c ****     (in the Hall Sensor Interface the three possible channels that can be used are TIM_CHANNEL_1, T
 455:./Libraries/STM32H7xx_HAL_Driver/Src/stm32h7xx_hal_tim_ex.c ****   TIM_CCxChannelCmd(htim->Instance, TIM_CHANNEL_1, TIM_CCx_DISABLE);
 970              		.loc 1 455 3
 971 0008 7B68     		ldr	r3, [r7, #4]
 972 000a 1B68     		ldr	r3, [r3]
 973 000c 0022     		movs	r2, #0
 974 000e 0021     		movs	r1, #0
 975 0010 1846     		mov	r0, r3
 976 0012 FFF7FEFF 		bl	TIM_CCxChannelCmd
 456:./Libraries/STM32H7xx_HAL_Driver/Src/stm32h7xx_hal_tim_ex.c **** 
 457:./Libraries/STM32H7xx_HAL_Driver/Src/stm32h7xx_hal_tim_ex.c ****   /* Disable the capture compare Interrupts event */
 458:./Libraries/STM32H7xx_HAL_Driver/Src/stm32h7xx_hal_tim_ex.c ****   __HAL_TIM_DISABLE_IT(htim, TIM_IT_CC1);
 977              		.loc 1 458 3
 978 0016 7B68     		ldr	r3, [r7, #4]
ARM GAS  /tmp/ccxx2olO.s 			page 26


 979 0018 1B68     		ldr	r3, [r3]
 980 001a DA68     		ldr	r2, [r3, #12]
 981 001c 7B68     		ldr	r3, [r7, #4]
 982 001e 1B68     		ldr	r3, [r3]
 983 0020 22F00202 		bic	r2, r2, #2
 984 0024 DA60     		str	r2, [r3, #12]
 459:./Libraries/STM32H7xx_HAL_Driver/Src/stm32h7xx_hal_tim_ex.c **** 
 460:./Libraries/STM32H7xx_HAL_Driver/Src/stm32h7xx_hal_tim_ex.c ****   /* Disable the Peripheral */
 461:./Libraries/STM32H7xx_HAL_Driver/Src/stm32h7xx_hal_tim_ex.c ****   __HAL_TIM_DISABLE(htim);
 985              		.loc 1 461 3
 986 0026 7B68     		ldr	r3, [r7, #4]
 987 0028 1B68     		ldr	r3, [r3]
 988 002a 1A6A     		ldr	r2, [r3, #32]
 989 002c 41F21113 		movw	r3, #4369
 990 0030 1340     		ands	r3, r3, r2
 991 0032 002B     		cmp	r3, #0
 992 0034 0FD1     		bne	.L39
 993              		.loc 1 461 3 is_stmt 0 discriminator 1
 994 0036 7B68     		ldr	r3, [r7, #4]
 995 0038 1B68     		ldr	r3, [r3]
 996 003a 1A6A     		ldr	r2, [r3, #32]
 997 003c 40F24443 		movw	r3, #1092
 998 0040 1340     		ands	r3, r3, r2
 999 0042 002B     		cmp	r3, #0
 1000 0044 07D1     		bne	.L39
 1001              		.loc 1 461 3 discriminator 2
 1002 0046 7B68     		ldr	r3, [r7, #4]
 1003 0048 1B68     		ldr	r3, [r3]
 1004 004a 1A68     		ldr	r2, [r3]
 1005 004c 7B68     		ldr	r3, [r7, #4]
 1006 004e 1B68     		ldr	r3, [r3]
 1007 0050 22F00102 		bic	r2, r2, #1
 1008 0054 1A60     		str	r2, [r3]
 1009              	.L39:
 462:./Libraries/STM32H7xx_HAL_Driver/Src/stm32h7xx_hal_tim_ex.c **** 
 463:./Libraries/STM32H7xx_HAL_Driver/Src/stm32h7xx_hal_tim_ex.c ****   /* Set the TIM channels state */
 464:./Libraries/STM32H7xx_HAL_Driver/Src/stm32h7xx_hal_tim_ex.c ****   TIM_CHANNEL_STATE_SET(htim, TIM_CHANNEL_1, HAL_TIM_CHANNEL_STATE_READY);
 1010              		.loc 1 464 3 is_stmt 1
 1011 0056 7B68     		ldr	r3, [r7, #4]
 1012 0058 0122     		movs	r2, #1
 1013 005a 83F83E20 		strb	r2, [r3, #62]
 465:./Libraries/STM32H7xx_HAL_Driver/Src/stm32h7xx_hal_tim_ex.c ****   TIM_CHANNEL_STATE_SET(htim, TIM_CHANNEL_2, HAL_TIM_CHANNEL_STATE_READY);
 1014              		.loc 1 465 3
 1015 005e 7B68     		ldr	r3, [r7, #4]
 1016 0060 0122     		movs	r2, #1
 1017 0062 83F83F20 		strb	r2, [r3, #63]
 466:./Libraries/STM32H7xx_HAL_Driver/Src/stm32h7xx_hal_tim_ex.c ****   TIM_CHANNEL_N_STATE_SET(htim, TIM_CHANNEL_1, HAL_TIM_CHANNEL_STATE_READY);
 1018              		.loc 1 466 3
 1019 0066 7B68     		ldr	r3, [r7, #4]
 1020 0068 0122     		movs	r2, #1
 1021 006a 83F84420 		strb	r2, [r3, #68]
 467:./Libraries/STM32H7xx_HAL_Driver/Src/stm32h7xx_hal_tim_ex.c ****   TIM_CHANNEL_N_STATE_SET(htim, TIM_CHANNEL_2, HAL_TIM_CHANNEL_STATE_READY);
 1022              		.loc 1 467 3
 1023 006e 7B68     		ldr	r3, [r7, #4]
 1024 0070 0122     		movs	r2, #1
 1025 0072 83F84520 		strb	r2, [r3, #69]
 468:./Libraries/STM32H7xx_HAL_Driver/Src/stm32h7xx_hal_tim_ex.c **** 
ARM GAS  /tmp/ccxx2olO.s 			page 27


 469:./Libraries/STM32H7xx_HAL_Driver/Src/stm32h7xx_hal_tim_ex.c ****   /* Return function status */
 470:./Libraries/STM32H7xx_HAL_Driver/Src/stm32h7xx_hal_tim_ex.c ****   return HAL_OK;
 1026              		.loc 1 470 10
 1027 0076 0023     		movs	r3, #0
 471:./Libraries/STM32H7xx_HAL_Driver/Src/stm32h7xx_hal_tim_ex.c **** }
 1028              		.loc 1 471 1
 1029 0078 1846     		mov	r0, r3
 1030 007a 0837     		adds	r7, r7, #8
 1031              	.LCFI40:
 1032              		.cfi_def_cfa_offset 8
 1033 007c BD46     		mov	sp, r7
 1034              	.LCFI41:
 1035              		.cfi_def_cfa_register 13
 1036              		@ sp needed
 1037 007e 80BD     		pop	{r7, pc}
 1038              		.cfi_endproc
 1039              	.LFE338:
 1041              		.section	.text.HAL_TIMEx_HallSensor_Start_DMA,"ax",%progbits
 1042              		.align	1
 1043              		.global	HAL_TIMEx_HallSensor_Start_DMA
 1044              		.syntax unified
 1045              		.thumb
 1046              		.thumb_func
 1047              		.fpu fpv5-d16
 1049              	HAL_TIMEx_HallSensor_Start_DMA:
 1050              	.LFB339:
 472:./Libraries/STM32H7xx_HAL_Driver/Src/stm32h7xx_hal_tim_ex.c **** 
 473:./Libraries/STM32H7xx_HAL_Driver/Src/stm32h7xx_hal_tim_ex.c **** /**
 474:./Libraries/STM32H7xx_HAL_Driver/Src/stm32h7xx_hal_tim_ex.c ****   * @brief  Starts the TIM Hall Sensor Interface in DMA mode.
 475:./Libraries/STM32H7xx_HAL_Driver/Src/stm32h7xx_hal_tim_ex.c ****   * @param  htim TIM Hall Sensor Interface handle
 476:./Libraries/STM32H7xx_HAL_Driver/Src/stm32h7xx_hal_tim_ex.c ****   * @param  pData The destination Buffer address.
 477:./Libraries/STM32H7xx_HAL_Driver/Src/stm32h7xx_hal_tim_ex.c ****   * @param  Length The length of data to be transferred from TIM peripheral to memory.
 478:./Libraries/STM32H7xx_HAL_Driver/Src/stm32h7xx_hal_tim_ex.c ****   * @retval HAL status
 479:./Libraries/STM32H7xx_HAL_Driver/Src/stm32h7xx_hal_tim_ex.c ****   */
 480:./Libraries/STM32H7xx_HAL_Driver/Src/stm32h7xx_hal_tim_ex.c **** HAL_StatusTypeDef HAL_TIMEx_HallSensor_Start_DMA(TIM_HandleTypeDef *htim, uint32_t *pData, uint16_t
 481:./Libraries/STM32H7xx_HAL_Driver/Src/stm32h7xx_hal_tim_ex.c **** {
 1051              		.loc 1 481 1
 1052              		.cfi_startproc
 1053              		@ args = 0, pretend = 0, frame = 24
 1054              		@ frame_needed = 1, uses_anonymous_args = 0
 1055 0000 80B5     		push	{r7, lr}
 1056              	.LCFI42:
 1057              		.cfi_def_cfa_offset 8
 1058              		.cfi_offset 7, -8
 1059              		.cfi_offset 14, -4
 1060 0002 86B0     		sub	sp, sp, #24
 1061              	.LCFI43:
 1062              		.cfi_def_cfa_offset 32
 1063 0004 00AF     		add	r7, sp, #0
 1064              	.LCFI44:
 1065              		.cfi_def_cfa_register 7
 1066 0006 F860     		str	r0, [r7, #12]
 1067 0008 B960     		str	r1, [r7, #8]
 1068 000a 1346     		mov	r3, r2
 1069 000c FB80     		strh	r3, [r7, #6]	@ movhi
 482:./Libraries/STM32H7xx_HAL_Driver/Src/stm32h7xx_hal_tim_ex.c ****   uint32_t tmpsmcr;
 483:./Libraries/STM32H7xx_HAL_Driver/Src/stm32h7xx_hal_tim_ex.c ****   HAL_TIM_ChannelStateTypeDef channel_1_state = TIM_CHANNEL_STATE_GET(htim, TIM_CHANNEL_1);
ARM GAS  /tmp/ccxx2olO.s 			page 28


 1070              		.loc 1 483 31
 1071 000e FB68     		ldr	r3, [r7, #12]
 1072 0010 93F83E30 		ldrb	r3, [r3, #62]
 1073 0014 FB75     		strb	r3, [r7, #23]
 484:./Libraries/STM32H7xx_HAL_Driver/Src/stm32h7xx_hal_tim_ex.c ****   HAL_TIM_ChannelStateTypeDef complementary_channel_1_state = TIM_CHANNEL_N_STATE_GET(htim, TIM_CHA
 1074              		.loc 1 484 31
 1075 0016 FB68     		ldr	r3, [r7, #12]
 1076 0018 93F84430 		ldrb	r3, [r3, #68]
 1077 001c BB75     		strb	r3, [r7, #22]
 485:./Libraries/STM32H7xx_HAL_Driver/Src/stm32h7xx_hal_tim_ex.c **** 
 486:./Libraries/STM32H7xx_HAL_Driver/Src/stm32h7xx_hal_tim_ex.c ****   /* Check the parameters */
 487:./Libraries/STM32H7xx_HAL_Driver/Src/stm32h7xx_hal_tim_ex.c ****   assert_param(IS_TIM_HALL_SENSOR_INTERFACE_INSTANCE(htim->Instance));
 488:./Libraries/STM32H7xx_HAL_Driver/Src/stm32h7xx_hal_tim_ex.c **** 
 489:./Libraries/STM32H7xx_HAL_Driver/Src/stm32h7xx_hal_tim_ex.c ****   /* Set the TIM channel state */
 490:./Libraries/STM32H7xx_HAL_Driver/Src/stm32h7xx_hal_tim_ex.c ****   if ((channel_1_state == HAL_TIM_CHANNEL_STATE_BUSY)
 1078              		.loc 1 490 6
 1079 001e FB7D     		ldrb	r3, [r7, #23]	@ zero_extendqisi2
 1080 0020 022B     		cmp	r3, #2
 1081 0022 02D0     		beq	.L42
 491:./Libraries/STM32H7xx_HAL_Driver/Src/stm32h7xx_hal_tim_ex.c ****       || (complementary_channel_1_state == HAL_TIM_CHANNEL_STATE_BUSY))
 1082              		.loc 1 491 7
 1083 0024 BB7D     		ldrb	r3, [r7, #22]	@ zero_extendqisi2
 1084 0026 022B     		cmp	r3, #2
 1085 0028 01D1     		bne	.L43
 1086              	.L42:
 492:./Libraries/STM32H7xx_HAL_Driver/Src/stm32h7xx_hal_tim_ex.c ****   {
 493:./Libraries/STM32H7xx_HAL_Driver/Src/stm32h7xx_hal_tim_ex.c ****     return HAL_BUSY;
 1087              		.loc 1 493 12
 1088 002a 0223     		movs	r3, #2
 1089 002c 87E0     		b	.L44
 1090              	.L43:
 494:./Libraries/STM32H7xx_HAL_Driver/Src/stm32h7xx_hal_tim_ex.c ****   }
 495:./Libraries/STM32H7xx_HAL_Driver/Src/stm32h7xx_hal_tim_ex.c ****   else if ((channel_1_state == HAL_TIM_CHANNEL_STATE_READY)
 1091              		.loc 1 495 11
 1092 002e FB7D     		ldrb	r3, [r7, #23]	@ zero_extendqisi2
 1093 0030 012B     		cmp	r3, #1
 1094 0032 34D1     		bne	.L45
 496:./Libraries/STM32H7xx_HAL_Driver/Src/stm32h7xx_hal_tim_ex.c ****            && (complementary_channel_1_state == HAL_TIM_CHANNEL_STATE_READY))
 1095              		.loc 1 496 12
 1096 0034 BB7D     		ldrb	r3, [r7, #22]	@ zero_extendqisi2
 1097 0036 012B     		cmp	r3, #1
 1098 0038 31D1     		bne	.L45
 497:./Libraries/STM32H7xx_HAL_Driver/Src/stm32h7xx_hal_tim_ex.c ****   {
 498:./Libraries/STM32H7xx_HAL_Driver/Src/stm32h7xx_hal_tim_ex.c ****     if ((pData == NULL) && (Length > 0U))
 1099              		.loc 1 498 8
 1100 003a BB68     		ldr	r3, [r7, #8]
 1101 003c 002B     		cmp	r3, #0
 1102 003e 04D1     		bne	.L46
 1103              		.loc 1 498 25 discriminator 1
 1104 0040 FB88     		ldrh	r3, [r7, #6]
 1105 0042 002B     		cmp	r3, #0
 1106 0044 01D0     		beq	.L46
 499:./Libraries/STM32H7xx_HAL_Driver/Src/stm32h7xx_hal_tim_ex.c ****     {
 500:./Libraries/STM32H7xx_HAL_Driver/Src/stm32h7xx_hal_tim_ex.c ****       return HAL_ERROR;
 1107              		.loc 1 500 14
 1108 0046 0123     		movs	r3, #1
 1109 0048 79E0     		b	.L44
ARM GAS  /tmp/ccxx2olO.s 			page 29


 1110              	.L46:
 501:./Libraries/STM32H7xx_HAL_Driver/Src/stm32h7xx_hal_tim_ex.c ****     }
 502:./Libraries/STM32H7xx_HAL_Driver/Src/stm32h7xx_hal_tim_ex.c ****     else
 503:./Libraries/STM32H7xx_HAL_Driver/Src/stm32h7xx_hal_tim_ex.c ****     {
 504:./Libraries/STM32H7xx_HAL_Driver/Src/stm32h7xx_hal_tim_ex.c ****       TIM_CHANNEL_STATE_SET(htim, TIM_CHANNEL_1, HAL_TIM_CHANNEL_STATE_BUSY);
 1111              		.loc 1 504 7
 1112 004a FB68     		ldr	r3, [r7, #12]
 1113 004c 0222     		movs	r2, #2
 1114 004e 83F83E20 		strb	r2, [r3, #62]
 505:./Libraries/STM32H7xx_HAL_Driver/Src/stm32h7xx_hal_tim_ex.c ****       TIM_CHANNEL_N_STATE_SET(htim, TIM_CHANNEL_1, HAL_TIM_CHANNEL_STATE_BUSY);
 1115              		.loc 1 505 7
 1116 0052 FB68     		ldr	r3, [r7, #12]
 1117 0054 0222     		movs	r2, #2
 1118 0056 83F84420 		strb	r2, [r3, #68]
 498:./Libraries/STM32H7xx_HAL_Driver/Src/stm32h7xx_hal_tim_ex.c ****     {
 1119              		.loc 1 498 8
 1120 005a 00BF     		nop
 506:./Libraries/STM32H7xx_HAL_Driver/Src/stm32h7xx_hal_tim_ex.c ****     }
 507:./Libraries/STM32H7xx_HAL_Driver/Src/stm32h7xx_hal_tim_ex.c ****   }
 508:./Libraries/STM32H7xx_HAL_Driver/Src/stm32h7xx_hal_tim_ex.c ****   else
 509:./Libraries/STM32H7xx_HAL_Driver/Src/stm32h7xx_hal_tim_ex.c ****   {
 510:./Libraries/STM32H7xx_HAL_Driver/Src/stm32h7xx_hal_tim_ex.c ****     return HAL_ERROR;
 511:./Libraries/STM32H7xx_HAL_Driver/Src/stm32h7xx_hal_tim_ex.c ****   }
 512:./Libraries/STM32H7xx_HAL_Driver/Src/stm32h7xx_hal_tim_ex.c **** 
 513:./Libraries/STM32H7xx_HAL_Driver/Src/stm32h7xx_hal_tim_ex.c ****   /* Enable the Input Capture channel 1
 514:./Libraries/STM32H7xx_HAL_Driver/Src/stm32h7xx_hal_tim_ex.c ****     (in the Hall Sensor Interface the three possible channels that can be used are TIM_CHANNEL_1, T
 515:./Libraries/STM32H7xx_HAL_Driver/Src/stm32h7xx_hal_tim_ex.c ****   TIM_CCxChannelCmd(htim->Instance, TIM_CHANNEL_1, TIM_CCx_ENABLE);
 1121              		.loc 1 515 3
 1122 005c FB68     		ldr	r3, [r7, #12]
 1123 005e 1B68     		ldr	r3, [r3]
 1124 0060 0122     		movs	r2, #1
 1125 0062 0021     		movs	r1, #0
 1126 0064 1846     		mov	r0, r3
 1127 0066 FFF7FEFF 		bl	TIM_CCxChannelCmd
 516:./Libraries/STM32H7xx_HAL_Driver/Src/stm32h7xx_hal_tim_ex.c **** 
 517:./Libraries/STM32H7xx_HAL_Driver/Src/stm32h7xx_hal_tim_ex.c ****   /* Set the DMA Input Capture 1 Callbacks */
 518:./Libraries/STM32H7xx_HAL_Driver/Src/stm32h7xx_hal_tim_ex.c ****   htim->hdma[TIM_DMA_ID_CC1]->XferCpltCallback = TIM_DMACaptureCplt;
 1128              		.loc 1 518 13
 1129 006a FB68     		ldr	r3, [r7, #12]
 1130 006c 5B6A     		ldr	r3, [r3, #36]
 1131              		.loc 1 518 48
 1132 006e 364A     		ldr	r2, .L55
 1133 0070 DA63     		str	r2, [r3, #60]
 519:./Libraries/STM32H7xx_HAL_Driver/Src/stm32h7xx_hal_tim_ex.c ****   htim->hdma[TIM_DMA_ID_CC1]->XferHalfCpltCallback = TIM_DMACaptureHalfCplt;
 1134              		.loc 1 519 13
 1135 0072 FB68     		ldr	r3, [r7, #12]
 1136 0074 5B6A     		ldr	r3, [r3, #36]
 1137              		.loc 1 519 52
 1138 0076 354A     		ldr	r2, .L55+4
 1139 0078 1A64     		str	r2, [r3, #64]
 520:./Libraries/STM32H7xx_HAL_Driver/Src/stm32h7xx_hal_tim_ex.c ****   /* Set the DMA error callback */
 521:./Libraries/STM32H7xx_HAL_Driver/Src/stm32h7xx_hal_tim_ex.c ****   htim->hdma[TIM_DMA_ID_CC1]->XferErrorCallback = TIM_DMAError ;
 1140              		.loc 1 521 13
 1141 007a FB68     		ldr	r3, [r7, #12]
 1142 007c 5B6A     		ldr	r3, [r3, #36]
 1143              		.loc 1 521 49
 1144 007e 344A     		ldr	r2, .L55+8
ARM GAS  /tmp/ccxx2olO.s 			page 30


 1145 0080 DA64     		str	r2, [r3, #76]
 522:./Libraries/STM32H7xx_HAL_Driver/Src/stm32h7xx_hal_tim_ex.c **** 
 523:./Libraries/STM32H7xx_HAL_Driver/Src/stm32h7xx_hal_tim_ex.c ****   /* Enable the DMA stream for Capture 1*/
 524:./Libraries/STM32H7xx_HAL_Driver/Src/stm32h7xx_hal_tim_ex.c ****   if (HAL_DMA_Start_IT(htim->hdma[TIM_DMA_ID_CC1], (uint32_t)&htim->Instance->CCR1, (uint32_t)pData
 1146              		.loc 1 524 7
 1147 0082 FB68     		ldr	r3, [r7, #12]
 1148 0084 586A     		ldr	r0, [r3, #36]
 1149              		.loc 1 524 67
 1150 0086 FB68     		ldr	r3, [r7, #12]
 1151 0088 1B68     		ldr	r3, [r3]
 1152              		.loc 1 524 62
 1153 008a 3433     		adds	r3, r3, #52
 1154              		.loc 1 524 7
 1155 008c 1946     		mov	r1, r3
 1156 008e BA68     		ldr	r2, [r7, #8]
 1157 0090 FB88     		ldrh	r3, [r7, #6]
 1158 0092 FFF7FEFF 		bl	HAL_DMA_Start_IT
 1159 0096 0346     		mov	r3, r0
 1160              		.loc 1 524 6
 1161 0098 002B     		cmp	r3, #0
 1162 009a 04D0     		beq	.L48
 1163 009c 01E0     		b	.L53
 1164              	.L45:
 510:./Libraries/STM32H7xx_HAL_Driver/Src/stm32h7xx_hal_tim_ex.c ****   }
 1165              		.loc 1 510 12
 1166 009e 0123     		movs	r3, #1
 1167 00a0 4DE0     		b	.L44
 1168              	.L53:
 525:./Libraries/STM32H7xx_HAL_Driver/Src/stm32h7xx_hal_tim_ex.c ****   {
 526:./Libraries/STM32H7xx_HAL_Driver/Src/stm32h7xx_hal_tim_ex.c ****     /* Return error status */
 527:./Libraries/STM32H7xx_HAL_Driver/Src/stm32h7xx_hal_tim_ex.c ****     return HAL_ERROR;
 1169              		.loc 1 527 12
 1170 00a2 0123     		movs	r3, #1
 1171 00a4 4BE0     		b	.L44
 1172              	.L48:
 528:./Libraries/STM32H7xx_HAL_Driver/Src/stm32h7xx_hal_tim_ex.c ****   }
 529:./Libraries/STM32H7xx_HAL_Driver/Src/stm32h7xx_hal_tim_ex.c ****   /* Enable the capture compare 1 Interrupt */
 530:./Libraries/STM32H7xx_HAL_Driver/Src/stm32h7xx_hal_tim_ex.c ****   __HAL_TIM_ENABLE_DMA(htim, TIM_DMA_CC1);
 1173              		.loc 1 530 3
 1174 00a6 FB68     		ldr	r3, [r7, #12]
 1175 00a8 1B68     		ldr	r3, [r3]
 1176 00aa DA68     		ldr	r2, [r3, #12]
 1177 00ac FB68     		ldr	r3, [r7, #12]
 1178 00ae 1B68     		ldr	r3, [r3]
 1179 00b0 42F40072 		orr	r2, r2, #512
 1180 00b4 DA60     		str	r2, [r3, #12]
 531:./Libraries/STM32H7xx_HAL_Driver/Src/stm32h7xx_hal_tim_ex.c **** 
 532:./Libraries/STM32H7xx_HAL_Driver/Src/stm32h7xx_hal_tim_ex.c ****   /* Enable the Peripheral, except in trigger mode where enable is automatically done with trigger 
 533:./Libraries/STM32H7xx_HAL_Driver/Src/stm32h7xx_hal_tim_ex.c ****   if (IS_TIM_SLAVE_INSTANCE(htim->Instance))
 1181              		.loc 1 533 7
 1182 00b6 FB68     		ldr	r3, [r7, #12]
 1183 00b8 1B68     		ldr	r3, [r3]
 1184              		.loc 1 533 6
 1185 00ba 264A     		ldr	r2, .L55+12
 1186 00bc 9342     		cmp	r3, r2
 1187 00be 1DD0     		beq	.L49
 1188              		.loc 1 533 7 discriminator 1
ARM GAS  /tmp/ccxx2olO.s 			page 31


 1189 00c0 FB68     		ldr	r3, [r7, #12]
 1190 00c2 1B68     		ldr	r3, [r3]
 1191 00c4 B3F1804F 		cmp	r3, #1073741824
 1192 00c8 18D0     		beq	.L49
 1193              		.loc 1 533 7 is_stmt 0 discriminator 2
 1194 00ca FB68     		ldr	r3, [r7, #12]
 1195 00cc 1B68     		ldr	r3, [r3]
 1196 00ce 224A     		ldr	r2, .L55+16
 1197 00d0 9342     		cmp	r3, r2
 1198 00d2 13D0     		beq	.L49
 1199              		.loc 1 533 7 discriminator 3
 1200 00d4 FB68     		ldr	r3, [r7, #12]
 1201 00d6 1B68     		ldr	r3, [r3]
 1202 00d8 204A     		ldr	r2, .L55+20
 1203 00da 9342     		cmp	r3, r2
 1204 00dc 0ED0     		beq	.L49
 1205              		.loc 1 533 7 discriminator 4
 1206 00de FB68     		ldr	r3, [r7, #12]
 1207 00e0 1B68     		ldr	r3, [r3]
 1208 00e2 1F4A     		ldr	r2, .L55+24
 1209 00e4 9342     		cmp	r3, r2
 1210 00e6 09D0     		beq	.L49
 1211              		.loc 1 533 7 discriminator 5
 1212 00e8 FB68     		ldr	r3, [r7, #12]
 1213 00ea 1B68     		ldr	r3, [r3]
 1214 00ec 1D4A     		ldr	r2, .L55+28
 1215 00ee 9342     		cmp	r3, r2
 1216 00f0 04D0     		beq	.L49
 1217              		.loc 1 533 7 discriminator 6
 1218 00f2 FB68     		ldr	r3, [r7, #12]
 1219 00f4 1B68     		ldr	r3, [r3]
 1220 00f6 1C4A     		ldr	r2, .L55+32
 1221 00f8 9342     		cmp	r3, r2
 1222 00fa 15D1     		bne	.L50
 1223              	.L49:
 534:./Libraries/STM32H7xx_HAL_Driver/Src/stm32h7xx_hal_tim_ex.c ****   {
 535:./Libraries/STM32H7xx_HAL_Driver/Src/stm32h7xx_hal_tim_ex.c ****     tmpsmcr = htim->Instance->SMCR & TIM_SMCR_SMS;
 1224              		.loc 1 535 19 is_stmt 1
 1225 00fc FB68     		ldr	r3, [r7, #12]
 1226 00fe 1B68     		ldr	r3, [r3]
 1227              		.loc 1 535 29
 1228 0100 9A68     		ldr	r2, [r3, #8]
 1229              		.loc 1 535 13
 1230 0102 1A4B     		ldr	r3, .L55+36
 1231 0104 1340     		ands	r3, r3, r2
 1232 0106 3B61     		str	r3, [r7, #16]
 536:./Libraries/STM32H7xx_HAL_Driver/Src/stm32h7xx_hal_tim_ex.c ****     if (!IS_TIM_SLAVEMODE_TRIGGER_ENABLED(tmpsmcr))
 1233              		.loc 1 536 8
 1234 0108 3B69     		ldr	r3, [r7, #16]
 1235 010a 062B     		cmp	r3, #6
 1236 010c 15D0     		beq	.L54
 1237              		.loc 1 536 9 discriminator 1
 1238 010e 3B69     		ldr	r3, [r7, #16]
 1239 0110 B3F5803F 		cmp	r3, #65536
 1240 0114 11D0     		beq	.L54
 537:./Libraries/STM32H7xx_HAL_Driver/Src/stm32h7xx_hal_tim_ex.c ****     {
 538:./Libraries/STM32H7xx_HAL_Driver/Src/stm32h7xx_hal_tim_ex.c ****       __HAL_TIM_ENABLE(htim);
ARM GAS  /tmp/ccxx2olO.s 			page 32


 1241              		.loc 1 538 7
 1242 0116 FB68     		ldr	r3, [r7, #12]
 1243 0118 1B68     		ldr	r3, [r3]
 1244 011a 1A68     		ldr	r2, [r3]
 1245 011c FB68     		ldr	r3, [r7, #12]
 1246 011e 1B68     		ldr	r3, [r3]
 1247 0120 42F00102 		orr	r2, r2, #1
 1248 0124 1A60     		str	r2, [r3]
 536:./Libraries/STM32H7xx_HAL_Driver/Src/stm32h7xx_hal_tim_ex.c ****     if (!IS_TIM_SLAVEMODE_TRIGGER_ENABLED(tmpsmcr))
 1249              		.loc 1 536 8
 1250 0126 08E0     		b	.L54
 1251              	.L50:
 539:./Libraries/STM32H7xx_HAL_Driver/Src/stm32h7xx_hal_tim_ex.c ****     }
 540:./Libraries/STM32H7xx_HAL_Driver/Src/stm32h7xx_hal_tim_ex.c ****   }
 541:./Libraries/STM32H7xx_HAL_Driver/Src/stm32h7xx_hal_tim_ex.c ****   else
 542:./Libraries/STM32H7xx_HAL_Driver/Src/stm32h7xx_hal_tim_ex.c ****   {
 543:./Libraries/STM32H7xx_HAL_Driver/Src/stm32h7xx_hal_tim_ex.c ****     __HAL_TIM_ENABLE(htim);
 1252              		.loc 1 543 5
 1253 0128 FB68     		ldr	r3, [r7, #12]
 1254 012a 1B68     		ldr	r3, [r3]
 1255 012c 1A68     		ldr	r2, [r3]
 1256 012e FB68     		ldr	r3, [r7, #12]
 1257 0130 1B68     		ldr	r3, [r3]
 1258 0132 42F00102 		orr	r2, r2, #1
 1259 0136 1A60     		str	r2, [r3]
 1260 0138 00E0     		b	.L52
 1261              	.L54:
 536:./Libraries/STM32H7xx_HAL_Driver/Src/stm32h7xx_hal_tim_ex.c ****     {
 1262              		.loc 1 536 8
 1263 013a 00BF     		nop
 1264              	.L52:
 544:./Libraries/STM32H7xx_HAL_Driver/Src/stm32h7xx_hal_tim_ex.c ****   }
 545:./Libraries/STM32H7xx_HAL_Driver/Src/stm32h7xx_hal_tim_ex.c **** 
 546:./Libraries/STM32H7xx_HAL_Driver/Src/stm32h7xx_hal_tim_ex.c ****   /* Return function status */
 547:./Libraries/STM32H7xx_HAL_Driver/Src/stm32h7xx_hal_tim_ex.c ****   return HAL_OK;
 1265              		.loc 1 547 10
 1266 013c 0023     		movs	r3, #0
 1267              	.L44:
 548:./Libraries/STM32H7xx_HAL_Driver/Src/stm32h7xx_hal_tim_ex.c **** }
 1268              		.loc 1 548 1
 1269 013e 1846     		mov	r0, r3
 1270 0140 1837     		adds	r7, r7, #24
 1271              	.LCFI45:
 1272              		.cfi_def_cfa_offset 8
 1273 0142 BD46     		mov	sp, r7
 1274              	.LCFI46:
 1275              		.cfi_def_cfa_register 13
 1276              		@ sp needed
 1277 0144 80BD     		pop	{r7, pc}
 1278              	.L56:
 1279 0146 00BF     		.align	2
 1280              	.L55:
 1281 0148 00000000 		.word	TIM_DMACaptureCplt
 1282 014c 00000000 		.word	TIM_DMACaptureHalfCplt
 1283 0150 00000000 		.word	TIM_DMAError
 1284 0154 00000140 		.word	1073807360
 1285 0158 00040040 		.word	1073742848
ARM GAS  /tmp/ccxx2olO.s 			page 33


 1286 015c 00080040 		.word	1073743872
 1287 0160 000C0040 		.word	1073744896
 1288 0164 00040140 		.word	1073808384
 1289 0168 00180040 		.word	1073747968
 1290 016c 07000100 		.word	65543
 1291              		.cfi_endproc
 1292              	.LFE339:
 1294              		.section	.text.HAL_TIMEx_HallSensor_Stop_DMA,"ax",%progbits
 1295              		.align	1
 1296              		.global	HAL_TIMEx_HallSensor_Stop_DMA
 1297              		.syntax unified
 1298              		.thumb
 1299              		.thumb_func
 1300              		.fpu fpv5-d16
 1302              	HAL_TIMEx_HallSensor_Stop_DMA:
 1303              	.LFB340:
 549:./Libraries/STM32H7xx_HAL_Driver/Src/stm32h7xx_hal_tim_ex.c **** 
 550:./Libraries/STM32H7xx_HAL_Driver/Src/stm32h7xx_hal_tim_ex.c **** /**
 551:./Libraries/STM32H7xx_HAL_Driver/Src/stm32h7xx_hal_tim_ex.c ****   * @brief  Stops the TIM Hall Sensor Interface in DMA mode.
 552:./Libraries/STM32H7xx_HAL_Driver/Src/stm32h7xx_hal_tim_ex.c ****   * @param  htim TIM Hall Sensor Interface handle
 553:./Libraries/STM32H7xx_HAL_Driver/Src/stm32h7xx_hal_tim_ex.c ****   * @retval HAL status
 554:./Libraries/STM32H7xx_HAL_Driver/Src/stm32h7xx_hal_tim_ex.c ****   */
 555:./Libraries/STM32H7xx_HAL_Driver/Src/stm32h7xx_hal_tim_ex.c **** HAL_StatusTypeDef HAL_TIMEx_HallSensor_Stop_DMA(TIM_HandleTypeDef *htim)
 556:./Libraries/STM32H7xx_HAL_Driver/Src/stm32h7xx_hal_tim_ex.c **** {
 1304              		.loc 1 556 1
 1305              		.cfi_startproc
 1306              		@ args = 0, pretend = 0, frame = 8
 1307              		@ frame_needed = 1, uses_anonymous_args = 0
 1308 0000 80B5     		push	{r7, lr}
 1309              	.LCFI47:
 1310              		.cfi_def_cfa_offset 8
 1311              		.cfi_offset 7, -8
 1312              		.cfi_offset 14, -4
 1313 0002 82B0     		sub	sp, sp, #8
 1314              	.LCFI48:
 1315              		.cfi_def_cfa_offset 16
 1316 0004 00AF     		add	r7, sp, #0
 1317              	.LCFI49:
 1318              		.cfi_def_cfa_register 7
 1319 0006 7860     		str	r0, [r7, #4]
 557:./Libraries/STM32H7xx_HAL_Driver/Src/stm32h7xx_hal_tim_ex.c ****   /* Check the parameters */
 558:./Libraries/STM32H7xx_HAL_Driver/Src/stm32h7xx_hal_tim_ex.c ****   assert_param(IS_TIM_HALL_SENSOR_INTERFACE_INSTANCE(htim->Instance));
 559:./Libraries/STM32H7xx_HAL_Driver/Src/stm32h7xx_hal_tim_ex.c **** 
 560:./Libraries/STM32H7xx_HAL_Driver/Src/stm32h7xx_hal_tim_ex.c ****   /* Disable the Input Capture channel 1
 561:./Libraries/STM32H7xx_HAL_Driver/Src/stm32h7xx_hal_tim_ex.c ****     (in the Hall Sensor Interface the three possible channels that can be used are TIM_CHANNEL_1, T
 562:./Libraries/STM32H7xx_HAL_Driver/Src/stm32h7xx_hal_tim_ex.c ****   TIM_CCxChannelCmd(htim->Instance, TIM_CHANNEL_1, TIM_CCx_DISABLE);
 1320              		.loc 1 562 3
 1321 0008 7B68     		ldr	r3, [r7, #4]
 1322 000a 1B68     		ldr	r3, [r3]
 1323 000c 0022     		movs	r2, #0
 1324 000e 0021     		movs	r1, #0
 1325 0010 1846     		mov	r0, r3
 1326 0012 FFF7FEFF 		bl	TIM_CCxChannelCmd
 563:./Libraries/STM32H7xx_HAL_Driver/Src/stm32h7xx_hal_tim_ex.c **** 
 564:./Libraries/STM32H7xx_HAL_Driver/Src/stm32h7xx_hal_tim_ex.c **** 
 565:./Libraries/STM32H7xx_HAL_Driver/Src/stm32h7xx_hal_tim_ex.c ****   /* Disable the capture compare Interrupts 1 event */
 566:./Libraries/STM32H7xx_HAL_Driver/Src/stm32h7xx_hal_tim_ex.c ****   __HAL_TIM_DISABLE_DMA(htim, TIM_DMA_CC1);
ARM GAS  /tmp/ccxx2olO.s 			page 34


 1327              		.loc 1 566 3
 1328 0016 7B68     		ldr	r3, [r7, #4]
 1329 0018 1B68     		ldr	r3, [r3]
 1330 001a DA68     		ldr	r2, [r3, #12]
 1331 001c 7B68     		ldr	r3, [r7, #4]
 1332 001e 1B68     		ldr	r3, [r3]
 1333 0020 22F40072 		bic	r2, r2, #512
 1334 0024 DA60     		str	r2, [r3, #12]
 567:./Libraries/STM32H7xx_HAL_Driver/Src/stm32h7xx_hal_tim_ex.c **** 
 568:./Libraries/STM32H7xx_HAL_Driver/Src/stm32h7xx_hal_tim_ex.c ****   (void)HAL_DMA_Abort_IT(htim->hdma[TIM_DMA_ID_CC1]);
 1335              		.loc 1 568 9
 1336 0026 7B68     		ldr	r3, [r7, #4]
 1337 0028 5B6A     		ldr	r3, [r3, #36]
 1338 002a 1846     		mov	r0, r3
 1339 002c FFF7FEFF 		bl	HAL_DMA_Abort_IT
 569:./Libraries/STM32H7xx_HAL_Driver/Src/stm32h7xx_hal_tim_ex.c **** 
 570:./Libraries/STM32H7xx_HAL_Driver/Src/stm32h7xx_hal_tim_ex.c ****   /* Disable the Peripheral */
 571:./Libraries/STM32H7xx_HAL_Driver/Src/stm32h7xx_hal_tim_ex.c ****   __HAL_TIM_DISABLE(htim);
 1340              		.loc 1 571 3
 1341 0030 7B68     		ldr	r3, [r7, #4]
 1342 0032 1B68     		ldr	r3, [r3]
 1343 0034 1A6A     		ldr	r2, [r3, #32]
 1344 0036 41F21113 		movw	r3, #4369
 1345 003a 1340     		ands	r3, r3, r2
 1346 003c 002B     		cmp	r3, #0
 1347 003e 0FD1     		bne	.L58
 1348              		.loc 1 571 3 is_stmt 0 discriminator 1
 1349 0040 7B68     		ldr	r3, [r7, #4]
 1350 0042 1B68     		ldr	r3, [r3]
 1351 0044 1A6A     		ldr	r2, [r3, #32]
 1352 0046 40F24443 		movw	r3, #1092
 1353 004a 1340     		ands	r3, r3, r2
 1354 004c 002B     		cmp	r3, #0
 1355 004e 07D1     		bne	.L58
 1356              		.loc 1 571 3 discriminator 2
 1357 0050 7B68     		ldr	r3, [r7, #4]
 1358 0052 1B68     		ldr	r3, [r3]
 1359 0054 1A68     		ldr	r2, [r3]
 1360 0056 7B68     		ldr	r3, [r7, #4]
 1361 0058 1B68     		ldr	r3, [r3]
 1362 005a 22F00102 		bic	r2, r2, #1
 1363 005e 1A60     		str	r2, [r3]
 1364              	.L58:
 572:./Libraries/STM32H7xx_HAL_Driver/Src/stm32h7xx_hal_tim_ex.c **** 
 573:./Libraries/STM32H7xx_HAL_Driver/Src/stm32h7xx_hal_tim_ex.c ****   /* Set the TIM channel state */
 574:./Libraries/STM32H7xx_HAL_Driver/Src/stm32h7xx_hal_tim_ex.c ****   TIM_CHANNEL_STATE_SET(htim, TIM_CHANNEL_1, HAL_TIM_CHANNEL_STATE_READY);
 1365              		.loc 1 574 3 is_stmt 1
 1366 0060 7B68     		ldr	r3, [r7, #4]
 1367 0062 0122     		movs	r2, #1
 1368 0064 83F83E20 		strb	r2, [r3, #62]
 575:./Libraries/STM32H7xx_HAL_Driver/Src/stm32h7xx_hal_tim_ex.c ****   TIM_CHANNEL_N_STATE_SET(htim, TIM_CHANNEL_1, HAL_TIM_CHANNEL_STATE_READY);
 1369              		.loc 1 575 3
 1370 0068 7B68     		ldr	r3, [r7, #4]
 1371 006a 0122     		movs	r2, #1
 1372 006c 83F84420 		strb	r2, [r3, #68]
 576:./Libraries/STM32H7xx_HAL_Driver/Src/stm32h7xx_hal_tim_ex.c **** 
 577:./Libraries/STM32H7xx_HAL_Driver/Src/stm32h7xx_hal_tim_ex.c ****   /* Return function status */
ARM GAS  /tmp/ccxx2olO.s 			page 35


 578:./Libraries/STM32H7xx_HAL_Driver/Src/stm32h7xx_hal_tim_ex.c ****   return HAL_OK;
 1373              		.loc 1 578 10
 1374 0070 0023     		movs	r3, #0
 579:./Libraries/STM32H7xx_HAL_Driver/Src/stm32h7xx_hal_tim_ex.c **** }
 1375              		.loc 1 579 1
 1376 0072 1846     		mov	r0, r3
 1377 0074 0837     		adds	r7, r7, #8
 1378              	.LCFI50:
 1379              		.cfi_def_cfa_offset 8
 1380 0076 BD46     		mov	sp, r7
 1381              	.LCFI51:
 1382              		.cfi_def_cfa_register 13
 1383              		@ sp needed
 1384 0078 80BD     		pop	{r7, pc}
 1385              		.cfi_endproc
 1386              	.LFE340:
 1388              		.section	.text.HAL_TIMEx_OCN_Start,"ax",%progbits
 1389              		.align	1
 1390              		.global	HAL_TIMEx_OCN_Start
 1391              		.syntax unified
 1392              		.thumb
 1393              		.thumb_func
 1394              		.fpu fpv5-d16
 1396              	HAL_TIMEx_OCN_Start:
 1397              	.LFB341:
 580:./Libraries/STM32H7xx_HAL_Driver/Src/stm32h7xx_hal_tim_ex.c **** 
 581:./Libraries/STM32H7xx_HAL_Driver/Src/stm32h7xx_hal_tim_ex.c **** /**
 582:./Libraries/STM32H7xx_HAL_Driver/Src/stm32h7xx_hal_tim_ex.c ****   * @}
 583:./Libraries/STM32H7xx_HAL_Driver/Src/stm32h7xx_hal_tim_ex.c ****   */
 584:./Libraries/STM32H7xx_HAL_Driver/Src/stm32h7xx_hal_tim_ex.c **** 
 585:./Libraries/STM32H7xx_HAL_Driver/Src/stm32h7xx_hal_tim_ex.c **** /** @defgroup TIMEx_Exported_Functions_Group2 Extended Timer Complementary Output Compare functions
 586:./Libraries/STM32H7xx_HAL_Driver/Src/stm32h7xx_hal_tim_ex.c ****   *  @brief   Timer Complementary Output Compare functions
 587:./Libraries/STM32H7xx_HAL_Driver/Src/stm32h7xx_hal_tim_ex.c ****   *
 588:./Libraries/STM32H7xx_HAL_Driver/Src/stm32h7xx_hal_tim_ex.c **** @verbatim
 589:./Libraries/STM32H7xx_HAL_Driver/Src/stm32h7xx_hal_tim_ex.c ****   ==============================================================================
 590:./Libraries/STM32H7xx_HAL_Driver/Src/stm32h7xx_hal_tim_ex.c ****               ##### Timer Complementary Output Compare functions #####
 591:./Libraries/STM32H7xx_HAL_Driver/Src/stm32h7xx_hal_tim_ex.c ****   ==============================================================================
 592:./Libraries/STM32H7xx_HAL_Driver/Src/stm32h7xx_hal_tim_ex.c ****   [..]
 593:./Libraries/STM32H7xx_HAL_Driver/Src/stm32h7xx_hal_tim_ex.c ****     This section provides functions allowing to:
 594:./Libraries/STM32H7xx_HAL_Driver/Src/stm32h7xx_hal_tim_ex.c ****     (+) Start the Complementary Output Compare/PWM.
 595:./Libraries/STM32H7xx_HAL_Driver/Src/stm32h7xx_hal_tim_ex.c ****     (+) Stop the Complementary Output Compare/PWM.
 596:./Libraries/STM32H7xx_HAL_Driver/Src/stm32h7xx_hal_tim_ex.c ****     (+) Start the Complementary Output Compare/PWM and enable interrupts.
 597:./Libraries/STM32H7xx_HAL_Driver/Src/stm32h7xx_hal_tim_ex.c ****     (+) Stop the Complementary Output Compare/PWM and disable interrupts.
 598:./Libraries/STM32H7xx_HAL_Driver/Src/stm32h7xx_hal_tim_ex.c ****     (+) Start the Complementary Output Compare/PWM and enable DMA transfers.
 599:./Libraries/STM32H7xx_HAL_Driver/Src/stm32h7xx_hal_tim_ex.c ****     (+) Stop the Complementary Output Compare/PWM and disable DMA transfers.
 600:./Libraries/STM32H7xx_HAL_Driver/Src/stm32h7xx_hal_tim_ex.c **** 
 601:./Libraries/STM32H7xx_HAL_Driver/Src/stm32h7xx_hal_tim_ex.c **** @endverbatim
 602:./Libraries/STM32H7xx_HAL_Driver/Src/stm32h7xx_hal_tim_ex.c ****   * @{
 603:./Libraries/STM32H7xx_HAL_Driver/Src/stm32h7xx_hal_tim_ex.c ****   */
 604:./Libraries/STM32H7xx_HAL_Driver/Src/stm32h7xx_hal_tim_ex.c **** 
 605:./Libraries/STM32H7xx_HAL_Driver/Src/stm32h7xx_hal_tim_ex.c **** /**
 606:./Libraries/STM32H7xx_HAL_Driver/Src/stm32h7xx_hal_tim_ex.c ****   * @brief  Starts the TIM Output Compare signal generation on the complementary
 607:./Libraries/STM32H7xx_HAL_Driver/Src/stm32h7xx_hal_tim_ex.c ****   *         output.
 608:./Libraries/STM32H7xx_HAL_Driver/Src/stm32h7xx_hal_tim_ex.c ****   * @param  htim TIM Output Compare handle
 609:./Libraries/STM32H7xx_HAL_Driver/Src/stm32h7xx_hal_tim_ex.c ****   * @param  Channel TIM Channel to be enabled
 610:./Libraries/STM32H7xx_HAL_Driver/Src/stm32h7xx_hal_tim_ex.c ****   *          This parameter can be one of the following values:
 611:./Libraries/STM32H7xx_HAL_Driver/Src/stm32h7xx_hal_tim_ex.c ****   *            @arg TIM_CHANNEL_1: TIM Channel 1 selected
ARM GAS  /tmp/ccxx2olO.s 			page 36


 612:./Libraries/STM32H7xx_HAL_Driver/Src/stm32h7xx_hal_tim_ex.c ****   *            @arg TIM_CHANNEL_2: TIM Channel 2 selected
 613:./Libraries/STM32H7xx_HAL_Driver/Src/stm32h7xx_hal_tim_ex.c ****   *            @arg TIM_CHANNEL_3: TIM Channel 3 selected
 614:./Libraries/STM32H7xx_HAL_Driver/Src/stm32h7xx_hal_tim_ex.c ****   * @retval HAL status
 615:./Libraries/STM32H7xx_HAL_Driver/Src/stm32h7xx_hal_tim_ex.c ****   */
 616:./Libraries/STM32H7xx_HAL_Driver/Src/stm32h7xx_hal_tim_ex.c **** HAL_StatusTypeDef HAL_TIMEx_OCN_Start(TIM_HandleTypeDef *htim, uint32_t Channel)
 617:./Libraries/STM32H7xx_HAL_Driver/Src/stm32h7xx_hal_tim_ex.c **** {
 1398              		.loc 1 617 1
 1399              		.cfi_startproc
 1400              		@ args = 0, pretend = 0, frame = 16
 1401              		@ frame_needed = 1, uses_anonymous_args = 0
 1402 0000 80B5     		push	{r7, lr}
 1403              	.LCFI52:
 1404              		.cfi_def_cfa_offset 8
 1405              		.cfi_offset 7, -8
 1406              		.cfi_offset 14, -4
 1407 0002 84B0     		sub	sp, sp, #16
 1408              	.LCFI53:
 1409              		.cfi_def_cfa_offset 24
 1410 0004 00AF     		add	r7, sp, #0
 1411              	.LCFI54:
 1412              		.cfi_def_cfa_register 7
 1413 0006 7860     		str	r0, [r7, #4]
 1414 0008 3960     		str	r1, [r7]
 618:./Libraries/STM32H7xx_HAL_Driver/Src/stm32h7xx_hal_tim_ex.c ****   uint32_t tmpsmcr;
 619:./Libraries/STM32H7xx_HAL_Driver/Src/stm32h7xx_hal_tim_ex.c **** 
 620:./Libraries/STM32H7xx_HAL_Driver/Src/stm32h7xx_hal_tim_ex.c ****   /* Check the parameters */
 621:./Libraries/STM32H7xx_HAL_Driver/Src/stm32h7xx_hal_tim_ex.c ****   assert_param(IS_TIM_CCXN_INSTANCE(htim->Instance, Channel));
 622:./Libraries/STM32H7xx_HAL_Driver/Src/stm32h7xx_hal_tim_ex.c **** 
 623:./Libraries/STM32H7xx_HAL_Driver/Src/stm32h7xx_hal_tim_ex.c ****   /* Check the TIM complementary channel state */
 624:./Libraries/STM32H7xx_HAL_Driver/Src/stm32h7xx_hal_tim_ex.c ****   if (TIM_CHANNEL_N_STATE_GET(htim, Channel) != HAL_TIM_CHANNEL_STATE_READY)
 1415              		.loc 1 624 46
 1416 000a 3B68     		ldr	r3, [r7]
 1417 000c 002B     		cmp	r3, #0
 1418 000e 09D1     		bne	.L61
 1419              		.loc 1 624 7 discriminator 1
 1420 0010 7B68     		ldr	r3, [r7, #4]
 1421 0012 93F84430 		ldrb	r3, [r3, #68]
 1422 0016 DBB2     		uxtb	r3, r3
 1423              		.loc 1 624 46 discriminator 1
 1424 0018 012B     		cmp	r3, #1
 1425 001a 14BF     		ite	ne
 1426 001c 0123     		movne	r3, #1
 1427 001e 0023     		moveq	r3, #0
 1428 0020 DBB2     		uxtb	r3, r3
 1429 0022 22E0     		b	.L62
 1430              	.L61:
 1431              		.loc 1 624 46 is_stmt 0 discriminator 2
 1432 0024 3B68     		ldr	r3, [r7]
 1433 0026 042B     		cmp	r3, #4
 1434 0028 09D1     		bne	.L63
 1435              		.loc 1 624 7 is_stmt 1 discriminator 4
 1436 002a 7B68     		ldr	r3, [r7, #4]
 1437 002c 93F84530 		ldrb	r3, [r3, #69]
 1438 0030 DBB2     		uxtb	r3, r3
 1439              		.loc 1 624 46 discriminator 4
 1440 0032 012B     		cmp	r3, #1
 1441 0034 14BF     		ite	ne
ARM GAS  /tmp/ccxx2olO.s 			page 37


 1442 0036 0123     		movne	r3, #1
 1443 0038 0023     		moveq	r3, #0
 1444 003a DBB2     		uxtb	r3, r3
 1445 003c 15E0     		b	.L62
 1446              	.L63:
 1447              		.loc 1 624 46 is_stmt 0 discriminator 5
 1448 003e 3B68     		ldr	r3, [r7]
 1449 0040 082B     		cmp	r3, #8
 1450 0042 09D1     		bne	.L65
 1451              		.loc 1 624 7 is_stmt 1 discriminator 7
 1452 0044 7B68     		ldr	r3, [r7, #4]
 1453 0046 93F84630 		ldrb	r3, [r3, #70]
 1454 004a DBB2     		uxtb	r3, r3
 1455              		.loc 1 624 46 discriminator 7
 1456 004c 012B     		cmp	r3, #1
 1457 004e 14BF     		ite	ne
 1458 0050 0123     		movne	r3, #1
 1459 0052 0023     		moveq	r3, #0
 1460 0054 DBB2     		uxtb	r3, r3
 1461 0056 08E0     		b	.L62
 1462              	.L65:
 1463              		.loc 1 624 7 discriminator 8
 1464 0058 7B68     		ldr	r3, [r7, #4]
 1465 005a 93F84730 		ldrb	r3, [r3, #71]
 1466 005e DBB2     		uxtb	r3, r3
 1467              		.loc 1 624 46 discriminator 8
 1468 0060 012B     		cmp	r3, #1
 1469 0062 14BF     		ite	ne
 1470 0064 0123     		movne	r3, #1
 1471 0066 0023     		moveq	r3, #0
 1472 0068 DBB2     		uxtb	r3, r3
 1473              	.L62:
 1474              		.loc 1 624 6 discriminator 12
 1475 006a 002B     		cmp	r3, #0
 1476 006c 01D0     		beq	.L67
 625:./Libraries/STM32H7xx_HAL_Driver/Src/stm32h7xx_hal_tim_ex.c ****   {
 626:./Libraries/STM32H7xx_HAL_Driver/Src/stm32h7xx_hal_tim_ex.c ****     return HAL_ERROR;
 1477              		.loc 1 626 12
 1478 006e 0123     		movs	r3, #1
 1479 0070 6EE0     		b	.L68
 1480              	.L67:
 627:./Libraries/STM32H7xx_HAL_Driver/Src/stm32h7xx_hal_tim_ex.c ****   }
 628:./Libraries/STM32H7xx_HAL_Driver/Src/stm32h7xx_hal_tim_ex.c **** 
 629:./Libraries/STM32H7xx_HAL_Driver/Src/stm32h7xx_hal_tim_ex.c ****   /* Set the TIM complementary channel state */
 630:./Libraries/STM32H7xx_HAL_Driver/Src/stm32h7xx_hal_tim_ex.c ****   TIM_CHANNEL_N_STATE_SET(htim, Channel, HAL_TIM_CHANNEL_STATE_BUSY);
 1481              		.loc 1 630 3
 1482 0072 3B68     		ldr	r3, [r7]
 1483 0074 002B     		cmp	r3, #0
 1484 0076 04D1     		bne	.L69
 1485              		.loc 1 630 3 is_stmt 0 discriminator 1
 1486 0078 7B68     		ldr	r3, [r7, #4]
 1487 007a 0222     		movs	r2, #2
 1488 007c 83F84420 		strb	r2, [r3, #68]
 1489 0080 13E0     		b	.L70
 1490              	.L69:
 1491              		.loc 1 630 3 discriminator 2
 1492 0082 3B68     		ldr	r3, [r7]
ARM GAS  /tmp/ccxx2olO.s 			page 38


 1493 0084 042B     		cmp	r3, #4
 1494 0086 04D1     		bne	.L71
 1495              		.loc 1 630 3 discriminator 3
 1496 0088 7B68     		ldr	r3, [r7, #4]
 1497 008a 0222     		movs	r2, #2
 1498 008c 83F84520 		strb	r2, [r3, #69]
 1499 0090 0BE0     		b	.L70
 1500              	.L71:
 1501              		.loc 1 630 3 discriminator 4
 1502 0092 3B68     		ldr	r3, [r7]
 1503 0094 082B     		cmp	r3, #8
 1504 0096 04D1     		bne	.L73
 1505              		.loc 1 630 3 discriminator 6
 1506 0098 7B68     		ldr	r3, [r7, #4]
 1507 009a 0222     		movs	r2, #2
 1508 009c 83F84620 		strb	r2, [r3, #70]
 1509 00a0 03E0     		b	.L70
 1510              	.L73:
 1511              		.loc 1 630 3 discriminator 7
 1512 00a2 7B68     		ldr	r3, [r7, #4]
 1513 00a4 0222     		movs	r2, #2
 1514 00a6 83F84720 		strb	r2, [r3, #71]
 1515              	.L70:
 631:./Libraries/STM32H7xx_HAL_Driver/Src/stm32h7xx_hal_tim_ex.c **** 
 632:./Libraries/STM32H7xx_HAL_Driver/Src/stm32h7xx_hal_tim_ex.c ****   /* Enable the Capture compare channel N */
 633:./Libraries/STM32H7xx_HAL_Driver/Src/stm32h7xx_hal_tim_ex.c ****   TIM_CCxNChannelCmd(htim->Instance, Channel, TIM_CCxN_ENABLE);
 1516              		.loc 1 633 3 is_stmt 1
 1517 00aa 7B68     		ldr	r3, [r7, #4]
 1518 00ac 1B68     		ldr	r3, [r3]
 1519 00ae 0422     		movs	r2, #4
 1520 00b0 3968     		ldr	r1, [r7]
 1521 00b2 1846     		mov	r0, r3
 1522 00b4 FFF7FEFF 		bl	TIM_CCxNChannelCmd
 634:./Libraries/STM32H7xx_HAL_Driver/Src/stm32h7xx_hal_tim_ex.c **** 
 635:./Libraries/STM32H7xx_HAL_Driver/Src/stm32h7xx_hal_tim_ex.c ****   /* Enable the Main Output */
 636:./Libraries/STM32H7xx_HAL_Driver/Src/stm32h7xx_hal_tim_ex.c ****   __HAL_TIM_MOE_ENABLE(htim);
 1523              		.loc 1 636 3
 1524 00b8 7B68     		ldr	r3, [r7, #4]
 1525 00ba 1B68     		ldr	r3, [r3]
 1526 00bc 5A6C     		ldr	r2, [r3, #68]
 1527 00be 7B68     		ldr	r3, [r7, #4]
 1528 00c0 1B68     		ldr	r3, [r3]
 1529 00c2 42F40042 		orr	r2, r2, #32768
 1530 00c6 5A64     		str	r2, [r3, #68]
 637:./Libraries/STM32H7xx_HAL_Driver/Src/stm32h7xx_hal_tim_ex.c **** 
 638:./Libraries/STM32H7xx_HAL_Driver/Src/stm32h7xx_hal_tim_ex.c ****   /* Enable the Peripheral, except in trigger mode where enable is automatically done with trigger 
 639:./Libraries/STM32H7xx_HAL_Driver/Src/stm32h7xx_hal_tim_ex.c ****   if (IS_TIM_SLAVE_INSTANCE(htim->Instance))
 1531              		.loc 1 639 7
 1532 00c8 7B68     		ldr	r3, [r7, #4]
 1533 00ca 1B68     		ldr	r3, [r3]
 1534              		.loc 1 639 6
 1535 00cc 224A     		ldr	r2, .L80
 1536 00ce 9342     		cmp	r3, r2
 1537 00d0 1DD0     		beq	.L75
 1538              		.loc 1 639 7 discriminator 1
 1539 00d2 7B68     		ldr	r3, [r7, #4]
 1540 00d4 1B68     		ldr	r3, [r3]
ARM GAS  /tmp/ccxx2olO.s 			page 39


 1541 00d6 B3F1804F 		cmp	r3, #1073741824
 1542 00da 18D0     		beq	.L75
 1543              		.loc 1 639 7 is_stmt 0 discriminator 2
 1544 00dc 7B68     		ldr	r3, [r7, #4]
 1545 00de 1B68     		ldr	r3, [r3]
 1546 00e0 1E4A     		ldr	r2, .L80+4
 1547 00e2 9342     		cmp	r3, r2
 1548 00e4 13D0     		beq	.L75
 1549              		.loc 1 639 7 discriminator 3
 1550 00e6 7B68     		ldr	r3, [r7, #4]
 1551 00e8 1B68     		ldr	r3, [r3]
 1552 00ea 1D4A     		ldr	r2, .L80+8
 1553 00ec 9342     		cmp	r3, r2
 1554 00ee 0ED0     		beq	.L75
 1555              		.loc 1 639 7 discriminator 4
 1556 00f0 7B68     		ldr	r3, [r7, #4]
 1557 00f2 1B68     		ldr	r3, [r3]
 1558 00f4 1B4A     		ldr	r2, .L80+12
 1559 00f6 9342     		cmp	r3, r2
 1560 00f8 09D0     		beq	.L75
 1561              		.loc 1 639 7 discriminator 5
 1562 00fa 7B68     		ldr	r3, [r7, #4]
 1563 00fc 1B68     		ldr	r3, [r3]
 1564 00fe 1A4A     		ldr	r2, .L80+16
 1565 0100 9342     		cmp	r3, r2
 1566 0102 04D0     		beq	.L75
 1567              		.loc 1 639 7 discriminator 6
 1568 0104 7B68     		ldr	r3, [r7, #4]
 1569 0106 1B68     		ldr	r3, [r3]
 1570 0108 184A     		ldr	r2, .L80+20
 1571 010a 9342     		cmp	r3, r2
 1572 010c 15D1     		bne	.L76
 1573              	.L75:
 640:./Libraries/STM32H7xx_HAL_Driver/Src/stm32h7xx_hal_tim_ex.c ****   {
 641:./Libraries/STM32H7xx_HAL_Driver/Src/stm32h7xx_hal_tim_ex.c ****     tmpsmcr = htim->Instance->SMCR & TIM_SMCR_SMS;
 1574              		.loc 1 641 19 is_stmt 1
 1575 010e 7B68     		ldr	r3, [r7, #4]
 1576 0110 1B68     		ldr	r3, [r3]
 1577              		.loc 1 641 29
 1578 0112 9A68     		ldr	r2, [r3, #8]
 1579              		.loc 1 641 13
 1580 0114 164B     		ldr	r3, .L80+24
 1581 0116 1340     		ands	r3, r3, r2
 1582 0118 FB60     		str	r3, [r7, #12]
 642:./Libraries/STM32H7xx_HAL_Driver/Src/stm32h7xx_hal_tim_ex.c ****     if (!IS_TIM_SLAVEMODE_TRIGGER_ENABLED(tmpsmcr))
 1583              		.loc 1 642 8
 1584 011a FB68     		ldr	r3, [r7, #12]
 1585 011c 062B     		cmp	r3, #6
 1586 011e 15D0     		beq	.L79
 1587              		.loc 1 642 9 discriminator 1
 1588 0120 FB68     		ldr	r3, [r7, #12]
 1589 0122 B3F5803F 		cmp	r3, #65536
 1590 0126 11D0     		beq	.L79
 643:./Libraries/STM32H7xx_HAL_Driver/Src/stm32h7xx_hal_tim_ex.c ****     {
 644:./Libraries/STM32H7xx_HAL_Driver/Src/stm32h7xx_hal_tim_ex.c ****       __HAL_TIM_ENABLE(htim);
 1591              		.loc 1 644 7
 1592 0128 7B68     		ldr	r3, [r7, #4]
ARM GAS  /tmp/ccxx2olO.s 			page 40


 1593 012a 1B68     		ldr	r3, [r3]
 1594 012c 1A68     		ldr	r2, [r3]
 1595 012e 7B68     		ldr	r3, [r7, #4]
 1596 0130 1B68     		ldr	r3, [r3]
 1597 0132 42F00102 		orr	r2, r2, #1
 1598 0136 1A60     		str	r2, [r3]
 642:./Libraries/STM32H7xx_HAL_Driver/Src/stm32h7xx_hal_tim_ex.c ****     if (!IS_TIM_SLAVEMODE_TRIGGER_ENABLED(tmpsmcr))
 1599              		.loc 1 642 8
 1600 0138 08E0     		b	.L79
 1601              	.L76:
 645:./Libraries/STM32H7xx_HAL_Driver/Src/stm32h7xx_hal_tim_ex.c ****     }
 646:./Libraries/STM32H7xx_HAL_Driver/Src/stm32h7xx_hal_tim_ex.c ****   }
 647:./Libraries/STM32H7xx_HAL_Driver/Src/stm32h7xx_hal_tim_ex.c ****   else
 648:./Libraries/STM32H7xx_HAL_Driver/Src/stm32h7xx_hal_tim_ex.c ****   {
 649:./Libraries/STM32H7xx_HAL_Driver/Src/stm32h7xx_hal_tim_ex.c ****     __HAL_TIM_ENABLE(htim);
 1602              		.loc 1 649 5
 1603 013a 7B68     		ldr	r3, [r7, #4]
 1604 013c 1B68     		ldr	r3, [r3]
 1605 013e 1A68     		ldr	r2, [r3]
 1606 0140 7B68     		ldr	r3, [r7, #4]
 1607 0142 1B68     		ldr	r3, [r3]
 1608 0144 42F00102 		orr	r2, r2, #1
 1609 0148 1A60     		str	r2, [r3]
 1610 014a 00E0     		b	.L78
 1611              	.L79:
 642:./Libraries/STM32H7xx_HAL_Driver/Src/stm32h7xx_hal_tim_ex.c ****     {
 1612              		.loc 1 642 8
 1613 014c 00BF     		nop
 1614              	.L78:
 650:./Libraries/STM32H7xx_HAL_Driver/Src/stm32h7xx_hal_tim_ex.c ****   }
 651:./Libraries/STM32H7xx_HAL_Driver/Src/stm32h7xx_hal_tim_ex.c **** 
 652:./Libraries/STM32H7xx_HAL_Driver/Src/stm32h7xx_hal_tim_ex.c ****   /* Return function status */
 653:./Libraries/STM32H7xx_HAL_Driver/Src/stm32h7xx_hal_tim_ex.c ****   return HAL_OK;
 1615              		.loc 1 653 10
 1616 014e 0023     		movs	r3, #0
 1617              	.L68:
 654:./Libraries/STM32H7xx_HAL_Driver/Src/stm32h7xx_hal_tim_ex.c **** }
 1618              		.loc 1 654 1
 1619 0150 1846     		mov	r0, r3
 1620 0152 1037     		adds	r7, r7, #16
 1621              	.LCFI55:
 1622              		.cfi_def_cfa_offset 8
 1623 0154 BD46     		mov	sp, r7
 1624              	.LCFI56:
 1625              		.cfi_def_cfa_register 13
 1626              		@ sp needed
 1627 0156 80BD     		pop	{r7, pc}
 1628              	.L81:
 1629              		.align	2
 1630              	.L80:
 1631 0158 00000140 		.word	1073807360
 1632 015c 00040040 		.word	1073742848
 1633 0160 00080040 		.word	1073743872
 1634 0164 000C0040 		.word	1073744896
 1635 0168 00040140 		.word	1073808384
 1636 016c 00180040 		.word	1073747968
 1637 0170 07000100 		.word	65543
ARM GAS  /tmp/ccxx2olO.s 			page 41


 1638              		.cfi_endproc
 1639              	.LFE341:
 1641              		.section	.text.HAL_TIMEx_OCN_Stop,"ax",%progbits
 1642              		.align	1
 1643              		.global	HAL_TIMEx_OCN_Stop
 1644              		.syntax unified
 1645              		.thumb
 1646              		.thumb_func
 1647              		.fpu fpv5-d16
 1649              	HAL_TIMEx_OCN_Stop:
 1650              	.LFB342:
 655:./Libraries/STM32H7xx_HAL_Driver/Src/stm32h7xx_hal_tim_ex.c **** 
 656:./Libraries/STM32H7xx_HAL_Driver/Src/stm32h7xx_hal_tim_ex.c **** /**
 657:./Libraries/STM32H7xx_HAL_Driver/Src/stm32h7xx_hal_tim_ex.c ****   * @brief  Stops the TIM Output Compare signal generation on the complementary
 658:./Libraries/STM32H7xx_HAL_Driver/Src/stm32h7xx_hal_tim_ex.c ****   *         output.
 659:./Libraries/STM32H7xx_HAL_Driver/Src/stm32h7xx_hal_tim_ex.c ****   * @param  htim TIM handle
 660:./Libraries/STM32H7xx_HAL_Driver/Src/stm32h7xx_hal_tim_ex.c ****   * @param  Channel TIM Channel to be disabled
 661:./Libraries/STM32H7xx_HAL_Driver/Src/stm32h7xx_hal_tim_ex.c ****   *          This parameter can be one of the following values:
 662:./Libraries/STM32H7xx_HAL_Driver/Src/stm32h7xx_hal_tim_ex.c ****   *            @arg TIM_CHANNEL_1: TIM Channel 1 selected
 663:./Libraries/STM32H7xx_HAL_Driver/Src/stm32h7xx_hal_tim_ex.c ****   *            @arg TIM_CHANNEL_2: TIM Channel 2 selected
 664:./Libraries/STM32H7xx_HAL_Driver/Src/stm32h7xx_hal_tim_ex.c ****   *            @arg TIM_CHANNEL_3: TIM Channel 3 selected
 665:./Libraries/STM32H7xx_HAL_Driver/Src/stm32h7xx_hal_tim_ex.c ****   * @retval HAL status
 666:./Libraries/STM32H7xx_HAL_Driver/Src/stm32h7xx_hal_tim_ex.c ****   */
 667:./Libraries/STM32H7xx_HAL_Driver/Src/stm32h7xx_hal_tim_ex.c **** HAL_StatusTypeDef HAL_TIMEx_OCN_Stop(TIM_HandleTypeDef *htim, uint32_t Channel)
 668:./Libraries/STM32H7xx_HAL_Driver/Src/stm32h7xx_hal_tim_ex.c **** {
 1651              		.loc 1 668 1
 1652              		.cfi_startproc
 1653              		@ args = 0, pretend = 0, frame = 8
 1654              		@ frame_needed = 1, uses_anonymous_args = 0
 1655 0000 80B5     		push	{r7, lr}
 1656              	.LCFI57:
 1657              		.cfi_def_cfa_offset 8
 1658              		.cfi_offset 7, -8
 1659              		.cfi_offset 14, -4
 1660 0002 82B0     		sub	sp, sp, #8
 1661              	.LCFI58:
 1662              		.cfi_def_cfa_offset 16
 1663 0004 00AF     		add	r7, sp, #0
 1664              	.LCFI59:
 1665              		.cfi_def_cfa_register 7
 1666 0006 7860     		str	r0, [r7, #4]
 1667 0008 3960     		str	r1, [r7]
 669:./Libraries/STM32H7xx_HAL_Driver/Src/stm32h7xx_hal_tim_ex.c ****   /* Check the parameters */
 670:./Libraries/STM32H7xx_HAL_Driver/Src/stm32h7xx_hal_tim_ex.c ****   assert_param(IS_TIM_CCXN_INSTANCE(htim->Instance, Channel));
 671:./Libraries/STM32H7xx_HAL_Driver/Src/stm32h7xx_hal_tim_ex.c **** 
 672:./Libraries/STM32H7xx_HAL_Driver/Src/stm32h7xx_hal_tim_ex.c ****   /* Disable the Capture compare channel N */
 673:./Libraries/STM32H7xx_HAL_Driver/Src/stm32h7xx_hal_tim_ex.c ****   TIM_CCxNChannelCmd(htim->Instance, Channel, TIM_CCxN_DISABLE);
 1668              		.loc 1 673 3
 1669 000a 7B68     		ldr	r3, [r7, #4]
 1670 000c 1B68     		ldr	r3, [r3]
 1671 000e 0022     		movs	r2, #0
 1672 0010 3968     		ldr	r1, [r7]
 1673 0012 1846     		mov	r0, r3
 1674 0014 FFF7FEFF 		bl	TIM_CCxNChannelCmd
 674:./Libraries/STM32H7xx_HAL_Driver/Src/stm32h7xx_hal_tim_ex.c **** 
 675:./Libraries/STM32H7xx_HAL_Driver/Src/stm32h7xx_hal_tim_ex.c ****   /* Disable the Main Output */
 676:./Libraries/STM32H7xx_HAL_Driver/Src/stm32h7xx_hal_tim_ex.c ****   __HAL_TIM_MOE_DISABLE(htim);
ARM GAS  /tmp/ccxx2olO.s 			page 42


 1675              		.loc 1 676 3
 1676 0018 7B68     		ldr	r3, [r7, #4]
 1677 001a 1B68     		ldr	r3, [r3]
 1678 001c 1A6A     		ldr	r2, [r3, #32]
 1679 001e 41F21113 		movw	r3, #4369
 1680 0022 1340     		ands	r3, r3, r2
 1681 0024 002B     		cmp	r3, #0
 1682 0026 0FD1     		bne	.L83
 1683              		.loc 1 676 3 is_stmt 0 discriminator 1
 1684 0028 7B68     		ldr	r3, [r7, #4]
 1685 002a 1B68     		ldr	r3, [r3]
 1686 002c 1A6A     		ldr	r2, [r3, #32]
 1687 002e 40F24443 		movw	r3, #1092
 1688 0032 1340     		ands	r3, r3, r2
 1689 0034 002B     		cmp	r3, #0
 1690 0036 07D1     		bne	.L83
 1691              		.loc 1 676 3 discriminator 2
 1692 0038 7B68     		ldr	r3, [r7, #4]
 1693 003a 1B68     		ldr	r3, [r3]
 1694 003c 5A6C     		ldr	r2, [r3, #68]
 1695 003e 7B68     		ldr	r3, [r7, #4]
 1696 0040 1B68     		ldr	r3, [r3]
 1697 0042 22F40042 		bic	r2, r2, #32768
 1698 0046 5A64     		str	r2, [r3, #68]
 1699              	.L83:
 677:./Libraries/STM32H7xx_HAL_Driver/Src/stm32h7xx_hal_tim_ex.c **** 
 678:./Libraries/STM32H7xx_HAL_Driver/Src/stm32h7xx_hal_tim_ex.c ****   /* Disable the Peripheral */
 679:./Libraries/STM32H7xx_HAL_Driver/Src/stm32h7xx_hal_tim_ex.c ****   __HAL_TIM_DISABLE(htim);
 1700              		.loc 1 679 3 is_stmt 1
 1701 0048 7B68     		ldr	r3, [r7, #4]
 1702 004a 1B68     		ldr	r3, [r3]
 1703 004c 1A6A     		ldr	r2, [r3, #32]
 1704 004e 41F21113 		movw	r3, #4369
 1705 0052 1340     		ands	r3, r3, r2
 1706 0054 002B     		cmp	r3, #0
 1707 0056 0FD1     		bne	.L84
 1708              		.loc 1 679 3 is_stmt 0 discriminator 1
 1709 0058 7B68     		ldr	r3, [r7, #4]
 1710 005a 1B68     		ldr	r3, [r3]
 1711 005c 1A6A     		ldr	r2, [r3, #32]
 1712 005e 40F24443 		movw	r3, #1092
 1713 0062 1340     		ands	r3, r3, r2
 1714 0064 002B     		cmp	r3, #0
 1715 0066 07D1     		bne	.L84
 1716              		.loc 1 679 3 discriminator 2
 1717 0068 7B68     		ldr	r3, [r7, #4]
 1718 006a 1B68     		ldr	r3, [r3]
 1719 006c 1A68     		ldr	r2, [r3]
 1720 006e 7B68     		ldr	r3, [r7, #4]
 1721 0070 1B68     		ldr	r3, [r3]
 1722 0072 22F00102 		bic	r2, r2, #1
 1723 0076 1A60     		str	r2, [r3]
 1724              	.L84:
 680:./Libraries/STM32H7xx_HAL_Driver/Src/stm32h7xx_hal_tim_ex.c **** 
 681:./Libraries/STM32H7xx_HAL_Driver/Src/stm32h7xx_hal_tim_ex.c ****   /* Set the TIM complementary channel state */
 682:./Libraries/STM32H7xx_HAL_Driver/Src/stm32h7xx_hal_tim_ex.c ****   TIM_CHANNEL_N_STATE_SET(htim, Channel, HAL_TIM_CHANNEL_STATE_READY);
 1725              		.loc 1 682 3 is_stmt 1
ARM GAS  /tmp/ccxx2olO.s 			page 43


 1726 0078 3B68     		ldr	r3, [r7]
 1727 007a 002B     		cmp	r3, #0
 1728 007c 04D1     		bne	.L85
 1729              		.loc 1 682 3 is_stmt 0 discriminator 1
 1730 007e 7B68     		ldr	r3, [r7, #4]
 1731 0080 0122     		movs	r2, #1
 1732 0082 83F84420 		strb	r2, [r3, #68]
 1733 0086 13E0     		b	.L86
 1734              	.L85:
 1735              		.loc 1 682 3 discriminator 2
 1736 0088 3B68     		ldr	r3, [r7]
 1737 008a 042B     		cmp	r3, #4
 1738 008c 04D1     		bne	.L87
 1739              		.loc 1 682 3 discriminator 3
 1740 008e 7B68     		ldr	r3, [r7, #4]
 1741 0090 0122     		movs	r2, #1
 1742 0092 83F84520 		strb	r2, [r3, #69]
 1743 0096 0BE0     		b	.L86
 1744              	.L87:
 1745              		.loc 1 682 3 discriminator 4
 1746 0098 3B68     		ldr	r3, [r7]
 1747 009a 082B     		cmp	r3, #8
 1748 009c 04D1     		bne	.L89
 1749              		.loc 1 682 3 discriminator 6
 1750 009e 7B68     		ldr	r3, [r7, #4]
 1751 00a0 0122     		movs	r2, #1
 1752 00a2 83F84620 		strb	r2, [r3, #70]
 1753 00a6 03E0     		b	.L86
 1754              	.L89:
 1755              		.loc 1 682 3 discriminator 7
 1756 00a8 7B68     		ldr	r3, [r7, #4]
 1757 00aa 0122     		movs	r2, #1
 1758 00ac 83F84720 		strb	r2, [r3, #71]
 1759              	.L86:
 683:./Libraries/STM32H7xx_HAL_Driver/Src/stm32h7xx_hal_tim_ex.c **** 
 684:./Libraries/STM32H7xx_HAL_Driver/Src/stm32h7xx_hal_tim_ex.c ****   /* Return function status */
 685:./Libraries/STM32H7xx_HAL_Driver/Src/stm32h7xx_hal_tim_ex.c ****   return HAL_OK;
 1760              		.loc 1 685 10 is_stmt 1
 1761 00b0 0023     		movs	r3, #0
 686:./Libraries/STM32H7xx_HAL_Driver/Src/stm32h7xx_hal_tim_ex.c **** }
 1762              		.loc 1 686 1
 1763 00b2 1846     		mov	r0, r3
 1764 00b4 0837     		adds	r7, r7, #8
 1765              	.LCFI60:
 1766              		.cfi_def_cfa_offset 8
 1767 00b6 BD46     		mov	sp, r7
 1768              	.LCFI61:
 1769              		.cfi_def_cfa_register 13
 1770              		@ sp needed
 1771 00b8 80BD     		pop	{r7, pc}
 1772              		.cfi_endproc
 1773              	.LFE342:
 1775              		.section	.text.HAL_TIMEx_OCN_Start_IT,"ax",%progbits
 1776              		.align	1
 1777              		.global	HAL_TIMEx_OCN_Start_IT
 1778              		.syntax unified
 1779              		.thumb
ARM GAS  /tmp/ccxx2olO.s 			page 44


 1780              		.thumb_func
 1781              		.fpu fpv5-d16
 1783              	HAL_TIMEx_OCN_Start_IT:
 1784              	.LFB343:
 687:./Libraries/STM32H7xx_HAL_Driver/Src/stm32h7xx_hal_tim_ex.c **** 
 688:./Libraries/STM32H7xx_HAL_Driver/Src/stm32h7xx_hal_tim_ex.c **** /**
 689:./Libraries/STM32H7xx_HAL_Driver/Src/stm32h7xx_hal_tim_ex.c ****   * @brief  Starts the TIM Output Compare signal generation in interrupt mode
 690:./Libraries/STM32H7xx_HAL_Driver/Src/stm32h7xx_hal_tim_ex.c ****   *         on the complementary output.
 691:./Libraries/STM32H7xx_HAL_Driver/Src/stm32h7xx_hal_tim_ex.c ****   * @param  htim TIM OC handle
 692:./Libraries/STM32H7xx_HAL_Driver/Src/stm32h7xx_hal_tim_ex.c ****   * @param  Channel TIM Channel to be enabled
 693:./Libraries/STM32H7xx_HAL_Driver/Src/stm32h7xx_hal_tim_ex.c ****   *          This parameter can be one of the following values:
 694:./Libraries/STM32H7xx_HAL_Driver/Src/stm32h7xx_hal_tim_ex.c ****   *            @arg TIM_CHANNEL_1: TIM Channel 1 selected
 695:./Libraries/STM32H7xx_HAL_Driver/Src/stm32h7xx_hal_tim_ex.c ****   *            @arg TIM_CHANNEL_2: TIM Channel 2 selected
 696:./Libraries/STM32H7xx_HAL_Driver/Src/stm32h7xx_hal_tim_ex.c ****   *            @arg TIM_CHANNEL_3: TIM Channel 3 selected
 697:./Libraries/STM32H7xx_HAL_Driver/Src/stm32h7xx_hal_tim_ex.c ****   * @retval HAL status
 698:./Libraries/STM32H7xx_HAL_Driver/Src/stm32h7xx_hal_tim_ex.c ****   */
 699:./Libraries/STM32H7xx_HAL_Driver/Src/stm32h7xx_hal_tim_ex.c **** HAL_StatusTypeDef HAL_TIMEx_OCN_Start_IT(TIM_HandleTypeDef *htim, uint32_t Channel)
 700:./Libraries/STM32H7xx_HAL_Driver/Src/stm32h7xx_hal_tim_ex.c **** {
 1785              		.loc 1 700 1
 1786              		.cfi_startproc
 1787              		@ args = 0, pretend = 0, frame = 16
 1788              		@ frame_needed = 1, uses_anonymous_args = 0
 1789 0000 80B5     		push	{r7, lr}
 1790              	.LCFI62:
 1791              		.cfi_def_cfa_offset 8
 1792              		.cfi_offset 7, -8
 1793              		.cfi_offset 14, -4
 1794 0002 84B0     		sub	sp, sp, #16
 1795              	.LCFI63:
 1796              		.cfi_def_cfa_offset 24
 1797 0004 00AF     		add	r7, sp, #0
 1798              	.LCFI64:
 1799              		.cfi_def_cfa_register 7
 1800 0006 7860     		str	r0, [r7, #4]
 1801 0008 3960     		str	r1, [r7]
 701:./Libraries/STM32H7xx_HAL_Driver/Src/stm32h7xx_hal_tim_ex.c ****   uint32_t tmpsmcr;
 702:./Libraries/STM32H7xx_HAL_Driver/Src/stm32h7xx_hal_tim_ex.c **** 
 703:./Libraries/STM32H7xx_HAL_Driver/Src/stm32h7xx_hal_tim_ex.c ****   /* Check the parameters */
 704:./Libraries/STM32H7xx_HAL_Driver/Src/stm32h7xx_hal_tim_ex.c ****   assert_param(IS_TIM_CCXN_INSTANCE(htim->Instance, Channel));
 705:./Libraries/STM32H7xx_HAL_Driver/Src/stm32h7xx_hal_tim_ex.c **** 
 706:./Libraries/STM32H7xx_HAL_Driver/Src/stm32h7xx_hal_tim_ex.c ****   /* Check the TIM complementary channel state */
 707:./Libraries/STM32H7xx_HAL_Driver/Src/stm32h7xx_hal_tim_ex.c ****   if (TIM_CHANNEL_N_STATE_GET(htim, Channel) != HAL_TIM_CHANNEL_STATE_READY)
 1802              		.loc 1 707 46
 1803 000a 3B68     		ldr	r3, [r7]
 1804 000c 002B     		cmp	r3, #0
 1805 000e 09D1     		bne	.L93
 1806              		.loc 1 707 7 discriminator 1
 1807 0010 7B68     		ldr	r3, [r7, #4]
 1808 0012 93F84430 		ldrb	r3, [r3, #68]
 1809 0016 DBB2     		uxtb	r3, r3
 1810              		.loc 1 707 46 discriminator 1
 1811 0018 012B     		cmp	r3, #1
 1812 001a 14BF     		ite	ne
 1813 001c 0123     		movne	r3, #1
 1814 001e 0023     		moveq	r3, #0
 1815 0020 DBB2     		uxtb	r3, r3
 1816 0022 22E0     		b	.L94
ARM GAS  /tmp/ccxx2olO.s 			page 45


 1817              	.L93:
 1818              		.loc 1 707 46 is_stmt 0 discriminator 2
 1819 0024 3B68     		ldr	r3, [r7]
 1820 0026 042B     		cmp	r3, #4
 1821 0028 09D1     		bne	.L95
 1822              		.loc 1 707 7 is_stmt 1 discriminator 4
 1823 002a 7B68     		ldr	r3, [r7, #4]
 1824 002c 93F84530 		ldrb	r3, [r3, #69]
 1825 0030 DBB2     		uxtb	r3, r3
 1826              		.loc 1 707 46 discriminator 4
 1827 0032 012B     		cmp	r3, #1
 1828 0034 14BF     		ite	ne
 1829 0036 0123     		movne	r3, #1
 1830 0038 0023     		moveq	r3, #0
 1831 003a DBB2     		uxtb	r3, r3
 1832 003c 15E0     		b	.L94
 1833              	.L95:
 1834              		.loc 1 707 46 is_stmt 0 discriminator 5
 1835 003e 3B68     		ldr	r3, [r7]
 1836 0040 082B     		cmp	r3, #8
 1837 0042 09D1     		bne	.L97
 1838              		.loc 1 707 7 is_stmt 1 discriminator 7
 1839 0044 7B68     		ldr	r3, [r7, #4]
 1840 0046 93F84630 		ldrb	r3, [r3, #70]
 1841 004a DBB2     		uxtb	r3, r3
 1842              		.loc 1 707 46 discriminator 7
 1843 004c 012B     		cmp	r3, #1
 1844 004e 14BF     		ite	ne
 1845 0050 0123     		movne	r3, #1
 1846 0052 0023     		moveq	r3, #0
 1847 0054 DBB2     		uxtb	r3, r3
 1848 0056 08E0     		b	.L94
 1849              	.L97:
 1850              		.loc 1 707 7 discriminator 8
 1851 0058 7B68     		ldr	r3, [r7, #4]
 1852 005a 93F84730 		ldrb	r3, [r3, #71]
 1853 005e DBB2     		uxtb	r3, r3
 1854              		.loc 1 707 46 discriminator 8
 1855 0060 012B     		cmp	r3, #1
 1856 0062 14BF     		ite	ne
 1857 0064 0123     		movne	r3, #1
 1858 0066 0023     		moveq	r3, #0
 1859 0068 DBB2     		uxtb	r3, r3
 1860              	.L94:
 1861              		.loc 1 707 6 discriminator 12
 1862 006a 002B     		cmp	r3, #0
 1863 006c 01D0     		beq	.L99
 708:./Libraries/STM32H7xx_HAL_Driver/Src/stm32h7xx_hal_tim_ex.c ****   {
 709:./Libraries/STM32H7xx_HAL_Driver/Src/stm32h7xx_hal_tim_ex.c ****     return HAL_ERROR;
 1864              		.loc 1 709 12
 1865 006e 0123     		movs	r3, #1
 1866 0070 9FE0     		b	.L100
 1867              	.L99:
 710:./Libraries/STM32H7xx_HAL_Driver/Src/stm32h7xx_hal_tim_ex.c ****   }
 711:./Libraries/STM32H7xx_HAL_Driver/Src/stm32h7xx_hal_tim_ex.c **** 
 712:./Libraries/STM32H7xx_HAL_Driver/Src/stm32h7xx_hal_tim_ex.c ****   /* Set the TIM complementary channel state */
 713:./Libraries/STM32H7xx_HAL_Driver/Src/stm32h7xx_hal_tim_ex.c ****   TIM_CHANNEL_N_STATE_SET(htim, Channel, HAL_TIM_CHANNEL_STATE_BUSY);
ARM GAS  /tmp/ccxx2olO.s 			page 46


 1868              		.loc 1 713 3
 1869 0072 3B68     		ldr	r3, [r7]
 1870 0074 002B     		cmp	r3, #0
 1871 0076 04D1     		bne	.L101
 1872              		.loc 1 713 3 is_stmt 0 discriminator 1
 1873 0078 7B68     		ldr	r3, [r7, #4]
 1874 007a 0222     		movs	r2, #2
 1875 007c 83F84420 		strb	r2, [r3, #68]
 1876 0080 13E0     		b	.L102
 1877              	.L101:
 1878              		.loc 1 713 3 discriminator 2
 1879 0082 3B68     		ldr	r3, [r7]
 1880 0084 042B     		cmp	r3, #4
 1881 0086 04D1     		bne	.L103
 1882              		.loc 1 713 3 discriminator 3
 1883 0088 7B68     		ldr	r3, [r7, #4]
 1884 008a 0222     		movs	r2, #2
 1885 008c 83F84520 		strb	r2, [r3, #69]
 1886 0090 0BE0     		b	.L102
 1887              	.L103:
 1888              		.loc 1 713 3 discriminator 4
 1889 0092 3B68     		ldr	r3, [r7]
 1890 0094 082B     		cmp	r3, #8
 1891 0096 04D1     		bne	.L105
 1892              		.loc 1 713 3 discriminator 6
 1893 0098 7B68     		ldr	r3, [r7, #4]
 1894 009a 0222     		movs	r2, #2
 1895 009c 83F84620 		strb	r2, [r3, #70]
 1896 00a0 03E0     		b	.L102
 1897              	.L105:
 1898              		.loc 1 713 3 discriminator 7
 1899 00a2 7B68     		ldr	r3, [r7, #4]
 1900 00a4 0222     		movs	r2, #2
 1901 00a6 83F84720 		strb	r2, [r3, #71]
 1902              	.L102:
 714:./Libraries/STM32H7xx_HAL_Driver/Src/stm32h7xx_hal_tim_ex.c **** 
 715:./Libraries/STM32H7xx_HAL_Driver/Src/stm32h7xx_hal_tim_ex.c ****   switch (Channel)
 1903              		.loc 1 715 3 is_stmt 1
 1904 00aa 3B68     		ldr	r3, [r7]
 1905 00ac 082B     		cmp	r3, #8
 1906 00ae 1BD0     		beq	.L107
 1907 00b0 3B68     		ldr	r3, [r7]
 1908 00b2 082B     		cmp	r3, #8
 1909 00b4 21D8     		bhi	.L116
 1910 00b6 3B68     		ldr	r3, [r7]
 1911 00b8 002B     		cmp	r3, #0
 1912 00ba 03D0     		beq	.L109
 1913 00bc 3B68     		ldr	r3, [r7]
 1914 00be 042B     		cmp	r3, #4
 1915 00c0 09D0     		beq	.L110
 716:./Libraries/STM32H7xx_HAL_Driver/Src/stm32h7xx_hal_tim_ex.c ****   {
 717:./Libraries/STM32H7xx_HAL_Driver/Src/stm32h7xx_hal_tim_ex.c ****     case TIM_CHANNEL_1:
 718:./Libraries/STM32H7xx_HAL_Driver/Src/stm32h7xx_hal_tim_ex.c ****     {
 719:./Libraries/STM32H7xx_HAL_Driver/Src/stm32h7xx_hal_tim_ex.c ****       /* Enable the TIM Output Compare interrupt */
 720:./Libraries/STM32H7xx_HAL_Driver/Src/stm32h7xx_hal_tim_ex.c ****       __HAL_TIM_ENABLE_IT(htim, TIM_IT_CC1);
 721:./Libraries/STM32H7xx_HAL_Driver/Src/stm32h7xx_hal_tim_ex.c ****       break;
 722:./Libraries/STM32H7xx_HAL_Driver/Src/stm32h7xx_hal_tim_ex.c ****     }
ARM GAS  /tmp/ccxx2olO.s 			page 47


 723:./Libraries/STM32H7xx_HAL_Driver/Src/stm32h7xx_hal_tim_ex.c **** 
 724:./Libraries/STM32H7xx_HAL_Driver/Src/stm32h7xx_hal_tim_ex.c ****     case TIM_CHANNEL_2:
 725:./Libraries/STM32H7xx_HAL_Driver/Src/stm32h7xx_hal_tim_ex.c ****     {
 726:./Libraries/STM32H7xx_HAL_Driver/Src/stm32h7xx_hal_tim_ex.c ****       /* Enable the TIM Output Compare interrupt */
 727:./Libraries/STM32H7xx_HAL_Driver/Src/stm32h7xx_hal_tim_ex.c ****       __HAL_TIM_ENABLE_IT(htim, TIM_IT_CC2);
 728:./Libraries/STM32H7xx_HAL_Driver/Src/stm32h7xx_hal_tim_ex.c ****       break;
 729:./Libraries/STM32H7xx_HAL_Driver/Src/stm32h7xx_hal_tim_ex.c ****     }
 730:./Libraries/STM32H7xx_HAL_Driver/Src/stm32h7xx_hal_tim_ex.c **** 
 731:./Libraries/STM32H7xx_HAL_Driver/Src/stm32h7xx_hal_tim_ex.c ****     case TIM_CHANNEL_3:
 732:./Libraries/STM32H7xx_HAL_Driver/Src/stm32h7xx_hal_tim_ex.c ****     {
 733:./Libraries/STM32H7xx_HAL_Driver/Src/stm32h7xx_hal_tim_ex.c ****       /* Enable the TIM Output Compare interrupt */
 734:./Libraries/STM32H7xx_HAL_Driver/Src/stm32h7xx_hal_tim_ex.c ****       __HAL_TIM_ENABLE_IT(htim, TIM_IT_CC3);
 735:./Libraries/STM32H7xx_HAL_Driver/Src/stm32h7xx_hal_tim_ex.c ****       break;
 736:./Libraries/STM32H7xx_HAL_Driver/Src/stm32h7xx_hal_tim_ex.c ****     }
 737:./Libraries/STM32H7xx_HAL_Driver/Src/stm32h7xx_hal_tim_ex.c **** 
 738:./Libraries/STM32H7xx_HAL_Driver/Src/stm32h7xx_hal_tim_ex.c **** 
 739:./Libraries/STM32H7xx_HAL_Driver/Src/stm32h7xx_hal_tim_ex.c ****     default:
 740:./Libraries/STM32H7xx_HAL_Driver/Src/stm32h7xx_hal_tim_ex.c ****       break;
 1916              		.loc 1 740 7
 1917 00c2 1AE0     		b	.L116
 1918              	.L109:
 720:./Libraries/STM32H7xx_HAL_Driver/Src/stm32h7xx_hal_tim_ex.c ****       break;
 1919              		.loc 1 720 7
 1920 00c4 7B68     		ldr	r3, [r7, #4]
 1921 00c6 1B68     		ldr	r3, [r3]
 1922 00c8 DA68     		ldr	r2, [r3, #12]
 1923 00ca 7B68     		ldr	r3, [r7, #4]
 1924 00cc 1B68     		ldr	r3, [r3]
 1925 00ce 42F00202 		orr	r2, r2, #2
 1926 00d2 DA60     		str	r2, [r3, #12]
 721:./Libraries/STM32H7xx_HAL_Driver/Src/stm32h7xx_hal_tim_ex.c ****     }
 1927              		.loc 1 721 7
 1928 00d4 12E0     		b	.L111
 1929              	.L110:
 727:./Libraries/STM32H7xx_HAL_Driver/Src/stm32h7xx_hal_tim_ex.c ****       break;
 1930              		.loc 1 727 7
 1931 00d6 7B68     		ldr	r3, [r7, #4]
 1932 00d8 1B68     		ldr	r3, [r3]
 1933 00da DA68     		ldr	r2, [r3, #12]
 1934 00dc 7B68     		ldr	r3, [r7, #4]
 1935 00de 1B68     		ldr	r3, [r3]
 1936 00e0 42F00402 		orr	r2, r2, #4
 1937 00e4 DA60     		str	r2, [r3, #12]
 728:./Libraries/STM32H7xx_HAL_Driver/Src/stm32h7xx_hal_tim_ex.c ****     }
 1938              		.loc 1 728 7
 1939 00e6 09E0     		b	.L111
 1940              	.L107:
 734:./Libraries/STM32H7xx_HAL_Driver/Src/stm32h7xx_hal_tim_ex.c ****       break;
 1941              		.loc 1 734 7
 1942 00e8 7B68     		ldr	r3, [r7, #4]
 1943 00ea 1B68     		ldr	r3, [r3]
 1944 00ec DA68     		ldr	r2, [r3, #12]
 1945 00ee 7B68     		ldr	r3, [r7, #4]
 1946 00f0 1B68     		ldr	r3, [r3]
 1947 00f2 42F00802 		orr	r2, r2, #8
 1948 00f6 DA60     		str	r2, [r3, #12]
 735:./Libraries/STM32H7xx_HAL_Driver/Src/stm32h7xx_hal_tim_ex.c ****     }
ARM GAS  /tmp/ccxx2olO.s 			page 48


 1949              		.loc 1 735 7
 1950 00f8 00E0     		b	.L111
 1951              	.L116:
 1952              		.loc 1 740 7
 1953 00fa 00BF     		nop
 1954              	.L111:
 741:./Libraries/STM32H7xx_HAL_Driver/Src/stm32h7xx_hal_tim_ex.c ****   }
 742:./Libraries/STM32H7xx_HAL_Driver/Src/stm32h7xx_hal_tim_ex.c **** 
 743:./Libraries/STM32H7xx_HAL_Driver/Src/stm32h7xx_hal_tim_ex.c ****   /* Enable the TIM Break interrupt */
 744:./Libraries/STM32H7xx_HAL_Driver/Src/stm32h7xx_hal_tim_ex.c ****   __HAL_TIM_ENABLE_IT(htim, TIM_IT_BREAK);
 1955              		.loc 1 744 3
 1956 00fc 7B68     		ldr	r3, [r7, #4]
 1957 00fe 1B68     		ldr	r3, [r3]
 1958 0100 DA68     		ldr	r2, [r3, #12]
 1959 0102 7B68     		ldr	r3, [r7, #4]
 1960 0104 1B68     		ldr	r3, [r3]
 1961 0106 42F08002 		orr	r2, r2, #128
 1962 010a DA60     		str	r2, [r3, #12]
 745:./Libraries/STM32H7xx_HAL_Driver/Src/stm32h7xx_hal_tim_ex.c **** 
 746:./Libraries/STM32H7xx_HAL_Driver/Src/stm32h7xx_hal_tim_ex.c ****   /* Enable the Capture compare channel N */
 747:./Libraries/STM32H7xx_HAL_Driver/Src/stm32h7xx_hal_tim_ex.c ****   TIM_CCxNChannelCmd(htim->Instance, Channel, TIM_CCxN_ENABLE);
 1963              		.loc 1 747 3
 1964 010c 7B68     		ldr	r3, [r7, #4]
 1965 010e 1B68     		ldr	r3, [r3]
 1966 0110 0422     		movs	r2, #4
 1967 0112 3968     		ldr	r1, [r7]
 1968 0114 1846     		mov	r0, r3
 1969 0116 FFF7FEFF 		bl	TIM_CCxNChannelCmd
 748:./Libraries/STM32H7xx_HAL_Driver/Src/stm32h7xx_hal_tim_ex.c **** 
 749:./Libraries/STM32H7xx_HAL_Driver/Src/stm32h7xx_hal_tim_ex.c ****   /* Enable the Main Output */
 750:./Libraries/STM32H7xx_HAL_Driver/Src/stm32h7xx_hal_tim_ex.c ****   __HAL_TIM_MOE_ENABLE(htim);
 1970              		.loc 1 750 3
 1971 011a 7B68     		ldr	r3, [r7, #4]
 1972 011c 1B68     		ldr	r3, [r3]
 1973 011e 5A6C     		ldr	r2, [r3, #68]
 1974 0120 7B68     		ldr	r3, [r7, #4]
 1975 0122 1B68     		ldr	r3, [r3]
 1976 0124 42F40042 		orr	r2, r2, #32768
 1977 0128 5A64     		str	r2, [r3, #68]
 751:./Libraries/STM32H7xx_HAL_Driver/Src/stm32h7xx_hal_tim_ex.c **** 
 752:./Libraries/STM32H7xx_HAL_Driver/Src/stm32h7xx_hal_tim_ex.c ****   /* Enable the Peripheral, except in trigger mode where enable is automatically done with trigger 
 753:./Libraries/STM32H7xx_HAL_Driver/Src/stm32h7xx_hal_tim_ex.c ****   if (IS_TIM_SLAVE_INSTANCE(htim->Instance))
 1978              		.loc 1 753 7
 1979 012a 7B68     		ldr	r3, [r7, #4]
 1980 012c 1B68     		ldr	r3, [r3]
 1981              		.loc 1 753 6
 1982 012e 234A     		ldr	r2, .L118
 1983 0130 9342     		cmp	r3, r2
 1984 0132 1DD0     		beq	.L112
 1985              		.loc 1 753 7 discriminator 1
 1986 0134 7B68     		ldr	r3, [r7, #4]
 1987 0136 1B68     		ldr	r3, [r3]
 1988 0138 B3F1804F 		cmp	r3, #1073741824
 1989 013c 18D0     		beq	.L112
 1990              		.loc 1 753 7 is_stmt 0 discriminator 2
 1991 013e 7B68     		ldr	r3, [r7, #4]
 1992 0140 1B68     		ldr	r3, [r3]
ARM GAS  /tmp/ccxx2olO.s 			page 49


 1993 0142 1F4A     		ldr	r2, .L118+4
 1994 0144 9342     		cmp	r3, r2
 1995 0146 13D0     		beq	.L112
 1996              		.loc 1 753 7 discriminator 3
 1997 0148 7B68     		ldr	r3, [r7, #4]
 1998 014a 1B68     		ldr	r3, [r3]
 1999 014c 1D4A     		ldr	r2, .L118+8
 2000 014e 9342     		cmp	r3, r2
 2001 0150 0ED0     		beq	.L112
 2002              		.loc 1 753 7 discriminator 4
 2003 0152 7B68     		ldr	r3, [r7, #4]
 2004 0154 1B68     		ldr	r3, [r3]
 2005 0156 1C4A     		ldr	r2, .L118+12
 2006 0158 9342     		cmp	r3, r2
 2007 015a 09D0     		beq	.L112
 2008              		.loc 1 753 7 discriminator 5
 2009 015c 7B68     		ldr	r3, [r7, #4]
 2010 015e 1B68     		ldr	r3, [r3]
 2011 0160 1A4A     		ldr	r2, .L118+16
 2012 0162 9342     		cmp	r3, r2
 2013 0164 04D0     		beq	.L112
 2014              		.loc 1 753 7 discriminator 6
 2015 0166 7B68     		ldr	r3, [r7, #4]
 2016 0168 1B68     		ldr	r3, [r3]
 2017 016a 194A     		ldr	r2, .L118+20
 2018 016c 9342     		cmp	r3, r2
 2019 016e 15D1     		bne	.L113
 2020              	.L112:
 754:./Libraries/STM32H7xx_HAL_Driver/Src/stm32h7xx_hal_tim_ex.c ****   {
 755:./Libraries/STM32H7xx_HAL_Driver/Src/stm32h7xx_hal_tim_ex.c ****     tmpsmcr = htim->Instance->SMCR & TIM_SMCR_SMS;
 2021              		.loc 1 755 19 is_stmt 1
 2022 0170 7B68     		ldr	r3, [r7, #4]
 2023 0172 1B68     		ldr	r3, [r3]
 2024              		.loc 1 755 29
 2025 0174 9A68     		ldr	r2, [r3, #8]
 2026              		.loc 1 755 13
 2027 0176 174B     		ldr	r3, .L118+24
 2028 0178 1340     		ands	r3, r3, r2
 2029 017a FB60     		str	r3, [r7, #12]
 756:./Libraries/STM32H7xx_HAL_Driver/Src/stm32h7xx_hal_tim_ex.c ****     if (!IS_TIM_SLAVEMODE_TRIGGER_ENABLED(tmpsmcr))
 2030              		.loc 1 756 8
 2031 017c FB68     		ldr	r3, [r7, #12]
 2032 017e 062B     		cmp	r3, #6
 2033 0180 15D0     		beq	.L117
 2034              		.loc 1 756 9 discriminator 1
 2035 0182 FB68     		ldr	r3, [r7, #12]
 2036 0184 B3F5803F 		cmp	r3, #65536
 2037 0188 11D0     		beq	.L117
 757:./Libraries/STM32H7xx_HAL_Driver/Src/stm32h7xx_hal_tim_ex.c ****     {
 758:./Libraries/STM32H7xx_HAL_Driver/Src/stm32h7xx_hal_tim_ex.c ****       __HAL_TIM_ENABLE(htim);
 2038              		.loc 1 758 7
 2039 018a 7B68     		ldr	r3, [r7, #4]
 2040 018c 1B68     		ldr	r3, [r3]
 2041 018e 1A68     		ldr	r2, [r3]
 2042 0190 7B68     		ldr	r3, [r7, #4]
 2043 0192 1B68     		ldr	r3, [r3]
 2044 0194 42F00102 		orr	r2, r2, #1
ARM GAS  /tmp/ccxx2olO.s 			page 50


 2045 0198 1A60     		str	r2, [r3]
 756:./Libraries/STM32H7xx_HAL_Driver/Src/stm32h7xx_hal_tim_ex.c ****     if (!IS_TIM_SLAVEMODE_TRIGGER_ENABLED(tmpsmcr))
 2046              		.loc 1 756 8
 2047 019a 08E0     		b	.L117
 2048              	.L113:
 759:./Libraries/STM32H7xx_HAL_Driver/Src/stm32h7xx_hal_tim_ex.c ****     }
 760:./Libraries/STM32H7xx_HAL_Driver/Src/stm32h7xx_hal_tim_ex.c ****   }
 761:./Libraries/STM32H7xx_HAL_Driver/Src/stm32h7xx_hal_tim_ex.c ****   else
 762:./Libraries/STM32H7xx_HAL_Driver/Src/stm32h7xx_hal_tim_ex.c ****   {
 763:./Libraries/STM32H7xx_HAL_Driver/Src/stm32h7xx_hal_tim_ex.c ****     __HAL_TIM_ENABLE(htim);
 2049              		.loc 1 763 5
 2050 019c 7B68     		ldr	r3, [r7, #4]
 2051 019e 1B68     		ldr	r3, [r3]
 2052 01a0 1A68     		ldr	r2, [r3]
 2053 01a2 7B68     		ldr	r3, [r7, #4]
 2054 01a4 1B68     		ldr	r3, [r3]
 2055 01a6 42F00102 		orr	r2, r2, #1
 2056 01aa 1A60     		str	r2, [r3]
 2057 01ac 00E0     		b	.L115
 2058              	.L117:
 756:./Libraries/STM32H7xx_HAL_Driver/Src/stm32h7xx_hal_tim_ex.c ****     {
 2059              		.loc 1 756 8
 2060 01ae 00BF     		nop
 2061              	.L115:
 764:./Libraries/STM32H7xx_HAL_Driver/Src/stm32h7xx_hal_tim_ex.c ****   }
 765:./Libraries/STM32H7xx_HAL_Driver/Src/stm32h7xx_hal_tim_ex.c **** 
 766:./Libraries/STM32H7xx_HAL_Driver/Src/stm32h7xx_hal_tim_ex.c ****   /* Return function status */
 767:./Libraries/STM32H7xx_HAL_Driver/Src/stm32h7xx_hal_tim_ex.c ****   return HAL_OK;
 2062              		.loc 1 767 10
 2063 01b0 0023     		movs	r3, #0
 2064              	.L100:
 768:./Libraries/STM32H7xx_HAL_Driver/Src/stm32h7xx_hal_tim_ex.c **** }
 2065              		.loc 1 768 1
 2066 01b2 1846     		mov	r0, r3
 2067 01b4 1037     		adds	r7, r7, #16
 2068              	.LCFI65:
 2069              		.cfi_def_cfa_offset 8
 2070 01b6 BD46     		mov	sp, r7
 2071              	.LCFI66:
 2072              		.cfi_def_cfa_register 13
 2073              		@ sp needed
 2074 01b8 80BD     		pop	{r7, pc}
 2075              	.L119:
 2076 01ba 00BF     		.align	2
 2077              	.L118:
 2078 01bc 00000140 		.word	1073807360
 2079 01c0 00040040 		.word	1073742848
 2080 01c4 00080040 		.word	1073743872
 2081 01c8 000C0040 		.word	1073744896
 2082 01cc 00040140 		.word	1073808384
 2083 01d0 00180040 		.word	1073747968
 2084 01d4 07000100 		.word	65543
 2085              		.cfi_endproc
 2086              	.LFE343:
 2088              		.section	.text.HAL_TIMEx_OCN_Stop_IT,"ax",%progbits
 2089              		.align	1
 2090              		.global	HAL_TIMEx_OCN_Stop_IT
ARM GAS  /tmp/ccxx2olO.s 			page 51


 2091              		.syntax unified
 2092              		.thumb
 2093              		.thumb_func
 2094              		.fpu fpv5-d16
 2096              	HAL_TIMEx_OCN_Stop_IT:
 2097              	.LFB344:
 769:./Libraries/STM32H7xx_HAL_Driver/Src/stm32h7xx_hal_tim_ex.c **** 
 770:./Libraries/STM32H7xx_HAL_Driver/Src/stm32h7xx_hal_tim_ex.c **** /**
 771:./Libraries/STM32H7xx_HAL_Driver/Src/stm32h7xx_hal_tim_ex.c ****   * @brief  Stops the TIM Output Compare signal generation in interrupt mode
 772:./Libraries/STM32H7xx_HAL_Driver/Src/stm32h7xx_hal_tim_ex.c ****   *         on the complementary output.
 773:./Libraries/STM32H7xx_HAL_Driver/Src/stm32h7xx_hal_tim_ex.c ****   * @param  htim TIM Output Compare handle
 774:./Libraries/STM32H7xx_HAL_Driver/Src/stm32h7xx_hal_tim_ex.c ****   * @param  Channel TIM Channel to be disabled
 775:./Libraries/STM32H7xx_HAL_Driver/Src/stm32h7xx_hal_tim_ex.c ****   *          This parameter can be one of the following values:
 776:./Libraries/STM32H7xx_HAL_Driver/Src/stm32h7xx_hal_tim_ex.c ****   *            @arg TIM_CHANNEL_1: TIM Channel 1 selected
 777:./Libraries/STM32H7xx_HAL_Driver/Src/stm32h7xx_hal_tim_ex.c ****   *            @arg TIM_CHANNEL_2: TIM Channel 2 selected
 778:./Libraries/STM32H7xx_HAL_Driver/Src/stm32h7xx_hal_tim_ex.c ****   *            @arg TIM_CHANNEL_3: TIM Channel 3 selected
 779:./Libraries/STM32H7xx_HAL_Driver/Src/stm32h7xx_hal_tim_ex.c ****   * @retval HAL status
 780:./Libraries/STM32H7xx_HAL_Driver/Src/stm32h7xx_hal_tim_ex.c ****   */
 781:./Libraries/STM32H7xx_HAL_Driver/Src/stm32h7xx_hal_tim_ex.c **** HAL_StatusTypeDef HAL_TIMEx_OCN_Stop_IT(TIM_HandleTypeDef *htim, uint32_t Channel)
 782:./Libraries/STM32H7xx_HAL_Driver/Src/stm32h7xx_hal_tim_ex.c **** {
 2098              		.loc 1 782 1
 2099              		.cfi_startproc
 2100              		@ args = 0, pretend = 0, frame = 16
 2101              		@ frame_needed = 1, uses_anonymous_args = 0
 2102 0000 80B5     		push	{r7, lr}
 2103              	.LCFI67:
 2104              		.cfi_def_cfa_offset 8
 2105              		.cfi_offset 7, -8
 2106              		.cfi_offset 14, -4
 2107 0002 84B0     		sub	sp, sp, #16
 2108              	.LCFI68:
 2109              		.cfi_def_cfa_offset 24
 2110 0004 00AF     		add	r7, sp, #0
 2111              	.LCFI69:
 2112              		.cfi_def_cfa_register 7
 2113 0006 7860     		str	r0, [r7, #4]
 2114 0008 3960     		str	r1, [r7]
 783:./Libraries/STM32H7xx_HAL_Driver/Src/stm32h7xx_hal_tim_ex.c ****   uint32_t tmpccer;
 784:./Libraries/STM32H7xx_HAL_Driver/Src/stm32h7xx_hal_tim_ex.c ****   /* Check the parameters */
 785:./Libraries/STM32H7xx_HAL_Driver/Src/stm32h7xx_hal_tim_ex.c ****   assert_param(IS_TIM_CCXN_INSTANCE(htim->Instance, Channel));
 786:./Libraries/STM32H7xx_HAL_Driver/Src/stm32h7xx_hal_tim_ex.c **** 
 787:./Libraries/STM32H7xx_HAL_Driver/Src/stm32h7xx_hal_tim_ex.c ****   switch (Channel)
 2115              		.loc 1 787 3
 2116 000a 3B68     		ldr	r3, [r7]
 2117 000c 082B     		cmp	r3, #8
 2118 000e 1BD0     		beq	.L121
 2119 0010 3B68     		ldr	r3, [r7]
 2120 0012 082B     		cmp	r3, #8
 2121 0014 21D8     		bhi	.L136
 2122 0016 3B68     		ldr	r3, [r7]
 2123 0018 002B     		cmp	r3, #0
 2124 001a 03D0     		beq	.L123
 2125 001c 3B68     		ldr	r3, [r7]
 2126 001e 042B     		cmp	r3, #4
 2127 0020 09D0     		beq	.L124
 788:./Libraries/STM32H7xx_HAL_Driver/Src/stm32h7xx_hal_tim_ex.c ****   {
 789:./Libraries/STM32H7xx_HAL_Driver/Src/stm32h7xx_hal_tim_ex.c ****     case TIM_CHANNEL_1:
ARM GAS  /tmp/ccxx2olO.s 			page 52


 790:./Libraries/STM32H7xx_HAL_Driver/Src/stm32h7xx_hal_tim_ex.c ****     {
 791:./Libraries/STM32H7xx_HAL_Driver/Src/stm32h7xx_hal_tim_ex.c ****       /* Disable the TIM Output Compare interrupt */
 792:./Libraries/STM32H7xx_HAL_Driver/Src/stm32h7xx_hal_tim_ex.c ****       __HAL_TIM_DISABLE_IT(htim, TIM_IT_CC1);
 793:./Libraries/STM32H7xx_HAL_Driver/Src/stm32h7xx_hal_tim_ex.c ****       break;
 794:./Libraries/STM32H7xx_HAL_Driver/Src/stm32h7xx_hal_tim_ex.c ****     }
 795:./Libraries/STM32H7xx_HAL_Driver/Src/stm32h7xx_hal_tim_ex.c **** 
 796:./Libraries/STM32H7xx_HAL_Driver/Src/stm32h7xx_hal_tim_ex.c ****     case TIM_CHANNEL_2:
 797:./Libraries/STM32H7xx_HAL_Driver/Src/stm32h7xx_hal_tim_ex.c ****     {
 798:./Libraries/STM32H7xx_HAL_Driver/Src/stm32h7xx_hal_tim_ex.c ****       /* Disable the TIM Output Compare interrupt */
 799:./Libraries/STM32H7xx_HAL_Driver/Src/stm32h7xx_hal_tim_ex.c ****       __HAL_TIM_DISABLE_IT(htim, TIM_IT_CC2);
 800:./Libraries/STM32H7xx_HAL_Driver/Src/stm32h7xx_hal_tim_ex.c ****       break;
 801:./Libraries/STM32H7xx_HAL_Driver/Src/stm32h7xx_hal_tim_ex.c ****     }
 802:./Libraries/STM32H7xx_HAL_Driver/Src/stm32h7xx_hal_tim_ex.c **** 
 803:./Libraries/STM32H7xx_HAL_Driver/Src/stm32h7xx_hal_tim_ex.c ****     case TIM_CHANNEL_3:
 804:./Libraries/STM32H7xx_HAL_Driver/Src/stm32h7xx_hal_tim_ex.c ****     {
 805:./Libraries/STM32H7xx_HAL_Driver/Src/stm32h7xx_hal_tim_ex.c ****       /* Disable the TIM Output Compare interrupt */
 806:./Libraries/STM32H7xx_HAL_Driver/Src/stm32h7xx_hal_tim_ex.c ****       __HAL_TIM_DISABLE_IT(htim, TIM_IT_CC3);
 807:./Libraries/STM32H7xx_HAL_Driver/Src/stm32h7xx_hal_tim_ex.c ****       break;
 808:./Libraries/STM32H7xx_HAL_Driver/Src/stm32h7xx_hal_tim_ex.c ****     }
 809:./Libraries/STM32H7xx_HAL_Driver/Src/stm32h7xx_hal_tim_ex.c **** 
 810:./Libraries/STM32H7xx_HAL_Driver/Src/stm32h7xx_hal_tim_ex.c ****     default:
 811:./Libraries/STM32H7xx_HAL_Driver/Src/stm32h7xx_hal_tim_ex.c ****       break;
 2128              		.loc 1 811 7
 2129 0022 1AE0     		b	.L136
 2130              	.L123:
 792:./Libraries/STM32H7xx_HAL_Driver/Src/stm32h7xx_hal_tim_ex.c ****       break;
 2131              		.loc 1 792 7
 2132 0024 7B68     		ldr	r3, [r7, #4]
 2133 0026 1B68     		ldr	r3, [r3]
 2134 0028 DA68     		ldr	r2, [r3, #12]
 2135 002a 7B68     		ldr	r3, [r7, #4]
 2136 002c 1B68     		ldr	r3, [r3]
 2137 002e 22F00202 		bic	r2, r2, #2
 2138 0032 DA60     		str	r2, [r3, #12]
 793:./Libraries/STM32H7xx_HAL_Driver/Src/stm32h7xx_hal_tim_ex.c ****     }
 2139              		.loc 1 793 7
 2140 0034 12E0     		b	.L125
 2141              	.L124:
 799:./Libraries/STM32H7xx_HAL_Driver/Src/stm32h7xx_hal_tim_ex.c ****       break;
 2142              		.loc 1 799 7
 2143 0036 7B68     		ldr	r3, [r7, #4]
 2144 0038 1B68     		ldr	r3, [r3]
 2145 003a DA68     		ldr	r2, [r3, #12]
 2146 003c 7B68     		ldr	r3, [r7, #4]
 2147 003e 1B68     		ldr	r3, [r3]
 2148 0040 22F00402 		bic	r2, r2, #4
 2149 0044 DA60     		str	r2, [r3, #12]
 800:./Libraries/STM32H7xx_HAL_Driver/Src/stm32h7xx_hal_tim_ex.c ****     }
 2150              		.loc 1 800 7
 2151 0046 09E0     		b	.L125
 2152              	.L121:
 806:./Libraries/STM32H7xx_HAL_Driver/Src/stm32h7xx_hal_tim_ex.c ****       break;
 2153              		.loc 1 806 7
 2154 0048 7B68     		ldr	r3, [r7, #4]
 2155 004a 1B68     		ldr	r3, [r3]
 2156 004c DA68     		ldr	r2, [r3, #12]
 2157 004e 7B68     		ldr	r3, [r7, #4]
ARM GAS  /tmp/ccxx2olO.s 			page 53


 2158 0050 1B68     		ldr	r3, [r3]
 2159 0052 22F00802 		bic	r2, r2, #8
 2160 0056 DA60     		str	r2, [r3, #12]
 807:./Libraries/STM32H7xx_HAL_Driver/Src/stm32h7xx_hal_tim_ex.c ****     }
 2161              		.loc 1 807 7
 2162 0058 00E0     		b	.L125
 2163              	.L136:
 2164              		.loc 1 811 7
 2165 005a 00BF     		nop
 2166              	.L125:
 812:./Libraries/STM32H7xx_HAL_Driver/Src/stm32h7xx_hal_tim_ex.c ****   }
 813:./Libraries/STM32H7xx_HAL_Driver/Src/stm32h7xx_hal_tim_ex.c **** 
 814:./Libraries/STM32H7xx_HAL_Driver/Src/stm32h7xx_hal_tim_ex.c ****   /* Disable the Capture compare channel N */
 815:./Libraries/STM32H7xx_HAL_Driver/Src/stm32h7xx_hal_tim_ex.c ****   TIM_CCxNChannelCmd(htim->Instance, Channel, TIM_CCxN_DISABLE);
 2167              		.loc 1 815 3
 2168 005c 7B68     		ldr	r3, [r7, #4]
 2169 005e 1B68     		ldr	r3, [r3]
 2170 0060 0022     		movs	r2, #0
 2171 0062 3968     		ldr	r1, [r7]
 2172 0064 1846     		mov	r0, r3
 2173 0066 FFF7FEFF 		bl	TIM_CCxNChannelCmd
 816:./Libraries/STM32H7xx_HAL_Driver/Src/stm32h7xx_hal_tim_ex.c **** 
 817:./Libraries/STM32H7xx_HAL_Driver/Src/stm32h7xx_hal_tim_ex.c ****   /* Disable the TIM Break interrupt (only if no more channel is active) */
 818:./Libraries/STM32H7xx_HAL_Driver/Src/stm32h7xx_hal_tim_ex.c ****   tmpccer = htim->Instance->CCER;
 2174              		.loc 1 818 17
 2175 006a 7B68     		ldr	r3, [r7, #4]
 2176 006c 1B68     		ldr	r3, [r3]
 2177              		.loc 1 818 11
 2178 006e 1B6A     		ldr	r3, [r3, #32]
 2179 0070 FB60     		str	r3, [r7, #12]
 819:./Libraries/STM32H7xx_HAL_Driver/Src/stm32h7xx_hal_tim_ex.c ****   if ((tmpccer & (TIM_CCER_CC1NE | TIM_CCER_CC2NE | TIM_CCER_CC3NE)) == (uint32_t)RESET)
 2180              		.loc 1 819 16
 2181 0072 FA68     		ldr	r2, [r7, #12]
 2182 0074 40F24443 		movw	r3, #1092
 2183 0078 1340     		ands	r3, r3, r2
 2184              		.loc 1 819 6
 2185 007a 002B     		cmp	r3, #0
 2186 007c 07D1     		bne	.L126
 820:./Libraries/STM32H7xx_HAL_Driver/Src/stm32h7xx_hal_tim_ex.c ****   {
 821:./Libraries/STM32H7xx_HAL_Driver/Src/stm32h7xx_hal_tim_ex.c ****     __HAL_TIM_DISABLE_IT(htim, TIM_IT_BREAK);
 2187              		.loc 1 821 5
 2188 007e 7B68     		ldr	r3, [r7, #4]
 2189 0080 1B68     		ldr	r3, [r3]
 2190 0082 DA68     		ldr	r2, [r3, #12]
 2191 0084 7B68     		ldr	r3, [r7, #4]
 2192 0086 1B68     		ldr	r3, [r3]
 2193 0088 22F08002 		bic	r2, r2, #128
 2194 008c DA60     		str	r2, [r3, #12]
 2195              	.L126:
 822:./Libraries/STM32H7xx_HAL_Driver/Src/stm32h7xx_hal_tim_ex.c ****   }
 823:./Libraries/STM32H7xx_HAL_Driver/Src/stm32h7xx_hal_tim_ex.c **** 
 824:./Libraries/STM32H7xx_HAL_Driver/Src/stm32h7xx_hal_tim_ex.c ****   /* Disable the Main Output */
 825:./Libraries/STM32H7xx_HAL_Driver/Src/stm32h7xx_hal_tim_ex.c ****   __HAL_TIM_MOE_DISABLE(htim);
 2196              		.loc 1 825 3
 2197 008e 7B68     		ldr	r3, [r7, #4]
 2198 0090 1B68     		ldr	r3, [r3]
 2199 0092 1A6A     		ldr	r2, [r3, #32]
ARM GAS  /tmp/ccxx2olO.s 			page 54


 2200 0094 41F21113 		movw	r3, #4369
 2201 0098 1340     		ands	r3, r3, r2
 2202 009a 002B     		cmp	r3, #0
 2203 009c 0FD1     		bne	.L127
 2204              		.loc 1 825 3 is_stmt 0 discriminator 1
 2205 009e 7B68     		ldr	r3, [r7, #4]
 2206 00a0 1B68     		ldr	r3, [r3]
 2207 00a2 1A6A     		ldr	r2, [r3, #32]
 2208 00a4 40F24443 		movw	r3, #1092
 2209 00a8 1340     		ands	r3, r3, r2
 2210 00aa 002B     		cmp	r3, #0
 2211 00ac 07D1     		bne	.L127
 2212              		.loc 1 825 3 discriminator 2
 2213 00ae 7B68     		ldr	r3, [r7, #4]
 2214 00b0 1B68     		ldr	r3, [r3]
 2215 00b2 5A6C     		ldr	r2, [r3, #68]
 2216 00b4 7B68     		ldr	r3, [r7, #4]
 2217 00b6 1B68     		ldr	r3, [r3]
 2218 00b8 22F40042 		bic	r2, r2, #32768
 2219 00bc 5A64     		str	r2, [r3, #68]
 2220              	.L127:
 826:./Libraries/STM32H7xx_HAL_Driver/Src/stm32h7xx_hal_tim_ex.c **** 
 827:./Libraries/STM32H7xx_HAL_Driver/Src/stm32h7xx_hal_tim_ex.c ****   /* Disable the Peripheral */
 828:./Libraries/STM32H7xx_HAL_Driver/Src/stm32h7xx_hal_tim_ex.c ****   __HAL_TIM_DISABLE(htim);
 2221              		.loc 1 828 3 is_stmt 1
 2222 00be 7B68     		ldr	r3, [r7, #4]
 2223 00c0 1B68     		ldr	r3, [r3]
 2224 00c2 1A6A     		ldr	r2, [r3, #32]
 2225 00c4 41F21113 		movw	r3, #4369
 2226 00c8 1340     		ands	r3, r3, r2
 2227 00ca 002B     		cmp	r3, #0
 2228 00cc 0FD1     		bne	.L128
 2229              		.loc 1 828 3 is_stmt 0 discriminator 1
 2230 00ce 7B68     		ldr	r3, [r7, #4]
 2231 00d0 1B68     		ldr	r3, [r3]
 2232 00d2 1A6A     		ldr	r2, [r3, #32]
 2233 00d4 40F24443 		movw	r3, #1092
 2234 00d8 1340     		ands	r3, r3, r2
 2235 00da 002B     		cmp	r3, #0
 2236 00dc 07D1     		bne	.L128
 2237              		.loc 1 828 3 discriminator 2
 2238 00de 7B68     		ldr	r3, [r7, #4]
 2239 00e0 1B68     		ldr	r3, [r3]
 2240 00e2 1A68     		ldr	r2, [r3]
 2241 00e4 7B68     		ldr	r3, [r7, #4]
 2242 00e6 1B68     		ldr	r3, [r3]
 2243 00e8 22F00102 		bic	r2, r2, #1
 2244 00ec 1A60     		str	r2, [r3]
 2245              	.L128:
 829:./Libraries/STM32H7xx_HAL_Driver/Src/stm32h7xx_hal_tim_ex.c **** 
 830:./Libraries/STM32H7xx_HAL_Driver/Src/stm32h7xx_hal_tim_ex.c ****   /* Set the TIM complementary channel state */
 831:./Libraries/STM32H7xx_HAL_Driver/Src/stm32h7xx_hal_tim_ex.c ****   TIM_CHANNEL_N_STATE_SET(htim, Channel, HAL_TIM_CHANNEL_STATE_READY);
 2246              		.loc 1 831 3 is_stmt 1
 2247 00ee 3B68     		ldr	r3, [r7]
 2248 00f0 002B     		cmp	r3, #0
 2249 00f2 04D1     		bne	.L129
 2250              		.loc 1 831 3 is_stmt 0 discriminator 1
ARM GAS  /tmp/ccxx2olO.s 			page 55


 2251 00f4 7B68     		ldr	r3, [r7, #4]
 2252 00f6 0122     		movs	r2, #1
 2253 00f8 83F84420 		strb	r2, [r3, #68]
 2254 00fc 13E0     		b	.L130
 2255              	.L129:
 2256              		.loc 1 831 3 discriminator 2
 2257 00fe 3B68     		ldr	r3, [r7]
 2258 0100 042B     		cmp	r3, #4
 2259 0102 04D1     		bne	.L131
 2260              		.loc 1 831 3 discriminator 3
 2261 0104 7B68     		ldr	r3, [r7, #4]
 2262 0106 0122     		movs	r2, #1
 2263 0108 83F84520 		strb	r2, [r3, #69]
 2264 010c 0BE0     		b	.L130
 2265              	.L131:
 2266              		.loc 1 831 3 discriminator 4
 2267 010e 3B68     		ldr	r3, [r7]
 2268 0110 082B     		cmp	r3, #8
 2269 0112 04D1     		bne	.L133
 2270              		.loc 1 831 3 discriminator 6
 2271 0114 7B68     		ldr	r3, [r7, #4]
 2272 0116 0122     		movs	r2, #1
 2273 0118 83F84620 		strb	r2, [r3, #70]
 2274 011c 03E0     		b	.L130
 2275              	.L133:
 2276              		.loc 1 831 3 discriminator 7
 2277 011e 7B68     		ldr	r3, [r7, #4]
 2278 0120 0122     		movs	r2, #1
 2279 0122 83F84720 		strb	r2, [r3, #71]
 2280              	.L130:
 832:./Libraries/STM32H7xx_HAL_Driver/Src/stm32h7xx_hal_tim_ex.c **** 
 833:./Libraries/STM32H7xx_HAL_Driver/Src/stm32h7xx_hal_tim_ex.c ****   /* Return function status */
 834:./Libraries/STM32H7xx_HAL_Driver/Src/stm32h7xx_hal_tim_ex.c ****   return HAL_OK;
 2281              		.loc 1 834 10 is_stmt 1
 2282 0126 0023     		movs	r3, #0
 835:./Libraries/STM32H7xx_HAL_Driver/Src/stm32h7xx_hal_tim_ex.c **** }
 2283              		.loc 1 835 1
 2284 0128 1846     		mov	r0, r3
 2285 012a 1037     		adds	r7, r7, #16
 2286              	.LCFI70:
 2287              		.cfi_def_cfa_offset 8
 2288 012c BD46     		mov	sp, r7
 2289              	.LCFI71:
 2290              		.cfi_def_cfa_register 13
 2291              		@ sp needed
 2292 012e 80BD     		pop	{r7, pc}
 2293              		.cfi_endproc
 2294              	.LFE344:
 2296              		.section	.text.HAL_TIMEx_OCN_Start_DMA,"ax",%progbits
 2297              		.align	1
 2298              		.global	HAL_TIMEx_OCN_Start_DMA
 2299              		.syntax unified
 2300              		.thumb
 2301              		.thumb_func
 2302              		.fpu fpv5-d16
 2304              	HAL_TIMEx_OCN_Start_DMA:
 2305              	.LFB345:
ARM GAS  /tmp/ccxx2olO.s 			page 56


 836:./Libraries/STM32H7xx_HAL_Driver/Src/stm32h7xx_hal_tim_ex.c **** 
 837:./Libraries/STM32H7xx_HAL_Driver/Src/stm32h7xx_hal_tim_ex.c **** /**
 838:./Libraries/STM32H7xx_HAL_Driver/Src/stm32h7xx_hal_tim_ex.c ****   * @brief  Starts the TIM Output Compare signal generation in DMA mode
 839:./Libraries/STM32H7xx_HAL_Driver/Src/stm32h7xx_hal_tim_ex.c ****   *         on the complementary output.
 840:./Libraries/STM32H7xx_HAL_Driver/Src/stm32h7xx_hal_tim_ex.c ****   * @param  htim TIM Output Compare handle
 841:./Libraries/STM32H7xx_HAL_Driver/Src/stm32h7xx_hal_tim_ex.c ****   * @param  Channel TIM Channel to be enabled
 842:./Libraries/STM32H7xx_HAL_Driver/Src/stm32h7xx_hal_tim_ex.c ****   *          This parameter can be one of the following values:
 843:./Libraries/STM32H7xx_HAL_Driver/Src/stm32h7xx_hal_tim_ex.c ****   *            @arg TIM_CHANNEL_1: TIM Channel 1 selected
 844:./Libraries/STM32H7xx_HAL_Driver/Src/stm32h7xx_hal_tim_ex.c ****   *            @arg TIM_CHANNEL_2: TIM Channel 2 selected
 845:./Libraries/STM32H7xx_HAL_Driver/Src/stm32h7xx_hal_tim_ex.c ****   *            @arg TIM_CHANNEL_3: TIM Channel 3 selected
 846:./Libraries/STM32H7xx_HAL_Driver/Src/stm32h7xx_hal_tim_ex.c ****   * @param  pData The source Buffer address.
 847:./Libraries/STM32H7xx_HAL_Driver/Src/stm32h7xx_hal_tim_ex.c ****   * @param  Length The length of data to be transferred from memory to TIM peripheral
 848:./Libraries/STM32H7xx_HAL_Driver/Src/stm32h7xx_hal_tim_ex.c ****   * @retval HAL status
 849:./Libraries/STM32H7xx_HAL_Driver/Src/stm32h7xx_hal_tim_ex.c ****   */
 850:./Libraries/STM32H7xx_HAL_Driver/Src/stm32h7xx_hal_tim_ex.c **** HAL_StatusTypeDef HAL_TIMEx_OCN_Start_DMA(TIM_HandleTypeDef *htim, uint32_t Channel, uint32_t *pDat
 851:./Libraries/STM32H7xx_HAL_Driver/Src/stm32h7xx_hal_tim_ex.c **** {
 2306              		.loc 1 851 1
 2307              		.cfi_startproc
 2308              		@ args = 0, pretend = 0, frame = 24
 2309              		@ frame_needed = 1, uses_anonymous_args = 0
 2310 0000 80B5     		push	{r7, lr}
 2311              	.LCFI72:
 2312              		.cfi_def_cfa_offset 8
 2313              		.cfi_offset 7, -8
 2314              		.cfi_offset 14, -4
 2315 0002 86B0     		sub	sp, sp, #24
 2316              	.LCFI73:
 2317              		.cfi_def_cfa_offset 32
 2318 0004 00AF     		add	r7, sp, #0
 2319              	.LCFI74:
 2320              		.cfi_def_cfa_register 7
 2321 0006 F860     		str	r0, [r7, #12]
 2322 0008 B960     		str	r1, [r7, #8]
 2323 000a 7A60     		str	r2, [r7, #4]
 2324 000c 7B80     		strh	r3, [r7, #2]	@ movhi
 852:./Libraries/STM32H7xx_HAL_Driver/Src/stm32h7xx_hal_tim_ex.c ****   uint32_t tmpsmcr;
 853:./Libraries/STM32H7xx_HAL_Driver/Src/stm32h7xx_hal_tim_ex.c **** 
 854:./Libraries/STM32H7xx_HAL_Driver/Src/stm32h7xx_hal_tim_ex.c ****   /* Check the parameters */
 855:./Libraries/STM32H7xx_HAL_Driver/Src/stm32h7xx_hal_tim_ex.c ****   assert_param(IS_TIM_CCXN_INSTANCE(htim->Instance, Channel));
 856:./Libraries/STM32H7xx_HAL_Driver/Src/stm32h7xx_hal_tim_ex.c **** 
 857:./Libraries/STM32H7xx_HAL_Driver/Src/stm32h7xx_hal_tim_ex.c ****   /* Set the TIM complementary channel state */
 858:./Libraries/STM32H7xx_HAL_Driver/Src/stm32h7xx_hal_tim_ex.c ****   if (TIM_CHANNEL_N_STATE_GET(htim, Channel) == HAL_TIM_CHANNEL_STATE_BUSY)
 2325              		.loc 1 858 46
 2326 000e BB68     		ldr	r3, [r7, #8]
 2327 0010 002B     		cmp	r3, #0
 2328 0012 09D1     		bne	.L138
 2329              		.loc 1 858 7 discriminator 1
 2330 0014 FB68     		ldr	r3, [r7, #12]
 2331 0016 93F84430 		ldrb	r3, [r3, #68]
 2332 001a DBB2     		uxtb	r3, r3
 2333              		.loc 1 858 46 discriminator 1
 2334 001c 022B     		cmp	r3, #2
 2335 001e 0CBF     		ite	eq
 2336 0020 0123     		moveq	r3, #1
 2337 0022 0023     		movne	r3, #0
 2338 0024 DBB2     		uxtb	r3, r3
 2339 0026 22E0     		b	.L139
ARM GAS  /tmp/ccxx2olO.s 			page 57


 2340              	.L138:
 2341              		.loc 1 858 46 is_stmt 0 discriminator 2
 2342 0028 BB68     		ldr	r3, [r7, #8]
 2343 002a 042B     		cmp	r3, #4
 2344 002c 09D1     		bne	.L140
 2345              		.loc 1 858 7 is_stmt 1 discriminator 4
 2346 002e FB68     		ldr	r3, [r7, #12]
 2347 0030 93F84530 		ldrb	r3, [r3, #69]
 2348 0034 DBB2     		uxtb	r3, r3
 2349              		.loc 1 858 46 discriminator 4
 2350 0036 022B     		cmp	r3, #2
 2351 0038 0CBF     		ite	eq
 2352 003a 0123     		moveq	r3, #1
 2353 003c 0023     		movne	r3, #0
 2354 003e DBB2     		uxtb	r3, r3
 2355 0040 15E0     		b	.L139
 2356              	.L140:
 2357              		.loc 1 858 46 is_stmt 0 discriminator 5
 2358 0042 BB68     		ldr	r3, [r7, #8]
 2359 0044 082B     		cmp	r3, #8
 2360 0046 09D1     		bne	.L142
 2361              		.loc 1 858 7 is_stmt 1 discriminator 7
 2362 0048 FB68     		ldr	r3, [r7, #12]
 2363 004a 93F84630 		ldrb	r3, [r3, #70]
 2364 004e DBB2     		uxtb	r3, r3
 2365              		.loc 1 858 46 discriminator 7
 2366 0050 022B     		cmp	r3, #2
 2367 0052 0CBF     		ite	eq
 2368 0054 0123     		moveq	r3, #1
 2369 0056 0023     		movne	r3, #0
 2370 0058 DBB2     		uxtb	r3, r3
 2371 005a 08E0     		b	.L139
 2372              	.L142:
 2373              		.loc 1 858 7 discriminator 8
 2374 005c FB68     		ldr	r3, [r7, #12]
 2375 005e 93F84730 		ldrb	r3, [r3, #71]
 2376 0062 DBB2     		uxtb	r3, r3
 2377              		.loc 1 858 46 discriminator 8
 2378 0064 022B     		cmp	r3, #2
 2379 0066 0CBF     		ite	eq
 2380 0068 0123     		moveq	r3, #1
 2381 006a 0023     		movne	r3, #0
 2382 006c DBB2     		uxtb	r3, r3
 2383              	.L139:
 2384              		.loc 1 858 6 discriminator 12
 2385 006e 002B     		cmp	r3, #0
 2386 0070 01D0     		beq	.L144
 859:./Libraries/STM32H7xx_HAL_Driver/Src/stm32h7xx_hal_tim_ex.c ****   {
 860:./Libraries/STM32H7xx_HAL_Driver/Src/stm32h7xx_hal_tim_ex.c ****     return HAL_BUSY;
 2387              		.loc 1 860 12
 2388 0072 0223     		movs	r3, #2
 2389 0074 25E1     		b	.L145
 2390              	.L144:
 861:./Libraries/STM32H7xx_HAL_Driver/Src/stm32h7xx_hal_tim_ex.c ****   }
 862:./Libraries/STM32H7xx_HAL_Driver/Src/stm32h7xx_hal_tim_ex.c ****   else if (TIM_CHANNEL_N_STATE_GET(htim, Channel) == HAL_TIM_CHANNEL_STATE_READY)
 2391              		.loc 1 862 51
 2392 0076 BB68     		ldr	r3, [r7, #8]
ARM GAS  /tmp/ccxx2olO.s 			page 58


 2393 0078 002B     		cmp	r3, #0
 2394 007a 09D1     		bne	.L146
 2395              		.loc 1 862 12 discriminator 1
 2396 007c FB68     		ldr	r3, [r7, #12]
 2397 007e 93F84430 		ldrb	r3, [r3, #68]
 2398 0082 DBB2     		uxtb	r3, r3
 2399              		.loc 1 862 51 discriminator 1
 2400 0084 012B     		cmp	r3, #1
 2401 0086 0CBF     		ite	eq
 2402 0088 0123     		moveq	r3, #1
 2403 008a 0023     		movne	r3, #0
 2404 008c DBB2     		uxtb	r3, r3
 2405 008e 22E0     		b	.L147
 2406              	.L146:
 2407              		.loc 1 862 51 is_stmt 0 discriminator 2
 2408 0090 BB68     		ldr	r3, [r7, #8]
 2409 0092 042B     		cmp	r3, #4
 2410 0094 09D1     		bne	.L148
 2411              		.loc 1 862 12 is_stmt 1 discriminator 4
 2412 0096 FB68     		ldr	r3, [r7, #12]
 2413 0098 93F84530 		ldrb	r3, [r3, #69]
 2414 009c DBB2     		uxtb	r3, r3
 2415              		.loc 1 862 51 discriminator 4
 2416 009e 012B     		cmp	r3, #1
 2417 00a0 0CBF     		ite	eq
 2418 00a2 0123     		moveq	r3, #1
 2419 00a4 0023     		movne	r3, #0
 2420 00a6 DBB2     		uxtb	r3, r3
 2421 00a8 15E0     		b	.L147
 2422              	.L148:
 2423              		.loc 1 862 51 is_stmt 0 discriminator 5
 2424 00aa BB68     		ldr	r3, [r7, #8]
 2425 00ac 082B     		cmp	r3, #8
 2426 00ae 09D1     		bne	.L150
 2427              		.loc 1 862 12 is_stmt 1 discriminator 7
 2428 00b0 FB68     		ldr	r3, [r7, #12]
 2429 00b2 93F84630 		ldrb	r3, [r3, #70]
 2430 00b6 DBB2     		uxtb	r3, r3
 2431              		.loc 1 862 51 discriminator 7
 2432 00b8 012B     		cmp	r3, #1
 2433 00ba 0CBF     		ite	eq
 2434 00bc 0123     		moveq	r3, #1
 2435 00be 0023     		movne	r3, #0
 2436 00c0 DBB2     		uxtb	r3, r3
 2437 00c2 08E0     		b	.L147
 2438              	.L150:
 2439              		.loc 1 862 12 discriminator 8
 2440 00c4 FB68     		ldr	r3, [r7, #12]
 2441 00c6 93F84730 		ldrb	r3, [r3, #71]
 2442 00ca DBB2     		uxtb	r3, r3
 2443              		.loc 1 862 51 discriminator 8
 2444 00cc 012B     		cmp	r3, #1
 2445 00ce 0CBF     		ite	eq
 2446 00d0 0123     		moveq	r3, #1
 2447 00d2 0023     		movne	r3, #0
 2448 00d4 DBB2     		uxtb	r3, r3
 2449              	.L147:
ARM GAS  /tmp/ccxx2olO.s 			page 59


 2450              		.loc 1 862 11 discriminator 12
 2451 00d6 002B     		cmp	r3, #0
 2452 00d8 24D0     		beq	.L152
 863:./Libraries/STM32H7xx_HAL_Driver/Src/stm32h7xx_hal_tim_ex.c ****   {
 864:./Libraries/STM32H7xx_HAL_Driver/Src/stm32h7xx_hal_tim_ex.c ****     if ((pData == NULL) && (Length > 0U))
 2453              		.loc 1 864 8
 2454 00da 7B68     		ldr	r3, [r7, #4]
 2455 00dc 002B     		cmp	r3, #0
 2456 00de 04D1     		bne	.L153
 2457              		.loc 1 864 25 discriminator 1
 2458 00e0 7B88     		ldrh	r3, [r7, #2]
 2459 00e2 002B     		cmp	r3, #0
 2460 00e4 01D0     		beq	.L153
 865:./Libraries/STM32H7xx_HAL_Driver/Src/stm32h7xx_hal_tim_ex.c ****     {
 866:./Libraries/STM32H7xx_HAL_Driver/Src/stm32h7xx_hal_tim_ex.c ****       return HAL_ERROR;
 2461              		.loc 1 866 14
 2462 00e6 0123     		movs	r3, #1
 2463 00e8 EBE0     		b	.L145
 2464              	.L153:
 867:./Libraries/STM32H7xx_HAL_Driver/Src/stm32h7xx_hal_tim_ex.c ****     }
 868:./Libraries/STM32H7xx_HAL_Driver/Src/stm32h7xx_hal_tim_ex.c ****     else
 869:./Libraries/STM32H7xx_HAL_Driver/Src/stm32h7xx_hal_tim_ex.c ****     {
 870:./Libraries/STM32H7xx_HAL_Driver/Src/stm32h7xx_hal_tim_ex.c ****       TIM_CHANNEL_N_STATE_SET(htim, Channel, HAL_TIM_CHANNEL_STATE_BUSY);
 2465              		.loc 1 870 7
 2466 00ea BB68     		ldr	r3, [r7, #8]
 2467 00ec 002B     		cmp	r3, #0
 2468 00ee 04D1     		bne	.L154
 2469              		.loc 1 870 7 is_stmt 0 discriminator 1
 2470 00f0 FB68     		ldr	r3, [r7, #12]
 2471 00f2 0222     		movs	r2, #2
 2472 00f4 83F84420 		strb	r2, [r3, #68]
 2473 00f8 16E0     		b	.L155
 2474              	.L154:
 2475              		.loc 1 870 7 discriminator 2
 2476 00fa BB68     		ldr	r3, [r7, #8]
 2477 00fc 042B     		cmp	r3, #4
 2478 00fe 04D1     		bne	.L156
 2479              		.loc 1 870 7 discriminator 3
 2480 0100 FB68     		ldr	r3, [r7, #12]
 2481 0102 0222     		movs	r2, #2
 2482 0104 83F84520 		strb	r2, [r3, #69]
 2483 0108 0EE0     		b	.L155
 2484              	.L156:
 2485              		.loc 1 870 7 discriminator 4
 2486 010a BB68     		ldr	r3, [r7, #8]
 2487 010c 082B     		cmp	r3, #8
 2488 010e 04D1     		bne	.L158
 2489              		.loc 1 870 7 discriminator 6
 2490 0110 FB68     		ldr	r3, [r7, #12]
 2491 0112 0222     		movs	r2, #2
 2492 0114 83F84620 		strb	r2, [r3, #70]
 2493 0118 06E0     		b	.L155
 2494              	.L158:
 2495              		.loc 1 870 7 discriminator 7
 2496 011a FB68     		ldr	r3, [r7, #12]
 2497 011c 0222     		movs	r2, #2
 2498 011e 83F84720 		strb	r2, [r3, #71]
ARM GAS  /tmp/ccxx2olO.s 			page 60


 2499 0122 01E0     		b	.L155
 2500              	.L152:
 871:./Libraries/STM32H7xx_HAL_Driver/Src/stm32h7xx_hal_tim_ex.c ****     }
 872:./Libraries/STM32H7xx_HAL_Driver/Src/stm32h7xx_hal_tim_ex.c ****   }
 873:./Libraries/STM32H7xx_HAL_Driver/Src/stm32h7xx_hal_tim_ex.c ****   else
 874:./Libraries/STM32H7xx_HAL_Driver/Src/stm32h7xx_hal_tim_ex.c ****   {
 875:./Libraries/STM32H7xx_HAL_Driver/Src/stm32h7xx_hal_tim_ex.c ****     return HAL_ERROR;
 2501              		.loc 1 875 12 is_stmt 1
 2502 0124 0123     		movs	r3, #1
 2503 0126 CCE0     		b	.L145
 2504              	.L155:
 876:./Libraries/STM32H7xx_HAL_Driver/Src/stm32h7xx_hal_tim_ex.c ****   }
 877:./Libraries/STM32H7xx_HAL_Driver/Src/stm32h7xx_hal_tim_ex.c **** 
 878:./Libraries/STM32H7xx_HAL_Driver/Src/stm32h7xx_hal_tim_ex.c ****   switch (Channel)
 2505              		.loc 1 878 3
 2506 0128 BB68     		ldr	r3, [r7, #8]
 2507 012a 082B     		cmp	r3, #8
 2508 012c 51D0     		beq	.L160
 2509 012e BB68     		ldr	r3, [r7, #8]
 2510 0130 082B     		cmp	r3, #8
 2511 0132 72D8     		bhi	.L172
 2512 0134 BB68     		ldr	r3, [r7, #8]
 2513 0136 002B     		cmp	r3, #0
 2514 0138 03D0     		beq	.L162
 2515 013a BB68     		ldr	r3, [r7, #8]
 2516 013c 042B     		cmp	r3, #4
 2517 013e 24D0     		beq	.L163
 879:./Libraries/STM32H7xx_HAL_Driver/Src/stm32h7xx_hal_tim_ex.c ****   {
 880:./Libraries/STM32H7xx_HAL_Driver/Src/stm32h7xx_hal_tim_ex.c ****     case TIM_CHANNEL_1:
 881:./Libraries/STM32H7xx_HAL_Driver/Src/stm32h7xx_hal_tim_ex.c ****     {
 882:./Libraries/STM32H7xx_HAL_Driver/Src/stm32h7xx_hal_tim_ex.c ****       /* Set the DMA compare callbacks */
 883:./Libraries/STM32H7xx_HAL_Driver/Src/stm32h7xx_hal_tim_ex.c ****       htim->hdma[TIM_DMA_ID_CC1]->XferCpltCallback = TIM_DMADelayPulseNCplt;
 884:./Libraries/STM32H7xx_HAL_Driver/Src/stm32h7xx_hal_tim_ex.c ****       htim->hdma[TIM_DMA_ID_CC1]->XferHalfCpltCallback = TIM_DMADelayPulseHalfCplt;
 885:./Libraries/STM32H7xx_HAL_Driver/Src/stm32h7xx_hal_tim_ex.c **** 
 886:./Libraries/STM32H7xx_HAL_Driver/Src/stm32h7xx_hal_tim_ex.c ****       /* Set the DMA error callback */
 887:./Libraries/STM32H7xx_HAL_Driver/Src/stm32h7xx_hal_tim_ex.c ****       htim->hdma[TIM_DMA_ID_CC1]->XferErrorCallback = TIM_DMAErrorCCxN ;
 888:./Libraries/STM32H7xx_HAL_Driver/Src/stm32h7xx_hal_tim_ex.c **** 
 889:./Libraries/STM32H7xx_HAL_Driver/Src/stm32h7xx_hal_tim_ex.c ****       /* Enable the DMA stream */
 890:./Libraries/STM32H7xx_HAL_Driver/Src/stm32h7xx_hal_tim_ex.c ****       if (HAL_DMA_Start_IT(htim->hdma[TIM_DMA_ID_CC1], (uint32_t)pData, (uint32_t)&htim->Instance->
 891:./Libraries/STM32H7xx_HAL_Driver/Src/stm32h7xx_hal_tim_ex.c ****       {
 892:./Libraries/STM32H7xx_HAL_Driver/Src/stm32h7xx_hal_tim_ex.c ****         /* Return error status */
 893:./Libraries/STM32H7xx_HAL_Driver/Src/stm32h7xx_hal_tim_ex.c ****         return HAL_ERROR;
 894:./Libraries/STM32H7xx_HAL_Driver/Src/stm32h7xx_hal_tim_ex.c ****       }
 895:./Libraries/STM32H7xx_HAL_Driver/Src/stm32h7xx_hal_tim_ex.c ****       /* Enable the TIM Output Compare DMA request */
 896:./Libraries/STM32H7xx_HAL_Driver/Src/stm32h7xx_hal_tim_ex.c ****       __HAL_TIM_ENABLE_DMA(htim, TIM_DMA_CC1);
 897:./Libraries/STM32H7xx_HAL_Driver/Src/stm32h7xx_hal_tim_ex.c ****       break;
 898:./Libraries/STM32H7xx_HAL_Driver/Src/stm32h7xx_hal_tim_ex.c ****     }
 899:./Libraries/STM32H7xx_HAL_Driver/Src/stm32h7xx_hal_tim_ex.c **** 
 900:./Libraries/STM32H7xx_HAL_Driver/Src/stm32h7xx_hal_tim_ex.c ****     case TIM_CHANNEL_2:
 901:./Libraries/STM32H7xx_HAL_Driver/Src/stm32h7xx_hal_tim_ex.c ****     {
 902:./Libraries/STM32H7xx_HAL_Driver/Src/stm32h7xx_hal_tim_ex.c ****       /* Set the DMA compare callbacks */
 903:./Libraries/STM32H7xx_HAL_Driver/Src/stm32h7xx_hal_tim_ex.c ****       htim->hdma[TIM_DMA_ID_CC2]->XferCpltCallback = TIM_DMADelayPulseNCplt;
 904:./Libraries/STM32H7xx_HAL_Driver/Src/stm32h7xx_hal_tim_ex.c ****       htim->hdma[TIM_DMA_ID_CC2]->XferHalfCpltCallback = TIM_DMADelayPulseHalfCplt;
 905:./Libraries/STM32H7xx_HAL_Driver/Src/stm32h7xx_hal_tim_ex.c **** 
 906:./Libraries/STM32H7xx_HAL_Driver/Src/stm32h7xx_hal_tim_ex.c ****       /* Set the DMA error callback */
 907:./Libraries/STM32H7xx_HAL_Driver/Src/stm32h7xx_hal_tim_ex.c ****       htim->hdma[TIM_DMA_ID_CC2]->XferErrorCallback = TIM_DMAErrorCCxN ;
 908:./Libraries/STM32H7xx_HAL_Driver/Src/stm32h7xx_hal_tim_ex.c **** 
ARM GAS  /tmp/ccxx2olO.s 			page 61


 909:./Libraries/STM32H7xx_HAL_Driver/Src/stm32h7xx_hal_tim_ex.c ****       /* Enable the DMA stream */
 910:./Libraries/STM32H7xx_HAL_Driver/Src/stm32h7xx_hal_tim_ex.c ****       if (HAL_DMA_Start_IT(htim->hdma[TIM_DMA_ID_CC2], (uint32_t)pData, (uint32_t)&htim->Instance->
 911:./Libraries/STM32H7xx_HAL_Driver/Src/stm32h7xx_hal_tim_ex.c ****       {
 912:./Libraries/STM32H7xx_HAL_Driver/Src/stm32h7xx_hal_tim_ex.c ****         /* Return error status */
 913:./Libraries/STM32H7xx_HAL_Driver/Src/stm32h7xx_hal_tim_ex.c ****         return HAL_ERROR;
 914:./Libraries/STM32H7xx_HAL_Driver/Src/stm32h7xx_hal_tim_ex.c ****       }
 915:./Libraries/STM32H7xx_HAL_Driver/Src/stm32h7xx_hal_tim_ex.c ****       /* Enable the TIM Output Compare DMA request */
 916:./Libraries/STM32H7xx_HAL_Driver/Src/stm32h7xx_hal_tim_ex.c ****       __HAL_TIM_ENABLE_DMA(htim, TIM_DMA_CC2);
 917:./Libraries/STM32H7xx_HAL_Driver/Src/stm32h7xx_hal_tim_ex.c ****       break;
 918:./Libraries/STM32H7xx_HAL_Driver/Src/stm32h7xx_hal_tim_ex.c ****     }
 919:./Libraries/STM32H7xx_HAL_Driver/Src/stm32h7xx_hal_tim_ex.c **** 
 920:./Libraries/STM32H7xx_HAL_Driver/Src/stm32h7xx_hal_tim_ex.c ****     case TIM_CHANNEL_3:
 921:./Libraries/STM32H7xx_HAL_Driver/Src/stm32h7xx_hal_tim_ex.c ****     {
 922:./Libraries/STM32H7xx_HAL_Driver/Src/stm32h7xx_hal_tim_ex.c ****       /* Set the DMA compare callbacks */
 923:./Libraries/STM32H7xx_HAL_Driver/Src/stm32h7xx_hal_tim_ex.c ****       htim->hdma[TIM_DMA_ID_CC3]->XferCpltCallback = TIM_DMADelayPulseNCplt;
 924:./Libraries/STM32H7xx_HAL_Driver/Src/stm32h7xx_hal_tim_ex.c ****       htim->hdma[TIM_DMA_ID_CC3]->XferHalfCpltCallback = TIM_DMADelayPulseHalfCplt;
 925:./Libraries/STM32H7xx_HAL_Driver/Src/stm32h7xx_hal_tim_ex.c **** 
 926:./Libraries/STM32H7xx_HAL_Driver/Src/stm32h7xx_hal_tim_ex.c ****       /* Set the DMA error callback */
 927:./Libraries/STM32H7xx_HAL_Driver/Src/stm32h7xx_hal_tim_ex.c ****       htim->hdma[TIM_DMA_ID_CC3]->XferErrorCallback = TIM_DMAErrorCCxN ;
 928:./Libraries/STM32H7xx_HAL_Driver/Src/stm32h7xx_hal_tim_ex.c **** 
 929:./Libraries/STM32H7xx_HAL_Driver/Src/stm32h7xx_hal_tim_ex.c ****       /* Enable the DMA stream */
 930:./Libraries/STM32H7xx_HAL_Driver/Src/stm32h7xx_hal_tim_ex.c ****       if (HAL_DMA_Start_IT(htim->hdma[TIM_DMA_ID_CC3], (uint32_t)pData, (uint32_t)&htim->Instance->
 931:./Libraries/STM32H7xx_HAL_Driver/Src/stm32h7xx_hal_tim_ex.c ****       {
 932:./Libraries/STM32H7xx_HAL_Driver/Src/stm32h7xx_hal_tim_ex.c ****         /* Return error status */
 933:./Libraries/STM32H7xx_HAL_Driver/Src/stm32h7xx_hal_tim_ex.c ****         return HAL_ERROR;
 934:./Libraries/STM32H7xx_HAL_Driver/Src/stm32h7xx_hal_tim_ex.c ****       }
 935:./Libraries/STM32H7xx_HAL_Driver/Src/stm32h7xx_hal_tim_ex.c ****       /* Enable the TIM Output Compare DMA request */
 936:./Libraries/STM32H7xx_HAL_Driver/Src/stm32h7xx_hal_tim_ex.c ****       __HAL_TIM_ENABLE_DMA(htim, TIM_DMA_CC3);
 937:./Libraries/STM32H7xx_HAL_Driver/Src/stm32h7xx_hal_tim_ex.c ****       break;
 938:./Libraries/STM32H7xx_HAL_Driver/Src/stm32h7xx_hal_tim_ex.c ****     }
 939:./Libraries/STM32H7xx_HAL_Driver/Src/stm32h7xx_hal_tim_ex.c **** 
 940:./Libraries/STM32H7xx_HAL_Driver/Src/stm32h7xx_hal_tim_ex.c ****     default:
 941:./Libraries/STM32H7xx_HAL_Driver/Src/stm32h7xx_hal_tim_ex.c ****       break;
 2518              		.loc 1 941 7
 2519 0140 6BE0     		b	.L172
 2520              	.L162:
 883:./Libraries/STM32H7xx_HAL_Driver/Src/stm32h7xx_hal_tim_ex.c ****       htim->hdma[TIM_DMA_ID_CC1]->XferHalfCpltCallback = TIM_DMADelayPulseHalfCplt;
 2521              		.loc 1 883 17
 2522 0142 FB68     		ldr	r3, [r7, #12]
 2523 0144 5B6A     		ldr	r3, [r3, #36]
 883:./Libraries/STM32H7xx_HAL_Driver/Src/stm32h7xx_hal_tim_ex.c ****       htim->hdma[TIM_DMA_ID_CC1]->XferHalfCpltCallback = TIM_DMADelayPulseHalfCplt;
 2524              		.loc 1 883 52
 2525 0146 614A     		ldr	r2, .L174
 2526 0148 DA63     		str	r2, [r3, #60]
 884:./Libraries/STM32H7xx_HAL_Driver/Src/stm32h7xx_hal_tim_ex.c **** 
 2527              		.loc 1 884 17
 2528 014a FB68     		ldr	r3, [r7, #12]
 2529 014c 5B6A     		ldr	r3, [r3, #36]
 884:./Libraries/STM32H7xx_HAL_Driver/Src/stm32h7xx_hal_tim_ex.c **** 
 2530              		.loc 1 884 56
 2531 014e 604A     		ldr	r2, .L174+4
 2532 0150 1A64     		str	r2, [r3, #64]
 887:./Libraries/STM32H7xx_HAL_Driver/Src/stm32h7xx_hal_tim_ex.c **** 
 2533              		.loc 1 887 17
 2534 0152 FB68     		ldr	r3, [r7, #12]
 2535 0154 5B6A     		ldr	r3, [r3, #36]
 887:./Libraries/STM32H7xx_HAL_Driver/Src/stm32h7xx_hal_tim_ex.c **** 
ARM GAS  /tmp/ccxx2olO.s 			page 62


 2536              		.loc 1 887 53
 2537 0156 5F4A     		ldr	r2, .L174+8
 2538 0158 DA64     		str	r2, [r3, #76]
 890:./Libraries/STM32H7xx_HAL_Driver/Src/stm32h7xx_hal_tim_ex.c ****       {
 2539              		.loc 1 890 11
 2540 015a FB68     		ldr	r3, [r7, #12]
 2541 015c 586A     		ldr	r0, [r3, #36]
 2542 015e 7968     		ldr	r1, [r7, #4]
 890:./Libraries/STM32H7xx_HAL_Driver/Src/stm32h7xx_hal_tim_ex.c ****       {
 2543              		.loc 1 890 88
 2544 0160 FB68     		ldr	r3, [r7, #12]
 2545 0162 1B68     		ldr	r3, [r3]
 890:./Libraries/STM32H7xx_HAL_Driver/Src/stm32h7xx_hal_tim_ex.c ****       {
 2546              		.loc 1 890 83
 2547 0164 3433     		adds	r3, r3, #52
 890:./Libraries/STM32H7xx_HAL_Driver/Src/stm32h7xx_hal_tim_ex.c ****       {
 2548              		.loc 1 890 11
 2549 0166 1A46     		mov	r2, r3
 2550 0168 7B88     		ldrh	r3, [r7, #2]
 2551 016a FFF7FEFF 		bl	HAL_DMA_Start_IT
 2552 016e 0346     		mov	r3, r0
 890:./Libraries/STM32H7xx_HAL_Driver/Src/stm32h7xx_hal_tim_ex.c ****       {
 2553              		.loc 1 890 10
 2554 0170 002B     		cmp	r3, #0
 2555 0172 01D0     		beq	.L164
 893:./Libraries/STM32H7xx_HAL_Driver/Src/stm32h7xx_hal_tim_ex.c ****       }
 2556              		.loc 1 893 16
 2557 0174 0123     		movs	r3, #1
 2558 0176 A4E0     		b	.L145
 2559              	.L164:
 896:./Libraries/STM32H7xx_HAL_Driver/Src/stm32h7xx_hal_tim_ex.c ****       break;
 2560              		.loc 1 896 7
 2561 0178 FB68     		ldr	r3, [r7, #12]
 2562 017a 1B68     		ldr	r3, [r3]
 2563 017c DA68     		ldr	r2, [r3, #12]
 2564 017e FB68     		ldr	r3, [r7, #12]
 2565 0180 1B68     		ldr	r3, [r3]
 2566 0182 42F40072 		orr	r2, r2, #512
 2567 0186 DA60     		str	r2, [r3, #12]
 897:./Libraries/STM32H7xx_HAL_Driver/Src/stm32h7xx_hal_tim_ex.c ****     }
 2568              		.loc 1 897 7
 2569 0188 48E0     		b	.L165
 2570              	.L163:
 903:./Libraries/STM32H7xx_HAL_Driver/Src/stm32h7xx_hal_tim_ex.c ****       htim->hdma[TIM_DMA_ID_CC2]->XferHalfCpltCallback = TIM_DMADelayPulseHalfCplt;
 2571              		.loc 1 903 17
 2572 018a FB68     		ldr	r3, [r7, #12]
 2573 018c 9B6A     		ldr	r3, [r3, #40]
 903:./Libraries/STM32H7xx_HAL_Driver/Src/stm32h7xx_hal_tim_ex.c ****       htim->hdma[TIM_DMA_ID_CC2]->XferHalfCpltCallback = TIM_DMADelayPulseHalfCplt;
 2574              		.loc 1 903 52
 2575 018e 4F4A     		ldr	r2, .L174
 2576 0190 DA63     		str	r2, [r3, #60]
 904:./Libraries/STM32H7xx_HAL_Driver/Src/stm32h7xx_hal_tim_ex.c **** 
 2577              		.loc 1 904 17
 2578 0192 FB68     		ldr	r3, [r7, #12]
 2579 0194 9B6A     		ldr	r3, [r3, #40]
 904:./Libraries/STM32H7xx_HAL_Driver/Src/stm32h7xx_hal_tim_ex.c **** 
 2580              		.loc 1 904 56
ARM GAS  /tmp/ccxx2olO.s 			page 63


 2581 0196 4E4A     		ldr	r2, .L174+4
 2582 0198 1A64     		str	r2, [r3, #64]
 907:./Libraries/STM32H7xx_HAL_Driver/Src/stm32h7xx_hal_tim_ex.c **** 
 2583              		.loc 1 907 17
 2584 019a FB68     		ldr	r3, [r7, #12]
 2585 019c 9B6A     		ldr	r3, [r3, #40]
 907:./Libraries/STM32H7xx_HAL_Driver/Src/stm32h7xx_hal_tim_ex.c **** 
 2586              		.loc 1 907 53
 2587 019e 4D4A     		ldr	r2, .L174+8
 2588 01a0 DA64     		str	r2, [r3, #76]
 910:./Libraries/STM32H7xx_HAL_Driver/Src/stm32h7xx_hal_tim_ex.c ****       {
 2589              		.loc 1 910 11
 2590 01a2 FB68     		ldr	r3, [r7, #12]
 2591 01a4 986A     		ldr	r0, [r3, #40]
 2592 01a6 7968     		ldr	r1, [r7, #4]
 910:./Libraries/STM32H7xx_HAL_Driver/Src/stm32h7xx_hal_tim_ex.c ****       {
 2593              		.loc 1 910 88
 2594 01a8 FB68     		ldr	r3, [r7, #12]
 2595 01aa 1B68     		ldr	r3, [r3]
 910:./Libraries/STM32H7xx_HAL_Driver/Src/stm32h7xx_hal_tim_ex.c ****       {
 2596              		.loc 1 910 83
 2597 01ac 3833     		adds	r3, r3, #56
 910:./Libraries/STM32H7xx_HAL_Driver/Src/stm32h7xx_hal_tim_ex.c ****       {
 2598              		.loc 1 910 11
 2599 01ae 1A46     		mov	r2, r3
 2600 01b0 7B88     		ldrh	r3, [r7, #2]
 2601 01b2 FFF7FEFF 		bl	HAL_DMA_Start_IT
 2602 01b6 0346     		mov	r3, r0
 910:./Libraries/STM32H7xx_HAL_Driver/Src/stm32h7xx_hal_tim_ex.c ****       {
 2603              		.loc 1 910 10
 2604 01b8 002B     		cmp	r3, #0
 2605 01ba 01D0     		beq	.L166
 913:./Libraries/STM32H7xx_HAL_Driver/Src/stm32h7xx_hal_tim_ex.c ****       }
 2606              		.loc 1 913 16
 2607 01bc 0123     		movs	r3, #1
 2608 01be 80E0     		b	.L145
 2609              	.L166:
 916:./Libraries/STM32H7xx_HAL_Driver/Src/stm32h7xx_hal_tim_ex.c ****       break;
 2610              		.loc 1 916 7
 2611 01c0 FB68     		ldr	r3, [r7, #12]
 2612 01c2 1B68     		ldr	r3, [r3]
 2613 01c4 DA68     		ldr	r2, [r3, #12]
 2614 01c6 FB68     		ldr	r3, [r7, #12]
 2615 01c8 1B68     		ldr	r3, [r3]
 2616 01ca 42F48062 		orr	r2, r2, #1024
 2617 01ce DA60     		str	r2, [r3, #12]
 917:./Libraries/STM32H7xx_HAL_Driver/Src/stm32h7xx_hal_tim_ex.c ****     }
 2618              		.loc 1 917 7
 2619 01d0 24E0     		b	.L165
 2620              	.L160:
 923:./Libraries/STM32H7xx_HAL_Driver/Src/stm32h7xx_hal_tim_ex.c ****       htim->hdma[TIM_DMA_ID_CC3]->XferHalfCpltCallback = TIM_DMADelayPulseHalfCplt;
 2621              		.loc 1 923 17
 2622 01d2 FB68     		ldr	r3, [r7, #12]
 2623 01d4 DB6A     		ldr	r3, [r3, #44]
 923:./Libraries/STM32H7xx_HAL_Driver/Src/stm32h7xx_hal_tim_ex.c ****       htim->hdma[TIM_DMA_ID_CC3]->XferHalfCpltCallback = TIM_DMADelayPulseHalfCplt;
 2624              		.loc 1 923 52
 2625 01d6 3D4A     		ldr	r2, .L174
ARM GAS  /tmp/ccxx2olO.s 			page 64


 2626 01d8 DA63     		str	r2, [r3, #60]
 924:./Libraries/STM32H7xx_HAL_Driver/Src/stm32h7xx_hal_tim_ex.c **** 
 2627              		.loc 1 924 17
 2628 01da FB68     		ldr	r3, [r7, #12]
 2629 01dc DB6A     		ldr	r3, [r3, #44]
 924:./Libraries/STM32H7xx_HAL_Driver/Src/stm32h7xx_hal_tim_ex.c **** 
 2630              		.loc 1 924 56
 2631 01de 3C4A     		ldr	r2, .L174+4
 2632 01e0 1A64     		str	r2, [r3, #64]
 927:./Libraries/STM32H7xx_HAL_Driver/Src/stm32h7xx_hal_tim_ex.c **** 
 2633              		.loc 1 927 17
 2634 01e2 FB68     		ldr	r3, [r7, #12]
 2635 01e4 DB6A     		ldr	r3, [r3, #44]
 927:./Libraries/STM32H7xx_HAL_Driver/Src/stm32h7xx_hal_tim_ex.c **** 
 2636              		.loc 1 927 53
 2637 01e6 3B4A     		ldr	r2, .L174+8
 2638 01e8 DA64     		str	r2, [r3, #76]
 930:./Libraries/STM32H7xx_HAL_Driver/Src/stm32h7xx_hal_tim_ex.c ****       {
 2639              		.loc 1 930 11
 2640 01ea FB68     		ldr	r3, [r7, #12]
 2641 01ec D86A     		ldr	r0, [r3, #44]
 2642 01ee 7968     		ldr	r1, [r7, #4]
 930:./Libraries/STM32H7xx_HAL_Driver/Src/stm32h7xx_hal_tim_ex.c ****       {
 2643              		.loc 1 930 88
 2644 01f0 FB68     		ldr	r3, [r7, #12]
 2645 01f2 1B68     		ldr	r3, [r3]
 930:./Libraries/STM32H7xx_HAL_Driver/Src/stm32h7xx_hal_tim_ex.c ****       {
 2646              		.loc 1 930 83
 2647 01f4 3C33     		adds	r3, r3, #60
 930:./Libraries/STM32H7xx_HAL_Driver/Src/stm32h7xx_hal_tim_ex.c ****       {
 2648              		.loc 1 930 11
 2649 01f6 1A46     		mov	r2, r3
 2650 01f8 7B88     		ldrh	r3, [r7, #2]
 2651 01fa FFF7FEFF 		bl	HAL_DMA_Start_IT
 2652 01fe 0346     		mov	r3, r0
 930:./Libraries/STM32H7xx_HAL_Driver/Src/stm32h7xx_hal_tim_ex.c ****       {
 2653              		.loc 1 930 10
 2654 0200 002B     		cmp	r3, #0
 2655 0202 01D0     		beq	.L167
 933:./Libraries/STM32H7xx_HAL_Driver/Src/stm32h7xx_hal_tim_ex.c ****       }
 2656              		.loc 1 933 16
 2657 0204 0123     		movs	r3, #1
 2658 0206 5CE0     		b	.L145
 2659              	.L167:
 936:./Libraries/STM32H7xx_HAL_Driver/Src/stm32h7xx_hal_tim_ex.c ****       break;
 2660              		.loc 1 936 7
 2661 0208 FB68     		ldr	r3, [r7, #12]
 2662 020a 1B68     		ldr	r3, [r3]
 2663 020c DA68     		ldr	r2, [r3, #12]
 2664 020e FB68     		ldr	r3, [r7, #12]
 2665 0210 1B68     		ldr	r3, [r3]
 2666 0212 42F40062 		orr	r2, r2, #2048
 2667 0216 DA60     		str	r2, [r3, #12]
 937:./Libraries/STM32H7xx_HAL_Driver/Src/stm32h7xx_hal_tim_ex.c ****     }
 2668              		.loc 1 937 7
 2669 0218 00E0     		b	.L165
 2670              	.L172:
ARM GAS  /tmp/ccxx2olO.s 			page 65


 2671              		.loc 1 941 7
 2672 021a 00BF     		nop
 2673              	.L165:
 942:./Libraries/STM32H7xx_HAL_Driver/Src/stm32h7xx_hal_tim_ex.c ****   }
 943:./Libraries/STM32H7xx_HAL_Driver/Src/stm32h7xx_hal_tim_ex.c **** 
 944:./Libraries/STM32H7xx_HAL_Driver/Src/stm32h7xx_hal_tim_ex.c ****   /* Enable the Capture compare channel N */
 945:./Libraries/STM32H7xx_HAL_Driver/Src/stm32h7xx_hal_tim_ex.c ****   TIM_CCxNChannelCmd(htim->Instance, Channel, TIM_CCxN_ENABLE);
 2674              		.loc 1 945 3
 2675 021c FB68     		ldr	r3, [r7, #12]
 2676 021e 1B68     		ldr	r3, [r3]
 2677 0220 0422     		movs	r2, #4
 2678 0222 B968     		ldr	r1, [r7, #8]
 2679 0224 1846     		mov	r0, r3
 2680 0226 FFF7FEFF 		bl	TIM_CCxNChannelCmd
 946:./Libraries/STM32H7xx_HAL_Driver/Src/stm32h7xx_hal_tim_ex.c **** 
 947:./Libraries/STM32H7xx_HAL_Driver/Src/stm32h7xx_hal_tim_ex.c ****   /* Enable the Main Output */
 948:./Libraries/STM32H7xx_HAL_Driver/Src/stm32h7xx_hal_tim_ex.c ****   __HAL_TIM_MOE_ENABLE(htim);
 2681              		.loc 1 948 3
 2682 022a FB68     		ldr	r3, [r7, #12]
 2683 022c 1B68     		ldr	r3, [r3]
 2684 022e 5A6C     		ldr	r2, [r3, #68]
 2685 0230 FB68     		ldr	r3, [r7, #12]
 2686 0232 1B68     		ldr	r3, [r3]
 2687 0234 42F40042 		orr	r2, r2, #32768
 2688 0238 5A64     		str	r2, [r3, #68]
 949:./Libraries/STM32H7xx_HAL_Driver/Src/stm32h7xx_hal_tim_ex.c **** 
 950:./Libraries/STM32H7xx_HAL_Driver/Src/stm32h7xx_hal_tim_ex.c ****   /* Enable the Peripheral, except in trigger mode where enable is automatically done with trigger 
 951:./Libraries/STM32H7xx_HAL_Driver/Src/stm32h7xx_hal_tim_ex.c ****   if (IS_TIM_SLAVE_INSTANCE(htim->Instance))
 2689              		.loc 1 951 7
 2690 023a FB68     		ldr	r3, [r7, #12]
 2691 023c 1B68     		ldr	r3, [r3]
 2692              		.loc 1 951 6
 2693 023e 264A     		ldr	r2, .L174+12
 2694 0240 9342     		cmp	r3, r2
 2695 0242 1DD0     		beq	.L168
 2696              		.loc 1 951 7 discriminator 1
 2697 0244 FB68     		ldr	r3, [r7, #12]
 2698 0246 1B68     		ldr	r3, [r3]
 2699 0248 B3F1804F 		cmp	r3, #1073741824
 2700 024c 18D0     		beq	.L168
 2701              		.loc 1 951 7 is_stmt 0 discriminator 2
 2702 024e FB68     		ldr	r3, [r7, #12]
 2703 0250 1B68     		ldr	r3, [r3]
 2704 0252 224A     		ldr	r2, .L174+16
 2705 0254 9342     		cmp	r3, r2
 2706 0256 13D0     		beq	.L168
 2707              		.loc 1 951 7 discriminator 3
 2708 0258 FB68     		ldr	r3, [r7, #12]
 2709 025a 1B68     		ldr	r3, [r3]
 2710 025c 204A     		ldr	r2, .L174+20
 2711 025e 9342     		cmp	r3, r2
 2712 0260 0ED0     		beq	.L168
 2713              		.loc 1 951 7 discriminator 4
 2714 0262 FB68     		ldr	r3, [r7, #12]
 2715 0264 1B68     		ldr	r3, [r3]
 2716 0266 1F4A     		ldr	r2, .L174+24
 2717 0268 9342     		cmp	r3, r2
ARM GAS  /tmp/ccxx2olO.s 			page 66


 2718 026a 09D0     		beq	.L168
 2719              		.loc 1 951 7 discriminator 5
 2720 026c FB68     		ldr	r3, [r7, #12]
 2721 026e 1B68     		ldr	r3, [r3]
 2722 0270 1D4A     		ldr	r2, .L174+28
 2723 0272 9342     		cmp	r3, r2
 2724 0274 04D0     		beq	.L168
 2725              		.loc 1 951 7 discriminator 6
 2726 0276 FB68     		ldr	r3, [r7, #12]
 2727 0278 1B68     		ldr	r3, [r3]
 2728 027a 1C4A     		ldr	r2, .L174+32
 2729 027c 9342     		cmp	r3, r2
 2730 027e 15D1     		bne	.L169
 2731              	.L168:
 952:./Libraries/STM32H7xx_HAL_Driver/Src/stm32h7xx_hal_tim_ex.c ****   {
 953:./Libraries/STM32H7xx_HAL_Driver/Src/stm32h7xx_hal_tim_ex.c ****     tmpsmcr = htim->Instance->SMCR & TIM_SMCR_SMS;
 2732              		.loc 1 953 19 is_stmt 1
 2733 0280 FB68     		ldr	r3, [r7, #12]
 2734 0282 1B68     		ldr	r3, [r3]
 2735              		.loc 1 953 29
 2736 0284 9A68     		ldr	r2, [r3, #8]
 2737              		.loc 1 953 13
 2738 0286 1A4B     		ldr	r3, .L174+36
 2739 0288 1340     		ands	r3, r3, r2
 2740 028a 7B61     		str	r3, [r7, #20]
 954:./Libraries/STM32H7xx_HAL_Driver/Src/stm32h7xx_hal_tim_ex.c ****     if (!IS_TIM_SLAVEMODE_TRIGGER_ENABLED(tmpsmcr))
 2741              		.loc 1 954 8
 2742 028c 7B69     		ldr	r3, [r7, #20]
 2743 028e 062B     		cmp	r3, #6
 2744 0290 15D0     		beq	.L173
 2745              		.loc 1 954 9 discriminator 1
 2746 0292 7B69     		ldr	r3, [r7, #20]
 2747 0294 B3F5803F 		cmp	r3, #65536
 2748 0298 11D0     		beq	.L173
 955:./Libraries/STM32H7xx_HAL_Driver/Src/stm32h7xx_hal_tim_ex.c ****     {
 956:./Libraries/STM32H7xx_HAL_Driver/Src/stm32h7xx_hal_tim_ex.c ****       __HAL_TIM_ENABLE(htim);
 2749              		.loc 1 956 7
 2750 029a FB68     		ldr	r3, [r7, #12]
 2751 029c 1B68     		ldr	r3, [r3]
 2752 029e 1A68     		ldr	r2, [r3]
 2753 02a0 FB68     		ldr	r3, [r7, #12]
 2754 02a2 1B68     		ldr	r3, [r3]
 2755 02a4 42F00102 		orr	r2, r2, #1
 2756 02a8 1A60     		str	r2, [r3]
 954:./Libraries/STM32H7xx_HAL_Driver/Src/stm32h7xx_hal_tim_ex.c ****     if (!IS_TIM_SLAVEMODE_TRIGGER_ENABLED(tmpsmcr))
 2757              		.loc 1 954 8
 2758 02aa 08E0     		b	.L173
 2759              	.L169:
 957:./Libraries/STM32H7xx_HAL_Driver/Src/stm32h7xx_hal_tim_ex.c ****     }
 958:./Libraries/STM32H7xx_HAL_Driver/Src/stm32h7xx_hal_tim_ex.c ****   }
 959:./Libraries/STM32H7xx_HAL_Driver/Src/stm32h7xx_hal_tim_ex.c ****   else
 960:./Libraries/STM32H7xx_HAL_Driver/Src/stm32h7xx_hal_tim_ex.c ****   {
 961:./Libraries/STM32H7xx_HAL_Driver/Src/stm32h7xx_hal_tim_ex.c ****     __HAL_TIM_ENABLE(htim);
 2760              		.loc 1 961 5
 2761 02ac FB68     		ldr	r3, [r7, #12]
 2762 02ae 1B68     		ldr	r3, [r3]
 2763 02b0 1A68     		ldr	r2, [r3]
ARM GAS  /tmp/ccxx2olO.s 			page 67


 2764 02b2 FB68     		ldr	r3, [r7, #12]
 2765 02b4 1B68     		ldr	r3, [r3]
 2766 02b6 42F00102 		orr	r2, r2, #1
 2767 02ba 1A60     		str	r2, [r3]
 2768 02bc 00E0     		b	.L171
 2769              	.L173:
 954:./Libraries/STM32H7xx_HAL_Driver/Src/stm32h7xx_hal_tim_ex.c ****     {
 2770              		.loc 1 954 8
 2771 02be 00BF     		nop
 2772              	.L171:
 962:./Libraries/STM32H7xx_HAL_Driver/Src/stm32h7xx_hal_tim_ex.c ****   }
 963:./Libraries/STM32H7xx_HAL_Driver/Src/stm32h7xx_hal_tim_ex.c **** 
 964:./Libraries/STM32H7xx_HAL_Driver/Src/stm32h7xx_hal_tim_ex.c ****   /* Return function status */
 965:./Libraries/STM32H7xx_HAL_Driver/Src/stm32h7xx_hal_tim_ex.c ****   return HAL_OK;
 2773              		.loc 1 965 10
 2774 02c0 0023     		movs	r3, #0
 2775              	.L145:
 966:./Libraries/STM32H7xx_HAL_Driver/Src/stm32h7xx_hal_tim_ex.c **** }
 2776              		.loc 1 966 1
 2777 02c2 1846     		mov	r0, r3
 2778 02c4 1837     		adds	r7, r7, #24
 2779              	.LCFI75:
 2780              		.cfi_def_cfa_offset 8
 2781 02c6 BD46     		mov	sp, r7
 2782              	.LCFI76:
 2783              		.cfi_def_cfa_register 13
 2784              		@ sp needed
 2785 02c8 80BD     		pop	{r7, pc}
 2786              	.L175:
 2787 02ca 00BF     		.align	2
 2788              	.L174:
 2789 02cc 00000000 		.word	TIM_DMADelayPulseNCplt
 2790 02d0 00000000 		.word	TIM_DMADelayPulseHalfCplt
 2791 02d4 00000000 		.word	TIM_DMAErrorCCxN
 2792 02d8 00000140 		.word	1073807360
 2793 02dc 00040040 		.word	1073742848
 2794 02e0 00080040 		.word	1073743872
 2795 02e4 000C0040 		.word	1073744896
 2796 02e8 00040140 		.word	1073808384
 2797 02ec 00180040 		.word	1073747968
 2798 02f0 07000100 		.word	65543
 2799              		.cfi_endproc
 2800              	.LFE345:
 2802              		.section	.text.HAL_TIMEx_OCN_Stop_DMA,"ax",%progbits
 2803              		.align	1
 2804              		.global	HAL_TIMEx_OCN_Stop_DMA
 2805              		.syntax unified
 2806              		.thumb
 2807              		.thumb_func
 2808              		.fpu fpv5-d16
 2810              	HAL_TIMEx_OCN_Stop_DMA:
 2811              	.LFB346:
 967:./Libraries/STM32H7xx_HAL_Driver/Src/stm32h7xx_hal_tim_ex.c **** 
 968:./Libraries/STM32H7xx_HAL_Driver/Src/stm32h7xx_hal_tim_ex.c **** /**
 969:./Libraries/STM32H7xx_HAL_Driver/Src/stm32h7xx_hal_tim_ex.c ****   * @brief  Stops the TIM Output Compare signal generation in DMA mode
 970:./Libraries/STM32H7xx_HAL_Driver/Src/stm32h7xx_hal_tim_ex.c ****   *         on the complementary output.
 971:./Libraries/STM32H7xx_HAL_Driver/Src/stm32h7xx_hal_tim_ex.c ****   * @param  htim TIM Output Compare handle
ARM GAS  /tmp/ccxx2olO.s 			page 68


 972:./Libraries/STM32H7xx_HAL_Driver/Src/stm32h7xx_hal_tim_ex.c ****   * @param  Channel TIM Channel to be disabled
 973:./Libraries/STM32H7xx_HAL_Driver/Src/stm32h7xx_hal_tim_ex.c ****   *          This parameter can be one of the following values:
 974:./Libraries/STM32H7xx_HAL_Driver/Src/stm32h7xx_hal_tim_ex.c ****   *            @arg TIM_CHANNEL_1: TIM Channel 1 selected
 975:./Libraries/STM32H7xx_HAL_Driver/Src/stm32h7xx_hal_tim_ex.c ****   *            @arg TIM_CHANNEL_2: TIM Channel 2 selected
 976:./Libraries/STM32H7xx_HAL_Driver/Src/stm32h7xx_hal_tim_ex.c ****   *            @arg TIM_CHANNEL_3: TIM Channel 3 selected
 977:./Libraries/STM32H7xx_HAL_Driver/Src/stm32h7xx_hal_tim_ex.c ****   * @retval HAL status
 978:./Libraries/STM32H7xx_HAL_Driver/Src/stm32h7xx_hal_tim_ex.c ****   */
 979:./Libraries/STM32H7xx_HAL_Driver/Src/stm32h7xx_hal_tim_ex.c **** HAL_StatusTypeDef HAL_TIMEx_OCN_Stop_DMA(TIM_HandleTypeDef *htim, uint32_t Channel)
 980:./Libraries/STM32H7xx_HAL_Driver/Src/stm32h7xx_hal_tim_ex.c **** {
 2812              		.loc 1 980 1
 2813              		.cfi_startproc
 2814              		@ args = 0, pretend = 0, frame = 8
 2815              		@ frame_needed = 1, uses_anonymous_args = 0
 2816 0000 80B5     		push	{r7, lr}
 2817              	.LCFI77:
 2818              		.cfi_def_cfa_offset 8
 2819              		.cfi_offset 7, -8
 2820              		.cfi_offset 14, -4
 2821 0002 82B0     		sub	sp, sp, #8
 2822              	.LCFI78:
 2823              		.cfi_def_cfa_offset 16
 2824 0004 00AF     		add	r7, sp, #0
 2825              	.LCFI79:
 2826              		.cfi_def_cfa_register 7
 2827 0006 7860     		str	r0, [r7, #4]
 2828 0008 3960     		str	r1, [r7]
 981:./Libraries/STM32H7xx_HAL_Driver/Src/stm32h7xx_hal_tim_ex.c ****   /* Check the parameters */
 982:./Libraries/STM32H7xx_HAL_Driver/Src/stm32h7xx_hal_tim_ex.c ****   assert_param(IS_TIM_CCXN_INSTANCE(htim->Instance, Channel));
 983:./Libraries/STM32H7xx_HAL_Driver/Src/stm32h7xx_hal_tim_ex.c **** 
 984:./Libraries/STM32H7xx_HAL_Driver/Src/stm32h7xx_hal_tim_ex.c ****   switch (Channel)
 2829              		.loc 1 984 3
 2830 000a 3B68     		ldr	r3, [r7]
 2831 000c 082B     		cmp	r3, #8
 2832 000e 25D0     		beq	.L177
 2833 0010 3B68     		ldr	r3, [r7]
 2834 0012 082B     		cmp	r3, #8
 2835 0014 30D8     		bhi	.L191
 2836 0016 3B68     		ldr	r3, [r7]
 2837 0018 002B     		cmp	r3, #0
 2838 001a 03D0     		beq	.L179
 2839 001c 3B68     		ldr	r3, [r7]
 2840 001e 042B     		cmp	r3, #4
 2841 0020 0ED0     		beq	.L180
 985:./Libraries/STM32H7xx_HAL_Driver/Src/stm32h7xx_hal_tim_ex.c ****   {
 986:./Libraries/STM32H7xx_HAL_Driver/Src/stm32h7xx_hal_tim_ex.c ****     case TIM_CHANNEL_1:
 987:./Libraries/STM32H7xx_HAL_Driver/Src/stm32h7xx_hal_tim_ex.c ****     {
 988:./Libraries/STM32H7xx_HAL_Driver/Src/stm32h7xx_hal_tim_ex.c ****       /* Disable the TIM Output Compare DMA request */
 989:./Libraries/STM32H7xx_HAL_Driver/Src/stm32h7xx_hal_tim_ex.c ****       __HAL_TIM_DISABLE_DMA(htim, TIM_DMA_CC1);
 990:./Libraries/STM32H7xx_HAL_Driver/Src/stm32h7xx_hal_tim_ex.c ****       (void)HAL_DMA_Abort_IT(htim->hdma[TIM_DMA_ID_CC1]);
 991:./Libraries/STM32H7xx_HAL_Driver/Src/stm32h7xx_hal_tim_ex.c ****       break;
 992:./Libraries/STM32H7xx_HAL_Driver/Src/stm32h7xx_hal_tim_ex.c ****     }
 993:./Libraries/STM32H7xx_HAL_Driver/Src/stm32h7xx_hal_tim_ex.c **** 
 994:./Libraries/STM32H7xx_HAL_Driver/Src/stm32h7xx_hal_tim_ex.c ****     case TIM_CHANNEL_2:
 995:./Libraries/STM32H7xx_HAL_Driver/Src/stm32h7xx_hal_tim_ex.c ****     {
 996:./Libraries/STM32H7xx_HAL_Driver/Src/stm32h7xx_hal_tim_ex.c ****       /* Disable the TIM Output Compare DMA request */
 997:./Libraries/STM32H7xx_HAL_Driver/Src/stm32h7xx_hal_tim_ex.c ****       __HAL_TIM_DISABLE_DMA(htim, TIM_DMA_CC2);
 998:./Libraries/STM32H7xx_HAL_Driver/Src/stm32h7xx_hal_tim_ex.c ****       (void)HAL_DMA_Abort_IT(htim->hdma[TIM_DMA_ID_CC2]);
ARM GAS  /tmp/ccxx2olO.s 			page 69


 999:./Libraries/STM32H7xx_HAL_Driver/Src/stm32h7xx_hal_tim_ex.c ****       break;
1000:./Libraries/STM32H7xx_HAL_Driver/Src/stm32h7xx_hal_tim_ex.c ****     }
1001:./Libraries/STM32H7xx_HAL_Driver/Src/stm32h7xx_hal_tim_ex.c **** 
1002:./Libraries/STM32H7xx_HAL_Driver/Src/stm32h7xx_hal_tim_ex.c ****     case TIM_CHANNEL_3:
1003:./Libraries/STM32H7xx_HAL_Driver/Src/stm32h7xx_hal_tim_ex.c ****     {
1004:./Libraries/STM32H7xx_HAL_Driver/Src/stm32h7xx_hal_tim_ex.c ****       /* Disable the TIM Output Compare DMA request */
1005:./Libraries/STM32H7xx_HAL_Driver/Src/stm32h7xx_hal_tim_ex.c ****       __HAL_TIM_DISABLE_DMA(htim, TIM_DMA_CC3);
1006:./Libraries/STM32H7xx_HAL_Driver/Src/stm32h7xx_hal_tim_ex.c ****       (void)HAL_DMA_Abort_IT(htim->hdma[TIM_DMA_ID_CC3]);
1007:./Libraries/STM32H7xx_HAL_Driver/Src/stm32h7xx_hal_tim_ex.c ****       break;
1008:./Libraries/STM32H7xx_HAL_Driver/Src/stm32h7xx_hal_tim_ex.c ****     }
1009:./Libraries/STM32H7xx_HAL_Driver/Src/stm32h7xx_hal_tim_ex.c **** 
1010:./Libraries/STM32H7xx_HAL_Driver/Src/stm32h7xx_hal_tim_ex.c ****     default:
1011:./Libraries/STM32H7xx_HAL_Driver/Src/stm32h7xx_hal_tim_ex.c ****       break;
 2842              		.loc 1 1011 7
 2843 0022 29E0     		b	.L191
 2844              	.L179:
 989:./Libraries/STM32H7xx_HAL_Driver/Src/stm32h7xx_hal_tim_ex.c ****       (void)HAL_DMA_Abort_IT(htim->hdma[TIM_DMA_ID_CC1]);
 2845              		.loc 1 989 7
 2846 0024 7B68     		ldr	r3, [r7, #4]
 2847 0026 1B68     		ldr	r3, [r3]
 2848 0028 DA68     		ldr	r2, [r3, #12]
 2849 002a 7B68     		ldr	r3, [r7, #4]
 2850 002c 1B68     		ldr	r3, [r3]
 2851 002e 22F40072 		bic	r2, r2, #512
 2852 0032 DA60     		str	r2, [r3, #12]
 990:./Libraries/STM32H7xx_HAL_Driver/Src/stm32h7xx_hal_tim_ex.c ****       break;
 2853              		.loc 1 990 13
 2854 0034 7B68     		ldr	r3, [r7, #4]
 2855 0036 5B6A     		ldr	r3, [r3, #36]
 2856 0038 1846     		mov	r0, r3
 2857 003a FFF7FEFF 		bl	HAL_DMA_Abort_IT
 991:./Libraries/STM32H7xx_HAL_Driver/Src/stm32h7xx_hal_tim_ex.c ****     }
 2858              		.loc 1 991 7
 2859 003e 1CE0     		b	.L181
 2860              	.L180:
 997:./Libraries/STM32H7xx_HAL_Driver/Src/stm32h7xx_hal_tim_ex.c ****       (void)HAL_DMA_Abort_IT(htim->hdma[TIM_DMA_ID_CC2]);
 2861              		.loc 1 997 7
 2862 0040 7B68     		ldr	r3, [r7, #4]
 2863 0042 1B68     		ldr	r3, [r3]
 2864 0044 DA68     		ldr	r2, [r3, #12]
 2865 0046 7B68     		ldr	r3, [r7, #4]
 2866 0048 1B68     		ldr	r3, [r3]
 2867 004a 22F48062 		bic	r2, r2, #1024
 2868 004e DA60     		str	r2, [r3, #12]
 998:./Libraries/STM32H7xx_HAL_Driver/Src/stm32h7xx_hal_tim_ex.c ****       break;
 2869              		.loc 1 998 13
 2870 0050 7B68     		ldr	r3, [r7, #4]
 2871 0052 9B6A     		ldr	r3, [r3, #40]
 2872 0054 1846     		mov	r0, r3
 2873 0056 FFF7FEFF 		bl	HAL_DMA_Abort_IT
 999:./Libraries/STM32H7xx_HAL_Driver/Src/stm32h7xx_hal_tim_ex.c ****     }
 2874              		.loc 1 999 7
 2875 005a 0EE0     		b	.L181
 2876              	.L177:
1005:./Libraries/STM32H7xx_HAL_Driver/Src/stm32h7xx_hal_tim_ex.c ****       (void)HAL_DMA_Abort_IT(htim->hdma[TIM_DMA_ID_CC3]);
 2877              		.loc 1 1005 7
 2878 005c 7B68     		ldr	r3, [r7, #4]
ARM GAS  /tmp/ccxx2olO.s 			page 70


 2879 005e 1B68     		ldr	r3, [r3]
 2880 0060 DA68     		ldr	r2, [r3, #12]
 2881 0062 7B68     		ldr	r3, [r7, #4]
 2882 0064 1B68     		ldr	r3, [r3]
 2883 0066 22F40062 		bic	r2, r2, #2048
 2884 006a DA60     		str	r2, [r3, #12]
1006:./Libraries/STM32H7xx_HAL_Driver/Src/stm32h7xx_hal_tim_ex.c ****       break;
 2885              		.loc 1 1006 13
 2886 006c 7B68     		ldr	r3, [r7, #4]
 2887 006e DB6A     		ldr	r3, [r3, #44]
 2888 0070 1846     		mov	r0, r3
 2889 0072 FFF7FEFF 		bl	HAL_DMA_Abort_IT
1007:./Libraries/STM32H7xx_HAL_Driver/Src/stm32h7xx_hal_tim_ex.c ****     }
 2890              		.loc 1 1007 7
 2891 0076 00E0     		b	.L181
 2892              	.L191:
 2893              		.loc 1 1011 7
 2894 0078 00BF     		nop
 2895              	.L181:
1012:./Libraries/STM32H7xx_HAL_Driver/Src/stm32h7xx_hal_tim_ex.c ****   }
1013:./Libraries/STM32H7xx_HAL_Driver/Src/stm32h7xx_hal_tim_ex.c **** 
1014:./Libraries/STM32H7xx_HAL_Driver/Src/stm32h7xx_hal_tim_ex.c ****   /* Disable the Capture compare channel N */
1015:./Libraries/STM32H7xx_HAL_Driver/Src/stm32h7xx_hal_tim_ex.c ****   TIM_CCxNChannelCmd(htim->Instance, Channel, TIM_CCxN_DISABLE);
 2896              		.loc 1 1015 3
 2897 007a 7B68     		ldr	r3, [r7, #4]
 2898 007c 1B68     		ldr	r3, [r3]
 2899 007e 0022     		movs	r2, #0
 2900 0080 3968     		ldr	r1, [r7]
 2901 0082 1846     		mov	r0, r3
 2902 0084 FFF7FEFF 		bl	TIM_CCxNChannelCmd
1016:./Libraries/STM32H7xx_HAL_Driver/Src/stm32h7xx_hal_tim_ex.c **** 
1017:./Libraries/STM32H7xx_HAL_Driver/Src/stm32h7xx_hal_tim_ex.c ****   /* Disable the Main Output */
1018:./Libraries/STM32H7xx_HAL_Driver/Src/stm32h7xx_hal_tim_ex.c ****   __HAL_TIM_MOE_DISABLE(htim);
 2903              		.loc 1 1018 3
 2904 0088 7B68     		ldr	r3, [r7, #4]
 2905 008a 1B68     		ldr	r3, [r3]
 2906 008c 1A6A     		ldr	r2, [r3, #32]
 2907 008e 41F21113 		movw	r3, #4369
 2908 0092 1340     		ands	r3, r3, r2
 2909 0094 002B     		cmp	r3, #0
 2910 0096 0FD1     		bne	.L182
 2911              		.loc 1 1018 3 is_stmt 0 discriminator 1
 2912 0098 7B68     		ldr	r3, [r7, #4]
 2913 009a 1B68     		ldr	r3, [r3]
 2914 009c 1A6A     		ldr	r2, [r3, #32]
 2915 009e 40F24443 		movw	r3, #1092
 2916 00a2 1340     		ands	r3, r3, r2
 2917 00a4 002B     		cmp	r3, #0
 2918 00a6 07D1     		bne	.L182
 2919              		.loc 1 1018 3 discriminator 2
 2920 00a8 7B68     		ldr	r3, [r7, #4]
 2921 00aa 1B68     		ldr	r3, [r3]
 2922 00ac 5A6C     		ldr	r2, [r3, #68]
 2923 00ae 7B68     		ldr	r3, [r7, #4]
 2924 00b0 1B68     		ldr	r3, [r3]
 2925 00b2 22F40042 		bic	r2, r2, #32768
 2926 00b6 5A64     		str	r2, [r3, #68]
ARM GAS  /tmp/ccxx2olO.s 			page 71


 2927              	.L182:
1019:./Libraries/STM32H7xx_HAL_Driver/Src/stm32h7xx_hal_tim_ex.c **** 
1020:./Libraries/STM32H7xx_HAL_Driver/Src/stm32h7xx_hal_tim_ex.c ****   /* Disable the Peripheral */
1021:./Libraries/STM32H7xx_HAL_Driver/Src/stm32h7xx_hal_tim_ex.c ****   __HAL_TIM_DISABLE(htim);
 2928              		.loc 1 1021 3 is_stmt 1
 2929 00b8 7B68     		ldr	r3, [r7, #4]
 2930 00ba 1B68     		ldr	r3, [r3]
 2931 00bc 1A6A     		ldr	r2, [r3, #32]
 2932 00be 41F21113 		movw	r3, #4369
 2933 00c2 1340     		ands	r3, r3, r2
 2934 00c4 002B     		cmp	r3, #0
 2935 00c6 0FD1     		bne	.L183
 2936              		.loc 1 1021 3 is_stmt 0 discriminator 1
 2937 00c8 7B68     		ldr	r3, [r7, #4]
 2938 00ca 1B68     		ldr	r3, [r3]
 2939 00cc 1A6A     		ldr	r2, [r3, #32]
 2940 00ce 40F24443 		movw	r3, #1092
 2941 00d2 1340     		ands	r3, r3, r2
 2942 00d4 002B     		cmp	r3, #0
 2943 00d6 07D1     		bne	.L183
 2944              		.loc 1 1021 3 discriminator 2
 2945 00d8 7B68     		ldr	r3, [r7, #4]
 2946 00da 1B68     		ldr	r3, [r3]
 2947 00dc 1A68     		ldr	r2, [r3]
 2948 00de 7B68     		ldr	r3, [r7, #4]
 2949 00e0 1B68     		ldr	r3, [r3]
 2950 00e2 22F00102 		bic	r2, r2, #1
 2951 00e6 1A60     		str	r2, [r3]
 2952              	.L183:
1022:./Libraries/STM32H7xx_HAL_Driver/Src/stm32h7xx_hal_tim_ex.c **** 
1023:./Libraries/STM32H7xx_HAL_Driver/Src/stm32h7xx_hal_tim_ex.c ****   /* Set the TIM complementary channel state */
1024:./Libraries/STM32H7xx_HAL_Driver/Src/stm32h7xx_hal_tim_ex.c ****   TIM_CHANNEL_N_STATE_SET(htim, Channel, HAL_TIM_CHANNEL_STATE_READY);
 2953              		.loc 1 1024 3 is_stmt 1
 2954 00e8 3B68     		ldr	r3, [r7]
 2955 00ea 002B     		cmp	r3, #0
 2956 00ec 04D1     		bne	.L184
 2957              		.loc 1 1024 3 is_stmt 0 discriminator 1
 2958 00ee 7B68     		ldr	r3, [r7, #4]
 2959 00f0 0122     		movs	r2, #1
 2960 00f2 83F84420 		strb	r2, [r3, #68]
 2961 00f6 13E0     		b	.L185
 2962              	.L184:
 2963              		.loc 1 1024 3 discriminator 2
 2964 00f8 3B68     		ldr	r3, [r7]
 2965 00fa 042B     		cmp	r3, #4
 2966 00fc 04D1     		bne	.L186
 2967              		.loc 1 1024 3 discriminator 3
 2968 00fe 7B68     		ldr	r3, [r7, #4]
 2969 0100 0122     		movs	r2, #1
 2970 0102 83F84520 		strb	r2, [r3, #69]
 2971 0106 0BE0     		b	.L185
 2972              	.L186:
 2973              		.loc 1 1024 3 discriminator 4
 2974 0108 3B68     		ldr	r3, [r7]
 2975 010a 082B     		cmp	r3, #8
 2976 010c 04D1     		bne	.L188
 2977              		.loc 1 1024 3 discriminator 6
ARM GAS  /tmp/ccxx2olO.s 			page 72


 2978 010e 7B68     		ldr	r3, [r7, #4]
 2979 0110 0122     		movs	r2, #1
 2980 0112 83F84620 		strb	r2, [r3, #70]
 2981 0116 03E0     		b	.L185
 2982              	.L188:
 2983              		.loc 1 1024 3 discriminator 7
 2984 0118 7B68     		ldr	r3, [r7, #4]
 2985 011a 0122     		movs	r2, #1
 2986 011c 83F84720 		strb	r2, [r3, #71]
 2987              	.L185:
1025:./Libraries/STM32H7xx_HAL_Driver/Src/stm32h7xx_hal_tim_ex.c **** 
1026:./Libraries/STM32H7xx_HAL_Driver/Src/stm32h7xx_hal_tim_ex.c ****   /* Return function status */
1027:./Libraries/STM32H7xx_HAL_Driver/Src/stm32h7xx_hal_tim_ex.c ****   return HAL_OK;
 2988              		.loc 1 1027 10 is_stmt 1
 2989 0120 0023     		movs	r3, #0
1028:./Libraries/STM32H7xx_HAL_Driver/Src/stm32h7xx_hal_tim_ex.c **** }
 2990              		.loc 1 1028 1
 2991 0122 1846     		mov	r0, r3
 2992 0124 0837     		adds	r7, r7, #8
 2993              	.LCFI80:
 2994              		.cfi_def_cfa_offset 8
 2995 0126 BD46     		mov	sp, r7
 2996              	.LCFI81:
 2997              		.cfi_def_cfa_register 13
 2998              		@ sp needed
 2999 0128 80BD     		pop	{r7, pc}
 3000              		.cfi_endproc
 3001              	.LFE346:
 3003              		.section	.text.HAL_TIMEx_PWMN_Start,"ax",%progbits
 3004              		.align	1
 3005              		.global	HAL_TIMEx_PWMN_Start
 3006              		.syntax unified
 3007              		.thumb
 3008              		.thumb_func
 3009              		.fpu fpv5-d16
 3011              	HAL_TIMEx_PWMN_Start:
 3012              	.LFB347:
1029:./Libraries/STM32H7xx_HAL_Driver/Src/stm32h7xx_hal_tim_ex.c **** 
1030:./Libraries/STM32H7xx_HAL_Driver/Src/stm32h7xx_hal_tim_ex.c **** /**
1031:./Libraries/STM32H7xx_HAL_Driver/Src/stm32h7xx_hal_tim_ex.c ****   * @}
1032:./Libraries/STM32H7xx_HAL_Driver/Src/stm32h7xx_hal_tim_ex.c ****   */
1033:./Libraries/STM32H7xx_HAL_Driver/Src/stm32h7xx_hal_tim_ex.c **** 
1034:./Libraries/STM32H7xx_HAL_Driver/Src/stm32h7xx_hal_tim_ex.c **** /** @defgroup TIMEx_Exported_Functions_Group3 Extended Timer Complementary PWM functions
1035:./Libraries/STM32H7xx_HAL_Driver/Src/stm32h7xx_hal_tim_ex.c ****   * @brief    Timer Complementary PWM functions
1036:./Libraries/STM32H7xx_HAL_Driver/Src/stm32h7xx_hal_tim_ex.c ****   *
1037:./Libraries/STM32H7xx_HAL_Driver/Src/stm32h7xx_hal_tim_ex.c **** @verbatim
1038:./Libraries/STM32H7xx_HAL_Driver/Src/stm32h7xx_hal_tim_ex.c ****   ==============================================================================
1039:./Libraries/STM32H7xx_HAL_Driver/Src/stm32h7xx_hal_tim_ex.c ****                  ##### Timer Complementary PWM functions #####
1040:./Libraries/STM32H7xx_HAL_Driver/Src/stm32h7xx_hal_tim_ex.c ****   ==============================================================================
1041:./Libraries/STM32H7xx_HAL_Driver/Src/stm32h7xx_hal_tim_ex.c ****   [..]
1042:./Libraries/STM32H7xx_HAL_Driver/Src/stm32h7xx_hal_tim_ex.c ****     This section provides functions allowing to:
1043:./Libraries/STM32H7xx_HAL_Driver/Src/stm32h7xx_hal_tim_ex.c ****     (+) Start the Complementary PWM.
1044:./Libraries/STM32H7xx_HAL_Driver/Src/stm32h7xx_hal_tim_ex.c ****     (+) Stop the Complementary PWM.
1045:./Libraries/STM32H7xx_HAL_Driver/Src/stm32h7xx_hal_tim_ex.c ****     (+) Start the Complementary PWM and enable interrupts.
1046:./Libraries/STM32H7xx_HAL_Driver/Src/stm32h7xx_hal_tim_ex.c ****     (+) Stop the Complementary PWM and disable interrupts.
1047:./Libraries/STM32H7xx_HAL_Driver/Src/stm32h7xx_hal_tim_ex.c ****     (+) Start the Complementary PWM and enable DMA transfers.
1048:./Libraries/STM32H7xx_HAL_Driver/Src/stm32h7xx_hal_tim_ex.c ****     (+) Stop the Complementary PWM and disable DMA transfers.
ARM GAS  /tmp/ccxx2olO.s 			page 73


1049:./Libraries/STM32H7xx_HAL_Driver/Src/stm32h7xx_hal_tim_ex.c ****     (+) Start the Complementary Input Capture measurement.
1050:./Libraries/STM32H7xx_HAL_Driver/Src/stm32h7xx_hal_tim_ex.c ****     (+) Stop the Complementary Input Capture.
1051:./Libraries/STM32H7xx_HAL_Driver/Src/stm32h7xx_hal_tim_ex.c ****     (+) Start the Complementary Input Capture and enable interrupts.
1052:./Libraries/STM32H7xx_HAL_Driver/Src/stm32h7xx_hal_tim_ex.c ****     (+) Stop the Complementary Input Capture and disable interrupts.
1053:./Libraries/STM32H7xx_HAL_Driver/Src/stm32h7xx_hal_tim_ex.c ****     (+) Start the Complementary Input Capture and enable DMA transfers.
1054:./Libraries/STM32H7xx_HAL_Driver/Src/stm32h7xx_hal_tim_ex.c ****     (+) Stop the Complementary Input Capture and disable DMA transfers.
1055:./Libraries/STM32H7xx_HAL_Driver/Src/stm32h7xx_hal_tim_ex.c ****     (+) Start the Complementary One Pulse generation.
1056:./Libraries/STM32H7xx_HAL_Driver/Src/stm32h7xx_hal_tim_ex.c ****     (+) Stop the Complementary One Pulse.
1057:./Libraries/STM32H7xx_HAL_Driver/Src/stm32h7xx_hal_tim_ex.c ****     (+) Start the Complementary One Pulse and enable interrupts.
1058:./Libraries/STM32H7xx_HAL_Driver/Src/stm32h7xx_hal_tim_ex.c ****     (+) Stop the Complementary One Pulse and disable interrupts.
1059:./Libraries/STM32H7xx_HAL_Driver/Src/stm32h7xx_hal_tim_ex.c **** 
1060:./Libraries/STM32H7xx_HAL_Driver/Src/stm32h7xx_hal_tim_ex.c **** @endverbatim
1061:./Libraries/STM32H7xx_HAL_Driver/Src/stm32h7xx_hal_tim_ex.c ****   * @{
1062:./Libraries/STM32H7xx_HAL_Driver/Src/stm32h7xx_hal_tim_ex.c ****   */
1063:./Libraries/STM32H7xx_HAL_Driver/Src/stm32h7xx_hal_tim_ex.c **** 
1064:./Libraries/STM32H7xx_HAL_Driver/Src/stm32h7xx_hal_tim_ex.c **** /**
1065:./Libraries/STM32H7xx_HAL_Driver/Src/stm32h7xx_hal_tim_ex.c ****   * @brief  Starts the PWM signal generation on the complementary output.
1066:./Libraries/STM32H7xx_HAL_Driver/Src/stm32h7xx_hal_tim_ex.c ****   * @param  htim TIM handle
1067:./Libraries/STM32H7xx_HAL_Driver/Src/stm32h7xx_hal_tim_ex.c ****   * @param  Channel TIM Channel to be enabled
1068:./Libraries/STM32H7xx_HAL_Driver/Src/stm32h7xx_hal_tim_ex.c ****   *          This parameter can be one of the following values:
1069:./Libraries/STM32H7xx_HAL_Driver/Src/stm32h7xx_hal_tim_ex.c ****   *            @arg TIM_CHANNEL_1: TIM Channel 1 selected
1070:./Libraries/STM32H7xx_HAL_Driver/Src/stm32h7xx_hal_tim_ex.c ****   *            @arg TIM_CHANNEL_2: TIM Channel 2 selected
1071:./Libraries/STM32H7xx_HAL_Driver/Src/stm32h7xx_hal_tim_ex.c ****   *            @arg TIM_CHANNEL_3: TIM Channel 3 selected
1072:./Libraries/STM32H7xx_HAL_Driver/Src/stm32h7xx_hal_tim_ex.c ****   * @retval HAL status
1073:./Libraries/STM32H7xx_HAL_Driver/Src/stm32h7xx_hal_tim_ex.c ****   */
1074:./Libraries/STM32H7xx_HAL_Driver/Src/stm32h7xx_hal_tim_ex.c **** HAL_StatusTypeDef HAL_TIMEx_PWMN_Start(TIM_HandleTypeDef *htim, uint32_t Channel)
1075:./Libraries/STM32H7xx_HAL_Driver/Src/stm32h7xx_hal_tim_ex.c **** {
 3013              		.loc 1 1075 1
 3014              		.cfi_startproc
 3015              		@ args = 0, pretend = 0, frame = 16
 3016              		@ frame_needed = 1, uses_anonymous_args = 0
 3017 0000 80B5     		push	{r7, lr}
 3018              	.LCFI82:
 3019              		.cfi_def_cfa_offset 8
 3020              		.cfi_offset 7, -8
 3021              		.cfi_offset 14, -4
 3022 0002 84B0     		sub	sp, sp, #16
 3023              	.LCFI83:
 3024              		.cfi_def_cfa_offset 24
 3025 0004 00AF     		add	r7, sp, #0
 3026              	.LCFI84:
 3027              		.cfi_def_cfa_register 7
 3028 0006 7860     		str	r0, [r7, #4]
 3029 0008 3960     		str	r1, [r7]
1076:./Libraries/STM32H7xx_HAL_Driver/Src/stm32h7xx_hal_tim_ex.c ****   uint32_t tmpsmcr;
1077:./Libraries/STM32H7xx_HAL_Driver/Src/stm32h7xx_hal_tim_ex.c **** 
1078:./Libraries/STM32H7xx_HAL_Driver/Src/stm32h7xx_hal_tim_ex.c ****   /* Check the parameters */
1079:./Libraries/STM32H7xx_HAL_Driver/Src/stm32h7xx_hal_tim_ex.c ****   assert_param(IS_TIM_CCXN_INSTANCE(htim->Instance, Channel));
1080:./Libraries/STM32H7xx_HAL_Driver/Src/stm32h7xx_hal_tim_ex.c **** 
1081:./Libraries/STM32H7xx_HAL_Driver/Src/stm32h7xx_hal_tim_ex.c ****   /* Check the TIM complementary channel state */
1082:./Libraries/STM32H7xx_HAL_Driver/Src/stm32h7xx_hal_tim_ex.c ****   if (TIM_CHANNEL_N_STATE_GET(htim, Channel) != HAL_TIM_CHANNEL_STATE_READY)
 3030              		.loc 1 1082 46
 3031 000a 3B68     		ldr	r3, [r7]
 3032 000c 002B     		cmp	r3, #0
 3033 000e 09D1     		bne	.L193
 3034              		.loc 1 1082 7 discriminator 1
 3035 0010 7B68     		ldr	r3, [r7, #4]
ARM GAS  /tmp/ccxx2olO.s 			page 74


 3036 0012 93F84430 		ldrb	r3, [r3, #68]
 3037 0016 DBB2     		uxtb	r3, r3
 3038              		.loc 1 1082 46 discriminator 1
 3039 0018 012B     		cmp	r3, #1
 3040 001a 14BF     		ite	ne
 3041 001c 0123     		movne	r3, #1
 3042 001e 0023     		moveq	r3, #0
 3043 0020 DBB2     		uxtb	r3, r3
 3044 0022 22E0     		b	.L194
 3045              	.L193:
 3046              		.loc 1 1082 46 is_stmt 0 discriminator 2
 3047 0024 3B68     		ldr	r3, [r7]
 3048 0026 042B     		cmp	r3, #4
 3049 0028 09D1     		bne	.L195
 3050              		.loc 1 1082 7 is_stmt 1 discriminator 4
 3051 002a 7B68     		ldr	r3, [r7, #4]
 3052 002c 93F84530 		ldrb	r3, [r3, #69]
 3053 0030 DBB2     		uxtb	r3, r3
 3054              		.loc 1 1082 46 discriminator 4
 3055 0032 012B     		cmp	r3, #1
 3056 0034 14BF     		ite	ne
 3057 0036 0123     		movne	r3, #1
 3058 0038 0023     		moveq	r3, #0
 3059 003a DBB2     		uxtb	r3, r3
 3060 003c 15E0     		b	.L194
 3061              	.L195:
 3062              		.loc 1 1082 46 is_stmt 0 discriminator 5
 3063 003e 3B68     		ldr	r3, [r7]
 3064 0040 082B     		cmp	r3, #8
 3065 0042 09D1     		bne	.L197
 3066              		.loc 1 1082 7 is_stmt 1 discriminator 7
 3067 0044 7B68     		ldr	r3, [r7, #4]
 3068 0046 93F84630 		ldrb	r3, [r3, #70]
 3069 004a DBB2     		uxtb	r3, r3
 3070              		.loc 1 1082 46 discriminator 7
 3071 004c 012B     		cmp	r3, #1
 3072 004e 14BF     		ite	ne
 3073 0050 0123     		movne	r3, #1
 3074 0052 0023     		moveq	r3, #0
 3075 0054 DBB2     		uxtb	r3, r3
 3076 0056 08E0     		b	.L194
 3077              	.L197:
 3078              		.loc 1 1082 7 discriminator 8
 3079 0058 7B68     		ldr	r3, [r7, #4]
 3080 005a 93F84730 		ldrb	r3, [r3, #71]
 3081 005e DBB2     		uxtb	r3, r3
 3082              		.loc 1 1082 46 discriminator 8
 3083 0060 012B     		cmp	r3, #1
 3084 0062 14BF     		ite	ne
 3085 0064 0123     		movne	r3, #1
 3086 0066 0023     		moveq	r3, #0
 3087 0068 DBB2     		uxtb	r3, r3
 3088              	.L194:
 3089              		.loc 1 1082 6 discriminator 12
 3090 006a 002B     		cmp	r3, #0
 3091 006c 01D0     		beq	.L199
1083:./Libraries/STM32H7xx_HAL_Driver/Src/stm32h7xx_hal_tim_ex.c ****   {
ARM GAS  /tmp/ccxx2olO.s 			page 75


1084:./Libraries/STM32H7xx_HAL_Driver/Src/stm32h7xx_hal_tim_ex.c ****     return HAL_ERROR;
 3092              		.loc 1 1084 12
 3093 006e 0123     		movs	r3, #1
 3094 0070 6EE0     		b	.L200
 3095              	.L199:
1085:./Libraries/STM32H7xx_HAL_Driver/Src/stm32h7xx_hal_tim_ex.c ****   }
1086:./Libraries/STM32H7xx_HAL_Driver/Src/stm32h7xx_hal_tim_ex.c **** 
1087:./Libraries/STM32H7xx_HAL_Driver/Src/stm32h7xx_hal_tim_ex.c ****   /* Set the TIM complementary channel state */
1088:./Libraries/STM32H7xx_HAL_Driver/Src/stm32h7xx_hal_tim_ex.c ****   TIM_CHANNEL_N_STATE_SET(htim, Channel, HAL_TIM_CHANNEL_STATE_BUSY);
 3096              		.loc 1 1088 3
 3097 0072 3B68     		ldr	r3, [r7]
 3098 0074 002B     		cmp	r3, #0
 3099 0076 04D1     		bne	.L201
 3100              		.loc 1 1088 3 is_stmt 0 discriminator 1
 3101 0078 7B68     		ldr	r3, [r7, #4]
 3102 007a 0222     		movs	r2, #2
 3103 007c 83F84420 		strb	r2, [r3, #68]
 3104 0080 13E0     		b	.L202
 3105              	.L201:
 3106              		.loc 1 1088 3 discriminator 2
 3107 0082 3B68     		ldr	r3, [r7]
 3108 0084 042B     		cmp	r3, #4
 3109 0086 04D1     		bne	.L203
 3110              		.loc 1 1088 3 discriminator 3
 3111 0088 7B68     		ldr	r3, [r7, #4]
 3112 008a 0222     		movs	r2, #2
 3113 008c 83F84520 		strb	r2, [r3, #69]
 3114 0090 0BE0     		b	.L202
 3115              	.L203:
 3116              		.loc 1 1088 3 discriminator 4
 3117 0092 3B68     		ldr	r3, [r7]
 3118 0094 082B     		cmp	r3, #8
 3119 0096 04D1     		bne	.L205
 3120              		.loc 1 1088 3 discriminator 6
 3121 0098 7B68     		ldr	r3, [r7, #4]
 3122 009a 0222     		movs	r2, #2
 3123 009c 83F84620 		strb	r2, [r3, #70]
 3124 00a0 03E0     		b	.L202
 3125              	.L205:
 3126              		.loc 1 1088 3 discriminator 7
 3127 00a2 7B68     		ldr	r3, [r7, #4]
 3128 00a4 0222     		movs	r2, #2
 3129 00a6 83F84720 		strb	r2, [r3, #71]
 3130              	.L202:
1089:./Libraries/STM32H7xx_HAL_Driver/Src/stm32h7xx_hal_tim_ex.c **** 
1090:./Libraries/STM32H7xx_HAL_Driver/Src/stm32h7xx_hal_tim_ex.c ****   /* Enable the complementary PWM output  */
1091:./Libraries/STM32H7xx_HAL_Driver/Src/stm32h7xx_hal_tim_ex.c ****   TIM_CCxNChannelCmd(htim->Instance, Channel, TIM_CCxN_ENABLE);
 3131              		.loc 1 1091 3 is_stmt 1
 3132 00aa 7B68     		ldr	r3, [r7, #4]
 3133 00ac 1B68     		ldr	r3, [r3]
 3134 00ae 0422     		movs	r2, #4
 3135 00b0 3968     		ldr	r1, [r7]
 3136 00b2 1846     		mov	r0, r3
 3137 00b4 FFF7FEFF 		bl	TIM_CCxNChannelCmd
1092:./Libraries/STM32H7xx_HAL_Driver/Src/stm32h7xx_hal_tim_ex.c **** 
1093:./Libraries/STM32H7xx_HAL_Driver/Src/stm32h7xx_hal_tim_ex.c ****   /* Enable the Main Output */
1094:./Libraries/STM32H7xx_HAL_Driver/Src/stm32h7xx_hal_tim_ex.c ****   __HAL_TIM_MOE_ENABLE(htim);
ARM GAS  /tmp/ccxx2olO.s 			page 76


 3138              		.loc 1 1094 3
 3139 00b8 7B68     		ldr	r3, [r7, #4]
 3140 00ba 1B68     		ldr	r3, [r3]
 3141 00bc 5A6C     		ldr	r2, [r3, #68]
 3142 00be 7B68     		ldr	r3, [r7, #4]
 3143 00c0 1B68     		ldr	r3, [r3]
 3144 00c2 42F40042 		orr	r2, r2, #32768
 3145 00c6 5A64     		str	r2, [r3, #68]
1095:./Libraries/STM32H7xx_HAL_Driver/Src/stm32h7xx_hal_tim_ex.c **** 
1096:./Libraries/STM32H7xx_HAL_Driver/Src/stm32h7xx_hal_tim_ex.c ****   /* Enable the Peripheral, except in trigger mode where enable is automatically done with trigger 
1097:./Libraries/STM32H7xx_HAL_Driver/Src/stm32h7xx_hal_tim_ex.c ****   if (IS_TIM_SLAVE_INSTANCE(htim->Instance))
 3146              		.loc 1 1097 7
 3147 00c8 7B68     		ldr	r3, [r7, #4]
 3148 00ca 1B68     		ldr	r3, [r3]
 3149              		.loc 1 1097 6
 3150 00cc 224A     		ldr	r2, .L212
 3151 00ce 9342     		cmp	r3, r2
 3152 00d0 1DD0     		beq	.L207
 3153              		.loc 1 1097 7 discriminator 1
 3154 00d2 7B68     		ldr	r3, [r7, #4]
 3155 00d4 1B68     		ldr	r3, [r3]
 3156 00d6 B3F1804F 		cmp	r3, #1073741824
 3157 00da 18D0     		beq	.L207
 3158              		.loc 1 1097 7 is_stmt 0 discriminator 2
 3159 00dc 7B68     		ldr	r3, [r7, #4]
 3160 00de 1B68     		ldr	r3, [r3]
 3161 00e0 1E4A     		ldr	r2, .L212+4
 3162 00e2 9342     		cmp	r3, r2
 3163 00e4 13D0     		beq	.L207
 3164              		.loc 1 1097 7 discriminator 3
 3165 00e6 7B68     		ldr	r3, [r7, #4]
 3166 00e8 1B68     		ldr	r3, [r3]
 3167 00ea 1D4A     		ldr	r2, .L212+8
 3168 00ec 9342     		cmp	r3, r2
 3169 00ee 0ED0     		beq	.L207
 3170              		.loc 1 1097 7 discriminator 4
 3171 00f0 7B68     		ldr	r3, [r7, #4]
 3172 00f2 1B68     		ldr	r3, [r3]
 3173 00f4 1B4A     		ldr	r2, .L212+12
 3174 00f6 9342     		cmp	r3, r2
 3175 00f8 09D0     		beq	.L207
 3176              		.loc 1 1097 7 discriminator 5
 3177 00fa 7B68     		ldr	r3, [r7, #4]
 3178 00fc 1B68     		ldr	r3, [r3]
 3179 00fe 1A4A     		ldr	r2, .L212+16
 3180 0100 9342     		cmp	r3, r2
 3181 0102 04D0     		beq	.L207
 3182              		.loc 1 1097 7 discriminator 6
 3183 0104 7B68     		ldr	r3, [r7, #4]
 3184 0106 1B68     		ldr	r3, [r3]
 3185 0108 184A     		ldr	r2, .L212+20
 3186 010a 9342     		cmp	r3, r2
 3187 010c 15D1     		bne	.L208
 3188              	.L207:
1098:./Libraries/STM32H7xx_HAL_Driver/Src/stm32h7xx_hal_tim_ex.c ****   {
1099:./Libraries/STM32H7xx_HAL_Driver/Src/stm32h7xx_hal_tim_ex.c ****     tmpsmcr = htim->Instance->SMCR & TIM_SMCR_SMS;
 3189              		.loc 1 1099 19 is_stmt 1
ARM GAS  /tmp/ccxx2olO.s 			page 77


 3190 010e 7B68     		ldr	r3, [r7, #4]
 3191 0110 1B68     		ldr	r3, [r3]
 3192              		.loc 1 1099 29
 3193 0112 9A68     		ldr	r2, [r3, #8]
 3194              		.loc 1 1099 13
 3195 0114 164B     		ldr	r3, .L212+24
 3196 0116 1340     		ands	r3, r3, r2
 3197 0118 FB60     		str	r3, [r7, #12]
1100:./Libraries/STM32H7xx_HAL_Driver/Src/stm32h7xx_hal_tim_ex.c ****     if (!IS_TIM_SLAVEMODE_TRIGGER_ENABLED(tmpsmcr))
 3198              		.loc 1 1100 8
 3199 011a FB68     		ldr	r3, [r7, #12]
 3200 011c 062B     		cmp	r3, #6
 3201 011e 15D0     		beq	.L211
 3202              		.loc 1 1100 9 discriminator 1
 3203 0120 FB68     		ldr	r3, [r7, #12]
 3204 0122 B3F5803F 		cmp	r3, #65536
 3205 0126 11D0     		beq	.L211
1101:./Libraries/STM32H7xx_HAL_Driver/Src/stm32h7xx_hal_tim_ex.c ****     {
1102:./Libraries/STM32H7xx_HAL_Driver/Src/stm32h7xx_hal_tim_ex.c ****       __HAL_TIM_ENABLE(htim);
 3206              		.loc 1 1102 7
 3207 0128 7B68     		ldr	r3, [r7, #4]
 3208 012a 1B68     		ldr	r3, [r3]
 3209 012c 1A68     		ldr	r2, [r3]
 3210 012e 7B68     		ldr	r3, [r7, #4]
 3211 0130 1B68     		ldr	r3, [r3]
 3212 0132 42F00102 		orr	r2, r2, #1
 3213 0136 1A60     		str	r2, [r3]
1100:./Libraries/STM32H7xx_HAL_Driver/Src/stm32h7xx_hal_tim_ex.c ****     if (!IS_TIM_SLAVEMODE_TRIGGER_ENABLED(tmpsmcr))
 3214              		.loc 1 1100 8
 3215 0138 08E0     		b	.L211
 3216              	.L208:
1103:./Libraries/STM32H7xx_HAL_Driver/Src/stm32h7xx_hal_tim_ex.c ****     }
1104:./Libraries/STM32H7xx_HAL_Driver/Src/stm32h7xx_hal_tim_ex.c ****   }
1105:./Libraries/STM32H7xx_HAL_Driver/Src/stm32h7xx_hal_tim_ex.c ****   else
1106:./Libraries/STM32H7xx_HAL_Driver/Src/stm32h7xx_hal_tim_ex.c ****   {
1107:./Libraries/STM32H7xx_HAL_Driver/Src/stm32h7xx_hal_tim_ex.c ****     __HAL_TIM_ENABLE(htim);
 3217              		.loc 1 1107 5
 3218 013a 7B68     		ldr	r3, [r7, #4]
 3219 013c 1B68     		ldr	r3, [r3]
 3220 013e 1A68     		ldr	r2, [r3]
 3221 0140 7B68     		ldr	r3, [r7, #4]
 3222 0142 1B68     		ldr	r3, [r3]
 3223 0144 42F00102 		orr	r2, r2, #1
 3224 0148 1A60     		str	r2, [r3]
 3225 014a 00E0     		b	.L210
 3226              	.L211:
1100:./Libraries/STM32H7xx_HAL_Driver/Src/stm32h7xx_hal_tim_ex.c ****     {
 3227              		.loc 1 1100 8
 3228 014c 00BF     		nop
 3229              	.L210:
1108:./Libraries/STM32H7xx_HAL_Driver/Src/stm32h7xx_hal_tim_ex.c ****   }
1109:./Libraries/STM32H7xx_HAL_Driver/Src/stm32h7xx_hal_tim_ex.c **** 
1110:./Libraries/STM32H7xx_HAL_Driver/Src/stm32h7xx_hal_tim_ex.c ****   /* Return function status */
1111:./Libraries/STM32H7xx_HAL_Driver/Src/stm32h7xx_hal_tim_ex.c ****   return HAL_OK;
 3230              		.loc 1 1111 10
 3231 014e 0023     		movs	r3, #0
 3232              	.L200:
ARM GAS  /tmp/ccxx2olO.s 			page 78


1112:./Libraries/STM32H7xx_HAL_Driver/Src/stm32h7xx_hal_tim_ex.c **** }
 3233              		.loc 1 1112 1
 3234 0150 1846     		mov	r0, r3
 3235 0152 1037     		adds	r7, r7, #16
 3236              	.LCFI85:
 3237              		.cfi_def_cfa_offset 8
 3238 0154 BD46     		mov	sp, r7
 3239              	.LCFI86:
 3240              		.cfi_def_cfa_register 13
 3241              		@ sp needed
 3242 0156 80BD     		pop	{r7, pc}
 3243              	.L213:
 3244              		.align	2
 3245              	.L212:
 3246 0158 00000140 		.word	1073807360
 3247 015c 00040040 		.word	1073742848
 3248 0160 00080040 		.word	1073743872
 3249 0164 000C0040 		.word	1073744896
 3250 0168 00040140 		.word	1073808384
 3251 016c 00180040 		.word	1073747968
 3252 0170 07000100 		.word	65543
 3253              		.cfi_endproc
 3254              	.LFE347:
 3256              		.section	.text.HAL_TIMEx_PWMN_Stop,"ax",%progbits
 3257              		.align	1
 3258              		.global	HAL_TIMEx_PWMN_Stop
 3259              		.syntax unified
 3260              		.thumb
 3261              		.thumb_func
 3262              		.fpu fpv5-d16
 3264              	HAL_TIMEx_PWMN_Stop:
 3265              	.LFB348:
1113:./Libraries/STM32H7xx_HAL_Driver/Src/stm32h7xx_hal_tim_ex.c **** 
1114:./Libraries/STM32H7xx_HAL_Driver/Src/stm32h7xx_hal_tim_ex.c **** /**
1115:./Libraries/STM32H7xx_HAL_Driver/Src/stm32h7xx_hal_tim_ex.c ****   * @brief  Stops the PWM signal generation on the complementary output.
1116:./Libraries/STM32H7xx_HAL_Driver/Src/stm32h7xx_hal_tim_ex.c ****   * @param  htim TIM handle
1117:./Libraries/STM32H7xx_HAL_Driver/Src/stm32h7xx_hal_tim_ex.c ****   * @param  Channel TIM Channel to be disabled
1118:./Libraries/STM32H7xx_HAL_Driver/Src/stm32h7xx_hal_tim_ex.c ****   *          This parameter can be one of the following values:
1119:./Libraries/STM32H7xx_HAL_Driver/Src/stm32h7xx_hal_tim_ex.c ****   *            @arg TIM_CHANNEL_1: TIM Channel 1 selected
1120:./Libraries/STM32H7xx_HAL_Driver/Src/stm32h7xx_hal_tim_ex.c ****   *            @arg TIM_CHANNEL_2: TIM Channel 2 selected
1121:./Libraries/STM32H7xx_HAL_Driver/Src/stm32h7xx_hal_tim_ex.c ****   *            @arg TIM_CHANNEL_3: TIM Channel 3 selected
1122:./Libraries/STM32H7xx_HAL_Driver/Src/stm32h7xx_hal_tim_ex.c ****   * @retval HAL status
1123:./Libraries/STM32H7xx_HAL_Driver/Src/stm32h7xx_hal_tim_ex.c ****   */
1124:./Libraries/STM32H7xx_HAL_Driver/Src/stm32h7xx_hal_tim_ex.c **** HAL_StatusTypeDef HAL_TIMEx_PWMN_Stop(TIM_HandleTypeDef *htim, uint32_t Channel)
1125:./Libraries/STM32H7xx_HAL_Driver/Src/stm32h7xx_hal_tim_ex.c **** {
 3266              		.loc 1 1125 1
 3267              		.cfi_startproc
 3268              		@ args = 0, pretend = 0, frame = 8
 3269              		@ frame_needed = 1, uses_anonymous_args = 0
 3270 0000 80B5     		push	{r7, lr}
 3271              	.LCFI87:
 3272              		.cfi_def_cfa_offset 8
 3273              		.cfi_offset 7, -8
 3274              		.cfi_offset 14, -4
 3275 0002 82B0     		sub	sp, sp, #8
 3276              	.LCFI88:
 3277              		.cfi_def_cfa_offset 16
ARM GAS  /tmp/ccxx2olO.s 			page 79


 3278 0004 00AF     		add	r7, sp, #0
 3279              	.LCFI89:
 3280              		.cfi_def_cfa_register 7
 3281 0006 7860     		str	r0, [r7, #4]
 3282 0008 3960     		str	r1, [r7]
1126:./Libraries/STM32H7xx_HAL_Driver/Src/stm32h7xx_hal_tim_ex.c ****   /* Check the parameters */
1127:./Libraries/STM32H7xx_HAL_Driver/Src/stm32h7xx_hal_tim_ex.c ****   assert_param(IS_TIM_CCXN_INSTANCE(htim->Instance, Channel));
1128:./Libraries/STM32H7xx_HAL_Driver/Src/stm32h7xx_hal_tim_ex.c **** 
1129:./Libraries/STM32H7xx_HAL_Driver/Src/stm32h7xx_hal_tim_ex.c ****   /* Disable the complementary PWM output  */
1130:./Libraries/STM32H7xx_HAL_Driver/Src/stm32h7xx_hal_tim_ex.c ****   TIM_CCxNChannelCmd(htim->Instance, Channel, TIM_CCxN_DISABLE);
 3283              		.loc 1 1130 3
 3284 000a 7B68     		ldr	r3, [r7, #4]
 3285 000c 1B68     		ldr	r3, [r3]
 3286 000e 0022     		movs	r2, #0
 3287 0010 3968     		ldr	r1, [r7]
 3288 0012 1846     		mov	r0, r3
 3289 0014 FFF7FEFF 		bl	TIM_CCxNChannelCmd
1131:./Libraries/STM32H7xx_HAL_Driver/Src/stm32h7xx_hal_tim_ex.c **** 
1132:./Libraries/STM32H7xx_HAL_Driver/Src/stm32h7xx_hal_tim_ex.c ****   /* Disable the Main Output */
1133:./Libraries/STM32H7xx_HAL_Driver/Src/stm32h7xx_hal_tim_ex.c ****   __HAL_TIM_MOE_DISABLE(htim);
 3290              		.loc 1 1133 3
 3291 0018 7B68     		ldr	r3, [r7, #4]
 3292 001a 1B68     		ldr	r3, [r3]
 3293 001c 1A6A     		ldr	r2, [r3, #32]
 3294 001e 41F21113 		movw	r3, #4369
 3295 0022 1340     		ands	r3, r3, r2
 3296 0024 002B     		cmp	r3, #0
 3297 0026 0FD1     		bne	.L215
 3298              		.loc 1 1133 3 is_stmt 0 discriminator 1
 3299 0028 7B68     		ldr	r3, [r7, #4]
 3300 002a 1B68     		ldr	r3, [r3]
 3301 002c 1A6A     		ldr	r2, [r3, #32]
 3302 002e 40F24443 		movw	r3, #1092
 3303 0032 1340     		ands	r3, r3, r2
 3304 0034 002B     		cmp	r3, #0
 3305 0036 07D1     		bne	.L215
 3306              		.loc 1 1133 3 discriminator 2
 3307 0038 7B68     		ldr	r3, [r7, #4]
 3308 003a 1B68     		ldr	r3, [r3]
 3309 003c 5A6C     		ldr	r2, [r3, #68]
 3310 003e 7B68     		ldr	r3, [r7, #4]
 3311 0040 1B68     		ldr	r3, [r3]
 3312 0042 22F40042 		bic	r2, r2, #32768
 3313 0046 5A64     		str	r2, [r3, #68]
 3314              	.L215:
1134:./Libraries/STM32H7xx_HAL_Driver/Src/stm32h7xx_hal_tim_ex.c **** 
1135:./Libraries/STM32H7xx_HAL_Driver/Src/stm32h7xx_hal_tim_ex.c ****   /* Disable the Peripheral */
1136:./Libraries/STM32H7xx_HAL_Driver/Src/stm32h7xx_hal_tim_ex.c ****   __HAL_TIM_DISABLE(htim);
 3315              		.loc 1 1136 3 is_stmt 1
 3316 0048 7B68     		ldr	r3, [r7, #4]
 3317 004a 1B68     		ldr	r3, [r3]
 3318 004c 1A6A     		ldr	r2, [r3, #32]
 3319 004e 41F21113 		movw	r3, #4369
 3320 0052 1340     		ands	r3, r3, r2
 3321 0054 002B     		cmp	r3, #0
 3322 0056 0FD1     		bne	.L216
 3323              		.loc 1 1136 3 is_stmt 0 discriminator 1
ARM GAS  /tmp/ccxx2olO.s 			page 80


 3324 0058 7B68     		ldr	r3, [r7, #4]
 3325 005a 1B68     		ldr	r3, [r3]
 3326 005c 1A6A     		ldr	r2, [r3, #32]
 3327 005e 40F24443 		movw	r3, #1092
 3328 0062 1340     		ands	r3, r3, r2
 3329 0064 002B     		cmp	r3, #0
 3330 0066 07D1     		bne	.L216
 3331              		.loc 1 1136 3 discriminator 2
 3332 0068 7B68     		ldr	r3, [r7, #4]
 3333 006a 1B68     		ldr	r3, [r3]
 3334 006c 1A68     		ldr	r2, [r3]
 3335 006e 7B68     		ldr	r3, [r7, #4]
 3336 0070 1B68     		ldr	r3, [r3]
 3337 0072 22F00102 		bic	r2, r2, #1
 3338 0076 1A60     		str	r2, [r3]
 3339              	.L216:
1137:./Libraries/STM32H7xx_HAL_Driver/Src/stm32h7xx_hal_tim_ex.c **** 
1138:./Libraries/STM32H7xx_HAL_Driver/Src/stm32h7xx_hal_tim_ex.c ****   /* Set the TIM complementary channel state */
