ARM GAS  /tmp/ccXFtjVt.s 			page 1


   1              		.cpu cortex-m7
   2              		.eabi_attribute 28, 1
   3              		.eabi_attribute 20, 1
   4              		.eabi_attribute 21, 1
   5              		.eabi_attribute 23, 3
   6              		.eabi_attribute 24, 1
   7              		.eabi_attribute 25, 1
   8              		.eabi_attribute 26, 1
   9              		.eabi_attribute 30, 6
  10              		.eabi_attribute 34, 1
  11              		.eabi_attribute 18, 4
  12              		.file	"stm32h7xx_hal_jpeg.c"
  13              		.text
  14              	.Ltext0:
  15              		.cfi_sections	.debug_frame
  16              		.section	.rodata.JPEG_DCLUM_HuffTable,"a"
  17              		.align	2
  20              	JPEG_DCLUM_HuffTable:
  21 0000 00010501 		.ascii	"\000\001\005\001\001\001\001\001\001\000\000\000\000"
  21      01010101 
  21      01000000 
  21      00
  22 000d 000000   		.ascii	"\000\000\000"
  23 0010 00010203 		.ascii	"\000\001\002\003\004\005\006\007\010\011\012\013"
  23      04050607 
  23      08090A0B 
  24              		.section	.rodata.JPEG_DCCHROM_HuffTable,"a"
  25              		.align	2
  28              	JPEG_DCCHROM_HuffTable:
  29 0000 00030101 		.ascii	"\000\003\001\001\001\001\001\001\001\001\001\000\000"
  29      01010101 
  29      01010100 
  29      00
  30 000d 000000   		.ascii	"\000\000\000"
  31 0010 00010203 		.ascii	"\000\001\002\003\004\005\006\007\010\011\012\013"
  31      04050607 
  31      08090A0B 
  32              		.section	.rodata.JPEG_ACLUM_HuffTable,"a"
  33              		.align	2
  36              	JPEG_ACLUM_HuffTable:
  37 0000 00020103 		.ascii	"\000\002\001\003\003\002\004\003\005\005\004\004\000"
  37      03020403 
  37      05050404 
  37      00
  38 000d 00017D   		.ascii	"\000\001}"
  39 0010 01020300 		.ascii	"\001\002\003\000\004\021\005\022!1A\006\023Qa\007\""
  39      04110512 
  39      21314106 
  39      13516107 
  39      22
  40 0021 71143281 		.ascii	"q\0242\201\221\241\010#B\261\301\025R\321\360$3br\202"
  40      91A10823 
  40      42B1C115 
  40      52D1F024 
  40      33627282 
  41 0035 090A1617 		.ascii	"\011\012\026\027\030\031\032%&'()*456789:CDEFGHIJST"
  41      18191A25 
ARM GAS  /tmp/ccXFtjVt.s 			page 2


  41      26272829 
  41      2A343536 
  41      3738393A 
  42 0053 55565758 		.ascii	"UVWXYZcdefghijstuvwxyz\203\204\205\206\207\210\211\212"
  42      595A6364 
  42      65666768 
  42      696A7374 
  42      75767778 
  43 0071 92939495 		.ascii	"\222\223\224\225\226\227\230\231\232\242\243\244\245"
  43      96979899 
  43      9AA2A3A4 
  43      A5
  44 007e A6A7A8A9 		.ascii	"\246\247\250\251\252\262\263\264\265\266\267\270\271"
  44      AAB2B3B4 
  44      B5B6B7B8 
  44      B9
  45 008b BAC2C3C4 		.ascii	"\272\302\303\304\305\306\307\310\311\312\322\323\324"
  45      C5C6C7C8 
  45      C9CAD2D3 
  45      D4
  46 0098 D5D6D7D8 		.ascii	"\325\326\327\330\331\332\341\342\343\344\345\346\347"
  46      D9DAE1E2 
  46      E3E4E5E6 
  46      E7
  47 00a5 E8E9EAF1 		.ascii	"\350\351\352\361\362\363\364\365\366\367\370\371\372"
  47      F2F3F4F5 
  47      F6F7F8F9 
  47      FA
  48              		.section	.rodata.JPEG_ACCHROM_HuffTable,"a"
  49              		.align	2
  52              	JPEG_ACCHROM_HuffTable:
  53 0000 00020102 		.ascii	"\000\002\001\002\004\004\003\004\007\005\004\004\000"
  53      04040304 
  53      07050404 
  53      00
  54 000d 010277   		.ascii	"\001\002w"
  55 0010 00010203 		.ascii	"\000\001\002\003\021\004\005!1\006\022AQ\007aq\023\""
  55      11040521 
  55      31061241 
  55      51076171 
  55      1322
  56 0022 32810814 		.ascii	"2\201\010\024B\221\241\261\301\011#3R\360\025br\321"
  56      4291A1B1 
  56      C1092333 
  56      52F01562 
  56      72D1
  57 0034 0A162434 		.ascii	"\012\026$4\341%\361\027\030\031\032&'()*56789:CDEFG"
  57      E125F117 
  57      18191A26 
  57      2728292A 
  57      35363738 
  58 004f 48494A53 		.ascii	"HIJSTUVWXYZcdefghijstuvwxyz\202\203\204\205\206\207"
  58      54555657 
  58      58595A63 
  58      64656667 
  58      68696A73 
  59 0070 88898A92 		.ascii	"\210\211\212\222\223\224\225\226\227\230\231\232\242"
ARM GAS  /tmp/ccXFtjVt.s 			page 3


  59      93949596 
  59      9798999A 
  59      A2
  60 007d A3A4A5A6 		.ascii	"\243\244\245\246\247\250\251\252\262\263\264\265\266"
  60      A7A8A9AA 
  60      B2B3B4B5 
  60      B6
  61 008a B7B8B9BA 		.ascii	"\267\270\271\272\302\303\304\305\306\307\310\311\312"
  61      C2C3C4C5 
  61      C6C7C8C9 
  61      CA
  62 0097 D2D3D4D5 		.ascii	"\322\323\324\325\326\327\330\331\332\342\343\344\345"
  62      D6D7D8D9 
  62      DAE2E3E4 
  62      E5
  63 00a4 E6E7E8E9 		.ascii	"\346\347\350\351\352\362\363\364\365\366\367\370\371"
  63      EAF2F3F4 
  63      F5F6F7F8 
  63      F9
  64 00b1 FA       		.ascii	"\372"
  65              		.section	.rodata.JPEG_ZIGZAG_ORDER,"a"
  66              		.align	2
  69              	JPEG_ZIGZAG_ORDER:
  70 0000 00010810 		.ascii	"\000\001\010\020\011\002\003\012\021\030 \031\022\013"
  70      0902030A 
  70      11182019 
  70      120B
  71 000e 04050C13 		.ascii	"\004\005\014\023\032!(0)\"\033\024\015\006\007\016\025"
  71      1A212830 
  71      29221B14 
  71      0D06070E 
  71      15
  72 001f 1C232A31 		.ascii	"\034#*1892+$\035\026\017\027\036%,3:;4-&\037'.5<=6/"
  72      3839322B 
  72      241D160F 
  72      171E252C 
  72      333A3B34 
  73 003d 373E3F   		.ascii	"7>?"
  74              		.section	.text.HAL_JPEG_Init,"ax",%progbits
  75              		.align	1
  76              		.global	HAL_JPEG_Init
  77              		.arch armv7e-m
  78              		.syntax unified
  79              		.thumb
  80              		.thumb_func
  81              		.fpu fpv5-d16
  83              	HAL_JPEG_Init:
  84              	.LFB331:
  85              		.file 1 "./Libraries/STM32H7xx_HAL_Driver/Src/stm32h7xx_hal_jpeg.c"
   1:./Libraries/STM32H7xx_HAL_Driver/Src/stm32h7xx_hal_jpeg.c **** /**
   2:./Libraries/STM32H7xx_HAL_Driver/Src/stm32h7xx_hal_jpeg.c ****   ******************************************************************************
   3:./Libraries/STM32H7xx_HAL_Driver/Src/stm32h7xx_hal_jpeg.c ****   * @file    stm32h7xx_hal_jpeg.c
   4:./Libraries/STM32H7xx_HAL_Driver/Src/stm32h7xx_hal_jpeg.c ****   * @author  MCD Application Team
   5:./Libraries/STM32H7xx_HAL_Driver/Src/stm32h7xx_hal_jpeg.c ****   * @brief   JPEG HAL module driver.
   6:./Libraries/STM32H7xx_HAL_Driver/Src/stm32h7xx_hal_jpeg.c ****   *          This file provides firmware functions to manage the following
   7:./Libraries/STM32H7xx_HAL_Driver/Src/stm32h7xx_hal_jpeg.c ****   *          functionalities of the JPEG encoder/decoder peripheral:
   8:./Libraries/STM32H7xx_HAL_Driver/Src/stm32h7xx_hal_jpeg.c ****   *           + Initialization and de-initialization functions
ARM GAS  /tmp/ccXFtjVt.s 			page 4


   9:./Libraries/STM32H7xx_HAL_Driver/Src/stm32h7xx_hal_jpeg.c ****   *           + JPEG processing functions encoding and decoding
  10:./Libraries/STM32H7xx_HAL_Driver/Src/stm32h7xx_hal_jpeg.c ****   *           + JPEG decoding Getting Info and encoding configuration setting
  11:./Libraries/STM32H7xx_HAL_Driver/Src/stm32h7xx_hal_jpeg.c ****   *           + JPEG enable/disable header parsing functions (for decoding)
  12:./Libraries/STM32H7xx_HAL_Driver/Src/stm32h7xx_hal_jpeg.c ****   *           + JPEG Input/Output Buffer configuration.
  13:./Libraries/STM32H7xx_HAL_Driver/Src/stm32h7xx_hal_jpeg.c ****   *           + JPEG callback functions
  14:./Libraries/STM32H7xx_HAL_Driver/Src/stm32h7xx_hal_jpeg.c ****   *           + JPEG Abort/Pause/Resume functions
  15:./Libraries/STM32H7xx_HAL_Driver/Src/stm32h7xx_hal_jpeg.c ****   *           + JPEG custom quantization tables setting functions
  16:./Libraries/STM32H7xx_HAL_Driver/Src/stm32h7xx_hal_jpeg.c ****   *           + IRQ handler management
  17:./Libraries/STM32H7xx_HAL_Driver/Src/stm32h7xx_hal_jpeg.c ****   *           + Peripheral State and Error functions
  18:./Libraries/STM32H7xx_HAL_Driver/Src/stm32h7xx_hal_jpeg.c ****   *
  19:./Libraries/STM32H7xx_HAL_Driver/Src/stm32h7xx_hal_jpeg.c ****   @verbatim
  20:./Libraries/STM32H7xx_HAL_Driver/Src/stm32h7xx_hal_jpeg.c ****   ==============================================================================
  21:./Libraries/STM32H7xx_HAL_Driver/Src/stm32h7xx_hal_jpeg.c ****                      ##### How to use this driver #####
  22:./Libraries/STM32H7xx_HAL_Driver/Src/stm32h7xx_hal_jpeg.c ****   ==============================================================================
  23:./Libraries/STM32H7xx_HAL_Driver/Src/stm32h7xx_hal_jpeg.c ****     [..]
  24:./Libraries/STM32H7xx_HAL_Driver/Src/stm32h7xx_hal_jpeg.c ****      (#) Initialize the JPEG peripheral using HAL_JPEG_Init : No initialization parameters are requ
  25:./Libraries/STM32H7xx_HAL_Driver/Src/stm32h7xx_hal_jpeg.c ****          Only the call to HAL_JPEG_Init is necessary to initialize the JPEG peripheral.
  26:./Libraries/STM32H7xx_HAL_Driver/Src/stm32h7xx_hal_jpeg.c **** 
  27:./Libraries/STM32H7xx_HAL_Driver/Src/stm32h7xx_hal_jpeg.c ****      (#) If operation is JPEG encoding use function HAL_JPEG_ConfigEncoding to set
  28:./Libraries/STM32H7xx_HAL_Driver/Src/stm32h7xx_hal_jpeg.c ****          the encoding parameters (mandatory before calling the encoding function).
  29:./Libraries/STM32H7xx_HAL_Driver/Src/stm32h7xx_hal_jpeg.c ****          the application can change the encoding parameter ImageQuality from
  30:./Libraries/STM32H7xx_HAL_Driver/Src/stm32h7xx_hal_jpeg.c ****          1 to 100 to obtain a more or less quality (visual quality vs the original row image),
  31:./Libraries/STM32H7xx_HAL_Driver/Src/stm32h7xx_hal_jpeg.c ****          and inversely more or less jpg file size.
  32:./Libraries/STM32H7xx_HAL_Driver/Src/stm32h7xx_hal_jpeg.c **** 
  33:./Libraries/STM32H7xx_HAL_Driver/Src/stm32h7xx_hal_jpeg.c ****      (#) Note that for decoding operation the JPEG peripheral output data are organized in
  34:./Libraries/STM32H7xx_HAL_Driver/Src/stm32h7xx_hal_jpeg.c ****          YCbCr blocks called MCU (Minimum Coded Unit) as defioned in the JPEG specification
  35:./Libraries/STM32H7xx_HAL_Driver/Src/stm32h7xx_hal_jpeg.c ****          ISO/IEC 10918-1 standard.
  36:./Libraries/STM32H7xx_HAL_Driver/Src/stm32h7xx_hal_jpeg.c ****          It is up to the application to transform these YCbCr blocks to RGB data that can be displa
  37:./Libraries/STM32H7xx_HAL_Driver/Src/stm32h7xx_hal_jpeg.c **** 
  38:./Libraries/STM32H7xx_HAL_Driver/Src/stm32h7xx_hal_jpeg.c ****          Respectively, for Encoding operation the JPEG peripheral input should be organized
  39:./Libraries/STM32H7xx_HAL_Driver/Src/stm32h7xx_hal_jpeg.c ****          in YCbCr MCU blocks. It is up to the application to perform the necessary RGB to YCbCr
  40:./Libraries/STM32H7xx_HAL_Driver/Src/stm32h7xx_hal_jpeg.c ****          MCU blocks transformation before feeding the JPEG peripheral with data.
  41:./Libraries/STM32H7xx_HAL_Driver/Src/stm32h7xx_hal_jpeg.c **** 
  42:./Libraries/STM32H7xx_HAL_Driver/Src/stm32h7xx_hal_jpeg.c ****      (#) Use functions HAL_JPEG_Encode and HAL_JPEG_Decode to start respectively
  43:./Libraries/STM32H7xx_HAL_Driver/Src/stm32h7xx_hal_jpeg.c ****          a JPEG encoding/decoding operation in polling method (blocking).
  44:./Libraries/STM32H7xx_HAL_Driver/Src/stm32h7xx_hal_jpeg.c **** 
  45:./Libraries/STM32H7xx_HAL_Driver/Src/stm32h7xx_hal_jpeg.c ****      (#) Use functions HAL_JPEG_Encode_IT and HAL_JPEG_Decode_IT to start respectively
  46:./Libraries/STM32H7xx_HAL_Driver/Src/stm32h7xx_hal_jpeg.c ****          a JPEG encoding/decoding operation with Interrupt method (not blocking).
  47:./Libraries/STM32H7xx_HAL_Driver/Src/stm32h7xx_hal_jpeg.c **** 
  48:./Libraries/STM32H7xx_HAL_Driver/Src/stm32h7xx_hal_jpeg.c ****      (#) Use functions HAL_JPEG_Encode_DMA and HAL_JPEG_Decode_DMA to start respectively
  49:./Libraries/STM32H7xx_HAL_Driver/Src/stm32h7xx_hal_jpeg.c ****          a JPEG encoding/decoding operation with DMA method (not blocking).
  50:./Libraries/STM32H7xx_HAL_Driver/Src/stm32h7xx_hal_jpeg.c **** 
  51:./Libraries/STM32H7xx_HAL_Driver/Src/stm32h7xx_hal_jpeg.c ****      (#) Callback HAL_JPEG_InfoReadyCallback is asserted if the current operation
  52:./Libraries/STM32H7xx_HAL_Driver/Src/stm32h7xx_hal_jpeg.c ****          is a JPEG decoding to provide the application with JPEG image  parameters.
  53:./Libraries/STM32H7xx_HAL_Driver/Src/stm32h7xx_hal_jpeg.c ****          This callback is asserted when the JPEG peripheral successfully parse the
  54:./Libraries/STM32H7xx_HAL_Driver/Src/stm32h7xx_hal_jpeg.c ****          JPEG header.
  55:./Libraries/STM32H7xx_HAL_Driver/Src/stm32h7xx_hal_jpeg.c **** 
  56:./Libraries/STM32H7xx_HAL_Driver/Src/stm32h7xx_hal_jpeg.c ****      (#) Callback HAL_JPEG_GetDataCallback is asserted for both encoding and decoding
  57:./Libraries/STM32H7xx_HAL_Driver/Src/stm32h7xx_hal_jpeg.c ****          operations to inform the application that the input buffer has been
  58:./Libraries/STM32H7xx_HAL_Driver/Src/stm32h7xx_hal_jpeg.c ****          consumed by the peripheral and to ask for a new data chunk if the operation
  59:./Libraries/STM32H7xx_HAL_Driver/Src/stm32h7xx_hal_jpeg.c ****          (encoding/decoding) has not been complete yet.
  60:./Libraries/STM32H7xx_HAL_Driver/Src/stm32h7xx_hal_jpeg.c **** 
  61:./Libraries/STM32H7xx_HAL_Driver/Src/stm32h7xx_hal_jpeg.c ****         (++) This CallBack should be implemented in the application side. It should
  62:./Libraries/STM32H7xx_HAL_Driver/Src/stm32h7xx_hal_jpeg.c ****              call the function HAL_JPEG_ConfigInputBuffer if new input data are available,
  63:./Libraries/STM32H7xx_HAL_Driver/Src/stm32h7xx_hal_jpeg.c ****              or call HAL_JPEG_Pause with parameter XferSelection set to JPEG_PAUSE_RESUME_INPUT
  64:./Libraries/STM32H7xx_HAL_Driver/Src/stm32h7xx_hal_jpeg.c ****              to inform the JPEG HAL driver that the ongoing operation shall pause waiting for the
  65:./Libraries/STM32H7xx_HAL_Driver/Src/stm32h7xx_hal_jpeg.c ****              application to provide a new input data chunk.
ARM GAS  /tmp/ccXFtjVt.s 			page 5


  66:./Libraries/STM32H7xx_HAL_Driver/Src/stm32h7xx_hal_jpeg.c ****              Once the application succeed getting new data and if the input has been paused,
  67:./Libraries/STM32H7xx_HAL_Driver/Src/stm32h7xx_hal_jpeg.c ****              the application can call the function HAL_JPEG_ConfigInputBuffer to set the new
  68:./Libraries/STM32H7xx_HAL_Driver/Src/stm32h7xx_hal_jpeg.c ****              input buffer and size, then resume the JPEG HAL input by calling new function HAL_JPEG
  69:./Libraries/STM32H7xx_HAL_Driver/Src/stm32h7xx_hal_jpeg.c ****              If the application has ended feeding the HAL JPEG with input data (no more input data)
  70:./Libraries/STM32H7xx_HAL_Driver/Src/stm32h7xx_hal_jpeg.c ****              Should call the function HAL_JPEG_ConfigInputBuffer (within the callback HAL_JPEG_GetD
  71:./Libraries/STM32H7xx_HAL_Driver/Src/stm32h7xx_hal_jpeg.c ****              with the parameter InDataLength set to zero.
  72:./Libraries/STM32H7xx_HAL_Driver/Src/stm32h7xx_hal_jpeg.c **** 
  73:./Libraries/STM32H7xx_HAL_Driver/Src/stm32h7xx_hal_jpeg.c ****          (++) The mechanism of HAL_JPEG_ConfigInputBuffer/HAL_JPEG_Pause/HAL_JPEG_Resume allows
  74:./Libraries/STM32H7xx_HAL_Driver/Src/stm32h7xx_hal_jpeg.c ****               to the application to provide the input data (for encoding or decoding) by chunks.
  75:./Libraries/STM32H7xx_HAL_Driver/Src/stm32h7xx_hal_jpeg.c ****               If the new input data chunk is not available (because data should be read from an inp
  76:./Libraries/STM32H7xx_HAL_Driver/Src/stm32h7xx_hal_jpeg.c ****               for example) the application can pause the JPEG input (using function HAL_JPEG_Pause)
  77:./Libraries/STM32H7xx_HAL_Driver/Src/stm32h7xx_hal_jpeg.c ****               Once the new input data chunk is available ( read from a file for example), the appli
  78:./Libraries/STM32H7xx_HAL_Driver/Src/stm32h7xx_hal_jpeg.c ****               can call the function HAL_JPEG_ConfigInputBuffer to provide the HAL with the new chun
  79:./Libraries/STM32H7xx_HAL_Driver/Src/stm32h7xx_hal_jpeg.c ****               then resume the JPEG HAL input by calling function HAL_JPEG_Resume.
  80:./Libraries/STM32H7xx_HAL_Driver/Src/stm32h7xx_hal_jpeg.c **** 
  81:./Libraries/STM32H7xx_HAL_Driver/Src/stm32h7xx_hal_jpeg.c ****          (++) The application can call functions HAL_JPEG_ConfigInputBuffer then HAL_JPEG_Resume.
  82:./Libraries/STM32H7xx_HAL_Driver/Src/stm32h7xx_hal_jpeg.c ****               any time (outside the HAL_JPEG_GetDataCallback)  Once the new input chunk data availa
  83:./Libraries/STM32H7xx_HAL_Driver/Src/stm32h7xx_hal_jpeg.c ****               However, to keep data coherency, the function HAL_JPEG_Pause must be imperatively cal
  84:./Libraries/STM32H7xx_HAL_Driver/Src/stm32h7xx_hal_jpeg.c ****               (if necessary) within the callback HAL_JPEG_GetDataCallback, i.e when the HAL JPEG ha
  85:./Libraries/STM32H7xx_HAL_Driver/Src/stm32h7xx_hal_jpeg.c ****               Transferring the previous chunk buffer to the JPEG peripheral.
  86:./Libraries/STM32H7xx_HAL_Driver/Src/stm32h7xx_hal_jpeg.c **** 
  87:./Libraries/STM32H7xx_HAL_Driver/Src/stm32h7xx_hal_jpeg.c ****      (#) Callback HAL_JPEG_DataReadyCallback is asserted when the HAL JPEG driver
  88:./Libraries/STM32H7xx_HAL_Driver/Src/stm32h7xx_hal_jpeg.c ****          has filled the given output buffer with the given size.
  89:./Libraries/STM32H7xx_HAL_Driver/Src/stm32h7xx_hal_jpeg.c **** 
  90:./Libraries/STM32H7xx_HAL_Driver/Src/stm32h7xx_hal_jpeg.c ****          (++) This CallBack should be implemented in the application side. It should
  91:./Libraries/STM32H7xx_HAL_Driver/Src/stm32h7xx_hal_jpeg.c ****               call the function HAL_JPEG_ConfigOutputBuffer to provide the HAL JPEG driver
  92:./Libraries/STM32H7xx_HAL_Driver/Src/stm32h7xx_hal_jpeg.c ****               with the new output buffer location and size to be used  to store next data chunk.
  93:./Libraries/STM32H7xx_HAL_Driver/Src/stm32h7xx_hal_jpeg.c ****               if the application is not ready to provide the output chunk location then it can
  94:./Libraries/STM32H7xx_HAL_Driver/Src/stm32h7xx_hal_jpeg.c ****               call the function HAL_JPEG_Pause with parameter XferSelection set to JPEG_PAUSE_RESUM
  95:./Libraries/STM32H7xx_HAL_Driver/Src/stm32h7xx_hal_jpeg.c ****               to inform the JPEG HAL driver that it shall pause output data. Once the application
  96:./Libraries/STM32H7xx_HAL_Driver/Src/stm32h7xx_hal_jpeg.c ****               is ready to receive the new data chunk (output buffer location free or available) it 
  97:./Libraries/STM32H7xx_HAL_Driver/Src/stm32h7xx_hal_jpeg.c ****               the function HAL_JPEG_ConfigOutputBuffer to provide the HAL JPEG driver
  98:./Libraries/STM32H7xx_HAL_Driver/Src/stm32h7xx_hal_jpeg.c ****               with the new output chunk buffer location and size, then call HAL_JPEG_Resume
  99:./Libraries/STM32H7xx_HAL_Driver/Src/stm32h7xx_hal_jpeg.c ****               to inform the HAL that it shall resume outputting data in the given output buffer.
 100:./Libraries/STM32H7xx_HAL_Driver/Src/stm32h7xx_hal_jpeg.c **** 
 101:./Libraries/STM32H7xx_HAL_Driver/Src/stm32h7xx_hal_jpeg.c ****          (++) The mechanism of HAL_JPEG_ConfigOutputBuffer/HAL_JPEG_Pause/HAL_JPEG_Resume allows
 102:./Libraries/STM32H7xx_HAL_Driver/Src/stm32h7xx_hal_jpeg.c ****               the application to receive data from the JPEG peripheral by chunks. when a chunk
 103:./Libraries/STM32H7xx_HAL_Driver/Src/stm32h7xx_hal_jpeg.c ****               is received, the application can pause the HAL JPEG output data to be able to process
 104:./Libraries/STM32H7xx_HAL_Driver/Src/stm32h7xx_hal_jpeg.c ****               these received data (YCbCr to RGB conversion in case of decoding or data storage in c
 105:./Libraries/STM32H7xx_HAL_Driver/Src/stm32h7xx_hal_jpeg.c ****               of encoding).
 106:./Libraries/STM32H7xx_HAL_Driver/Src/stm32h7xx_hal_jpeg.c **** 
 107:./Libraries/STM32H7xx_HAL_Driver/Src/stm32h7xx_hal_jpeg.c ****          (++) The application can call  functions HAL_JPEG_ ConfigOutputBuffer then HAL_JPEG_Resume
 108:./Libraries/STM32H7xx_HAL_Driver/Src/stm32h7xx_hal_jpeg.c ****               any time (outside the HAL_JPEG_DataReadyCallback) Once the output data buffer is free
 109:./Libraries/STM32H7xx_HAL_Driver/Src/stm32h7xx_hal_jpeg.c ****               However, to keep data coherency, the function HAL_JPEG_Pause must be imperatively cal
 110:./Libraries/STM32H7xx_HAL_Driver/Src/stm32h7xx_hal_jpeg.c ****               (if necessary) within the callback HAL_JPEG_ DataReadyCallback, i.e when the HAL JPEG
 111:./Libraries/STM32H7xx_HAL_Driver/Src/stm32h7xx_hal_jpeg.c ****               Transferring the previous chunk buffer from the JPEG peripheral to the application.
 112:./Libraries/STM32H7xx_HAL_Driver/Src/stm32h7xx_hal_jpeg.c **** 
 113:./Libraries/STM32H7xx_HAL_Driver/Src/stm32h7xx_hal_jpeg.c ****      (#) Callback HAL_JPEG_EncodeCpltCallback is asserted when the HAL JPEG driver has
 114:./Libraries/STM32H7xx_HAL_Driver/Src/stm32h7xx_hal_jpeg.c ****          ended the current JPEG encoding operation, and all output data has been transmitted
 115:./Libraries/STM32H7xx_HAL_Driver/Src/stm32h7xx_hal_jpeg.c ****          to the application.
 116:./Libraries/STM32H7xx_HAL_Driver/Src/stm32h7xx_hal_jpeg.c **** 
 117:./Libraries/STM32H7xx_HAL_Driver/Src/stm32h7xx_hal_jpeg.c ****      (#) Callback HAL_JPEG_DecodeCpltCallback is asserted when the HAL JPEG driver has
 118:./Libraries/STM32H7xx_HAL_Driver/Src/stm32h7xx_hal_jpeg.c ****          ended the current JPEG decoding operation. and all output data has been transmitted
 119:./Libraries/STM32H7xx_HAL_Driver/Src/stm32h7xx_hal_jpeg.c ****          to the application.
 120:./Libraries/STM32H7xx_HAL_Driver/Src/stm32h7xx_hal_jpeg.c **** 
 121:./Libraries/STM32H7xx_HAL_Driver/Src/stm32h7xx_hal_jpeg.c ****      (#) Callback HAL_JPEG_ErrorCallback is asserted when an error occurred during
 122:./Libraries/STM32H7xx_HAL_Driver/Src/stm32h7xx_hal_jpeg.c ****          the current operation. the application can call the function HAL_JPEG_GetError()
ARM GAS  /tmp/ccXFtjVt.s 			page 6


 123:./Libraries/STM32H7xx_HAL_Driver/Src/stm32h7xx_hal_jpeg.c ****          to retrieve the error codes.
 124:./Libraries/STM32H7xx_HAL_Driver/Src/stm32h7xx_hal_jpeg.c **** 
 125:./Libraries/STM32H7xx_HAL_Driver/Src/stm32h7xx_hal_jpeg.c ****      (#) By default the HAL JPEG driver uses the default quantization tables
 126:./Libraries/STM32H7xx_HAL_Driver/Src/stm32h7xx_hal_jpeg.c ****          as provide in the JPEG specification (ISO/IEC 10918-1 standard) for encoding.
 127:./Libraries/STM32H7xx_HAL_Driver/Src/stm32h7xx_hal_jpeg.c ****          User can change these default tables if necessary using the function HAL_JPEG_SetUserQuant
 128:./Libraries/STM32H7xx_HAL_Driver/Src/stm32h7xx_hal_jpeg.c ****          Note that for decoding the quantization tables are automatically extracted from
 129:./Libraries/STM32H7xx_HAL_Driver/Src/stm32h7xx_hal_jpeg.c ****          the JPEG header.
 130:./Libraries/STM32H7xx_HAL_Driver/Src/stm32h7xx_hal_jpeg.c **** 
 131:./Libraries/STM32H7xx_HAL_Driver/Src/stm32h7xx_hal_jpeg.c ****       (#) To control JPEG state you can use the following function: HAL_JPEG_GetState()
 132:./Libraries/STM32H7xx_HAL_Driver/Src/stm32h7xx_hal_jpeg.c **** 
 133:./Libraries/STM32H7xx_HAL_Driver/Src/stm32h7xx_hal_jpeg.c ****      *** JPEG HAL driver macros list ***
 134:./Libraries/STM32H7xx_HAL_Driver/Src/stm32h7xx_hal_jpeg.c ****      =============================================
 135:./Libraries/STM32H7xx_HAL_Driver/Src/stm32h7xx_hal_jpeg.c ****      [..]
 136:./Libraries/STM32H7xx_HAL_Driver/Src/stm32h7xx_hal_jpeg.c ****        Below the list of most used macros in JPEG HAL driver.
 137:./Libraries/STM32H7xx_HAL_Driver/Src/stm32h7xx_hal_jpeg.c **** 
 138:./Libraries/STM32H7xx_HAL_Driver/Src/stm32h7xx_hal_jpeg.c ****       (+) __HAL_JPEG_RESET_HANDLE_STATE : Reset JPEG handle state.
 139:./Libraries/STM32H7xx_HAL_Driver/Src/stm32h7xx_hal_jpeg.c ****       (+) __HAL_JPEG_ENABLE             : Enable the JPEG peripheral.
 140:./Libraries/STM32H7xx_HAL_Driver/Src/stm32h7xx_hal_jpeg.c ****       (+) __HAL_JPEG_DISABLE            : Disable the JPEG peripheral.
 141:./Libraries/STM32H7xx_HAL_Driver/Src/stm32h7xx_hal_jpeg.c ****       (+) __HAL_JPEG_GET_FLAG           : Check the specified JPEG status flag.
 142:./Libraries/STM32H7xx_HAL_Driver/Src/stm32h7xx_hal_jpeg.c ****       (+) __HAL_JPEG_CLEAR_FLAG         : Clear the specified JPEG status flag.
 143:./Libraries/STM32H7xx_HAL_Driver/Src/stm32h7xx_hal_jpeg.c ****       (+) __HAL_JPEG_ENABLE_IT          : Enable the specified JPEG Interrupt.
 144:./Libraries/STM32H7xx_HAL_Driver/Src/stm32h7xx_hal_jpeg.c ****       (+) __HAL_JPEG_DISABLE_IT         : Disable the specified JPEG Interrupt.
 145:./Libraries/STM32H7xx_HAL_Driver/Src/stm32h7xx_hal_jpeg.c ****       (+) __HAL_JPEG_GET_IT_SOURCE      : returns the state of the specified JPEG Interrupt (Enable
 146:./Libraries/STM32H7xx_HAL_Driver/Src/stm32h7xx_hal_jpeg.c **** 
 147:./Libraries/STM32H7xx_HAL_Driver/Src/stm32h7xx_hal_jpeg.c ****   *** Callback registration ***
 148:./Libraries/STM32H7xx_HAL_Driver/Src/stm32h7xx_hal_jpeg.c ****   =============================================
 149:./Libraries/STM32H7xx_HAL_Driver/Src/stm32h7xx_hal_jpeg.c **** 
 150:./Libraries/STM32H7xx_HAL_Driver/Src/stm32h7xx_hal_jpeg.c ****   The compilation define  USE_HAL_JPEG_REGISTER_CALLBACKS when set to 1
 151:./Libraries/STM32H7xx_HAL_Driver/Src/stm32h7xx_hal_jpeg.c ****   allows the user to configure dynamically the driver callbacks.
 152:./Libraries/STM32H7xx_HAL_Driver/Src/stm32h7xx_hal_jpeg.c ****   Use Functions HAL_JPEG_RegisterCallback() or HAL_JPEG_RegisterXXXCallback()
 153:./Libraries/STM32H7xx_HAL_Driver/Src/stm32h7xx_hal_jpeg.c ****   to register an interrupt callback.
 154:./Libraries/STM32H7xx_HAL_Driver/Src/stm32h7xx_hal_jpeg.c **** 
 155:./Libraries/STM32H7xx_HAL_Driver/Src/stm32h7xx_hal_jpeg.c ****   Function HAL_JPEG_RegisterCallback() allows to register following callbacks:
 156:./Libraries/STM32H7xx_HAL_Driver/Src/stm32h7xx_hal_jpeg.c ****     (+) EncodeCpltCallback : callback for end of encoding operation.
 157:./Libraries/STM32H7xx_HAL_Driver/Src/stm32h7xx_hal_jpeg.c ****     (+) DecodeCpltCallback : callback for end of decoding operation.
 158:./Libraries/STM32H7xx_HAL_Driver/Src/stm32h7xx_hal_jpeg.c ****     (+) ErrorCallback      : callback for error detection.
 159:./Libraries/STM32H7xx_HAL_Driver/Src/stm32h7xx_hal_jpeg.c ****     (+) MspInitCallback    : JPEG MspInit.
 160:./Libraries/STM32H7xx_HAL_Driver/Src/stm32h7xx_hal_jpeg.c ****     (+) MspDeInitCallback  : JPEG MspDeInit.
 161:./Libraries/STM32H7xx_HAL_Driver/Src/stm32h7xx_hal_jpeg.c ****   This function takes as parameters the HAL peripheral handle, the Callback ID
 162:./Libraries/STM32H7xx_HAL_Driver/Src/stm32h7xx_hal_jpeg.c ****   and a pointer to the user callback function.
 163:./Libraries/STM32H7xx_HAL_Driver/Src/stm32h7xx_hal_jpeg.c **** 
 164:./Libraries/STM32H7xx_HAL_Driver/Src/stm32h7xx_hal_jpeg.c ****   For specific callbacks InfoReadyCallback, GetDataCallback and DataReadyCallback use dedicated
 165:./Libraries/STM32H7xx_HAL_Driver/Src/stm32h7xx_hal_jpeg.c ****   register callbacks : respectively HAL_JPEG_RegisterInfoReadyCallback(),
 166:./Libraries/STM32H7xx_HAL_Driver/Src/stm32h7xx_hal_jpeg.c ****   HAL_JPEG_RegisterGetDataCallback() and HAL_JPEG_RegisterDataReadyCallback().
 167:./Libraries/STM32H7xx_HAL_Driver/Src/stm32h7xx_hal_jpeg.c **** 
 168:./Libraries/STM32H7xx_HAL_Driver/Src/stm32h7xx_hal_jpeg.c ****   Use function HAL_JPEG_UnRegisterCallback() to reset a callback to the default
 169:./Libraries/STM32H7xx_HAL_Driver/Src/stm32h7xx_hal_jpeg.c ****   weak function.
 170:./Libraries/STM32H7xx_HAL_Driver/Src/stm32h7xx_hal_jpeg.c ****   HAL_JPEG_UnRegisterCallback() takes as parameters the HAL peripheral handle,
 171:./Libraries/STM32H7xx_HAL_Driver/Src/stm32h7xx_hal_jpeg.c ****   and the Callback ID.
 172:./Libraries/STM32H7xx_HAL_Driver/Src/stm32h7xx_hal_jpeg.c ****   This function allows to reset following callbacks:
 173:./Libraries/STM32H7xx_HAL_Driver/Src/stm32h7xx_hal_jpeg.c ****     (+) EncodeCpltCallback : callback for end of encoding operation.
 174:./Libraries/STM32H7xx_HAL_Driver/Src/stm32h7xx_hal_jpeg.c ****     (+) DecodeCpltCallback : callback for end of decoding operation.
 175:./Libraries/STM32H7xx_HAL_Driver/Src/stm32h7xx_hal_jpeg.c ****     (+) ErrorCallback      : callback for error detection.
 176:./Libraries/STM32H7xx_HAL_Driver/Src/stm32h7xx_hal_jpeg.c ****     (+) MspInitCallback    : JPEG MspInit.
 177:./Libraries/STM32H7xx_HAL_Driver/Src/stm32h7xx_hal_jpeg.c ****     (+) MspDeInitCallback  : JPEG MspDeInit.
 178:./Libraries/STM32H7xx_HAL_Driver/Src/stm32h7xx_hal_jpeg.c **** 
 179:./Libraries/STM32H7xx_HAL_Driver/Src/stm32h7xx_hal_jpeg.c ****   For callbacks InfoReadyCallback, GetDataCallback and DataReadyCallback use dedicated
ARM GAS  /tmp/ccXFtjVt.s 			page 7


 180:./Libraries/STM32H7xx_HAL_Driver/Src/stm32h7xx_hal_jpeg.c ****   unregister callbacks : respectively HAL_JPEG_UnRegisterInfoReadyCallback(),
 181:./Libraries/STM32H7xx_HAL_Driver/Src/stm32h7xx_hal_jpeg.c ****   HAL_JPEG_UnRegisterGetDataCallback() and HAL_JPEG_UnRegisterDataReadyCallback().
 182:./Libraries/STM32H7xx_HAL_Driver/Src/stm32h7xx_hal_jpeg.c **** 
 183:./Libraries/STM32H7xx_HAL_Driver/Src/stm32h7xx_hal_jpeg.c ****   By default, after the HAL_JPEG_Init() and when the state is HAL_JPEG_STATE_RESET
 184:./Libraries/STM32H7xx_HAL_Driver/Src/stm32h7xx_hal_jpeg.c ****   all callbacks are set to the corresponding weak functions :
 185:./Libraries/STM32H7xx_HAL_Driver/Src/stm32h7xx_hal_jpeg.c ****   examples HAL_JPEG_DecodeCpltCallback() , HAL_JPEG_GetDataCallback().
 186:./Libraries/STM32H7xx_HAL_Driver/Src/stm32h7xx_hal_jpeg.c ****   Exception done for MspInit and MspDeInit functions that are
 187:./Libraries/STM32H7xx_HAL_Driver/Src/stm32h7xx_hal_jpeg.c ****   reset to the legacy weak function in the HAL_JPEG_Init()/ HAL_JPEG_DeInit() only when
 188:./Libraries/STM32H7xx_HAL_Driver/Src/stm32h7xx_hal_jpeg.c ****   these callbacks are null (not registered beforehand).
 189:./Libraries/STM32H7xx_HAL_Driver/Src/stm32h7xx_hal_jpeg.c ****   if not, MspInit or MspDeInit are not null, the HAL_JPEG_Init() / HAL_JPEG_DeInit()
 190:./Libraries/STM32H7xx_HAL_Driver/Src/stm32h7xx_hal_jpeg.c ****   keep and use the user MspInit/MspDeInit functions (registered beforehand)
 191:./Libraries/STM32H7xx_HAL_Driver/Src/stm32h7xx_hal_jpeg.c **** 
 192:./Libraries/STM32H7xx_HAL_Driver/Src/stm32h7xx_hal_jpeg.c ****   Callbacks can be registered/unregistered in HAL_JPEG_STATE_READY state only.
 193:./Libraries/STM32H7xx_HAL_Driver/Src/stm32h7xx_hal_jpeg.c ****   Exception done MspInit/MspDeInit callbacks that can be registered/unregistered
 194:./Libraries/STM32H7xx_HAL_Driver/Src/stm32h7xx_hal_jpeg.c ****   in HAL_JPEG_STATE_READY or HAL_JPEG_STATE_RESET state,
 195:./Libraries/STM32H7xx_HAL_Driver/Src/stm32h7xx_hal_jpeg.c ****   thus registered (user) MspInit/DeInit callbacks can be used during the Init/DeInit.
 196:./Libraries/STM32H7xx_HAL_Driver/Src/stm32h7xx_hal_jpeg.c ****   In that case first register the MspInit/MspDeInit user callbacks
 197:./Libraries/STM32H7xx_HAL_Driver/Src/stm32h7xx_hal_jpeg.c ****   using HAL_JPEG_RegisterCallback() before calling HAL_JPEG_DeInit()
 198:./Libraries/STM32H7xx_HAL_Driver/Src/stm32h7xx_hal_jpeg.c ****   or HAL_JPEG_Init() function.
 199:./Libraries/STM32H7xx_HAL_Driver/Src/stm32h7xx_hal_jpeg.c **** 
 200:./Libraries/STM32H7xx_HAL_Driver/Src/stm32h7xx_hal_jpeg.c ****   When The compilation define USE_HAL_JPEG_REGISTER_CALLBACKS is set to 0 or
 201:./Libraries/STM32H7xx_HAL_Driver/Src/stm32h7xx_hal_jpeg.c ****   not defined, the callback registration feature is not available and all callbacks
 202:./Libraries/STM32H7xx_HAL_Driver/Src/stm32h7xx_hal_jpeg.c ****   are set to the corresponding weak functions.
 203:./Libraries/STM32H7xx_HAL_Driver/Src/stm32h7xx_hal_jpeg.c **** 
 204:./Libraries/STM32H7xx_HAL_Driver/Src/stm32h7xx_hal_jpeg.c ****   @endverbatim
 205:./Libraries/STM32H7xx_HAL_Driver/Src/stm32h7xx_hal_jpeg.c ****   ******************************************************************************
 206:./Libraries/STM32H7xx_HAL_Driver/Src/stm32h7xx_hal_jpeg.c ****   * @attention
 207:./Libraries/STM32H7xx_HAL_Driver/Src/stm32h7xx_hal_jpeg.c ****   *
 208:./Libraries/STM32H7xx_HAL_Driver/Src/stm32h7xx_hal_jpeg.c ****   * <h2><center>&copy; Copyright (c) 2017 STMicroelectronics.
 209:./Libraries/STM32H7xx_HAL_Driver/Src/stm32h7xx_hal_jpeg.c ****   * All rights reserved.</center></h2>
 210:./Libraries/STM32H7xx_HAL_Driver/Src/stm32h7xx_hal_jpeg.c ****   *
 211:./Libraries/STM32H7xx_HAL_Driver/Src/stm32h7xx_hal_jpeg.c ****   * This software component is licensed by ST under BSD 3-Clause license,
 212:./Libraries/STM32H7xx_HAL_Driver/Src/stm32h7xx_hal_jpeg.c ****   * the "License"; You may not use this file except in compliance with the
 213:./Libraries/STM32H7xx_HAL_Driver/Src/stm32h7xx_hal_jpeg.c ****   * License. You may obtain a copy of the License at:
 214:./Libraries/STM32H7xx_HAL_Driver/Src/stm32h7xx_hal_jpeg.c ****   *                        opensource.org/licenses/BSD-3-Clause
 215:./Libraries/STM32H7xx_HAL_Driver/Src/stm32h7xx_hal_jpeg.c ****   *
 216:./Libraries/STM32H7xx_HAL_Driver/Src/stm32h7xx_hal_jpeg.c ****   ******************************************************************************
 217:./Libraries/STM32H7xx_HAL_Driver/Src/stm32h7xx_hal_jpeg.c ****   */
 218:./Libraries/STM32H7xx_HAL_Driver/Src/stm32h7xx_hal_jpeg.c **** 
 219:./Libraries/STM32H7xx_HAL_Driver/Src/stm32h7xx_hal_jpeg.c **** /* Includes ------------------------------------------------------------------*/
 220:./Libraries/STM32H7xx_HAL_Driver/Src/stm32h7xx_hal_jpeg.c **** #include "stm32h7xx_hal.h"
 221:./Libraries/STM32H7xx_HAL_Driver/Src/stm32h7xx_hal_jpeg.c **** 
 222:./Libraries/STM32H7xx_HAL_Driver/Src/stm32h7xx_hal_jpeg.c **** /** @addtogroup STM32H7xx_HAL_Driver
 223:./Libraries/STM32H7xx_HAL_Driver/Src/stm32h7xx_hal_jpeg.c ****   * @{
 224:./Libraries/STM32H7xx_HAL_Driver/Src/stm32h7xx_hal_jpeg.c ****   */
 225:./Libraries/STM32H7xx_HAL_Driver/Src/stm32h7xx_hal_jpeg.c **** 
 226:./Libraries/STM32H7xx_HAL_Driver/Src/stm32h7xx_hal_jpeg.c **** #ifdef HAL_JPEG_MODULE_ENABLED
 227:./Libraries/STM32H7xx_HAL_Driver/Src/stm32h7xx_hal_jpeg.c **** 
 228:./Libraries/STM32H7xx_HAL_Driver/Src/stm32h7xx_hal_jpeg.c **** #if defined (JPEG)
 229:./Libraries/STM32H7xx_HAL_Driver/Src/stm32h7xx_hal_jpeg.c **** 
 230:./Libraries/STM32H7xx_HAL_Driver/Src/stm32h7xx_hal_jpeg.c **** /** @defgroup JPEG JPEG
 231:./Libraries/STM32H7xx_HAL_Driver/Src/stm32h7xx_hal_jpeg.c ****   * @brief JPEG HAL module driver.
 232:./Libraries/STM32H7xx_HAL_Driver/Src/stm32h7xx_hal_jpeg.c ****   * @{
 233:./Libraries/STM32H7xx_HAL_Driver/Src/stm32h7xx_hal_jpeg.c ****   */
 234:./Libraries/STM32H7xx_HAL_Driver/Src/stm32h7xx_hal_jpeg.c **** 
 235:./Libraries/STM32H7xx_HAL_Driver/Src/stm32h7xx_hal_jpeg.c **** /* Private define ------------------------------------------------------------*/
 236:./Libraries/STM32H7xx_HAL_Driver/Src/stm32h7xx_hal_jpeg.c **** /** @addtogroup JPEG_Private_Constants
ARM GAS  /tmp/ccXFtjVt.s 			page 8


 237:./Libraries/STM32H7xx_HAL_Driver/Src/stm32h7xx_hal_jpeg.c ****   * @{
 238:./Libraries/STM32H7xx_HAL_Driver/Src/stm32h7xx_hal_jpeg.c ****   */
 239:./Libraries/STM32H7xx_HAL_Driver/Src/stm32h7xx_hal_jpeg.c **** #define JPEG_TIMEOUT_VALUE  ((uint32_t)1000)     /* 1s */
 240:./Libraries/STM32H7xx_HAL_Driver/Src/stm32h7xx_hal_jpeg.c **** #define JPEG_AC_HUFF_TABLE_SIZE  ((uint32_t)162) /* Huffman AC table size : 162 codes*/
 241:./Libraries/STM32H7xx_HAL_Driver/Src/stm32h7xx_hal_jpeg.c **** #define JPEG_DC_HUFF_TABLE_SIZE  ((uint32_t)12)  /* Huffman AC table size : 12 codes*/
 242:./Libraries/STM32H7xx_HAL_Driver/Src/stm32h7xx_hal_jpeg.c **** 
 243:./Libraries/STM32H7xx_HAL_Driver/Src/stm32h7xx_hal_jpeg.c **** #define JPEG_FIFO_SIZE ((uint32_t)16U)             /* JPEG Input/Output HW FIFO size in words*/
 244:./Libraries/STM32H7xx_HAL_Driver/Src/stm32h7xx_hal_jpeg.c **** 
 245:./Libraries/STM32H7xx_HAL_Driver/Src/stm32h7xx_hal_jpeg.c **** #define JPEG_FIFO_TH_SIZE ((uint32_t)8U)              /* JPEG Input/Output HW FIFO Threshold in wor
 246:./Libraries/STM32H7xx_HAL_Driver/Src/stm32h7xx_hal_jpeg.c **** 
 247:./Libraries/STM32H7xx_HAL_Driver/Src/stm32h7xx_hal_jpeg.c **** #define JPEG_INTERRUPT_MASK  ((uint32_t)0x0000007EU) /* JPEG Interrupt Mask*/
 248:./Libraries/STM32H7xx_HAL_Driver/Src/stm32h7xx_hal_jpeg.c **** 
 249:./Libraries/STM32H7xx_HAL_Driver/Src/stm32h7xx_hal_jpeg.c **** #define JPEG_CONTEXT_ENCODE          ((uint32_t)0x00000001) /* JPEG context : operation is encoding
 250:./Libraries/STM32H7xx_HAL_Driver/Src/stm32h7xx_hal_jpeg.c **** #define JPEG_CONTEXT_DECODE          ((uint32_t)0x00000002) /* JPEG context : operation is decoding
 251:./Libraries/STM32H7xx_HAL_Driver/Src/stm32h7xx_hal_jpeg.c **** #define JPEG_CONTEXT_OPERATION_MASK  ((uint32_t)0x00000003) /* JPEG context : operation Mask */
 252:./Libraries/STM32H7xx_HAL_Driver/Src/stm32h7xx_hal_jpeg.c **** 
 253:./Libraries/STM32H7xx_HAL_Driver/Src/stm32h7xx_hal_jpeg.c **** #define JPEG_CONTEXT_POLLING        ((uint32_t)0x00000004)  /* JPEG context : Transfer use Polling 
 254:./Libraries/STM32H7xx_HAL_Driver/Src/stm32h7xx_hal_jpeg.c **** #define JPEG_CONTEXT_IT             ((uint32_t)0x00000008)  /* JPEG context : Transfer use Interrup
 255:./Libraries/STM32H7xx_HAL_Driver/Src/stm32h7xx_hal_jpeg.c **** #define JPEG_CONTEXT_DMA            ((uint32_t)0x0000000C)  /* JPEG context : Transfer use DMA */
 256:./Libraries/STM32H7xx_HAL_Driver/Src/stm32h7xx_hal_jpeg.c **** #define JPEG_CONTEXT_METHOD_MASK    ((uint32_t)0x0000000C)  /* JPEG context : Transfer Mask */
 257:./Libraries/STM32H7xx_HAL_Driver/Src/stm32h7xx_hal_jpeg.c **** 
 258:./Libraries/STM32H7xx_HAL_Driver/Src/stm32h7xx_hal_jpeg.c **** 
 259:./Libraries/STM32H7xx_HAL_Driver/Src/stm32h7xx_hal_jpeg.c **** #define JPEG_CONTEXT_CONF_ENCODING  ((uint32_t)0x00000100)  /* JPEG context : encoding config done 
 260:./Libraries/STM32H7xx_HAL_Driver/Src/stm32h7xx_hal_jpeg.c **** 
 261:./Libraries/STM32H7xx_HAL_Driver/Src/stm32h7xx_hal_jpeg.c **** #define JPEG_CONTEXT_PAUSE_INPUT    ((uint32_t)0x00001000)  /* JPEG context : Pause Input */
 262:./Libraries/STM32H7xx_HAL_Driver/Src/stm32h7xx_hal_jpeg.c **** #define JPEG_CONTEXT_PAUSE_OUTPUT   ((uint32_t)0x00002000)  /* JPEG context : Pause Output */
 263:./Libraries/STM32H7xx_HAL_Driver/Src/stm32h7xx_hal_jpeg.c **** 
 264:./Libraries/STM32H7xx_HAL_Driver/Src/stm32h7xx_hal_jpeg.c **** #define JPEG_CONTEXT_CUSTOM_TABLES  ((uint32_t)0x00004000)  /* JPEG context : Use custom quantizati
 265:./Libraries/STM32H7xx_HAL_Driver/Src/stm32h7xx_hal_jpeg.c **** 
 266:./Libraries/STM32H7xx_HAL_Driver/Src/stm32h7xx_hal_jpeg.c **** #define JPEG_CONTEXT_ENDING_DMA     ((uint32_t)0x00008000)  /* JPEG context : ending with DMA in pr
 267:./Libraries/STM32H7xx_HAL_Driver/Src/stm32h7xx_hal_jpeg.c **** 
 268:./Libraries/STM32H7xx_HAL_Driver/Src/stm32h7xx_hal_jpeg.c **** #define JPEG_PROCESS_ONGOING        ((uint32_t)0x00000000)  /* Process is on going */
 269:./Libraries/STM32H7xx_HAL_Driver/Src/stm32h7xx_hal_jpeg.c **** #define JPEG_PROCESS_DONE           ((uint32_t)0x00000001)  /* Process is done (ends) */
 270:./Libraries/STM32H7xx_HAL_Driver/Src/stm32h7xx_hal_jpeg.c **** /**
 271:./Libraries/STM32H7xx_HAL_Driver/Src/stm32h7xx_hal_jpeg.c ****   * @}
 272:./Libraries/STM32H7xx_HAL_Driver/Src/stm32h7xx_hal_jpeg.c ****   */
 273:./Libraries/STM32H7xx_HAL_Driver/Src/stm32h7xx_hal_jpeg.c **** 
 274:./Libraries/STM32H7xx_HAL_Driver/Src/stm32h7xx_hal_jpeg.c **** /* Private typedef -----------------------------------------------------------*/
 275:./Libraries/STM32H7xx_HAL_Driver/Src/stm32h7xx_hal_jpeg.c **** /** @addtogroup JPEG_Private_Types
 276:./Libraries/STM32H7xx_HAL_Driver/Src/stm32h7xx_hal_jpeg.c ****   * @{
 277:./Libraries/STM32H7xx_HAL_Driver/Src/stm32h7xx_hal_jpeg.c ****   */
 278:./Libraries/STM32H7xx_HAL_Driver/Src/stm32h7xx_hal_jpeg.c **** 
 279:./Libraries/STM32H7xx_HAL_Driver/Src/stm32h7xx_hal_jpeg.c **** /*
 280:./Libraries/STM32H7xx_HAL_Driver/Src/stm32h7xx_hal_jpeg.c ****  JPEG Huffman Table Structure definition :
 281:./Libraries/STM32H7xx_HAL_Driver/Src/stm32h7xx_hal_jpeg.c ****  This implementation of Huffman table structure is compliant with ISO/IEC 10918-1 standard , Annex 
 282:./Libraries/STM32H7xx_HAL_Driver/Src/stm32h7xx_hal_jpeg.c ****  */
 283:./Libraries/STM32H7xx_HAL_Driver/Src/stm32h7xx_hal_jpeg.c **** typedef struct
 284:./Libraries/STM32H7xx_HAL_Driver/Src/stm32h7xx_hal_jpeg.c **** {
 285:./Libraries/STM32H7xx_HAL_Driver/Src/stm32h7xx_hal_jpeg.c ****   /* These two fields directly represent the contents of a JPEG DHT marker */
 286:./Libraries/STM32H7xx_HAL_Driver/Src/stm32h7xx_hal_jpeg.c ****   uint8_t Bits[16];        /*!< bits[k] = # of symbols with codes of length k bits, this parameter 
 287:./Libraries/STM32H7xx_HAL_Driver/Src/stm32h7xx_hal_jpeg.c **** 
 288:./Libraries/STM32H7xx_HAL_Driver/Src/stm32h7xx_hal_jpeg.c ****   uint8_t HuffVal[162];    /*!< The symbols, in order of incremented code length, this parameter co
 289:./Libraries/STM32H7xx_HAL_Driver/Src/stm32h7xx_hal_jpeg.c **** 
 290:./Libraries/STM32H7xx_HAL_Driver/Src/stm32h7xx_hal_jpeg.c **** 
 291:./Libraries/STM32H7xx_HAL_Driver/Src/stm32h7xx_hal_jpeg.c **** } JPEG_ACHuffTableTypeDef;
 292:./Libraries/STM32H7xx_HAL_Driver/Src/stm32h7xx_hal_jpeg.c **** 
 293:./Libraries/STM32H7xx_HAL_Driver/Src/stm32h7xx_hal_jpeg.c **** typedef struct
ARM GAS  /tmp/ccXFtjVt.s 			page 9


 294:./Libraries/STM32H7xx_HAL_Driver/Src/stm32h7xx_hal_jpeg.c **** {
 295:./Libraries/STM32H7xx_HAL_Driver/Src/stm32h7xx_hal_jpeg.c ****   /* These two fields directly represent the contents of a JPEG DHT marker */
 296:./Libraries/STM32H7xx_HAL_Driver/Src/stm32h7xx_hal_jpeg.c ****   uint8_t Bits[16];        /*!< bits[k] = # of symbols with codes of length k bits, this parameter 
 297:./Libraries/STM32H7xx_HAL_Driver/Src/stm32h7xx_hal_jpeg.c **** 
 298:./Libraries/STM32H7xx_HAL_Driver/Src/stm32h7xx_hal_jpeg.c ****   uint8_t HuffVal[12];    /*!< The symbols, in order of incremented code length, this parameter cor
 299:./Libraries/STM32H7xx_HAL_Driver/Src/stm32h7xx_hal_jpeg.c **** 
 300:./Libraries/STM32H7xx_HAL_Driver/Src/stm32h7xx_hal_jpeg.c **** 
 301:./Libraries/STM32H7xx_HAL_Driver/Src/stm32h7xx_hal_jpeg.c **** } JPEG_DCHuffTableTypeDef;
 302:./Libraries/STM32H7xx_HAL_Driver/Src/stm32h7xx_hal_jpeg.c **** 
 303:./Libraries/STM32H7xx_HAL_Driver/Src/stm32h7xx_hal_jpeg.c **** typedef struct
 304:./Libraries/STM32H7xx_HAL_Driver/Src/stm32h7xx_hal_jpeg.c **** {
 305:./Libraries/STM32H7xx_HAL_Driver/Src/stm32h7xx_hal_jpeg.c ****   uint8_t CodeLength[JPEG_AC_HUFF_TABLE_SIZE];      /*!< Code length  */
 306:./Libraries/STM32H7xx_HAL_Driver/Src/stm32h7xx_hal_jpeg.c **** 
 307:./Libraries/STM32H7xx_HAL_Driver/Src/stm32h7xx_hal_jpeg.c ****   uint32_t HuffmanCode[JPEG_AC_HUFF_TABLE_SIZE];    /*!< HuffmanCode */
 308:./Libraries/STM32H7xx_HAL_Driver/Src/stm32h7xx_hal_jpeg.c **** 
 309:./Libraries/STM32H7xx_HAL_Driver/Src/stm32h7xx_hal_jpeg.c **** } JPEG_AC_HuffCodeTableTypeDef;
 310:./Libraries/STM32H7xx_HAL_Driver/Src/stm32h7xx_hal_jpeg.c **** 
 311:./Libraries/STM32H7xx_HAL_Driver/Src/stm32h7xx_hal_jpeg.c **** typedef struct
 312:./Libraries/STM32H7xx_HAL_Driver/Src/stm32h7xx_hal_jpeg.c **** {
 313:./Libraries/STM32H7xx_HAL_Driver/Src/stm32h7xx_hal_jpeg.c ****   uint8_t CodeLength[JPEG_DC_HUFF_TABLE_SIZE];        /*!< Code length  */
 314:./Libraries/STM32H7xx_HAL_Driver/Src/stm32h7xx_hal_jpeg.c **** 
 315:./Libraries/STM32H7xx_HAL_Driver/Src/stm32h7xx_hal_jpeg.c ****   uint32_t HuffmanCode[JPEG_DC_HUFF_TABLE_SIZE];    /*!< HuffmanCode */
 316:./Libraries/STM32H7xx_HAL_Driver/Src/stm32h7xx_hal_jpeg.c **** 
 317:./Libraries/STM32H7xx_HAL_Driver/Src/stm32h7xx_hal_jpeg.c **** } JPEG_DC_HuffCodeTableTypeDef;
 318:./Libraries/STM32H7xx_HAL_Driver/Src/stm32h7xx_hal_jpeg.c **** /**
 319:./Libraries/STM32H7xx_HAL_Driver/Src/stm32h7xx_hal_jpeg.c ****   * @}
 320:./Libraries/STM32H7xx_HAL_Driver/Src/stm32h7xx_hal_jpeg.c ****   */
 321:./Libraries/STM32H7xx_HAL_Driver/Src/stm32h7xx_hal_jpeg.c **** 
 322:./Libraries/STM32H7xx_HAL_Driver/Src/stm32h7xx_hal_jpeg.c **** /* Private macro -------------------------------------------------------------*/
 323:./Libraries/STM32H7xx_HAL_Driver/Src/stm32h7xx_hal_jpeg.c **** 
 324:./Libraries/STM32H7xx_HAL_Driver/Src/stm32h7xx_hal_jpeg.c **** /* Private variables ---------------------------------------------------------*/
 325:./Libraries/STM32H7xx_HAL_Driver/Src/stm32h7xx_hal_jpeg.c **** /** @addtogroup JPEG_Private_Variables
 326:./Libraries/STM32H7xx_HAL_Driver/Src/stm32h7xx_hal_jpeg.c ****   * @{
 327:./Libraries/STM32H7xx_HAL_Driver/Src/stm32h7xx_hal_jpeg.c ****   */
 328:./Libraries/STM32H7xx_HAL_Driver/Src/stm32h7xx_hal_jpeg.c **** 
 329:./Libraries/STM32H7xx_HAL_Driver/Src/stm32h7xx_hal_jpeg.c **** static const JPEG_DCHuffTableTypeDef JPEG_DCLUM_HuffTable =
 330:./Libraries/STM32H7xx_HAL_Driver/Src/stm32h7xx_hal_jpeg.c **** {
 331:./Libraries/STM32H7xx_HAL_Driver/Src/stm32h7xx_hal_jpeg.c ****   { 0, 1, 5, 1, 1, 1, 1, 1, 1, 0, 0, 0, 0, 0, 0, 0 },   /*Bits*/
 332:./Libraries/STM32H7xx_HAL_Driver/Src/stm32h7xx_hal_jpeg.c **** 
 333:./Libraries/STM32H7xx_HAL_Driver/Src/stm32h7xx_hal_jpeg.c ****   { 0, 1, 2, 3, 4, 5, 6, 7, 8, 9, 0xa, 0xb }           /*HUFFVAL */
 334:./Libraries/STM32H7xx_HAL_Driver/Src/stm32h7xx_hal_jpeg.c **** 
 335:./Libraries/STM32H7xx_HAL_Driver/Src/stm32h7xx_hal_jpeg.c **** };
 336:./Libraries/STM32H7xx_HAL_Driver/Src/stm32h7xx_hal_jpeg.c **** 
 337:./Libraries/STM32H7xx_HAL_Driver/Src/stm32h7xx_hal_jpeg.c **** static const JPEG_DCHuffTableTypeDef JPEG_DCCHROM_HuffTable =
 338:./Libraries/STM32H7xx_HAL_Driver/Src/stm32h7xx_hal_jpeg.c **** {
 339:./Libraries/STM32H7xx_HAL_Driver/Src/stm32h7xx_hal_jpeg.c ****   { 0, 3, 1, 1, 1, 1, 1, 1, 1, 1, 1, 0, 0, 0, 0, 0 },  /*Bits*/
 340:./Libraries/STM32H7xx_HAL_Driver/Src/stm32h7xx_hal_jpeg.c **** 
 341:./Libraries/STM32H7xx_HAL_Driver/Src/stm32h7xx_hal_jpeg.c ****   { 0, 1, 2, 3, 4, 5, 6, 7, 8, 9, 0xa, 0xb }          /*HUFFVAL */
 342:./Libraries/STM32H7xx_HAL_Driver/Src/stm32h7xx_hal_jpeg.c **** };
 343:./Libraries/STM32H7xx_HAL_Driver/Src/stm32h7xx_hal_jpeg.c **** 
 344:./Libraries/STM32H7xx_HAL_Driver/Src/stm32h7xx_hal_jpeg.c **** static const JPEG_ACHuffTableTypeDef JPEG_ACLUM_HuffTable =
 345:./Libraries/STM32H7xx_HAL_Driver/Src/stm32h7xx_hal_jpeg.c **** {
 346:./Libraries/STM32H7xx_HAL_Driver/Src/stm32h7xx_hal_jpeg.c ****   { 0, 2, 1, 3, 3, 2, 4, 3, 5, 5, 4, 4, 0, 0, 1, 0x7d },  /*Bits*/
 347:./Libraries/STM32H7xx_HAL_Driver/Src/stm32h7xx_hal_jpeg.c **** 
 348:./Libraries/STM32H7xx_HAL_Driver/Src/stm32h7xx_hal_jpeg.c ****   {
 349:./Libraries/STM32H7xx_HAL_Driver/Src/stm32h7xx_hal_jpeg.c ****     0x01, 0x02, 0x03, 0x00, 0x04, 0x11, 0x05, 0x12,     /*HUFFVAL */
 350:./Libraries/STM32H7xx_HAL_Driver/Src/stm32h7xx_hal_jpeg.c ****     0x21, 0x31, 0x41, 0x06, 0x13, 0x51, 0x61, 0x07,
ARM GAS  /tmp/ccXFtjVt.s 			page 10


 351:./Libraries/STM32H7xx_HAL_Driver/Src/stm32h7xx_hal_jpeg.c ****     0x22, 0x71, 0x14, 0x32, 0x81, 0x91, 0xa1, 0x08,
 352:./Libraries/STM32H7xx_HAL_Driver/Src/stm32h7xx_hal_jpeg.c ****     0x23, 0x42, 0xb1, 0xc1, 0x15, 0x52, 0xd1, 0xf0,
 353:./Libraries/STM32H7xx_HAL_Driver/Src/stm32h7xx_hal_jpeg.c ****     0x24, 0x33, 0x62, 0x72, 0x82, 0x09, 0x0a, 0x16,
 354:./Libraries/STM32H7xx_HAL_Driver/Src/stm32h7xx_hal_jpeg.c ****     0x17, 0x18, 0x19, 0x1a, 0x25, 0x26, 0x27, 0x28,
 355:./Libraries/STM32H7xx_HAL_Driver/Src/stm32h7xx_hal_jpeg.c ****     0x29, 0x2a, 0x34, 0x35, 0x36, 0x37, 0x38, 0x39,
 356:./Libraries/STM32H7xx_HAL_Driver/Src/stm32h7xx_hal_jpeg.c ****     0x3a, 0x43, 0x44, 0x45, 0x46, 0x47, 0x48, 0x49,
 357:./Libraries/STM32H7xx_HAL_Driver/Src/stm32h7xx_hal_jpeg.c ****     0x4a, 0x53, 0x54, 0x55, 0x56, 0x57, 0x58, 0x59,
 358:./Libraries/STM32H7xx_HAL_Driver/Src/stm32h7xx_hal_jpeg.c ****     0x5a, 0x63, 0x64, 0x65, 0x66, 0x67, 0x68, 0x69,
 359:./Libraries/STM32H7xx_HAL_Driver/Src/stm32h7xx_hal_jpeg.c ****     0x6a, 0x73, 0x74, 0x75, 0x76, 0x77, 0x78, 0x79,
 360:./Libraries/STM32H7xx_HAL_Driver/Src/stm32h7xx_hal_jpeg.c ****     0x7a, 0x83, 0x84, 0x85, 0x86, 0x87, 0x88, 0x89,
 361:./Libraries/STM32H7xx_HAL_Driver/Src/stm32h7xx_hal_jpeg.c ****     0x8a, 0x92, 0x93, 0x94, 0x95, 0x96, 0x97, 0x98,
 362:./Libraries/STM32H7xx_HAL_Driver/Src/stm32h7xx_hal_jpeg.c ****     0x99, 0x9a, 0xa2, 0xa3, 0xa4, 0xa5, 0xa6, 0xa7,
 363:./Libraries/STM32H7xx_HAL_Driver/Src/stm32h7xx_hal_jpeg.c ****     0xa8, 0xa9, 0xaa, 0xb2, 0xb3, 0xb4, 0xb5, 0xb6,
 364:./Libraries/STM32H7xx_HAL_Driver/Src/stm32h7xx_hal_jpeg.c ****     0xb7, 0xb8, 0xb9, 0xba, 0xc2, 0xc3, 0xc4, 0xc5,
 365:./Libraries/STM32H7xx_HAL_Driver/Src/stm32h7xx_hal_jpeg.c ****     0xc6, 0xc7, 0xc8, 0xc9, 0xca, 0xd2, 0xd3, 0xd4,
 366:./Libraries/STM32H7xx_HAL_Driver/Src/stm32h7xx_hal_jpeg.c ****     0xd5, 0xd6, 0xd7, 0xd8, 0xd9, 0xda, 0xe1, 0xe2,
 367:./Libraries/STM32H7xx_HAL_Driver/Src/stm32h7xx_hal_jpeg.c ****     0xe3, 0xe4, 0xe5, 0xe6, 0xe7, 0xe8, 0xe9, 0xea,
 368:./Libraries/STM32H7xx_HAL_Driver/Src/stm32h7xx_hal_jpeg.c ****     0xf1, 0xf2, 0xf3, 0xf4, 0xf5, 0xf6, 0xf7, 0xf8,
 369:./Libraries/STM32H7xx_HAL_Driver/Src/stm32h7xx_hal_jpeg.c ****     0xf9, 0xfa
 370:./Libraries/STM32H7xx_HAL_Driver/Src/stm32h7xx_hal_jpeg.c ****   }
 371:./Libraries/STM32H7xx_HAL_Driver/Src/stm32h7xx_hal_jpeg.c **** };
 372:./Libraries/STM32H7xx_HAL_Driver/Src/stm32h7xx_hal_jpeg.c **** 
 373:./Libraries/STM32H7xx_HAL_Driver/Src/stm32h7xx_hal_jpeg.c **** static const JPEG_ACHuffTableTypeDef JPEG_ACCHROM_HuffTable =
 374:./Libraries/STM32H7xx_HAL_Driver/Src/stm32h7xx_hal_jpeg.c **** {
 375:./Libraries/STM32H7xx_HAL_Driver/Src/stm32h7xx_hal_jpeg.c ****   { 0, 2, 1, 2, 4, 4, 3, 4, 7, 5, 4, 4, 0, 1, 2, 0x77 },   /*Bits*/
 376:./Libraries/STM32H7xx_HAL_Driver/Src/stm32h7xx_hal_jpeg.c **** 
 377:./Libraries/STM32H7xx_HAL_Driver/Src/stm32h7xx_hal_jpeg.c ****   {
 378:./Libraries/STM32H7xx_HAL_Driver/Src/stm32h7xx_hal_jpeg.c ****     0x00, 0x01, 0x02, 0x03, 0x11, 0x04, 0x05, 0x21,      /*HUFFVAL */
 379:./Libraries/STM32H7xx_HAL_Driver/Src/stm32h7xx_hal_jpeg.c ****     0x31, 0x06, 0x12, 0x41, 0x51, 0x07, 0x61, 0x71,
 380:./Libraries/STM32H7xx_HAL_Driver/Src/stm32h7xx_hal_jpeg.c ****     0x13, 0x22, 0x32, 0x81, 0x08, 0x14, 0x42, 0x91,
 381:./Libraries/STM32H7xx_HAL_Driver/Src/stm32h7xx_hal_jpeg.c ****     0xa1, 0xb1, 0xc1, 0x09, 0x23, 0x33, 0x52, 0xf0,
 382:./Libraries/STM32H7xx_HAL_Driver/Src/stm32h7xx_hal_jpeg.c ****     0x15, 0x62, 0x72, 0xd1, 0x0a, 0x16, 0x24, 0x34,
 383:./Libraries/STM32H7xx_HAL_Driver/Src/stm32h7xx_hal_jpeg.c ****     0xe1, 0x25, 0xf1, 0x17, 0x18, 0x19, 0x1a, 0x26,
 384:./Libraries/STM32H7xx_HAL_Driver/Src/stm32h7xx_hal_jpeg.c ****     0x27, 0x28, 0x29, 0x2a, 0x35, 0x36, 0x37, 0x38,
 385:./Libraries/STM32H7xx_HAL_Driver/Src/stm32h7xx_hal_jpeg.c ****     0x39, 0x3a, 0x43, 0x44, 0x45, 0x46, 0x47, 0x48,
 386:./Libraries/STM32H7xx_HAL_Driver/Src/stm32h7xx_hal_jpeg.c ****     0x49, 0x4a, 0x53, 0x54, 0x55, 0x56, 0x57, 0x58,
 387:./Libraries/STM32H7xx_HAL_Driver/Src/stm32h7xx_hal_jpeg.c ****     0x59, 0x5a, 0x63, 0x64, 0x65, 0x66, 0x67, 0x68,
 388:./Libraries/STM32H7xx_HAL_Driver/Src/stm32h7xx_hal_jpeg.c ****     0x69, 0x6a, 0x73, 0x74, 0x75, 0x76, 0x77, 0x78,
 389:./Libraries/STM32H7xx_HAL_Driver/Src/stm32h7xx_hal_jpeg.c ****     0x79, 0x7a, 0x82, 0x83, 0x84, 0x85, 0x86, 0x87,
 390:./Libraries/STM32H7xx_HAL_Driver/Src/stm32h7xx_hal_jpeg.c ****     0x88, 0x89, 0x8a, 0x92, 0x93, 0x94, 0x95, 0x96,
 391:./Libraries/STM32H7xx_HAL_Driver/Src/stm32h7xx_hal_jpeg.c ****     0x97, 0x98, 0x99, 0x9a, 0xa2, 0xa3, 0xa4, 0xa5,
 392:./Libraries/STM32H7xx_HAL_Driver/Src/stm32h7xx_hal_jpeg.c ****     0xa6, 0xa7, 0xa8, 0xa9, 0xaa, 0xb2, 0xb3, 0xb4,
 393:./Libraries/STM32H7xx_HAL_Driver/Src/stm32h7xx_hal_jpeg.c ****     0xb5, 0xb6, 0xb7, 0xb8, 0xb9, 0xba, 0xc2, 0xc3,
 394:./Libraries/STM32H7xx_HAL_Driver/Src/stm32h7xx_hal_jpeg.c ****     0xc4, 0xc5, 0xc6, 0xc7, 0xc8, 0xc9, 0xca, 0xd2,
 395:./Libraries/STM32H7xx_HAL_Driver/Src/stm32h7xx_hal_jpeg.c ****     0xd3, 0xd4, 0xd5, 0xd6, 0xd7, 0xd8, 0xd9, 0xda,
 396:./Libraries/STM32H7xx_HAL_Driver/Src/stm32h7xx_hal_jpeg.c ****     0xe2, 0xe3, 0xe4, 0xe5, 0xe6, 0xe7, 0xe8, 0xe9,
 397:./Libraries/STM32H7xx_HAL_Driver/Src/stm32h7xx_hal_jpeg.c ****     0xea, 0xf2, 0xf3, 0xf4, 0xf5, 0xf6, 0xf7, 0xf8,
 398:./Libraries/STM32H7xx_HAL_Driver/Src/stm32h7xx_hal_jpeg.c ****     0xf9, 0xfa
 399:./Libraries/STM32H7xx_HAL_Driver/Src/stm32h7xx_hal_jpeg.c ****   }
 400:./Libraries/STM32H7xx_HAL_Driver/Src/stm32h7xx_hal_jpeg.c **** };
 401:./Libraries/STM32H7xx_HAL_Driver/Src/stm32h7xx_hal_jpeg.c **** 
 402:./Libraries/STM32H7xx_HAL_Driver/Src/stm32h7xx_hal_jpeg.c **** static const uint8_t JPEG_ZIGZAG_ORDER[JPEG_QUANT_TABLE_SIZE] =
 403:./Libraries/STM32H7xx_HAL_Driver/Src/stm32h7xx_hal_jpeg.c **** {
 404:./Libraries/STM32H7xx_HAL_Driver/Src/stm32h7xx_hal_jpeg.c ****   0,   1,   8,  16,   9,   2,   3,  10,
 405:./Libraries/STM32H7xx_HAL_Driver/Src/stm32h7xx_hal_jpeg.c ****   17,  24,  32,  25,  18,  11,   4,   5,
 406:./Libraries/STM32H7xx_HAL_Driver/Src/stm32h7xx_hal_jpeg.c ****   12,  19,  26,  33,  40,  48,  41,  34,
 407:./Libraries/STM32H7xx_HAL_Driver/Src/stm32h7xx_hal_jpeg.c ****   27,  20,  13,   6,   7,  14,  21,  28,
ARM GAS  /tmp/ccXFtjVt.s 			page 11


 408:./Libraries/STM32H7xx_HAL_Driver/Src/stm32h7xx_hal_jpeg.c ****   35,  42,  49,  56,  57,  50,  43,  36,
 409:./Libraries/STM32H7xx_HAL_Driver/Src/stm32h7xx_hal_jpeg.c ****   29,  22,  15,  23,  30,  37,  44,  51,
 410:./Libraries/STM32H7xx_HAL_Driver/Src/stm32h7xx_hal_jpeg.c ****   58,  59,  52,  45,  38,  31,  39,  46,
 411:./Libraries/STM32H7xx_HAL_Driver/Src/stm32h7xx_hal_jpeg.c ****   53,  60,  61,  54,  47,  55,  62,  63
 412:./Libraries/STM32H7xx_HAL_Driver/Src/stm32h7xx_hal_jpeg.c **** };
 413:./Libraries/STM32H7xx_HAL_Driver/Src/stm32h7xx_hal_jpeg.c **** /**
 414:./Libraries/STM32H7xx_HAL_Driver/Src/stm32h7xx_hal_jpeg.c ****   * @}
 415:./Libraries/STM32H7xx_HAL_Driver/Src/stm32h7xx_hal_jpeg.c ****   */
 416:./Libraries/STM32H7xx_HAL_Driver/Src/stm32h7xx_hal_jpeg.c **** 
 417:./Libraries/STM32H7xx_HAL_Driver/Src/stm32h7xx_hal_jpeg.c **** /* Private function prototypes -----------------------------------------------*/
 418:./Libraries/STM32H7xx_HAL_Driver/Src/stm32h7xx_hal_jpeg.c **** /** @addtogroup JPEG_Private_Functions_Prototypes
 419:./Libraries/STM32H7xx_HAL_Driver/Src/stm32h7xx_hal_jpeg.c ****   * @{
 420:./Libraries/STM32H7xx_HAL_Driver/Src/stm32h7xx_hal_jpeg.c ****   */
 421:./Libraries/STM32H7xx_HAL_Driver/Src/stm32h7xx_hal_jpeg.c **** 
 422:./Libraries/STM32H7xx_HAL_Driver/Src/stm32h7xx_hal_jpeg.c **** static HAL_StatusTypeDef JPEG_Bits_To_SizeCodes(uint8_t *Bits, uint8_t *Huffsize, uint32_t *Huffcod
 423:./Libraries/STM32H7xx_HAL_Driver/Src/stm32h7xx_hal_jpeg.c **** static HAL_StatusTypeDef JPEG_DCHuff_BitsVals_To_SizeCodes(JPEG_DCHuffTableTypeDef *DC_BitsValsTabl
 424:./Libraries/STM32H7xx_HAL_Driver/Src/stm32h7xx_hal_jpeg.c ****                                                            JPEG_DC_HuffCodeTableTypeDef *DC_SizeCod
 425:./Libraries/STM32H7xx_HAL_Driver/Src/stm32h7xx_hal_jpeg.c **** static HAL_StatusTypeDef JPEG_ACHuff_BitsVals_To_SizeCodes(JPEG_ACHuffTableTypeDef *AC_BitsValsTabl
 426:./Libraries/STM32H7xx_HAL_Driver/Src/stm32h7xx_hal_jpeg.c ****                                                            JPEG_AC_HuffCodeTableTypeDef *AC_SizeCod
 427:./Libraries/STM32H7xx_HAL_Driver/Src/stm32h7xx_hal_jpeg.c **** static HAL_StatusTypeDef JPEG_Set_HuffDC_Mem(JPEG_HandleTypeDef *hjpeg, JPEG_DCHuffTableTypeDef *Hu
 428:./Libraries/STM32H7xx_HAL_Driver/Src/stm32h7xx_hal_jpeg.c ****                                              const __IO uint32_t *DCTableAddress);
 429:./Libraries/STM32H7xx_HAL_Driver/Src/stm32h7xx_hal_jpeg.c **** static HAL_StatusTypeDef JPEG_Set_HuffAC_Mem(JPEG_HandleTypeDef *hjpeg, JPEG_ACHuffTableTypeDef *Hu
 430:./Libraries/STM32H7xx_HAL_Driver/Src/stm32h7xx_hal_jpeg.c ****                                              const __IO uint32_t *ACTableAddress);
 431:./Libraries/STM32H7xx_HAL_Driver/Src/stm32h7xx_hal_jpeg.c **** static HAL_StatusTypeDef JPEG_Set_HuffEnc_Mem(JPEG_HandleTypeDef *hjpeg);
 432:./Libraries/STM32H7xx_HAL_Driver/Src/stm32h7xx_hal_jpeg.c **** static void JPEG_Set_Huff_DHTMem(JPEG_HandleTypeDef *hjpeg);
 433:./Libraries/STM32H7xx_HAL_Driver/Src/stm32h7xx_hal_jpeg.c **** static uint32_t  JPEG_Set_Quantization_Mem(JPEG_HandleTypeDef *hjpeg, uint8_t *QTable,
 434:./Libraries/STM32H7xx_HAL_Driver/Src/stm32h7xx_hal_jpeg.c ****                                                     __IO uint32_t *QTableAddress);
 435:./Libraries/STM32H7xx_HAL_Driver/Src/stm32h7xx_hal_jpeg.c **** static void JPEG_SetColorYCBCR(JPEG_HandleTypeDef *hjpeg);
 436:./Libraries/STM32H7xx_HAL_Driver/Src/stm32h7xx_hal_jpeg.c **** static void JPEG_SetColorGrayScale(JPEG_HandleTypeDef *hjpeg);
 437:./Libraries/STM32H7xx_HAL_Driver/Src/stm32h7xx_hal_jpeg.c **** static void JPEG_SetColorCMYK(JPEG_HandleTypeDef *hjpeg);
 438:./Libraries/STM32H7xx_HAL_Driver/Src/stm32h7xx_hal_jpeg.c **** 
 439:./Libraries/STM32H7xx_HAL_Driver/Src/stm32h7xx_hal_jpeg.c **** static void JPEG_Init_Process(JPEG_HandleTypeDef *hjpeg);
 440:./Libraries/STM32H7xx_HAL_Driver/Src/stm32h7xx_hal_jpeg.c **** static uint32_t JPEG_Process(JPEG_HandleTypeDef *hjpeg);
 441:./Libraries/STM32H7xx_HAL_Driver/Src/stm32h7xx_hal_jpeg.c **** static void JPEG_ReadInputData(JPEG_HandleTypeDef *hjpeg, uint32_t nbRequestWords);
 442:./Libraries/STM32H7xx_HAL_Driver/Src/stm32h7xx_hal_jpeg.c **** static void JPEG_StoreOutputData(JPEG_HandleTypeDef *hjpeg, uint32_t nbOutputWords);
 443:./Libraries/STM32H7xx_HAL_Driver/Src/stm32h7xx_hal_jpeg.c **** static uint32_t JPEG_GetQuality(JPEG_HandleTypeDef *hjpeg);
 444:./Libraries/STM32H7xx_HAL_Driver/Src/stm32h7xx_hal_jpeg.c **** 
 445:./Libraries/STM32H7xx_HAL_Driver/Src/stm32h7xx_hal_jpeg.c **** static HAL_StatusTypeDef JPEG_DMA_StartProcess(JPEG_HandleTypeDef *hjpeg);
 446:./Libraries/STM32H7xx_HAL_Driver/Src/stm32h7xx_hal_jpeg.c **** static void JPEG_DMA_ContinueProcess(JPEG_HandleTypeDef *hjpeg);
 447:./Libraries/STM32H7xx_HAL_Driver/Src/stm32h7xx_hal_jpeg.c **** static void JPEG_DMA_EndProcess(JPEG_HandleTypeDef *hjpeg);
 448:./Libraries/STM32H7xx_HAL_Driver/Src/stm32h7xx_hal_jpeg.c **** static void JPEG_DMA_PollResidualData(JPEG_HandleTypeDef *hjpeg);
 449:./Libraries/STM32H7xx_HAL_Driver/Src/stm32h7xx_hal_jpeg.c **** static void JPEG_MDMAOutCpltCallback(MDMA_HandleTypeDef *hmdma);
 450:./Libraries/STM32H7xx_HAL_Driver/Src/stm32h7xx_hal_jpeg.c **** static void JPEG_MDMAInCpltCallback(MDMA_HandleTypeDef *hmdma);
 451:./Libraries/STM32H7xx_HAL_Driver/Src/stm32h7xx_hal_jpeg.c **** static void JPEG_MDMAErrorCallback(MDMA_HandleTypeDef *hmdma);
 452:./Libraries/STM32H7xx_HAL_Driver/Src/stm32h7xx_hal_jpeg.c **** static void JPEG_MDMAOutAbortCallback(MDMA_HandleTypeDef *hmdma);
 453:./Libraries/STM32H7xx_HAL_Driver/Src/stm32h7xx_hal_jpeg.c **** 
 454:./Libraries/STM32H7xx_HAL_Driver/Src/stm32h7xx_hal_jpeg.c **** /**
 455:./Libraries/STM32H7xx_HAL_Driver/Src/stm32h7xx_hal_jpeg.c ****   * @}
 456:./Libraries/STM32H7xx_HAL_Driver/Src/stm32h7xx_hal_jpeg.c ****   */
 457:./Libraries/STM32H7xx_HAL_Driver/Src/stm32h7xx_hal_jpeg.c **** 
 458:./Libraries/STM32H7xx_HAL_Driver/Src/stm32h7xx_hal_jpeg.c **** /** @defgroup JPEG_Exported_Functions JPEG Exported Functions
 459:./Libraries/STM32H7xx_HAL_Driver/Src/stm32h7xx_hal_jpeg.c ****   * @{
 460:./Libraries/STM32H7xx_HAL_Driver/Src/stm32h7xx_hal_jpeg.c ****   */
 461:./Libraries/STM32H7xx_HAL_Driver/Src/stm32h7xx_hal_jpeg.c **** 
 462:./Libraries/STM32H7xx_HAL_Driver/Src/stm32h7xx_hal_jpeg.c **** /** @defgroup JPEG_Exported_Functions_Group1 Initialization and de-initialization functions
 463:./Libraries/STM32H7xx_HAL_Driver/Src/stm32h7xx_hal_jpeg.c ****   *  @brief    Initialization and de-initialization functions.
 464:./Libraries/STM32H7xx_HAL_Driver/Src/stm32h7xx_hal_jpeg.c ****   *
ARM GAS  /tmp/ccXFtjVt.s 			page 12


 465:./Libraries/STM32H7xx_HAL_Driver/Src/stm32h7xx_hal_jpeg.c **** @verbatim
 466:./Libraries/STM32H7xx_HAL_Driver/Src/stm32h7xx_hal_jpeg.c ****   ==============================================================================
 467:./Libraries/STM32H7xx_HAL_Driver/Src/stm32h7xx_hal_jpeg.c ****               ##### Initialization and de-initialization functions #####
 468:./Libraries/STM32H7xx_HAL_Driver/Src/stm32h7xx_hal_jpeg.c ****   ==============================================================================
 469:./Libraries/STM32H7xx_HAL_Driver/Src/stm32h7xx_hal_jpeg.c ****     [..]  This section provides functions allowing to:
 470:./Libraries/STM32H7xx_HAL_Driver/Src/stm32h7xx_hal_jpeg.c ****       (+) Initialize the JPEG peripheral and creates the associated handle
 471:./Libraries/STM32H7xx_HAL_Driver/Src/stm32h7xx_hal_jpeg.c ****       (+) DeInitialize the JPEG peripheral
 472:./Libraries/STM32H7xx_HAL_Driver/Src/stm32h7xx_hal_jpeg.c **** 
 473:./Libraries/STM32H7xx_HAL_Driver/Src/stm32h7xx_hal_jpeg.c **** @endverbatim
 474:./Libraries/STM32H7xx_HAL_Driver/Src/stm32h7xx_hal_jpeg.c ****   * @{
 475:./Libraries/STM32H7xx_HAL_Driver/Src/stm32h7xx_hal_jpeg.c ****   */
 476:./Libraries/STM32H7xx_HAL_Driver/Src/stm32h7xx_hal_jpeg.c **** 
 477:./Libraries/STM32H7xx_HAL_Driver/Src/stm32h7xx_hal_jpeg.c **** /**
 478:./Libraries/STM32H7xx_HAL_Driver/Src/stm32h7xx_hal_jpeg.c ****   * @brief  Initializes the JPEG according to the specified
 479:./Libraries/STM32H7xx_HAL_Driver/Src/stm32h7xx_hal_jpeg.c ****   *         parameters in the JPEG_InitTypeDef and creates the associated handle.
 480:./Libraries/STM32H7xx_HAL_Driver/Src/stm32h7xx_hal_jpeg.c ****   * @param  hjpeg pointer to a JPEG_HandleTypeDef structure that contains
 481:./Libraries/STM32H7xx_HAL_Driver/Src/stm32h7xx_hal_jpeg.c ****   *         the configuration information for JPEG module
 482:./Libraries/STM32H7xx_HAL_Driver/Src/stm32h7xx_hal_jpeg.c ****   * @retval HAL status
 483:./Libraries/STM32H7xx_HAL_Driver/Src/stm32h7xx_hal_jpeg.c ****   */
 484:./Libraries/STM32H7xx_HAL_Driver/Src/stm32h7xx_hal_jpeg.c **** HAL_StatusTypeDef HAL_JPEG_Init(JPEG_HandleTypeDef *hjpeg)
 485:./Libraries/STM32H7xx_HAL_Driver/Src/stm32h7xx_hal_jpeg.c **** {
  86              		.loc 1 485 1
  87              		.cfi_startproc
  88              		@ args = 0, pretend = 0, frame = 8
  89              		@ frame_needed = 1, uses_anonymous_args = 0
  90 0000 80B5     		push	{r7, lr}
  91              	.LCFI0:
  92              		.cfi_def_cfa_offset 8
  93              		.cfi_offset 7, -8
  94              		.cfi_offset 14, -4
  95 0002 82B0     		sub	sp, sp, #8
  96              	.LCFI1:
  97              		.cfi_def_cfa_offset 16
  98 0004 00AF     		add	r7, sp, #0
  99              	.LCFI2:
 100              		.cfi_def_cfa_register 7
 101 0006 7860     		str	r0, [r7, #4]
 486:./Libraries/STM32H7xx_HAL_Driver/Src/stm32h7xx_hal_jpeg.c ****   /* These are the sample quantization tables given in JPEG spec ISO/IEC 10918-1 standard , section
 487:./Libraries/STM32H7xx_HAL_Driver/Src/stm32h7xx_hal_jpeg.c ****   static const uint8_t JPEG_LUM_QuantTable[JPEG_QUANT_TABLE_SIZE] =
 488:./Libraries/STM32H7xx_HAL_Driver/Src/stm32h7xx_hal_jpeg.c ****   {
 489:./Libraries/STM32H7xx_HAL_Driver/Src/stm32h7xx_hal_jpeg.c ****     16,  11,  10,  16,  24,  40,  51,  61,
 490:./Libraries/STM32H7xx_HAL_Driver/Src/stm32h7xx_hal_jpeg.c ****     12,  12,  14,  19,  26,  58,  60,  55,
 491:./Libraries/STM32H7xx_HAL_Driver/Src/stm32h7xx_hal_jpeg.c ****     14,  13,  16,  24,  40,  57,  69,  56,
 492:./Libraries/STM32H7xx_HAL_Driver/Src/stm32h7xx_hal_jpeg.c ****     14,  17,  22,  29,  51,  87,  80,  62,
 493:./Libraries/STM32H7xx_HAL_Driver/Src/stm32h7xx_hal_jpeg.c ****     18,  22,  37,  56,  68, 109, 103,  77,
 494:./Libraries/STM32H7xx_HAL_Driver/Src/stm32h7xx_hal_jpeg.c ****     24,  35,  55,  64,  81, 104, 113,  92,
 495:./Libraries/STM32H7xx_HAL_Driver/Src/stm32h7xx_hal_jpeg.c ****     49,  64,  78,  87, 103, 121, 120, 101,
 496:./Libraries/STM32H7xx_HAL_Driver/Src/stm32h7xx_hal_jpeg.c ****     72,  92,  95,  98, 112, 100, 103,  99
 497:./Libraries/STM32H7xx_HAL_Driver/Src/stm32h7xx_hal_jpeg.c ****   };
 498:./Libraries/STM32H7xx_HAL_Driver/Src/stm32h7xx_hal_jpeg.c ****   static const uint8_t JPEG_CHROM_QuantTable[JPEG_QUANT_TABLE_SIZE] =
 499:./Libraries/STM32H7xx_HAL_Driver/Src/stm32h7xx_hal_jpeg.c ****   {
 500:./Libraries/STM32H7xx_HAL_Driver/Src/stm32h7xx_hal_jpeg.c ****     17,  18,  24,  47,  99,  99,  99,  99,
 501:./Libraries/STM32H7xx_HAL_Driver/Src/stm32h7xx_hal_jpeg.c ****     18,  21,  26,  66,  99,  99,  99,  99,
 502:./Libraries/STM32H7xx_HAL_Driver/Src/stm32h7xx_hal_jpeg.c ****     24,  26,  56,  99,  99,  99,  99,  99,
 503:./Libraries/STM32H7xx_HAL_Driver/Src/stm32h7xx_hal_jpeg.c ****     47,  66,  99,  99,  99,  99,  99,  99,
 504:./Libraries/STM32H7xx_HAL_Driver/Src/stm32h7xx_hal_jpeg.c ****     99,  99,  99,  99,  99,  99,  99,  99,
 505:./Libraries/STM32H7xx_HAL_Driver/Src/stm32h7xx_hal_jpeg.c ****     99,  99,  99,  99,  99,  99,  99,  99,
ARM GAS  /tmp/ccXFtjVt.s 			page 13


 506:./Libraries/STM32H7xx_HAL_Driver/Src/stm32h7xx_hal_jpeg.c ****     99,  99,  99,  99,  99,  99,  99,  99,
 507:./Libraries/STM32H7xx_HAL_Driver/Src/stm32h7xx_hal_jpeg.c ****     99,  99,  99,  99,  99,  99,  99,  99
 508:./Libraries/STM32H7xx_HAL_Driver/Src/stm32h7xx_hal_jpeg.c ****   };
 509:./Libraries/STM32H7xx_HAL_Driver/Src/stm32h7xx_hal_jpeg.c **** 
 510:./Libraries/STM32H7xx_HAL_Driver/Src/stm32h7xx_hal_jpeg.c ****   /* Check the JPEG handle allocation */
 511:./Libraries/STM32H7xx_HAL_Driver/Src/stm32h7xx_hal_jpeg.c ****   if (hjpeg == NULL)
 102              		.loc 1 511 6
 103 0008 7B68     		ldr	r3, [r7, #4]
 104 000a 002B     		cmp	r3, #0
 105 000c 01D1     		bne	.L2
 512:./Libraries/STM32H7xx_HAL_Driver/Src/stm32h7xx_hal_jpeg.c ****   {
 513:./Libraries/STM32H7xx_HAL_Driver/Src/stm32h7xx_hal_jpeg.c ****     return HAL_ERROR;
 106              		.loc 1 513 12
 107 000e 0123     		movs	r3, #1
 108 0010 70E0     		b	.L3
 109              	.L2:
 514:./Libraries/STM32H7xx_HAL_Driver/Src/stm32h7xx_hal_jpeg.c ****   }
 515:./Libraries/STM32H7xx_HAL_Driver/Src/stm32h7xx_hal_jpeg.c **** 
 516:./Libraries/STM32H7xx_HAL_Driver/Src/stm32h7xx_hal_jpeg.c **** #if (USE_HAL_JPEG_REGISTER_CALLBACKS == 1)
 517:./Libraries/STM32H7xx_HAL_Driver/Src/stm32h7xx_hal_jpeg.c ****   if (hjpeg->State == HAL_JPEG_STATE_RESET)
 518:./Libraries/STM32H7xx_HAL_Driver/Src/stm32h7xx_hal_jpeg.c ****   {
 519:./Libraries/STM32H7xx_HAL_Driver/Src/stm32h7xx_hal_jpeg.c ****     /* Allocate lock resource and initialize it */
 520:./Libraries/STM32H7xx_HAL_Driver/Src/stm32h7xx_hal_jpeg.c ****     hjpeg->Lock = HAL_UNLOCKED;
 521:./Libraries/STM32H7xx_HAL_Driver/Src/stm32h7xx_hal_jpeg.c **** 
 522:./Libraries/STM32H7xx_HAL_Driver/Src/stm32h7xx_hal_jpeg.c ****     hjpeg->InfoReadyCallback  = HAL_JPEG_InfoReadyCallback;  /* Legacy weak InfoReadyCallback  */
 523:./Libraries/STM32H7xx_HAL_Driver/Src/stm32h7xx_hal_jpeg.c ****     hjpeg->EncodeCpltCallback = HAL_JPEG_EncodeCpltCallback; /* Legacy weak EncodeCpltCallback */
 524:./Libraries/STM32H7xx_HAL_Driver/Src/stm32h7xx_hal_jpeg.c ****     hjpeg->DecodeCpltCallback = HAL_JPEG_DecodeCpltCallback; /* Legacy weak DecodeCpltCallback */
 525:./Libraries/STM32H7xx_HAL_Driver/Src/stm32h7xx_hal_jpeg.c ****     hjpeg->ErrorCallback      = HAL_JPEG_ErrorCallback;      /* Legacy weak ErrorCallback      */
 526:./Libraries/STM32H7xx_HAL_Driver/Src/stm32h7xx_hal_jpeg.c ****     hjpeg->GetDataCallback    = HAL_JPEG_GetDataCallback;    /* Legacy weak GetDataCallback    */
 527:./Libraries/STM32H7xx_HAL_Driver/Src/stm32h7xx_hal_jpeg.c ****     hjpeg->DataReadyCallback  = HAL_JPEG_DataReadyCallback;  /* Legacy weak DataReadyCallback  */
 528:./Libraries/STM32H7xx_HAL_Driver/Src/stm32h7xx_hal_jpeg.c **** 
 529:./Libraries/STM32H7xx_HAL_Driver/Src/stm32h7xx_hal_jpeg.c ****     if (hjpeg->MspInitCallback == NULL)
 530:./Libraries/STM32H7xx_HAL_Driver/Src/stm32h7xx_hal_jpeg.c ****     {
 531:./Libraries/STM32H7xx_HAL_Driver/Src/stm32h7xx_hal_jpeg.c ****       hjpeg->MspInitCallback = HAL_JPEG_MspInit; /* Legacy weak MspInit  */
 532:./Libraries/STM32H7xx_HAL_Driver/Src/stm32h7xx_hal_jpeg.c ****     }
 533:./Libraries/STM32H7xx_HAL_Driver/Src/stm32h7xx_hal_jpeg.c **** 
 534:./Libraries/STM32H7xx_HAL_Driver/Src/stm32h7xx_hal_jpeg.c ****     /* Init the low level hardware */
 535:./Libraries/STM32H7xx_HAL_Driver/Src/stm32h7xx_hal_jpeg.c ****     hjpeg->MspInitCallback(hjpeg);
 536:./Libraries/STM32H7xx_HAL_Driver/Src/stm32h7xx_hal_jpeg.c ****   }
 537:./Libraries/STM32H7xx_HAL_Driver/Src/stm32h7xx_hal_jpeg.c **** #else
 538:./Libraries/STM32H7xx_HAL_Driver/Src/stm32h7xx_hal_jpeg.c ****   if (hjpeg->State == HAL_JPEG_STATE_RESET)
 110              		.loc 1 538 12
 111 0012 7B68     		ldr	r3, [r7, #4]
 112 0014 93F84D30 		ldrb	r3, [r3, #77]
 113 0018 DBB2     		uxtb	r3, r3
 114              		.loc 1 538 6
 115 001a 002B     		cmp	r3, #0
 116 001c 06D1     		bne	.L4
 539:./Libraries/STM32H7xx_HAL_Driver/Src/stm32h7xx_hal_jpeg.c ****   {
 540:./Libraries/STM32H7xx_HAL_Driver/Src/stm32h7xx_hal_jpeg.c ****     /* Allocate lock resource and initialize it */
 541:./Libraries/STM32H7xx_HAL_Driver/Src/stm32h7xx_hal_jpeg.c ****     hjpeg->Lock = HAL_UNLOCKED;
 117              		.loc 1 541 17
 118 001e 7B68     		ldr	r3, [r7, #4]
 119 0020 0022     		movs	r2, #0
 120 0022 83F84C20 		strb	r2, [r3, #76]
 542:./Libraries/STM32H7xx_HAL_Driver/Src/stm32h7xx_hal_jpeg.c **** 
 543:./Libraries/STM32H7xx_HAL_Driver/Src/stm32h7xx_hal_jpeg.c ****     /* Init the low level hardware : GPIO, CLOCK */
ARM GAS  /tmp/ccXFtjVt.s 			page 14


 544:./Libraries/STM32H7xx_HAL_Driver/Src/stm32h7xx_hal_jpeg.c ****     HAL_JPEG_MspInit(hjpeg);
 121              		.loc 1 544 5
 122 0026 7868     		ldr	r0, [r7, #4]
 123 0028 FFF7FEFF 		bl	HAL_JPEG_MspInit
 124              	.L4:
 545:./Libraries/STM32H7xx_HAL_Driver/Src/stm32h7xx_hal_jpeg.c ****   }
 546:./Libraries/STM32H7xx_HAL_Driver/Src/stm32h7xx_hal_jpeg.c **** #endif /* USE_HAL_JPEG_REGISTER_CALLBACKS */
 547:./Libraries/STM32H7xx_HAL_Driver/Src/stm32h7xx_hal_jpeg.c **** 
 548:./Libraries/STM32H7xx_HAL_Driver/Src/stm32h7xx_hal_jpeg.c ****   /* Change the JPEG state */
 549:./Libraries/STM32H7xx_HAL_Driver/Src/stm32h7xx_hal_jpeg.c ****   hjpeg->State = HAL_JPEG_STATE_BUSY;
 125              		.loc 1 549 16
 126 002c 7B68     		ldr	r3, [r7, #4]
 127 002e 0222     		movs	r2, #2
 128 0030 83F84D20 		strb	r2, [r3, #77]
 550:./Libraries/STM32H7xx_HAL_Driver/Src/stm32h7xx_hal_jpeg.c **** 
 551:./Libraries/STM32H7xx_HAL_Driver/Src/stm32h7xx_hal_jpeg.c ****   /* Start the JPEG Core*/
 552:./Libraries/STM32H7xx_HAL_Driver/Src/stm32h7xx_hal_jpeg.c ****   __HAL_JPEG_ENABLE(hjpeg);
 129              		.loc 1 552 3
 130 0034 7B68     		ldr	r3, [r7, #4]
 131 0036 1B68     		ldr	r3, [r3]
 132 0038 1A6B     		ldr	r2, [r3, #48]
 133 003a 7B68     		ldr	r3, [r7, #4]
 134 003c 1B68     		ldr	r3, [r3]
 135 003e 42F00102 		orr	r2, r2, #1
 136 0042 1A63     		str	r2, [r3, #48]
 553:./Libraries/STM32H7xx_HAL_Driver/Src/stm32h7xx_hal_jpeg.c **** 
 554:./Libraries/STM32H7xx_HAL_Driver/Src/stm32h7xx_hal_jpeg.c ****   /* Stop the JPEG encoding/decoding process*/
 555:./Libraries/STM32H7xx_HAL_Driver/Src/stm32h7xx_hal_jpeg.c ****   hjpeg->Instance->CONFR0 &=  ~JPEG_CONFR0_START;
 137              		.loc 1 555 8
 138 0044 7B68     		ldr	r3, [r7, #4]
 139 0046 1B68     		ldr	r3, [r3]
 140              		.loc 1 555 27
 141 0048 1A68     		ldr	r2, [r3]
 142              		.loc 1 555 8
 143 004a 7B68     		ldr	r3, [r7, #4]
 144 004c 1B68     		ldr	r3, [r3]
 145              		.loc 1 555 27
 146 004e 22F00102 		bic	r2, r2, #1
 147 0052 1A60     		str	r2, [r3]
 556:./Libraries/STM32H7xx_HAL_Driver/Src/stm32h7xx_hal_jpeg.c **** 
 557:./Libraries/STM32H7xx_HAL_Driver/Src/stm32h7xx_hal_jpeg.c ****   /* Disable All Interrupts */
 558:./Libraries/STM32H7xx_HAL_Driver/Src/stm32h7xx_hal_jpeg.c ****   __HAL_JPEG_DISABLE_IT(hjpeg, JPEG_INTERRUPT_MASK);
 148              		.loc 1 558 3
 149 0054 7B68     		ldr	r3, [r7, #4]
 150 0056 1B68     		ldr	r3, [r3]
 151 0058 1A6B     		ldr	r2, [r3, #48]
 152 005a 7B68     		ldr	r3, [r7, #4]
 153 005c 1B68     		ldr	r3, [r3]
 154 005e 22F07E02 		bic	r2, r2, #126
 155 0062 1A63     		str	r2, [r3, #48]
 559:./Libraries/STM32H7xx_HAL_Driver/Src/stm32h7xx_hal_jpeg.c **** 
 560:./Libraries/STM32H7xx_HAL_Driver/Src/stm32h7xx_hal_jpeg.c **** 
 561:./Libraries/STM32H7xx_HAL_Driver/Src/stm32h7xx_hal_jpeg.c ****   /* Flush input and output FIFOs*/
 562:./Libraries/STM32H7xx_HAL_Driver/Src/stm32h7xx_hal_jpeg.c ****   hjpeg->Instance->CR |= JPEG_CR_IFF;
 156              		.loc 1 562 8
 157 0064 7B68     		ldr	r3, [r7, #4]
 158 0066 1B68     		ldr	r3, [r3]
ARM GAS  /tmp/ccXFtjVt.s 			page 15


 159              		.loc 1 562 23
 160 0068 1A6B     		ldr	r2, [r3, #48]
 161              		.loc 1 562 8
 162 006a 7B68     		ldr	r3, [r7, #4]
 163 006c 1B68     		ldr	r3, [r3]
 164              		.loc 1 562 23
 165 006e 42F40052 		orr	r2, r2, #8192
 166 0072 1A63     		str	r2, [r3, #48]
 563:./Libraries/STM32H7xx_HAL_Driver/Src/stm32h7xx_hal_jpeg.c ****   hjpeg->Instance->CR |= JPEG_CR_OFF;
 167              		.loc 1 563 8
 168 0074 7B68     		ldr	r3, [r7, #4]
 169 0076 1B68     		ldr	r3, [r3]
 170              		.loc 1 563 23
 171 0078 1A6B     		ldr	r2, [r3, #48]
 172              		.loc 1 563 8
 173 007a 7B68     		ldr	r3, [r7, #4]
 174 007c 1B68     		ldr	r3, [r3]
 175              		.loc 1 563 23
 176 007e 42F48042 		orr	r2, r2, #16384
 177 0082 1A63     		str	r2, [r3, #48]
 564:./Libraries/STM32H7xx_HAL_Driver/Src/stm32h7xx_hal_jpeg.c **** 
 565:./Libraries/STM32H7xx_HAL_Driver/Src/stm32h7xx_hal_jpeg.c ****   /* Clear all flags */
 566:./Libraries/STM32H7xx_HAL_Driver/Src/stm32h7xx_hal_jpeg.c ****   __HAL_JPEG_CLEAR_FLAG(hjpeg, JPEG_FLAG_ALL);
 178              		.loc 1 566 3
 179 0084 7B68     		ldr	r3, [r7, #4]
 180 0086 1B68     		ldr	r3, [r3]
 181 0088 9A6B     		ldr	r2, [r3, #56]
 182 008a 7B68     		ldr	r3, [r7, #4]
 183 008c 1B68     		ldr	r3, [r3]
 184 008e 42F06002 		orr	r2, r2, #96
 185 0092 9A63     		str	r2, [r3, #56]
 567:./Libraries/STM32H7xx_HAL_Driver/Src/stm32h7xx_hal_jpeg.c **** 
 568:./Libraries/STM32H7xx_HAL_Driver/Src/stm32h7xx_hal_jpeg.c ****   /* init default quantization tables*/
 569:./Libraries/STM32H7xx_HAL_Driver/Src/stm32h7xx_hal_jpeg.c ****   hjpeg->QuantTable0 = (uint8_t *)((uint32_t)JPEG_LUM_QuantTable);
 186              		.loc 1 569 22
 187 0094 7B68     		ldr	r3, [r7, #4]
 188 0096 194A     		ldr	r2, .L6
 189 0098 DA63     		str	r2, [r3, #60]
 570:./Libraries/STM32H7xx_HAL_Driver/Src/stm32h7xx_hal_jpeg.c ****   hjpeg->QuantTable1 = (uint8_t *)((uint32_t)JPEG_CHROM_QuantTable);
 190              		.loc 1 570 22
 191 009a 7B68     		ldr	r3, [r7, #4]
 192 009c 184A     		ldr	r2, .L6+4
 193 009e 1A64     		str	r2, [r3, #64]
 571:./Libraries/STM32H7xx_HAL_Driver/Src/stm32h7xx_hal_jpeg.c ****   hjpeg->QuantTable2 = NULL;
 194              		.loc 1 571 22
 195 00a0 7B68     		ldr	r3, [r7, #4]
 196 00a2 0022     		movs	r2, #0
 197 00a4 5A64     		str	r2, [r3, #68]
 572:./Libraries/STM32H7xx_HAL_Driver/Src/stm32h7xx_hal_jpeg.c ****   hjpeg->QuantTable3 = NULL;
 198              		.loc 1 572 22
 199 00a6 7B68     		ldr	r3, [r7, #4]
 200 00a8 0022     		movs	r2, #0
 201 00aa 9A64     		str	r2, [r3, #72]
 573:./Libraries/STM32H7xx_HAL_Driver/Src/stm32h7xx_hal_jpeg.c **** 
 574:./Libraries/STM32H7xx_HAL_Driver/Src/stm32h7xx_hal_jpeg.c ****   /* init the default Huffman tables*/
 575:./Libraries/STM32H7xx_HAL_Driver/Src/stm32h7xx_hal_jpeg.c ****   if (JPEG_Set_HuffEnc_Mem(hjpeg) != HAL_OK)
 202              		.loc 1 575 7
ARM GAS  /tmp/ccXFtjVt.s 			page 16


 203 00ac 7868     		ldr	r0, [r7, #4]
 204 00ae FFF7FEFF 		bl	JPEG_Set_HuffEnc_Mem
 205 00b2 0346     		mov	r3, r0
 206              		.loc 1 575 6
 207 00b4 002B     		cmp	r3, #0
 208 00b6 04D0     		beq	.L5
 576:./Libraries/STM32H7xx_HAL_Driver/Src/stm32h7xx_hal_jpeg.c ****   {
 577:./Libraries/STM32H7xx_HAL_Driver/Src/stm32h7xx_hal_jpeg.c ****     hjpeg->ErrorCode = HAL_JPEG_ERROR_HUFF_TABLE;
 209              		.loc 1 577 22
 210 00b8 7B68     		ldr	r3, [r7, #4]
 211 00ba 0122     		movs	r2, #1
 212 00bc 1A65     		str	r2, [r3, #80]
 578:./Libraries/STM32H7xx_HAL_Driver/Src/stm32h7xx_hal_jpeg.c **** 
 579:./Libraries/STM32H7xx_HAL_Driver/Src/stm32h7xx_hal_jpeg.c ****     return HAL_ERROR;
 213              		.loc 1 579 12
 214 00be 0123     		movs	r3, #1
 215 00c0 18E0     		b	.L3
 216              	.L5:
 580:./Libraries/STM32H7xx_HAL_Driver/Src/stm32h7xx_hal_jpeg.c ****   }
 581:./Libraries/STM32H7xx_HAL_Driver/Src/stm32h7xx_hal_jpeg.c **** 
 582:./Libraries/STM32H7xx_HAL_Driver/Src/stm32h7xx_hal_jpeg.c ****   /* Enable header processing*/
 583:./Libraries/STM32H7xx_HAL_Driver/Src/stm32h7xx_hal_jpeg.c ****   hjpeg->Instance->CONFR1 |= JPEG_CONFR1_HDR;
 217              		.loc 1 583 8
 218 00c2 7B68     		ldr	r3, [r7, #4]
 219 00c4 1B68     		ldr	r3, [r3]
 220              		.loc 1 583 27
 221 00c6 5A68     		ldr	r2, [r3, #4]
 222              		.loc 1 583 8
 223 00c8 7B68     		ldr	r3, [r7, #4]
 224 00ca 1B68     		ldr	r3, [r3]
 225              		.loc 1 583 27
 226 00cc 42F48072 		orr	r2, r2, #256
 227 00d0 5A60     		str	r2, [r3, #4]
 584:./Libraries/STM32H7xx_HAL_Driver/Src/stm32h7xx_hal_jpeg.c **** 
 585:./Libraries/STM32H7xx_HAL_Driver/Src/stm32h7xx_hal_jpeg.c ****   /* Reset JpegInCount and JpegOutCount */
 586:./Libraries/STM32H7xx_HAL_Driver/Src/stm32h7xx_hal_jpeg.c ****   hjpeg->JpegInCount = 0;
 228              		.loc 1 586 22
 229 00d2 7B68     		ldr	r3, [r7, #4]
 230 00d4 0022     		movs	r2, #0
 231 00d6 1A62     		str	r2, [r3, #32]
 587:./Libraries/STM32H7xx_HAL_Driver/Src/stm32h7xx_hal_jpeg.c ****   hjpeg->JpegOutCount = 0;
 232              		.loc 1 587 23
 233 00d8 7B68     		ldr	r3, [r7, #4]
 234 00da 0022     		movs	r2, #0
 235 00dc 5A62     		str	r2, [r3, #36]
 588:./Libraries/STM32H7xx_HAL_Driver/Src/stm32h7xx_hal_jpeg.c **** 
 589:./Libraries/STM32H7xx_HAL_Driver/Src/stm32h7xx_hal_jpeg.c ****   /* Change the JPEG state */
 590:./Libraries/STM32H7xx_HAL_Driver/Src/stm32h7xx_hal_jpeg.c ****   hjpeg->State = HAL_JPEG_STATE_READY;
 236              		.loc 1 590 16
 237 00de 7B68     		ldr	r3, [r7, #4]
 238 00e0 0122     		movs	r2, #1
 239 00e2 83F84D20 		strb	r2, [r3, #77]
 591:./Libraries/STM32H7xx_HAL_Driver/Src/stm32h7xx_hal_jpeg.c **** 
 592:./Libraries/STM32H7xx_HAL_Driver/Src/stm32h7xx_hal_jpeg.c ****   /* Reset the JPEG ErrorCode */
 593:./Libraries/STM32H7xx_HAL_Driver/Src/stm32h7xx_hal_jpeg.c ****   hjpeg->ErrorCode = HAL_JPEG_ERROR_NONE;
 240              		.loc 1 593 20
 241 00e6 7B68     		ldr	r3, [r7, #4]
ARM GAS  /tmp/ccXFtjVt.s 			page 17


 242 00e8 0022     		movs	r2, #0
 243 00ea 1A65     		str	r2, [r3, #80]
 594:./Libraries/STM32H7xx_HAL_Driver/Src/stm32h7xx_hal_jpeg.c **** 
 595:./Libraries/STM32H7xx_HAL_Driver/Src/stm32h7xx_hal_jpeg.c ****   /*Clear the context filelds*/
 596:./Libraries/STM32H7xx_HAL_Driver/Src/stm32h7xx_hal_jpeg.c ****   hjpeg->Context = 0;
 244              		.loc 1 596 18
 245 00ec 7B68     		ldr	r3, [r7, #4]
 246 00ee 0022     		movs	r2, #0
 247 00f0 5A65     		str	r2, [r3, #84]
 597:./Libraries/STM32H7xx_HAL_Driver/Src/stm32h7xx_hal_jpeg.c **** 
 598:./Libraries/STM32H7xx_HAL_Driver/Src/stm32h7xx_hal_jpeg.c ****   /* Return function status */
 599:./Libraries/STM32H7xx_HAL_Driver/Src/stm32h7xx_hal_jpeg.c ****   return HAL_OK;
 248              		.loc 1 599 10
 249 00f2 0023     		movs	r3, #0
 250              	.L3:
 600:./Libraries/STM32H7xx_HAL_Driver/Src/stm32h7xx_hal_jpeg.c **** }
 251              		.loc 1 600 1
 252 00f4 1846     		mov	r0, r3
 253 00f6 0837     		adds	r7, r7, #8
 254              	.LCFI3:
 255              		.cfi_def_cfa_offset 8
 256 00f8 BD46     		mov	sp, r7
 257              	.LCFI4:
 258              		.cfi_def_cfa_register 13
 259              		@ sp needed
 260 00fa 80BD     		pop	{r7, pc}
 261              	.L7:
 262              		.align	2
 263              	.L6:
 264 00fc 00000000 		.word	JPEG_LUM_QuantTable.14152
 265 0100 00000000 		.word	JPEG_CHROM_QuantTable.14153
 266              		.cfi_endproc
 267              	.LFE331:
 269              		.section	.text.HAL_JPEG_DeInit,"ax",%progbits
 270              		.align	1
 271              		.global	HAL_JPEG_DeInit
 272              		.syntax unified
 273              		.thumb
 274              		.thumb_func
 275              		.fpu fpv5-d16
 277              	HAL_JPEG_DeInit:
 278              	.LFB332:
 601:./Libraries/STM32H7xx_HAL_Driver/Src/stm32h7xx_hal_jpeg.c **** 
 602:./Libraries/STM32H7xx_HAL_Driver/Src/stm32h7xx_hal_jpeg.c **** /**
 603:./Libraries/STM32H7xx_HAL_Driver/Src/stm32h7xx_hal_jpeg.c ****   * @brief  DeInitializes the JPEG peripheral.
 604:./Libraries/STM32H7xx_HAL_Driver/Src/stm32h7xx_hal_jpeg.c ****   * @param  hjpeg pointer to a JPEG_HandleTypeDef structure that contains
 605:./Libraries/STM32H7xx_HAL_Driver/Src/stm32h7xx_hal_jpeg.c ****   *         the configuration information for JPEG module
 606:./Libraries/STM32H7xx_HAL_Driver/Src/stm32h7xx_hal_jpeg.c ****   * @retval HAL status
 607:./Libraries/STM32H7xx_HAL_Driver/Src/stm32h7xx_hal_jpeg.c ****   */
 608:./Libraries/STM32H7xx_HAL_Driver/Src/stm32h7xx_hal_jpeg.c **** HAL_StatusTypeDef HAL_JPEG_DeInit(JPEG_HandleTypeDef *hjpeg)
 609:./Libraries/STM32H7xx_HAL_Driver/Src/stm32h7xx_hal_jpeg.c **** {
 279              		.loc 1 609 1
 280              		.cfi_startproc
 281              		@ args = 0, pretend = 0, frame = 8
 282              		@ frame_needed = 1, uses_anonymous_args = 0
 283 0000 80B5     		push	{r7, lr}
 284              	.LCFI5:
ARM GAS  /tmp/ccXFtjVt.s 			page 18


 285              		.cfi_def_cfa_offset 8
 286              		.cfi_offset 7, -8
 287              		.cfi_offset 14, -4
 288 0002 82B0     		sub	sp, sp, #8
 289              	.LCFI6:
 290              		.cfi_def_cfa_offset 16
 291 0004 00AF     		add	r7, sp, #0
 292              	.LCFI7:
 293              		.cfi_def_cfa_register 7
 294 0006 7860     		str	r0, [r7, #4]
 610:./Libraries/STM32H7xx_HAL_Driver/Src/stm32h7xx_hal_jpeg.c ****   /* Check the JPEG handle allocation */
 611:./Libraries/STM32H7xx_HAL_Driver/Src/stm32h7xx_hal_jpeg.c ****   if (hjpeg == NULL)
 295              		.loc 1 611 6
 296 0008 7B68     		ldr	r3, [r7, #4]
 297 000a 002B     		cmp	r3, #0
 298 000c 01D1     		bne	.L9
 612:./Libraries/STM32H7xx_HAL_Driver/Src/stm32h7xx_hal_jpeg.c ****   {
 613:./Libraries/STM32H7xx_HAL_Driver/Src/stm32h7xx_hal_jpeg.c ****     return HAL_ERROR;
 299              		.loc 1 613 12
 300 000e 0123     		movs	r3, #1
 301 0010 1BE0     		b	.L10
 302              	.L9:
 614:./Libraries/STM32H7xx_HAL_Driver/Src/stm32h7xx_hal_jpeg.c ****   }
 615:./Libraries/STM32H7xx_HAL_Driver/Src/stm32h7xx_hal_jpeg.c **** 
 616:./Libraries/STM32H7xx_HAL_Driver/Src/stm32h7xx_hal_jpeg.c **** #if (USE_HAL_JPEG_REGISTER_CALLBACKS == 1)
 617:./Libraries/STM32H7xx_HAL_Driver/Src/stm32h7xx_hal_jpeg.c ****   if (hjpeg->MspDeInitCallback == NULL)
 618:./Libraries/STM32H7xx_HAL_Driver/Src/stm32h7xx_hal_jpeg.c ****   {
 619:./Libraries/STM32H7xx_HAL_Driver/Src/stm32h7xx_hal_jpeg.c ****     hjpeg->MspDeInitCallback = HAL_JPEG_MspDeInit; /* Legacy weak MspDeInit  */
 620:./Libraries/STM32H7xx_HAL_Driver/Src/stm32h7xx_hal_jpeg.c ****   }
 621:./Libraries/STM32H7xx_HAL_Driver/Src/stm32h7xx_hal_jpeg.c **** 
 622:./Libraries/STM32H7xx_HAL_Driver/Src/stm32h7xx_hal_jpeg.c ****   /* DeInit the low level hardware */
 623:./Libraries/STM32H7xx_HAL_Driver/Src/stm32h7xx_hal_jpeg.c ****   hjpeg->MspDeInitCallback(hjpeg);
 624:./Libraries/STM32H7xx_HAL_Driver/Src/stm32h7xx_hal_jpeg.c **** 
 625:./Libraries/STM32H7xx_HAL_Driver/Src/stm32h7xx_hal_jpeg.c **** #else
 626:./Libraries/STM32H7xx_HAL_Driver/Src/stm32h7xx_hal_jpeg.c ****   /* DeInit the low level hardware: CLOCK, NVIC.*/
 627:./Libraries/STM32H7xx_HAL_Driver/Src/stm32h7xx_hal_jpeg.c ****   HAL_JPEG_MspDeInit(hjpeg);
 303              		.loc 1 627 3
 304 0012 7868     		ldr	r0, [r7, #4]
 305 0014 FFF7FEFF 		bl	HAL_JPEG_MspDeInit
 628:./Libraries/STM32H7xx_HAL_Driver/Src/stm32h7xx_hal_jpeg.c **** #endif /* USE_HAL_JPEG_REGISTER_CALLBACKS */
 629:./Libraries/STM32H7xx_HAL_Driver/Src/stm32h7xx_hal_jpeg.c **** 
 630:./Libraries/STM32H7xx_HAL_Driver/Src/stm32h7xx_hal_jpeg.c ****   /* Change the JPEG state */
 631:./Libraries/STM32H7xx_HAL_Driver/Src/stm32h7xx_hal_jpeg.c ****   hjpeg->State = HAL_JPEG_STATE_BUSY;
 306              		.loc 1 631 16
 307 0018 7B68     		ldr	r3, [r7, #4]
 308 001a 0222     		movs	r2, #2
 309 001c 83F84D20 		strb	r2, [r3, #77]
 632:./Libraries/STM32H7xx_HAL_Driver/Src/stm32h7xx_hal_jpeg.c **** 
 633:./Libraries/STM32H7xx_HAL_Driver/Src/stm32h7xx_hal_jpeg.c ****   /* Reset the JPEG ErrorCode */
 634:./Libraries/STM32H7xx_HAL_Driver/Src/stm32h7xx_hal_jpeg.c ****   hjpeg->ErrorCode = HAL_JPEG_ERROR_NONE;
 310              		.loc 1 634 20
 311 0020 7B68     		ldr	r3, [r7, #4]
 312 0022 0022     		movs	r2, #0
 313 0024 1A65     		str	r2, [r3, #80]
 635:./Libraries/STM32H7xx_HAL_Driver/Src/stm32h7xx_hal_jpeg.c **** 
 636:./Libraries/STM32H7xx_HAL_Driver/Src/stm32h7xx_hal_jpeg.c ****   /* Reset JpegInCount and JpegOutCount */
 637:./Libraries/STM32H7xx_HAL_Driver/Src/stm32h7xx_hal_jpeg.c ****   hjpeg->JpegInCount = 0;
ARM GAS  /tmp/ccXFtjVt.s 			page 19


 314              		.loc 1 637 22
 315 0026 7B68     		ldr	r3, [r7, #4]
 316 0028 0022     		movs	r2, #0
 317 002a 1A62     		str	r2, [r3, #32]
 638:./Libraries/STM32H7xx_HAL_Driver/Src/stm32h7xx_hal_jpeg.c ****   hjpeg->JpegOutCount = 0;
 318              		.loc 1 638 23
 319 002c 7B68     		ldr	r3, [r7, #4]
 320 002e 0022     		movs	r2, #0
 321 0030 5A62     		str	r2, [r3, #36]
 639:./Libraries/STM32H7xx_HAL_Driver/Src/stm32h7xx_hal_jpeg.c **** 
 640:./Libraries/STM32H7xx_HAL_Driver/Src/stm32h7xx_hal_jpeg.c ****   /* Change the JPEG state */
 641:./Libraries/STM32H7xx_HAL_Driver/Src/stm32h7xx_hal_jpeg.c ****   hjpeg->State = HAL_JPEG_STATE_RESET;
 322              		.loc 1 641 16
 323 0032 7B68     		ldr	r3, [r7, #4]
 324 0034 0022     		movs	r2, #0
 325 0036 83F84D20 		strb	r2, [r3, #77]
 642:./Libraries/STM32H7xx_HAL_Driver/Src/stm32h7xx_hal_jpeg.c **** 
 643:./Libraries/STM32H7xx_HAL_Driver/Src/stm32h7xx_hal_jpeg.c ****   /*Clear the context fields*/
 644:./Libraries/STM32H7xx_HAL_Driver/Src/stm32h7xx_hal_jpeg.c ****   hjpeg->Context = 0;
 326              		.loc 1 644 18
 327 003a 7B68     		ldr	r3, [r7, #4]
 328 003c 0022     		movs	r2, #0
 329 003e 5A65     		str	r2, [r3, #84]
 645:./Libraries/STM32H7xx_HAL_Driver/Src/stm32h7xx_hal_jpeg.c **** 
 646:./Libraries/STM32H7xx_HAL_Driver/Src/stm32h7xx_hal_jpeg.c ****   /* Release Lock */
 647:./Libraries/STM32H7xx_HAL_Driver/Src/stm32h7xx_hal_jpeg.c ****   __HAL_UNLOCK(hjpeg);
 330              		.loc 1 647 3
 331 0040 7B68     		ldr	r3, [r7, #4]
 332 0042 0022     		movs	r2, #0
 333 0044 83F84C20 		strb	r2, [r3, #76]
 648:./Libraries/STM32H7xx_HAL_Driver/Src/stm32h7xx_hal_jpeg.c **** 
 649:./Libraries/STM32H7xx_HAL_Driver/Src/stm32h7xx_hal_jpeg.c ****   /* Return function status */
 650:./Libraries/STM32H7xx_HAL_Driver/Src/stm32h7xx_hal_jpeg.c ****   return HAL_OK;
 334              		.loc 1 650 10
 335 0048 0023     		movs	r3, #0
 336              	.L10:
 651:./Libraries/STM32H7xx_HAL_Driver/Src/stm32h7xx_hal_jpeg.c **** }
 337              		.loc 1 651 1
 338 004a 1846     		mov	r0, r3
 339 004c 0837     		adds	r7, r7, #8
 340              	.LCFI8:
 341              		.cfi_def_cfa_offset 8
 342 004e BD46     		mov	sp, r7
 343              	.LCFI9:
 344              		.cfi_def_cfa_register 13
 345              		@ sp needed
 346 0050 80BD     		pop	{r7, pc}
 347              		.cfi_endproc
 348              	.LFE332:
 350              		.section	.text.HAL_JPEG_MspInit,"ax",%progbits
 351              		.align	1
 352              		.weak	HAL_JPEG_MspInit
 353              		.syntax unified
 354              		.thumb
 355              		.thumb_func
 356              		.fpu fpv5-d16
 358              	HAL_JPEG_MspInit:
ARM GAS  /tmp/ccXFtjVt.s 			page 20


 359              	.LFB333:
 652:./Libraries/STM32H7xx_HAL_Driver/Src/stm32h7xx_hal_jpeg.c **** 
 653:./Libraries/STM32H7xx_HAL_Driver/Src/stm32h7xx_hal_jpeg.c **** /**
 654:./Libraries/STM32H7xx_HAL_Driver/Src/stm32h7xx_hal_jpeg.c ****   * @brief  Initializes the JPEG MSP.
 655:./Libraries/STM32H7xx_HAL_Driver/Src/stm32h7xx_hal_jpeg.c ****   * @param  hjpeg pointer to a JPEG_HandleTypeDef structure that contains
 656:./Libraries/STM32H7xx_HAL_Driver/Src/stm32h7xx_hal_jpeg.c ****   *         the configuration information for JPEG module
 657:./Libraries/STM32H7xx_HAL_Driver/Src/stm32h7xx_hal_jpeg.c ****   * @retval None
 658:./Libraries/STM32H7xx_HAL_Driver/Src/stm32h7xx_hal_jpeg.c ****   */
 659:./Libraries/STM32H7xx_HAL_Driver/Src/stm32h7xx_hal_jpeg.c **** __weak void HAL_JPEG_MspInit(JPEG_HandleTypeDef *hjpeg)
 660:./Libraries/STM32H7xx_HAL_Driver/Src/stm32h7xx_hal_jpeg.c **** {
 360              		.loc 1 660 1
 361              		.cfi_startproc
 362              		@ args = 0, pretend = 0, frame = 8
 363              		@ frame_needed = 1, uses_anonymous_args = 0
 364              		@ link register save eliminated.
 365 0000 80B4     		push	{r7}
 366              	.LCFI10:
 367              		.cfi_def_cfa_offset 4
 368              		.cfi_offset 7, -4
 369 0002 83B0     		sub	sp, sp, #12
 370              	.LCFI11:
 371              		.cfi_def_cfa_offset 16
 372 0004 00AF     		add	r7, sp, #0
 373              	.LCFI12:
 374              		.cfi_def_cfa_register 7
 375 0006 7860     		str	r0, [r7, #4]
 661:./Libraries/STM32H7xx_HAL_Driver/Src/stm32h7xx_hal_jpeg.c ****   /* Prevent unused argument(s) compilation warning */
 662:./Libraries/STM32H7xx_HAL_Driver/Src/stm32h7xx_hal_jpeg.c ****   UNUSED(hjpeg);
 663:./Libraries/STM32H7xx_HAL_Driver/Src/stm32h7xx_hal_jpeg.c **** 
 664:./Libraries/STM32H7xx_HAL_Driver/Src/stm32h7xx_hal_jpeg.c ****   /* NOTE : This function Should not be modified, when the callback is needed,
 665:./Libraries/STM32H7xx_HAL_Driver/Src/stm32h7xx_hal_jpeg.c ****             the HAL_JPEG_MspInit could be implemented in the user file
 666:./Libraries/STM32H7xx_HAL_Driver/Src/stm32h7xx_hal_jpeg.c ****    */
 667:./Libraries/STM32H7xx_HAL_Driver/Src/stm32h7xx_hal_jpeg.c **** }
 376              		.loc 1 667 1
 377 0008 00BF     		nop
 378 000a 0C37     		adds	r7, r7, #12
 379              	.LCFI13:
 380              		.cfi_def_cfa_offset 4
 381 000c BD46     		mov	sp, r7
 382              	.LCFI14:
 383              		.cfi_def_cfa_register 13
 384              		@ sp needed
 385 000e 5DF8047B 		ldr	r7, [sp], #4
 386              	.LCFI15:
 387              		.cfi_restore 7
 388              		.cfi_def_cfa_offset 0
 389 0012 7047     		bx	lr
 390              		.cfi_endproc
 391              	.LFE333:
 393              		.section	.text.HAL_JPEG_MspDeInit,"ax",%progbits
 394              		.align	1
 395              		.weak	HAL_JPEG_MspDeInit
 396              		.syntax unified
 397              		.thumb
 398              		.thumb_func
 399              		.fpu fpv5-d16
 401              	HAL_JPEG_MspDeInit:
ARM GAS  /tmp/ccXFtjVt.s 			page 21


 402              	.LFB334:
 668:./Libraries/STM32H7xx_HAL_Driver/Src/stm32h7xx_hal_jpeg.c **** 
 669:./Libraries/STM32H7xx_HAL_Driver/Src/stm32h7xx_hal_jpeg.c **** /**
 670:./Libraries/STM32H7xx_HAL_Driver/Src/stm32h7xx_hal_jpeg.c ****   * @brief  DeInitializes JPEG MSP.
 671:./Libraries/STM32H7xx_HAL_Driver/Src/stm32h7xx_hal_jpeg.c ****   * @param  hjpeg pointer to a JPEG_HandleTypeDef structure that contains
 672:./Libraries/STM32H7xx_HAL_Driver/Src/stm32h7xx_hal_jpeg.c ****   *         the configuration information for JPEG module
 673:./Libraries/STM32H7xx_HAL_Driver/Src/stm32h7xx_hal_jpeg.c ****   * @retval None
 674:./Libraries/STM32H7xx_HAL_Driver/Src/stm32h7xx_hal_jpeg.c ****   */
 675:./Libraries/STM32H7xx_HAL_Driver/Src/stm32h7xx_hal_jpeg.c **** __weak void HAL_JPEG_MspDeInit(JPEG_HandleTypeDef *hjpeg)
 676:./Libraries/STM32H7xx_HAL_Driver/Src/stm32h7xx_hal_jpeg.c **** {
 403              		.loc 1 676 1
 404              		.cfi_startproc
 405              		@ args = 0, pretend = 0, frame = 8
 406              		@ frame_needed = 1, uses_anonymous_args = 0
 407              		@ link register save eliminated.
 408 0000 80B4     		push	{r7}
 409              	.LCFI16:
 410              		.cfi_def_cfa_offset 4
 411              		.cfi_offset 7, -4
 412 0002 83B0     		sub	sp, sp, #12
 413              	.LCFI17:
 414              		.cfi_def_cfa_offset 16
 415 0004 00AF     		add	r7, sp, #0
 416              	.LCFI18:
 417              		.cfi_def_cfa_register 7
 418 0006 7860     		str	r0, [r7, #4]
 677:./Libraries/STM32H7xx_HAL_Driver/Src/stm32h7xx_hal_jpeg.c ****   /* Prevent unused argument(s) compilation warning */
 678:./Libraries/STM32H7xx_HAL_Driver/Src/stm32h7xx_hal_jpeg.c ****   UNUSED(hjpeg);
 679:./Libraries/STM32H7xx_HAL_Driver/Src/stm32h7xx_hal_jpeg.c **** 
 680:./Libraries/STM32H7xx_HAL_Driver/Src/stm32h7xx_hal_jpeg.c ****   /* NOTE : This function Should not be modified, when the callback is needed,
 681:./Libraries/STM32H7xx_HAL_Driver/Src/stm32h7xx_hal_jpeg.c ****             the HAL_JPEG_MspDeInit could be implemented in the user file
 682:./Libraries/STM32H7xx_HAL_Driver/Src/stm32h7xx_hal_jpeg.c ****    */
 683:./Libraries/STM32H7xx_HAL_Driver/Src/stm32h7xx_hal_jpeg.c **** }
 419              		.loc 1 683 1
 420 0008 00BF     		nop
 421 000a 0C37     		adds	r7, r7, #12
 422              	.LCFI19:
 423              		.cfi_def_cfa_offset 4
 424 000c BD46     		mov	sp, r7
 425              	.LCFI20:
 426              		.cfi_def_cfa_register 13
 427              		@ sp needed
 428 000e 5DF8047B 		ldr	r7, [sp], #4
 429              	.LCFI21:
 430              		.cfi_restore 7
 431              		.cfi_def_cfa_offset 0
 432 0012 7047     		bx	lr
 433              		.cfi_endproc
 434              	.LFE334:
 436              		.section	.text.HAL_JPEG_ConfigEncoding,"ax",%progbits
 437              		.align	1
 438              		.global	HAL_JPEG_ConfigEncoding
 439              		.syntax unified
 440              		.thumb
 441              		.thumb_func
 442              		.fpu fpv5-d16
 444              	HAL_JPEG_ConfigEncoding:
ARM GAS  /tmp/ccXFtjVt.s 			page 22


 445              	.LFB335:
 684:./Libraries/STM32H7xx_HAL_Driver/Src/stm32h7xx_hal_jpeg.c **** 
 685:./Libraries/STM32H7xx_HAL_Driver/Src/stm32h7xx_hal_jpeg.c **** #if (USE_HAL_JPEG_REGISTER_CALLBACKS == 1)
 686:./Libraries/STM32H7xx_HAL_Driver/Src/stm32h7xx_hal_jpeg.c **** /**
 687:./Libraries/STM32H7xx_HAL_Driver/Src/stm32h7xx_hal_jpeg.c ****   * @brief  Register a User JPEG Callback
 688:./Libraries/STM32H7xx_HAL_Driver/Src/stm32h7xx_hal_jpeg.c ****   *         To be used instead of the weak predefined callback
 689:./Libraries/STM32H7xx_HAL_Driver/Src/stm32h7xx_hal_jpeg.c ****   * @param  hjpeg JPEG handle
 690:./Libraries/STM32H7xx_HAL_Driver/Src/stm32h7xx_hal_jpeg.c ****   * @param  CallbackID ID of the callback to be registered
 691:./Libraries/STM32H7xx_HAL_Driver/Src/stm32h7xx_hal_jpeg.c ****   *         This parameter can be one of the following values:
 692:./Libraries/STM32H7xx_HAL_Driver/Src/stm32h7xx_hal_jpeg.c ****   *          @arg @ref HAL_JPEG_ENCODE_CPLT_CB_ID Encode Complete callback ID
 693:./Libraries/STM32H7xx_HAL_Driver/Src/stm32h7xx_hal_jpeg.c ****   *          @arg @ref HAL_JPEG_DECODE_CPLT_CB_ID Decode Complete callback ID
 694:./Libraries/STM32H7xx_HAL_Driver/Src/stm32h7xx_hal_jpeg.c ****   *          @arg @ref HAL_JPEG_ERROR_CB_ID Error callback ID
 695:./Libraries/STM32H7xx_HAL_Driver/Src/stm32h7xx_hal_jpeg.c ****   *          @arg @ref HAL_JPEG_MSPINIT_CB_ID MspInit callback ID
 696:./Libraries/STM32H7xx_HAL_Driver/Src/stm32h7xx_hal_jpeg.c ****   *          @arg @ref HAL_JPEG_MSPDEINIT_CB_ID MspDeInit callback ID
 697:./Libraries/STM32H7xx_HAL_Driver/Src/stm32h7xx_hal_jpeg.c ****   * @param  pCallback pointer to the Callback function
 698:./Libraries/STM32H7xx_HAL_Driver/Src/stm32h7xx_hal_jpeg.c ****   * @retval HAL status
 699:./Libraries/STM32H7xx_HAL_Driver/Src/stm32h7xx_hal_jpeg.c ****   */
 700:./Libraries/STM32H7xx_HAL_Driver/Src/stm32h7xx_hal_jpeg.c **** HAL_StatusTypeDef HAL_JPEG_RegisterCallback(JPEG_HandleTypeDef *hjpeg, HAL_JPEG_CallbackIDTypeDef C
 701:./Libraries/STM32H7xx_HAL_Driver/Src/stm32h7xx_hal_jpeg.c ****                                             pJPEG_CallbackTypeDef pCallback)
 702:./Libraries/STM32H7xx_HAL_Driver/Src/stm32h7xx_hal_jpeg.c **** {
 703:./Libraries/STM32H7xx_HAL_Driver/Src/stm32h7xx_hal_jpeg.c ****   HAL_StatusTypeDef status = HAL_OK;
 704:./Libraries/STM32H7xx_HAL_Driver/Src/stm32h7xx_hal_jpeg.c **** 
 705:./Libraries/STM32H7xx_HAL_Driver/Src/stm32h7xx_hal_jpeg.c ****   if (pCallback == NULL)
 706:./Libraries/STM32H7xx_HAL_Driver/Src/stm32h7xx_hal_jpeg.c ****   {
 707:./Libraries/STM32H7xx_HAL_Driver/Src/stm32h7xx_hal_jpeg.c ****     /* Update the error code */
 708:./Libraries/STM32H7xx_HAL_Driver/Src/stm32h7xx_hal_jpeg.c ****     hjpeg->ErrorCode |= HAL_JPEG_ERROR_INVALID_CALLBACK;
 709:./Libraries/STM32H7xx_HAL_Driver/Src/stm32h7xx_hal_jpeg.c ****     return HAL_ERROR;
 710:./Libraries/STM32H7xx_HAL_Driver/Src/stm32h7xx_hal_jpeg.c ****   }
 711:./Libraries/STM32H7xx_HAL_Driver/Src/stm32h7xx_hal_jpeg.c ****   /* Process locked */
 712:./Libraries/STM32H7xx_HAL_Driver/Src/stm32h7xx_hal_jpeg.c ****   __HAL_LOCK(hjpeg);
 713:./Libraries/STM32H7xx_HAL_Driver/Src/stm32h7xx_hal_jpeg.c **** 
 714:./Libraries/STM32H7xx_HAL_Driver/Src/stm32h7xx_hal_jpeg.c ****   if (HAL_JPEG_STATE_READY == hjpeg->State)
 715:./Libraries/STM32H7xx_HAL_Driver/Src/stm32h7xx_hal_jpeg.c ****   {
 716:./Libraries/STM32H7xx_HAL_Driver/Src/stm32h7xx_hal_jpeg.c ****     switch (CallbackID)
 717:./Libraries/STM32H7xx_HAL_Driver/Src/stm32h7xx_hal_jpeg.c ****     {
 718:./Libraries/STM32H7xx_HAL_Driver/Src/stm32h7xx_hal_jpeg.c ****       case HAL_JPEG_ENCODE_CPLT_CB_ID :
 719:./Libraries/STM32H7xx_HAL_Driver/Src/stm32h7xx_hal_jpeg.c ****         hjpeg->EncodeCpltCallback = pCallback;
 720:./Libraries/STM32H7xx_HAL_Driver/Src/stm32h7xx_hal_jpeg.c ****         break;
 721:./Libraries/STM32H7xx_HAL_Driver/Src/stm32h7xx_hal_jpeg.c **** 
 722:./Libraries/STM32H7xx_HAL_Driver/Src/stm32h7xx_hal_jpeg.c ****       case HAL_JPEG_DECODE_CPLT_CB_ID :
 723:./Libraries/STM32H7xx_HAL_Driver/Src/stm32h7xx_hal_jpeg.c ****         hjpeg->DecodeCpltCallback = pCallback;
 724:./Libraries/STM32H7xx_HAL_Driver/Src/stm32h7xx_hal_jpeg.c ****         break;
 725:./Libraries/STM32H7xx_HAL_Driver/Src/stm32h7xx_hal_jpeg.c **** 
 726:./Libraries/STM32H7xx_HAL_Driver/Src/stm32h7xx_hal_jpeg.c ****       case HAL_JPEG_ERROR_CB_ID :
 727:./Libraries/STM32H7xx_HAL_Driver/Src/stm32h7xx_hal_jpeg.c ****         hjpeg->ErrorCallback = pCallback;
 728:./Libraries/STM32H7xx_HAL_Driver/Src/stm32h7xx_hal_jpeg.c ****         break;
 729:./Libraries/STM32H7xx_HAL_Driver/Src/stm32h7xx_hal_jpeg.c **** 
 730:./Libraries/STM32H7xx_HAL_Driver/Src/stm32h7xx_hal_jpeg.c ****       case HAL_JPEG_MSPINIT_CB_ID :
 731:./Libraries/STM32H7xx_HAL_Driver/Src/stm32h7xx_hal_jpeg.c ****         hjpeg->MspInitCallback = pCallback;
 732:./Libraries/STM32H7xx_HAL_Driver/Src/stm32h7xx_hal_jpeg.c ****         break;
 733:./Libraries/STM32H7xx_HAL_Driver/Src/stm32h7xx_hal_jpeg.c **** 
 734:./Libraries/STM32H7xx_HAL_Driver/Src/stm32h7xx_hal_jpeg.c ****       case HAL_JPEG_MSPDEINIT_CB_ID :
 735:./Libraries/STM32H7xx_HAL_Driver/Src/stm32h7xx_hal_jpeg.c ****         hjpeg->MspDeInitCallback = pCallback;
 736:./Libraries/STM32H7xx_HAL_Driver/Src/stm32h7xx_hal_jpeg.c ****         break;
 737:./Libraries/STM32H7xx_HAL_Driver/Src/stm32h7xx_hal_jpeg.c **** 
 738:./Libraries/STM32H7xx_HAL_Driver/Src/stm32h7xx_hal_jpeg.c ****       default :
 739:./Libraries/STM32H7xx_HAL_Driver/Src/stm32h7xx_hal_jpeg.c ****         /* Update the error code */
ARM GAS  /tmp/ccXFtjVt.s 			page 23


 740:./Libraries/STM32H7xx_HAL_Driver/Src/stm32h7xx_hal_jpeg.c ****         hjpeg->ErrorCode |= HAL_JPEG_ERROR_INVALID_CALLBACK;
 741:./Libraries/STM32H7xx_HAL_Driver/Src/stm32h7xx_hal_jpeg.c ****         /* Return error status */
 742:./Libraries/STM32H7xx_HAL_Driver/Src/stm32h7xx_hal_jpeg.c ****         status =  HAL_ERROR;
 743:./Libraries/STM32H7xx_HAL_Driver/Src/stm32h7xx_hal_jpeg.c ****         break;
 744:./Libraries/STM32H7xx_HAL_Driver/Src/stm32h7xx_hal_jpeg.c ****     }
 745:./Libraries/STM32H7xx_HAL_Driver/Src/stm32h7xx_hal_jpeg.c ****   }
 746:./Libraries/STM32H7xx_HAL_Driver/Src/stm32h7xx_hal_jpeg.c ****   else if (HAL_JPEG_STATE_RESET == hjpeg->State)
 747:./Libraries/STM32H7xx_HAL_Driver/Src/stm32h7xx_hal_jpeg.c ****   {
 748:./Libraries/STM32H7xx_HAL_Driver/Src/stm32h7xx_hal_jpeg.c ****     switch (CallbackID)
 749:./Libraries/STM32H7xx_HAL_Driver/Src/stm32h7xx_hal_jpeg.c ****     {
 750:./Libraries/STM32H7xx_HAL_Driver/Src/stm32h7xx_hal_jpeg.c ****       case HAL_JPEG_MSPINIT_CB_ID :
 751:./Libraries/STM32H7xx_HAL_Driver/Src/stm32h7xx_hal_jpeg.c ****         hjpeg->MspInitCallback = pCallback;
 752:./Libraries/STM32H7xx_HAL_Driver/Src/stm32h7xx_hal_jpeg.c ****         break;
 753:./Libraries/STM32H7xx_HAL_Driver/Src/stm32h7xx_hal_jpeg.c **** 
 754:./Libraries/STM32H7xx_HAL_Driver/Src/stm32h7xx_hal_jpeg.c ****       case HAL_JPEG_MSPDEINIT_CB_ID :
 755:./Libraries/STM32H7xx_HAL_Driver/Src/stm32h7xx_hal_jpeg.c ****         hjpeg->MspDeInitCallback = pCallback;
 756:./Libraries/STM32H7xx_HAL_Driver/Src/stm32h7xx_hal_jpeg.c ****         break;
 757:./Libraries/STM32H7xx_HAL_Driver/Src/stm32h7xx_hal_jpeg.c **** 
 758:./Libraries/STM32H7xx_HAL_Driver/Src/stm32h7xx_hal_jpeg.c ****       default :
 759:./Libraries/STM32H7xx_HAL_Driver/Src/stm32h7xx_hal_jpeg.c ****         /* Update the error code */
 760:./Libraries/STM32H7xx_HAL_Driver/Src/stm32h7xx_hal_jpeg.c ****         hjpeg->ErrorCode |= HAL_JPEG_ERROR_INVALID_CALLBACK;
 761:./Libraries/STM32H7xx_HAL_Driver/Src/stm32h7xx_hal_jpeg.c ****         /* Return error status */
 762:./Libraries/STM32H7xx_HAL_Driver/Src/stm32h7xx_hal_jpeg.c ****         status =  HAL_ERROR;
 763:./Libraries/STM32H7xx_HAL_Driver/Src/stm32h7xx_hal_jpeg.c ****         break;
 764:./Libraries/STM32H7xx_HAL_Driver/Src/stm32h7xx_hal_jpeg.c ****     }
 765:./Libraries/STM32H7xx_HAL_Driver/Src/stm32h7xx_hal_jpeg.c ****   }
 766:./Libraries/STM32H7xx_HAL_Driver/Src/stm32h7xx_hal_jpeg.c ****   else
 767:./Libraries/STM32H7xx_HAL_Driver/Src/stm32h7xx_hal_jpeg.c ****   {
 768:./Libraries/STM32H7xx_HAL_Driver/Src/stm32h7xx_hal_jpeg.c ****     /* Update the error code */
 769:./Libraries/STM32H7xx_HAL_Driver/Src/stm32h7xx_hal_jpeg.c ****     hjpeg->ErrorCode |= HAL_JPEG_ERROR_INVALID_CALLBACK;
 770:./Libraries/STM32H7xx_HAL_Driver/Src/stm32h7xx_hal_jpeg.c ****     /* Return error status */
 771:./Libraries/STM32H7xx_HAL_Driver/Src/stm32h7xx_hal_jpeg.c ****     status =  HAL_ERROR;
 772:./Libraries/STM32H7xx_HAL_Driver/Src/stm32h7xx_hal_jpeg.c ****   }
 773:./Libraries/STM32H7xx_HAL_Driver/Src/stm32h7xx_hal_jpeg.c **** 
 774:./Libraries/STM32H7xx_HAL_Driver/Src/stm32h7xx_hal_jpeg.c ****   /* Release Lock */
 775:./Libraries/STM32H7xx_HAL_Driver/Src/stm32h7xx_hal_jpeg.c ****   __HAL_UNLOCK(hjpeg);
 776:./Libraries/STM32H7xx_HAL_Driver/Src/stm32h7xx_hal_jpeg.c ****   return status;
 777:./Libraries/STM32H7xx_HAL_Driver/Src/stm32h7xx_hal_jpeg.c **** }
 778:./Libraries/STM32H7xx_HAL_Driver/Src/stm32h7xx_hal_jpeg.c **** 
 779:./Libraries/STM32H7xx_HAL_Driver/Src/stm32h7xx_hal_jpeg.c **** /**
 780:./Libraries/STM32H7xx_HAL_Driver/Src/stm32h7xx_hal_jpeg.c ****   * @brief  Unregister a JPEG Callback
 781:./Libraries/STM32H7xx_HAL_Driver/Src/stm32h7xx_hal_jpeg.c ****   *         JPEG callabck is redirected to the weak predefined callback
 782:./Libraries/STM32H7xx_HAL_Driver/Src/stm32h7xx_hal_jpeg.c ****   * @param  hjpeg JPEG handle
 783:./Libraries/STM32H7xx_HAL_Driver/Src/stm32h7xx_hal_jpeg.c ****   * @param  CallbackID ID of the callback to be unregistered
 784:./Libraries/STM32H7xx_HAL_Driver/Src/stm32h7xx_hal_jpeg.c ****   *         This parameter can be one of the following values:
 785:./Libraries/STM32H7xx_HAL_Driver/Src/stm32h7xx_hal_jpeg.c ****   *         This parameter can be one of the following values:
 786:./Libraries/STM32H7xx_HAL_Driver/Src/stm32h7xx_hal_jpeg.c ****   *          @arg @ref HAL_JPEG_ENCODE_CPLT_CB_ID Encode Complete callback ID
 787:./Libraries/STM32H7xx_HAL_Driver/Src/stm32h7xx_hal_jpeg.c ****   *          @arg @ref HAL_JPEG_DECODE_CPLT_CB_ID Decode Complete callback ID
 788:./Libraries/STM32H7xx_HAL_Driver/Src/stm32h7xx_hal_jpeg.c ****   *          @arg @ref HAL_JPEG_ERROR_CB_ID Error callback ID
 789:./Libraries/STM32H7xx_HAL_Driver/Src/stm32h7xx_hal_jpeg.c ****   *          @arg @ref HAL_JPEG_MSPINIT_CB_ID MspInit callback ID
 790:./Libraries/STM32H7xx_HAL_Driver/Src/stm32h7xx_hal_jpeg.c ****   *          @arg @ref HAL_JPEG_MSPDEINIT_CB_ID MspDeInit callback ID
 791:./Libraries/STM32H7xx_HAL_Driver/Src/stm32h7xx_hal_jpeg.c ****   * @retval HAL status
 792:./Libraries/STM32H7xx_HAL_Driver/Src/stm32h7xx_hal_jpeg.c ****   */
 793:./Libraries/STM32H7xx_HAL_Driver/Src/stm32h7xx_hal_jpeg.c **** HAL_StatusTypeDef HAL_JPEG_UnRegisterCallback(JPEG_HandleTypeDef *hjpeg, HAL_JPEG_CallbackIDTypeDef
 794:./Libraries/STM32H7xx_HAL_Driver/Src/stm32h7xx_hal_jpeg.c **** {
 795:./Libraries/STM32H7xx_HAL_Driver/Src/stm32h7xx_hal_jpeg.c ****   HAL_StatusTypeDef status = HAL_OK;
 796:./Libraries/STM32H7xx_HAL_Driver/Src/stm32h7xx_hal_jpeg.c **** 
ARM GAS  /tmp/ccXFtjVt.s 			page 24


 797:./Libraries/STM32H7xx_HAL_Driver/Src/stm32h7xx_hal_jpeg.c ****   /* Process locked */
 798:./Libraries/STM32H7xx_HAL_Driver/Src/stm32h7xx_hal_jpeg.c ****   __HAL_LOCK(hjpeg);
 799:./Libraries/STM32H7xx_HAL_Driver/Src/stm32h7xx_hal_jpeg.c **** 
 800:./Libraries/STM32H7xx_HAL_Driver/Src/stm32h7xx_hal_jpeg.c ****   if (HAL_JPEG_STATE_READY == hjpeg->State)
 801:./Libraries/STM32H7xx_HAL_Driver/Src/stm32h7xx_hal_jpeg.c ****   {
 802:./Libraries/STM32H7xx_HAL_Driver/Src/stm32h7xx_hal_jpeg.c ****     switch (CallbackID)
 803:./Libraries/STM32H7xx_HAL_Driver/Src/stm32h7xx_hal_jpeg.c ****     {
 804:./Libraries/STM32H7xx_HAL_Driver/Src/stm32h7xx_hal_jpeg.c ****       case HAL_JPEG_ENCODE_CPLT_CB_ID :
 805:./Libraries/STM32H7xx_HAL_Driver/Src/stm32h7xx_hal_jpeg.c ****         hjpeg->EncodeCpltCallback = HAL_JPEG_EncodeCpltCallback; /* Legacy weak EncodeCpltCallback 
 806:./Libraries/STM32H7xx_HAL_Driver/Src/stm32h7xx_hal_jpeg.c ****         break;
 807:./Libraries/STM32H7xx_HAL_Driver/Src/stm32h7xx_hal_jpeg.c **** 
 808:./Libraries/STM32H7xx_HAL_Driver/Src/stm32h7xx_hal_jpeg.c ****       case HAL_JPEG_DECODE_CPLT_CB_ID :
 809:./Libraries/STM32H7xx_HAL_Driver/Src/stm32h7xx_hal_jpeg.c ****         hjpeg->DecodeCpltCallback = HAL_JPEG_DecodeCpltCallback; /* Legacy weak DecodeCpltCallback 
 810:./Libraries/STM32H7xx_HAL_Driver/Src/stm32h7xx_hal_jpeg.c ****         break;
 811:./Libraries/STM32H7xx_HAL_Driver/Src/stm32h7xx_hal_jpeg.c **** 
 812:./Libraries/STM32H7xx_HAL_Driver/Src/stm32h7xx_hal_jpeg.c ****       case HAL_JPEG_ERROR_CB_ID :
 813:./Libraries/STM32H7xx_HAL_Driver/Src/stm32h7xx_hal_jpeg.c ****         hjpeg->ErrorCallback = HAL_JPEG_ErrorCallback;           /* Legacy weak ErrorCallback  */
 814:./Libraries/STM32H7xx_HAL_Driver/Src/stm32h7xx_hal_jpeg.c ****         break;
 815:./Libraries/STM32H7xx_HAL_Driver/Src/stm32h7xx_hal_jpeg.c **** 
 816:./Libraries/STM32H7xx_HAL_Driver/Src/stm32h7xx_hal_jpeg.c ****       case HAL_JPEG_MSPINIT_CB_ID :
 817:./Libraries/STM32H7xx_HAL_Driver/Src/stm32h7xx_hal_jpeg.c ****         hjpeg->MspInitCallback = HAL_JPEG_MspInit;              /* Legacy weak MspInit  */
 818:./Libraries/STM32H7xx_HAL_Driver/Src/stm32h7xx_hal_jpeg.c ****         break;
 819:./Libraries/STM32H7xx_HAL_Driver/Src/stm32h7xx_hal_jpeg.c **** 
 820:./Libraries/STM32H7xx_HAL_Driver/Src/stm32h7xx_hal_jpeg.c ****       case HAL_JPEG_MSPDEINIT_CB_ID :
 821:./Libraries/STM32H7xx_HAL_Driver/Src/stm32h7xx_hal_jpeg.c ****         hjpeg->MspDeInitCallback = HAL_JPEG_MspDeInit;          /* Legacy weak MspDeInit  */
 822:./Libraries/STM32H7xx_HAL_Driver/Src/stm32h7xx_hal_jpeg.c ****         break;
 823:./Libraries/STM32H7xx_HAL_Driver/Src/stm32h7xx_hal_jpeg.c **** 
 824:./Libraries/STM32H7xx_HAL_Driver/Src/stm32h7xx_hal_jpeg.c ****       default :
 825:./Libraries/STM32H7xx_HAL_Driver/Src/stm32h7xx_hal_jpeg.c ****         /* Update the error code */
 826:./Libraries/STM32H7xx_HAL_Driver/Src/stm32h7xx_hal_jpeg.c ****         hjpeg->ErrorCode |= HAL_JPEG_ERROR_INVALID_CALLBACK;
 827:./Libraries/STM32H7xx_HAL_Driver/Src/stm32h7xx_hal_jpeg.c ****         /* Return error status */
 828:./Libraries/STM32H7xx_HAL_Driver/Src/stm32h7xx_hal_jpeg.c ****         status =  HAL_ERROR;
 829:./Libraries/STM32H7xx_HAL_Driver/Src/stm32h7xx_hal_jpeg.c ****         break;
 830:./Libraries/STM32H7xx_HAL_Driver/Src/stm32h7xx_hal_jpeg.c ****     }
 831:./Libraries/STM32H7xx_HAL_Driver/Src/stm32h7xx_hal_jpeg.c ****   }
 832:./Libraries/STM32H7xx_HAL_Driver/Src/stm32h7xx_hal_jpeg.c ****   else if (HAL_JPEG_STATE_RESET == hjpeg->State)
 833:./Libraries/STM32H7xx_HAL_Driver/Src/stm32h7xx_hal_jpeg.c ****   {
 834:./Libraries/STM32H7xx_HAL_Driver/Src/stm32h7xx_hal_jpeg.c ****     switch (CallbackID)
 835:./Libraries/STM32H7xx_HAL_Driver/Src/stm32h7xx_hal_jpeg.c ****     {
 836:./Libraries/STM32H7xx_HAL_Driver/Src/stm32h7xx_hal_jpeg.c ****       case HAL_JPEG_MSPINIT_CB_ID :
 837:./Libraries/STM32H7xx_HAL_Driver/Src/stm32h7xx_hal_jpeg.c ****         hjpeg->MspInitCallback = HAL_JPEG_MspInit;           /* Legacy weak MspInit  */
 838:./Libraries/STM32H7xx_HAL_Driver/Src/stm32h7xx_hal_jpeg.c ****         break;
 839:./Libraries/STM32H7xx_HAL_Driver/Src/stm32h7xx_hal_jpeg.c **** 
 840:./Libraries/STM32H7xx_HAL_Driver/Src/stm32h7xx_hal_jpeg.c ****       case HAL_JPEG_MSPDEINIT_CB_ID :
 841:./Libraries/STM32H7xx_HAL_Driver/Src/stm32h7xx_hal_jpeg.c ****         hjpeg->MspDeInitCallback = HAL_JPEG_MspDeInit;       /* Legacy weak MspInit  */
 842:./Libraries/STM32H7xx_HAL_Driver/Src/stm32h7xx_hal_jpeg.c ****         break;
 843:./Libraries/STM32H7xx_HAL_Driver/Src/stm32h7xx_hal_jpeg.c **** 
 844:./Libraries/STM32H7xx_HAL_Driver/Src/stm32h7xx_hal_jpeg.c ****       default :
 845:./Libraries/STM32H7xx_HAL_Driver/Src/stm32h7xx_hal_jpeg.c ****         /* Update the error code */
 846:./Libraries/STM32H7xx_HAL_Driver/Src/stm32h7xx_hal_jpeg.c ****         hjpeg->ErrorCode |= HAL_JPEG_ERROR_INVALID_CALLBACK;
 847:./Libraries/STM32H7xx_HAL_Driver/Src/stm32h7xx_hal_jpeg.c ****         /* Return error status */
 848:./Libraries/STM32H7xx_HAL_Driver/Src/stm32h7xx_hal_jpeg.c ****         status =  HAL_ERROR;
 849:./Libraries/STM32H7xx_HAL_Driver/Src/stm32h7xx_hal_jpeg.c ****         break;
 850:./Libraries/STM32H7xx_HAL_Driver/Src/stm32h7xx_hal_jpeg.c ****     }
 851:./Libraries/STM32H7xx_HAL_Driver/Src/stm32h7xx_hal_jpeg.c ****   }
 852:./Libraries/STM32H7xx_HAL_Driver/Src/stm32h7xx_hal_jpeg.c ****   else
 853:./Libraries/STM32H7xx_HAL_Driver/Src/stm32h7xx_hal_jpeg.c ****   {
ARM GAS  /tmp/ccXFtjVt.s 			page 25


 854:./Libraries/STM32H7xx_HAL_Driver/Src/stm32h7xx_hal_jpeg.c ****     /* Update the error code */
 855:./Libraries/STM32H7xx_HAL_Driver/Src/stm32h7xx_hal_jpeg.c ****     hjpeg->ErrorCode |= HAL_JPEG_ERROR_INVALID_CALLBACK;
 856:./Libraries/STM32H7xx_HAL_Driver/Src/stm32h7xx_hal_jpeg.c ****     /* Return error status */
 857:./Libraries/STM32H7xx_HAL_Driver/Src/stm32h7xx_hal_jpeg.c ****     status =  HAL_ERROR;
 858:./Libraries/STM32H7xx_HAL_Driver/Src/stm32h7xx_hal_jpeg.c ****   }
 859:./Libraries/STM32H7xx_HAL_Driver/Src/stm32h7xx_hal_jpeg.c **** 
 860:./Libraries/STM32H7xx_HAL_Driver/Src/stm32h7xx_hal_jpeg.c ****   /* Release Lock */
 861:./Libraries/STM32H7xx_HAL_Driver/Src/stm32h7xx_hal_jpeg.c ****   __HAL_UNLOCK(hjpeg);
 862:./Libraries/STM32H7xx_HAL_Driver/Src/stm32h7xx_hal_jpeg.c ****   return status;
 863:./Libraries/STM32H7xx_HAL_Driver/Src/stm32h7xx_hal_jpeg.c **** }
 864:./Libraries/STM32H7xx_HAL_Driver/Src/stm32h7xx_hal_jpeg.c **** 
 865:./Libraries/STM32H7xx_HAL_Driver/Src/stm32h7xx_hal_jpeg.c **** /**
 866:./Libraries/STM32H7xx_HAL_Driver/Src/stm32h7xx_hal_jpeg.c ****   * @brief  Register Info Ready JPEG Callback
 867:./Libraries/STM32H7xx_HAL_Driver/Src/stm32h7xx_hal_jpeg.c ****   *         To be used instead of the weak HAL_JPEG_InfoReadyCallback() predefined callback
 868:./Libraries/STM32H7xx_HAL_Driver/Src/stm32h7xx_hal_jpeg.c ****   * @param  hjpeg JPEG handle
 869:./Libraries/STM32H7xx_HAL_Driver/Src/stm32h7xx_hal_jpeg.c ****   * @param  pCallback pointer to the Info Ready Callback function
 870:./Libraries/STM32H7xx_HAL_Driver/Src/stm32h7xx_hal_jpeg.c ****   * @retval HAL status
 871:./Libraries/STM32H7xx_HAL_Driver/Src/stm32h7xx_hal_jpeg.c ****   */
 872:./Libraries/STM32H7xx_HAL_Driver/Src/stm32h7xx_hal_jpeg.c **** HAL_StatusTypeDef HAL_JPEG_RegisterInfoReadyCallback(JPEG_HandleTypeDef *hjpeg,
 873:./Libraries/STM32H7xx_HAL_Driver/Src/stm32h7xx_hal_jpeg.c ****                                                      pJPEG_InfoReadyCallbackTypeDef pCallback)
 874:./Libraries/STM32H7xx_HAL_Driver/Src/stm32h7xx_hal_jpeg.c **** {
 875:./Libraries/STM32H7xx_HAL_Driver/Src/stm32h7xx_hal_jpeg.c ****   HAL_StatusTypeDef status = HAL_OK;
 876:./Libraries/STM32H7xx_HAL_Driver/Src/stm32h7xx_hal_jpeg.c **** 
 877:./Libraries/STM32H7xx_HAL_Driver/Src/stm32h7xx_hal_jpeg.c ****   if (pCallback == NULL)
 878:./Libraries/STM32H7xx_HAL_Driver/Src/stm32h7xx_hal_jpeg.c ****   {
 879:./Libraries/STM32H7xx_HAL_Driver/Src/stm32h7xx_hal_jpeg.c ****     /* Update the error code */
 880:./Libraries/STM32H7xx_HAL_Driver/Src/stm32h7xx_hal_jpeg.c ****     hjpeg->ErrorCode |= HAL_JPEG_ERROR_INVALID_CALLBACK;
 881:./Libraries/STM32H7xx_HAL_Driver/Src/stm32h7xx_hal_jpeg.c ****     return HAL_ERROR;
 882:./Libraries/STM32H7xx_HAL_Driver/Src/stm32h7xx_hal_jpeg.c ****   }
 883:./Libraries/STM32H7xx_HAL_Driver/Src/stm32h7xx_hal_jpeg.c ****   /* Process locked */
 884:./Libraries/STM32H7xx_HAL_Driver/Src/stm32h7xx_hal_jpeg.c ****   __HAL_LOCK(hjpeg);
 885:./Libraries/STM32H7xx_HAL_Driver/Src/stm32h7xx_hal_jpeg.c **** 
 886:./Libraries/STM32H7xx_HAL_Driver/Src/stm32h7xx_hal_jpeg.c ****   if (HAL_JPEG_STATE_READY == hjpeg->State)
 887:./Libraries/STM32H7xx_HAL_Driver/Src/stm32h7xx_hal_jpeg.c ****   {
 888:./Libraries/STM32H7xx_HAL_Driver/Src/stm32h7xx_hal_jpeg.c ****     hjpeg->InfoReadyCallback = pCallback;
 889:./Libraries/STM32H7xx_HAL_Driver/Src/stm32h7xx_hal_jpeg.c ****   }
 890:./Libraries/STM32H7xx_HAL_Driver/Src/stm32h7xx_hal_jpeg.c ****   else
 891:./Libraries/STM32H7xx_HAL_Driver/Src/stm32h7xx_hal_jpeg.c ****   {
 892:./Libraries/STM32H7xx_HAL_Driver/Src/stm32h7xx_hal_jpeg.c ****     /* Update the error code */
 893:./Libraries/STM32H7xx_HAL_Driver/Src/stm32h7xx_hal_jpeg.c ****     hjpeg->ErrorCode |= HAL_JPEG_ERROR_INVALID_CALLBACK;
 894:./Libraries/STM32H7xx_HAL_Driver/Src/stm32h7xx_hal_jpeg.c ****     /* Return error status */
 895:./Libraries/STM32H7xx_HAL_Driver/Src/stm32h7xx_hal_jpeg.c ****     status =  HAL_ERROR;
 896:./Libraries/STM32H7xx_HAL_Driver/Src/stm32h7xx_hal_jpeg.c ****   }
 897:./Libraries/STM32H7xx_HAL_Driver/Src/stm32h7xx_hal_jpeg.c **** 
 898:./Libraries/STM32H7xx_HAL_Driver/Src/stm32h7xx_hal_jpeg.c ****   /* Release Lock */
 899:./Libraries/STM32H7xx_HAL_Driver/Src/stm32h7xx_hal_jpeg.c ****   __HAL_UNLOCK(hjpeg);
 900:./Libraries/STM32H7xx_HAL_Driver/Src/stm32h7xx_hal_jpeg.c ****   return status;
 901:./Libraries/STM32H7xx_HAL_Driver/Src/stm32h7xx_hal_jpeg.c **** }
 902:./Libraries/STM32H7xx_HAL_Driver/Src/stm32h7xx_hal_jpeg.c **** 
 903:./Libraries/STM32H7xx_HAL_Driver/Src/stm32h7xx_hal_jpeg.c **** /**
 904:./Libraries/STM32H7xx_HAL_Driver/Src/stm32h7xx_hal_jpeg.c ****   * @brief  UnRegister the Info Ready JPEG Callback
 905:./Libraries/STM32H7xx_HAL_Driver/Src/stm32h7xx_hal_jpeg.c ****   *         Info Ready JPEG Callback is redirected to the weak HAL_JPEG_InfoReadyCallback() predefi
 906:./Libraries/STM32H7xx_HAL_Driver/Src/stm32h7xx_hal_jpeg.c ****   * @param  hjpeg JPEG handle
 907:./Libraries/STM32H7xx_HAL_Driver/Src/stm32h7xx_hal_jpeg.c ****   * @retval HAL status
 908:./Libraries/STM32H7xx_HAL_Driver/Src/stm32h7xx_hal_jpeg.c ****   */
 909:./Libraries/STM32H7xx_HAL_Driver/Src/stm32h7xx_hal_jpeg.c **** HAL_StatusTypeDef HAL_JPEG_UnRegisterInfoReadyCallback(JPEG_HandleTypeDef *hjpeg)
 910:./Libraries/STM32H7xx_HAL_Driver/Src/stm32h7xx_hal_jpeg.c **** {
ARM GAS  /tmp/ccXFtjVt.s 			page 26


 911:./Libraries/STM32H7xx_HAL_Driver/Src/stm32h7xx_hal_jpeg.c ****   HAL_StatusTypeDef status = HAL_OK;
 912:./Libraries/STM32H7xx_HAL_Driver/Src/stm32h7xx_hal_jpeg.c **** 
 913:./Libraries/STM32H7xx_HAL_Driver/Src/stm32h7xx_hal_jpeg.c ****   /* Process locked */
 914:./Libraries/STM32H7xx_HAL_Driver/Src/stm32h7xx_hal_jpeg.c ****   __HAL_LOCK(hjpeg);
 915:./Libraries/STM32H7xx_HAL_Driver/Src/stm32h7xx_hal_jpeg.c **** 
 916:./Libraries/STM32H7xx_HAL_Driver/Src/stm32h7xx_hal_jpeg.c ****   if (HAL_JPEG_STATE_READY == hjpeg->State)
 917:./Libraries/STM32H7xx_HAL_Driver/Src/stm32h7xx_hal_jpeg.c ****   {
 918:./Libraries/STM32H7xx_HAL_Driver/Src/stm32h7xx_hal_jpeg.c ****     hjpeg->InfoReadyCallback = HAL_JPEG_InfoReadyCallback; /* Legacy weak InfoReadyCallback  */
 919:./Libraries/STM32H7xx_HAL_Driver/Src/stm32h7xx_hal_jpeg.c ****   }
 920:./Libraries/STM32H7xx_HAL_Driver/Src/stm32h7xx_hal_jpeg.c ****   else
 921:./Libraries/STM32H7xx_HAL_Driver/Src/stm32h7xx_hal_jpeg.c ****   {
 922:./Libraries/STM32H7xx_HAL_Driver/Src/stm32h7xx_hal_jpeg.c ****     /* Update the error code */
 923:./Libraries/STM32H7xx_HAL_Driver/Src/stm32h7xx_hal_jpeg.c ****     hjpeg->ErrorCode |= HAL_JPEG_ERROR_INVALID_CALLBACK;
 924:./Libraries/STM32H7xx_HAL_Driver/Src/stm32h7xx_hal_jpeg.c ****     /* Return error status */
 925:./Libraries/STM32H7xx_HAL_Driver/Src/stm32h7xx_hal_jpeg.c ****     status =  HAL_ERROR;
 926:./Libraries/STM32H7xx_HAL_Driver/Src/stm32h7xx_hal_jpeg.c ****   }
 927:./Libraries/STM32H7xx_HAL_Driver/Src/stm32h7xx_hal_jpeg.c **** 
 928:./Libraries/STM32H7xx_HAL_Driver/Src/stm32h7xx_hal_jpeg.c ****   /* Release Lock */
 929:./Libraries/STM32H7xx_HAL_Driver/Src/stm32h7xx_hal_jpeg.c ****   __HAL_UNLOCK(hjpeg);
 930:./Libraries/STM32H7xx_HAL_Driver/Src/stm32h7xx_hal_jpeg.c ****   return status;
 931:./Libraries/STM32H7xx_HAL_Driver/Src/stm32h7xx_hal_jpeg.c **** }
 932:./Libraries/STM32H7xx_HAL_Driver/Src/stm32h7xx_hal_jpeg.c **** 
 933:./Libraries/STM32H7xx_HAL_Driver/Src/stm32h7xx_hal_jpeg.c **** /**
 934:./Libraries/STM32H7xx_HAL_Driver/Src/stm32h7xx_hal_jpeg.c ****   * @brief  Register Get Data JPEG Callback
 935:./Libraries/STM32H7xx_HAL_Driver/Src/stm32h7xx_hal_jpeg.c ****   *         To be used instead of the weak HAL_JPEG_GetDataCallback() predefined callback
 936:./Libraries/STM32H7xx_HAL_Driver/Src/stm32h7xx_hal_jpeg.c ****   * @param  hjpeg JPEG handle
 937:./Libraries/STM32H7xx_HAL_Driver/Src/stm32h7xx_hal_jpeg.c ****   * @param  pCallback pointer to the Get Data Callback function
 938:./Libraries/STM32H7xx_HAL_Driver/Src/stm32h7xx_hal_jpeg.c ****   * @retval HAL status
 939:./Libraries/STM32H7xx_HAL_Driver/Src/stm32h7xx_hal_jpeg.c ****   */
 940:./Libraries/STM32H7xx_HAL_Driver/Src/stm32h7xx_hal_jpeg.c **** HAL_StatusTypeDef HAL_JPEG_RegisterGetDataCallback(JPEG_HandleTypeDef *hjpeg, pJPEG_GetDataCallback
 941:./Libraries/STM32H7xx_HAL_Driver/Src/stm32h7xx_hal_jpeg.c **** {
 942:./Libraries/STM32H7xx_HAL_Driver/Src/stm32h7xx_hal_jpeg.c ****   HAL_StatusTypeDef status = HAL_OK;
 943:./Libraries/STM32H7xx_HAL_Driver/Src/stm32h7xx_hal_jpeg.c **** 
 944:./Libraries/STM32H7xx_HAL_Driver/Src/stm32h7xx_hal_jpeg.c ****   if (pCallback == NULL)
 945:./Libraries/STM32H7xx_HAL_Driver/Src/stm32h7xx_hal_jpeg.c ****   {
 946:./Libraries/STM32H7xx_HAL_Driver/Src/stm32h7xx_hal_jpeg.c ****     /* Update the error code */
 947:./Libraries/STM32H7xx_HAL_Driver/Src/stm32h7xx_hal_jpeg.c ****     hjpeg->ErrorCode |= HAL_JPEG_ERROR_INVALID_CALLBACK;
 948:./Libraries/STM32H7xx_HAL_Driver/Src/stm32h7xx_hal_jpeg.c ****     return HAL_ERROR;
 949:./Libraries/STM32H7xx_HAL_Driver/Src/stm32h7xx_hal_jpeg.c ****   }
 950:./Libraries/STM32H7xx_HAL_Driver/Src/stm32h7xx_hal_jpeg.c ****   /* Process locked */
 951:./Libraries/STM32H7xx_HAL_Driver/Src/stm32h7xx_hal_jpeg.c ****   __HAL_LOCK(hjpeg);
 952:./Libraries/STM32H7xx_HAL_Driver/Src/stm32h7xx_hal_jpeg.c **** 
 953:./Libraries/STM32H7xx_HAL_Driver/Src/stm32h7xx_hal_jpeg.c ****   if (HAL_JPEG_STATE_READY == hjpeg->State)
 954:./Libraries/STM32H7xx_HAL_Driver/Src/stm32h7xx_hal_jpeg.c ****   {
 955:./Libraries/STM32H7xx_HAL_Driver/Src/stm32h7xx_hal_jpeg.c ****     hjpeg->GetDataCallback = pCallback;
 956:./Libraries/STM32H7xx_HAL_Driver/Src/stm32h7xx_hal_jpeg.c ****   }
 957:./Libraries/STM32H7xx_HAL_Driver/Src/stm32h7xx_hal_jpeg.c ****   else
 958:./Libraries/STM32H7xx_HAL_Driver/Src/stm32h7xx_hal_jpeg.c ****   {
 959:./Libraries/STM32H7xx_HAL_Driver/Src/stm32h7xx_hal_jpeg.c ****     /* Update the error code */
 960:./Libraries/STM32H7xx_HAL_Driver/Src/stm32h7xx_hal_jpeg.c ****     hjpeg->ErrorCode |= HAL_JPEG_ERROR_INVALID_CALLBACK;
 961:./Libraries/STM32H7xx_HAL_Driver/Src/stm32h7xx_hal_jpeg.c ****     /* Return error status */
 962:./Libraries/STM32H7xx_HAL_Driver/Src/stm32h7xx_hal_jpeg.c ****     status =  HAL_ERROR;
 963:./Libraries/STM32H7xx_HAL_Driver/Src/stm32h7xx_hal_jpeg.c ****   }
 964:./Libraries/STM32H7xx_HAL_Driver/Src/stm32h7xx_hal_jpeg.c **** 
 965:./Libraries/STM32H7xx_HAL_Driver/Src/stm32h7xx_hal_jpeg.c ****   /* Release Lock */
 966:./Libraries/STM32H7xx_HAL_Driver/Src/stm32h7xx_hal_jpeg.c ****   __HAL_UNLOCK(hjpeg);
 967:./Libraries/STM32H7xx_HAL_Driver/Src/stm32h7xx_hal_jpeg.c ****   return status;
ARM GAS  /tmp/ccXFtjVt.s 			page 27


 968:./Libraries/STM32H7xx_HAL_Driver/Src/stm32h7xx_hal_jpeg.c **** }
 969:./Libraries/STM32H7xx_HAL_Driver/Src/stm32h7xx_hal_jpeg.c **** 
 970:./Libraries/STM32H7xx_HAL_Driver/Src/stm32h7xx_hal_jpeg.c **** /**
 971:./Libraries/STM32H7xx_HAL_Driver/Src/stm32h7xx_hal_jpeg.c ****   * @brief  UnRegister the Get Data JPEG Callback
 972:./Libraries/STM32H7xx_HAL_Driver/Src/stm32h7xx_hal_jpeg.c ****   *         Get Data JPEG Callback is redirected to the weak HAL_JPEG_GetDataCallback() predefined 
 973:./Libraries/STM32H7xx_HAL_Driver/Src/stm32h7xx_hal_jpeg.c ****   * @param  hjpeg JPEG handle
 974:./Libraries/STM32H7xx_HAL_Driver/Src/stm32h7xx_hal_jpeg.c ****   * @retval HAL status
 975:./Libraries/STM32H7xx_HAL_Driver/Src/stm32h7xx_hal_jpeg.c ****   */
 976:./Libraries/STM32H7xx_HAL_Driver/Src/stm32h7xx_hal_jpeg.c **** HAL_StatusTypeDef HAL_JPEG_UnRegisterGetDataCallback(JPEG_HandleTypeDef *hjpeg)
 977:./Libraries/STM32H7xx_HAL_Driver/Src/stm32h7xx_hal_jpeg.c **** {
 978:./Libraries/STM32H7xx_HAL_Driver/Src/stm32h7xx_hal_jpeg.c ****   HAL_StatusTypeDef status = HAL_OK;
 979:./Libraries/STM32H7xx_HAL_Driver/Src/stm32h7xx_hal_jpeg.c **** 
 980:./Libraries/STM32H7xx_HAL_Driver/Src/stm32h7xx_hal_jpeg.c ****   /* Process locked */
 981:./Libraries/STM32H7xx_HAL_Driver/Src/stm32h7xx_hal_jpeg.c ****   __HAL_LOCK(hjpeg);
 982:./Libraries/STM32H7xx_HAL_Driver/Src/stm32h7xx_hal_jpeg.c **** 
 983:./Libraries/STM32H7xx_HAL_Driver/Src/stm32h7xx_hal_jpeg.c ****   if (HAL_JPEG_STATE_READY == hjpeg->State)
 984:./Libraries/STM32H7xx_HAL_Driver/Src/stm32h7xx_hal_jpeg.c ****   {
 985:./Libraries/STM32H7xx_HAL_Driver/Src/stm32h7xx_hal_jpeg.c ****     hjpeg->GetDataCallback = HAL_JPEG_GetDataCallback;  /* Legacy weak GetDataCallback  */
 986:./Libraries/STM32H7xx_HAL_Driver/Src/stm32h7xx_hal_jpeg.c ****   }
 987:./Libraries/STM32H7xx_HAL_Driver/Src/stm32h7xx_hal_jpeg.c ****   else
 988:./Libraries/STM32H7xx_HAL_Driver/Src/stm32h7xx_hal_jpeg.c ****   {
 989:./Libraries/STM32H7xx_HAL_Driver/Src/stm32h7xx_hal_jpeg.c ****     /* Update the error code */
 990:./Libraries/STM32H7xx_HAL_Driver/Src/stm32h7xx_hal_jpeg.c ****     hjpeg->ErrorCode |= HAL_JPEG_ERROR_INVALID_CALLBACK;
 991:./Libraries/STM32H7xx_HAL_Driver/Src/stm32h7xx_hal_jpeg.c ****     /* Return error status */
 992:./Libraries/STM32H7xx_HAL_Driver/Src/stm32h7xx_hal_jpeg.c ****     status =  HAL_ERROR;
 993:./Libraries/STM32H7xx_HAL_Driver/Src/stm32h7xx_hal_jpeg.c ****   }
 994:./Libraries/STM32H7xx_HAL_Driver/Src/stm32h7xx_hal_jpeg.c **** 
 995:./Libraries/STM32H7xx_HAL_Driver/Src/stm32h7xx_hal_jpeg.c ****   /* Release Lock */
 996:./Libraries/STM32H7xx_HAL_Driver/Src/stm32h7xx_hal_jpeg.c ****   __HAL_UNLOCK(hjpeg);
 997:./Libraries/STM32H7xx_HAL_Driver/Src/stm32h7xx_hal_jpeg.c ****   return status;
 998:./Libraries/STM32H7xx_HAL_Driver/Src/stm32h7xx_hal_jpeg.c **** }
 999:./Libraries/STM32H7xx_HAL_Driver/Src/stm32h7xx_hal_jpeg.c **** 
1000:./Libraries/STM32H7xx_HAL_Driver/Src/stm32h7xx_hal_jpeg.c **** /**
1001:./Libraries/STM32H7xx_HAL_Driver/Src/stm32h7xx_hal_jpeg.c ****   * @brief  Register Data Ready JPEG Callback
1002:./Libraries/STM32H7xx_HAL_Driver/Src/stm32h7xx_hal_jpeg.c ****   *         To be used instead of the weak HAL_JPEG_DataReadyCallback() predefined callback
1003:./Libraries/STM32H7xx_HAL_Driver/Src/stm32h7xx_hal_jpeg.c ****   * @param  hjpeg JPEG handle
1004:./Libraries/STM32H7xx_HAL_Driver/Src/stm32h7xx_hal_jpeg.c ****   * @param  pCallback pointer to the Get Data Callback function
1005:./Libraries/STM32H7xx_HAL_Driver/Src/stm32h7xx_hal_jpeg.c ****   * @retval HAL status
1006:./Libraries/STM32H7xx_HAL_Driver/Src/stm32h7xx_hal_jpeg.c ****   */
1007:./Libraries/STM32H7xx_HAL_Driver/Src/stm32h7xx_hal_jpeg.c **** HAL_StatusTypeDef HAL_JPEG_RegisterDataReadyCallback(JPEG_HandleTypeDef *hjpeg,
1008:./Libraries/STM32H7xx_HAL_Driver/Src/stm32h7xx_hal_jpeg.c ****                                                      pJPEG_DataReadyCallbackTypeDef pCallback)
1009:./Libraries/STM32H7xx_HAL_Driver/Src/stm32h7xx_hal_jpeg.c **** {
1010:./Libraries/STM32H7xx_HAL_Driver/Src/stm32h7xx_hal_jpeg.c ****   HAL_StatusTypeDef status = HAL_OK;
1011:./Libraries/STM32H7xx_HAL_Driver/Src/stm32h7xx_hal_jpeg.c **** 
1012:./Libraries/STM32H7xx_HAL_Driver/Src/stm32h7xx_hal_jpeg.c ****   if (pCallback == NULL)
1013:./Libraries/STM32H7xx_HAL_Driver/Src/stm32h7xx_hal_jpeg.c ****   {
1014:./Libraries/STM32H7xx_HAL_Driver/Src/stm32h7xx_hal_jpeg.c ****     /* Update the error code */
1015:./Libraries/STM32H7xx_HAL_Driver/Src/stm32h7xx_hal_jpeg.c ****     hjpeg->ErrorCode |= HAL_JPEG_ERROR_INVALID_CALLBACK;
1016:./Libraries/STM32H7xx_HAL_Driver/Src/stm32h7xx_hal_jpeg.c ****     return HAL_ERROR;
1017:./Libraries/STM32H7xx_HAL_Driver/Src/stm32h7xx_hal_jpeg.c ****   }
1018:./Libraries/STM32H7xx_HAL_Driver/Src/stm32h7xx_hal_jpeg.c ****   /* Process locked */
1019:./Libraries/STM32H7xx_HAL_Driver/Src/stm32h7xx_hal_jpeg.c ****   __HAL_LOCK(hjpeg);
1020:./Libraries/STM32H7xx_HAL_Driver/Src/stm32h7xx_hal_jpeg.c **** 
1021:./Libraries/STM32H7xx_HAL_Driver/Src/stm32h7xx_hal_jpeg.c ****   if (HAL_JPEG_STATE_READY == hjpeg->State)
1022:./Libraries/STM32H7xx_HAL_Driver/Src/stm32h7xx_hal_jpeg.c ****   {
1023:./Libraries/STM32H7xx_HAL_Driver/Src/stm32h7xx_hal_jpeg.c ****     hjpeg->DataReadyCallback = pCallback;
1024:./Libraries/STM32H7xx_HAL_Driver/Src/stm32h7xx_hal_jpeg.c ****   }
ARM GAS  /tmp/ccXFtjVt.s 			page 28


1025:./Libraries/STM32H7xx_HAL_Driver/Src/stm32h7xx_hal_jpeg.c ****   else
1026:./Libraries/STM32H7xx_HAL_Driver/Src/stm32h7xx_hal_jpeg.c ****   {
1027:./Libraries/STM32H7xx_HAL_Driver/Src/stm32h7xx_hal_jpeg.c ****     /* Update the error code */
1028:./Libraries/STM32H7xx_HAL_Driver/Src/stm32h7xx_hal_jpeg.c ****     hjpeg->ErrorCode |= HAL_JPEG_ERROR_INVALID_CALLBACK;
1029:./Libraries/STM32H7xx_HAL_Driver/Src/stm32h7xx_hal_jpeg.c ****     /* Return error status */
1030:./Libraries/STM32H7xx_HAL_Driver/Src/stm32h7xx_hal_jpeg.c ****     status =  HAL_ERROR;
1031:./Libraries/STM32H7xx_HAL_Driver/Src/stm32h7xx_hal_jpeg.c ****   }
1032:./Libraries/STM32H7xx_HAL_Driver/Src/stm32h7xx_hal_jpeg.c **** 
1033:./Libraries/STM32H7xx_HAL_Driver/Src/stm32h7xx_hal_jpeg.c ****   /* Release Lock */
1034:./Libraries/STM32H7xx_HAL_Driver/Src/stm32h7xx_hal_jpeg.c ****   __HAL_UNLOCK(hjpeg);
1035:./Libraries/STM32H7xx_HAL_Driver/Src/stm32h7xx_hal_jpeg.c ****   return status;
1036:./Libraries/STM32H7xx_HAL_Driver/Src/stm32h7xx_hal_jpeg.c **** }
1037:./Libraries/STM32H7xx_HAL_Driver/Src/stm32h7xx_hal_jpeg.c **** 
1038:./Libraries/STM32H7xx_HAL_Driver/Src/stm32h7xx_hal_jpeg.c **** /**
1039:./Libraries/STM32H7xx_HAL_Driver/Src/stm32h7xx_hal_jpeg.c ****   * @brief  UnRegister the Data Ready JPEG Callback
1040:./Libraries/STM32H7xx_HAL_Driver/Src/stm32h7xx_hal_jpeg.c ****   *         Get Data Ready Callback is redirected to the weak HAL_JPEG_DataReadyCallback() predefin
1041:./Libraries/STM32H7xx_HAL_Driver/Src/stm32h7xx_hal_jpeg.c ****   * @param  hjpeg JPEG handle
1042:./Libraries/STM32H7xx_HAL_Driver/Src/stm32h7xx_hal_jpeg.c ****   * @retval HAL status
1043:./Libraries/STM32H7xx_HAL_Driver/Src/stm32h7xx_hal_jpeg.c ****   */
1044:./Libraries/STM32H7xx_HAL_Driver/Src/stm32h7xx_hal_jpeg.c **** HAL_StatusTypeDef HAL_JPEG_UnRegisterDataReadyCallback(JPEG_HandleTypeDef *hjpeg)
1045:./Libraries/STM32H7xx_HAL_Driver/Src/stm32h7xx_hal_jpeg.c **** {
1046:./Libraries/STM32H7xx_HAL_Driver/Src/stm32h7xx_hal_jpeg.c ****   HAL_StatusTypeDef status = HAL_OK;
1047:./Libraries/STM32H7xx_HAL_Driver/Src/stm32h7xx_hal_jpeg.c **** 
1048:./Libraries/STM32H7xx_HAL_Driver/Src/stm32h7xx_hal_jpeg.c ****   /* Process locked */
1049:./Libraries/STM32H7xx_HAL_Driver/Src/stm32h7xx_hal_jpeg.c ****   __HAL_LOCK(hjpeg);
1050:./Libraries/STM32H7xx_HAL_Driver/Src/stm32h7xx_hal_jpeg.c **** 
1051:./Libraries/STM32H7xx_HAL_Driver/Src/stm32h7xx_hal_jpeg.c ****   if (HAL_JPEG_STATE_READY == hjpeg->State)
1052:./Libraries/STM32H7xx_HAL_Driver/Src/stm32h7xx_hal_jpeg.c ****   {
1053:./Libraries/STM32H7xx_HAL_Driver/Src/stm32h7xx_hal_jpeg.c ****     hjpeg->DataReadyCallback = HAL_JPEG_DataReadyCallback;  /* Legacy weak DataReadyCallback  */
1054:./Libraries/STM32H7xx_HAL_Driver/Src/stm32h7xx_hal_jpeg.c ****   }
1055:./Libraries/STM32H7xx_HAL_Driver/Src/stm32h7xx_hal_jpeg.c ****   else
1056:./Libraries/STM32H7xx_HAL_Driver/Src/stm32h7xx_hal_jpeg.c ****   {
1057:./Libraries/STM32H7xx_HAL_Driver/Src/stm32h7xx_hal_jpeg.c ****     /* Update the error code */
1058:./Libraries/STM32H7xx_HAL_Driver/Src/stm32h7xx_hal_jpeg.c ****     hjpeg->ErrorCode |= HAL_JPEG_ERROR_INVALID_CALLBACK;
1059:./Libraries/STM32H7xx_HAL_Driver/Src/stm32h7xx_hal_jpeg.c ****     /* Return error status */
1060:./Libraries/STM32H7xx_HAL_Driver/Src/stm32h7xx_hal_jpeg.c ****     status =  HAL_ERROR;
1061:./Libraries/STM32H7xx_HAL_Driver/Src/stm32h7xx_hal_jpeg.c ****   }
1062:./Libraries/STM32H7xx_HAL_Driver/Src/stm32h7xx_hal_jpeg.c **** 
1063:./Libraries/STM32H7xx_HAL_Driver/Src/stm32h7xx_hal_jpeg.c ****   /* Release Lock */
1064:./Libraries/STM32H7xx_HAL_Driver/Src/stm32h7xx_hal_jpeg.c ****   __HAL_UNLOCK(hjpeg);
1065:./Libraries/STM32H7xx_HAL_Driver/Src/stm32h7xx_hal_jpeg.c ****   return status;
1066:./Libraries/STM32H7xx_HAL_Driver/Src/stm32h7xx_hal_jpeg.c **** }
1067:./Libraries/STM32H7xx_HAL_Driver/Src/stm32h7xx_hal_jpeg.c **** 
1068:./Libraries/STM32H7xx_HAL_Driver/Src/stm32h7xx_hal_jpeg.c **** #endif /* USE_HAL_JPEG_REGISTER_CALLBACKS */
1069:./Libraries/STM32H7xx_HAL_Driver/Src/stm32h7xx_hal_jpeg.c **** 
1070:./Libraries/STM32H7xx_HAL_Driver/Src/stm32h7xx_hal_jpeg.c **** /**
1071:./Libraries/STM32H7xx_HAL_Driver/Src/stm32h7xx_hal_jpeg.c ****   * @}
1072:./Libraries/STM32H7xx_HAL_Driver/Src/stm32h7xx_hal_jpeg.c ****   */
1073:./Libraries/STM32H7xx_HAL_Driver/Src/stm32h7xx_hal_jpeg.c **** 
1074:./Libraries/STM32H7xx_HAL_Driver/Src/stm32h7xx_hal_jpeg.c **** /** @defgroup JPEG_Exported_Functions_Group2 Configuration functions
1075:./Libraries/STM32H7xx_HAL_Driver/Src/stm32h7xx_hal_jpeg.c ****   *  @brief    JPEG Configuration functions.
1076:./Libraries/STM32H7xx_HAL_Driver/Src/stm32h7xx_hal_jpeg.c ****   *
1077:./Libraries/STM32H7xx_HAL_Driver/Src/stm32h7xx_hal_jpeg.c **** @verbatim
1078:./Libraries/STM32H7xx_HAL_Driver/Src/stm32h7xx_hal_jpeg.c ****   ==============================================================================
1079:./Libraries/STM32H7xx_HAL_Driver/Src/stm32h7xx_hal_jpeg.c ****               ##### Configuration functions #####
1080:./Libraries/STM32H7xx_HAL_Driver/Src/stm32h7xx_hal_jpeg.c ****   ==============================================================================
1081:./Libraries/STM32H7xx_HAL_Driver/Src/stm32h7xx_hal_jpeg.c ****     [..]  This section provides functions allowing to:
ARM GAS  /tmp/ccXFtjVt.s 			page 29


1082:./Libraries/STM32H7xx_HAL_Driver/Src/stm32h7xx_hal_jpeg.c ****       (+) HAL_JPEG_ConfigEncoding() : JPEG encoding configuration
1083:./Libraries/STM32H7xx_HAL_Driver/Src/stm32h7xx_hal_jpeg.c ****       (+) HAL_JPEG_GetInfo() :  Extract the image configuration from the JPEG header during the dec
1084:./Libraries/STM32H7xx_HAL_Driver/Src/stm32h7xx_hal_jpeg.c ****       (+) HAL_JPEG_EnableHeaderParsing() :  Enable JPEG Header parsing for decoding
1085:./Libraries/STM32H7xx_HAL_Driver/Src/stm32h7xx_hal_jpeg.c ****       (+) HAL_JPEG_DisableHeaderParsing() : Disable JPEG Header parsing for decoding
1086:./Libraries/STM32H7xx_HAL_Driver/Src/stm32h7xx_hal_jpeg.c ****       (+) HAL_JPEG_SetUserQuantTables : Modify the default Quantization tables used for JPEG encodi
1087:./Libraries/STM32H7xx_HAL_Driver/Src/stm32h7xx_hal_jpeg.c **** 
1088:./Libraries/STM32H7xx_HAL_Driver/Src/stm32h7xx_hal_jpeg.c **** @endverbatim
1089:./Libraries/STM32H7xx_HAL_Driver/Src/stm32h7xx_hal_jpeg.c ****   * @{
1090:./Libraries/STM32H7xx_HAL_Driver/Src/stm32h7xx_hal_jpeg.c ****   */
1091:./Libraries/STM32H7xx_HAL_Driver/Src/stm32h7xx_hal_jpeg.c **** 
1092:./Libraries/STM32H7xx_HAL_Driver/Src/stm32h7xx_hal_jpeg.c **** /**
1093:./Libraries/STM32H7xx_HAL_Driver/Src/stm32h7xx_hal_jpeg.c ****   * @brief  Set the JPEG encoding configuration.
1094:./Libraries/STM32H7xx_HAL_Driver/Src/stm32h7xx_hal_jpeg.c ****   * @param  hjpeg pointer to a JPEG_HandleTypeDef structure that contains
1095:./Libraries/STM32H7xx_HAL_Driver/Src/stm32h7xx_hal_jpeg.c ****   *         the configuration information for JPEG module
1096:./Libraries/STM32H7xx_HAL_Driver/Src/stm32h7xx_hal_jpeg.c ****   * @param  pConf pointer to a JPEG_ConfTypeDef structure that contains
1097:./Libraries/STM32H7xx_HAL_Driver/Src/stm32h7xx_hal_jpeg.c ****   *         the encoding configuration
1098:./Libraries/STM32H7xx_HAL_Driver/Src/stm32h7xx_hal_jpeg.c ****   * @retval HAL status
1099:./Libraries/STM32H7xx_HAL_Driver/Src/stm32h7xx_hal_jpeg.c ****   */
1100:./Libraries/STM32H7xx_HAL_Driver/Src/stm32h7xx_hal_jpeg.c **** HAL_StatusTypeDef HAL_JPEG_ConfigEncoding(JPEG_HandleTypeDef *hjpeg, JPEG_ConfTypeDef *pConf)
1101:./Libraries/STM32H7xx_HAL_Driver/Src/stm32h7xx_hal_jpeg.c **** {
 446              		.loc 1 1101 1
 447              		.cfi_startproc
 448              		@ args = 0, pretend = 0, frame = 32
 449              		@ frame_needed = 1, uses_anonymous_args = 0
 450 0000 80B5     		push	{r7, lr}
 451              	.LCFI22:
 452              		.cfi_def_cfa_offset 8
 453              		.cfi_offset 7, -8
 454              		.cfi_offset 14, -4
 455 0002 88B0     		sub	sp, sp, #32
 456              	.LCFI23:
 457              		.cfi_def_cfa_offset 40
 458 0004 00AF     		add	r7, sp, #0
 459              	.LCFI24:
 460              		.cfi_def_cfa_register 7
 461 0006 7860     		str	r0, [r7, #4]
 462 0008 3960     		str	r1, [r7]
1102:./Libraries/STM32H7xx_HAL_Driver/Src/stm32h7xx_hal_jpeg.c ****   uint32_t error;
1103:./Libraries/STM32H7xx_HAL_Driver/Src/stm32h7xx_hal_jpeg.c ****   uint32_t numberMCU;
1104:./Libraries/STM32H7xx_HAL_Driver/Src/stm32h7xx_hal_jpeg.c ****   uint32_t hfactor;
1105:./Libraries/STM32H7xx_HAL_Driver/Src/stm32h7xx_hal_jpeg.c ****   uint32_t vfactor;
1106:./Libraries/STM32H7xx_HAL_Driver/Src/stm32h7xx_hal_jpeg.c ****   uint32_t hMCU;
1107:./Libraries/STM32H7xx_HAL_Driver/Src/stm32h7xx_hal_jpeg.c ****   uint32_t vMCU;
1108:./Libraries/STM32H7xx_HAL_Driver/Src/stm32h7xx_hal_jpeg.c **** 
1109:./Libraries/STM32H7xx_HAL_Driver/Src/stm32h7xx_hal_jpeg.c ****   /* Check the JPEG handle allocation */
1110:./Libraries/STM32H7xx_HAL_Driver/Src/stm32h7xx_hal_jpeg.c ****   if ((hjpeg == NULL) || (pConf == NULL))
 463              		.loc 1 1110 6
 464 000a 7B68     		ldr	r3, [r7, #4]
 465 000c 002B     		cmp	r3, #0
 466 000e 02D0     		beq	.L14
 467              		.loc 1 1110 23 discriminator 1
 468 0010 3B68     		ldr	r3, [r7]
 469 0012 002B     		cmp	r3, #0
 470 0014 01D1     		bne	.L15
 471              	.L14:
1111:./Libraries/STM32H7xx_HAL_Driver/Src/stm32h7xx_hal_jpeg.c ****   {
1112:./Libraries/STM32H7xx_HAL_Driver/Src/stm32h7xx_hal_jpeg.c ****     return HAL_ERROR;
ARM GAS  /tmp/ccXFtjVt.s 			page 30


 472              		.loc 1 1112 12
 473 0016 0123     		movs	r3, #1
 474 0018 91E1     		b	.L16
 475              	.L15:
1113:./Libraries/STM32H7xx_HAL_Driver/Src/stm32h7xx_hal_jpeg.c ****   }
1114:./Libraries/STM32H7xx_HAL_Driver/Src/stm32h7xx_hal_jpeg.c ****   else
1115:./Libraries/STM32H7xx_HAL_Driver/Src/stm32h7xx_hal_jpeg.c ****   {
1116:./Libraries/STM32H7xx_HAL_Driver/Src/stm32h7xx_hal_jpeg.c ****     /* Check the parameters */
1117:./Libraries/STM32H7xx_HAL_Driver/Src/stm32h7xx_hal_jpeg.c ****     assert_param(IS_JPEG_COLORSPACE(pConf->ColorSpace));
1118:./Libraries/STM32H7xx_HAL_Driver/Src/stm32h7xx_hal_jpeg.c ****     assert_param(IS_JPEG_CHROMASUBSAMPLING(pConf->ChromaSubsampling));
1119:./Libraries/STM32H7xx_HAL_Driver/Src/stm32h7xx_hal_jpeg.c ****     assert_param(IS_JPEG_IMAGE_QUALITY(pConf->ImageQuality));
1120:./Libraries/STM32H7xx_HAL_Driver/Src/stm32h7xx_hal_jpeg.c **** 
1121:./Libraries/STM32H7xx_HAL_Driver/Src/stm32h7xx_hal_jpeg.c ****     /* Process Locked */
1122:./Libraries/STM32H7xx_HAL_Driver/Src/stm32h7xx_hal_jpeg.c ****     __HAL_LOCK(hjpeg);
 476              		.loc 1 1122 5
 477 001a 7B68     		ldr	r3, [r7, #4]
 478 001c 93F84C30 		ldrb	r3, [r3, #76]	@ zero_extendqisi2
 479 0020 012B     		cmp	r3, #1
 480 0022 01D1     		bne	.L17
 481              		.loc 1 1122 5 is_stmt 0 discriminator 1
 482 0024 0223     		movs	r3, #2
 483 0026 8AE1     		b	.L16
 484              	.L17:
 485              		.loc 1 1122 5 discriminator 2
 486 0028 7B68     		ldr	r3, [r7, #4]
 487 002a 0122     		movs	r2, #1
 488 002c 83F84C20 		strb	r2, [r3, #76]
1123:./Libraries/STM32H7xx_HAL_Driver/Src/stm32h7xx_hal_jpeg.c **** 
1124:./Libraries/STM32H7xx_HAL_Driver/Src/stm32h7xx_hal_jpeg.c ****     if (hjpeg->State == HAL_JPEG_STATE_READY)
 489              		.loc 1 1124 14 is_stmt 1 discriminator 2
 490 0030 7B68     		ldr	r3, [r7, #4]
 491 0032 93F84D30 		ldrb	r3, [r3, #77]
 492 0036 DBB2     		uxtb	r3, r3
 493              		.loc 1 1124 8 discriminator 2
 494 0038 012B     		cmp	r3, #1
 495 003a 40F07B81 		bne	.L18
1125:./Libraries/STM32H7xx_HAL_Driver/Src/stm32h7xx_hal_jpeg.c ****     {
1126:./Libraries/STM32H7xx_HAL_Driver/Src/stm32h7xx_hal_jpeg.c ****       hjpeg->State = HAL_JPEG_STATE_BUSY;
 496              		.loc 1 1126 20
 497 003e 7B68     		ldr	r3, [r7, #4]
 498 0040 0222     		movs	r2, #2
 499 0042 83F84D20 		strb	r2, [r3, #77]
1127:./Libraries/STM32H7xx_HAL_Driver/Src/stm32h7xx_hal_jpeg.c **** 
1128:./Libraries/STM32H7xx_HAL_Driver/Src/stm32h7xx_hal_jpeg.c ****       hjpeg->Conf.ColorSpace          =  pConf->ColorSpace;
 500              		.loc 1 1128 47
 501 0046 3B68     		ldr	r3, [r7]
 502 0048 1A68     		ldr	r2, [r3]
 503              		.loc 1 1128 39
 504 004a 7B68     		ldr	r3, [r7, #4]
 505 004c 5A60     		str	r2, [r3, #4]
1129:./Libraries/STM32H7xx_HAL_Driver/Src/stm32h7xx_hal_jpeg.c ****       hjpeg->Conf.ChromaSubsampling   =  pConf->ChromaSubsampling;
 506              		.loc 1 1129 47
 507 004e 3B68     		ldr	r3, [r7]
 508 0050 5A68     		ldr	r2, [r3, #4]
 509              		.loc 1 1129 39
 510 0052 7B68     		ldr	r3, [r7, #4]
 511 0054 9A60     		str	r2, [r3, #8]
ARM GAS  /tmp/ccXFtjVt.s 			page 31


1130:./Libraries/STM32H7xx_HAL_Driver/Src/stm32h7xx_hal_jpeg.c ****       hjpeg->Conf.ImageHeight         =  pConf->ImageHeight;
 512              		.loc 1 1130 47
 513 0056 3B68     		ldr	r3, [r7]
 514 0058 9A68     		ldr	r2, [r3, #8]
 515              		.loc 1 1130 39
 516 005a 7B68     		ldr	r3, [r7, #4]
 517 005c DA60     		str	r2, [r3, #12]
1131:./Libraries/STM32H7xx_HAL_Driver/Src/stm32h7xx_hal_jpeg.c ****       hjpeg->Conf.ImageWidth          =  pConf->ImageWidth;
 518              		.loc 1 1131 47
 519 005e 3B68     		ldr	r3, [r7]
 520 0060 DA68     		ldr	r2, [r3, #12]
 521              		.loc 1 1131 39
 522 0062 7B68     		ldr	r3, [r7, #4]
 523 0064 1A61     		str	r2, [r3, #16]
1132:./Libraries/STM32H7xx_HAL_Driver/Src/stm32h7xx_hal_jpeg.c ****       hjpeg->Conf.ImageQuality        =  pConf->ImageQuality;
 524              		.loc 1 1132 47
 525 0066 3B68     		ldr	r3, [r7]
 526 0068 1A69     		ldr	r2, [r3, #16]
 527              		.loc 1 1132 39
 528 006a 7B68     		ldr	r3, [r7, #4]
 529 006c 5A61     		str	r2, [r3, #20]
1133:./Libraries/STM32H7xx_HAL_Driver/Src/stm32h7xx_hal_jpeg.c **** 
1134:./Libraries/STM32H7xx_HAL_Driver/Src/stm32h7xx_hal_jpeg.c ****       /* Reset the Color Space : by default only one quantization table is used*/
1135:./Libraries/STM32H7xx_HAL_Driver/Src/stm32h7xx_hal_jpeg.c ****       hjpeg->Instance->CONFR1 &= ~JPEG_CONFR1_COLORSPACE;
 530              		.loc 1 1135 12
 531 006e 7B68     		ldr	r3, [r7, #4]
 532 0070 1B68     		ldr	r3, [r3]
 533              		.loc 1 1135 31
 534 0072 5A68     		ldr	r2, [r3, #4]
 535              		.loc 1 1135 12
 536 0074 7B68     		ldr	r3, [r7, #4]
 537 0076 1B68     		ldr	r3, [r3]
 538              		.loc 1 1135 31
 539 0078 22F03002 		bic	r2, r2, #48
 540 007c 5A60     		str	r2, [r3, #4]
1136:./Libraries/STM32H7xx_HAL_Driver/Src/stm32h7xx_hal_jpeg.c **** 
1137:./Libraries/STM32H7xx_HAL_Driver/Src/stm32h7xx_hal_jpeg.c ****       /* Set Number of color components*/
1138:./Libraries/STM32H7xx_HAL_Driver/Src/stm32h7xx_hal_jpeg.c ****       if (hjpeg->Conf.ColorSpace == JPEG_GRAYSCALE_COLORSPACE)
 541              		.loc 1 1138 22
 542 007e 7B68     		ldr	r3, [r7, #4]
 543 0080 5B68     		ldr	r3, [r3, #4]
 544              		.loc 1 1138 10
 545 0082 002B     		cmp	r3, #0
 546 0084 10D1     		bne	.L19
1139:./Libraries/STM32H7xx_HAL_Driver/Src/stm32h7xx_hal_jpeg.c ****       {
1140:./Libraries/STM32H7xx_HAL_Driver/Src/stm32h7xx_hal_jpeg.c ****         /*Gray Scale is only one component 8x8 blocks i.e 4:4:4*/
1141:./Libraries/STM32H7xx_HAL_Driver/Src/stm32h7xx_hal_jpeg.c ****         hjpeg->Conf.ChromaSubsampling = JPEG_444_SUBSAMPLING;
 547              		.loc 1 1141 39
 548 0086 7B68     		ldr	r3, [r7, #4]
 549 0088 0022     		movs	r2, #0
 550 008a 9A60     		str	r2, [r3, #8]
1142:./Libraries/STM32H7xx_HAL_Driver/Src/stm32h7xx_hal_jpeg.c **** 
1143:./Libraries/STM32H7xx_HAL_Driver/Src/stm32h7xx_hal_jpeg.c ****         JPEG_SetColorGrayScale(hjpeg);
 551              		.loc 1 1143 9
 552 008c 7868     		ldr	r0, [r7, #4]
 553 008e FFF7FEFF 		bl	JPEG_SetColorGrayScale
1144:./Libraries/STM32H7xx_HAL_Driver/Src/stm32h7xx_hal_jpeg.c ****         /* Set quantization table 0*/
ARM GAS  /tmp/ccXFtjVt.s 			page 32


1145:./Libraries/STM32H7xx_HAL_Driver/Src/stm32h7xx_hal_jpeg.c ****         error = JPEG_Set_Quantization_Mem(hjpeg, hjpeg->QuantTable0, (hjpeg->Instance->QMEM0));
 554              		.loc 1 1145 17
 555 0092 7B68     		ldr	r3, [r7, #4]
 556 0094 D96B     		ldr	r1, [r3, #60]
 557              		.loc 1 1145 76
 558 0096 7B68     		ldr	r3, [r7, #4]
 559 0098 1B68     		ldr	r3, [r3]
 560              		.loc 1 1145 86
 561 009a 5033     		adds	r3, r3, #80
 562              		.loc 1 1145 17
 563 009c 1A46     		mov	r2, r3
 564 009e 7868     		ldr	r0, [r7, #4]
 565 00a0 FFF7FEFF 		bl	JPEG_Set_Quantization_Mem
 566 00a4 F861     		str	r0, [r7, #28]
 567 00a6 C5E0     		b	.L20
 568              	.L19:
1146:./Libraries/STM32H7xx_HAL_Driver/Src/stm32h7xx_hal_jpeg.c ****       }
1147:./Libraries/STM32H7xx_HAL_Driver/Src/stm32h7xx_hal_jpeg.c ****       else if (hjpeg->Conf.ColorSpace == JPEG_YCBCR_COLORSPACE)
 569              		.loc 1 1147 27
 570 00a8 7B68     		ldr	r3, [r7, #4]
 571 00aa 5B68     		ldr	r3, [r3, #4]
 572              		.loc 1 1147 15
 573 00ac 102B     		cmp	r3, #16
 574 00ae 66D1     		bne	.L21
1148:./Libraries/STM32H7xx_HAL_Driver/Src/stm32h7xx_hal_jpeg.c ****       {
1149:./Libraries/STM32H7xx_HAL_Driver/Src/stm32h7xx_hal_jpeg.c ****         /*
1150:./Libraries/STM32H7xx_HAL_Driver/Src/stm32h7xx_hal_jpeg.c ****            Set the Color Space for YCbCr : 2 quantization tables are used
1151:./Libraries/STM32H7xx_HAL_Driver/Src/stm32h7xx_hal_jpeg.c ****            one for Luminance(Y) and one for both Chrominances (Cb & Cr)
1152:./Libraries/STM32H7xx_HAL_Driver/Src/stm32h7xx_hal_jpeg.c ****           */
1153:./Libraries/STM32H7xx_HAL_Driver/Src/stm32h7xx_hal_jpeg.c ****         hjpeg->Instance->CONFR1 |= JPEG_CONFR1_COLORSPACE_0;
 575              		.loc 1 1153 14
 576 00b0 7B68     		ldr	r3, [r7, #4]
 577 00b2 1B68     		ldr	r3, [r3]
 578              		.loc 1 1153 33
 579 00b4 5A68     		ldr	r2, [r3, #4]
 580              		.loc 1 1153 14
 581 00b6 7B68     		ldr	r3, [r7, #4]
 582 00b8 1B68     		ldr	r3, [r3]
 583              		.loc 1 1153 33
 584 00ba 42F01002 		orr	r2, r2, #16
 585 00be 5A60     		str	r2, [r3, #4]
1154:./Libraries/STM32H7xx_HAL_Driver/Src/stm32h7xx_hal_jpeg.c **** 
1155:./Libraries/STM32H7xx_HAL_Driver/Src/stm32h7xx_hal_jpeg.c ****         JPEG_SetColorYCBCR(hjpeg);
 586              		.loc 1 1155 9
 587 00c0 7868     		ldr	r0, [r7, #4]
 588 00c2 FFF7FEFF 		bl	JPEG_SetColorYCBCR
1156:./Libraries/STM32H7xx_HAL_Driver/Src/stm32h7xx_hal_jpeg.c **** 
1157:./Libraries/STM32H7xx_HAL_Driver/Src/stm32h7xx_hal_jpeg.c ****         /* Set quantization table 0*/
1158:./Libraries/STM32H7xx_HAL_Driver/Src/stm32h7xx_hal_jpeg.c ****         error  = JPEG_Set_Quantization_Mem(hjpeg, hjpeg->QuantTable0, (hjpeg->Instance->QMEM0));
 589              		.loc 1 1158 18
 590 00c6 7B68     		ldr	r3, [r7, #4]
 591 00c8 D96B     		ldr	r1, [r3, #60]
 592              		.loc 1 1158 77
 593 00ca 7B68     		ldr	r3, [r7, #4]
 594 00cc 1B68     		ldr	r3, [r3]
 595              		.loc 1 1158 87
 596 00ce 5033     		adds	r3, r3, #80
ARM GAS  /tmp/ccXFtjVt.s 			page 33


 597              		.loc 1 1158 18
 598 00d0 1A46     		mov	r2, r3
 599 00d2 7868     		ldr	r0, [r7, #4]
 600 00d4 FFF7FEFF 		bl	JPEG_Set_Quantization_Mem
 601 00d8 F861     		str	r0, [r7, #28]
1159:./Libraries/STM32H7xx_HAL_Driver/Src/stm32h7xx_hal_jpeg.c ****         /*By default quantization table 0 for component 0 and quantization table 1 for both compone
1160:./Libraries/STM32H7xx_HAL_Driver/Src/stm32h7xx_hal_jpeg.c ****         error |= JPEG_Set_Quantization_Mem(hjpeg, hjpeg->QuantTable1, (hjpeg->Instance->QMEM1));
 602              		.loc 1 1160 18
 603 00da 7B68     		ldr	r3, [r7, #4]
 604 00dc 196C     		ldr	r1, [r3, #64]
 605              		.loc 1 1160 77
 606 00de 7B68     		ldr	r3, [r7, #4]
 607 00e0 1B68     		ldr	r3, [r3]
 608              		.loc 1 1160 87
 609 00e2 9033     		adds	r3, r3, #144
 610              		.loc 1 1160 18
 611 00e4 1A46     		mov	r2, r3
 612 00e6 7868     		ldr	r0, [r7, #4]
 613 00e8 FFF7FEFF 		bl	JPEG_Set_Quantization_Mem
 614 00ec 0246     		mov	r2, r0
 615              		.loc 1 1160 15
 616 00ee FB69     		ldr	r3, [r7, #28]
 617 00f0 1343     		orrs	r3, r3, r2
 618 00f2 FB61     		str	r3, [r7, #28]
1161:./Libraries/STM32H7xx_HAL_Driver/Src/stm32h7xx_hal_jpeg.c **** 
1162:./Libraries/STM32H7xx_HAL_Driver/Src/stm32h7xx_hal_jpeg.c ****         if ((hjpeg->Context & JPEG_CONTEXT_CUSTOM_TABLES) != 0UL)
 619              		.loc 1 1162 19
 620 00f4 7B68     		ldr	r3, [r7, #4]
 621 00f6 5B6D     		ldr	r3, [r3, #84]
 622              		.loc 1 1162 29
 623 00f8 03F48043 		and	r3, r3, #16384
 624              		.loc 1 1162 12
 625 00fc 002B     		cmp	r3, #0
 626 00fe 00F09980 		beq	.L20
1163:./Libraries/STM32H7xx_HAL_Driver/Src/stm32h7xx_hal_jpeg.c ****         {
1164:./Libraries/STM32H7xx_HAL_Driver/Src/stm32h7xx_hal_jpeg.c ****           /*Use user customized quantization tables , 1 table per component*/
1165:./Libraries/STM32H7xx_HAL_Driver/Src/stm32h7xx_hal_jpeg.c ****           /* use 3 quantization tables , one for each component*/
1166:./Libraries/STM32H7xx_HAL_Driver/Src/stm32h7xx_hal_jpeg.c ****           hjpeg->Instance->CONFR1 &= (~JPEG_CONFR1_COLORSPACE);
 627              		.loc 1 1166 16
 628 0102 7B68     		ldr	r3, [r7, #4]
 629 0104 1B68     		ldr	r3, [r3]
 630              		.loc 1 1166 35
 631 0106 5A68     		ldr	r2, [r3, #4]
 632              		.loc 1 1166 16
 633 0108 7B68     		ldr	r3, [r7, #4]
 634 010a 1B68     		ldr	r3, [r3]
 635              		.loc 1 1166 35
 636 010c 22F03002 		bic	r2, r2, #48
 637 0110 5A60     		str	r2, [r3, #4]
1167:./Libraries/STM32H7xx_HAL_Driver/Src/stm32h7xx_hal_jpeg.c ****           hjpeg->Instance->CONFR1 |= JPEG_CONFR1_COLORSPACE_1;
 638              		.loc 1 1167 16
 639 0112 7B68     		ldr	r3, [r7, #4]
 640 0114 1B68     		ldr	r3, [r3]
 641              		.loc 1 1167 35
 642 0116 5A68     		ldr	r2, [r3, #4]
 643              		.loc 1 1167 16
 644 0118 7B68     		ldr	r3, [r7, #4]
ARM GAS  /tmp/ccXFtjVt.s 			page 34


 645 011a 1B68     		ldr	r3, [r3]
 646              		.loc 1 1167 35
 647 011c 42F02002 		orr	r2, r2, #32
 648 0120 5A60     		str	r2, [r3, #4]
1168:./Libraries/STM32H7xx_HAL_Driver/Src/stm32h7xx_hal_jpeg.c **** 
1169:./Libraries/STM32H7xx_HAL_Driver/Src/stm32h7xx_hal_jpeg.c ****           error |= JPEG_Set_Quantization_Mem(hjpeg, hjpeg->QuantTable2, (hjpeg->Instance->QMEM2));
 649              		.loc 1 1169 20
 650 0122 7B68     		ldr	r3, [r7, #4]
 651 0124 596C     		ldr	r1, [r3, #68]
 652              		.loc 1 1169 79
 653 0126 7B68     		ldr	r3, [r7, #4]
 654 0128 1B68     		ldr	r3, [r3]
 655              		.loc 1 1169 89
 656 012a D033     		adds	r3, r3, #208
 657              		.loc 1 1169 20
 658 012c 1A46     		mov	r2, r3
 659 012e 7868     		ldr	r0, [r7, #4]
 660 0130 FFF7FEFF 		bl	JPEG_Set_Quantization_Mem
 661 0134 0246     		mov	r2, r0
 662              		.loc 1 1169 17
 663 0136 FB69     		ldr	r3, [r7, #28]
 664 0138 1343     		orrs	r3, r3, r2
 665 013a FB61     		str	r3, [r7, #28]
1170:./Libraries/STM32H7xx_HAL_Driver/Src/stm32h7xx_hal_jpeg.c **** 
1171:./Libraries/STM32H7xx_HAL_Driver/Src/stm32h7xx_hal_jpeg.c ****           /*Use Quantization 1 table for component 1*/
1172:./Libraries/STM32H7xx_HAL_Driver/Src/stm32h7xx_hal_jpeg.c ****           hjpeg->Instance->CONFR5 &= (~JPEG_CONFR5_QT);
 666              		.loc 1 1172 16
 667 013c 7B68     		ldr	r3, [r7, #4]
 668 013e 1B68     		ldr	r3, [r3]
 669              		.loc 1 1172 35
 670 0140 5A69     		ldr	r2, [r3, #20]
 671              		.loc 1 1172 16
 672 0142 7B68     		ldr	r3, [r7, #4]
 673 0144 1B68     		ldr	r3, [r3]
 674              		.loc 1 1172 35
 675 0146 22F00C02 		bic	r2, r2, #12
 676 014a 5A61     		str	r2, [r3, #20]
1173:./Libraries/STM32H7xx_HAL_Driver/Src/stm32h7xx_hal_jpeg.c ****           hjpeg->Instance->CONFR5 |=  JPEG_CONFR5_QT_0;
 677              		.loc 1 1173 16
 678 014c 7B68     		ldr	r3, [r7, #4]
 679 014e 1B68     		ldr	r3, [r3]
 680              		.loc 1 1173 35
 681 0150 5A69     		ldr	r2, [r3, #20]
 682              		.loc 1 1173 16
 683 0152 7B68     		ldr	r3, [r7, #4]
 684 0154 1B68     		ldr	r3, [r3]
 685              		.loc 1 1173 35
 686 0156 42F00402 		orr	r2, r2, #4
 687 015a 5A61     		str	r2, [r3, #20]
1174:./Libraries/STM32H7xx_HAL_Driver/Src/stm32h7xx_hal_jpeg.c **** 
1175:./Libraries/STM32H7xx_HAL_Driver/Src/stm32h7xx_hal_jpeg.c ****           /*Use Quantization 2 table for component 2*/
1176:./Libraries/STM32H7xx_HAL_Driver/Src/stm32h7xx_hal_jpeg.c ****           hjpeg->Instance->CONFR6 &= (~JPEG_CONFR6_QT);
 688              		.loc 1 1176 16
 689 015c 7B68     		ldr	r3, [r7, #4]
 690 015e 1B68     		ldr	r3, [r3]
 691              		.loc 1 1176 35
 692 0160 9A69     		ldr	r2, [r3, #24]
ARM GAS  /tmp/ccXFtjVt.s 			page 35


 693              		.loc 1 1176 16
 694 0162 7B68     		ldr	r3, [r7, #4]
 695 0164 1B68     		ldr	r3, [r3]
 696              		.loc 1 1176 35
 697 0166 22F00C02 		bic	r2, r2, #12
 698 016a 9A61     		str	r2, [r3, #24]
1177:./Libraries/STM32H7xx_HAL_Driver/Src/stm32h7xx_hal_jpeg.c ****           hjpeg->Instance->CONFR6 |=  JPEG_CONFR6_QT_1;
 699              		.loc 1 1177 16
 700 016c 7B68     		ldr	r3, [r7, #4]
 701 016e 1B68     		ldr	r3, [r3]
 702              		.loc 1 1177 35
 703 0170 9A69     		ldr	r2, [r3, #24]
 704              		.loc 1 1177 16
 705 0172 7B68     		ldr	r3, [r7, #4]
 706 0174 1B68     		ldr	r3, [r3]
 707              		.loc 1 1177 35
 708 0176 42F00802 		orr	r2, r2, #8
 709 017a 9A61     		str	r2, [r3, #24]
 710 017c 5AE0     		b	.L20
 711              	.L21:
1178:./Libraries/STM32H7xx_HAL_Driver/Src/stm32h7xx_hal_jpeg.c ****         }
1179:./Libraries/STM32H7xx_HAL_Driver/Src/stm32h7xx_hal_jpeg.c ****       }
1180:./Libraries/STM32H7xx_HAL_Driver/Src/stm32h7xx_hal_jpeg.c ****       else /* ColorSpace == JPEG_CMYK_COLORSPACE */
1181:./Libraries/STM32H7xx_HAL_Driver/Src/stm32h7xx_hal_jpeg.c ****       {
1182:./Libraries/STM32H7xx_HAL_Driver/Src/stm32h7xx_hal_jpeg.c ****         JPEG_SetColorCMYK(hjpeg);
 712              		.loc 1 1182 9
 713 017e 7868     		ldr	r0, [r7, #4]
 714 0180 FFF7FEFF 		bl	JPEG_SetColorCMYK
1183:./Libraries/STM32H7xx_HAL_Driver/Src/stm32h7xx_hal_jpeg.c **** 
1184:./Libraries/STM32H7xx_HAL_Driver/Src/stm32h7xx_hal_jpeg.c ****         /* Set quantization table 0*/
1185:./Libraries/STM32H7xx_HAL_Driver/Src/stm32h7xx_hal_jpeg.c ****         error  = JPEG_Set_Quantization_Mem(hjpeg, hjpeg->QuantTable0, (hjpeg->Instance->QMEM0));
 715              		.loc 1 1185 18
 716 0184 7B68     		ldr	r3, [r7, #4]
 717 0186 D96B     		ldr	r1, [r3, #60]
 718              		.loc 1 1185 77
 719 0188 7B68     		ldr	r3, [r7, #4]
 720 018a 1B68     		ldr	r3, [r3]
 721              		.loc 1 1185 87
 722 018c 5033     		adds	r3, r3, #80
 723              		.loc 1 1185 18
 724 018e 1A46     		mov	r2, r3
 725 0190 7868     		ldr	r0, [r7, #4]
 726 0192 FFF7FEFF 		bl	JPEG_Set_Quantization_Mem
 727 0196 F861     		str	r0, [r7, #28]
1186:./Libraries/STM32H7xx_HAL_Driver/Src/stm32h7xx_hal_jpeg.c ****         /*By default quantization table 0 for All components*/
1187:./Libraries/STM32H7xx_HAL_Driver/Src/stm32h7xx_hal_jpeg.c **** 
1188:./Libraries/STM32H7xx_HAL_Driver/Src/stm32h7xx_hal_jpeg.c ****         if ((hjpeg->Context & JPEG_CONTEXT_CUSTOM_TABLES) != 0UL)
 728              		.loc 1 1188 19
 729 0198 7B68     		ldr	r3, [r7, #4]
 730 019a 5B6D     		ldr	r3, [r3, #84]
 731              		.loc 1 1188 29
 732 019c 03F48043 		and	r3, r3, #16384
 733              		.loc 1 1188 12
 734 01a0 002B     		cmp	r3, #0
 735 01a2 47D0     		beq	.L20
1189:./Libraries/STM32H7xx_HAL_Driver/Src/stm32h7xx_hal_jpeg.c ****         {
1190:./Libraries/STM32H7xx_HAL_Driver/Src/stm32h7xx_hal_jpeg.c ****           /*Use user customized quantization tables , 1 table per component*/
ARM GAS  /tmp/ccXFtjVt.s 			page 36


1191:./Libraries/STM32H7xx_HAL_Driver/Src/stm32h7xx_hal_jpeg.c ****           /* use 4 quantization tables , one for each component*/
1192:./Libraries/STM32H7xx_HAL_Driver/Src/stm32h7xx_hal_jpeg.c ****           hjpeg->Instance->CONFR1 |= JPEG_CONFR1_COLORSPACE;
 736              		.loc 1 1192 16
 737 01a4 7B68     		ldr	r3, [r7, #4]
 738 01a6 1B68     		ldr	r3, [r3]
 739              		.loc 1 1192 35
 740 01a8 5A68     		ldr	r2, [r3, #4]
 741              		.loc 1 1192 16
 742 01aa 7B68     		ldr	r3, [r7, #4]
 743 01ac 1B68     		ldr	r3, [r3]
 744              		.loc 1 1192 35
 745 01ae 42F03002 		orr	r2, r2, #48
 746 01b2 5A60     		str	r2, [r3, #4]
1193:./Libraries/STM32H7xx_HAL_Driver/Src/stm32h7xx_hal_jpeg.c **** 
1194:./Libraries/STM32H7xx_HAL_Driver/Src/stm32h7xx_hal_jpeg.c ****           error |= JPEG_Set_Quantization_Mem(hjpeg, hjpeg->QuantTable1, (hjpeg->Instance->QMEM1));
 747              		.loc 1 1194 20
 748 01b4 7B68     		ldr	r3, [r7, #4]
 749 01b6 196C     		ldr	r1, [r3, #64]
 750              		.loc 1 1194 79
 751 01b8 7B68     		ldr	r3, [r7, #4]
 752 01ba 1B68     		ldr	r3, [r3]
 753              		.loc 1 1194 89
 754 01bc 9033     		adds	r3, r3, #144
 755              		.loc 1 1194 20
 756 01be 1A46     		mov	r2, r3
 757 01c0 7868     		ldr	r0, [r7, #4]
 758 01c2 FFF7FEFF 		bl	JPEG_Set_Quantization_Mem
 759 01c6 0246     		mov	r2, r0
 760              		.loc 1 1194 17
 761 01c8 FB69     		ldr	r3, [r7, #28]
 762 01ca 1343     		orrs	r3, r3, r2
 763 01cc FB61     		str	r3, [r7, #28]
1195:./Libraries/STM32H7xx_HAL_Driver/Src/stm32h7xx_hal_jpeg.c ****           error |= JPEG_Set_Quantization_Mem(hjpeg, hjpeg->QuantTable2, (hjpeg->Instance->QMEM2));
 764              		.loc 1 1195 20
 765 01ce 7B68     		ldr	r3, [r7, #4]
 766 01d0 596C     		ldr	r1, [r3, #68]
 767              		.loc 1 1195 79
 768 01d2 7B68     		ldr	r3, [r7, #4]
 769 01d4 1B68     		ldr	r3, [r3]
 770              		.loc 1 1195 89
 771 01d6 D033     		adds	r3, r3, #208
 772              		.loc 1 1195 20
 773 01d8 1A46     		mov	r2, r3
 774 01da 7868     		ldr	r0, [r7, #4]
 775 01dc FFF7FEFF 		bl	JPEG_Set_Quantization_Mem
 776 01e0 0246     		mov	r2, r0
 777              		.loc 1 1195 17
 778 01e2 FB69     		ldr	r3, [r7, #28]
 779 01e4 1343     		orrs	r3, r3, r2
 780 01e6 FB61     		str	r3, [r7, #28]
1196:./Libraries/STM32H7xx_HAL_Driver/Src/stm32h7xx_hal_jpeg.c ****           error |= JPEG_Set_Quantization_Mem(hjpeg, hjpeg->QuantTable3, (hjpeg->Instance->QMEM3));
 781              		.loc 1 1196 20
 782 01e8 7B68     		ldr	r3, [r7, #4]
 783 01ea 996C     		ldr	r1, [r3, #72]
 784              		.loc 1 1196 79
 785 01ec 7B68     		ldr	r3, [r7, #4]
 786 01ee 1B68     		ldr	r3, [r3]
ARM GAS  /tmp/ccXFtjVt.s 			page 37


 787              		.loc 1 1196 89
 788 01f0 03F58873 		add	r3, r3, #272
 789              		.loc 1 1196 20
 790 01f4 1A46     		mov	r2, r3
 791 01f6 7868     		ldr	r0, [r7, #4]
 792 01f8 FFF7FEFF 		bl	JPEG_Set_Quantization_Mem
 793 01fc 0246     		mov	r2, r0
 794              		.loc 1 1196 17
 795 01fe FB69     		ldr	r3, [r7, #28]
 796 0200 1343     		orrs	r3, r3, r2
 797 0202 FB61     		str	r3, [r7, #28]
1197:./Libraries/STM32H7xx_HAL_Driver/Src/stm32h7xx_hal_jpeg.c **** 
1198:./Libraries/STM32H7xx_HAL_Driver/Src/stm32h7xx_hal_jpeg.c ****           /*Use Quantization 1 table for component 1*/
1199:./Libraries/STM32H7xx_HAL_Driver/Src/stm32h7xx_hal_jpeg.c ****           hjpeg->Instance->CONFR5 |=  JPEG_CONFR5_QT_0;
 798              		.loc 1 1199 16
 799 0204 7B68     		ldr	r3, [r7, #4]
 800 0206 1B68     		ldr	r3, [r3]
 801              		.loc 1 1199 35
 802 0208 5A69     		ldr	r2, [r3, #20]
 803              		.loc 1 1199 16
 804 020a 7B68     		ldr	r3, [r7, #4]
 805 020c 1B68     		ldr	r3, [r3]
 806              		.loc 1 1199 35
 807 020e 42F00402 		orr	r2, r2, #4
 808 0212 5A61     		str	r2, [r3, #20]
1200:./Libraries/STM32H7xx_HAL_Driver/Src/stm32h7xx_hal_jpeg.c **** 
1201:./Libraries/STM32H7xx_HAL_Driver/Src/stm32h7xx_hal_jpeg.c ****           /*Use Quantization 2 table for component 2*/
1202:./Libraries/STM32H7xx_HAL_Driver/Src/stm32h7xx_hal_jpeg.c ****           hjpeg->Instance->CONFR6 |=  JPEG_CONFR6_QT_1;
 809              		.loc 1 1202 16
 810 0214 7B68     		ldr	r3, [r7, #4]
 811 0216 1B68     		ldr	r3, [r3]
 812              		.loc 1 1202 35
 813 0218 9A69     		ldr	r2, [r3, #24]
 814              		.loc 1 1202 16
 815 021a 7B68     		ldr	r3, [r7, #4]
 816 021c 1B68     		ldr	r3, [r3]
 817              		.loc 1 1202 35
 818 021e 42F00802 		orr	r2, r2, #8
 819 0222 9A61     		str	r2, [r3, #24]
1203:./Libraries/STM32H7xx_HAL_Driver/Src/stm32h7xx_hal_jpeg.c **** 
1204:./Libraries/STM32H7xx_HAL_Driver/Src/stm32h7xx_hal_jpeg.c ****           /*Use Quantization 3 table for component 3*/
1205:./Libraries/STM32H7xx_HAL_Driver/Src/stm32h7xx_hal_jpeg.c ****           hjpeg->Instance->CONFR7 |=  JPEG_CONFR7_QT;
 820              		.loc 1 1205 16
 821 0224 7B68     		ldr	r3, [r7, #4]
 822 0226 1B68     		ldr	r3, [r3]
 823              		.loc 1 1205 35
 824 0228 DA69     		ldr	r2, [r3, #28]
 825              		.loc 1 1205 16
 826 022a 7B68     		ldr	r3, [r7, #4]
 827 022c 1B68     		ldr	r3, [r3]
 828              		.loc 1 1205 35
 829 022e 42F00C02 		orr	r2, r2, #12
 830 0232 DA61     		str	r2, [r3, #28]
 831              	.L20:
1206:./Libraries/STM32H7xx_HAL_Driver/Src/stm32h7xx_hal_jpeg.c ****         }
1207:./Libraries/STM32H7xx_HAL_Driver/Src/stm32h7xx_hal_jpeg.c ****       }
1208:./Libraries/STM32H7xx_HAL_Driver/Src/stm32h7xx_hal_jpeg.c **** 
ARM GAS  /tmp/ccXFtjVt.s 			page 38


1209:./Libraries/STM32H7xx_HAL_Driver/Src/stm32h7xx_hal_jpeg.c ****       if (error != 0UL)
 832              		.loc 1 1209 10
 833 0234 FB69     		ldr	r3, [r7, #28]
 834 0236 002B     		cmp	r3, #0
 835 0238 0CD0     		beq	.L22
1210:./Libraries/STM32H7xx_HAL_Driver/Src/stm32h7xx_hal_jpeg.c ****       {
1211:./Libraries/STM32H7xx_HAL_Driver/Src/stm32h7xx_hal_jpeg.c ****         hjpeg->ErrorCode = HAL_JPEG_ERROR_QUANT_TABLE;
 836              		.loc 1 1211 26
 837 023a 7B68     		ldr	r3, [r7, #4]
 838 023c 0222     		movs	r2, #2
 839 023e 1A65     		str	r2, [r3, #80]
1212:./Libraries/STM32H7xx_HAL_Driver/Src/stm32h7xx_hal_jpeg.c **** 
1213:./Libraries/STM32H7xx_HAL_Driver/Src/stm32h7xx_hal_jpeg.c ****         /* Process Unlocked */
1214:./Libraries/STM32H7xx_HAL_Driver/Src/stm32h7xx_hal_jpeg.c ****         __HAL_UNLOCK(hjpeg);
 840              		.loc 1 1214 9
 841 0240 7B68     		ldr	r3, [r7, #4]
 842 0242 0022     		movs	r2, #0
 843 0244 83F84C20 		strb	r2, [r3, #76]
1215:./Libraries/STM32H7xx_HAL_Driver/Src/stm32h7xx_hal_jpeg.c **** 
1216:./Libraries/STM32H7xx_HAL_Driver/Src/stm32h7xx_hal_jpeg.c ****         /* Set the JPEG State to ready */
1217:./Libraries/STM32H7xx_HAL_Driver/Src/stm32h7xx_hal_jpeg.c ****         hjpeg->State = HAL_JPEG_STATE_READY;
 844              		.loc 1 1217 22
 845 0248 7B68     		ldr	r3, [r7, #4]
 846 024a 0122     		movs	r2, #1
 847 024c 83F84D20 		strb	r2, [r3, #77]
1218:./Libraries/STM32H7xx_HAL_Driver/Src/stm32h7xx_hal_jpeg.c **** 
1219:./Libraries/STM32H7xx_HAL_Driver/Src/stm32h7xx_hal_jpeg.c ****         return  HAL_ERROR;
 848              		.loc 1 1219 17
 849 0250 0123     		movs	r3, #1
 850 0252 74E0     		b	.L16
 851              	.L22:
1220:./Libraries/STM32H7xx_HAL_Driver/Src/stm32h7xx_hal_jpeg.c ****       }
1221:./Libraries/STM32H7xx_HAL_Driver/Src/stm32h7xx_hal_jpeg.c ****       /* Set the image size*/
1222:./Libraries/STM32H7xx_HAL_Driver/Src/stm32h7xx_hal_jpeg.c ****       /* set the number of lines*/
1223:./Libraries/STM32H7xx_HAL_Driver/Src/stm32h7xx_hal_jpeg.c ****       MODIFY_REG(hjpeg->Instance->CONFR1, JPEG_CONFR1_YSIZE, ((hjpeg->Conf.ImageHeight & 0x0000FFFF
 852              		.loc 1 1223 7
 853 0254 7B68     		ldr	r3, [r7, #4]
 854 0256 1B68     		ldr	r3, [r3]
 855 0258 5B68     		ldr	r3, [r3, #4]
 856 025a 99B2     		uxth	r1, r3
 857 025c 7B68     		ldr	r3, [r7, #4]
 858 025e DB68     		ldr	r3, [r3, #12]
 859 0260 1A04     		lsls	r2, r3, #16
 860 0262 7B68     		ldr	r3, [r7, #4]
 861 0264 1B68     		ldr	r3, [r3]
 862 0266 0A43     		orrs	r2, r2, r1
 863 0268 5A60     		str	r2, [r3, #4]
1224:./Libraries/STM32H7xx_HAL_Driver/Src/stm32h7xx_hal_jpeg.c ****       /* set the number of pixels per line*/
1225:./Libraries/STM32H7xx_HAL_Driver/Src/stm32h7xx_hal_jpeg.c ****       MODIFY_REG(hjpeg->Instance->CONFR3, JPEG_CONFR3_XSIZE, ((hjpeg->Conf.ImageWidth & 0x0000FFFFU
 864              		.loc 1 1225 7
 865 026a 7B68     		ldr	r3, [r7, #4]
 866 026c 1B68     		ldr	r3, [r3]
 867 026e DB68     		ldr	r3, [r3, #12]
 868 0270 99B2     		uxth	r1, r3
 869 0272 7B68     		ldr	r3, [r7, #4]
 870 0274 1B69     		ldr	r3, [r3, #16]
 871 0276 1A04     		lsls	r2, r3, #16
ARM GAS  /tmp/ccXFtjVt.s 			page 39


 872 0278 7B68     		ldr	r3, [r7, #4]
 873 027a 1B68     		ldr	r3, [r3]
 874 027c 0A43     		orrs	r2, r2, r1
 875 027e DA60     		str	r2, [r3, #12]
1226:./Libraries/STM32H7xx_HAL_Driver/Src/stm32h7xx_hal_jpeg.c **** 
1227:./Libraries/STM32H7xx_HAL_Driver/Src/stm32h7xx_hal_jpeg.c **** 
1228:./Libraries/STM32H7xx_HAL_Driver/Src/stm32h7xx_hal_jpeg.c ****       if (hjpeg->Conf.ChromaSubsampling == JPEG_420_SUBSAMPLING) /* 4:2:0*/
 876              		.loc 1 1228 22
 877 0280 7B68     		ldr	r3, [r7, #4]
 878 0282 9B68     		ldr	r3, [r3, #8]
 879              		.loc 1 1228 10
 880 0284 012B     		cmp	r3, #1
 881 0286 04D1     		bne	.L23
1229:./Libraries/STM32H7xx_HAL_Driver/Src/stm32h7xx_hal_jpeg.c ****       {
1230:./Libraries/STM32H7xx_HAL_Driver/Src/stm32h7xx_hal_jpeg.c ****         hfactor = 16;
 882              		.loc 1 1230 17
 883 0288 1023     		movs	r3, #16
 884 028a BB61     		str	r3, [r7, #24]
1231:./Libraries/STM32H7xx_HAL_Driver/Src/stm32h7xx_hal_jpeg.c ****         vfactor = 16;
 885              		.loc 1 1231 17
 886 028c 1023     		movs	r3, #16
 887 028e 7B61     		str	r3, [r7, #20]
 888 0290 0CE0     		b	.L24
 889              	.L23:
1232:./Libraries/STM32H7xx_HAL_Driver/Src/stm32h7xx_hal_jpeg.c ****       }
1233:./Libraries/STM32H7xx_HAL_Driver/Src/stm32h7xx_hal_jpeg.c ****       else if (hjpeg->Conf.ChromaSubsampling == JPEG_422_SUBSAMPLING) /* 4:2:2*/
 890              		.loc 1 1233 27
 891 0292 7B68     		ldr	r3, [r7, #4]
 892 0294 9B68     		ldr	r3, [r3, #8]
 893              		.loc 1 1233 15
 894 0296 022B     		cmp	r3, #2
 895 0298 04D1     		bne	.L25
1234:./Libraries/STM32H7xx_HAL_Driver/Src/stm32h7xx_hal_jpeg.c ****       {
1235:./Libraries/STM32H7xx_HAL_Driver/Src/stm32h7xx_hal_jpeg.c ****         hfactor = 16;
 896              		.loc 1 1235 17
 897 029a 1023     		movs	r3, #16
 898 029c BB61     		str	r3, [r7, #24]
1236:./Libraries/STM32H7xx_HAL_Driver/Src/stm32h7xx_hal_jpeg.c ****         vfactor = 8;
 899              		.loc 1 1236 17
 900 029e 0823     		movs	r3, #8
 901 02a0 7B61     		str	r3, [r7, #20]
 902 02a2 03E0     		b	.L24
 903              	.L25:
1237:./Libraries/STM32H7xx_HAL_Driver/Src/stm32h7xx_hal_jpeg.c ****       }
1238:./Libraries/STM32H7xx_HAL_Driver/Src/stm32h7xx_hal_jpeg.c ****       else /* Default is 8x8 MCU,  4:4:4*/
1239:./Libraries/STM32H7xx_HAL_Driver/Src/stm32h7xx_hal_jpeg.c ****       {
1240:./Libraries/STM32H7xx_HAL_Driver/Src/stm32h7xx_hal_jpeg.c ****         hfactor = 8;
 904              		.loc 1 1240 17
 905 02a4 0823     		movs	r3, #8
 906 02a6 BB61     		str	r3, [r7, #24]
1241:./Libraries/STM32H7xx_HAL_Driver/Src/stm32h7xx_hal_jpeg.c ****         vfactor = 8;
 907              		.loc 1 1241 17
 908 02a8 0823     		movs	r3, #8
 909 02aa 7B61     		str	r3, [r7, #20]
 910              	.L24:
1242:./Libraries/STM32H7xx_HAL_Driver/Src/stm32h7xx_hal_jpeg.c ****       }
1243:./Libraries/STM32H7xx_HAL_Driver/Src/stm32h7xx_hal_jpeg.c **** 
ARM GAS  /tmp/ccXFtjVt.s 			page 40


1244:./Libraries/STM32H7xx_HAL_Driver/Src/stm32h7xx_hal_jpeg.c ****       hMCU = (hjpeg->Conf.ImageWidth / hfactor);
 911              		.loc 1 1244 26
 912 02ac 7B68     		ldr	r3, [r7, #4]
 913 02ae 1A69     		ldr	r2, [r3, #16]
 914              		.loc 1 1244 12
 915 02b0 BB69     		ldr	r3, [r7, #24]
 916 02b2 B2FBF3F3 		udiv	r3, r2, r3
 917 02b6 3B61     		str	r3, [r7, #16]
1245:./Libraries/STM32H7xx_HAL_Driver/Src/stm32h7xx_hal_jpeg.c ****       if ((hjpeg->Conf.ImageWidth % hfactor) != 0UL)
 918              		.loc 1 1245 23
 919 02b8 7B68     		ldr	r3, [r7, #4]
 920 02ba 1B69     		ldr	r3, [r3, #16]
 921              		.loc 1 1245 35
 922 02bc BA69     		ldr	r2, [r7, #24]
 923 02be B3FBF2F2 		udiv	r2, r3, r2
 924 02c2 B969     		ldr	r1, [r7, #24]
 925 02c4 01FB02F2 		mul	r2, r1, r2
 926 02c8 9B1A     		subs	r3, r3, r2
 927              		.loc 1 1245 10
 928 02ca 002B     		cmp	r3, #0
 929 02cc 02D0     		beq	.L26
1246:./Libraries/STM32H7xx_HAL_Driver/Src/stm32h7xx_hal_jpeg.c ****       {
1247:./Libraries/STM32H7xx_HAL_Driver/Src/stm32h7xx_hal_jpeg.c ****         hMCU++; /*+1 for horizontal incomplete MCU */
 930              		.loc 1 1247 13
 931 02ce 3B69     		ldr	r3, [r7, #16]
 932 02d0 0133     		adds	r3, r3, #1
 933 02d2 3B61     		str	r3, [r7, #16]
 934              	.L26:
1248:./Libraries/STM32H7xx_HAL_Driver/Src/stm32h7xx_hal_jpeg.c ****       }
1249:./Libraries/STM32H7xx_HAL_Driver/Src/stm32h7xx_hal_jpeg.c **** 
1250:./Libraries/STM32H7xx_HAL_Driver/Src/stm32h7xx_hal_jpeg.c ****       vMCU = (hjpeg->Conf.ImageHeight / vfactor);
 935              		.loc 1 1250 26
 936 02d4 7B68     		ldr	r3, [r7, #4]
 937 02d6 DA68     		ldr	r2, [r3, #12]
 938              		.loc 1 1250 12
 939 02d8 7B69     		ldr	r3, [r7, #20]
 940 02da B2FBF3F3 		udiv	r3, r2, r3
 941 02de FB60     		str	r3, [r7, #12]
1251:./Libraries/STM32H7xx_HAL_Driver/Src/stm32h7xx_hal_jpeg.c ****       if ((hjpeg->Conf.ImageHeight % vfactor) != 0UL)
 942              		.loc 1 1251 23
 943 02e0 7B68     		ldr	r3, [r7, #4]
 944 02e2 DB68     		ldr	r3, [r3, #12]
 945              		.loc 1 1251 36
 946 02e4 7A69     		ldr	r2, [r7, #20]
 947 02e6 B3FBF2F2 		udiv	r2, r3, r2
 948 02ea 7969     		ldr	r1, [r7, #20]
 949 02ec 01FB02F2 		mul	r2, r1, r2
 950 02f0 9B1A     		subs	r3, r3, r2
 951              		.loc 1 1251 10
 952 02f2 002B     		cmp	r3, #0
 953 02f4 02D0     		beq	.L27
1252:./Libraries/STM32H7xx_HAL_Driver/Src/stm32h7xx_hal_jpeg.c ****       {
1253:./Libraries/STM32H7xx_HAL_Driver/Src/stm32h7xx_hal_jpeg.c ****         vMCU++; /*+1 for vertical incomplete MCU */
 954              		.loc 1 1253 13
 955 02f6 FB68     		ldr	r3, [r7, #12]
 956 02f8 0133     		adds	r3, r3, #1
 957 02fa FB60     		str	r3, [r7, #12]
ARM GAS  /tmp/ccXFtjVt.s 			page 41


 958              	.L27:
1254:./Libraries/STM32H7xx_HAL_Driver/Src/stm32h7xx_hal_jpeg.c ****       }
1255:./Libraries/STM32H7xx_HAL_Driver/Src/stm32h7xx_hal_jpeg.c **** 
1256:./Libraries/STM32H7xx_HAL_Driver/Src/stm32h7xx_hal_jpeg.c ****       numberMCU = (hMCU * vMCU) - 1UL; /* Bit Field JPEG_CONFR2_NMCU shall be set to NB_MCU - 1*/
 959              		.loc 1 1256 25
 960 02fc 3B69     		ldr	r3, [r7, #16]
 961 02fe FA68     		ldr	r2, [r7, #12]
 962 0300 02FB03F3 		mul	r3, r2, r3
 963              		.loc 1 1256 17
 964 0304 013B     		subs	r3, r3, #1
 965 0306 BB60     		str	r3, [r7, #8]
1257:./Libraries/STM32H7xx_HAL_Driver/Src/stm32h7xx_hal_jpeg.c ****       /* Set the number of MCU*/
1258:./Libraries/STM32H7xx_HAL_Driver/Src/stm32h7xx_hal_jpeg.c ****       hjpeg->Instance->CONFR2 = (numberMCU & JPEG_CONFR2_NMCU);
 966              		.loc 1 1258 12
 967 0308 7B68     		ldr	r3, [r7, #4]
 968 030a 1B68     		ldr	r3, [r3]
 969              		.loc 1 1258 44
 970 030c BA68     		ldr	r2, [r7, #8]
 971 030e 22F07C42 		bic	r2, r2, #-67108864
 972              		.loc 1 1258 31
 973 0312 9A60     		str	r2, [r3, #8]
1259:./Libraries/STM32H7xx_HAL_Driver/Src/stm32h7xx_hal_jpeg.c **** 
1260:./Libraries/STM32H7xx_HAL_Driver/Src/stm32h7xx_hal_jpeg.c ****       hjpeg->Context |= JPEG_CONTEXT_CONF_ENCODING;
 974              		.loc 1 1260 22
 975 0314 7B68     		ldr	r3, [r7, #4]
 976 0316 5B6D     		ldr	r3, [r3, #84]
 977 0318 43F48072 		orr	r2, r3, #256
 978 031c 7B68     		ldr	r3, [r7, #4]
 979 031e 5A65     		str	r2, [r3, #84]
1261:./Libraries/STM32H7xx_HAL_Driver/Src/stm32h7xx_hal_jpeg.c **** 
1262:./Libraries/STM32H7xx_HAL_Driver/Src/stm32h7xx_hal_jpeg.c ****       /* Process Unlocked */
1263:./Libraries/STM32H7xx_HAL_Driver/Src/stm32h7xx_hal_jpeg.c ****       __HAL_UNLOCK(hjpeg);
 980              		.loc 1 1263 7
 981 0320 7B68     		ldr	r3, [r7, #4]
 982 0322 0022     		movs	r2, #0
 983 0324 83F84C20 		strb	r2, [r3, #76]
1264:./Libraries/STM32H7xx_HAL_Driver/Src/stm32h7xx_hal_jpeg.c **** 
1265:./Libraries/STM32H7xx_HAL_Driver/Src/stm32h7xx_hal_jpeg.c ****       /* Set the JPEG State to ready */
1266:./Libraries/STM32H7xx_HAL_Driver/Src/stm32h7xx_hal_jpeg.c ****       hjpeg->State = HAL_JPEG_STATE_READY;
 984              		.loc 1 1266 20
 985 0328 7B68     		ldr	r3, [r7, #4]
 986 032a 0122     		movs	r2, #1
 987 032c 83F84D20 		strb	r2, [r3, #77]
1267:./Libraries/STM32H7xx_HAL_Driver/Src/stm32h7xx_hal_jpeg.c **** 
1268:./Libraries/STM32H7xx_HAL_Driver/Src/stm32h7xx_hal_jpeg.c ****       /* Return function status */
1269:./Libraries/STM32H7xx_HAL_Driver/Src/stm32h7xx_hal_jpeg.c ****       return HAL_OK;
 988              		.loc 1 1269 14
 989 0330 0023     		movs	r3, #0
 990 0332 04E0     		b	.L16
 991              	.L18:
1270:./Libraries/STM32H7xx_HAL_Driver/Src/stm32h7xx_hal_jpeg.c ****     }
1271:./Libraries/STM32H7xx_HAL_Driver/Src/stm32h7xx_hal_jpeg.c ****     else
1272:./Libraries/STM32H7xx_HAL_Driver/Src/stm32h7xx_hal_jpeg.c ****     {
1273:./Libraries/STM32H7xx_HAL_Driver/Src/stm32h7xx_hal_jpeg.c ****       /* Process Unlocked */
1274:./Libraries/STM32H7xx_HAL_Driver/Src/stm32h7xx_hal_jpeg.c ****       __HAL_UNLOCK(hjpeg);
 992              		.loc 1 1274 7
 993 0334 7B68     		ldr	r3, [r7, #4]
ARM GAS  /tmp/ccXFtjVt.s 			page 42


 994 0336 0022     		movs	r2, #0
 995 0338 83F84C20 		strb	r2, [r3, #76]
1275:./Libraries/STM32H7xx_HAL_Driver/Src/stm32h7xx_hal_jpeg.c **** 
1276:./Libraries/STM32H7xx_HAL_Driver/Src/stm32h7xx_hal_jpeg.c ****       /* Return function status */
1277:./Libraries/STM32H7xx_HAL_Driver/Src/stm32h7xx_hal_jpeg.c ****       return HAL_BUSY;
 996              		.loc 1 1277 14
 997 033c 0223     		movs	r3, #2
 998              	.L16:
1278:./Libraries/STM32H7xx_HAL_Driver/Src/stm32h7xx_hal_jpeg.c ****     }
1279:./Libraries/STM32H7xx_HAL_Driver/Src/stm32h7xx_hal_jpeg.c ****   }
1280:./Libraries/STM32H7xx_HAL_Driver/Src/stm32h7xx_hal_jpeg.c **** }
 999              		.loc 1 1280 1
 1000 033e 1846     		mov	r0, r3
 1001 0340 2037     		adds	r7, r7, #32
 1002              	.LCFI25:
 1003              		.cfi_def_cfa_offset 8
 1004 0342 BD46     		mov	sp, r7
 1005              	.LCFI26:
 1006              		.cfi_def_cfa_register 13
 1007              		@ sp needed
 1008 0344 80BD     		pop	{r7, pc}
 1009              		.cfi_endproc
 1010              	.LFE335:
 1012              		.section	.text.HAL_JPEG_GetInfo,"ax",%progbits
 1013              		.align	1
 1014              		.global	HAL_JPEG_GetInfo
 1015              		.syntax unified
 1016              		.thumb
 1017              		.thumb_func
 1018              		.fpu fpv5-d16
 1020              	HAL_JPEG_GetInfo:
 1021              	.LFB336:
1281:./Libraries/STM32H7xx_HAL_Driver/Src/stm32h7xx_hal_jpeg.c **** 
1282:./Libraries/STM32H7xx_HAL_Driver/Src/stm32h7xx_hal_jpeg.c **** /**
1283:./Libraries/STM32H7xx_HAL_Driver/Src/stm32h7xx_hal_jpeg.c ****   * @brief  Extract the image configuration from the JPEG header during the decoding
1284:./Libraries/STM32H7xx_HAL_Driver/Src/stm32h7xx_hal_jpeg.c ****   * @param  hjpeg pointer to a JPEG_HandleTypeDef structure that contains
1285:./Libraries/STM32H7xx_HAL_Driver/Src/stm32h7xx_hal_jpeg.c ****   *         the configuration information for JPEG module
1286:./Libraries/STM32H7xx_HAL_Driver/Src/stm32h7xx_hal_jpeg.c ****   * @param  pInfo pointer to a JPEG_ConfTypeDef structure that contains
1287:./Libraries/STM32H7xx_HAL_Driver/Src/stm32h7xx_hal_jpeg.c ****   *         The JPEG decoded header information
1288:./Libraries/STM32H7xx_HAL_Driver/Src/stm32h7xx_hal_jpeg.c ****   * @retval HAL status
1289:./Libraries/STM32H7xx_HAL_Driver/Src/stm32h7xx_hal_jpeg.c ****   */
1290:./Libraries/STM32H7xx_HAL_Driver/Src/stm32h7xx_hal_jpeg.c **** HAL_StatusTypeDef HAL_JPEG_GetInfo(JPEG_HandleTypeDef *hjpeg, JPEG_ConfTypeDef *pInfo)
1291:./Libraries/STM32H7xx_HAL_Driver/Src/stm32h7xx_hal_jpeg.c **** {
 1022              		.loc 1 1291 1
 1023              		.cfi_startproc
 1024              		@ args = 0, pretend = 0, frame = 24
 1025              		@ frame_needed = 1, uses_anonymous_args = 0
 1026 0000 80B5     		push	{r7, lr}
 1027              	.LCFI27:
 1028              		.cfi_def_cfa_offset 8
 1029              		.cfi_offset 7, -8
 1030              		.cfi_offset 14, -4
 1031 0002 86B0     		sub	sp, sp, #24
 1032              	.LCFI28:
 1033              		.cfi_def_cfa_offset 32
 1034 0004 00AF     		add	r7, sp, #0
 1035              	.LCFI29:
ARM GAS  /tmp/ccXFtjVt.s 			page 43


 1036              		.cfi_def_cfa_register 7
 1037 0006 7860     		str	r0, [r7, #4]
 1038 0008 3960     		str	r1, [r7]
1292:./Libraries/STM32H7xx_HAL_Driver/Src/stm32h7xx_hal_jpeg.c ****   uint32_t yblockNb;
1293:./Libraries/STM32H7xx_HAL_Driver/Src/stm32h7xx_hal_jpeg.c ****   uint32_t cBblockNb;
1294:./Libraries/STM32H7xx_HAL_Driver/Src/stm32h7xx_hal_jpeg.c ****   uint32_t cRblockNb;
1295:./Libraries/STM32H7xx_HAL_Driver/Src/stm32h7xx_hal_jpeg.c **** 
1296:./Libraries/STM32H7xx_HAL_Driver/Src/stm32h7xx_hal_jpeg.c ****   /* Check the JPEG handle allocation */
1297:./Libraries/STM32H7xx_HAL_Driver/Src/stm32h7xx_hal_jpeg.c ****   if ((hjpeg == NULL) || (pInfo == NULL))
 1039              		.loc 1 1297 6
 1040 000a 7B68     		ldr	r3, [r7, #4]
 1041 000c 002B     		cmp	r3, #0
 1042 000e 02D0     		beq	.L29
 1043              		.loc 1 1297 23 discriminator 1
 1044 0010 3B68     		ldr	r3, [r7]
 1045 0012 002B     		cmp	r3, #0
 1046 0014 01D1     		bne	.L30
 1047              	.L29:
1298:./Libraries/STM32H7xx_HAL_Driver/Src/stm32h7xx_hal_jpeg.c ****   {
1299:./Libraries/STM32H7xx_HAL_Driver/Src/stm32h7xx_hal_jpeg.c ****     return HAL_ERROR;
 1048              		.loc 1 1299 12
 1049 0016 0123     		movs	r3, #1
 1050 0018 83E0     		b	.L31
 1051              	.L30:
1300:./Libraries/STM32H7xx_HAL_Driver/Src/stm32h7xx_hal_jpeg.c ****   }
1301:./Libraries/STM32H7xx_HAL_Driver/Src/stm32h7xx_hal_jpeg.c **** 
1302:./Libraries/STM32H7xx_HAL_Driver/Src/stm32h7xx_hal_jpeg.c ****   /*Read the conf parameters */
1303:./Libraries/STM32H7xx_HAL_Driver/Src/stm32h7xx_hal_jpeg.c ****   if ((hjpeg->Instance->CONFR1 & JPEG_CONFR1_NF) == JPEG_CONFR1_NF_1)
 1052              		.loc 1 1303 13
 1053 001a 7B68     		ldr	r3, [r7, #4]
 1054 001c 1B68     		ldr	r3, [r3]
 1055              		.loc 1 1303 23
 1056 001e 5B68     		ldr	r3, [r3, #4]
 1057              		.loc 1 1303 32
 1058 0020 03F00303 		and	r3, r3, #3
 1059              		.loc 1 1303 6
 1060 0024 022B     		cmp	r3, #2
 1061 0026 03D1     		bne	.L32
1304:./Libraries/STM32H7xx_HAL_Driver/Src/stm32h7xx_hal_jpeg.c ****   {
1305:./Libraries/STM32H7xx_HAL_Driver/Src/stm32h7xx_hal_jpeg.c ****     pInfo->ColorSpace = JPEG_YCBCR_COLORSPACE;
 1062              		.loc 1 1305 23
 1063 0028 3B68     		ldr	r3, [r7]
 1064 002a 1022     		movs	r2, #16
 1065 002c 1A60     		str	r2, [r3]
 1066 002e 17E0     		b	.L33
 1067              	.L32:
1306:./Libraries/STM32H7xx_HAL_Driver/Src/stm32h7xx_hal_jpeg.c ****   }
1307:./Libraries/STM32H7xx_HAL_Driver/Src/stm32h7xx_hal_jpeg.c ****   else if ((hjpeg->Instance->CONFR1 & JPEG_CONFR1_NF) == 0UL)
 1068              		.loc 1 1307 18
 1069 0030 7B68     		ldr	r3, [r7, #4]
 1070 0032 1B68     		ldr	r3, [r3]
 1071              		.loc 1 1307 28
 1072 0034 5B68     		ldr	r3, [r3, #4]
 1073              		.loc 1 1307 37
 1074 0036 03F00303 		and	r3, r3, #3
 1075              		.loc 1 1307 11
 1076 003a 002B     		cmp	r3, #0
ARM GAS  /tmp/ccXFtjVt.s 			page 44


 1077 003c 03D1     		bne	.L34
1308:./Libraries/STM32H7xx_HAL_Driver/Src/stm32h7xx_hal_jpeg.c ****   {
1309:./Libraries/STM32H7xx_HAL_Driver/Src/stm32h7xx_hal_jpeg.c ****     pInfo->ColorSpace = JPEG_GRAYSCALE_COLORSPACE;
 1078              		.loc 1 1309 23
 1079 003e 3B68     		ldr	r3, [r7]
 1080 0040 0022     		movs	r2, #0
 1081 0042 1A60     		str	r2, [r3]
 1082 0044 0CE0     		b	.L33
 1083              	.L34:
1310:./Libraries/STM32H7xx_HAL_Driver/Src/stm32h7xx_hal_jpeg.c ****   }
1311:./Libraries/STM32H7xx_HAL_Driver/Src/stm32h7xx_hal_jpeg.c ****   else if ((hjpeg->Instance->CONFR1 & JPEG_CONFR1_NF) == JPEG_CONFR1_NF)
 1084              		.loc 1 1311 18
 1085 0046 7B68     		ldr	r3, [r7, #4]
 1086 0048 1B68     		ldr	r3, [r3]
 1087              		.loc 1 1311 28
 1088 004a 5B68     		ldr	r3, [r3, #4]
 1089              		.loc 1 1311 37
 1090 004c 03F00303 		and	r3, r3, #3
 1091              		.loc 1 1311 11
 1092 0050 032B     		cmp	r3, #3
 1093 0052 03D1     		bne	.L35
1312:./Libraries/STM32H7xx_HAL_Driver/Src/stm32h7xx_hal_jpeg.c ****   {
1313:./Libraries/STM32H7xx_HAL_Driver/Src/stm32h7xx_hal_jpeg.c ****     pInfo->ColorSpace = JPEG_CMYK_COLORSPACE;
 1094              		.loc 1 1313 23
 1095 0054 3B68     		ldr	r3, [r7]
 1096 0056 3022     		movs	r2, #48
 1097 0058 1A60     		str	r2, [r3]
 1098 005a 01E0     		b	.L33
 1099              	.L35:
1314:./Libraries/STM32H7xx_HAL_Driver/Src/stm32h7xx_hal_jpeg.c ****   }
1315:./Libraries/STM32H7xx_HAL_Driver/Src/stm32h7xx_hal_jpeg.c ****   else
1316:./Libraries/STM32H7xx_HAL_Driver/Src/stm32h7xx_hal_jpeg.c ****   {
1317:./Libraries/STM32H7xx_HAL_Driver/Src/stm32h7xx_hal_jpeg.c ****     return HAL_ERROR;
 1100              		.loc 1 1317 12
 1101 005c 0123     		movs	r3, #1
 1102 005e 60E0     		b	.L31
 1103              	.L33:
1318:./Libraries/STM32H7xx_HAL_Driver/Src/stm32h7xx_hal_jpeg.c ****   }
1319:./Libraries/STM32H7xx_HAL_Driver/Src/stm32h7xx_hal_jpeg.c **** 
1320:./Libraries/STM32H7xx_HAL_Driver/Src/stm32h7xx_hal_jpeg.c ****   pInfo->ImageHeight = (hjpeg->Instance->CONFR1 & 0xFFFF0000UL) >> 16;
 1104              		.loc 1 1320 30
 1105 0060 7B68     		ldr	r3, [r7, #4]
 1106 0062 1B68     		ldr	r3, [r3]
 1107              		.loc 1 1320 40
 1108 0064 5B68     		ldr	r3, [r3, #4]
 1109              		.loc 1 1320 65
 1110 0066 1B0C     		lsrs	r3, r3, #16
 1111 0068 9AB2     		uxth	r2, r3
 1112              		.loc 1 1320 22
 1113 006a 3B68     		ldr	r3, [r7]
 1114 006c 9A60     		str	r2, [r3, #8]
1321:./Libraries/STM32H7xx_HAL_Driver/Src/stm32h7xx_hal_jpeg.c ****   pInfo->ImageWidth  = (hjpeg->Instance->CONFR3 & 0xFFFF0000UL) >> 16;
 1115              		.loc 1 1321 30
 1116 006e 7B68     		ldr	r3, [r7, #4]
 1117 0070 1B68     		ldr	r3, [r3]
 1118              		.loc 1 1321 40
 1119 0072 DB68     		ldr	r3, [r3, #12]
ARM GAS  /tmp/ccXFtjVt.s 			page 45


 1120              		.loc 1 1321 65
 1121 0074 1B0C     		lsrs	r3, r3, #16
 1122 0076 9AB2     		uxth	r2, r3
 1123              		.loc 1 1321 22
 1124 0078 3B68     		ldr	r3, [r7]
 1125 007a DA60     		str	r2, [r3, #12]
1322:./Libraries/STM32H7xx_HAL_Driver/Src/stm32h7xx_hal_jpeg.c **** 
1323:./Libraries/STM32H7xx_HAL_Driver/Src/stm32h7xx_hal_jpeg.c ****   if ((pInfo->ColorSpace == JPEG_YCBCR_COLORSPACE) || (pInfo->ColorSpace == JPEG_CMYK_COLORSPACE))
 1126              		.loc 1 1323 13
 1127 007c 3B68     		ldr	r3, [r7]
 1128 007e 1B68     		ldr	r3, [r3]
 1129              		.loc 1 1323 6
 1130 0080 102B     		cmp	r3, #16
 1131 0082 03D0     		beq	.L36
 1132              		.loc 1 1323 61 discriminator 1
 1133 0084 3B68     		ldr	r3, [r7]
 1134 0086 1B68     		ldr	r3, [r3]
 1135              		.loc 1 1323 52 discriminator 1
 1136 0088 302B     		cmp	r3, #48
 1137 008a 40D1     		bne	.L37
 1138              	.L36:
1324:./Libraries/STM32H7xx_HAL_Driver/Src/stm32h7xx_hal_jpeg.c ****   {
1325:./Libraries/STM32H7xx_HAL_Driver/Src/stm32h7xx_hal_jpeg.c ****     yblockNb  = (hjpeg->Instance->CONFR4 & JPEG_CONFR4_NB) >> 4;
 1139              		.loc 1 1325 23
 1140 008c 7B68     		ldr	r3, [r7, #4]
 1141 008e 1B68     		ldr	r3, [r3]
 1142              		.loc 1 1325 33
 1143 0090 1B69     		ldr	r3, [r3, #16]
 1144              		.loc 1 1325 60
 1145 0092 1B09     		lsrs	r3, r3, #4
 1146              		.loc 1 1325 15
 1147 0094 03F00F03 		and	r3, r3, #15
 1148 0098 7B61     		str	r3, [r7, #20]
1326:./Libraries/STM32H7xx_HAL_Driver/Src/stm32h7xx_hal_jpeg.c ****     cBblockNb = (hjpeg->Instance->CONFR5 & JPEG_CONFR5_NB) >> 4;
 1149              		.loc 1 1326 23
 1150 009a 7B68     		ldr	r3, [r7, #4]
 1151 009c 1B68     		ldr	r3, [r3]
 1152              		.loc 1 1326 33
 1153 009e 5B69     		ldr	r3, [r3, #20]
 1154              		.loc 1 1326 60
 1155 00a0 1B09     		lsrs	r3, r3, #4
 1156              		.loc 1 1326 15
 1157 00a2 03F00F03 		and	r3, r3, #15
 1158 00a6 3B61     		str	r3, [r7, #16]
1327:./Libraries/STM32H7xx_HAL_Driver/Src/stm32h7xx_hal_jpeg.c ****     cRblockNb = (hjpeg->Instance->CONFR6 & JPEG_CONFR6_NB) >> 4;
 1159              		.loc 1 1327 23
 1160 00a8 7B68     		ldr	r3, [r7, #4]
 1161 00aa 1B68     		ldr	r3, [r3]
 1162              		.loc 1 1327 33
 1163 00ac 9B69     		ldr	r3, [r3, #24]
 1164              		.loc 1 1327 60
 1165 00ae 1B09     		lsrs	r3, r3, #4
 1166              		.loc 1 1327 15
 1167 00b0 03F00F03 		and	r3, r3, #15
 1168 00b4 FB60     		str	r3, [r7, #12]
1328:./Libraries/STM32H7xx_HAL_Driver/Src/stm32h7xx_hal_jpeg.c **** 
1329:./Libraries/STM32H7xx_HAL_Driver/Src/stm32h7xx_hal_jpeg.c ****     if ((yblockNb == 1UL) && (cBblockNb == 0UL) && (cRblockNb == 0UL))
ARM GAS  /tmp/ccXFtjVt.s 			page 46


 1169              		.loc 1 1329 8
 1170 00b6 7B69     		ldr	r3, [r7, #20]
 1171 00b8 012B     		cmp	r3, #1
 1172 00ba 09D1     		bne	.L38
 1173              		.loc 1 1329 27 discriminator 1
 1174 00bc 3B69     		ldr	r3, [r7, #16]
 1175 00be 002B     		cmp	r3, #0
 1176 00c0 06D1     		bne	.L38
 1177              		.loc 1 1329 49 discriminator 2
 1178 00c2 FB68     		ldr	r3, [r7, #12]
 1179 00c4 002B     		cmp	r3, #0
 1180 00c6 03D1     		bne	.L38
1330:./Libraries/STM32H7xx_HAL_Driver/Src/stm32h7xx_hal_jpeg.c ****     {
1331:./Libraries/STM32H7xx_HAL_Driver/Src/stm32h7xx_hal_jpeg.c ****       pInfo->ChromaSubsampling = JPEG_422_SUBSAMPLING; /*16x8 block*/
 1181              		.loc 1 1331 32
 1182 00c8 3B68     		ldr	r3, [r7]
 1183 00ca 0222     		movs	r2, #2
 1184 00cc 5A60     		str	r2, [r3, #4]
 1185 00ce 1DE0     		b	.L39
 1186              	.L38:
1332:./Libraries/STM32H7xx_HAL_Driver/Src/stm32h7xx_hal_jpeg.c ****     }
1333:./Libraries/STM32H7xx_HAL_Driver/Src/stm32h7xx_hal_jpeg.c ****     else if ((yblockNb == 0UL) && (cBblockNb == 0UL) && (cRblockNb == 0UL))
 1187              		.loc 1 1333 13
 1188 00d0 7B69     		ldr	r3, [r7, #20]
 1189 00d2 002B     		cmp	r3, #0
 1190 00d4 09D1     		bne	.L40
 1191              		.loc 1 1333 32 discriminator 1
 1192 00d6 3B69     		ldr	r3, [r7, #16]
 1193 00d8 002B     		cmp	r3, #0
 1194 00da 06D1     		bne	.L40
 1195              		.loc 1 1333 54 discriminator 2
 1196 00dc FB68     		ldr	r3, [r7, #12]
 1197 00de 002B     		cmp	r3, #0
 1198 00e0 03D1     		bne	.L40
1334:./Libraries/STM32H7xx_HAL_Driver/Src/stm32h7xx_hal_jpeg.c ****     {
1335:./Libraries/STM32H7xx_HAL_Driver/Src/stm32h7xx_hal_jpeg.c ****       pInfo->ChromaSubsampling = JPEG_444_SUBSAMPLING;
 1199              		.loc 1 1335 32
 1200 00e2 3B68     		ldr	r3, [r7]
 1201 00e4 0022     		movs	r2, #0
 1202 00e6 5A60     		str	r2, [r3, #4]
 1203 00e8 10E0     		b	.L39
 1204              	.L40:
1336:./Libraries/STM32H7xx_HAL_Driver/Src/stm32h7xx_hal_jpeg.c ****     }
1337:./Libraries/STM32H7xx_HAL_Driver/Src/stm32h7xx_hal_jpeg.c ****     else if ((yblockNb == 3UL) && (cBblockNb == 0UL) && (cRblockNb == 0UL))
 1205              		.loc 1 1337 13
 1206 00ea 7B69     		ldr	r3, [r7, #20]
 1207 00ec 032B     		cmp	r3, #3
 1208 00ee 09D1     		bne	.L41
 1209              		.loc 1 1337 32 discriminator 1
 1210 00f0 3B69     		ldr	r3, [r7, #16]
 1211 00f2 002B     		cmp	r3, #0
 1212 00f4 06D1     		bne	.L41
 1213              		.loc 1 1337 54 discriminator 2
 1214 00f6 FB68     		ldr	r3, [r7, #12]
 1215 00f8 002B     		cmp	r3, #0
 1216 00fa 03D1     		bne	.L41
1338:./Libraries/STM32H7xx_HAL_Driver/Src/stm32h7xx_hal_jpeg.c ****     {
ARM GAS  /tmp/ccXFtjVt.s 			page 47


1339:./Libraries/STM32H7xx_HAL_Driver/Src/stm32h7xx_hal_jpeg.c ****       pInfo->ChromaSubsampling = JPEG_420_SUBSAMPLING;
 1217              		.loc 1 1339 32
 1218 00fc 3B68     		ldr	r3, [r7]
 1219 00fe 0122     		movs	r2, #1
 1220 0100 5A60     		str	r2, [r3, #4]
 1221 0102 03E0     		b	.L39
 1222              	.L41:
1340:./Libraries/STM32H7xx_HAL_Driver/Src/stm32h7xx_hal_jpeg.c ****     }
1341:./Libraries/STM32H7xx_HAL_Driver/Src/stm32h7xx_hal_jpeg.c ****     else /*Default is 4:4:4*/
1342:./Libraries/STM32H7xx_HAL_Driver/Src/stm32h7xx_hal_jpeg.c ****     {
1343:./Libraries/STM32H7xx_HAL_Driver/Src/stm32h7xx_hal_jpeg.c ****       pInfo->ChromaSubsampling = JPEG_444_SUBSAMPLING;
 1223              		.loc 1 1343 32
 1224 0104 3B68     		ldr	r3, [r7]
 1225 0106 0022     		movs	r2, #0
 1226 0108 5A60     		str	r2, [r3, #4]
1329:./Libraries/STM32H7xx_HAL_Driver/Src/stm32h7xx_hal_jpeg.c ****     {
 1227              		.loc 1 1329 8
 1228 010a 03E0     		b	.L42
 1229              	.L39:
 1230 010c 02E0     		b	.L42
 1231              	.L37:
1344:./Libraries/STM32H7xx_HAL_Driver/Src/stm32h7xx_hal_jpeg.c ****     }
1345:./Libraries/STM32H7xx_HAL_Driver/Src/stm32h7xx_hal_jpeg.c ****   }
1346:./Libraries/STM32H7xx_HAL_Driver/Src/stm32h7xx_hal_jpeg.c ****   else
1347:./Libraries/STM32H7xx_HAL_Driver/Src/stm32h7xx_hal_jpeg.c ****   {
1348:./Libraries/STM32H7xx_HAL_Driver/Src/stm32h7xx_hal_jpeg.c ****     pInfo->ChromaSubsampling = JPEG_444_SUBSAMPLING;
 1232              		.loc 1 1348 30
 1233 010e 3B68     		ldr	r3, [r7]
 1234 0110 0022     		movs	r2, #0
 1235 0112 5A60     		str	r2, [r3, #4]
 1236              	.L42:
1349:./Libraries/STM32H7xx_HAL_Driver/Src/stm32h7xx_hal_jpeg.c ****   }
1350:./Libraries/STM32H7xx_HAL_Driver/Src/stm32h7xx_hal_jpeg.c **** 
1351:./Libraries/STM32H7xx_HAL_Driver/Src/stm32h7xx_hal_jpeg.c ****   pInfo->ImageQuality = JPEG_GetQuality(hjpeg);
 1237              		.loc 1 1351 25
 1238 0114 7868     		ldr	r0, [r7, #4]
 1239 0116 FFF7FEFF 		bl	JPEG_GetQuality
 1240 011a 0246     		mov	r2, r0
 1241              		.loc 1 1351 23
 1242 011c 3B68     		ldr	r3, [r7]
 1243 011e 1A61     		str	r2, [r3, #16]
1352:./Libraries/STM32H7xx_HAL_Driver/Src/stm32h7xx_hal_jpeg.c **** 
1353:./Libraries/STM32H7xx_HAL_Driver/Src/stm32h7xx_hal_jpeg.c ****   /* Return function status */
1354:./Libraries/STM32H7xx_HAL_Driver/Src/stm32h7xx_hal_jpeg.c ****   return HAL_OK;
 1244              		.loc 1 1354 10
 1245 0120 0023     		movs	r3, #0
 1246              	.L31:
1355:./Libraries/STM32H7xx_HAL_Driver/Src/stm32h7xx_hal_jpeg.c **** }
 1247              		.loc 1 1355 1
 1248 0122 1846     		mov	r0, r3
 1249 0124 1837     		adds	r7, r7, #24
 1250              	.LCFI30:
 1251              		.cfi_def_cfa_offset 8
 1252 0126 BD46     		mov	sp, r7
 1253              	.LCFI31:
 1254              		.cfi_def_cfa_register 13
 1255              		@ sp needed
ARM GAS  /tmp/ccXFtjVt.s 			page 48


 1256 0128 80BD     		pop	{r7, pc}
 1257              		.cfi_endproc
 1258              	.LFE336:
 1260              		.section	.text.HAL_JPEG_EnableHeaderParsing,"ax",%progbits
 1261              		.align	1
 1262              		.global	HAL_JPEG_EnableHeaderParsing
 1263              		.syntax unified
 1264              		.thumb
 1265              		.thumb_func
 1266              		.fpu fpv5-d16
 1268              	HAL_JPEG_EnableHeaderParsing:
 1269              	.LFB337:
1356:./Libraries/STM32H7xx_HAL_Driver/Src/stm32h7xx_hal_jpeg.c **** 
1357:./Libraries/STM32H7xx_HAL_Driver/Src/stm32h7xx_hal_jpeg.c **** /**
1358:./Libraries/STM32H7xx_HAL_Driver/Src/stm32h7xx_hal_jpeg.c ****   * @brief  Enable JPEG Header parsing for decoding
1359:./Libraries/STM32H7xx_HAL_Driver/Src/stm32h7xx_hal_jpeg.c ****   * @param  hjpeg pointer to a JPEG_HandleTypeDef structure that contains
1360:./Libraries/STM32H7xx_HAL_Driver/Src/stm32h7xx_hal_jpeg.c ****   *               the configuration information for the JPEG.
1361:./Libraries/STM32H7xx_HAL_Driver/Src/stm32h7xx_hal_jpeg.c ****   * @retval HAL status
1362:./Libraries/STM32H7xx_HAL_Driver/Src/stm32h7xx_hal_jpeg.c ****   */
1363:./Libraries/STM32H7xx_HAL_Driver/Src/stm32h7xx_hal_jpeg.c **** HAL_StatusTypeDef HAL_JPEG_EnableHeaderParsing(JPEG_HandleTypeDef *hjpeg)
1364:./Libraries/STM32H7xx_HAL_Driver/Src/stm32h7xx_hal_jpeg.c **** {
 1270              		.loc 1 1364 1
 1271              		.cfi_startproc
 1272              		@ args = 0, pretend = 0, frame = 8
 1273              		@ frame_needed = 1, uses_anonymous_args = 0
 1274              		@ link register save eliminated.
 1275 0000 80B4     		push	{r7}
 1276              	.LCFI32:
 1277              		.cfi_def_cfa_offset 4
 1278              		.cfi_offset 7, -4
 1279 0002 83B0     		sub	sp, sp, #12
 1280              	.LCFI33:
 1281              		.cfi_def_cfa_offset 16
 1282 0004 00AF     		add	r7, sp, #0
 1283              	.LCFI34:
 1284              		.cfi_def_cfa_register 7
 1285 0006 7860     		str	r0, [r7, #4]
1365:./Libraries/STM32H7xx_HAL_Driver/Src/stm32h7xx_hal_jpeg.c ****   /* Process locked */
1366:./Libraries/STM32H7xx_HAL_Driver/Src/stm32h7xx_hal_jpeg.c ****   __HAL_LOCK(hjpeg);
 1286              		.loc 1 1366 3
 1287 0008 7B68     		ldr	r3, [r7, #4]
 1288 000a 93F84C30 		ldrb	r3, [r3, #76]	@ zero_extendqisi2
 1289 000e 012B     		cmp	r3, #1
 1290 0010 01D1     		bne	.L44
 1291              		.loc 1 1366 3 is_stmt 0 discriminator 1
 1292 0012 0223     		movs	r3, #2
 1293 0014 24E0     		b	.L45
 1294              	.L44:
 1295              		.loc 1 1366 3 discriminator 2
 1296 0016 7B68     		ldr	r3, [r7, #4]
 1297 0018 0122     		movs	r2, #1
 1298 001a 83F84C20 		strb	r2, [r3, #76]
1367:./Libraries/STM32H7xx_HAL_Driver/Src/stm32h7xx_hal_jpeg.c **** 
1368:./Libraries/STM32H7xx_HAL_Driver/Src/stm32h7xx_hal_jpeg.c ****   if (hjpeg->State == HAL_JPEG_STATE_READY)
 1299              		.loc 1 1368 12 is_stmt 1 discriminator 2
 1300 001e 7B68     		ldr	r3, [r7, #4]
 1301 0020 93F84D30 		ldrb	r3, [r3, #77]
ARM GAS  /tmp/ccXFtjVt.s 			page 49


 1302 0024 DBB2     		uxtb	r3, r3
 1303              		.loc 1 1368 6 discriminator 2
 1304 0026 012B     		cmp	r3, #1
 1305 0028 15D1     		bne	.L46
1369:./Libraries/STM32H7xx_HAL_Driver/Src/stm32h7xx_hal_jpeg.c ****   {
1370:./Libraries/STM32H7xx_HAL_Driver/Src/stm32h7xx_hal_jpeg.c ****     /* Change the JPEG state */
1371:./Libraries/STM32H7xx_HAL_Driver/Src/stm32h7xx_hal_jpeg.c ****     hjpeg->State = HAL_JPEG_STATE_BUSY;
 1306              		.loc 1 1371 18
 1307 002a 7B68     		ldr	r3, [r7, #4]
 1308 002c 0222     		movs	r2, #2
 1309 002e 83F84D20 		strb	r2, [r3, #77]
1372:./Libraries/STM32H7xx_HAL_Driver/Src/stm32h7xx_hal_jpeg.c **** 
1373:./Libraries/STM32H7xx_HAL_Driver/Src/stm32h7xx_hal_jpeg.c ****     /* Enable header processing*/
1374:./Libraries/STM32H7xx_HAL_Driver/Src/stm32h7xx_hal_jpeg.c ****     hjpeg->Instance->CONFR1 |= JPEG_CONFR1_HDR;
 1310              		.loc 1 1374 10
 1311 0032 7B68     		ldr	r3, [r7, #4]
 1312 0034 1B68     		ldr	r3, [r3]
 1313              		.loc 1 1374 29
 1314 0036 5A68     		ldr	r2, [r3, #4]
 1315              		.loc 1 1374 10
 1316 0038 7B68     		ldr	r3, [r7, #4]
 1317 003a 1B68     		ldr	r3, [r3]
 1318              		.loc 1 1374 29
 1319 003c 42F48072 		orr	r2, r2, #256
 1320 0040 5A60     		str	r2, [r3, #4]
1375:./Libraries/STM32H7xx_HAL_Driver/Src/stm32h7xx_hal_jpeg.c **** 
1376:./Libraries/STM32H7xx_HAL_Driver/Src/stm32h7xx_hal_jpeg.c ****     /* Process unlocked */
1377:./Libraries/STM32H7xx_HAL_Driver/Src/stm32h7xx_hal_jpeg.c ****     __HAL_UNLOCK(hjpeg);
 1321              		.loc 1 1377 5
 1322 0042 7B68     		ldr	r3, [r7, #4]
 1323 0044 0022     		movs	r2, #0
 1324 0046 83F84C20 		strb	r2, [r3, #76]
1378:./Libraries/STM32H7xx_HAL_Driver/Src/stm32h7xx_hal_jpeg.c **** 
1379:./Libraries/STM32H7xx_HAL_Driver/Src/stm32h7xx_hal_jpeg.c ****     /* Change the JPEG state */
1380:./Libraries/STM32H7xx_HAL_Driver/Src/stm32h7xx_hal_jpeg.c ****     hjpeg->State = HAL_JPEG_STATE_READY;
 1325              		.loc 1 1380 18
 1326 004a 7B68     		ldr	r3, [r7, #4]
 1327 004c 0122     		movs	r2, #1
 1328 004e 83F84D20 		strb	r2, [r3, #77]
1381:./Libraries/STM32H7xx_HAL_Driver/Src/stm32h7xx_hal_jpeg.c **** 
1382:./Libraries/STM32H7xx_HAL_Driver/Src/stm32h7xx_hal_jpeg.c ****     return HAL_OK;
 1329              		.loc 1 1382 12
 1330 0052 0023     		movs	r3, #0
 1331 0054 04E0     		b	.L45
 1332              	.L46:
1383:./Libraries/STM32H7xx_HAL_Driver/Src/stm32h7xx_hal_jpeg.c ****   }
1384:./Libraries/STM32H7xx_HAL_Driver/Src/stm32h7xx_hal_jpeg.c ****   else
1385:./Libraries/STM32H7xx_HAL_Driver/Src/stm32h7xx_hal_jpeg.c ****   {
1386:./Libraries/STM32H7xx_HAL_Driver/Src/stm32h7xx_hal_jpeg.c ****     /* Process unlocked */
1387:./Libraries/STM32H7xx_HAL_Driver/Src/stm32h7xx_hal_jpeg.c ****     __HAL_UNLOCK(hjpeg);
 1333              		.loc 1 1387 5
 1334 0056 7B68     		ldr	r3, [r7, #4]
 1335 0058 0022     		movs	r2, #0
 1336 005a 83F84C20 		strb	r2, [r3, #76]
1388:./Libraries/STM32H7xx_HAL_Driver/Src/stm32h7xx_hal_jpeg.c **** 
1389:./Libraries/STM32H7xx_HAL_Driver/Src/stm32h7xx_hal_jpeg.c ****     return HAL_BUSY;
 1337              		.loc 1 1389 12
ARM GAS  /tmp/ccXFtjVt.s 			page 50


 1338 005e 0223     		movs	r3, #2
 1339              	.L45:
1390:./Libraries/STM32H7xx_HAL_Driver/Src/stm32h7xx_hal_jpeg.c ****   }
1391:./Libraries/STM32H7xx_HAL_Driver/Src/stm32h7xx_hal_jpeg.c **** }
 1340              		.loc 1 1391 1
 1341 0060 1846     		mov	r0, r3
 1342 0062 0C37     		adds	r7, r7, #12
 1343              	.LCFI35:
 1344              		.cfi_def_cfa_offset 4
 1345 0064 BD46     		mov	sp, r7
 1346              	.LCFI36:
 1347              		.cfi_def_cfa_register 13
 1348              		@ sp needed
 1349 0066 5DF8047B 		ldr	r7, [sp], #4
 1350              	.LCFI37:
 1351              		.cfi_restore 7
 1352              		.cfi_def_cfa_offset 0
 1353 006a 7047     		bx	lr
 1354              		.cfi_endproc
 1355              	.LFE337:
 1357              		.section	.text.HAL_JPEG_DisableHeaderParsing,"ax",%progbits
 1358              		.align	1
 1359              		.global	HAL_JPEG_DisableHeaderParsing
 1360              		.syntax unified
 1361              		.thumb
 1362              		.thumb_func
 1363              		.fpu fpv5-d16
 1365              	HAL_JPEG_DisableHeaderParsing:
 1366              	.LFB338:
1392:./Libraries/STM32H7xx_HAL_Driver/Src/stm32h7xx_hal_jpeg.c **** 
1393:./Libraries/STM32H7xx_HAL_Driver/Src/stm32h7xx_hal_jpeg.c **** /**
1394:./Libraries/STM32H7xx_HAL_Driver/Src/stm32h7xx_hal_jpeg.c ****   * @brief  Disable JPEG Header parsing for decoding
1395:./Libraries/STM32H7xx_HAL_Driver/Src/stm32h7xx_hal_jpeg.c ****   * @param  hjpeg pointer to a JPEG_HandleTypeDef structure that contains
1396:./Libraries/STM32H7xx_HAL_Driver/Src/stm32h7xx_hal_jpeg.c ****   *               the configuration information for the JPEG.
1397:./Libraries/STM32H7xx_HAL_Driver/Src/stm32h7xx_hal_jpeg.c ****   * @retval HAL status
1398:./Libraries/STM32H7xx_HAL_Driver/Src/stm32h7xx_hal_jpeg.c ****   */
1399:./Libraries/STM32H7xx_HAL_Driver/Src/stm32h7xx_hal_jpeg.c **** HAL_StatusTypeDef HAL_JPEG_DisableHeaderParsing(JPEG_HandleTypeDef *hjpeg)
1400:./Libraries/STM32H7xx_HAL_Driver/Src/stm32h7xx_hal_jpeg.c **** {
 1367              		.loc 1 1400 1
 1368              		.cfi_startproc
 1369              		@ args = 0, pretend = 0, frame = 8
 1370              		@ frame_needed = 1, uses_anonymous_args = 0
 1371              		@ link register save eliminated.
 1372 0000 80B4     		push	{r7}
 1373              	.LCFI38:
 1374              		.cfi_def_cfa_offset 4
 1375              		.cfi_offset 7, -4
 1376 0002 83B0     		sub	sp, sp, #12
 1377              	.LCFI39:
 1378              		.cfi_def_cfa_offset 16
 1379 0004 00AF     		add	r7, sp, #0
 1380              	.LCFI40:
 1381              		.cfi_def_cfa_register 7
 1382 0006 7860     		str	r0, [r7, #4]
1401:./Libraries/STM32H7xx_HAL_Driver/Src/stm32h7xx_hal_jpeg.c ****   /* Process locked */
1402:./Libraries/STM32H7xx_HAL_Driver/Src/stm32h7xx_hal_jpeg.c ****   __HAL_LOCK(hjpeg);
 1383              		.loc 1 1402 3
ARM GAS  /tmp/ccXFtjVt.s 			page 51


 1384 0008 7B68     		ldr	r3, [r7, #4]
 1385 000a 93F84C30 		ldrb	r3, [r3, #76]	@ zero_extendqisi2
 1386 000e 012B     		cmp	r3, #1
 1387 0010 01D1     		bne	.L48
 1388              		.loc 1 1402 3 is_stmt 0 discriminator 1
 1389 0012 0223     		movs	r3, #2
 1390 0014 24E0     		b	.L49
 1391              	.L48:
 1392              		.loc 1 1402 3 discriminator 2
 1393 0016 7B68     		ldr	r3, [r7, #4]
 1394 0018 0122     		movs	r2, #1
 1395 001a 83F84C20 		strb	r2, [r3, #76]
1403:./Libraries/STM32H7xx_HAL_Driver/Src/stm32h7xx_hal_jpeg.c **** 
1404:./Libraries/STM32H7xx_HAL_Driver/Src/stm32h7xx_hal_jpeg.c ****   if (hjpeg->State == HAL_JPEG_STATE_READY)
 1396              		.loc 1 1404 12 is_stmt 1 discriminator 2
 1397 001e 7B68     		ldr	r3, [r7, #4]
 1398 0020 93F84D30 		ldrb	r3, [r3, #77]
 1399 0024 DBB2     		uxtb	r3, r3
 1400              		.loc 1 1404 6 discriminator 2
 1401 0026 012B     		cmp	r3, #1
 1402 0028 15D1     		bne	.L50
1405:./Libraries/STM32H7xx_HAL_Driver/Src/stm32h7xx_hal_jpeg.c ****   {
1406:./Libraries/STM32H7xx_HAL_Driver/Src/stm32h7xx_hal_jpeg.c ****     /* Change the JPEG state */
1407:./Libraries/STM32H7xx_HAL_Driver/Src/stm32h7xx_hal_jpeg.c ****     hjpeg->State = HAL_JPEG_STATE_BUSY;
 1403              		.loc 1 1407 18
 1404 002a 7B68     		ldr	r3, [r7, #4]
 1405 002c 0222     		movs	r2, #2
 1406 002e 83F84D20 		strb	r2, [r3, #77]
1408:./Libraries/STM32H7xx_HAL_Driver/Src/stm32h7xx_hal_jpeg.c **** 
1409:./Libraries/STM32H7xx_HAL_Driver/Src/stm32h7xx_hal_jpeg.c ****     /* Disable header processing*/
1410:./Libraries/STM32H7xx_HAL_Driver/Src/stm32h7xx_hal_jpeg.c ****     hjpeg->Instance->CONFR1 &= ~JPEG_CONFR1_HDR;
 1407              		.loc 1 1410 10
 1408 0032 7B68     		ldr	r3, [r7, #4]
 1409 0034 1B68     		ldr	r3, [r3]
 1410              		.loc 1 1410 29
 1411 0036 5A68     		ldr	r2, [r3, #4]
 1412              		.loc 1 1410 10
 1413 0038 7B68     		ldr	r3, [r7, #4]
 1414 003a 1B68     		ldr	r3, [r3]
 1415              		.loc 1 1410 29
 1416 003c 22F48072 		bic	r2, r2, #256
 1417 0040 5A60     		str	r2, [r3, #4]
1411:./Libraries/STM32H7xx_HAL_Driver/Src/stm32h7xx_hal_jpeg.c **** 
1412:./Libraries/STM32H7xx_HAL_Driver/Src/stm32h7xx_hal_jpeg.c ****     /* Process unlocked */
1413:./Libraries/STM32H7xx_HAL_Driver/Src/stm32h7xx_hal_jpeg.c ****     __HAL_UNLOCK(hjpeg);
 1418              		.loc 1 1413 5
 1419 0042 7B68     		ldr	r3, [r7, #4]
 1420 0044 0022     		movs	r2, #0
 1421 0046 83F84C20 		strb	r2, [r3, #76]
1414:./Libraries/STM32H7xx_HAL_Driver/Src/stm32h7xx_hal_jpeg.c **** 
1415:./Libraries/STM32H7xx_HAL_Driver/Src/stm32h7xx_hal_jpeg.c ****     /* Change the JPEG state */
1416:./Libraries/STM32H7xx_HAL_Driver/Src/stm32h7xx_hal_jpeg.c ****     hjpeg->State = HAL_JPEG_STATE_READY;
 1422              		.loc 1 1416 18
 1423 004a 7B68     		ldr	r3, [r7, #4]
 1424 004c 0122     		movs	r2, #1
 1425 004e 83F84D20 		strb	r2, [r3, #77]
1417:./Libraries/STM32H7xx_HAL_Driver/Src/stm32h7xx_hal_jpeg.c **** 
ARM GAS  /tmp/ccXFtjVt.s 			page 52


1418:./Libraries/STM32H7xx_HAL_Driver/Src/stm32h7xx_hal_jpeg.c ****     return HAL_OK;
 1426              		.loc 1 1418 12
 1427 0052 0023     		movs	r3, #0
 1428 0054 04E0     		b	.L49
 1429              	.L50:
1419:./Libraries/STM32H7xx_HAL_Driver/Src/stm32h7xx_hal_jpeg.c ****   }
1420:./Libraries/STM32H7xx_HAL_Driver/Src/stm32h7xx_hal_jpeg.c ****   else
1421:./Libraries/STM32H7xx_HAL_Driver/Src/stm32h7xx_hal_jpeg.c ****   {
1422:./Libraries/STM32H7xx_HAL_Driver/Src/stm32h7xx_hal_jpeg.c ****     /* Process unlocked */
1423:./Libraries/STM32H7xx_HAL_Driver/Src/stm32h7xx_hal_jpeg.c ****     __HAL_UNLOCK(hjpeg);
 1430              		.loc 1 1423 5
 1431 0056 7B68     		ldr	r3, [r7, #4]
 1432 0058 0022     		movs	r2, #0
 1433 005a 83F84C20 		strb	r2, [r3, #76]
1424:./Libraries/STM32H7xx_HAL_Driver/Src/stm32h7xx_hal_jpeg.c **** 
1425:./Libraries/STM32H7xx_HAL_Driver/Src/stm32h7xx_hal_jpeg.c ****     return HAL_BUSY;
 1434              		.loc 1 1425 12
 1435 005e 0223     		movs	r3, #2
 1436              	.L49:
1426:./Libraries/STM32H7xx_HAL_Driver/Src/stm32h7xx_hal_jpeg.c ****   }
1427:./Libraries/STM32H7xx_HAL_Driver/Src/stm32h7xx_hal_jpeg.c **** }
 1437              		.loc 1 1427 1
 1438 0060 1846     		mov	r0, r3
 1439 0062 0C37     		adds	r7, r7, #12
 1440              	.LCFI41:
 1441              		.cfi_def_cfa_offset 4
 1442 0064 BD46     		mov	sp, r7
 1443              	.LCFI42:
 1444              		.cfi_def_cfa_register 13
 1445              		@ sp needed
 1446 0066 5DF8047B 		ldr	r7, [sp], #4
 1447              	.LCFI43:
 1448              		.cfi_restore 7
 1449              		.cfi_def_cfa_offset 0
 1450 006a 7047     		bx	lr
 1451              		.cfi_endproc
 1452              	.LFE338:
 1454              		.section	.text.HAL_JPEG_SetUserQuantTables,"ax",%progbits
 1455              		.align	1
 1456              		.global	HAL_JPEG_SetUserQuantTables
 1457              		.syntax unified
 1458              		.thumb
 1459              		.thumb_func
 1460              		.fpu fpv5-d16
 1462              	HAL_JPEG_SetUserQuantTables:
 1463              	.LFB339:
1428:./Libraries/STM32H7xx_HAL_Driver/Src/stm32h7xx_hal_jpeg.c **** 
1429:./Libraries/STM32H7xx_HAL_Driver/Src/stm32h7xx_hal_jpeg.c **** /**
1430:./Libraries/STM32H7xx_HAL_Driver/Src/stm32h7xx_hal_jpeg.c ****   * @brief  Modify the default Quantization tables used for JPEG encoding.
1431:./Libraries/STM32H7xx_HAL_Driver/Src/stm32h7xx_hal_jpeg.c ****   * @param  hjpeg pointer to a JPEG_HandleTypeDef structure that contains
1432:./Libraries/STM32H7xx_HAL_Driver/Src/stm32h7xx_hal_jpeg.c ****   *         the configuration information for JPEG module
1433:./Libraries/STM32H7xx_HAL_Driver/Src/stm32h7xx_hal_jpeg.c ****   * @param  QTable0  pointer to uint8_t , define the user quantification table for color component 
1434:./Libraries/STM32H7xx_HAL_Driver/Src/stm32h7xx_hal_jpeg.c ****   *                  If NULL assume no need to update  the table and no error return
1435:./Libraries/STM32H7xx_HAL_Driver/Src/stm32h7xx_hal_jpeg.c ****   * @param  QTable1  pointer to uint8_t , define the user quantification table for color component 
1436:./Libraries/STM32H7xx_HAL_Driver/Src/stm32h7xx_hal_jpeg.c ****   *                  If NULL assume no need to update  the table and no error return.
1437:./Libraries/STM32H7xx_HAL_Driver/Src/stm32h7xx_hal_jpeg.c ****   * @param  QTable2  pointer to uint8_t , define the user quantification table for color component 
1438:./Libraries/STM32H7xx_HAL_Driver/Src/stm32h7xx_hal_jpeg.c ****   *                  If NULL assume no need to update  the table and no error return.
ARM GAS  /tmp/ccXFtjVt.s 			page 53


1439:./Libraries/STM32H7xx_HAL_Driver/Src/stm32h7xx_hal_jpeg.c ****   * @param  QTable3  pointer to uint8_t , define the user quantification table for color component 
1440:./Libraries/STM32H7xx_HAL_Driver/Src/stm32h7xx_hal_jpeg.c ****   *                  If NULL assume no need to update  the table and no error return.
1441:./Libraries/STM32H7xx_HAL_Driver/Src/stm32h7xx_hal_jpeg.c ****   *
1442:./Libraries/STM32H7xx_HAL_Driver/Src/stm32h7xx_hal_jpeg.c ****   * @retval HAL status
1443:./Libraries/STM32H7xx_HAL_Driver/Src/stm32h7xx_hal_jpeg.c ****   */
1444:./Libraries/STM32H7xx_HAL_Driver/Src/stm32h7xx_hal_jpeg.c **** 
1445:./Libraries/STM32H7xx_HAL_Driver/Src/stm32h7xx_hal_jpeg.c **** 
1446:./Libraries/STM32H7xx_HAL_Driver/Src/stm32h7xx_hal_jpeg.c **** HAL_StatusTypeDef  HAL_JPEG_SetUserQuantTables(JPEG_HandleTypeDef *hjpeg, uint8_t *QTable0, uint8_t
1447:./Libraries/STM32H7xx_HAL_Driver/Src/stm32h7xx_hal_jpeg.c ****                                                uint8_t *QTable2, uint8_t *QTable3)
1448:./Libraries/STM32H7xx_HAL_Driver/Src/stm32h7xx_hal_jpeg.c **** {
 1464              		.loc 1 1448 1
 1465              		.cfi_startproc
 1466              		@ args = 4, pretend = 0, frame = 16
 1467              		@ frame_needed = 1, uses_anonymous_args = 0
 1468              		@ link register save eliminated.
 1469 0000 80B4     		push	{r7}
 1470              	.LCFI44:
 1471              		.cfi_def_cfa_offset 4
 1472              		.cfi_offset 7, -4
 1473 0002 85B0     		sub	sp, sp, #20
 1474              	.LCFI45:
 1475              		.cfi_def_cfa_offset 24
 1476 0004 00AF     		add	r7, sp, #0
 1477              	.LCFI46:
 1478              		.cfi_def_cfa_register 7
 1479 0006 F860     		str	r0, [r7, #12]
 1480 0008 B960     		str	r1, [r7, #8]
 1481 000a 7A60     		str	r2, [r7, #4]
 1482 000c 3B60     		str	r3, [r7]
1449:./Libraries/STM32H7xx_HAL_Driver/Src/stm32h7xx_hal_jpeg.c ****   /* Process Locked */
1450:./Libraries/STM32H7xx_HAL_Driver/Src/stm32h7xx_hal_jpeg.c ****   __HAL_LOCK(hjpeg);
 1483              		.loc 1 1450 3
 1484 000e FB68     		ldr	r3, [r7, #12]
 1485 0010 93F84C30 		ldrb	r3, [r3, #76]	@ zero_extendqisi2
 1486 0014 012B     		cmp	r3, #1
 1487 0016 01D1     		bne	.L52
 1488              		.loc 1 1450 3 is_stmt 0 discriminator 1
 1489 0018 0223     		movs	r3, #2
 1490 001a 2EE0     		b	.L53
 1491              	.L52:
 1492              		.loc 1 1450 3 discriminator 2
 1493 001c FB68     		ldr	r3, [r7, #12]
 1494 001e 0122     		movs	r2, #1
 1495 0020 83F84C20 		strb	r2, [r3, #76]
1451:./Libraries/STM32H7xx_HAL_Driver/Src/stm32h7xx_hal_jpeg.c **** 
1452:./Libraries/STM32H7xx_HAL_Driver/Src/stm32h7xx_hal_jpeg.c ****   if (hjpeg->State == HAL_JPEG_STATE_READY)
 1496              		.loc 1 1452 12 is_stmt 1 discriminator 2
 1497 0024 FB68     		ldr	r3, [r7, #12]
 1498 0026 93F84D30 		ldrb	r3, [r3, #77]
 1499 002a DBB2     		uxtb	r3, r3
 1500              		.loc 1 1452 6 discriminator 2
 1501 002c 012B     		cmp	r3, #1
 1502 002e 1FD1     		bne	.L54
1453:./Libraries/STM32H7xx_HAL_Driver/Src/stm32h7xx_hal_jpeg.c ****   {
1454:./Libraries/STM32H7xx_HAL_Driver/Src/stm32h7xx_hal_jpeg.c ****     /* Change the DMA state */
1455:./Libraries/STM32H7xx_HAL_Driver/Src/stm32h7xx_hal_jpeg.c ****     hjpeg->State = HAL_JPEG_STATE_BUSY;
 1503              		.loc 1 1455 18
ARM GAS  /tmp/ccXFtjVt.s 			page 54


 1504 0030 FB68     		ldr	r3, [r7, #12]
 1505 0032 0222     		movs	r2, #2
 1506 0034 83F84D20 		strb	r2, [r3, #77]
1456:./Libraries/STM32H7xx_HAL_Driver/Src/stm32h7xx_hal_jpeg.c **** 
1457:./Libraries/STM32H7xx_HAL_Driver/Src/stm32h7xx_hal_jpeg.c ****     hjpeg->Context |= JPEG_CONTEXT_CUSTOM_TABLES;
 1507              		.loc 1 1457 20
 1508 0038 FB68     		ldr	r3, [r7, #12]
 1509 003a 5B6D     		ldr	r3, [r3, #84]
 1510 003c 43F48042 		orr	r2, r3, #16384
 1511 0040 FB68     		ldr	r3, [r7, #12]
 1512 0042 5A65     		str	r2, [r3, #84]
1458:./Libraries/STM32H7xx_HAL_Driver/Src/stm32h7xx_hal_jpeg.c **** 
1459:./Libraries/STM32H7xx_HAL_Driver/Src/stm32h7xx_hal_jpeg.c ****     hjpeg->QuantTable0 = QTable0;
 1513              		.loc 1 1459 24
 1514 0044 FB68     		ldr	r3, [r7, #12]
 1515 0046 BA68     		ldr	r2, [r7, #8]
 1516 0048 DA63     		str	r2, [r3, #60]
1460:./Libraries/STM32H7xx_HAL_Driver/Src/stm32h7xx_hal_jpeg.c ****     hjpeg->QuantTable1 = QTable1;
 1517              		.loc 1 1460 24
 1518 004a FB68     		ldr	r3, [r7, #12]
 1519 004c 7A68     		ldr	r2, [r7, #4]
 1520 004e 1A64     		str	r2, [r3, #64]
1461:./Libraries/STM32H7xx_HAL_Driver/Src/stm32h7xx_hal_jpeg.c ****     hjpeg->QuantTable2 = QTable2;
 1521              		.loc 1 1461 24
 1522 0050 FB68     		ldr	r3, [r7, #12]
 1523 0052 3A68     		ldr	r2, [r7]
 1524 0054 5A64     		str	r2, [r3, #68]
1462:./Libraries/STM32H7xx_HAL_Driver/Src/stm32h7xx_hal_jpeg.c ****     hjpeg->QuantTable3 = QTable3;
 1525              		.loc 1 1462 24
 1526 0056 FB68     		ldr	r3, [r7, #12]
 1527 0058 BA69     		ldr	r2, [r7, #24]
 1528 005a 9A64     		str	r2, [r3, #72]
1463:./Libraries/STM32H7xx_HAL_Driver/Src/stm32h7xx_hal_jpeg.c **** 
1464:./Libraries/STM32H7xx_HAL_Driver/Src/stm32h7xx_hal_jpeg.c ****     /* Process Unlocked */
1465:./Libraries/STM32H7xx_HAL_Driver/Src/stm32h7xx_hal_jpeg.c ****     __HAL_UNLOCK(hjpeg);
 1529              		.loc 1 1465 5
 1530 005c FB68     		ldr	r3, [r7, #12]
 1531 005e 0022     		movs	r2, #0
 1532 0060 83F84C20 		strb	r2, [r3, #76]
1466:./Libraries/STM32H7xx_HAL_Driver/Src/stm32h7xx_hal_jpeg.c **** 
1467:./Libraries/STM32H7xx_HAL_Driver/Src/stm32h7xx_hal_jpeg.c ****     /* Change the DMA state */
1468:./Libraries/STM32H7xx_HAL_Driver/Src/stm32h7xx_hal_jpeg.c ****     hjpeg->State = HAL_JPEG_STATE_READY;
 1533              		.loc 1 1468 18
 1534 0064 FB68     		ldr	r3, [r7, #12]
 1535 0066 0122     		movs	r2, #1
 1536 0068 83F84D20 		strb	r2, [r3, #77]
1469:./Libraries/STM32H7xx_HAL_Driver/Src/stm32h7xx_hal_jpeg.c **** 
1470:./Libraries/STM32H7xx_HAL_Driver/Src/stm32h7xx_hal_jpeg.c ****     /* Return function status */
1471:./Libraries/STM32H7xx_HAL_Driver/Src/stm32h7xx_hal_jpeg.c ****     return HAL_OK;
 1537              		.loc 1 1471 12
 1538 006c 0023     		movs	r3, #0
 1539 006e 04E0     		b	.L53
 1540              	.L54:
1472:./Libraries/STM32H7xx_HAL_Driver/Src/stm32h7xx_hal_jpeg.c ****   }
1473:./Libraries/STM32H7xx_HAL_Driver/Src/stm32h7xx_hal_jpeg.c ****   else
1474:./Libraries/STM32H7xx_HAL_Driver/Src/stm32h7xx_hal_jpeg.c ****   {
1475:./Libraries/STM32H7xx_HAL_Driver/Src/stm32h7xx_hal_jpeg.c ****     /* Process Unlocked */
ARM GAS  /tmp/ccXFtjVt.s 			page 55


1476:./Libraries/STM32H7xx_HAL_Driver/Src/stm32h7xx_hal_jpeg.c ****     __HAL_UNLOCK(hjpeg);
 1541              		.loc 1 1476 5
 1542 0070 FB68     		ldr	r3, [r7, #12]
 1543 0072 0022     		movs	r2, #0
 1544 0074 83F84C20 		strb	r2, [r3, #76]
1477:./Libraries/STM32H7xx_HAL_Driver/Src/stm32h7xx_hal_jpeg.c **** 
1478:./Libraries/STM32H7xx_HAL_Driver/Src/stm32h7xx_hal_jpeg.c ****     return HAL_BUSY;
 1545              		.loc 1 1478 12
 1546 0078 0223     		movs	r3, #2
 1547              	.L53:
1479:./Libraries/STM32H7xx_HAL_Driver/Src/stm32h7xx_hal_jpeg.c ****   }
1480:./Libraries/STM32H7xx_HAL_Driver/Src/stm32h7xx_hal_jpeg.c **** }
 1548              		.loc 1 1480 1
 1549 007a 1846     		mov	r0, r3
 1550 007c 1437     		adds	r7, r7, #20
 1551              	.LCFI47:
 1552              		.cfi_def_cfa_offset 4
 1553 007e BD46     		mov	sp, r7
 1554              	.LCFI48:
 1555              		.cfi_def_cfa_register 13
 1556              		@ sp needed
 1557 0080 5DF8047B 		ldr	r7, [sp], #4
 1558              	.LCFI49:
 1559              		.cfi_restore 7
 1560              		.cfi_def_cfa_offset 0
 1561 0084 7047     		bx	lr
 1562              		.cfi_endproc
 1563              	.LFE339:
 1565              		.section	.text.HAL_JPEG_Encode,"ax",%progbits
 1566              		.align	1
 1567              		.global	HAL_JPEG_Encode
 1568              		.syntax unified
 1569              		.thumb
 1570              		.thumb_func
 1571              		.fpu fpv5-d16
 1573              	HAL_JPEG_Encode:
 1574              	.LFB340:
1481:./Libraries/STM32H7xx_HAL_Driver/Src/stm32h7xx_hal_jpeg.c **** 
1482:./Libraries/STM32H7xx_HAL_Driver/Src/stm32h7xx_hal_jpeg.c **** /**
1483:./Libraries/STM32H7xx_HAL_Driver/Src/stm32h7xx_hal_jpeg.c ****   * @}
1484:./Libraries/STM32H7xx_HAL_Driver/Src/stm32h7xx_hal_jpeg.c ****   */
1485:./Libraries/STM32H7xx_HAL_Driver/Src/stm32h7xx_hal_jpeg.c **** 
1486:./Libraries/STM32H7xx_HAL_Driver/Src/stm32h7xx_hal_jpeg.c **** /** @defgroup JPEG_Exported_Functions_Group3 encoding/decoding processing functions
1487:./Libraries/STM32H7xx_HAL_Driver/Src/stm32h7xx_hal_jpeg.c ****   *  @brief   processing functions.
1488:./Libraries/STM32H7xx_HAL_Driver/Src/stm32h7xx_hal_jpeg.c ****   *
1489:./Libraries/STM32H7xx_HAL_Driver/Src/stm32h7xx_hal_jpeg.c **** @verbatim
1490:./Libraries/STM32H7xx_HAL_Driver/Src/stm32h7xx_hal_jpeg.c ****   ==============================================================================
1491:./Libraries/STM32H7xx_HAL_Driver/Src/stm32h7xx_hal_jpeg.c ****                       ##### JPEG processing functions #####
1492:./Libraries/STM32H7xx_HAL_Driver/Src/stm32h7xx_hal_jpeg.c ****   ==============================================================================
1493:./Libraries/STM32H7xx_HAL_Driver/Src/stm32h7xx_hal_jpeg.c ****     [..]  This section provides functions allowing to:
1494:./Libraries/STM32H7xx_HAL_Driver/Src/stm32h7xx_hal_jpeg.c ****       (+) HAL_JPEG_Encode()     : JPEG encoding with polling process
1495:./Libraries/STM32H7xx_HAL_Driver/Src/stm32h7xx_hal_jpeg.c ****       (+) HAL_JPEG_Decode()     : JPEG decoding with polling process
1496:./Libraries/STM32H7xx_HAL_Driver/Src/stm32h7xx_hal_jpeg.c ****       (+) HAL_JPEG_Encode_IT()  : JPEG encoding with interrupt process
1497:./Libraries/STM32H7xx_HAL_Driver/Src/stm32h7xx_hal_jpeg.c ****       (+) HAL_JPEG_Decode_IT()  : JPEG decoding with interrupt process
1498:./Libraries/STM32H7xx_HAL_Driver/Src/stm32h7xx_hal_jpeg.c ****       (+) HAL_JPEG_Encode_DMA() : JPEG encoding with DMA process
1499:./Libraries/STM32H7xx_HAL_Driver/Src/stm32h7xx_hal_jpeg.c ****       (+) HAL_JPEG_Decode_DMA() : JPEG decoding with DMA process
1500:./Libraries/STM32H7xx_HAL_Driver/Src/stm32h7xx_hal_jpeg.c ****       (+) HAL_JPEG_Pause()      :   Pause the Input/Output processing
ARM GAS  /tmp/ccXFtjVt.s 			page 56


1501:./Libraries/STM32H7xx_HAL_Driver/Src/stm32h7xx_hal_jpeg.c ****       (+) HAL_JPEG_Resume()     :  Resume the JPEG Input/Output processing
1502:./Libraries/STM32H7xx_HAL_Driver/Src/stm32h7xx_hal_jpeg.c ****       (+) HAL_JPEG_ConfigInputBuffer()  : Config Encoding/Decoding Input Buffer
1503:./Libraries/STM32H7xx_HAL_Driver/Src/stm32h7xx_hal_jpeg.c ****       (+) HAL_JPEG_ConfigOutputBuffer() : Config Encoding/Decoding Output Buffer
1504:./Libraries/STM32H7xx_HAL_Driver/Src/stm32h7xx_hal_jpeg.c ****       (+) HAL_JPEG_Abort()              : Aborts the JPEG Encoding/Decoding
1505:./Libraries/STM32H7xx_HAL_Driver/Src/stm32h7xx_hal_jpeg.c **** 
1506:./Libraries/STM32H7xx_HAL_Driver/Src/stm32h7xx_hal_jpeg.c **** @endverbatim
1507:./Libraries/STM32H7xx_HAL_Driver/Src/stm32h7xx_hal_jpeg.c ****   * @{
1508:./Libraries/STM32H7xx_HAL_Driver/Src/stm32h7xx_hal_jpeg.c ****   */
1509:./Libraries/STM32H7xx_HAL_Driver/Src/stm32h7xx_hal_jpeg.c **** 
1510:./Libraries/STM32H7xx_HAL_Driver/Src/stm32h7xx_hal_jpeg.c **** /**
1511:./Libraries/STM32H7xx_HAL_Driver/Src/stm32h7xx_hal_jpeg.c ****   * @brief  Starts JPEG encoding with polling processing
1512:./Libraries/STM32H7xx_HAL_Driver/Src/stm32h7xx_hal_jpeg.c ****   * @param  hjpeg pointer to a JPEG_HandleTypeDef structure that contains
1513:./Libraries/STM32H7xx_HAL_Driver/Src/stm32h7xx_hal_jpeg.c ****   *         the configuration information for JPEG module
1514:./Libraries/STM32H7xx_HAL_Driver/Src/stm32h7xx_hal_jpeg.c ****   * @param  pDataInMCU Pointer to the Input buffer
1515:./Libraries/STM32H7xx_HAL_Driver/Src/stm32h7xx_hal_jpeg.c ****   * @param  InDataLength size in bytes Input buffer
1516:./Libraries/STM32H7xx_HAL_Driver/Src/stm32h7xx_hal_jpeg.c ****   * @param  pDataOut Pointer to the jpeg output data buffer
1517:./Libraries/STM32H7xx_HAL_Driver/Src/stm32h7xx_hal_jpeg.c ****   * @param  OutDataLength size in bytes of the Output buffer
1518:./Libraries/STM32H7xx_HAL_Driver/Src/stm32h7xx_hal_jpeg.c ****   * @param  Timeout Specify Timeout value
1519:./Libraries/STM32H7xx_HAL_Driver/Src/stm32h7xx_hal_jpeg.c ****   * @retval HAL status
1520:./Libraries/STM32H7xx_HAL_Driver/Src/stm32h7xx_hal_jpeg.c ****   */
1521:./Libraries/STM32H7xx_HAL_Driver/Src/stm32h7xx_hal_jpeg.c **** HAL_StatusTypeDef  HAL_JPEG_Encode(JPEG_HandleTypeDef *hjpeg, uint8_t *pDataInMCU, uint32_t InDataL
1522:./Libraries/STM32H7xx_HAL_Driver/Src/stm32h7xx_hal_jpeg.c ****                                    uint8_t *pDataOut, uint32_t OutDataLength, uint32_t Timeout)
1523:./Libraries/STM32H7xx_HAL_Driver/Src/stm32h7xx_hal_jpeg.c **** {
 1575              		.loc 1 1523 1
 1576              		.cfi_startproc
 1577              		@ args = 8, pretend = 0, frame = 24
 1578              		@ frame_needed = 1, uses_anonymous_args = 0
 1579 0000 80B5     		push	{r7, lr}
 1580              	.LCFI50:
 1581              		.cfi_def_cfa_offset 8
 1582              		.cfi_offset 7, -8
 1583              		.cfi_offset 14, -4
 1584 0002 86B0     		sub	sp, sp, #24
 1585              	.LCFI51:
 1586              		.cfi_def_cfa_offset 32
 1587 0004 00AF     		add	r7, sp, #0
 1588              	.LCFI52:
 1589              		.cfi_def_cfa_register 7
 1590 0006 F860     		str	r0, [r7, #12]
 1591 0008 B960     		str	r1, [r7, #8]
 1592 000a 7A60     		str	r2, [r7, #4]
 1593 000c 3B60     		str	r3, [r7]
1524:./Libraries/STM32H7xx_HAL_Driver/Src/stm32h7xx_hal_jpeg.c ****   uint32_t tickstart;
1525:./Libraries/STM32H7xx_HAL_Driver/Src/stm32h7xx_hal_jpeg.c **** 
1526:./Libraries/STM32H7xx_HAL_Driver/Src/stm32h7xx_hal_jpeg.c ****   /* Check the parameters */
1527:./Libraries/STM32H7xx_HAL_Driver/Src/stm32h7xx_hal_jpeg.c ****   assert_param((InDataLength >= 4UL));
1528:./Libraries/STM32H7xx_HAL_Driver/Src/stm32h7xx_hal_jpeg.c ****   assert_param((OutDataLength >= 4UL));
1529:./Libraries/STM32H7xx_HAL_Driver/Src/stm32h7xx_hal_jpeg.c **** 
1530:./Libraries/STM32H7xx_HAL_Driver/Src/stm32h7xx_hal_jpeg.c ****   /* Check In/out buffer allocation and size */
1531:./Libraries/STM32H7xx_HAL_Driver/Src/stm32h7xx_hal_jpeg.c ****   if ((hjpeg == NULL) || (pDataInMCU == NULL) || (pDataOut == NULL))
 1594              		.loc 1 1531 6
 1595 000e FB68     		ldr	r3, [r7, #12]
 1596 0010 002B     		cmp	r3, #0
 1597 0012 05D0     		beq	.L56
 1598              		.loc 1 1531 23 discriminator 1
 1599 0014 BB68     		ldr	r3, [r7, #8]
 1600 0016 002B     		cmp	r3, #0
ARM GAS  /tmp/ccXFtjVt.s 			page 57


 1601 0018 02D0     		beq	.L56
 1602              		.loc 1 1531 47 discriminator 2
 1603 001a 3B68     		ldr	r3, [r7]
 1604 001c 002B     		cmp	r3, #0
 1605 001e 01D1     		bne	.L57
 1606              	.L56:
1532:./Libraries/STM32H7xx_HAL_Driver/Src/stm32h7xx_hal_jpeg.c ****   {
1533:./Libraries/STM32H7xx_HAL_Driver/Src/stm32h7xx_hal_jpeg.c ****     return HAL_ERROR;
 1607              		.loc 1 1533 12
 1608 0020 0123     		movs	r3, #1
 1609 0022 85E0     		b	.L58
 1610              	.L57:
1534:./Libraries/STM32H7xx_HAL_Driver/Src/stm32h7xx_hal_jpeg.c ****   }
1535:./Libraries/STM32H7xx_HAL_Driver/Src/stm32h7xx_hal_jpeg.c ****   /* Process locked */
1536:./Libraries/STM32H7xx_HAL_Driver/Src/stm32h7xx_hal_jpeg.c ****   __HAL_LOCK(hjpeg);
 1611              		.loc 1 1536 3
 1612 0024 FB68     		ldr	r3, [r7, #12]
 1613 0026 93F84C30 		ldrb	r3, [r3, #76]	@ zero_extendqisi2
 1614 002a 012B     		cmp	r3, #1
 1615 002c 01D1     		bne	.L59
 1616              		.loc 1 1536 3 is_stmt 0 discriminator 1
 1617 002e 0223     		movs	r3, #2
 1618 0030 7EE0     		b	.L58
 1619              	.L59:
 1620              		.loc 1 1536 3 discriminator 2
 1621 0032 FB68     		ldr	r3, [r7, #12]
 1622 0034 0122     		movs	r2, #1
 1623 0036 83F84C20 		strb	r2, [r3, #76]
1537:./Libraries/STM32H7xx_HAL_Driver/Src/stm32h7xx_hal_jpeg.c **** 
1538:./Libraries/STM32H7xx_HAL_Driver/Src/stm32h7xx_hal_jpeg.c ****   if (hjpeg->State != HAL_JPEG_STATE_READY)
 1624              		.loc 1 1538 12 is_stmt 1 discriminator 2
 1625 003a FB68     		ldr	r3, [r7, #12]
 1626 003c 93F84D30 		ldrb	r3, [r3, #77]
 1627 0040 DBB2     		uxtb	r3, r3
 1628              		.loc 1 1538 6 discriminator 2
 1629 0042 012B     		cmp	r3, #1
 1630 0044 05D0     		beq	.L60
1539:./Libraries/STM32H7xx_HAL_Driver/Src/stm32h7xx_hal_jpeg.c ****   {
1540:./Libraries/STM32H7xx_HAL_Driver/Src/stm32h7xx_hal_jpeg.c ****     /* Process Unlocked */
1541:./Libraries/STM32H7xx_HAL_Driver/Src/stm32h7xx_hal_jpeg.c ****     __HAL_UNLOCK(hjpeg);
 1631              		.loc 1 1541 5
 1632 0046 FB68     		ldr	r3, [r7, #12]
 1633 0048 0022     		movs	r2, #0
 1634 004a 83F84C20 		strb	r2, [r3, #76]
1542:./Libraries/STM32H7xx_HAL_Driver/Src/stm32h7xx_hal_jpeg.c **** 
1543:./Libraries/STM32H7xx_HAL_Driver/Src/stm32h7xx_hal_jpeg.c ****     return HAL_BUSY;
 1635              		.loc 1 1543 12
 1636 004e 0223     		movs	r3, #2
 1637 0050 6EE0     		b	.L58
 1638              	.L60:
1544:./Libraries/STM32H7xx_HAL_Driver/Src/stm32h7xx_hal_jpeg.c ****   }
1545:./Libraries/STM32H7xx_HAL_Driver/Src/stm32h7xx_hal_jpeg.c **** 
1546:./Libraries/STM32H7xx_HAL_Driver/Src/stm32h7xx_hal_jpeg.c ****   if (hjpeg->State == HAL_JPEG_STATE_READY)
 1639              		.loc 1 1546 12
 1640 0052 FB68     		ldr	r3, [r7, #12]
 1641 0054 93F84D30 		ldrb	r3, [r3, #77]
 1642 0058 DBB2     		uxtb	r3, r3
ARM GAS  /tmp/ccXFtjVt.s 			page 58


 1643              		.loc 1 1546 6
 1644 005a 012B     		cmp	r3, #1
 1645 005c 67D1     		bne	.L61
1547:./Libraries/STM32H7xx_HAL_Driver/Src/stm32h7xx_hal_jpeg.c ****   {
1548:./Libraries/STM32H7xx_HAL_Driver/Src/stm32h7xx_hal_jpeg.c ****     if ((hjpeg->Context & JPEG_CONTEXT_CONF_ENCODING) == JPEG_CONTEXT_CONF_ENCODING)
 1646              		.loc 1 1548 15
 1647 005e FB68     		ldr	r3, [r7, #12]
 1648 0060 5B6D     		ldr	r3, [r3, #84]
 1649              		.loc 1 1548 25
 1650 0062 03F48073 		and	r3, r3, #256
 1651              		.loc 1 1548 8
 1652 0066 B3F5807F 		cmp	r3, #256
 1653 006a 5AD1     		bne	.L62
1549:./Libraries/STM32H7xx_HAL_Driver/Src/stm32h7xx_hal_jpeg.c ****     {
1550:./Libraries/STM32H7xx_HAL_Driver/Src/stm32h7xx_hal_jpeg.c ****       /*Change JPEG state*/
1551:./Libraries/STM32H7xx_HAL_Driver/Src/stm32h7xx_hal_jpeg.c ****       hjpeg->State = HAL_JPEG_STATE_BUSY_ENCODING;
 1654              		.loc 1 1551 20
 1655 006c FB68     		ldr	r3, [r7, #12]
 1656 006e 0322     		movs	r2, #3
 1657 0070 83F84D20 		strb	r2, [r3, #77]
1552:./Libraries/STM32H7xx_HAL_Driver/Src/stm32h7xx_hal_jpeg.c **** 
1553:./Libraries/STM32H7xx_HAL_Driver/Src/stm32h7xx_hal_jpeg.c ****       /*Set the Context to Encode with Polling*/
1554:./Libraries/STM32H7xx_HAL_Driver/Src/stm32h7xx_hal_jpeg.c ****       hjpeg->Context &= ~(JPEG_CONTEXT_OPERATION_MASK | JPEG_CONTEXT_METHOD_MASK);
 1658              		.loc 1 1554 22
 1659 0074 FB68     		ldr	r3, [r7, #12]
 1660 0076 5B6D     		ldr	r3, [r3, #84]
 1661 0078 23F00F02 		bic	r2, r3, #15
 1662 007c FB68     		ldr	r3, [r7, #12]
 1663 007e 5A65     		str	r2, [r3, #84]
1555:./Libraries/STM32H7xx_HAL_Driver/Src/stm32h7xx_hal_jpeg.c ****       hjpeg->Context |= (JPEG_CONTEXT_ENCODE | JPEG_CONTEXT_POLLING);
 1664              		.loc 1 1555 22
 1665 0080 FB68     		ldr	r3, [r7, #12]
 1666 0082 5B6D     		ldr	r3, [r3, #84]
 1667 0084 43F00502 		orr	r2, r3, #5
 1668 0088 FB68     		ldr	r3, [r7, #12]
 1669 008a 5A65     		str	r2, [r3, #84]
1556:./Libraries/STM32H7xx_HAL_Driver/Src/stm32h7xx_hal_jpeg.c **** 
1557:./Libraries/STM32H7xx_HAL_Driver/Src/stm32h7xx_hal_jpeg.c ****       /* Get tick */
1558:./Libraries/STM32H7xx_HAL_Driver/Src/stm32h7xx_hal_jpeg.c ****       tickstart = HAL_GetTick();
 1670              		.loc 1 1558 19
 1671 008c FFF7FEFF 		bl	HAL_GetTick
 1672 0090 7861     		str	r0, [r7, #20]
1559:./Libraries/STM32H7xx_HAL_Driver/Src/stm32h7xx_hal_jpeg.c **** 
1560:./Libraries/STM32H7xx_HAL_Driver/Src/stm32h7xx_hal_jpeg.c ****       /*Store In/out buffers pointers and size*/
1561:./Libraries/STM32H7xx_HAL_Driver/Src/stm32h7xx_hal_jpeg.c ****       hjpeg->pJpegInBuffPtr = pDataInMCU;
 1673              		.loc 1 1561 29
 1674 0092 FB68     		ldr	r3, [r7, #12]
 1675 0094 BA68     		ldr	r2, [r7, #8]
 1676 0096 9A61     		str	r2, [r3, #24]
1562:./Libraries/STM32H7xx_HAL_Driver/Src/stm32h7xx_hal_jpeg.c ****       hjpeg->pJpegOutBuffPtr = pDataOut;
 1677              		.loc 1 1562 30
 1678 0098 FB68     		ldr	r3, [r7, #12]
 1679 009a 3A68     		ldr	r2, [r7]
 1680 009c DA61     		str	r2, [r3, #28]
1563:./Libraries/STM32H7xx_HAL_Driver/Src/stm32h7xx_hal_jpeg.c ****       hjpeg->InDataLength = InDataLength - (InDataLength % 4UL);    /* In Data length must be multi
 1681              		.loc 1 1563 42
 1682 009e 7B68     		ldr	r3, [r7, #4]
ARM GAS  /tmp/ccXFtjVt.s 			page 59


 1683 00a0 23F00302 		bic	r2, r3, #3
 1684              		.loc 1 1563 27
 1685 00a4 FB68     		ldr	r3, [r7, #12]
 1686 00a6 9A62     		str	r2, [r3, #40]
1564:./Libraries/STM32H7xx_HAL_Driver/Src/stm32h7xx_hal_jpeg.c ****       hjpeg->OutDataLength = OutDataLength - (OutDataLength % 4UL); /* Out Data length must be mult
 1687              		.loc 1 1564 44
 1688 00a8 3B6A     		ldr	r3, [r7, #32]
 1689 00aa 23F00302 		bic	r2, r3, #3
 1690              		.loc 1 1564 28
 1691 00ae FB68     		ldr	r3, [r7, #12]
 1692 00b0 DA62     		str	r2, [r3, #44]
1565:./Libraries/STM32H7xx_HAL_Driver/Src/stm32h7xx_hal_jpeg.c **** 
1566:./Libraries/STM32H7xx_HAL_Driver/Src/stm32h7xx_hal_jpeg.c ****       /*Reset In/out data counter */
1567:./Libraries/STM32H7xx_HAL_Driver/Src/stm32h7xx_hal_jpeg.c ****       hjpeg->JpegInCount = 0;
 1693              		.loc 1 1567 26
 1694 00b2 FB68     		ldr	r3, [r7, #12]
 1695 00b4 0022     		movs	r2, #0
 1696 00b6 1A62     		str	r2, [r3, #32]
1568:./Libraries/STM32H7xx_HAL_Driver/Src/stm32h7xx_hal_jpeg.c ****       hjpeg->JpegOutCount = 0;
 1697              		.loc 1 1568 27
 1698 00b8 FB68     		ldr	r3, [r7, #12]
 1699 00ba 0022     		movs	r2, #0
 1700 00bc 5A62     		str	r2, [r3, #36]
1569:./Libraries/STM32H7xx_HAL_Driver/Src/stm32h7xx_hal_jpeg.c **** 
1570:./Libraries/STM32H7xx_HAL_Driver/Src/stm32h7xx_hal_jpeg.c ****       /*Init decoding process*/
1571:./Libraries/STM32H7xx_HAL_Driver/Src/stm32h7xx_hal_jpeg.c ****       JPEG_Init_Process(hjpeg);
 1701              		.loc 1 1571 7
 1702 00be F868     		ldr	r0, [r7, #12]
 1703 00c0 FFF7FEFF 		bl	JPEG_Init_Process
1572:./Libraries/STM32H7xx_HAL_Driver/Src/stm32h7xx_hal_jpeg.c **** 
1573:./Libraries/STM32H7xx_HAL_Driver/Src/stm32h7xx_hal_jpeg.c ****       /*JPEG data processing : In/Out FIFO transfer*/
1574:./Libraries/STM32H7xx_HAL_Driver/Src/stm32h7xx_hal_jpeg.c ****       while ((JPEG_Process(hjpeg) == JPEG_PROCESS_ONGOING))
 1704              		.loc 1 1574 13
 1705 00c4 1EE0     		b	.L63
 1706              	.L65:
1575:./Libraries/STM32H7xx_HAL_Driver/Src/stm32h7xx_hal_jpeg.c ****       {
1576:./Libraries/STM32H7xx_HAL_Driver/Src/stm32h7xx_hal_jpeg.c ****         if (Timeout != HAL_MAX_DELAY)
 1707              		.loc 1 1576 12
 1708 00c6 7B6A     		ldr	r3, [r7, #36]
 1709 00c8 B3F1FF3F 		cmp	r3, #-1
 1710 00cc 1AD0     		beq	.L63
1577:./Libraries/STM32H7xx_HAL_Driver/Src/stm32h7xx_hal_jpeg.c ****         {
1578:./Libraries/STM32H7xx_HAL_Driver/Src/stm32h7xx_hal_jpeg.c ****           if (((HAL_GetTick() - tickstart) > Timeout) || (Timeout == 0UL))
 1711              		.loc 1 1578 17
 1712 00ce FFF7FEFF 		bl	HAL_GetTick
 1713 00d2 0246     		mov	r2, r0
 1714              		.loc 1 1578 31
 1715 00d4 7B69     		ldr	r3, [r7, #20]
 1716 00d6 D31A     		subs	r3, r2, r3
 1717              		.loc 1 1578 14
 1718 00d8 7A6A     		ldr	r2, [r7, #36]
 1719 00da 9A42     		cmp	r2, r3
 1720 00dc 02D3     		bcc	.L64
 1721              		.loc 1 1578 55 discriminator 1
 1722 00de 7B6A     		ldr	r3, [r7, #36]
 1723 00e0 002B     		cmp	r3, #0
 1724 00e2 0FD1     		bne	.L63
ARM GAS  /tmp/ccXFtjVt.s 			page 60


 1725              	.L64:
1579:./Libraries/STM32H7xx_HAL_Driver/Src/stm32h7xx_hal_jpeg.c ****           {
1580:./Libraries/STM32H7xx_HAL_Driver/Src/stm32h7xx_hal_jpeg.c **** 
1581:./Libraries/STM32H7xx_HAL_Driver/Src/stm32h7xx_hal_jpeg.c ****             /* Update error code */
1582:./Libraries/STM32H7xx_HAL_Driver/Src/stm32h7xx_hal_jpeg.c ****             hjpeg->ErrorCode |= HAL_JPEG_ERROR_TIMEOUT;
 1726              		.loc 1 1582 30
 1727 00e4 FB68     		ldr	r3, [r7, #12]
 1728 00e6 1B6D     		ldr	r3, [r3, #80]
 1729 00e8 43F00802 		orr	r2, r3, #8
 1730 00ec FB68     		ldr	r3, [r7, #12]
 1731 00ee 1A65     		str	r2, [r3, #80]
1583:./Libraries/STM32H7xx_HAL_Driver/Src/stm32h7xx_hal_jpeg.c **** 
1584:./Libraries/STM32H7xx_HAL_Driver/Src/stm32h7xx_hal_jpeg.c ****             /* Process Unlocked */
1585:./Libraries/STM32H7xx_HAL_Driver/Src/stm32h7xx_hal_jpeg.c ****             __HAL_UNLOCK(hjpeg);
 1732              		.loc 1 1585 13
 1733 00f0 FB68     		ldr	r3, [r7, #12]
 1734 00f2 0022     		movs	r2, #0
 1735 00f4 83F84C20 		strb	r2, [r3, #76]
1586:./Libraries/STM32H7xx_HAL_Driver/Src/stm32h7xx_hal_jpeg.c **** 
1587:./Libraries/STM32H7xx_HAL_Driver/Src/stm32h7xx_hal_jpeg.c ****             /*Change JPEG state*/
1588:./Libraries/STM32H7xx_HAL_Driver/Src/stm32h7xx_hal_jpeg.c ****             hjpeg->State = HAL_JPEG_STATE_READY;
 1736              		.loc 1 1588 26
 1737 00f8 FB68     		ldr	r3, [r7, #12]
 1738 00fa 0122     		movs	r2, #1
 1739 00fc 83F84D20 		strb	r2, [r3, #77]
1589:./Libraries/STM32H7xx_HAL_Driver/Src/stm32h7xx_hal_jpeg.c **** 
1590:./Libraries/STM32H7xx_HAL_Driver/Src/stm32h7xx_hal_jpeg.c ****             return HAL_TIMEOUT;
 1740              		.loc 1 1590 20
 1741 0100 0323     		movs	r3, #3
 1742 0102 15E0     		b	.L58
 1743              	.L63:
1574:./Libraries/STM32H7xx_HAL_Driver/Src/stm32h7xx_hal_jpeg.c ****       {
 1744              		.loc 1 1574 15
 1745 0104 F868     		ldr	r0, [r7, #12]
 1746 0106 FFF7FEFF 		bl	JPEG_Process
 1747 010a 0346     		mov	r3, r0
1574:./Libraries/STM32H7xx_HAL_Driver/Src/stm32h7xx_hal_jpeg.c ****       {
 1748              		.loc 1 1574 13
 1749 010c 002B     		cmp	r3, #0
 1750 010e DAD0     		beq	.L65
1591:./Libraries/STM32H7xx_HAL_Driver/Src/stm32h7xx_hal_jpeg.c ****           }
1592:./Libraries/STM32H7xx_HAL_Driver/Src/stm32h7xx_hal_jpeg.c ****         }
1593:./Libraries/STM32H7xx_HAL_Driver/Src/stm32h7xx_hal_jpeg.c ****       }
1594:./Libraries/STM32H7xx_HAL_Driver/Src/stm32h7xx_hal_jpeg.c **** 
1595:./Libraries/STM32H7xx_HAL_Driver/Src/stm32h7xx_hal_jpeg.c ****       /* Process Unlocked */
1596:./Libraries/STM32H7xx_HAL_Driver/Src/stm32h7xx_hal_jpeg.c ****       __HAL_UNLOCK(hjpeg);
 1751              		.loc 1 1596 7
 1752 0110 FB68     		ldr	r3, [r7, #12]
 1753 0112 0022     		movs	r2, #0
 1754 0114 83F84C20 		strb	r2, [r3, #76]
1597:./Libraries/STM32H7xx_HAL_Driver/Src/stm32h7xx_hal_jpeg.c **** 
1598:./Libraries/STM32H7xx_HAL_Driver/Src/stm32h7xx_hal_jpeg.c ****       /*Change JPEG state*/
1599:./Libraries/STM32H7xx_HAL_Driver/Src/stm32h7xx_hal_jpeg.c ****       hjpeg->State = HAL_JPEG_STATE_READY;
 1755              		.loc 1 1599 20
 1756 0118 FB68     		ldr	r3, [r7, #12]
 1757 011a 0122     		movs	r2, #1
 1758 011c 83F84D20 		strb	r2, [r3, #77]
ARM GAS  /tmp/ccXFtjVt.s 			page 61


 1759 0120 05E0     		b	.L61
 1760              	.L62:
1600:./Libraries/STM32H7xx_HAL_Driver/Src/stm32h7xx_hal_jpeg.c **** 
1601:./Libraries/STM32H7xx_HAL_Driver/Src/stm32h7xx_hal_jpeg.c ****     }
1602:./Libraries/STM32H7xx_HAL_Driver/Src/stm32h7xx_hal_jpeg.c ****     else
1603:./Libraries/STM32H7xx_HAL_Driver/Src/stm32h7xx_hal_jpeg.c ****     {
1604:./Libraries/STM32H7xx_HAL_Driver/Src/stm32h7xx_hal_jpeg.c ****       /* Process Unlocked */
1605:./Libraries/STM32H7xx_HAL_Driver/Src/stm32h7xx_hal_jpeg.c ****       __HAL_UNLOCK(hjpeg);
 1761              		.loc 1 1605 7
 1762 0122 FB68     		ldr	r3, [r7, #12]
 1763 0124 0022     		movs	r2, #0
 1764 0126 83F84C20 		strb	r2, [r3, #76]
1606:./Libraries/STM32H7xx_HAL_Driver/Src/stm32h7xx_hal_jpeg.c **** 
1607:./Libraries/STM32H7xx_HAL_Driver/Src/stm32h7xx_hal_jpeg.c ****       return HAL_ERROR;
 1765              		.loc 1 1607 14
 1766 012a 0123     		movs	r3, #1
 1767 012c 00E0     		b	.L58
 1768              	.L61:
1608:./Libraries/STM32H7xx_HAL_Driver/Src/stm32h7xx_hal_jpeg.c ****     }
1609:./Libraries/STM32H7xx_HAL_Driver/Src/stm32h7xx_hal_jpeg.c ****   }
1610:./Libraries/STM32H7xx_HAL_Driver/Src/stm32h7xx_hal_jpeg.c ****   /* Return function status */
1611:./Libraries/STM32H7xx_HAL_Driver/Src/stm32h7xx_hal_jpeg.c ****   return HAL_OK;
 1769              		.loc 1 1611 10
 1770 012e 0023     		movs	r3, #0
 1771              	.L58:
1612:./Libraries/STM32H7xx_HAL_Driver/Src/stm32h7xx_hal_jpeg.c **** }
 1772              		.loc 1 1612 1
 1773 0130 1846     		mov	r0, r3
 1774 0132 1837     		adds	r7, r7, #24
 1775              	.LCFI53:
 1776              		.cfi_def_cfa_offset 8
 1777 0134 BD46     		mov	sp, r7
 1778              	.LCFI54:
 1779              		.cfi_def_cfa_register 13
 1780              		@ sp needed
 1781 0136 80BD     		pop	{r7, pc}
 1782              		.cfi_endproc
 1783              	.LFE340:
 1785              		.section	.text.HAL_JPEG_Decode,"ax",%progbits
 1786              		.align	1
 1787              		.global	HAL_JPEG_Decode
 1788              		.syntax unified
 1789              		.thumb
 1790              		.thumb_func
 1791              		.fpu fpv5-d16
 1793              	HAL_JPEG_Decode:
 1794              	.LFB341:
1613:./Libraries/STM32H7xx_HAL_Driver/Src/stm32h7xx_hal_jpeg.c **** 
1614:./Libraries/STM32H7xx_HAL_Driver/Src/stm32h7xx_hal_jpeg.c **** /**
1615:./Libraries/STM32H7xx_HAL_Driver/Src/stm32h7xx_hal_jpeg.c ****   * @brief  Starts JPEG decoding with polling processing
1616:./Libraries/STM32H7xx_HAL_Driver/Src/stm32h7xx_hal_jpeg.c ****   * @param  hjpeg pointer to a JPEG_HandleTypeDef structure that contains
1617:./Libraries/STM32H7xx_HAL_Driver/Src/stm32h7xx_hal_jpeg.c ****   *         the configuration information for JPEG module
1618:./Libraries/STM32H7xx_HAL_Driver/Src/stm32h7xx_hal_jpeg.c ****   * @param  pDataIn Pointer to the input data buffer
1619:./Libraries/STM32H7xx_HAL_Driver/Src/stm32h7xx_hal_jpeg.c ****   * @param  InDataLength size in bytes Input buffer
1620:./Libraries/STM32H7xx_HAL_Driver/Src/stm32h7xx_hal_jpeg.c ****   * @param  pDataOutMCU Pointer to the Output data buffer
1621:./Libraries/STM32H7xx_HAL_Driver/Src/stm32h7xx_hal_jpeg.c ****   * @param  OutDataLength size in bytes of the Output buffer
1622:./Libraries/STM32H7xx_HAL_Driver/Src/stm32h7xx_hal_jpeg.c ****   * @param  Timeout Specify Timeout value
ARM GAS  /tmp/ccXFtjVt.s 			page 62


1623:./Libraries/STM32H7xx_HAL_Driver/Src/stm32h7xx_hal_jpeg.c ****   * @retval HAL status
1624:./Libraries/STM32H7xx_HAL_Driver/Src/stm32h7xx_hal_jpeg.c ****   */
1625:./Libraries/STM32H7xx_HAL_Driver/Src/stm32h7xx_hal_jpeg.c **** HAL_StatusTypeDef  HAL_JPEG_Decode(JPEG_HandleTypeDef *hjpeg, uint8_t *pDataIn, uint32_t InDataLeng
1626:./Libraries/STM32H7xx_HAL_Driver/Src/stm32h7xx_hal_jpeg.c ****                                    uint8_t *pDataOutMCU, uint32_t OutDataLength, uint32_t Timeout)
1627:./Libraries/STM32H7xx_HAL_Driver/Src/stm32h7xx_hal_jpeg.c **** {
 1795              		.loc 1 1627 1
 1796              		.cfi_startproc
 1797              		@ args = 8, pretend = 0, frame = 24
 1798              		@ frame_needed = 1, uses_anonymous_args = 0
 1799 0000 80B5     		push	{r7, lr}
 1800              	.LCFI55:
 1801              		.cfi_def_cfa_offset 8
 1802              		.cfi_offset 7, -8
 1803              		.cfi_offset 14, -4
 1804 0002 86B0     		sub	sp, sp, #24
 1805              	.LCFI56:
 1806              		.cfi_def_cfa_offset 32
 1807 0004 00AF     		add	r7, sp, #0
 1808              	.LCFI57:
 1809              		.cfi_def_cfa_register 7
 1810 0006 F860     		str	r0, [r7, #12]
 1811 0008 B960     		str	r1, [r7, #8]
 1812 000a 7A60     		str	r2, [r7, #4]
 1813 000c 3B60     		str	r3, [r7]
1628:./Libraries/STM32H7xx_HAL_Driver/Src/stm32h7xx_hal_jpeg.c ****   uint32_t tickstart;
1629:./Libraries/STM32H7xx_HAL_Driver/Src/stm32h7xx_hal_jpeg.c **** 
1630:./Libraries/STM32H7xx_HAL_Driver/Src/stm32h7xx_hal_jpeg.c ****   /* Check the parameters */
1631:./Libraries/STM32H7xx_HAL_Driver/Src/stm32h7xx_hal_jpeg.c ****   assert_param((InDataLength >= 4UL));
1632:./Libraries/STM32H7xx_HAL_Driver/Src/stm32h7xx_hal_jpeg.c ****   assert_param((OutDataLength >= 4UL));
1633:./Libraries/STM32H7xx_HAL_Driver/Src/stm32h7xx_hal_jpeg.c **** 
1634:./Libraries/STM32H7xx_HAL_Driver/Src/stm32h7xx_hal_jpeg.c ****   /* Check In/out buffer allocation and size */
1635:./Libraries/STM32H7xx_HAL_Driver/Src/stm32h7xx_hal_jpeg.c ****   if ((hjpeg == NULL) || (pDataIn == NULL) || (pDataOutMCU == NULL))
 1814              		.loc 1 1635 6
 1815 000e FB68     		ldr	r3, [r7, #12]
 1816 0010 002B     		cmp	r3, #0
 1817 0012 05D0     		beq	.L67
 1818              		.loc 1 1635 23 discriminator 1
 1819 0014 BB68     		ldr	r3, [r7, #8]
 1820 0016 002B     		cmp	r3, #0
 1821 0018 02D0     		beq	.L67
 1822              		.loc 1 1635 44 discriminator 2
 1823 001a 3B68     		ldr	r3, [r7]
 1824 001c 002B     		cmp	r3, #0
 1825 001e 01D1     		bne	.L68
 1826              	.L67:
1636:./Libraries/STM32H7xx_HAL_Driver/Src/stm32h7xx_hal_jpeg.c ****   {
1637:./Libraries/STM32H7xx_HAL_Driver/Src/stm32h7xx_hal_jpeg.c ****     return HAL_ERROR;
 1827              		.loc 1 1637 12
 1828 0020 0123     		movs	r3, #1
 1829 0022 71E0     		b	.L69
 1830              	.L68:
1638:./Libraries/STM32H7xx_HAL_Driver/Src/stm32h7xx_hal_jpeg.c ****   }
1639:./Libraries/STM32H7xx_HAL_Driver/Src/stm32h7xx_hal_jpeg.c **** 
1640:./Libraries/STM32H7xx_HAL_Driver/Src/stm32h7xx_hal_jpeg.c ****   /* Process Locked */
1641:./Libraries/STM32H7xx_HAL_Driver/Src/stm32h7xx_hal_jpeg.c ****   __HAL_LOCK(hjpeg);
 1831              		.loc 1 1641 3
 1832 0024 FB68     		ldr	r3, [r7, #12]
ARM GAS  /tmp/ccXFtjVt.s 			page 63


 1833 0026 93F84C30 		ldrb	r3, [r3, #76]	@ zero_extendqisi2
 1834 002a 012B     		cmp	r3, #1
 1835 002c 01D1     		bne	.L70
 1836              		.loc 1 1641 3 is_stmt 0 discriminator 1
 1837 002e 0223     		movs	r3, #2
 1838 0030 6AE0     		b	.L69
 1839              	.L70:
 1840              		.loc 1 1641 3 discriminator 2
 1841 0032 FB68     		ldr	r3, [r7, #12]
 1842 0034 0122     		movs	r2, #1
 1843 0036 83F84C20 		strb	r2, [r3, #76]
1642:./Libraries/STM32H7xx_HAL_Driver/Src/stm32h7xx_hal_jpeg.c **** 
1643:./Libraries/STM32H7xx_HAL_Driver/Src/stm32h7xx_hal_jpeg.c ****   /* Get tick */
1644:./Libraries/STM32H7xx_HAL_Driver/Src/stm32h7xx_hal_jpeg.c ****   tickstart = HAL_GetTick();
 1844              		.loc 1 1644 15 is_stmt 1 discriminator 2
 1845 003a FFF7FEFF 		bl	HAL_GetTick
 1846 003e 7861     		str	r0, [r7, #20]
1645:./Libraries/STM32H7xx_HAL_Driver/Src/stm32h7xx_hal_jpeg.c **** 
1646:./Libraries/STM32H7xx_HAL_Driver/Src/stm32h7xx_hal_jpeg.c ****   if (hjpeg->State == HAL_JPEG_STATE_READY)
 1847              		.loc 1 1646 12 discriminator 2
 1848 0040 FB68     		ldr	r3, [r7, #12]
 1849 0042 93F84D30 		ldrb	r3, [r3, #77]
 1850 0046 DBB2     		uxtb	r3, r3
 1851              		.loc 1 1646 6 discriminator 2
 1852 0048 012B     		cmp	r3, #1
 1853 004a 58D1     		bne	.L71
1647:./Libraries/STM32H7xx_HAL_Driver/Src/stm32h7xx_hal_jpeg.c ****   {
1648:./Libraries/STM32H7xx_HAL_Driver/Src/stm32h7xx_hal_jpeg.c ****     /*Change JPEG state*/
1649:./Libraries/STM32H7xx_HAL_Driver/Src/stm32h7xx_hal_jpeg.c ****     hjpeg->State = HAL_JPEG_STATE_BUSY_DECODING;
 1854              		.loc 1 1649 18
 1855 004c FB68     		ldr	r3, [r7, #12]
 1856 004e 0422     		movs	r2, #4
 1857 0050 83F84D20 		strb	r2, [r3, #77]
1650:./Libraries/STM32H7xx_HAL_Driver/Src/stm32h7xx_hal_jpeg.c **** 
1651:./Libraries/STM32H7xx_HAL_Driver/Src/stm32h7xx_hal_jpeg.c ****     /*Set the Context to Decode with Polling*/
1652:./Libraries/STM32H7xx_HAL_Driver/Src/stm32h7xx_hal_jpeg.c ****     /*Set the Context to Encode with Polling*/
1653:./Libraries/STM32H7xx_HAL_Driver/Src/stm32h7xx_hal_jpeg.c ****     hjpeg->Context &= ~(JPEG_CONTEXT_OPERATION_MASK | JPEG_CONTEXT_METHOD_MASK);
 1858              		.loc 1 1653 20
 1859 0054 FB68     		ldr	r3, [r7, #12]
 1860 0056 5B6D     		ldr	r3, [r3, #84]
 1861 0058 23F00F02 		bic	r2, r3, #15
 1862 005c FB68     		ldr	r3, [r7, #12]
 1863 005e 5A65     		str	r2, [r3, #84]
1654:./Libraries/STM32H7xx_HAL_Driver/Src/stm32h7xx_hal_jpeg.c ****     hjpeg->Context |= (JPEG_CONTEXT_DECODE | JPEG_CONTEXT_POLLING);
 1864              		.loc 1 1654 20
 1865 0060 FB68     		ldr	r3, [r7, #12]
 1866 0062 5B6D     		ldr	r3, [r3, #84]
 1867 0064 43F00602 		orr	r2, r3, #6
 1868 0068 FB68     		ldr	r3, [r7, #12]
 1869 006a 5A65     		str	r2, [r3, #84]
1655:./Libraries/STM32H7xx_HAL_Driver/Src/stm32h7xx_hal_jpeg.c **** 
1656:./Libraries/STM32H7xx_HAL_Driver/Src/stm32h7xx_hal_jpeg.c ****     /*Store In/out buffers pointers and size*/
1657:./Libraries/STM32H7xx_HAL_Driver/Src/stm32h7xx_hal_jpeg.c ****     hjpeg->pJpegInBuffPtr = pDataIn;
 1870              		.loc 1 1657 27
 1871 006c FB68     		ldr	r3, [r7, #12]
 1872 006e BA68     		ldr	r2, [r7, #8]
 1873 0070 9A61     		str	r2, [r3, #24]
ARM GAS  /tmp/ccXFtjVt.s 			page 64


1658:./Libraries/STM32H7xx_HAL_Driver/Src/stm32h7xx_hal_jpeg.c ****     hjpeg->pJpegOutBuffPtr = pDataOutMCU;
 1874              		.loc 1 1658 28
 1875 0072 FB68     		ldr	r3, [r7, #12]
 1876 0074 3A68     		ldr	r2, [r7]
 1877 0076 DA61     		str	r2, [r3, #28]
1659:./Libraries/STM32H7xx_HAL_Driver/Src/stm32h7xx_hal_jpeg.c ****     hjpeg->InDataLength = InDataLength - (InDataLength % 4UL);    /*In Data length must be multiple
 1878              		.loc 1 1659 40
 1879 0078 7B68     		ldr	r3, [r7, #4]
 1880 007a 23F00302 		bic	r2, r3, #3
 1881              		.loc 1 1659 25
 1882 007e FB68     		ldr	r3, [r7, #12]
 1883 0080 9A62     		str	r2, [r3, #40]
1660:./Libraries/STM32H7xx_HAL_Driver/Src/stm32h7xx_hal_jpeg.c ****     hjpeg->OutDataLength = OutDataLength - (OutDataLength % 4UL); /*Out Data length must be multipl
 1884              		.loc 1 1660 42
 1885 0082 3B6A     		ldr	r3, [r7, #32]
 1886 0084 23F00302 		bic	r2, r3, #3
 1887              		.loc 1 1660 26
 1888 0088 FB68     		ldr	r3, [r7, #12]
 1889 008a DA62     		str	r2, [r3, #44]
1661:./Libraries/STM32H7xx_HAL_Driver/Src/stm32h7xx_hal_jpeg.c **** 
1662:./Libraries/STM32H7xx_HAL_Driver/Src/stm32h7xx_hal_jpeg.c ****     /*Reset In/out data counter */
1663:./Libraries/STM32H7xx_HAL_Driver/Src/stm32h7xx_hal_jpeg.c ****     hjpeg->JpegInCount = 0;
 1890              		.loc 1 1663 24
 1891 008c FB68     		ldr	r3, [r7, #12]
 1892 008e 0022     		movs	r2, #0
 1893 0090 1A62     		str	r2, [r3, #32]
1664:./Libraries/STM32H7xx_HAL_Driver/Src/stm32h7xx_hal_jpeg.c ****     hjpeg->JpegOutCount = 0;
 1894              		.loc 1 1664 25
 1895 0092 FB68     		ldr	r3, [r7, #12]
 1896 0094 0022     		movs	r2, #0
 1897 0096 5A62     		str	r2, [r3, #36]
1665:./Libraries/STM32H7xx_HAL_Driver/Src/stm32h7xx_hal_jpeg.c **** 
1666:./Libraries/STM32H7xx_HAL_Driver/Src/stm32h7xx_hal_jpeg.c ****     /*Init decoding process*/
1667:./Libraries/STM32H7xx_HAL_Driver/Src/stm32h7xx_hal_jpeg.c ****     JPEG_Init_Process(hjpeg);
 1898              		.loc 1 1667 5
 1899 0098 F868     		ldr	r0, [r7, #12]
 1900 009a FFF7FEFF 		bl	JPEG_Init_Process
1668:./Libraries/STM32H7xx_HAL_Driver/Src/stm32h7xx_hal_jpeg.c **** 
1669:./Libraries/STM32H7xx_HAL_Driver/Src/stm32h7xx_hal_jpeg.c ****     /*JPEG data processing : In/Out FIFO transfer*/
1670:./Libraries/STM32H7xx_HAL_Driver/Src/stm32h7xx_hal_jpeg.c ****     while ((JPEG_Process(hjpeg) == JPEG_PROCESS_ONGOING))
 1901              		.loc 1 1670 11
 1902 009e 1EE0     		b	.L72
 1903              	.L74:
1671:./Libraries/STM32H7xx_HAL_Driver/Src/stm32h7xx_hal_jpeg.c ****     {
1672:./Libraries/STM32H7xx_HAL_Driver/Src/stm32h7xx_hal_jpeg.c ****       if (Timeout != HAL_MAX_DELAY)
 1904              		.loc 1 1672 10
 1905 00a0 7B6A     		ldr	r3, [r7, #36]
 1906 00a2 B3F1FF3F 		cmp	r3, #-1
 1907 00a6 1AD0     		beq	.L72
1673:./Libraries/STM32H7xx_HAL_Driver/Src/stm32h7xx_hal_jpeg.c ****       {
1674:./Libraries/STM32H7xx_HAL_Driver/Src/stm32h7xx_hal_jpeg.c ****         if (((HAL_GetTick() - tickstart) > Timeout) || (Timeout == 0UL))
 1908              		.loc 1 1674 15
 1909 00a8 FFF7FEFF 		bl	HAL_GetTick
 1910 00ac 0246     		mov	r2, r0
 1911              		.loc 1 1674 29
 1912 00ae 7B69     		ldr	r3, [r7, #20]
 1913 00b0 D31A     		subs	r3, r2, r3
ARM GAS  /tmp/ccXFtjVt.s 			page 65


 1914              		.loc 1 1674 12
 1915 00b2 7A6A     		ldr	r2, [r7, #36]
 1916 00b4 9A42     		cmp	r2, r3
 1917 00b6 02D3     		bcc	.L73
 1918              		.loc 1 1674 53 discriminator 1
 1919 00b8 7B6A     		ldr	r3, [r7, #36]
 1920 00ba 002B     		cmp	r3, #0
 1921 00bc 0FD1     		bne	.L72
 1922              	.L73:
1675:./Libraries/STM32H7xx_HAL_Driver/Src/stm32h7xx_hal_jpeg.c ****         {
1676:./Libraries/STM32H7xx_HAL_Driver/Src/stm32h7xx_hal_jpeg.c **** 
1677:./Libraries/STM32H7xx_HAL_Driver/Src/stm32h7xx_hal_jpeg.c ****           /* Update error code */
1678:./Libraries/STM32H7xx_HAL_Driver/Src/stm32h7xx_hal_jpeg.c ****           hjpeg->ErrorCode |= HAL_JPEG_ERROR_TIMEOUT;
 1923              		.loc 1 1678 28
 1924 00be FB68     		ldr	r3, [r7, #12]
 1925 00c0 1B6D     		ldr	r3, [r3, #80]
 1926 00c2 43F00802 		orr	r2, r3, #8
 1927 00c6 FB68     		ldr	r3, [r7, #12]
 1928 00c8 1A65     		str	r2, [r3, #80]
1679:./Libraries/STM32H7xx_HAL_Driver/Src/stm32h7xx_hal_jpeg.c **** 
1680:./Libraries/STM32H7xx_HAL_Driver/Src/stm32h7xx_hal_jpeg.c ****           /* Process Unlocked */
1681:./Libraries/STM32H7xx_HAL_Driver/Src/stm32h7xx_hal_jpeg.c ****           __HAL_UNLOCK(hjpeg);
 1929              		.loc 1 1681 11
 1930 00ca FB68     		ldr	r3, [r7, #12]
 1931 00cc 0022     		movs	r2, #0
 1932 00ce 83F84C20 		strb	r2, [r3, #76]
1682:./Libraries/STM32H7xx_HAL_Driver/Src/stm32h7xx_hal_jpeg.c **** 
1683:./Libraries/STM32H7xx_HAL_Driver/Src/stm32h7xx_hal_jpeg.c ****           /*Change JPEG state*/
1684:./Libraries/STM32H7xx_HAL_Driver/Src/stm32h7xx_hal_jpeg.c ****           hjpeg->State = HAL_JPEG_STATE_READY;
 1933              		.loc 1 1684 24
 1934 00d2 FB68     		ldr	r3, [r7, #12]
 1935 00d4 0122     		movs	r2, #1
 1936 00d6 83F84D20 		strb	r2, [r3, #77]
1685:./Libraries/STM32H7xx_HAL_Driver/Src/stm32h7xx_hal_jpeg.c **** 
1686:./Libraries/STM32H7xx_HAL_Driver/Src/stm32h7xx_hal_jpeg.c ****           return HAL_TIMEOUT;
 1937              		.loc 1 1686 18
 1938 00da 0323     		movs	r3, #3
 1939 00dc 14E0     		b	.L69
 1940              	.L72:
1670:./Libraries/STM32H7xx_HAL_Driver/Src/stm32h7xx_hal_jpeg.c ****     {
 1941              		.loc 1 1670 13
 1942 00de F868     		ldr	r0, [r7, #12]
 1943 00e0 FFF7FEFF 		bl	JPEG_Process
 1944 00e4 0346     		mov	r3, r0
1670:./Libraries/STM32H7xx_HAL_Driver/Src/stm32h7xx_hal_jpeg.c ****     {
 1945              		.loc 1 1670 11
 1946 00e6 002B     		cmp	r3, #0
 1947 00e8 DAD0     		beq	.L74
1687:./Libraries/STM32H7xx_HAL_Driver/Src/stm32h7xx_hal_jpeg.c ****         }
1688:./Libraries/STM32H7xx_HAL_Driver/Src/stm32h7xx_hal_jpeg.c ****       }
1689:./Libraries/STM32H7xx_HAL_Driver/Src/stm32h7xx_hal_jpeg.c ****     }
1690:./Libraries/STM32H7xx_HAL_Driver/Src/stm32h7xx_hal_jpeg.c **** 
1691:./Libraries/STM32H7xx_HAL_Driver/Src/stm32h7xx_hal_jpeg.c ****     /* Process Unlocked */
1692:./Libraries/STM32H7xx_HAL_Driver/Src/stm32h7xx_hal_jpeg.c ****     __HAL_UNLOCK(hjpeg);
 1948              		.loc 1 1692 5
 1949 00ea FB68     		ldr	r3, [r7, #12]
 1950 00ec 0022     		movs	r2, #0
ARM GAS  /tmp/ccXFtjVt.s 			page 66


 1951 00ee 83F84C20 		strb	r2, [r3, #76]
1693:./Libraries/STM32H7xx_HAL_Driver/Src/stm32h7xx_hal_jpeg.c **** 
1694:./Libraries/STM32H7xx_HAL_Driver/Src/stm32h7xx_hal_jpeg.c ****     /*Change JPEG state*/
1695:./Libraries/STM32H7xx_HAL_Driver/Src/stm32h7xx_hal_jpeg.c ****     hjpeg->State = HAL_JPEG_STATE_READY;
 1952              		.loc 1 1695 18
 1953 00f2 FB68     		ldr	r3, [r7, #12]
 1954 00f4 0122     		movs	r2, #1
 1955 00f6 83F84D20 		strb	r2, [r3, #77]
1696:./Libraries/STM32H7xx_HAL_Driver/Src/stm32h7xx_hal_jpeg.c **** 
1697:./Libraries/STM32H7xx_HAL_Driver/Src/stm32h7xx_hal_jpeg.c ****   }
1698:./Libraries/STM32H7xx_HAL_Driver/Src/stm32h7xx_hal_jpeg.c ****   else
1699:./Libraries/STM32H7xx_HAL_Driver/Src/stm32h7xx_hal_jpeg.c ****   {
1700:./Libraries/STM32H7xx_HAL_Driver/Src/stm32h7xx_hal_jpeg.c ****     /* Process Unlocked */
1701:./Libraries/STM32H7xx_HAL_Driver/Src/stm32h7xx_hal_jpeg.c ****     __HAL_UNLOCK(hjpeg);
1702:./Libraries/STM32H7xx_HAL_Driver/Src/stm32h7xx_hal_jpeg.c **** 
1703:./Libraries/STM32H7xx_HAL_Driver/Src/stm32h7xx_hal_jpeg.c ****     return HAL_BUSY;
1704:./Libraries/STM32H7xx_HAL_Driver/Src/stm32h7xx_hal_jpeg.c ****   }
1705:./Libraries/STM32H7xx_HAL_Driver/Src/stm32h7xx_hal_jpeg.c ****   /* Return function status */
1706:./Libraries/STM32H7xx_HAL_Driver/Src/stm32h7xx_hal_jpeg.c ****   return HAL_OK;
 1956              		.loc 1 1706 10
 1957 00fa 0023     		movs	r3, #0
 1958 00fc 04E0     		b	.L69
 1959              	.L71:
1701:./Libraries/STM32H7xx_HAL_Driver/Src/stm32h7xx_hal_jpeg.c **** 
 1960              		.loc 1 1701 5
 1961 00fe FB68     		ldr	r3, [r7, #12]
 1962 0100 0022     		movs	r2, #0
 1963 0102 83F84C20 		strb	r2, [r3, #76]
1703:./Libraries/STM32H7xx_HAL_Driver/Src/stm32h7xx_hal_jpeg.c ****   }
 1964              		.loc 1 1703 12
 1965 0106 0223     		movs	r3, #2
 1966              	.L69:
1707:./Libraries/STM32H7xx_HAL_Driver/Src/stm32h7xx_hal_jpeg.c **** }
 1967              		.loc 1 1707 1
 1968 0108 1846     		mov	r0, r3
 1969 010a 1837     		adds	r7, r7, #24
 1970              	.LCFI58:
 1971              		.cfi_def_cfa_offset 8
 1972 010c BD46     		mov	sp, r7
 1973              	.LCFI59:
 1974              		.cfi_def_cfa_register 13
 1975              		@ sp needed
 1976 010e 80BD     		pop	{r7, pc}
 1977              		.cfi_endproc
 1978              	.LFE341:
 1980              		.section	.text.HAL_JPEG_Encode_IT,"ax",%progbits
 1981              		.align	1
 1982              		.global	HAL_JPEG_Encode_IT
 1983              		.syntax unified
 1984              		.thumb
 1985              		.thumb_func
 1986              		.fpu fpv5-d16
 1988              	HAL_JPEG_Encode_IT:
 1989              	.LFB342:
1708:./Libraries/STM32H7xx_HAL_Driver/Src/stm32h7xx_hal_jpeg.c **** 
1709:./Libraries/STM32H7xx_HAL_Driver/Src/stm32h7xx_hal_jpeg.c **** /**
1710:./Libraries/STM32H7xx_HAL_Driver/Src/stm32h7xx_hal_jpeg.c ****   * @brief  Starts JPEG encoding with interrupt processing
ARM GAS  /tmp/ccXFtjVt.s 			page 67


1711:./Libraries/STM32H7xx_HAL_Driver/Src/stm32h7xx_hal_jpeg.c ****   * @param  hjpeg pointer to a JPEG_HandleTypeDef structure that contains
1712:./Libraries/STM32H7xx_HAL_Driver/Src/stm32h7xx_hal_jpeg.c ****   *         the configuration information for JPEG module
1713:./Libraries/STM32H7xx_HAL_Driver/Src/stm32h7xx_hal_jpeg.c ****   * @param  pDataInMCU Pointer to the Input buffer
1714:./Libraries/STM32H7xx_HAL_Driver/Src/stm32h7xx_hal_jpeg.c ****   * @param  InDataLength size in bytes Input buffer
1715:./Libraries/STM32H7xx_HAL_Driver/Src/stm32h7xx_hal_jpeg.c ****   * @param  pDataOut Pointer to the jpeg output data buffer
1716:./Libraries/STM32H7xx_HAL_Driver/Src/stm32h7xx_hal_jpeg.c ****   * @param  OutDataLength size in bytes of the Output buffer
1717:./Libraries/STM32H7xx_HAL_Driver/Src/stm32h7xx_hal_jpeg.c ****   * @retval HAL status
1718:./Libraries/STM32H7xx_HAL_Driver/Src/stm32h7xx_hal_jpeg.c ****   */
1719:./Libraries/STM32H7xx_HAL_Driver/Src/stm32h7xx_hal_jpeg.c **** HAL_StatusTypeDef  HAL_JPEG_Encode_IT(JPEG_HandleTypeDef *hjpeg, uint8_t *pDataInMCU, uint32_t InDa
1720:./Libraries/STM32H7xx_HAL_Driver/Src/stm32h7xx_hal_jpeg.c ****                                       uint8_t *pDataOut, uint32_t OutDataLength)
1721:./Libraries/STM32H7xx_HAL_Driver/Src/stm32h7xx_hal_jpeg.c **** {
 1990              		.loc 1 1721 1
 1991              		.cfi_startproc
 1992              		@ args = 4, pretend = 0, frame = 16
 1993              		@ frame_needed = 1, uses_anonymous_args = 0
 1994 0000 80B5     		push	{r7, lr}
 1995              	.LCFI60:
 1996              		.cfi_def_cfa_offset 8
 1997              		.cfi_offset 7, -8
 1998              		.cfi_offset 14, -4
 1999 0002 84B0     		sub	sp, sp, #16
 2000              	.LCFI61:
 2001              		.cfi_def_cfa_offset 24
 2002 0004 00AF     		add	r7, sp, #0
 2003              	.LCFI62:
 2004              		.cfi_def_cfa_register 7
 2005 0006 F860     		str	r0, [r7, #12]
 2006 0008 B960     		str	r1, [r7, #8]
 2007 000a 7A60     		str	r2, [r7, #4]
 2008 000c 3B60     		str	r3, [r7]
1722:./Libraries/STM32H7xx_HAL_Driver/Src/stm32h7xx_hal_jpeg.c ****   /* Check the parameters */
1723:./Libraries/STM32H7xx_HAL_Driver/Src/stm32h7xx_hal_jpeg.c ****   assert_param((InDataLength >= 4UL));
1724:./Libraries/STM32H7xx_HAL_Driver/Src/stm32h7xx_hal_jpeg.c ****   assert_param((OutDataLength >= 4UL));
1725:./Libraries/STM32H7xx_HAL_Driver/Src/stm32h7xx_hal_jpeg.c **** 
1726:./Libraries/STM32H7xx_HAL_Driver/Src/stm32h7xx_hal_jpeg.c ****   /* Check In/out buffer allocation and size */
1727:./Libraries/STM32H7xx_HAL_Driver/Src/stm32h7xx_hal_jpeg.c ****   if ((hjpeg == NULL) || (pDataInMCU == NULL) || (pDataOut == NULL))
 2009              		.loc 1 1727 6
 2010 000e FB68     		ldr	r3, [r7, #12]
 2011 0010 002B     		cmp	r3, #0
 2012 0012 05D0     		beq	.L77
 2013              		.loc 1 1727 23 discriminator 1
 2014 0014 BB68     		ldr	r3, [r7, #8]
 2015 0016 002B     		cmp	r3, #0
 2016 0018 02D0     		beq	.L77
 2017              		.loc 1 1727 47 discriminator 2
 2018 001a 3B68     		ldr	r3, [r7]
 2019 001c 002B     		cmp	r3, #0
 2020 001e 01D1     		bne	.L78
 2021              	.L77:
1728:./Libraries/STM32H7xx_HAL_Driver/Src/stm32h7xx_hal_jpeg.c ****   {
1729:./Libraries/STM32H7xx_HAL_Driver/Src/stm32h7xx_hal_jpeg.c ****     return HAL_ERROR;
 2022              		.loc 1 1729 12
 2023 0020 0123     		movs	r3, #1
 2024 0022 4DE0     		b	.L79
 2025              	.L78:
1730:./Libraries/STM32H7xx_HAL_Driver/Src/stm32h7xx_hal_jpeg.c ****   }
1731:./Libraries/STM32H7xx_HAL_Driver/Src/stm32h7xx_hal_jpeg.c **** 
ARM GAS  /tmp/ccXFtjVt.s 			page 68


1732:./Libraries/STM32H7xx_HAL_Driver/Src/stm32h7xx_hal_jpeg.c ****   /* Process Locked */
1733:./Libraries/STM32H7xx_HAL_Driver/Src/stm32h7xx_hal_jpeg.c ****   __HAL_LOCK(hjpeg);
 2026              		.loc 1 1733 3
 2027 0024 FB68     		ldr	r3, [r7, #12]
 2028 0026 93F84C30 		ldrb	r3, [r3, #76]	@ zero_extendqisi2
 2029 002a 012B     		cmp	r3, #1
 2030 002c 01D1     		bne	.L80
 2031              		.loc 1 1733 3 is_stmt 0 discriminator 1
 2032 002e 0223     		movs	r3, #2
 2033 0030 46E0     		b	.L79
 2034              	.L80:
 2035              		.loc 1 1733 3 discriminator 2
 2036 0032 FB68     		ldr	r3, [r7, #12]
 2037 0034 0122     		movs	r2, #1
 2038 0036 83F84C20 		strb	r2, [r3, #76]
1734:./Libraries/STM32H7xx_HAL_Driver/Src/stm32h7xx_hal_jpeg.c **** 
1735:./Libraries/STM32H7xx_HAL_Driver/Src/stm32h7xx_hal_jpeg.c ****   if (hjpeg->State != HAL_JPEG_STATE_READY)
 2039              		.loc 1 1735 12 is_stmt 1 discriminator 2
 2040 003a FB68     		ldr	r3, [r7, #12]
 2041 003c 93F84D30 		ldrb	r3, [r3, #77]
 2042 0040 DBB2     		uxtb	r3, r3
 2043              		.loc 1 1735 6 discriminator 2
 2044 0042 012B     		cmp	r3, #1
 2045 0044 05D0     		beq	.L81
1736:./Libraries/STM32H7xx_HAL_Driver/Src/stm32h7xx_hal_jpeg.c ****   {
1737:./Libraries/STM32H7xx_HAL_Driver/Src/stm32h7xx_hal_jpeg.c ****     /* Process Unlocked */
1738:./Libraries/STM32H7xx_HAL_Driver/Src/stm32h7xx_hal_jpeg.c ****     __HAL_UNLOCK(hjpeg);
 2046              		.loc 1 1738 5
 2047 0046 FB68     		ldr	r3, [r7, #12]
 2048 0048 0022     		movs	r2, #0
 2049 004a 83F84C20 		strb	r2, [r3, #76]
1739:./Libraries/STM32H7xx_HAL_Driver/Src/stm32h7xx_hal_jpeg.c **** 
1740:./Libraries/STM32H7xx_HAL_Driver/Src/stm32h7xx_hal_jpeg.c ****     return HAL_BUSY;
 2050              		.loc 1 1740 12
 2051 004e 0223     		movs	r3, #2
 2052 0050 36E0     		b	.L79
 2053              	.L81:
1741:./Libraries/STM32H7xx_HAL_Driver/Src/stm32h7xx_hal_jpeg.c ****   }
1742:./Libraries/STM32H7xx_HAL_Driver/Src/stm32h7xx_hal_jpeg.c ****   else
1743:./Libraries/STM32H7xx_HAL_Driver/Src/stm32h7xx_hal_jpeg.c ****   {
1744:./Libraries/STM32H7xx_HAL_Driver/Src/stm32h7xx_hal_jpeg.c ****     if ((hjpeg->Context & JPEG_CONTEXT_CONF_ENCODING) == JPEG_CONTEXT_CONF_ENCODING)
 2054              		.loc 1 1744 15
 2055 0052 FB68     		ldr	r3, [r7, #12]
 2056 0054 5B6D     		ldr	r3, [r3, #84]
 2057              		.loc 1 1744 25
 2058 0056 03F48073 		and	r3, r3, #256
 2059              		.loc 1 1744 8
 2060 005a B3F5807F 		cmp	r3, #256
 2061 005e 2AD1     		bne	.L82
1745:./Libraries/STM32H7xx_HAL_Driver/Src/stm32h7xx_hal_jpeg.c ****     {
1746:./Libraries/STM32H7xx_HAL_Driver/Src/stm32h7xx_hal_jpeg.c ****       /*Change JPEG state*/
1747:./Libraries/STM32H7xx_HAL_Driver/Src/stm32h7xx_hal_jpeg.c ****       hjpeg->State = HAL_JPEG_STATE_BUSY_ENCODING;
 2062              		.loc 1 1747 20
 2063 0060 FB68     		ldr	r3, [r7, #12]
 2064 0062 0322     		movs	r2, #3
 2065 0064 83F84D20 		strb	r2, [r3, #77]
1748:./Libraries/STM32H7xx_HAL_Driver/Src/stm32h7xx_hal_jpeg.c **** 
ARM GAS  /tmp/ccXFtjVt.s 			page 69


1749:./Libraries/STM32H7xx_HAL_Driver/Src/stm32h7xx_hal_jpeg.c ****       /*Set the Context to Encode with IT*/
1750:./Libraries/STM32H7xx_HAL_Driver/Src/stm32h7xx_hal_jpeg.c ****       hjpeg->Context &= ~(JPEG_CONTEXT_OPERATION_MASK | JPEG_CONTEXT_METHOD_MASK);
 2066              		.loc 1 1750 22
 2067 0068 FB68     		ldr	r3, [r7, #12]
 2068 006a 5B6D     		ldr	r3, [r3, #84]
 2069 006c 23F00F02 		bic	r2, r3, #15
 2070 0070 FB68     		ldr	r3, [r7, #12]
 2071 0072 5A65     		str	r2, [r3, #84]
1751:./Libraries/STM32H7xx_HAL_Driver/Src/stm32h7xx_hal_jpeg.c ****       hjpeg->Context |= (JPEG_CONTEXT_ENCODE | JPEG_CONTEXT_IT);
 2072              		.loc 1 1751 22
 2073 0074 FB68     		ldr	r3, [r7, #12]
 2074 0076 5B6D     		ldr	r3, [r3, #84]
 2075 0078 43F00902 		orr	r2, r3, #9
 2076 007c FB68     		ldr	r3, [r7, #12]
 2077 007e 5A65     		str	r2, [r3, #84]
1752:./Libraries/STM32H7xx_HAL_Driver/Src/stm32h7xx_hal_jpeg.c **** 
1753:./Libraries/STM32H7xx_HAL_Driver/Src/stm32h7xx_hal_jpeg.c ****       /*Store In/out buffers pointers and size*/
1754:./Libraries/STM32H7xx_HAL_Driver/Src/stm32h7xx_hal_jpeg.c ****       hjpeg->pJpegInBuffPtr = pDataInMCU;
 2078              		.loc 1 1754 29
 2079 0080 FB68     		ldr	r3, [r7, #12]
 2080 0082 BA68     		ldr	r2, [r7, #8]
 2081 0084 9A61     		str	r2, [r3, #24]
1755:./Libraries/STM32H7xx_HAL_Driver/Src/stm32h7xx_hal_jpeg.c ****       hjpeg->pJpegOutBuffPtr = pDataOut;
 2082              		.loc 1 1755 30
 2083 0086 FB68     		ldr	r3, [r7, #12]
 2084 0088 3A68     		ldr	r2, [r7]
 2085 008a DA61     		str	r2, [r3, #28]
1756:./Libraries/STM32H7xx_HAL_Driver/Src/stm32h7xx_hal_jpeg.c ****       hjpeg->InDataLength = InDataLength - (InDataLength % 4UL);    /*In Data length must be multip
 2086              		.loc 1 1756 42
 2087 008c 7B68     		ldr	r3, [r7, #4]
 2088 008e 23F00302 		bic	r2, r3, #3
 2089              		.loc 1 1756 27
 2090 0092 FB68     		ldr	r3, [r7, #12]
 2091 0094 9A62     		str	r2, [r3, #40]
1757:./Libraries/STM32H7xx_HAL_Driver/Src/stm32h7xx_hal_jpeg.c ****       hjpeg->OutDataLength = OutDataLength - (OutDataLength % 4UL); /*Out Data length must be multi
 2092              		.loc 1 1757 44
 2093 0096 BB69     		ldr	r3, [r7, #24]
 2094 0098 23F00302 		bic	r2, r3, #3
 2095              		.loc 1 1757 28
 2096 009c FB68     		ldr	r3, [r7, #12]
 2097 009e DA62     		str	r2, [r3, #44]
1758:./Libraries/STM32H7xx_HAL_Driver/Src/stm32h7xx_hal_jpeg.c **** 
1759:./Libraries/STM32H7xx_HAL_Driver/Src/stm32h7xx_hal_jpeg.c ****       /*Reset In/out data counter */
1760:./Libraries/STM32H7xx_HAL_Driver/Src/stm32h7xx_hal_jpeg.c ****       hjpeg->JpegInCount = 0;
 2098              		.loc 1 1760 26
 2099 00a0 FB68     		ldr	r3, [r7, #12]
 2100 00a2 0022     		movs	r2, #0
 2101 00a4 1A62     		str	r2, [r3, #32]
1761:./Libraries/STM32H7xx_HAL_Driver/Src/stm32h7xx_hal_jpeg.c ****       hjpeg->JpegOutCount = 0;
 2102              		.loc 1 1761 27
 2103 00a6 FB68     		ldr	r3, [r7, #12]
 2104 00a8 0022     		movs	r2, #0
 2105 00aa 5A62     		str	r2, [r3, #36]
1762:./Libraries/STM32H7xx_HAL_Driver/Src/stm32h7xx_hal_jpeg.c **** 
1763:./Libraries/STM32H7xx_HAL_Driver/Src/stm32h7xx_hal_jpeg.c ****       /*Init decoding process*/
1764:./Libraries/STM32H7xx_HAL_Driver/Src/stm32h7xx_hal_jpeg.c ****       JPEG_Init_Process(hjpeg);
 2106              		.loc 1 1764 7
ARM GAS  /tmp/ccXFtjVt.s 			page 70


 2107 00ac F868     		ldr	r0, [r7, #12]
 2108 00ae FFF7FEFF 		bl	JPEG_Init_Process
1765:./Libraries/STM32H7xx_HAL_Driver/Src/stm32h7xx_hal_jpeg.c **** 
1766:./Libraries/STM32H7xx_HAL_Driver/Src/stm32h7xx_hal_jpeg.c ****     }
1767:./Libraries/STM32H7xx_HAL_Driver/Src/stm32h7xx_hal_jpeg.c ****     else
1768:./Libraries/STM32H7xx_HAL_Driver/Src/stm32h7xx_hal_jpeg.c ****     {
1769:./Libraries/STM32H7xx_HAL_Driver/Src/stm32h7xx_hal_jpeg.c ****       /* Process Unlocked */
1770:./Libraries/STM32H7xx_HAL_Driver/Src/stm32h7xx_hal_jpeg.c ****       __HAL_UNLOCK(hjpeg);
1771:./Libraries/STM32H7xx_HAL_Driver/Src/stm32h7xx_hal_jpeg.c **** 
1772:./Libraries/STM32H7xx_HAL_Driver/Src/stm32h7xx_hal_jpeg.c ****       return HAL_ERROR;
1773:./Libraries/STM32H7xx_HAL_Driver/Src/stm32h7xx_hal_jpeg.c ****     }
1774:./Libraries/STM32H7xx_HAL_Driver/Src/stm32h7xx_hal_jpeg.c ****   }
1775:./Libraries/STM32H7xx_HAL_Driver/Src/stm32h7xx_hal_jpeg.c ****   /* Return function status */
1776:./Libraries/STM32H7xx_HAL_Driver/Src/stm32h7xx_hal_jpeg.c ****   return HAL_OK;
 2109              		.loc 1 1776 10
 2110 00b2 0023     		movs	r3, #0
 2111 00b4 04E0     		b	.L79
 2112              	.L82:
1770:./Libraries/STM32H7xx_HAL_Driver/Src/stm32h7xx_hal_jpeg.c **** 
 2113              		.loc 1 1770 7
 2114 00b6 FB68     		ldr	r3, [r7, #12]
 2115 00b8 0022     		movs	r2, #0
 2116 00ba 83F84C20 		strb	r2, [r3, #76]
1772:./Libraries/STM32H7xx_HAL_Driver/Src/stm32h7xx_hal_jpeg.c ****     }
 2117              		.loc 1 1772 14
 2118 00be 0123     		movs	r3, #1
 2119              	.L79:
1777:./Libraries/STM32H7xx_HAL_Driver/Src/stm32h7xx_hal_jpeg.c **** }
 2120              		.loc 1 1777 1
 2121 00c0 1846     		mov	r0, r3
 2122 00c2 1037     		adds	r7, r7, #16
 2123              	.LCFI63:
 2124              		.cfi_def_cfa_offset 8
 2125 00c4 BD46     		mov	sp, r7
 2126              	.LCFI64:
 2127              		.cfi_def_cfa_register 13
 2128              		@ sp needed
 2129 00c6 80BD     		pop	{r7, pc}
 2130              		.cfi_endproc
 2131              	.LFE342:
 2133              		.section	.text.HAL_JPEG_Decode_IT,"ax",%progbits
 2134              		.align	1
 2135              		.global	HAL_JPEG_Decode_IT
 2136              		.syntax unified
 2137              		.thumb
 2138              		.thumb_func
 2139              		.fpu fpv5-d16
 2141              	HAL_JPEG_Decode_IT:
 2142              	.LFB343:
1778:./Libraries/STM32H7xx_HAL_Driver/Src/stm32h7xx_hal_jpeg.c **** 
1779:./Libraries/STM32H7xx_HAL_Driver/Src/stm32h7xx_hal_jpeg.c **** /**
1780:./Libraries/STM32H7xx_HAL_Driver/Src/stm32h7xx_hal_jpeg.c ****   * @brief  Starts JPEG decoding with interrupt processing
1781:./Libraries/STM32H7xx_HAL_Driver/Src/stm32h7xx_hal_jpeg.c ****   * @param  hjpeg pointer to a JPEG_HandleTypeDef structure that contains
1782:./Libraries/STM32H7xx_HAL_Driver/Src/stm32h7xx_hal_jpeg.c ****   *         the configuration information for JPEG module
1783:./Libraries/STM32H7xx_HAL_Driver/Src/stm32h7xx_hal_jpeg.c ****   * @param  pDataIn Pointer to the input data buffer
1784:./Libraries/STM32H7xx_HAL_Driver/Src/stm32h7xx_hal_jpeg.c ****   * @param  InDataLength size in bytes Input buffer
1785:./Libraries/STM32H7xx_HAL_Driver/Src/stm32h7xx_hal_jpeg.c ****   * @param  pDataOutMCU Pointer to the Output data buffer
ARM GAS  /tmp/ccXFtjVt.s 			page 71


1786:./Libraries/STM32H7xx_HAL_Driver/Src/stm32h7xx_hal_jpeg.c ****   * @param  OutDataLength size in bytes of the Output buffer
1787:./Libraries/STM32H7xx_HAL_Driver/Src/stm32h7xx_hal_jpeg.c ****   * @retval HAL status
1788:./Libraries/STM32H7xx_HAL_Driver/Src/stm32h7xx_hal_jpeg.c ****   */
1789:./Libraries/STM32H7xx_HAL_Driver/Src/stm32h7xx_hal_jpeg.c **** HAL_StatusTypeDef  HAL_JPEG_Decode_IT(JPEG_HandleTypeDef *hjpeg, uint8_t *pDataIn, uint32_t InDataL
1790:./Libraries/STM32H7xx_HAL_Driver/Src/stm32h7xx_hal_jpeg.c ****                                       uint8_t *pDataOutMCU, uint32_t OutDataLength)
1791:./Libraries/STM32H7xx_HAL_Driver/Src/stm32h7xx_hal_jpeg.c **** {
 2143              		.loc 1 1791 1
 2144              		.cfi_startproc
 2145              		@ args = 4, pretend = 0, frame = 16
 2146              		@ frame_needed = 1, uses_anonymous_args = 0
 2147 0000 80B5     		push	{r7, lr}
 2148              	.LCFI65:
 2149              		.cfi_def_cfa_offset 8
 2150              		.cfi_offset 7, -8
 2151              		.cfi_offset 14, -4
 2152 0002 84B0     		sub	sp, sp, #16
 2153              	.LCFI66:
 2154              		.cfi_def_cfa_offset 24
 2155 0004 00AF     		add	r7, sp, #0
 2156              	.LCFI67:
 2157              		.cfi_def_cfa_register 7
 2158 0006 F860     		str	r0, [r7, #12]
 2159 0008 B960     		str	r1, [r7, #8]
 2160 000a 7A60     		str	r2, [r7, #4]
 2161 000c 3B60     		str	r3, [r7]
1792:./Libraries/STM32H7xx_HAL_Driver/Src/stm32h7xx_hal_jpeg.c ****   /* Check the parameters */
1793:./Libraries/STM32H7xx_HAL_Driver/Src/stm32h7xx_hal_jpeg.c ****   assert_param((InDataLength >= 4UL));
1794:./Libraries/STM32H7xx_HAL_Driver/Src/stm32h7xx_hal_jpeg.c ****   assert_param((OutDataLength >= 4UL));
1795:./Libraries/STM32H7xx_HAL_Driver/Src/stm32h7xx_hal_jpeg.c **** 
1796:./Libraries/STM32H7xx_HAL_Driver/Src/stm32h7xx_hal_jpeg.c ****   /* Check In/out buffer allocation and size */
1797:./Libraries/STM32H7xx_HAL_Driver/Src/stm32h7xx_hal_jpeg.c ****   if ((hjpeg == NULL) || (pDataIn == NULL) || (pDataOutMCU == NULL))
 2162              		.loc 1 1797 6
 2163 000e FB68     		ldr	r3, [r7, #12]
 2164 0010 002B     		cmp	r3, #0
 2165 0012 05D0     		beq	.L85
 2166              		.loc 1 1797 23 discriminator 1
 2167 0014 BB68     		ldr	r3, [r7, #8]
 2168 0016 002B     		cmp	r3, #0
 2169 0018 02D0     		beq	.L85
 2170              		.loc 1 1797 44 discriminator 2
 2171 001a 3B68     		ldr	r3, [r7]
 2172 001c 002B     		cmp	r3, #0
 2173 001e 01D1     		bne	.L86
 2174              	.L85:
1798:./Libraries/STM32H7xx_HAL_Driver/Src/stm32h7xx_hal_jpeg.c ****   {
1799:./Libraries/STM32H7xx_HAL_Driver/Src/stm32h7xx_hal_jpeg.c ****     return HAL_ERROR;
 2175              		.loc 1 1799 12
 2176 0020 0123     		movs	r3, #1
 2177 0022 40E0     		b	.L87
 2178              	.L86:
1800:./Libraries/STM32H7xx_HAL_Driver/Src/stm32h7xx_hal_jpeg.c ****   }
1801:./Libraries/STM32H7xx_HAL_Driver/Src/stm32h7xx_hal_jpeg.c **** 
1802:./Libraries/STM32H7xx_HAL_Driver/Src/stm32h7xx_hal_jpeg.c ****   /* Process Locked */
1803:./Libraries/STM32H7xx_HAL_Driver/Src/stm32h7xx_hal_jpeg.c ****   __HAL_LOCK(hjpeg);
 2179              		.loc 1 1803 3
 2180 0024 FB68     		ldr	r3, [r7, #12]
 2181 0026 93F84C30 		ldrb	r3, [r3, #76]	@ zero_extendqisi2
ARM GAS  /tmp/ccXFtjVt.s 			page 72


 2182 002a 012B     		cmp	r3, #1
 2183 002c 01D1     		bne	.L88
 2184              		.loc 1 1803 3 is_stmt 0 discriminator 1
 2185 002e 0223     		movs	r3, #2
 2186 0030 39E0     		b	.L87
 2187              	.L88:
 2188              		.loc 1 1803 3 discriminator 2
 2189 0032 FB68     		ldr	r3, [r7, #12]
 2190 0034 0122     		movs	r2, #1
 2191 0036 83F84C20 		strb	r2, [r3, #76]
1804:./Libraries/STM32H7xx_HAL_Driver/Src/stm32h7xx_hal_jpeg.c **** 
1805:./Libraries/STM32H7xx_HAL_Driver/Src/stm32h7xx_hal_jpeg.c ****   if (hjpeg->State == HAL_JPEG_STATE_READY)
 2192              		.loc 1 1805 12 is_stmt 1 discriminator 2
 2193 003a FB68     		ldr	r3, [r7, #12]
 2194 003c 93F84D30 		ldrb	r3, [r3, #77]
 2195 0040 DBB2     		uxtb	r3, r3
 2196              		.loc 1 1805 6 discriminator 2
 2197 0042 012B     		cmp	r3, #1
 2198 0044 2AD1     		bne	.L89
1806:./Libraries/STM32H7xx_HAL_Driver/Src/stm32h7xx_hal_jpeg.c ****   {
1807:./Libraries/STM32H7xx_HAL_Driver/Src/stm32h7xx_hal_jpeg.c ****     /*Change JPEG state*/
1808:./Libraries/STM32H7xx_HAL_Driver/Src/stm32h7xx_hal_jpeg.c ****     hjpeg->State = HAL_JPEG_STATE_BUSY_DECODING;
 2199              		.loc 1 1808 18
 2200 0046 FB68     		ldr	r3, [r7, #12]
 2201 0048 0422     		movs	r2, #4
 2202 004a 83F84D20 		strb	r2, [r3, #77]
1809:./Libraries/STM32H7xx_HAL_Driver/Src/stm32h7xx_hal_jpeg.c **** 
1810:./Libraries/STM32H7xx_HAL_Driver/Src/stm32h7xx_hal_jpeg.c ****     /*Set the Context to Decode with IT*/
1811:./Libraries/STM32H7xx_HAL_Driver/Src/stm32h7xx_hal_jpeg.c ****     hjpeg->Context &= ~(JPEG_CONTEXT_OPERATION_MASK | JPEG_CONTEXT_METHOD_MASK);
 2203              		.loc 1 1811 20
 2204 004e FB68     		ldr	r3, [r7, #12]
 2205 0050 5B6D     		ldr	r3, [r3, #84]
 2206 0052 23F00F02 		bic	r2, r3, #15
 2207 0056 FB68     		ldr	r3, [r7, #12]
 2208 0058 5A65     		str	r2, [r3, #84]
1812:./Libraries/STM32H7xx_HAL_Driver/Src/stm32h7xx_hal_jpeg.c ****     hjpeg->Context |= (JPEG_CONTEXT_DECODE | JPEG_CONTEXT_IT);
 2209              		.loc 1 1812 20
 2210 005a FB68     		ldr	r3, [r7, #12]
 2211 005c 5B6D     		ldr	r3, [r3, #84]
 2212 005e 43F00A02 		orr	r2, r3, #10
 2213 0062 FB68     		ldr	r3, [r7, #12]
 2214 0064 5A65     		str	r2, [r3, #84]
1813:./Libraries/STM32H7xx_HAL_Driver/Src/stm32h7xx_hal_jpeg.c **** 
1814:./Libraries/STM32H7xx_HAL_Driver/Src/stm32h7xx_hal_jpeg.c ****     /*Store In/out buffers pointers and size*/
1815:./Libraries/STM32H7xx_HAL_Driver/Src/stm32h7xx_hal_jpeg.c ****     hjpeg->pJpegInBuffPtr = pDataIn;
 2215              		.loc 1 1815 27
 2216 0066 FB68     		ldr	r3, [r7, #12]
 2217 0068 BA68     		ldr	r2, [r7, #8]
 2218 006a 9A61     		str	r2, [r3, #24]
1816:./Libraries/STM32H7xx_HAL_Driver/Src/stm32h7xx_hal_jpeg.c ****     hjpeg->pJpegOutBuffPtr = pDataOutMCU;
 2219              		.loc 1 1816 28
 2220 006c FB68     		ldr	r3, [r7, #12]
 2221 006e 3A68     		ldr	r2, [r7]
 2222 0070 DA61     		str	r2, [r3, #28]
1817:./Libraries/STM32H7xx_HAL_Driver/Src/stm32h7xx_hal_jpeg.c ****     hjpeg->InDataLength = InDataLength - (InDataLength % 4UL);    /*In Data length must be multiple
 2223              		.loc 1 1817 40
 2224 0072 7B68     		ldr	r3, [r7, #4]
ARM GAS  /tmp/ccXFtjVt.s 			page 73


 2225 0074 23F00302 		bic	r2, r3, #3
 2226              		.loc 1 1817 25
 2227 0078 FB68     		ldr	r3, [r7, #12]
 2228 007a 9A62     		str	r2, [r3, #40]
1818:./Libraries/STM32H7xx_HAL_Driver/Src/stm32h7xx_hal_jpeg.c ****     hjpeg->OutDataLength = OutDataLength - (OutDataLength % 4UL); /*Out Data length must be multipl
 2229              		.loc 1 1818 42
 2230 007c BB69     		ldr	r3, [r7, #24]
 2231 007e 23F00302 		bic	r2, r3, #3
 2232              		.loc 1 1818 26
 2233 0082 FB68     		ldr	r3, [r7, #12]
 2234 0084 DA62     		str	r2, [r3, #44]
1819:./Libraries/STM32H7xx_HAL_Driver/Src/stm32h7xx_hal_jpeg.c **** 
1820:./Libraries/STM32H7xx_HAL_Driver/Src/stm32h7xx_hal_jpeg.c ****     /*Reset In/out data counter */
1821:./Libraries/STM32H7xx_HAL_Driver/Src/stm32h7xx_hal_jpeg.c ****     hjpeg->JpegInCount = 0;
 2235              		.loc 1 1821 24
 2236 0086 FB68     		ldr	r3, [r7, #12]
 2237 0088 0022     		movs	r2, #0
 2238 008a 1A62     		str	r2, [r3, #32]
1822:./Libraries/STM32H7xx_HAL_Driver/Src/stm32h7xx_hal_jpeg.c ****     hjpeg->JpegOutCount = 0;
 2239              		.loc 1 1822 25
 2240 008c FB68     		ldr	r3, [r7, #12]
 2241 008e 0022     		movs	r2, #0
 2242 0090 5A62     		str	r2, [r3, #36]
1823:./Libraries/STM32H7xx_HAL_Driver/Src/stm32h7xx_hal_jpeg.c **** 
1824:./Libraries/STM32H7xx_HAL_Driver/Src/stm32h7xx_hal_jpeg.c ****     /*Init decoding process*/
1825:./Libraries/STM32H7xx_HAL_Driver/Src/stm32h7xx_hal_jpeg.c ****     JPEG_Init_Process(hjpeg);
 2243              		.loc 1 1825 5
 2244 0092 F868     		ldr	r0, [r7, #12]
 2245 0094 FFF7FEFF 		bl	JPEG_Init_Process
1826:./Libraries/STM32H7xx_HAL_Driver/Src/stm32h7xx_hal_jpeg.c **** 
1827:./Libraries/STM32H7xx_HAL_Driver/Src/stm32h7xx_hal_jpeg.c ****   }
1828:./Libraries/STM32H7xx_HAL_Driver/Src/stm32h7xx_hal_jpeg.c ****   else
1829:./Libraries/STM32H7xx_HAL_Driver/Src/stm32h7xx_hal_jpeg.c ****   {
1830:./Libraries/STM32H7xx_HAL_Driver/Src/stm32h7xx_hal_jpeg.c ****     /* Process Unlocked */
1831:./Libraries/STM32H7xx_HAL_Driver/Src/stm32h7xx_hal_jpeg.c ****     __HAL_UNLOCK(hjpeg);
1832:./Libraries/STM32H7xx_HAL_Driver/Src/stm32h7xx_hal_jpeg.c **** 
1833:./Libraries/STM32H7xx_HAL_Driver/Src/stm32h7xx_hal_jpeg.c ****     return HAL_BUSY;
1834:./Libraries/STM32H7xx_HAL_Driver/Src/stm32h7xx_hal_jpeg.c ****   }
1835:./Libraries/STM32H7xx_HAL_Driver/Src/stm32h7xx_hal_jpeg.c ****   /* Return function status */
1836:./Libraries/STM32H7xx_HAL_Driver/Src/stm32h7xx_hal_jpeg.c ****   return HAL_OK;
 2246              		.loc 1 1836 10
 2247 0098 0023     		movs	r3, #0
 2248 009a 04E0     		b	.L87
 2249              	.L89:
1831:./Libraries/STM32H7xx_HAL_Driver/Src/stm32h7xx_hal_jpeg.c **** 
 2250              		.loc 1 1831 5
 2251 009c FB68     		ldr	r3, [r7, #12]
 2252 009e 0022     		movs	r2, #0
 2253 00a0 83F84C20 		strb	r2, [r3, #76]
1833:./Libraries/STM32H7xx_HAL_Driver/Src/stm32h7xx_hal_jpeg.c ****   }
 2254              		.loc 1 1833 12
 2255 00a4 0223     		movs	r3, #2
 2256              	.L87:
1837:./Libraries/STM32H7xx_HAL_Driver/Src/stm32h7xx_hal_jpeg.c **** }
 2257              		.loc 1 1837 1
 2258 00a6 1846     		mov	r0, r3
 2259 00a8 1037     		adds	r7, r7, #16
ARM GAS  /tmp/ccXFtjVt.s 			page 74


 2260              	.LCFI68:
 2261              		.cfi_def_cfa_offset 8
 2262 00aa BD46     		mov	sp, r7
 2263              	.LCFI69:
 2264              		.cfi_def_cfa_register 13
 2265              		@ sp needed
 2266 00ac 80BD     		pop	{r7, pc}
 2267              		.cfi_endproc
 2268              	.LFE343:
 2270              		.section	.text.HAL_JPEG_Encode_DMA,"ax",%progbits
 2271              		.align	1
 2272              		.global	HAL_JPEG_Encode_DMA
 2273              		.syntax unified
 2274              		.thumb
 2275              		.thumb_func
 2276              		.fpu fpv5-d16
 2278              	HAL_JPEG_Encode_DMA:
 2279              	.LFB344:
1838:./Libraries/STM32H7xx_HAL_Driver/Src/stm32h7xx_hal_jpeg.c **** 
1839:./Libraries/STM32H7xx_HAL_Driver/Src/stm32h7xx_hal_jpeg.c **** /**
1840:./Libraries/STM32H7xx_HAL_Driver/Src/stm32h7xx_hal_jpeg.c ****   * @brief  Starts JPEG encoding with DMA processing
1841:./Libraries/STM32H7xx_HAL_Driver/Src/stm32h7xx_hal_jpeg.c ****   * @param  hjpeg pointer to a JPEG_HandleTypeDef structure that contains
1842:./Libraries/STM32H7xx_HAL_Driver/Src/stm32h7xx_hal_jpeg.c ****   *         the configuration information for JPEG module
1843:./Libraries/STM32H7xx_HAL_Driver/Src/stm32h7xx_hal_jpeg.c ****   * @param  pDataInMCU Pointer to the Input buffer
1844:./Libraries/STM32H7xx_HAL_Driver/Src/stm32h7xx_hal_jpeg.c ****   * @param  InDataLength size in bytes Input buffer
1845:./Libraries/STM32H7xx_HAL_Driver/Src/stm32h7xx_hal_jpeg.c ****   * @param  pDataOut Pointer to the jpeg output data buffer
1846:./Libraries/STM32H7xx_HAL_Driver/Src/stm32h7xx_hal_jpeg.c ****   * @param  OutDataLength size in bytes of the Output buffer
1847:./Libraries/STM32H7xx_HAL_Driver/Src/stm32h7xx_hal_jpeg.c ****   * @retval HAL status
1848:./Libraries/STM32H7xx_HAL_Driver/Src/stm32h7xx_hal_jpeg.c ****   */
1849:./Libraries/STM32H7xx_HAL_Driver/Src/stm32h7xx_hal_jpeg.c **** HAL_StatusTypeDef  HAL_JPEG_Encode_DMA(JPEG_HandleTypeDef *hjpeg, uint8_t *pDataInMCU, uint32_t InD
1850:./Libraries/STM32H7xx_HAL_Driver/Src/stm32h7xx_hal_jpeg.c ****                                        uint8_t *pDataOut, uint32_t OutDataLength)
1851:./Libraries/STM32H7xx_HAL_Driver/Src/stm32h7xx_hal_jpeg.c **** {
 2280              		.loc 1 1851 1
 2281              		.cfi_startproc
 2282              		@ args = 4, pretend = 0, frame = 16
 2283              		@ frame_needed = 1, uses_anonymous_args = 0
 2284 0000 80B5     		push	{r7, lr}
 2285              	.LCFI70:
 2286              		.cfi_def_cfa_offset 8
 2287              		.cfi_offset 7, -8
 2288              		.cfi_offset 14, -4
 2289 0002 84B0     		sub	sp, sp, #16
 2290              	.LCFI71:
 2291              		.cfi_def_cfa_offset 24
 2292 0004 00AF     		add	r7, sp, #0
 2293              	.LCFI72:
 2294              		.cfi_def_cfa_register 7
 2295 0006 F860     		str	r0, [r7, #12]
 2296 0008 B960     		str	r1, [r7, #8]
 2297 000a 7A60     		str	r2, [r7, #4]
 2298 000c 3B60     		str	r3, [r7]
1852:./Libraries/STM32H7xx_HAL_Driver/Src/stm32h7xx_hal_jpeg.c ****   /* Check the parameters */
1853:./Libraries/STM32H7xx_HAL_Driver/Src/stm32h7xx_hal_jpeg.c ****   assert_param((InDataLength >= 4UL));
1854:./Libraries/STM32H7xx_HAL_Driver/Src/stm32h7xx_hal_jpeg.c ****   assert_param((OutDataLength >= 4UL));
1855:./Libraries/STM32H7xx_HAL_Driver/Src/stm32h7xx_hal_jpeg.c **** 
1856:./Libraries/STM32H7xx_HAL_Driver/Src/stm32h7xx_hal_jpeg.c ****   /* Check In/out buffer allocation and size */
1857:./Libraries/STM32H7xx_HAL_Driver/Src/stm32h7xx_hal_jpeg.c ****   if ((hjpeg == NULL) || (pDataInMCU == NULL) || (pDataOut == NULL))
ARM GAS  /tmp/ccXFtjVt.s 			page 75


 2299              		.loc 1 1857 6
 2300 000e FB68     		ldr	r3, [r7, #12]
 2301 0010 002B     		cmp	r3, #0
 2302 0012 05D0     		beq	.L92
 2303              		.loc 1 1857 23 discriminator 1
 2304 0014 BB68     		ldr	r3, [r7, #8]
 2305 0016 002B     		cmp	r3, #0
 2306 0018 02D0     		beq	.L92
 2307              		.loc 1 1857 47 discriminator 2
 2308 001a 3B68     		ldr	r3, [r7]
 2309 001c 002B     		cmp	r3, #0
 2310 001e 01D1     		bne	.L93
 2311              	.L92:
1858:./Libraries/STM32H7xx_HAL_Driver/Src/stm32h7xx_hal_jpeg.c ****   {
1859:./Libraries/STM32H7xx_HAL_Driver/Src/stm32h7xx_hal_jpeg.c ****     return HAL_ERROR;
 2312              		.loc 1 1859 12
 2313 0020 0123     		movs	r3, #1
 2314 0022 59E0     		b	.L94
 2315              	.L93:
1860:./Libraries/STM32H7xx_HAL_Driver/Src/stm32h7xx_hal_jpeg.c ****   }
1861:./Libraries/STM32H7xx_HAL_Driver/Src/stm32h7xx_hal_jpeg.c **** 
1862:./Libraries/STM32H7xx_HAL_Driver/Src/stm32h7xx_hal_jpeg.c ****   /* Process Locked */
1863:./Libraries/STM32H7xx_HAL_Driver/Src/stm32h7xx_hal_jpeg.c ****   __HAL_LOCK(hjpeg);
 2316              		.loc 1 1863 3
 2317 0024 FB68     		ldr	r3, [r7, #12]
 2318 0026 93F84C30 		ldrb	r3, [r3, #76]	@ zero_extendqisi2
 2319 002a 012B     		cmp	r3, #1
 2320 002c 01D1     		bne	.L95
 2321              		.loc 1 1863 3 is_stmt 0 discriminator 1
 2322 002e 0223     		movs	r3, #2
 2323 0030 52E0     		b	.L94
 2324              	.L95:
 2325              		.loc 1 1863 3 discriminator 2
 2326 0032 FB68     		ldr	r3, [r7, #12]
 2327 0034 0122     		movs	r2, #1
 2328 0036 83F84C20 		strb	r2, [r3, #76]
1864:./Libraries/STM32H7xx_HAL_Driver/Src/stm32h7xx_hal_jpeg.c **** 
1865:./Libraries/STM32H7xx_HAL_Driver/Src/stm32h7xx_hal_jpeg.c ****   if (hjpeg->State != HAL_JPEG_STATE_READY)
 2329              		.loc 1 1865 12 is_stmt 1 discriminator 2
 2330 003a FB68     		ldr	r3, [r7, #12]
 2331 003c 93F84D30 		ldrb	r3, [r3, #77]
 2332 0040 DBB2     		uxtb	r3, r3
 2333              		.loc 1 1865 6 discriminator 2
 2334 0042 012B     		cmp	r3, #1
 2335 0044 05D0     		beq	.L96
1866:./Libraries/STM32H7xx_HAL_Driver/Src/stm32h7xx_hal_jpeg.c ****   {
1867:./Libraries/STM32H7xx_HAL_Driver/Src/stm32h7xx_hal_jpeg.c ****     /* Process Unlocked */
1868:./Libraries/STM32H7xx_HAL_Driver/Src/stm32h7xx_hal_jpeg.c ****     __HAL_UNLOCK(hjpeg);
 2336              		.loc 1 1868 5
 2337 0046 FB68     		ldr	r3, [r7, #12]
 2338 0048 0022     		movs	r2, #0
 2339 004a 83F84C20 		strb	r2, [r3, #76]
1869:./Libraries/STM32H7xx_HAL_Driver/Src/stm32h7xx_hal_jpeg.c **** 
1870:./Libraries/STM32H7xx_HAL_Driver/Src/stm32h7xx_hal_jpeg.c ****     return HAL_BUSY;
 2340              		.loc 1 1870 12
 2341 004e 0223     		movs	r3, #2
 2342 0050 42E0     		b	.L94
ARM GAS  /tmp/ccXFtjVt.s 			page 76


 2343              	.L96:
1871:./Libraries/STM32H7xx_HAL_Driver/Src/stm32h7xx_hal_jpeg.c ****   }
1872:./Libraries/STM32H7xx_HAL_Driver/Src/stm32h7xx_hal_jpeg.c ****   else
1873:./Libraries/STM32H7xx_HAL_Driver/Src/stm32h7xx_hal_jpeg.c ****   {
1874:./Libraries/STM32H7xx_HAL_Driver/Src/stm32h7xx_hal_jpeg.c ****     if ((hjpeg->Context & JPEG_CONTEXT_CONF_ENCODING) == JPEG_CONTEXT_CONF_ENCODING)
 2344              		.loc 1 1874 15
 2345 0052 FB68     		ldr	r3, [r7, #12]
 2346 0054 5B6D     		ldr	r3, [r3, #84]
 2347              		.loc 1 1874 25
 2348 0056 03F48073 		and	r3, r3, #256
 2349              		.loc 1 1874 8
 2350 005a B3F5807F 		cmp	r3, #256
 2351 005e 34D1     		bne	.L97
1875:./Libraries/STM32H7xx_HAL_Driver/Src/stm32h7xx_hal_jpeg.c ****     {
1876:./Libraries/STM32H7xx_HAL_Driver/Src/stm32h7xx_hal_jpeg.c ****       /*Change JPEG state*/
1877:./Libraries/STM32H7xx_HAL_Driver/Src/stm32h7xx_hal_jpeg.c ****       hjpeg->State = HAL_JPEG_STATE_BUSY_ENCODING;
 2352              		.loc 1 1877 20
 2353 0060 FB68     		ldr	r3, [r7, #12]
 2354 0062 0322     		movs	r2, #3
 2355 0064 83F84D20 		strb	r2, [r3, #77]
1878:./Libraries/STM32H7xx_HAL_Driver/Src/stm32h7xx_hal_jpeg.c **** 
1879:./Libraries/STM32H7xx_HAL_Driver/Src/stm32h7xx_hal_jpeg.c ****       /*Set the Context to Encode with DMA*/
1880:./Libraries/STM32H7xx_HAL_Driver/Src/stm32h7xx_hal_jpeg.c ****       hjpeg->Context &= ~(JPEG_CONTEXT_OPERATION_MASK | JPEG_CONTEXT_METHOD_MASK);
 2356              		.loc 1 1880 22
 2357 0068 FB68     		ldr	r3, [r7, #12]
 2358 006a 5B6D     		ldr	r3, [r3, #84]
 2359 006c 23F00F02 		bic	r2, r3, #15
 2360 0070 FB68     		ldr	r3, [r7, #12]
 2361 0072 5A65     		str	r2, [r3, #84]
1881:./Libraries/STM32H7xx_HAL_Driver/Src/stm32h7xx_hal_jpeg.c ****       hjpeg->Context |= (JPEG_CONTEXT_ENCODE | JPEG_CONTEXT_DMA);
 2362              		.loc 1 1881 22
 2363 0074 FB68     		ldr	r3, [r7, #12]
 2364 0076 5B6D     		ldr	r3, [r3, #84]
 2365 0078 43F00D02 		orr	r2, r3, #13
 2366 007c FB68     		ldr	r3, [r7, #12]
 2367 007e 5A65     		str	r2, [r3, #84]
1882:./Libraries/STM32H7xx_HAL_Driver/Src/stm32h7xx_hal_jpeg.c **** 
1883:./Libraries/STM32H7xx_HAL_Driver/Src/stm32h7xx_hal_jpeg.c ****       /*Store In/out buffers pointers and size*/
1884:./Libraries/STM32H7xx_HAL_Driver/Src/stm32h7xx_hal_jpeg.c ****       hjpeg->pJpegInBuffPtr = pDataInMCU;
 2368              		.loc 1 1884 29
 2369 0080 FB68     		ldr	r3, [r7, #12]
 2370 0082 BA68     		ldr	r2, [r7, #8]
 2371 0084 9A61     		str	r2, [r3, #24]
1885:./Libraries/STM32H7xx_HAL_Driver/Src/stm32h7xx_hal_jpeg.c ****       hjpeg->pJpegOutBuffPtr = pDataOut;
 2372              		.loc 1 1885 30
 2373 0086 FB68     		ldr	r3, [r7, #12]
 2374 0088 3A68     		ldr	r2, [r7]
 2375 008a DA61     		str	r2, [r3, #28]
1886:./Libraries/STM32H7xx_HAL_Driver/Src/stm32h7xx_hal_jpeg.c ****       hjpeg->InDataLength = InDataLength;
 2376              		.loc 1 1886 27
 2377 008c FB68     		ldr	r3, [r7, #12]
 2378 008e 7A68     		ldr	r2, [r7, #4]
 2379 0090 9A62     		str	r2, [r3, #40]
1887:./Libraries/STM32H7xx_HAL_Driver/Src/stm32h7xx_hal_jpeg.c ****       hjpeg->OutDataLength = OutDataLength;
 2380              		.loc 1 1887 28
 2381 0092 FB68     		ldr	r3, [r7, #12]
 2382 0094 BA69     		ldr	r2, [r7, #24]
ARM GAS  /tmp/ccXFtjVt.s 			page 77


 2383 0096 DA62     		str	r2, [r3, #44]
1888:./Libraries/STM32H7xx_HAL_Driver/Src/stm32h7xx_hal_jpeg.c **** 
1889:./Libraries/STM32H7xx_HAL_Driver/Src/stm32h7xx_hal_jpeg.c ****       /*Reset In/out data counter */
1890:./Libraries/STM32H7xx_HAL_Driver/Src/stm32h7xx_hal_jpeg.c ****       hjpeg->JpegInCount = 0;
 2384              		.loc 1 1890 26
 2385 0098 FB68     		ldr	r3, [r7, #12]
 2386 009a 0022     		movs	r2, #0
 2387 009c 1A62     		str	r2, [r3, #32]
1891:./Libraries/STM32H7xx_HAL_Driver/Src/stm32h7xx_hal_jpeg.c ****       hjpeg->JpegOutCount = 0;
 2388              		.loc 1 1891 27
 2389 009e FB68     		ldr	r3, [r7, #12]
 2390 00a0 0022     		movs	r2, #0
 2391 00a2 5A62     		str	r2, [r3, #36]
1892:./Libraries/STM32H7xx_HAL_Driver/Src/stm32h7xx_hal_jpeg.c **** 
1893:./Libraries/STM32H7xx_HAL_Driver/Src/stm32h7xx_hal_jpeg.c ****       /*Init decoding process*/
1894:./Libraries/STM32H7xx_HAL_Driver/Src/stm32h7xx_hal_jpeg.c ****       JPEG_Init_Process(hjpeg);
 2392              		.loc 1 1894 7
 2393 00a4 F868     		ldr	r0, [r7, #12]
 2394 00a6 FFF7FEFF 		bl	JPEG_Init_Process
1895:./Libraries/STM32H7xx_HAL_Driver/Src/stm32h7xx_hal_jpeg.c **** 
1896:./Libraries/STM32H7xx_HAL_Driver/Src/stm32h7xx_hal_jpeg.c ****       /* JPEG encoding process using DMA */
1897:./Libraries/STM32H7xx_HAL_Driver/Src/stm32h7xx_hal_jpeg.c ****       if (JPEG_DMA_StartProcess(hjpeg) != HAL_OK)
 2395              		.loc 1 1897 11
 2396 00aa F868     		ldr	r0, [r7, #12]
 2397 00ac FFF7FEFF 		bl	JPEG_DMA_StartProcess
 2398 00b0 0346     		mov	r3, r0
 2399              		.loc 1 1897 10
 2400 00b2 002B     		cmp	r3, #0
 2401 00b4 0FD0     		beq	.L98
1898:./Libraries/STM32H7xx_HAL_Driver/Src/stm32h7xx_hal_jpeg.c ****       {
1899:./Libraries/STM32H7xx_HAL_Driver/Src/stm32h7xx_hal_jpeg.c ****         /* Update State */
1900:./Libraries/STM32H7xx_HAL_Driver/Src/stm32h7xx_hal_jpeg.c ****         hjpeg->State = HAL_JPEG_STATE_ERROR;
 2402              		.loc 1 1900 22
 2403 00b6 FB68     		ldr	r3, [r7, #12]
 2404 00b8 0622     		movs	r2, #6
 2405 00ba 83F84D20 		strb	r2, [r3, #77]
1901:./Libraries/STM32H7xx_HAL_Driver/Src/stm32h7xx_hal_jpeg.c ****         /* Process Unlocked */
1902:./Libraries/STM32H7xx_HAL_Driver/Src/stm32h7xx_hal_jpeg.c ****         __HAL_UNLOCK(hjpeg);
 2406              		.loc 1 1902 9
 2407 00be FB68     		ldr	r3, [r7, #12]
 2408 00c0 0022     		movs	r2, #0
 2409 00c2 83F84C20 		strb	r2, [r3, #76]
1903:./Libraries/STM32H7xx_HAL_Driver/Src/stm32h7xx_hal_jpeg.c **** 
1904:./Libraries/STM32H7xx_HAL_Driver/Src/stm32h7xx_hal_jpeg.c ****         return HAL_ERROR;
 2410              		.loc 1 1904 16
 2411 00c6 0123     		movs	r3, #1
 2412 00c8 06E0     		b	.L94
 2413              	.L97:
1905:./Libraries/STM32H7xx_HAL_Driver/Src/stm32h7xx_hal_jpeg.c ****       }
1906:./Libraries/STM32H7xx_HAL_Driver/Src/stm32h7xx_hal_jpeg.c **** 
1907:./Libraries/STM32H7xx_HAL_Driver/Src/stm32h7xx_hal_jpeg.c ****     }
1908:./Libraries/STM32H7xx_HAL_Driver/Src/stm32h7xx_hal_jpeg.c ****     else
1909:./Libraries/STM32H7xx_HAL_Driver/Src/stm32h7xx_hal_jpeg.c ****     {
1910:./Libraries/STM32H7xx_HAL_Driver/Src/stm32h7xx_hal_jpeg.c ****       /* Process Unlocked */
1911:./Libraries/STM32H7xx_HAL_Driver/Src/stm32h7xx_hal_jpeg.c ****       __HAL_UNLOCK(hjpeg);
 2414              		.loc 1 1911 7
 2415 00ca FB68     		ldr	r3, [r7, #12]
ARM GAS  /tmp/ccXFtjVt.s 			page 78


 2416 00cc 0022     		movs	r2, #0
 2417 00ce 83F84C20 		strb	r2, [r3, #76]
1912:./Libraries/STM32H7xx_HAL_Driver/Src/stm32h7xx_hal_jpeg.c **** 
1913:./Libraries/STM32H7xx_HAL_Driver/Src/stm32h7xx_hal_jpeg.c ****       return HAL_ERROR;
 2418              		.loc 1 1913 14
 2419 00d2 0123     		movs	r3, #1
 2420 00d4 00E0     		b	.L94
 2421              	.L98:
1914:./Libraries/STM32H7xx_HAL_Driver/Src/stm32h7xx_hal_jpeg.c ****     }
1915:./Libraries/STM32H7xx_HAL_Driver/Src/stm32h7xx_hal_jpeg.c ****   }
1916:./Libraries/STM32H7xx_HAL_Driver/Src/stm32h7xx_hal_jpeg.c ****   /* Return function status */
1917:./Libraries/STM32H7xx_HAL_Driver/Src/stm32h7xx_hal_jpeg.c ****   return HAL_OK;
 2422              		.loc 1 1917 10
 2423 00d6 0023     		movs	r3, #0
 2424              	.L94:
1918:./Libraries/STM32H7xx_HAL_Driver/Src/stm32h7xx_hal_jpeg.c **** }
 2425              		.loc 1 1918 1
 2426 00d8 1846     		mov	r0, r3
 2427 00da 1037     		adds	r7, r7, #16
 2428              	.LCFI73:
 2429              		.cfi_def_cfa_offset 8
 2430 00dc BD46     		mov	sp, r7
 2431              	.LCFI74:
 2432              		.cfi_def_cfa_register 13
 2433              		@ sp needed
 2434 00de 80BD     		pop	{r7, pc}
 2435              		.cfi_endproc
 2436              	.LFE344:
 2438              		.section	.text.HAL_JPEG_Decode_DMA,"ax",%progbits
 2439              		.align	1
 2440              		.global	HAL_JPEG_Decode_DMA
 2441              		.syntax unified
 2442              		.thumb
 2443              		.thumb_func
 2444              		.fpu fpv5-d16
 2446              	HAL_JPEG_Decode_DMA:
 2447              	.LFB345:
1919:./Libraries/STM32H7xx_HAL_Driver/Src/stm32h7xx_hal_jpeg.c **** 
1920:./Libraries/STM32H7xx_HAL_Driver/Src/stm32h7xx_hal_jpeg.c **** /**
1921:./Libraries/STM32H7xx_HAL_Driver/Src/stm32h7xx_hal_jpeg.c ****   * @brief  Starts JPEG decoding with DMA processing
1922:./Libraries/STM32H7xx_HAL_Driver/Src/stm32h7xx_hal_jpeg.c ****   * @param  hjpeg pointer to a JPEG_HandleTypeDef structure that contains
1923:./Libraries/STM32H7xx_HAL_Driver/Src/stm32h7xx_hal_jpeg.c ****   *         the configuration information for JPEG module
1924:./Libraries/STM32H7xx_HAL_Driver/Src/stm32h7xx_hal_jpeg.c ****   * @param  pDataIn Pointer to the input data buffer
1925:./Libraries/STM32H7xx_HAL_Driver/Src/stm32h7xx_hal_jpeg.c ****   * @param  InDataLength size in bytes Input buffer
1926:./Libraries/STM32H7xx_HAL_Driver/Src/stm32h7xx_hal_jpeg.c ****   * @param  pDataOutMCU Pointer to the Output data buffer
1927:./Libraries/STM32H7xx_HAL_Driver/Src/stm32h7xx_hal_jpeg.c ****   * @param  OutDataLength size in bytes of the Output buffer
1928:./Libraries/STM32H7xx_HAL_Driver/Src/stm32h7xx_hal_jpeg.c ****   * @retval HAL status
1929:./Libraries/STM32H7xx_HAL_Driver/Src/stm32h7xx_hal_jpeg.c ****   */
1930:./Libraries/STM32H7xx_HAL_Driver/Src/stm32h7xx_hal_jpeg.c **** HAL_StatusTypeDef  HAL_JPEG_Decode_DMA(JPEG_HandleTypeDef *hjpeg, uint8_t *pDataIn, uint32_t InData
1931:./Libraries/STM32H7xx_HAL_Driver/Src/stm32h7xx_hal_jpeg.c ****                                        uint8_t *pDataOutMCU, uint32_t OutDataLength)
1932:./Libraries/STM32H7xx_HAL_Driver/Src/stm32h7xx_hal_jpeg.c **** {
 2448              		.loc 1 1932 1
 2449              		.cfi_startproc
 2450              		@ args = 4, pretend = 0, frame = 16
 2451              		@ frame_needed = 1, uses_anonymous_args = 0
 2452 0000 80B5     		push	{r7, lr}
 2453              	.LCFI75:
ARM GAS  /tmp/ccXFtjVt.s 			page 79


 2454              		.cfi_def_cfa_offset 8
 2455              		.cfi_offset 7, -8
 2456              		.cfi_offset 14, -4
 2457 0002 84B0     		sub	sp, sp, #16
 2458              	.LCFI76:
 2459              		.cfi_def_cfa_offset 24
 2460 0004 00AF     		add	r7, sp, #0
 2461              	.LCFI77:
 2462              		.cfi_def_cfa_register 7
 2463 0006 F860     		str	r0, [r7, #12]
 2464 0008 B960     		str	r1, [r7, #8]
 2465 000a 7A60     		str	r2, [r7, #4]
 2466 000c 3B60     		str	r3, [r7]
1933:./Libraries/STM32H7xx_HAL_Driver/Src/stm32h7xx_hal_jpeg.c ****   /* Check the parameters */
1934:./Libraries/STM32H7xx_HAL_Driver/Src/stm32h7xx_hal_jpeg.c ****   assert_param((InDataLength >= 4UL));
1935:./Libraries/STM32H7xx_HAL_Driver/Src/stm32h7xx_hal_jpeg.c ****   assert_param((OutDataLength >= 4UL));
1936:./Libraries/STM32H7xx_HAL_Driver/Src/stm32h7xx_hal_jpeg.c **** 
1937:./Libraries/STM32H7xx_HAL_Driver/Src/stm32h7xx_hal_jpeg.c ****   /* Check In/out buffer allocation and size */
1938:./Libraries/STM32H7xx_HAL_Driver/Src/stm32h7xx_hal_jpeg.c ****   if ((hjpeg == NULL) || (pDataIn == NULL) || (pDataOutMCU == NULL))
 2467              		.loc 1 1938 6
 2468 000e FB68     		ldr	r3, [r7, #12]
 2469 0010 002B     		cmp	r3, #0
 2470 0012 05D0     		beq	.L100
 2471              		.loc 1 1938 23 discriminator 1
 2472 0014 BB68     		ldr	r3, [r7, #8]
 2473 0016 002B     		cmp	r3, #0
 2474 0018 02D0     		beq	.L100
 2475              		.loc 1 1938 44 discriminator 2
 2476 001a 3B68     		ldr	r3, [r7]
 2477 001c 002B     		cmp	r3, #0
 2478 001e 01D1     		bne	.L101
 2479              	.L100:
1939:./Libraries/STM32H7xx_HAL_Driver/Src/stm32h7xx_hal_jpeg.c ****   {
1940:./Libraries/STM32H7xx_HAL_Driver/Src/stm32h7xx_hal_jpeg.c ****     return HAL_ERROR;
 2480              		.loc 1 1940 12
 2481 0020 0123     		movs	r3, #1
 2482 0022 4CE0     		b	.L102
 2483              	.L101:
1941:./Libraries/STM32H7xx_HAL_Driver/Src/stm32h7xx_hal_jpeg.c ****   }
1942:./Libraries/STM32H7xx_HAL_Driver/Src/stm32h7xx_hal_jpeg.c **** 
1943:./Libraries/STM32H7xx_HAL_Driver/Src/stm32h7xx_hal_jpeg.c ****   /* Process Locked */
1944:./Libraries/STM32H7xx_HAL_Driver/Src/stm32h7xx_hal_jpeg.c ****   __HAL_LOCK(hjpeg);
 2484              		.loc 1 1944 3
 2485 0024 FB68     		ldr	r3, [r7, #12]
 2486 0026 93F84C30 		ldrb	r3, [r3, #76]	@ zero_extendqisi2
 2487 002a 012B     		cmp	r3, #1
 2488 002c 01D1     		bne	.L103
 2489              		.loc 1 1944 3 is_stmt 0 discriminator 1
 2490 002e 0223     		movs	r3, #2
 2491 0030 45E0     		b	.L102
 2492              	.L103:
 2493              		.loc 1 1944 3 discriminator 2
 2494 0032 FB68     		ldr	r3, [r7, #12]
 2495 0034 0122     		movs	r2, #1
 2496 0036 83F84C20 		strb	r2, [r3, #76]
1945:./Libraries/STM32H7xx_HAL_Driver/Src/stm32h7xx_hal_jpeg.c **** 
1946:./Libraries/STM32H7xx_HAL_Driver/Src/stm32h7xx_hal_jpeg.c ****   if (hjpeg->State == HAL_JPEG_STATE_READY)
ARM GAS  /tmp/ccXFtjVt.s 			page 80


 2497              		.loc 1 1946 12 is_stmt 1 discriminator 2
 2498 003a FB68     		ldr	r3, [r7, #12]
 2499 003c 93F84D30 		ldrb	r3, [r3, #77]
 2500 0040 DBB2     		uxtb	r3, r3
 2501              		.loc 1 1946 6 discriminator 2
 2502 0042 012B     		cmp	r3, #1
 2503 0044 34D1     		bne	.L104
1947:./Libraries/STM32H7xx_HAL_Driver/Src/stm32h7xx_hal_jpeg.c ****   {
1948:./Libraries/STM32H7xx_HAL_Driver/Src/stm32h7xx_hal_jpeg.c ****     /*Change JPEG state*/
1949:./Libraries/STM32H7xx_HAL_Driver/Src/stm32h7xx_hal_jpeg.c ****     hjpeg->State = HAL_JPEG_STATE_BUSY_DECODING;
 2504              		.loc 1 1949 18
 2505 0046 FB68     		ldr	r3, [r7, #12]
 2506 0048 0422     		movs	r2, #4
 2507 004a 83F84D20 		strb	r2, [r3, #77]
1950:./Libraries/STM32H7xx_HAL_Driver/Src/stm32h7xx_hal_jpeg.c **** 
1951:./Libraries/STM32H7xx_HAL_Driver/Src/stm32h7xx_hal_jpeg.c ****     /*Set the Context to Decode with DMA*/
1952:./Libraries/STM32H7xx_HAL_Driver/Src/stm32h7xx_hal_jpeg.c ****     hjpeg->Context &= ~(JPEG_CONTEXT_OPERATION_MASK | JPEG_CONTEXT_METHOD_MASK);
 2508              		.loc 1 1952 20
 2509 004e FB68     		ldr	r3, [r7, #12]
 2510 0050 5B6D     		ldr	r3, [r3, #84]
 2511 0052 23F00F02 		bic	r2, r3, #15
 2512 0056 FB68     		ldr	r3, [r7, #12]
 2513 0058 5A65     		str	r2, [r3, #84]
1953:./Libraries/STM32H7xx_HAL_Driver/Src/stm32h7xx_hal_jpeg.c ****     hjpeg->Context |= (JPEG_CONTEXT_DECODE | JPEG_CONTEXT_DMA);
 2514              		.loc 1 1953 20
 2515 005a FB68     		ldr	r3, [r7, #12]
 2516 005c 5B6D     		ldr	r3, [r3, #84]
 2517 005e 43F00E02 		orr	r2, r3, #14
 2518 0062 FB68     		ldr	r3, [r7, #12]
 2519 0064 5A65     		str	r2, [r3, #84]
1954:./Libraries/STM32H7xx_HAL_Driver/Src/stm32h7xx_hal_jpeg.c **** 
1955:./Libraries/STM32H7xx_HAL_Driver/Src/stm32h7xx_hal_jpeg.c ****     /*Store In/out buffers pointers and size*/
1956:./Libraries/STM32H7xx_HAL_Driver/Src/stm32h7xx_hal_jpeg.c ****     hjpeg->pJpegInBuffPtr = pDataIn;
 2520              		.loc 1 1956 27
 2521 0066 FB68     		ldr	r3, [r7, #12]
 2522 0068 BA68     		ldr	r2, [r7, #8]
 2523 006a 9A61     		str	r2, [r3, #24]
1957:./Libraries/STM32H7xx_HAL_Driver/Src/stm32h7xx_hal_jpeg.c ****     hjpeg->pJpegOutBuffPtr = pDataOutMCU;
 2524              		.loc 1 1957 28
 2525 006c FB68     		ldr	r3, [r7, #12]
 2526 006e 3A68     		ldr	r2, [r7]
 2527 0070 DA61     		str	r2, [r3, #28]
1958:./Libraries/STM32H7xx_HAL_Driver/Src/stm32h7xx_hal_jpeg.c ****     hjpeg->InDataLength = InDataLength;
 2528              		.loc 1 1958 25
 2529 0072 FB68     		ldr	r3, [r7, #12]
 2530 0074 7A68     		ldr	r2, [r7, #4]
 2531 0076 9A62     		str	r2, [r3, #40]
1959:./Libraries/STM32H7xx_HAL_Driver/Src/stm32h7xx_hal_jpeg.c ****     hjpeg->OutDataLength = OutDataLength;
 2532              		.loc 1 1959 26
 2533 0078 FB68     		ldr	r3, [r7, #12]
 2534 007a BA69     		ldr	r2, [r7, #24]
 2535 007c DA62     		str	r2, [r3, #44]
1960:./Libraries/STM32H7xx_HAL_Driver/Src/stm32h7xx_hal_jpeg.c **** 
1961:./Libraries/STM32H7xx_HAL_Driver/Src/stm32h7xx_hal_jpeg.c ****     /*Reset In/out data counter */
1962:./Libraries/STM32H7xx_HAL_Driver/Src/stm32h7xx_hal_jpeg.c ****     hjpeg->JpegInCount = 0;
 2536              		.loc 1 1962 24
 2537 007e FB68     		ldr	r3, [r7, #12]
ARM GAS  /tmp/ccXFtjVt.s 			page 81


 2538 0080 0022     		movs	r2, #0
 2539 0082 1A62     		str	r2, [r3, #32]
1963:./Libraries/STM32H7xx_HAL_Driver/Src/stm32h7xx_hal_jpeg.c ****     hjpeg->JpegOutCount = 0;
 2540              		.loc 1 1963 25
 2541 0084 FB68     		ldr	r3, [r7, #12]
 2542 0086 0022     		movs	r2, #0
 2543 0088 5A62     		str	r2, [r3, #36]
1964:./Libraries/STM32H7xx_HAL_Driver/Src/stm32h7xx_hal_jpeg.c **** 
1965:./Libraries/STM32H7xx_HAL_Driver/Src/stm32h7xx_hal_jpeg.c ****     /*Init decoding process*/
1966:./Libraries/STM32H7xx_HAL_Driver/Src/stm32h7xx_hal_jpeg.c ****     JPEG_Init_Process(hjpeg);
 2544              		.loc 1 1966 5
 2545 008a F868     		ldr	r0, [r7, #12]
 2546 008c FFF7FEFF 		bl	JPEG_Init_Process
1967:./Libraries/STM32H7xx_HAL_Driver/Src/stm32h7xx_hal_jpeg.c **** 
1968:./Libraries/STM32H7xx_HAL_Driver/Src/stm32h7xx_hal_jpeg.c ****     /* JPEG decoding process using DMA */
1969:./Libraries/STM32H7xx_HAL_Driver/Src/stm32h7xx_hal_jpeg.c ****     if (JPEG_DMA_StartProcess(hjpeg) != HAL_OK)
 2547              		.loc 1 1969 9
 2548 0090 F868     		ldr	r0, [r7, #12]
 2549 0092 FFF7FEFF 		bl	JPEG_DMA_StartProcess
 2550 0096 0346     		mov	r3, r0
 2551              		.loc 1 1969 8
 2552 0098 002B     		cmp	r3, #0
 2553 009a 0FD0     		beq	.L105
1970:./Libraries/STM32H7xx_HAL_Driver/Src/stm32h7xx_hal_jpeg.c ****     {
1971:./Libraries/STM32H7xx_HAL_Driver/Src/stm32h7xx_hal_jpeg.c ****       /* Update State */
1972:./Libraries/STM32H7xx_HAL_Driver/Src/stm32h7xx_hal_jpeg.c ****       hjpeg->State = HAL_JPEG_STATE_ERROR;
 2554              		.loc 1 1972 20
 2555 009c FB68     		ldr	r3, [r7, #12]
 2556 009e 0622     		movs	r2, #6
 2557 00a0 83F84D20 		strb	r2, [r3, #77]
1973:./Libraries/STM32H7xx_HAL_Driver/Src/stm32h7xx_hal_jpeg.c ****       /* Process Unlocked */
1974:./Libraries/STM32H7xx_HAL_Driver/Src/stm32h7xx_hal_jpeg.c ****       __HAL_UNLOCK(hjpeg);
 2558              		.loc 1 1974 7
 2559 00a4 FB68     		ldr	r3, [r7, #12]
 2560 00a6 0022     		movs	r2, #0
 2561 00a8 83F84C20 		strb	r2, [r3, #76]
1975:./Libraries/STM32H7xx_HAL_Driver/Src/stm32h7xx_hal_jpeg.c **** 
1976:./Libraries/STM32H7xx_HAL_Driver/Src/stm32h7xx_hal_jpeg.c ****       return HAL_ERROR;
 2562              		.loc 1 1976 14
 2563 00ac 0123     		movs	r3, #1
 2564 00ae 06E0     		b	.L102
 2565              	.L104:
1977:./Libraries/STM32H7xx_HAL_Driver/Src/stm32h7xx_hal_jpeg.c ****     }
1978:./Libraries/STM32H7xx_HAL_Driver/Src/stm32h7xx_hal_jpeg.c ****   }
1979:./Libraries/STM32H7xx_HAL_Driver/Src/stm32h7xx_hal_jpeg.c ****   else
1980:./Libraries/STM32H7xx_HAL_Driver/Src/stm32h7xx_hal_jpeg.c ****   {
1981:./Libraries/STM32H7xx_HAL_Driver/Src/stm32h7xx_hal_jpeg.c ****     /* Process Unlocked */
1982:./Libraries/STM32H7xx_HAL_Driver/Src/stm32h7xx_hal_jpeg.c ****     __HAL_UNLOCK(hjpeg);
 2566              		.loc 1 1982 5
 2567 00b0 FB68     		ldr	r3, [r7, #12]
 2568 00b2 0022     		movs	r2, #0
 2569 00b4 83F84C20 		strb	r2, [r3, #76]
1983:./Libraries/STM32H7xx_HAL_Driver/Src/stm32h7xx_hal_jpeg.c **** 
1984:./Libraries/STM32H7xx_HAL_Driver/Src/stm32h7xx_hal_jpeg.c ****     return HAL_BUSY;
 2570              		.loc 1 1984 12
 2571 00b8 0223     		movs	r3, #2
 2572 00ba 00E0     		b	.L102
ARM GAS  /tmp/ccXFtjVt.s 			page 82


 2573              	.L105:
1985:./Libraries/STM32H7xx_HAL_Driver/Src/stm32h7xx_hal_jpeg.c ****   }
1986:./Libraries/STM32H7xx_HAL_Driver/Src/stm32h7xx_hal_jpeg.c ****   /* Return function status */
1987:./Libraries/STM32H7xx_HAL_Driver/Src/stm32h7xx_hal_jpeg.c ****   return HAL_OK;
 2574              		.loc 1 1987 10
 2575 00bc 0023     		movs	r3, #0
 2576              	.L102:
1988:./Libraries/STM32H7xx_HAL_Driver/Src/stm32h7xx_hal_jpeg.c **** }
 2577              		.loc 1 1988 1
 2578 00be 1846     		mov	r0, r3
 2579 00c0 1037     		adds	r7, r7, #16
 2580              	.LCFI78:
 2581              		.cfi_def_cfa_offset 8
 2582 00c2 BD46     		mov	sp, r7
 2583              	.LCFI79:
 2584              		.cfi_def_cfa_register 13
 2585              		@ sp needed
 2586 00c4 80BD     		pop	{r7, pc}
 2587              		.cfi_endproc
 2588              	.LFE345:
 2590              		.section	.text.HAL_JPEG_Pause,"ax",%progbits
 2591              		.align	1
 2592              		.global	HAL_JPEG_Pause
 2593              		.syntax unified
 2594              		.thumb
 2595              		.thumb_func
 2596              		.fpu fpv5-d16
 2598              	HAL_JPEG_Pause:
 2599              	.LFB346:
1989:./Libraries/STM32H7xx_HAL_Driver/Src/stm32h7xx_hal_jpeg.c **** 
1990:./Libraries/STM32H7xx_HAL_Driver/Src/stm32h7xx_hal_jpeg.c **** /**
1991:./Libraries/STM32H7xx_HAL_Driver/Src/stm32h7xx_hal_jpeg.c ****   * @brief  Pause the JPEG Input/Output processing
1992:./Libraries/STM32H7xx_HAL_Driver/Src/stm32h7xx_hal_jpeg.c ****   * @param  hjpeg pointer to a JPEG_HandleTypeDef structure that contains
1993:./Libraries/STM32H7xx_HAL_Driver/Src/stm32h7xx_hal_jpeg.c ****   *         the configuration information for JPEG module
1994:./Libraries/STM32H7xx_HAL_Driver/Src/stm32h7xx_hal_jpeg.c ****   * @param  XferSelection This parameter can be one of the following values :
1995:./Libraries/STM32H7xx_HAL_Driver/Src/stm32h7xx_hal_jpeg.c ****   *                           JPEG_PAUSE_RESUME_INPUT : Pause Input processing
1996:./Libraries/STM32H7xx_HAL_Driver/Src/stm32h7xx_hal_jpeg.c ****   *                           JPEG_PAUSE_RESUME_OUTPUT: Pause Output processing
1997:./Libraries/STM32H7xx_HAL_Driver/Src/stm32h7xx_hal_jpeg.c ****   *                           JPEG_PAUSE_RESUME_INPUT_OUTPUT: Pause Input and Output processing
1998:./Libraries/STM32H7xx_HAL_Driver/Src/stm32h7xx_hal_jpeg.c ****   * @retval HAL status
1999:./Libraries/STM32H7xx_HAL_Driver/Src/stm32h7xx_hal_jpeg.c ****   */
2000:./Libraries/STM32H7xx_HAL_Driver/Src/stm32h7xx_hal_jpeg.c **** HAL_StatusTypeDef  HAL_JPEG_Pause(JPEG_HandleTypeDef *hjpeg, uint32_t XferSelection)
2001:./Libraries/STM32H7xx_HAL_Driver/Src/stm32h7xx_hal_jpeg.c **** {
 2600              		.loc 1 2001 1
 2601              		.cfi_startproc
 2602              		@ args = 0, pretend = 0, frame = 16
 2603              		@ frame_needed = 1, uses_anonymous_args = 0
 2604              		@ link register save eliminated.
 2605 0000 80B4     		push	{r7}
 2606              	.LCFI80:
 2607              		.cfi_def_cfa_offset 4
 2608              		.cfi_offset 7, -4
 2609 0002 85B0     		sub	sp, sp, #20
 2610              	.LCFI81:
 2611              		.cfi_def_cfa_offset 24
 2612 0004 00AF     		add	r7, sp, #0
 2613              	.LCFI82:
 2614              		.cfi_def_cfa_register 7
ARM GAS  /tmp/ccXFtjVt.s 			page 83


 2615 0006 7860     		str	r0, [r7, #4]
 2616 0008 3960     		str	r1, [r7]
2002:./Libraries/STM32H7xx_HAL_Driver/Src/stm32h7xx_hal_jpeg.c ****   uint32_t mask = 0;
 2617              		.loc 1 2002 12
 2618 000a 0023     		movs	r3, #0
 2619 000c FB60     		str	r3, [r7, #12]
2003:./Libraries/STM32H7xx_HAL_Driver/Src/stm32h7xx_hal_jpeg.c **** 
2004:./Libraries/STM32H7xx_HAL_Driver/Src/stm32h7xx_hal_jpeg.c ****   assert_param(IS_JPEG_PAUSE_RESUME_STATE(XferSelection));
2005:./Libraries/STM32H7xx_HAL_Driver/Src/stm32h7xx_hal_jpeg.c **** 
2006:./Libraries/STM32H7xx_HAL_Driver/Src/stm32h7xx_hal_jpeg.c ****   if ((hjpeg->Context & JPEG_CONTEXT_METHOD_MASK) == JPEG_CONTEXT_DMA)
 2620              		.loc 1 2006 13
 2621 000e 7B68     		ldr	r3, [r7, #4]
 2622 0010 5B6D     		ldr	r3, [r3, #84]
 2623              		.loc 1 2006 23
 2624 0012 03F00C03 		and	r3, r3, #12
 2625              		.loc 1 2006 6
 2626 0016 0C2B     		cmp	r3, #12
 2627 0018 16D1     		bne	.L107
2007:./Libraries/STM32H7xx_HAL_Driver/Src/stm32h7xx_hal_jpeg.c ****   {
2008:./Libraries/STM32H7xx_HAL_Driver/Src/stm32h7xx_hal_jpeg.c ****     if ((XferSelection & JPEG_PAUSE_RESUME_INPUT) == JPEG_PAUSE_RESUME_INPUT)
 2628              		.loc 1 2008 24
 2629 001a 3B68     		ldr	r3, [r7]
 2630 001c 03F00103 		and	r3, r3, #1
 2631              		.loc 1 2008 8
 2632 0020 002B     		cmp	r3, #0
 2633 0022 05D0     		beq	.L108
2009:./Libraries/STM32H7xx_HAL_Driver/Src/stm32h7xx_hal_jpeg.c ****     {
2010:./Libraries/STM32H7xx_HAL_Driver/Src/stm32h7xx_hal_jpeg.c ****       hjpeg->Context |= JPEG_CONTEXT_PAUSE_INPUT;
 2634              		.loc 1 2010 22
 2635 0024 7B68     		ldr	r3, [r7, #4]
 2636 0026 5B6D     		ldr	r3, [r3, #84]
 2637 0028 43F48052 		orr	r2, r3, #4096
 2638 002c 7B68     		ldr	r3, [r7, #4]
 2639 002e 5A65     		str	r2, [r3, #84]
 2640              	.L108:
2011:./Libraries/STM32H7xx_HAL_Driver/Src/stm32h7xx_hal_jpeg.c ****     }
2012:./Libraries/STM32H7xx_HAL_Driver/Src/stm32h7xx_hal_jpeg.c ****     if ((XferSelection & JPEG_PAUSE_RESUME_OUTPUT) == JPEG_PAUSE_RESUME_OUTPUT)
 2641              		.loc 1 2012 24
 2642 0030 3B68     		ldr	r3, [r7]
 2643 0032 03F00203 		and	r3, r3, #2
 2644              		.loc 1 2012 8
 2645 0036 002B     		cmp	r3, #0
 2646 0038 33D0     		beq	.L109
2013:./Libraries/STM32H7xx_HAL_Driver/Src/stm32h7xx_hal_jpeg.c ****     {
2014:./Libraries/STM32H7xx_HAL_Driver/Src/stm32h7xx_hal_jpeg.c ****       hjpeg->Context |= JPEG_CONTEXT_PAUSE_OUTPUT;
 2647              		.loc 1 2014 22
 2648 003a 7B68     		ldr	r3, [r7, #4]
 2649 003c 5B6D     		ldr	r3, [r3, #84]
 2650 003e 43F40052 		orr	r2, r3, #8192
 2651 0042 7B68     		ldr	r3, [r7, #4]
 2652 0044 5A65     		str	r2, [r3, #84]
 2653 0046 2CE0     		b	.L109
 2654              	.L107:
2015:./Libraries/STM32H7xx_HAL_Driver/Src/stm32h7xx_hal_jpeg.c ****     }
2016:./Libraries/STM32H7xx_HAL_Driver/Src/stm32h7xx_hal_jpeg.c **** 
2017:./Libraries/STM32H7xx_HAL_Driver/Src/stm32h7xx_hal_jpeg.c ****   }
2018:./Libraries/STM32H7xx_HAL_Driver/Src/stm32h7xx_hal_jpeg.c ****   else if ((hjpeg->Context & JPEG_CONTEXT_METHOD_MASK) == JPEG_CONTEXT_IT)
ARM GAS  /tmp/ccXFtjVt.s 			page 84


 2655              		.loc 1 2018 18
 2656 0048 7B68     		ldr	r3, [r7, #4]
 2657 004a 5B6D     		ldr	r3, [r3, #84]
 2658              		.loc 1 2018 28
 2659 004c 03F00C03 		and	r3, r3, #12
 2660              		.loc 1 2018 11
 2661 0050 082B     		cmp	r3, #8
 2662 0052 26D1     		bne	.L109
2019:./Libraries/STM32H7xx_HAL_Driver/Src/stm32h7xx_hal_jpeg.c ****   {
2020:./Libraries/STM32H7xx_HAL_Driver/Src/stm32h7xx_hal_jpeg.c **** 
2021:./Libraries/STM32H7xx_HAL_Driver/Src/stm32h7xx_hal_jpeg.c ****     if ((XferSelection & JPEG_PAUSE_RESUME_INPUT) == JPEG_PAUSE_RESUME_INPUT)
 2663              		.loc 1 2021 24
 2664 0054 3B68     		ldr	r3, [r7]
 2665 0056 03F00103 		and	r3, r3, #1
 2666              		.loc 1 2021 8
 2667 005a 002B     		cmp	r3, #0
 2668 005c 09D0     		beq	.L110
2022:./Libraries/STM32H7xx_HAL_Driver/Src/stm32h7xx_hal_jpeg.c ****     {
2023:./Libraries/STM32H7xx_HAL_Driver/Src/stm32h7xx_hal_jpeg.c ****       hjpeg->Context |= JPEG_CONTEXT_PAUSE_INPUT;
 2669              		.loc 1 2023 22
 2670 005e 7B68     		ldr	r3, [r7, #4]
 2671 0060 5B6D     		ldr	r3, [r3, #84]
 2672 0062 43F48052 		orr	r2, r3, #4096
 2673 0066 7B68     		ldr	r3, [r7, #4]
 2674 0068 5A65     		str	r2, [r3, #84]
2024:./Libraries/STM32H7xx_HAL_Driver/Src/stm32h7xx_hal_jpeg.c ****       mask |= (JPEG_IT_IFT | JPEG_IT_IFNF);
 2675              		.loc 1 2024 12
 2676 006a FB68     		ldr	r3, [r7, #12]
 2677 006c 43F00603 		orr	r3, r3, #6
 2678 0070 FB60     		str	r3, [r7, #12]
 2679              	.L110:
2025:./Libraries/STM32H7xx_HAL_Driver/Src/stm32h7xx_hal_jpeg.c ****     }
2026:./Libraries/STM32H7xx_HAL_Driver/Src/stm32h7xx_hal_jpeg.c ****     if ((XferSelection & JPEG_PAUSE_RESUME_OUTPUT) == JPEG_PAUSE_RESUME_OUTPUT)
 2680              		.loc 1 2026 24
 2681 0072 3B68     		ldr	r3, [r7]
 2682 0074 03F00203 		and	r3, r3, #2
 2683              		.loc 1 2026 8
 2684 0078 002B     		cmp	r3, #0
 2685 007a 09D0     		beq	.L111
2027:./Libraries/STM32H7xx_HAL_Driver/Src/stm32h7xx_hal_jpeg.c ****     {
2028:./Libraries/STM32H7xx_HAL_Driver/Src/stm32h7xx_hal_jpeg.c ****       hjpeg->Context |= JPEG_CONTEXT_PAUSE_OUTPUT;
 2686              		.loc 1 2028 22
 2687 007c 7B68     		ldr	r3, [r7, #4]
 2688 007e 5B6D     		ldr	r3, [r3, #84]
 2689 0080 43F40052 		orr	r2, r3, #8192
 2690 0084 7B68     		ldr	r3, [r7, #4]
 2691 0086 5A65     		str	r2, [r3, #84]
2029:./Libraries/STM32H7xx_HAL_Driver/Src/stm32h7xx_hal_jpeg.c ****       mask |= (JPEG_IT_OFT | JPEG_IT_OFNE | JPEG_IT_EOC);
 2692              		.loc 1 2029 12
 2693 0088 FB68     		ldr	r3, [r7, #12]
 2694 008a 43F02803 		orr	r3, r3, #40
 2695 008e FB60     		str	r3, [r7, #12]
 2696              	.L111:
2030:./Libraries/STM32H7xx_HAL_Driver/Src/stm32h7xx_hal_jpeg.c ****     }
2031:./Libraries/STM32H7xx_HAL_Driver/Src/stm32h7xx_hal_jpeg.c ****     __HAL_JPEG_DISABLE_IT(hjpeg, mask);
 2697              		.loc 1 2031 5
 2698 0090 7B68     		ldr	r3, [r7, #4]
ARM GAS  /tmp/ccXFtjVt.s 			page 85


 2699 0092 1B68     		ldr	r3, [r3]
 2700 0094 196B     		ldr	r1, [r3, #48]
 2701 0096 FB68     		ldr	r3, [r7, #12]
 2702 0098 DA43     		mvns	r2, r3
 2703 009a 7B68     		ldr	r3, [r7, #4]
 2704 009c 1B68     		ldr	r3, [r3]
 2705 009e 0A40     		ands	r2, r2, r1
 2706 00a0 1A63     		str	r2, [r3, #48]
 2707              	.L109:
2032:./Libraries/STM32H7xx_HAL_Driver/Src/stm32h7xx_hal_jpeg.c **** 
2033:./Libraries/STM32H7xx_HAL_Driver/Src/stm32h7xx_hal_jpeg.c ****   }
2034:./Libraries/STM32H7xx_HAL_Driver/Src/stm32h7xx_hal_jpeg.c ****   else
2035:./Libraries/STM32H7xx_HAL_Driver/Src/stm32h7xx_hal_jpeg.c ****   {
2036:./Libraries/STM32H7xx_HAL_Driver/Src/stm32h7xx_hal_jpeg.c ****     /* Nothing to do */
2037:./Libraries/STM32H7xx_HAL_Driver/Src/stm32h7xx_hal_jpeg.c ****   }
2038:./Libraries/STM32H7xx_HAL_Driver/Src/stm32h7xx_hal_jpeg.c **** 
2039:./Libraries/STM32H7xx_HAL_Driver/Src/stm32h7xx_hal_jpeg.c ****   /* Return function status */
2040:./Libraries/STM32H7xx_HAL_Driver/Src/stm32h7xx_hal_jpeg.c ****   return HAL_OK;
 2708              		.loc 1 2040 10
 2709 00a2 0023     		movs	r3, #0
2041:./Libraries/STM32H7xx_HAL_Driver/Src/stm32h7xx_hal_jpeg.c **** }
 2710              		.loc 1 2041 1
 2711 00a4 1846     		mov	r0, r3
 2712 00a6 1437     		adds	r7, r7, #20
 2713              	.LCFI83:
 2714              		.cfi_def_cfa_offset 4
 2715 00a8 BD46     		mov	sp, r7
 2716              	.LCFI84:
 2717              		.cfi_def_cfa_register 13
 2718              		@ sp needed
 2719 00aa 5DF8047B 		ldr	r7, [sp], #4
 2720              	.LCFI85:
 2721              		.cfi_restore 7
 2722              		.cfi_def_cfa_offset 0
 2723 00ae 7047     		bx	lr
 2724              		.cfi_endproc
 2725              	.LFE346:
 2727              		.section	.text.HAL_JPEG_Resume,"ax",%progbits
 2728              		.align	1
 2729              		.global	HAL_JPEG_Resume
 2730              		.syntax unified
 2731              		.thumb
 2732              		.thumb_func
 2733              		.fpu fpv5-d16
 2735              	HAL_JPEG_Resume:
 2736              	.LFB347:
2042:./Libraries/STM32H7xx_HAL_Driver/Src/stm32h7xx_hal_jpeg.c **** 
2043:./Libraries/STM32H7xx_HAL_Driver/Src/stm32h7xx_hal_jpeg.c **** /**
2044:./Libraries/STM32H7xx_HAL_Driver/Src/stm32h7xx_hal_jpeg.c ****   * @brief  Resume the JPEG Input/Output processing
2045:./Libraries/STM32H7xx_HAL_Driver/Src/stm32h7xx_hal_jpeg.c ****   * @param  hjpeg pointer to a JPEG_HandleTypeDef structure that contains
2046:./Libraries/STM32H7xx_HAL_Driver/Src/stm32h7xx_hal_jpeg.c ****   *         the configuration information for JPEG module
2047:./Libraries/STM32H7xx_HAL_Driver/Src/stm32h7xx_hal_jpeg.c ****   * @param  XferSelection This parameter can be one of the following values :
2048:./Libraries/STM32H7xx_HAL_Driver/Src/stm32h7xx_hal_jpeg.c ****   *                           JPEG_PAUSE_RESUME_INPUT : Resume Input processing
2049:./Libraries/STM32H7xx_HAL_Driver/Src/stm32h7xx_hal_jpeg.c ****   *                           JPEG_PAUSE_RESUME_OUTPUT: Resume Output processing
2050:./Libraries/STM32H7xx_HAL_Driver/Src/stm32h7xx_hal_jpeg.c ****   *                           JPEG_PAUSE_RESUME_INPUT_OUTPUT: Resume Input and Output processing
2051:./Libraries/STM32H7xx_HAL_Driver/Src/stm32h7xx_hal_jpeg.c ****   * @retval HAL status
2052:./Libraries/STM32H7xx_HAL_Driver/Src/stm32h7xx_hal_jpeg.c ****   */
ARM GAS  /tmp/ccXFtjVt.s 			page 86


2053:./Libraries/STM32H7xx_HAL_Driver/Src/stm32h7xx_hal_jpeg.c **** HAL_StatusTypeDef  HAL_JPEG_Resume(JPEG_HandleTypeDef *hjpeg, uint32_t XferSelection)
2054:./Libraries/STM32H7xx_HAL_Driver/Src/stm32h7xx_hal_jpeg.c **** {
 2737              		.loc 1 2054 1
 2738              		.cfi_startproc
 2739              		@ args = 0, pretend = 0, frame = 16
 2740              		@ frame_needed = 1, uses_anonymous_args = 0
 2741 0000 90B5     		push	{r4, r7, lr}
 2742              	.LCFI86:
 2743              		.cfi_def_cfa_offset 12
 2744              		.cfi_offset 4, -12
 2745              		.cfi_offset 7, -8
 2746              		.cfi_offset 14, -4
 2747 0002 87B0     		sub	sp, sp, #28
 2748              	.LCFI87:
 2749              		.cfi_def_cfa_offset 40
 2750 0004 02AF     		add	r7, sp, #8
 2751              	.LCFI88:
 2752              		.cfi_def_cfa 7, 32
 2753 0006 7860     		str	r0, [r7, #4]
 2754 0008 3960     		str	r1, [r7]
2055:./Libraries/STM32H7xx_HAL_Driver/Src/stm32h7xx_hal_jpeg.c ****   uint32_t mask = 0;
 2755              		.loc 1 2055 12
 2756 000a 0023     		movs	r3, #0
 2757 000c FB60     		str	r3, [r7, #12]
2056:./Libraries/STM32H7xx_HAL_Driver/Src/stm32h7xx_hal_jpeg.c ****   uint32_t xfrSize;
2057:./Libraries/STM32H7xx_HAL_Driver/Src/stm32h7xx_hal_jpeg.c **** 
2058:./Libraries/STM32H7xx_HAL_Driver/Src/stm32h7xx_hal_jpeg.c ****   assert_param(IS_JPEG_PAUSE_RESUME_STATE(XferSelection));
2059:./Libraries/STM32H7xx_HAL_Driver/Src/stm32h7xx_hal_jpeg.c **** 
2060:./Libraries/STM32H7xx_HAL_Driver/Src/stm32h7xx_hal_jpeg.c ****   if ((hjpeg->Context & (JPEG_CONTEXT_PAUSE_INPUT | JPEG_CONTEXT_PAUSE_OUTPUT)) == 0UL)
 2758              		.loc 1 2060 13
 2759 000e 7B68     		ldr	r3, [r7, #4]
 2760 0010 5B6D     		ldr	r3, [r3, #84]
 2761              		.loc 1 2060 23
 2762 0012 03F44053 		and	r3, r3, #12288
 2763              		.loc 1 2060 6
 2764 0016 002B     		cmp	r3, #0
 2765 0018 01D1     		bne	.L114
2061:./Libraries/STM32H7xx_HAL_Driver/Src/stm32h7xx_hal_jpeg.c ****   {
2062:./Libraries/STM32H7xx_HAL_Driver/Src/stm32h7xx_hal_jpeg.c ****     /* if nothing paused to resume return error*/
2063:./Libraries/STM32H7xx_HAL_Driver/Src/stm32h7xx_hal_jpeg.c ****     return HAL_ERROR;
 2766              		.loc 1 2063 12
 2767 001a 0123     		movs	r3, #1
 2768 001c D7E0     		b	.L115
 2769              	.L114:
2064:./Libraries/STM32H7xx_HAL_Driver/Src/stm32h7xx_hal_jpeg.c ****   }
2065:./Libraries/STM32H7xx_HAL_Driver/Src/stm32h7xx_hal_jpeg.c **** 
2066:./Libraries/STM32H7xx_HAL_Driver/Src/stm32h7xx_hal_jpeg.c ****   if ((hjpeg->Context & JPEG_CONTEXT_METHOD_MASK) == JPEG_CONTEXT_DMA)
 2770              		.loc 1 2066 13
 2771 001e 7B68     		ldr	r3, [r7, #4]
 2772 0020 5B6D     		ldr	r3, [r3, #84]
 2773              		.loc 1 2066 23
 2774 0022 03F00C03 		and	r3, r3, #12
 2775              		.loc 1 2066 6
 2776 0026 0C2B     		cmp	r3, #12
 2777 0028 40F0A480 		bne	.L116
2067:./Libraries/STM32H7xx_HAL_Driver/Src/stm32h7xx_hal_jpeg.c ****   {
2068:./Libraries/STM32H7xx_HAL_Driver/Src/stm32h7xx_hal_jpeg.c **** 
ARM GAS  /tmp/ccXFtjVt.s 			page 87


2069:./Libraries/STM32H7xx_HAL_Driver/Src/stm32h7xx_hal_jpeg.c ****     if ((XferSelection & JPEG_PAUSE_RESUME_INPUT) == JPEG_PAUSE_RESUME_INPUT)
 2778              		.loc 1 2069 24
 2779 002c 3B68     		ldr	r3, [r7]
 2780 002e 03F00103 		and	r3, r3, #1
 2781              		.loc 1 2069 8
 2782 0032 002B     		cmp	r3, #0
 2783 0034 49D0     		beq	.L117
2070:./Libraries/STM32H7xx_HAL_Driver/Src/stm32h7xx_hal_jpeg.c ****     {
2071:./Libraries/STM32H7xx_HAL_Driver/Src/stm32h7xx_hal_jpeg.c ****       hjpeg->Context &= (~JPEG_CONTEXT_PAUSE_INPUT);
 2784              		.loc 1 2071 22
 2785 0036 7B68     		ldr	r3, [r7, #4]
 2786 0038 5B6D     		ldr	r3, [r3, #84]
 2787 003a 23F48052 		bic	r2, r3, #4096
 2788 003e 7B68     		ldr	r3, [r7, #4]
 2789 0040 5A65     		str	r2, [r3, #84]
2072:./Libraries/STM32H7xx_HAL_Driver/Src/stm32h7xx_hal_jpeg.c ****       /*if the MDMA In is triggred with JPEG In FIFO Threshold flag
2073:./Libraries/STM32H7xx_HAL_Driver/Src/stm32h7xx_hal_jpeg.c ****         then MDMA In buffer size is 32 bytes
2074:./Libraries/STM32H7xx_HAL_Driver/Src/stm32h7xx_hal_jpeg.c **** 
2075:./Libraries/STM32H7xx_HAL_Driver/Src/stm32h7xx_hal_jpeg.c ****         else (MDMA In is triggred with JPEG In FIFO not full flag)
2076:./Libraries/STM32H7xx_HAL_Driver/Src/stm32h7xx_hal_jpeg.c ****         then MDMA In buffer size is 4 bytes
2077:./Libraries/STM32H7xx_HAL_Driver/Src/stm32h7xx_hal_jpeg.c ****         */
2078:./Libraries/STM32H7xx_HAL_Driver/Src/stm32h7xx_hal_jpeg.c ****       xfrSize = hjpeg->hdmain->Init.BufferTransferLength;
 2790              		.loc 1 2078 22
 2791 0042 7B68     		ldr	r3, [r7, #4]
 2792 0044 1B6B     		ldr	r3, [r3, #48]
 2793              		.loc 1 2078 15
 2794 0046 9B6A     		ldr	r3, [r3, #40]
 2795 0048 BB60     		str	r3, [r7, #8]
2079:./Libraries/STM32H7xx_HAL_Driver/Src/stm32h7xx_hal_jpeg.c **** 
2080:./Libraries/STM32H7xx_HAL_Driver/Src/stm32h7xx_hal_jpeg.c ****       if (xfrSize == 0UL)
 2796              		.loc 1 2080 10
 2797 004a BB68     		ldr	r3, [r7, #8]
 2798 004c 002B     		cmp	r3, #0
 2799 004e 0BD1     		bne	.L118
2081:./Libraries/STM32H7xx_HAL_Driver/Src/stm32h7xx_hal_jpeg.c ****       {
2082:./Libraries/STM32H7xx_HAL_Driver/Src/stm32h7xx_hal_jpeg.c ****         hjpeg->ErrorCode |= HAL_JPEG_ERROR_DMA;
 2800              		.loc 1 2082 26
 2801 0050 7B68     		ldr	r3, [r7, #4]
 2802 0052 1B6D     		ldr	r3, [r3, #80]
 2803 0054 43F00402 		orr	r2, r3, #4
 2804 0058 7B68     		ldr	r3, [r7, #4]
 2805 005a 1A65     		str	r2, [r3, #80]
2083:./Libraries/STM32H7xx_HAL_Driver/Src/stm32h7xx_hal_jpeg.c ****         hjpeg->State = HAL_JPEG_STATE_ERROR;
 2806              		.loc 1 2083 22
 2807 005c 7B68     		ldr	r3, [r7, #4]
 2808 005e 0622     		movs	r2, #6
 2809 0060 83F84D20 		strb	r2, [r3, #77]
2084:./Libraries/STM32H7xx_HAL_Driver/Src/stm32h7xx_hal_jpeg.c ****         return HAL_ERROR;
 2810              		.loc 1 2084 16
 2811 0064 0123     		movs	r3, #1
 2812 0066 B2E0     		b	.L115
 2813              	.L118:
2085:./Libraries/STM32H7xx_HAL_Driver/Src/stm32h7xx_hal_jpeg.c ****       }
2086:./Libraries/STM32H7xx_HAL_Driver/Src/stm32h7xx_hal_jpeg.c ****       /*MDMA transfer size (BNDTR) must be a multiple of MDMA buffer size (TLEN)*/
2087:./Libraries/STM32H7xx_HAL_Driver/Src/stm32h7xx_hal_jpeg.c ****       hjpeg->InDataLength = hjpeg->InDataLength - (hjpeg->InDataLength % xfrSize);
 2814              		.loc 1 2087 34
 2815 0068 7B68     		ldr	r3, [r7, #4]
ARM GAS  /tmp/ccXFtjVt.s 			page 88


 2816 006a 9A6A     		ldr	r2, [r3, #40]
 2817              		.loc 1 2087 57
 2818 006c 7B68     		ldr	r3, [r7, #4]
 2819 006e 9B6A     		ldr	r3, [r3, #40]
 2820              		.loc 1 2087 72
 2821 0070 B968     		ldr	r1, [r7, #8]
 2822 0072 B3FBF1F1 		udiv	r1, r3, r1
 2823 0076 B868     		ldr	r0, [r7, #8]
 2824 0078 00FB01F1 		mul	r1, r0, r1
 2825 007c 5B1A     		subs	r3, r3, r1
 2826              		.loc 1 2087 49
 2827 007e D21A     		subs	r2, r2, r3
 2828              		.loc 1 2087 27
 2829 0080 7B68     		ldr	r3, [r7, #4]
 2830 0082 9A62     		str	r2, [r3, #40]
2088:./Libraries/STM32H7xx_HAL_Driver/Src/stm32h7xx_hal_jpeg.c **** 
2089:./Libraries/STM32H7xx_HAL_Driver/Src/stm32h7xx_hal_jpeg.c **** 
2090:./Libraries/STM32H7xx_HAL_Driver/Src/stm32h7xx_hal_jpeg.c ****       if (hjpeg->InDataLength > 0UL)
 2831              		.loc 1 2090 16
 2832 0084 7B68     		ldr	r3, [r7, #4]
 2833 0086 9B6A     		ldr	r3, [r3, #40]
 2834              		.loc 1 2090 10
 2835 0088 002B     		cmp	r3, #0
 2836 008a 1ED0     		beq	.L117
2091:./Libraries/STM32H7xx_HAL_Driver/Src/stm32h7xx_hal_jpeg.c ****       {
2092:./Libraries/STM32H7xx_HAL_Driver/Src/stm32h7xx_hal_jpeg.c ****         /* Start DMA FIFO In transfer */
2093:./Libraries/STM32H7xx_HAL_Driver/Src/stm32h7xx_hal_jpeg.c ****         if (HAL_MDMA_Start_IT(hjpeg->hdmain, (uint32_t)hjpeg->pJpegInBuffPtr, (uint32_t)&hjpeg->Ins
 2837              		.loc 1 2093 13
 2838 008c 7B68     		ldr	r3, [r7, #4]
 2839 008e 186B     		ldr	r0, [r3, #48]
 2840              		.loc 1 2093 61
 2841 0090 7B68     		ldr	r3, [r7, #4]
 2842 0092 9B69     		ldr	r3, [r3, #24]
 2843              		.loc 1 2093 13
 2844 0094 1946     		mov	r1, r3
 2845              		.loc 1 2093 95
 2846 0096 7B68     		ldr	r3, [r7, #4]
 2847 0098 1B68     		ldr	r3, [r3]
 2848              		.loc 1 2093 89
 2849 009a 4033     		adds	r3, r3, #64
 2850              		.loc 1 2093 13
 2851 009c 1C46     		mov	r4, r3
 2852 009e 7B68     		ldr	r3, [r7, #4]
 2853 00a0 9B6A     		ldr	r3, [r3, #40]
 2854 00a2 0122     		movs	r2, #1
 2855 00a4 0092     		str	r2, [sp]
 2856 00a6 2246     		mov	r2, r4
 2857 00a8 FFF7FEFF 		bl	HAL_MDMA_Start_IT
 2858 00ac 0346     		mov	r3, r0
 2859              		.loc 1 2093 12
 2860 00ae 002B     		cmp	r3, #0
 2861 00b0 0BD0     		beq	.L117
2094:./Libraries/STM32H7xx_HAL_Driver/Src/stm32h7xx_hal_jpeg.c ****                               hjpeg->InDataLength, 1) != HAL_OK)
2095:./Libraries/STM32H7xx_HAL_Driver/Src/stm32h7xx_hal_jpeg.c ****         {
2096:./Libraries/STM32H7xx_HAL_Driver/Src/stm32h7xx_hal_jpeg.c ****           hjpeg->ErrorCode |= HAL_JPEG_ERROR_DMA;
 2862              		.loc 1 2096 28
 2863 00b2 7B68     		ldr	r3, [r7, #4]
ARM GAS  /tmp/ccXFtjVt.s 			page 89


 2864 00b4 1B6D     		ldr	r3, [r3, #80]
 2865 00b6 43F00402 		orr	r2, r3, #4
 2866 00ba 7B68     		ldr	r3, [r7, #4]
 2867 00bc 1A65     		str	r2, [r3, #80]
2097:./Libraries/STM32H7xx_HAL_Driver/Src/stm32h7xx_hal_jpeg.c ****           hjpeg->State = HAL_JPEG_STATE_ERROR;
 2868              		.loc 1 2097 24
 2869 00be 7B68     		ldr	r3, [r7, #4]
 2870 00c0 0622     		movs	r2, #6
 2871 00c2 83F84D20 		strb	r2, [r3, #77]
2098:./Libraries/STM32H7xx_HAL_Driver/Src/stm32h7xx_hal_jpeg.c ****           return HAL_ERROR;
 2872              		.loc 1 2098 18
 2873 00c6 0123     		movs	r3, #1
 2874 00c8 81E0     		b	.L115
 2875              	.L117:
2099:./Libraries/STM32H7xx_HAL_Driver/Src/stm32h7xx_hal_jpeg.c ****         }
2100:./Libraries/STM32H7xx_HAL_Driver/Src/stm32h7xx_hal_jpeg.c ****       }
2101:./Libraries/STM32H7xx_HAL_Driver/Src/stm32h7xx_hal_jpeg.c ****     }
2102:./Libraries/STM32H7xx_HAL_Driver/Src/stm32h7xx_hal_jpeg.c ****     if ((XferSelection & JPEG_PAUSE_RESUME_OUTPUT) == JPEG_PAUSE_RESUME_OUTPUT)
 2876              		.loc 1 2102 24
 2877 00ca 3B68     		ldr	r3, [r7]
 2878 00cc 03F00203 		and	r3, r3, #2
 2879              		.loc 1 2102 8
 2880 00d0 002B     		cmp	r3, #0
 2881 00d2 7BD0     		beq	.L119
2103:./Libraries/STM32H7xx_HAL_Driver/Src/stm32h7xx_hal_jpeg.c ****     {
2104:./Libraries/STM32H7xx_HAL_Driver/Src/stm32h7xx_hal_jpeg.c ****       hjpeg->Context &= (~JPEG_CONTEXT_PAUSE_OUTPUT);
 2882              		.loc 1 2104 22
 2883 00d4 7B68     		ldr	r3, [r7, #4]
 2884 00d6 5B6D     		ldr	r3, [r3, #84]
 2885 00d8 23F40052 		bic	r2, r3, #8192
 2886 00dc 7B68     		ldr	r3, [r7, #4]
 2887 00de 5A65     		str	r2, [r3, #84]
2105:./Libraries/STM32H7xx_HAL_Driver/Src/stm32h7xx_hal_jpeg.c **** 
2106:./Libraries/STM32H7xx_HAL_Driver/Src/stm32h7xx_hal_jpeg.c ****       if ((hjpeg->Context & JPEG_CONTEXT_ENDING_DMA) != 0UL)
 2888              		.loc 1 2106 17
 2889 00e0 7B68     		ldr	r3, [r7, #4]
 2890 00e2 5B6D     		ldr	r3, [r3, #84]
 2891              		.loc 1 2106 27
 2892 00e4 03F40043 		and	r3, r3, #32768
 2893              		.loc 1 2106 10
 2894 00e8 002B     		cmp	r3, #0
 2895 00ea 03D0     		beq	.L120
2107:./Libraries/STM32H7xx_HAL_Driver/Src/stm32h7xx_hal_jpeg.c ****       {
2108:./Libraries/STM32H7xx_HAL_Driver/Src/stm32h7xx_hal_jpeg.c ****         JPEG_DMA_PollResidualData(hjpeg);
 2896              		.loc 1 2108 9
 2897 00ec 7868     		ldr	r0, [r7, #4]
 2898 00ee FFF7FEFF 		bl	JPEG_DMA_PollResidualData
 2899 00f2 6BE0     		b	.L119
 2900              	.L120:
2109:./Libraries/STM32H7xx_HAL_Driver/Src/stm32h7xx_hal_jpeg.c ****       }
2110:./Libraries/STM32H7xx_HAL_Driver/Src/stm32h7xx_hal_jpeg.c ****       else
2111:./Libraries/STM32H7xx_HAL_Driver/Src/stm32h7xx_hal_jpeg.c ****       {
2112:./Libraries/STM32H7xx_HAL_Driver/Src/stm32h7xx_hal_jpeg.c ****         /*if the MDMA Out is triggred with JPEG Out FIFO Threshold flag
2113:./Libraries/STM32H7xx_HAL_Driver/Src/stm32h7xx_hal_jpeg.c ****           then MDMA out buffer size is 32 bytes
2114:./Libraries/STM32H7xx_HAL_Driver/Src/stm32h7xx_hal_jpeg.c ****           else (MDMA Out is triggred with JPEG Out FIFO not empty flag)
2115:./Libraries/STM32H7xx_HAL_Driver/Src/stm32h7xx_hal_jpeg.c ****           then MDMA buffer size is 4 bytes
2116:./Libraries/STM32H7xx_HAL_Driver/Src/stm32h7xx_hal_jpeg.c ****           */
ARM GAS  /tmp/ccXFtjVt.s 			page 90


2117:./Libraries/STM32H7xx_HAL_Driver/Src/stm32h7xx_hal_jpeg.c ****         xfrSize = hjpeg->hdmaout->Init.BufferTransferLength;
 2901              		.loc 1 2117 24
 2902 00f4 7B68     		ldr	r3, [r7, #4]
 2903 00f6 5B6B     		ldr	r3, [r3, #52]
 2904              		.loc 1 2117 17
 2905 00f8 9B6A     		ldr	r3, [r3, #40]
 2906 00fa BB60     		str	r3, [r7, #8]
2118:./Libraries/STM32H7xx_HAL_Driver/Src/stm32h7xx_hal_jpeg.c **** 
2119:./Libraries/STM32H7xx_HAL_Driver/Src/stm32h7xx_hal_jpeg.c ****         if (xfrSize == 0UL)
 2907              		.loc 1 2119 12
 2908 00fc BB68     		ldr	r3, [r7, #8]
 2909 00fe 002B     		cmp	r3, #0
 2910 0100 0BD1     		bne	.L121
2120:./Libraries/STM32H7xx_HAL_Driver/Src/stm32h7xx_hal_jpeg.c ****         {
2121:./Libraries/STM32H7xx_HAL_Driver/Src/stm32h7xx_hal_jpeg.c ****           hjpeg->ErrorCode |= HAL_JPEG_ERROR_DMA;
 2911              		.loc 1 2121 28
 2912 0102 7B68     		ldr	r3, [r7, #4]
 2913 0104 1B6D     		ldr	r3, [r3, #80]
 2914 0106 43F00402 		orr	r2, r3, #4
 2915 010a 7B68     		ldr	r3, [r7, #4]
 2916 010c 1A65     		str	r2, [r3, #80]
2122:./Libraries/STM32H7xx_HAL_Driver/Src/stm32h7xx_hal_jpeg.c ****           hjpeg->State = HAL_JPEG_STATE_ERROR;
 2917              		.loc 1 2122 24
 2918 010e 7B68     		ldr	r3, [r7, #4]
 2919 0110 0622     		movs	r2, #6
 2920 0112 83F84D20 		strb	r2, [r3, #77]
2123:./Libraries/STM32H7xx_HAL_Driver/Src/stm32h7xx_hal_jpeg.c ****           return HAL_ERROR;
 2921              		.loc 1 2123 18
 2922 0116 0123     		movs	r3, #1
 2923 0118 59E0     		b	.L115
 2924              	.L121:
2124:./Libraries/STM32H7xx_HAL_Driver/Src/stm32h7xx_hal_jpeg.c ****         }
2125:./Libraries/STM32H7xx_HAL_Driver/Src/stm32h7xx_hal_jpeg.c ****         /*MDMA transfer size (BNDTR) must be a multiple of MDMA buffer size (TLEN)*/
2126:./Libraries/STM32H7xx_HAL_Driver/Src/stm32h7xx_hal_jpeg.c ****         hjpeg->OutDataLength = hjpeg->OutDataLength - (hjpeg->OutDataLength % xfrSize);
 2925              		.loc 1 2126 37
 2926 011a 7B68     		ldr	r3, [r7, #4]
 2927 011c DA6A     		ldr	r2, [r3, #44]
 2928              		.loc 1 2126 61
 2929 011e 7B68     		ldr	r3, [r7, #4]
 2930 0120 DB6A     		ldr	r3, [r3, #44]
 2931              		.loc 1 2126 77
 2932 0122 B968     		ldr	r1, [r7, #8]
 2933 0124 B3FBF1F1 		udiv	r1, r3, r1
 2934 0128 B868     		ldr	r0, [r7, #8]
 2935 012a 00FB01F1 		mul	r1, r0, r1
 2936 012e 5B1A     		subs	r3, r3, r1
 2937              		.loc 1 2126 53
 2938 0130 D21A     		subs	r2, r2, r3
 2939              		.loc 1 2126 30
 2940 0132 7B68     		ldr	r3, [r7, #4]
 2941 0134 DA62     		str	r2, [r3, #44]
2127:./Libraries/STM32H7xx_HAL_Driver/Src/stm32h7xx_hal_jpeg.c **** 
2128:./Libraries/STM32H7xx_HAL_Driver/Src/stm32h7xx_hal_jpeg.c ****         /* Start DMA FIFO Out transfer */
2129:./Libraries/STM32H7xx_HAL_Driver/Src/stm32h7xx_hal_jpeg.c ****         if (HAL_MDMA_Start_IT(hjpeg->hdmaout, (uint32_t)&hjpeg->Instance->DOR, (uint32_t)hjpeg->pJp
 2942              		.loc 1 2129 13
 2943 0136 7B68     		ldr	r3, [r7, #4]
 2944 0138 586B     		ldr	r0, [r3, #52]
ARM GAS  /tmp/ccXFtjVt.s 			page 91


 2945              		.loc 1 2129 63
 2946 013a 7B68     		ldr	r3, [r7, #4]
 2947 013c 1B68     		ldr	r3, [r3]
 2948              		.loc 1 2129 57
 2949 013e 4433     		adds	r3, r3, #68
 2950              		.loc 1 2129 13
 2951 0140 1946     		mov	r1, r3
 2952              		.loc 1 2129 95
 2953 0142 7B68     		ldr	r3, [r7, #4]
 2954 0144 DB69     		ldr	r3, [r3, #28]
 2955              		.loc 1 2129 13
 2956 0146 1C46     		mov	r4, r3
 2957 0148 7B68     		ldr	r3, [r7, #4]
 2958 014a DB6A     		ldr	r3, [r3, #44]
 2959 014c 0122     		movs	r2, #1
 2960 014e 0092     		str	r2, [sp]
 2961 0150 2246     		mov	r2, r4
 2962 0152 FFF7FEFF 		bl	HAL_MDMA_Start_IT
 2963 0156 0346     		mov	r3, r0
 2964              		.loc 1 2129 12
 2965 0158 002B     		cmp	r3, #0
 2966 015a 37D0     		beq	.L119
2130:./Libraries/STM32H7xx_HAL_Driver/Src/stm32h7xx_hal_jpeg.c ****                               hjpeg->OutDataLength, 1) != HAL_OK)
2131:./Libraries/STM32H7xx_HAL_Driver/Src/stm32h7xx_hal_jpeg.c ****         {
2132:./Libraries/STM32H7xx_HAL_Driver/Src/stm32h7xx_hal_jpeg.c ****           hjpeg->ErrorCode |= HAL_JPEG_ERROR_DMA;
 2967              		.loc 1 2132 28
 2968 015c 7B68     		ldr	r3, [r7, #4]
 2969 015e 1B6D     		ldr	r3, [r3, #80]
 2970 0160 43F00402 		orr	r2, r3, #4
 2971 0164 7B68     		ldr	r3, [r7, #4]
 2972 0166 1A65     		str	r2, [r3, #80]
2133:./Libraries/STM32H7xx_HAL_Driver/Src/stm32h7xx_hal_jpeg.c ****           hjpeg->State = HAL_JPEG_STATE_ERROR;
 2973              		.loc 1 2133 24
 2974 0168 7B68     		ldr	r3, [r7, #4]
 2975 016a 0622     		movs	r2, #6
 2976 016c 83F84D20 		strb	r2, [r3, #77]
2134:./Libraries/STM32H7xx_HAL_Driver/Src/stm32h7xx_hal_jpeg.c ****           return HAL_ERROR;
 2977              		.loc 1 2134 18
 2978 0170 0123     		movs	r3, #1
 2979 0172 2CE0     		b	.L115
 2980              	.L116:
2135:./Libraries/STM32H7xx_HAL_Driver/Src/stm32h7xx_hal_jpeg.c ****         }
2136:./Libraries/STM32H7xx_HAL_Driver/Src/stm32h7xx_hal_jpeg.c ****       }
2137:./Libraries/STM32H7xx_HAL_Driver/Src/stm32h7xx_hal_jpeg.c **** 
2138:./Libraries/STM32H7xx_HAL_Driver/Src/stm32h7xx_hal_jpeg.c ****     }
2139:./Libraries/STM32H7xx_HAL_Driver/Src/stm32h7xx_hal_jpeg.c **** 
2140:./Libraries/STM32H7xx_HAL_Driver/Src/stm32h7xx_hal_jpeg.c ****   }
2141:./Libraries/STM32H7xx_HAL_Driver/Src/stm32h7xx_hal_jpeg.c ****   else if ((hjpeg->Context & JPEG_CONTEXT_METHOD_MASK) == JPEG_CONTEXT_IT)
 2981              		.loc 1 2141 18
 2982 0174 7B68     		ldr	r3, [r7, #4]
 2983 0176 5B6D     		ldr	r3, [r3, #84]
 2984              		.loc 1 2141 28
 2985 0178 03F00C03 		and	r3, r3, #12
 2986              		.loc 1 2141 11
 2987 017c 082B     		cmp	r3, #8
 2988 017e 25D1     		bne	.L119
2142:./Libraries/STM32H7xx_HAL_Driver/Src/stm32h7xx_hal_jpeg.c ****   {
ARM GAS  /tmp/ccXFtjVt.s 			page 92


2143:./Libraries/STM32H7xx_HAL_Driver/Src/stm32h7xx_hal_jpeg.c ****     if ((XferSelection & JPEG_PAUSE_RESUME_INPUT) == JPEG_PAUSE_RESUME_INPUT)
 2989              		.loc 1 2143 24
 2990 0180 3B68     		ldr	r3, [r7]
 2991 0182 03F00103 		and	r3, r3, #1
 2992              		.loc 1 2143 8
 2993 0186 002B     		cmp	r3, #0
 2994 0188 09D0     		beq	.L122
2144:./Libraries/STM32H7xx_HAL_Driver/Src/stm32h7xx_hal_jpeg.c ****     {
2145:./Libraries/STM32H7xx_HAL_Driver/Src/stm32h7xx_hal_jpeg.c ****       hjpeg->Context &= (~JPEG_CONTEXT_PAUSE_INPUT);
 2995              		.loc 1 2145 22
 2996 018a 7B68     		ldr	r3, [r7, #4]
 2997 018c 5B6D     		ldr	r3, [r3, #84]
 2998 018e 23F48052 		bic	r2, r3, #4096
 2999 0192 7B68     		ldr	r3, [r7, #4]
 3000 0194 5A65     		str	r2, [r3, #84]
2146:./Libraries/STM32H7xx_HAL_Driver/Src/stm32h7xx_hal_jpeg.c ****       mask |= (JPEG_IT_IFT | JPEG_IT_IFNF);
 3001              		.loc 1 2146 12
 3002 0196 FB68     		ldr	r3, [r7, #12]
 3003 0198 43F00603 		orr	r3, r3, #6
 3004 019c FB60     		str	r3, [r7, #12]
 3005              	.L122:
2147:./Libraries/STM32H7xx_HAL_Driver/Src/stm32h7xx_hal_jpeg.c ****     }
2148:./Libraries/STM32H7xx_HAL_Driver/Src/stm32h7xx_hal_jpeg.c ****     if ((XferSelection & JPEG_PAUSE_RESUME_OUTPUT) == JPEG_PAUSE_RESUME_OUTPUT)
 3006              		.loc 1 2148 24
 3007 019e 3B68     		ldr	r3, [r7]
 3008 01a0 03F00203 		and	r3, r3, #2
 3009              		.loc 1 2148 8
 3010 01a4 002B     		cmp	r3, #0
 3011 01a6 09D0     		beq	.L123
2149:./Libraries/STM32H7xx_HAL_Driver/Src/stm32h7xx_hal_jpeg.c ****     {
2150:./Libraries/STM32H7xx_HAL_Driver/Src/stm32h7xx_hal_jpeg.c ****       hjpeg->Context &= (~JPEG_CONTEXT_PAUSE_OUTPUT);
 3012              		.loc 1 2150 22
 3013 01a8 7B68     		ldr	r3, [r7, #4]
 3014 01aa 5B6D     		ldr	r3, [r3, #84]
 3015 01ac 23F40052 		bic	r2, r3, #8192
 3016 01b0 7B68     		ldr	r3, [r7, #4]
 3017 01b2 5A65     		str	r2, [r3, #84]
2151:./Libraries/STM32H7xx_HAL_Driver/Src/stm32h7xx_hal_jpeg.c ****       mask |= (JPEG_IT_OFT | JPEG_IT_OFNE | JPEG_IT_EOC);
 3018              		.loc 1 2151 12
 3019 01b4 FB68     		ldr	r3, [r7, #12]
 3020 01b6 43F02803 		orr	r3, r3, #40
 3021 01ba FB60     		str	r3, [r7, #12]
 3022              	.L123:
2152:./Libraries/STM32H7xx_HAL_Driver/Src/stm32h7xx_hal_jpeg.c ****     }
2153:./Libraries/STM32H7xx_HAL_Driver/Src/stm32h7xx_hal_jpeg.c ****     __HAL_JPEG_ENABLE_IT(hjpeg, mask);
 3023              		.loc 1 2153 5
 3024 01bc 7B68     		ldr	r3, [r7, #4]
 3025 01be 1B68     		ldr	r3, [r3]
 3026 01c0 196B     		ldr	r1, [r3, #48]
 3027 01c2 7B68     		ldr	r3, [r7, #4]
 3028 01c4 1B68     		ldr	r3, [r3]
 3029 01c6 FA68     		ldr	r2, [r7, #12]
 3030 01c8 0A43     		orrs	r2, r2, r1
 3031 01ca 1A63     		str	r2, [r3, #48]
 3032              	.L119:
2154:./Libraries/STM32H7xx_HAL_Driver/Src/stm32h7xx_hal_jpeg.c **** 
2155:./Libraries/STM32H7xx_HAL_Driver/Src/stm32h7xx_hal_jpeg.c ****   }
ARM GAS  /tmp/ccXFtjVt.s 			page 93


2156:./Libraries/STM32H7xx_HAL_Driver/Src/stm32h7xx_hal_jpeg.c ****   else
2157:./Libraries/STM32H7xx_HAL_Driver/Src/stm32h7xx_hal_jpeg.c ****   {
2158:./Libraries/STM32H7xx_HAL_Driver/Src/stm32h7xx_hal_jpeg.c ****     /* Nothing to do */
2159:./Libraries/STM32H7xx_HAL_Driver/Src/stm32h7xx_hal_jpeg.c ****   }
2160:./Libraries/STM32H7xx_HAL_Driver/Src/stm32h7xx_hal_jpeg.c **** 
2161:./Libraries/STM32H7xx_HAL_Driver/Src/stm32h7xx_hal_jpeg.c ****   /* Return function status */
2162:./Libraries/STM32H7xx_HAL_Driver/Src/stm32h7xx_hal_jpeg.c ****   return HAL_OK;
 3033              		.loc 1 2162 10
 3034 01cc 0023     		movs	r3, #0
 3035              	.L115:
2163:./Libraries/STM32H7xx_HAL_Driver/Src/stm32h7xx_hal_jpeg.c **** }
 3036              		.loc 1 2163 1
 3037 01ce 1846     		mov	r0, r3
 3038 01d0 1437     		adds	r7, r7, #20
 3039              	.LCFI89:
 3040              		.cfi_def_cfa_offset 12
 3041 01d2 BD46     		mov	sp, r7
 3042              	.LCFI90:
 3043              		.cfi_def_cfa_register 13
 3044              		@ sp needed
 3045 01d4 90BD     		pop	{r4, r7, pc}
 3046              		.cfi_endproc
 3047              	.LFE347:
 3049              		.section	.text.HAL_JPEG_ConfigInputBuffer,"ax",%progbits
 3050              		.align	1
 3051              		.global	HAL_JPEG_ConfigInputBuffer
 3052              		.syntax unified
 3053              		.thumb
 3054              		.thumb_func
 3055              		.fpu fpv5-d16
 3057              	HAL_JPEG_ConfigInputBuffer:
 3058              	.LFB348:
2164:./Libraries/STM32H7xx_HAL_Driver/Src/stm32h7xx_hal_jpeg.c **** 
2165:./Libraries/STM32H7xx_HAL_Driver/Src/stm32h7xx_hal_jpeg.c **** /**
2166:./Libraries/STM32H7xx_HAL_Driver/Src/stm32h7xx_hal_jpeg.c ****   * @brief  Config Encoding/Decoding Input Buffer.
2167:./Libraries/STM32H7xx_HAL_Driver/Src/stm32h7xx_hal_jpeg.c ****   * @param  hjpeg pointer to a JPEG_HandleTypeDef structure that contains
2168:./Libraries/STM32H7xx_HAL_Driver/Src/stm32h7xx_hal_jpeg.c ****   *         the configuration information for JPEG module.
2169:./Libraries/STM32H7xx_HAL_Driver/Src/stm32h7xx_hal_jpeg.c ****   * @param  pNewInputBuffer Pointer to the new input data buffer
2170:./Libraries/STM32H7xx_HAL_Driver/Src/stm32h7xx_hal_jpeg.c ****   * @param  InDataLength Size in bytes of the new Input data buffer
2171:./Libraries/STM32H7xx_HAL_Driver/Src/stm32h7xx_hal_jpeg.c ****   * @retval HAL status
2172:./Libraries/STM32H7xx_HAL_Driver/Src/stm32h7xx_hal_jpeg.c ****   */
2173:./Libraries/STM32H7xx_HAL_Driver/Src/stm32h7xx_hal_jpeg.c **** void HAL_JPEG_ConfigInputBuffer(JPEG_HandleTypeDef *hjpeg, uint8_t *pNewInputBuffer, uint32_t InDat
2174:./Libraries/STM32H7xx_HAL_Driver/Src/stm32h7xx_hal_jpeg.c **** {
 3059              		.loc 1 2174 1
 3060              		.cfi_startproc
 3061              		@ args = 0, pretend = 0, frame = 16
 3062              		@ frame_needed = 1, uses_anonymous_args = 0
 3063              		@ link register save eliminated.
 3064 0000 80B4     		push	{r7}
 3065              	.LCFI91:
 3066              		.cfi_def_cfa_offset 4
 3067              		.cfi_offset 7, -4
 3068 0002 85B0     		sub	sp, sp, #20
 3069              	.LCFI92:
 3070              		.cfi_def_cfa_offset 24
 3071 0004 00AF     		add	r7, sp, #0
 3072              	.LCFI93:
ARM GAS  /tmp/ccXFtjVt.s 			page 94


 3073              		.cfi_def_cfa_register 7
 3074 0006 F860     		str	r0, [r7, #12]
 3075 0008 B960     		str	r1, [r7, #8]
 3076 000a 7A60     		str	r2, [r7, #4]
2175:./Libraries/STM32H7xx_HAL_Driver/Src/stm32h7xx_hal_jpeg.c ****   hjpeg->pJpegInBuffPtr =  pNewInputBuffer;
 3077              		.loc 1 2175 25
 3078 000c FB68     		ldr	r3, [r7, #12]
 3079 000e BA68     		ldr	r2, [r7, #8]
 3080 0010 9A61     		str	r2, [r3, #24]
2176:./Libraries/STM32H7xx_HAL_Driver/Src/stm32h7xx_hal_jpeg.c ****   hjpeg->InDataLength = InDataLength;
 3081              		.loc 1 2176 23
 3082 0012 FB68     		ldr	r3, [r7, #12]
 3083 0014 7A68     		ldr	r2, [r7, #4]
 3084 0016 9A62     		str	r2, [r3, #40]
2177:./Libraries/STM32H7xx_HAL_Driver/Src/stm32h7xx_hal_jpeg.c **** }
 3085              		.loc 1 2177 1
 3086 0018 00BF     		nop
 3087 001a 1437     		adds	r7, r7, #20
 3088              	.LCFI94:
 3089              		.cfi_def_cfa_offset 4
 3090 001c BD46     		mov	sp, r7
 3091              	.LCFI95:
 3092              		.cfi_def_cfa_register 13
 3093              		@ sp needed
 3094 001e 5DF8047B 		ldr	r7, [sp], #4
 3095              	.LCFI96:
 3096              		.cfi_restore 7
 3097              		.cfi_def_cfa_offset 0
 3098 0022 7047     		bx	lr
 3099              		.cfi_endproc
 3100              	.LFE348:
 3102              		.section	.text.HAL_JPEG_ConfigOutputBuffer,"ax",%progbits
 3103              		.align	1
 3104              		.global	HAL_JPEG_ConfigOutputBuffer
 3105              		.syntax unified
 3106              		.thumb
 3107              		.thumb_func
 3108              		.fpu fpv5-d16
 3110              	HAL_JPEG_ConfigOutputBuffer:
 3111              	.LFB349:
2178:./Libraries/STM32H7xx_HAL_Driver/Src/stm32h7xx_hal_jpeg.c **** 
2179:./Libraries/STM32H7xx_HAL_Driver/Src/stm32h7xx_hal_jpeg.c **** /**
2180:./Libraries/STM32H7xx_HAL_Driver/Src/stm32h7xx_hal_jpeg.c ****   * @brief  Config Encoding/Decoding Output Buffer.
2181:./Libraries/STM32H7xx_HAL_Driver/Src/stm32h7xx_hal_jpeg.c ****   * @param  hjpeg pointer to a JPEG_HandleTypeDef structure that contains
2182:./Libraries/STM32H7xx_HAL_Driver/Src/stm32h7xx_hal_jpeg.c ****   *         the configuration information for JPEG module.
2183:./Libraries/STM32H7xx_HAL_Driver/Src/stm32h7xx_hal_jpeg.c ****   * @param  pNewOutputBuffer Pointer to the new output data buffer
2184:./Libraries/STM32H7xx_HAL_Driver/Src/stm32h7xx_hal_jpeg.c ****   * @param  OutDataLength Size in bytes of the new Output data buffer
2185:./Libraries/STM32H7xx_HAL_Driver/Src/stm32h7xx_hal_jpeg.c ****   * @retval HAL status
2186:./Libraries/STM32H7xx_HAL_Driver/Src/stm32h7xx_hal_jpeg.c ****   */
2187:./Libraries/STM32H7xx_HAL_Driver/Src/stm32h7xx_hal_jpeg.c **** void HAL_JPEG_ConfigOutputBuffer(JPEG_HandleTypeDef *hjpeg, uint8_t *pNewOutputBuffer, uint32_t Out
2188:./Libraries/STM32H7xx_HAL_Driver/Src/stm32h7xx_hal_jpeg.c **** {
 3112              		.loc 1 2188 1
 3113              		.cfi_startproc
 3114              		@ args = 0, pretend = 0, frame = 16
 3115              		@ frame_needed = 1, uses_anonymous_args = 0
 3116              		@ link register save eliminated.
 3117 0000 80B4     		push	{r7}
ARM GAS  /tmp/ccXFtjVt.s 			page 95


 3118              	.LCFI97:
 3119              		.cfi_def_cfa_offset 4
 3120              		.cfi_offset 7, -4
 3121 0002 85B0     		sub	sp, sp, #20
 3122              	.LCFI98:
 3123              		.cfi_def_cfa_offset 24
 3124 0004 00AF     		add	r7, sp, #0
 3125              	.LCFI99:
 3126              		.cfi_def_cfa_register 7
 3127 0006 F860     		str	r0, [r7, #12]
 3128 0008 B960     		str	r1, [r7, #8]
 3129 000a 7A60     		str	r2, [r7, #4]
2189:./Libraries/STM32H7xx_HAL_Driver/Src/stm32h7xx_hal_jpeg.c ****   hjpeg->pJpegOutBuffPtr = pNewOutputBuffer;
 3130              		.loc 1 2189 26
 3131 000c FB68     		ldr	r3, [r7, #12]
 3132 000e BA68     		ldr	r2, [r7, #8]
 3133 0010 DA61     		str	r2, [r3, #28]
2190:./Libraries/STM32H7xx_HAL_Driver/Src/stm32h7xx_hal_jpeg.c ****   hjpeg->OutDataLength = OutDataLength;
 3134              		.loc 1 2190 24
 3135 0012 FB68     		ldr	r3, [r7, #12]
 3136 0014 7A68     		ldr	r2, [r7, #4]
 3137 0016 DA62     		str	r2, [r3, #44]
2191:./Libraries/STM32H7xx_HAL_Driver/Src/stm32h7xx_hal_jpeg.c **** }
 3138              		.loc 1 2191 1
 3139 0018 00BF     		nop
 3140 001a 1437     		adds	r7, r7, #20
 3141              	.LCFI100:
 3142              		.cfi_def_cfa_offset 4
 3143 001c BD46     		mov	sp, r7
 3144              	.LCFI101:
 3145              		.cfi_def_cfa_register 13
 3146              		@ sp needed
 3147 001e 5DF8047B 		ldr	r7, [sp], #4
 3148              	.LCFI102:
 3149              		.cfi_restore 7
 3150              		.cfi_def_cfa_offset 0
 3151 0022 7047     		bx	lr
 3152              		.cfi_endproc
 3153              	.LFE349:
 3155              		.section	.text.HAL_JPEG_Abort,"ax",%progbits
 3156              		.align	1
 3157              		.global	HAL_JPEG_Abort
 3158              		.syntax unified
 3159              		.thumb
 3160              		.thumb_func
 3161              		.fpu fpv5-d16
 3163              	HAL_JPEG_Abort:
 3164              	.LFB350:
2192:./Libraries/STM32H7xx_HAL_Driver/Src/stm32h7xx_hal_jpeg.c **** 
2193:./Libraries/STM32H7xx_HAL_Driver/Src/stm32h7xx_hal_jpeg.c **** /**
2194:./Libraries/STM32H7xx_HAL_Driver/Src/stm32h7xx_hal_jpeg.c ****   * @brief  Aborts the JPEG Encoding/Decoding.
2195:./Libraries/STM32H7xx_HAL_Driver/Src/stm32h7xx_hal_jpeg.c ****   * @param  hjpeg pointer to a JPEG_HandleTypeDef structure that contains
2196:./Libraries/STM32H7xx_HAL_Driver/Src/stm32h7xx_hal_jpeg.c ****   *         the configuration information for JPEG module
2197:./Libraries/STM32H7xx_HAL_Driver/Src/stm32h7xx_hal_jpeg.c ****   * @retval HAL status
2198:./Libraries/STM32H7xx_HAL_Driver/Src/stm32h7xx_hal_jpeg.c ****   */
2199:./Libraries/STM32H7xx_HAL_Driver/Src/stm32h7xx_hal_jpeg.c **** HAL_StatusTypeDef HAL_JPEG_Abort(JPEG_HandleTypeDef *hjpeg)
2200:./Libraries/STM32H7xx_HAL_Driver/Src/stm32h7xx_hal_jpeg.c **** {
ARM GAS  /tmp/ccXFtjVt.s 			page 96


 3165              		.loc 1 2200 1
 3166              		.cfi_startproc
 3167              		@ args = 0, pretend = 0, frame = 16
 3168              		@ frame_needed = 1, uses_anonymous_args = 0
 3169 0000 80B5     		push	{r7, lr}
 3170              	.LCFI103:
 3171              		.cfi_def_cfa_offset 8
 3172              		.cfi_offset 7, -8
 3173              		.cfi_offset 14, -4
 3174 0002 84B0     		sub	sp, sp, #16
 3175              	.LCFI104:
 3176              		.cfi_def_cfa_offset 24
 3177 0004 00AF     		add	r7, sp, #0
 3178              	.LCFI105:
 3179              		.cfi_def_cfa_register 7
 3180 0006 7860     		str	r0, [r7, #4]
2201:./Libraries/STM32H7xx_HAL_Driver/Src/stm32h7xx_hal_jpeg.c ****   uint32_t tickstart;
2202:./Libraries/STM32H7xx_HAL_Driver/Src/stm32h7xx_hal_jpeg.c ****   uint32_t tmpContext;
2203:./Libraries/STM32H7xx_HAL_Driver/Src/stm32h7xx_hal_jpeg.c ****   tmpContext = hjpeg->Context;
 3181              		.loc 1 2203 14
 3182 0008 7B68     		ldr	r3, [r7, #4]
 3183 000a 5B6D     		ldr	r3, [r3, #84]
 3184 000c FB60     		str	r3, [r7, #12]
2204:./Libraries/STM32H7xx_HAL_Driver/Src/stm32h7xx_hal_jpeg.c **** 
2205:./Libraries/STM32H7xx_HAL_Driver/Src/stm32h7xx_hal_jpeg.c ****   /*Reset the Context operation and method*/
2206:./Libraries/STM32H7xx_HAL_Driver/Src/stm32h7xx_hal_jpeg.c ****   hjpeg->Context &= ~(JPEG_CONTEXT_OPERATION_MASK | JPEG_CONTEXT_METHOD_MASK | JPEG_CONTEXT_ENDING_
 3185              		.loc 1 2206 18
 3186 000e 7B68     		ldr	r3, [r7, #4]
 3187 0010 5A6D     		ldr	r2, [r3, #84]
 3188 0012 4E4B     		ldr	r3, .L134
 3189 0014 1340     		ands	r3, r3, r2
 3190 0016 7A68     		ldr	r2, [r7, #4]
 3191 0018 5365     		str	r3, [r2, #84]
2207:./Libraries/STM32H7xx_HAL_Driver/Src/stm32h7xx_hal_jpeg.c **** 
2208:./Libraries/STM32H7xx_HAL_Driver/Src/stm32h7xx_hal_jpeg.c ****   if ((tmpContext & JPEG_CONTEXT_METHOD_MASK) == JPEG_CONTEXT_DMA)
 3192              		.loc 1 2208 19
 3193 001a FB68     		ldr	r3, [r7, #12]
 3194 001c 03F00C03 		and	r3, r3, #12
 3195              		.loc 1 2208 6
 3196 0020 0C2B     		cmp	r3, #12
 3197 0022 25D1     		bne	.L127
2209:./Libraries/STM32H7xx_HAL_Driver/Src/stm32h7xx_hal_jpeg.c ****   {
2210:./Libraries/STM32H7xx_HAL_Driver/Src/stm32h7xx_hal_jpeg.c ****     /* Stop the DMA In/out Xfer*/
2211:./Libraries/STM32H7xx_HAL_Driver/Src/stm32h7xx_hal_jpeg.c ****     if (HAL_MDMA_Abort(hjpeg->hdmaout) != HAL_OK)
 3198              		.loc 1 2211 9
 3199 0024 7B68     		ldr	r3, [r7, #4]
 3200 0026 5B6B     		ldr	r3, [r3, #52]
 3201 0028 1846     		mov	r0, r3
 3202 002a FFF7FEFF 		bl	HAL_MDMA_Abort
 3203 002e 0346     		mov	r3, r0
 3204              		.loc 1 2211 8
 3205 0030 002B     		cmp	r3, #0
 3206 0032 0AD0     		beq	.L128
2212:./Libraries/STM32H7xx_HAL_Driver/Src/stm32h7xx_hal_jpeg.c ****     {
2213:./Libraries/STM32H7xx_HAL_Driver/Src/stm32h7xx_hal_jpeg.c ****       if (hjpeg->hdmaout->ErrorCode == HAL_MDMA_ERROR_TIMEOUT)
 3207              		.loc 1 2213 16
 3208 0034 7B68     		ldr	r3, [r7, #4]
ARM GAS  /tmp/ccXFtjVt.s 			page 97


 3209 0036 5B6B     		ldr	r3, [r3, #52]
 3210              		.loc 1 2213 25
 3211 0038 9B6E     		ldr	r3, [r3, #104]
 3212              		.loc 1 2213 10
 3213 003a 402B     		cmp	r3, #64
 3214 003c 05D1     		bne	.L128
2214:./Libraries/STM32H7xx_HAL_Driver/Src/stm32h7xx_hal_jpeg.c ****       {
2215:./Libraries/STM32H7xx_HAL_Driver/Src/stm32h7xx_hal_jpeg.c ****         hjpeg->ErrorCode |= HAL_JPEG_ERROR_DMA;
 3215              		.loc 1 2215 26
 3216 003e 7B68     		ldr	r3, [r7, #4]
 3217 0040 1B6D     		ldr	r3, [r3, #80]
 3218 0042 43F00402 		orr	r2, r3, #4
 3219 0046 7B68     		ldr	r3, [r7, #4]
 3220 0048 1A65     		str	r2, [r3, #80]
 3221              	.L128:
2216:./Libraries/STM32H7xx_HAL_Driver/Src/stm32h7xx_hal_jpeg.c ****       }
2217:./Libraries/STM32H7xx_HAL_Driver/Src/stm32h7xx_hal_jpeg.c ****     }
2218:./Libraries/STM32H7xx_HAL_Driver/Src/stm32h7xx_hal_jpeg.c ****     if (HAL_MDMA_Abort(hjpeg->hdmain) != HAL_OK)
 3222              		.loc 1 2218 9
 3223 004a 7B68     		ldr	r3, [r7, #4]
 3224 004c 1B6B     		ldr	r3, [r3, #48]
 3225 004e 1846     		mov	r0, r3
 3226 0050 FFF7FEFF 		bl	HAL_MDMA_Abort
 3227 0054 0346     		mov	r3, r0
 3228              		.loc 1 2218 8
 3229 0056 002B     		cmp	r3, #0
 3230 0058 0AD0     		beq	.L127
2219:./Libraries/STM32H7xx_HAL_Driver/Src/stm32h7xx_hal_jpeg.c ****     {
2220:./Libraries/STM32H7xx_HAL_Driver/Src/stm32h7xx_hal_jpeg.c ****       if (hjpeg->hdmain->ErrorCode == HAL_MDMA_ERROR_TIMEOUT)
 3231              		.loc 1 2220 16
 3232 005a 7B68     		ldr	r3, [r7, #4]
 3233 005c 1B6B     		ldr	r3, [r3, #48]
 3234              		.loc 1 2220 24
 3235 005e 9B6E     		ldr	r3, [r3, #104]
 3236              		.loc 1 2220 10
 3237 0060 402B     		cmp	r3, #64
 3238 0062 05D1     		bne	.L127
2221:./Libraries/STM32H7xx_HAL_Driver/Src/stm32h7xx_hal_jpeg.c ****       {
2222:./Libraries/STM32H7xx_HAL_Driver/Src/stm32h7xx_hal_jpeg.c ****         hjpeg->ErrorCode |= HAL_JPEG_ERROR_DMA;
 3239              		.loc 1 2222 26
 3240 0064 7B68     		ldr	r3, [r7, #4]
 3241 0066 1B6D     		ldr	r3, [r3, #80]
 3242 0068 43F00402 		orr	r2, r3, #4
 3243 006c 7B68     		ldr	r3, [r7, #4]
 3244 006e 1A65     		str	r2, [r3, #80]
 3245              	.L127:
2223:./Libraries/STM32H7xx_HAL_Driver/Src/stm32h7xx_hal_jpeg.c ****       }
2224:./Libraries/STM32H7xx_HAL_Driver/Src/stm32h7xx_hal_jpeg.c ****     }
2225:./Libraries/STM32H7xx_HAL_Driver/Src/stm32h7xx_hal_jpeg.c **** 
2226:./Libraries/STM32H7xx_HAL_Driver/Src/stm32h7xx_hal_jpeg.c ****   }
2227:./Libraries/STM32H7xx_HAL_Driver/Src/stm32h7xx_hal_jpeg.c **** 
2228:./Libraries/STM32H7xx_HAL_Driver/Src/stm32h7xx_hal_jpeg.c ****   /* Stop the JPEG encoding/decoding process*/
2229:./Libraries/STM32H7xx_HAL_Driver/Src/stm32h7xx_hal_jpeg.c ****   hjpeg->Instance->CONFR0 &=  ~JPEG_CONFR0_START;
 3246              		.loc 1 2229 8
 3247 0070 7B68     		ldr	r3, [r7, #4]
 3248 0072 1B68     		ldr	r3, [r3]
 3249              		.loc 1 2229 27
ARM GAS  /tmp/ccXFtjVt.s 			page 98


 3250 0074 1A68     		ldr	r2, [r3]
 3251              		.loc 1 2229 8
 3252 0076 7B68     		ldr	r3, [r7, #4]
 3253 0078 1B68     		ldr	r3, [r3]
 3254              		.loc 1 2229 27
 3255 007a 22F00102 		bic	r2, r2, #1
 3256 007e 1A60     		str	r2, [r3]
2230:./Libraries/STM32H7xx_HAL_Driver/Src/stm32h7xx_hal_jpeg.c **** 
2231:./Libraries/STM32H7xx_HAL_Driver/Src/stm32h7xx_hal_jpeg.c ****   /* Get tick */
2232:./Libraries/STM32H7xx_HAL_Driver/Src/stm32h7xx_hal_jpeg.c ****   tickstart = HAL_GetTick();
 3257              		.loc 1 2232 15
 3258 0080 FFF7FEFF 		bl	HAL_GetTick
 3259 0084 B860     		str	r0, [r7, #8]
2233:./Libraries/STM32H7xx_HAL_Driver/Src/stm32h7xx_hal_jpeg.c **** 
2234:./Libraries/STM32H7xx_HAL_Driver/Src/stm32h7xx_hal_jpeg.c ****   /* Check if the JPEG Codec is effectively disabled */
2235:./Libraries/STM32H7xx_HAL_Driver/Src/stm32h7xx_hal_jpeg.c ****   while (__HAL_JPEG_GET_FLAG(hjpeg, JPEG_FLAG_COF) != 0UL)
 3260              		.loc 1 2235 9
 3261 0086 12E0     		b	.L129
 3262              	.L131:
2236:./Libraries/STM32H7xx_HAL_Driver/Src/stm32h7xx_hal_jpeg.c ****   {
2237:./Libraries/STM32H7xx_HAL_Driver/Src/stm32h7xx_hal_jpeg.c ****     /* Check for the Timeout */
2238:./Libraries/STM32H7xx_HAL_Driver/Src/stm32h7xx_hal_jpeg.c ****     if ((HAL_GetTick() - tickstart) > JPEG_TIMEOUT_VALUE)
 3263              		.loc 1 2238 10
 3264 0088 FFF7FEFF 		bl	HAL_GetTick
 3265 008c 0246     		mov	r2, r0
 3266              		.loc 1 2238 24
 3267 008e BB68     		ldr	r3, [r7, #8]
 3268 0090 D31A     		subs	r3, r2, r3
 3269              		.loc 1 2238 8
 3270 0092 B3F57A7F 		cmp	r3, #1000
 3271 0096 0AD9     		bls	.L129
2239:./Libraries/STM32H7xx_HAL_Driver/Src/stm32h7xx_hal_jpeg.c ****     {
2240:./Libraries/STM32H7xx_HAL_Driver/Src/stm32h7xx_hal_jpeg.c ****       /* Update error code */
2241:./Libraries/STM32H7xx_HAL_Driver/Src/stm32h7xx_hal_jpeg.c ****       hjpeg->ErrorCode |= HAL_JPEG_ERROR_TIMEOUT;
 3272              		.loc 1 2241 24
 3273 0098 7B68     		ldr	r3, [r7, #4]
 3274 009a 1B6D     		ldr	r3, [r3, #80]
 3275 009c 43F00802 		orr	r2, r3, #8
 3276 00a0 7B68     		ldr	r3, [r7, #4]
 3277 00a2 1A65     		str	r2, [r3, #80]
2242:./Libraries/STM32H7xx_HAL_Driver/Src/stm32h7xx_hal_jpeg.c **** 
2243:./Libraries/STM32H7xx_HAL_Driver/Src/stm32h7xx_hal_jpeg.c ****       /* Change the DMA state */
2244:./Libraries/STM32H7xx_HAL_Driver/Src/stm32h7xx_hal_jpeg.c ****       hjpeg->State = HAL_JPEG_STATE_ERROR;
 3278              		.loc 1 2244 20
 3279 00a4 7B68     		ldr	r3, [r7, #4]
 3280 00a6 0622     		movs	r2, #6
 3281 00a8 83F84D20 		strb	r2, [r3, #77]
2245:./Libraries/STM32H7xx_HAL_Driver/Src/stm32h7xx_hal_jpeg.c ****       break;
 3282              		.loc 1 2245 7
 3283 00ac 06E0     		b	.L130
 3284              	.L129:
2235:./Libraries/STM32H7xx_HAL_Driver/Src/stm32h7xx_hal_jpeg.c ****   {
 3285              		.loc 1 2235 10
 3286 00ae 7B68     		ldr	r3, [r7, #4]
 3287 00b0 1B68     		ldr	r3, [r3]
 3288 00b2 5B6B     		ldr	r3, [r3, #52]
 3289 00b4 03F08003 		and	r3, r3, #128
ARM GAS  /tmp/ccXFtjVt.s 			page 99


2235:./Libraries/STM32H7xx_HAL_Driver/Src/stm32h7xx_hal_jpeg.c ****   {
 3290              		.loc 1 2235 9
 3291 00b8 002B     		cmp	r3, #0
 3292 00ba E5D1     		bne	.L131
 3293              	.L130:
2246:./Libraries/STM32H7xx_HAL_Driver/Src/stm32h7xx_hal_jpeg.c ****     }
2247:./Libraries/STM32H7xx_HAL_Driver/Src/stm32h7xx_hal_jpeg.c ****   }
2248:./Libraries/STM32H7xx_HAL_Driver/Src/stm32h7xx_hal_jpeg.c **** 
2249:./Libraries/STM32H7xx_HAL_Driver/Src/stm32h7xx_hal_jpeg.c ****   /* Disable All Interrupts */
2250:./Libraries/STM32H7xx_HAL_Driver/Src/stm32h7xx_hal_jpeg.c ****   __HAL_JPEG_DISABLE_IT(hjpeg, JPEG_INTERRUPT_MASK);
 3294              		.loc 1 2250 3
 3295 00bc 7B68     		ldr	r3, [r7, #4]
 3296 00be 1B68     		ldr	r3, [r3]
 3297 00c0 1A6B     		ldr	r2, [r3, #48]
 3298 00c2 7B68     		ldr	r3, [r7, #4]
 3299 00c4 1B68     		ldr	r3, [r3]
 3300 00c6 22F07E02 		bic	r2, r2, #126
 3301 00ca 1A63     		str	r2, [r3, #48]
2251:./Libraries/STM32H7xx_HAL_Driver/Src/stm32h7xx_hal_jpeg.c **** 
2252:./Libraries/STM32H7xx_HAL_Driver/Src/stm32h7xx_hal_jpeg.c **** 
2253:./Libraries/STM32H7xx_HAL_Driver/Src/stm32h7xx_hal_jpeg.c ****   /* Flush input and output FIFOs*/
2254:./Libraries/STM32H7xx_HAL_Driver/Src/stm32h7xx_hal_jpeg.c ****   hjpeg->Instance->CR |= JPEG_CR_IFF;
 3302              		.loc 1 2254 8
 3303 00cc 7B68     		ldr	r3, [r7, #4]
 3304 00ce 1B68     		ldr	r3, [r3]
 3305              		.loc 1 2254 23
 3306 00d0 1A6B     		ldr	r2, [r3, #48]
 3307              		.loc 1 2254 8
 3308 00d2 7B68     		ldr	r3, [r7, #4]
 3309 00d4 1B68     		ldr	r3, [r3]
 3310              		.loc 1 2254 23
 3311 00d6 42F40052 		orr	r2, r2, #8192
 3312 00da 1A63     		str	r2, [r3, #48]
2255:./Libraries/STM32H7xx_HAL_Driver/Src/stm32h7xx_hal_jpeg.c ****   hjpeg->Instance->CR |= JPEG_CR_OFF;
 3313              		.loc 1 2255 8
 3314 00dc 7B68     		ldr	r3, [r7, #4]
 3315 00de 1B68     		ldr	r3, [r3]
 3316              		.loc 1 2255 23
 3317 00e0 1A6B     		ldr	r2, [r3, #48]
 3318              		.loc 1 2255 8
 3319 00e2 7B68     		ldr	r3, [r7, #4]
 3320 00e4 1B68     		ldr	r3, [r3]
 3321              		.loc 1 2255 23
 3322 00e6 42F48042 		orr	r2, r2, #16384
 3323 00ea 1A63     		str	r2, [r3, #48]
2256:./Libraries/STM32H7xx_HAL_Driver/Src/stm32h7xx_hal_jpeg.c **** 
2257:./Libraries/STM32H7xx_HAL_Driver/Src/stm32h7xx_hal_jpeg.c ****   /* Clear all flags */
2258:./Libraries/STM32H7xx_HAL_Driver/Src/stm32h7xx_hal_jpeg.c ****   __HAL_JPEG_CLEAR_FLAG(hjpeg, JPEG_FLAG_ALL);
 3324              		.loc 1 2258 3
 3325 00ec 7B68     		ldr	r3, [r7, #4]
 3326 00ee 1B68     		ldr	r3, [r3]
 3327 00f0 9A6B     		ldr	r2, [r3, #56]
 3328 00f2 7B68     		ldr	r3, [r7, #4]
 3329 00f4 1B68     		ldr	r3, [r3]
 3330 00f6 42F06002 		orr	r2, r2, #96
 3331 00fa 9A63     		str	r2, [r3, #56]
2259:./Libraries/STM32H7xx_HAL_Driver/Src/stm32h7xx_hal_jpeg.c **** 
ARM GAS  /tmp/ccXFtjVt.s 			page 100


2260:./Libraries/STM32H7xx_HAL_Driver/Src/stm32h7xx_hal_jpeg.c ****   /* Reset JpegInCount and JpegOutCount */
2261:./Libraries/STM32H7xx_HAL_Driver/Src/stm32h7xx_hal_jpeg.c ****   hjpeg->JpegInCount = 0;
 3332              		.loc 1 2261 22
 3333 00fc 7B68     		ldr	r3, [r7, #4]
 3334 00fe 0022     		movs	r2, #0
 3335 0100 1A62     		str	r2, [r3, #32]
2262:./Libraries/STM32H7xx_HAL_Driver/Src/stm32h7xx_hal_jpeg.c ****   hjpeg->JpegOutCount = 0;
 3336              		.loc 1 2262 23
 3337 0102 7B68     		ldr	r3, [r7, #4]
 3338 0104 0022     		movs	r2, #0
 3339 0106 5A62     		str	r2, [r3, #36]
2263:./Libraries/STM32H7xx_HAL_Driver/Src/stm32h7xx_hal_jpeg.c **** 
2264:./Libraries/STM32H7xx_HAL_Driver/Src/stm32h7xx_hal_jpeg.c ****   /*Reset the Context Pause*/
2265:./Libraries/STM32H7xx_HAL_Driver/Src/stm32h7xx_hal_jpeg.c ****   hjpeg->Context &= ~(JPEG_CONTEXT_PAUSE_INPUT | JPEG_CONTEXT_PAUSE_OUTPUT);
 3340              		.loc 1 2265 18
 3341 0108 7B68     		ldr	r3, [r7, #4]
 3342 010a 5B6D     		ldr	r3, [r3, #84]
 3343 010c 23F44052 		bic	r2, r3, #12288
 3344 0110 7B68     		ldr	r3, [r7, #4]
 3345 0112 5A65     		str	r2, [r3, #84]
2266:./Libraries/STM32H7xx_HAL_Driver/Src/stm32h7xx_hal_jpeg.c **** 
2267:./Libraries/STM32H7xx_HAL_Driver/Src/stm32h7xx_hal_jpeg.c ****   /* Change the DMA state*/
2268:./Libraries/STM32H7xx_HAL_Driver/Src/stm32h7xx_hal_jpeg.c ****   if (hjpeg->ErrorCode != HAL_JPEG_ERROR_NONE)
 3346              		.loc 1 2268 12
 3347 0114 7B68     		ldr	r3, [r7, #4]
 3348 0116 1B6D     		ldr	r3, [r3, #80]
 3349              		.loc 1 2268 6
 3350 0118 002B     		cmp	r3, #0
 3351 011a 09D0     		beq	.L132
2269:./Libraries/STM32H7xx_HAL_Driver/Src/stm32h7xx_hal_jpeg.c ****   {
2270:./Libraries/STM32H7xx_HAL_Driver/Src/stm32h7xx_hal_jpeg.c ****     hjpeg->State = HAL_JPEG_STATE_ERROR;
 3352              		.loc 1 2270 18
 3353 011c 7B68     		ldr	r3, [r7, #4]
 3354 011e 0622     		movs	r2, #6
 3355 0120 83F84D20 		strb	r2, [r3, #77]
2271:./Libraries/STM32H7xx_HAL_Driver/Src/stm32h7xx_hal_jpeg.c ****     /* Process Unlocked */
2272:./Libraries/STM32H7xx_HAL_Driver/Src/stm32h7xx_hal_jpeg.c ****     __HAL_UNLOCK(hjpeg);
 3356              		.loc 1 2272 5
 3357 0124 7B68     		ldr	r3, [r7, #4]
 3358 0126 0022     		movs	r2, #0
 3359 0128 83F84C20 		strb	r2, [r3, #76]
2273:./Libraries/STM32H7xx_HAL_Driver/Src/stm32h7xx_hal_jpeg.c ****     /* Return function status */
2274:./Libraries/STM32H7xx_HAL_Driver/Src/stm32h7xx_hal_jpeg.c ****     return HAL_ERROR;
 3360              		.loc 1 2274 12
 3361 012c 0123     		movs	r3, #1
 3362 012e 08E0     		b	.L133
 3363              	.L132:
2275:./Libraries/STM32H7xx_HAL_Driver/Src/stm32h7xx_hal_jpeg.c ****   }
2276:./Libraries/STM32H7xx_HAL_Driver/Src/stm32h7xx_hal_jpeg.c ****   else
2277:./Libraries/STM32H7xx_HAL_Driver/Src/stm32h7xx_hal_jpeg.c ****   {
2278:./Libraries/STM32H7xx_HAL_Driver/Src/stm32h7xx_hal_jpeg.c ****     hjpeg->State = HAL_JPEG_STATE_READY;
 3364              		.loc 1 2278 18
 3365 0130 7B68     		ldr	r3, [r7, #4]
 3366 0132 0122     		movs	r2, #1
 3367 0134 83F84D20 		strb	r2, [r3, #77]
2279:./Libraries/STM32H7xx_HAL_Driver/Src/stm32h7xx_hal_jpeg.c ****     /* Process Unlocked */
2280:./Libraries/STM32H7xx_HAL_Driver/Src/stm32h7xx_hal_jpeg.c ****     __HAL_UNLOCK(hjpeg);
ARM GAS  /tmp/ccXFtjVt.s 			page 101


 3368              		.loc 1 2280 5
 3369 0138 7B68     		ldr	r3, [r7, #4]
 3370 013a 0022     		movs	r2, #0
 3371 013c 83F84C20 		strb	r2, [r3, #76]
2281:./Libraries/STM32H7xx_HAL_Driver/Src/stm32h7xx_hal_jpeg.c ****     /* Return function status */
2282:./Libraries/STM32H7xx_HAL_Driver/Src/stm32h7xx_hal_jpeg.c ****     return HAL_OK;
 3372              		.loc 1 2282 12
 3373 0140 0023     		movs	r3, #0
 3374              	.L133:
2283:./Libraries/STM32H7xx_HAL_Driver/Src/stm32h7xx_hal_jpeg.c ****   }
2284:./Libraries/STM32H7xx_HAL_Driver/Src/stm32h7xx_hal_jpeg.c **** 
2285:./Libraries/STM32H7xx_HAL_Driver/Src/stm32h7xx_hal_jpeg.c **** }
 3375              		.loc 1 2285 1
 3376 0142 1846     		mov	r0, r3
 3377 0144 1037     		adds	r7, r7, #16
 3378              	.LCFI106:
 3379              		.cfi_def_cfa_offset 8
 3380 0146 BD46     		mov	sp, r7
 3381              	.LCFI107:
 3382              		.cfi_def_cfa_register 13
 3383              		@ sp needed
 3384 0148 80BD     		pop	{r7, pc}
 3385              	.L135:
 3386 014a 00BF     		.align	2
 3387              	.L134:
 3388 014c F07FFFFF 		.word	-32784
 3389              		.cfi_endproc
 3390              	.LFE350:
 3392              		.section	.text.HAL_JPEG_InfoReadyCallback,"ax",%progbits
 3393              		.align	1
 3394              		.weak	HAL_JPEG_InfoReadyCallback
 3395              		.syntax unified
 3396              		.thumb
 3397              		.thumb_func
 3398              		.fpu fpv5-d16
 3400              	HAL_JPEG_InfoReadyCallback:
 3401              	.LFB351:
2286:./Libraries/STM32H7xx_HAL_Driver/Src/stm32h7xx_hal_jpeg.c **** 
2287:./Libraries/STM32H7xx_HAL_Driver/Src/stm32h7xx_hal_jpeg.c **** 
2288:./Libraries/STM32H7xx_HAL_Driver/Src/stm32h7xx_hal_jpeg.c **** /**
2289:./Libraries/STM32H7xx_HAL_Driver/Src/stm32h7xx_hal_jpeg.c ****   * @}
2290:./Libraries/STM32H7xx_HAL_Driver/Src/stm32h7xx_hal_jpeg.c ****   */
2291:./Libraries/STM32H7xx_HAL_Driver/Src/stm32h7xx_hal_jpeg.c **** 
2292:./Libraries/STM32H7xx_HAL_Driver/Src/stm32h7xx_hal_jpeg.c **** /** @defgroup JPEG_Exported_Functions_Group4 JPEG Decode/Encode callback functions
2293:./Libraries/STM32H7xx_HAL_Driver/Src/stm32h7xx_hal_jpeg.c ****   *  @brief   JPEG process callback functions.
2294:./Libraries/STM32H7xx_HAL_Driver/Src/stm32h7xx_hal_jpeg.c ****   *
2295:./Libraries/STM32H7xx_HAL_Driver/Src/stm32h7xx_hal_jpeg.c **** @verbatim
2296:./Libraries/STM32H7xx_HAL_Driver/Src/stm32h7xx_hal_jpeg.c ****   ==============================================================================
2297:./Libraries/STM32H7xx_HAL_Driver/Src/stm32h7xx_hal_jpeg.c ****               #####  JPEG Decode and Encode callback functions  #####
2298:./Libraries/STM32H7xx_HAL_Driver/Src/stm32h7xx_hal_jpeg.c ****   ==============================================================================
2299:./Libraries/STM32H7xx_HAL_Driver/Src/stm32h7xx_hal_jpeg.c ****     [..]  This section provides callback functions:
2300:./Libraries/STM32H7xx_HAL_Driver/Src/stm32h7xx_hal_jpeg.c ****       (+) HAL_JPEG_InfoReadyCallback()  : Decoding JPEG Info ready callback
2301:./Libraries/STM32H7xx_HAL_Driver/Src/stm32h7xx_hal_jpeg.c ****       (+) HAL_JPEG_EncodeCpltCallback() : Encoding complete callback.
2302:./Libraries/STM32H7xx_HAL_Driver/Src/stm32h7xx_hal_jpeg.c ****       (+) HAL_JPEG_DecodeCpltCallback() : Decoding complete callback.
2303:./Libraries/STM32H7xx_HAL_Driver/Src/stm32h7xx_hal_jpeg.c ****       (+) HAL_JPEG_ErrorCallback()      : JPEG error callback.
2304:./Libraries/STM32H7xx_HAL_Driver/Src/stm32h7xx_hal_jpeg.c ****       (+) HAL_JPEG_GetDataCallback()    : Get New Data chunk callback.
2305:./Libraries/STM32H7xx_HAL_Driver/Src/stm32h7xx_hal_jpeg.c ****       (+) HAL_JPEG_DataReadyCallback()  : Decoded/Encoded Data ready  callback.
ARM GAS  /tmp/ccXFtjVt.s 			page 102


2306:./Libraries/STM32H7xx_HAL_Driver/Src/stm32h7xx_hal_jpeg.c **** 
2307:./Libraries/STM32H7xx_HAL_Driver/Src/stm32h7xx_hal_jpeg.c **** @endverbatim
2308:./Libraries/STM32H7xx_HAL_Driver/Src/stm32h7xx_hal_jpeg.c ****   * @{
2309:./Libraries/STM32H7xx_HAL_Driver/Src/stm32h7xx_hal_jpeg.c ****   */
2310:./Libraries/STM32H7xx_HAL_Driver/Src/stm32h7xx_hal_jpeg.c **** 
2311:./Libraries/STM32H7xx_HAL_Driver/Src/stm32h7xx_hal_jpeg.c **** /**
2312:./Libraries/STM32H7xx_HAL_Driver/Src/stm32h7xx_hal_jpeg.c ****   * @brief  Decoding JPEG Info ready callback.
2313:./Libraries/STM32H7xx_HAL_Driver/Src/stm32h7xx_hal_jpeg.c ****   * @param  hjpeg pointer to a JPEG_HandleTypeDef structure that contains
2314:./Libraries/STM32H7xx_HAL_Driver/Src/stm32h7xx_hal_jpeg.c ****   *         the configuration information for JPEG module
2315:./Libraries/STM32H7xx_HAL_Driver/Src/stm32h7xx_hal_jpeg.c ****   * @param  pInfo pointer to a JPEG_ConfTypeDef structure that contains
2316:./Libraries/STM32H7xx_HAL_Driver/Src/stm32h7xx_hal_jpeg.c ****   *         The JPEG decoded header information
2317:./Libraries/STM32H7xx_HAL_Driver/Src/stm32h7xx_hal_jpeg.c ****   * @retval None
2318:./Libraries/STM32H7xx_HAL_Driver/Src/stm32h7xx_hal_jpeg.c ****   */
2319:./Libraries/STM32H7xx_HAL_Driver/Src/stm32h7xx_hal_jpeg.c **** __weak void HAL_JPEG_InfoReadyCallback(JPEG_HandleTypeDef *hjpeg, JPEG_ConfTypeDef *pInfo)
2320:./Libraries/STM32H7xx_HAL_Driver/Src/stm32h7xx_hal_jpeg.c **** {
 3402              		.loc 1 2320 1
 3403              		.cfi_startproc
 3404              		@ args = 0, pretend = 0, frame = 8
 3405              		@ frame_needed = 1, uses_anonymous_args = 0
 3406              		@ link register save eliminated.
 3407 0000 80B4     		push	{r7}
 3408              	.LCFI108:
 3409              		.cfi_def_cfa_offset 4
 3410              		.cfi_offset 7, -4
 3411 0002 83B0     		sub	sp, sp, #12
 3412              	.LCFI109:
 3413              		.cfi_def_cfa_offset 16
 3414 0004 00AF     		add	r7, sp, #0
 3415              	.LCFI110:
 3416              		.cfi_def_cfa_register 7
 3417 0006 7860     		str	r0, [r7, #4]
 3418 0008 3960     		str	r1, [r7]
2321:./Libraries/STM32H7xx_HAL_Driver/Src/stm32h7xx_hal_jpeg.c ****   /* Prevent unused argument(s) compilation warning */
2322:./Libraries/STM32H7xx_HAL_Driver/Src/stm32h7xx_hal_jpeg.c ****   UNUSED(hjpeg);
2323:./Libraries/STM32H7xx_HAL_Driver/Src/stm32h7xx_hal_jpeg.c ****   UNUSED(pInfo);
2324:./Libraries/STM32H7xx_HAL_Driver/Src/stm32h7xx_hal_jpeg.c **** 
2325:./Libraries/STM32H7xx_HAL_Driver/Src/stm32h7xx_hal_jpeg.c ****   /* NOTE : This function Should not be modified, when the callback is needed,
2326:./Libraries/STM32H7xx_HAL_Driver/Src/stm32h7xx_hal_jpeg.c ****             the HAL_JPEG_HeaderParsingCpltCallback could be implemented in the user file
2327:./Libraries/STM32H7xx_HAL_Driver/Src/stm32h7xx_hal_jpeg.c ****    */
2328:./Libraries/STM32H7xx_HAL_Driver/Src/stm32h7xx_hal_jpeg.c **** }
 3419              		.loc 1 2328 1
 3420 000a 00BF     		nop
 3421 000c 0C37     		adds	r7, r7, #12
 3422              	.LCFI111:
 3423              		.cfi_def_cfa_offset 4
 3424 000e BD46     		mov	sp, r7
 3425              	.LCFI112:
 3426              		.cfi_def_cfa_register 13
 3427              		@ sp needed
 3428 0010 5DF8047B 		ldr	r7, [sp], #4
 3429              	.LCFI113:
 3430              		.cfi_restore 7
 3431              		.cfi_def_cfa_offset 0
 3432 0014 7047     		bx	lr
 3433              		.cfi_endproc
 3434              	.LFE351:
 3436              		.section	.text.HAL_JPEG_EncodeCpltCallback,"ax",%progbits
ARM GAS  /tmp/ccXFtjVt.s 			page 103


 3437              		.align	1
 3438              		.weak	HAL_JPEG_EncodeCpltCallback
 3439              		.syntax unified
 3440              		.thumb
 3441              		.thumb_func
 3442              		.fpu fpv5-d16
 3444              	HAL_JPEG_EncodeCpltCallback:
 3445              	.LFB352:
2329:./Libraries/STM32H7xx_HAL_Driver/Src/stm32h7xx_hal_jpeg.c **** 
2330:./Libraries/STM32H7xx_HAL_Driver/Src/stm32h7xx_hal_jpeg.c **** /**
2331:./Libraries/STM32H7xx_HAL_Driver/Src/stm32h7xx_hal_jpeg.c ****   * @brief  Encoding complete callback.
2332:./Libraries/STM32H7xx_HAL_Driver/Src/stm32h7xx_hal_jpeg.c ****   * @param  hjpeg pointer to a JPEG_HandleTypeDef structure that contains
2333:./Libraries/STM32H7xx_HAL_Driver/Src/stm32h7xx_hal_jpeg.c ****   *         the configuration information for JPEG module
2334:./Libraries/STM32H7xx_HAL_Driver/Src/stm32h7xx_hal_jpeg.c ****   * @retval None
2335:./Libraries/STM32H7xx_HAL_Driver/Src/stm32h7xx_hal_jpeg.c ****   */
2336:./Libraries/STM32H7xx_HAL_Driver/Src/stm32h7xx_hal_jpeg.c **** __weak void HAL_JPEG_EncodeCpltCallback(JPEG_HandleTypeDef *hjpeg)
2337:./Libraries/STM32H7xx_HAL_Driver/Src/stm32h7xx_hal_jpeg.c **** {
 3446              		.loc 1 2337 1
 3447              		.cfi_startproc
 3448              		@ args = 0, pretend = 0, frame = 8
 3449              		@ frame_needed = 1, uses_anonymous_args = 0
 3450              		@ link register save eliminated.
 3451 0000 80B4     		push	{r7}
 3452              	.LCFI114:
 3453              		.cfi_def_cfa_offset 4
 3454              		.cfi_offset 7, -4
 3455 0002 83B0     		sub	sp, sp, #12
 3456              	.LCFI115:
 3457              		.cfi_def_cfa_offset 16
 3458 0004 00AF     		add	r7, sp, #0
 3459              	.LCFI116:
 3460              		.cfi_def_cfa_register 7
 3461 0006 7860     		str	r0, [r7, #4]
2338:./Libraries/STM32H7xx_HAL_Driver/Src/stm32h7xx_hal_jpeg.c ****   /* Prevent unused argument(s) compilation warning */
2339:./Libraries/STM32H7xx_HAL_Driver/Src/stm32h7xx_hal_jpeg.c ****   UNUSED(hjpeg);
2340:./Libraries/STM32H7xx_HAL_Driver/Src/stm32h7xx_hal_jpeg.c **** 
2341:./Libraries/STM32H7xx_HAL_Driver/Src/stm32h7xx_hal_jpeg.c ****   /* NOTE : This function Should not be modified, when the callback is needed,
2342:./Libraries/STM32H7xx_HAL_Driver/Src/stm32h7xx_hal_jpeg.c ****             the HAL_JPEG_EncodeCpltCallback could be implemented in the user file
2343:./Libraries/STM32H7xx_HAL_Driver/Src/stm32h7xx_hal_jpeg.c ****    */
2344:./Libraries/STM32H7xx_HAL_Driver/Src/stm32h7xx_hal_jpeg.c **** }
 3462              		.loc 1 2344 1
 3463 0008 00BF     		nop
 3464 000a 0C37     		adds	r7, r7, #12
 3465              	.LCFI117:
 3466              		.cfi_def_cfa_offset 4
 3467 000c BD46     		mov	sp, r7
 3468              	.LCFI118:
 3469              		.cfi_def_cfa_register 13
 3470              		@ sp needed
 3471 000e 5DF8047B 		ldr	r7, [sp], #4
 3472              	.LCFI119:
 3473              		.cfi_restore 7
 3474              		.cfi_def_cfa_offset 0
 3475 0012 7047     		bx	lr
 3476              		.cfi_endproc
 3477              	.LFE352:
 3479              		.section	.text.HAL_JPEG_DecodeCpltCallback,"ax",%progbits
ARM GAS  /tmp/ccXFtjVt.s 			page 104


 3480              		.align	1
 3481              		.weak	HAL_JPEG_DecodeCpltCallback
 3482              		.syntax unified
 3483              		.thumb
 3484              		.thumb_func
 3485              		.fpu fpv5-d16
 3487              	HAL_JPEG_DecodeCpltCallback:
 3488              	.LFB353:
2345:./Libraries/STM32H7xx_HAL_Driver/Src/stm32h7xx_hal_jpeg.c **** 
2346:./Libraries/STM32H7xx_HAL_Driver/Src/stm32h7xx_hal_jpeg.c **** /**
2347:./Libraries/STM32H7xx_HAL_Driver/Src/stm32h7xx_hal_jpeg.c ****   * @brief  Decoding complete callback.
2348:./Libraries/STM32H7xx_HAL_Driver/Src/stm32h7xx_hal_jpeg.c ****   * @param  hjpeg pointer to a JPEG_HandleTypeDef structure that contains
2349:./Libraries/STM32H7xx_HAL_Driver/Src/stm32h7xx_hal_jpeg.c ****   *         the configuration information for JPEG module
2350:./Libraries/STM32H7xx_HAL_Driver/Src/stm32h7xx_hal_jpeg.c ****   * @retval None
2351:./Libraries/STM32H7xx_HAL_Driver/Src/stm32h7xx_hal_jpeg.c ****   */
2352:./Libraries/STM32H7xx_HAL_Driver/Src/stm32h7xx_hal_jpeg.c **** __weak void HAL_JPEG_DecodeCpltCallback(JPEG_HandleTypeDef *hjpeg)
2353:./Libraries/STM32H7xx_HAL_Driver/Src/stm32h7xx_hal_jpeg.c **** {
 3489              		.loc 1 2353 1
 3490              		.cfi_startproc
 3491              		@ args = 0, pretend = 0, frame = 8
 3492              		@ frame_needed = 1, uses_anonymous_args = 0
 3493              		@ link register save eliminated.
 3494 0000 80B4     		push	{r7}
 3495              	.LCFI120:
 3496              		.cfi_def_cfa_offset 4
 3497              		.cfi_offset 7, -4
 3498 0002 83B0     		sub	sp, sp, #12
 3499              	.LCFI121:
 3500              		.cfi_def_cfa_offset 16
 3501 0004 00AF     		add	r7, sp, #0
 3502              	.LCFI122:
 3503              		.cfi_def_cfa_register 7
 3504 0006 7860     		str	r0, [r7, #4]
2354:./Libraries/STM32H7xx_HAL_Driver/Src/stm32h7xx_hal_jpeg.c ****   /* Prevent unused argument(s) compilation warning */
2355:./Libraries/STM32H7xx_HAL_Driver/Src/stm32h7xx_hal_jpeg.c ****   UNUSED(hjpeg);
2356:./Libraries/STM32H7xx_HAL_Driver/Src/stm32h7xx_hal_jpeg.c **** 
2357:./Libraries/STM32H7xx_HAL_Driver/Src/stm32h7xx_hal_jpeg.c ****   /* NOTE : This function Should not be modified, when the callback is needed,
2358:./Libraries/STM32H7xx_HAL_Driver/Src/stm32h7xx_hal_jpeg.c ****             the HAL_JPEG_EncodeCpltCallback could be implemented in the user file
2359:./Libraries/STM32H7xx_HAL_Driver/Src/stm32h7xx_hal_jpeg.c ****    */
2360:./Libraries/STM32H7xx_HAL_Driver/Src/stm32h7xx_hal_jpeg.c **** }
 3505              		.loc 1 2360 1
 3506 0008 00BF     		nop
 3507 000a 0C37     		adds	r7, r7, #12
 3508              	.LCFI123:
 3509              		.cfi_def_cfa_offset 4
 3510 000c BD46     		mov	sp, r7
 3511              	.LCFI124:
 3512              		.cfi_def_cfa_register 13
 3513              		@ sp needed
 3514 000e 5DF8047B 		ldr	r7, [sp], #4
 3515              	.LCFI125:
 3516              		.cfi_restore 7
 3517              		.cfi_def_cfa_offset 0
 3518 0012 7047     		bx	lr
 3519              		.cfi_endproc
 3520              	.LFE353:
 3522              		.section	.text.HAL_JPEG_ErrorCallback,"ax",%progbits
ARM GAS  /tmp/ccXFtjVt.s 			page 105


 3523              		.align	1
 3524              		.weak	HAL_JPEG_ErrorCallback
 3525              		.syntax unified
 3526              		.thumb
 3527              		.thumb_func
 3528              		.fpu fpv5-d16
 3530              	HAL_JPEG_ErrorCallback:
 3531              	.LFB354:
2361:./Libraries/STM32H7xx_HAL_Driver/Src/stm32h7xx_hal_jpeg.c **** 
2362:./Libraries/STM32H7xx_HAL_Driver/Src/stm32h7xx_hal_jpeg.c **** /**
2363:./Libraries/STM32H7xx_HAL_Driver/Src/stm32h7xx_hal_jpeg.c ****   * @brief  JPEG error callback.
2364:./Libraries/STM32H7xx_HAL_Driver/Src/stm32h7xx_hal_jpeg.c ****   * @param  hjpeg pointer to a JPEG_HandleTypeDef structure that contains
2365:./Libraries/STM32H7xx_HAL_Driver/Src/stm32h7xx_hal_jpeg.c ****   *         the configuration information for JPEG module
2366:./Libraries/STM32H7xx_HAL_Driver/Src/stm32h7xx_hal_jpeg.c ****   * @retval None
2367:./Libraries/STM32H7xx_HAL_Driver/Src/stm32h7xx_hal_jpeg.c ****   */
2368:./Libraries/STM32H7xx_HAL_Driver/Src/stm32h7xx_hal_jpeg.c **** __weak void HAL_JPEG_ErrorCallback(JPEG_HandleTypeDef *hjpeg)
2369:./Libraries/STM32H7xx_HAL_Driver/Src/stm32h7xx_hal_jpeg.c **** {
 3532              		.loc 1 2369 1
 3533              		.cfi_startproc
 3534              		@ args = 0, pretend = 0, frame = 8
 3535              		@ frame_needed = 1, uses_anonymous_args = 0
 3536              		@ link register save eliminated.
 3537 0000 80B4     		push	{r7}
 3538              	.LCFI126:
 3539              		.cfi_def_cfa_offset 4
 3540              		.cfi_offset 7, -4
 3541 0002 83B0     		sub	sp, sp, #12
 3542              	.LCFI127:
 3543              		.cfi_def_cfa_offset 16
 3544 0004 00AF     		add	r7, sp, #0
 3545              	.LCFI128:
 3546              		.cfi_def_cfa_register 7
 3547 0006 7860     		str	r0, [r7, #4]
2370:./Libraries/STM32H7xx_HAL_Driver/Src/stm32h7xx_hal_jpeg.c ****   /* Prevent unused argument(s) compilation warning */
2371:./Libraries/STM32H7xx_HAL_Driver/Src/stm32h7xx_hal_jpeg.c ****   UNUSED(hjpeg);
2372:./Libraries/STM32H7xx_HAL_Driver/Src/stm32h7xx_hal_jpeg.c **** 
2373:./Libraries/STM32H7xx_HAL_Driver/Src/stm32h7xx_hal_jpeg.c ****   /* NOTE : This function Should not be modified, when the callback is needed,
2374:./Libraries/STM32H7xx_HAL_Driver/Src/stm32h7xx_hal_jpeg.c ****             the HAL_JPEG_ErrorCallback could be implemented in the user file
2375:./Libraries/STM32H7xx_HAL_Driver/Src/stm32h7xx_hal_jpeg.c ****    */
2376:./Libraries/STM32H7xx_HAL_Driver/Src/stm32h7xx_hal_jpeg.c **** }
 3548              		.loc 1 2376 1
 3549 0008 00BF     		nop
 3550 000a 0C37     		adds	r7, r7, #12
 3551              	.LCFI129:
 3552              		.cfi_def_cfa_offset 4
 3553 000c BD46     		mov	sp, r7
 3554              	.LCFI130:
 3555              		.cfi_def_cfa_register 13
 3556              		@ sp needed
 3557 000e 5DF8047B 		ldr	r7, [sp], #4
 3558              	.LCFI131:
 3559              		.cfi_restore 7
 3560              		.cfi_def_cfa_offset 0
 3561 0012 7047     		bx	lr
 3562              		.cfi_endproc
 3563              	.LFE354:
 3565              		.section	.text.HAL_JPEG_GetDataCallback,"ax",%progbits
ARM GAS  /tmp/ccXFtjVt.s 			page 106


 3566              		.align	1
 3567              		.weak	HAL_JPEG_GetDataCallback
 3568              		.syntax unified
 3569              		.thumb
 3570              		.thumb_func
 3571              		.fpu fpv5-d16
 3573              	HAL_JPEG_GetDataCallback:
 3574              	.LFB355:
2377:./Libraries/STM32H7xx_HAL_Driver/Src/stm32h7xx_hal_jpeg.c **** 
2378:./Libraries/STM32H7xx_HAL_Driver/Src/stm32h7xx_hal_jpeg.c **** /**
2379:./Libraries/STM32H7xx_HAL_Driver/Src/stm32h7xx_hal_jpeg.c ****   * @brief  Get New Data chunk callback.
2380:./Libraries/STM32H7xx_HAL_Driver/Src/stm32h7xx_hal_jpeg.c ****   * @param  hjpeg pointer to a JPEG_HandleTypeDef structure that contains
2381:./Libraries/STM32H7xx_HAL_Driver/Src/stm32h7xx_hal_jpeg.c ****   *         the configuration information for JPEG module
2382:./Libraries/STM32H7xx_HAL_Driver/Src/stm32h7xx_hal_jpeg.c ****   * @param  NbDecodedData Number of consummed data in the previous chunk in bytes
2383:./Libraries/STM32H7xx_HAL_Driver/Src/stm32h7xx_hal_jpeg.c ****   * @retval None
2384:./Libraries/STM32H7xx_HAL_Driver/Src/stm32h7xx_hal_jpeg.c ****   */
2385:./Libraries/STM32H7xx_HAL_Driver/Src/stm32h7xx_hal_jpeg.c **** __weak void HAL_JPEG_GetDataCallback(JPEG_HandleTypeDef *hjpeg, uint32_t NbDecodedData)
2386:./Libraries/STM32H7xx_HAL_Driver/Src/stm32h7xx_hal_jpeg.c **** {
 3575              		.loc 1 2386 1
 3576              		.cfi_startproc
 3577              		@ args = 0, pretend = 0, frame = 8
 3578              		@ frame_needed = 1, uses_anonymous_args = 0
 3579              		@ link register save eliminated.
 3580 0000 80B4     		push	{r7}
 3581              	.LCFI132:
 3582              		.cfi_def_cfa_offset 4
 3583              		.cfi_offset 7, -4
 3584 0002 83B0     		sub	sp, sp, #12
 3585              	.LCFI133:
 3586              		.cfi_def_cfa_offset 16
 3587 0004 00AF     		add	r7, sp, #0
 3588              	.LCFI134:
 3589              		.cfi_def_cfa_register 7
 3590 0006 7860     		str	r0, [r7, #4]
 3591 0008 3960     		str	r1, [r7]
2387:./Libraries/STM32H7xx_HAL_Driver/Src/stm32h7xx_hal_jpeg.c ****   /* Prevent unused argument(s) compilation warning */
2388:./Libraries/STM32H7xx_HAL_Driver/Src/stm32h7xx_hal_jpeg.c ****   UNUSED(hjpeg);
2389:./Libraries/STM32H7xx_HAL_Driver/Src/stm32h7xx_hal_jpeg.c ****   UNUSED(NbDecodedData);
2390:./Libraries/STM32H7xx_HAL_Driver/Src/stm32h7xx_hal_jpeg.c **** 
2391:./Libraries/STM32H7xx_HAL_Driver/Src/stm32h7xx_hal_jpeg.c ****   /* NOTE : This function Should not be modified, when the callback is needed,
2392:./Libraries/STM32H7xx_HAL_Driver/Src/stm32h7xx_hal_jpeg.c ****             the HAL_JPEG_GetDataCallback could be implemented in the user file
2393:./Libraries/STM32H7xx_HAL_Driver/Src/stm32h7xx_hal_jpeg.c ****    */
2394:./Libraries/STM32H7xx_HAL_Driver/Src/stm32h7xx_hal_jpeg.c **** }
 3592              		.loc 1 2394 1
 3593 000a 00BF     		nop
 3594 000c 0C37     		adds	r7, r7, #12
 3595              	.LCFI135:
 3596              		.cfi_def_cfa_offset 4
 3597 000e BD46     		mov	sp, r7
 3598              	.LCFI136:
 3599              		.cfi_def_cfa_register 13
 3600              		@ sp needed
 3601 0010 5DF8047B 		ldr	r7, [sp], #4
 3602              	.LCFI137:
 3603              		.cfi_restore 7
 3604              		.cfi_def_cfa_offset 0
 3605 0014 7047     		bx	lr
ARM GAS  /tmp/ccXFtjVt.s 			page 107


 3606              		.cfi_endproc
 3607              	.LFE355:
 3609              		.section	.text.HAL_JPEG_DataReadyCallback,"ax",%progbits
 3610              		.align	1
 3611              		.weak	HAL_JPEG_DataReadyCallback
 3612              		.syntax unified
 3613              		.thumb
 3614              		.thumb_func
 3615              		.fpu fpv5-d16
 3617              	HAL_JPEG_DataReadyCallback:
 3618              	.LFB356:
2395:./Libraries/STM32H7xx_HAL_Driver/Src/stm32h7xx_hal_jpeg.c **** 
2396:./Libraries/STM32H7xx_HAL_Driver/Src/stm32h7xx_hal_jpeg.c **** /**
2397:./Libraries/STM32H7xx_HAL_Driver/Src/stm32h7xx_hal_jpeg.c ****   * @brief  Decoded/Encoded Data ready  callback.
2398:./Libraries/STM32H7xx_HAL_Driver/Src/stm32h7xx_hal_jpeg.c ****   * @param  hjpeg pointer to a JPEG_HandleTypeDef structure that contains
2399:./Libraries/STM32H7xx_HAL_Driver/Src/stm32h7xx_hal_jpeg.c ****   *         the configuration information for JPEG module
2400:./Libraries/STM32H7xx_HAL_Driver/Src/stm32h7xx_hal_jpeg.c ****   * @param  pDataOut pointer to the output data buffer
2401:./Libraries/STM32H7xx_HAL_Driver/Src/stm32h7xx_hal_jpeg.c ****   * @param  OutDataLength number in bytes of data available in the specified output buffer
2402:./Libraries/STM32H7xx_HAL_Driver/Src/stm32h7xx_hal_jpeg.c ****   * @retval None
2403:./Libraries/STM32H7xx_HAL_Driver/Src/stm32h7xx_hal_jpeg.c ****   */
2404:./Libraries/STM32H7xx_HAL_Driver/Src/stm32h7xx_hal_jpeg.c **** __weak void HAL_JPEG_DataReadyCallback(JPEG_HandleTypeDef *hjpeg, uint8_t *pDataOut, uint32_t OutDa
2405:./Libraries/STM32H7xx_HAL_Driver/Src/stm32h7xx_hal_jpeg.c **** {
 3619              		.loc 1 2405 1
 3620              		.cfi_startproc
 3621              		@ args = 0, pretend = 0, frame = 16
 3622              		@ frame_needed = 1, uses_anonymous_args = 0
 3623              		@ link register save eliminated.
 3624 0000 80B4     		push	{r7}
 3625              	.LCFI138:
 3626              		.cfi_def_cfa_offset 4
 3627              		.cfi_offset 7, -4
 3628 0002 85B0     		sub	sp, sp, #20
 3629              	.LCFI139:
 3630              		.cfi_def_cfa_offset 24
 3631 0004 00AF     		add	r7, sp, #0
 3632              	.LCFI140:
 3633              		.cfi_def_cfa_register 7
 3634 0006 F860     		str	r0, [r7, #12]
 3635 0008 B960     		str	r1, [r7, #8]
 3636 000a 7A60     		str	r2, [r7, #4]
2406:./Libraries/STM32H7xx_HAL_Driver/Src/stm32h7xx_hal_jpeg.c ****   /* Prevent unused argument(s) compilation warning */
2407:./Libraries/STM32H7xx_HAL_Driver/Src/stm32h7xx_hal_jpeg.c ****   UNUSED(hjpeg);
2408:./Libraries/STM32H7xx_HAL_Driver/Src/stm32h7xx_hal_jpeg.c ****   UNUSED(pDataOut);
2409:./Libraries/STM32H7xx_HAL_Driver/Src/stm32h7xx_hal_jpeg.c ****   UNUSED(OutDataLength);
2410:./Libraries/STM32H7xx_HAL_Driver/Src/stm32h7xx_hal_jpeg.c **** 
2411:./Libraries/STM32H7xx_HAL_Driver/Src/stm32h7xx_hal_jpeg.c ****   /* NOTE : This function Should not be modified, when the callback is needed,
2412:./Libraries/STM32H7xx_HAL_Driver/Src/stm32h7xx_hal_jpeg.c ****             the HAL_JPEG_DataReadyCallback could be implemented in the user file
2413:./Libraries/STM32H7xx_HAL_Driver/Src/stm32h7xx_hal_jpeg.c ****    */
2414:./Libraries/STM32H7xx_HAL_Driver/Src/stm32h7xx_hal_jpeg.c **** }
 3637              		.loc 1 2414 1
 3638 000c 00BF     		nop
 3639 000e 1437     		adds	r7, r7, #20
 3640              	.LCFI141:
 3641              		.cfi_def_cfa_offset 4
 3642 0010 BD46     		mov	sp, r7
 3643              	.LCFI142:
 3644              		.cfi_def_cfa_register 13
ARM GAS  /tmp/ccXFtjVt.s 			page 108


 3645              		@ sp needed
 3646 0012 5DF8047B 		ldr	r7, [sp], #4
 3647              	.LCFI143:
 3648              		.cfi_restore 7
 3649              		.cfi_def_cfa_offset 0
 3650 0016 7047     		bx	lr
 3651              		.cfi_endproc
 3652              	.LFE356:
 3654              		.section	.text.HAL_JPEG_IRQHandler,"ax",%progbits
 3655              		.align	1
 3656              		.global	HAL_JPEG_IRQHandler
 3657              		.syntax unified
 3658              		.thumb
 3659              		.thumb_func
 3660              		.fpu fpv5-d16
 3662              	HAL_JPEG_IRQHandler:
 3663              	.LFB357:
2415:./Libraries/STM32H7xx_HAL_Driver/Src/stm32h7xx_hal_jpeg.c **** 
2416:./Libraries/STM32H7xx_HAL_Driver/Src/stm32h7xx_hal_jpeg.c **** /**
2417:./Libraries/STM32H7xx_HAL_Driver/Src/stm32h7xx_hal_jpeg.c ****   * @}
2418:./Libraries/STM32H7xx_HAL_Driver/Src/stm32h7xx_hal_jpeg.c ****   */
2419:./Libraries/STM32H7xx_HAL_Driver/Src/stm32h7xx_hal_jpeg.c **** 
2420:./Libraries/STM32H7xx_HAL_Driver/Src/stm32h7xx_hal_jpeg.c **** 
2421:./Libraries/STM32H7xx_HAL_Driver/Src/stm32h7xx_hal_jpeg.c **** /** @defgroup JPEG_Exported_Functions_Group5 JPEG IRQ handler management
2422:./Libraries/STM32H7xx_HAL_Driver/Src/stm32h7xx_hal_jpeg.c ****   *  @brief   JPEG IRQ handler.
2423:./Libraries/STM32H7xx_HAL_Driver/Src/stm32h7xx_hal_jpeg.c ****   *
2424:./Libraries/STM32H7xx_HAL_Driver/Src/stm32h7xx_hal_jpeg.c **** @verbatim
2425:./Libraries/STM32H7xx_HAL_Driver/Src/stm32h7xx_hal_jpeg.c ****   ==============================================================================
2426:./Libraries/STM32H7xx_HAL_Driver/Src/stm32h7xx_hal_jpeg.c ****                 ##### JPEG IRQ handler management #####
2427:./Libraries/STM32H7xx_HAL_Driver/Src/stm32h7xx_hal_jpeg.c ****   ==============================================================================
2428:./Libraries/STM32H7xx_HAL_Driver/Src/stm32h7xx_hal_jpeg.c ****     [..]  This section provides JPEG IRQ handler function.
2429:./Libraries/STM32H7xx_HAL_Driver/Src/stm32h7xx_hal_jpeg.c ****       (+) HAL_JPEG_IRQHandler()  : handles JPEG interrupt request
2430:./Libraries/STM32H7xx_HAL_Driver/Src/stm32h7xx_hal_jpeg.c **** 
2431:./Libraries/STM32H7xx_HAL_Driver/Src/stm32h7xx_hal_jpeg.c **** @endverbatim
2432:./Libraries/STM32H7xx_HAL_Driver/Src/stm32h7xx_hal_jpeg.c ****   * @{
2433:./Libraries/STM32H7xx_HAL_Driver/Src/stm32h7xx_hal_jpeg.c ****   */
2434:./Libraries/STM32H7xx_HAL_Driver/Src/stm32h7xx_hal_jpeg.c **** 
2435:./Libraries/STM32H7xx_HAL_Driver/Src/stm32h7xx_hal_jpeg.c **** /**
2436:./Libraries/STM32H7xx_HAL_Driver/Src/stm32h7xx_hal_jpeg.c ****   * @brief  This function handles JPEG interrupt request.
2437:./Libraries/STM32H7xx_HAL_Driver/Src/stm32h7xx_hal_jpeg.c ****   * @param  hjpeg pointer to a JPEG_HandleTypeDef structure that contains
2438:./Libraries/STM32H7xx_HAL_Driver/Src/stm32h7xx_hal_jpeg.c ****   *         the configuration information for JPEG module
2439:./Libraries/STM32H7xx_HAL_Driver/Src/stm32h7xx_hal_jpeg.c ****   * @retval None
2440:./Libraries/STM32H7xx_HAL_Driver/Src/stm32h7xx_hal_jpeg.c ****   */
2441:./Libraries/STM32H7xx_HAL_Driver/Src/stm32h7xx_hal_jpeg.c **** void HAL_JPEG_IRQHandler(JPEG_HandleTypeDef *hjpeg)
2442:./Libraries/STM32H7xx_HAL_Driver/Src/stm32h7xx_hal_jpeg.c **** {
 3664              		.loc 1 2442 1
 3665              		.cfi_startproc
 3666              		@ args = 0, pretend = 0, frame = 8
 3667              		@ frame_needed = 1, uses_anonymous_args = 0
 3668 0000 80B5     		push	{r7, lr}
 3669              	.LCFI144:
 3670              		.cfi_def_cfa_offset 8
 3671              		.cfi_offset 7, -8
 3672              		.cfi_offset 14, -4
 3673 0002 82B0     		sub	sp, sp, #8
 3674              	.LCFI145:
 3675              		.cfi_def_cfa_offset 16
ARM GAS  /tmp/ccXFtjVt.s 			page 109


 3676 0004 00AF     		add	r7, sp, #0
 3677              	.LCFI146:
 3678              		.cfi_def_cfa_register 7
 3679 0006 7860     		str	r0, [r7, #4]
2443:./Libraries/STM32H7xx_HAL_Driver/Src/stm32h7xx_hal_jpeg.c ****   switch (hjpeg->State)
 3680              		.loc 1 2443 16
 3681 0008 7B68     		ldr	r3, [r7, #4]
 3682 000a 93F84D30 		ldrb	r3, [r3, #77]
 3683 000e DBB2     		uxtb	r3, r3
 3684 0010 033B     		subs	r3, r3, #3
 3685              		.loc 1 2443 3
 3686 0012 012B     		cmp	r3, #1
 3687 0014 13D8     		bhi	.L147
2444:./Libraries/STM32H7xx_HAL_Driver/Src/stm32h7xx_hal_jpeg.c ****   {
2445:./Libraries/STM32H7xx_HAL_Driver/Src/stm32h7xx_hal_jpeg.c ****     case HAL_JPEG_STATE_BUSY_ENCODING:
2446:./Libraries/STM32H7xx_HAL_Driver/Src/stm32h7xx_hal_jpeg.c ****     case HAL_JPEG_STATE_BUSY_DECODING:
2447:./Libraries/STM32H7xx_HAL_Driver/Src/stm32h7xx_hal_jpeg.c ****       /* continue JPEG data encoding/Decoding*/
2448:./Libraries/STM32H7xx_HAL_Driver/Src/stm32h7xx_hal_jpeg.c ****       /* JPEG data processing : In/Out FIFO transfer*/
2449:./Libraries/STM32H7xx_HAL_Driver/Src/stm32h7xx_hal_jpeg.c ****       if ((hjpeg->Context & JPEG_CONTEXT_METHOD_MASK) == JPEG_CONTEXT_IT)
 3688              		.loc 1 2449 17
 3689 0016 7B68     		ldr	r3, [r7, #4]
 3690 0018 5B6D     		ldr	r3, [r3, #84]
 3691              		.loc 1 2449 27
 3692 001a 03F00C03 		and	r3, r3, #12
 3693              		.loc 1 2449 10
 3694 001e 082B     		cmp	r3, #8
 3695 0020 03D1     		bne	.L144
2450:./Libraries/STM32H7xx_HAL_Driver/Src/stm32h7xx_hal_jpeg.c ****       {
2451:./Libraries/STM32H7xx_HAL_Driver/Src/stm32h7xx_hal_jpeg.c ****         (void) JPEG_Process(hjpeg);
 3696              		.loc 1 2451 16
 3697 0022 7868     		ldr	r0, [r7, #4]
 3698 0024 FFF7FEFF 		bl	JPEG_Process
2452:./Libraries/STM32H7xx_HAL_Driver/Src/stm32h7xx_hal_jpeg.c ****       }
2453:./Libraries/STM32H7xx_HAL_Driver/Src/stm32h7xx_hal_jpeg.c ****       else if ((hjpeg->Context & JPEG_CONTEXT_METHOD_MASK) == JPEG_CONTEXT_DMA)
2454:./Libraries/STM32H7xx_HAL_Driver/Src/stm32h7xx_hal_jpeg.c ****       {
2455:./Libraries/STM32H7xx_HAL_Driver/Src/stm32h7xx_hal_jpeg.c ****         JPEG_DMA_ContinueProcess(hjpeg);
2456:./Libraries/STM32H7xx_HAL_Driver/Src/stm32h7xx_hal_jpeg.c ****       }
2457:./Libraries/STM32H7xx_HAL_Driver/Src/stm32h7xx_hal_jpeg.c ****       else
2458:./Libraries/STM32H7xx_HAL_Driver/Src/stm32h7xx_hal_jpeg.c ****       {
2459:./Libraries/STM32H7xx_HAL_Driver/Src/stm32h7xx_hal_jpeg.c ****         /* Nothing to do */
2460:./Libraries/STM32H7xx_HAL_Driver/Src/stm32h7xx_hal_jpeg.c ****       }
2461:./Libraries/STM32H7xx_HAL_Driver/Src/stm32h7xx_hal_jpeg.c ****       break;
 3699              		.loc 1 2461 7
 3700 0028 0BE0     		b	.L148
 3701              	.L144:
2453:./Libraries/STM32H7xx_HAL_Driver/Src/stm32h7xx_hal_jpeg.c ****       {
 3702              		.loc 1 2453 22
 3703 002a 7B68     		ldr	r3, [r7, #4]
 3704 002c 5B6D     		ldr	r3, [r3, #84]
2453:./Libraries/STM32H7xx_HAL_Driver/Src/stm32h7xx_hal_jpeg.c ****       {
 3705              		.loc 1 2453 32
 3706 002e 03F00C03 		and	r3, r3, #12
2453:./Libraries/STM32H7xx_HAL_Driver/Src/stm32h7xx_hal_jpeg.c ****       {
 3707              		.loc 1 2453 15
 3708 0032 0C2B     		cmp	r3, #12
 3709 0034 05D1     		bne	.L148
2455:./Libraries/STM32H7xx_HAL_Driver/Src/stm32h7xx_hal_jpeg.c ****       }
ARM GAS  /tmp/ccXFtjVt.s 			page 110


 3710              		.loc 1 2455 9
 3711 0036 7868     		ldr	r0, [r7, #4]
 3712 0038 FFF7FEFF 		bl	JPEG_DMA_ContinueProcess
 3713              		.loc 1 2461 7
 3714 003c 01E0     		b	.L148
 3715              	.L147:
2462:./Libraries/STM32H7xx_HAL_Driver/Src/stm32h7xx_hal_jpeg.c **** 
2463:./Libraries/STM32H7xx_HAL_Driver/Src/stm32h7xx_hal_jpeg.c ****     default:
2464:./Libraries/STM32H7xx_HAL_Driver/Src/stm32h7xx_hal_jpeg.c ****       break;
 3716              		.loc 1 2464 7
 3717 003e 00BF     		nop
 3718 0040 00E0     		b	.L149
 3719              	.L148:
2461:./Libraries/STM32H7xx_HAL_Driver/Src/stm32h7xx_hal_jpeg.c **** 
 3720              		.loc 1 2461 7
 3721 0042 00BF     		nop
 3722              	.L149:
2465:./Libraries/STM32H7xx_HAL_Driver/Src/stm32h7xx_hal_jpeg.c ****   }
2466:./Libraries/STM32H7xx_HAL_Driver/Src/stm32h7xx_hal_jpeg.c **** }
 3723              		.loc 1 2466 1
 3724 0044 00BF     		nop
 3725 0046 0837     		adds	r7, r7, #8
 3726              	.LCFI147:
 3727              		.cfi_def_cfa_offset 8
 3728 0048 BD46     		mov	sp, r7
 3729              	.LCFI148:
 3730              		.cfi_def_cfa_register 13
 3731              		@ sp needed
 3732 004a 80BD     		pop	{r7, pc}
 3733              		.cfi_endproc
 3734              	.LFE357:
 3736              		.section	.text.HAL_JPEG_GetState,"ax",%progbits
 3737              		.align	1
 3738              		.global	HAL_JPEG_GetState
 3739              		.syntax unified
 3740              		.thumb
 3741              		.thumb_func
 3742              		.fpu fpv5-d16
 3744              	HAL_JPEG_GetState:
 3745              	.LFB358:
2467:./Libraries/STM32H7xx_HAL_Driver/Src/stm32h7xx_hal_jpeg.c **** 
2468:./Libraries/STM32H7xx_HAL_Driver/Src/stm32h7xx_hal_jpeg.c **** /**
2469:./Libraries/STM32H7xx_HAL_Driver/Src/stm32h7xx_hal_jpeg.c ****   * @}
2470:./Libraries/STM32H7xx_HAL_Driver/Src/stm32h7xx_hal_jpeg.c ****   */
2471:./Libraries/STM32H7xx_HAL_Driver/Src/stm32h7xx_hal_jpeg.c **** 
2472:./Libraries/STM32H7xx_HAL_Driver/Src/stm32h7xx_hal_jpeg.c **** /** @defgroup JPEG_Exported_Functions_Group6 Peripheral State functions
2473:./Libraries/STM32H7xx_HAL_Driver/Src/stm32h7xx_hal_jpeg.c ****   *  @brief   Peripheral State functions.
2474:./Libraries/STM32H7xx_HAL_Driver/Src/stm32h7xx_hal_jpeg.c ****   *
2475:./Libraries/STM32H7xx_HAL_Driver/Src/stm32h7xx_hal_jpeg.c **** @verbatim
2476:./Libraries/STM32H7xx_HAL_Driver/Src/stm32h7xx_hal_jpeg.c ****   ==============================================================================
2477:./Libraries/STM32H7xx_HAL_Driver/Src/stm32h7xx_hal_jpeg.c ****                     ##### Peripheral State and Error functions #####
2478:./Libraries/STM32H7xx_HAL_Driver/Src/stm32h7xx_hal_jpeg.c ****   ==============================================================================
2479:./Libraries/STM32H7xx_HAL_Driver/Src/stm32h7xx_hal_jpeg.c ****     [..]  This section provides JPEG State and Errors function.
2480:./Libraries/STM32H7xx_HAL_Driver/Src/stm32h7xx_hal_jpeg.c ****       (+) HAL_JPEG_GetState()  : permits to get in run-time the JPEG state.
2481:./Libraries/STM32H7xx_HAL_Driver/Src/stm32h7xx_hal_jpeg.c ****       (+) HAL_JPEG_GetError()  : Returns the JPEG error code if any.
2482:./Libraries/STM32H7xx_HAL_Driver/Src/stm32h7xx_hal_jpeg.c **** 
2483:./Libraries/STM32H7xx_HAL_Driver/Src/stm32h7xx_hal_jpeg.c **** @endverbatim
ARM GAS  /tmp/ccXFtjVt.s 			page 111


2484:./Libraries/STM32H7xx_HAL_Driver/Src/stm32h7xx_hal_jpeg.c ****   * @{
2485:./Libraries/STM32H7xx_HAL_Driver/Src/stm32h7xx_hal_jpeg.c ****   */
2486:./Libraries/STM32H7xx_HAL_Driver/Src/stm32h7xx_hal_jpeg.c **** 
2487:./Libraries/STM32H7xx_HAL_Driver/Src/stm32h7xx_hal_jpeg.c **** /**
2488:./Libraries/STM32H7xx_HAL_Driver/Src/stm32h7xx_hal_jpeg.c ****   * @brief  Returns the JPEG state.
2489:./Libraries/STM32H7xx_HAL_Driver/Src/stm32h7xx_hal_jpeg.c ****   * @param  hjpeg pointer to a JPEG_HandleTypeDef structure that contains
2490:./Libraries/STM32H7xx_HAL_Driver/Src/stm32h7xx_hal_jpeg.c ****   *         the configuration information for JPEG module
2491:./Libraries/STM32H7xx_HAL_Driver/Src/stm32h7xx_hal_jpeg.c ****   * @retval JPEG state
2492:./Libraries/STM32H7xx_HAL_Driver/Src/stm32h7xx_hal_jpeg.c ****   */
2493:./Libraries/STM32H7xx_HAL_Driver/Src/stm32h7xx_hal_jpeg.c **** HAL_JPEG_STATETypeDef HAL_JPEG_GetState(JPEG_HandleTypeDef *hjpeg)
2494:./Libraries/STM32H7xx_HAL_Driver/Src/stm32h7xx_hal_jpeg.c **** {
 3746              		.loc 1 2494 1
 3747              		.cfi_startproc
 3748              		@ args = 0, pretend = 0, frame = 8
 3749              		@ frame_needed = 1, uses_anonymous_args = 0
 3750              		@ link register save eliminated.
 3751 0000 80B4     		push	{r7}
 3752              	.LCFI149:
 3753              		.cfi_def_cfa_offset 4
 3754              		.cfi_offset 7, -4
 3755 0002 83B0     		sub	sp, sp, #12
 3756              	.LCFI150:
 3757              		.cfi_def_cfa_offset 16
 3758 0004 00AF     		add	r7, sp, #0
 3759              	.LCFI151:
 3760              		.cfi_def_cfa_register 7
 3761 0006 7860     		str	r0, [r7, #4]
2495:./Libraries/STM32H7xx_HAL_Driver/Src/stm32h7xx_hal_jpeg.c ****   return hjpeg->State;
 3762              		.loc 1 2495 15
 3763 0008 7B68     		ldr	r3, [r7, #4]
 3764 000a 93F84D30 		ldrb	r3, [r3, #77]
 3765 000e DBB2     		uxtb	r3, r3
2496:./Libraries/STM32H7xx_HAL_Driver/Src/stm32h7xx_hal_jpeg.c **** }
 3766              		.loc 1 2496 1
 3767 0010 1846     		mov	r0, r3
 3768 0012 0C37     		adds	r7, r7, #12
 3769              	.LCFI152:
 3770              		.cfi_def_cfa_offset 4
 3771 0014 BD46     		mov	sp, r7
 3772              	.LCFI153:
 3773              		.cfi_def_cfa_register 13
 3774              		@ sp needed
 3775 0016 5DF8047B 		ldr	r7, [sp], #4
 3776              	.LCFI154:
 3777              		.cfi_restore 7
 3778              		.cfi_def_cfa_offset 0
 3779 001a 7047     		bx	lr
 3780              		.cfi_endproc
 3781              	.LFE358:
 3783              		.section	.text.HAL_JPEG_GetError,"ax",%progbits
 3784              		.align	1
 3785              		.global	HAL_JPEG_GetError
 3786              		.syntax unified
 3787              		.thumb
 3788              		.thumb_func
 3789              		.fpu fpv5-d16
 3791              	HAL_JPEG_GetError:
ARM GAS  /tmp/ccXFtjVt.s 			page 112


 3792              	.LFB359:
2497:./Libraries/STM32H7xx_HAL_Driver/Src/stm32h7xx_hal_jpeg.c **** 
2498:./Libraries/STM32H7xx_HAL_Driver/Src/stm32h7xx_hal_jpeg.c **** /**
2499:./Libraries/STM32H7xx_HAL_Driver/Src/stm32h7xx_hal_jpeg.c ****   * @brief  Return the JPEG error code
2500:./Libraries/STM32H7xx_HAL_Driver/Src/stm32h7xx_hal_jpeg.c ****   * @param  hjpeg  pointer to a JPEG_HandleTypeDef structure that contains
2501:./Libraries/STM32H7xx_HAL_Driver/Src/stm32h7xx_hal_jpeg.c ****   *              the configuration information for the specified JPEG.
2502:./Libraries/STM32H7xx_HAL_Driver/Src/stm32h7xx_hal_jpeg.c ****   * @retval JPEG Error Code
2503:./Libraries/STM32H7xx_HAL_Driver/Src/stm32h7xx_hal_jpeg.c ****   */
2504:./Libraries/STM32H7xx_HAL_Driver/Src/stm32h7xx_hal_jpeg.c **** uint32_t HAL_JPEG_GetError(JPEG_HandleTypeDef *hjpeg)
2505:./Libraries/STM32H7xx_HAL_Driver/Src/stm32h7xx_hal_jpeg.c **** {
 3793              		.loc 1 2505 1
 3794              		.cfi_startproc
 3795              		@ args = 0, pretend = 0, frame = 8
 3796              		@ frame_needed = 1, uses_anonymous_args = 0
 3797              		@ link register save eliminated.
 3798 0000 80B4     		push	{r7}
 3799              	.LCFI155:
 3800              		.cfi_def_cfa_offset 4
 3801              		.cfi_offset 7, -4
 3802 0002 83B0     		sub	sp, sp, #12
 3803              	.LCFI156:
 3804              		.cfi_def_cfa_offset 16
 3805 0004 00AF     		add	r7, sp, #0
 3806              	.LCFI157:
 3807              		.cfi_def_cfa_register 7
 3808 0006 7860     		str	r0, [r7, #4]
2506:./Libraries/STM32H7xx_HAL_Driver/Src/stm32h7xx_hal_jpeg.c ****   return hjpeg->ErrorCode;
 3809              		.loc 1 2506 15
 3810 0008 7B68     		ldr	r3, [r7, #4]
 3811 000a 1B6D     		ldr	r3, [r3, #80]
2507:./Libraries/STM32H7xx_HAL_Driver/Src/stm32h7xx_hal_jpeg.c **** }
 3812              		.loc 1 2507 1
 3813 000c 1846     		mov	r0, r3
 3814 000e 0C37     		adds	r7, r7, #12
 3815              	.LCFI158:
 3816              		.cfi_def_cfa_offset 4
 3817 0010 BD46     		mov	sp, r7
 3818              	.LCFI159:
 3819              		.cfi_def_cfa_register 13
 3820              		@ sp needed
 3821 0012 5DF8047B 		ldr	r7, [sp], #4
 3822              	.LCFI160:
 3823              		.cfi_restore 7
 3824              		.cfi_def_cfa_offset 0
 3825 0016 7047     		bx	lr
 3826              		.cfi_endproc
 3827              	.LFE359:
 3829              		.section	.text.JPEG_Bits_To_SizeCodes,"ax",%progbits
 3830              		.align	1
 3831              		.syntax unified
 3832              		.thumb
 3833              		.thumb_func
 3834              		.fpu fpv5-d16
 3836              	JPEG_Bits_To_SizeCodes:
 3837              	.LFB360:
2508:./Libraries/STM32H7xx_HAL_Driver/Src/stm32h7xx_hal_jpeg.c **** 
2509:./Libraries/STM32H7xx_HAL_Driver/Src/stm32h7xx_hal_jpeg.c **** /**
ARM GAS  /tmp/ccXFtjVt.s 			page 113


2510:./Libraries/STM32H7xx_HAL_Driver/Src/stm32h7xx_hal_jpeg.c ****   * @}
2511:./Libraries/STM32H7xx_HAL_Driver/Src/stm32h7xx_hal_jpeg.c ****   */
2512:./Libraries/STM32H7xx_HAL_Driver/Src/stm32h7xx_hal_jpeg.c **** 
2513:./Libraries/STM32H7xx_HAL_Driver/Src/stm32h7xx_hal_jpeg.c **** /**
2514:./Libraries/STM32H7xx_HAL_Driver/Src/stm32h7xx_hal_jpeg.c ****   * @}
2515:./Libraries/STM32H7xx_HAL_Driver/Src/stm32h7xx_hal_jpeg.c ****   */
2516:./Libraries/STM32H7xx_HAL_Driver/Src/stm32h7xx_hal_jpeg.c **** 
2517:./Libraries/STM32H7xx_HAL_Driver/Src/stm32h7xx_hal_jpeg.c **** 
2518:./Libraries/STM32H7xx_HAL_Driver/Src/stm32h7xx_hal_jpeg.c **** /** @addtogroup JPEG_Private_Functions
2519:./Libraries/STM32H7xx_HAL_Driver/Src/stm32h7xx_hal_jpeg.c ****   * @{
2520:./Libraries/STM32H7xx_HAL_Driver/Src/stm32h7xx_hal_jpeg.c ****   */
2521:./Libraries/STM32H7xx_HAL_Driver/Src/stm32h7xx_hal_jpeg.c **** 
2522:./Libraries/STM32H7xx_HAL_Driver/Src/stm32h7xx_hal_jpeg.c **** /**
2523:./Libraries/STM32H7xx_HAL_Driver/Src/stm32h7xx_hal_jpeg.c ****   * @brief  Generates Huffman sizes/Codes Table from Bits/vals Table
2524:./Libraries/STM32H7xx_HAL_Driver/Src/stm32h7xx_hal_jpeg.c ****   * @param  Bits pointer to bits table
2525:./Libraries/STM32H7xx_HAL_Driver/Src/stm32h7xx_hal_jpeg.c ****   * @param  Huffsize pointer to sizes table
2526:./Libraries/STM32H7xx_HAL_Driver/Src/stm32h7xx_hal_jpeg.c ****   * @param  Huffcode pointer to codes table
2527:./Libraries/STM32H7xx_HAL_Driver/Src/stm32h7xx_hal_jpeg.c ****   * @param  LastK pointer to last Coeff (table dimension)
2528:./Libraries/STM32H7xx_HAL_Driver/Src/stm32h7xx_hal_jpeg.c ****   * @retval HAL status
2529:./Libraries/STM32H7xx_HAL_Driver/Src/stm32h7xx_hal_jpeg.c ****   */
2530:./Libraries/STM32H7xx_HAL_Driver/Src/stm32h7xx_hal_jpeg.c **** static HAL_StatusTypeDef JPEG_Bits_To_SizeCodes(uint8_t *Bits, uint8_t *Huffsize, uint32_t *Huffcod
2531:./Libraries/STM32H7xx_HAL_Driver/Src/stm32h7xx_hal_jpeg.c **** {
 3838              		.loc 1 2531 1
 3839              		.cfi_startproc
 3840              		@ args = 0, pretend = 0, frame = 40
 3841              		@ frame_needed = 1, uses_anonymous_args = 0
 3842              		@ link register save eliminated.
 3843 0000 80B4     		push	{r7}
 3844              	.LCFI161:
 3845              		.cfi_def_cfa_offset 4
 3846              		.cfi_offset 7, -4
 3847 0002 8BB0     		sub	sp, sp, #44
 3848              	.LCFI162:
 3849              		.cfi_def_cfa_offset 48
 3850 0004 00AF     		add	r7, sp, #0
 3851              	.LCFI163:
 3852              		.cfi_def_cfa_register 7
 3853 0006 F860     		str	r0, [r7, #12]
 3854 0008 B960     		str	r1, [r7, #8]
 3855 000a 7A60     		str	r2, [r7, #4]
 3856 000c 3B60     		str	r3, [r7]
2532:./Libraries/STM32H7xx_HAL_Driver/Src/stm32h7xx_hal_jpeg.c ****   uint32_t i;
2533:./Libraries/STM32H7xx_HAL_Driver/Src/stm32h7xx_hal_jpeg.c ****   uint32_t p;
2534:./Libraries/STM32H7xx_HAL_Driver/Src/stm32h7xx_hal_jpeg.c ****   uint32_t l;
2535:./Libraries/STM32H7xx_HAL_Driver/Src/stm32h7xx_hal_jpeg.c ****   uint32_t code;
2536:./Libraries/STM32H7xx_HAL_Driver/Src/stm32h7xx_hal_jpeg.c ****   uint32_t si;
2537:./Libraries/STM32H7xx_HAL_Driver/Src/stm32h7xx_hal_jpeg.c **** 
2538:./Libraries/STM32H7xx_HAL_Driver/Src/stm32h7xx_hal_jpeg.c ****   /* Figure C.1: Generation of table of Huffman code sizes */
2539:./Libraries/STM32H7xx_HAL_Driver/Src/stm32h7xx_hal_jpeg.c ****   p = 0;
 3857              		.loc 1 2539 5
 3858 000e 0023     		movs	r3, #0
 3859 0010 3B62     		str	r3, [r7, #32]
2540:./Libraries/STM32H7xx_HAL_Driver/Src/stm32h7xx_hal_jpeg.c ****   for (l = 0; l < 16UL; l++)
 3860              		.loc 1 2540 10
 3861 0012 0023     		movs	r3, #0
 3862 0014 FB61     		str	r3, [r7, #28]
 3863              		.loc 1 2540 3
ARM GAS  /tmp/ccXFtjVt.s 			page 114


 3864 0016 20E0     		b	.L155
 3865              	.L160:
2541:./Libraries/STM32H7xx_HAL_Driver/Src/stm32h7xx_hal_jpeg.c ****   {
2542:./Libraries/STM32H7xx_HAL_Driver/Src/stm32h7xx_hal_jpeg.c ****     i = (uint32_t)Bits[l];
 3866              		.loc 1 2542 23
 3867 0018 FA68     		ldr	r2, [r7, #12]
 3868 001a FB69     		ldr	r3, [r7, #28]
 3869 001c 1344     		add	r3, r3, r2
 3870 001e 1B78     		ldrb	r3, [r3]	@ zero_extendqisi2
 3871              		.loc 1 2542 7
 3872 0020 7B62     		str	r3, [r7, #36]
2543:./Libraries/STM32H7xx_HAL_Driver/Src/stm32h7xx_hal_jpeg.c ****     if ((p + i) > 256UL)
 3873              		.loc 1 2543 12
 3874 0022 3A6A     		ldr	r2, [r7, #32]
 3875 0024 7B6A     		ldr	r3, [r7, #36]
 3876 0026 1344     		add	r3, r3, r2
 3877              		.loc 1 2543 8
 3878 0028 B3F5807F 		cmp	r3, #256
 3879 002c 0FD9     		bls	.L158
2544:./Libraries/STM32H7xx_HAL_Driver/Src/stm32h7xx_hal_jpeg.c ****     {
2545:./Libraries/STM32H7xx_HAL_Driver/Src/stm32h7xx_hal_jpeg.c ****       /* check for table overflow */
2546:./Libraries/STM32H7xx_HAL_Driver/Src/stm32h7xx_hal_jpeg.c ****       return HAL_ERROR;
 3880              		.loc 1 2546 14
 3881 002e 0123     		movs	r3, #1
 3882 0030 55E0     		b	.L157
 3883              	.L159:
2547:./Libraries/STM32H7xx_HAL_Driver/Src/stm32h7xx_hal_jpeg.c ****     }
2548:./Libraries/STM32H7xx_HAL_Driver/Src/stm32h7xx_hal_jpeg.c ****     while (i != 0UL)
2549:./Libraries/STM32H7xx_HAL_Driver/Src/stm32h7xx_hal_jpeg.c ****     {
2550:./Libraries/STM32H7xx_HAL_Driver/Src/stm32h7xx_hal_jpeg.c ****       Huffsize[p] = (uint8_t) l + 1U;
 3884              		.loc 1 2550 21
 3885 0032 FB69     		ldr	r3, [r7, #28]
 3886 0034 DAB2     		uxtb	r2, r3
 3887              		.loc 1 2550 15
 3888 0036 B968     		ldr	r1, [r7, #8]
 3889 0038 3B6A     		ldr	r3, [r7, #32]
 3890 003a 0B44     		add	r3, r3, r1
 3891              		.loc 1 2550 33
 3892 003c 0132     		adds	r2, r2, #1
 3893 003e D2B2     		uxtb	r2, r2
 3894              		.loc 1 2550 19
 3895 0040 1A70     		strb	r2, [r3]
2551:./Libraries/STM32H7xx_HAL_Driver/Src/stm32h7xx_hal_jpeg.c ****       p++;
 3896              		.loc 1 2551 8
 3897 0042 3B6A     		ldr	r3, [r7, #32]
 3898 0044 0133     		adds	r3, r3, #1
 3899 0046 3B62     		str	r3, [r7, #32]
2552:./Libraries/STM32H7xx_HAL_Driver/Src/stm32h7xx_hal_jpeg.c ****       i--;
 3900              		.loc 1 2552 8
 3901 0048 7B6A     		ldr	r3, [r7, #36]
 3902 004a 013B     		subs	r3, r3, #1
 3903 004c 7B62     		str	r3, [r7, #36]
 3904              	.L158:
2548:./Libraries/STM32H7xx_HAL_Driver/Src/stm32h7xx_hal_jpeg.c ****     {
 3905              		.loc 1 2548 11
 3906 004e 7B6A     		ldr	r3, [r7, #36]
 3907 0050 002B     		cmp	r3, #0
ARM GAS  /tmp/ccXFtjVt.s 			page 115


 3908 0052 EED1     		bne	.L159
2540:./Libraries/STM32H7xx_HAL_Driver/Src/stm32h7xx_hal_jpeg.c ****   {
 3909              		.loc 1 2540 26 discriminator 2
 3910 0054 FB69     		ldr	r3, [r7, #28]
 3911 0056 0133     		adds	r3, r3, #1
 3912 0058 FB61     		str	r3, [r7, #28]
 3913              	.L155:
2540:./Libraries/STM32H7xx_HAL_Driver/Src/stm32h7xx_hal_jpeg.c ****   {
 3914              		.loc 1 2540 3 discriminator 1
 3915 005a FB69     		ldr	r3, [r7, #28]
 3916 005c 0F2B     		cmp	r3, #15
 3917 005e DBD9     		bls	.L160
2553:./Libraries/STM32H7xx_HAL_Driver/Src/stm32h7xx_hal_jpeg.c ****     }
2554:./Libraries/STM32H7xx_HAL_Driver/Src/stm32h7xx_hal_jpeg.c ****   }
2555:./Libraries/STM32H7xx_HAL_Driver/Src/stm32h7xx_hal_jpeg.c ****   Huffsize[p] = 0;
 3918              		.loc 1 2555 11
 3919 0060 BA68     		ldr	r2, [r7, #8]
 3920 0062 3B6A     		ldr	r3, [r7, #32]
 3921 0064 1344     		add	r3, r3, r2
 3922              		.loc 1 2555 15
 3923 0066 0022     		movs	r2, #0
 3924 0068 1A70     		strb	r2, [r3]
2556:./Libraries/STM32H7xx_HAL_Driver/Src/stm32h7xx_hal_jpeg.c ****   *LastK = p;
 3925              		.loc 1 2556 10
 3926 006a 3B68     		ldr	r3, [r7]
 3927 006c 3A6A     		ldr	r2, [r7, #32]
 3928 006e 1A60     		str	r2, [r3]
2557:./Libraries/STM32H7xx_HAL_Driver/Src/stm32h7xx_hal_jpeg.c **** 
2558:./Libraries/STM32H7xx_HAL_Driver/Src/stm32h7xx_hal_jpeg.c ****   /* Figure C.2: Generation of table of Huffman codes */
2559:./Libraries/STM32H7xx_HAL_Driver/Src/stm32h7xx_hal_jpeg.c ****   code = 0;
 3929              		.loc 1 2559 8
 3930 0070 0023     		movs	r3, #0
 3931 0072 BB61     		str	r3, [r7, #24]
2560:./Libraries/STM32H7xx_HAL_Driver/Src/stm32h7xx_hal_jpeg.c ****   si = Huffsize[0];
 3932              		.loc 1 2560 16
 3933 0074 BB68     		ldr	r3, [r7, #8]
 3934 0076 1B78     		ldrb	r3, [r3]	@ zero_extendqisi2
 3935              		.loc 1 2560 6
 3936 0078 7B61     		str	r3, [r7, #20]
2561:./Libraries/STM32H7xx_HAL_Driver/Src/stm32h7xx_hal_jpeg.c ****   p = 0;
 3937              		.loc 1 2561 5
 3938 007a 0023     		movs	r3, #0
 3939 007c 3B62     		str	r3, [r7, #32]
2562:./Libraries/STM32H7xx_HAL_Driver/Src/stm32h7xx_hal_jpeg.c ****   while (Huffsize[p] != 0U)
 3940              		.loc 1 2562 9
 3941 007e 27E0     		b	.L161
 3942              	.L163:
2563:./Libraries/STM32H7xx_HAL_Driver/Src/stm32h7xx_hal_jpeg.c ****   {
2564:./Libraries/STM32H7xx_HAL_Driver/Src/stm32h7xx_hal_jpeg.c ****     while (((uint32_t) Huffsize[p]) == si)
2565:./Libraries/STM32H7xx_HAL_Driver/Src/stm32h7xx_hal_jpeg.c ****     {
2566:./Libraries/STM32H7xx_HAL_Driver/Src/stm32h7xx_hal_jpeg.c ****       Huffcode[p] = code;
 3943              		.loc 1 2566 15
 3944 0080 3B6A     		ldr	r3, [r7, #32]
 3945 0082 9B00     		lsls	r3, r3, #2
 3946 0084 7A68     		ldr	r2, [r7, #4]
 3947 0086 1344     		add	r3, r3, r2
 3948              		.loc 1 2566 19
ARM GAS  /tmp/ccXFtjVt.s 			page 116


 3949 0088 BA69     		ldr	r2, [r7, #24]
 3950 008a 1A60     		str	r2, [r3]
2567:./Libraries/STM32H7xx_HAL_Driver/Src/stm32h7xx_hal_jpeg.c ****       p++;
 3951              		.loc 1 2567 8
 3952 008c 3B6A     		ldr	r3, [r7, #32]
 3953 008e 0133     		adds	r3, r3, #1
 3954 0090 3B62     		str	r3, [r7, #32]
2568:./Libraries/STM32H7xx_HAL_Driver/Src/stm32h7xx_hal_jpeg.c ****       code++;
 3955              		.loc 1 2568 11
 3956 0092 BB69     		ldr	r3, [r7, #24]
 3957 0094 0133     		adds	r3, r3, #1
 3958 0096 BB61     		str	r3, [r7, #24]
 3959              	.L162:
2564:./Libraries/STM32H7xx_HAL_Driver/Src/stm32h7xx_hal_jpeg.c ****     {
 3960              		.loc 1 2564 32
 3961 0098 BA68     		ldr	r2, [r7, #8]
 3962 009a 3B6A     		ldr	r3, [r7, #32]
 3963 009c 1344     		add	r3, r3, r2
 3964 009e 1B78     		ldrb	r3, [r3]	@ zero_extendqisi2
2564:./Libraries/STM32H7xx_HAL_Driver/Src/stm32h7xx_hal_jpeg.c ****     {
 3965              		.loc 1 2564 13
 3966 00a0 1A46     		mov	r2, r3
2564:./Libraries/STM32H7xx_HAL_Driver/Src/stm32h7xx_hal_jpeg.c ****     {
 3967              		.loc 1 2564 11
 3968 00a2 7B69     		ldr	r3, [r7, #20]
 3969 00a4 9342     		cmp	r3, r2
 3970 00a6 EBD0     		beq	.L163
2569:./Libraries/STM32H7xx_HAL_Driver/Src/stm32h7xx_hal_jpeg.c ****     }
2570:./Libraries/STM32H7xx_HAL_Driver/Src/stm32h7xx_hal_jpeg.c ****     /* code must fit in "size" bits (si), no code is allowed to be all ones*/
2571:./Libraries/STM32H7xx_HAL_Driver/Src/stm32h7xx_hal_jpeg.c ****     if(si > 31UL)
 3971              		.loc 1 2571 7
 3972 00a8 7B69     		ldr	r3, [r7, #20]
 3973 00aa 1F2B     		cmp	r3, #31
 3974 00ac 01D9     		bls	.L164
2572:./Libraries/STM32H7xx_HAL_Driver/Src/stm32h7xx_hal_jpeg.c ****     {
2573:./Libraries/STM32H7xx_HAL_Driver/Src/stm32h7xx_hal_jpeg.c ****       return HAL_ERROR;
 3975              		.loc 1 2573 14
 3976 00ae 0123     		movs	r3, #1
 3977 00b0 15E0     		b	.L157
 3978              	.L164:
2574:./Libraries/STM32H7xx_HAL_Driver/Src/stm32h7xx_hal_jpeg.c ****     }
2575:./Libraries/STM32H7xx_HAL_Driver/Src/stm32h7xx_hal_jpeg.c ****     if (((uint32_t) code) >= (((uint32_t) 1) << si))
 3979              		.loc 1 2575 46
 3980 00b2 0122     		movs	r2, #1
 3981 00b4 7B69     		ldr	r3, [r7, #20]
 3982 00b6 02FA03F3 		lsl	r3, r2, r3
 3983              		.loc 1 2575 8
 3984 00ba BA69     		ldr	r2, [r7, #24]
 3985 00bc 9A42     		cmp	r2, r3
 3986 00be 01D3     		bcc	.L165
2576:./Libraries/STM32H7xx_HAL_Driver/Src/stm32h7xx_hal_jpeg.c ****     {
2577:./Libraries/STM32H7xx_HAL_Driver/Src/stm32h7xx_hal_jpeg.c ****       return HAL_ERROR;
 3987              		.loc 1 2577 14
 3988 00c0 0123     		movs	r3, #1
 3989 00c2 0CE0     		b	.L157
 3990              	.L165:
2578:./Libraries/STM32H7xx_HAL_Driver/Src/stm32h7xx_hal_jpeg.c ****     }
ARM GAS  /tmp/ccXFtjVt.s 			page 117


2579:./Libraries/STM32H7xx_HAL_Driver/Src/stm32h7xx_hal_jpeg.c ****     code <<= 1;
 3991              		.loc 1 2579 10
 3992 00c4 BB69     		ldr	r3, [r7, #24]
 3993 00c6 5B00     		lsls	r3, r3, #1
 3994 00c8 BB61     		str	r3, [r7, #24]
2580:./Libraries/STM32H7xx_HAL_Driver/Src/stm32h7xx_hal_jpeg.c ****     si++;
 3995              		.loc 1 2580 7
 3996 00ca 7B69     		ldr	r3, [r7, #20]
 3997 00cc 0133     		adds	r3, r3, #1
 3998 00ce 7B61     		str	r3, [r7, #20]
 3999              	.L161:
2562:./Libraries/STM32H7xx_HAL_Driver/Src/stm32h7xx_hal_jpeg.c ****   {
 4000              		.loc 1 2562 18
 4001 00d0 BA68     		ldr	r2, [r7, #8]
 4002 00d2 3B6A     		ldr	r3, [r7, #32]
 4003 00d4 1344     		add	r3, r3, r2
 4004 00d6 1B78     		ldrb	r3, [r3]	@ zero_extendqisi2
2562:./Libraries/STM32H7xx_HAL_Driver/Src/stm32h7xx_hal_jpeg.c ****   {
 4005              		.loc 1 2562 9
 4006 00d8 002B     		cmp	r3, #0
 4007 00da DDD1     		bne	.L162
2581:./Libraries/STM32H7xx_HAL_Driver/Src/stm32h7xx_hal_jpeg.c ****   }
2582:./Libraries/STM32H7xx_HAL_Driver/Src/stm32h7xx_hal_jpeg.c ****   /* Return function status */
2583:./Libraries/STM32H7xx_HAL_Driver/Src/stm32h7xx_hal_jpeg.c ****   return HAL_OK;
 4008              		.loc 1 2583 10
 4009 00dc 0023     		movs	r3, #0
 4010              	.L157:
2584:./Libraries/STM32H7xx_HAL_Driver/Src/stm32h7xx_hal_jpeg.c **** }
 4011              		.loc 1 2584 1
 4012 00de 1846     		mov	r0, r3
 4013 00e0 2C37     		adds	r7, r7, #44
 4014              	.LCFI164:
 4015              		.cfi_def_cfa_offset 4
 4016 00e2 BD46     		mov	sp, r7
 4017              	.LCFI165:
 4018              		.cfi_def_cfa_register 13
 4019              		@ sp needed
 4020 00e4 5DF8047B 		ldr	r7, [sp], #4
 4021              	.LCFI166:
 4022              		.cfi_restore 7
 4023              		.cfi_def_cfa_offset 0
 4024 00e8 7047     		bx	lr
 4025              		.cfi_endproc
 4026              	.LFE360:
 4028              		.section	.text.JPEG_ACHuff_BitsVals_To_SizeCodes,"ax",%progbits
 4029              		.align	1
 4030              		.syntax unified
 4031              		.thumb
 4032              		.thumb_func
 4033              		.fpu fpv5-d16
 4035              	JPEG_ACHuff_BitsVals_To_SizeCodes:
 4036              	.LFB361:
2585:./Libraries/STM32H7xx_HAL_Driver/Src/stm32h7xx_hal_jpeg.c **** 
2586:./Libraries/STM32H7xx_HAL_Driver/Src/stm32h7xx_hal_jpeg.c **** /**
2587:./Libraries/STM32H7xx_HAL_Driver/Src/stm32h7xx_hal_jpeg.c ****   * @brief  Transform a Bits/Vals AC Huffman table to sizes/Codes huffman Table
2588:./Libraries/STM32H7xx_HAL_Driver/Src/stm32h7xx_hal_jpeg.c ****   *         that can programmed to the JPEG encoder registers
2589:./Libraries/STM32H7xx_HAL_Driver/Src/stm32h7xx_hal_jpeg.c ****   * @param  AC_BitsValsTable pointer to AC huffman bits/vals table
ARM GAS  /tmp/ccXFtjVt.s 			page 118


2590:./Libraries/STM32H7xx_HAL_Driver/Src/stm32h7xx_hal_jpeg.c ****   * @param  AC_SizeCodesTable pointer to AC huffman Sizes/Codes table
2591:./Libraries/STM32H7xx_HAL_Driver/Src/stm32h7xx_hal_jpeg.c ****   * @retval HAL status
2592:./Libraries/STM32H7xx_HAL_Driver/Src/stm32h7xx_hal_jpeg.c ****   */
2593:./Libraries/STM32H7xx_HAL_Driver/Src/stm32h7xx_hal_jpeg.c **** static HAL_StatusTypeDef JPEG_ACHuff_BitsVals_To_SizeCodes(JPEG_ACHuffTableTypeDef *AC_BitsValsTabl
2594:./Libraries/STM32H7xx_HAL_Driver/Src/stm32h7xx_hal_jpeg.c ****                                                            JPEG_AC_HuffCodeTableTypeDef *AC_SizeCod
2595:./Libraries/STM32H7xx_HAL_Driver/Src/stm32h7xx_hal_jpeg.c **** {
 4037              		.loc 1 2595 1
 4038              		.cfi_startproc
 4039              		@ args = 0, pretend = 0, frame = 1320
 4040              		@ frame_needed = 1, uses_anonymous_args = 0
 4041 0000 80B5     		push	{r7, lr}
 4042              	.LCFI167:
 4043              		.cfi_def_cfa_offset 8
 4044              		.cfi_offset 7, -8
 4045              		.cfi_offset 14, -4
 4046 0002 ADF5A56D 		sub	sp, sp, #1320
 4047              	.LCFI168:
 4048              		.cfi_def_cfa_offset 1328
 4049 0006 00AF     		add	r7, sp, #0
 4050              	.LCFI169:
 4051              		.cfi_def_cfa_register 7
 4052 0008 3B1D     		adds	r3, r7, #4
 4053 000a 1860     		str	r0, [r3]
 4054 000c 3B46     		mov	r3, r7
 4055 000e 1960     		str	r1, [r3]
2596:./Libraries/STM32H7xx_HAL_Driver/Src/stm32h7xx_hal_jpeg.c ****   HAL_StatusTypeDef error;
2597:./Libraries/STM32H7xx_HAL_Driver/Src/stm32h7xx_hal_jpeg.c ****   uint8_t huffsize[257];
2598:./Libraries/STM32H7xx_HAL_Driver/Src/stm32h7xx_hal_jpeg.c ****   uint32_t huffcode[257];
2599:./Libraries/STM32H7xx_HAL_Driver/Src/stm32h7xx_hal_jpeg.c ****   uint32_t k;
2600:./Libraries/STM32H7xx_HAL_Driver/Src/stm32h7xx_hal_jpeg.c ****   uint32_t l, lsb, msb;
2601:./Libraries/STM32H7xx_HAL_Driver/Src/stm32h7xx_hal_jpeg.c ****   uint32_t lastK;
2602:./Libraries/STM32H7xx_HAL_Driver/Src/stm32h7xx_hal_jpeg.c **** 
2603:./Libraries/STM32H7xx_HAL_Driver/Src/stm32h7xx_hal_jpeg.c ****   error = JPEG_Bits_To_SizeCodes(AC_BitsValsTable->Bits, huffsize, huffcode, &lastK);
 4056              		.loc 1 2603 50
 4057 0010 3B1D     		adds	r3, r7, #4
 4058 0012 1868     		ldr	r0, [r3]
 4059              		.loc 1 2603 11
 4060 0014 07F10803 		add	r3, r7, #8
 4061 0018 07F10C02 		add	r2, r7, #12
 4062 001c 07F58261 		add	r1, r7, #1040
 4063 0020 FFF7FEFF 		bl	JPEG_Bits_To_SizeCodes
 4064 0024 0346     		mov	r3, r0
 4065 0026 87F81F35 		strb	r3, [r7, #1311]
2604:./Libraries/STM32H7xx_HAL_Driver/Src/stm32h7xx_hal_jpeg.c ****   if (error != HAL_OK)
 4066              		.loc 1 2604 6
 4067 002a 97F81F35 		ldrb	r3, [r7, #1311]	@ zero_extendqisi2
 4068 002e 002B     		cmp	r3, #0
 4069 0030 02D0     		beq	.L168
2605:./Libraries/STM32H7xx_HAL_Driver/Src/stm32h7xx_hal_jpeg.c ****   {
2606:./Libraries/STM32H7xx_HAL_Driver/Src/stm32h7xx_hal_jpeg.c ****     return  error;
 4070              		.loc 1 2606 13
 4071 0032 97F81F35 		ldrb	r3, [r7, #1311]	@ zero_extendqisi2
 4072 0036 66E0     		b	.L176
 4073              	.L168:
2607:./Libraries/STM32H7xx_HAL_Driver/Src/stm32h7xx_hal_jpeg.c ****   }
2608:./Libraries/STM32H7xx_HAL_Driver/Src/stm32h7xx_hal_jpeg.c **** 
2609:./Libraries/STM32H7xx_HAL_Driver/Src/stm32h7xx_hal_jpeg.c ****   /* Figure C.3: Ordering procedure for encoding procedure code tables */
ARM GAS  /tmp/ccXFtjVt.s 			page 119


2610:./Libraries/STM32H7xx_HAL_Driver/Src/stm32h7xx_hal_jpeg.c ****   k = 0;
 4074              		.loc 1 2610 5
 4075 0038 0023     		movs	r3, #0
 4076 003a C7F82435 		str	r3, [r7, #1316]
2611:./Libraries/STM32H7xx_HAL_Driver/Src/stm32h7xx_hal_jpeg.c **** 
2612:./Libraries/STM32H7xx_HAL_Driver/Src/stm32h7xx_hal_jpeg.c ****   while (k < lastK)
 4077              		.loc 1 2612 9
 4078 003e 5AE0     		b	.L170
 4079              	.L175:
2613:./Libraries/STM32H7xx_HAL_Driver/Src/stm32h7xx_hal_jpeg.c ****   {
2614:./Libraries/STM32H7xx_HAL_Driver/Src/stm32h7xx_hal_jpeg.c ****     l = AC_BitsValsTable->HuffVal[k];
 4080              		.loc 1 2614 34
 4081 0040 3B1D     		adds	r3, r7, #4
 4082 0042 1A68     		ldr	r2, [r3]
 4083 0044 D7F82435 		ldr	r3, [r7, #1316]
 4084 0048 1344     		add	r3, r3, r2
 4085 004a 1033     		adds	r3, r3, #16
 4086 004c 1B78     		ldrb	r3, [r3]	@ zero_extendqisi2
 4087              		.loc 1 2614 7
 4088 004e C7F82035 		str	r3, [r7, #1312]
2615:./Libraries/STM32H7xx_HAL_Driver/Src/stm32h7xx_hal_jpeg.c ****     if (l == 0UL)
 4089              		.loc 1 2615 8
 4090 0052 D7F82035 		ldr	r3, [r7, #1312]
 4091 0056 002B     		cmp	r3, #0
 4092 0058 03D1     		bne	.L171
2616:./Libraries/STM32H7xx_HAL_Driver/Src/stm32h7xx_hal_jpeg.c ****     {
2617:./Libraries/STM32H7xx_HAL_Driver/Src/stm32h7xx_hal_jpeg.c ****       l = 160; /*l = 0x00 EOB code*/
 4093              		.loc 1 2617 9
 4094 005a A023     		movs	r3, #160
 4095 005c C7F82035 		str	r3, [r7, #1312]
 4096 0060 21E0     		b	.L172
 4097              	.L171:
2618:./Libraries/STM32H7xx_HAL_Driver/Src/stm32h7xx_hal_jpeg.c ****     }
2619:./Libraries/STM32H7xx_HAL_Driver/Src/stm32h7xx_hal_jpeg.c ****     else if (l == 0xF0UL) /* l = 0xF0 ZRL code*/
 4098              		.loc 1 2619 13
 4099 0062 D7F82035 		ldr	r3, [r7, #1312]
 4100 0066 F02B     		cmp	r3, #240
 4101 0068 03D1     		bne	.L173
2620:./Libraries/STM32H7xx_HAL_Driver/Src/stm32h7xx_hal_jpeg.c ****     {
2621:./Libraries/STM32H7xx_HAL_Driver/Src/stm32h7xx_hal_jpeg.c ****       l = 161;
 4102              		.loc 1 2621 9
 4103 006a A123     		movs	r3, #161
 4104 006c C7F82035 		str	r3, [r7, #1312]
 4105 0070 19E0     		b	.L172
 4106              	.L173:
2622:./Libraries/STM32H7xx_HAL_Driver/Src/stm32h7xx_hal_jpeg.c ****     }
2623:./Libraries/STM32H7xx_HAL_Driver/Src/stm32h7xx_hal_jpeg.c ****     else
2624:./Libraries/STM32H7xx_HAL_Driver/Src/stm32h7xx_hal_jpeg.c ****     {
2625:./Libraries/STM32H7xx_HAL_Driver/Src/stm32h7xx_hal_jpeg.c ****       msb = (l & 0xF0UL) >> 4;
 4107              		.loc 1 2625 26
 4108 0072 D7F82035 		ldr	r3, [r7, #1312]
 4109 0076 1B09     		lsrs	r3, r3, #4
 4110              		.loc 1 2625 11
 4111 0078 03F00F03 		and	r3, r3, #15
 4112 007c C7F81835 		str	r3, [r7, #1304]
2626:./Libraries/STM32H7xx_HAL_Driver/Src/stm32h7xx_hal_jpeg.c ****       lsb = (l & 0x0FUL);
 4113              		.loc 1 2626 11
ARM GAS  /tmp/ccXFtjVt.s 			page 120


 4114 0080 D7F82035 		ldr	r3, [r7, #1312]
 4115 0084 03F00F03 		and	r3, r3, #15
 4116 0088 C7F81435 		str	r3, [r7, #1300]
2627:./Libraries/STM32H7xx_HAL_Driver/Src/stm32h7xx_hal_jpeg.c ****       l = (msb * 10UL) + lsb - 1UL;
 4117              		.loc 1 2627 16
 4118 008c D7F81825 		ldr	r2, [r7, #1304]
 4119 0090 1346     		mov	r3, r2
 4120 0092 9B00     		lsls	r3, r3, #2
 4121 0094 1344     		add	r3, r3, r2
 4122 0096 5B00     		lsls	r3, r3, #1
 4123 0098 1A46     		mov	r2, r3
 4124              		.loc 1 2627 24
 4125 009a D7F81435 		ldr	r3, [r7, #1300]
 4126 009e 1344     		add	r3, r3, r2
 4127              		.loc 1 2627 9
 4128 00a0 013B     		subs	r3, r3, #1
 4129 00a2 C7F82035 		str	r3, [r7, #1312]
 4130              	.L172:
2628:./Libraries/STM32H7xx_HAL_Driver/Src/stm32h7xx_hal_jpeg.c ****     }
2629:./Libraries/STM32H7xx_HAL_Driver/Src/stm32h7xx_hal_jpeg.c ****     if (l >= JPEG_AC_HUFF_TABLE_SIZE)
 4131              		.loc 1 2629 8
 4132 00a6 D7F82035 		ldr	r3, [r7, #1312]
 4133 00aa A12B     		cmp	r3, #161
 4134 00ac 01D9     		bls	.L174
2630:./Libraries/STM32H7xx_HAL_Driver/Src/stm32h7xx_hal_jpeg.c ****     {
2631:./Libraries/STM32H7xx_HAL_Driver/Src/stm32h7xx_hal_jpeg.c ****       return HAL_ERROR; /* Huffman Table overflow error*/
 4135              		.loc 1 2631 14
 4136 00ae 0123     		movs	r3, #1
 4137 00b0 29E0     		b	.L176
 4138              	.L174:
2632:./Libraries/STM32H7xx_HAL_Driver/Src/stm32h7xx_hal_jpeg.c ****     }
2633:./Libraries/STM32H7xx_HAL_Driver/Src/stm32h7xx_hal_jpeg.c ****     else
2634:./Libraries/STM32H7xx_HAL_Driver/Src/stm32h7xx_hal_jpeg.c ****     {
2635:./Libraries/STM32H7xx_HAL_Driver/Src/stm32h7xx_hal_jpeg.c ****       AC_SizeCodesTable->HuffmanCode[l] = huffcode[k];
 4139              		.loc 1 2635 51
 4140 00b2 07F10C03 		add	r3, r7, #12
 4141 00b6 D7F82425 		ldr	r2, [r7, #1316]
 4142 00ba 53F82220 		ldr	r2, [r3, r2, lsl #2]
 4143              		.loc 1 2635 41
 4144 00be 3B46     		mov	r3, r7
 4145 00c0 1968     		ldr	r1, [r3]
 4146 00c2 D7F82035 		ldr	r3, [r7, #1312]
 4147 00c6 2833     		adds	r3, r3, #40
 4148 00c8 9B00     		lsls	r3, r3, #2
 4149 00ca 0B44     		add	r3, r3, r1
 4150 00cc 5A60     		str	r2, [r3, #4]
2636:./Libraries/STM32H7xx_HAL_Driver/Src/stm32h7xx_hal_jpeg.c ****       AC_SizeCodesTable->CodeLength[l] = huffsize[k] - 1U;
 4151              		.loc 1 2636 50
 4152 00ce 07F58262 		add	r2, r7, #1040
 4153 00d2 D7F82435 		ldr	r3, [r7, #1316]
 4154 00d6 1344     		add	r3, r3, r2
 4155 00d8 1B78     		ldrb	r3, [r3]	@ zero_extendqisi2
 4156              		.loc 1 2636 54
 4157 00da 013B     		subs	r3, r3, #1
 4158 00dc D9B2     		uxtb	r1, r3
 4159              		.loc 1 2636 40
 4160 00de 3B46     		mov	r3, r7
ARM GAS  /tmp/ccXFtjVt.s 			page 121


 4161 00e0 1A68     		ldr	r2, [r3]
 4162 00e2 D7F82035 		ldr	r3, [r7, #1312]
 4163 00e6 1344     		add	r3, r3, r2
 4164 00e8 0A46     		mov	r2, r1
 4165 00ea 1A70     		strb	r2, [r3]
2637:./Libraries/STM32H7xx_HAL_Driver/Src/stm32h7xx_hal_jpeg.c ****       k++;
 4166              		.loc 1 2637 8
 4167 00ec D7F82435 		ldr	r3, [r7, #1316]
 4168 00f0 0133     		adds	r3, r3, #1
 4169 00f2 C7F82435 		str	r3, [r7, #1316]
 4170              	.L170:
2612:./Libraries/STM32H7xx_HAL_Driver/Src/stm32h7xx_hal_jpeg.c ****   {
 4171              		.loc 1 2612 12
 4172 00f6 07F10803 		add	r3, r7, #8
 4173 00fa 1B68     		ldr	r3, [r3]
2612:./Libraries/STM32H7xx_HAL_Driver/Src/stm32h7xx_hal_jpeg.c ****   {
 4174              		.loc 1 2612 9
 4175 00fc D7F82425 		ldr	r2, [r7, #1316]
 4176 0100 9A42     		cmp	r2, r3
 4177 0102 9DD3     		bcc	.L175
2638:./Libraries/STM32H7xx_HAL_Driver/Src/stm32h7xx_hal_jpeg.c ****     }
2639:./Libraries/STM32H7xx_HAL_Driver/Src/stm32h7xx_hal_jpeg.c ****   }
2640:./Libraries/STM32H7xx_HAL_Driver/Src/stm32h7xx_hal_jpeg.c **** 
2641:./Libraries/STM32H7xx_HAL_Driver/Src/stm32h7xx_hal_jpeg.c ****   /* Return function status */
2642:./Libraries/STM32H7xx_HAL_Driver/Src/stm32h7xx_hal_jpeg.c ****   return HAL_OK;
 4178              		.loc 1 2642 10
 4179 0104 0023     		movs	r3, #0
 4180              	.L176:
2643:./Libraries/STM32H7xx_HAL_Driver/Src/stm32h7xx_hal_jpeg.c **** }
 4181              		.loc 1 2643 1 discriminator 1
 4182 0106 1846     		mov	r0, r3
 4183 0108 07F5A567 		add	r7, r7, #1320
 4184              	.LCFI170:
 4185              		.cfi_def_cfa_offset 8
 4186 010c BD46     		mov	sp, r7
 4187              	.LCFI171:
 4188              		.cfi_def_cfa_register 13
 4189              		@ sp needed
 4190 010e 80BD     		pop	{r7, pc}
 4191              		.cfi_endproc
 4192              	.LFE361:
 4194              		.section	.text.JPEG_DCHuff_BitsVals_To_SizeCodes,"ax",%progbits
 4195              		.align	1
 4196              		.syntax unified
 4197              		.thumb
 4198              		.thumb_func
 4199              		.fpu fpv5-d16
 4201              	JPEG_DCHuff_BitsVals_To_SizeCodes:
 4202              	.LFB362:
2644:./Libraries/STM32H7xx_HAL_Driver/Src/stm32h7xx_hal_jpeg.c **** 
2645:./Libraries/STM32H7xx_HAL_Driver/Src/stm32h7xx_hal_jpeg.c **** /**
2646:./Libraries/STM32H7xx_HAL_Driver/Src/stm32h7xx_hal_jpeg.c ****   * @brief  Transform a Bits/Vals DC Huffman table to sizes/Codes huffman Table
2647:./Libraries/STM32H7xx_HAL_Driver/Src/stm32h7xx_hal_jpeg.c ****   *         that can programmed to the JPEG encoder registers
2648:./Libraries/STM32H7xx_HAL_Driver/Src/stm32h7xx_hal_jpeg.c ****   * @param  DC_BitsValsTable pointer to DC huffman bits/vals table
2649:./Libraries/STM32H7xx_HAL_Driver/Src/stm32h7xx_hal_jpeg.c ****   * @param  DC_SizeCodesTable pointer to DC huffman Sizes/Codes table
2650:./Libraries/STM32H7xx_HAL_Driver/Src/stm32h7xx_hal_jpeg.c ****   * @retval HAL status
2651:./Libraries/STM32H7xx_HAL_Driver/Src/stm32h7xx_hal_jpeg.c ****   */
ARM GAS  /tmp/ccXFtjVt.s 			page 122


2652:./Libraries/STM32H7xx_HAL_Driver/Src/stm32h7xx_hal_jpeg.c **** static HAL_StatusTypeDef JPEG_DCHuff_BitsVals_To_SizeCodes(JPEG_DCHuffTableTypeDef *DC_BitsValsTabl
2653:./Libraries/STM32H7xx_HAL_Driver/Src/stm32h7xx_hal_jpeg.c ****                                                            JPEG_DC_HuffCodeTableTypeDef *DC_SizeCod
2654:./Libraries/STM32H7xx_HAL_Driver/Src/stm32h7xx_hal_jpeg.c **** {
 4203              		.loc 1 2654 1
 4204              		.cfi_startproc
 4205              		@ args = 0, pretend = 0, frame = 1312
 4206              		@ frame_needed = 1, uses_anonymous_args = 0
 4207 0000 80B5     		push	{r7, lr}
 4208              	.LCFI172:
 4209              		.cfi_def_cfa_offset 8
 4210              		.cfi_offset 7, -8
 4211              		.cfi_offset 14, -4
 4212 0002 ADF5A46D 		sub	sp, sp, #1312
 4213              	.LCFI173:
 4214              		.cfi_def_cfa_offset 1320
 4215 0006 00AF     		add	r7, sp, #0
 4216              	.LCFI174:
 4217              		.cfi_def_cfa_register 7
 4218 0008 3B1D     		adds	r3, r7, #4
 4219 000a 1860     		str	r0, [r3]
 4220 000c 3B46     		mov	r3, r7
 4221 000e 1960     		str	r1, [r3]
2655:./Libraries/STM32H7xx_HAL_Driver/Src/stm32h7xx_hal_jpeg.c ****   HAL_StatusTypeDef error;
2656:./Libraries/STM32H7xx_HAL_Driver/Src/stm32h7xx_hal_jpeg.c **** 
2657:./Libraries/STM32H7xx_HAL_Driver/Src/stm32h7xx_hal_jpeg.c ****   uint32_t k;
2658:./Libraries/STM32H7xx_HAL_Driver/Src/stm32h7xx_hal_jpeg.c ****   uint32_t l;
2659:./Libraries/STM32H7xx_HAL_Driver/Src/stm32h7xx_hal_jpeg.c ****   uint32_t lastK;
2660:./Libraries/STM32H7xx_HAL_Driver/Src/stm32h7xx_hal_jpeg.c ****   uint8_t huffsize[257];
2661:./Libraries/STM32H7xx_HAL_Driver/Src/stm32h7xx_hal_jpeg.c ****   uint32_t huffcode[257];
2662:./Libraries/STM32H7xx_HAL_Driver/Src/stm32h7xx_hal_jpeg.c ****   error = JPEG_Bits_To_SizeCodes(DC_BitsValsTable->Bits, huffsize, huffcode, &lastK);
 4222              		.loc 1 2662 50
 4223 0010 3B1D     		adds	r3, r7, #4
 4224 0012 1868     		ldr	r0, [r3]
 4225              		.loc 1 2662 11
 4226 0014 07F5A263 		add	r3, r7, #1296
 4227 0018 07F10802 		add	r2, r7, #8
 4228 001c 07F20C41 		addw	r1, r7, #1036
 4229 0020 FFF7FEFF 		bl	JPEG_Bits_To_SizeCodes
 4230 0024 0346     		mov	r3, r0
 4231 0026 87F81B35 		strb	r3, [r7, #1307]
2663:./Libraries/STM32H7xx_HAL_Driver/Src/stm32h7xx_hal_jpeg.c ****   if (error != HAL_OK)
 4232              		.loc 1 2663 6
 4233 002a 97F81B35 		ldrb	r3, [r7, #1307]	@ zero_extendqisi2
 4234 002e 002B     		cmp	r3, #0
 4235 0030 02D0     		beq	.L178
2664:./Libraries/STM32H7xx_HAL_Driver/Src/stm32h7xx_hal_jpeg.c ****   {
2665:./Libraries/STM32H7xx_HAL_Driver/Src/stm32h7xx_hal_jpeg.c ****     return  error;
 4236              		.loc 1 2665 13
 4237 0032 97F81B35 		ldrb	r3, [r7, #1307]	@ zero_extendqisi2
 4238 0036 3BE0     		b	.L183
 4239              	.L178:
2666:./Libraries/STM32H7xx_HAL_Driver/Src/stm32h7xx_hal_jpeg.c ****   }
2667:./Libraries/STM32H7xx_HAL_Driver/Src/stm32h7xx_hal_jpeg.c ****   /* Figure C.3: ordering procedure for encoding procedure code tables */
2668:./Libraries/STM32H7xx_HAL_Driver/Src/stm32h7xx_hal_jpeg.c ****   k = 0;
 4240              		.loc 1 2668 5
 4241 0038 0023     		movs	r3, #0
 4242 003a C7F81C35 		str	r3, [r7, #1308]
ARM GAS  /tmp/ccXFtjVt.s 			page 123


2669:./Libraries/STM32H7xx_HAL_Driver/Src/stm32h7xx_hal_jpeg.c **** 
2670:./Libraries/STM32H7xx_HAL_Driver/Src/stm32h7xx_hal_jpeg.c ****   while (k < lastK)
 4243              		.loc 1 2670 9
 4244 003e 30E0     		b	.L180
 4245              	.L182:
2671:./Libraries/STM32H7xx_HAL_Driver/Src/stm32h7xx_hal_jpeg.c ****   {
2672:./Libraries/STM32H7xx_HAL_Driver/Src/stm32h7xx_hal_jpeg.c ****     l = DC_BitsValsTable->HuffVal[k];
 4246              		.loc 1 2672 34
 4247 0040 3B1D     		adds	r3, r7, #4
 4248 0042 1A68     		ldr	r2, [r3]
 4249 0044 D7F81C35 		ldr	r3, [r7, #1308]
 4250 0048 1344     		add	r3, r3, r2
 4251 004a 1033     		adds	r3, r3, #16
 4252 004c 1B78     		ldrb	r3, [r3]	@ zero_extendqisi2
 4253              		.loc 1 2672 7
 4254 004e C7F81435 		str	r3, [r7, #1300]
2673:./Libraries/STM32H7xx_HAL_Driver/Src/stm32h7xx_hal_jpeg.c ****     if (l >= JPEG_DC_HUFF_TABLE_SIZE)
 4255              		.loc 1 2673 8
 4256 0052 D7F81435 		ldr	r3, [r7, #1300]
 4257 0056 0B2B     		cmp	r3, #11
 4258 0058 01D9     		bls	.L181
2674:./Libraries/STM32H7xx_HAL_Driver/Src/stm32h7xx_hal_jpeg.c ****     {
2675:./Libraries/STM32H7xx_HAL_Driver/Src/stm32h7xx_hal_jpeg.c ****       return HAL_ERROR; /* Huffman Table overflow error*/
 4259              		.loc 1 2675 14
 4260 005a 0123     		movs	r3, #1
 4261 005c 28E0     		b	.L183
 4262              	.L181:
2676:./Libraries/STM32H7xx_HAL_Driver/Src/stm32h7xx_hal_jpeg.c ****     }
2677:./Libraries/STM32H7xx_HAL_Driver/Src/stm32h7xx_hal_jpeg.c ****     else
2678:./Libraries/STM32H7xx_HAL_Driver/Src/stm32h7xx_hal_jpeg.c ****     {
2679:./Libraries/STM32H7xx_HAL_Driver/Src/stm32h7xx_hal_jpeg.c ****       DC_SizeCodesTable->HuffmanCode[l] = huffcode[k];
 4263              		.loc 1 2679 51
 4264 005e 07F10803 		add	r3, r7, #8
 4265 0062 D7F81C25 		ldr	r2, [r7, #1308]
 4266 0066 53F82220 		ldr	r2, [r3, r2, lsl #2]
 4267              		.loc 1 2679 41
 4268 006a 3B46     		mov	r3, r7
 4269 006c 1968     		ldr	r1, [r3]
 4270 006e D7F81435 		ldr	r3, [r7, #1300]
 4271 0072 0233     		adds	r3, r3, #2
 4272 0074 9B00     		lsls	r3, r3, #2
 4273 0076 0B44     		add	r3, r3, r1
 4274 0078 5A60     		str	r2, [r3, #4]
2680:./Libraries/STM32H7xx_HAL_Driver/Src/stm32h7xx_hal_jpeg.c ****       DC_SizeCodesTable->CodeLength[l] = huffsize[k] - 1U;
 4275              		.loc 1 2680 50
 4276 007a 07F20C42 		addw	r2, r7, #1036
 4277 007e D7F81C35 		ldr	r3, [r7, #1308]
 4278 0082 1344     		add	r3, r3, r2
 4279 0084 1B78     		ldrb	r3, [r3]	@ zero_extendqisi2
 4280              		.loc 1 2680 54
 4281 0086 013B     		subs	r3, r3, #1
 4282 0088 D9B2     		uxtb	r1, r3
 4283              		.loc 1 2680 40
 4284 008a 3B46     		mov	r3, r7
 4285 008c 1A68     		ldr	r2, [r3]
 4286 008e D7F81435 		ldr	r3, [r7, #1300]
 4287 0092 1344     		add	r3, r3, r2
ARM GAS  /tmp/ccXFtjVt.s 			page 124


 4288 0094 0A46     		mov	r2, r1
 4289 0096 1A70     		strb	r2, [r3]
2681:./Libraries/STM32H7xx_HAL_Driver/Src/stm32h7xx_hal_jpeg.c ****       k++;
 4290              		.loc 1 2681 8
 4291 0098 D7F81C35 		ldr	r3, [r7, #1308]
 4292 009c 0133     		adds	r3, r3, #1
 4293 009e C7F81C35 		str	r3, [r7, #1308]
 4294              	.L180:
2670:./Libraries/STM32H7xx_HAL_Driver/Src/stm32h7xx_hal_jpeg.c ****   {
 4295              		.loc 1 2670 12
 4296 00a2 D7F81035 		ldr	r3, [r7, #1296]
2670:./Libraries/STM32H7xx_HAL_Driver/Src/stm32h7xx_hal_jpeg.c ****   {
 4297              		.loc 1 2670 9
 4298 00a6 D7F81C25 		ldr	r2, [r7, #1308]
 4299 00aa 9A42     		cmp	r2, r3
 4300 00ac C8D3     		bcc	.L182
2682:./Libraries/STM32H7xx_HAL_Driver/Src/stm32h7xx_hal_jpeg.c ****     }
2683:./Libraries/STM32H7xx_HAL_Driver/Src/stm32h7xx_hal_jpeg.c ****   }
2684:./Libraries/STM32H7xx_HAL_Driver/Src/stm32h7xx_hal_jpeg.c **** 
2685:./Libraries/STM32H7xx_HAL_Driver/Src/stm32h7xx_hal_jpeg.c ****   /* Return function status */
2686:./Libraries/STM32H7xx_HAL_Driver/Src/stm32h7xx_hal_jpeg.c ****   return HAL_OK;
 4301              		.loc 1 2686 10
 4302 00ae 0023     		movs	r3, #0
 4303              	.L183:
2687:./Libraries/STM32H7xx_HAL_Driver/Src/stm32h7xx_hal_jpeg.c **** }
 4304              		.loc 1 2687 1 discriminator 1
 4305 00b0 1846     		mov	r0, r3
 4306 00b2 07F5A467 		add	r7, r7, #1312
 4307              	.LCFI175:
 4308              		.cfi_def_cfa_offset 8
 4309 00b6 BD46     		mov	sp, r7
 4310              	.LCFI176:
 4311              		.cfi_def_cfa_register 13
 4312              		@ sp needed
 4313 00b8 80BD     		pop	{r7, pc}
 4314              		.cfi_endproc
 4315              	.LFE362:
 4317              		.section	.text.JPEG_Set_HuffDC_Mem,"ax",%progbits
 4318              		.align	1
 4319              		.syntax unified
 4320              		.thumb
 4321              		.thumb_func
 4322              		.fpu fpv5-d16
 4324              	JPEG_Set_HuffDC_Mem:
 4325              	.LFB363:
2688:./Libraries/STM32H7xx_HAL_Driver/Src/stm32h7xx_hal_jpeg.c **** 
2689:./Libraries/STM32H7xx_HAL_Driver/Src/stm32h7xx_hal_jpeg.c **** /**
2690:./Libraries/STM32H7xx_HAL_Driver/Src/stm32h7xx_hal_jpeg.c ****   * @brief  Set the JPEG register with an DC huffman table at the given DC table address
2691:./Libraries/STM32H7xx_HAL_Driver/Src/stm32h7xx_hal_jpeg.c ****   * @param  hjpeg pointer to a JPEG_HandleTypeDef structure that contains
2692:./Libraries/STM32H7xx_HAL_Driver/Src/stm32h7xx_hal_jpeg.c ****   *         the configuration information for JPEG module
2693:./Libraries/STM32H7xx_HAL_Driver/Src/stm32h7xx_hal_jpeg.c ****   * @param  HuffTableDC pointer to DC huffman table
2694:./Libraries/STM32H7xx_HAL_Driver/Src/stm32h7xx_hal_jpeg.c ****   * @param  DCTableAddress Encoder DC huffman table address it could be HUFFENC_DC0 or HUFFENC_DC1.
2695:./Libraries/STM32H7xx_HAL_Driver/Src/stm32h7xx_hal_jpeg.c ****   * @retval HAL status
2696:./Libraries/STM32H7xx_HAL_Driver/Src/stm32h7xx_hal_jpeg.c ****   */
2697:./Libraries/STM32H7xx_HAL_Driver/Src/stm32h7xx_hal_jpeg.c **** static HAL_StatusTypeDef JPEG_Set_HuffDC_Mem(JPEG_HandleTypeDef *hjpeg, JPEG_DCHuffTableTypeDef *Hu
2698:./Libraries/STM32H7xx_HAL_Driver/Src/stm32h7xx_hal_jpeg.c ****                                              const __IO uint32_t *DCTableAddress)
2699:./Libraries/STM32H7xx_HAL_Driver/Src/stm32h7xx_hal_jpeg.c **** {
ARM GAS  /tmp/ccXFtjVt.s 			page 125


 4326              		.loc 1 2699 1
 4327              		.cfi_startproc
 4328              		@ args = 0, pretend = 0, frame = 104
 4329              		@ frame_needed = 1, uses_anonymous_args = 0
 4330 0000 80B5     		push	{r7, lr}
 4331              	.LCFI177:
 4332              		.cfi_def_cfa_offset 8
 4333              		.cfi_offset 7, -8
 4334              		.cfi_offset 14, -4
 4335 0002 9AB0     		sub	sp, sp, #104
 4336              	.LCFI178:
 4337              		.cfi_def_cfa_offset 112
 4338 0004 00AF     		add	r7, sp, #0
 4339              	.LCFI179:
 4340              		.cfi_def_cfa_register 7
 4341 0006 F860     		str	r0, [r7, #12]
 4342 0008 B960     		str	r1, [r7, #8]
 4343 000a 7A60     		str	r2, [r7, #4]
2700:./Libraries/STM32H7xx_HAL_Driver/Src/stm32h7xx_hal_jpeg.c ****   HAL_StatusTypeDef error;
2701:./Libraries/STM32H7xx_HAL_Driver/Src/stm32h7xx_hal_jpeg.c ****   JPEG_DC_HuffCodeTableTypeDef dcSizeCodesTable;
2702:./Libraries/STM32H7xx_HAL_Driver/Src/stm32h7xx_hal_jpeg.c ****   uint32_t i;
2703:./Libraries/STM32H7xx_HAL_Driver/Src/stm32h7xx_hal_jpeg.c ****   uint32_t lsb;
2704:./Libraries/STM32H7xx_HAL_Driver/Src/stm32h7xx_hal_jpeg.c ****   uint32_t msb;
2705:./Libraries/STM32H7xx_HAL_Driver/Src/stm32h7xx_hal_jpeg.c ****   __IO uint32_t *address, *addressDef;
2706:./Libraries/STM32H7xx_HAL_Driver/Src/stm32h7xx_hal_jpeg.c **** 
2707:./Libraries/STM32H7xx_HAL_Driver/Src/stm32h7xx_hal_jpeg.c ****   if (DCTableAddress == (hjpeg->Instance->HUFFENC_DC0))
 4344              		.loc 1 2707 31
 4345 000c FB68     		ldr	r3, [r7, #12]
 4346 000e 1B68     		ldr	r3, [r3]
 4347              		.loc 1 2707 22
 4348 0010 03F5F863 		add	r3, r3, #1984
 4349              		.loc 1 2707 6
 4350 0014 7A68     		ldr	r2, [r7, #4]
 4351 0016 9A42     		cmp	r2, r3
 4352 0018 06D1     		bne	.L185
2708:./Libraries/STM32H7xx_HAL_Driver/Src/stm32h7xx_hal_jpeg.c ****   {
2709:./Libraries/STM32H7xx_HAL_Driver/Src/stm32h7xx_hal_jpeg.c ****     address = (hjpeg->Instance->HUFFENC_DC0 + (JPEG_DC_HUFF_TABLE_SIZE / 2UL));
 4353              		.loc 1 2709 21
 4354 001a FB68     		ldr	r3, [r7, #12]
 4355 001c 1B68     		ldr	r3, [r3]
 4356              		.loc 1 2709 16
 4357 001e 03F5F863 		add	r3, r3, #1984
 4358              		.loc 1 2709 13
 4359 0022 1833     		adds	r3, r3, #24
 4360 0024 3B66     		str	r3, [r7, #96]
 4361 0026 0FE0     		b	.L186
 4362              	.L185:
2710:./Libraries/STM32H7xx_HAL_Driver/Src/stm32h7xx_hal_jpeg.c ****   }
2711:./Libraries/STM32H7xx_HAL_Driver/Src/stm32h7xx_hal_jpeg.c ****   else if (DCTableAddress == (hjpeg->Instance->HUFFENC_DC1))
 4363              		.loc 1 2711 36
 4364 0028 FB68     		ldr	r3, [r7, #12]
 4365 002a 1B68     		ldr	r3, [r3]
 4366              		.loc 1 2711 27
 4367 002c 03F5FC63 		add	r3, r3, #2016
 4368              		.loc 1 2711 11
 4369 0030 7A68     		ldr	r2, [r7, #4]
 4370 0032 9A42     		cmp	r2, r3
ARM GAS  /tmp/ccXFtjVt.s 			page 126


 4371 0034 06D1     		bne	.L187
2712:./Libraries/STM32H7xx_HAL_Driver/Src/stm32h7xx_hal_jpeg.c ****   {
2713:./Libraries/STM32H7xx_HAL_Driver/Src/stm32h7xx_hal_jpeg.c ****     address = (hjpeg->Instance->HUFFENC_DC1 + (JPEG_DC_HUFF_TABLE_SIZE / 2UL));
 4372              		.loc 1 2713 21
 4373 0036 FB68     		ldr	r3, [r7, #12]
 4374 0038 1B68     		ldr	r3, [r3]
 4375              		.loc 1 2713 16
 4376 003a 03F5FC63 		add	r3, r3, #2016
 4377              		.loc 1 2713 13
 4378 003e 1833     		adds	r3, r3, #24
 4379 0040 3B66     		str	r3, [r7, #96]
 4380 0042 01E0     		b	.L186
 4381              	.L187:
2714:./Libraries/STM32H7xx_HAL_Driver/Src/stm32h7xx_hal_jpeg.c ****   }
2715:./Libraries/STM32H7xx_HAL_Driver/Src/stm32h7xx_hal_jpeg.c ****   else
2716:./Libraries/STM32H7xx_HAL_Driver/Src/stm32h7xx_hal_jpeg.c ****   {
2717:./Libraries/STM32H7xx_HAL_Driver/Src/stm32h7xx_hal_jpeg.c ****     return HAL_ERROR;
 4382              		.loc 1 2717 12
 4383 0044 0123     		movs	r3, #1
 4384 0046 5BE0     		b	.L193
 4385              	.L186:
2718:./Libraries/STM32H7xx_HAL_Driver/Src/stm32h7xx_hal_jpeg.c ****   }
2719:./Libraries/STM32H7xx_HAL_Driver/Src/stm32h7xx_hal_jpeg.c **** 
2720:./Libraries/STM32H7xx_HAL_Driver/Src/stm32h7xx_hal_jpeg.c ****   if (HuffTableDC != NULL)
 4386              		.loc 1 2720 6
 4387 0048 BB68     		ldr	r3, [r7, #8]
 4388 004a 002B     		cmp	r3, #0
 4389 004c 57D0     		beq	.L189
2721:./Libraries/STM32H7xx_HAL_Driver/Src/stm32h7xx_hal_jpeg.c ****   {
2722:./Libraries/STM32H7xx_HAL_Driver/Src/stm32h7xx_hal_jpeg.c ****     error = JPEG_DCHuff_BitsVals_To_SizeCodes(HuffTableDC, &dcSizeCodesTable);
 4390              		.loc 1 2722 13
 4391 004e 07F11403 		add	r3, r7, #20
 4392 0052 1946     		mov	r1, r3
 4393 0054 B868     		ldr	r0, [r7, #8]
 4394 0056 FFF7FEFF 		bl	JPEG_DCHuff_BitsVals_To_SizeCodes
 4395 005a 0346     		mov	r3, r0
 4396 005c 87F85F30 		strb	r3, [r7, #95]
2723:./Libraries/STM32H7xx_HAL_Driver/Src/stm32h7xx_hal_jpeg.c ****     if (error != HAL_OK)
 4397              		.loc 1 2723 8
 4398 0060 97F85F30 		ldrb	r3, [r7, #95]	@ zero_extendqisi2
 4399 0064 002B     		cmp	r3, #0
 4400 0066 02D0     		beq	.L190
2724:./Libraries/STM32H7xx_HAL_Driver/Src/stm32h7xx_hal_jpeg.c ****     {
2725:./Libraries/STM32H7xx_HAL_Driver/Src/stm32h7xx_hal_jpeg.c ****       return  error;
 4401              		.loc 1 2725 15
 4402 0068 97F85F30 		ldrb	r3, [r7, #95]	@ zero_extendqisi2
 4403 006c 48E0     		b	.L193
 4404              	.L190:
2726:./Libraries/STM32H7xx_HAL_Driver/Src/stm32h7xx_hal_jpeg.c ****     }
2727:./Libraries/STM32H7xx_HAL_Driver/Src/stm32h7xx_hal_jpeg.c ****     addressDef = address;
 4405              		.loc 1 2727 16
 4406 006e 3B6E     		ldr	r3, [r7, #96]
 4407 0070 BB65     		str	r3, [r7, #88]
2728:./Libraries/STM32H7xx_HAL_Driver/Src/stm32h7xx_hal_jpeg.c ****     *addressDef = 0x0FFF0FFF;
 4408              		.loc 1 2728 17
 4409 0072 BB6D     		ldr	r3, [r7, #88]
 4410 0074 6FF0F022 		mvn	r2, #-268374016
ARM GAS  /tmp/ccXFtjVt.s 			page 127


 4411 0078 1A60     		str	r2, [r3]
2729:./Libraries/STM32H7xx_HAL_Driver/Src/stm32h7xx_hal_jpeg.c ****     addressDef++;
 4412              		.loc 1 2729 15
 4413 007a BB6D     		ldr	r3, [r7, #88]
 4414 007c 0433     		adds	r3, r3, #4
 4415 007e BB65     		str	r3, [r7, #88]
2730:./Libraries/STM32H7xx_HAL_Driver/Src/stm32h7xx_hal_jpeg.c ****     *addressDef = 0x0FFF0FFF;
 4416              		.loc 1 2730 17
 4417 0080 BB6D     		ldr	r3, [r7, #88]
 4418 0082 6FF0F022 		mvn	r2, #-268374016
 4419 0086 1A60     		str	r2, [r3]
2731:./Libraries/STM32H7xx_HAL_Driver/Src/stm32h7xx_hal_jpeg.c **** 
2732:./Libraries/STM32H7xx_HAL_Driver/Src/stm32h7xx_hal_jpeg.c ****     i = JPEG_DC_HUFF_TABLE_SIZE;
 4420              		.loc 1 2732 7
 4421 0088 0C23     		movs	r3, #12
 4422 008a 7B66     		str	r3, [r7, #100]
2733:./Libraries/STM32H7xx_HAL_Driver/Src/stm32h7xx_hal_jpeg.c ****     while (i > 1UL)
 4423              		.loc 1 2733 11
 4424 008c 34E0     		b	.L191
 4425              	.L192:
2734:./Libraries/STM32H7xx_HAL_Driver/Src/stm32h7xx_hal_jpeg.c ****     {
2735:./Libraries/STM32H7xx_HAL_Driver/Src/stm32h7xx_hal_jpeg.c ****       i--;
 4426              		.loc 1 2735 8
 4427 008e 7B6E     		ldr	r3, [r7, #100]
 4428 0090 013B     		subs	r3, r3, #1
 4429 0092 7B66     		str	r3, [r7, #100]
2736:./Libraries/STM32H7xx_HAL_Driver/Src/stm32h7xx_hal_jpeg.c ****       address --;
 4430              		.loc 1 2736 15
 4431 0094 3B6E     		ldr	r3, [r7, #96]
 4432 0096 043B     		subs	r3, r3, #4
 4433 0098 3B66     		str	r3, [r7, #96]
2737:./Libraries/STM32H7xx_HAL_Driver/Src/stm32h7xx_hal_jpeg.c ****       msb = ((uint32_t)(((uint32_t)dcSizeCodesTable.CodeLength[i] & 0xFU) << 8)) | ((uint32_t)dcSiz
 4434              		.loc 1 2737 63
 4435 009a 07F11402 		add	r2, r7, #20
 4436 009e 7B6E     		ldr	r3, [r7, #100]
 4437 00a0 1344     		add	r3, r3, r2
 4438 00a2 1B78     		ldrb	r3, [r3]	@ zero_extendqisi2
 4439              		.loc 1 2737 14
 4440 00a4 1B02     		lsls	r3, r3, #8
 4441 00a6 03F47062 		and	r2, r3, #3840
 4442              		.loc 1 2737 123
 4443 00aa 7B6E     		ldr	r3, [r7, #100]
 4444 00ac 0233     		adds	r3, r3, #2
 4445 00ae 9B00     		lsls	r3, r3, #2
 4446 00b0 07F16801 		add	r1, r7, #104
 4447 00b4 0B44     		add	r3, r3, r1
 4448 00b6 53F8503C 		ldr	r3, [r3, #-80]
 4449              		.loc 1 2737 127
 4450 00ba DBB2     		uxtb	r3, r3
 4451              		.loc 1 2737 11
 4452 00bc 1343     		orrs	r3, r3, r2
 4453 00be 7B65     		str	r3, [r7, #84]
2738:./Libraries/STM32H7xx_HAL_Driver/Src/stm32h7xx_hal_jpeg.c ****                                                                                    0xFFUL);
2739:./Libraries/STM32H7xx_HAL_Driver/Src/stm32h7xx_hal_jpeg.c ****       i--;
 4454              		.loc 1 2739 8
 4455 00c0 7B6E     		ldr	r3, [r7, #100]
 4456 00c2 013B     		subs	r3, r3, #1
ARM GAS  /tmp/ccXFtjVt.s 			page 128


 4457 00c4 7B66     		str	r3, [r7, #100]
2740:./Libraries/STM32H7xx_HAL_Driver/Src/stm32h7xx_hal_jpeg.c ****       lsb = ((uint32_t)(((uint32_t)dcSizeCodesTable.CodeLength[i] & 0xFU) << 8)) | ((uint32_t)dcSiz
 4458              		.loc 1 2740 63
 4459 00c6 07F11402 		add	r2, r7, #20
 4460 00ca 7B6E     		ldr	r3, [r7, #100]
 4461 00cc 1344     		add	r3, r3, r2
 4462 00ce 1B78     		ldrb	r3, [r3]	@ zero_extendqisi2
 4463              		.loc 1 2740 14
 4464 00d0 1B02     		lsls	r3, r3, #8
 4465 00d2 03F47062 		and	r2, r3, #3840
 4466              		.loc 1 2740 123
 4467 00d6 7B6E     		ldr	r3, [r7, #100]
 4468 00d8 0233     		adds	r3, r3, #2
 4469 00da 9B00     		lsls	r3, r3, #2
 4470 00dc 07F16801 		add	r1, r7, #104
 4471 00e0 0B44     		add	r3, r3, r1
 4472 00e2 53F8503C 		ldr	r3, [r3, #-80]
 4473              		.loc 1 2740 127
 4474 00e6 DBB2     		uxtb	r3, r3
 4475              		.loc 1 2740 11
 4476 00e8 1343     		orrs	r3, r3, r2
 4477 00ea 3B65     		str	r3, [r7, #80]
2741:./Libraries/STM32H7xx_HAL_Driver/Src/stm32h7xx_hal_jpeg.c ****                                                                                    0xFFUL);
2742:./Libraries/STM32H7xx_HAL_Driver/Src/stm32h7xx_hal_jpeg.c **** 
2743:./Libraries/STM32H7xx_HAL_Driver/Src/stm32h7xx_hal_jpeg.c ****       *address = lsb | (msb << 16);
 4478              		.loc 1 2743 29
 4479 00ec 7B6D     		ldr	r3, [r7, #84]
 4480 00ee 1A04     		lsls	r2, r3, #16
 4481              		.loc 1 2743 22
 4482 00f0 3B6D     		ldr	r3, [r7, #80]
 4483 00f2 1A43     		orrs	r2, r2, r3
 4484              		.loc 1 2743 16
 4485 00f4 3B6E     		ldr	r3, [r7, #96]
 4486 00f6 1A60     		str	r2, [r3]
 4487              	.L191:
2733:./Libraries/STM32H7xx_HAL_Driver/Src/stm32h7xx_hal_jpeg.c ****     {
 4488              		.loc 1 2733 11
 4489 00f8 7B6E     		ldr	r3, [r7, #100]
 4490 00fa 012B     		cmp	r3, #1
 4491 00fc C7D8     		bhi	.L192
 4492              	.L189:
2744:./Libraries/STM32H7xx_HAL_Driver/Src/stm32h7xx_hal_jpeg.c ****     }
2745:./Libraries/STM32H7xx_HAL_Driver/Src/stm32h7xx_hal_jpeg.c ****   }
2746:./Libraries/STM32H7xx_HAL_Driver/Src/stm32h7xx_hal_jpeg.c **** 
2747:./Libraries/STM32H7xx_HAL_Driver/Src/stm32h7xx_hal_jpeg.c ****   /* Return function status */
2748:./Libraries/STM32H7xx_HAL_Driver/Src/stm32h7xx_hal_jpeg.c ****   return HAL_OK;
 4493              		.loc 1 2748 10
 4494 00fe 0023     		movs	r3, #0
 4495              	.L193:
2749:./Libraries/STM32H7xx_HAL_Driver/Src/stm32h7xx_hal_jpeg.c **** }
 4496              		.loc 1 2749 1 discriminator 1
 4497 0100 1846     		mov	r0, r3
 4498 0102 6837     		adds	r7, r7, #104
 4499              	.LCFI180:
 4500              		.cfi_def_cfa_offset 8
 4501 0104 BD46     		mov	sp, r7
 4502              	.LCFI181:
ARM GAS  /tmp/ccXFtjVt.s 			page 129


 4503              		.cfi_def_cfa_register 13
 4504              		@ sp needed
 4505 0106 80BD     		pop	{r7, pc}
 4506              		.cfi_endproc
 4507              	.LFE363:
 4509              		.section	.text.JPEG_Set_HuffAC_Mem,"ax",%progbits
 4510              		.align	1
 4511              		.syntax unified
 4512              		.thumb
 4513              		.thumb_func
 4514              		.fpu fpv5-d16
 4516              	JPEG_Set_HuffAC_Mem:
 4517              	.LFB364:
2750:./Libraries/STM32H7xx_HAL_Driver/Src/stm32h7xx_hal_jpeg.c **** 
2751:./Libraries/STM32H7xx_HAL_Driver/Src/stm32h7xx_hal_jpeg.c **** /**
2752:./Libraries/STM32H7xx_HAL_Driver/Src/stm32h7xx_hal_jpeg.c ****   * @brief  Set the JPEG register with an AC huffman table at the given AC table address
2753:./Libraries/STM32H7xx_HAL_Driver/Src/stm32h7xx_hal_jpeg.c ****   * @param  hjpeg pointer to a JPEG_HandleTypeDef structure that contains
2754:./Libraries/STM32H7xx_HAL_Driver/Src/stm32h7xx_hal_jpeg.c ****   *         the configuration information for JPEG module
2755:./Libraries/STM32H7xx_HAL_Driver/Src/stm32h7xx_hal_jpeg.c ****   * @param  HuffTableAC pointer to AC huffman table
2756:./Libraries/STM32H7xx_HAL_Driver/Src/stm32h7xx_hal_jpeg.c ****   * @param  ACTableAddress Encoder AC huffman table address it could be HUFFENC_AC0 or HUFFENC_AC1.
2757:./Libraries/STM32H7xx_HAL_Driver/Src/stm32h7xx_hal_jpeg.c ****   * @retval HAL status
2758:./Libraries/STM32H7xx_HAL_Driver/Src/stm32h7xx_hal_jpeg.c ****   */
2759:./Libraries/STM32H7xx_HAL_Driver/Src/stm32h7xx_hal_jpeg.c **** static HAL_StatusTypeDef JPEG_Set_HuffAC_Mem(JPEG_HandleTypeDef *hjpeg, JPEG_ACHuffTableTypeDef *Hu
2760:./Libraries/STM32H7xx_HAL_Driver/Src/stm32h7xx_hal_jpeg.c ****                                              const __IO uint32_t *ACTableAddress)
2761:./Libraries/STM32H7xx_HAL_Driver/Src/stm32h7xx_hal_jpeg.c **** {
 4518              		.loc 1 2761 1
 4519              		.cfi_startproc
 4520              		@ args = 0, pretend = 0, frame = 856
 4521              		@ frame_needed = 1, uses_anonymous_args = 0
 4522 0000 80B5     		push	{r7, lr}
 4523              	.LCFI182:
 4524              		.cfi_def_cfa_offset 8
 4525              		.cfi_offset 7, -8
 4526              		.cfi_offset 14, -4
 4527 0002 ADF5567D 		sub	sp, sp, #856
 4528              	.LCFI183:
 4529              		.cfi_def_cfa_offset 864
 4530 0006 00AF     		add	r7, sp, #0
 4531              	.LCFI184:
 4532              		.cfi_def_cfa_register 7
 4533 0008 07F10C03 		add	r3, r7, #12
 4534 000c 1860     		str	r0, [r3]
 4535 000e 07F10803 		add	r3, r7, #8
 4536 0012 1960     		str	r1, [r3]
 4537 0014 3B1D     		adds	r3, r7, #4
 4538 0016 1A60     		str	r2, [r3]
2762:./Libraries/STM32H7xx_HAL_Driver/Src/stm32h7xx_hal_jpeg.c ****   HAL_StatusTypeDef error;
2763:./Libraries/STM32H7xx_HAL_Driver/Src/stm32h7xx_hal_jpeg.c ****   JPEG_AC_HuffCodeTableTypeDef acSizeCodesTable;
2764:./Libraries/STM32H7xx_HAL_Driver/Src/stm32h7xx_hal_jpeg.c ****   uint32_t i, lsb, msb;
2765:./Libraries/STM32H7xx_HAL_Driver/Src/stm32h7xx_hal_jpeg.c ****   __IO uint32_t *address, *addressDef;
2766:./Libraries/STM32H7xx_HAL_Driver/Src/stm32h7xx_hal_jpeg.c **** 
2767:./Libraries/STM32H7xx_HAL_Driver/Src/stm32h7xx_hal_jpeg.c ****   if (ACTableAddress == (hjpeg->Instance->HUFFENC_AC0))
 4539              		.loc 1 2767 31
 4540 0018 07F10C03 		add	r3, r7, #12
 4541 001c 1B68     		ldr	r3, [r3]
 4542 001e 1B68     		ldr	r3, [r3]
 4543              		.loc 1 2767 22
ARM GAS  /tmp/ccXFtjVt.s 			page 130


 4544 0020 03F5A063 		add	r3, r3, #1280
 4545              		.loc 1 2767 6
 4546 0024 3A1D     		adds	r2, r7, #4
 4547 0026 1268     		ldr	r2, [r2]
 4548 0028 9A42     		cmp	r2, r3
 4549 002a 0AD1     		bne	.L195
2768:./Libraries/STM32H7xx_HAL_Driver/Src/stm32h7xx_hal_jpeg.c ****   {
2769:./Libraries/STM32H7xx_HAL_Driver/Src/stm32h7xx_hal_jpeg.c ****     address = (hjpeg->Instance->HUFFENC_AC0 + (JPEG_AC_HUFF_TABLE_SIZE / 2UL));
 4550              		.loc 1 2769 21
 4551 002c 07F10C03 		add	r3, r7, #12
 4552 0030 1B68     		ldr	r3, [r3]
 4553 0032 1B68     		ldr	r3, [r3]
 4554              		.loc 1 2769 16
 4555 0034 03F5A063 		add	r3, r3, #1280
 4556              		.loc 1 2769 13
 4557 0038 03F5A273 		add	r3, r3, #324
 4558 003c C7F85033 		str	r3, [r7, #848]
 4559 0040 16E0     		b	.L196
 4560              	.L195:
2770:./Libraries/STM32H7xx_HAL_Driver/Src/stm32h7xx_hal_jpeg.c ****   }
2771:./Libraries/STM32H7xx_HAL_Driver/Src/stm32h7xx_hal_jpeg.c ****   else if (ACTableAddress == (hjpeg->Instance->HUFFENC_AC1))
 4561              		.loc 1 2771 36
 4562 0042 07F10C03 		add	r3, r7, #12
 4563 0046 1B68     		ldr	r3, [r3]
 4564 0048 1B68     		ldr	r3, [r3]
 4565              		.loc 1 2771 27
 4566 004a 03F5CC63 		add	r3, r3, #1632
 4567              		.loc 1 2771 11
 4568 004e 3A1D     		adds	r2, r7, #4
 4569 0050 1268     		ldr	r2, [r2]
 4570 0052 9A42     		cmp	r2, r3
 4571 0054 0AD1     		bne	.L197
2772:./Libraries/STM32H7xx_HAL_Driver/Src/stm32h7xx_hal_jpeg.c ****   {
2773:./Libraries/STM32H7xx_HAL_Driver/Src/stm32h7xx_hal_jpeg.c ****     address = (hjpeg->Instance->HUFFENC_AC1 + (JPEG_AC_HUFF_TABLE_SIZE / 2UL));
 4572              		.loc 1 2773 21
 4573 0056 07F10C03 		add	r3, r7, #12
 4574 005a 1B68     		ldr	r3, [r3]
 4575 005c 1B68     		ldr	r3, [r3]
 4576              		.loc 1 2773 16
 4577 005e 03F5CC63 		add	r3, r3, #1632
 4578              		.loc 1 2773 13
 4579 0062 03F5A273 		add	r3, r3, #324
 4580 0066 C7F85033 		str	r3, [r7, #848]
 4581 006a 01E0     		b	.L196
 4582              	.L197:
2774:./Libraries/STM32H7xx_HAL_Driver/Src/stm32h7xx_hal_jpeg.c ****   }
2775:./Libraries/STM32H7xx_HAL_Driver/Src/stm32h7xx_hal_jpeg.c ****   else
2776:./Libraries/STM32H7xx_HAL_Driver/Src/stm32h7xx_hal_jpeg.c ****   {
2777:./Libraries/STM32H7xx_HAL_Driver/Src/stm32h7xx_hal_jpeg.c ****     return HAL_ERROR;
 4583              		.loc 1 2777 12
 4584 006c 0123     		movs	r3, #1
 4585 006e 9CE0     		b	.L205
 4586              	.L196:
2778:./Libraries/STM32H7xx_HAL_Driver/Src/stm32h7xx_hal_jpeg.c ****   }
2779:./Libraries/STM32H7xx_HAL_Driver/Src/stm32h7xx_hal_jpeg.c **** 
2780:./Libraries/STM32H7xx_HAL_Driver/Src/stm32h7xx_hal_jpeg.c ****   if (HuffTableAC != NULL)
 4587              		.loc 1 2780 6
ARM GAS  /tmp/ccXFtjVt.s 			page 131


 4588 0070 07F10803 		add	r3, r7, #8
 4589 0074 1B68     		ldr	r3, [r3]
 4590 0076 002B     		cmp	r3, #0
 4591 0078 00F09680 		beq	.L199
2781:./Libraries/STM32H7xx_HAL_Driver/Src/stm32h7xx_hal_jpeg.c ****   {
2782:./Libraries/STM32H7xx_HAL_Driver/Src/stm32h7xx_hal_jpeg.c ****     error = JPEG_ACHuff_BitsVals_To_SizeCodes(HuffTableAC, &acSizeCodesTable);
 4592              		.loc 1 2782 13
 4593 007c 07F11402 		add	r2, r7, #20
 4594 0080 07F10803 		add	r3, r7, #8
 4595 0084 1146     		mov	r1, r2
 4596 0086 1868     		ldr	r0, [r3]
 4597 0088 FFF7FEFF 		bl	JPEG_ACHuff_BitsVals_To_SizeCodes
 4598 008c 0346     		mov	r3, r0
 4599 008e 87F84B33 		strb	r3, [r7, #843]
2783:./Libraries/STM32H7xx_HAL_Driver/Src/stm32h7xx_hal_jpeg.c ****     if (error != HAL_OK)
 4600              		.loc 1 2783 8
 4601 0092 97F84B33 		ldrb	r3, [r7, #843]	@ zero_extendqisi2
 4602 0096 002B     		cmp	r3, #0
 4603 0098 02D0     		beq	.L200
2784:./Libraries/STM32H7xx_HAL_Driver/Src/stm32h7xx_hal_jpeg.c ****     {
2785:./Libraries/STM32H7xx_HAL_Driver/Src/stm32h7xx_hal_jpeg.c ****       return  error;
 4604              		.loc 1 2785 15
 4605 009a 97F84B33 		ldrb	r3, [r7, #843]	@ zero_extendqisi2
 4606 009e 84E0     		b	.L205
 4607              	.L200:
2786:./Libraries/STM32H7xx_HAL_Driver/Src/stm32h7xx_hal_jpeg.c ****     }
2787:./Libraries/STM32H7xx_HAL_Driver/Src/stm32h7xx_hal_jpeg.c ****     /* Default values settings: 162:167 FFFh , 168:175 FD0h_FD7h */
2788:./Libraries/STM32H7xx_HAL_Driver/Src/stm32h7xx_hal_jpeg.c ****     /* Locations 162:175 of each AC table contain information used internally by the core */
2789:./Libraries/STM32H7xx_HAL_Driver/Src/stm32h7xx_hal_jpeg.c **** 
2790:./Libraries/STM32H7xx_HAL_Driver/Src/stm32h7xx_hal_jpeg.c ****     addressDef = address;
 4608              		.loc 1 2790 16
 4609 00a0 D7F85033 		ldr	r3, [r7, #848]
 4610 00a4 C7F84C33 		str	r3, [r7, #844]
2791:./Libraries/STM32H7xx_HAL_Driver/Src/stm32h7xx_hal_jpeg.c ****     for (i = 0; i < 3UL; i++)
 4611              		.loc 1 2791 12
 4612 00a8 0023     		movs	r3, #0
 4613 00aa C7F85433 		str	r3, [r7, #852]
 4614              		.loc 1 2791 5
 4615 00ae 0EE0     		b	.L201
 4616              	.L202:
2792:./Libraries/STM32H7xx_HAL_Driver/Src/stm32h7xx_hal_jpeg.c ****     {
2793:./Libraries/STM32H7xx_HAL_Driver/Src/stm32h7xx_hal_jpeg.c ****       *addressDef = 0x0FFF0FFF;
 4617              		.loc 1 2793 19 discriminator 3
 4618 00b0 D7F84C33 		ldr	r3, [r7, #844]
 4619 00b4 6FF0F022 		mvn	r2, #-268374016
 4620 00b8 1A60     		str	r2, [r3]
2794:./Libraries/STM32H7xx_HAL_Driver/Src/stm32h7xx_hal_jpeg.c ****       addressDef++;
 4621              		.loc 1 2794 17 discriminator 3
 4622 00ba D7F84C33 		ldr	r3, [r7, #844]
 4623 00be 0433     		adds	r3, r3, #4
 4624 00c0 C7F84C33 		str	r3, [r7, #844]
2791:./Libraries/STM32H7xx_HAL_Driver/Src/stm32h7xx_hal_jpeg.c ****     for (i = 0; i < 3UL; i++)
 4625              		.loc 1 2791 27 discriminator 3
 4626 00c4 D7F85433 		ldr	r3, [r7, #852]
 4627 00c8 0133     		adds	r3, r3, #1
 4628 00ca C7F85433 		str	r3, [r7, #852]
 4629              	.L201:
ARM GAS  /tmp/ccXFtjVt.s 			page 132


2791:./Libraries/STM32H7xx_HAL_Driver/Src/stm32h7xx_hal_jpeg.c ****     for (i = 0; i < 3UL; i++)
 4630              		.loc 1 2791 5 discriminator 1
 4631 00ce D7F85433 		ldr	r3, [r7, #852]
 4632 00d2 022B     		cmp	r3, #2
 4633 00d4 ECD9     		bls	.L202
2795:./Libraries/STM32H7xx_HAL_Driver/Src/stm32h7xx_hal_jpeg.c ****     }
2796:./Libraries/STM32H7xx_HAL_Driver/Src/stm32h7xx_hal_jpeg.c ****     *addressDef = 0x0FD10FD0;
 4634              		.loc 1 2796 17
 4635 00d6 D7F84C33 		ldr	r3, [r7, #844]
 4636 00da 364A     		ldr	r2, .L206
 4637 00dc 1A60     		str	r2, [r3]
2797:./Libraries/STM32H7xx_HAL_Driver/Src/stm32h7xx_hal_jpeg.c ****     addressDef++;
 4638              		.loc 1 2797 15
 4639 00de D7F84C33 		ldr	r3, [r7, #844]
 4640 00e2 0433     		adds	r3, r3, #4
 4641 00e4 C7F84C33 		str	r3, [r7, #844]
2798:./Libraries/STM32H7xx_HAL_Driver/Src/stm32h7xx_hal_jpeg.c ****     *addressDef = 0x0FD30FD2;
 4642              		.loc 1 2798 17
 4643 00e8 D7F84C33 		ldr	r3, [r7, #844]
 4644 00ec 324A     		ldr	r2, .L206+4
 4645 00ee 1A60     		str	r2, [r3]
2799:./Libraries/STM32H7xx_HAL_Driver/Src/stm32h7xx_hal_jpeg.c ****     addressDef++;
 4646              		.loc 1 2799 15
 4647 00f0 D7F84C33 		ldr	r3, [r7, #844]
 4648 00f4 0433     		adds	r3, r3, #4
 4649 00f6 C7F84C33 		str	r3, [r7, #844]
2800:./Libraries/STM32H7xx_HAL_Driver/Src/stm32h7xx_hal_jpeg.c ****     *addressDef = 0x0FD50FD4;
 4650              		.loc 1 2800 17
 4651 00fa D7F84C33 		ldr	r3, [r7, #844]
 4652 00fe 2F4A     		ldr	r2, .L206+8
 4653 0100 1A60     		str	r2, [r3]
2801:./Libraries/STM32H7xx_HAL_Driver/Src/stm32h7xx_hal_jpeg.c ****     addressDef++;
 4654              		.loc 1 2801 15
 4655 0102 D7F84C33 		ldr	r3, [r7, #844]
 4656 0106 0433     		adds	r3, r3, #4
 4657 0108 C7F84C33 		str	r3, [r7, #844]
2802:./Libraries/STM32H7xx_HAL_Driver/Src/stm32h7xx_hal_jpeg.c ****     *addressDef = 0x0FD70FD6;
 4658              		.loc 1 2802 17
 4659 010c D7F84C33 		ldr	r3, [r7, #844]
 4660 0110 2B4A     		ldr	r2, .L206+12
 4661 0112 1A60     		str	r2, [r3]
2803:./Libraries/STM32H7xx_HAL_Driver/Src/stm32h7xx_hal_jpeg.c ****     /* end of Locations 162:175  */
2804:./Libraries/STM32H7xx_HAL_Driver/Src/stm32h7xx_hal_jpeg.c **** 
2805:./Libraries/STM32H7xx_HAL_Driver/Src/stm32h7xx_hal_jpeg.c **** 
2806:./Libraries/STM32H7xx_HAL_Driver/Src/stm32h7xx_hal_jpeg.c ****     i = JPEG_AC_HUFF_TABLE_SIZE;
 4662              		.loc 1 2806 7
 4663 0114 A223     		movs	r3, #162
 4664 0116 C7F85433 		str	r3, [r7, #852]
2807:./Libraries/STM32H7xx_HAL_Driver/Src/stm32h7xx_hal_jpeg.c ****     while (i > 1UL)
 4665              		.loc 1 2807 11
 4666 011a 41E0     		b	.L203
 4667              	.L204:
2808:./Libraries/STM32H7xx_HAL_Driver/Src/stm32h7xx_hal_jpeg.c ****     {
2809:./Libraries/STM32H7xx_HAL_Driver/Src/stm32h7xx_hal_jpeg.c ****       i--;
 4668              		.loc 1 2809 8
 4669 011c D7F85433 		ldr	r3, [r7, #852]
 4670 0120 013B     		subs	r3, r3, #1
ARM GAS  /tmp/ccXFtjVt.s 			page 133


 4671 0122 C7F85433 		str	r3, [r7, #852]
2810:./Libraries/STM32H7xx_HAL_Driver/Src/stm32h7xx_hal_jpeg.c ****       address--;
 4672              		.loc 1 2810 14
 4673 0126 D7F85033 		ldr	r3, [r7, #848]
 4674 012a 043B     		subs	r3, r3, #4
 4675 012c C7F85033 		str	r3, [r7, #848]
2811:./Libraries/STM32H7xx_HAL_Driver/Src/stm32h7xx_hal_jpeg.c ****       msb = ((uint32_t)(((uint32_t)acSizeCodesTable.CodeLength[i] & 0xFU) << 8)) | ((uint32_t)acSiz
 4676              		.loc 1 2811 63
 4677 0130 07F11402 		add	r2, r7, #20
 4678 0134 D7F85433 		ldr	r3, [r7, #852]
 4679 0138 1344     		add	r3, r3, r2
 4680 013a 1B78     		ldrb	r3, [r3]	@ zero_extendqisi2
 4681              		.loc 1 2811 14
 4682 013c 1B02     		lsls	r3, r3, #8
 4683 013e 03F47062 		and	r2, r3, #3840
 4684              		.loc 1 2811 123
 4685 0142 07F11401 		add	r1, r7, #20
 4686 0146 D7F85433 		ldr	r3, [r7, #852]
 4687 014a 2833     		adds	r3, r3, #40
 4688 014c 9B00     		lsls	r3, r3, #2
 4689 014e 0B44     		add	r3, r3, r1
 4690 0150 5B68     		ldr	r3, [r3, #4]
 4691              		.loc 1 2811 127
 4692 0152 DBB2     		uxtb	r3, r3
 4693              		.loc 1 2811 11
 4694 0154 1343     		orrs	r3, r3, r2
 4695 0156 C7F84433 		str	r3, [r7, #836]
2812:./Libraries/STM32H7xx_HAL_Driver/Src/stm32h7xx_hal_jpeg.c ****                                                                                    0xFFUL);
2813:./Libraries/STM32H7xx_HAL_Driver/Src/stm32h7xx_hal_jpeg.c ****       i--;
 4696              		.loc 1 2813 8
 4697 015a D7F85433 		ldr	r3, [r7, #852]
 4698 015e 013B     		subs	r3, r3, #1
 4699 0160 C7F85433 		str	r3, [r7, #852]
2814:./Libraries/STM32H7xx_HAL_Driver/Src/stm32h7xx_hal_jpeg.c ****       lsb = ((uint32_t)(((uint32_t)acSizeCodesTable.CodeLength[i] & 0xFU) << 8)) | ((uint32_t)acSiz
 4700              		.loc 1 2814 63
 4701 0164 07F11402 		add	r2, r7, #20
 4702 0168 D7F85433 		ldr	r3, [r7, #852]
 4703 016c 1344     		add	r3, r3, r2
 4704 016e 1B78     		ldrb	r3, [r3]	@ zero_extendqisi2
 4705              		.loc 1 2814 14
 4706 0170 1B02     		lsls	r3, r3, #8
 4707 0172 03F47062 		and	r2, r3, #3840
 4708              		.loc 1 2814 123
 4709 0176 07F11401 		add	r1, r7, #20
 4710 017a D7F85433 		ldr	r3, [r7, #852]
 4711 017e 2833     		adds	r3, r3, #40
 4712 0180 9B00     		lsls	r3, r3, #2
 4713 0182 0B44     		add	r3, r3, r1
 4714 0184 5B68     		ldr	r3, [r3, #4]
 4715              		.loc 1 2814 127
 4716 0186 DBB2     		uxtb	r3, r3
 4717              		.loc 1 2814 11
 4718 0188 1343     		orrs	r3, r3, r2
 4719 018a C7F84033 		str	r3, [r7, #832]
2815:./Libraries/STM32H7xx_HAL_Driver/Src/stm32h7xx_hal_jpeg.c ****                                                                                    0xFFUL);
2816:./Libraries/STM32H7xx_HAL_Driver/Src/stm32h7xx_hal_jpeg.c **** 
2817:./Libraries/STM32H7xx_HAL_Driver/Src/stm32h7xx_hal_jpeg.c ****       *address = lsb | (msb << 16);
ARM GAS  /tmp/ccXFtjVt.s 			page 134


 4720              		.loc 1 2817 29
 4721 018e D7F84433 		ldr	r3, [r7, #836]
 4722 0192 1A04     		lsls	r2, r3, #16
 4723              		.loc 1 2817 22
 4724 0194 D7F84033 		ldr	r3, [r7, #832]
 4725 0198 1A43     		orrs	r2, r2, r3
 4726              		.loc 1 2817 16
 4727 019a D7F85033 		ldr	r3, [r7, #848]
 4728 019e 1A60     		str	r2, [r3]
 4729              	.L203:
2807:./Libraries/STM32H7xx_HAL_Driver/Src/stm32h7xx_hal_jpeg.c ****     {
 4730              		.loc 1 2807 11
 4731 01a0 D7F85433 		ldr	r3, [r7, #852]
 4732 01a4 012B     		cmp	r3, #1
 4733 01a6 B9D8     		bhi	.L204
 4734              	.L199:
2818:./Libraries/STM32H7xx_HAL_Driver/Src/stm32h7xx_hal_jpeg.c ****     }
2819:./Libraries/STM32H7xx_HAL_Driver/Src/stm32h7xx_hal_jpeg.c ****   }
2820:./Libraries/STM32H7xx_HAL_Driver/Src/stm32h7xx_hal_jpeg.c **** 
2821:./Libraries/STM32H7xx_HAL_Driver/Src/stm32h7xx_hal_jpeg.c ****   /* Return function status */
2822:./Libraries/STM32H7xx_HAL_Driver/Src/stm32h7xx_hal_jpeg.c ****   return HAL_OK;
 4735              		.loc 1 2822 10
 4736 01a8 0023     		movs	r3, #0
 4737              	.L205:
2823:./Libraries/STM32H7xx_HAL_Driver/Src/stm32h7xx_hal_jpeg.c **** }
 4738              		.loc 1 2823 1 discriminator 1
 4739 01aa 1846     		mov	r0, r3
 4740 01ac 07F55677 		add	r7, r7, #856
 4741              	.LCFI185:
 4742              		.cfi_def_cfa_offset 8
 4743 01b0 BD46     		mov	sp, r7
 4744              	.LCFI186:
 4745              		.cfi_def_cfa_register 13
 4746              		@ sp needed
 4747 01b2 80BD     		pop	{r7, pc}
 4748              	.L207:
 4749              		.align	2
 4750              	.L206:
 4751 01b4 D00FD10F 		.word	265359312
 4752 01b8 D20FD30F 		.word	265490386
 4753 01bc D40FD50F 		.word	265621460
 4754 01c0 D60FD70F 		.word	265752534
 4755              		.cfi_endproc
 4756              	.LFE364:
 4758              		.section	.text.JPEG_Set_HuffEnc_Mem,"ax",%progbits
 4759              		.align	1
 4760              		.syntax unified
 4761              		.thumb
 4762              		.thumb_func
 4763              		.fpu fpv5-d16
 4765              	JPEG_Set_HuffEnc_Mem:
 4766              	.LFB365:
2824:./Libraries/STM32H7xx_HAL_Driver/Src/stm32h7xx_hal_jpeg.c **** 
2825:./Libraries/STM32H7xx_HAL_Driver/Src/stm32h7xx_hal_jpeg.c **** /**
2826:./Libraries/STM32H7xx_HAL_Driver/Src/stm32h7xx_hal_jpeg.c ****   * @brief  Configure the JPEG encoder register huffman tables to used during
2827:./Libraries/STM32H7xx_HAL_Driver/Src/stm32h7xx_hal_jpeg.c ****   *         the encdoing operation
2828:./Libraries/STM32H7xx_HAL_Driver/Src/stm32h7xx_hal_jpeg.c ****   * @param  hjpeg pointer to a JPEG_HandleTypeDef structure that contains
ARM GAS  /tmp/ccXFtjVt.s 			page 135


2829:./Libraries/STM32H7xx_HAL_Driver/Src/stm32h7xx_hal_jpeg.c ****   *         the configuration information for JPEG module
2830:./Libraries/STM32H7xx_HAL_Driver/Src/stm32h7xx_hal_jpeg.c ****   * @retval None
2831:./Libraries/STM32H7xx_HAL_Driver/Src/stm32h7xx_hal_jpeg.c ****   */
2832:./Libraries/STM32H7xx_HAL_Driver/Src/stm32h7xx_hal_jpeg.c **** static HAL_StatusTypeDef JPEG_Set_HuffEnc_Mem(JPEG_HandleTypeDef *hjpeg)
2833:./Libraries/STM32H7xx_HAL_Driver/Src/stm32h7xx_hal_jpeg.c **** {
 4767              		.loc 1 2833 1
 4768              		.cfi_startproc
 4769              		@ args = 0, pretend = 0, frame = 16
 4770              		@ frame_needed = 1, uses_anonymous_args = 0
 4771 0000 80B5     		push	{r7, lr}
 4772              	.LCFI187:
 4773              		.cfi_def_cfa_offset 8
 4774              		.cfi_offset 7, -8
 4775              		.cfi_offset 14, -4
 4776 0002 84B0     		sub	sp, sp, #16
 4777              	.LCFI188:
 4778              		.cfi_def_cfa_offset 24
 4779 0004 00AF     		add	r7, sp, #0
 4780              	.LCFI189:
 4781              		.cfi_def_cfa_register 7
 4782 0006 7860     		str	r0, [r7, #4]
2834:./Libraries/STM32H7xx_HAL_Driver/Src/stm32h7xx_hal_jpeg.c ****   HAL_StatusTypeDef error;
2835:./Libraries/STM32H7xx_HAL_Driver/Src/stm32h7xx_hal_jpeg.c **** 
2836:./Libraries/STM32H7xx_HAL_Driver/Src/stm32h7xx_hal_jpeg.c ****   JPEG_Set_Huff_DHTMem(hjpeg);
 4783              		.loc 1 2836 3
 4784 0008 7868     		ldr	r0, [r7, #4]
 4785 000a FFF7FEFF 		bl	JPEG_Set_Huff_DHTMem
2837:./Libraries/STM32H7xx_HAL_Driver/Src/stm32h7xx_hal_jpeg.c ****   error = JPEG_Set_HuffAC_Mem(hjpeg, (JPEG_ACHuffTableTypeDef *)(uint32_t)&JPEG_ACLUM_HuffTable,
2838:./Libraries/STM32H7xx_HAL_Driver/Src/stm32h7xx_hal_jpeg.c ****                               (hjpeg->Instance->HUFFENC_AC0));
 4786              		.loc 1 2838 37
 4787 000e 7B68     		ldr	r3, [r7, #4]
 4788 0010 1B68     		ldr	r3, [r3]
 4789              		.loc 1 2838 47
 4790 0012 03F5A063 		add	r3, r3, #1280
2837:./Libraries/STM32H7xx_HAL_Driver/Src/stm32h7xx_hal_jpeg.c ****   error = JPEG_Set_HuffAC_Mem(hjpeg, (JPEG_ACHuffTableTypeDef *)(uint32_t)&JPEG_ACLUM_HuffTable,
 4791              		.loc 1 2837 11
 4792 0016 1A46     		mov	r2, r3
 4793 0018 1F49     		ldr	r1, .L214
 4794 001a 7868     		ldr	r0, [r7, #4]
 4795 001c FFF7FEFF 		bl	JPEG_Set_HuffAC_Mem
 4796 0020 0346     		mov	r3, r0
 4797 0022 FB73     		strb	r3, [r7, #15]
2839:./Libraries/STM32H7xx_HAL_Driver/Src/stm32h7xx_hal_jpeg.c ****   if (error != HAL_OK)
 4798              		.loc 1 2839 6
 4799 0024 FB7B     		ldrb	r3, [r7, #15]	@ zero_extendqisi2
 4800 0026 002B     		cmp	r3, #0
 4801 0028 01D0     		beq	.L209
2840:./Libraries/STM32H7xx_HAL_Driver/Src/stm32h7xx_hal_jpeg.c ****   {
2841:./Libraries/STM32H7xx_HAL_Driver/Src/stm32h7xx_hal_jpeg.c ****     return  error;
 4802              		.loc 1 2841 13
 4803 002a FB7B     		ldrb	r3, [r7, #15]	@ zero_extendqisi2
 4804 002c 30E0     		b	.L210
 4805              	.L209:
2842:./Libraries/STM32H7xx_HAL_Driver/Src/stm32h7xx_hal_jpeg.c ****   }
2843:./Libraries/STM32H7xx_HAL_Driver/Src/stm32h7xx_hal_jpeg.c **** 
2844:./Libraries/STM32H7xx_HAL_Driver/Src/stm32h7xx_hal_jpeg.c ****   error = JPEG_Set_HuffAC_Mem(hjpeg, (JPEG_ACHuffTableTypeDef *)(uint32_t)&JPEG_ACCHROM_HuffTable,
2845:./Libraries/STM32H7xx_HAL_Driver/Src/stm32h7xx_hal_jpeg.c ****                               (hjpeg->Instance->HUFFENC_AC1));
ARM GAS  /tmp/ccXFtjVt.s 			page 136


 4806              		.loc 1 2845 37
 4807 002e 7B68     		ldr	r3, [r7, #4]
 4808 0030 1B68     		ldr	r3, [r3]
 4809              		.loc 1 2845 47
 4810 0032 03F5CC63 		add	r3, r3, #1632
2844:./Libraries/STM32H7xx_HAL_Driver/Src/stm32h7xx_hal_jpeg.c ****                               (hjpeg->Instance->HUFFENC_AC1));
 4811              		.loc 1 2844 11
 4812 0036 1A46     		mov	r2, r3
 4813 0038 1849     		ldr	r1, .L214+4
 4814 003a 7868     		ldr	r0, [r7, #4]
 4815 003c FFF7FEFF 		bl	JPEG_Set_HuffAC_Mem
 4816 0040 0346     		mov	r3, r0
 4817 0042 FB73     		strb	r3, [r7, #15]
2846:./Libraries/STM32H7xx_HAL_Driver/Src/stm32h7xx_hal_jpeg.c ****   if (error != HAL_OK)
 4818              		.loc 1 2846 6
 4819 0044 FB7B     		ldrb	r3, [r7, #15]	@ zero_extendqisi2
 4820 0046 002B     		cmp	r3, #0
 4821 0048 01D0     		beq	.L211
2847:./Libraries/STM32H7xx_HAL_Driver/Src/stm32h7xx_hal_jpeg.c ****   {
2848:./Libraries/STM32H7xx_HAL_Driver/Src/stm32h7xx_hal_jpeg.c ****     return  error;
 4822              		.loc 1 2848 13
 4823 004a FB7B     		ldrb	r3, [r7, #15]	@ zero_extendqisi2
 4824 004c 20E0     		b	.L210
 4825              	.L211:
2849:./Libraries/STM32H7xx_HAL_Driver/Src/stm32h7xx_hal_jpeg.c ****   }
2850:./Libraries/STM32H7xx_HAL_Driver/Src/stm32h7xx_hal_jpeg.c **** 
2851:./Libraries/STM32H7xx_HAL_Driver/Src/stm32h7xx_hal_jpeg.c ****   error = JPEG_Set_HuffDC_Mem(hjpeg, (JPEG_DCHuffTableTypeDef *)(uint32_t)&JPEG_DCLUM_HuffTable,
2852:./Libraries/STM32H7xx_HAL_Driver/Src/stm32h7xx_hal_jpeg.c ****                               hjpeg->Instance->HUFFENC_DC0);
 4826              		.loc 1 2852 36
 4827 004e 7B68     		ldr	r3, [r7, #4]
 4828 0050 1B68     		ldr	r3, [r3]
 4829              		.loc 1 2852 46
 4830 0052 03F5F863 		add	r3, r3, #1984
2851:./Libraries/STM32H7xx_HAL_Driver/Src/stm32h7xx_hal_jpeg.c ****                               hjpeg->Instance->HUFFENC_DC0);
 4831              		.loc 1 2851 11
 4832 0056 1A46     		mov	r2, r3
 4833 0058 1149     		ldr	r1, .L214+8
 4834 005a 7868     		ldr	r0, [r7, #4]
 4835 005c FFF7FEFF 		bl	JPEG_Set_HuffDC_Mem
 4836 0060 0346     		mov	r3, r0
 4837 0062 FB73     		strb	r3, [r7, #15]
2853:./Libraries/STM32H7xx_HAL_Driver/Src/stm32h7xx_hal_jpeg.c ****   if (error != HAL_OK)
 4838              		.loc 1 2853 6
 4839 0064 FB7B     		ldrb	r3, [r7, #15]	@ zero_extendqisi2
 4840 0066 002B     		cmp	r3, #0
 4841 0068 01D0     		beq	.L212
2854:./Libraries/STM32H7xx_HAL_Driver/Src/stm32h7xx_hal_jpeg.c ****   {
2855:./Libraries/STM32H7xx_HAL_Driver/Src/stm32h7xx_hal_jpeg.c ****     return  error;
 4842              		.loc 1 2855 13
 4843 006a FB7B     		ldrb	r3, [r7, #15]	@ zero_extendqisi2
 4844 006c 10E0     		b	.L210
 4845              	.L212:
2856:./Libraries/STM32H7xx_HAL_Driver/Src/stm32h7xx_hal_jpeg.c ****   }
2857:./Libraries/STM32H7xx_HAL_Driver/Src/stm32h7xx_hal_jpeg.c **** 
2858:./Libraries/STM32H7xx_HAL_Driver/Src/stm32h7xx_hal_jpeg.c ****   error = JPEG_Set_HuffDC_Mem(hjpeg, (JPEG_DCHuffTableTypeDef *)(uint32_t)&JPEG_DCCHROM_HuffTable,
2859:./Libraries/STM32H7xx_HAL_Driver/Src/stm32h7xx_hal_jpeg.c ****                               hjpeg->Instance->HUFFENC_DC1);
 4846              		.loc 1 2859 36
ARM GAS  /tmp/ccXFtjVt.s 			page 137


 4847 006e 7B68     		ldr	r3, [r7, #4]
 4848 0070 1B68     		ldr	r3, [r3]
 4849              		.loc 1 2859 46
 4850 0072 03F5FC63 		add	r3, r3, #2016
2858:./Libraries/STM32H7xx_HAL_Driver/Src/stm32h7xx_hal_jpeg.c ****                               hjpeg->Instance->HUFFENC_DC1);
 4851              		.loc 1 2858 11
 4852 0076 1A46     		mov	r2, r3
 4853 0078 0A49     		ldr	r1, .L214+12
 4854 007a 7868     		ldr	r0, [r7, #4]
 4855 007c FFF7FEFF 		bl	JPEG_Set_HuffDC_Mem
 4856 0080 0346     		mov	r3, r0
 4857 0082 FB73     		strb	r3, [r7, #15]
2860:./Libraries/STM32H7xx_HAL_Driver/Src/stm32h7xx_hal_jpeg.c ****   if (error != HAL_OK)
 4858              		.loc 1 2860 6
 4859 0084 FB7B     		ldrb	r3, [r7, #15]	@ zero_extendqisi2
 4860 0086 002B     		cmp	r3, #0
 4861 0088 01D0     		beq	.L213
2861:./Libraries/STM32H7xx_HAL_Driver/Src/stm32h7xx_hal_jpeg.c ****   {
2862:./Libraries/STM32H7xx_HAL_Driver/Src/stm32h7xx_hal_jpeg.c ****     return  error;
 4862              		.loc 1 2862 13
 4863 008a FB7B     		ldrb	r3, [r7, #15]	@ zero_extendqisi2
 4864 008c 00E0     		b	.L210
 4865              	.L213:
2863:./Libraries/STM32H7xx_HAL_Driver/Src/stm32h7xx_hal_jpeg.c ****   }
2864:./Libraries/STM32H7xx_HAL_Driver/Src/stm32h7xx_hal_jpeg.c ****   /* Return function status */
2865:./Libraries/STM32H7xx_HAL_Driver/Src/stm32h7xx_hal_jpeg.c ****   return HAL_OK;
 4866              		.loc 1 2865 10
 4867 008e 0023     		movs	r3, #0
 4868              	.L210:
2866:./Libraries/STM32H7xx_HAL_Driver/Src/stm32h7xx_hal_jpeg.c **** }
 4869              		.loc 1 2866 1
 4870 0090 1846     		mov	r0, r3
 4871 0092 1037     		adds	r7, r7, #16
 4872              	.LCFI190:
 4873              		.cfi_def_cfa_offset 8
 4874 0094 BD46     		mov	sp, r7
 4875              	.LCFI191:
 4876              		.cfi_def_cfa_register 13
 4877              		@ sp needed
 4878 0096 80BD     		pop	{r7, pc}
 4879              	.L215:
 4880              		.align	2
 4881              	.L214:
 4882 0098 00000000 		.word	JPEG_ACLUM_HuffTable
 4883 009c 00000000 		.word	JPEG_ACCHROM_HuffTable
 4884 00a0 00000000 		.word	JPEG_DCLUM_HuffTable
 4885 00a4 00000000 		.word	JPEG_DCCHROM_HuffTable
 4886              		.cfi_endproc
 4887              	.LFE365:
 4889              		.section	.text.JPEG_Set_Huff_DHTMem,"ax",%progbits
 4890              		.align	1
 4891              		.syntax unified
 4892              		.thumb
 4893              		.thumb_func
 4894              		.fpu fpv5-d16
 4896              	JPEG_Set_Huff_DHTMem:
 4897              	.LFB366:
ARM GAS  /tmp/ccXFtjVt.s 			page 138


2867:./Libraries/STM32H7xx_HAL_Driver/Src/stm32h7xx_hal_jpeg.c **** 
2868:./Libraries/STM32H7xx_HAL_Driver/Src/stm32h7xx_hal_jpeg.c **** /**
2869:./Libraries/STM32H7xx_HAL_Driver/Src/stm32h7xx_hal_jpeg.c ****   * @brief  Configure the JPEG register huffman tables to be included in the JPEG
2870:./Libraries/STM32H7xx_HAL_Driver/Src/stm32h7xx_hal_jpeg.c ****   *         file header (used for encoding only)
2871:./Libraries/STM32H7xx_HAL_Driver/Src/stm32h7xx_hal_jpeg.c ****   * @param  hjpeg pointer to a JPEG_HandleTypeDef structure that contains
2872:./Libraries/STM32H7xx_HAL_Driver/Src/stm32h7xx_hal_jpeg.c ****   *         the configuration information for JPEG module
2873:./Libraries/STM32H7xx_HAL_Driver/Src/stm32h7xx_hal_jpeg.c ****   * @retval None
2874:./Libraries/STM32H7xx_HAL_Driver/Src/stm32h7xx_hal_jpeg.c ****   */
2875:./Libraries/STM32H7xx_HAL_Driver/Src/stm32h7xx_hal_jpeg.c **** static void JPEG_Set_Huff_DHTMem(JPEG_HandleTypeDef *hjpeg)
2876:./Libraries/STM32H7xx_HAL_Driver/Src/stm32h7xx_hal_jpeg.c **** {
 4898              		.loc 1 2876 1
 4899              		.cfi_startproc
 4900              		@ args = 0, pretend = 0, frame = 40
 4901              		@ frame_needed = 1, uses_anonymous_args = 0
 4902              		@ link register save eliminated.
 4903 0000 80B4     		push	{r7}
 4904              	.LCFI192:
 4905              		.cfi_def_cfa_offset 4
 4906              		.cfi_offset 7, -4
 4907 0002 8BB0     		sub	sp, sp, #44
 4908              	.LCFI193:
 4909              		.cfi_def_cfa_offset 48
 4910 0004 00AF     		add	r7, sp, #0
 4911              	.LCFI194:
 4912              		.cfi_def_cfa_register 7
 4913 0006 7860     		str	r0, [r7, #4]
2877:./Libraries/STM32H7xx_HAL_Driver/Src/stm32h7xx_hal_jpeg.c ****   JPEG_ACHuffTableTypeDef *HuffTableAC0 = (JPEG_ACHuffTableTypeDef *)(uint32_t)&JPEG_ACLUM_HuffTabl
 4914              		.loc 1 2877 28
 4915 0008 804B     		ldr	r3, .L233
 4916 000a FB61     		str	r3, [r7, #28]
2878:./Libraries/STM32H7xx_HAL_Driver/Src/stm32h7xx_hal_jpeg.c ****   JPEG_ACHuffTableTypeDef *HuffTableAC1 = (JPEG_ACHuffTableTypeDef *)(uint32_t)&JPEG_ACCHROM_HuffTa
 4917              		.loc 1 2878 28
 4918 000c 804B     		ldr	r3, .L233+4
 4919 000e BB61     		str	r3, [r7, #24]
2879:./Libraries/STM32H7xx_HAL_Driver/Src/stm32h7xx_hal_jpeg.c ****   JPEG_DCHuffTableTypeDef *HuffTableDC0 = (JPEG_DCHuffTableTypeDef *)(uint32_t)&JPEG_DCLUM_HuffTabl
 4920              		.loc 1 2879 28
 4921 0010 804B     		ldr	r3, .L233+8
 4922 0012 7B61     		str	r3, [r7, #20]
2880:./Libraries/STM32H7xx_HAL_Driver/Src/stm32h7xx_hal_jpeg.c ****   JPEG_DCHuffTableTypeDef *HuffTableDC1 = (JPEG_DCHuffTableTypeDef *)(uint32_t)&JPEG_DCCHROM_HuffTa
 4923              		.loc 1 2880 28
 4924 0014 804B     		ldr	r3, .L233+12
 4925 0016 3B61     		str	r3, [r7, #16]
2881:./Libraries/STM32H7xx_HAL_Driver/Src/stm32h7xx_hal_jpeg.c ****   uint32_t value, index;
2882:./Libraries/STM32H7xx_HAL_Driver/Src/stm32h7xx_hal_jpeg.c ****   __IO uint32_t *address;
2883:./Libraries/STM32H7xx_HAL_Driver/Src/stm32h7xx_hal_jpeg.c **** 
2884:./Libraries/STM32H7xx_HAL_Driver/Src/stm32h7xx_hal_jpeg.c ****   /* DC0 Huffman Table : BITS*/
2885:./Libraries/STM32H7xx_HAL_Driver/Src/stm32h7xx_hal_jpeg.c ****   /* DC0 BITS is a 16 Bytes table i.e 4x32bits words from DHTMEM base address to DHTMEM + 3*/
2886:./Libraries/STM32H7xx_HAL_Driver/Src/stm32h7xx_hal_jpeg.c ****   address = (hjpeg->Instance->DHTMEM + 3);
 4926              		.loc 1 2886 19
 4927 0018 7B68     		ldr	r3, [r7, #4]
 4928 001a 1B68     		ldr	r3, [r3]
 4929              		.loc 1 2886 14
 4930 001c 03F55873 		add	r3, r3, #864
 4931              		.loc 1 2886 11
 4932 0020 0C33     		adds	r3, r3, #12
 4933 0022 3B62     		str	r3, [r7, #32]
2887:./Libraries/STM32H7xx_HAL_Driver/Src/stm32h7xx_hal_jpeg.c ****   index = 16;
ARM GAS  /tmp/ccXFtjVt.s 			page 139


 4934              		.loc 1 2887 9
 4935 0024 1023     		movs	r3, #16
 4936 0026 7B62     		str	r3, [r7, #36]
2888:./Libraries/STM32H7xx_HAL_Driver/Src/stm32h7xx_hal_jpeg.c ****   while (index > 3UL)
 4937              		.loc 1 2888 9
 4938 0028 1DE0     		b	.L217
 4939              	.L218:
2889:./Libraries/STM32H7xx_HAL_Driver/Src/stm32h7xx_hal_jpeg.c ****   {
2890:./Libraries/STM32H7xx_HAL_Driver/Src/stm32h7xx_hal_jpeg.c **** 
2891:./Libraries/STM32H7xx_HAL_Driver/Src/stm32h7xx_hal_jpeg.c ****     *address = (((uint32_t)HuffTableDC0->Bits[index - 1UL] & 0xFFUL) << 24) |
 4940              		.loc 1 2891 53
 4941 002a 7B6A     		ldr	r3, [r7, #36]
 4942 002c 013B     		subs	r3, r3, #1
 4943              		.loc 1 2891 46
 4944 002e 7A69     		ldr	r2, [r7, #20]
 4945 0030 D35C     		ldrb	r3, [r2, r3]	@ zero_extendqisi2
 4946              		.loc 1 2891 70
 4947 0032 1A06     		lsls	r2, r3, #24
2892:./Libraries/STM32H7xx_HAL_Driver/Src/stm32h7xx_hal_jpeg.c ****                (((uint32_t)HuffTableDC0->Bits[index - 2UL] & 0xFFUL) << 16) |
 4948              		.loc 1 2892 53
 4949 0034 7B6A     		ldr	r3, [r7, #36]
 4950 0036 023B     		subs	r3, r3, #2
 4951              		.loc 1 2892 46
 4952 0038 7969     		ldr	r1, [r7, #20]
 4953 003a CB5C     		ldrb	r3, [r1, r3]	@ zero_extendqisi2
 4954              		.loc 1 2892 70
 4955 003c 1B04     		lsls	r3, r3, #16
2891:./Libraries/STM32H7xx_HAL_Driver/Src/stm32h7xx_hal_jpeg.c ****                (((uint32_t)HuffTableDC0->Bits[index - 2UL] & 0xFFUL) << 16) |
 4956              		.loc 1 2891 77
 4957 003e 1A43     		orrs	r2, r2, r3
2893:./Libraries/STM32H7xx_HAL_Driver/Src/stm32h7xx_hal_jpeg.c ****                (((uint32_t)HuffTableDC0->Bits[index - 3UL] & 0xFFUL) << 8) |
 4958              		.loc 1 2893 53
 4959 0040 7B6A     		ldr	r3, [r7, #36]
 4960 0042 033B     		subs	r3, r3, #3
 4961              		.loc 1 2893 46
 4962 0044 7969     		ldr	r1, [r7, #20]
 4963 0046 CB5C     		ldrb	r3, [r1, r3]	@ zero_extendqisi2
 4964              		.loc 1 2893 70
 4965 0048 1B02     		lsls	r3, r3, #8
2892:./Libraries/STM32H7xx_HAL_Driver/Src/stm32h7xx_hal_jpeg.c ****                (((uint32_t)HuffTableDC0->Bits[index - 2UL] & 0xFFUL) << 16) |
 4966              		.loc 1 2892 77
 4967 004a 1343     		orrs	r3, r3, r2
2894:./Libraries/STM32H7xx_HAL_Driver/Src/stm32h7xx_hal_jpeg.c ****                ((uint32_t)HuffTableDC0->Bits[index - 4UL] & 0xFFUL);
 4968              		.loc 1 2894 52
 4969 004c 7A6A     		ldr	r2, [r7, #36]
 4970 004e 043A     		subs	r2, r2, #4
 4971              		.loc 1 2894 45
 4972 0050 7969     		ldr	r1, [r7, #20]
 4973 0052 8A5C     		ldrb	r2, [r1, r2]	@ zero_extendqisi2
2893:./Libraries/STM32H7xx_HAL_Driver/Src/stm32h7xx_hal_jpeg.c ****                (((uint32_t)HuffTableDC0->Bits[index - 3UL] & 0xFFUL) << 8) |
 4974              		.loc 1 2893 76
 4975 0054 1A43     		orrs	r2, r2, r3
2891:./Libraries/STM32H7xx_HAL_Driver/Src/stm32h7xx_hal_jpeg.c ****                (((uint32_t)HuffTableDC0->Bits[index - 2UL] & 0xFFUL) << 16) |
 4976              		.loc 1 2891 14
 4977 0056 3B6A     		ldr	r3, [r7, #32]
 4978 0058 1A60     		str	r2, [r3]
2895:./Libraries/STM32H7xx_HAL_Driver/Src/stm32h7xx_hal_jpeg.c ****     address--;
ARM GAS  /tmp/ccXFtjVt.s 			page 140


 4979              		.loc 1 2895 12
 4980 005a 3B6A     		ldr	r3, [r7, #32]
 4981 005c 043B     		subs	r3, r3, #4
 4982 005e 3B62     		str	r3, [r7, #32]
2896:./Libraries/STM32H7xx_HAL_Driver/Src/stm32h7xx_hal_jpeg.c ****     index -= 4UL;
 4983              		.loc 1 2896 11
 4984 0060 7B6A     		ldr	r3, [r7, #36]
 4985 0062 043B     		subs	r3, r3, #4
 4986 0064 7B62     		str	r3, [r7, #36]
 4987              	.L217:
2888:./Libraries/STM32H7xx_HAL_Driver/Src/stm32h7xx_hal_jpeg.c ****   {
 4988              		.loc 1 2888 9
 4989 0066 7B6A     		ldr	r3, [r7, #36]
 4990 0068 032B     		cmp	r3, #3
 4991 006a DED8     		bhi	.L218
2897:./Libraries/STM32H7xx_HAL_Driver/Src/stm32h7xx_hal_jpeg.c **** 
2898:./Libraries/STM32H7xx_HAL_Driver/Src/stm32h7xx_hal_jpeg.c ****   }
2899:./Libraries/STM32H7xx_HAL_Driver/Src/stm32h7xx_hal_jpeg.c ****   /* DC0 Huffman Table : Val*/
2900:./Libraries/STM32H7xx_HAL_Driver/Src/stm32h7xx_hal_jpeg.c ****   /* DC0 VALS is a 12 Bytes table i.e 3x32bits words from DHTMEM base address +4 to DHTMEM + 6 */
2901:./Libraries/STM32H7xx_HAL_Driver/Src/stm32h7xx_hal_jpeg.c ****   address = (hjpeg->Instance->DHTMEM + 6);
 4992              		.loc 1 2901 19
 4993 006c 7B68     		ldr	r3, [r7, #4]
 4994 006e 1B68     		ldr	r3, [r3]
 4995              		.loc 1 2901 14
 4996 0070 03F55873 		add	r3, r3, #864
 4997              		.loc 1 2901 11
 4998 0074 1833     		adds	r3, r3, #24
 4999 0076 3B62     		str	r3, [r7, #32]
2902:./Libraries/STM32H7xx_HAL_Driver/Src/stm32h7xx_hal_jpeg.c ****   index = 12;
 5000              		.loc 1 2902 9
 5001 0078 0C23     		movs	r3, #12
 5002 007a 7B62     		str	r3, [r7, #36]
2903:./Libraries/STM32H7xx_HAL_Driver/Src/stm32h7xx_hal_jpeg.c ****   while (index > 3UL)
 5003              		.loc 1 2903 9
 5004 007c 21E0     		b	.L219
 5005              	.L220:
2904:./Libraries/STM32H7xx_HAL_Driver/Src/stm32h7xx_hal_jpeg.c ****   {
2905:./Libraries/STM32H7xx_HAL_Driver/Src/stm32h7xx_hal_jpeg.c ****     *address = (((uint32_t)HuffTableDC0->HuffVal[index - 1UL] & 0xFFUL) << 24) |
 5006              		.loc 1 2905 56
 5007 007e 7B6A     		ldr	r3, [r7, #36]
 5008 0080 013B     		subs	r3, r3, #1
 5009              		.loc 1 2905 49
 5010 0082 7A69     		ldr	r2, [r7, #20]
 5011 0084 1344     		add	r3, r3, r2
 5012 0086 1B7C     		ldrb	r3, [r3, #16]	@ zero_extendqisi2
 5013              		.loc 1 2905 73
 5014 0088 1A06     		lsls	r2, r3, #24
2906:./Libraries/STM32H7xx_HAL_Driver/Src/stm32h7xx_hal_jpeg.c ****                (((uint32_t)HuffTableDC0->HuffVal[index - 2UL] & 0xFFUL) << 16) |
 5015              		.loc 1 2906 56
 5016 008a 7B6A     		ldr	r3, [r7, #36]
 5017 008c 023B     		subs	r3, r3, #2
 5018              		.loc 1 2906 49
 5019 008e 7969     		ldr	r1, [r7, #20]
 5020 0090 0B44     		add	r3, r3, r1
 5021 0092 1B7C     		ldrb	r3, [r3, #16]	@ zero_extendqisi2
 5022              		.loc 1 2906 73
 5023 0094 1B04     		lsls	r3, r3, #16
ARM GAS  /tmp/ccXFtjVt.s 			page 141


2905:./Libraries/STM32H7xx_HAL_Driver/Src/stm32h7xx_hal_jpeg.c ****                (((uint32_t)HuffTableDC0->HuffVal[index - 2UL] & 0xFFUL) << 16) |
 5024              		.loc 1 2905 80
 5025 0096 1A43     		orrs	r2, r2, r3
2907:./Libraries/STM32H7xx_HAL_Driver/Src/stm32h7xx_hal_jpeg.c ****                (((uint32_t)HuffTableDC0->HuffVal[index - 3UL] & 0xFFUL) << 8) |
 5026              		.loc 1 2907 56
 5027 0098 7B6A     		ldr	r3, [r7, #36]
 5028 009a 033B     		subs	r3, r3, #3
 5029              		.loc 1 2907 49
 5030 009c 7969     		ldr	r1, [r7, #20]
 5031 009e 0B44     		add	r3, r3, r1
 5032 00a0 1B7C     		ldrb	r3, [r3, #16]	@ zero_extendqisi2
 5033              		.loc 1 2907 73
 5034 00a2 1B02     		lsls	r3, r3, #8
2906:./Libraries/STM32H7xx_HAL_Driver/Src/stm32h7xx_hal_jpeg.c ****                (((uint32_t)HuffTableDC0->HuffVal[index - 2UL] & 0xFFUL) << 16) |
 5035              		.loc 1 2906 80
 5036 00a4 1343     		orrs	r3, r3, r2
2908:./Libraries/STM32H7xx_HAL_Driver/Src/stm32h7xx_hal_jpeg.c ****                ((uint32_t)HuffTableDC0->HuffVal[index - 4UL] & 0xFFUL);
 5037              		.loc 1 2908 55
 5038 00a6 7A6A     		ldr	r2, [r7, #36]
 5039 00a8 043A     		subs	r2, r2, #4
 5040              		.loc 1 2908 48
 5041 00aa 7969     		ldr	r1, [r7, #20]
 5042 00ac 0A44     		add	r2, r2, r1
 5043 00ae 127C     		ldrb	r2, [r2, #16]	@ zero_extendqisi2
2907:./Libraries/STM32H7xx_HAL_Driver/Src/stm32h7xx_hal_jpeg.c ****                (((uint32_t)HuffTableDC0->HuffVal[index - 3UL] & 0xFFUL) << 8) |
 5044              		.loc 1 2907 79
 5045 00b0 1A43     		orrs	r2, r2, r3
2905:./Libraries/STM32H7xx_HAL_Driver/Src/stm32h7xx_hal_jpeg.c ****                (((uint32_t)HuffTableDC0->HuffVal[index - 2UL] & 0xFFUL) << 16) |
 5046              		.loc 1 2905 14
 5047 00b2 3B6A     		ldr	r3, [r7, #32]
 5048 00b4 1A60     		str	r2, [r3]
2909:./Libraries/STM32H7xx_HAL_Driver/Src/stm32h7xx_hal_jpeg.c ****     address--;
 5049              		.loc 1 2909 12
 5050 00b6 3B6A     		ldr	r3, [r7, #32]
 5051 00b8 043B     		subs	r3, r3, #4
 5052 00ba 3B62     		str	r3, [r7, #32]
2910:./Libraries/STM32H7xx_HAL_Driver/Src/stm32h7xx_hal_jpeg.c ****     index -= 4UL;
 5053              		.loc 1 2910 11
 5054 00bc 7B6A     		ldr	r3, [r7, #36]
 5055 00be 043B     		subs	r3, r3, #4
 5056 00c0 7B62     		str	r3, [r7, #36]
 5057              	.L219:
2903:./Libraries/STM32H7xx_HAL_Driver/Src/stm32h7xx_hal_jpeg.c ****   {
 5058              		.loc 1 2903 9
 5059 00c2 7B6A     		ldr	r3, [r7, #36]
 5060 00c4 032B     		cmp	r3, #3
 5061 00c6 DAD8     		bhi	.L220
2911:./Libraries/STM32H7xx_HAL_Driver/Src/stm32h7xx_hal_jpeg.c ****   }
2912:./Libraries/STM32H7xx_HAL_Driver/Src/stm32h7xx_hal_jpeg.c **** 
2913:./Libraries/STM32H7xx_HAL_Driver/Src/stm32h7xx_hal_jpeg.c ****   /* AC0 Huffman Table : BITS*/
2914:./Libraries/STM32H7xx_HAL_Driver/Src/stm32h7xx_hal_jpeg.c ****   /* AC0 BITS is a 16 Bytes table i.e 4x32bits words from DHTMEM base address + 7 to DHTMEM + 10*/
2915:./Libraries/STM32H7xx_HAL_Driver/Src/stm32h7xx_hal_jpeg.c ****   address = (hjpeg->Instance->DHTMEM + 10UL);
 5062              		.loc 1 2915 19
 5063 00c8 7B68     		ldr	r3, [r7, #4]
 5064 00ca 1B68     		ldr	r3, [r3]
 5065              		.loc 1 2915 14
 5066 00cc 03F55873 		add	r3, r3, #864
ARM GAS  /tmp/ccXFtjVt.s 			page 142


 5067              		.loc 1 2915 11
 5068 00d0 2833     		adds	r3, r3, #40
 5069 00d2 3B62     		str	r3, [r7, #32]
2916:./Libraries/STM32H7xx_HAL_Driver/Src/stm32h7xx_hal_jpeg.c ****   index = 16;
 5070              		.loc 1 2916 9
 5071 00d4 1023     		movs	r3, #16
 5072 00d6 7B62     		str	r3, [r7, #36]
2917:./Libraries/STM32H7xx_HAL_Driver/Src/stm32h7xx_hal_jpeg.c ****   while (index > 3UL)
 5073              		.loc 1 2917 9
 5074 00d8 1DE0     		b	.L221
 5075              	.L222:
2918:./Libraries/STM32H7xx_HAL_Driver/Src/stm32h7xx_hal_jpeg.c ****   {
2919:./Libraries/STM32H7xx_HAL_Driver/Src/stm32h7xx_hal_jpeg.c **** 
2920:./Libraries/STM32H7xx_HAL_Driver/Src/stm32h7xx_hal_jpeg.c ****     *address = (((uint32_t)HuffTableAC0->Bits[index - 1UL] & 0xFFUL) << 24) |
 5076              		.loc 1 2920 53
 5077 00da 7B6A     		ldr	r3, [r7, #36]
 5078 00dc 013B     		subs	r3, r3, #1
 5079              		.loc 1 2920 46
 5080 00de FA69     		ldr	r2, [r7, #28]
 5081 00e0 D35C     		ldrb	r3, [r2, r3]	@ zero_extendqisi2
 5082              		.loc 1 2920 70
 5083 00e2 1A06     		lsls	r2, r3, #24
2921:./Libraries/STM32H7xx_HAL_Driver/Src/stm32h7xx_hal_jpeg.c ****                (((uint32_t)HuffTableAC0->Bits[index - 2UL] & 0xFFUL) << 16) |
 5084              		.loc 1 2921 53
 5085 00e4 7B6A     		ldr	r3, [r7, #36]
 5086 00e6 023B     		subs	r3, r3, #2
 5087              		.loc 1 2921 46
 5088 00e8 F969     		ldr	r1, [r7, #28]
 5089 00ea CB5C     		ldrb	r3, [r1, r3]	@ zero_extendqisi2
 5090              		.loc 1 2921 70
 5091 00ec 1B04     		lsls	r3, r3, #16
2920:./Libraries/STM32H7xx_HAL_Driver/Src/stm32h7xx_hal_jpeg.c ****                (((uint32_t)HuffTableAC0->Bits[index - 2UL] & 0xFFUL) << 16) |
 5092              		.loc 1 2920 77
 5093 00ee 1A43     		orrs	r2, r2, r3
2922:./Libraries/STM32H7xx_HAL_Driver/Src/stm32h7xx_hal_jpeg.c ****                (((uint32_t)HuffTableAC0->Bits[index - 3UL] & 0xFFUL) << 8) |
 5094              		.loc 1 2922 53
 5095 00f0 7B6A     		ldr	r3, [r7, #36]
 5096 00f2 033B     		subs	r3, r3, #3
 5097              		.loc 1 2922 46
 5098 00f4 F969     		ldr	r1, [r7, #28]
 5099 00f6 CB5C     		ldrb	r3, [r1, r3]	@ zero_extendqisi2
 5100              		.loc 1 2922 70
 5101 00f8 1B02     		lsls	r3, r3, #8
2921:./Libraries/STM32H7xx_HAL_Driver/Src/stm32h7xx_hal_jpeg.c ****                (((uint32_t)HuffTableAC0->Bits[index - 2UL] & 0xFFUL) << 16) |
 5102              		.loc 1 2921 77
 5103 00fa 1343     		orrs	r3, r3, r2
2923:./Libraries/STM32H7xx_HAL_Driver/Src/stm32h7xx_hal_jpeg.c ****                ((uint32_t)HuffTableAC0->Bits[index - 4UL] & 0xFFUL);
 5104              		.loc 1 2923 52
 5105 00fc 7A6A     		ldr	r2, [r7, #36]
 5106 00fe 043A     		subs	r2, r2, #4
 5107              		.loc 1 2923 45
 5108 0100 F969     		ldr	r1, [r7, #28]
 5109 0102 8A5C     		ldrb	r2, [r1, r2]	@ zero_extendqisi2
2922:./Libraries/STM32H7xx_HAL_Driver/Src/stm32h7xx_hal_jpeg.c ****                (((uint32_t)HuffTableAC0->Bits[index - 3UL] & 0xFFUL) << 8) |
 5110              		.loc 1 2922 76
 5111 0104 1A43     		orrs	r2, r2, r3
2920:./Libraries/STM32H7xx_HAL_Driver/Src/stm32h7xx_hal_jpeg.c ****                (((uint32_t)HuffTableAC0->Bits[index - 2UL] & 0xFFUL) << 16) |
ARM GAS  /tmp/ccXFtjVt.s 			page 143


 5112              		.loc 1 2920 14
 5113 0106 3B6A     		ldr	r3, [r7, #32]
 5114 0108 1A60     		str	r2, [r3]
2924:./Libraries/STM32H7xx_HAL_Driver/Src/stm32h7xx_hal_jpeg.c ****     address--;
 5115              		.loc 1 2924 12
 5116 010a 3B6A     		ldr	r3, [r7, #32]
 5117 010c 043B     		subs	r3, r3, #4
 5118 010e 3B62     		str	r3, [r7, #32]
2925:./Libraries/STM32H7xx_HAL_Driver/Src/stm32h7xx_hal_jpeg.c ****     index -= 4UL;
 5119              		.loc 1 2925 11
 5120 0110 7B6A     		ldr	r3, [r7, #36]
 5121 0112 043B     		subs	r3, r3, #4
 5122 0114 7B62     		str	r3, [r7, #36]
 5123              	.L221:
2917:./Libraries/STM32H7xx_HAL_Driver/Src/stm32h7xx_hal_jpeg.c ****   {
 5124              		.loc 1 2917 9
 5125 0116 7B6A     		ldr	r3, [r7, #36]
 5126 0118 032B     		cmp	r3, #3
 5127 011a DED8     		bhi	.L222
2926:./Libraries/STM32H7xx_HAL_Driver/Src/stm32h7xx_hal_jpeg.c **** 
2927:./Libraries/STM32H7xx_HAL_Driver/Src/stm32h7xx_hal_jpeg.c ****   }
2928:./Libraries/STM32H7xx_HAL_Driver/Src/stm32h7xx_hal_jpeg.c ****   /* AC0 Huffman Table : Val*/
2929:./Libraries/STM32H7xx_HAL_Driver/Src/stm32h7xx_hal_jpeg.c ****   /* AC0 VALS is a 162 Bytes table i.e 41x32bits words from DHTMEM base address + 11 to DHTMEM + 51
2930:./Libraries/STM32H7xx_HAL_Driver/Src/stm32h7xx_hal_jpeg.c ****   /* only Byte 0 and Byte 1 of the last word (@ DHTMEM + 51) belong to AC0 VALS table */
2931:./Libraries/STM32H7xx_HAL_Driver/Src/stm32h7xx_hal_jpeg.c ****   address = (hjpeg->Instance->DHTMEM + 51);
 5128              		.loc 1 2931 19
 5129 011c 7B68     		ldr	r3, [r7, #4]
 5130 011e 1B68     		ldr	r3, [r3]
 5131              		.loc 1 2931 14
 5132 0120 03F55873 		add	r3, r3, #864
 5133              		.loc 1 2931 11
 5134 0124 CC33     		adds	r3, r3, #204
 5135 0126 3B62     		str	r3, [r7, #32]
2932:./Libraries/STM32H7xx_HAL_Driver/Src/stm32h7xx_hal_jpeg.c ****   value = *address & 0xFFFF0000U;
 5136              		.loc 1 2932 11
 5137 0128 3B6A     		ldr	r3, [r7, #32]
 5138 012a 1A68     		ldr	r2, [r3]
 5139              		.loc 1 2932 9
 5140 012c 3B4B     		ldr	r3, .L233+16
 5141 012e 1340     		ands	r3, r3, r2
 5142 0130 FB60     		str	r3, [r7, #12]
2933:./Libraries/STM32H7xx_HAL_Driver/Src/stm32h7xx_hal_jpeg.c ****   value = value | (((uint32_t)HuffTableAC0->HuffVal[161] & 0xFFUL) << 8) | ((uint32_t)HuffTableAC0-
 5143              		.loc 1 2933 52
 5144 0132 FB69     		ldr	r3, [r7, #28]
 5145 0134 93F8B130 		ldrb	r3, [r3, #177]	@ zero_extendqisi2
 5146              		.loc 1 2933 68
 5147 0138 1A02     		lsls	r2, r3, #8
 5148              		.loc 1 2933 17
 5149 013a FB68     		ldr	r3, [r7, #12]
 5150 013c 1343     		orrs	r3, r3, r2
 5151              		.loc 1 2933 108
 5152 013e FA69     		ldr	r2, [r7, #28]
 5153 0140 92F8B020 		ldrb	r2, [r2, #176]	@ zero_extendqisi2
 5154              		.loc 1 2933 9
 5155 0144 1343     		orrs	r3, r3, r2
 5156 0146 FB60     		str	r3, [r7, #12]
2934:./Libraries/STM32H7xx_HAL_Driver/Src/stm32h7xx_hal_jpeg.c ****   *address = value;
ARM GAS  /tmp/ccXFtjVt.s 			page 144


 5157              		.loc 1 2934 12
 5158 0148 3B6A     		ldr	r3, [r7, #32]
 5159 014a FA68     		ldr	r2, [r7, #12]
 5160 014c 1A60     		str	r2, [r3]
2935:./Libraries/STM32H7xx_HAL_Driver/Src/stm32h7xx_hal_jpeg.c **** 
2936:./Libraries/STM32H7xx_HAL_Driver/Src/stm32h7xx_hal_jpeg.c ****   /*continue setting 160 AC0 huffman values */
2937:./Libraries/STM32H7xx_HAL_Driver/Src/stm32h7xx_hal_jpeg.c ****   address--; /* address = hjpeg->Instance->DHTMEM + 50*/
 5161              		.loc 1 2937 10
 5162 014e 3B6A     		ldr	r3, [r7, #32]
 5163 0150 043B     		subs	r3, r3, #4
 5164 0152 3B62     		str	r3, [r7, #32]
2938:./Libraries/STM32H7xx_HAL_Driver/Src/stm32h7xx_hal_jpeg.c ****   index = 160;
 5165              		.loc 1 2938 9
 5166 0154 A023     		movs	r3, #160
 5167 0156 7B62     		str	r3, [r7, #36]
2939:./Libraries/STM32H7xx_HAL_Driver/Src/stm32h7xx_hal_jpeg.c ****   while (index > 3UL)
 5168              		.loc 1 2939 9
 5169 0158 21E0     		b	.L223
 5170              	.L224:
2940:./Libraries/STM32H7xx_HAL_Driver/Src/stm32h7xx_hal_jpeg.c ****   {
2941:./Libraries/STM32H7xx_HAL_Driver/Src/stm32h7xx_hal_jpeg.c ****     *address = (((uint32_t)HuffTableAC0->HuffVal[index - 1UL] & 0xFFUL) << 24) |
 5171              		.loc 1 2941 56
 5172 015a 7B6A     		ldr	r3, [r7, #36]
 5173 015c 013B     		subs	r3, r3, #1
 5174              		.loc 1 2941 49
 5175 015e FA69     		ldr	r2, [r7, #28]
 5176 0160 1344     		add	r3, r3, r2
 5177 0162 1B7C     		ldrb	r3, [r3, #16]	@ zero_extendqisi2
 5178              		.loc 1 2941 73
 5179 0164 1A06     		lsls	r2, r3, #24
2942:./Libraries/STM32H7xx_HAL_Driver/Src/stm32h7xx_hal_jpeg.c ****                (((uint32_t)HuffTableAC0->HuffVal[index - 2UL] & 0xFFUL) << 16) |
 5180              		.loc 1 2942 56
 5181 0166 7B6A     		ldr	r3, [r7, #36]
 5182 0168 023B     		subs	r3, r3, #2
 5183              		.loc 1 2942 49
 5184 016a F969     		ldr	r1, [r7, #28]
 5185 016c 0B44     		add	r3, r3, r1
 5186 016e 1B7C     		ldrb	r3, [r3, #16]	@ zero_extendqisi2
 5187              		.loc 1 2942 73
 5188 0170 1B04     		lsls	r3, r3, #16
2941:./Libraries/STM32H7xx_HAL_Driver/Src/stm32h7xx_hal_jpeg.c ****                (((uint32_t)HuffTableAC0->HuffVal[index - 2UL] & 0xFFUL) << 16) |
 5189              		.loc 1 2941 80
 5190 0172 1A43     		orrs	r2, r2, r3
2943:./Libraries/STM32H7xx_HAL_Driver/Src/stm32h7xx_hal_jpeg.c ****                (((uint32_t)HuffTableAC0->HuffVal[index - 3UL] & 0xFFUL) << 8) |
 5191              		.loc 1 2943 56
 5192 0174 7B6A     		ldr	r3, [r7, #36]
 5193 0176 033B     		subs	r3, r3, #3
 5194              		.loc 1 2943 49
 5195 0178 F969     		ldr	r1, [r7, #28]
 5196 017a 0B44     		add	r3, r3, r1
 5197 017c 1B7C     		ldrb	r3, [r3, #16]	@ zero_extendqisi2
 5198              		.loc 1 2943 73
 5199 017e 1B02     		lsls	r3, r3, #8
2942:./Libraries/STM32H7xx_HAL_Driver/Src/stm32h7xx_hal_jpeg.c ****                (((uint32_t)HuffTableAC0->HuffVal[index - 2UL] & 0xFFUL) << 16) |
 5200              		.loc 1 2942 80
 5201 0180 1343     		orrs	r3, r3, r2
2944:./Libraries/STM32H7xx_HAL_Driver/Src/stm32h7xx_hal_jpeg.c ****                ((uint32_t)HuffTableAC0->HuffVal[index - 4UL] & 0xFFUL);
ARM GAS  /tmp/ccXFtjVt.s 			page 145


 5202              		.loc 1 2944 55
 5203 0182 7A6A     		ldr	r2, [r7, #36]
 5204 0184 043A     		subs	r2, r2, #4
 5205              		.loc 1 2944 48
 5206 0186 F969     		ldr	r1, [r7, #28]
 5207 0188 0A44     		add	r2, r2, r1
 5208 018a 127C     		ldrb	r2, [r2, #16]	@ zero_extendqisi2
2943:./Libraries/STM32H7xx_HAL_Driver/Src/stm32h7xx_hal_jpeg.c ****                (((uint32_t)HuffTableAC0->HuffVal[index - 3UL] & 0xFFUL) << 8) |
 5209              		.loc 1 2943 79
 5210 018c 1A43     		orrs	r2, r2, r3
2941:./Libraries/STM32H7xx_HAL_Driver/Src/stm32h7xx_hal_jpeg.c ****                (((uint32_t)HuffTableAC0->HuffVal[index - 2UL] & 0xFFUL) << 16) |
 5211              		.loc 1 2941 14
 5212 018e 3B6A     		ldr	r3, [r7, #32]
 5213 0190 1A60     		str	r2, [r3]
2945:./Libraries/STM32H7xx_HAL_Driver/Src/stm32h7xx_hal_jpeg.c ****     address--;
 5214              		.loc 1 2945 12
 5215 0192 3B6A     		ldr	r3, [r7, #32]
 5216 0194 043B     		subs	r3, r3, #4
 5217 0196 3B62     		str	r3, [r7, #32]
2946:./Libraries/STM32H7xx_HAL_Driver/Src/stm32h7xx_hal_jpeg.c ****     index -= 4UL;
 5218              		.loc 1 2946 11
 5219 0198 7B6A     		ldr	r3, [r7, #36]
 5220 019a 043B     		subs	r3, r3, #4
 5221 019c 7B62     		str	r3, [r7, #36]
 5222              	.L223:
2939:./Libraries/STM32H7xx_HAL_Driver/Src/stm32h7xx_hal_jpeg.c ****   {
 5223              		.loc 1 2939 9
 5224 019e 7B6A     		ldr	r3, [r7, #36]
 5225 01a0 032B     		cmp	r3, #3
 5226 01a2 DAD8     		bhi	.L224
2947:./Libraries/STM32H7xx_HAL_Driver/Src/stm32h7xx_hal_jpeg.c ****   }
2948:./Libraries/STM32H7xx_HAL_Driver/Src/stm32h7xx_hal_jpeg.c **** 
2949:./Libraries/STM32H7xx_HAL_Driver/Src/stm32h7xx_hal_jpeg.c ****   /* DC1 Huffman Table : BITS*/
2950:./Libraries/STM32H7xx_HAL_Driver/Src/stm32h7xx_hal_jpeg.c ****   /* DC1 BITS is a 16 Bytes table i.e 4x32bits words from DHTMEM + 51 base address to DHTMEM + 55*/
2951:./Libraries/STM32H7xx_HAL_Driver/Src/stm32h7xx_hal_jpeg.c ****   /* only Byte 2 and Byte 3 of the first word (@ DHTMEM + 51) belong to DC1 Bits table */
2952:./Libraries/STM32H7xx_HAL_Driver/Src/stm32h7xx_hal_jpeg.c ****   address = (hjpeg->Instance->DHTMEM + 51);
 5227              		.loc 1 2952 19
 5228 01a4 7B68     		ldr	r3, [r7, #4]
 5229 01a6 1B68     		ldr	r3, [r3]
 5230              		.loc 1 2952 14
 5231 01a8 03F55873 		add	r3, r3, #864
 5232              		.loc 1 2952 11
 5233 01ac CC33     		adds	r3, r3, #204
 5234 01ae 3B62     		str	r3, [r7, #32]
2953:./Libraries/STM32H7xx_HAL_Driver/Src/stm32h7xx_hal_jpeg.c ****   value = *address & 0x0000FFFFU;
 5235              		.loc 1 2953 11
 5236 01b0 3B6A     		ldr	r3, [r7, #32]
 5237 01b2 1B68     		ldr	r3, [r3]
 5238              		.loc 1 2953 9
 5239 01b4 9BB2     		uxth	r3, r3
 5240 01b6 FB60     		str	r3, [r7, #12]
2954:./Libraries/STM32H7xx_HAL_Driver/Src/stm32h7xx_hal_jpeg.c ****   value = value | (((uint32_t)HuffTableDC1->Bits[1] & 0xFFUL) << 24) | (((uint32_t)HuffTableDC1->Bi
 5241              		.loc 1 2954 49
 5242 01b8 3B69     		ldr	r3, [r7, #16]
 5243 01ba 5B78     		ldrb	r3, [r3, #1]	@ zero_extendqisi2
 5244              		.loc 1 2954 63
 5245 01bc 1A06     		lsls	r2, r3, #24
ARM GAS  /tmp/ccXFtjVt.s 			page 146


 5246              		.loc 1 2954 17
 5247 01be FB68     		ldr	r3, [r7, #12]
 5248 01c0 1A43     		orrs	r2, r2, r3
 5249              		.loc 1 2954 102
 5250 01c2 3B69     		ldr	r3, [r7, #16]
 5251 01c4 1B78     		ldrb	r3, [r3]	@ zero_extendqisi2
 5252              		.loc 1 2954 116
 5253 01c6 1B04     		lsls	r3, r3, #16
 5254              		.loc 1 2954 9
 5255 01c8 1343     		orrs	r3, r3, r2
 5256 01ca FB60     		str	r3, [r7, #12]
2955:./Libraries/STM32H7xx_HAL_Driver/Src/stm32h7xx_hal_jpeg.c ****   *address = value;
 5257              		.loc 1 2955 12
 5258 01cc 3B6A     		ldr	r3, [r7, #32]
 5259 01ce FA68     		ldr	r2, [r7, #12]
 5260 01d0 1A60     		str	r2, [r3]
2956:./Libraries/STM32H7xx_HAL_Driver/Src/stm32h7xx_hal_jpeg.c **** 
2957:./Libraries/STM32H7xx_HAL_Driver/Src/stm32h7xx_hal_jpeg.c ****   /* only Byte 0 and Byte 1 of the last word (@ DHTMEM + 55) belong to DC1 Bits table */
2958:./Libraries/STM32H7xx_HAL_Driver/Src/stm32h7xx_hal_jpeg.c ****   address = (hjpeg->Instance->DHTMEM + 55);
 5261              		.loc 1 2958 19
 5262 01d2 7B68     		ldr	r3, [r7, #4]
 5263 01d4 1B68     		ldr	r3, [r3]
 5264              		.loc 1 2958 14
 5265 01d6 03F55873 		add	r3, r3, #864
 5266              		.loc 1 2958 11
 5267 01da DC33     		adds	r3, r3, #220
 5268 01dc 3B62     		str	r3, [r7, #32]
2959:./Libraries/STM32H7xx_HAL_Driver/Src/stm32h7xx_hal_jpeg.c ****   value = *address & 0xFFFF0000U;
 5269              		.loc 1 2959 11
 5270 01de 3B6A     		ldr	r3, [r7, #32]
 5271 01e0 1A68     		ldr	r2, [r3]
 5272              		.loc 1 2959 9
 5273 01e2 0E4B     		ldr	r3, .L233+16
 5274 01e4 1340     		ands	r3, r3, r2
 5275 01e6 FB60     		str	r3, [r7, #12]
2960:./Libraries/STM32H7xx_HAL_Driver/Src/stm32h7xx_hal_jpeg.c ****   value = value | (((uint32_t)HuffTableDC1->Bits[15] & 0xFFUL) << 8) | ((uint32_t)HuffTableDC1->Bit
 5276              		.loc 1 2960 49
 5277 01e8 3B69     		ldr	r3, [r7, #16]
 5278 01ea DB7B     		ldrb	r3, [r3, #15]	@ zero_extendqisi2
 5279              		.loc 1 2960 64
 5280 01ec 1A02     		lsls	r2, r3, #8
 5281              		.loc 1 2960 17
 5282 01ee FB68     		ldr	r3, [r7, #12]
 5283 01f0 1343     		orrs	r3, r3, r2
 5284              		.loc 1 2960 101
 5285 01f2 3A69     		ldr	r2, [r7, #16]
 5286 01f4 927B     		ldrb	r2, [r2, #14]	@ zero_extendqisi2
 5287              		.loc 1 2960 9
 5288 01f6 1343     		orrs	r3, r3, r2
 5289 01f8 FB60     		str	r3, [r7, #12]
2961:./Libraries/STM32H7xx_HAL_Driver/Src/stm32h7xx_hal_jpeg.c ****   *address = value;
 5290              		.loc 1 2961 12
 5291 01fa 3B6A     		ldr	r3, [r7, #32]
 5292 01fc FA68     		ldr	r2, [r7, #12]
 5293 01fe 1A60     		str	r2, [r3]
2962:./Libraries/STM32H7xx_HAL_Driver/Src/stm32h7xx_hal_jpeg.c **** 
2963:./Libraries/STM32H7xx_HAL_Driver/Src/stm32h7xx_hal_jpeg.c ****   /*continue setting 12 DC1 huffman Bits from DHTMEM + 54 down to DHTMEM + 52*/
ARM GAS  /tmp/ccXFtjVt.s 			page 147


2964:./Libraries/STM32H7xx_HAL_Driver/Src/stm32h7xx_hal_jpeg.c ****   address--;
 5294              		.loc 1 2964 10
 5295 0200 3B6A     		ldr	r3, [r7, #32]
 5296 0202 043B     		subs	r3, r3, #4
 5297 0204 3B62     		str	r3, [r7, #32]
2965:./Libraries/STM32H7xx_HAL_Driver/Src/stm32h7xx_hal_jpeg.c ****   index = 12;
 5298              		.loc 1 2965 9
 5299 0206 0C23     		movs	r3, #12
 5300 0208 7B62     		str	r3, [r7, #36]
2966:./Libraries/STM32H7xx_HAL_Driver/Src/stm32h7xx_hal_jpeg.c ****   while (index > 3UL)
 5301              		.loc 1 2966 9
 5302 020a 27E0     		b	.L225
 5303              	.L234:
 5304              		.align	2
 5305              	.L233:
 5306 020c 00000000 		.word	JPEG_ACLUM_HuffTable
 5307 0210 00000000 		.word	JPEG_ACCHROM_HuffTable
 5308 0214 00000000 		.word	JPEG_DCLUM_HuffTable
 5309 0218 00000000 		.word	JPEG_DCCHROM_HuffTable
 5310 021c 0000FFFF 		.word	-65536
 5311              	.L226:
2967:./Libraries/STM32H7xx_HAL_Driver/Src/stm32h7xx_hal_jpeg.c ****   {
2968:./Libraries/STM32H7xx_HAL_Driver/Src/stm32h7xx_hal_jpeg.c **** 
2969:./Libraries/STM32H7xx_HAL_Driver/Src/stm32h7xx_hal_jpeg.c ****     *address = (((uint32_t)HuffTableDC1->Bits[index + 1UL] & 0xFFUL) << 24) |
 5312              		.loc 1 2969 53
 5313 0220 7B6A     		ldr	r3, [r7, #36]
 5314 0222 0133     		adds	r3, r3, #1
 5315              		.loc 1 2969 46
 5316 0224 3A69     		ldr	r2, [r7, #16]
 5317 0226 D35C     		ldrb	r3, [r2, r3]	@ zero_extendqisi2
 5318              		.loc 1 2969 70
 5319 0228 1A06     		lsls	r2, r3, #24
2970:./Libraries/STM32H7xx_HAL_Driver/Src/stm32h7xx_hal_jpeg.c ****                (((uint32_t)HuffTableDC1->Bits[index] & 0xFFUL) << 16) |
 5320              		.loc 1 2970 46
 5321 022a 3969     		ldr	r1, [r7, #16]
 5322 022c 7B6A     		ldr	r3, [r7, #36]
 5323 022e 0B44     		add	r3, r3, r1
 5324 0230 1B78     		ldrb	r3, [r3]	@ zero_extendqisi2
 5325              		.loc 1 2970 64
 5326 0232 1B04     		lsls	r3, r3, #16
2969:./Libraries/STM32H7xx_HAL_Driver/Src/stm32h7xx_hal_jpeg.c ****                (((uint32_t)HuffTableDC1->Bits[index] & 0xFFUL) << 16) |
 5327              		.loc 1 2969 77
 5328 0234 1A43     		orrs	r2, r2, r3
2971:./Libraries/STM32H7xx_HAL_Driver/Src/stm32h7xx_hal_jpeg.c ****                (((uint32_t)HuffTableDC1->Bits[index - 1UL] & 0xFFUL) << 8) |
 5329              		.loc 1 2971 53
 5330 0236 7B6A     		ldr	r3, [r7, #36]
 5331 0238 013B     		subs	r3, r3, #1
 5332              		.loc 1 2971 46
 5333 023a 3969     		ldr	r1, [r7, #16]
 5334 023c CB5C     		ldrb	r3, [r1, r3]	@ zero_extendqisi2
 5335              		.loc 1 2971 70
 5336 023e 1B02     		lsls	r3, r3, #8
2970:./Libraries/STM32H7xx_HAL_Driver/Src/stm32h7xx_hal_jpeg.c ****                (((uint32_t)HuffTableDC1->Bits[index] & 0xFFUL) << 16) |
 5337              		.loc 1 2970 71
 5338 0240 1343     		orrs	r3, r3, r2
2972:./Libraries/STM32H7xx_HAL_Driver/Src/stm32h7xx_hal_jpeg.c ****                ((uint32_t)HuffTableDC1->Bits[index - 2UL] & 0xFFUL);
 5339              		.loc 1 2972 52
ARM GAS  /tmp/ccXFtjVt.s 			page 148


 5340 0242 7A6A     		ldr	r2, [r7, #36]
 5341 0244 023A     		subs	r2, r2, #2
 5342              		.loc 1 2972 45
 5343 0246 3969     		ldr	r1, [r7, #16]
 5344 0248 8A5C     		ldrb	r2, [r1, r2]	@ zero_extendqisi2
2971:./Libraries/STM32H7xx_HAL_Driver/Src/stm32h7xx_hal_jpeg.c ****                (((uint32_t)HuffTableDC1->Bits[index - 1UL] & 0xFFUL) << 8) |
 5345              		.loc 1 2971 76
 5346 024a 1A43     		orrs	r2, r2, r3
2969:./Libraries/STM32H7xx_HAL_Driver/Src/stm32h7xx_hal_jpeg.c ****                (((uint32_t)HuffTableDC1->Bits[index] & 0xFFUL) << 16) |
 5347              		.loc 1 2969 14
 5348 024c 3B6A     		ldr	r3, [r7, #32]
 5349 024e 1A60     		str	r2, [r3]
2973:./Libraries/STM32H7xx_HAL_Driver/Src/stm32h7xx_hal_jpeg.c ****     address--;
 5350              		.loc 1 2973 12
 5351 0250 3B6A     		ldr	r3, [r7, #32]
 5352 0252 043B     		subs	r3, r3, #4
 5353 0254 3B62     		str	r3, [r7, #32]
2974:./Libraries/STM32H7xx_HAL_Driver/Src/stm32h7xx_hal_jpeg.c ****     index -= 4UL;
 5354              		.loc 1 2974 11
 5355 0256 7B6A     		ldr	r3, [r7, #36]
 5356 0258 043B     		subs	r3, r3, #4
 5357 025a 7B62     		str	r3, [r7, #36]
 5358              	.L225:
2966:./Libraries/STM32H7xx_HAL_Driver/Src/stm32h7xx_hal_jpeg.c ****   {
 5359              		.loc 1 2966 9
 5360 025c 7B6A     		ldr	r3, [r7, #36]
 5361 025e 032B     		cmp	r3, #3
 5362 0260 DED8     		bhi	.L226
2975:./Libraries/STM32H7xx_HAL_Driver/Src/stm32h7xx_hal_jpeg.c **** 
2976:./Libraries/STM32H7xx_HAL_Driver/Src/stm32h7xx_hal_jpeg.c ****   }
2977:./Libraries/STM32H7xx_HAL_Driver/Src/stm32h7xx_hal_jpeg.c ****   /* DC1 Huffman Table : Val*/
2978:./Libraries/STM32H7xx_HAL_Driver/Src/stm32h7xx_hal_jpeg.c ****   /* DC1 VALS is a 12 Bytes table i.e 3x32bits words from DHTMEM base address +55 to DHTMEM + 58 */
2979:./Libraries/STM32H7xx_HAL_Driver/Src/stm32h7xx_hal_jpeg.c ****   /* only Byte 2 and Byte 3 of the first word (@ DHTMEM + 55) belong to DC1 Val table */
2980:./Libraries/STM32H7xx_HAL_Driver/Src/stm32h7xx_hal_jpeg.c ****   address = (hjpeg->Instance->DHTMEM + 55);
 5363              		.loc 1 2980 19
 5364 0262 7B68     		ldr	r3, [r7, #4]
 5365 0264 1B68     		ldr	r3, [r3]
 5366              		.loc 1 2980 14
 5367 0266 03F55873 		add	r3, r3, #864
 5368              		.loc 1 2980 11
 5369 026a DC33     		adds	r3, r3, #220
 5370 026c 3B62     		str	r3, [r7, #32]
2981:./Libraries/STM32H7xx_HAL_Driver/Src/stm32h7xx_hal_jpeg.c ****   value = *address & 0x0000FFFFUL;
 5371              		.loc 1 2981 11
 5372 026e 3B6A     		ldr	r3, [r7, #32]
 5373 0270 1B68     		ldr	r3, [r3]
 5374              		.loc 1 2981 9
 5375 0272 9BB2     		uxth	r3, r3
 5376 0274 FB60     		str	r3, [r7, #12]
2982:./Libraries/STM32H7xx_HAL_Driver/Src/stm32h7xx_hal_jpeg.c ****   value = value | (((uint32_t)HuffTableDC1->HuffVal[1] & 0xFFUL) << 24) | (((uint32_t)HuffTableDC1-
 5377              		.loc 1 2982 52
 5378 0276 3B69     		ldr	r3, [r7, #16]
 5379 0278 5B7C     		ldrb	r3, [r3, #17]	@ zero_extendqisi2
 5380              		.loc 1 2982 66
 5381 027a 1A06     		lsls	r2, r3, #24
 5382              		.loc 1 2982 17
 5383 027c FB68     		ldr	r3, [r7, #12]
ARM GAS  /tmp/ccXFtjVt.s 			page 149


 5384 027e 1A43     		orrs	r2, r2, r3
 5385              		.loc 1 2982 108
 5386 0280 3B69     		ldr	r3, [r7, #16]
 5387 0282 1B7C     		ldrb	r3, [r3, #16]	@ zero_extendqisi2
 5388              		.loc 1 2982 122
 5389 0284 1B04     		lsls	r3, r3, #16
 5390              		.loc 1 2982 9
 5391 0286 1343     		orrs	r3, r3, r2
 5392 0288 FB60     		str	r3, [r7, #12]
2983:./Libraries/STM32H7xx_HAL_Driver/Src/stm32h7xx_hal_jpeg.c ****                                                                          16);
2984:./Libraries/STM32H7xx_HAL_Driver/Src/stm32h7xx_hal_jpeg.c ****   *address = value;
 5393              		.loc 1 2984 12
 5394 028a 3B6A     		ldr	r3, [r7, #32]
 5395 028c FA68     		ldr	r2, [r7, #12]
 5396 028e 1A60     		str	r2, [r3]
2985:./Libraries/STM32H7xx_HAL_Driver/Src/stm32h7xx_hal_jpeg.c **** 
2986:./Libraries/STM32H7xx_HAL_Driver/Src/stm32h7xx_hal_jpeg.c ****   /* only Byte 0 and Byte 1 of the last word (@ DHTMEM + 58) belong to DC1 Val table */
2987:./Libraries/STM32H7xx_HAL_Driver/Src/stm32h7xx_hal_jpeg.c ****   address = (hjpeg->Instance->DHTMEM + 58);
 5397              		.loc 1 2987 19
 5398 0290 7B68     		ldr	r3, [r7, #4]
 5399 0292 1B68     		ldr	r3, [r3]
 5400              		.loc 1 2987 14
 5401 0294 03F55873 		add	r3, r3, #864
 5402              		.loc 1 2987 11
 5403 0298 E833     		adds	r3, r3, #232
 5404 029a 3B62     		str	r3, [r7, #32]
2988:./Libraries/STM32H7xx_HAL_Driver/Src/stm32h7xx_hal_jpeg.c ****   value = *address & 0xFFFF0000UL;
 5405              		.loc 1 2988 11
 5406 029c 3B6A     		ldr	r3, [r7, #32]
 5407 029e 1A68     		ldr	r2, [r3]
 5408              		.loc 1 2988 9
 5409 02a0 6D4B     		ldr	r3, .L235
 5410 02a2 1340     		ands	r3, r3, r2
 5411 02a4 FB60     		str	r3, [r7, #12]
2989:./Libraries/STM32H7xx_HAL_Driver/Src/stm32h7xx_hal_jpeg.c ****   value = value | (((uint32_t)HuffTableDC1->HuffVal[11] & 0xFFUL) << 8) | ((uint32_t)HuffTableDC1->
 5412              		.loc 1 2989 52
 5413 02a6 3B69     		ldr	r3, [r7, #16]
 5414 02a8 DB7E     		ldrb	r3, [r3, #27]	@ zero_extendqisi2
 5415              		.loc 1 2989 67
 5416 02aa 1A02     		lsls	r2, r3, #8
 5417              		.loc 1 2989 17
 5418 02ac FB68     		ldr	r3, [r7, #12]
 5419 02ae 1343     		orrs	r3, r3, r2
 5420              		.loc 1 2989 107
 5421 02b0 3A69     		ldr	r2, [r7, #16]
 5422 02b2 927E     		ldrb	r2, [r2, #26]	@ zero_extendqisi2
 5423              		.loc 1 2989 9
 5424 02b4 1343     		orrs	r3, r3, r2
 5425 02b6 FB60     		str	r3, [r7, #12]
2990:./Libraries/STM32H7xx_HAL_Driver/Src/stm32h7xx_hal_jpeg.c ****   *address = value;
 5426              		.loc 1 2990 12
 5427 02b8 3B6A     		ldr	r3, [r7, #32]
 5428 02ba FA68     		ldr	r2, [r7, #12]
 5429 02bc 1A60     		str	r2, [r3]
2991:./Libraries/STM32H7xx_HAL_Driver/Src/stm32h7xx_hal_jpeg.c **** 
2992:./Libraries/STM32H7xx_HAL_Driver/Src/stm32h7xx_hal_jpeg.c ****   /*continue setting 8 DC1 huffman val from DHTMEM + 57 down to DHTMEM + 56*/
2993:./Libraries/STM32H7xx_HAL_Driver/Src/stm32h7xx_hal_jpeg.c ****   address--;
ARM GAS  /tmp/ccXFtjVt.s 			page 150


 5430              		.loc 1 2993 10
 5431 02be 3B6A     		ldr	r3, [r7, #32]
 5432 02c0 043B     		subs	r3, r3, #4
 5433 02c2 3B62     		str	r3, [r7, #32]
2994:./Libraries/STM32H7xx_HAL_Driver/Src/stm32h7xx_hal_jpeg.c ****   index = 8;
 5434              		.loc 1 2994 9
 5435 02c4 0823     		movs	r3, #8
 5436 02c6 7B62     		str	r3, [r7, #36]
2995:./Libraries/STM32H7xx_HAL_Driver/Src/stm32h7xx_hal_jpeg.c ****   while (index > 3UL)
 5437              		.loc 1 2995 9
 5438 02c8 21E0     		b	.L227
 5439              	.L228:
2996:./Libraries/STM32H7xx_HAL_Driver/Src/stm32h7xx_hal_jpeg.c ****   {
2997:./Libraries/STM32H7xx_HAL_Driver/Src/stm32h7xx_hal_jpeg.c ****     *address = (((uint32_t)HuffTableDC1->HuffVal[index + 1UL] & 0xFFUL) << 24) |
 5440              		.loc 1 2997 56
 5441 02ca 7B6A     		ldr	r3, [r7, #36]
 5442 02cc 0133     		adds	r3, r3, #1
 5443              		.loc 1 2997 49
 5444 02ce 3A69     		ldr	r2, [r7, #16]
 5445 02d0 1344     		add	r3, r3, r2
 5446 02d2 1B7C     		ldrb	r3, [r3, #16]	@ zero_extendqisi2
 5447              		.loc 1 2997 73
 5448 02d4 1A06     		lsls	r2, r3, #24
2998:./Libraries/STM32H7xx_HAL_Driver/Src/stm32h7xx_hal_jpeg.c ****                (((uint32_t)HuffTableDC1->HuffVal[index] & 0xFFUL) << 16) |
 5449              		.loc 1 2998 49
 5450 02d6 3969     		ldr	r1, [r7, #16]
 5451 02d8 7B6A     		ldr	r3, [r7, #36]
 5452 02da 0B44     		add	r3, r3, r1
 5453 02dc 1033     		adds	r3, r3, #16
 5454 02de 1B78     		ldrb	r3, [r3]	@ zero_extendqisi2
 5455              		.loc 1 2998 67
 5456 02e0 1B04     		lsls	r3, r3, #16
2997:./Libraries/STM32H7xx_HAL_Driver/Src/stm32h7xx_hal_jpeg.c ****                (((uint32_t)HuffTableDC1->HuffVal[index] & 0xFFUL) << 16) |
 5457              		.loc 1 2997 80
 5458 02e2 1A43     		orrs	r2, r2, r3
2999:./Libraries/STM32H7xx_HAL_Driver/Src/stm32h7xx_hal_jpeg.c ****                (((uint32_t)HuffTableDC1->HuffVal[index - 1UL] & 0xFFUL) << 8) |
 5459              		.loc 1 2999 56
 5460 02e4 7B6A     		ldr	r3, [r7, #36]
 5461 02e6 013B     		subs	r3, r3, #1
 5462              		.loc 1 2999 49
 5463 02e8 3969     		ldr	r1, [r7, #16]
 5464 02ea 0B44     		add	r3, r3, r1
 5465 02ec 1B7C     		ldrb	r3, [r3, #16]	@ zero_extendqisi2
 5466              		.loc 1 2999 73
 5467 02ee 1B02     		lsls	r3, r3, #8
2998:./Libraries/STM32H7xx_HAL_Driver/Src/stm32h7xx_hal_jpeg.c ****                (((uint32_t)HuffTableDC1->HuffVal[index] & 0xFFUL) << 16) |
 5468              		.loc 1 2998 74
 5469 02f0 1343     		orrs	r3, r3, r2
3000:./Libraries/STM32H7xx_HAL_Driver/Src/stm32h7xx_hal_jpeg.c ****                ((uint32_t)HuffTableDC1->HuffVal[index - 2UL] & 0xFFUL);
 5470              		.loc 1 3000 55
 5471 02f2 7A6A     		ldr	r2, [r7, #36]
 5472 02f4 023A     		subs	r2, r2, #2
 5473              		.loc 1 3000 48
 5474 02f6 3969     		ldr	r1, [r7, #16]
 5475 02f8 0A44     		add	r2, r2, r1
 5476 02fa 127C     		ldrb	r2, [r2, #16]	@ zero_extendqisi2
2999:./Libraries/STM32H7xx_HAL_Driver/Src/stm32h7xx_hal_jpeg.c ****                (((uint32_t)HuffTableDC1->HuffVal[index - 1UL] & 0xFFUL) << 8) |
ARM GAS  /tmp/ccXFtjVt.s 			page 151


 5477              		.loc 1 2999 79
 5478 02fc 1A43     		orrs	r2, r2, r3
2997:./Libraries/STM32H7xx_HAL_Driver/Src/stm32h7xx_hal_jpeg.c ****                (((uint32_t)HuffTableDC1->HuffVal[index] & 0xFFUL) << 16) |
 5479              		.loc 1 2997 14
 5480 02fe 3B6A     		ldr	r3, [r7, #32]
 5481 0300 1A60     		str	r2, [r3]
3001:./Libraries/STM32H7xx_HAL_Driver/Src/stm32h7xx_hal_jpeg.c ****     address--;
 5482              		.loc 1 3001 12
 5483 0302 3B6A     		ldr	r3, [r7, #32]
 5484 0304 043B     		subs	r3, r3, #4
 5485 0306 3B62     		str	r3, [r7, #32]
3002:./Libraries/STM32H7xx_HAL_Driver/Src/stm32h7xx_hal_jpeg.c ****     index -= 4UL;
 5486              		.loc 1 3002 11
 5487 0308 7B6A     		ldr	r3, [r7, #36]
 5488 030a 043B     		subs	r3, r3, #4
 5489 030c 7B62     		str	r3, [r7, #36]
 5490              	.L227:
2995:./Libraries/STM32H7xx_HAL_Driver/Src/stm32h7xx_hal_jpeg.c ****   {
 5491              		.loc 1 2995 9
 5492 030e 7B6A     		ldr	r3, [r7, #36]
 5493 0310 032B     		cmp	r3, #3
 5494 0312 DAD8     		bhi	.L228
3003:./Libraries/STM32H7xx_HAL_Driver/Src/stm32h7xx_hal_jpeg.c ****   }
3004:./Libraries/STM32H7xx_HAL_Driver/Src/stm32h7xx_hal_jpeg.c **** 
3005:./Libraries/STM32H7xx_HAL_Driver/Src/stm32h7xx_hal_jpeg.c ****   /* AC1 Huffman Table : BITS*/
3006:./Libraries/STM32H7xx_HAL_Driver/Src/stm32h7xx_hal_jpeg.c ****   /* AC1 BITS is a 16 Bytes table i.e 4x32bits words from DHTMEM base address + 58 to DHTMEM + 62*/
3007:./Libraries/STM32H7xx_HAL_Driver/Src/stm32h7xx_hal_jpeg.c ****   /* only Byte 2 and Byte 3 of the first word (@ DHTMEM + 58) belong to AC1 Bits table */
3008:./Libraries/STM32H7xx_HAL_Driver/Src/stm32h7xx_hal_jpeg.c ****   address = (hjpeg->Instance->DHTMEM + 58);
 5495              		.loc 1 3008 19
 5496 0314 7B68     		ldr	r3, [r7, #4]
 5497 0316 1B68     		ldr	r3, [r3]
 5498              		.loc 1 3008 14
 5499 0318 03F55873 		add	r3, r3, #864
 5500              		.loc 1 3008 11
 5501 031c E833     		adds	r3, r3, #232
 5502 031e 3B62     		str	r3, [r7, #32]
3009:./Libraries/STM32H7xx_HAL_Driver/Src/stm32h7xx_hal_jpeg.c ****   value = *address & 0x0000FFFFU;
 5503              		.loc 1 3009 11
 5504 0320 3B6A     		ldr	r3, [r7, #32]
 5505 0322 1B68     		ldr	r3, [r3]
 5506              		.loc 1 3009 9
 5507 0324 9BB2     		uxth	r3, r3
 5508 0326 FB60     		str	r3, [r7, #12]
3010:./Libraries/STM32H7xx_HAL_Driver/Src/stm32h7xx_hal_jpeg.c ****   value = value | (((uint32_t)HuffTableAC1->Bits[1] & 0xFFUL) << 24) | (((uint32_t)HuffTableAC1->Bi
 5509              		.loc 1 3010 49
 5510 0328 BB69     		ldr	r3, [r7, #24]
 5511 032a 5B78     		ldrb	r3, [r3, #1]	@ zero_extendqisi2
 5512              		.loc 1 3010 63
 5513 032c 1A06     		lsls	r2, r3, #24
 5514              		.loc 1 3010 17
 5515 032e FB68     		ldr	r3, [r7, #12]
 5516 0330 1A43     		orrs	r2, r2, r3
 5517              		.loc 1 3010 102
 5518 0332 BB69     		ldr	r3, [r7, #24]
 5519 0334 1B78     		ldrb	r3, [r3]	@ zero_extendqisi2
 5520              		.loc 1 3010 116
 5521 0336 1B04     		lsls	r3, r3, #16
ARM GAS  /tmp/ccXFtjVt.s 			page 152


 5522              		.loc 1 3010 9
 5523 0338 1343     		orrs	r3, r3, r2
 5524 033a FB60     		str	r3, [r7, #12]
3011:./Libraries/STM32H7xx_HAL_Driver/Src/stm32h7xx_hal_jpeg.c ****   *address = value;
 5525              		.loc 1 3011 12
 5526 033c 3B6A     		ldr	r3, [r7, #32]
 5527 033e FA68     		ldr	r2, [r7, #12]
 5528 0340 1A60     		str	r2, [r3]
3012:./Libraries/STM32H7xx_HAL_Driver/Src/stm32h7xx_hal_jpeg.c **** 
3013:./Libraries/STM32H7xx_HAL_Driver/Src/stm32h7xx_hal_jpeg.c ****   /* only Byte 0 and Byte 1 of the last word (@ DHTMEM + 62) belong to Bits Val table */
3014:./Libraries/STM32H7xx_HAL_Driver/Src/stm32h7xx_hal_jpeg.c ****   address = (hjpeg->Instance->DHTMEM + 62);
 5529              		.loc 1 3014 19
 5530 0342 7B68     		ldr	r3, [r7, #4]
 5531 0344 1B68     		ldr	r3, [r3]
 5532              		.loc 1 3014 14
 5533 0346 03F55873 		add	r3, r3, #864
 5534              		.loc 1 3014 11
 5535 034a F833     		adds	r3, r3, #248
 5536 034c 3B62     		str	r3, [r7, #32]
3015:./Libraries/STM32H7xx_HAL_Driver/Src/stm32h7xx_hal_jpeg.c ****   value = *address & 0xFFFF0000U;
 5537              		.loc 1 3015 11
 5538 034e 3B6A     		ldr	r3, [r7, #32]
 5539 0350 1A68     		ldr	r2, [r3]
 5540              		.loc 1 3015 9
 5541 0352 414B     		ldr	r3, .L235
 5542 0354 1340     		ands	r3, r3, r2
 5543 0356 FB60     		str	r3, [r7, #12]
3016:./Libraries/STM32H7xx_HAL_Driver/Src/stm32h7xx_hal_jpeg.c ****   value = value | (((uint32_t)HuffTableAC1->Bits[15] & 0xFFUL) << 8) | ((uint32_t)HuffTableAC1->Bit
 5544              		.loc 1 3016 49
 5545 0358 BB69     		ldr	r3, [r7, #24]
 5546 035a DB7B     		ldrb	r3, [r3, #15]	@ zero_extendqisi2
 5547              		.loc 1 3016 64
 5548 035c 1A02     		lsls	r2, r3, #8
 5549              		.loc 1 3016 17
 5550 035e FB68     		ldr	r3, [r7, #12]
 5551 0360 1343     		orrs	r3, r3, r2
 5552              		.loc 1 3016 101
 5553 0362 BA69     		ldr	r2, [r7, #24]
 5554 0364 927B     		ldrb	r2, [r2, #14]	@ zero_extendqisi2
 5555              		.loc 1 3016 9
 5556 0366 1343     		orrs	r3, r3, r2
 5557 0368 FB60     		str	r3, [r7, #12]
3017:./Libraries/STM32H7xx_HAL_Driver/Src/stm32h7xx_hal_jpeg.c ****   *address = value;
 5558              		.loc 1 3017 12
 5559 036a 3B6A     		ldr	r3, [r7, #32]
 5560 036c FA68     		ldr	r2, [r7, #12]
 5561 036e 1A60     		str	r2, [r3]
3018:./Libraries/STM32H7xx_HAL_Driver/Src/stm32h7xx_hal_jpeg.c **** 
3019:./Libraries/STM32H7xx_HAL_Driver/Src/stm32h7xx_hal_jpeg.c ****   /*continue setting 12 AC1 huffman Bits from DHTMEM + 61 down to DHTMEM + 59*/
3020:./Libraries/STM32H7xx_HAL_Driver/Src/stm32h7xx_hal_jpeg.c ****   address--;
 5562              		.loc 1 3020 10
 5563 0370 3B6A     		ldr	r3, [r7, #32]
 5564 0372 043B     		subs	r3, r3, #4
 5565 0374 3B62     		str	r3, [r7, #32]
3021:./Libraries/STM32H7xx_HAL_Driver/Src/stm32h7xx_hal_jpeg.c ****   index = 12;
 5566              		.loc 1 3021 9
 5567 0376 0C23     		movs	r3, #12
ARM GAS  /tmp/ccXFtjVt.s 			page 153


 5568 0378 7B62     		str	r3, [r7, #36]
3022:./Libraries/STM32H7xx_HAL_Driver/Src/stm32h7xx_hal_jpeg.c ****   while (index > 3UL)
 5569              		.loc 1 3022 9
 5570 037a 1DE0     		b	.L229
 5571              	.L230:
3023:./Libraries/STM32H7xx_HAL_Driver/Src/stm32h7xx_hal_jpeg.c ****   {
3024:./Libraries/STM32H7xx_HAL_Driver/Src/stm32h7xx_hal_jpeg.c **** 
3025:./Libraries/STM32H7xx_HAL_Driver/Src/stm32h7xx_hal_jpeg.c ****     *address = (((uint32_t)HuffTableAC1->Bits[index + 1UL] & 0xFFUL) << 24) |
 5572              		.loc 1 3025 53
 5573 037c 7B6A     		ldr	r3, [r7, #36]
 5574 037e 0133     		adds	r3, r3, #1
 5575              		.loc 1 3025 46
 5576 0380 BA69     		ldr	r2, [r7, #24]
 5577 0382 D35C     		ldrb	r3, [r2, r3]	@ zero_extendqisi2
 5578              		.loc 1 3025 70
 5579 0384 1A06     		lsls	r2, r3, #24
3026:./Libraries/STM32H7xx_HAL_Driver/Src/stm32h7xx_hal_jpeg.c ****                (((uint32_t)HuffTableAC1->Bits[index] & 0xFFUL) << 16) |
 5580              		.loc 1 3026 46
 5581 0386 B969     		ldr	r1, [r7, #24]
 5582 0388 7B6A     		ldr	r3, [r7, #36]
 5583 038a 0B44     		add	r3, r3, r1
 5584 038c 1B78     		ldrb	r3, [r3]	@ zero_extendqisi2
 5585              		.loc 1 3026 64
 5586 038e 1B04     		lsls	r3, r3, #16
3025:./Libraries/STM32H7xx_HAL_Driver/Src/stm32h7xx_hal_jpeg.c ****                (((uint32_t)HuffTableAC1->Bits[index] & 0xFFUL) << 16) |
 5587              		.loc 1 3025 77
 5588 0390 1A43     		orrs	r2, r2, r3
3027:./Libraries/STM32H7xx_HAL_Driver/Src/stm32h7xx_hal_jpeg.c ****                (((uint32_t)HuffTableAC1->Bits[index - 1UL] & 0xFFUL) << 8) |
 5589              		.loc 1 3027 53
 5590 0392 7B6A     		ldr	r3, [r7, #36]
 5591 0394 013B     		subs	r3, r3, #1
 5592              		.loc 1 3027 46
 5593 0396 B969     		ldr	r1, [r7, #24]
 5594 0398 CB5C     		ldrb	r3, [r1, r3]	@ zero_extendqisi2
 5595              		.loc 1 3027 70
 5596 039a 1B02     		lsls	r3, r3, #8
3026:./Libraries/STM32H7xx_HAL_Driver/Src/stm32h7xx_hal_jpeg.c ****                (((uint32_t)HuffTableAC1->Bits[index] & 0xFFUL) << 16) |
 5597              		.loc 1 3026 71
 5598 039c 1343     		orrs	r3, r3, r2
3028:./Libraries/STM32H7xx_HAL_Driver/Src/stm32h7xx_hal_jpeg.c ****                ((uint32_t)HuffTableAC1->Bits[index - 2UL] & 0xFFUL);
 5599              		.loc 1 3028 52
 5600 039e 7A6A     		ldr	r2, [r7, #36]
 5601 03a0 023A     		subs	r2, r2, #2
 5602              		.loc 1 3028 45
 5603 03a2 B969     		ldr	r1, [r7, #24]
 5604 03a4 8A5C     		ldrb	r2, [r1, r2]	@ zero_extendqisi2
3027:./Libraries/STM32H7xx_HAL_Driver/Src/stm32h7xx_hal_jpeg.c ****                (((uint32_t)HuffTableAC1->Bits[index - 1UL] & 0xFFUL) << 8) |
 5605              		.loc 1 3027 76
 5606 03a6 1A43     		orrs	r2, r2, r3
3025:./Libraries/STM32H7xx_HAL_Driver/Src/stm32h7xx_hal_jpeg.c ****                (((uint32_t)HuffTableAC1->Bits[index] & 0xFFUL) << 16) |
 5607              		.loc 1 3025 14
 5608 03a8 3B6A     		ldr	r3, [r7, #32]
 5609 03aa 1A60     		str	r2, [r3]
3029:./Libraries/STM32H7xx_HAL_Driver/Src/stm32h7xx_hal_jpeg.c ****     address--;
 5610              		.loc 1 3029 12
 5611 03ac 3B6A     		ldr	r3, [r7, #32]
 5612 03ae 043B     		subs	r3, r3, #4
ARM GAS  /tmp/ccXFtjVt.s 			page 154


 5613 03b0 3B62     		str	r3, [r7, #32]
3030:./Libraries/STM32H7xx_HAL_Driver/Src/stm32h7xx_hal_jpeg.c ****     index -= 4UL;
 5614              		.loc 1 3030 11
 5615 03b2 7B6A     		ldr	r3, [r7, #36]
 5616 03b4 043B     		subs	r3, r3, #4
 5617 03b6 7B62     		str	r3, [r7, #36]
 5618              	.L229:
3022:./Libraries/STM32H7xx_HAL_Driver/Src/stm32h7xx_hal_jpeg.c ****   {
 5619              		.loc 1 3022 9
 5620 03b8 7B6A     		ldr	r3, [r7, #36]
 5621 03ba 032B     		cmp	r3, #3
 5622 03bc DED8     		bhi	.L230
3031:./Libraries/STM32H7xx_HAL_Driver/Src/stm32h7xx_hal_jpeg.c **** 
3032:./Libraries/STM32H7xx_HAL_Driver/Src/stm32h7xx_hal_jpeg.c ****   }
3033:./Libraries/STM32H7xx_HAL_Driver/Src/stm32h7xx_hal_jpeg.c ****   /* AC1 Huffman Table : Val*/
3034:./Libraries/STM32H7xx_HAL_Driver/Src/stm32h7xx_hal_jpeg.c ****   /* AC1 VALS is a 162 Bytes table i.e 41x32bits words from DHTMEM base address + 62 to DHTMEM + 10
3035:./Libraries/STM32H7xx_HAL_Driver/Src/stm32h7xx_hal_jpeg.c ****   /* only Byte 2 and Byte 3 of the first word (@ DHTMEM + 62) belong to AC1 VALS table */
3036:./Libraries/STM32H7xx_HAL_Driver/Src/stm32h7xx_hal_jpeg.c ****   address = (hjpeg->Instance->DHTMEM + 62);
 5623              		.loc 1 3036 19
 5624 03be 7B68     		ldr	r3, [r7, #4]
 5625 03c0 1B68     		ldr	r3, [r3]
 5626              		.loc 1 3036 14
 5627 03c2 03F55873 		add	r3, r3, #864
 5628              		.loc 1 3036 11
 5629 03c6 F833     		adds	r3, r3, #248
 5630 03c8 3B62     		str	r3, [r7, #32]
3037:./Libraries/STM32H7xx_HAL_Driver/Src/stm32h7xx_hal_jpeg.c ****   value = *address & 0x0000FFFFUL;
 5631              		.loc 1 3037 11
 5632 03ca 3B6A     		ldr	r3, [r7, #32]
 5633 03cc 1B68     		ldr	r3, [r3]
 5634              		.loc 1 3037 9
 5635 03ce 9BB2     		uxth	r3, r3
 5636 03d0 FB60     		str	r3, [r7, #12]
3038:./Libraries/STM32H7xx_HAL_Driver/Src/stm32h7xx_hal_jpeg.c ****   value = value | (((uint32_t)HuffTableAC1->HuffVal[1] & 0xFFUL) << 24) | (((uint32_t)HuffTableAC1-
 5637              		.loc 1 3038 52
 5638 03d2 BB69     		ldr	r3, [r7, #24]
 5639 03d4 5B7C     		ldrb	r3, [r3, #17]	@ zero_extendqisi2
 5640              		.loc 1 3038 66
 5641 03d6 1A06     		lsls	r2, r3, #24
 5642              		.loc 1 3038 17
 5643 03d8 FB68     		ldr	r3, [r7, #12]
 5644 03da 1A43     		orrs	r2, r2, r3
 5645              		.loc 1 3038 108
 5646 03dc BB69     		ldr	r3, [r7, #24]
 5647 03de 1B7C     		ldrb	r3, [r3, #16]	@ zero_extendqisi2
 5648              		.loc 1 3038 122
 5649 03e0 1B04     		lsls	r3, r3, #16
 5650              		.loc 1 3038 9
 5651 03e2 1343     		orrs	r3, r3, r2
 5652 03e4 FB60     		str	r3, [r7, #12]
3039:./Libraries/STM32H7xx_HAL_Driver/Src/stm32h7xx_hal_jpeg.c ****                                                                          16);
3040:./Libraries/STM32H7xx_HAL_Driver/Src/stm32h7xx_hal_jpeg.c ****   *address = value;
 5653              		.loc 1 3040 12
 5654 03e6 3B6A     		ldr	r3, [r7, #32]
 5655 03e8 FA68     		ldr	r2, [r7, #12]
 5656 03ea 1A60     		str	r2, [r3]
3041:./Libraries/STM32H7xx_HAL_Driver/Src/stm32h7xx_hal_jpeg.c **** 
ARM GAS  /tmp/ccXFtjVt.s 			page 155


3042:./Libraries/STM32H7xx_HAL_Driver/Src/stm32h7xx_hal_jpeg.c ****   /*continue setting 160 AC1 huffman values from DHTMEM + 63 to DHTMEM+102 */
3043:./Libraries/STM32H7xx_HAL_Driver/Src/stm32h7xx_hal_jpeg.c ****   address = (hjpeg->Instance->DHTMEM + 102);
 5657              		.loc 1 3043 19
 5658 03ec 7B68     		ldr	r3, [r7, #4]
 5659 03ee 1B68     		ldr	r3, [r3]
 5660              		.loc 1 3043 14
 5661 03f0 03F55873 		add	r3, r3, #864
 5662              		.loc 1 3043 11
 5663 03f4 03F5CC73 		add	r3, r3, #408
 5664 03f8 3B62     		str	r3, [r7, #32]
3044:./Libraries/STM32H7xx_HAL_Driver/Src/stm32h7xx_hal_jpeg.c ****   index = 160;
 5665              		.loc 1 3044 9
 5666 03fa A023     		movs	r3, #160
 5667 03fc 7B62     		str	r3, [r7, #36]
3045:./Libraries/STM32H7xx_HAL_Driver/Src/stm32h7xx_hal_jpeg.c ****   while (index > 3UL)
 5668              		.loc 1 3045 9
 5669 03fe 21E0     		b	.L231
 5670              	.L232:
3046:./Libraries/STM32H7xx_HAL_Driver/Src/stm32h7xx_hal_jpeg.c ****   {
3047:./Libraries/STM32H7xx_HAL_Driver/Src/stm32h7xx_hal_jpeg.c ****     *address = (((uint32_t)HuffTableAC1->HuffVal[index + 1UL] & 0xFFUL) << 24) |
 5671              		.loc 1 3047 56
 5672 0400 7B6A     		ldr	r3, [r7, #36]
 5673 0402 0133     		adds	r3, r3, #1
 5674              		.loc 1 3047 49
 5675 0404 BA69     		ldr	r2, [r7, #24]
 5676 0406 1344     		add	r3, r3, r2
 5677 0408 1B7C     		ldrb	r3, [r3, #16]	@ zero_extendqisi2
 5678              		.loc 1 3047 73
 5679 040a 1A06     		lsls	r2, r3, #24
3048:./Libraries/STM32H7xx_HAL_Driver/Src/stm32h7xx_hal_jpeg.c ****                (((uint32_t)HuffTableAC1->HuffVal[index] & 0xFFUL) << 16) |
 5680              		.loc 1 3048 49
 5681 040c B969     		ldr	r1, [r7, #24]
 5682 040e 7B6A     		ldr	r3, [r7, #36]
 5683 0410 0B44     		add	r3, r3, r1
 5684 0412 1033     		adds	r3, r3, #16
 5685 0414 1B78     		ldrb	r3, [r3]	@ zero_extendqisi2
 5686              		.loc 1 3048 67
 5687 0416 1B04     		lsls	r3, r3, #16
3047:./Libraries/STM32H7xx_HAL_Driver/Src/stm32h7xx_hal_jpeg.c ****                (((uint32_t)HuffTableAC1->HuffVal[index] & 0xFFUL) << 16) |
 5688              		.loc 1 3047 80
 5689 0418 1A43     		orrs	r2, r2, r3
3049:./Libraries/STM32H7xx_HAL_Driver/Src/stm32h7xx_hal_jpeg.c ****                (((uint32_t)HuffTableAC1->HuffVal[index - 1UL] & 0xFFUL) << 8) |
 5690              		.loc 1 3049 56
 5691 041a 7B6A     		ldr	r3, [r7, #36]
 5692 041c 013B     		subs	r3, r3, #1
 5693              		.loc 1 3049 49
 5694 041e B969     		ldr	r1, [r7, #24]
 5695 0420 0B44     		add	r3, r3, r1
 5696 0422 1B7C     		ldrb	r3, [r3, #16]	@ zero_extendqisi2
 5697              		.loc 1 3049 73
 5698 0424 1B02     		lsls	r3, r3, #8
3048:./Libraries/STM32H7xx_HAL_Driver/Src/stm32h7xx_hal_jpeg.c ****                (((uint32_t)HuffTableAC1->HuffVal[index] & 0xFFUL) << 16) |
 5699              		.loc 1 3048 74
 5700 0426 1343     		orrs	r3, r3, r2
3050:./Libraries/STM32H7xx_HAL_Driver/Src/stm32h7xx_hal_jpeg.c ****                ((uint32_t)HuffTableAC1->HuffVal[index - 2UL] & 0xFFUL);
 5701              		.loc 1 3050 55
 5702 0428 7A6A     		ldr	r2, [r7, #36]
ARM GAS  /tmp/ccXFtjVt.s 			page 156


 5703 042a 023A     		subs	r2, r2, #2
 5704              		.loc 1 3050 48
 5705 042c B969     		ldr	r1, [r7, #24]
 5706 042e 0A44     		add	r2, r2, r1
 5707 0430 127C     		ldrb	r2, [r2, #16]	@ zero_extendqisi2
3049:./Libraries/STM32H7xx_HAL_Driver/Src/stm32h7xx_hal_jpeg.c ****                (((uint32_t)HuffTableAC1->HuffVal[index - 1UL] & 0xFFUL) << 8) |
 5708              		.loc 1 3049 79
 5709 0432 1A43     		orrs	r2, r2, r3
3047:./Libraries/STM32H7xx_HAL_Driver/Src/stm32h7xx_hal_jpeg.c ****                (((uint32_t)HuffTableAC1->HuffVal[index] & 0xFFUL) << 16) |
 5710              		.loc 1 3047 14
 5711 0434 3B6A     		ldr	r3, [r7, #32]
 5712 0436 1A60     		str	r2, [r3]
3051:./Libraries/STM32H7xx_HAL_Driver/Src/stm32h7xx_hal_jpeg.c ****     address--;
 5713              		.loc 1 3051 12
 5714 0438 3B6A     		ldr	r3, [r7, #32]
 5715 043a 043B     		subs	r3, r3, #4
 5716 043c 3B62     		str	r3, [r7, #32]
3052:./Libraries/STM32H7xx_HAL_Driver/Src/stm32h7xx_hal_jpeg.c ****     index -= 4UL;
 5717              		.loc 1 3052 11
 5718 043e 7B6A     		ldr	r3, [r7, #36]
 5719 0440 043B     		subs	r3, r3, #4
 5720 0442 7B62     		str	r3, [r7, #36]
 5721              	.L231:
3045:./Libraries/STM32H7xx_HAL_Driver/Src/stm32h7xx_hal_jpeg.c ****   {
 5722              		.loc 1 3045 9
 5723 0444 7B6A     		ldr	r3, [r7, #36]
 5724 0446 032B     		cmp	r3, #3
 5725 0448 DAD8     		bhi	.L232
3053:./Libraries/STM32H7xx_HAL_Driver/Src/stm32h7xx_hal_jpeg.c ****   }
3054:./Libraries/STM32H7xx_HAL_Driver/Src/stm32h7xx_hal_jpeg.c **** 
3055:./Libraries/STM32H7xx_HAL_Driver/Src/stm32h7xx_hal_jpeg.c **** }
 5726              		.loc 1 3055 1
 5727 044a 00BF     		nop
 5728 044c 00BF     		nop
 5729 044e 2C37     		adds	r7, r7, #44
 5730              	.LCFI195:
 5731              		.cfi_def_cfa_offset 4
 5732 0450 BD46     		mov	sp, r7
 5733              	.LCFI196:
 5734              		.cfi_def_cfa_register 13
 5735              		@ sp needed
 5736 0452 5DF8047B 		ldr	r7, [sp], #4
 5737              	.LCFI197:
 5738              		.cfi_restore 7
 5739              		.cfi_def_cfa_offset 0
 5740 0456 7047     		bx	lr
 5741              	.L236:
 5742              		.align	2
 5743              	.L235:
 5744 0458 0000FFFF 		.word	-65536
 5745              		.cfi_endproc
 5746              	.LFE366:
 5748              		.section	.text.JPEG_Set_Quantization_Mem,"ax",%progbits
 5749              		.align	1
 5750              		.syntax unified
 5751              		.thumb
 5752              		.thumb_func
ARM GAS  /tmp/ccXFtjVt.s 			page 157


 5753              		.fpu fpv5-d16
 5755              	JPEG_Set_Quantization_Mem:
 5756              	.LFB367:
3056:./Libraries/STM32H7xx_HAL_Driver/Src/stm32h7xx_hal_jpeg.c **** 
3057:./Libraries/STM32H7xx_HAL_Driver/Src/stm32h7xx_hal_jpeg.c **** /**
3058:./Libraries/STM32H7xx_HAL_Driver/Src/stm32h7xx_hal_jpeg.c ****   * @brief  Configure the JPEG registers with a given quantization table
3059:./Libraries/STM32H7xx_HAL_Driver/Src/stm32h7xx_hal_jpeg.c ****   * @param  hjpeg pointer to a JPEG_HandleTypeDef structure that contains
3060:./Libraries/STM32H7xx_HAL_Driver/Src/stm32h7xx_hal_jpeg.c ****   *         the configuration information for JPEG module
3061:./Libraries/STM32H7xx_HAL_Driver/Src/stm32h7xx_hal_jpeg.c ****   * @param  QTable pointer to an array of 64 bytes giving the quantization table
3062:./Libraries/STM32H7xx_HAL_Driver/Src/stm32h7xx_hal_jpeg.c ****   * @param  QTableAddress destination quantization address in the JPEG peripheral
3063:./Libraries/STM32H7xx_HAL_Driver/Src/stm32h7xx_hal_jpeg.c ****   *         it could be QMEM0, QMEM1, QMEM2 or QMEM3
3064:./Libraries/STM32H7xx_HAL_Driver/Src/stm32h7xx_hal_jpeg.c ****   * @retval 0 if no error, 1 if error
3065:./Libraries/STM32H7xx_HAL_Driver/Src/stm32h7xx_hal_jpeg.c ****   */
3066:./Libraries/STM32H7xx_HAL_Driver/Src/stm32h7xx_hal_jpeg.c **** static uint32_t JPEG_Set_Quantization_Mem(JPEG_HandleTypeDef *hjpeg, uint8_t *QTable,
3067:./Libraries/STM32H7xx_HAL_Driver/Src/stm32h7xx_hal_jpeg.c ****                                                     __IO uint32_t *QTableAddress)
3068:./Libraries/STM32H7xx_HAL_Driver/Src/stm32h7xx_hal_jpeg.c **** {
 5757              		.loc 1 3068 1
 5758              		.cfi_startproc
 5759              		@ args = 0, pretend = 0, frame = 40
 5760              		@ frame_needed = 1, uses_anonymous_args = 0
 5761              		@ link register save eliminated.
 5762 0000 80B4     		push	{r7}
 5763              	.LCFI198:
 5764              		.cfi_def_cfa_offset 4
 5765              		.cfi_offset 7, -4
 5766 0002 8BB0     		sub	sp, sp, #44
 5767              	.LCFI199:
 5768              		.cfi_def_cfa_offset 48
 5769 0004 00AF     		add	r7, sp, #0
 5770              	.LCFI200:
 5771              		.cfi_def_cfa_register 7
 5772 0006 F860     		str	r0, [r7, #12]
 5773 0008 B960     		str	r1, [r7, #8]
 5774 000a 7A60     		str	r2, [r7, #4]
3069:./Libraries/STM32H7xx_HAL_Driver/Src/stm32h7xx_hal_jpeg.c ****   uint32_t i;
3070:./Libraries/STM32H7xx_HAL_Driver/Src/stm32h7xx_hal_jpeg.c ****   uint32_t j;
3071:./Libraries/STM32H7xx_HAL_Driver/Src/stm32h7xx_hal_jpeg.c ****   uint32_t quantRow;
3072:./Libraries/STM32H7xx_HAL_Driver/Src/stm32h7xx_hal_jpeg.c ****   uint32_t quantVal;
3073:./Libraries/STM32H7xx_HAL_Driver/Src/stm32h7xx_hal_jpeg.c ****   uint32_t ScaleFactor;
3074:./Libraries/STM32H7xx_HAL_Driver/Src/stm32h7xx_hal_jpeg.c ****   __IO uint32_t *tableAddress;
3075:./Libraries/STM32H7xx_HAL_Driver/Src/stm32h7xx_hal_jpeg.c **** 
3076:./Libraries/STM32H7xx_HAL_Driver/Src/stm32h7xx_hal_jpeg.c ****   tableAddress = QTableAddress;
 5775              		.loc 1 3076 16
 5776 000c 7B68     		ldr	r3, [r7, #4]
 5777 000e 3B61     		str	r3, [r7, #16]
3077:./Libraries/STM32H7xx_HAL_Driver/Src/stm32h7xx_hal_jpeg.c **** 
3078:./Libraries/STM32H7xx_HAL_Driver/Src/stm32h7xx_hal_jpeg.c ****   if ((hjpeg->Conf.ImageQuality >= 50UL) && (hjpeg->Conf.ImageQuality <= 100UL))
 5778              		.loc 1 3078 19
 5779 0010 FB68     		ldr	r3, [r7, #12]
 5780 0012 5B69     		ldr	r3, [r3, #20]
 5781              		.loc 1 3078 6
 5782 0014 312B     		cmp	r3, #49
 5783 0016 0AD9     		bls	.L238
 5784              		.loc 1 3078 57 discriminator 1
 5785 0018 FB68     		ldr	r3, [r7, #12]
 5786 001a 5B69     		ldr	r3, [r3, #20]
 5787              		.loc 1 3078 42 discriminator 1
ARM GAS  /tmp/ccXFtjVt.s 			page 158


 5788 001c 642B     		cmp	r3, #100
 5789 001e 06D8     		bhi	.L238
3079:./Libraries/STM32H7xx_HAL_Driver/Src/stm32h7xx_hal_jpeg.c ****   {
3080:./Libraries/STM32H7xx_HAL_Driver/Src/stm32h7xx_hal_jpeg.c ****     ScaleFactor = 200UL - (hjpeg->Conf.ImageQuality * 2UL);
 5790              		.loc 1 3080 39
 5791 0020 FB68     		ldr	r3, [r7, #12]
 5792 0022 5B69     		ldr	r3, [r3, #20]
 5793              		.loc 1 3080 25
 5794 0024 C3F16403 		rsb	r3, r3, #100
 5795              		.loc 1 3080 17
 5796 0028 5B00     		lsls	r3, r3, #1
 5797 002a 7B61     		str	r3, [r7, #20]
 5798 002c 0DE0     		b	.L239
 5799              	.L238:
3081:./Libraries/STM32H7xx_HAL_Driver/Src/stm32h7xx_hal_jpeg.c ****   }
3082:./Libraries/STM32H7xx_HAL_Driver/Src/stm32h7xx_hal_jpeg.c ****   else if (hjpeg->Conf.ImageQuality > 0UL)
 5800              		.loc 1 3082 23
 5801 002e FB68     		ldr	r3, [r7, #12]
 5802 0030 5B69     		ldr	r3, [r3, #20]
 5803              		.loc 1 3082 11
 5804 0032 002B     		cmp	r3, #0
 5805 0034 07D0     		beq	.L240
3083:./Libraries/STM32H7xx_HAL_Driver/Src/stm32h7xx_hal_jpeg.c ****   {
3084:./Libraries/STM32H7xx_HAL_Driver/Src/stm32h7xx_hal_jpeg.c ****     ScaleFactor = ((uint32_t) 5000) / ((uint32_t) hjpeg->Conf.ImageQuality);
 5806              		.loc 1 3084 62
 5807 0036 FB68     		ldr	r3, [r7, #12]
 5808 0038 5B69     		ldr	r3, [r3, #20]
 5809              		.loc 1 3084 17
 5810 003a 41F28832 		movw	r2, #5000
 5811 003e B2FBF3F3 		udiv	r3, r2, r3
 5812 0042 7B61     		str	r3, [r7, #20]
 5813 0044 01E0     		b	.L239
 5814              	.L240:
3085:./Libraries/STM32H7xx_HAL_Driver/Src/stm32h7xx_hal_jpeg.c ****   }
3086:./Libraries/STM32H7xx_HAL_Driver/Src/stm32h7xx_hal_jpeg.c ****   else
3087:./Libraries/STM32H7xx_HAL_Driver/Src/stm32h7xx_hal_jpeg.c ****   {
3088:./Libraries/STM32H7xx_HAL_Driver/Src/stm32h7xx_hal_jpeg.c ****     return 1UL;
 5815              		.loc 1 3088 12
 5816 0046 0123     		movs	r3, #1
 5817 0048 41E0     		b	.L241
 5818              	.L239:
3089:./Libraries/STM32H7xx_HAL_Driver/Src/stm32h7xx_hal_jpeg.c ****   }
3090:./Libraries/STM32H7xx_HAL_Driver/Src/stm32h7xx_hal_jpeg.c **** 
3091:./Libraries/STM32H7xx_HAL_Driver/Src/stm32h7xx_hal_jpeg.c ****   /*Quantization_table = (Standard_quanization_table * ScaleFactor + 50) / 100*/
3092:./Libraries/STM32H7xx_HAL_Driver/Src/stm32h7xx_hal_jpeg.c ****   i = 0;
 5819              		.loc 1 3092 5
 5820 004a 0023     		movs	r3, #0
 5821 004c 7B62     		str	r3, [r7, #36]
3093:./Libraries/STM32H7xx_HAL_Driver/Src/stm32h7xx_hal_jpeg.c ****   while (i < (JPEG_QUANT_TABLE_SIZE - 3UL))
 5822              		.loc 1 3093 9
 5823 004e 3AE0     		b	.L242
 5824              	.L247:
3094:./Libraries/STM32H7xx_HAL_Driver/Src/stm32h7xx_hal_jpeg.c ****   {
3095:./Libraries/STM32H7xx_HAL_Driver/Src/stm32h7xx_hal_jpeg.c ****     quantRow = 0;
 5825              		.loc 1 3095 14
 5826 0050 0023     		movs	r3, #0
 5827 0052 FB61     		str	r3, [r7, #28]
ARM GAS  /tmp/ccXFtjVt.s 			page 159


3096:./Libraries/STM32H7xx_HAL_Driver/Src/stm32h7xx_hal_jpeg.c ****     for (j = 0; j < 4UL; j++)
 5828              		.loc 1 3096 12
 5829 0054 0023     		movs	r3, #0
 5830 0056 3B62     		str	r3, [r7, #32]
 5831              		.loc 1 3096 5
 5832 0058 29E0     		b	.L243
 5833              	.L246:
3097:./Libraries/STM32H7xx_HAL_Driver/Src/stm32h7xx_hal_jpeg.c ****     {
3098:./Libraries/STM32H7xx_HAL_Driver/Src/stm32h7xx_hal_jpeg.c ****       /* Note that the quantization coefficients must be specified in the table in zigzag order */
3099:./Libraries/STM32H7xx_HAL_Driver/Src/stm32h7xx_hal_jpeg.c ****       quantVal = ((((uint32_t) QTable[JPEG_ZIGZAG_ORDER[i + j]]) * ScaleFactor) + 50UL) / 100UL;
 5834              		.loc 1 3099 59
 5835 005a 7A6A     		ldr	r2, [r7, #36]
 5836 005c 3B6A     		ldr	r3, [r7, #32]
 5837 005e 1344     		add	r3, r3, r2
 5838              		.loc 1 3099 56
 5839 0060 1E4A     		ldr	r2, .L248
 5840 0062 D35C     		ldrb	r3, [r2, r3]	@ zero_extendqisi2
 5841 0064 1A46     		mov	r2, r3
 5842              		.loc 1 3099 38
 5843 0066 BB68     		ldr	r3, [r7, #8]
 5844 0068 1344     		add	r3, r3, r2
 5845 006a 1B78     		ldrb	r3, [r3]	@ zero_extendqisi2
 5846              		.loc 1 3099 21
 5847 006c 1A46     		mov	r2, r3
 5848              		.loc 1 3099 66
 5849 006e 7B69     		ldr	r3, [r7, #20]
 5850 0070 03FB02F3 		mul	r3, r3, r2
 5851              		.loc 1 3099 81
 5852 0074 3233     		adds	r3, r3, #50
 5853              		.loc 1 3099 16
 5854 0076 1A4A     		ldr	r2, .L248+4
 5855 0078 A2FB0323 		umull	r2, r3, r2, r3
 5856 007c 5B09     		lsrs	r3, r3, #5
 5857 007e BB61     		str	r3, [r7, #24]
3100:./Libraries/STM32H7xx_HAL_Driver/Src/stm32h7xx_hal_jpeg.c **** 
3101:./Libraries/STM32H7xx_HAL_Driver/Src/stm32h7xx_hal_jpeg.c ****       if (quantVal == 0UL)
 5858              		.loc 1 3101 10
 5859 0080 BB69     		ldr	r3, [r7, #24]
 5860 0082 002B     		cmp	r3, #0
 5861 0084 02D1     		bne	.L244
3102:./Libraries/STM32H7xx_HAL_Driver/Src/stm32h7xx_hal_jpeg.c ****       {
3103:./Libraries/STM32H7xx_HAL_Driver/Src/stm32h7xx_hal_jpeg.c ****         quantVal = 1UL;
 5862              		.loc 1 3103 18
 5863 0086 0123     		movs	r3, #1
 5864 0088 BB61     		str	r3, [r7, #24]
 5865 008a 04E0     		b	.L245
 5866              	.L244:
3104:./Libraries/STM32H7xx_HAL_Driver/Src/stm32h7xx_hal_jpeg.c ****       }
3105:./Libraries/STM32H7xx_HAL_Driver/Src/stm32h7xx_hal_jpeg.c ****       else if (quantVal > 255UL)
 5867              		.loc 1 3105 15
 5868 008c BB69     		ldr	r3, [r7, #24]
 5869 008e FF2B     		cmp	r3, #255
 5870 0090 01D9     		bls	.L245
3106:./Libraries/STM32H7xx_HAL_Driver/Src/stm32h7xx_hal_jpeg.c ****       {
3107:./Libraries/STM32H7xx_HAL_Driver/Src/stm32h7xx_hal_jpeg.c ****         quantVal = 255UL;
 5871              		.loc 1 3107 18
 5872 0092 FF23     		movs	r3, #255
ARM GAS  /tmp/ccXFtjVt.s 			page 160


 5873 0094 BB61     		str	r3, [r7, #24]
 5874              	.L245:
3108:./Libraries/STM32H7xx_HAL_Driver/Src/stm32h7xx_hal_jpeg.c ****       }
3109:./Libraries/STM32H7xx_HAL_Driver/Src/stm32h7xx_hal_jpeg.c ****       else
3110:./Libraries/STM32H7xx_HAL_Driver/Src/stm32h7xx_hal_jpeg.c ****       {
3111:./Libraries/STM32H7xx_HAL_Driver/Src/stm32h7xx_hal_jpeg.c ****         /* Nothing to do, keep same value of quantVal */
3112:./Libraries/STM32H7xx_HAL_Driver/Src/stm32h7xx_hal_jpeg.c ****       }
3113:./Libraries/STM32H7xx_HAL_Driver/Src/stm32h7xx_hal_jpeg.c **** 
3114:./Libraries/STM32H7xx_HAL_Driver/Src/stm32h7xx_hal_jpeg.c ****       quantRow |= ((quantVal & 0xFFUL) << (8UL * j));
 5875              		.loc 1 3114 30 discriminator 2
 5876 0096 BB69     		ldr	r3, [r7, #24]
 5877 0098 DAB2     		uxtb	r2, r3
 5878              		.loc 1 3114 48 discriminator 2
 5879 009a 3B6A     		ldr	r3, [r7, #32]
 5880 009c DB00     		lsls	r3, r3, #3
 5881              		.loc 1 3114 40 discriminator 2
 5882 009e 02FA03F3 		lsl	r3, r2, r3
 5883              		.loc 1 3114 16 discriminator 2
 5884 00a2 FA69     		ldr	r2, [r7, #28]
 5885 00a4 1343     		orrs	r3, r3, r2
 5886 00a6 FB61     		str	r3, [r7, #28]
3096:./Libraries/STM32H7xx_HAL_Driver/Src/stm32h7xx_hal_jpeg.c ****     {
 5887              		.loc 1 3096 27 discriminator 2
 5888 00a8 3B6A     		ldr	r3, [r7, #32]
 5889 00aa 0133     		adds	r3, r3, #1
 5890 00ac 3B62     		str	r3, [r7, #32]
 5891              	.L243:
3096:./Libraries/STM32H7xx_HAL_Driver/Src/stm32h7xx_hal_jpeg.c ****     {
 5892              		.loc 1 3096 5 discriminator 1
 5893 00ae 3B6A     		ldr	r3, [r7, #32]
 5894 00b0 032B     		cmp	r3, #3
 5895 00b2 D2D9     		bls	.L246
3115:./Libraries/STM32H7xx_HAL_Driver/Src/stm32h7xx_hal_jpeg.c ****     }
3116:./Libraries/STM32H7xx_HAL_Driver/Src/stm32h7xx_hal_jpeg.c **** 
3117:./Libraries/STM32H7xx_HAL_Driver/Src/stm32h7xx_hal_jpeg.c ****     i += 4UL;
 5896              		.loc 1 3117 7
 5897 00b4 7B6A     		ldr	r3, [r7, #36]
 5898 00b6 0433     		adds	r3, r3, #4
 5899 00b8 7B62     		str	r3, [r7, #36]
3118:./Libraries/STM32H7xx_HAL_Driver/Src/stm32h7xx_hal_jpeg.c ****     *tableAddress = quantRow;
 5900              		.loc 1 3118 19
 5901 00ba 3B69     		ldr	r3, [r7, #16]
 5902 00bc FA69     		ldr	r2, [r7, #28]
 5903 00be 1A60     		str	r2, [r3]
3119:./Libraries/STM32H7xx_HAL_Driver/Src/stm32h7xx_hal_jpeg.c ****     tableAddress ++;
 5904              		.loc 1 3119 18
 5905 00c0 3B69     		ldr	r3, [r7, #16]
 5906 00c2 0433     		adds	r3, r3, #4
 5907 00c4 3B61     		str	r3, [r7, #16]
 5908              	.L242:
3093:./Libraries/STM32H7xx_HAL_Driver/Src/stm32h7xx_hal_jpeg.c ****   {
 5909              		.loc 1 3093 9
 5910 00c6 7B6A     		ldr	r3, [r7, #36]
 5911 00c8 3C2B     		cmp	r3, #60
 5912 00ca C1D9     		bls	.L247
3120:./Libraries/STM32H7xx_HAL_Driver/Src/stm32h7xx_hal_jpeg.c ****   }
3121:./Libraries/STM32H7xx_HAL_Driver/Src/stm32h7xx_hal_jpeg.c **** 
ARM GAS  /tmp/ccXFtjVt.s 			page 161


3122:./Libraries/STM32H7xx_HAL_Driver/Src/stm32h7xx_hal_jpeg.c ****   /* Return function status */
3123:./Libraries/STM32H7xx_HAL_Driver/Src/stm32h7xx_hal_jpeg.c ****   return 0UL;
 5913              		.loc 1 3123 10
 5914 00cc 0023     		movs	r3, #0
 5915              	.L241:
3124:./Libraries/STM32H7xx_HAL_Driver/Src/stm32h7xx_hal_jpeg.c **** }
 5916              		.loc 1 3124 1
 5917 00ce 1846     		mov	r0, r3
 5918 00d0 2C37     		adds	r7, r7, #44
 5919              	.LCFI201:
 5920              		.cfi_def_cfa_offset 4
 5921 00d2 BD46     		mov	sp, r7
 5922              	.LCFI202:
 5923              		.cfi_def_cfa_register 13
 5924              		@ sp needed
 5925 00d4 5DF8047B 		ldr	r7, [sp], #4
 5926              	.LCFI203:
 5927              		.cfi_restore 7
 5928              		.cfi_def_cfa_offset 0
 5929 00d8 7047     		bx	lr
 5930              	.L249:
 5931 00da 00BF     		.align	2
 5932              	.L248:
 5933 00dc 00000000 		.word	JPEG_ZIGZAG_ORDER
 5934 00e0 1F85EB51 		.word	1374389535
 5935              		.cfi_endproc
 5936              	.LFE367:
 5938              		.section	.text.JPEG_SetColorYCBCR,"ax",%progbits
 5939              		.align	1
 5940              		.syntax unified
 5941              		.thumb
 5942              		.thumb_func
 5943              		.fpu fpv5-d16
 5945              	JPEG_SetColorYCBCR:
 5946              	.LFB368:
3125:./Libraries/STM32H7xx_HAL_Driver/Src/stm32h7xx_hal_jpeg.c **** 
3126:./Libraries/STM32H7xx_HAL_Driver/Src/stm32h7xx_hal_jpeg.c **** /**
3127:./Libraries/STM32H7xx_HAL_Driver/Src/stm32h7xx_hal_jpeg.c ****   * @brief  Configure the JPEG registers for YCbCr color space
3128:./Libraries/STM32H7xx_HAL_Driver/Src/stm32h7xx_hal_jpeg.c ****   * @param  hjpeg pointer to a JPEG_HandleTypeDef structure that contains
3129:./Libraries/STM32H7xx_HAL_Driver/Src/stm32h7xx_hal_jpeg.c ****   *         the configuration information for JPEG module
3130:./Libraries/STM32H7xx_HAL_Driver/Src/stm32h7xx_hal_jpeg.c ****   * @retval None
3131:./Libraries/STM32H7xx_HAL_Driver/Src/stm32h7xx_hal_jpeg.c ****   */
3132:./Libraries/STM32H7xx_HAL_Driver/Src/stm32h7xx_hal_jpeg.c **** static void JPEG_SetColorYCBCR(JPEG_HandleTypeDef *hjpeg)
3133:./Libraries/STM32H7xx_HAL_Driver/Src/stm32h7xx_hal_jpeg.c **** {
 5947              		.loc 1 3133 1
 5948              		.cfi_startproc
 5949              		@ args = 0, pretend = 0, frame = 24
 5950              		@ frame_needed = 1, uses_anonymous_args = 0
 5951              		@ link register save eliminated.
 5952 0000 80B4     		push	{r7}
 5953              	.LCFI204:
 5954              		.cfi_def_cfa_offset 4
 5955              		.cfi_offset 7, -4
 5956 0002 87B0     		sub	sp, sp, #28
 5957              	.LCFI205:
 5958              		.cfi_def_cfa_offset 32
 5959 0004 00AF     		add	r7, sp, #0
ARM GAS  /tmp/ccXFtjVt.s 			page 162


 5960              	.LCFI206:
 5961              		.cfi_def_cfa_register 7
 5962 0006 7860     		str	r0, [r7, #4]
3134:./Libraries/STM32H7xx_HAL_Driver/Src/stm32h7xx_hal_jpeg.c ****   uint32_t ySamplingH;
3135:./Libraries/STM32H7xx_HAL_Driver/Src/stm32h7xx_hal_jpeg.c ****   uint32_t ySamplingV;
3136:./Libraries/STM32H7xx_HAL_Driver/Src/stm32h7xx_hal_jpeg.c ****   uint32_t yblockNb;
3137:./Libraries/STM32H7xx_HAL_Driver/Src/stm32h7xx_hal_jpeg.c **** 
3138:./Libraries/STM32H7xx_HAL_Driver/Src/stm32h7xx_hal_jpeg.c ****   /*Set Number of color components to 3*/
3139:./Libraries/STM32H7xx_HAL_Driver/Src/stm32h7xx_hal_jpeg.c ****   hjpeg->Instance->CONFR1 &=  ~JPEG_CONFR1_NF;
 5963              		.loc 1 3139 8
 5964 0008 7B68     		ldr	r3, [r7, #4]
 5965 000a 1B68     		ldr	r3, [r3]
 5966              		.loc 1 3139 27
 5967 000c 5A68     		ldr	r2, [r3, #4]
 5968              		.loc 1 3139 8
 5969 000e 7B68     		ldr	r3, [r7, #4]
 5970 0010 1B68     		ldr	r3, [r3]
 5971              		.loc 1 3139 27
 5972 0012 22F00302 		bic	r2, r2, #3
 5973 0016 5A60     		str	r2, [r3, #4]
3140:./Libraries/STM32H7xx_HAL_Driver/Src/stm32h7xx_hal_jpeg.c ****   hjpeg->Instance->CONFR1 |=  JPEG_CONFR1_NF_1;
 5974              		.loc 1 3140 8
 5975 0018 7B68     		ldr	r3, [r7, #4]
 5976 001a 1B68     		ldr	r3, [r3]
 5977              		.loc 1 3140 27
 5978 001c 5A68     		ldr	r2, [r3, #4]
 5979              		.loc 1 3140 8
 5980 001e 7B68     		ldr	r3, [r7, #4]
 5981 0020 1B68     		ldr	r3, [r3]
 5982              		.loc 1 3140 27
 5983 0022 42F00202 		orr	r2, r2, #2
 5984 0026 5A60     		str	r2, [r3, #4]
3141:./Libraries/STM32H7xx_HAL_Driver/Src/stm32h7xx_hal_jpeg.c **** 
3142:./Libraries/STM32H7xx_HAL_Driver/Src/stm32h7xx_hal_jpeg.c ****   /* compute MCU block size and Y, Cb ,Cr sampling factors*/
3143:./Libraries/STM32H7xx_HAL_Driver/Src/stm32h7xx_hal_jpeg.c ****   if (hjpeg->Conf.ChromaSubsampling == JPEG_420_SUBSAMPLING)
 5985              		.loc 1 3143 18
 5986 0028 7B68     		ldr	r3, [r7, #4]
 5987 002a 9B68     		ldr	r3, [r3, #8]
 5988              		.loc 1 3143 6
 5989 002c 012B     		cmp	r3, #1
 5990 002e 08D1     		bne	.L251
3144:./Libraries/STM32H7xx_HAL_Driver/Src/stm32h7xx_hal_jpeg.c ****   {
3145:./Libraries/STM32H7xx_HAL_Driver/Src/stm32h7xx_hal_jpeg.c ****     ySamplingH  = JPEG_CONFR4_HSF_1;   /* Hs = 2*/
 5991              		.loc 1 3145 17
 5992 0030 4FF40053 		mov	r3, #8192
 5993 0034 7B61     		str	r3, [r7, #20]
3146:./Libraries/STM32H7xx_HAL_Driver/Src/stm32h7xx_hal_jpeg.c ****     ySamplingV  = JPEG_CONFR4_VSF_1;   /* Vs = 2*/
 5994              		.loc 1 3146 17
 5995 0036 4FF40073 		mov	r3, #512
 5996 003a 3B61     		str	r3, [r7, #16]
3147:./Libraries/STM32H7xx_HAL_Driver/Src/stm32h7xx_hal_jpeg.c **** 
3148:./Libraries/STM32H7xx_HAL_Driver/Src/stm32h7xx_hal_jpeg.c ****     yblockNb  = 0x30; /* 4 blocks of 8x8*/
 5997              		.loc 1 3148 15
 5998 003c 3023     		movs	r3, #48
 5999 003e FB60     		str	r3, [r7, #12]
 6000 0040 14E0     		b	.L252
 6001              	.L251:
ARM GAS  /tmp/ccXFtjVt.s 			page 163


3149:./Libraries/STM32H7xx_HAL_Driver/Src/stm32h7xx_hal_jpeg.c ****   }
3150:./Libraries/STM32H7xx_HAL_Driver/Src/stm32h7xx_hal_jpeg.c ****   else if (hjpeg->Conf.ChromaSubsampling == JPEG_422_SUBSAMPLING)
 6002              		.loc 1 3150 23
 6003 0042 7B68     		ldr	r3, [r7, #4]
 6004 0044 9B68     		ldr	r3, [r3, #8]
 6005              		.loc 1 3150 11
 6006 0046 022B     		cmp	r3, #2
 6007 0048 08D1     		bne	.L253
3151:./Libraries/STM32H7xx_HAL_Driver/Src/stm32h7xx_hal_jpeg.c ****   {
3152:./Libraries/STM32H7xx_HAL_Driver/Src/stm32h7xx_hal_jpeg.c ****     ySamplingH  = JPEG_CONFR4_HSF_1;   /* Hs = 2*/
 6008              		.loc 1 3152 17
 6009 004a 4FF40053 		mov	r3, #8192
 6010 004e 7B61     		str	r3, [r7, #20]
3153:./Libraries/STM32H7xx_HAL_Driver/Src/stm32h7xx_hal_jpeg.c ****     ySamplingV  = JPEG_CONFR4_VSF_0;   /* Vs = 1*/
 6011              		.loc 1 3153 17
 6012 0050 4FF48073 		mov	r3, #256
 6013 0054 3B61     		str	r3, [r7, #16]
3154:./Libraries/STM32H7xx_HAL_Driver/Src/stm32h7xx_hal_jpeg.c **** 
3155:./Libraries/STM32H7xx_HAL_Driver/Src/stm32h7xx_hal_jpeg.c ****     yblockNb  = 0x10; /* 2 blocks of 8x8*/
 6014              		.loc 1 3155 15
 6015 0056 1023     		movs	r3, #16
 6016 0058 FB60     		str	r3, [r7, #12]
 6017 005a 07E0     		b	.L252
 6018              	.L253:
3156:./Libraries/STM32H7xx_HAL_Driver/Src/stm32h7xx_hal_jpeg.c ****   }
3157:./Libraries/STM32H7xx_HAL_Driver/Src/stm32h7xx_hal_jpeg.c ****   else /*JPEG_444_SUBSAMPLING and default*/
3158:./Libraries/STM32H7xx_HAL_Driver/Src/stm32h7xx_hal_jpeg.c ****   {
3159:./Libraries/STM32H7xx_HAL_Driver/Src/stm32h7xx_hal_jpeg.c ****     ySamplingH  = JPEG_CONFR4_HSF_0;   /* Hs = 1*/
 6019              		.loc 1 3159 17
 6020 005c 4FF48053 		mov	r3, #4096
 6021 0060 7B61     		str	r3, [r7, #20]
3160:./Libraries/STM32H7xx_HAL_Driver/Src/stm32h7xx_hal_jpeg.c ****     ySamplingV  = JPEG_CONFR4_VSF_0;   /* Vs = 1*/
 6022              		.loc 1 3160 17
 6023 0062 4FF48073 		mov	r3, #256
 6024 0066 3B61     		str	r3, [r7, #16]
3161:./Libraries/STM32H7xx_HAL_Driver/Src/stm32h7xx_hal_jpeg.c **** 
3162:./Libraries/STM32H7xx_HAL_Driver/Src/stm32h7xx_hal_jpeg.c ****     yblockNb  = 0; /* 1 block of 8x8*/
 6025              		.loc 1 3162 15
 6026 0068 0023     		movs	r3, #0
 6027 006a FB60     		str	r3, [r7, #12]
 6028              	.L252:
3163:./Libraries/STM32H7xx_HAL_Driver/Src/stm32h7xx_hal_jpeg.c ****   }
3164:./Libraries/STM32H7xx_HAL_Driver/Src/stm32h7xx_hal_jpeg.c **** 
3165:./Libraries/STM32H7xx_HAL_Driver/Src/stm32h7xx_hal_jpeg.c ****   hjpeg->Instance->CONFR1 &= ~(JPEG_CONFR1_NF | JPEG_CONFR1_NS);
 6029              		.loc 1 3165 8
 6030 006c 7B68     		ldr	r3, [r7, #4]
 6031 006e 1B68     		ldr	r3, [r3]
 6032              		.loc 1 3165 27
 6033 0070 5A68     		ldr	r2, [r3, #4]
 6034              		.loc 1 3165 8
 6035 0072 7B68     		ldr	r3, [r7, #4]
 6036 0074 1B68     		ldr	r3, [r3]
 6037              		.loc 1 3165 27
 6038 0076 22F0C302 		bic	r2, r2, #195
 6039 007a 5A60     		str	r2, [r3, #4]
3166:./Libraries/STM32H7xx_HAL_Driver/Src/stm32h7xx_hal_jpeg.c ****   hjpeg->Instance->CONFR1 |= (JPEG_CONFR1_NF_1 | JPEG_CONFR1_NS_1);
 6040              		.loc 1 3166 8
ARM GAS  /tmp/ccXFtjVt.s 			page 164


 6041 007c 7B68     		ldr	r3, [r7, #4]
 6042 007e 1B68     		ldr	r3, [r3]
 6043              		.loc 1 3166 27
 6044 0080 5A68     		ldr	r2, [r3, #4]
 6045              		.loc 1 3166 8
 6046 0082 7B68     		ldr	r3, [r7, #4]
 6047 0084 1B68     		ldr	r3, [r3]
 6048              		.loc 1 3166 27
 6049 0086 42F08202 		orr	r2, r2, #130
 6050 008a 5A60     		str	r2, [r3, #4]
3167:./Libraries/STM32H7xx_HAL_Driver/Src/stm32h7xx_hal_jpeg.c **** 
3168:./Libraries/STM32H7xx_HAL_Driver/Src/stm32h7xx_hal_jpeg.c ****   /*Reset CONFR4 register*/
3169:./Libraries/STM32H7xx_HAL_Driver/Src/stm32h7xx_hal_jpeg.c ****   hjpeg->Instance->CONFR4 =  0;
 6051              		.loc 1 3169 8
 6052 008c 7B68     		ldr	r3, [r7, #4]
 6053 008e 1B68     		ldr	r3, [r3]
 6054              		.loc 1 3169 27
 6055 0090 0022     		movs	r2, #0
 6056 0092 1A61     		str	r2, [r3, #16]
3170:./Libraries/STM32H7xx_HAL_Driver/Src/stm32h7xx_hal_jpeg.c ****   /*Set Horizental and Vertical  sampling factor , number of blocks , Quantization table and Huffma
3171:./Libraries/STM32H7xx_HAL_Driver/Src/stm32h7xx_hal_jpeg.c ****   hjpeg->Instance->CONFR4 |= (ySamplingH | ySamplingV | (yblockNb & JPEG_CONFR4_NB));
 6057              		.loc 1 3171 8
 6058 0094 7B68     		ldr	r3, [r7, #4]
 6059 0096 1B68     		ldr	r3, [r3]
 6060              		.loc 1 3171 27
 6061 0098 1969     		ldr	r1, [r3, #16]
 6062              		.loc 1 3171 42
 6063 009a 7A69     		ldr	r2, [r7, #20]
 6064 009c 3B69     		ldr	r3, [r7, #16]
 6065 009e 1A43     		orrs	r2, r2, r3
 6066              		.loc 1 3171 67
 6067 00a0 FB68     		ldr	r3, [r7, #12]
 6068 00a2 03F0F003 		and	r3, r3, #240
 6069              		.loc 1 3171 55
 6070 00a6 1A43     		orrs	r2, r2, r3
 6071              		.loc 1 3171 8
 6072 00a8 7B68     		ldr	r3, [r7, #4]
 6073 00aa 1B68     		ldr	r3, [r3]
 6074              		.loc 1 3171 27
 6075 00ac 0A43     		orrs	r2, r2, r1
 6076 00ae 1A61     		str	r2, [r3, #16]
3172:./Libraries/STM32H7xx_HAL_Driver/Src/stm32h7xx_hal_jpeg.c **** 
3173:./Libraries/STM32H7xx_HAL_Driver/Src/stm32h7xx_hal_jpeg.c ****   /*Reset CONFR5 register*/
3174:./Libraries/STM32H7xx_HAL_Driver/Src/stm32h7xx_hal_jpeg.c ****   hjpeg->Instance->CONFR5 =  0;
 6077              		.loc 1 3174 8
 6078 00b0 7B68     		ldr	r3, [r7, #4]
 6079 00b2 1B68     		ldr	r3, [r3]
 6080              		.loc 1 3174 27
 6081 00b4 0022     		movs	r2, #0
 6082 00b6 5A61     		str	r2, [r3, #20]
3175:./Libraries/STM32H7xx_HAL_Driver/Src/stm32h7xx_hal_jpeg.c ****   /*Set Horizental and Vertical  sampling factor , number of blocks , Quantization table and Huffma
3176:./Libraries/STM32H7xx_HAL_Driver/Src/stm32h7xx_hal_jpeg.c ****   hjpeg->Instance->CONFR5 |= (JPEG_CONFR5_HSF_0 | JPEG_CONFR5_VSF_0 | JPEG_CONFR5_QT_0 | JPEG_CONFR
 6083              		.loc 1 3176 8
 6084 00b8 7B68     		ldr	r3, [r7, #4]
 6085 00ba 1B68     		ldr	r3, [r3]
 6086              		.loc 1 3176 27
 6087 00bc 5969     		ldr	r1, [r3, #20]
ARM GAS  /tmp/ccXFtjVt.s 			page 165


 6088              		.loc 1 3176 8
 6089 00be 7B68     		ldr	r3, [r7, #4]
 6090 00c0 1A68     		ldr	r2, [r3]
 6091              		.loc 1 3176 27
 6092 00c2 41F20713 		movw	r3, #4359
 6093 00c6 0B43     		orrs	r3, r3, r1
 6094 00c8 5361     		str	r3, [r2, #20]
3177:./Libraries/STM32H7xx_HAL_Driver/Src/stm32h7xx_hal_jpeg.c **** 
3178:./Libraries/STM32H7xx_HAL_Driver/Src/stm32h7xx_hal_jpeg.c ****   /*Reset CONFR6 register*/
3179:./Libraries/STM32H7xx_HAL_Driver/Src/stm32h7xx_hal_jpeg.c ****   hjpeg->Instance->CONFR6 =  0;
 6095              		.loc 1 3179 8
 6096 00ca 7B68     		ldr	r3, [r7, #4]
 6097 00cc 1B68     		ldr	r3, [r3]
 6098              		.loc 1 3179 27
 6099 00ce 0022     		movs	r2, #0
 6100 00d0 9A61     		str	r2, [r3, #24]
3180:./Libraries/STM32H7xx_HAL_Driver/Src/stm32h7xx_hal_jpeg.c ****   /*Set Horizental and Vertical  sampling factor and number of blocks for component 2*/
3181:./Libraries/STM32H7xx_HAL_Driver/Src/stm32h7xx_hal_jpeg.c ****   /* In YCBCR , by default, both chrominance components (component 1 and component 2) use the same 
3182:./Libraries/STM32H7xx_HAL_Driver/Src/stm32h7xx_hal_jpeg.c ****   /* In YCBCR , both chrominance components (component 1 and component 2) use the same Huffman tabl
3183:./Libraries/STM32H7xx_HAL_Driver/Src/stm32h7xx_hal_jpeg.c ****   hjpeg->Instance->CONFR6 |= (JPEG_CONFR6_HSF_0 | JPEG_CONFR6_VSF_0 | JPEG_CONFR6_QT_0 | JPEG_CONFR
 6101              		.loc 1 3183 8
 6102 00d2 7B68     		ldr	r3, [r7, #4]
 6103 00d4 1B68     		ldr	r3, [r3]
 6104              		.loc 1 3183 27
 6105 00d6 9969     		ldr	r1, [r3, #24]
 6106              		.loc 1 3183 8
 6107 00d8 7B68     		ldr	r3, [r7, #4]
 6108 00da 1A68     		ldr	r2, [r3]
 6109              		.loc 1 3183 27
 6110 00dc 41F20713 		movw	r3, #4359
 6111 00e0 0B43     		orrs	r3, r3, r1
 6112 00e2 9361     		str	r3, [r2, #24]
3184:./Libraries/STM32H7xx_HAL_Driver/Src/stm32h7xx_hal_jpeg.c **** 
3185:./Libraries/STM32H7xx_HAL_Driver/Src/stm32h7xx_hal_jpeg.c **** }
 6113              		.loc 1 3185 1
 6114 00e4 00BF     		nop
 6115 00e6 1C37     		adds	r7, r7, #28
 6116              	.LCFI207:
 6117              		.cfi_def_cfa_offset 4
 6118 00e8 BD46     		mov	sp, r7
 6119              	.LCFI208:
 6120              		.cfi_def_cfa_register 13
 6121              		@ sp needed
 6122 00ea 5DF8047B 		ldr	r7, [sp], #4
 6123              	.LCFI209:
 6124              		.cfi_restore 7
 6125              		.cfi_def_cfa_offset 0
 6126 00ee 7047     		bx	lr
 6127              		.cfi_endproc
 6128              	.LFE368:
 6130              		.section	.text.JPEG_SetColorGrayScale,"ax",%progbits
 6131              		.align	1
 6132              		.syntax unified
 6133              		.thumb
 6134              		.thumb_func
 6135              		.fpu fpv5-d16
 6137              	JPEG_SetColorGrayScale:
ARM GAS  /tmp/ccXFtjVt.s 			page 166


 6138              	.LFB369:
3186:./Libraries/STM32H7xx_HAL_Driver/Src/stm32h7xx_hal_jpeg.c **** 
3187:./Libraries/STM32H7xx_HAL_Driver/Src/stm32h7xx_hal_jpeg.c **** /**
3188:./Libraries/STM32H7xx_HAL_Driver/Src/stm32h7xx_hal_jpeg.c ****   * @brief  Configure the JPEG registers for GrayScale color space
3189:./Libraries/STM32H7xx_HAL_Driver/Src/stm32h7xx_hal_jpeg.c ****   * @param  hjpeg pointer to a JPEG_HandleTypeDef structure that contains
3190:./Libraries/STM32H7xx_HAL_Driver/Src/stm32h7xx_hal_jpeg.c ****   *         the configuration information for JPEG module
3191:./Libraries/STM32H7xx_HAL_Driver/Src/stm32h7xx_hal_jpeg.c ****   * @retval None
3192:./Libraries/STM32H7xx_HAL_Driver/Src/stm32h7xx_hal_jpeg.c ****   */
3193:./Libraries/STM32H7xx_HAL_Driver/Src/stm32h7xx_hal_jpeg.c **** static void JPEG_SetColorGrayScale(JPEG_HandleTypeDef *hjpeg)
3194:./Libraries/STM32H7xx_HAL_Driver/Src/stm32h7xx_hal_jpeg.c **** {
 6139              		.loc 1 3194 1
 6140              		.cfi_startproc
 6141              		@ args = 0, pretend = 0, frame = 8
 6142              		@ frame_needed = 1, uses_anonymous_args = 0
 6143              		@ link register save eliminated.
 6144 0000 80B4     		push	{r7}
 6145              	.LCFI210:
 6146              		.cfi_def_cfa_offset 4
 6147              		.cfi_offset 7, -4
 6148 0002 83B0     		sub	sp, sp, #12
 6149              	.LCFI211:
 6150              		.cfi_def_cfa_offset 16
 6151 0004 00AF     		add	r7, sp, #0
 6152              	.LCFI212:
 6153              		.cfi_def_cfa_register 7
 6154 0006 7860     		str	r0, [r7, #4]
3195:./Libraries/STM32H7xx_HAL_Driver/Src/stm32h7xx_hal_jpeg.c ****   /*Set Number of color components to 1*/
3196:./Libraries/STM32H7xx_HAL_Driver/Src/stm32h7xx_hal_jpeg.c ****   hjpeg->Instance->CONFR1 &= ~(JPEG_CONFR1_NF | JPEG_CONFR1_NS);
 6155              		.loc 1 3196 8
 6156 0008 7B68     		ldr	r3, [r7, #4]
 6157 000a 1B68     		ldr	r3, [r3]
 6158              		.loc 1 3196 27
 6159 000c 5A68     		ldr	r2, [r3, #4]
 6160              		.loc 1 3196 8
 6161 000e 7B68     		ldr	r3, [r7, #4]
 6162 0010 1B68     		ldr	r3, [r3]
 6163              		.loc 1 3196 27
 6164 0012 22F0C302 		bic	r2, r2, #195
 6165 0016 5A60     		str	r2, [r3, #4]
3197:./Libraries/STM32H7xx_HAL_Driver/Src/stm32h7xx_hal_jpeg.c **** 
3198:./Libraries/STM32H7xx_HAL_Driver/Src/stm32h7xx_hal_jpeg.c ****   /*in GrayScale use 1 single Quantization table (Table 0)*/
3199:./Libraries/STM32H7xx_HAL_Driver/Src/stm32h7xx_hal_jpeg.c ****   /*in GrayScale use only one couple of AC/DC huffman table (table 0)*/
3200:./Libraries/STM32H7xx_HAL_Driver/Src/stm32h7xx_hal_jpeg.c **** 
3201:./Libraries/STM32H7xx_HAL_Driver/Src/stm32h7xx_hal_jpeg.c ****   /*Reset CONFR4 register*/
3202:./Libraries/STM32H7xx_HAL_Driver/Src/stm32h7xx_hal_jpeg.c ****   hjpeg->Instance->CONFR4 =  0;
 6166              		.loc 1 3202 8
 6167 0018 7B68     		ldr	r3, [r7, #4]
 6168 001a 1B68     		ldr	r3, [r3]
 6169              		.loc 1 3202 27
 6170 001c 0022     		movs	r2, #0
 6171 001e 1A61     		str	r2, [r3, #16]
3203:./Libraries/STM32H7xx_HAL_Driver/Src/stm32h7xx_hal_jpeg.c ****   /*Set Horizental and Vertical  sampling factor , number of blocks , Quantization table and Huffma
3204:./Libraries/STM32H7xx_HAL_Driver/Src/stm32h7xx_hal_jpeg.c ****   hjpeg->Instance->CONFR4 |=  JPEG_CONFR4_HSF_0 | JPEG_CONFR4_VSF_0 ;
 6172              		.loc 1 3204 8
 6173 0020 7B68     		ldr	r3, [r7, #4]
 6174 0022 1B68     		ldr	r3, [r3]
 6175              		.loc 1 3204 27
ARM GAS  /tmp/ccXFtjVt.s 			page 167


 6176 0024 1A69     		ldr	r2, [r3, #16]
 6177              		.loc 1 3204 8
 6178 0026 7B68     		ldr	r3, [r7, #4]
 6179 0028 1B68     		ldr	r3, [r3]
 6180              		.loc 1 3204 27
 6181 002a 42F48852 		orr	r2, r2, #4352
 6182 002e 1A61     		str	r2, [r3, #16]
3205:./Libraries/STM32H7xx_HAL_Driver/Src/stm32h7xx_hal_jpeg.c **** }
 6183              		.loc 1 3205 1
 6184 0030 00BF     		nop
 6185 0032 0C37     		adds	r7, r7, #12
 6186              	.LCFI213:
 6187              		.cfi_def_cfa_offset 4
 6188 0034 BD46     		mov	sp, r7
 6189              	.LCFI214:
 6190              		.cfi_def_cfa_register 13
 6191              		@ sp needed
 6192 0036 5DF8047B 		ldr	r7, [sp], #4
 6193              	.LCFI215:
 6194              		.cfi_restore 7
 6195              		.cfi_def_cfa_offset 0
 6196 003a 7047     		bx	lr
 6197              		.cfi_endproc
 6198              	.LFE369:
 6200              		.section	.text.JPEG_SetColorCMYK,"ax",%progbits
 6201              		.align	1
 6202              		.syntax unified
 6203              		.thumb
 6204              		.thumb_func
 6205              		.fpu fpv5-d16
 6207              	JPEG_SetColorCMYK:
 6208              	.LFB370:
3206:./Libraries/STM32H7xx_HAL_Driver/Src/stm32h7xx_hal_jpeg.c **** 
3207:./Libraries/STM32H7xx_HAL_Driver/Src/stm32h7xx_hal_jpeg.c **** /**
3208:./Libraries/STM32H7xx_HAL_Driver/Src/stm32h7xx_hal_jpeg.c ****   * @brief  Configure the JPEG registers for CMYK color space
3209:./Libraries/STM32H7xx_HAL_Driver/Src/stm32h7xx_hal_jpeg.c ****   * @param  hjpeg pointer to a JPEG_HandleTypeDef structure that contains
3210:./Libraries/STM32H7xx_HAL_Driver/Src/stm32h7xx_hal_jpeg.c ****   *         the configuration information for JPEG module
3211:./Libraries/STM32H7xx_HAL_Driver/Src/stm32h7xx_hal_jpeg.c ****   * @retval None
3212:./Libraries/STM32H7xx_HAL_Driver/Src/stm32h7xx_hal_jpeg.c ****   */
3213:./Libraries/STM32H7xx_HAL_Driver/Src/stm32h7xx_hal_jpeg.c **** static void JPEG_SetColorCMYK(JPEG_HandleTypeDef *hjpeg)
3214:./Libraries/STM32H7xx_HAL_Driver/Src/stm32h7xx_hal_jpeg.c **** {
 6209              		.loc 1 3214 1
 6210              		.cfi_startproc
 6211              		@ args = 0, pretend = 0, frame = 24
 6212              		@ frame_needed = 1, uses_anonymous_args = 0
 6213              		@ link register save eliminated.
 6214 0000 80B4     		push	{r7}
 6215              	.LCFI216:
 6216              		.cfi_def_cfa_offset 4
 6217              		.cfi_offset 7, -4
 6218 0002 87B0     		sub	sp, sp, #28
 6219              	.LCFI217:
 6220              		.cfi_def_cfa_offset 32
 6221 0004 00AF     		add	r7, sp, #0
 6222              	.LCFI218:
 6223              		.cfi_def_cfa_register 7
 6224 0006 7860     		str	r0, [r7, #4]
ARM GAS  /tmp/ccXFtjVt.s 			page 168


3215:./Libraries/STM32H7xx_HAL_Driver/Src/stm32h7xx_hal_jpeg.c ****   uint32_t ySamplingH;
3216:./Libraries/STM32H7xx_HAL_Driver/Src/stm32h7xx_hal_jpeg.c ****   uint32_t ySamplingV;
3217:./Libraries/STM32H7xx_HAL_Driver/Src/stm32h7xx_hal_jpeg.c ****   uint32_t yblockNb;
3218:./Libraries/STM32H7xx_HAL_Driver/Src/stm32h7xx_hal_jpeg.c **** 
3219:./Libraries/STM32H7xx_HAL_Driver/Src/stm32h7xx_hal_jpeg.c ****   /*Set Number of color components to 4*/
3220:./Libraries/STM32H7xx_HAL_Driver/Src/stm32h7xx_hal_jpeg.c ****   hjpeg->Instance->CONFR1 |= (JPEG_CONFR1_NF | JPEG_CONFR1_NS);
 6225              		.loc 1 3220 8
 6226 0008 7B68     		ldr	r3, [r7, #4]
 6227 000a 1B68     		ldr	r3, [r3]
 6228              		.loc 1 3220 27
 6229 000c 5A68     		ldr	r2, [r3, #4]
 6230              		.loc 1 3220 8
 6231 000e 7B68     		ldr	r3, [r7, #4]
 6232 0010 1B68     		ldr	r3, [r3]
 6233              		.loc 1 3220 27
 6234 0012 42F0C302 		orr	r2, r2, #195
 6235 0016 5A60     		str	r2, [r3, #4]
3221:./Libraries/STM32H7xx_HAL_Driver/Src/stm32h7xx_hal_jpeg.c **** 
3222:./Libraries/STM32H7xx_HAL_Driver/Src/stm32h7xx_hal_jpeg.c ****   /* compute MCU block size and Y, Cb ,Cr sampling factors*/
3223:./Libraries/STM32H7xx_HAL_Driver/Src/stm32h7xx_hal_jpeg.c ****   if (hjpeg->Conf.ChromaSubsampling == JPEG_420_SUBSAMPLING)
 6236              		.loc 1 3223 18
 6237 0018 7B68     		ldr	r3, [r7, #4]
 6238 001a 9B68     		ldr	r3, [r3, #8]
 6239              		.loc 1 3223 6
 6240 001c 012B     		cmp	r3, #1
 6241 001e 08D1     		bne	.L256
3224:./Libraries/STM32H7xx_HAL_Driver/Src/stm32h7xx_hal_jpeg.c ****   {
3225:./Libraries/STM32H7xx_HAL_Driver/Src/stm32h7xx_hal_jpeg.c ****     ySamplingH  = JPEG_CONFR4_HSF_1;   /* Hs = 2*/
 6242              		.loc 1 3225 17
 6243 0020 4FF40053 		mov	r3, #8192
 6244 0024 7B61     		str	r3, [r7, #20]
3226:./Libraries/STM32H7xx_HAL_Driver/Src/stm32h7xx_hal_jpeg.c ****     ySamplingV  = JPEG_CONFR4_VSF_1;   /* Vs = 2*/
 6245              		.loc 1 3226 17
 6246 0026 4FF40073 		mov	r3, #512
 6247 002a 3B61     		str	r3, [r7, #16]
3227:./Libraries/STM32H7xx_HAL_Driver/Src/stm32h7xx_hal_jpeg.c **** 
3228:./Libraries/STM32H7xx_HAL_Driver/Src/stm32h7xx_hal_jpeg.c ****     yblockNb  = 0x30; /* 4 blocks of 8x8*/
 6248              		.loc 1 3228 15
 6249 002c 3023     		movs	r3, #48
 6250 002e FB60     		str	r3, [r7, #12]
 6251 0030 14E0     		b	.L257
 6252              	.L256:
3229:./Libraries/STM32H7xx_HAL_Driver/Src/stm32h7xx_hal_jpeg.c ****   }
3230:./Libraries/STM32H7xx_HAL_Driver/Src/stm32h7xx_hal_jpeg.c ****   else if (hjpeg->Conf.ChromaSubsampling == JPEG_422_SUBSAMPLING)
 6253              		.loc 1 3230 23
 6254 0032 7B68     		ldr	r3, [r7, #4]
 6255 0034 9B68     		ldr	r3, [r3, #8]
 6256              		.loc 1 3230 11
 6257 0036 022B     		cmp	r3, #2
 6258 0038 08D1     		bne	.L258
3231:./Libraries/STM32H7xx_HAL_Driver/Src/stm32h7xx_hal_jpeg.c ****   {
3232:./Libraries/STM32H7xx_HAL_Driver/Src/stm32h7xx_hal_jpeg.c ****     ySamplingH  = JPEG_CONFR4_HSF_1;   /* Hs = 2*/
 6259              		.loc 1 3232 17
 6260 003a 4FF40053 		mov	r3, #8192
 6261 003e 7B61     		str	r3, [r7, #20]
3233:./Libraries/STM32H7xx_HAL_Driver/Src/stm32h7xx_hal_jpeg.c ****     ySamplingV  = JPEG_CONFR4_VSF_0;   /* Vs = 1*/
 6262              		.loc 1 3233 17
ARM GAS  /tmp/ccXFtjVt.s 			page 169


 6263 0040 4FF48073 		mov	r3, #256
 6264 0044 3B61     		str	r3, [r7, #16]
3234:./Libraries/STM32H7xx_HAL_Driver/Src/stm32h7xx_hal_jpeg.c **** 
3235:./Libraries/STM32H7xx_HAL_Driver/Src/stm32h7xx_hal_jpeg.c ****     yblockNb  = 0x10; /* 2 blocks of 8x8*/
 6265              		.loc 1 3235 15
 6266 0046 1023     		movs	r3, #16
 6267 0048 FB60     		str	r3, [r7, #12]
 6268 004a 07E0     		b	.L257
 6269              	.L258:
3236:./Libraries/STM32H7xx_HAL_Driver/Src/stm32h7xx_hal_jpeg.c ****   }
3237:./Libraries/STM32H7xx_HAL_Driver/Src/stm32h7xx_hal_jpeg.c ****   else /*JPEG_444_SUBSAMPLING and default*/
3238:./Libraries/STM32H7xx_HAL_Driver/Src/stm32h7xx_hal_jpeg.c ****   {
3239:./Libraries/STM32H7xx_HAL_Driver/Src/stm32h7xx_hal_jpeg.c ****     ySamplingH  = JPEG_CONFR4_HSF_0;   /* Hs = 1*/
 6270              		.loc 1 3239 17
 6271 004c 4FF48053 		mov	r3, #4096
 6272 0050 7B61     		str	r3, [r7, #20]
3240:./Libraries/STM32H7xx_HAL_Driver/Src/stm32h7xx_hal_jpeg.c ****     ySamplingV  = JPEG_CONFR4_VSF_0;   /* Vs = 1*/
 6273              		.loc 1 3240 17
 6274 0052 4FF48073 		mov	r3, #256
 6275 0056 3B61     		str	r3, [r7, #16]
3241:./Libraries/STM32H7xx_HAL_Driver/Src/stm32h7xx_hal_jpeg.c **** 
3242:./Libraries/STM32H7xx_HAL_Driver/Src/stm32h7xx_hal_jpeg.c ****     yblockNb  = 0; /* 1 block of 8x8*/
 6276              		.loc 1 3242 15
 6277 0058 0023     		movs	r3, #0
 6278 005a FB60     		str	r3, [r7, #12]
 6279              	.L257:
3243:./Libraries/STM32H7xx_HAL_Driver/Src/stm32h7xx_hal_jpeg.c ****   }
3244:./Libraries/STM32H7xx_HAL_Driver/Src/stm32h7xx_hal_jpeg.c **** 
3245:./Libraries/STM32H7xx_HAL_Driver/Src/stm32h7xx_hal_jpeg.c ****   /*Reset CONFR4 register*/
3246:./Libraries/STM32H7xx_HAL_Driver/Src/stm32h7xx_hal_jpeg.c ****   hjpeg->Instance->CONFR4 =  0;
 6280              		.loc 1 3246 8
 6281 005c 7B68     		ldr	r3, [r7, #4]
 6282 005e 1B68     		ldr	r3, [r3]
 6283              		.loc 1 3246 27
 6284 0060 0022     		movs	r2, #0
 6285 0062 1A61     		str	r2, [r3, #16]
3247:./Libraries/STM32H7xx_HAL_Driver/Src/stm32h7xx_hal_jpeg.c ****   /*Set Horizental and Vertical  sampling factor , number of blocks , Quantization table and Huffma
3248:./Libraries/STM32H7xx_HAL_Driver/Src/stm32h7xx_hal_jpeg.c ****   hjpeg->Instance->CONFR4 |= (ySamplingH | ySamplingV | (yblockNb & JPEG_CONFR4_NB));
 6286              		.loc 1 3248 8
 6287 0064 7B68     		ldr	r3, [r7, #4]
 6288 0066 1B68     		ldr	r3, [r3]
 6289              		.loc 1 3248 27
 6290 0068 1969     		ldr	r1, [r3, #16]
 6291              		.loc 1 3248 42
 6292 006a 7A69     		ldr	r2, [r7, #20]
 6293 006c 3B69     		ldr	r3, [r7, #16]
 6294 006e 1A43     		orrs	r2, r2, r3
 6295              		.loc 1 3248 67
 6296 0070 FB68     		ldr	r3, [r7, #12]
 6297 0072 03F0F003 		and	r3, r3, #240
 6298              		.loc 1 3248 55
 6299 0076 1A43     		orrs	r2, r2, r3
 6300              		.loc 1 3248 8
 6301 0078 7B68     		ldr	r3, [r7, #4]
 6302 007a 1B68     		ldr	r3, [r3]
 6303              		.loc 1 3248 27
 6304 007c 0A43     		orrs	r2, r2, r1
ARM GAS  /tmp/ccXFtjVt.s 			page 170


 6305 007e 1A61     		str	r2, [r3, #16]
3249:./Libraries/STM32H7xx_HAL_Driver/Src/stm32h7xx_hal_jpeg.c **** 
3250:./Libraries/STM32H7xx_HAL_Driver/Src/stm32h7xx_hal_jpeg.c ****   /*Reset CONFR5 register*/
3251:./Libraries/STM32H7xx_HAL_Driver/Src/stm32h7xx_hal_jpeg.c ****   hjpeg->Instance->CONFR5 =  0;
 6306              		.loc 1 3251 8
 6307 0080 7B68     		ldr	r3, [r7, #4]
 6308 0082 1B68     		ldr	r3, [r3]
 6309              		.loc 1 3251 27
 6310 0084 0022     		movs	r2, #0
 6311 0086 5A61     		str	r2, [r3, #20]
3252:./Libraries/STM32H7xx_HAL_Driver/Src/stm32h7xx_hal_jpeg.c ****   /*Set Horizental and Vertical  sampling factor , number of blocks , Quantization table and Huffma
3253:./Libraries/STM32H7xx_HAL_Driver/Src/stm32h7xx_hal_jpeg.c ****   hjpeg->Instance->CONFR5 |= (JPEG_CONFR5_HSF_0 | JPEG_CONFR5_VSF_0);
 6312              		.loc 1 3253 8
 6313 0088 7B68     		ldr	r3, [r7, #4]
 6314 008a 1B68     		ldr	r3, [r3]
 6315              		.loc 1 3253 27
 6316 008c 5A69     		ldr	r2, [r3, #20]
 6317              		.loc 1 3253 8
 6318 008e 7B68     		ldr	r3, [r7, #4]
 6319 0090 1B68     		ldr	r3, [r3]
 6320              		.loc 1 3253 27
 6321 0092 42F48852 		orr	r2, r2, #4352
 6322 0096 5A61     		str	r2, [r3, #20]
3254:./Libraries/STM32H7xx_HAL_Driver/Src/stm32h7xx_hal_jpeg.c **** 
3255:./Libraries/STM32H7xx_HAL_Driver/Src/stm32h7xx_hal_jpeg.c ****   /*Reset CONFR6 register*/
3256:./Libraries/STM32H7xx_HAL_Driver/Src/stm32h7xx_hal_jpeg.c ****   hjpeg->Instance->CONFR6 =  0;
 6323              		.loc 1 3256 8
 6324 0098 7B68     		ldr	r3, [r7, #4]
 6325 009a 1B68     		ldr	r3, [r3]
 6326              		.loc 1 3256 27
 6327 009c 0022     		movs	r2, #0
 6328 009e 9A61     		str	r2, [r3, #24]
3257:./Libraries/STM32H7xx_HAL_Driver/Src/stm32h7xx_hal_jpeg.c ****   /*Set Horizental and Vertical  sampling factor , number of blocks , Quantization table and Huffma
3258:./Libraries/STM32H7xx_HAL_Driver/Src/stm32h7xx_hal_jpeg.c ****   hjpeg->Instance->CONFR6 |= (JPEG_CONFR6_HSF_0 | JPEG_CONFR6_VSF_0);
 6329              		.loc 1 3258 8
 6330 00a0 7B68     		ldr	r3, [r7, #4]
 6331 00a2 1B68     		ldr	r3, [r3]
 6332              		.loc 1 3258 27
 6333 00a4 9A69     		ldr	r2, [r3, #24]
 6334              		.loc 1 3258 8
 6335 00a6 7B68     		ldr	r3, [r7, #4]
 6336 00a8 1B68     		ldr	r3, [r3]
 6337              		.loc 1 3258 27
 6338 00aa 42F48852 		orr	r2, r2, #4352
 6339 00ae 9A61     		str	r2, [r3, #24]
3259:./Libraries/STM32H7xx_HAL_Driver/Src/stm32h7xx_hal_jpeg.c **** 
3260:./Libraries/STM32H7xx_HAL_Driver/Src/stm32h7xx_hal_jpeg.c ****   /*Reset CONFR7 register*/
3261:./Libraries/STM32H7xx_HAL_Driver/Src/stm32h7xx_hal_jpeg.c ****   hjpeg->Instance->CONFR7 =  0;
 6340              		.loc 1 3261 8
 6341 00b0 7B68     		ldr	r3, [r7, #4]
 6342 00b2 1B68     		ldr	r3, [r3]
 6343              		.loc 1 3261 27
 6344 00b4 0022     		movs	r2, #0
 6345 00b6 DA61     		str	r2, [r3, #28]
3262:./Libraries/STM32H7xx_HAL_Driver/Src/stm32h7xx_hal_jpeg.c ****   /*Set Horizental and Vertical  sampling factor , number of blocks , Quantization table and Huffma
3263:./Libraries/STM32H7xx_HAL_Driver/Src/stm32h7xx_hal_jpeg.c ****   hjpeg->Instance->CONFR7 |= (JPEG_CONFR7_HSF_0 | JPEG_CONFR7_VSF_0);
 6346              		.loc 1 3263 8
ARM GAS  /tmp/ccXFtjVt.s 			page 171


 6347 00b8 7B68     		ldr	r3, [r7, #4]
 6348 00ba 1B68     		ldr	r3, [r3]
 6349              		.loc 1 3263 27
 6350 00bc DA69     		ldr	r2, [r3, #28]
 6351              		.loc 1 3263 8
 6352 00be 7B68     		ldr	r3, [r7, #4]
 6353 00c0 1B68     		ldr	r3, [r3]
 6354              		.loc 1 3263 27
 6355 00c2 42F48852 		orr	r2, r2, #4352
 6356 00c6 DA61     		str	r2, [r3, #28]
3264:./Libraries/STM32H7xx_HAL_Driver/Src/stm32h7xx_hal_jpeg.c **** }
 6357              		.loc 1 3264 1
 6358 00c8 00BF     		nop
 6359 00ca 1C37     		adds	r7, r7, #28
 6360              	.LCFI219:
 6361              		.cfi_def_cfa_offset 4
 6362 00cc BD46     		mov	sp, r7
 6363              	.LCFI220:
 6364              		.cfi_def_cfa_register 13
 6365              		@ sp needed
 6366 00ce 5DF8047B 		ldr	r7, [sp], #4
 6367              	.LCFI221:
 6368              		.cfi_restore 7
 6369              		.cfi_def_cfa_offset 0
 6370 00d2 7047     		bx	lr
 6371              		.cfi_endproc
 6372              	.LFE370:
 6374              		.section	.text.JPEG_Init_Process,"ax",%progbits
 6375              		.align	1
 6376              		.syntax unified
 6377              		.thumb
 6378              		.thumb_func
 6379              		.fpu fpv5-d16
 6381              	JPEG_Init_Process:
 6382              	.LFB371:
3265:./Libraries/STM32H7xx_HAL_Driver/Src/stm32h7xx_hal_jpeg.c **** 
3266:./Libraries/STM32H7xx_HAL_Driver/Src/stm32h7xx_hal_jpeg.c **** /**
3267:./Libraries/STM32H7xx_HAL_Driver/Src/stm32h7xx_hal_jpeg.c ****   * @brief  Init the JPEG encoding/decoding process in case of Polling or Interrupt and DMA
3268:./Libraries/STM32H7xx_HAL_Driver/Src/stm32h7xx_hal_jpeg.c ****   * @param  hjpeg pointer to a JPEG_HandleTypeDef structure that contains
3269:./Libraries/STM32H7xx_HAL_Driver/Src/stm32h7xx_hal_jpeg.c ****   *         the configuration information for JPEG module
3270:./Libraries/STM32H7xx_HAL_Driver/Src/stm32h7xx_hal_jpeg.c ****   * @retval None
3271:./Libraries/STM32H7xx_HAL_Driver/Src/stm32h7xx_hal_jpeg.c ****   */
3272:./Libraries/STM32H7xx_HAL_Driver/Src/stm32h7xx_hal_jpeg.c **** static void JPEG_Init_Process(JPEG_HandleTypeDef *hjpeg)
3273:./Libraries/STM32H7xx_HAL_Driver/Src/stm32h7xx_hal_jpeg.c **** {
 6383              		.loc 1 3273 1
 6384              		.cfi_startproc
 6385              		@ args = 0, pretend = 0, frame = 8
 6386              		@ frame_needed = 1, uses_anonymous_args = 0
 6387              		@ link register save eliminated.
 6388 0000 80B4     		push	{r7}
 6389              	.LCFI222:
 6390              		.cfi_def_cfa_offset 4
 6391              		.cfi_offset 7, -4
 6392 0002 83B0     		sub	sp, sp, #12
 6393              	.LCFI223:
 6394              		.cfi_def_cfa_offset 16
 6395 0004 00AF     		add	r7, sp, #0
ARM GAS  /tmp/ccXFtjVt.s 			page 172


 6396              	.LCFI224:
 6397              		.cfi_def_cfa_register 7
 6398 0006 7860     		str	r0, [r7, #4]
3274:./Libraries/STM32H7xx_HAL_Driver/Src/stm32h7xx_hal_jpeg.c ****   /*Reset pause*/
3275:./Libraries/STM32H7xx_HAL_Driver/Src/stm32h7xx_hal_jpeg.c ****   hjpeg->Context &= (~(JPEG_CONTEXT_PAUSE_INPUT | JPEG_CONTEXT_PAUSE_OUTPUT));
 6399              		.loc 1 3275 18
 6400 0008 7B68     		ldr	r3, [r7, #4]
 6401 000a 5B6D     		ldr	r3, [r3, #84]
 6402 000c 23F44052 		bic	r2, r3, #12288
 6403 0010 7B68     		ldr	r3, [r7, #4]
 6404 0012 5A65     		str	r2, [r3, #84]
3276:./Libraries/STM32H7xx_HAL_Driver/Src/stm32h7xx_hal_jpeg.c **** 
3277:./Libraries/STM32H7xx_HAL_Driver/Src/stm32h7xx_hal_jpeg.c ****   if ((hjpeg->Context & JPEG_CONTEXT_OPERATION_MASK) == JPEG_CONTEXT_DECODE)
 6405              		.loc 1 3277 13
 6406 0014 7B68     		ldr	r3, [r7, #4]
 6407 0016 5B6D     		ldr	r3, [r3, #84]
 6408              		.loc 1 3277 23
 6409 0018 03F00303 		and	r3, r3, #3
 6410              		.loc 1 3277 6
 6411 001c 022B     		cmp	r3, #2
 6412 001e 08D1     		bne	.L260
3278:./Libraries/STM32H7xx_HAL_Driver/Src/stm32h7xx_hal_jpeg.c ****   {
3279:./Libraries/STM32H7xx_HAL_Driver/Src/stm32h7xx_hal_jpeg.c ****     /*Set JPEG Codec to Decoding mode */
3280:./Libraries/STM32H7xx_HAL_Driver/Src/stm32h7xx_hal_jpeg.c ****     hjpeg->Instance->CONFR1 |= JPEG_CONFR1_DE;
 6413              		.loc 1 3280 10
 6414 0020 7B68     		ldr	r3, [r7, #4]
 6415 0022 1B68     		ldr	r3, [r3]
 6416              		.loc 1 3280 29
 6417 0024 5A68     		ldr	r2, [r3, #4]
 6418              		.loc 1 3280 10
 6419 0026 7B68     		ldr	r3, [r7, #4]
 6420 0028 1B68     		ldr	r3, [r3]
 6421              		.loc 1 3280 29
 6422 002a 42F00802 		orr	r2, r2, #8
 6423 002e 5A60     		str	r2, [r3, #4]
 6424 0030 07E0     		b	.L261
 6425              	.L260:
3281:./Libraries/STM32H7xx_HAL_Driver/Src/stm32h7xx_hal_jpeg.c ****   }
3282:./Libraries/STM32H7xx_HAL_Driver/Src/stm32h7xx_hal_jpeg.c ****   else /* JPEG_CONTEXT_ENCODE */
3283:./Libraries/STM32H7xx_HAL_Driver/Src/stm32h7xx_hal_jpeg.c ****   {
3284:./Libraries/STM32H7xx_HAL_Driver/Src/stm32h7xx_hal_jpeg.c ****     /*Set JPEG Codec to Encoding mode */
3285:./Libraries/STM32H7xx_HAL_Driver/Src/stm32h7xx_hal_jpeg.c ****     hjpeg->Instance->CONFR1 &= ~JPEG_CONFR1_DE;
 6426              		.loc 1 3285 10
 6427 0032 7B68     		ldr	r3, [r7, #4]
 6428 0034 1B68     		ldr	r3, [r3]
 6429              		.loc 1 3285 29
 6430 0036 5A68     		ldr	r2, [r3, #4]
 6431              		.loc 1 3285 10
 6432 0038 7B68     		ldr	r3, [r7, #4]
 6433 003a 1B68     		ldr	r3, [r3]
 6434              		.loc 1 3285 29
 6435 003c 22F00802 		bic	r2, r2, #8
 6436 0040 5A60     		str	r2, [r3, #4]
 6437              	.L261:
3286:./Libraries/STM32H7xx_HAL_Driver/Src/stm32h7xx_hal_jpeg.c ****   }
3287:./Libraries/STM32H7xx_HAL_Driver/Src/stm32h7xx_hal_jpeg.c **** 
3288:./Libraries/STM32H7xx_HAL_Driver/Src/stm32h7xx_hal_jpeg.c ****   /*Stop JPEG processing */
ARM GAS  /tmp/ccXFtjVt.s 			page 173


3289:./Libraries/STM32H7xx_HAL_Driver/Src/stm32h7xx_hal_jpeg.c ****   hjpeg->Instance->CONFR0 &=  ~JPEG_CONFR0_START;
 6438              		.loc 1 3289 8
 6439 0042 7B68     		ldr	r3, [r7, #4]
 6440 0044 1B68     		ldr	r3, [r3]
 6441              		.loc 1 3289 27
 6442 0046 1A68     		ldr	r2, [r3]
 6443              		.loc 1 3289 8
 6444 0048 7B68     		ldr	r3, [r7, #4]
 6445 004a 1B68     		ldr	r3, [r3]
 6446              		.loc 1 3289 27
 6447 004c 22F00102 		bic	r2, r2, #1
 6448 0050 1A60     		str	r2, [r3]
3290:./Libraries/STM32H7xx_HAL_Driver/Src/stm32h7xx_hal_jpeg.c **** 
3291:./Libraries/STM32H7xx_HAL_Driver/Src/stm32h7xx_hal_jpeg.c ****   /* Disable All Interrupts */
3292:./Libraries/STM32H7xx_HAL_Driver/Src/stm32h7xx_hal_jpeg.c ****   __HAL_JPEG_DISABLE_IT(hjpeg, JPEG_INTERRUPT_MASK);
 6449              		.loc 1 3292 3
 6450 0052 7B68     		ldr	r3, [r7, #4]
 6451 0054 1B68     		ldr	r3, [r3]
 6452 0056 1A6B     		ldr	r2, [r3, #48]
 6453 0058 7B68     		ldr	r3, [r7, #4]
 6454 005a 1B68     		ldr	r3, [r3]
 6455 005c 22F07E02 		bic	r2, r2, #126
 6456 0060 1A63     		str	r2, [r3, #48]
3293:./Libraries/STM32H7xx_HAL_Driver/Src/stm32h7xx_hal_jpeg.c **** 
3294:./Libraries/STM32H7xx_HAL_Driver/Src/stm32h7xx_hal_jpeg.c ****   /* Flush input and output FIFOs*/
3295:./Libraries/STM32H7xx_HAL_Driver/Src/stm32h7xx_hal_jpeg.c ****   hjpeg->Instance->CR |= JPEG_CR_IFF;
 6457              		.loc 1 3295 8
 6458 0062 7B68     		ldr	r3, [r7, #4]
 6459 0064 1B68     		ldr	r3, [r3]
 6460              		.loc 1 3295 23
 6461 0066 1A6B     		ldr	r2, [r3, #48]
 6462              		.loc 1 3295 8
 6463 0068 7B68     		ldr	r3, [r7, #4]
 6464 006a 1B68     		ldr	r3, [r3]
 6465              		.loc 1 3295 23
 6466 006c 42F40052 		orr	r2, r2, #8192
 6467 0070 1A63     		str	r2, [r3, #48]
3296:./Libraries/STM32H7xx_HAL_Driver/Src/stm32h7xx_hal_jpeg.c ****   hjpeg->Instance->CR |= JPEG_CR_OFF;
 6468              		.loc 1 3296 8
 6469 0072 7B68     		ldr	r3, [r7, #4]
 6470 0074 1B68     		ldr	r3, [r3]
 6471              		.loc 1 3296 23
 6472 0076 1A6B     		ldr	r2, [r3, #48]
 6473              		.loc 1 3296 8
 6474 0078 7B68     		ldr	r3, [r7, #4]
 6475 007a 1B68     		ldr	r3, [r3]
 6476              		.loc 1 3296 23
 6477 007c 42F48042 		orr	r2, r2, #16384
 6478 0080 1A63     		str	r2, [r3, #48]
3297:./Libraries/STM32H7xx_HAL_Driver/Src/stm32h7xx_hal_jpeg.c **** 
3298:./Libraries/STM32H7xx_HAL_Driver/Src/stm32h7xx_hal_jpeg.c ****   /* Clear all flags */
3299:./Libraries/STM32H7xx_HAL_Driver/Src/stm32h7xx_hal_jpeg.c ****   __HAL_JPEG_CLEAR_FLAG(hjpeg, JPEG_FLAG_ALL);
 6479              		.loc 1 3299 3
 6480 0082 7B68     		ldr	r3, [r7, #4]
 6481 0084 1B68     		ldr	r3, [r3]
 6482 0086 9A6B     		ldr	r2, [r3, #56]
 6483 0088 7B68     		ldr	r3, [r7, #4]
ARM GAS  /tmp/ccXFtjVt.s 			page 174


 6484 008a 1B68     		ldr	r3, [r3]
 6485 008c 42F06002 		orr	r2, r2, #96
 6486 0090 9A63     		str	r2, [r3, #56]
3300:./Libraries/STM32H7xx_HAL_Driver/Src/stm32h7xx_hal_jpeg.c **** 
3301:./Libraries/STM32H7xx_HAL_Driver/Src/stm32h7xx_hal_jpeg.c ****   /*Start Encoding/Decoding*/
3302:./Libraries/STM32H7xx_HAL_Driver/Src/stm32h7xx_hal_jpeg.c ****   hjpeg->Instance->CONFR0 |=  JPEG_CONFR0_START;
 6487              		.loc 1 3302 8
 6488 0092 7B68     		ldr	r3, [r7, #4]
 6489 0094 1B68     		ldr	r3, [r3]
 6490              		.loc 1 3302 27
 6491 0096 1A68     		ldr	r2, [r3]
 6492              		.loc 1 3302 8
 6493 0098 7B68     		ldr	r3, [r7, #4]
 6494 009a 1B68     		ldr	r3, [r3]
 6495              		.loc 1 3302 27
 6496 009c 42F00102 		orr	r2, r2, #1
 6497 00a0 1A60     		str	r2, [r3]
3303:./Libraries/STM32H7xx_HAL_Driver/Src/stm32h7xx_hal_jpeg.c **** 
3304:./Libraries/STM32H7xx_HAL_Driver/Src/stm32h7xx_hal_jpeg.c ****   if ((hjpeg->Context & JPEG_CONTEXT_METHOD_MASK) == JPEG_CONTEXT_IT)
 6498              		.loc 1 3304 13
 6499 00a2 7B68     		ldr	r3, [r7, #4]
 6500 00a4 5B6D     		ldr	r3, [r3, #84]
 6501              		.loc 1 3304 23
 6502 00a6 03F00C03 		and	r3, r3, #12
 6503              		.loc 1 3304 6
 6504 00aa 082B     		cmp	r3, #8
 6505 00ac 08D1     		bne	.L262
3305:./Libraries/STM32H7xx_HAL_Driver/Src/stm32h7xx_hal_jpeg.c ****   {
3306:./Libraries/STM32H7xx_HAL_Driver/Src/stm32h7xx_hal_jpeg.c ****     /*Enable IN/OUT, end of Conversation, and end of header parsing interruptions*/
3307:./Libraries/STM32H7xx_HAL_Driver/Src/stm32h7xx_hal_jpeg.c ****     __HAL_JPEG_ENABLE_IT(hjpeg, JPEG_IT_IFT | JPEG_IT_IFNF | JPEG_IT_OFT | JPEG_IT_OFNE | JPEG_IT_E
 6506              		.loc 1 3307 5
 6507 00ae 7B68     		ldr	r3, [r7, #4]
 6508 00b0 1B68     		ldr	r3, [r3]
 6509 00b2 1A6B     		ldr	r2, [r3, #48]
 6510 00b4 7B68     		ldr	r3, [r7, #4]
 6511 00b6 1B68     		ldr	r3, [r3]
 6512 00b8 42F06E02 		orr	r2, r2, #110
 6513 00bc 1A63     		str	r2, [r3, #48]
3308:./Libraries/STM32H7xx_HAL_Driver/Src/stm32h7xx_hal_jpeg.c ****   }
3309:./Libraries/STM32H7xx_HAL_Driver/Src/stm32h7xx_hal_jpeg.c ****   else if ((hjpeg->Context & JPEG_CONTEXT_METHOD_MASK) == JPEG_CONTEXT_DMA)
3310:./Libraries/STM32H7xx_HAL_Driver/Src/stm32h7xx_hal_jpeg.c ****   {
3311:./Libraries/STM32H7xx_HAL_Driver/Src/stm32h7xx_hal_jpeg.c ****     /*Enable End Of Conversation, and End Of Header parsing interruptions*/
3312:./Libraries/STM32H7xx_HAL_Driver/Src/stm32h7xx_hal_jpeg.c ****     __HAL_JPEG_ENABLE_IT(hjpeg, JPEG_IT_EOC | JPEG_IT_HPD);
3313:./Libraries/STM32H7xx_HAL_Driver/Src/stm32h7xx_hal_jpeg.c **** 
3314:./Libraries/STM32H7xx_HAL_Driver/Src/stm32h7xx_hal_jpeg.c ****   }
3315:./Libraries/STM32H7xx_HAL_Driver/Src/stm32h7xx_hal_jpeg.c ****   else
3316:./Libraries/STM32H7xx_HAL_Driver/Src/stm32h7xx_hal_jpeg.c ****   {
3317:./Libraries/STM32H7xx_HAL_Driver/Src/stm32h7xx_hal_jpeg.c ****     /* Nothing to do */
3318:./Libraries/STM32H7xx_HAL_Driver/Src/stm32h7xx_hal_jpeg.c ****   }
3319:./Libraries/STM32H7xx_HAL_Driver/Src/stm32h7xx_hal_jpeg.c **** }
 6514              		.loc 1 3319 1
 6515 00be 0DE0     		b	.L264
 6516              	.L262:
3309:./Libraries/STM32H7xx_HAL_Driver/Src/stm32h7xx_hal_jpeg.c ****   {
 6517              		.loc 1 3309 18
 6518 00c0 7B68     		ldr	r3, [r7, #4]
 6519 00c2 5B6D     		ldr	r3, [r3, #84]
ARM GAS  /tmp/ccXFtjVt.s 			page 175


3309:./Libraries/STM32H7xx_HAL_Driver/Src/stm32h7xx_hal_jpeg.c ****   {
 6520              		.loc 1 3309 28
 6521 00c4 03F00C03 		and	r3, r3, #12
3309:./Libraries/STM32H7xx_HAL_Driver/Src/stm32h7xx_hal_jpeg.c ****   {
 6522              		.loc 1 3309 11
 6523 00c8 0C2B     		cmp	r3, #12
 6524 00ca 07D1     		bne	.L264
3312:./Libraries/STM32H7xx_HAL_Driver/Src/stm32h7xx_hal_jpeg.c **** 
 6525              		.loc 1 3312 5
 6526 00cc 7B68     		ldr	r3, [r7, #4]
 6527 00ce 1B68     		ldr	r3, [r3]
 6528 00d0 1A6B     		ldr	r2, [r3, #48]
 6529 00d2 7B68     		ldr	r3, [r7, #4]
 6530 00d4 1B68     		ldr	r3, [r3]
 6531 00d6 42F06002 		orr	r2, r2, #96
 6532 00da 1A63     		str	r2, [r3, #48]
 6533              	.L264:
 6534              		.loc 1 3319 1
 6535 00dc 00BF     		nop
 6536 00de 0C37     		adds	r7, r7, #12
 6537              	.LCFI225:
 6538              		.cfi_def_cfa_offset 4
 6539 00e0 BD46     		mov	sp, r7
 6540              	.LCFI226:
 6541              		.cfi_def_cfa_register 13
 6542              		@ sp needed
 6543 00e2 5DF8047B 		ldr	r7, [sp], #4
 6544              	.LCFI227:
 6545              		.cfi_restore 7
 6546              		.cfi_def_cfa_offset 0
 6547 00e6 7047     		bx	lr
 6548              		.cfi_endproc
 6549              	.LFE371:
 6551              		.section	.text.JPEG_Process,"ax",%progbits
 6552              		.align	1
 6553              		.syntax unified
 6554              		.thumb
 6555              		.thumb_func
 6556              		.fpu fpv5-d16
 6558              	JPEG_Process:
 6559              	.LFB372:
3320:./Libraries/STM32H7xx_HAL_Driver/Src/stm32h7xx_hal_jpeg.c **** 
3321:./Libraries/STM32H7xx_HAL_Driver/Src/stm32h7xx_hal_jpeg.c **** /**
3322:./Libraries/STM32H7xx_HAL_Driver/Src/stm32h7xx_hal_jpeg.c ****   * @brief  JPEG encoding/decoding process in case of Polling or Interrupt
3323:./Libraries/STM32H7xx_HAL_Driver/Src/stm32h7xx_hal_jpeg.c ****   * @param  hjpeg pointer to a JPEG_HandleTypeDef structure that contains
3324:./Libraries/STM32H7xx_HAL_Driver/Src/stm32h7xx_hal_jpeg.c ****   *         the configuration information for JPEG module
3325:./Libraries/STM32H7xx_HAL_Driver/Src/stm32h7xx_hal_jpeg.c ****   * @retval JPEG_PROCESS_DONE if the process has ends else JPEG_PROCESS_ONGOING
3326:./Libraries/STM32H7xx_HAL_Driver/Src/stm32h7xx_hal_jpeg.c ****   */
3327:./Libraries/STM32H7xx_HAL_Driver/Src/stm32h7xx_hal_jpeg.c **** static uint32_t JPEG_Process(JPEG_HandleTypeDef *hjpeg)
3328:./Libraries/STM32H7xx_HAL_Driver/Src/stm32h7xx_hal_jpeg.c **** {
 6560              		.loc 1 3328 1
 6561              		.cfi_startproc
 6562              		@ args = 0, pretend = 0, frame = 16
 6563              		@ frame_needed = 1, uses_anonymous_args = 0
 6564 0000 80B5     		push	{r7, lr}
 6565              	.LCFI228:
 6566              		.cfi_def_cfa_offset 8
ARM GAS  /tmp/ccXFtjVt.s 			page 176


 6567              		.cfi_offset 7, -8
 6568              		.cfi_offset 14, -4
 6569 0002 84B0     		sub	sp, sp, #16
 6570              	.LCFI229:
 6571              		.cfi_def_cfa_offset 24
 6572 0004 00AF     		add	r7, sp, #0
 6573              	.LCFI230:
 6574              		.cfi_def_cfa_register 7
 6575 0006 7860     		str	r0, [r7, #4]
3329:./Libraries/STM32H7xx_HAL_Driver/Src/stm32h7xx_hal_jpeg.c ****   uint32_t tmpContext;
3330:./Libraries/STM32H7xx_HAL_Driver/Src/stm32h7xx_hal_jpeg.c **** 
3331:./Libraries/STM32H7xx_HAL_Driver/Src/stm32h7xx_hal_jpeg.c ****   /*End of header processing flag */
3332:./Libraries/STM32H7xx_HAL_Driver/Src/stm32h7xx_hal_jpeg.c ****   if ((hjpeg->Context & JPEG_CONTEXT_OPERATION_MASK) == JPEG_CONTEXT_DECODE)
 6576              		.loc 1 3332 13
 6577 0008 7B68     		ldr	r3, [r7, #4]
 6578 000a 5B6D     		ldr	r3, [r3, #84]
 6579              		.loc 1 3332 23
 6580 000c 03F00303 		and	r3, r3, #3
 6581              		.loc 1 3332 6
 6582 0010 022B     		cmp	r3, #2
 6583 0012 25D1     		bne	.L266
3333:./Libraries/STM32H7xx_HAL_Driver/Src/stm32h7xx_hal_jpeg.c ****   {
3334:./Libraries/STM32H7xx_HAL_Driver/Src/stm32h7xx_hal_jpeg.c ****     if (__HAL_JPEG_GET_FLAG(hjpeg, JPEG_FLAG_HPDF) != 0UL)
 6584              		.loc 1 3334 9
 6585 0014 7B68     		ldr	r3, [r7, #4]
 6586 0016 1B68     		ldr	r3, [r3]
 6587 0018 5B6B     		ldr	r3, [r3, #52]
 6588 001a 03F04003 		and	r3, r3, #64
 6589              		.loc 1 3334 8
 6590 001e 002B     		cmp	r3, #0
 6591 0020 1ED0     		beq	.L266
3335:./Libraries/STM32H7xx_HAL_Driver/Src/stm32h7xx_hal_jpeg.c ****     {
3336:./Libraries/STM32H7xx_HAL_Driver/Src/stm32h7xx_hal_jpeg.c ****       /*Call Header parsing complete callback */
3337:./Libraries/STM32H7xx_HAL_Driver/Src/stm32h7xx_hal_jpeg.c ****       (void) HAL_JPEG_GetInfo(hjpeg, &hjpeg->Conf);
 6592              		.loc 1 3337 14
 6593 0022 7B68     		ldr	r3, [r7, #4]
 6594 0024 0433     		adds	r3, r3, #4
 6595 0026 1946     		mov	r1, r3
 6596 0028 7868     		ldr	r0, [r7, #4]
 6597 002a FFF7FEFF 		bl	HAL_JPEG_GetInfo
3338:./Libraries/STM32H7xx_HAL_Driver/Src/stm32h7xx_hal_jpeg.c ****       /* Reset the ImageQuality */
3339:./Libraries/STM32H7xx_HAL_Driver/Src/stm32h7xx_hal_jpeg.c ****       hjpeg->Conf.ImageQuality = 0;
 6598              		.loc 1 3339 32
 6599 002e 7B68     		ldr	r3, [r7, #4]
 6600 0030 0022     		movs	r2, #0
 6601 0032 5A61     		str	r2, [r3, #20]
3340:./Libraries/STM32H7xx_HAL_Driver/Src/stm32h7xx_hal_jpeg.c ****       /* Note : the image quality is only available at the end of the decoding operation */
3341:./Libraries/STM32H7xx_HAL_Driver/Src/stm32h7xx_hal_jpeg.c ****       /* at the current stage the calculated image quality is not correct so reset it */
3342:./Libraries/STM32H7xx_HAL_Driver/Src/stm32h7xx_hal_jpeg.c **** 
3343:./Libraries/STM32H7xx_HAL_Driver/Src/stm32h7xx_hal_jpeg.c ****       /*Call Info Ready callback */
3344:./Libraries/STM32H7xx_HAL_Driver/Src/stm32h7xx_hal_jpeg.c **** #if (USE_HAL_JPEG_REGISTER_CALLBACKS == 1)
3345:./Libraries/STM32H7xx_HAL_Driver/Src/stm32h7xx_hal_jpeg.c ****       hjpeg->InfoReadyCallback(hjpeg, &hjpeg->Conf);
3346:./Libraries/STM32H7xx_HAL_Driver/Src/stm32h7xx_hal_jpeg.c **** #else
3347:./Libraries/STM32H7xx_HAL_Driver/Src/stm32h7xx_hal_jpeg.c ****       HAL_JPEG_InfoReadyCallback(hjpeg, &hjpeg->Conf);
 6602              		.loc 1 3347 7
 6603 0034 7B68     		ldr	r3, [r7, #4]
 6604 0036 0433     		adds	r3, r3, #4
ARM GAS  /tmp/ccXFtjVt.s 			page 177


 6605 0038 1946     		mov	r1, r3
 6606 003a 7868     		ldr	r0, [r7, #4]
 6607 003c FFF7FEFF 		bl	HAL_JPEG_InfoReadyCallback
3348:./Libraries/STM32H7xx_HAL_Driver/Src/stm32h7xx_hal_jpeg.c **** #endif /* USE_HAL_JPEG_REGISTER_CALLBACKS */
3349:./Libraries/STM32H7xx_HAL_Driver/Src/stm32h7xx_hal_jpeg.c **** 
3350:./Libraries/STM32H7xx_HAL_Driver/Src/stm32h7xx_hal_jpeg.c ****       __HAL_JPEG_DISABLE_IT(hjpeg, JPEG_IT_HPD);
 6608              		.loc 1 3350 7
 6609 0040 7B68     		ldr	r3, [r7, #4]
 6610 0042 1B68     		ldr	r3, [r3]
 6611 0044 1A6B     		ldr	r2, [r3, #48]
 6612 0046 7B68     		ldr	r3, [r7, #4]
 6613 0048 1B68     		ldr	r3, [r3]
 6614 004a 22F04002 		bic	r2, r2, #64
 6615 004e 1A63     		str	r2, [r3, #48]
3351:./Libraries/STM32H7xx_HAL_Driver/Src/stm32h7xx_hal_jpeg.c **** 
3352:./Libraries/STM32H7xx_HAL_Driver/Src/stm32h7xx_hal_jpeg.c ****       /* Clear header processing done flag */
3353:./Libraries/STM32H7xx_HAL_Driver/Src/stm32h7xx_hal_jpeg.c ****       __HAL_JPEG_CLEAR_FLAG(hjpeg, JPEG_FLAG_HPDF);
 6616              		.loc 1 3353 7
 6617 0050 7B68     		ldr	r3, [r7, #4]
 6618 0052 1B68     		ldr	r3, [r3]
 6619 0054 9A6B     		ldr	r2, [r3, #56]
 6620 0056 7B68     		ldr	r3, [r7, #4]
 6621 0058 1B68     		ldr	r3, [r3]
 6622 005a 42F04002 		orr	r2, r2, #64
 6623 005e 9A63     		str	r2, [r3, #56]
 6624              	.L266:
3354:./Libraries/STM32H7xx_HAL_Driver/Src/stm32h7xx_hal_jpeg.c ****     }
3355:./Libraries/STM32H7xx_HAL_Driver/Src/stm32h7xx_hal_jpeg.c ****   }
3356:./Libraries/STM32H7xx_HAL_Driver/Src/stm32h7xx_hal_jpeg.c **** 
3357:./Libraries/STM32H7xx_HAL_Driver/Src/stm32h7xx_hal_jpeg.c ****   /*Input FIFO status handling*/
3358:./Libraries/STM32H7xx_HAL_Driver/Src/stm32h7xx_hal_jpeg.c ****   if ((hjpeg->Context &  JPEG_CONTEXT_PAUSE_INPUT) == 0UL)
 6625              		.loc 1 3358 13
 6626 0060 7B68     		ldr	r3, [r7, #4]
 6627 0062 5B6D     		ldr	r3, [r3, #84]
 6628              		.loc 1 3358 23
 6629 0064 03F48053 		and	r3, r3, #4096
 6630              		.loc 1 3358 6
 6631 0068 002B     		cmp	r3, #0
 6632 006a 16D1     		bne	.L267
3359:./Libraries/STM32H7xx_HAL_Driver/Src/stm32h7xx_hal_jpeg.c ****   {
3360:./Libraries/STM32H7xx_HAL_Driver/Src/stm32h7xx_hal_jpeg.c ****     if (__HAL_JPEG_GET_FLAG(hjpeg, JPEG_FLAG_IFTF) != 0UL)
 6633              		.loc 1 3360 9
 6634 006c 7B68     		ldr	r3, [r7, #4]
 6635 006e 1B68     		ldr	r3, [r3]
 6636 0070 5B6B     		ldr	r3, [r3, #52]
 6637 0072 03F00203 		and	r3, r3, #2
 6638              		.loc 1 3360 8
 6639 0076 002B     		cmp	r3, #0
 6640 0078 04D0     		beq	.L268
3361:./Libraries/STM32H7xx_HAL_Driver/Src/stm32h7xx_hal_jpeg.c ****     {
3362:./Libraries/STM32H7xx_HAL_Driver/Src/stm32h7xx_hal_jpeg.c ****       /*Input FIFO threshold flag */
3363:./Libraries/STM32H7xx_HAL_Driver/Src/stm32h7xx_hal_jpeg.c ****       /*JPEG_FIFO_TH_SIZE words can be written in */
3364:./Libraries/STM32H7xx_HAL_Driver/Src/stm32h7xx_hal_jpeg.c ****       JPEG_ReadInputData(hjpeg, JPEG_FIFO_TH_SIZE);
 6641              		.loc 1 3364 7
 6642 007a 0821     		movs	r1, #8
 6643 007c 7868     		ldr	r0, [r7, #4]
 6644 007e FFF7FEFF 		bl	JPEG_ReadInputData
ARM GAS  /tmp/ccXFtjVt.s 			page 178


 6645 0082 0AE0     		b	.L267
 6646              	.L268:
3365:./Libraries/STM32H7xx_HAL_Driver/Src/stm32h7xx_hal_jpeg.c ****     }
3366:./Libraries/STM32H7xx_HAL_Driver/Src/stm32h7xx_hal_jpeg.c ****     else if (__HAL_JPEG_GET_FLAG(hjpeg, JPEG_FLAG_IFNFF) != 0UL)
 6647              		.loc 1 3366 14
 6648 0084 7B68     		ldr	r3, [r7, #4]
 6649 0086 1B68     		ldr	r3, [r3]
 6650 0088 5B6B     		ldr	r3, [r3, #52]
 6651 008a 03F00403 		and	r3, r3, #4
 6652              		.loc 1 3366 13
 6653 008e 002B     		cmp	r3, #0
 6654 0090 03D0     		beq	.L267
3367:./Libraries/STM32H7xx_HAL_Driver/Src/stm32h7xx_hal_jpeg.c ****     {
3368:./Libraries/STM32H7xx_HAL_Driver/Src/stm32h7xx_hal_jpeg.c ****       /*Input FIFO Not Full flag */
3369:./Libraries/STM32H7xx_HAL_Driver/Src/stm32h7xx_hal_jpeg.c ****       /*32-bit value can be written in */
3370:./Libraries/STM32H7xx_HAL_Driver/Src/stm32h7xx_hal_jpeg.c ****       JPEG_ReadInputData(hjpeg, 1);
 6655              		.loc 1 3370 7
 6656 0092 0121     		movs	r1, #1
 6657 0094 7868     		ldr	r0, [r7, #4]
 6658 0096 FFF7FEFF 		bl	JPEG_ReadInputData
 6659              	.L267:
3371:./Libraries/STM32H7xx_HAL_Driver/Src/stm32h7xx_hal_jpeg.c ****     }
3372:./Libraries/STM32H7xx_HAL_Driver/Src/stm32h7xx_hal_jpeg.c ****     else
3373:./Libraries/STM32H7xx_HAL_Driver/Src/stm32h7xx_hal_jpeg.c ****     {
3374:./Libraries/STM32H7xx_HAL_Driver/Src/stm32h7xx_hal_jpeg.c ****       /* Nothing to do */
3375:./Libraries/STM32H7xx_HAL_Driver/Src/stm32h7xx_hal_jpeg.c ****     }
3376:./Libraries/STM32H7xx_HAL_Driver/Src/stm32h7xx_hal_jpeg.c ****   }
3377:./Libraries/STM32H7xx_HAL_Driver/Src/stm32h7xx_hal_jpeg.c **** 
3378:./Libraries/STM32H7xx_HAL_Driver/Src/stm32h7xx_hal_jpeg.c **** 
3379:./Libraries/STM32H7xx_HAL_Driver/Src/stm32h7xx_hal_jpeg.c ****   /*Output FIFO flag handling*/
3380:./Libraries/STM32H7xx_HAL_Driver/Src/stm32h7xx_hal_jpeg.c ****   if ((hjpeg->Context &  JPEG_CONTEXT_PAUSE_OUTPUT) == 0UL)
 6660              		.loc 1 3380 13
 6661 009a 7B68     		ldr	r3, [r7, #4]
 6662 009c 5B6D     		ldr	r3, [r3, #84]
 6663              		.loc 1 3380 23
 6664 009e 03F40053 		and	r3, r3, #8192
 6665              		.loc 1 3380 6
 6666 00a2 002B     		cmp	r3, #0
 6667 00a4 16D1     		bne	.L269
3381:./Libraries/STM32H7xx_HAL_Driver/Src/stm32h7xx_hal_jpeg.c ****   {
3382:./Libraries/STM32H7xx_HAL_Driver/Src/stm32h7xx_hal_jpeg.c ****     if (__HAL_JPEG_GET_FLAG(hjpeg, JPEG_FLAG_OFTF) != 0UL)
 6668              		.loc 1 3382 9
 6669 00a6 7B68     		ldr	r3, [r7, #4]
 6670 00a8 1B68     		ldr	r3, [r3]
 6671 00aa 5B6B     		ldr	r3, [r3, #52]
 6672 00ac 03F00803 		and	r3, r3, #8
 6673              		.loc 1 3382 8
 6674 00b0 002B     		cmp	r3, #0
 6675 00b2 04D0     		beq	.L270
3383:./Libraries/STM32H7xx_HAL_Driver/Src/stm32h7xx_hal_jpeg.c ****     {
3384:./Libraries/STM32H7xx_HAL_Driver/Src/stm32h7xx_hal_jpeg.c ****       /*Output FIFO threshold flag */
3385:./Libraries/STM32H7xx_HAL_Driver/Src/stm32h7xx_hal_jpeg.c ****       /*JPEG_FIFO_TH_SIZE words can be read out */
3386:./Libraries/STM32H7xx_HAL_Driver/Src/stm32h7xx_hal_jpeg.c ****       JPEG_StoreOutputData(hjpeg, JPEG_FIFO_TH_SIZE);
 6676              		.loc 1 3386 7
 6677 00b4 0821     		movs	r1, #8
 6678 00b6 7868     		ldr	r0, [r7, #4]
 6679 00b8 FFF7FEFF 		bl	JPEG_StoreOutputData
ARM GAS  /tmp/ccXFtjVt.s 			page 179


 6680 00bc 0AE0     		b	.L269
 6681              	.L270:
3387:./Libraries/STM32H7xx_HAL_Driver/Src/stm32h7xx_hal_jpeg.c ****     }
3388:./Libraries/STM32H7xx_HAL_Driver/Src/stm32h7xx_hal_jpeg.c ****     else if (__HAL_JPEG_GET_FLAG(hjpeg, JPEG_FLAG_OFNEF) != 0UL)
 6682              		.loc 1 3388 14
 6683 00be 7B68     		ldr	r3, [r7, #4]
 6684 00c0 1B68     		ldr	r3, [r3]
 6685 00c2 5B6B     		ldr	r3, [r3, #52]
 6686 00c4 03F01003 		and	r3, r3, #16
 6687              		.loc 1 3388 13
 6688 00c8 002B     		cmp	r3, #0
 6689 00ca 03D0     		beq	.L269
3389:./Libraries/STM32H7xx_HAL_Driver/Src/stm32h7xx_hal_jpeg.c ****     {
3390:./Libraries/STM32H7xx_HAL_Driver/Src/stm32h7xx_hal_jpeg.c ****       /*Output FIFO Not Empty flag */
3391:./Libraries/STM32H7xx_HAL_Driver/Src/stm32h7xx_hal_jpeg.c ****       /*32-bit value can be read out */
3392:./Libraries/STM32H7xx_HAL_Driver/Src/stm32h7xx_hal_jpeg.c ****       JPEG_StoreOutputData(hjpeg, 1);
 6690              		.loc 1 3392 7
 6691 00cc 0121     		movs	r1, #1
 6692 00ce 7868     		ldr	r0, [r7, #4]
 6693 00d0 FFF7FEFF 		bl	JPEG_StoreOutputData
 6694              	.L269:
3393:./Libraries/STM32H7xx_HAL_Driver/Src/stm32h7xx_hal_jpeg.c ****     }
3394:./Libraries/STM32H7xx_HAL_Driver/Src/stm32h7xx_hal_jpeg.c ****     else
3395:./Libraries/STM32H7xx_HAL_Driver/Src/stm32h7xx_hal_jpeg.c ****     {
3396:./Libraries/STM32H7xx_HAL_Driver/Src/stm32h7xx_hal_jpeg.c ****       /* Nothing to do */
3397:./Libraries/STM32H7xx_HAL_Driver/Src/stm32h7xx_hal_jpeg.c ****     }
3398:./Libraries/STM32H7xx_HAL_Driver/Src/stm32h7xx_hal_jpeg.c ****   }
3399:./Libraries/STM32H7xx_HAL_Driver/Src/stm32h7xx_hal_jpeg.c **** 
3400:./Libraries/STM32H7xx_HAL_Driver/Src/stm32h7xx_hal_jpeg.c ****   /*End of Conversion handling :i.e EOC flag is high and OFTF low and OFNEF low*/
3401:./Libraries/STM32H7xx_HAL_Driver/Src/stm32h7xx_hal_jpeg.c ****   if (__HAL_JPEG_GET_FLAG(hjpeg, JPEG_FLAG_EOCF | JPEG_FLAG_OFTF | JPEG_FLAG_OFNEF) == JPEG_FLAG_EO
 6695              		.loc 1 3401 7
 6696 00d4 7B68     		ldr	r3, [r7, #4]
 6697 00d6 1B68     		ldr	r3, [r3]
 6698 00d8 5B6B     		ldr	r3, [r3, #52]
 6699 00da 03F03803 		and	r3, r3, #56
 6700              		.loc 1 3401 6
 6701 00de 202B     		cmp	r3, #32
 6702 00e0 4BD1     		bne	.L271
3402:./Libraries/STM32H7xx_HAL_Driver/Src/stm32h7xx_hal_jpeg.c ****   {
3403:./Libraries/STM32H7xx_HAL_Driver/Src/stm32h7xx_hal_jpeg.c ****     /*Stop Encoding/Decoding*/
3404:./Libraries/STM32H7xx_HAL_Driver/Src/stm32h7xx_hal_jpeg.c ****     hjpeg->Instance->CONFR0 &=  ~JPEG_CONFR0_START;
 6703              		.loc 1 3404 10
 6704 00e2 7B68     		ldr	r3, [r7, #4]
 6705 00e4 1B68     		ldr	r3, [r3]
 6706              		.loc 1 3404 29
 6707 00e6 1A68     		ldr	r2, [r3]
 6708              		.loc 1 3404 10
 6709 00e8 7B68     		ldr	r3, [r7, #4]
 6710 00ea 1B68     		ldr	r3, [r3]
 6711              		.loc 1 3404 29
 6712 00ec 22F00102 		bic	r2, r2, #1
 6713 00f0 1A60     		str	r2, [r3]
3405:./Libraries/STM32H7xx_HAL_Driver/Src/stm32h7xx_hal_jpeg.c **** 
3406:./Libraries/STM32H7xx_HAL_Driver/Src/stm32h7xx_hal_jpeg.c ****     if ((hjpeg->Context & JPEG_CONTEXT_METHOD_MASK) == JPEG_CONTEXT_IT)
 6714              		.loc 1 3406 15
 6715 00f2 7B68     		ldr	r3, [r7, #4]
 6716 00f4 5B6D     		ldr	r3, [r3, #84]
ARM GAS  /tmp/ccXFtjVt.s 			page 180


 6717              		.loc 1 3406 25
 6718 00f6 03F00C03 		and	r3, r3, #12
 6719              		.loc 1 3406 8
 6720 00fa 082B     		cmp	r3, #8
 6721 00fc 07D1     		bne	.L272
3407:./Libraries/STM32H7xx_HAL_Driver/Src/stm32h7xx_hal_jpeg.c ****     {
3408:./Libraries/STM32H7xx_HAL_Driver/Src/stm32h7xx_hal_jpeg.c ****       /* Disable All Interrupts */
3409:./Libraries/STM32H7xx_HAL_Driver/Src/stm32h7xx_hal_jpeg.c ****       __HAL_JPEG_DISABLE_IT(hjpeg, JPEG_INTERRUPT_MASK);
 6722              		.loc 1 3409 7
 6723 00fe 7B68     		ldr	r3, [r7, #4]
 6724 0100 1B68     		ldr	r3, [r3]
 6725 0102 1A6B     		ldr	r2, [r3, #48]
 6726 0104 7B68     		ldr	r3, [r7, #4]
 6727 0106 1B68     		ldr	r3, [r3]
 6728 0108 22F07E02 		bic	r2, r2, #126
 6729 010c 1A63     		str	r2, [r3, #48]
 6730              	.L272:
3410:./Libraries/STM32H7xx_HAL_Driver/Src/stm32h7xx_hal_jpeg.c ****     }
3411:./Libraries/STM32H7xx_HAL_Driver/Src/stm32h7xx_hal_jpeg.c **** 
3412:./Libraries/STM32H7xx_HAL_Driver/Src/stm32h7xx_hal_jpeg.c ****     /* Clear all flags */
3413:./Libraries/STM32H7xx_HAL_Driver/Src/stm32h7xx_hal_jpeg.c ****     __HAL_JPEG_CLEAR_FLAG(hjpeg, JPEG_FLAG_ALL);
 6731              		.loc 1 3413 5
 6732 010e 7B68     		ldr	r3, [r7, #4]
 6733 0110 1B68     		ldr	r3, [r3]
 6734 0112 9A6B     		ldr	r2, [r3, #56]
 6735 0114 7B68     		ldr	r3, [r7, #4]
 6736 0116 1B68     		ldr	r3, [r3]
 6737 0118 42F06002 		orr	r2, r2, #96
 6738 011c 9A63     		str	r2, [r3, #56]
3414:./Libraries/STM32H7xx_HAL_Driver/Src/stm32h7xx_hal_jpeg.c **** 
3415:./Libraries/STM32H7xx_HAL_Driver/Src/stm32h7xx_hal_jpeg.c ****     /*Call End of conversion callback */
3416:./Libraries/STM32H7xx_HAL_Driver/Src/stm32h7xx_hal_jpeg.c ****     if (hjpeg->JpegOutCount > 0UL)
 6739              		.loc 1 3416 14
 6740 011e 7B68     		ldr	r3, [r7, #4]
 6741 0120 5B6A     		ldr	r3, [r3, #36]
 6742              		.loc 1 3416 8
 6743 0122 002B     		cmp	r3, #0
 6744 0124 0AD0     		beq	.L273
3417:./Libraries/STM32H7xx_HAL_Driver/Src/stm32h7xx_hal_jpeg.c ****     {
3418:./Libraries/STM32H7xx_HAL_Driver/Src/stm32h7xx_hal_jpeg.c ****       /*Output Buffer is not empty, call DecodedDataReadyCallback*/
3419:./Libraries/STM32H7xx_HAL_Driver/Src/stm32h7xx_hal_jpeg.c **** #if (USE_HAL_JPEG_REGISTER_CALLBACKS == 1)
3420:./Libraries/STM32H7xx_HAL_Driver/Src/stm32h7xx_hal_jpeg.c ****       hjpeg->DataReadyCallback(hjpeg, hjpeg->pJpegOutBuffPtr, hjpeg->JpegOutCount);
3421:./Libraries/STM32H7xx_HAL_Driver/Src/stm32h7xx_hal_jpeg.c **** #else
3422:./Libraries/STM32H7xx_HAL_Driver/Src/stm32h7xx_hal_jpeg.c ****       HAL_JPEG_DataReadyCallback(hjpeg, hjpeg->pJpegOutBuffPtr, hjpeg->JpegOutCount);
 6745              		.loc 1 3422 7
 6746 0126 7B68     		ldr	r3, [r7, #4]
 6747 0128 D969     		ldr	r1, [r3, #28]
 6748 012a 7B68     		ldr	r3, [r7, #4]
 6749 012c 5B6A     		ldr	r3, [r3, #36]
 6750 012e 1A46     		mov	r2, r3
 6751 0130 7868     		ldr	r0, [r7, #4]
 6752 0132 FFF7FEFF 		bl	HAL_JPEG_DataReadyCallback
3423:./Libraries/STM32H7xx_HAL_Driver/Src/stm32h7xx_hal_jpeg.c **** #endif /* USE_HAL_JPEG_REGISTER_CALLBACKS */
3424:./Libraries/STM32H7xx_HAL_Driver/Src/stm32h7xx_hal_jpeg.c **** 
3425:./Libraries/STM32H7xx_HAL_Driver/Src/stm32h7xx_hal_jpeg.c ****       hjpeg->JpegOutCount = 0;
 6753              		.loc 1 3425 27
 6754 0136 7B68     		ldr	r3, [r7, #4]
ARM GAS  /tmp/ccXFtjVt.s 			page 181


 6755 0138 0022     		movs	r2, #0
 6756 013a 5A62     		str	r2, [r3, #36]
 6757              	.L273:
3426:./Libraries/STM32H7xx_HAL_Driver/Src/stm32h7xx_hal_jpeg.c ****     }
3427:./Libraries/STM32H7xx_HAL_Driver/Src/stm32h7xx_hal_jpeg.c **** 
3428:./Libraries/STM32H7xx_HAL_Driver/Src/stm32h7xx_hal_jpeg.c ****     /*Reset Context Operation*/
3429:./Libraries/STM32H7xx_HAL_Driver/Src/stm32h7xx_hal_jpeg.c ****     tmpContext = hjpeg->Context;
 6758              		.loc 1 3429 16
 6759 013c 7B68     		ldr	r3, [r7, #4]
 6760 013e 5B6D     		ldr	r3, [r3, #84]
 6761 0140 FB60     		str	r3, [r7, #12]
3430:./Libraries/STM32H7xx_HAL_Driver/Src/stm32h7xx_hal_jpeg.c ****     /*Clear all context fields execpt JPEG_CONTEXT_CONF_ENCODING and JPEG_CONTEXT_CUSTOM_TABLES*/
3431:./Libraries/STM32H7xx_HAL_Driver/Src/stm32h7xx_hal_jpeg.c ****     hjpeg->Context &= (JPEG_CONTEXT_CONF_ENCODING | JPEG_CONTEXT_CUSTOM_TABLES);
 6762              		.loc 1 3431 20
 6763 0142 7B68     		ldr	r3, [r7, #4]
 6764 0144 5B6D     		ldr	r3, [r3, #84]
 6765 0146 03F48242 		and	r2, r3, #16640
 6766 014a 7B68     		ldr	r3, [r7, #4]
 6767 014c 5A65     		str	r2, [r3, #84]
3432:./Libraries/STM32H7xx_HAL_Driver/Src/stm32h7xx_hal_jpeg.c **** 
3433:./Libraries/STM32H7xx_HAL_Driver/Src/stm32h7xx_hal_jpeg.c ****     /* Process Unlocked */
3434:./Libraries/STM32H7xx_HAL_Driver/Src/stm32h7xx_hal_jpeg.c ****     __HAL_UNLOCK(hjpeg);
 6768              		.loc 1 3434 5
 6769 014e 7B68     		ldr	r3, [r7, #4]
 6770 0150 0022     		movs	r2, #0
 6771 0152 83F84C20 		strb	r2, [r3, #76]
3435:./Libraries/STM32H7xx_HAL_Driver/Src/stm32h7xx_hal_jpeg.c **** 
3436:./Libraries/STM32H7xx_HAL_Driver/Src/stm32h7xx_hal_jpeg.c ****     /* Change the JPEG state */
3437:./Libraries/STM32H7xx_HAL_Driver/Src/stm32h7xx_hal_jpeg.c ****     hjpeg->State = HAL_JPEG_STATE_READY;
 6772              		.loc 1 3437 18
 6773 0156 7B68     		ldr	r3, [r7, #4]
 6774 0158 0122     		movs	r2, #1
 6775 015a 83F84D20 		strb	r2, [r3, #77]
3438:./Libraries/STM32H7xx_HAL_Driver/Src/stm32h7xx_hal_jpeg.c **** 
3439:./Libraries/STM32H7xx_HAL_Driver/Src/stm32h7xx_hal_jpeg.c ****     /*Call End of Encoding/Decoding callback */
3440:./Libraries/STM32H7xx_HAL_Driver/Src/stm32h7xx_hal_jpeg.c ****     if ((tmpContext & JPEG_CONTEXT_OPERATION_MASK) == JPEG_CONTEXT_DECODE)
 6776              		.loc 1 3440 21
 6777 015e FB68     		ldr	r3, [r7, #12]
 6778 0160 03F00303 		and	r3, r3, #3
 6779              		.loc 1 3440 8
 6780 0164 022B     		cmp	r3, #2
 6781 0166 03D1     		bne	.L274
3441:./Libraries/STM32H7xx_HAL_Driver/Src/stm32h7xx_hal_jpeg.c ****     {
3442:./Libraries/STM32H7xx_HAL_Driver/Src/stm32h7xx_hal_jpeg.c **** #if (USE_HAL_JPEG_REGISTER_CALLBACKS == 1)
3443:./Libraries/STM32H7xx_HAL_Driver/Src/stm32h7xx_hal_jpeg.c ****       hjpeg->DecodeCpltCallback(hjpeg);
3444:./Libraries/STM32H7xx_HAL_Driver/Src/stm32h7xx_hal_jpeg.c **** #else
3445:./Libraries/STM32H7xx_HAL_Driver/Src/stm32h7xx_hal_jpeg.c ****       HAL_JPEG_DecodeCpltCallback(hjpeg);
 6782              		.loc 1 3445 7
 6783 0168 7868     		ldr	r0, [r7, #4]
 6784 016a FFF7FEFF 		bl	HAL_JPEG_DecodeCpltCallback
 6785 016e 02E0     		b	.L275
 6786              	.L274:
3446:./Libraries/STM32H7xx_HAL_Driver/Src/stm32h7xx_hal_jpeg.c **** #endif /*USE_HAL_JPEG_REGISTER_CALLBACKS*/
3447:./Libraries/STM32H7xx_HAL_Driver/Src/stm32h7xx_hal_jpeg.c ****     }
3448:./Libraries/STM32H7xx_HAL_Driver/Src/stm32h7xx_hal_jpeg.c ****     else /* JPEG_CONTEXT_ENCODE */
3449:./Libraries/STM32H7xx_HAL_Driver/Src/stm32h7xx_hal_jpeg.c ****     {
3450:./Libraries/STM32H7xx_HAL_Driver/Src/stm32h7xx_hal_jpeg.c **** #if (USE_HAL_JPEG_REGISTER_CALLBACKS == 1)
ARM GAS  /tmp/ccXFtjVt.s 			page 182


3451:./Libraries/STM32H7xx_HAL_Driver/Src/stm32h7xx_hal_jpeg.c ****       hjpeg->EncodeCpltCallback(hjpeg);
3452:./Libraries/STM32H7xx_HAL_Driver/Src/stm32h7xx_hal_jpeg.c **** #else
3453:./Libraries/STM32H7xx_HAL_Driver/Src/stm32h7xx_hal_jpeg.c ****       HAL_JPEG_EncodeCpltCallback(hjpeg);
 6787              		.loc 1 3453 7
 6788 0170 7868     		ldr	r0, [r7, #4]
 6789 0172 FFF7FEFF 		bl	HAL_JPEG_EncodeCpltCallback
 6790              	.L275:
3454:./Libraries/STM32H7xx_HAL_Driver/Src/stm32h7xx_hal_jpeg.c **** #endif
3455:./Libraries/STM32H7xx_HAL_Driver/Src/stm32h7xx_hal_jpeg.c ****     }
3456:./Libraries/STM32H7xx_HAL_Driver/Src/stm32h7xx_hal_jpeg.c **** 
3457:./Libraries/STM32H7xx_HAL_Driver/Src/stm32h7xx_hal_jpeg.c ****     return JPEG_PROCESS_DONE;
 6791              		.loc 1 3457 12
 6792 0176 0123     		movs	r3, #1
 6793 0178 00E0     		b	.L276
 6794              	.L271:
3458:./Libraries/STM32H7xx_HAL_Driver/Src/stm32h7xx_hal_jpeg.c ****   }
3459:./Libraries/STM32H7xx_HAL_Driver/Src/stm32h7xx_hal_jpeg.c **** 
3460:./Libraries/STM32H7xx_HAL_Driver/Src/stm32h7xx_hal_jpeg.c **** 
3461:./Libraries/STM32H7xx_HAL_Driver/Src/stm32h7xx_hal_jpeg.c ****   return JPEG_PROCESS_ONGOING;
 6795              		.loc 1 3461 10
 6796 017a 0023     		movs	r3, #0
 6797              	.L276:
3462:./Libraries/STM32H7xx_HAL_Driver/Src/stm32h7xx_hal_jpeg.c **** }
 6798              		.loc 1 3462 1
 6799 017c 1846     		mov	r0, r3
 6800 017e 1037     		adds	r7, r7, #16
 6801              	.LCFI231:
 6802              		.cfi_def_cfa_offset 8
 6803 0180 BD46     		mov	sp, r7
 6804              	.LCFI232:
 6805              		.cfi_def_cfa_register 13
 6806              		@ sp needed
 6807 0182 80BD     		pop	{r7, pc}
 6808              		.cfi_endproc
 6809              	.LFE372:
 6811              		.section	.text.JPEG_StoreOutputData,"ax",%progbits
 6812              		.align	1
 6813              		.syntax unified
 6814              		.thumb
 6815              		.thumb_func
 6816              		.fpu fpv5-d16
 6818              	JPEG_StoreOutputData:
 6819              	.LFB373:
3463:./Libraries/STM32H7xx_HAL_Driver/Src/stm32h7xx_hal_jpeg.c **** 
3464:./Libraries/STM32H7xx_HAL_Driver/Src/stm32h7xx_hal_jpeg.c **** /**
3465:./Libraries/STM32H7xx_HAL_Driver/Src/stm32h7xx_hal_jpeg.c ****   * @brief  Store some output data from the JPEG peripheral to the output buffer.
3466:./Libraries/STM32H7xx_HAL_Driver/Src/stm32h7xx_hal_jpeg.c ****   *         This function is used when the JPEG peripheral has new data to output
3467:./Libraries/STM32H7xx_HAL_Driver/Src/stm32h7xx_hal_jpeg.c ****   *         in case of Polling or Interrupt process
3468:./Libraries/STM32H7xx_HAL_Driver/Src/stm32h7xx_hal_jpeg.c ****   * @param  hjpeg pointer to a JPEG_HandleTypeDef structure that contains
3469:./Libraries/STM32H7xx_HAL_Driver/Src/stm32h7xx_hal_jpeg.c ****   *         the configuration information for JPEG module
3470:./Libraries/STM32H7xx_HAL_Driver/Src/stm32h7xx_hal_jpeg.c ****   * @param  nbOutputWords Number of output words (of 32 bits) ready from the JPEG peripheral
3471:./Libraries/STM32H7xx_HAL_Driver/Src/stm32h7xx_hal_jpeg.c ****   * @retval None
3472:./Libraries/STM32H7xx_HAL_Driver/Src/stm32h7xx_hal_jpeg.c ****   */
3473:./Libraries/STM32H7xx_HAL_Driver/Src/stm32h7xx_hal_jpeg.c **** static void JPEG_StoreOutputData(JPEG_HandleTypeDef *hjpeg, uint32_t nbOutputWords)
3474:./Libraries/STM32H7xx_HAL_Driver/Src/stm32h7xx_hal_jpeg.c **** {
 6820              		.loc 1 3474 1
 6821              		.cfi_startproc
ARM GAS  /tmp/ccXFtjVt.s 			page 183


 6822              		@ args = 0, pretend = 0, frame = 24
 6823              		@ frame_needed = 1, uses_anonymous_args = 0
 6824 0000 80B5     		push	{r7, lr}
 6825              	.LCFI233:
 6826              		.cfi_def_cfa_offset 8
 6827              		.cfi_offset 7, -8
 6828              		.cfi_offset 14, -4
 6829 0002 86B0     		sub	sp, sp, #24
 6830              	.LCFI234:
 6831              		.cfi_def_cfa_offset 32
 6832 0004 00AF     		add	r7, sp, #0
 6833              	.LCFI235:
 6834              		.cfi_def_cfa_register 7
 6835 0006 7860     		str	r0, [r7, #4]
 6836 0008 3960     		str	r1, [r7]
3475:./Libraries/STM32H7xx_HAL_Driver/Src/stm32h7xx_hal_jpeg.c ****   uint32_t index;
3476:./Libraries/STM32H7xx_HAL_Driver/Src/stm32h7xx_hal_jpeg.c ****   uint32_t nb_words;
3477:./Libraries/STM32H7xx_HAL_Driver/Src/stm32h7xx_hal_jpeg.c ****   uint32_t nb_bytes;
3478:./Libraries/STM32H7xx_HAL_Driver/Src/stm32h7xx_hal_jpeg.c ****   uint32_t dataword;
3479:./Libraries/STM32H7xx_HAL_Driver/Src/stm32h7xx_hal_jpeg.c **** 
3480:./Libraries/STM32H7xx_HAL_Driver/Src/stm32h7xx_hal_jpeg.c ****   if (hjpeg->OutDataLength >= (hjpeg->JpegOutCount + (nbOutputWords * 4UL)))
 6837              		.loc 1 3480 12
 6838 000a 7B68     		ldr	r3, [r7, #4]
 6839 000c DA6A     		ldr	r2, [r3, #44]
 6840              		.loc 1 3480 37
 6841 000e 7B68     		ldr	r3, [r7, #4]
 6842 0010 596A     		ldr	r1, [r3, #36]
 6843              		.loc 1 3480 69
 6844 0012 3B68     		ldr	r3, [r7]
 6845 0014 9B00     		lsls	r3, r3, #2
 6846              		.loc 1 3480 52
 6847 0016 0B44     		add	r3, r3, r1
 6848              		.loc 1 3480 6
 6849 0018 9A42     		cmp	r2, r3
 6850 001a 4BD3     		bcc	.L278
3481:./Libraries/STM32H7xx_HAL_Driver/Src/stm32h7xx_hal_jpeg.c ****   {
3482:./Libraries/STM32H7xx_HAL_Driver/Src/stm32h7xx_hal_jpeg.c ****     for (index = 0; index < nbOutputWords; index++)
 6851              		.loc 1 3482 16
 6852 001c 0023     		movs	r3, #0
 6853 001e 7B61     		str	r3, [r7, #20]
 6854              		.loc 1 3482 5
 6855 0020 31E0     		b	.L279
 6856              	.L280:
3483:./Libraries/STM32H7xx_HAL_Driver/Src/stm32h7xx_hal_jpeg.c ****     {
3484:./Libraries/STM32H7xx_HAL_Driver/Src/stm32h7xx_hal_jpeg.c ****       /*Transfer 32 bits from the JPEG output FIFO*/
3485:./Libraries/STM32H7xx_HAL_Driver/Src/stm32h7xx_hal_jpeg.c ****       dataword = hjpeg->Instance->DOR;
 6857              		.loc 1 3485 23 discriminator 3
 6858 0022 7B68     		ldr	r3, [r7, #4]
 6859 0024 1B68     		ldr	r3, [r3]
 6860              		.loc 1 3485 16 discriminator 3
 6861 0026 5B6C     		ldr	r3, [r3, #68]
 6862 0028 BB60     		str	r3, [r7, #8]
3486:./Libraries/STM32H7xx_HAL_Driver/Src/stm32h7xx_hal_jpeg.c ****       hjpeg->pJpegOutBuffPtr[hjpeg->JpegOutCount] = (uint8_t)(dataword & 0x000000FFUL);
 6863              		.loc 1 3486 12 discriminator 3
 6864 002a 7B68     		ldr	r3, [r7, #4]
 6865 002c DA69     		ldr	r2, [r3, #28]
 6866              		.loc 1 3486 35 discriminator 3
ARM GAS  /tmp/ccXFtjVt.s 			page 184


 6867 002e 7B68     		ldr	r3, [r7, #4]
 6868 0030 5B6A     		ldr	r3, [r3, #36]
 6869              		.loc 1 3486 29 discriminator 3
 6870 0032 1344     		add	r3, r3, r2
 6871              		.loc 1 3486 53 discriminator 3
 6872 0034 BA68     		ldr	r2, [r7, #8]
 6873 0036 D2B2     		uxtb	r2, r2
 6874              		.loc 1 3486 51 discriminator 3
 6875 0038 1A70     		strb	r2, [r3]
3487:./Libraries/STM32H7xx_HAL_Driver/Src/stm32h7xx_hal_jpeg.c ****       hjpeg->pJpegOutBuffPtr[hjpeg->JpegOutCount + 1UL] = (uint8_t)((dataword & 0x0000FF00UL) >> 8)
 6876              		.loc 1 3487 95 discriminator 3
 6877 003a BB68     		ldr	r3, [r7, #8]
 6878 003c 190A     		lsrs	r1, r3, #8
 6879              		.loc 1 3487 12 discriminator 3
 6880 003e 7B68     		ldr	r3, [r7, #4]
 6881 0040 DA69     		ldr	r2, [r3, #28]
 6882              		.loc 1 3487 35 discriminator 3
 6883 0042 7B68     		ldr	r3, [r7, #4]
 6884 0044 5B6A     		ldr	r3, [r3, #36]
 6885              		.loc 1 3487 29 discriminator 3
 6886 0046 0133     		adds	r3, r3, #1
 6887 0048 1344     		add	r3, r3, r2
 6888              		.loc 1 3487 59 discriminator 3
 6889 004a CAB2     		uxtb	r2, r1
 6890              		.loc 1 3487 57 discriminator 3
 6891 004c 1A70     		strb	r2, [r3]
3488:./Libraries/STM32H7xx_HAL_Driver/Src/stm32h7xx_hal_jpeg.c ****       hjpeg->pJpegOutBuffPtr[hjpeg->JpegOutCount + 2UL] = (uint8_t)((dataword & 0x00FF0000UL) >> 16
 6892              		.loc 1 3488 95 discriminator 3
 6893 004e BB68     		ldr	r3, [r7, #8]
 6894 0050 190C     		lsrs	r1, r3, #16
 6895              		.loc 1 3488 12 discriminator 3
 6896 0052 7B68     		ldr	r3, [r7, #4]
 6897 0054 DA69     		ldr	r2, [r3, #28]
 6898              		.loc 1 3488 35 discriminator 3
 6899 0056 7B68     		ldr	r3, [r7, #4]
 6900 0058 5B6A     		ldr	r3, [r3, #36]
 6901              		.loc 1 3488 29 discriminator 3
 6902 005a 0233     		adds	r3, r3, #2
 6903 005c 1344     		add	r3, r3, r2
 6904              		.loc 1 3488 59 discriminator 3
 6905 005e CAB2     		uxtb	r2, r1
 6906              		.loc 1 3488 57 discriminator 3
 6907 0060 1A70     		strb	r2, [r3]
3489:./Libraries/STM32H7xx_HAL_Driver/Src/stm32h7xx_hal_jpeg.c ****       hjpeg->pJpegOutBuffPtr[hjpeg->JpegOutCount + 3UL] = (uint8_t)((dataword & 0xFF000000UL) >> 24
 6908              		.loc 1 3489 95 discriminator 3
 6909 0062 BB68     		ldr	r3, [r7, #8]
 6910 0064 190E     		lsrs	r1, r3, #24
 6911              		.loc 1 3489 12 discriminator 3
 6912 0066 7B68     		ldr	r3, [r7, #4]
 6913 0068 DA69     		ldr	r2, [r3, #28]
 6914              		.loc 1 3489 35 discriminator 3
 6915 006a 7B68     		ldr	r3, [r7, #4]
 6916 006c 5B6A     		ldr	r3, [r3, #36]
 6917              		.loc 1 3489 29 discriminator 3
 6918 006e 0333     		adds	r3, r3, #3
 6919 0070 1344     		add	r3, r3, r2
 6920              		.loc 1 3489 59 discriminator 3
ARM GAS  /tmp/ccXFtjVt.s 			page 185


 6921 0072 CAB2     		uxtb	r2, r1
 6922              		.loc 1 3489 57 discriminator 3
 6923 0074 1A70     		strb	r2, [r3]
3490:./Libraries/STM32H7xx_HAL_Driver/Src/stm32h7xx_hal_jpeg.c ****       hjpeg->JpegOutCount += 4UL;
 6924              		.loc 1 3490 27 discriminator 3
 6925 0076 7B68     		ldr	r3, [r7, #4]
 6926 0078 5B6A     		ldr	r3, [r3, #36]
 6927 007a 1A1D     		adds	r2, r3, #4
 6928 007c 7B68     		ldr	r3, [r7, #4]
 6929 007e 5A62     		str	r2, [r3, #36]
3482:./Libraries/STM32H7xx_HAL_Driver/Src/stm32h7xx_hal_jpeg.c ****     {
 6930              		.loc 1 3482 49 discriminator 3
 6931 0080 7B69     		ldr	r3, [r7, #20]
 6932 0082 0133     		adds	r3, r3, #1
 6933 0084 7B61     		str	r3, [r7, #20]
 6934              	.L279:
3482:./Libraries/STM32H7xx_HAL_Driver/Src/stm32h7xx_hal_jpeg.c ****     {
 6935              		.loc 1 3482 5 discriminator 1
 6936 0086 7A69     		ldr	r2, [r7, #20]
 6937 0088 3B68     		ldr	r3, [r7]
 6938 008a 9A42     		cmp	r2, r3
 6939 008c C9D3     		bcc	.L280
3491:./Libraries/STM32H7xx_HAL_Driver/Src/stm32h7xx_hal_jpeg.c ****     }
3492:./Libraries/STM32H7xx_HAL_Driver/Src/stm32h7xx_hal_jpeg.c ****     if (hjpeg->OutDataLength == hjpeg->JpegOutCount)
 6940              		.loc 1 3492 14
 6941 008e 7B68     		ldr	r3, [r7, #4]
 6942 0090 DA6A     		ldr	r2, [r3, #44]
 6943              		.loc 1 3492 38
 6944 0092 7B68     		ldr	r3, [r7, #4]
 6945 0094 5B6A     		ldr	r3, [r3, #36]
 6946              		.loc 1 3492 8
 6947 0096 9A42     		cmp	r2, r3
 6948 0098 40F0B580 		bne	.L289
3493:./Libraries/STM32H7xx_HAL_Driver/Src/stm32h7xx_hal_jpeg.c ****     {
3494:./Libraries/STM32H7xx_HAL_Driver/Src/stm32h7xx_hal_jpeg.c ****       /*Output Buffer is full, call DecodedDataReadyCallback*/
3495:./Libraries/STM32H7xx_HAL_Driver/Src/stm32h7xx_hal_jpeg.c **** #if (USE_HAL_JPEG_REGISTER_CALLBACKS == 1)
3496:./Libraries/STM32H7xx_HAL_Driver/Src/stm32h7xx_hal_jpeg.c ****       hjpeg->DataReadyCallback(hjpeg, hjpeg->pJpegOutBuffPtr, hjpeg->JpegOutCount);
3497:./Libraries/STM32H7xx_HAL_Driver/Src/stm32h7xx_hal_jpeg.c **** #else
3498:./Libraries/STM32H7xx_HAL_Driver/Src/stm32h7xx_hal_jpeg.c ****       HAL_JPEG_DataReadyCallback(hjpeg, hjpeg->pJpegOutBuffPtr, hjpeg->JpegOutCount);
 6949              		.loc 1 3498 7
 6950 009c 7B68     		ldr	r3, [r7, #4]
 6951 009e D969     		ldr	r1, [r3, #28]
 6952 00a0 7B68     		ldr	r3, [r7, #4]
 6953 00a2 5B6A     		ldr	r3, [r3, #36]
 6954 00a4 1A46     		mov	r2, r3
 6955 00a6 7868     		ldr	r0, [r7, #4]
 6956 00a8 FFF7FEFF 		bl	HAL_JPEG_DataReadyCallback
3499:./Libraries/STM32H7xx_HAL_Driver/Src/stm32h7xx_hal_jpeg.c **** #endif /*USE_HAL_JPEG_REGISTER_CALLBACKS*/
3500:./Libraries/STM32H7xx_HAL_Driver/Src/stm32h7xx_hal_jpeg.c ****       hjpeg->JpegOutCount = 0;
 6957              		.loc 1 3500 27
 6958 00ac 7B68     		ldr	r3, [r7, #4]
 6959 00ae 0022     		movs	r2, #0
 6960 00b0 5A62     		str	r2, [r3, #36]
3501:./Libraries/STM32H7xx_HAL_Driver/Src/stm32h7xx_hal_jpeg.c ****     }
3502:./Libraries/STM32H7xx_HAL_Driver/Src/stm32h7xx_hal_jpeg.c ****   }
3503:./Libraries/STM32H7xx_HAL_Driver/Src/stm32h7xx_hal_jpeg.c ****   else if (hjpeg->OutDataLength > hjpeg->JpegOutCount)
3504:./Libraries/STM32H7xx_HAL_Driver/Src/stm32h7xx_hal_jpeg.c ****   {
ARM GAS  /tmp/ccXFtjVt.s 			page 186


3505:./Libraries/STM32H7xx_HAL_Driver/Src/stm32h7xx_hal_jpeg.c ****     nb_words = (hjpeg->OutDataLength - hjpeg->JpegOutCount) / 4UL;
3506:./Libraries/STM32H7xx_HAL_Driver/Src/stm32h7xx_hal_jpeg.c ****     for (index = 0; index < nb_words; index++)
3507:./Libraries/STM32H7xx_HAL_Driver/Src/stm32h7xx_hal_jpeg.c ****     {
3508:./Libraries/STM32H7xx_HAL_Driver/Src/stm32h7xx_hal_jpeg.c ****       /*Transfer 32 bits from the JPEG output FIFO*/
3509:./Libraries/STM32H7xx_HAL_Driver/Src/stm32h7xx_hal_jpeg.c ****       dataword = hjpeg->Instance->DOR;
3510:./Libraries/STM32H7xx_HAL_Driver/Src/stm32h7xx_hal_jpeg.c ****       hjpeg->pJpegOutBuffPtr[hjpeg->JpegOutCount] = (uint8_t)(dataword & 0x000000FFUL);
3511:./Libraries/STM32H7xx_HAL_Driver/Src/stm32h7xx_hal_jpeg.c ****       hjpeg->pJpegOutBuffPtr[hjpeg->JpegOutCount + 1UL] = (uint8_t)((dataword & 0x0000FF00UL) >> 8)
3512:./Libraries/STM32H7xx_HAL_Driver/Src/stm32h7xx_hal_jpeg.c ****       hjpeg->pJpegOutBuffPtr[hjpeg->JpegOutCount + 2UL] = (uint8_t)((dataword & 0x00FF0000UL) >> 16
3513:./Libraries/STM32H7xx_HAL_Driver/Src/stm32h7xx_hal_jpeg.c ****       hjpeg->pJpegOutBuffPtr[hjpeg->JpegOutCount + 3UL] = (uint8_t)((dataword & 0xFF000000UL) >> 24
3514:./Libraries/STM32H7xx_HAL_Driver/Src/stm32h7xx_hal_jpeg.c ****       hjpeg->JpegOutCount += 4UL;
3515:./Libraries/STM32H7xx_HAL_Driver/Src/stm32h7xx_hal_jpeg.c ****     }
3516:./Libraries/STM32H7xx_HAL_Driver/Src/stm32h7xx_hal_jpeg.c ****     if (hjpeg->OutDataLength == hjpeg->JpegOutCount)
3517:./Libraries/STM32H7xx_HAL_Driver/Src/stm32h7xx_hal_jpeg.c ****     {
3518:./Libraries/STM32H7xx_HAL_Driver/Src/stm32h7xx_hal_jpeg.c ****       /*Output Buffer is full, call DecodedDataReadyCallback*/
3519:./Libraries/STM32H7xx_HAL_Driver/Src/stm32h7xx_hal_jpeg.c **** #if (USE_HAL_JPEG_REGISTER_CALLBACKS == 1)
3520:./Libraries/STM32H7xx_HAL_Driver/Src/stm32h7xx_hal_jpeg.c ****       hjpeg->DataReadyCallback(hjpeg, hjpeg->pJpegOutBuffPtr, hjpeg->JpegOutCount);
3521:./Libraries/STM32H7xx_HAL_Driver/Src/stm32h7xx_hal_jpeg.c **** #else
3522:./Libraries/STM32H7xx_HAL_Driver/Src/stm32h7xx_hal_jpeg.c ****       HAL_JPEG_DataReadyCallback(hjpeg, hjpeg->pJpegOutBuffPtr, hjpeg->JpegOutCount);
3523:./Libraries/STM32H7xx_HAL_Driver/Src/stm32h7xx_hal_jpeg.c **** #endif /* USE_HAL_JPEG_REGISTER_CALLBACKS */
3524:./Libraries/STM32H7xx_HAL_Driver/Src/stm32h7xx_hal_jpeg.c ****       hjpeg->JpegOutCount = 0;
3525:./Libraries/STM32H7xx_HAL_Driver/Src/stm32h7xx_hal_jpeg.c ****     }
3526:./Libraries/STM32H7xx_HAL_Driver/Src/stm32h7xx_hal_jpeg.c ****     else
3527:./Libraries/STM32H7xx_HAL_Driver/Src/stm32h7xx_hal_jpeg.c ****     {
3528:./Libraries/STM32H7xx_HAL_Driver/Src/stm32h7xx_hal_jpeg.c ****       nb_bytes = hjpeg->OutDataLength - hjpeg->JpegOutCount;
3529:./Libraries/STM32H7xx_HAL_Driver/Src/stm32h7xx_hal_jpeg.c ****       dataword = hjpeg->Instance->DOR;
3530:./Libraries/STM32H7xx_HAL_Driver/Src/stm32h7xx_hal_jpeg.c ****       for (index = 0; index < nb_bytes; index++)
3531:./Libraries/STM32H7xx_HAL_Driver/Src/stm32h7xx_hal_jpeg.c ****       {
3532:./Libraries/STM32H7xx_HAL_Driver/Src/stm32h7xx_hal_jpeg.c ****         hjpeg->pJpegOutBuffPtr[hjpeg->JpegOutCount] = (uint8_t)((dataword >> (8UL * (index & 0x3UL)
3533:./Libraries/STM32H7xx_HAL_Driver/Src/stm32h7xx_hal_jpeg.c ****         hjpeg->JpegOutCount++;
3534:./Libraries/STM32H7xx_HAL_Driver/Src/stm32h7xx_hal_jpeg.c ****       }
3535:./Libraries/STM32H7xx_HAL_Driver/Src/stm32h7xx_hal_jpeg.c ****       /*Output Buffer is full, call DecodedDataReadyCallback*/
3536:./Libraries/STM32H7xx_HAL_Driver/Src/stm32h7xx_hal_jpeg.c **** #if (USE_HAL_JPEG_REGISTER_CALLBACKS == 1)
3537:./Libraries/STM32H7xx_HAL_Driver/Src/stm32h7xx_hal_jpeg.c ****       hjpeg->DataReadyCallback(hjpeg, hjpeg->pJpegOutBuffPtr, hjpeg->JpegOutCount);
3538:./Libraries/STM32H7xx_HAL_Driver/Src/stm32h7xx_hal_jpeg.c **** #else
3539:./Libraries/STM32H7xx_HAL_Driver/Src/stm32h7xx_hal_jpeg.c ****       HAL_JPEG_DataReadyCallback(hjpeg, hjpeg->pJpegOutBuffPtr, hjpeg->JpegOutCount);
3540:./Libraries/STM32H7xx_HAL_Driver/Src/stm32h7xx_hal_jpeg.c **** #endif /* USE_HAL_JPEG_REGISTER_CALLBACKS */
3541:./Libraries/STM32H7xx_HAL_Driver/Src/stm32h7xx_hal_jpeg.c **** 
3542:./Libraries/STM32H7xx_HAL_Driver/Src/stm32h7xx_hal_jpeg.c ****       hjpeg->JpegOutCount = 0;
3543:./Libraries/STM32H7xx_HAL_Driver/Src/stm32h7xx_hal_jpeg.c **** 
3544:./Libraries/STM32H7xx_HAL_Driver/Src/stm32h7xx_hal_jpeg.c ****       nb_bytes = 4UL - nb_bytes;
3545:./Libraries/STM32H7xx_HAL_Driver/Src/stm32h7xx_hal_jpeg.c ****       for (index = nb_bytes; index < 4UL; index++)
3546:./Libraries/STM32H7xx_HAL_Driver/Src/stm32h7xx_hal_jpeg.c ****       {
3547:./Libraries/STM32H7xx_HAL_Driver/Src/stm32h7xx_hal_jpeg.c ****         hjpeg->pJpegOutBuffPtr[hjpeg->JpegOutCount] = (uint8_t)((dataword >> (8UL * index)) & 0xFFU
3548:./Libraries/STM32H7xx_HAL_Driver/Src/stm32h7xx_hal_jpeg.c ****         hjpeg->JpegOutCount++;
3549:./Libraries/STM32H7xx_HAL_Driver/Src/stm32h7xx_hal_jpeg.c ****       }
3550:./Libraries/STM32H7xx_HAL_Driver/Src/stm32h7xx_hal_jpeg.c ****     }
3551:./Libraries/STM32H7xx_HAL_Driver/Src/stm32h7xx_hal_jpeg.c ****   }
3552:./Libraries/STM32H7xx_HAL_Driver/Src/stm32h7xx_hal_jpeg.c ****   else
3553:./Libraries/STM32H7xx_HAL_Driver/Src/stm32h7xx_hal_jpeg.c ****   {
3554:./Libraries/STM32H7xx_HAL_Driver/Src/stm32h7xx_hal_jpeg.c ****     /* Nothing to do */
3555:./Libraries/STM32H7xx_HAL_Driver/Src/stm32h7xx_hal_jpeg.c ****   }
3556:./Libraries/STM32H7xx_HAL_Driver/Src/stm32h7xx_hal_jpeg.c **** }
 6961              		.loc 1 3556 1
 6962 00b2 A8E0     		b	.L289
 6963              	.L278:
3503:./Libraries/STM32H7xx_HAL_Driver/Src/stm32h7xx_hal_jpeg.c ****   {
 6964              		.loc 1 3503 17
ARM GAS  /tmp/ccXFtjVt.s 			page 187


 6965 00b4 7B68     		ldr	r3, [r7, #4]
 6966 00b6 DA6A     		ldr	r2, [r3, #44]
3503:./Libraries/STM32H7xx_HAL_Driver/Src/stm32h7xx_hal_jpeg.c ****   {
 6967              		.loc 1 3503 40
 6968 00b8 7B68     		ldr	r3, [r7, #4]
 6969 00ba 5B6A     		ldr	r3, [r3, #36]
3503:./Libraries/STM32H7xx_HAL_Driver/Src/stm32h7xx_hal_jpeg.c ****   {
 6970              		.loc 1 3503 11
 6971 00bc 9A42     		cmp	r2, r3
 6972 00be 40F2A280 		bls	.L289
3505:./Libraries/STM32H7xx_HAL_Driver/Src/stm32h7xx_hal_jpeg.c ****     for (index = 0; index < nb_words; index++)
 6973              		.loc 1 3505 22
 6974 00c2 7B68     		ldr	r3, [r7, #4]
 6975 00c4 DA6A     		ldr	r2, [r3, #44]
3505:./Libraries/STM32H7xx_HAL_Driver/Src/stm32h7xx_hal_jpeg.c ****     for (index = 0; index < nb_words; index++)
 6976              		.loc 1 3505 45
 6977 00c6 7B68     		ldr	r3, [r7, #4]
 6978 00c8 5B6A     		ldr	r3, [r3, #36]
3505:./Libraries/STM32H7xx_HAL_Driver/Src/stm32h7xx_hal_jpeg.c ****     for (index = 0; index < nb_words; index++)
 6979              		.loc 1 3505 38
 6980 00ca D31A     		subs	r3, r2, r3
3505:./Libraries/STM32H7xx_HAL_Driver/Src/stm32h7xx_hal_jpeg.c ****     for (index = 0; index < nb_words; index++)
 6981              		.loc 1 3505 14
 6982 00cc 9B08     		lsrs	r3, r3, #2
 6983 00ce 3B61     		str	r3, [r7, #16]
3506:./Libraries/STM32H7xx_HAL_Driver/Src/stm32h7xx_hal_jpeg.c ****     {
 6984              		.loc 1 3506 16
 6985 00d0 0023     		movs	r3, #0
 6986 00d2 7B61     		str	r3, [r7, #20]
3506:./Libraries/STM32H7xx_HAL_Driver/Src/stm32h7xx_hal_jpeg.c ****     {
 6987              		.loc 1 3506 5
 6988 00d4 31E0     		b	.L282
 6989              	.L283:
3509:./Libraries/STM32H7xx_HAL_Driver/Src/stm32h7xx_hal_jpeg.c ****       hjpeg->pJpegOutBuffPtr[hjpeg->JpegOutCount] = (uint8_t)(dataword & 0x000000FFUL);
 6990              		.loc 1 3509 23 discriminator 3
 6991 00d6 7B68     		ldr	r3, [r7, #4]
 6992 00d8 1B68     		ldr	r3, [r3]
3509:./Libraries/STM32H7xx_HAL_Driver/Src/stm32h7xx_hal_jpeg.c ****       hjpeg->pJpegOutBuffPtr[hjpeg->JpegOutCount] = (uint8_t)(dataword & 0x000000FFUL);
 6993              		.loc 1 3509 16 discriminator 3
 6994 00da 5B6C     		ldr	r3, [r3, #68]
 6995 00dc BB60     		str	r3, [r7, #8]
3510:./Libraries/STM32H7xx_HAL_Driver/Src/stm32h7xx_hal_jpeg.c ****       hjpeg->pJpegOutBuffPtr[hjpeg->JpegOutCount + 1UL] = (uint8_t)((dataword & 0x0000FF00UL) >> 8)
 6996              		.loc 1 3510 12 discriminator 3
 6997 00de 7B68     		ldr	r3, [r7, #4]
 6998 00e0 DA69     		ldr	r2, [r3, #28]
3510:./Libraries/STM32H7xx_HAL_Driver/Src/stm32h7xx_hal_jpeg.c ****       hjpeg->pJpegOutBuffPtr[hjpeg->JpegOutCount + 1UL] = (uint8_t)((dataword & 0x0000FF00UL) >> 8)
 6999              		.loc 1 3510 35 discriminator 3
 7000 00e2 7B68     		ldr	r3, [r7, #4]
 7001 00e4 5B6A     		ldr	r3, [r3, #36]
3510:./Libraries/STM32H7xx_HAL_Driver/Src/stm32h7xx_hal_jpeg.c ****       hjpeg->pJpegOutBuffPtr[hjpeg->JpegOutCount + 1UL] = (uint8_t)((dataword & 0x0000FF00UL) >> 8)
 7002              		.loc 1 3510 29 discriminator 3
 7003 00e6 1344     		add	r3, r3, r2
3510:./Libraries/STM32H7xx_HAL_Driver/Src/stm32h7xx_hal_jpeg.c ****       hjpeg->pJpegOutBuffPtr[hjpeg->JpegOutCount + 1UL] = (uint8_t)((dataword & 0x0000FF00UL) >> 8)
 7004              		.loc 1 3510 53 discriminator 3
 7005 00e8 BA68     		ldr	r2, [r7, #8]
 7006 00ea D2B2     		uxtb	r2, r2
3510:./Libraries/STM32H7xx_HAL_Driver/Src/stm32h7xx_hal_jpeg.c ****       hjpeg->pJpegOutBuffPtr[hjpeg->JpegOutCount + 1UL] = (uint8_t)((dataword & 0x0000FF00UL) >> 8)
ARM GAS  /tmp/ccXFtjVt.s 			page 188


 7007              		.loc 1 3510 51 discriminator 3
 7008 00ec 1A70     		strb	r2, [r3]
3511:./Libraries/STM32H7xx_HAL_Driver/Src/stm32h7xx_hal_jpeg.c ****       hjpeg->pJpegOutBuffPtr[hjpeg->JpegOutCount + 2UL] = (uint8_t)((dataword & 0x00FF0000UL) >> 16
 7009              		.loc 1 3511 95 discriminator 3
 7010 00ee BB68     		ldr	r3, [r7, #8]
 7011 00f0 190A     		lsrs	r1, r3, #8
3511:./Libraries/STM32H7xx_HAL_Driver/Src/stm32h7xx_hal_jpeg.c ****       hjpeg->pJpegOutBuffPtr[hjpeg->JpegOutCount + 2UL] = (uint8_t)((dataword & 0x00FF0000UL) >> 16
 7012              		.loc 1 3511 12 discriminator 3
 7013 00f2 7B68     		ldr	r3, [r7, #4]
 7014 00f4 DA69     		ldr	r2, [r3, #28]
3511:./Libraries/STM32H7xx_HAL_Driver/Src/stm32h7xx_hal_jpeg.c ****       hjpeg->pJpegOutBuffPtr[hjpeg->JpegOutCount + 2UL] = (uint8_t)((dataword & 0x00FF0000UL) >> 16
 7015              		.loc 1 3511 35 discriminator 3
 7016 00f6 7B68     		ldr	r3, [r7, #4]
 7017 00f8 5B6A     		ldr	r3, [r3, #36]
3511:./Libraries/STM32H7xx_HAL_Driver/Src/stm32h7xx_hal_jpeg.c ****       hjpeg->pJpegOutBuffPtr[hjpeg->JpegOutCount + 2UL] = (uint8_t)((dataword & 0x00FF0000UL) >> 16
 7018              		.loc 1 3511 29 discriminator 3
 7019 00fa 0133     		adds	r3, r3, #1
 7020 00fc 1344     		add	r3, r3, r2
3511:./Libraries/STM32H7xx_HAL_Driver/Src/stm32h7xx_hal_jpeg.c ****       hjpeg->pJpegOutBuffPtr[hjpeg->JpegOutCount + 2UL] = (uint8_t)((dataword & 0x00FF0000UL) >> 16
 7021              		.loc 1 3511 59 discriminator 3
 7022 00fe CAB2     		uxtb	r2, r1
3511:./Libraries/STM32H7xx_HAL_Driver/Src/stm32h7xx_hal_jpeg.c ****       hjpeg->pJpegOutBuffPtr[hjpeg->JpegOutCount + 2UL] = (uint8_t)((dataword & 0x00FF0000UL) >> 16
 7023              		.loc 1 3511 57 discriminator 3
 7024 0100 1A70     		strb	r2, [r3]
3512:./Libraries/STM32H7xx_HAL_Driver/Src/stm32h7xx_hal_jpeg.c ****       hjpeg->pJpegOutBuffPtr[hjpeg->JpegOutCount + 3UL] = (uint8_t)((dataword & 0xFF000000UL) >> 24
 7025              		.loc 1 3512 95 discriminator 3
 7026 0102 BB68     		ldr	r3, [r7, #8]
 7027 0104 190C     		lsrs	r1, r3, #16
3512:./Libraries/STM32H7xx_HAL_Driver/Src/stm32h7xx_hal_jpeg.c ****       hjpeg->pJpegOutBuffPtr[hjpeg->JpegOutCount + 3UL] = (uint8_t)((dataword & 0xFF000000UL) >> 24
 7028              		.loc 1 3512 12 discriminator 3
 7029 0106 7B68     		ldr	r3, [r7, #4]
 7030 0108 DA69     		ldr	r2, [r3, #28]
3512:./Libraries/STM32H7xx_HAL_Driver/Src/stm32h7xx_hal_jpeg.c ****       hjpeg->pJpegOutBuffPtr[hjpeg->JpegOutCount + 3UL] = (uint8_t)((dataword & 0xFF000000UL) >> 24
 7031              		.loc 1 3512 35 discriminator 3
 7032 010a 7B68     		ldr	r3, [r7, #4]
 7033 010c 5B6A     		ldr	r3, [r3, #36]
3512:./Libraries/STM32H7xx_HAL_Driver/Src/stm32h7xx_hal_jpeg.c ****       hjpeg->pJpegOutBuffPtr[hjpeg->JpegOutCount + 3UL] = (uint8_t)((dataword & 0xFF000000UL) >> 24
 7034              		.loc 1 3512 29 discriminator 3
 7035 010e 0233     		adds	r3, r3, #2
 7036 0110 1344     		add	r3, r3, r2
3512:./Libraries/STM32H7xx_HAL_Driver/Src/stm32h7xx_hal_jpeg.c ****       hjpeg->pJpegOutBuffPtr[hjpeg->JpegOutCount + 3UL] = (uint8_t)((dataword & 0xFF000000UL) >> 24
 7037              		.loc 1 3512 59 discriminator 3
 7038 0112 CAB2     		uxtb	r2, r1
3512:./Libraries/STM32H7xx_HAL_Driver/Src/stm32h7xx_hal_jpeg.c ****       hjpeg->pJpegOutBuffPtr[hjpeg->JpegOutCount + 3UL] = (uint8_t)((dataword & 0xFF000000UL) >> 24
 7039              		.loc 1 3512 57 discriminator 3
 7040 0114 1A70     		strb	r2, [r3]
3513:./Libraries/STM32H7xx_HAL_Driver/Src/stm32h7xx_hal_jpeg.c ****       hjpeg->JpegOutCount += 4UL;
 7041              		.loc 1 3513 95 discriminator 3
 7042 0116 BB68     		ldr	r3, [r7, #8]
 7043 0118 190E     		lsrs	r1, r3, #24
3513:./Libraries/STM32H7xx_HAL_Driver/Src/stm32h7xx_hal_jpeg.c ****       hjpeg->JpegOutCount += 4UL;
 7044              		.loc 1 3513 12 discriminator 3
 7045 011a 7B68     		ldr	r3, [r7, #4]
 7046 011c DA69     		ldr	r2, [r3, #28]
3513:./Libraries/STM32H7xx_HAL_Driver/Src/stm32h7xx_hal_jpeg.c ****       hjpeg->JpegOutCount += 4UL;
 7047              		.loc 1 3513 35 discriminator 3
 7048 011e 7B68     		ldr	r3, [r7, #4]
ARM GAS  /tmp/ccXFtjVt.s 			page 189


 7049 0120 5B6A     		ldr	r3, [r3, #36]
3513:./Libraries/STM32H7xx_HAL_Driver/Src/stm32h7xx_hal_jpeg.c ****       hjpeg->JpegOutCount += 4UL;
 7050              		.loc 1 3513 29 discriminator 3
 7051 0122 0333     		adds	r3, r3, #3
 7052 0124 1344     		add	r3, r3, r2
3513:./Libraries/STM32H7xx_HAL_Driver/Src/stm32h7xx_hal_jpeg.c ****       hjpeg->JpegOutCount += 4UL;
 7053              		.loc 1 3513 59 discriminator 3
 7054 0126 CAB2     		uxtb	r2, r1
3513:./Libraries/STM32H7xx_HAL_Driver/Src/stm32h7xx_hal_jpeg.c ****       hjpeg->JpegOutCount += 4UL;
 7055              		.loc 1 3513 57 discriminator 3
 7056 0128 1A70     		strb	r2, [r3]
3514:./Libraries/STM32H7xx_HAL_Driver/Src/stm32h7xx_hal_jpeg.c ****     }
 7057              		.loc 1 3514 27 discriminator 3
 7058 012a 7B68     		ldr	r3, [r7, #4]
 7059 012c 5B6A     		ldr	r3, [r3, #36]
 7060 012e 1A1D     		adds	r2, r3, #4
 7061 0130 7B68     		ldr	r3, [r7, #4]
 7062 0132 5A62     		str	r2, [r3, #36]
3506:./Libraries/STM32H7xx_HAL_Driver/Src/stm32h7xx_hal_jpeg.c ****     {
 7063              		.loc 1 3506 44 discriminator 3
 7064 0134 7B69     		ldr	r3, [r7, #20]
 7065 0136 0133     		adds	r3, r3, #1
 7066 0138 7B61     		str	r3, [r7, #20]
 7067              	.L282:
3506:./Libraries/STM32H7xx_HAL_Driver/Src/stm32h7xx_hal_jpeg.c ****     {
 7068              		.loc 1 3506 5 discriminator 1
 7069 013a 7A69     		ldr	r2, [r7, #20]
 7070 013c 3B69     		ldr	r3, [r7, #16]
 7071 013e 9A42     		cmp	r2, r3
 7072 0140 C9D3     		bcc	.L283
3516:./Libraries/STM32H7xx_HAL_Driver/Src/stm32h7xx_hal_jpeg.c ****     {
 7073              		.loc 1 3516 14
 7074 0142 7B68     		ldr	r3, [r7, #4]
 7075 0144 DA6A     		ldr	r2, [r3, #44]
3516:./Libraries/STM32H7xx_HAL_Driver/Src/stm32h7xx_hal_jpeg.c ****     {
 7076              		.loc 1 3516 38
 7077 0146 7B68     		ldr	r3, [r7, #4]
 7078 0148 5B6A     		ldr	r3, [r3, #36]
3516:./Libraries/STM32H7xx_HAL_Driver/Src/stm32h7xx_hal_jpeg.c ****     {
 7079              		.loc 1 3516 8
 7080 014a 9A42     		cmp	r2, r3
 7081 014c 0BD1     		bne	.L284
3522:./Libraries/STM32H7xx_HAL_Driver/Src/stm32h7xx_hal_jpeg.c **** #endif /* USE_HAL_JPEG_REGISTER_CALLBACKS */
 7082              		.loc 1 3522 7
 7083 014e 7B68     		ldr	r3, [r7, #4]
 7084 0150 D969     		ldr	r1, [r3, #28]
 7085 0152 7B68     		ldr	r3, [r7, #4]
 7086 0154 5B6A     		ldr	r3, [r3, #36]
 7087 0156 1A46     		mov	r2, r3
 7088 0158 7868     		ldr	r0, [r7, #4]
 7089 015a FFF7FEFF 		bl	HAL_JPEG_DataReadyCallback
3524:./Libraries/STM32H7xx_HAL_Driver/Src/stm32h7xx_hal_jpeg.c ****     }
 7090              		.loc 1 3524 27
 7091 015e 7B68     		ldr	r3, [r7, #4]
 7092 0160 0022     		movs	r2, #0
 7093 0162 5A62     		str	r2, [r3, #36]
 7094              		.loc 1 3556 1
ARM GAS  /tmp/ccXFtjVt.s 			page 190


 7095 0164 4FE0     		b	.L289
 7096              	.L284:
3528:./Libraries/STM32H7xx_HAL_Driver/Src/stm32h7xx_hal_jpeg.c ****       dataword = hjpeg->Instance->DOR;
 7097              		.loc 1 3528 23
 7098 0166 7B68     		ldr	r3, [r7, #4]
 7099 0168 DA6A     		ldr	r2, [r3, #44]
3528:./Libraries/STM32H7xx_HAL_Driver/Src/stm32h7xx_hal_jpeg.c ****       dataword = hjpeg->Instance->DOR;
 7100              		.loc 1 3528 46
 7101 016a 7B68     		ldr	r3, [r7, #4]
 7102 016c 5B6A     		ldr	r3, [r3, #36]
3528:./Libraries/STM32H7xx_HAL_Driver/Src/stm32h7xx_hal_jpeg.c ****       dataword = hjpeg->Instance->DOR;
 7103              		.loc 1 3528 16
 7104 016e D31A     		subs	r3, r2, r3
 7105 0170 FB60     		str	r3, [r7, #12]
3529:./Libraries/STM32H7xx_HAL_Driver/Src/stm32h7xx_hal_jpeg.c ****       for (index = 0; index < nb_bytes; index++)
 7106              		.loc 1 3529 23
 7107 0172 7B68     		ldr	r3, [r7, #4]
 7108 0174 1B68     		ldr	r3, [r3]
3529:./Libraries/STM32H7xx_HAL_Driver/Src/stm32h7xx_hal_jpeg.c ****       for (index = 0; index < nb_bytes; index++)
 7109              		.loc 1 3529 16
 7110 0176 5B6C     		ldr	r3, [r3, #68]
 7111 0178 BB60     		str	r3, [r7, #8]
3530:./Libraries/STM32H7xx_HAL_Driver/Src/stm32h7xx_hal_jpeg.c ****       {
 7112              		.loc 1 3530 18
 7113 017a 0023     		movs	r3, #0
 7114 017c 7B61     		str	r3, [r7, #20]
3530:./Libraries/STM32H7xx_HAL_Driver/Src/stm32h7xx_hal_jpeg.c ****       {
 7115              		.loc 1 3530 7
 7116 017e 15E0     		b	.L285
 7117              	.L286:
3532:./Libraries/STM32H7xx_HAL_Driver/Src/stm32h7xx_hal_jpeg.c ****         hjpeg->JpegOutCount++;
 7118              		.loc 1 3532 92 discriminator 3
 7119 0180 7B69     		ldr	r3, [r7, #20]
 7120 0182 03F00303 		and	r3, r3, #3
3532:./Libraries/STM32H7xx_HAL_Driver/Src/stm32h7xx_hal_jpeg.c ****         hjpeg->JpegOutCount++;
 7121              		.loc 1 3532 83 discriminator 3
 7122 0186 DB00     		lsls	r3, r3, #3
3532:./Libraries/STM32H7xx_HAL_Driver/Src/stm32h7xx_hal_jpeg.c ****         hjpeg->JpegOutCount++;
 7123              		.loc 1 3532 75 discriminator 3
 7124 0188 BA68     		ldr	r2, [r7, #8]
 7125 018a 22FA03F1 		lsr	r1, r2, r3
3532:./Libraries/STM32H7xx_HAL_Driver/Src/stm32h7xx_hal_jpeg.c ****         hjpeg->JpegOutCount++;
 7126              		.loc 1 3532 14 discriminator 3
 7127 018e 7B68     		ldr	r3, [r7, #4]
 7128 0190 DA69     		ldr	r2, [r3, #28]
3532:./Libraries/STM32H7xx_HAL_Driver/Src/stm32h7xx_hal_jpeg.c ****         hjpeg->JpegOutCount++;
 7129              		.loc 1 3532 37 discriminator 3
 7130 0192 7B68     		ldr	r3, [r7, #4]
 7131 0194 5B6A     		ldr	r3, [r3, #36]
3532:./Libraries/STM32H7xx_HAL_Driver/Src/stm32h7xx_hal_jpeg.c ****         hjpeg->JpegOutCount++;
 7132              		.loc 1 3532 31 discriminator 3
 7133 0196 1344     		add	r3, r3, r2
3532:./Libraries/STM32H7xx_HAL_Driver/Src/stm32h7xx_hal_jpeg.c ****         hjpeg->JpegOutCount++;
 7134              		.loc 1 3532 55 discriminator 3
 7135 0198 CAB2     		uxtb	r2, r1
3532:./Libraries/STM32H7xx_HAL_Driver/Src/stm32h7xx_hal_jpeg.c ****         hjpeg->JpegOutCount++;
 7136              		.loc 1 3532 53 discriminator 3
ARM GAS  /tmp/ccXFtjVt.s 			page 191


 7137 019a 1A70     		strb	r2, [r3]
3533:./Libraries/STM32H7xx_HAL_Driver/Src/stm32h7xx_hal_jpeg.c ****       }
 7138              		.loc 1 3533 14 discriminator 3
 7139 019c 7B68     		ldr	r3, [r7, #4]
 7140 019e 5B6A     		ldr	r3, [r3, #36]
3533:./Libraries/STM32H7xx_HAL_Driver/Src/stm32h7xx_hal_jpeg.c ****       }
 7141              		.loc 1 3533 28 discriminator 3
 7142 01a0 5A1C     		adds	r2, r3, #1
 7143 01a2 7B68     		ldr	r3, [r7, #4]
 7144 01a4 5A62     		str	r2, [r3, #36]
3530:./Libraries/STM32H7xx_HAL_Driver/Src/stm32h7xx_hal_jpeg.c ****       {
 7145              		.loc 1 3530 46 discriminator 3
 7146 01a6 7B69     		ldr	r3, [r7, #20]
 7147 01a8 0133     		adds	r3, r3, #1
 7148 01aa 7B61     		str	r3, [r7, #20]
 7149              	.L285:
3530:./Libraries/STM32H7xx_HAL_Driver/Src/stm32h7xx_hal_jpeg.c ****       {
 7150              		.loc 1 3530 7 discriminator 1
 7151 01ac 7A69     		ldr	r2, [r7, #20]
 7152 01ae FB68     		ldr	r3, [r7, #12]
 7153 01b0 9A42     		cmp	r2, r3
 7154 01b2 E5D3     		bcc	.L286
3539:./Libraries/STM32H7xx_HAL_Driver/Src/stm32h7xx_hal_jpeg.c **** #endif /* USE_HAL_JPEG_REGISTER_CALLBACKS */
 7155              		.loc 1 3539 7
 7156 01b4 7B68     		ldr	r3, [r7, #4]
 7157 01b6 D969     		ldr	r1, [r3, #28]
 7158 01b8 7B68     		ldr	r3, [r7, #4]
 7159 01ba 5B6A     		ldr	r3, [r3, #36]
 7160 01bc 1A46     		mov	r2, r3
 7161 01be 7868     		ldr	r0, [r7, #4]
 7162 01c0 FFF7FEFF 		bl	HAL_JPEG_DataReadyCallback
3542:./Libraries/STM32H7xx_HAL_Driver/Src/stm32h7xx_hal_jpeg.c **** 
 7163              		.loc 1 3542 27
 7164 01c4 7B68     		ldr	r3, [r7, #4]
 7165 01c6 0022     		movs	r2, #0
 7166 01c8 5A62     		str	r2, [r3, #36]
3544:./Libraries/STM32H7xx_HAL_Driver/Src/stm32h7xx_hal_jpeg.c ****       for (index = nb_bytes; index < 4UL; index++)
 7167              		.loc 1 3544 16
 7168 01ca FB68     		ldr	r3, [r7, #12]
 7169 01cc C3F10403 		rsb	r3, r3, #4
 7170 01d0 FB60     		str	r3, [r7, #12]
3545:./Libraries/STM32H7xx_HAL_Driver/Src/stm32h7xx_hal_jpeg.c ****       {
 7171              		.loc 1 3545 18
 7172 01d2 FB68     		ldr	r3, [r7, #12]
 7173 01d4 7B61     		str	r3, [r7, #20]
3545:./Libraries/STM32H7xx_HAL_Driver/Src/stm32h7xx_hal_jpeg.c ****       {
 7174              		.loc 1 3545 7
 7175 01d6 13E0     		b	.L287
 7176              	.L288:
3547:./Libraries/STM32H7xx_HAL_Driver/Src/stm32h7xx_hal_jpeg.c ****         hjpeg->JpegOutCount++;
 7177              		.loc 1 3547 83 discriminator 3
 7178 01d8 7B69     		ldr	r3, [r7, #20]
 7179 01da DB00     		lsls	r3, r3, #3
3547:./Libraries/STM32H7xx_HAL_Driver/Src/stm32h7xx_hal_jpeg.c ****         hjpeg->JpegOutCount++;
 7180              		.loc 1 3547 75 discriminator 3
 7181 01dc BA68     		ldr	r2, [r7, #8]
 7182 01de 22FA03F1 		lsr	r1, r2, r3
ARM GAS  /tmp/ccXFtjVt.s 			page 192


3547:./Libraries/STM32H7xx_HAL_Driver/Src/stm32h7xx_hal_jpeg.c ****         hjpeg->JpegOutCount++;
 7183              		.loc 1 3547 14 discriminator 3
 7184 01e2 7B68     		ldr	r3, [r7, #4]
 7185 01e4 DA69     		ldr	r2, [r3, #28]
3547:./Libraries/STM32H7xx_HAL_Driver/Src/stm32h7xx_hal_jpeg.c ****         hjpeg->JpegOutCount++;
 7186              		.loc 1 3547 37 discriminator 3
 7187 01e6 7B68     		ldr	r3, [r7, #4]
 7188 01e8 5B6A     		ldr	r3, [r3, #36]
3547:./Libraries/STM32H7xx_HAL_Driver/Src/stm32h7xx_hal_jpeg.c ****         hjpeg->JpegOutCount++;
 7189              		.loc 1 3547 31 discriminator 3
 7190 01ea 1344     		add	r3, r3, r2
3547:./Libraries/STM32H7xx_HAL_Driver/Src/stm32h7xx_hal_jpeg.c ****         hjpeg->JpegOutCount++;
 7191              		.loc 1 3547 55 discriminator 3
 7192 01ec CAB2     		uxtb	r2, r1
3547:./Libraries/STM32H7xx_HAL_Driver/Src/stm32h7xx_hal_jpeg.c ****         hjpeg->JpegOutCount++;
 7193              		.loc 1 3547 53 discriminator 3
 7194 01ee 1A70     		strb	r2, [r3]
3548:./Libraries/STM32H7xx_HAL_Driver/Src/stm32h7xx_hal_jpeg.c ****       }
 7195              		.loc 1 3548 14 discriminator 3
 7196 01f0 7B68     		ldr	r3, [r7, #4]
 7197 01f2 5B6A     		ldr	r3, [r3, #36]
3548:./Libraries/STM32H7xx_HAL_Driver/Src/stm32h7xx_hal_jpeg.c ****       }
 7198              		.loc 1 3548 28 discriminator 3
 7199 01f4 5A1C     		adds	r2, r3, #1
 7200 01f6 7B68     		ldr	r3, [r7, #4]
 7201 01f8 5A62     		str	r2, [r3, #36]
3545:./Libraries/STM32H7xx_HAL_Driver/Src/stm32h7xx_hal_jpeg.c ****       {
 7202              		.loc 1 3545 48 discriminator 3
 7203 01fa 7B69     		ldr	r3, [r7, #20]
 7204 01fc 0133     		adds	r3, r3, #1
 7205 01fe 7B61     		str	r3, [r7, #20]
 7206              	.L287:
3545:./Libraries/STM32H7xx_HAL_Driver/Src/stm32h7xx_hal_jpeg.c ****       {
 7207              		.loc 1 3545 7 discriminator 1
 7208 0200 7B69     		ldr	r3, [r7, #20]
 7209 0202 032B     		cmp	r3, #3
 7210 0204 E8D9     		bls	.L288
 7211              	.L289:
 7212              		.loc 1 3556 1
 7213 0206 00BF     		nop
 7214 0208 1837     		adds	r7, r7, #24
 7215              	.LCFI236:
 7216              		.cfi_def_cfa_offset 8
 7217 020a BD46     		mov	sp, r7
 7218              	.LCFI237:
 7219              		.cfi_def_cfa_register 13
 7220              		@ sp needed
 7221 020c 80BD     		pop	{r7, pc}
 7222              		.cfi_endproc
 7223              	.LFE373:
 7225              		.section	.text.JPEG_ReadInputData,"ax",%progbits
 7226              		.align	1
 7227              		.syntax unified
 7228              		.thumb
 7229              		.thumb_func
 7230              		.fpu fpv5-d16
 7232              	JPEG_ReadInputData:
ARM GAS  /tmp/ccXFtjVt.s 			page 193


 7233              	.LFB374:
3557:./Libraries/STM32H7xx_HAL_Driver/Src/stm32h7xx_hal_jpeg.c **** 
3558:./Libraries/STM32H7xx_HAL_Driver/Src/stm32h7xx_hal_jpeg.c **** /**
3559:./Libraries/STM32H7xx_HAL_Driver/Src/stm32h7xx_hal_jpeg.c ****   * @brief  Read some input Data from the input buffer.
3560:./Libraries/STM32H7xx_HAL_Driver/Src/stm32h7xx_hal_jpeg.c ****   *         This function is used when the JPEG peripheral needs new data
3561:./Libraries/STM32H7xx_HAL_Driver/Src/stm32h7xx_hal_jpeg.c ****   *         in case of Polling or Interrupt process
3562:./Libraries/STM32H7xx_HAL_Driver/Src/stm32h7xx_hal_jpeg.c ****   * @param  hjpeg pointer to a JPEG_HandleTypeDef structure that contains
3563:./Libraries/STM32H7xx_HAL_Driver/Src/stm32h7xx_hal_jpeg.c ****   *         the configuration information for JPEG module
3564:./Libraries/STM32H7xx_HAL_Driver/Src/stm32h7xx_hal_jpeg.c ****   * @param  nbRequestWords Number of input words (of 32 bits) that the JPE peripheral request
3565:./Libraries/STM32H7xx_HAL_Driver/Src/stm32h7xx_hal_jpeg.c ****   * @retval None
3566:./Libraries/STM32H7xx_HAL_Driver/Src/stm32h7xx_hal_jpeg.c ****   */
3567:./Libraries/STM32H7xx_HAL_Driver/Src/stm32h7xx_hal_jpeg.c **** static void JPEG_ReadInputData(JPEG_HandleTypeDef *hjpeg, uint32_t nbRequestWords)
3568:./Libraries/STM32H7xx_HAL_Driver/Src/stm32h7xx_hal_jpeg.c **** {
 7234              		.loc 1 3568 1
 7235              		.cfi_startproc
 7236              		@ args = 0, pretend = 0, frame = 32
 7237              		@ frame_needed = 1, uses_anonymous_args = 0
 7238 0000 80B5     		push	{r7, lr}
 7239              	.LCFI238:
 7240              		.cfi_def_cfa_offset 8
 7241              		.cfi_offset 7, -8
 7242              		.cfi_offset 14, -4
 7243 0002 88B0     		sub	sp, sp, #32
 7244              	.LCFI239:
 7245              		.cfi_def_cfa_offset 40
 7246 0004 00AF     		add	r7, sp, #0
 7247              	.LCFI240:
 7248              		.cfi_def_cfa_register 7
 7249 0006 7860     		str	r0, [r7, #4]
 7250 0008 3960     		str	r1, [r7]
3569:./Libraries/STM32H7xx_HAL_Driver/Src/stm32h7xx_hal_jpeg.c ****   uint32_t nb_bytes = 0;
 7251              		.loc 1 3569 12
 7252 000a 0023     		movs	r3, #0
 7253 000c FB61     		str	r3, [r7, #28]
3570:./Libraries/STM32H7xx_HAL_Driver/Src/stm32h7xx_hal_jpeg.c ****   uint32_t nb_words;
3571:./Libraries/STM32H7xx_HAL_Driver/Src/stm32h7xx_hal_jpeg.c ****   uint32_t index;
3572:./Libraries/STM32H7xx_HAL_Driver/Src/stm32h7xx_hal_jpeg.c ****   uint32_t dataword;
3573:./Libraries/STM32H7xx_HAL_Driver/Src/stm32h7xx_hal_jpeg.c ****   uint32_t input_count;
3574:./Libraries/STM32H7xx_HAL_Driver/Src/stm32h7xx_hal_jpeg.c **** 
3575:./Libraries/STM32H7xx_HAL_Driver/Src/stm32h7xx_hal_jpeg.c ****   if ((hjpeg->InDataLength == 0UL) || (nbRequestWords == 0UL))
 7254              		.loc 1 3575 13
 7255 000e 7B68     		ldr	r3, [r7, #4]
 7256 0010 9B6A     		ldr	r3, [r3, #40]
 7257              		.loc 1 3575 6
 7258 0012 002B     		cmp	r3, #0
 7259 0014 02D0     		beq	.L291
 7260              		.loc 1 3575 36 discriminator 1
 7261 0016 3B68     		ldr	r3, [r7]
 7262 0018 002B     		cmp	r3, #0
 7263 001a 04D1     		bne	.L292
 7264              	.L291:
3576:./Libraries/STM32H7xx_HAL_Driver/Src/stm32h7xx_hal_jpeg.c ****   {
3577:./Libraries/STM32H7xx_HAL_Driver/Src/stm32h7xx_hal_jpeg.c ****     /* No more Input data : nothing to do*/
3578:./Libraries/STM32H7xx_HAL_Driver/Src/stm32h7xx_hal_jpeg.c ****     (void) HAL_JPEG_Pause(hjpeg, JPEG_PAUSE_RESUME_INPUT);
 7265              		.loc 1 3578 12
 7266 001c 0121     		movs	r1, #1
 7267 001e 7868     		ldr	r0, [r7, #4]
ARM GAS  /tmp/ccXFtjVt.s 			page 194


 7268 0020 FFF7FEFF 		bl	HAL_JPEG_Pause
 7269              		.loc 1 3578 5
 7270 0024 28E0     		b	.L293
 7271              	.L292:
3579:./Libraries/STM32H7xx_HAL_Driver/Src/stm32h7xx_hal_jpeg.c ****   }
3580:./Libraries/STM32H7xx_HAL_Driver/Src/stm32h7xx_hal_jpeg.c ****   else if (hjpeg->InDataLength > hjpeg->JpegInCount)
 7272              		.loc 1 3580 17
 7273 0026 7B68     		ldr	r3, [r7, #4]
 7274 0028 9A6A     		ldr	r2, [r3, #40]
 7275              		.loc 1 3580 39
 7276 002a 7B68     		ldr	r3, [r7, #4]
 7277 002c 1B6A     		ldr	r3, [r3, #32]
 7278              		.loc 1 3580 11
 7279 002e 9A42     		cmp	r2, r3
 7280 0030 06D9     		bls	.L294
3581:./Libraries/STM32H7xx_HAL_Driver/Src/stm32h7xx_hal_jpeg.c ****   {
3582:./Libraries/STM32H7xx_HAL_Driver/Src/stm32h7xx_hal_jpeg.c ****     nb_bytes = hjpeg->InDataLength - hjpeg->JpegInCount;
 7281              		.loc 1 3582 21
 7282 0032 7B68     		ldr	r3, [r7, #4]
 7283 0034 9A6A     		ldr	r2, [r3, #40]
 7284              		.loc 1 3582 43
 7285 0036 7B68     		ldr	r3, [r7, #4]
 7286 0038 1B6A     		ldr	r3, [r3, #32]
 7287              		.loc 1 3582 14
 7288 003a D31A     		subs	r3, r2, r3
 7289 003c FB61     		str	r3, [r7, #28]
 7290 003e 1BE0     		b	.L293
 7291              	.L294:
3583:./Libraries/STM32H7xx_HAL_Driver/Src/stm32h7xx_hal_jpeg.c ****   }
3584:./Libraries/STM32H7xx_HAL_Driver/Src/stm32h7xx_hal_jpeg.c ****   else if (hjpeg->InDataLength == hjpeg->JpegInCount)
 7292              		.loc 1 3584 17
 7293 0040 7B68     		ldr	r3, [r7, #4]
 7294 0042 9A6A     		ldr	r2, [r3, #40]
 7295              		.loc 1 3584 40
 7296 0044 7B68     		ldr	r3, [r7, #4]
 7297 0046 1B6A     		ldr	r3, [r3, #32]
 7298              		.loc 1 3584 11
 7299 0048 9A42     		cmp	r2, r3
 7300 004a 15D1     		bne	.L293
3585:./Libraries/STM32H7xx_HAL_Driver/Src/stm32h7xx_hal_jpeg.c ****   {
3586:./Libraries/STM32H7xx_HAL_Driver/Src/stm32h7xx_hal_jpeg.c ****     /*Call HAL_JPEG_GetDataCallback to get new data */
3587:./Libraries/STM32H7xx_HAL_Driver/Src/stm32h7xx_hal_jpeg.c **** #if (USE_HAL_JPEG_REGISTER_CALLBACKS == 1)
3588:./Libraries/STM32H7xx_HAL_Driver/Src/stm32h7xx_hal_jpeg.c ****     hjpeg->GetDataCallback(hjpeg, hjpeg->JpegInCount);
3589:./Libraries/STM32H7xx_HAL_Driver/Src/stm32h7xx_hal_jpeg.c **** #else
3590:./Libraries/STM32H7xx_HAL_Driver/Src/stm32h7xx_hal_jpeg.c ****     HAL_JPEG_GetDataCallback(hjpeg, hjpeg->JpegInCount);
 7301              		.loc 1 3590 5
 7302 004c 7B68     		ldr	r3, [r7, #4]
 7303 004e 1B6A     		ldr	r3, [r3, #32]
 7304 0050 1946     		mov	r1, r3
 7305 0052 7868     		ldr	r0, [r7, #4]
 7306 0054 FFF7FEFF 		bl	HAL_JPEG_GetDataCallback
3591:./Libraries/STM32H7xx_HAL_Driver/Src/stm32h7xx_hal_jpeg.c **** #endif /*USE_HAL_JPEG_REGISTER_CALLBACKS*/
3592:./Libraries/STM32H7xx_HAL_Driver/Src/stm32h7xx_hal_jpeg.c **** 
3593:./Libraries/STM32H7xx_HAL_Driver/Src/stm32h7xx_hal_jpeg.c ****     if (hjpeg->InDataLength > 4UL)
 7307              		.loc 1 3593 14
 7308 0058 7B68     		ldr	r3, [r7, #4]
 7309 005a 9B6A     		ldr	r3, [r3, #40]
ARM GAS  /tmp/ccXFtjVt.s 			page 195


 7310              		.loc 1 3593 8
 7311 005c 042B     		cmp	r3, #4
 7312 005e 05D9     		bls	.L295
3594:./Libraries/STM32H7xx_HAL_Driver/Src/stm32h7xx_hal_jpeg.c ****     {
3595:./Libraries/STM32H7xx_HAL_Driver/Src/stm32h7xx_hal_jpeg.c ****       hjpeg->InDataLength = hjpeg->InDataLength - (hjpeg->InDataLength % 4UL);
 7313              		.loc 1 3595 57
 7314 0060 7B68     		ldr	r3, [r7, #4]
 7315 0062 9B6A     		ldr	r3, [r3, #40]
 7316              		.loc 1 3595 49
 7317 0064 23F00302 		bic	r2, r3, #3
 7318              		.loc 1 3595 27
 7319 0068 7B68     		ldr	r3, [r7, #4]
 7320 006a 9A62     		str	r2, [r3, #40]
 7321              	.L295:
3596:./Libraries/STM32H7xx_HAL_Driver/Src/stm32h7xx_hal_jpeg.c ****     }
3597:./Libraries/STM32H7xx_HAL_Driver/Src/stm32h7xx_hal_jpeg.c ****     hjpeg->JpegInCount = 0;
 7322              		.loc 1 3597 24
 7323 006c 7B68     		ldr	r3, [r7, #4]
 7324 006e 0022     		movs	r2, #0
 7325 0070 1A62     		str	r2, [r3, #32]
3598:./Libraries/STM32H7xx_HAL_Driver/Src/stm32h7xx_hal_jpeg.c ****     nb_bytes = hjpeg->InDataLength;
 7326              		.loc 1 3598 14
 7327 0072 7B68     		ldr	r3, [r7, #4]
 7328 0074 9B6A     		ldr	r3, [r3, #40]
 7329 0076 FB61     		str	r3, [r7, #28]
 7330              	.L293:
3599:./Libraries/STM32H7xx_HAL_Driver/Src/stm32h7xx_hal_jpeg.c ****   }
3600:./Libraries/STM32H7xx_HAL_Driver/Src/stm32h7xx_hal_jpeg.c ****   else
3601:./Libraries/STM32H7xx_HAL_Driver/Src/stm32h7xx_hal_jpeg.c ****   {
3602:./Libraries/STM32H7xx_HAL_Driver/Src/stm32h7xx_hal_jpeg.c ****     /* Nothing to do */
3603:./Libraries/STM32H7xx_HAL_Driver/Src/stm32h7xx_hal_jpeg.c ****   }
3604:./Libraries/STM32H7xx_HAL_Driver/Src/stm32h7xx_hal_jpeg.c ****   if (((hjpeg->Context &  JPEG_CONTEXT_PAUSE_INPUT) == 0UL) && (nb_bytes > 0UL))
 7331              		.loc 1 3604 14
 7332 0078 7B68     		ldr	r3, [r7, #4]
 7333 007a 5B6D     		ldr	r3, [r3, #84]
 7334              		.loc 1 3604 24
 7335 007c 03F48053 		and	r3, r3, #4096
 7336              		.loc 1 3604 6
 7337 0080 002B     		cmp	r3, #0
 7338 0082 40F09F80 		bne	.L305
 7339              		.loc 1 3604 61 discriminator 1
 7340 0086 FB69     		ldr	r3, [r7, #28]
 7341 0088 002B     		cmp	r3, #0
 7342 008a 00F09B80 		beq	.L305
3605:./Libraries/STM32H7xx_HAL_Driver/Src/stm32h7xx_hal_jpeg.c ****   {
3606:./Libraries/STM32H7xx_HAL_Driver/Src/stm32h7xx_hal_jpeg.c ****     nb_words = nb_bytes / 4UL;
 7343              		.loc 1 3606 14
 7344 008e FB69     		ldr	r3, [r7, #28]
 7345 0090 9B08     		lsrs	r3, r3, #2
 7346 0092 3B61     		str	r3, [r7, #16]
3607:./Libraries/STM32H7xx_HAL_Driver/Src/stm32h7xx_hal_jpeg.c ****     if (nb_words >= nbRequestWords)
 7347              		.loc 1 3607 8
 7348 0094 3A69     		ldr	r2, [r7, #16]
 7349 0096 3B68     		ldr	r3, [r7]
 7350 0098 9A42     		cmp	r2, r3
 7351 009a 35D3     		bcc	.L297
3608:./Libraries/STM32H7xx_HAL_Driver/Src/stm32h7xx_hal_jpeg.c ****     {
ARM GAS  /tmp/ccXFtjVt.s 			page 196


3609:./Libraries/STM32H7xx_HAL_Driver/Src/stm32h7xx_hal_jpeg.c ****       for (index = 0; index < nbRequestWords; index++)
 7352              		.loc 1 3609 18
 7353 009c 0023     		movs	r3, #0
 7354 009e BB61     		str	r3, [r7, #24]
 7355              		.loc 1 3609 7
 7356 00a0 2DE0     		b	.L298
 7357              	.L299:
3610:./Libraries/STM32H7xx_HAL_Driver/Src/stm32h7xx_hal_jpeg.c ****       {
3611:./Libraries/STM32H7xx_HAL_Driver/Src/stm32h7xx_hal_jpeg.c ****         input_count = hjpeg->JpegInCount;
 7358              		.loc 1 3611 21 discriminator 3
 7359 00a2 7B68     		ldr	r3, [r7, #4]
 7360 00a4 1B6A     		ldr	r3, [r3, #32]
 7361 00a6 FB60     		str	r3, [r7, #12]
3612:./Libraries/STM32H7xx_HAL_Driver/Src/stm32h7xx_hal_jpeg.c ****         hjpeg->Instance->DIR = (((uint32_t)(hjpeg->pJpegInBuffPtr[input_count])) | \
 7362              		.loc 1 3612 50 discriminator 3
 7363 00a8 7B68     		ldr	r3, [r7, #4]
 7364 00aa 9A69     		ldr	r2, [r3, #24]
 7365              		.loc 1 3612 66 discriminator 3
 7366 00ac FB68     		ldr	r3, [r7, #12]
 7367 00ae 1344     		add	r3, r3, r2
 7368 00b0 1B78     		ldrb	r3, [r3]	@ zero_extendqisi2
 7369              		.loc 1 3612 34 discriminator 3
 7370 00b2 1946     		mov	r1, r3
3613:./Libraries/STM32H7xx_HAL_Driver/Src/stm32h7xx_hal_jpeg.c ****                                 (((uint32_t)(hjpeg->pJpegInBuffPtr[input_count + 1UL])) << 8) | \
 7371              		.loc 1 3613 51 discriminator 3
 7372 00b4 7B68     		ldr	r3, [r7, #4]
 7373 00b6 9A69     		ldr	r2, [r3, #24]
 7374              		.loc 1 3613 67 discriminator 3
 7375 00b8 FB68     		ldr	r3, [r7, #12]
 7376 00ba 0133     		adds	r3, r3, #1
 7377 00bc 1344     		add	r3, r3, r2
 7378 00be 1B78     		ldrb	r3, [r3]	@ zero_extendqisi2
 7379              		.loc 1 3613 89 discriminator 3
 7380 00c0 1B02     		lsls	r3, r3, #8
3612:./Libraries/STM32H7xx_HAL_Driver/Src/stm32h7xx_hal_jpeg.c ****         hjpeg->Instance->DIR = (((uint32_t)(hjpeg->pJpegInBuffPtr[input_count])) | \
 7381              		.loc 1 3612 82 discriminator 3
 7382 00c2 41EA0302 		orr	r2, r1, r3
3614:./Libraries/STM32H7xx_HAL_Driver/Src/stm32h7xx_hal_jpeg.c ****                                 (((uint32_t)(hjpeg->pJpegInBuffPtr[input_count + 2UL])) << 16) | \
 7383              		.loc 1 3614 51 discriminator 3
 7384 00c6 7B68     		ldr	r3, [r7, #4]
 7385 00c8 9969     		ldr	r1, [r3, #24]
 7386              		.loc 1 3614 67 discriminator 3
 7387 00ca FB68     		ldr	r3, [r7, #12]
 7388 00cc 0233     		adds	r3, r3, #2
 7389 00ce 0B44     		add	r3, r3, r1
 7390 00d0 1B78     		ldrb	r3, [r3]	@ zero_extendqisi2
 7391              		.loc 1 3614 89 discriminator 3
 7392 00d2 1B04     		lsls	r3, r3, #16
3613:./Libraries/STM32H7xx_HAL_Driver/Src/stm32h7xx_hal_jpeg.c ****                                 (((uint32_t)(hjpeg->pJpegInBuffPtr[input_count + 1UL])) << 8) | \
 7393              		.loc 1 3613 95 discriminator 3
 7394 00d4 42EA0301 		orr	r1, r2, r3
3615:./Libraries/STM32H7xx_HAL_Driver/Src/stm32h7xx_hal_jpeg.c ****                                 (((uint32_t)(hjpeg->pJpegInBuffPtr[input_count + 3UL])) << 24));
 7395              		.loc 1 3615 51 discriminator 3
 7396 00d8 7B68     		ldr	r3, [r7, #4]
 7397 00da 9A69     		ldr	r2, [r3, #24]
 7398              		.loc 1 3615 67 discriminator 3
 7399 00dc FB68     		ldr	r3, [r7, #12]
ARM GAS  /tmp/ccXFtjVt.s 			page 197


 7400 00de 0333     		adds	r3, r3, #3
 7401 00e0 1344     		add	r3, r3, r2
 7402 00e2 1B78     		ldrb	r3, [r3]	@ zero_extendqisi2
 7403              		.loc 1 3615 89 discriminator 3
 7404 00e4 1A06     		lsls	r2, r3, #24
3612:./Libraries/STM32H7xx_HAL_Driver/Src/stm32h7xx_hal_jpeg.c ****                                 (((uint32_t)(hjpeg->pJpegInBuffPtr[input_count + 1UL])) << 8) | \
 7405              		.loc 1 3612 14 discriminator 3
 7406 00e6 7B68     		ldr	r3, [r7, #4]
 7407 00e8 1B68     		ldr	r3, [r3]
3614:./Libraries/STM32H7xx_HAL_Driver/Src/stm32h7xx_hal_jpeg.c ****                                 (((uint32_t)(hjpeg->pJpegInBuffPtr[input_count + 2UL])) << 16) | \
 7408              		.loc 1 3614 96 discriminator 3
 7409 00ea 0A43     		orrs	r2, r2, r1
3612:./Libraries/STM32H7xx_HAL_Driver/Src/stm32h7xx_hal_jpeg.c ****                                 (((uint32_t)(hjpeg->pJpegInBuffPtr[input_count + 1UL])) << 8) | \
 7410              		.loc 1 3612 30 discriminator 3
 7411 00ec 1A64     		str	r2, [r3, #64]
3616:./Libraries/STM32H7xx_HAL_Driver/Src/stm32h7xx_hal_jpeg.c **** 
3617:./Libraries/STM32H7xx_HAL_Driver/Src/stm32h7xx_hal_jpeg.c ****         hjpeg->JpegInCount += 4UL;
 7412              		.loc 1 3617 28 discriminator 3
 7413 00ee 7B68     		ldr	r3, [r7, #4]
 7414 00f0 1B6A     		ldr	r3, [r3, #32]
 7415 00f2 1A1D     		adds	r2, r3, #4
 7416 00f4 7B68     		ldr	r3, [r7, #4]
 7417 00f6 1A62     		str	r2, [r3, #32]
3609:./Libraries/STM32H7xx_HAL_Driver/Src/stm32h7xx_hal_jpeg.c ****       {
 7418              		.loc 1 3609 52 discriminator 3
 7419 00f8 BB69     		ldr	r3, [r7, #24]
 7420 00fa 0133     		adds	r3, r3, #1
 7421 00fc BB61     		str	r3, [r7, #24]
 7422              	.L298:
3609:./Libraries/STM32H7xx_HAL_Driver/Src/stm32h7xx_hal_jpeg.c ****       {
 7423              		.loc 1 3609 7 discriminator 1
 7424 00fe BA69     		ldr	r2, [r7, #24]
 7425 0100 3B68     		ldr	r3, [r7]
 7426 0102 9A42     		cmp	r2, r3
 7427 0104 CDD3     		bcc	.L299
3618:./Libraries/STM32H7xx_HAL_Driver/Src/stm32h7xx_hal_jpeg.c ****       }
3619:./Libraries/STM32H7xx_HAL_Driver/Src/stm32h7xx_hal_jpeg.c ****     }
3620:./Libraries/STM32H7xx_HAL_Driver/Src/stm32h7xx_hal_jpeg.c ****     else /*nb_words < nbRequestWords*/
3621:./Libraries/STM32H7xx_HAL_Driver/Src/stm32h7xx_hal_jpeg.c ****     {
3622:./Libraries/STM32H7xx_HAL_Driver/Src/stm32h7xx_hal_jpeg.c ****       if (nb_words > 0UL)
3623:./Libraries/STM32H7xx_HAL_Driver/Src/stm32h7xx_hal_jpeg.c ****       {
3624:./Libraries/STM32H7xx_HAL_Driver/Src/stm32h7xx_hal_jpeg.c ****         for (index = 0; index < nb_words; index++)
3625:./Libraries/STM32H7xx_HAL_Driver/Src/stm32h7xx_hal_jpeg.c ****         {
3626:./Libraries/STM32H7xx_HAL_Driver/Src/stm32h7xx_hal_jpeg.c ****           input_count = hjpeg->JpegInCount;
3627:./Libraries/STM32H7xx_HAL_Driver/Src/stm32h7xx_hal_jpeg.c ****           hjpeg->Instance->DIR = (((uint32_t)(hjpeg->pJpegInBuffPtr[input_count])) | \
3628:./Libraries/STM32H7xx_HAL_Driver/Src/stm32h7xx_hal_jpeg.c ****                                   (((uint32_t)(hjpeg->pJpegInBuffPtr[input_count + 1UL])) << 8) | \
3629:./Libraries/STM32H7xx_HAL_Driver/Src/stm32h7xx_hal_jpeg.c ****                                   (((uint32_t)(hjpeg->pJpegInBuffPtr[input_count + 2UL])) << 16) | 
3630:./Libraries/STM32H7xx_HAL_Driver/Src/stm32h7xx_hal_jpeg.c ****                                   (((uint32_t)(hjpeg->pJpegInBuffPtr[input_count + 3UL])) << 24));
3631:./Libraries/STM32H7xx_HAL_Driver/Src/stm32h7xx_hal_jpeg.c **** 
3632:./Libraries/STM32H7xx_HAL_Driver/Src/stm32h7xx_hal_jpeg.c ****           hjpeg->JpegInCount += 4UL;
3633:./Libraries/STM32H7xx_HAL_Driver/Src/stm32h7xx_hal_jpeg.c ****         }
3634:./Libraries/STM32H7xx_HAL_Driver/Src/stm32h7xx_hal_jpeg.c ****       }
3635:./Libraries/STM32H7xx_HAL_Driver/Src/stm32h7xx_hal_jpeg.c ****       else
3636:./Libraries/STM32H7xx_HAL_Driver/Src/stm32h7xx_hal_jpeg.c ****       {
3637:./Libraries/STM32H7xx_HAL_Driver/Src/stm32h7xx_hal_jpeg.c ****         /* end of file*/
3638:./Libraries/STM32H7xx_HAL_Driver/Src/stm32h7xx_hal_jpeg.c ****         dataword = 0;
3639:./Libraries/STM32H7xx_HAL_Driver/Src/stm32h7xx_hal_jpeg.c ****         for (index = 0; index < nb_bytes; index++)
ARM GAS  /tmp/ccXFtjVt.s 			page 198


3640:./Libraries/STM32H7xx_HAL_Driver/Src/stm32h7xx_hal_jpeg.c ****         {
3641:./Libraries/STM32H7xx_HAL_Driver/Src/stm32h7xx_hal_jpeg.c ****           dataword |= (uint32_t)hjpeg->pJpegInBuffPtr[hjpeg->JpegInCount] << (8UL * (index & 0x03UL
3642:./Libraries/STM32H7xx_HAL_Driver/Src/stm32h7xx_hal_jpeg.c ****           hjpeg->JpegInCount++;
3643:./Libraries/STM32H7xx_HAL_Driver/Src/stm32h7xx_hal_jpeg.c ****         }
3644:./Libraries/STM32H7xx_HAL_Driver/Src/stm32h7xx_hal_jpeg.c ****         hjpeg->Instance->DIR = dataword;
3645:./Libraries/STM32H7xx_HAL_Driver/Src/stm32h7xx_hal_jpeg.c ****       }
3646:./Libraries/STM32H7xx_HAL_Driver/Src/stm32h7xx_hal_jpeg.c ****     }
3647:./Libraries/STM32H7xx_HAL_Driver/Src/stm32h7xx_hal_jpeg.c ****   }
3648:./Libraries/STM32H7xx_HAL_Driver/Src/stm32h7xx_hal_jpeg.c **** }
 7428              		.loc 1 3648 1
 7429 0106 5DE0     		b	.L305
 7430              	.L297:
3622:./Libraries/STM32H7xx_HAL_Driver/Src/stm32h7xx_hal_jpeg.c ****       {
 7431              		.loc 1 3622 10
 7432 0108 3B69     		ldr	r3, [r7, #16]
 7433 010a 002B     		cmp	r3, #0
 7434 010c 35D0     		beq	.L300
3624:./Libraries/STM32H7xx_HAL_Driver/Src/stm32h7xx_hal_jpeg.c ****         {
 7435              		.loc 1 3624 20
 7436 010e 0023     		movs	r3, #0
 7437 0110 BB61     		str	r3, [r7, #24]
3624:./Libraries/STM32H7xx_HAL_Driver/Src/stm32h7xx_hal_jpeg.c ****         {
 7438              		.loc 1 3624 9
 7439 0112 2DE0     		b	.L301
 7440              	.L302:
3626:./Libraries/STM32H7xx_HAL_Driver/Src/stm32h7xx_hal_jpeg.c ****           hjpeg->Instance->DIR = (((uint32_t)(hjpeg->pJpegInBuffPtr[input_count])) | \
 7441              		.loc 1 3626 23 discriminator 3
 7442 0114 7B68     		ldr	r3, [r7, #4]
 7443 0116 1B6A     		ldr	r3, [r3, #32]
 7444 0118 FB60     		str	r3, [r7, #12]
3627:./Libraries/STM32H7xx_HAL_Driver/Src/stm32h7xx_hal_jpeg.c ****                                   (((uint32_t)(hjpeg->pJpegInBuffPtr[input_count + 1UL])) << 8) | \
 7445              		.loc 1 3627 52 discriminator 3
 7446 011a 7B68     		ldr	r3, [r7, #4]
 7447 011c 9A69     		ldr	r2, [r3, #24]
3627:./Libraries/STM32H7xx_HAL_Driver/Src/stm32h7xx_hal_jpeg.c ****                                   (((uint32_t)(hjpeg->pJpegInBuffPtr[input_count + 1UL])) << 8) | \
 7448              		.loc 1 3627 68 discriminator 3
 7449 011e FB68     		ldr	r3, [r7, #12]
 7450 0120 1344     		add	r3, r3, r2
 7451 0122 1B78     		ldrb	r3, [r3]	@ zero_extendqisi2
3627:./Libraries/STM32H7xx_HAL_Driver/Src/stm32h7xx_hal_jpeg.c ****                                   (((uint32_t)(hjpeg->pJpegInBuffPtr[input_count + 1UL])) << 8) | \
 7452              		.loc 1 3627 36 discriminator 3
 7453 0124 1946     		mov	r1, r3
3628:./Libraries/STM32H7xx_HAL_Driver/Src/stm32h7xx_hal_jpeg.c ****                                   (((uint32_t)(hjpeg->pJpegInBuffPtr[input_count + 2UL])) << 16) | 
 7454              		.loc 1 3628 53 discriminator 3
 7455 0126 7B68     		ldr	r3, [r7, #4]
 7456 0128 9A69     		ldr	r2, [r3, #24]
3628:./Libraries/STM32H7xx_HAL_Driver/Src/stm32h7xx_hal_jpeg.c ****                                   (((uint32_t)(hjpeg->pJpegInBuffPtr[input_count + 2UL])) << 16) | 
 7457              		.loc 1 3628 69 discriminator 3
 7458 012a FB68     		ldr	r3, [r7, #12]
 7459 012c 0133     		adds	r3, r3, #1
 7460 012e 1344     		add	r3, r3, r2
 7461 0130 1B78     		ldrb	r3, [r3]	@ zero_extendqisi2
3628:./Libraries/STM32H7xx_HAL_Driver/Src/stm32h7xx_hal_jpeg.c ****                                   (((uint32_t)(hjpeg->pJpegInBuffPtr[input_count + 2UL])) << 16) | 
 7462              		.loc 1 3628 91 discriminator 3
 7463 0132 1B02     		lsls	r3, r3, #8
3627:./Libraries/STM32H7xx_HAL_Driver/Src/stm32h7xx_hal_jpeg.c ****                                   (((uint32_t)(hjpeg->pJpegInBuffPtr[input_count + 1UL])) << 8) | \
 7464              		.loc 1 3627 84 discriminator 3
ARM GAS  /tmp/ccXFtjVt.s 			page 199


 7465 0134 41EA0302 		orr	r2, r1, r3
3629:./Libraries/STM32H7xx_HAL_Driver/Src/stm32h7xx_hal_jpeg.c ****                                   (((uint32_t)(hjpeg->pJpegInBuffPtr[input_count + 3UL])) << 24));
 7466              		.loc 1 3629 53 discriminator 3
 7467 0138 7B68     		ldr	r3, [r7, #4]
 7468 013a 9969     		ldr	r1, [r3, #24]
3629:./Libraries/STM32H7xx_HAL_Driver/Src/stm32h7xx_hal_jpeg.c ****                                   (((uint32_t)(hjpeg->pJpegInBuffPtr[input_count + 3UL])) << 24));
 7469              		.loc 1 3629 69 discriminator 3
 7470 013c FB68     		ldr	r3, [r7, #12]
 7471 013e 0233     		adds	r3, r3, #2
 7472 0140 0B44     		add	r3, r3, r1
 7473 0142 1B78     		ldrb	r3, [r3]	@ zero_extendqisi2
3629:./Libraries/STM32H7xx_HAL_Driver/Src/stm32h7xx_hal_jpeg.c ****                                   (((uint32_t)(hjpeg->pJpegInBuffPtr[input_count + 3UL])) << 24));
 7474              		.loc 1 3629 91 discriminator 3
 7475 0144 1B04     		lsls	r3, r3, #16
3628:./Libraries/STM32H7xx_HAL_Driver/Src/stm32h7xx_hal_jpeg.c ****                                   (((uint32_t)(hjpeg->pJpegInBuffPtr[input_count + 2UL])) << 16) | 
 7476              		.loc 1 3628 97 discriminator 3
 7477 0146 42EA0301 		orr	r1, r2, r3
3630:./Libraries/STM32H7xx_HAL_Driver/Src/stm32h7xx_hal_jpeg.c **** 
 7478              		.loc 1 3630 53 discriminator 3
 7479 014a 7B68     		ldr	r3, [r7, #4]
 7480 014c 9A69     		ldr	r2, [r3, #24]
3630:./Libraries/STM32H7xx_HAL_Driver/Src/stm32h7xx_hal_jpeg.c **** 
 7481              		.loc 1 3630 69 discriminator 3
 7482 014e FB68     		ldr	r3, [r7, #12]
 7483 0150 0333     		adds	r3, r3, #3
 7484 0152 1344     		add	r3, r3, r2
 7485 0154 1B78     		ldrb	r3, [r3]	@ zero_extendqisi2
3630:./Libraries/STM32H7xx_HAL_Driver/Src/stm32h7xx_hal_jpeg.c **** 
 7486              		.loc 1 3630 91 discriminator 3
 7487 0156 1A06     		lsls	r2, r3, #24
3627:./Libraries/STM32H7xx_HAL_Driver/Src/stm32h7xx_hal_jpeg.c ****                                   (((uint32_t)(hjpeg->pJpegInBuffPtr[input_count + 1UL])) << 8) | \
 7488              		.loc 1 3627 16 discriminator 3
 7489 0158 7B68     		ldr	r3, [r7, #4]
 7490 015a 1B68     		ldr	r3, [r3]
3629:./Libraries/STM32H7xx_HAL_Driver/Src/stm32h7xx_hal_jpeg.c ****                                   (((uint32_t)(hjpeg->pJpegInBuffPtr[input_count + 3UL])) << 24));
 7491              		.loc 1 3629 98 discriminator 3
 7492 015c 0A43     		orrs	r2, r2, r1
3627:./Libraries/STM32H7xx_HAL_Driver/Src/stm32h7xx_hal_jpeg.c ****                                   (((uint32_t)(hjpeg->pJpegInBuffPtr[input_count + 1UL])) << 8) | \
 7493              		.loc 1 3627 32 discriminator 3
 7494 015e 1A64     		str	r2, [r3, #64]
3632:./Libraries/STM32H7xx_HAL_Driver/Src/stm32h7xx_hal_jpeg.c ****         }
 7495              		.loc 1 3632 30 discriminator 3
 7496 0160 7B68     		ldr	r3, [r7, #4]
 7497 0162 1B6A     		ldr	r3, [r3, #32]
 7498 0164 1A1D     		adds	r2, r3, #4
 7499 0166 7B68     		ldr	r3, [r7, #4]
 7500 0168 1A62     		str	r2, [r3, #32]
3624:./Libraries/STM32H7xx_HAL_Driver/Src/stm32h7xx_hal_jpeg.c ****         {
 7501              		.loc 1 3624 48 discriminator 3
 7502 016a BB69     		ldr	r3, [r7, #24]
 7503 016c 0133     		adds	r3, r3, #1
 7504 016e BB61     		str	r3, [r7, #24]
 7505              	.L301:
3624:./Libraries/STM32H7xx_HAL_Driver/Src/stm32h7xx_hal_jpeg.c ****         {
 7506              		.loc 1 3624 9 discriminator 1
 7507 0170 BA69     		ldr	r2, [r7, #24]
 7508 0172 3B69     		ldr	r3, [r7, #16]
ARM GAS  /tmp/ccXFtjVt.s 			page 200


 7509 0174 9A42     		cmp	r2, r3
 7510 0176 CDD3     		bcc	.L302
 7511              		.loc 1 3648 1
 7512 0178 24E0     		b	.L305
 7513              	.L300:
3638:./Libraries/STM32H7xx_HAL_Driver/Src/stm32h7xx_hal_jpeg.c ****         for (index = 0; index < nb_bytes; index++)
 7514              		.loc 1 3638 18
 7515 017a 0023     		movs	r3, #0
 7516 017c 7B61     		str	r3, [r7, #20]
3639:./Libraries/STM32H7xx_HAL_Driver/Src/stm32h7xx_hal_jpeg.c ****         {
 7517              		.loc 1 3639 20
 7518 017e 0023     		movs	r3, #0
 7519 0180 BB61     		str	r3, [r7, #24]
3639:./Libraries/STM32H7xx_HAL_Driver/Src/stm32h7xx_hal_jpeg.c ****         {
 7520              		.loc 1 3639 9
 7521 0182 17E0     		b	.L303
 7522              	.L304:
3641:./Libraries/STM32H7xx_HAL_Driver/Src/stm32h7xx_hal_jpeg.c ****           hjpeg->JpegInCount++;
 7523              		.loc 1 3641 38 discriminator 3
 7524 0184 7B68     		ldr	r3, [r7, #4]
 7525 0186 9A69     		ldr	r2, [r3, #24]
3641:./Libraries/STM32H7xx_HAL_Driver/Src/stm32h7xx_hal_jpeg.c ****           hjpeg->JpegInCount++;
 7526              		.loc 1 3641 60 discriminator 3
 7527 0188 7B68     		ldr	r3, [r7, #4]
 7528 018a 1B6A     		ldr	r3, [r3, #32]
3641:./Libraries/STM32H7xx_HAL_Driver/Src/stm32h7xx_hal_jpeg.c ****           hjpeg->JpegInCount++;
 7529              		.loc 1 3641 54 discriminator 3
 7530 018c 1344     		add	r3, r3, r2
 7531 018e 1B78     		ldrb	r3, [r3]	@ zero_extendqisi2
3641:./Libraries/STM32H7xx_HAL_Driver/Src/stm32h7xx_hal_jpeg.c ****           hjpeg->JpegInCount++;
 7532              		.loc 1 3641 23 discriminator 3
 7533 0190 1A46     		mov	r2, r3
3641:./Libraries/STM32H7xx_HAL_Driver/Src/stm32h7xx_hal_jpeg.c ****           hjpeg->JpegInCount++;
 7534              		.loc 1 3641 92 discriminator 3
 7535 0192 BB69     		ldr	r3, [r7, #24]
 7536 0194 03F00303 		and	r3, r3, #3
3641:./Libraries/STM32H7xx_HAL_Driver/Src/stm32h7xx_hal_jpeg.c ****           hjpeg->JpegInCount++;
 7537              		.loc 1 3641 83 discriminator 3
 7538 0198 DB00     		lsls	r3, r3, #3
3641:./Libraries/STM32H7xx_HAL_Driver/Src/stm32h7xx_hal_jpeg.c ****           hjpeg->JpegInCount++;
 7539              		.loc 1 3641 75 discriminator 3
 7540 019a 02FA03F3 		lsl	r3, r2, r3
3641:./Libraries/STM32H7xx_HAL_Driver/Src/stm32h7xx_hal_jpeg.c ****           hjpeg->JpegInCount++;
 7541              		.loc 1 3641 20 discriminator 3
 7542 019e 7A69     		ldr	r2, [r7, #20]
 7543 01a0 1343     		orrs	r3, r3, r2
 7544 01a2 7B61     		str	r3, [r7, #20]
3642:./Libraries/STM32H7xx_HAL_Driver/Src/stm32h7xx_hal_jpeg.c ****         }
 7545              		.loc 1 3642 16 discriminator 3
 7546 01a4 7B68     		ldr	r3, [r7, #4]
 7547 01a6 1B6A     		ldr	r3, [r3, #32]
3642:./Libraries/STM32H7xx_HAL_Driver/Src/stm32h7xx_hal_jpeg.c ****         }
 7548              		.loc 1 3642 29 discriminator 3
 7549 01a8 5A1C     		adds	r2, r3, #1
 7550 01aa 7B68     		ldr	r3, [r7, #4]
 7551 01ac 1A62     		str	r2, [r3, #32]
3639:./Libraries/STM32H7xx_HAL_Driver/Src/stm32h7xx_hal_jpeg.c ****         {
ARM GAS  /tmp/ccXFtjVt.s 			page 201


 7552              		.loc 1 3639 48 discriminator 3
 7553 01ae BB69     		ldr	r3, [r7, #24]
 7554 01b0 0133     		adds	r3, r3, #1
 7555 01b2 BB61     		str	r3, [r7, #24]
 7556              	.L303:
3639:./Libraries/STM32H7xx_HAL_Driver/Src/stm32h7xx_hal_jpeg.c ****         {
 7557              		.loc 1 3639 9 discriminator 1
 7558 01b4 BA69     		ldr	r2, [r7, #24]
 7559 01b6 FB69     		ldr	r3, [r7, #28]
 7560 01b8 9A42     		cmp	r2, r3
 7561 01ba E3D3     		bcc	.L304
3644:./Libraries/STM32H7xx_HAL_Driver/Src/stm32h7xx_hal_jpeg.c ****       }
 7562              		.loc 1 3644 14
 7563 01bc 7B68     		ldr	r3, [r7, #4]
 7564 01be 1B68     		ldr	r3, [r3]
3644:./Libraries/STM32H7xx_HAL_Driver/Src/stm32h7xx_hal_jpeg.c ****       }
 7565              		.loc 1 3644 30
 7566 01c0 7A69     		ldr	r2, [r7, #20]
 7567 01c2 1A64     		str	r2, [r3, #64]
 7568              	.L305:
 7569              		.loc 1 3648 1
 7570 01c4 00BF     		nop
 7571 01c6 2037     		adds	r7, r7, #32
 7572              	.LCFI241:
 7573              		.cfi_def_cfa_offset 8
 7574 01c8 BD46     		mov	sp, r7
 7575              	.LCFI242:
 7576              		.cfi_def_cfa_register 13
 7577              		@ sp needed
 7578 01ca 80BD     		pop	{r7, pc}
 7579              		.cfi_endproc
 7580              	.LFE374:
 7582              		.section	.text.JPEG_DMA_StartProcess,"ax",%progbits
 7583              		.align	1
 7584              		.syntax unified
 7585              		.thumb
 7586              		.thumb_func
 7587              		.fpu fpv5-d16
 7589              	JPEG_DMA_StartProcess:
 7590              	.LFB375:
3649:./Libraries/STM32H7xx_HAL_Driver/Src/stm32h7xx_hal_jpeg.c **** 
3650:./Libraries/STM32H7xx_HAL_Driver/Src/stm32h7xx_hal_jpeg.c **** /**
3651:./Libraries/STM32H7xx_HAL_Driver/Src/stm32h7xx_hal_jpeg.c ****   * @brief  Start the JPEG DMA process (encoding/decoding)
3652:./Libraries/STM32H7xx_HAL_Driver/Src/stm32h7xx_hal_jpeg.c ****   * @param  hjpeg pointer to a JPEG_HandleTypeDef structure that contains
3653:./Libraries/STM32H7xx_HAL_Driver/Src/stm32h7xx_hal_jpeg.c ****   *         the configuration information for JPEG module
3654:./Libraries/STM32H7xx_HAL_Driver/Src/stm32h7xx_hal_jpeg.c ****   * @retval JPEG_PROCESS_DONE if process ends else JPEG_PROCESS_ONGOING
3655:./Libraries/STM32H7xx_HAL_Driver/Src/stm32h7xx_hal_jpeg.c ****   */
3656:./Libraries/STM32H7xx_HAL_Driver/Src/stm32h7xx_hal_jpeg.c **** static HAL_StatusTypeDef JPEG_DMA_StartProcess(JPEG_HandleTypeDef *hjpeg)
3657:./Libraries/STM32H7xx_HAL_Driver/Src/stm32h7xx_hal_jpeg.c **** {
 7591              		.loc 1 3657 1
 7592              		.cfi_startproc
 7593              		@ args = 0, pretend = 0, frame = 16
 7594              		@ frame_needed = 1, uses_anonymous_args = 0
 7595 0000 90B5     		push	{r4, r7, lr}
 7596              	.LCFI243:
 7597              		.cfi_def_cfa_offset 12
 7598              		.cfi_offset 4, -12
ARM GAS  /tmp/ccXFtjVt.s 			page 202


 7599              		.cfi_offset 7, -8
 7600              		.cfi_offset 14, -4
 7601 0002 87B0     		sub	sp, sp, #28
 7602              	.LCFI244:
 7603              		.cfi_def_cfa_offset 40
 7604 0004 02AF     		add	r7, sp, #8
 7605              	.LCFI245:
 7606              		.cfi_def_cfa 7, 32
 7607 0006 7860     		str	r0, [r7, #4]
3658:./Libraries/STM32H7xx_HAL_Driver/Src/stm32h7xx_hal_jpeg.c ****   uint32_t inXfrSize, outXfrSize;
3659:./Libraries/STM32H7xx_HAL_Driver/Src/stm32h7xx_hal_jpeg.c **** 
3660:./Libraries/STM32H7xx_HAL_Driver/Src/stm32h7xx_hal_jpeg.c ****   /*if the MDMA In is triggred with JPEG In FIFO Threshold flag
3661:./Libraries/STM32H7xx_HAL_Driver/Src/stm32h7xx_hal_jpeg.c ****       then MDMA In buffer size is 32 bytes
3662:./Libraries/STM32H7xx_HAL_Driver/Src/stm32h7xx_hal_jpeg.c ****     else (MDMA In is triggred with JPEG In FIFO not full flag)
3663:./Libraries/STM32H7xx_HAL_Driver/Src/stm32h7xx_hal_jpeg.c ****       then MDMA In buffer size is 4 bytes
3664:./Libraries/STM32H7xx_HAL_Driver/Src/stm32h7xx_hal_jpeg.c ****     */
3665:./Libraries/STM32H7xx_HAL_Driver/Src/stm32h7xx_hal_jpeg.c ****   inXfrSize = hjpeg->hdmain->Init.BufferTransferLength;
 7608              		.loc 1 3665 20
 7609 0008 7B68     		ldr	r3, [r7, #4]
 7610 000a 1B6B     		ldr	r3, [r3, #48]
 7611              		.loc 1 3665 13
 7612 000c 9B6A     		ldr	r3, [r3, #40]
 7613 000e FB60     		str	r3, [r7, #12]
3666:./Libraries/STM32H7xx_HAL_Driver/Src/stm32h7xx_hal_jpeg.c **** 
3667:./Libraries/STM32H7xx_HAL_Driver/Src/stm32h7xx_hal_jpeg.c ****   /*if the MDMA Out is triggred with JPEG Out FIFO Threshold flag
3668:./Libraries/STM32H7xx_HAL_Driver/Src/stm32h7xx_hal_jpeg.c ****       then MDMA out buffer size is 32 bytes
3669:./Libraries/STM32H7xx_HAL_Driver/Src/stm32h7xx_hal_jpeg.c ****     else (MDMA Out is triggred with JPEG Out FIFO not empty flag)
3670:./Libraries/STM32H7xx_HAL_Driver/Src/stm32h7xx_hal_jpeg.c ****       then MDMA buffer size is 4 bytes
3671:./Libraries/STM32H7xx_HAL_Driver/Src/stm32h7xx_hal_jpeg.c ****     */
3672:./Libraries/STM32H7xx_HAL_Driver/Src/stm32h7xx_hal_jpeg.c ****   outXfrSize = hjpeg->hdmaout->Init.BufferTransferLength;
 7614              		.loc 1 3672 21
 7615 0010 7B68     		ldr	r3, [r7, #4]
 7616 0012 5B6B     		ldr	r3, [r3, #52]
 7617              		.loc 1 3672 14
 7618 0014 9B6A     		ldr	r3, [r3, #40]
 7619 0016 BB60     		str	r3, [r7, #8]
3673:./Libraries/STM32H7xx_HAL_Driver/Src/stm32h7xx_hal_jpeg.c **** 
3674:./Libraries/STM32H7xx_HAL_Driver/Src/stm32h7xx_hal_jpeg.c ****   if ((hjpeg->InDataLength < inXfrSize) || (hjpeg->OutDataLength < outXfrSize))
 7620              		.loc 1 3674 13
 7621 0018 7B68     		ldr	r3, [r7, #4]
 7622 001a 9B6A     		ldr	r3, [r3, #40]
 7623              		.loc 1 3674 6
 7624 001c FA68     		ldr	r2, [r7, #12]
 7625 001e 9A42     		cmp	r2, r3
 7626 0020 04D8     		bhi	.L307
 7627              		.loc 1 3674 50 discriminator 1
 7628 0022 7B68     		ldr	r3, [r7, #4]
 7629 0024 DB6A     		ldr	r3, [r3, #44]
 7630              		.loc 1 3674 41 discriminator 1
 7631 0026 BA68     		ldr	r2, [r7, #8]
 7632 0028 9A42     		cmp	r2, r3
 7633 002a 01D9     		bls	.L308
 7634              	.L307:
3675:./Libraries/STM32H7xx_HAL_Driver/Src/stm32h7xx_hal_jpeg.c ****   {
3676:./Libraries/STM32H7xx_HAL_Driver/Src/stm32h7xx_hal_jpeg.c ****     return HAL_ERROR;
 7635              		.loc 1 3676 12
 7636 002c 0123     		movs	r3, #1
ARM GAS  /tmp/ccXFtjVt.s 			page 203


 7637 002e 74E0     		b	.L309
 7638              	.L308:
3677:./Libraries/STM32H7xx_HAL_Driver/Src/stm32h7xx_hal_jpeg.c ****   }
3678:./Libraries/STM32H7xx_HAL_Driver/Src/stm32h7xx_hal_jpeg.c ****   /* Set the JPEG MDMA In transfer complete callback */
3679:./Libraries/STM32H7xx_HAL_Driver/Src/stm32h7xx_hal_jpeg.c ****   hjpeg->hdmain->XferCpltCallback = JPEG_MDMAInCpltCallback;
 7639              		.loc 1 3679 8
 7640 0030 7B68     		ldr	r3, [r7, #4]
 7641 0032 1B6B     		ldr	r3, [r3, #48]
 7642              		.loc 1 3679 35
 7643 0034 3B4A     		ldr	r2, .L314
 7644 0036 5A64     		str	r2, [r3, #68]
3680:./Libraries/STM32H7xx_HAL_Driver/Src/stm32h7xx_hal_jpeg.c ****   /* Set the MDMA In error callback */
3681:./Libraries/STM32H7xx_HAL_Driver/Src/stm32h7xx_hal_jpeg.c ****   hjpeg->hdmain->XferErrorCallback = JPEG_MDMAErrorCallback;
 7645              		.loc 1 3681 8
 7646 0038 7B68     		ldr	r3, [r7, #4]
 7647 003a 1B6B     		ldr	r3, [r3, #48]
 7648              		.loc 1 3681 36
 7649 003c 3A4A     		ldr	r2, .L314+4
 7650 003e 5A65     		str	r2, [r3, #84]
3682:./Libraries/STM32H7xx_HAL_Driver/Src/stm32h7xx_hal_jpeg.c **** 
3683:./Libraries/STM32H7xx_HAL_Driver/Src/stm32h7xx_hal_jpeg.c ****   /* Set the JPEG MDMA Out transfer complete callback */
3684:./Libraries/STM32H7xx_HAL_Driver/Src/stm32h7xx_hal_jpeg.c ****   hjpeg->hdmaout->XferCpltCallback = JPEG_MDMAOutCpltCallback;
 7651              		.loc 1 3684 8
 7652 0040 7B68     		ldr	r3, [r7, #4]
 7653 0042 5B6B     		ldr	r3, [r3, #52]
 7654              		.loc 1 3684 36
 7655 0044 394A     		ldr	r2, .L314+8
 7656 0046 5A64     		str	r2, [r3, #68]
3685:./Libraries/STM32H7xx_HAL_Driver/Src/stm32h7xx_hal_jpeg.c ****   /* Set the MDMA In error callback */
3686:./Libraries/STM32H7xx_HAL_Driver/Src/stm32h7xx_hal_jpeg.c ****   hjpeg->hdmaout->XferErrorCallback = JPEG_MDMAErrorCallback;
 7657              		.loc 1 3686 8
 7658 0048 7B68     		ldr	r3, [r7, #4]
 7659 004a 5B6B     		ldr	r3, [r3, #52]
 7660              		.loc 1 3686 37
 7661 004c 364A     		ldr	r2, .L314+4
 7662 004e 5A65     		str	r2, [r3, #84]
3687:./Libraries/STM32H7xx_HAL_Driver/Src/stm32h7xx_hal_jpeg.c ****   /* Set the MDMA Out Abort callback */
3688:./Libraries/STM32H7xx_HAL_Driver/Src/stm32h7xx_hal_jpeg.c ****   hjpeg->hdmaout->XferAbortCallback = JPEG_MDMAOutAbortCallback;
 7663              		.loc 1 3688 8
 7664 0050 7B68     		ldr	r3, [r7, #4]
 7665 0052 5B6B     		ldr	r3, [r3, #52]
 7666              		.loc 1 3688 37
 7667 0054 364A     		ldr	r2, .L314+12
 7668 0056 9A65     		str	r2, [r3, #88]
3689:./Libraries/STM32H7xx_HAL_Driver/Src/stm32h7xx_hal_jpeg.c **** 
3690:./Libraries/STM32H7xx_HAL_Driver/Src/stm32h7xx_hal_jpeg.c ****   if ((inXfrSize == 0UL) || (outXfrSize == 0UL))
 7669              		.loc 1 3690 6
 7670 0058 FB68     		ldr	r3, [r7, #12]
 7671 005a 002B     		cmp	r3, #0
 7672 005c 02D0     		beq	.L310
 7673              		.loc 1 3690 26 discriminator 1
 7674 005e BB68     		ldr	r3, [r7, #8]
 7675 0060 002B     		cmp	r3, #0
 7676 0062 07D1     		bne	.L311
 7677              	.L310:
3691:./Libraries/STM32H7xx_HAL_Driver/Src/stm32h7xx_hal_jpeg.c ****   {
3692:./Libraries/STM32H7xx_HAL_Driver/Src/stm32h7xx_hal_jpeg.c ****     hjpeg->ErrorCode |= HAL_JPEG_ERROR_DMA;
ARM GAS  /tmp/ccXFtjVt.s 			page 204


 7678              		.loc 1 3692 22
 7679 0064 7B68     		ldr	r3, [r7, #4]
 7680 0066 1B6D     		ldr	r3, [r3, #80]
 7681 0068 43F00402 		orr	r2, r3, #4
 7682 006c 7B68     		ldr	r3, [r7, #4]
 7683 006e 1A65     		str	r2, [r3, #80]
3693:./Libraries/STM32H7xx_HAL_Driver/Src/stm32h7xx_hal_jpeg.c ****     return HAL_ERROR;
 7684              		.loc 1 3693 12
 7685 0070 0123     		movs	r3, #1
 7686 0072 52E0     		b	.L309
 7687              	.L311:
3694:./Libraries/STM32H7xx_HAL_Driver/Src/stm32h7xx_hal_jpeg.c ****   }
3695:./Libraries/STM32H7xx_HAL_Driver/Src/stm32h7xx_hal_jpeg.c ****   /*MDMA transfer size (BNDTR) must be a multiple of MDMA buffer size (TLEN)*/
3696:./Libraries/STM32H7xx_HAL_Driver/Src/stm32h7xx_hal_jpeg.c ****   hjpeg->InDataLength = hjpeg->InDataLength - (hjpeg->InDataLength % inXfrSize);
 7688              		.loc 1 3696 30
 7689 0074 7B68     		ldr	r3, [r7, #4]
 7690 0076 9A6A     		ldr	r2, [r3, #40]
 7691              		.loc 1 3696 53
 7692 0078 7B68     		ldr	r3, [r7, #4]
 7693 007a 9B6A     		ldr	r3, [r3, #40]
 7694              		.loc 1 3696 68
 7695 007c F968     		ldr	r1, [r7, #12]
 7696 007e B3FBF1F1 		udiv	r1, r3, r1
 7697 0082 F868     		ldr	r0, [r7, #12]
 7698 0084 00FB01F1 		mul	r1, r0, r1
 7699 0088 5B1A     		subs	r3, r3, r1
 7700              		.loc 1 3696 45
 7701 008a D21A     		subs	r2, r2, r3
 7702              		.loc 1 3696 23
 7703 008c 7B68     		ldr	r3, [r7, #4]
 7704 008e 9A62     		str	r2, [r3, #40]
3697:./Libraries/STM32H7xx_HAL_Driver/Src/stm32h7xx_hal_jpeg.c **** 
3698:./Libraries/STM32H7xx_HAL_Driver/Src/stm32h7xx_hal_jpeg.c ****   /*MDMA transfer size (BNDTR) must be a multiple of MDMA buffer size (TLEN)*/
3699:./Libraries/STM32H7xx_HAL_Driver/Src/stm32h7xx_hal_jpeg.c ****   hjpeg->OutDataLength = hjpeg->OutDataLength - (hjpeg->OutDataLength % outXfrSize);
 7705              		.loc 1 3699 31
 7706 0090 7B68     		ldr	r3, [r7, #4]
 7707 0092 DA6A     		ldr	r2, [r3, #44]
 7708              		.loc 1 3699 55
 7709 0094 7B68     		ldr	r3, [r7, #4]
 7710 0096 DB6A     		ldr	r3, [r3, #44]
 7711              		.loc 1 3699 71
 7712 0098 B968     		ldr	r1, [r7, #8]
 7713 009a B3FBF1F1 		udiv	r1, r3, r1
 7714 009e B868     		ldr	r0, [r7, #8]
 7715 00a0 00FB01F1 		mul	r1, r0, r1
 7716 00a4 5B1A     		subs	r3, r3, r1
 7717              		.loc 1 3699 47
 7718 00a6 D21A     		subs	r2, r2, r3
 7719              		.loc 1 3699 24
 7720 00a8 7B68     		ldr	r3, [r7, #4]
 7721 00aa DA62     		str	r2, [r3, #44]
3700:./Libraries/STM32H7xx_HAL_Driver/Src/stm32h7xx_hal_jpeg.c **** 
3701:./Libraries/STM32H7xx_HAL_Driver/Src/stm32h7xx_hal_jpeg.c **** 
3702:./Libraries/STM32H7xx_HAL_Driver/Src/stm32h7xx_hal_jpeg.c ****   /* Start MDMA FIFO Out transfer */
3703:./Libraries/STM32H7xx_HAL_Driver/Src/stm32h7xx_hal_jpeg.c ****   if (HAL_MDMA_Start_IT(hjpeg->hdmaout, (uint32_t)&hjpeg->Instance->DOR, (uint32_t)hjpeg->pJpegOutB
 7722              		.loc 1 3703 7
 7723 00ac 7B68     		ldr	r3, [r7, #4]
ARM GAS  /tmp/ccXFtjVt.s 			page 205


 7724 00ae 586B     		ldr	r0, [r3, #52]
 7725              		.loc 1 3703 57
 7726 00b0 7B68     		ldr	r3, [r7, #4]
 7727 00b2 1B68     		ldr	r3, [r3]
 7728              		.loc 1 3703 51
 7729 00b4 4433     		adds	r3, r3, #68
 7730              		.loc 1 3703 7
 7731 00b6 1946     		mov	r1, r3
 7732              		.loc 1 3703 89
 7733 00b8 7B68     		ldr	r3, [r7, #4]
 7734 00ba DB69     		ldr	r3, [r3, #28]
 7735              		.loc 1 3703 7
 7736 00bc 1C46     		mov	r4, r3
 7737 00be 7B68     		ldr	r3, [r7, #4]
 7738 00c0 DB6A     		ldr	r3, [r3, #44]
 7739 00c2 0122     		movs	r2, #1
 7740 00c4 0092     		str	r2, [sp]
 7741 00c6 2246     		mov	r2, r4
 7742 00c8 FFF7FEFF 		bl	HAL_MDMA_Start_IT
 7743 00cc 0346     		mov	r3, r0
 7744              		.loc 1 3703 6
 7745 00ce 002B     		cmp	r3, #0
 7746 00d0 07D0     		beq	.L312
3704:./Libraries/STM32H7xx_HAL_Driver/Src/stm32h7xx_hal_jpeg.c ****                         hjpeg->OutDataLength, 1) != HAL_OK)
3705:./Libraries/STM32H7xx_HAL_Driver/Src/stm32h7xx_hal_jpeg.c ****   {
3706:./Libraries/STM32H7xx_HAL_Driver/Src/stm32h7xx_hal_jpeg.c ****     hjpeg->ErrorCode |= HAL_JPEG_ERROR_DMA;
 7747              		.loc 1 3706 22
 7748 00d2 7B68     		ldr	r3, [r7, #4]
 7749 00d4 1B6D     		ldr	r3, [r3, #80]
 7750 00d6 43F00402 		orr	r2, r3, #4
 7751 00da 7B68     		ldr	r3, [r7, #4]
 7752 00dc 1A65     		str	r2, [r3, #80]
3707:./Libraries/STM32H7xx_HAL_Driver/Src/stm32h7xx_hal_jpeg.c ****     return HAL_ERROR;
 7753              		.loc 1 3707 12
 7754 00de 0123     		movs	r3, #1
 7755 00e0 1BE0     		b	.L309
 7756              	.L312:
3708:./Libraries/STM32H7xx_HAL_Driver/Src/stm32h7xx_hal_jpeg.c ****   }
3709:./Libraries/STM32H7xx_HAL_Driver/Src/stm32h7xx_hal_jpeg.c ****   /* Start DMA FIFO In transfer */
3710:./Libraries/STM32H7xx_HAL_Driver/Src/stm32h7xx_hal_jpeg.c ****   if (HAL_MDMA_Start_IT(hjpeg->hdmain, (uint32_t)hjpeg->pJpegInBuffPtr, (uint32_t)&hjpeg->Instance-
 7757              		.loc 1 3710 7
 7758 00e2 7B68     		ldr	r3, [r7, #4]
 7759 00e4 186B     		ldr	r0, [r3, #48]
 7760              		.loc 1 3710 55
 7761 00e6 7B68     		ldr	r3, [r7, #4]
 7762 00e8 9B69     		ldr	r3, [r3, #24]
 7763              		.loc 1 3710 7
 7764 00ea 1946     		mov	r1, r3
 7765              		.loc 1 3710 89
 7766 00ec 7B68     		ldr	r3, [r7, #4]
 7767 00ee 1B68     		ldr	r3, [r3]
 7768              		.loc 1 3710 83
 7769 00f0 4033     		adds	r3, r3, #64
 7770              		.loc 1 3710 7
 7771 00f2 1C46     		mov	r4, r3
 7772 00f4 7B68     		ldr	r3, [r7, #4]
 7773 00f6 9B6A     		ldr	r3, [r3, #40]
ARM GAS  /tmp/ccXFtjVt.s 			page 206


 7774 00f8 0122     		movs	r2, #1
 7775 00fa 0092     		str	r2, [sp]
 7776 00fc 2246     		mov	r2, r4
 7777 00fe FFF7FEFF 		bl	HAL_MDMA_Start_IT
 7778 0102 0346     		mov	r3, r0
 7779              		.loc 1 3710 6
 7780 0104 002B     		cmp	r3, #0
 7781 0106 07D0     		beq	.L313
3711:./Libraries/STM32H7xx_HAL_Driver/Src/stm32h7xx_hal_jpeg.c ****                         hjpeg->InDataLength, 1) != HAL_OK)
3712:./Libraries/STM32H7xx_HAL_Driver/Src/stm32h7xx_hal_jpeg.c ****   {
3713:./Libraries/STM32H7xx_HAL_Driver/Src/stm32h7xx_hal_jpeg.c ****     hjpeg->ErrorCode |= HAL_JPEG_ERROR_DMA;
 7782              		.loc 1 3713 22
 7783 0108 7B68     		ldr	r3, [r7, #4]
 7784 010a 1B6D     		ldr	r3, [r3, #80]
 7785 010c 43F00402 		orr	r2, r3, #4
 7786 0110 7B68     		ldr	r3, [r7, #4]
 7787 0112 1A65     		str	r2, [r3, #80]
3714:./Libraries/STM32H7xx_HAL_Driver/Src/stm32h7xx_hal_jpeg.c ****     return HAL_ERROR;
 7788              		.loc 1 3714 12
 7789 0114 0123     		movs	r3, #1
 7790 0116 00E0     		b	.L309
 7791              	.L313:
3715:./Libraries/STM32H7xx_HAL_Driver/Src/stm32h7xx_hal_jpeg.c ****   }
3716:./Libraries/STM32H7xx_HAL_Driver/Src/stm32h7xx_hal_jpeg.c **** 
3717:./Libraries/STM32H7xx_HAL_Driver/Src/stm32h7xx_hal_jpeg.c ****   return HAL_OK;
 7792              		.loc 1 3717 10
 7793 0118 0023     		movs	r3, #0
 7794              	.L309:
3718:./Libraries/STM32H7xx_HAL_Driver/Src/stm32h7xx_hal_jpeg.c **** }
 7795              		.loc 1 3718 1
 7796 011a 1846     		mov	r0, r3
 7797 011c 1437     		adds	r7, r7, #20
 7798              	.LCFI246:
 7799              		.cfi_def_cfa_offset 12
 7800 011e BD46     		mov	sp, r7
 7801              	.LCFI247:
 7802              		.cfi_def_cfa_register 13
 7803              		@ sp needed
 7804 0120 90BD     		pop	{r4, r7, pc}
 7805              	.L315:
 7806 0122 00BF     		.align	2
 7807              	.L314:
 7808 0124 00000000 		.word	JPEG_MDMAInCpltCallback
 7809 0128 00000000 		.word	JPEG_MDMAErrorCallback
 7810 012c 00000000 		.word	JPEG_MDMAOutCpltCallback
 7811 0130 00000000 		.word	JPEG_MDMAOutAbortCallback
 7812              		.cfi_endproc
 7813              	.LFE375:
 7815              		.section	.text.JPEG_DMA_ContinueProcess,"ax",%progbits
 7816              		.align	1
 7817              		.syntax unified
 7818              		.thumb
 7819              		.thumb_func
 7820              		.fpu fpv5-d16
 7822              	JPEG_DMA_ContinueProcess:
 7823              	.LFB376:
3719:./Libraries/STM32H7xx_HAL_Driver/Src/stm32h7xx_hal_jpeg.c **** 
ARM GAS  /tmp/ccXFtjVt.s 			page 207


3720:./Libraries/STM32H7xx_HAL_Driver/Src/stm32h7xx_hal_jpeg.c **** /**
3721:./Libraries/STM32H7xx_HAL_Driver/Src/stm32h7xx_hal_jpeg.c ****   * @brief  Continue the current JPEG DMA process (encoding/decoding)
3722:./Libraries/STM32H7xx_HAL_Driver/Src/stm32h7xx_hal_jpeg.c ****   * @param  hjpeg pointer to a JPEG_HandleTypeDef structure that contains
3723:./Libraries/STM32H7xx_HAL_Driver/Src/stm32h7xx_hal_jpeg.c ****   *         the configuration information for JPEG module
3724:./Libraries/STM32H7xx_HAL_Driver/Src/stm32h7xx_hal_jpeg.c ****   * @retval JPEG_PROCESS_DONE if process ends else JPEG_PROCESS_ONGOING
3725:./Libraries/STM32H7xx_HAL_Driver/Src/stm32h7xx_hal_jpeg.c ****   */
3726:./Libraries/STM32H7xx_HAL_Driver/Src/stm32h7xx_hal_jpeg.c **** static void JPEG_DMA_ContinueProcess(JPEG_HandleTypeDef *hjpeg)
3727:./Libraries/STM32H7xx_HAL_Driver/Src/stm32h7xx_hal_jpeg.c **** {
 7824              		.loc 1 3727 1
 7825              		.cfi_startproc
 7826              		@ args = 0, pretend = 0, frame = 8
 7827              		@ frame_needed = 1, uses_anonymous_args = 0
 7828 0000 80B5     		push	{r7, lr}
 7829              	.LCFI248:
 7830              		.cfi_def_cfa_offset 8
 7831              		.cfi_offset 7, -8
 7832              		.cfi_offset 14, -4
 7833 0002 82B0     		sub	sp, sp, #8
 7834              	.LCFI249:
 7835              		.cfi_def_cfa_offset 16
 7836 0004 00AF     		add	r7, sp, #0
 7837              	.LCFI250:
 7838              		.cfi_def_cfa_register 7
 7839 0006 7860     		str	r0, [r7, #4]
3728:./Libraries/STM32H7xx_HAL_Driver/Src/stm32h7xx_hal_jpeg.c ****   /*End of header processing flag rises*/
3729:./Libraries/STM32H7xx_HAL_Driver/Src/stm32h7xx_hal_jpeg.c ****   if ((hjpeg->Context & JPEG_CONTEXT_OPERATION_MASK) == JPEG_CONTEXT_DECODE)
 7840              		.loc 1 3729 13
 7841 0008 7B68     		ldr	r3, [r7, #4]
 7842 000a 5B6D     		ldr	r3, [r3, #84]
 7843              		.loc 1 3729 23
 7844 000c 03F00303 		and	r3, r3, #3
 7845              		.loc 1 3729 6
 7846 0010 022B     		cmp	r3, #2
 7847 0012 25D1     		bne	.L317
3730:./Libraries/STM32H7xx_HAL_Driver/Src/stm32h7xx_hal_jpeg.c ****   {
3731:./Libraries/STM32H7xx_HAL_Driver/Src/stm32h7xx_hal_jpeg.c ****     if (__HAL_JPEG_GET_FLAG(hjpeg, JPEG_FLAG_HPDF) != 0UL)
 7848              		.loc 1 3731 9
 7849 0014 7B68     		ldr	r3, [r7, #4]
 7850 0016 1B68     		ldr	r3, [r3]
 7851 0018 5B6B     		ldr	r3, [r3, #52]
 7852 001a 03F04003 		and	r3, r3, #64
 7853              		.loc 1 3731 8
 7854 001e 002B     		cmp	r3, #0
 7855 0020 1ED0     		beq	.L317
3732:./Libraries/STM32H7xx_HAL_Driver/Src/stm32h7xx_hal_jpeg.c ****     {
3733:./Libraries/STM32H7xx_HAL_Driver/Src/stm32h7xx_hal_jpeg.c ****       /*Call Header parsing complete callback */
3734:./Libraries/STM32H7xx_HAL_Driver/Src/stm32h7xx_hal_jpeg.c ****       (void) HAL_JPEG_GetInfo(hjpeg, &hjpeg->Conf);
 7856              		.loc 1 3734 14
 7857 0022 7B68     		ldr	r3, [r7, #4]
 7858 0024 0433     		adds	r3, r3, #4
 7859 0026 1946     		mov	r1, r3
 7860 0028 7868     		ldr	r0, [r7, #4]
 7861 002a FFF7FEFF 		bl	HAL_JPEG_GetInfo
3735:./Libraries/STM32H7xx_HAL_Driver/Src/stm32h7xx_hal_jpeg.c **** 
3736:./Libraries/STM32H7xx_HAL_Driver/Src/stm32h7xx_hal_jpeg.c ****       /* Reset the ImageQuality */
3737:./Libraries/STM32H7xx_HAL_Driver/Src/stm32h7xx_hal_jpeg.c ****       hjpeg->Conf.ImageQuality = 0;
 7862              		.loc 1 3737 32
ARM GAS  /tmp/ccXFtjVt.s 			page 208


 7863 002e 7B68     		ldr	r3, [r7, #4]
 7864 0030 0022     		movs	r2, #0
 7865 0032 5A61     		str	r2, [r3, #20]
3738:./Libraries/STM32H7xx_HAL_Driver/Src/stm32h7xx_hal_jpeg.c ****       /* Note : the image quality is only available at the end of the decoding operation */
3739:./Libraries/STM32H7xx_HAL_Driver/Src/stm32h7xx_hal_jpeg.c ****       /* at the current stage the calculated image quality is not correct so reset it */
3740:./Libraries/STM32H7xx_HAL_Driver/Src/stm32h7xx_hal_jpeg.c **** 
3741:./Libraries/STM32H7xx_HAL_Driver/Src/stm32h7xx_hal_jpeg.c ****       /*Call Info Ready callback */
3742:./Libraries/STM32H7xx_HAL_Driver/Src/stm32h7xx_hal_jpeg.c **** #if (USE_HAL_JPEG_REGISTER_CALLBACKS == 1)
3743:./Libraries/STM32H7xx_HAL_Driver/Src/stm32h7xx_hal_jpeg.c ****       hjpeg->InfoReadyCallback(hjpeg, &hjpeg->Conf);
3744:./Libraries/STM32H7xx_HAL_Driver/Src/stm32h7xx_hal_jpeg.c **** #else
3745:./Libraries/STM32H7xx_HAL_Driver/Src/stm32h7xx_hal_jpeg.c ****       HAL_JPEG_InfoReadyCallback(hjpeg, &hjpeg->Conf);
 7866              		.loc 1 3745 7
 7867 0034 7B68     		ldr	r3, [r7, #4]
 7868 0036 0433     		adds	r3, r3, #4
 7869 0038 1946     		mov	r1, r3
 7870 003a 7868     		ldr	r0, [r7, #4]
 7871 003c FFF7FEFF 		bl	HAL_JPEG_InfoReadyCallback
3746:./Libraries/STM32H7xx_HAL_Driver/Src/stm32h7xx_hal_jpeg.c **** #endif /* USE_HAL_JPEG_REGISTER_CALLBACKS */
3747:./Libraries/STM32H7xx_HAL_Driver/Src/stm32h7xx_hal_jpeg.c **** 
3748:./Libraries/STM32H7xx_HAL_Driver/Src/stm32h7xx_hal_jpeg.c ****       __HAL_JPEG_DISABLE_IT(hjpeg, JPEG_IT_HPD);
 7872              		.loc 1 3748 7
 7873 0040 7B68     		ldr	r3, [r7, #4]
 7874 0042 1B68     		ldr	r3, [r3]
 7875 0044 1A6B     		ldr	r2, [r3, #48]
 7876 0046 7B68     		ldr	r3, [r7, #4]
 7877 0048 1B68     		ldr	r3, [r3]
 7878 004a 22F04002 		bic	r2, r2, #64
 7879 004e 1A63     		str	r2, [r3, #48]
3749:./Libraries/STM32H7xx_HAL_Driver/Src/stm32h7xx_hal_jpeg.c **** 
3750:./Libraries/STM32H7xx_HAL_Driver/Src/stm32h7xx_hal_jpeg.c ****       /* Clear header processing done flag */
3751:./Libraries/STM32H7xx_HAL_Driver/Src/stm32h7xx_hal_jpeg.c ****       __HAL_JPEG_CLEAR_FLAG(hjpeg, JPEG_FLAG_HPDF);
 7880              		.loc 1 3751 7
 7881 0050 7B68     		ldr	r3, [r7, #4]
 7882 0052 1B68     		ldr	r3, [r3]
 7883 0054 9A6B     		ldr	r2, [r3, #56]
 7884 0056 7B68     		ldr	r3, [r7, #4]
 7885 0058 1B68     		ldr	r3, [r3]
 7886 005a 42F04002 		orr	r2, r2, #64
 7887 005e 9A63     		str	r2, [r3, #56]
 7888              	.L317:
3752:./Libraries/STM32H7xx_HAL_Driver/Src/stm32h7xx_hal_jpeg.c ****     }
3753:./Libraries/STM32H7xx_HAL_Driver/Src/stm32h7xx_hal_jpeg.c ****   }
3754:./Libraries/STM32H7xx_HAL_Driver/Src/stm32h7xx_hal_jpeg.c **** 
3755:./Libraries/STM32H7xx_HAL_Driver/Src/stm32h7xx_hal_jpeg.c ****   /*End of Conversion handling*/
3756:./Libraries/STM32H7xx_HAL_Driver/Src/stm32h7xx_hal_jpeg.c ****   if (__HAL_JPEG_GET_FLAG(hjpeg, JPEG_FLAG_EOCF) != 0UL)
 7889              		.loc 1 3756 7
 7890 0060 7B68     		ldr	r3, [r7, #4]
 7891 0062 1B68     		ldr	r3, [r3]
 7892 0064 5B6B     		ldr	r3, [r3, #52]
 7893 0066 03F02003 		and	r3, r3, #32
 7894              		.loc 1 3756 6
 7895 006a 002B     		cmp	r3, #0
 7896 006c 39D0     		beq	.L321
3757:./Libraries/STM32H7xx_HAL_Driver/Src/stm32h7xx_hal_jpeg.c ****   {
3758:./Libraries/STM32H7xx_HAL_Driver/Src/stm32h7xx_hal_jpeg.c **** 
3759:./Libraries/STM32H7xx_HAL_Driver/Src/stm32h7xx_hal_jpeg.c ****     hjpeg->Context |= JPEG_CONTEXT_ENDING_DMA;
 7897              		.loc 1 3759 20
ARM GAS  /tmp/ccXFtjVt.s 			page 209


 7898 006e 7B68     		ldr	r3, [r7, #4]
 7899 0070 5B6D     		ldr	r3, [r3, #84]
 7900 0072 43F40042 		orr	r2, r3, #32768
 7901 0076 7B68     		ldr	r3, [r7, #4]
 7902 0078 5A65     		str	r2, [r3, #84]
3760:./Libraries/STM32H7xx_HAL_Driver/Src/stm32h7xx_hal_jpeg.c **** 
3761:./Libraries/STM32H7xx_HAL_Driver/Src/stm32h7xx_hal_jpeg.c ****     /*Stop Encoding/Decoding*/
3762:./Libraries/STM32H7xx_HAL_Driver/Src/stm32h7xx_hal_jpeg.c ****     hjpeg->Instance->CONFR0 &=  ~JPEG_CONFR0_START;
 7903              		.loc 1 3762 10
 7904 007a 7B68     		ldr	r3, [r7, #4]
 7905 007c 1B68     		ldr	r3, [r3]
 7906              		.loc 1 3762 29
 7907 007e 1A68     		ldr	r2, [r3]
 7908              		.loc 1 3762 10
 7909 0080 7B68     		ldr	r3, [r7, #4]
 7910 0082 1B68     		ldr	r3, [r3]
 7911              		.loc 1 3762 29
 7912 0084 22F00102 		bic	r2, r2, #1
 7913 0088 1A60     		str	r2, [r3]
3763:./Libraries/STM32H7xx_HAL_Driver/Src/stm32h7xx_hal_jpeg.c **** 
3764:./Libraries/STM32H7xx_HAL_Driver/Src/stm32h7xx_hal_jpeg.c ****     __HAL_JPEG_DISABLE_IT(hjpeg, JPEG_INTERRUPT_MASK);
 7914              		.loc 1 3764 5
 7915 008a 7B68     		ldr	r3, [r7, #4]
 7916 008c 1B68     		ldr	r3, [r3]
 7917 008e 1A6B     		ldr	r2, [r3, #48]
 7918 0090 7B68     		ldr	r3, [r7, #4]
 7919 0092 1B68     		ldr	r3, [r3]
 7920 0094 22F07E02 		bic	r2, r2, #126
 7921 0098 1A63     		str	r2, [r3, #48]
3765:./Libraries/STM32H7xx_HAL_Driver/Src/stm32h7xx_hal_jpeg.c **** 
3766:./Libraries/STM32H7xx_HAL_Driver/Src/stm32h7xx_hal_jpeg.c ****     /* Clear all flags */
3767:./Libraries/STM32H7xx_HAL_Driver/Src/stm32h7xx_hal_jpeg.c ****     __HAL_JPEG_CLEAR_FLAG(hjpeg, JPEG_FLAG_ALL);
 7922              		.loc 1 3767 5
 7923 009a 7B68     		ldr	r3, [r7, #4]
 7924 009c 1B68     		ldr	r3, [r3]
 7925 009e 9A6B     		ldr	r2, [r3, #56]
 7926 00a0 7B68     		ldr	r3, [r7, #4]
 7927 00a2 1B68     		ldr	r3, [r3]
 7928 00a4 42F06002 		orr	r2, r2, #96
 7929 00a8 9A63     		str	r2, [r3, #56]
3768:./Libraries/STM32H7xx_HAL_Driver/Src/stm32h7xx_hal_jpeg.c **** 
3769:./Libraries/STM32H7xx_HAL_Driver/Src/stm32h7xx_hal_jpeg.c ****     if (hjpeg->hdmain->State == HAL_MDMA_STATE_BUSY)
 7930              		.loc 1 3769 14
 7931 00aa 7B68     		ldr	r3, [r7, #4]
 7932 00ac 1B6B     		ldr	r3, [r3, #48]
 7933              		.loc 1 3769 22
 7934 00ae 93F83D30 		ldrb	r3, [r3, #61]
 7935 00b2 DBB2     		uxtb	r3, r3
 7936              		.loc 1 3769 8
 7937 00b4 022B     		cmp	r3, #2
 7938 00b6 04D1     		bne	.L319
3770:./Libraries/STM32H7xx_HAL_Driver/Src/stm32h7xx_hal_jpeg.c ****     {
3771:./Libraries/STM32H7xx_HAL_Driver/Src/stm32h7xx_hal_jpeg.c ****       /* Stop the MDMA In Xfer*/
3772:./Libraries/STM32H7xx_HAL_Driver/Src/stm32h7xx_hal_jpeg.c ****       (void) HAL_MDMA_Abort_IT(hjpeg->hdmain);
 7939              		.loc 1 3772 14
 7940 00b8 7B68     		ldr	r3, [r7, #4]
 7941 00ba 1B6B     		ldr	r3, [r3, #48]
ARM GAS  /tmp/ccXFtjVt.s 			page 210


 7942 00bc 1846     		mov	r0, r3
 7943 00be FFF7FEFF 		bl	HAL_MDMA_Abort_IT
 7944              	.L319:
3773:./Libraries/STM32H7xx_HAL_Driver/Src/stm32h7xx_hal_jpeg.c ****     }
3774:./Libraries/STM32H7xx_HAL_Driver/Src/stm32h7xx_hal_jpeg.c **** 
3775:./Libraries/STM32H7xx_HAL_Driver/Src/stm32h7xx_hal_jpeg.c ****     if (hjpeg->hdmaout->State == HAL_MDMA_STATE_BUSY)
 7945              		.loc 1 3775 14
 7946 00c2 7B68     		ldr	r3, [r7, #4]
 7947 00c4 5B6B     		ldr	r3, [r3, #52]
 7948              		.loc 1 3775 23
 7949 00c6 93F83D30 		ldrb	r3, [r3, #61]
 7950 00ca DBB2     		uxtb	r3, r3
 7951              		.loc 1 3775 8
 7952 00cc 022B     		cmp	r3, #2
 7953 00ce 05D1     		bne	.L320
3776:./Libraries/STM32H7xx_HAL_Driver/Src/stm32h7xx_hal_jpeg.c ****     {
3777:./Libraries/STM32H7xx_HAL_Driver/Src/stm32h7xx_hal_jpeg.c ****       /* Stop the MDMA out Xfer*/
3778:./Libraries/STM32H7xx_HAL_Driver/Src/stm32h7xx_hal_jpeg.c ****       (void) HAL_MDMA_Abort_IT(hjpeg->hdmaout);
 7954              		.loc 1 3778 14
 7955 00d0 7B68     		ldr	r3, [r7, #4]
 7956 00d2 5B6B     		ldr	r3, [r3, #52]
 7957 00d4 1846     		mov	r0, r3
 7958 00d6 FFF7FEFF 		bl	HAL_MDMA_Abort_IT
3779:./Libraries/STM32H7xx_HAL_Driver/Src/stm32h7xx_hal_jpeg.c ****     }
3780:./Libraries/STM32H7xx_HAL_Driver/Src/stm32h7xx_hal_jpeg.c ****     else
3781:./Libraries/STM32H7xx_HAL_Driver/Src/stm32h7xx_hal_jpeg.c ****     {
3782:./Libraries/STM32H7xx_HAL_Driver/Src/stm32h7xx_hal_jpeg.c ****       JPEG_DMA_EndProcess(hjpeg);
3783:./Libraries/STM32H7xx_HAL_Driver/Src/stm32h7xx_hal_jpeg.c ****     }
3784:./Libraries/STM32H7xx_HAL_Driver/Src/stm32h7xx_hal_jpeg.c ****   }
3785:./Libraries/STM32H7xx_HAL_Driver/Src/stm32h7xx_hal_jpeg.c **** 
3786:./Libraries/STM32H7xx_HAL_Driver/Src/stm32h7xx_hal_jpeg.c **** 
3787:./Libraries/STM32H7xx_HAL_Driver/Src/stm32h7xx_hal_jpeg.c **** }
 7959              		.loc 1 3787 1
 7960 00da 02E0     		b	.L321
 7961              	.L320:
3782:./Libraries/STM32H7xx_HAL_Driver/Src/stm32h7xx_hal_jpeg.c ****     }
 7962              		.loc 1 3782 7
 7963 00dc 7868     		ldr	r0, [r7, #4]
 7964 00de FFF7FEFF 		bl	JPEG_DMA_EndProcess
 7965              	.L321:
 7966              		.loc 1 3787 1
 7967 00e2 00BF     		nop
 7968 00e4 0837     		adds	r7, r7, #8
 7969              	.LCFI251:
 7970              		.cfi_def_cfa_offset 8
 7971 00e6 BD46     		mov	sp, r7
 7972              	.LCFI252:
 7973              		.cfi_def_cfa_register 13
 7974              		@ sp needed
 7975 00e8 80BD     		pop	{r7, pc}
 7976              		.cfi_endproc
 7977              	.LFE376:
 7979              		.section	.text.JPEG_DMA_EndProcess,"ax",%progbits
 7980              		.align	1
 7981              		.syntax unified
 7982              		.thumb
 7983              		.thumb_func
ARM GAS  /tmp/ccXFtjVt.s 			page 211


 7984              		.fpu fpv5-d16
 7986              	JPEG_DMA_EndProcess:
 7987              	.LFB377:
3788:./Libraries/STM32H7xx_HAL_Driver/Src/stm32h7xx_hal_jpeg.c **** 
3789:./Libraries/STM32H7xx_HAL_Driver/Src/stm32h7xx_hal_jpeg.c **** /**
3790:./Libraries/STM32H7xx_HAL_Driver/Src/stm32h7xx_hal_jpeg.c ****   * @brief  Finalize the current JPEG DMA process (encoding/decoding)
3791:./Libraries/STM32H7xx_HAL_Driver/Src/stm32h7xx_hal_jpeg.c ****   * @param  hjpeg pointer to a JPEG_HandleTypeDef structure that contains
3792:./Libraries/STM32H7xx_HAL_Driver/Src/stm32h7xx_hal_jpeg.c ****   *         the configuration information for JPEG module
3793:./Libraries/STM32H7xx_HAL_Driver/Src/stm32h7xx_hal_jpeg.c ****   * @retval JPEG_PROCESS_DONE
3794:./Libraries/STM32H7xx_HAL_Driver/Src/stm32h7xx_hal_jpeg.c ****   */
3795:./Libraries/STM32H7xx_HAL_Driver/Src/stm32h7xx_hal_jpeg.c **** static void JPEG_DMA_EndProcess(JPEG_HandleTypeDef *hjpeg)
3796:./Libraries/STM32H7xx_HAL_Driver/Src/stm32h7xx_hal_jpeg.c **** {
 7988              		.loc 1 3796 1
 7989              		.cfi_startproc
 7990              		@ args = 0, pretend = 0, frame = 16
 7991              		@ frame_needed = 1, uses_anonymous_args = 0
 7992 0000 80B5     		push	{r7, lr}
 7993              	.LCFI253:
 7994              		.cfi_def_cfa_offset 8
 7995              		.cfi_offset 7, -8
 7996              		.cfi_offset 14, -4
 7997 0002 84B0     		sub	sp, sp, #16
 7998              	.LCFI254:
 7999              		.cfi_def_cfa_offset 24
 8000 0004 00AF     		add	r7, sp, #0
 8001              	.LCFI255:
 8002              		.cfi_def_cfa_register 7
 8003 0006 7860     		str	r0, [r7, #4]
3797:./Libraries/STM32H7xx_HAL_Driver/Src/stm32h7xx_hal_jpeg.c ****   uint32_t tmpContext;
3798:./Libraries/STM32H7xx_HAL_Driver/Src/stm32h7xx_hal_jpeg.c ****   hjpeg->JpegOutCount = hjpeg->OutDataLength - (hjpeg->hdmaout->Instance->CBNDTR & MDMA_CBNDTR_BNDT
 8004              		.loc 1 3798 30
 8005 0008 7B68     		ldr	r3, [r7, #4]
 8006 000a DA6A     		ldr	r2, [r3, #44]
 8007              		.loc 1 3798 54
 8008 000c 7B68     		ldr	r3, [r7, #4]
 8009 000e 5B6B     		ldr	r3, [r3, #52]
 8010              		.loc 1 3798 63
 8011 0010 1B68     		ldr	r3, [r3]
 8012              		.loc 1 3798 73
 8013 0012 5B69     		ldr	r3, [r3, #20]
 8014              		.loc 1 3798 82
 8015 0014 C3F31003 		ubfx	r3, r3, #0, #17
 8016              		.loc 1 3798 46
 8017 0018 D21A     		subs	r2, r2, r3
 8018              		.loc 1 3798 23
 8019 001a 7B68     		ldr	r3, [r7, #4]
 8020 001c 5A62     		str	r2, [r3, #36]
3799:./Libraries/STM32H7xx_HAL_Driver/Src/stm32h7xx_hal_jpeg.c **** 
3800:./Libraries/STM32H7xx_HAL_Driver/Src/stm32h7xx_hal_jpeg.c ****   /*if Output Buffer is full, call HAL_JPEG_DataReadyCallback*/
3801:./Libraries/STM32H7xx_HAL_Driver/Src/stm32h7xx_hal_jpeg.c ****   if (hjpeg->JpegOutCount == hjpeg->OutDataLength)
 8021              		.loc 1 3801 12
 8022 001e 7B68     		ldr	r3, [r7, #4]
 8023 0020 5A6A     		ldr	r2, [r3, #36]
 8024              		.loc 1 3801 35
 8025 0022 7B68     		ldr	r3, [r7, #4]
 8026 0024 DB6A     		ldr	r3, [r3, #44]
 8027              		.loc 1 3801 6
ARM GAS  /tmp/ccXFtjVt.s 			page 212


 8028 0026 9A42     		cmp	r2, r3
 8029 0028 0AD1     		bne	.L323
3802:./Libraries/STM32H7xx_HAL_Driver/Src/stm32h7xx_hal_jpeg.c ****   {
3803:./Libraries/STM32H7xx_HAL_Driver/Src/stm32h7xx_hal_jpeg.c **** #if (USE_HAL_JPEG_REGISTER_CALLBACKS == 1)
3804:./Libraries/STM32H7xx_HAL_Driver/Src/stm32h7xx_hal_jpeg.c ****     hjpeg->DataReadyCallback(hjpeg, hjpeg->pJpegOutBuffPtr, hjpeg->JpegOutCount);
3805:./Libraries/STM32H7xx_HAL_Driver/Src/stm32h7xx_hal_jpeg.c **** #else
3806:./Libraries/STM32H7xx_HAL_Driver/Src/stm32h7xx_hal_jpeg.c ****     HAL_JPEG_DataReadyCallback(hjpeg, hjpeg->pJpegOutBuffPtr, hjpeg->JpegOutCount);
 8030              		.loc 1 3806 5
 8031 002a 7B68     		ldr	r3, [r7, #4]
 8032 002c D969     		ldr	r1, [r3, #28]
 8033 002e 7B68     		ldr	r3, [r7, #4]
 8034 0030 5B6A     		ldr	r3, [r3, #36]
 8035 0032 1A46     		mov	r2, r3
 8036 0034 7868     		ldr	r0, [r7, #4]
 8037 0036 FFF7FEFF 		bl	HAL_JPEG_DataReadyCallback
3807:./Libraries/STM32H7xx_HAL_Driver/Src/stm32h7xx_hal_jpeg.c **** #endif /* USE_HAL_JPEG_REGISTER_CALLBACKS */
3808:./Libraries/STM32H7xx_HAL_Driver/Src/stm32h7xx_hal_jpeg.c **** 
3809:./Libraries/STM32H7xx_HAL_Driver/Src/stm32h7xx_hal_jpeg.c ****     hjpeg->JpegOutCount = 0;
 8038              		.loc 1 3809 25
 8039 003a 7B68     		ldr	r3, [r7, #4]
 8040 003c 0022     		movs	r2, #0
 8041 003e 5A62     		str	r2, [r3, #36]
 8042              	.L323:
3810:./Libraries/STM32H7xx_HAL_Driver/Src/stm32h7xx_hal_jpeg.c ****   }
3811:./Libraries/STM32H7xx_HAL_Driver/Src/stm32h7xx_hal_jpeg.c **** 
3812:./Libraries/STM32H7xx_HAL_Driver/Src/stm32h7xx_hal_jpeg.c ****   /*Check if remaining data in the output FIFO*/
3813:./Libraries/STM32H7xx_HAL_Driver/Src/stm32h7xx_hal_jpeg.c ****   if (__HAL_JPEG_GET_FLAG(hjpeg, JPEG_FLAG_OFNEF) == 0UL)
 8043              		.loc 1 3813 7
 8044 0040 7B68     		ldr	r3, [r7, #4]
 8045 0042 1B68     		ldr	r3, [r3]
 8046 0044 5B6B     		ldr	r3, [r3, #52]
 8047 0046 03F01003 		and	r3, r3, #16
 8048              		.loc 1 3813 6
 8049 004a 002B     		cmp	r3, #0
 8050 004c 34D1     		bne	.L324
3814:./Libraries/STM32H7xx_HAL_Driver/Src/stm32h7xx_hal_jpeg.c ****   {
3815:./Libraries/STM32H7xx_HAL_Driver/Src/stm32h7xx_hal_jpeg.c ****     if (hjpeg->JpegOutCount > 0UL)
 8051              		.loc 1 3815 14
 8052 004e 7B68     		ldr	r3, [r7, #4]
 8053 0050 5B6A     		ldr	r3, [r3, #36]
 8054              		.loc 1 3815 8
 8055 0052 002B     		cmp	r3, #0
 8056 0054 0AD0     		beq	.L325
3816:./Libraries/STM32H7xx_HAL_Driver/Src/stm32h7xx_hal_jpeg.c ****     {
3817:./Libraries/STM32H7xx_HAL_Driver/Src/stm32h7xx_hal_jpeg.c ****       /*Output Buffer is not empty, call DecodedDataReadyCallback*/
3818:./Libraries/STM32H7xx_HAL_Driver/Src/stm32h7xx_hal_jpeg.c **** #if (USE_HAL_JPEG_REGISTER_CALLBACKS == 1)
3819:./Libraries/STM32H7xx_HAL_Driver/Src/stm32h7xx_hal_jpeg.c ****       hjpeg->DataReadyCallback(hjpeg, hjpeg->pJpegOutBuffPtr, hjpeg->JpegOutCount);
3820:./Libraries/STM32H7xx_HAL_Driver/Src/stm32h7xx_hal_jpeg.c **** #else
3821:./Libraries/STM32H7xx_HAL_Driver/Src/stm32h7xx_hal_jpeg.c ****       HAL_JPEG_DataReadyCallback(hjpeg, hjpeg->pJpegOutBuffPtr, hjpeg->JpegOutCount);
 8057              		.loc 1 3821 7
 8058 0056 7B68     		ldr	r3, [r7, #4]
 8059 0058 D969     		ldr	r1, [r3, #28]
 8060 005a 7B68     		ldr	r3, [r7, #4]
 8061 005c 5B6A     		ldr	r3, [r3, #36]
 8062 005e 1A46     		mov	r2, r3
 8063 0060 7868     		ldr	r0, [r7, #4]
 8064 0062 FFF7FEFF 		bl	HAL_JPEG_DataReadyCallback
ARM GAS  /tmp/ccXFtjVt.s 			page 213


3822:./Libraries/STM32H7xx_HAL_Driver/Src/stm32h7xx_hal_jpeg.c **** #endif /* USE_HAL_JPEG_REGISTER_CALLBACKS */
3823:./Libraries/STM32H7xx_HAL_Driver/Src/stm32h7xx_hal_jpeg.c **** 
3824:./Libraries/STM32H7xx_HAL_Driver/Src/stm32h7xx_hal_jpeg.c ****       hjpeg->JpegOutCount = 0;
 8065              		.loc 1 3824 27
 8066 0066 7B68     		ldr	r3, [r7, #4]
 8067 0068 0022     		movs	r2, #0
 8068 006a 5A62     		str	r2, [r3, #36]
 8069              	.L325:
3825:./Libraries/STM32H7xx_HAL_Driver/Src/stm32h7xx_hal_jpeg.c ****     }
3826:./Libraries/STM32H7xx_HAL_Driver/Src/stm32h7xx_hal_jpeg.c **** 
3827:./Libraries/STM32H7xx_HAL_Driver/Src/stm32h7xx_hal_jpeg.c ****     /*Stop Encoding/Decoding*/
3828:./Libraries/STM32H7xx_HAL_Driver/Src/stm32h7xx_hal_jpeg.c ****     hjpeg->Instance->CONFR0 &=  ~JPEG_CONFR0_START;
 8070              		.loc 1 3828 10
 8071 006c 7B68     		ldr	r3, [r7, #4]
 8072 006e 1B68     		ldr	r3, [r3]
 8073              		.loc 1 3828 29
 8074 0070 1A68     		ldr	r2, [r3]
 8075              		.loc 1 3828 10
 8076 0072 7B68     		ldr	r3, [r7, #4]
 8077 0074 1B68     		ldr	r3, [r3]
 8078              		.loc 1 3828 29
 8079 0076 22F00102 		bic	r2, r2, #1
 8080 007a 1A60     		str	r2, [r3]
3829:./Libraries/STM32H7xx_HAL_Driver/Src/stm32h7xx_hal_jpeg.c **** 
3830:./Libraries/STM32H7xx_HAL_Driver/Src/stm32h7xx_hal_jpeg.c ****     tmpContext = hjpeg->Context;
 8081              		.loc 1 3830 16
 8082 007c 7B68     		ldr	r3, [r7, #4]
 8083 007e 5B6D     		ldr	r3, [r3, #84]
 8084 0080 FB60     		str	r3, [r7, #12]
3831:./Libraries/STM32H7xx_HAL_Driver/Src/stm32h7xx_hal_jpeg.c ****     /*Clear all context fields execpt JPEG_CONTEXT_CONF_ENCODING and JPEG_CONTEXT_CUSTOM_TABLES*/
3832:./Libraries/STM32H7xx_HAL_Driver/Src/stm32h7xx_hal_jpeg.c ****     hjpeg->Context &= (JPEG_CONTEXT_CONF_ENCODING | JPEG_CONTEXT_CUSTOM_TABLES);
 8085              		.loc 1 3832 20
 8086 0082 7B68     		ldr	r3, [r7, #4]
 8087 0084 5B6D     		ldr	r3, [r3, #84]
 8088 0086 03F48242 		and	r2, r3, #16640
 8089 008a 7B68     		ldr	r3, [r7, #4]
 8090 008c 5A65     		str	r2, [r3, #84]
3833:./Libraries/STM32H7xx_HAL_Driver/Src/stm32h7xx_hal_jpeg.c **** 
3834:./Libraries/STM32H7xx_HAL_Driver/Src/stm32h7xx_hal_jpeg.c ****     /* Process Unlocked */
3835:./Libraries/STM32H7xx_HAL_Driver/Src/stm32h7xx_hal_jpeg.c ****     __HAL_UNLOCK(hjpeg);
 8091              		.loc 1 3835 5
 8092 008e 7B68     		ldr	r3, [r7, #4]
 8093 0090 0022     		movs	r2, #0
 8094 0092 83F84C20 		strb	r2, [r3, #76]
3836:./Libraries/STM32H7xx_HAL_Driver/Src/stm32h7xx_hal_jpeg.c **** 
3837:./Libraries/STM32H7xx_HAL_Driver/Src/stm32h7xx_hal_jpeg.c ****     /* Change the JPEG state */
3838:./Libraries/STM32H7xx_HAL_Driver/Src/stm32h7xx_hal_jpeg.c ****     hjpeg->State = HAL_JPEG_STATE_READY;
 8095              		.loc 1 3838 18
 8096 0096 7B68     		ldr	r3, [r7, #4]
 8097 0098 0122     		movs	r2, #1
 8098 009a 83F84D20 		strb	r2, [r3, #77]
3839:./Libraries/STM32H7xx_HAL_Driver/Src/stm32h7xx_hal_jpeg.c **** 
3840:./Libraries/STM32H7xx_HAL_Driver/Src/stm32h7xx_hal_jpeg.c ****     /*Call End of Encoding/Decoding callback */
3841:./Libraries/STM32H7xx_HAL_Driver/Src/stm32h7xx_hal_jpeg.c ****     if ((tmpContext & JPEG_CONTEXT_OPERATION_MASK) == JPEG_CONTEXT_DECODE)
 8099              		.loc 1 3841 21
 8100 009e FB68     		ldr	r3, [r7, #12]
 8101 00a0 03F00303 		and	r3, r3, #3
ARM GAS  /tmp/ccXFtjVt.s 			page 214


 8102              		.loc 1 3841 8
 8103 00a4 022B     		cmp	r3, #2
 8104 00a6 03D1     		bne	.L326
3842:./Libraries/STM32H7xx_HAL_Driver/Src/stm32h7xx_hal_jpeg.c ****     {
3843:./Libraries/STM32H7xx_HAL_Driver/Src/stm32h7xx_hal_jpeg.c **** #if (USE_HAL_JPEG_REGISTER_CALLBACKS == 1)
3844:./Libraries/STM32H7xx_HAL_Driver/Src/stm32h7xx_hal_jpeg.c ****       hjpeg->DecodeCpltCallback(hjpeg);
3845:./Libraries/STM32H7xx_HAL_Driver/Src/stm32h7xx_hal_jpeg.c **** #else
3846:./Libraries/STM32H7xx_HAL_Driver/Src/stm32h7xx_hal_jpeg.c ****       HAL_JPEG_DecodeCpltCallback(hjpeg);
 8105              		.loc 1 3846 7
 8106 00a8 7868     		ldr	r0, [r7, #4]
 8107 00aa FFF7FEFF 		bl	HAL_JPEG_DecodeCpltCallback
3847:./Libraries/STM32H7xx_HAL_Driver/Src/stm32h7xx_hal_jpeg.c **** #endif /* USE_HAL_JPEG_REGISTER_CALLBACKS */
3848:./Libraries/STM32H7xx_HAL_Driver/Src/stm32h7xx_hal_jpeg.c ****     }
3849:./Libraries/STM32H7xx_HAL_Driver/Src/stm32h7xx_hal_jpeg.c ****     else /* JPEG_CONTEXT_ENCODE */
3850:./Libraries/STM32H7xx_HAL_Driver/Src/stm32h7xx_hal_jpeg.c ****     {
3851:./Libraries/STM32H7xx_HAL_Driver/Src/stm32h7xx_hal_jpeg.c **** #if (USE_HAL_JPEG_REGISTER_CALLBACKS == 1)
3852:./Libraries/STM32H7xx_HAL_Driver/Src/stm32h7xx_hal_jpeg.c ****       hjpeg->EncodeCpltCallback(hjpeg);
3853:./Libraries/STM32H7xx_HAL_Driver/Src/stm32h7xx_hal_jpeg.c **** #else
3854:./Libraries/STM32H7xx_HAL_Driver/Src/stm32h7xx_hal_jpeg.c ****       HAL_JPEG_EncodeCpltCallback(hjpeg);
3855:./Libraries/STM32H7xx_HAL_Driver/Src/stm32h7xx_hal_jpeg.c **** #endif /* USE_HAL_JPEG_REGISTER_CALLBACKS */
3856:./Libraries/STM32H7xx_HAL_Driver/Src/stm32h7xx_hal_jpeg.c ****     }
3857:./Libraries/STM32H7xx_HAL_Driver/Src/stm32h7xx_hal_jpeg.c ****   }
3858:./Libraries/STM32H7xx_HAL_Driver/Src/stm32h7xx_hal_jpeg.c ****   else if ((hjpeg->Context &  JPEG_CONTEXT_PAUSE_OUTPUT) == 0UL)
3859:./Libraries/STM32H7xx_HAL_Driver/Src/stm32h7xx_hal_jpeg.c ****   {
3860:./Libraries/STM32H7xx_HAL_Driver/Src/stm32h7xx_hal_jpeg.c ****     JPEG_DMA_PollResidualData(hjpeg);
3861:./Libraries/STM32H7xx_HAL_Driver/Src/stm32h7xx_hal_jpeg.c ****   }
3862:./Libraries/STM32H7xx_HAL_Driver/Src/stm32h7xx_hal_jpeg.c ****   else
3863:./Libraries/STM32H7xx_HAL_Driver/Src/stm32h7xx_hal_jpeg.c ****   {
3864:./Libraries/STM32H7xx_HAL_Driver/Src/stm32h7xx_hal_jpeg.c ****     /* Nothing to do */
3865:./Libraries/STM32H7xx_HAL_Driver/Src/stm32h7xx_hal_jpeg.c ****   }
3866:./Libraries/STM32H7xx_HAL_Driver/Src/stm32h7xx_hal_jpeg.c **** 
3867:./Libraries/STM32H7xx_HAL_Driver/Src/stm32h7xx_hal_jpeg.c **** }
 8108              		.loc 1 3867 1
 8109 00ae 0CE0     		b	.L328
 8110              	.L326:
3854:./Libraries/STM32H7xx_HAL_Driver/Src/stm32h7xx_hal_jpeg.c **** #endif /* USE_HAL_JPEG_REGISTER_CALLBACKS */
 8111              		.loc 1 3854 7
 8112 00b0 7868     		ldr	r0, [r7, #4]
 8113 00b2 FFF7FEFF 		bl	HAL_JPEG_EncodeCpltCallback
 8114              		.loc 1 3867 1
 8115 00b6 08E0     		b	.L328
 8116              	.L324:
3858:./Libraries/STM32H7xx_HAL_Driver/Src/stm32h7xx_hal_jpeg.c ****   {
 8117              		.loc 1 3858 18
 8118 00b8 7B68     		ldr	r3, [r7, #4]
 8119 00ba 5B6D     		ldr	r3, [r3, #84]
3858:./Libraries/STM32H7xx_HAL_Driver/Src/stm32h7xx_hal_jpeg.c ****   {
 8120              		.loc 1 3858 28
 8121 00bc 03F40053 		and	r3, r3, #8192
3858:./Libraries/STM32H7xx_HAL_Driver/Src/stm32h7xx_hal_jpeg.c ****   {
 8122              		.loc 1 3858 11
 8123 00c0 002B     		cmp	r3, #0
 8124 00c2 02D1     		bne	.L328
3860:./Libraries/STM32H7xx_HAL_Driver/Src/stm32h7xx_hal_jpeg.c ****   }
 8125              		.loc 1 3860 5
 8126 00c4 7868     		ldr	r0, [r7, #4]
 8127 00c6 FFF7FEFF 		bl	JPEG_DMA_PollResidualData
ARM GAS  /tmp/ccXFtjVt.s 			page 215


 8128              	.L328:
 8129              		.loc 1 3867 1
 8130 00ca 00BF     		nop
 8131 00cc 1037     		adds	r7, r7, #16
 8132              	.LCFI256:
 8133              		.cfi_def_cfa_offset 8
 8134 00ce BD46     		mov	sp, r7
 8135              	.LCFI257:
 8136              		.cfi_def_cfa_register 13
 8137              		@ sp needed
 8138 00d0 80BD     		pop	{r7, pc}
 8139              		.cfi_endproc
 8140              	.LFE377:
 8142              		.section	.text.JPEG_DMA_PollResidualData,"ax",%progbits
 8143              		.align	1
 8144              		.syntax unified
 8145              		.thumb
 8146              		.thumb_func
 8147              		.fpu fpv5-d16
 8149              	JPEG_DMA_PollResidualData:
 8150              	.LFB378:
3868:./Libraries/STM32H7xx_HAL_Driver/Src/stm32h7xx_hal_jpeg.c **** 
3869:./Libraries/STM32H7xx_HAL_Driver/Src/stm32h7xx_hal_jpeg.c **** /**
3870:./Libraries/STM32H7xx_HAL_Driver/Src/stm32h7xx_hal_jpeg.c ****   * @brief  Poll residual output data when DMA process (encoding/decoding)
3871:./Libraries/STM32H7xx_HAL_Driver/Src/stm32h7xx_hal_jpeg.c ****   * @param  hjpeg pointer to a JPEG_HandleTypeDef structure that contains
3872:./Libraries/STM32H7xx_HAL_Driver/Src/stm32h7xx_hal_jpeg.c ****   *         the configuration information for JPEG module
3873:./Libraries/STM32H7xx_HAL_Driver/Src/stm32h7xx_hal_jpeg.c ****   * @retval None.
3874:./Libraries/STM32H7xx_HAL_Driver/Src/stm32h7xx_hal_jpeg.c ****   */
3875:./Libraries/STM32H7xx_HAL_Driver/Src/stm32h7xx_hal_jpeg.c **** static void JPEG_DMA_PollResidualData(JPEG_HandleTypeDef *hjpeg)
3876:./Libraries/STM32H7xx_HAL_Driver/Src/stm32h7xx_hal_jpeg.c **** {
 8151              		.loc 1 3876 1
 8152              		.cfi_startproc
 8153              		@ args = 0, pretend = 0, frame = 24
 8154              		@ frame_needed = 1, uses_anonymous_args = 0
 8155 0000 80B5     		push	{r7, lr}
 8156              	.LCFI258:
 8157              		.cfi_def_cfa_offset 8
 8158              		.cfi_offset 7, -8
 8159              		.cfi_offset 14, -4
 8160 0002 86B0     		sub	sp, sp, #24
 8161              	.LCFI259:
 8162              		.cfi_def_cfa_offset 32
 8163 0004 00AF     		add	r7, sp, #0
 8164              	.LCFI260:
 8165              		.cfi_def_cfa_register 7
 8166 0006 7860     		str	r0, [r7, #4]
3877:./Libraries/STM32H7xx_HAL_Driver/Src/stm32h7xx_hal_jpeg.c ****   uint32_t tmpContext;
3878:./Libraries/STM32H7xx_HAL_Driver/Src/stm32h7xx_hal_jpeg.c ****   uint32_t count;
3879:./Libraries/STM32H7xx_HAL_Driver/Src/stm32h7xx_hal_jpeg.c ****   uint32_t dataOut;
3880:./Libraries/STM32H7xx_HAL_Driver/Src/stm32h7xx_hal_jpeg.c **** 
3881:./Libraries/STM32H7xx_HAL_Driver/Src/stm32h7xx_hal_jpeg.c ****   for (count = JPEG_FIFO_SIZE; count > 0UL; count--)
 8167              		.loc 1 3881 14
 8168 0008 1023     		movs	r3, #16
 8169 000a 7B61     		str	r3, [r7, #20]
 8170              		.loc 1 3881 3
 8171 000c 4FE0     		b	.L330
 8172              	.L332:
ARM GAS  /tmp/ccXFtjVt.s 			page 216


3882:./Libraries/STM32H7xx_HAL_Driver/Src/stm32h7xx_hal_jpeg.c ****   {
3883:./Libraries/STM32H7xx_HAL_Driver/Src/stm32h7xx_hal_jpeg.c ****     if ((hjpeg->Context &  JPEG_CONTEXT_PAUSE_OUTPUT) == 0UL)
 8173              		.loc 1 3883 15
 8174 000e 7B68     		ldr	r3, [r7, #4]
 8175 0010 5B6D     		ldr	r3, [r3, #84]
 8176              		.loc 1 3883 25
 8177 0012 03F40053 		and	r3, r3, #8192
 8178              		.loc 1 3883 8
 8179 0016 002B     		cmp	r3, #0
 8180 0018 46D1     		bne	.L331
3884:./Libraries/STM32H7xx_HAL_Driver/Src/stm32h7xx_hal_jpeg.c ****     {
3885:./Libraries/STM32H7xx_HAL_Driver/Src/stm32h7xx_hal_jpeg.c ****       if (__HAL_JPEG_GET_FLAG(hjpeg, JPEG_FLAG_OFNEF) != 0UL)
 8181              		.loc 1 3885 11
 8182 001a 7B68     		ldr	r3, [r7, #4]
 8183 001c 1B68     		ldr	r3, [r3]
 8184 001e 5B6B     		ldr	r3, [r3, #52]
 8185 0020 03F01003 		and	r3, r3, #16
 8186              		.loc 1 3885 10
 8187 0024 002B     		cmp	r3, #0
 8188 0026 3FD0     		beq	.L331
3886:./Libraries/STM32H7xx_HAL_Driver/Src/stm32h7xx_hal_jpeg.c ****       {
3887:./Libraries/STM32H7xx_HAL_Driver/Src/stm32h7xx_hal_jpeg.c ****         dataOut = hjpeg->Instance->DOR;
 8189              		.loc 1 3887 24
 8190 0028 7B68     		ldr	r3, [r7, #4]
 8191 002a 1B68     		ldr	r3, [r3]
 8192              		.loc 1 3887 17
 8193 002c 5B6C     		ldr	r3, [r3, #68]
 8194 002e FB60     		str	r3, [r7, #12]
3888:./Libraries/STM32H7xx_HAL_Driver/Src/stm32h7xx_hal_jpeg.c ****         hjpeg->pJpegOutBuffPtr[hjpeg->JpegOutCount] = (uint8_t)(dataOut & 0x000000FFUL);
 8195              		.loc 1 3888 14
 8196 0030 7B68     		ldr	r3, [r7, #4]
 8197 0032 DA69     		ldr	r2, [r3, #28]
 8198              		.loc 1 3888 37
 8199 0034 7B68     		ldr	r3, [r7, #4]
 8200 0036 5B6A     		ldr	r3, [r3, #36]
 8201              		.loc 1 3888 31
 8202 0038 1344     		add	r3, r3, r2
 8203              		.loc 1 3888 55
 8204 003a FA68     		ldr	r2, [r7, #12]
 8205 003c D2B2     		uxtb	r2, r2
 8206              		.loc 1 3888 53
 8207 003e 1A70     		strb	r2, [r3]
3889:./Libraries/STM32H7xx_HAL_Driver/Src/stm32h7xx_hal_jpeg.c ****         hjpeg->pJpegOutBuffPtr[hjpeg->JpegOutCount + 1UL] = (uint8_t)((dataOut & 0x0000FF00UL) >> 8
 8208              		.loc 1 3889 96
 8209 0040 FB68     		ldr	r3, [r7, #12]
 8210 0042 190A     		lsrs	r1, r3, #8
 8211              		.loc 1 3889 14
 8212 0044 7B68     		ldr	r3, [r7, #4]
 8213 0046 DA69     		ldr	r2, [r3, #28]
 8214              		.loc 1 3889 37
 8215 0048 7B68     		ldr	r3, [r7, #4]
 8216 004a 5B6A     		ldr	r3, [r3, #36]
 8217              		.loc 1 3889 31
 8218 004c 0133     		adds	r3, r3, #1
 8219 004e 1344     		add	r3, r3, r2
 8220              		.loc 1 3889 61
 8221 0050 CAB2     		uxtb	r2, r1
ARM GAS  /tmp/ccXFtjVt.s 			page 217


 8222              		.loc 1 3889 59
 8223 0052 1A70     		strb	r2, [r3]
3890:./Libraries/STM32H7xx_HAL_Driver/Src/stm32h7xx_hal_jpeg.c ****         hjpeg->pJpegOutBuffPtr[hjpeg->JpegOutCount + 2UL] = (uint8_t)((dataOut & 0x00FF0000UL) >> 1
 8224              		.loc 1 3890 96
 8225 0054 FB68     		ldr	r3, [r7, #12]
 8226 0056 190C     		lsrs	r1, r3, #16
 8227              		.loc 1 3890 14
 8228 0058 7B68     		ldr	r3, [r7, #4]
 8229 005a DA69     		ldr	r2, [r3, #28]
 8230              		.loc 1 3890 37
 8231 005c 7B68     		ldr	r3, [r7, #4]
 8232 005e 5B6A     		ldr	r3, [r3, #36]
 8233              		.loc 1 3890 31
 8234 0060 0233     		adds	r3, r3, #2
 8235 0062 1344     		add	r3, r3, r2
 8236              		.loc 1 3890 61
 8237 0064 CAB2     		uxtb	r2, r1
 8238              		.loc 1 3890 59
 8239 0066 1A70     		strb	r2, [r3]
3891:./Libraries/STM32H7xx_HAL_Driver/Src/stm32h7xx_hal_jpeg.c ****         hjpeg->pJpegOutBuffPtr[hjpeg->JpegOutCount + 3UL] = (uint8_t)((dataOut & 0xFF000000UL) >> 2
 8240              		.loc 1 3891 96
 8241 0068 FB68     		ldr	r3, [r7, #12]
 8242 006a 190E     		lsrs	r1, r3, #24
 8243              		.loc 1 3891 14
 8244 006c 7B68     		ldr	r3, [r7, #4]
 8245 006e DA69     		ldr	r2, [r3, #28]
 8246              		.loc 1 3891 37
 8247 0070 7B68     		ldr	r3, [r7, #4]
 8248 0072 5B6A     		ldr	r3, [r3, #36]
 8249              		.loc 1 3891 31
 8250 0074 0333     		adds	r3, r3, #3
 8251 0076 1344     		add	r3, r3, r2
 8252              		.loc 1 3891 61
 8253 0078 CAB2     		uxtb	r2, r1
 8254              		.loc 1 3891 59
 8255 007a 1A70     		strb	r2, [r3]
3892:./Libraries/STM32H7xx_HAL_Driver/Src/stm32h7xx_hal_jpeg.c ****         hjpeg->JpegOutCount += 4UL;
 8256              		.loc 1 3892 29
 8257 007c 7B68     		ldr	r3, [r7, #4]
 8258 007e 5B6A     		ldr	r3, [r3, #36]
 8259 0080 1A1D     		adds	r2, r3, #4
 8260 0082 7B68     		ldr	r3, [r7, #4]
 8261 0084 5A62     		str	r2, [r3, #36]
3893:./Libraries/STM32H7xx_HAL_Driver/Src/stm32h7xx_hal_jpeg.c **** 
3894:./Libraries/STM32H7xx_HAL_Driver/Src/stm32h7xx_hal_jpeg.c ****         if (hjpeg->JpegOutCount == hjpeg->OutDataLength)
 8262              		.loc 1 3894 18
 8263 0086 7B68     		ldr	r3, [r7, #4]
 8264 0088 5A6A     		ldr	r2, [r3, #36]
 8265              		.loc 1 3894 41
 8266 008a 7B68     		ldr	r3, [r7, #4]
 8267 008c DB6A     		ldr	r3, [r3, #44]
 8268              		.loc 1 3894 12
 8269 008e 9A42     		cmp	r2, r3
 8270 0090 0AD1     		bne	.L331
3895:./Libraries/STM32H7xx_HAL_Driver/Src/stm32h7xx_hal_jpeg.c ****         {
3896:./Libraries/STM32H7xx_HAL_Driver/Src/stm32h7xx_hal_jpeg.c ****           /*Output Buffer is full, call HAL_JPEG_DataReadyCallback*/
3897:./Libraries/STM32H7xx_HAL_Driver/Src/stm32h7xx_hal_jpeg.c **** #if (USE_HAL_JPEG_REGISTER_CALLBACKS == 1)
ARM GAS  /tmp/ccXFtjVt.s 			page 218


3898:./Libraries/STM32H7xx_HAL_Driver/Src/stm32h7xx_hal_jpeg.c ****           hjpeg->DataReadyCallback(hjpeg, hjpeg->pJpegOutBuffPtr, hjpeg->JpegOutCount);
3899:./Libraries/STM32H7xx_HAL_Driver/Src/stm32h7xx_hal_jpeg.c **** #else
3900:./Libraries/STM32H7xx_HAL_Driver/Src/stm32h7xx_hal_jpeg.c ****           HAL_JPEG_DataReadyCallback(hjpeg, hjpeg->pJpegOutBuffPtr, hjpeg->JpegOutCount);
 8271              		.loc 1 3900 11
 8272 0092 7B68     		ldr	r3, [r7, #4]
 8273 0094 D969     		ldr	r1, [r3, #28]
 8274 0096 7B68     		ldr	r3, [r7, #4]
 8275 0098 5B6A     		ldr	r3, [r3, #36]
 8276 009a 1A46     		mov	r2, r3
 8277 009c 7868     		ldr	r0, [r7, #4]
 8278 009e FFF7FEFF 		bl	HAL_JPEG_DataReadyCallback
3901:./Libraries/STM32H7xx_HAL_Driver/Src/stm32h7xx_hal_jpeg.c **** #endif /* USE_HAL_JPEG_REGISTER_CALLBACKS */
3902:./Libraries/STM32H7xx_HAL_Driver/Src/stm32h7xx_hal_jpeg.c **** 
3903:./Libraries/STM32H7xx_HAL_Driver/Src/stm32h7xx_hal_jpeg.c ****           hjpeg->JpegOutCount = 0;
 8279              		.loc 1 3903 31
 8280 00a2 7B68     		ldr	r3, [r7, #4]
 8281 00a4 0022     		movs	r2, #0
 8282 00a6 5A62     		str	r2, [r3, #36]
 8283              	.L331:
3881:./Libraries/STM32H7xx_HAL_Driver/Src/stm32h7xx_hal_jpeg.c ****   {
 8284              		.loc 1 3881 50 discriminator 2
 8285 00a8 7B69     		ldr	r3, [r7, #20]
 8286 00aa 013B     		subs	r3, r3, #1
 8287 00ac 7B61     		str	r3, [r7, #20]
 8288              	.L330:
3881:./Libraries/STM32H7xx_HAL_Driver/Src/stm32h7xx_hal_jpeg.c ****   {
 8289              		.loc 1 3881 3 discriminator 1
 8290 00ae 7B69     		ldr	r3, [r7, #20]
 8291 00b0 002B     		cmp	r3, #0
 8292 00b2 ACD1     		bne	.L332
3904:./Libraries/STM32H7xx_HAL_Driver/Src/stm32h7xx_hal_jpeg.c ****         }
3905:./Libraries/STM32H7xx_HAL_Driver/Src/stm32h7xx_hal_jpeg.c **** 
3906:./Libraries/STM32H7xx_HAL_Driver/Src/stm32h7xx_hal_jpeg.c ****       }
3907:./Libraries/STM32H7xx_HAL_Driver/Src/stm32h7xx_hal_jpeg.c ****     }
3908:./Libraries/STM32H7xx_HAL_Driver/Src/stm32h7xx_hal_jpeg.c ****   }
3909:./Libraries/STM32H7xx_HAL_Driver/Src/stm32h7xx_hal_jpeg.c **** 
3910:./Libraries/STM32H7xx_HAL_Driver/Src/stm32h7xx_hal_jpeg.c ****   tmpContext = hjpeg->Context;
 8293              		.loc 1 3910 14
 8294 00b4 7B68     		ldr	r3, [r7, #4]
 8295 00b6 5B6D     		ldr	r3, [r3, #84]
 8296 00b8 3B61     		str	r3, [r7, #16]
3911:./Libraries/STM32H7xx_HAL_Driver/Src/stm32h7xx_hal_jpeg.c **** 
3912:./Libraries/STM32H7xx_HAL_Driver/Src/stm32h7xx_hal_jpeg.c ****   if ((__HAL_JPEG_GET_FLAG(hjpeg, JPEG_FLAG_OFNEF) == 0UL) || ((tmpContext & JPEG_CONTEXT_PAUSE_OUT
 8297              		.loc 1 3912 8
 8298 00ba 7B68     		ldr	r3, [r7, #4]
 8299 00bc 1B68     		ldr	r3, [r3]
 8300 00be 5B6B     		ldr	r3, [r3, #52]
 8301 00c0 03F01003 		and	r3, r3, #16
 8302              		.loc 1 3912 6
 8303 00c4 002B     		cmp	r3, #0
 8304 00c6 04D0     		beq	.L333
 8305              		.loc 1 3912 76 discriminator 1
 8306 00c8 3B69     		ldr	r3, [r7, #16]
 8307 00ca 03F40053 		and	r3, r3, #8192
 8308              		.loc 1 3912 60 discriminator 1
 8309 00ce 002B     		cmp	r3, #0
 8310 00d0 33D1     		bne	.L337
ARM GAS  /tmp/ccXFtjVt.s 			page 219


 8311              	.L333:
3913:./Libraries/STM32H7xx_HAL_Driver/Src/stm32h7xx_hal_jpeg.c ****   {
3914:./Libraries/STM32H7xx_HAL_Driver/Src/stm32h7xx_hal_jpeg.c ****     /*Stop Encoding/Decoding*/
3915:./Libraries/STM32H7xx_HAL_Driver/Src/stm32h7xx_hal_jpeg.c ****     hjpeg->Instance->CONFR0 &=  ~JPEG_CONFR0_START;
 8312              		.loc 1 3915 10
 8313 00d2 7B68     		ldr	r3, [r7, #4]
 8314 00d4 1B68     		ldr	r3, [r3]
 8315              		.loc 1 3915 29
 8316 00d6 1A68     		ldr	r2, [r3]
 8317              		.loc 1 3915 10
 8318 00d8 7B68     		ldr	r3, [r7, #4]
 8319 00da 1B68     		ldr	r3, [r3]
 8320              		.loc 1 3915 29
 8321 00dc 22F00102 		bic	r2, r2, #1
 8322 00e0 1A60     		str	r2, [r3]
3916:./Libraries/STM32H7xx_HAL_Driver/Src/stm32h7xx_hal_jpeg.c **** 
3917:./Libraries/STM32H7xx_HAL_Driver/Src/stm32h7xx_hal_jpeg.c ****     if (hjpeg->JpegOutCount > 0UL)
 8323              		.loc 1 3917 14
 8324 00e2 7B68     		ldr	r3, [r7, #4]
 8325 00e4 5B6A     		ldr	r3, [r3, #36]
 8326              		.loc 1 3917 8
 8327 00e6 002B     		cmp	r3, #0
 8328 00e8 0AD0     		beq	.L335
3918:./Libraries/STM32H7xx_HAL_Driver/Src/stm32h7xx_hal_jpeg.c ****     {
3919:./Libraries/STM32H7xx_HAL_Driver/Src/stm32h7xx_hal_jpeg.c ****       /*Output Buffer is not empty, call DecodedDataReadyCallback*/
3920:./Libraries/STM32H7xx_HAL_Driver/Src/stm32h7xx_hal_jpeg.c **** #if (USE_HAL_JPEG_REGISTER_CALLBACKS == 1)
3921:./Libraries/STM32H7xx_HAL_Driver/Src/stm32h7xx_hal_jpeg.c ****       hjpeg->DataReadyCallback(hjpeg, hjpeg->pJpegOutBuffPtr, hjpeg->JpegOutCount);
3922:./Libraries/STM32H7xx_HAL_Driver/Src/stm32h7xx_hal_jpeg.c **** #else
3923:./Libraries/STM32H7xx_HAL_Driver/Src/stm32h7xx_hal_jpeg.c ****       HAL_JPEG_DataReadyCallback(hjpeg, hjpeg->pJpegOutBuffPtr, hjpeg->JpegOutCount);
 8329              		.loc 1 3923 7
 8330 00ea 7B68     		ldr	r3, [r7, #4]
 8331 00ec D969     		ldr	r1, [r3, #28]
 8332 00ee 7B68     		ldr	r3, [r7, #4]
 8333 00f0 5B6A     		ldr	r3, [r3, #36]
 8334 00f2 1A46     		mov	r2, r3
 8335 00f4 7868     		ldr	r0, [r7, #4]
 8336 00f6 FFF7FEFF 		bl	HAL_JPEG_DataReadyCallback
3924:./Libraries/STM32H7xx_HAL_Driver/Src/stm32h7xx_hal_jpeg.c **** #endif /* USE_HAL_JPEG_REGISTER_CALLBACKS */
3925:./Libraries/STM32H7xx_HAL_Driver/Src/stm32h7xx_hal_jpeg.c **** 
3926:./Libraries/STM32H7xx_HAL_Driver/Src/stm32h7xx_hal_jpeg.c ****       hjpeg->JpegOutCount = 0;
 8337              		.loc 1 3926 27
 8338 00fa 7B68     		ldr	r3, [r7, #4]
 8339 00fc 0022     		movs	r2, #0
 8340 00fe 5A62     		str	r2, [r3, #36]
 8341              	.L335:
3927:./Libraries/STM32H7xx_HAL_Driver/Src/stm32h7xx_hal_jpeg.c ****     }
3928:./Libraries/STM32H7xx_HAL_Driver/Src/stm32h7xx_hal_jpeg.c **** 
3929:./Libraries/STM32H7xx_HAL_Driver/Src/stm32h7xx_hal_jpeg.c ****     tmpContext = hjpeg->Context;
 8342              		.loc 1 3929 16
 8343 0100 7B68     		ldr	r3, [r7, #4]
 8344 0102 5B6D     		ldr	r3, [r3, #84]
 8345 0104 3B61     		str	r3, [r7, #16]
3930:./Libraries/STM32H7xx_HAL_Driver/Src/stm32h7xx_hal_jpeg.c ****     /*Clear all context fields execpt JPEG_CONTEXT_CONF_ENCODING and JPEG_CONTEXT_CUSTOM_TABLES*/
3931:./Libraries/STM32H7xx_HAL_Driver/Src/stm32h7xx_hal_jpeg.c ****     hjpeg->Context &= (JPEG_CONTEXT_CONF_ENCODING | JPEG_CONTEXT_CUSTOM_TABLES);
 8346              		.loc 1 3931 20
 8347 0106 7B68     		ldr	r3, [r7, #4]
 8348 0108 5B6D     		ldr	r3, [r3, #84]
ARM GAS  /tmp/ccXFtjVt.s 			page 220


 8349 010a 03F48242 		and	r2, r3, #16640
 8350 010e 7B68     		ldr	r3, [r7, #4]
 8351 0110 5A65     		str	r2, [r3, #84]
3932:./Libraries/STM32H7xx_HAL_Driver/Src/stm32h7xx_hal_jpeg.c **** 
3933:./Libraries/STM32H7xx_HAL_Driver/Src/stm32h7xx_hal_jpeg.c ****     /* Process Unlocked */
3934:./Libraries/STM32H7xx_HAL_Driver/Src/stm32h7xx_hal_jpeg.c ****     __HAL_UNLOCK(hjpeg);
 8352              		.loc 1 3934 5
 8353 0112 7B68     		ldr	r3, [r7, #4]
 8354 0114 0022     		movs	r2, #0
 8355 0116 83F84C20 		strb	r2, [r3, #76]
3935:./Libraries/STM32H7xx_HAL_Driver/Src/stm32h7xx_hal_jpeg.c **** 
3936:./Libraries/STM32H7xx_HAL_Driver/Src/stm32h7xx_hal_jpeg.c ****     /* Change the JPEG state */
3937:./Libraries/STM32H7xx_HAL_Driver/Src/stm32h7xx_hal_jpeg.c ****     hjpeg->State = HAL_JPEG_STATE_READY;
 8356              		.loc 1 3937 18
 8357 011a 7B68     		ldr	r3, [r7, #4]
 8358 011c 0122     		movs	r2, #1
 8359 011e 83F84D20 		strb	r2, [r3, #77]
3938:./Libraries/STM32H7xx_HAL_Driver/Src/stm32h7xx_hal_jpeg.c **** 
3939:./Libraries/STM32H7xx_HAL_Driver/Src/stm32h7xx_hal_jpeg.c ****     /*Call End of Encoding/Decoding callback */
3940:./Libraries/STM32H7xx_HAL_Driver/Src/stm32h7xx_hal_jpeg.c ****     if ((tmpContext & JPEG_CONTEXT_OPERATION_MASK) == JPEG_CONTEXT_DECODE)
 8360              		.loc 1 3940 21
 8361 0122 3B69     		ldr	r3, [r7, #16]
 8362 0124 03F00303 		and	r3, r3, #3
 8363              		.loc 1 3940 8
 8364 0128 022B     		cmp	r3, #2
 8365 012a 03D1     		bne	.L336
3941:./Libraries/STM32H7xx_HAL_Driver/Src/stm32h7xx_hal_jpeg.c ****     {
3942:./Libraries/STM32H7xx_HAL_Driver/Src/stm32h7xx_hal_jpeg.c **** #if (USE_HAL_JPEG_REGISTER_CALLBACKS == 1)
3943:./Libraries/STM32H7xx_HAL_Driver/Src/stm32h7xx_hal_jpeg.c ****       hjpeg->DecodeCpltCallback(hjpeg);
3944:./Libraries/STM32H7xx_HAL_Driver/Src/stm32h7xx_hal_jpeg.c **** #else
3945:./Libraries/STM32H7xx_HAL_Driver/Src/stm32h7xx_hal_jpeg.c ****       HAL_JPEG_DecodeCpltCallback(hjpeg);
 8366              		.loc 1 3945 7
 8367 012c 7868     		ldr	r0, [r7, #4]
 8368 012e FFF7FEFF 		bl	HAL_JPEG_DecodeCpltCallback
3946:./Libraries/STM32H7xx_HAL_Driver/Src/stm32h7xx_hal_jpeg.c **** #endif /* USE_HAL_JPEG_REGISTER_CALLBACKS */
3947:./Libraries/STM32H7xx_HAL_Driver/Src/stm32h7xx_hal_jpeg.c ****     }
3948:./Libraries/STM32H7xx_HAL_Driver/Src/stm32h7xx_hal_jpeg.c ****     else /* JPEG_CONTEXT_ENCODE */
3949:./Libraries/STM32H7xx_HAL_Driver/Src/stm32h7xx_hal_jpeg.c ****     {
3950:./Libraries/STM32H7xx_HAL_Driver/Src/stm32h7xx_hal_jpeg.c **** #if (USE_HAL_JPEG_REGISTER_CALLBACKS == 1)
3951:./Libraries/STM32H7xx_HAL_Driver/Src/stm32h7xx_hal_jpeg.c ****       hjpeg->EncodeCpltCallback(hjpeg);
3952:./Libraries/STM32H7xx_HAL_Driver/Src/stm32h7xx_hal_jpeg.c **** #else
3953:./Libraries/STM32H7xx_HAL_Driver/Src/stm32h7xx_hal_jpeg.c ****       HAL_JPEG_EncodeCpltCallback(hjpeg);
3954:./Libraries/STM32H7xx_HAL_Driver/Src/stm32h7xx_hal_jpeg.c **** #endif /* USE_HAL_JPEG_REGISTER_CALLBACKS */
3955:./Libraries/STM32H7xx_HAL_Driver/Src/stm32h7xx_hal_jpeg.c ****     }
3956:./Libraries/STM32H7xx_HAL_Driver/Src/stm32h7xx_hal_jpeg.c ****   }
3957:./Libraries/STM32H7xx_HAL_Driver/Src/stm32h7xx_hal_jpeg.c **** }
 8369              		.loc 1 3957 1
 8370 0132 02E0     		b	.L337
 8371              	.L336:
3953:./Libraries/STM32H7xx_HAL_Driver/Src/stm32h7xx_hal_jpeg.c **** #endif /* USE_HAL_JPEG_REGISTER_CALLBACKS */
 8372              		.loc 1 3953 7
 8373 0134 7868     		ldr	r0, [r7, #4]
 8374 0136 FFF7FEFF 		bl	HAL_JPEG_EncodeCpltCallback
 8375              	.L337:
 8376              		.loc 1 3957 1
 8377 013a 00BF     		nop
 8378 013c 1837     		adds	r7, r7, #24
ARM GAS  /tmp/ccXFtjVt.s 			page 221


 8379              	.LCFI261:
 8380              		.cfi_def_cfa_offset 8
 8381 013e BD46     		mov	sp, r7
 8382              	.LCFI262:
 8383              		.cfi_def_cfa_register 13
 8384              		@ sp needed
 8385 0140 80BD     		pop	{r7, pc}
 8386              		.cfi_endproc
 8387              	.LFE378:
 8389              		.section	.text.JPEG_MDMAInCpltCallback,"ax",%progbits
 8390              		.align	1
 8391              		.syntax unified
 8392              		.thumb
 8393              		.thumb_func
 8394              		.fpu fpv5-d16
 8396              	JPEG_MDMAInCpltCallback:
 8397              	.LFB379:
3958:./Libraries/STM32H7xx_HAL_Driver/Src/stm32h7xx_hal_jpeg.c **** 
3959:./Libraries/STM32H7xx_HAL_Driver/Src/stm32h7xx_hal_jpeg.c **** /**
3960:./Libraries/STM32H7xx_HAL_Driver/Src/stm32h7xx_hal_jpeg.c ****   * @brief  MDMA input transfer complete callback
3961:./Libraries/STM32H7xx_HAL_Driver/Src/stm32h7xx_hal_jpeg.c ****   * @param  hmdma pointer to a MDMA_HandleTypeDef structure.
3962:./Libraries/STM32H7xx_HAL_Driver/Src/stm32h7xx_hal_jpeg.c ****   * @retval None
3963:./Libraries/STM32H7xx_HAL_Driver/Src/stm32h7xx_hal_jpeg.c ****   */
3964:./Libraries/STM32H7xx_HAL_Driver/Src/stm32h7xx_hal_jpeg.c **** static void JPEG_MDMAInCpltCallback(MDMA_HandleTypeDef *hmdma)
3965:./Libraries/STM32H7xx_HAL_Driver/Src/stm32h7xx_hal_jpeg.c **** {
 8398              		.loc 1 3965 1
 8399              		.cfi_startproc
 8400              		@ args = 0, pretend = 0, frame = 16
 8401              		@ frame_needed = 1, uses_anonymous_args = 0
 8402 0000 90B5     		push	{r4, r7, lr}
 8403              	.LCFI263:
 8404              		.cfi_def_cfa_offset 12
 8405              		.cfi_offset 4, -12
 8406              		.cfi_offset 7, -8
 8407              		.cfi_offset 14, -4
 8408 0002 87B0     		sub	sp, sp, #28
 8409              	.LCFI264:
 8410              		.cfi_def_cfa_offset 40
 8411 0004 02AF     		add	r7, sp, #8
 8412              	.LCFI265:
 8413              		.cfi_def_cfa 7, 32
 8414 0006 7860     		str	r0, [r7, #4]
3966:./Libraries/STM32H7xx_HAL_Driver/Src/stm32h7xx_hal_jpeg.c ****   uint32_t inXfrSize;
3967:./Libraries/STM32H7xx_HAL_Driver/Src/stm32h7xx_hal_jpeg.c **** 
3968:./Libraries/STM32H7xx_HAL_Driver/Src/stm32h7xx_hal_jpeg.c ****   JPEG_HandleTypeDef *hjpeg = (JPEG_HandleTypeDef *)((MDMA_HandleTypeDef *)hmdma)->Parent;
 8415              		.loc 1 3968 23
 8416 0008 7B68     		ldr	r3, [r7, #4]
 8417 000a 1B6C     		ldr	r3, [r3, #64]
 8418 000c FB60     		str	r3, [r7, #12]
3969:./Libraries/STM32H7xx_HAL_Driver/Src/stm32h7xx_hal_jpeg.c **** 
3970:./Libraries/STM32H7xx_HAL_Driver/Src/stm32h7xx_hal_jpeg.c ****   /* Disable The JPEG IT so the MDMA Input Callback can not be interrupted by the JPEG EOC IT or JP
3971:./Libraries/STM32H7xx_HAL_Driver/Src/stm32h7xx_hal_jpeg.c ****   __HAL_JPEG_DISABLE_IT(hjpeg, JPEG_INTERRUPT_MASK);
 8419              		.loc 1 3971 3
 8420 000e FB68     		ldr	r3, [r7, #12]
 8421 0010 1B68     		ldr	r3, [r3]
 8422 0012 1A6B     		ldr	r2, [r3, #48]
 8423 0014 FB68     		ldr	r3, [r7, #12]
ARM GAS  /tmp/ccXFtjVt.s 			page 222


 8424 0016 1B68     		ldr	r3, [r3]
 8425 0018 22F07E02 		bic	r2, r2, #126
 8426 001c 1A63     		str	r2, [r3, #48]
3972:./Libraries/STM32H7xx_HAL_Driver/Src/stm32h7xx_hal_jpeg.c **** 
3973:./Libraries/STM32H7xx_HAL_Driver/Src/stm32h7xx_hal_jpeg.c ****   /* Check if context method is DMA and we are not in ending DMA stage */
3974:./Libraries/STM32H7xx_HAL_Driver/Src/stm32h7xx_hal_jpeg.c ****   if ((hjpeg->Context & (JPEG_CONTEXT_METHOD_MASK | JPEG_CONTEXT_ENDING_DMA)) == JPEG_CONTEXT_DMA)
 8427              		.loc 1 3974 13
 8428 001e FB68     		ldr	r3, [r7, #12]
 8429 0020 5A6D     		ldr	r2, [r3, #84]
 8430              		.loc 1 3974 23
 8431 0022 48F20C03 		movw	r3, #32780
 8432 0026 1340     		ands	r3, r3, r2
 8433              		.loc 1 3974 6
 8434 0028 0C2B     		cmp	r3, #12
 8435 002a 7CD1     		bne	.L338
3975:./Libraries/STM32H7xx_HAL_Driver/Src/stm32h7xx_hal_jpeg.c ****   {
3976:./Libraries/STM32H7xx_HAL_Driver/Src/stm32h7xx_hal_jpeg.c **** 
3977:./Libraries/STM32H7xx_HAL_Driver/Src/stm32h7xx_hal_jpeg.c ****     /*if the MDMA In is triggred with JPEG In FIFO Threshold flag
3978:./Libraries/STM32H7xx_HAL_Driver/Src/stm32h7xx_hal_jpeg.c ****       then MDMA In buffer size is 32 bytes
3979:./Libraries/STM32H7xx_HAL_Driver/Src/stm32h7xx_hal_jpeg.c ****       else (MDMA In is triggred with JPEG In FIFO not full flag)
3980:./Libraries/STM32H7xx_HAL_Driver/Src/stm32h7xx_hal_jpeg.c ****       then MDMA In buffer size is 4 bytes
3981:./Libraries/STM32H7xx_HAL_Driver/Src/stm32h7xx_hal_jpeg.c ****       */
3982:./Libraries/STM32H7xx_HAL_Driver/Src/stm32h7xx_hal_jpeg.c ****     inXfrSize = hjpeg->hdmain->Init.BufferTransferLength;
 8436              		.loc 1 3982 22
 8437 002c FB68     		ldr	r3, [r7, #12]
 8438 002e 1B6B     		ldr	r3, [r3, #48]
 8439              		.loc 1 3982 15
 8440 0030 9B6A     		ldr	r3, [r3, #40]
 8441 0032 BB60     		str	r3, [r7, #8]
3983:./Libraries/STM32H7xx_HAL_Driver/Src/stm32h7xx_hal_jpeg.c **** 
3984:./Libraries/STM32H7xx_HAL_Driver/Src/stm32h7xx_hal_jpeg.c ****     hjpeg->JpegInCount = hjpeg->InDataLength - (hmdma->Instance->CBNDTR & MDMA_CBNDTR_BNDT);
 8442              		.loc 1 3984 31
 8443 0034 FB68     		ldr	r3, [r7, #12]
 8444 0036 9A6A     		ldr	r2, [r3, #40]
 8445              		.loc 1 3984 54
 8446 0038 7B68     		ldr	r3, [r7, #4]
 8447 003a 1B68     		ldr	r3, [r3]
 8448              		.loc 1 3984 64
 8449 003c 5B69     		ldr	r3, [r3, #20]
 8450              		.loc 1 3984 73
 8451 003e C3F31003 		ubfx	r3, r3, #0, #17
 8452              		.loc 1 3984 46
 8453 0042 D21A     		subs	r2, r2, r3
 8454              		.loc 1 3984 24
 8455 0044 FB68     		ldr	r3, [r7, #12]
 8456 0046 1A62     		str	r2, [r3, #32]
3985:./Libraries/STM32H7xx_HAL_Driver/Src/stm32h7xx_hal_jpeg.c **** 
3986:./Libraries/STM32H7xx_HAL_Driver/Src/stm32h7xx_hal_jpeg.c ****     /*Call HAL_JPEG_GetDataCallback to get new data */
3987:./Libraries/STM32H7xx_HAL_Driver/Src/stm32h7xx_hal_jpeg.c **** #if (USE_HAL_JPEG_REGISTER_CALLBACKS == 1)
3988:./Libraries/STM32H7xx_HAL_Driver/Src/stm32h7xx_hal_jpeg.c ****     hjpeg->GetDataCallback(hjpeg, hjpeg->JpegInCount);
3989:./Libraries/STM32H7xx_HAL_Driver/Src/stm32h7xx_hal_jpeg.c **** #else
3990:./Libraries/STM32H7xx_HAL_Driver/Src/stm32h7xx_hal_jpeg.c ****     HAL_JPEG_GetDataCallback(hjpeg, hjpeg->JpegInCount);
 8457              		.loc 1 3990 5
 8458 0048 FB68     		ldr	r3, [r7, #12]
 8459 004a 1B6A     		ldr	r3, [r3, #32]
 8460 004c 1946     		mov	r1, r3
 8461 004e F868     		ldr	r0, [r7, #12]
ARM GAS  /tmp/ccXFtjVt.s 			page 223


 8462 0050 FFF7FEFF 		bl	HAL_JPEG_GetDataCallback
3991:./Libraries/STM32H7xx_HAL_Driver/Src/stm32h7xx_hal_jpeg.c **** #endif /* USE_HAL_JPEG_REGISTER_CALLBACKS */
3992:./Libraries/STM32H7xx_HAL_Driver/Src/stm32h7xx_hal_jpeg.c **** 
3993:./Libraries/STM32H7xx_HAL_Driver/Src/stm32h7xx_hal_jpeg.c **** 
3994:./Libraries/STM32H7xx_HAL_Driver/Src/stm32h7xx_hal_jpeg.c ****     if (hjpeg->InDataLength >= inXfrSize)
 8463              		.loc 1 3994 14
 8464 0054 FB68     		ldr	r3, [r7, #12]
 8465 0056 9B6A     		ldr	r3, [r3, #40]
 8466              		.loc 1 3994 8
 8467 0058 BA68     		ldr	r2, [r7, #8]
 8468 005a 9A42     		cmp	r2, r3
 8469 005c 1FD8     		bhi	.L340
3995:./Libraries/STM32H7xx_HAL_Driver/Src/stm32h7xx_hal_jpeg.c ****     {
3996:./Libraries/STM32H7xx_HAL_Driver/Src/stm32h7xx_hal_jpeg.c ****       if (inXfrSize == 0UL)
 8470              		.loc 1 3996 10
 8471 005e BB68     		ldr	r3, [r7, #8]
 8472 0060 002B     		cmp	r3, #0
 8473 0062 0DD1     		bne	.L341
3997:./Libraries/STM32H7xx_HAL_Driver/Src/stm32h7xx_hal_jpeg.c ****       {
3998:./Libraries/STM32H7xx_HAL_Driver/Src/stm32h7xx_hal_jpeg.c ****         hjpeg->ErrorCode |= HAL_JPEG_ERROR_DMA;
 8474              		.loc 1 3998 26
 8475 0064 FB68     		ldr	r3, [r7, #12]
 8476 0066 1B6D     		ldr	r3, [r3, #80]
 8477 0068 43F00402 		orr	r2, r3, #4
 8478 006c FB68     		ldr	r3, [r7, #12]
 8479 006e 1A65     		str	r2, [r3, #80]
3999:./Libraries/STM32H7xx_HAL_Driver/Src/stm32h7xx_hal_jpeg.c ****         hjpeg->State = HAL_JPEG_STATE_ERROR;
 8480              		.loc 1 3999 22
 8481 0070 FB68     		ldr	r3, [r7, #12]
 8482 0072 0622     		movs	r2, #6
 8483 0074 83F84D20 		strb	r2, [r3, #77]
4000:./Libraries/STM32H7xx_HAL_Driver/Src/stm32h7xx_hal_jpeg.c **** #if (USE_HAL_JPEG_REGISTER_CALLBACKS == 1)
4001:./Libraries/STM32H7xx_HAL_Driver/Src/stm32h7xx_hal_jpeg.c ****         hjpeg->ErrorCallback(hjpeg);
4002:./Libraries/STM32H7xx_HAL_Driver/Src/stm32h7xx_hal_jpeg.c **** #else
4003:./Libraries/STM32H7xx_HAL_Driver/Src/stm32h7xx_hal_jpeg.c ****         HAL_JPEG_ErrorCallback(hjpeg);
 8484              		.loc 1 4003 9
 8485 0078 F868     		ldr	r0, [r7, #12]
 8486 007a FFF7FEFF 		bl	HAL_JPEG_ErrorCallback
4004:./Libraries/STM32H7xx_HAL_Driver/Src/stm32h7xx_hal_jpeg.c **** #endif /* USE_HAL_JPEG_REGISTER_CALLBACKS */
4005:./Libraries/STM32H7xx_HAL_Driver/Src/stm32h7xx_hal_jpeg.c ****         return;
 8487              		.loc 1 4005 9
 8488 007e 52E0     		b	.L338
 8489              	.L341:
4006:./Libraries/STM32H7xx_HAL_Driver/Src/stm32h7xx_hal_jpeg.c ****       }
4007:./Libraries/STM32H7xx_HAL_Driver/Src/stm32h7xx_hal_jpeg.c ****       /*JPEG Input MDMA transfer data number must be multiple of MDMA buffer size
4008:./Libraries/STM32H7xx_HAL_Driver/Src/stm32h7xx_hal_jpeg.c ****         as the destination is a 32 bits register */
4009:./Libraries/STM32H7xx_HAL_Driver/Src/stm32h7xx_hal_jpeg.c ****       hjpeg->InDataLength = hjpeg->InDataLength - (hjpeg->InDataLength % inXfrSize);
 8490              		.loc 1 4009 34
 8491 0080 FB68     		ldr	r3, [r7, #12]
 8492 0082 9A6A     		ldr	r2, [r3, #40]
 8493              		.loc 1 4009 57
 8494 0084 FB68     		ldr	r3, [r7, #12]
 8495 0086 9B6A     		ldr	r3, [r3, #40]
 8496              		.loc 1 4009 72
 8497 0088 B968     		ldr	r1, [r7, #8]
 8498 008a B3FBF1F1 		udiv	r1, r3, r1
 8499 008e B868     		ldr	r0, [r7, #8]
ARM GAS  /tmp/ccXFtjVt.s 			page 224


 8500 0090 00FB01F1 		mul	r1, r0, r1
 8501 0094 5B1A     		subs	r3, r3, r1
 8502              		.loc 1 4009 49
 8503 0096 D21A     		subs	r2, r2, r3
 8504              		.loc 1 4009 27
 8505 0098 FB68     		ldr	r3, [r7, #12]
 8506 009a 9A62     		str	r2, [r3, #40]
 8507 009c 10E0     		b	.L342
 8508              	.L340:
4010:./Libraries/STM32H7xx_HAL_Driver/Src/stm32h7xx_hal_jpeg.c **** 
4011:./Libraries/STM32H7xx_HAL_Driver/Src/stm32h7xx_hal_jpeg.c ****     }
4012:./Libraries/STM32H7xx_HAL_Driver/Src/stm32h7xx_hal_jpeg.c ****     else if (hjpeg->InDataLength > 0UL)
 8509              		.loc 1 4012 19
 8510 009e FB68     		ldr	r3, [r7, #12]
 8511 00a0 9B6A     		ldr	r3, [r3, #40]
 8512              		.loc 1 4012 13
 8513 00a2 002B     		cmp	r3, #0
 8514 00a4 0CD0     		beq	.L342
4013:./Libraries/STM32H7xx_HAL_Driver/Src/stm32h7xx_hal_jpeg.c ****     {
4014:./Libraries/STM32H7xx_HAL_Driver/Src/stm32h7xx_hal_jpeg.c ****       /* Transfer the remaining Data, must be multiple of source data size (byte) and destination d
4015:./Libraries/STM32H7xx_HAL_Driver/Src/stm32h7xx_hal_jpeg.c ****       if ((hjpeg->InDataLength % 4UL) != 0UL)
 8515              		.loc 1 4015 17
 8516 00a6 FB68     		ldr	r3, [r7, #12]
 8517 00a8 9B6A     		ldr	r3, [r3, #40]
 8518              		.loc 1 4015 32
 8519 00aa 03F00303 		and	r3, r3, #3
 8520              		.loc 1 4015 10
 8521 00ae 002B     		cmp	r3, #0
 8522 00b0 06D0     		beq	.L342
4016:./Libraries/STM32H7xx_HAL_Driver/Src/stm32h7xx_hal_jpeg.c ****       {
4017:./Libraries/STM32H7xx_HAL_Driver/Src/stm32h7xx_hal_jpeg.c ****         hjpeg->InDataLength = ((hjpeg->InDataLength / 4UL) + 1UL) * 4UL;
 8523              		.loc 1 4017 38
 8524 00b2 FB68     		ldr	r3, [r7, #12]
 8525 00b4 9B6A     		ldr	r3, [r3, #40]
 8526              		.loc 1 4017 53
 8527 00b6 9B08     		lsrs	r3, r3, #2
 8528              		.loc 1 4017 60
 8529 00b8 0133     		adds	r3, r3, #1
 8530              		.loc 1 4017 67
 8531 00ba 9A00     		lsls	r2, r3, #2
 8532              		.loc 1 4017 29
 8533 00bc FB68     		ldr	r3, [r7, #12]
 8534 00be 9A62     		str	r2, [r3, #40]
 8535              	.L342:
4018:./Libraries/STM32H7xx_HAL_Driver/Src/stm32h7xx_hal_jpeg.c ****       }
4019:./Libraries/STM32H7xx_HAL_Driver/Src/stm32h7xx_hal_jpeg.c ****     }
4020:./Libraries/STM32H7xx_HAL_Driver/Src/stm32h7xx_hal_jpeg.c ****     else
4021:./Libraries/STM32H7xx_HAL_Driver/Src/stm32h7xx_hal_jpeg.c ****     {
4022:./Libraries/STM32H7xx_HAL_Driver/Src/stm32h7xx_hal_jpeg.c ****       /* Nothing to do */
4023:./Libraries/STM32H7xx_HAL_Driver/Src/stm32h7xx_hal_jpeg.c ****     }
4024:./Libraries/STM32H7xx_HAL_Driver/Src/stm32h7xx_hal_jpeg.c **** 
4025:./Libraries/STM32H7xx_HAL_Driver/Src/stm32h7xx_hal_jpeg.c ****     if (((hjpeg->Context &  JPEG_CONTEXT_PAUSE_INPUT) == 0UL) && (hjpeg->InDataLength > 0UL))
 8536              		.loc 1 4025 16
 8537 00c0 FB68     		ldr	r3, [r7, #12]
 8538 00c2 5B6D     		ldr	r3, [r3, #84]
 8539              		.loc 1 4025 26
 8540 00c4 03F48053 		and	r3, r3, #4096
ARM GAS  /tmp/ccXFtjVt.s 			page 225


 8541              		.loc 1 4025 8
 8542 00c8 002B     		cmp	r3, #0
 8543 00ca 24D1     		bne	.L343
 8544              		.loc 1 4025 72 discriminator 1
 8545 00cc FB68     		ldr	r3, [r7, #12]
 8546 00ce 9B6A     		ldr	r3, [r3, #40]
 8547              		.loc 1 4025 63 discriminator 1
 8548 00d0 002B     		cmp	r3, #0
 8549 00d2 20D0     		beq	.L343
4026:./Libraries/STM32H7xx_HAL_Driver/Src/stm32h7xx_hal_jpeg.c ****     {
4027:./Libraries/STM32H7xx_HAL_Driver/Src/stm32h7xx_hal_jpeg.c ****       /* Start MDMA FIFO In transfer */
4028:./Libraries/STM32H7xx_HAL_Driver/Src/stm32h7xx_hal_jpeg.c ****       if (HAL_MDMA_Start_IT(hjpeg->hdmain, (uint32_t)hjpeg->pJpegInBuffPtr, (uint32_t)&hjpeg->Insta
 8550              		.loc 1 4028 11
 8551 00d4 FB68     		ldr	r3, [r7, #12]
 8552 00d6 186B     		ldr	r0, [r3, #48]
 8553              		.loc 1 4028 59
 8554 00d8 FB68     		ldr	r3, [r7, #12]
 8555 00da 9B69     		ldr	r3, [r3, #24]
 8556              		.loc 1 4028 11
 8557 00dc 1946     		mov	r1, r3
 8558              		.loc 1 4028 93
 8559 00de FB68     		ldr	r3, [r7, #12]
 8560 00e0 1B68     		ldr	r3, [r3]
 8561              		.loc 1 4028 87
 8562 00e2 4033     		adds	r3, r3, #64
 8563              		.loc 1 4028 11
 8564 00e4 1C46     		mov	r4, r3
 8565 00e6 FB68     		ldr	r3, [r7, #12]
 8566 00e8 9B6A     		ldr	r3, [r3, #40]
 8567 00ea 0122     		movs	r2, #1
 8568 00ec 0092     		str	r2, [sp]
 8569 00ee 2246     		mov	r2, r4
 8570 00f0 FFF7FEFF 		bl	HAL_MDMA_Start_IT
 8571 00f4 0346     		mov	r3, r0
 8572              		.loc 1 4028 10
 8573 00f6 002B     		cmp	r3, #0
 8574 00f8 0DD0     		beq	.L343
4029:./Libraries/STM32H7xx_HAL_Driver/Src/stm32h7xx_hal_jpeg.c ****                             hjpeg->InDataLength, 1) != HAL_OK)
4030:./Libraries/STM32H7xx_HAL_Driver/Src/stm32h7xx_hal_jpeg.c ****       {
4031:./Libraries/STM32H7xx_HAL_Driver/Src/stm32h7xx_hal_jpeg.c ****         hjpeg->ErrorCode |= HAL_JPEG_ERROR_DMA;
 8575              		.loc 1 4031 26
 8576 00fa FB68     		ldr	r3, [r7, #12]
 8577 00fc 1B6D     		ldr	r3, [r3, #80]
 8578 00fe 43F00402 		orr	r2, r3, #4
 8579 0102 FB68     		ldr	r3, [r7, #12]
 8580 0104 1A65     		str	r2, [r3, #80]
4032:./Libraries/STM32H7xx_HAL_Driver/Src/stm32h7xx_hal_jpeg.c ****         hjpeg->State = HAL_JPEG_STATE_ERROR;
 8581              		.loc 1 4032 22
 8582 0106 FB68     		ldr	r3, [r7, #12]
 8583 0108 0622     		movs	r2, #6
 8584 010a 83F84D20 		strb	r2, [r3, #77]
4033:./Libraries/STM32H7xx_HAL_Driver/Src/stm32h7xx_hal_jpeg.c **** #if (USE_HAL_JPEG_REGISTER_CALLBACKS == 1)
4034:./Libraries/STM32H7xx_HAL_Driver/Src/stm32h7xx_hal_jpeg.c ****         hjpeg->ErrorCallback(hjpeg);
4035:./Libraries/STM32H7xx_HAL_Driver/Src/stm32h7xx_hal_jpeg.c **** #else
4036:./Libraries/STM32H7xx_HAL_Driver/Src/stm32h7xx_hal_jpeg.c ****         HAL_JPEG_ErrorCallback(hjpeg);
 8585              		.loc 1 4036 9
 8586 010e F868     		ldr	r0, [r7, #12]
ARM GAS  /tmp/ccXFtjVt.s 			page 226


 8587 0110 FFF7FEFF 		bl	HAL_JPEG_ErrorCallback
4037:./Libraries/STM32H7xx_HAL_Driver/Src/stm32h7xx_hal_jpeg.c **** #endif /* USE_HAL_JPEG_REGISTER_CALLBACKS */
4038:./Libraries/STM32H7xx_HAL_Driver/Src/stm32h7xx_hal_jpeg.c ****         return;
 8588              		.loc 1 4038 9
 8589 0114 07E0     		b	.L338
 8590              	.L343:
4039:./Libraries/STM32H7xx_HAL_Driver/Src/stm32h7xx_hal_jpeg.c ****       }
4040:./Libraries/STM32H7xx_HAL_Driver/Src/stm32h7xx_hal_jpeg.c ****     }
4041:./Libraries/STM32H7xx_HAL_Driver/Src/stm32h7xx_hal_jpeg.c **** 
4042:./Libraries/STM32H7xx_HAL_Driver/Src/stm32h7xx_hal_jpeg.c ****     /* JPEG Conversion still on going : Enable the JPEG IT */
4043:./Libraries/STM32H7xx_HAL_Driver/Src/stm32h7xx_hal_jpeg.c ****     __HAL_JPEG_ENABLE_IT(hjpeg, JPEG_IT_EOC | JPEG_IT_HPD);
 8591              		.loc 1 4043 5
 8592 0116 FB68     		ldr	r3, [r7, #12]
 8593 0118 1B68     		ldr	r3, [r3]
 8594 011a 1A6B     		ldr	r2, [r3, #48]
 8595 011c FB68     		ldr	r3, [r7, #12]
 8596 011e 1B68     		ldr	r3, [r3]
 8597 0120 42F06002 		orr	r2, r2, #96
 8598 0124 1A63     		str	r2, [r3, #48]
 8599              	.L338:
4044:./Libraries/STM32H7xx_HAL_Driver/Src/stm32h7xx_hal_jpeg.c ****   }
4045:./Libraries/STM32H7xx_HAL_Driver/Src/stm32h7xx_hal_jpeg.c **** }
 8600              		.loc 1 4045 1
 8601 0126 1437     		adds	r7, r7, #20
 8602              	.LCFI266:
 8603              		.cfi_def_cfa_offset 12
 8604 0128 BD46     		mov	sp, r7
 8605              	.LCFI267:
 8606              		.cfi_def_cfa_register 13
 8607              		@ sp needed
 8608 012a 90BD     		pop	{r4, r7, pc}
 8609              		.cfi_endproc
 8610              	.LFE379:
 8612              		.section	.text.JPEG_MDMAOutCpltCallback,"ax",%progbits
 8613              		.align	1
 8614              		.syntax unified
 8615              		.thumb
 8616              		.thumb_func
 8617              		.fpu fpv5-d16
 8619              	JPEG_MDMAOutCpltCallback:
 8620              	.LFB380:
4046:./Libraries/STM32H7xx_HAL_Driver/Src/stm32h7xx_hal_jpeg.c **** 
4047:./Libraries/STM32H7xx_HAL_Driver/Src/stm32h7xx_hal_jpeg.c **** /**
4048:./Libraries/STM32H7xx_HAL_Driver/Src/stm32h7xx_hal_jpeg.c ****   * @brief  MDMA output transfer complete callback
4049:./Libraries/STM32H7xx_HAL_Driver/Src/stm32h7xx_hal_jpeg.c ****   * @param  hmdma pointer to a MDMA_HandleTypeDef structure.
4050:./Libraries/STM32H7xx_HAL_Driver/Src/stm32h7xx_hal_jpeg.c ****   * @retval None
4051:./Libraries/STM32H7xx_HAL_Driver/Src/stm32h7xx_hal_jpeg.c ****   */
4052:./Libraries/STM32H7xx_HAL_Driver/Src/stm32h7xx_hal_jpeg.c **** static void JPEG_MDMAOutCpltCallback(MDMA_HandleTypeDef *hmdma)
4053:./Libraries/STM32H7xx_HAL_Driver/Src/stm32h7xx_hal_jpeg.c **** {
 8621              		.loc 1 4053 1
 8622              		.cfi_startproc
 8623              		@ args = 0, pretend = 0, frame = 16
 8624              		@ frame_needed = 1, uses_anonymous_args = 0
 8625 0000 90B5     		push	{r4, r7, lr}
 8626              	.LCFI268:
 8627              		.cfi_def_cfa_offset 12
 8628              		.cfi_offset 4, -12
ARM GAS  /tmp/ccXFtjVt.s 			page 227


 8629              		.cfi_offset 7, -8
 8630              		.cfi_offset 14, -4
 8631 0002 87B0     		sub	sp, sp, #28
 8632              	.LCFI269:
 8633              		.cfi_def_cfa_offset 40
 8634 0004 02AF     		add	r7, sp, #8
 8635              	.LCFI270:
 8636              		.cfi_def_cfa 7, 32
 8637 0006 7860     		str	r0, [r7, #4]
4054:./Libraries/STM32H7xx_HAL_Driver/Src/stm32h7xx_hal_jpeg.c ****   JPEG_HandleTypeDef *hjpeg = (JPEG_HandleTypeDef *)((MDMA_HandleTypeDef *)hmdma)->Parent;
 8638              		.loc 1 4054 23
 8639 0008 7B68     		ldr	r3, [r7, #4]
 8640 000a 1B6C     		ldr	r3, [r3, #64]
 8641 000c FB60     		str	r3, [r7, #12]
4055:./Libraries/STM32H7xx_HAL_Driver/Src/stm32h7xx_hal_jpeg.c **** 
4056:./Libraries/STM32H7xx_HAL_Driver/Src/stm32h7xx_hal_jpeg.c **** 
4057:./Libraries/STM32H7xx_HAL_Driver/Src/stm32h7xx_hal_jpeg.c ****   /* Disable The JPEG IT so the MDMA Output Callback can not be interrupted by the JPEG EOC IT or J
4058:./Libraries/STM32H7xx_HAL_Driver/Src/stm32h7xx_hal_jpeg.c ****   __HAL_JPEG_DISABLE_IT(hjpeg, JPEG_INTERRUPT_MASK);
 8642              		.loc 1 4058 3
 8643 000e FB68     		ldr	r3, [r7, #12]
 8644 0010 1B68     		ldr	r3, [r3]
 8645 0012 1A6B     		ldr	r2, [r3, #48]
 8646 0014 FB68     		ldr	r3, [r7, #12]
 8647 0016 1B68     		ldr	r3, [r3]
 8648 0018 22F07E02 		bic	r2, r2, #126
 8649 001c 1A63     		str	r2, [r3, #48]
4059:./Libraries/STM32H7xx_HAL_Driver/Src/stm32h7xx_hal_jpeg.c **** 
4060:./Libraries/STM32H7xx_HAL_Driver/Src/stm32h7xx_hal_jpeg.c ****   if ((hjpeg->Context & (JPEG_CONTEXT_METHOD_MASK | JPEG_CONTEXT_ENDING_DMA)) ==
 8650              		.loc 1 4060 13
 8651 001e FB68     		ldr	r3, [r7, #12]
 8652 0020 5A6D     		ldr	r2, [r3, #84]
 8653              		.loc 1 4060 23
 8654 0022 48F20C03 		movw	r3, #32780
 8655 0026 1340     		ands	r3, r3, r2
 8656              		.loc 1 4060 6
 8657 0028 0C2B     		cmp	r3, #12
 8658 002a 47D1     		bne	.L344
4061:./Libraries/STM32H7xx_HAL_Driver/Src/stm32h7xx_hal_jpeg.c ****       JPEG_CONTEXT_DMA) /* Check if context method is DMA and we are not in ending DMA stage */
4062:./Libraries/STM32H7xx_HAL_Driver/Src/stm32h7xx_hal_jpeg.c ****   {
4063:./Libraries/STM32H7xx_HAL_Driver/Src/stm32h7xx_hal_jpeg.c ****     if (__HAL_JPEG_GET_FLAG(hjpeg, JPEG_FLAG_EOCF) == 0UL)
 8659              		.loc 1 4063 9
 8660 002c FB68     		ldr	r3, [r7, #12]
 8661 002e 1B68     		ldr	r3, [r3]
 8662 0030 5B6B     		ldr	r3, [r3, #52]
 8663 0032 03F02003 		and	r3, r3, #32
 8664              		.loc 1 4063 8
 8665 0036 002B     		cmp	r3, #0
 8666 0038 38D1     		bne	.L346
4064:./Libraries/STM32H7xx_HAL_Driver/Src/stm32h7xx_hal_jpeg.c ****     {
4065:./Libraries/STM32H7xx_HAL_Driver/Src/stm32h7xx_hal_jpeg.c ****       hjpeg->JpegOutCount = hjpeg->OutDataLength - (hmdma->Instance->CBNDTR & MDMA_CBNDTR_BNDT);
 8667              		.loc 1 4065 34
 8668 003a FB68     		ldr	r3, [r7, #12]
 8669 003c DA6A     		ldr	r2, [r3, #44]
 8670              		.loc 1 4065 58
 8671 003e 7B68     		ldr	r3, [r7, #4]
 8672 0040 1B68     		ldr	r3, [r3]
 8673              		.loc 1 4065 68
ARM GAS  /tmp/ccXFtjVt.s 			page 228


 8674 0042 5B69     		ldr	r3, [r3, #20]
 8675              		.loc 1 4065 77
 8676 0044 C3F31003 		ubfx	r3, r3, #0, #17
 8677              		.loc 1 4065 50
 8678 0048 D21A     		subs	r2, r2, r3
 8679              		.loc 1 4065 27
 8680 004a FB68     		ldr	r3, [r7, #12]
 8681 004c 5A62     		str	r2, [r3, #36]
4066:./Libraries/STM32H7xx_HAL_Driver/Src/stm32h7xx_hal_jpeg.c **** 
4067:./Libraries/STM32H7xx_HAL_Driver/Src/stm32h7xx_hal_jpeg.c ****       /*Output Buffer is full, call HAL_JPEG_DataReadyCallback*/
4068:./Libraries/STM32H7xx_HAL_Driver/Src/stm32h7xx_hal_jpeg.c **** #if (USE_HAL_JPEG_REGISTER_CALLBACKS == 1)
4069:./Libraries/STM32H7xx_HAL_Driver/Src/stm32h7xx_hal_jpeg.c ****       hjpeg->DataReadyCallback(hjpeg, hjpeg->pJpegOutBuffPtr, hjpeg->JpegOutCount);
4070:./Libraries/STM32H7xx_HAL_Driver/Src/stm32h7xx_hal_jpeg.c **** #else
4071:./Libraries/STM32H7xx_HAL_Driver/Src/stm32h7xx_hal_jpeg.c ****       HAL_JPEG_DataReadyCallback(hjpeg, hjpeg->pJpegOutBuffPtr, hjpeg->JpegOutCount);
 8682              		.loc 1 4071 7
 8683 004e FB68     		ldr	r3, [r7, #12]
 8684 0050 D969     		ldr	r1, [r3, #28]
 8685 0052 FB68     		ldr	r3, [r7, #12]
 8686 0054 5B6A     		ldr	r3, [r3, #36]
 8687 0056 1A46     		mov	r2, r3
 8688 0058 F868     		ldr	r0, [r7, #12]
 8689 005a FFF7FEFF 		bl	HAL_JPEG_DataReadyCallback
4072:./Libraries/STM32H7xx_HAL_Driver/Src/stm32h7xx_hal_jpeg.c **** #endif /* USE_HAL_JPEG_REGISTER_CALLBACKS */
4073:./Libraries/STM32H7xx_HAL_Driver/Src/stm32h7xx_hal_jpeg.c **** 
4074:./Libraries/STM32H7xx_HAL_Driver/Src/stm32h7xx_hal_jpeg.c ****       if ((hjpeg->Context &  JPEG_CONTEXT_PAUSE_OUTPUT) == 0UL)
 8690              		.loc 1 4074 17
 8691 005e FB68     		ldr	r3, [r7, #12]
 8692 0060 5B6D     		ldr	r3, [r3, #84]
 8693              		.loc 1 4074 27
 8694 0062 03F40053 		and	r3, r3, #8192
 8695              		.loc 1 4074 10
 8696 0066 002B     		cmp	r3, #0
 8697 0068 20D1     		bne	.L346
4075:./Libraries/STM32H7xx_HAL_Driver/Src/stm32h7xx_hal_jpeg.c ****       {
4076:./Libraries/STM32H7xx_HAL_Driver/Src/stm32h7xx_hal_jpeg.c ****         /* Start MDMA FIFO Out transfer */
4077:./Libraries/STM32H7xx_HAL_Driver/Src/stm32h7xx_hal_jpeg.c ****         if (HAL_MDMA_Start_IT(hjpeg->hdmaout, (uint32_t)&hjpeg->Instance->DOR, (uint32_t)hjpeg->pJp
 8698              		.loc 1 4077 13
 8699 006a FB68     		ldr	r3, [r7, #12]
 8700 006c 586B     		ldr	r0, [r3, #52]
 8701              		.loc 1 4077 63
 8702 006e FB68     		ldr	r3, [r7, #12]
 8703 0070 1B68     		ldr	r3, [r3]
 8704              		.loc 1 4077 57
 8705 0072 4433     		adds	r3, r3, #68
 8706              		.loc 1 4077 13
 8707 0074 1946     		mov	r1, r3
 8708              		.loc 1 4077 95
 8709 0076 FB68     		ldr	r3, [r7, #12]
 8710 0078 DB69     		ldr	r3, [r3, #28]
 8711              		.loc 1 4077 13
 8712 007a 1C46     		mov	r4, r3
 8713 007c FB68     		ldr	r3, [r7, #12]
 8714 007e DB6A     		ldr	r3, [r3, #44]
 8715 0080 0122     		movs	r2, #1
 8716 0082 0092     		str	r2, [sp]
 8717 0084 2246     		mov	r2, r4
 8718 0086 FFF7FEFF 		bl	HAL_MDMA_Start_IT
ARM GAS  /tmp/ccXFtjVt.s 			page 229


 8719 008a 0346     		mov	r3, r0
 8720              		.loc 1 4077 12
 8721 008c 002B     		cmp	r3, #0
 8722 008e 0DD0     		beq	.L346
4078:./Libraries/STM32H7xx_HAL_Driver/Src/stm32h7xx_hal_jpeg.c ****                               hjpeg->OutDataLength, 1) != HAL_OK)
4079:./Libraries/STM32H7xx_HAL_Driver/Src/stm32h7xx_hal_jpeg.c ****         {
4080:./Libraries/STM32H7xx_HAL_Driver/Src/stm32h7xx_hal_jpeg.c ****           hjpeg->ErrorCode |= HAL_JPEG_ERROR_DMA;
 8723              		.loc 1 4080 28
 8724 0090 FB68     		ldr	r3, [r7, #12]
 8725 0092 1B6D     		ldr	r3, [r3, #80]
 8726 0094 43F00402 		orr	r2, r3, #4
 8727 0098 FB68     		ldr	r3, [r7, #12]
 8728 009a 1A65     		str	r2, [r3, #80]
4081:./Libraries/STM32H7xx_HAL_Driver/Src/stm32h7xx_hal_jpeg.c ****           hjpeg->State = HAL_JPEG_STATE_ERROR;
 8729              		.loc 1 4081 24
 8730 009c FB68     		ldr	r3, [r7, #12]
 8731 009e 0622     		movs	r2, #6
 8732 00a0 83F84D20 		strb	r2, [r3, #77]
4082:./Libraries/STM32H7xx_HAL_Driver/Src/stm32h7xx_hal_jpeg.c **** #if (USE_HAL_JPEG_REGISTER_CALLBACKS == 1)
4083:./Libraries/STM32H7xx_HAL_Driver/Src/stm32h7xx_hal_jpeg.c ****           hjpeg->ErrorCallback(hjpeg);
4084:./Libraries/STM32H7xx_HAL_Driver/Src/stm32h7xx_hal_jpeg.c **** #else
4085:./Libraries/STM32H7xx_HAL_Driver/Src/stm32h7xx_hal_jpeg.c ****           HAL_JPEG_ErrorCallback(hjpeg);
 8733              		.loc 1 4085 11
 8734 00a4 F868     		ldr	r0, [r7, #12]
 8735 00a6 FFF7FEFF 		bl	HAL_JPEG_ErrorCallback
4086:./Libraries/STM32H7xx_HAL_Driver/Src/stm32h7xx_hal_jpeg.c **** #endif /* USE_HAL_JPEG_REGISTER_CALLBACKS */
4087:./Libraries/STM32H7xx_HAL_Driver/Src/stm32h7xx_hal_jpeg.c ****           return;
 8736              		.loc 1 4087 11
 8737 00aa 07E0     		b	.L344
 8738              	.L346:
4088:./Libraries/STM32H7xx_HAL_Driver/Src/stm32h7xx_hal_jpeg.c ****         }
4089:./Libraries/STM32H7xx_HAL_Driver/Src/stm32h7xx_hal_jpeg.c ****       }
4090:./Libraries/STM32H7xx_HAL_Driver/Src/stm32h7xx_hal_jpeg.c ****     }
4091:./Libraries/STM32H7xx_HAL_Driver/Src/stm32h7xx_hal_jpeg.c **** 
4092:./Libraries/STM32H7xx_HAL_Driver/Src/stm32h7xx_hal_jpeg.c ****     /* JPEG Conversion still on going : Enable the JPEG IT */
4093:./Libraries/STM32H7xx_HAL_Driver/Src/stm32h7xx_hal_jpeg.c ****     __HAL_JPEG_ENABLE_IT(hjpeg, JPEG_IT_EOC | JPEG_IT_HPD);
 8739              		.loc 1 4093 5
 8740 00ac FB68     		ldr	r3, [r7, #12]
 8741 00ae 1B68     		ldr	r3, [r3]
 8742 00b0 1A6B     		ldr	r2, [r3, #48]
 8743 00b2 FB68     		ldr	r3, [r7, #12]
 8744 00b4 1B68     		ldr	r3, [r3]
 8745 00b6 42F06002 		orr	r2, r2, #96
 8746 00ba 1A63     		str	r2, [r3, #48]
 8747              	.L344:
4094:./Libraries/STM32H7xx_HAL_Driver/Src/stm32h7xx_hal_jpeg.c ****   }
4095:./Libraries/STM32H7xx_HAL_Driver/Src/stm32h7xx_hal_jpeg.c **** 
4096:./Libraries/STM32H7xx_HAL_Driver/Src/stm32h7xx_hal_jpeg.c **** }
 8748              		.loc 1 4096 1
 8749 00bc 1437     		adds	r7, r7, #20
 8750              	.LCFI271:
 8751              		.cfi_def_cfa_offset 12
 8752 00be BD46     		mov	sp, r7
 8753              	.LCFI272:
 8754              		.cfi_def_cfa_register 13
 8755              		@ sp needed
 8756 00c0 90BD     		pop	{r4, r7, pc}
ARM GAS  /tmp/ccXFtjVt.s 			page 230


 8757              		.cfi_endproc
 8758              	.LFE380:
 8760              		.section	.text.JPEG_MDMAErrorCallback,"ax",%progbits
 8761              		.align	1
 8762              		.syntax unified
 8763              		.thumb
 8764              		.thumb_func
 8765              		.fpu fpv5-d16
 8767              	JPEG_MDMAErrorCallback:
 8768              	.LFB381:
4097:./Libraries/STM32H7xx_HAL_Driver/Src/stm32h7xx_hal_jpeg.c **** 
4098:./Libraries/STM32H7xx_HAL_Driver/Src/stm32h7xx_hal_jpeg.c **** /**
4099:./Libraries/STM32H7xx_HAL_Driver/Src/stm32h7xx_hal_jpeg.c ****   * @brief  MDMA Transfer error callback
4100:./Libraries/STM32H7xx_HAL_Driver/Src/stm32h7xx_hal_jpeg.c ****   * @param  hmdma pointer to a MDMA_HandleTypeDef structure.
4101:./Libraries/STM32H7xx_HAL_Driver/Src/stm32h7xx_hal_jpeg.c ****   * @retval None
4102:./Libraries/STM32H7xx_HAL_Driver/Src/stm32h7xx_hal_jpeg.c ****   */
4103:./Libraries/STM32H7xx_HAL_Driver/Src/stm32h7xx_hal_jpeg.c **** static void JPEG_MDMAErrorCallback(MDMA_HandleTypeDef *hmdma)
4104:./Libraries/STM32H7xx_HAL_Driver/Src/stm32h7xx_hal_jpeg.c **** {
 8769              		.loc 1 4104 1
 8770              		.cfi_startproc
 8771              		@ args = 0, pretend = 0, frame = 16
 8772              		@ frame_needed = 1, uses_anonymous_args = 0
 8773 0000 80B5     		push	{r7, lr}
 8774              	.LCFI273:
 8775              		.cfi_def_cfa_offset 8
 8776              		.cfi_offset 7, -8
 8777              		.cfi_offset 14, -4
 8778 0002 84B0     		sub	sp, sp, #16
 8779              	.LCFI274:
 8780              		.cfi_def_cfa_offset 24
 8781 0004 00AF     		add	r7, sp, #0
 8782              	.LCFI275:
 8783              		.cfi_def_cfa_register 7
 8784 0006 7860     		str	r0, [r7, #4]
4105:./Libraries/STM32H7xx_HAL_Driver/Src/stm32h7xx_hal_jpeg.c ****   JPEG_HandleTypeDef *hjpeg = (JPEG_HandleTypeDef *)((MDMA_HandleTypeDef *)hmdma)->Parent;
 8785              		.loc 1 4105 23
 8786 0008 7B68     		ldr	r3, [r7, #4]
 8787 000a 1B6C     		ldr	r3, [r3, #64]
 8788 000c FB60     		str	r3, [r7, #12]
4106:./Libraries/STM32H7xx_HAL_Driver/Src/stm32h7xx_hal_jpeg.c **** 
4107:./Libraries/STM32H7xx_HAL_Driver/Src/stm32h7xx_hal_jpeg.c ****   /*Stop Encoding/Decoding*/
4108:./Libraries/STM32H7xx_HAL_Driver/Src/stm32h7xx_hal_jpeg.c ****   hjpeg->Instance->CONFR0 &=  ~JPEG_CONFR0_START;
 8789              		.loc 1 4108 8
 8790 000e FB68     		ldr	r3, [r7, #12]
 8791 0010 1B68     		ldr	r3, [r3]
 8792              		.loc 1 4108 27
 8793 0012 1A68     		ldr	r2, [r3]
 8794              		.loc 1 4108 8
 8795 0014 FB68     		ldr	r3, [r7, #12]
 8796 0016 1B68     		ldr	r3, [r3]
 8797              		.loc 1 4108 27
 8798 0018 22F00102 		bic	r2, r2, #1
 8799 001c 1A60     		str	r2, [r3]
4109:./Libraries/STM32H7xx_HAL_Driver/Src/stm32h7xx_hal_jpeg.c **** 
4110:./Libraries/STM32H7xx_HAL_Driver/Src/stm32h7xx_hal_jpeg.c ****   /* Disable All Interrupts */
4111:./Libraries/STM32H7xx_HAL_Driver/Src/stm32h7xx_hal_jpeg.c ****   __HAL_JPEG_DISABLE_IT(hjpeg, JPEG_INTERRUPT_MASK);
 8800              		.loc 1 4111 3
ARM GAS  /tmp/ccXFtjVt.s 			page 231


 8801 001e FB68     		ldr	r3, [r7, #12]
 8802 0020 1B68     		ldr	r3, [r3]
 8803 0022 1A6B     		ldr	r2, [r3, #48]
 8804 0024 FB68     		ldr	r3, [r7, #12]
 8805 0026 1B68     		ldr	r3, [r3]
 8806 0028 22F07E02 		bic	r2, r2, #126
 8807 002c 1A63     		str	r2, [r3, #48]
4112:./Libraries/STM32H7xx_HAL_Driver/Src/stm32h7xx_hal_jpeg.c **** 
4113:./Libraries/STM32H7xx_HAL_Driver/Src/stm32h7xx_hal_jpeg.c ****   hjpeg->State = HAL_JPEG_STATE_READY;
 8808              		.loc 1 4113 16
 8809 002e FB68     		ldr	r3, [r7, #12]
 8810 0030 0122     		movs	r2, #1
 8811 0032 83F84D20 		strb	r2, [r3, #77]
4114:./Libraries/STM32H7xx_HAL_Driver/Src/stm32h7xx_hal_jpeg.c ****   hjpeg->ErrorCode |= HAL_JPEG_ERROR_DMA;
 8812              		.loc 1 4114 20
 8813 0036 FB68     		ldr	r3, [r7, #12]
 8814 0038 1B6D     		ldr	r3, [r3, #80]
 8815 003a 43F00402 		orr	r2, r3, #4
 8816 003e FB68     		ldr	r3, [r7, #12]
 8817 0040 1A65     		str	r2, [r3, #80]
4115:./Libraries/STM32H7xx_HAL_Driver/Src/stm32h7xx_hal_jpeg.c **** 
4116:./Libraries/STM32H7xx_HAL_Driver/Src/stm32h7xx_hal_jpeg.c **** #if (USE_HAL_JPEG_REGISTER_CALLBACKS == 1)
4117:./Libraries/STM32H7xx_HAL_Driver/Src/stm32h7xx_hal_jpeg.c ****   hjpeg->ErrorCallback(hjpeg);
4118:./Libraries/STM32H7xx_HAL_Driver/Src/stm32h7xx_hal_jpeg.c **** #else
4119:./Libraries/STM32H7xx_HAL_Driver/Src/stm32h7xx_hal_jpeg.c ****   HAL_JPEG_ErrorCallback(hjpeg);
 8818              		.loc 1 4119 3
 8819 0042 F868     		ldr	r0, [r7, #12]
 8820 0044 FFF7FEFF 		bl	HAL_JPEG_ErrorCallback
4120:./Libraries/STM32H7xx_HAL_Driver/Src/stm32h7xx_hal_jpeg.c **** #endif /* USE_HAL_JPEG_REGISTER_CALLBACKS */
4121:./Libraries/STM32H7xx_HAL_Driver/Src/stm32h7xx_hal_jpeg.c **** }
 8821              		.loc 1 4121 1
 8822 0048 00BF     		nop
 8823 004a 1037     		adds	r7, r7, #16
 8824              	.LCFI276:
 8825              		.cfi_def_cfa_offset 8
 8826 004c BD46     		mov	sp, r7
 8827              	.LCFI277:
 8828              		.cfi_def_cfa_register 13
 8829              		@ sp needed
 8830 004e 80BD     		pop	{r7, pc}
 8831              		.cfi_endproc
 8832              	.LFE381:
 8834              		.section	.text.JPEG_MDMAOutAbortCallback,"ax",%progbits
 8835              		.align	1
 8836              		.syntax unified
 8837              		.thumb
 8838              		.thumb_func
 8839              		.fpu fpv5-d16
 8841              	JPEG_MDMAOutAbortCallback:
 8842              	.LFB382:
4122:./Libraries/STM32H7xx_HAL_Driver/Src/stm32h7xx_hal_jpeg.c **** 
4123:./Libraries/STM32H7xx_HAL_Driver/Src/stm32h7xx_hal_jpeg.c **** /**
4124:./Libraries/STM32H7xx_HAL_Driver/Src/stm32h7xx_hal_jpeg.c ****   * @brief  MDMA output Abort callback
4125:./Libraries/STM32H7xx_HAL_Driver/Src/stm32h7xx_hal_jpeg.c ****   * @param  hmdma pointer to a MDMA_HandleTypeDef structure.
4126:./Libraries/STM32H7xx_HAL_Driver/Src/stm32h7xx_hal_jpeg.c ****   * @retval None
4127:./Libraries/STM32H7xx_HAL_Driver/Src/stm32h7xx_hal_jpeg.c ****   */
4128:./Libraries/STM32H7xx_HAL_Driver/Src/stm32h7xx_hal_jpeg.c **** static void JPEG_MDMAOutAbortCallback(MDMA_HandleTypeDef *hmdma)
ARM GAS  /tmp/ccXFtjVt.s 			page 232


4129:./Libraries/STM32H7xx_HAL_Driver/Src/stm32h7xx_hal_jpeg.c **** {
 8843              		.loc 1 4129 1
 8844              		.cfi_startproc
 8845              		@ args = 0, pretend = 0, frame = 16
 8846              		@ frame_needed = 1, uses_anonymous_args = 0
 8847 0000 80B5     		push	{r7, lr}
 8848              	.LCFI278:
 8849              		.cfi_def_cfa_offset 8
 8850              		.cfi_offset 7, -8
 8851              		.cfi_offset 14, -4
 8852 0002 84B0     		sub	sp, sp, #16
 8853              	.LCFI279:
 8854              		.cfi_def_cfa_offset 24
 8855 0004 00AF     		add	r7, sp, #0
 8856              	.LCFI280:
 8857              		.cfi_def_cfa_register 7
 8858 0006 7860     		str	r0, [r7, #4]
4130:./Libraries/STM32H7xx_HAL_Driver/Src/stm32h7xx_hal_jpeg.c ****   JPEG_HandleTypeDef *hjpeg = (JPEG_HandleTypeDef *)((MDMA_HandleTypeDef *)hmdma)->Parent;
 8859              		.loc 1 4130 23
 8860 0008 7B68     		ldr	r3, [r7, #4]
 8861 000a 1B6C     		ldr	r3, [r3, #64]
 8862 000c FB60     		str	r3, [r7, #12]
4131:./Libraries/STM32H7xx_HAL_Driver/Src/stm32h7xx_hal_jpeg.c **** 
4132:./Libraries/STM32H7xx_HAL_Driver/Src/stm32h7xx_hal_jpeg.c ****   if ((hjpeg->Context & JPEG_CONTEXT_ENDING_DMA) != 0UL)
 8863              		.loc 1 4132 13
 8864 000e FB68     		ldr	r3, [r7, #12]
 8865 0010 5B6D     		ldr	r3, [r3, #84]
 8866              		.loc 1 4132 23
 8867 0012 03F40043 		and	r3, r3, #32768
 8868              		.loc 1 4132 6
 8869 0016 002B     		cmp	r3, #0
 8870 0018 02D0     		beq	.L350
4133:./Libraries/STM32H7xx_HAL_Driver/Src/stm32h7xx_hal_jpeg.c ****   {
4134:./Libraries/STM32H7xx_HAL_Driver/Src/stm32h7xx_hal_jpeg.c ****     JPEG_DMA_EndProcess(hjpeg);
 8871              		.loc 1 4134 5
 8872 001a F868     		ldr	r0, [r7, #12]
 8873 001c FFF7FEFF 		bl	JPEG_DMA_EndProcess
 8874              	.L350:
4135:./Libraries/STM32H7xx_HAL_Driver/Src/stm32h7xx_hal_jpeg.c ****   }
4136:./Libraries/STM32H7xx_HAL_Driver/Src/stm32h7xx_hal_jpeg.c **** }
 8875              		.loc 1 4136 1
 8876 0020 00BF     		nop
 8877 0022 1037     		adds	r7, r7, #16
 8878              	.LCFI281:
 8879              		.cfi_def_cfa_offset 8
 8880 0024 BD46     		mov	sp, r7
 8881              	.LCFI282:
 8882              		.cfi_def_cfa_register 13
 8883              		@ sp needed
 8884 0026 80BD     		pop	{r7, pc}
 8885              		.cfi_endproc
 8886              	.LFE382:
 8888              		.section	.text.JPEG_GetQuality,"ax",%progbits
 8889              		.align	1
 8890              		.syntax unified
 8891              		.thumb
 8892              		.thumb_func
ARM GAS  /tmp/ccXFtjVt.s 			page 233


 8893              		.fpu fpv5-d16
 8895              	JPEG_GetQuality:
 8896              	.LFB383:
4137:./Libraries/STM32H7xx_HAL_Driver/Src/stm32h7xx_hal_jpeg.c **** 
4138:./Libraries/STM32H7xx_HAL_Driver/Src/stm32h7xx_hal_jpeg.c **** 
4139:./Libraries/STM32H7xx_HAL_Driver/Src/stm32h7xx_hal_jpeg.c **** /**
4140:./Libraries/STM32H7xx_HAL_Driver/Src/stm32h7xx_hal_jpeg.c ****   * @brief  Calculate the decoded image quality (from 1 to 100)
4141:./Libraries/STM32H7xx_HAL_Driver/Src/stm32h7xx_hal_jpeg.c ****   * @param  hjpeg pointer to a JPEG_HandleTypeDef structure that contains
4142:./Libraries/STM32H7xx_HAL_Driver/Src/stm32h7xx_hal_jpeg.c ****   *         the configuration information for JPEG module
4143:./Libraries/STM32H7xx_HAL_Driver/Src/stm32h7xx_hal_jpeg.c ****   * @retval JPEG image quality from 1 to 100.
4144:./Libraries/STM32H7xx_HAL_Driver/Src/stm32h7xx_hal_jpeg.c ****   */
4145:./Libraries/STM32H7xx_HAL_Driver/Src/stm32h7xx_hal_jpeg.c **** static uint32_t JPEG_GetQuality(JPEG_HandleTypeDef *hjpeg)
4146:./Libraries/STM32H7xx_HAL_Driver/Src/stm32h7xx_hal_jpeg.c **** {
 8897              		.loc 1 4146 1
 8898              		.cfi_startproc
 8899              		@ args = 0, pretend = 0, frame = 40
 8900              		@ frame_needed = 1, uses_anonymous_args = 0
 8901              		@ link register save eliminated.
 8902 0000 80B4     		push	{r7}
 8903              	.LCFI283:
 8904              		.cfi_def_cfa_offset 4
 8905              		.cfi_offset 7, -4
 8906 0002 8BB0     		sub	sp, sp, #44
 8907              	.LCFI284:
 8908              		.cfi_def_cfa_offset 48
 8909 0004 00AF     		add	r7, sp, #0
 8910              	.LCFI285:
 8911              		.cfi_def_cfa_register 7
 8912 0006 7860     		str	r0, [r7, #4]
4147:./Libraries/STM32H7xx_HAL_Driver/Src/stm32h7xx_hal_jpeg.c ****   uint32_t quality = 0;
 8913              		.loc 1 4147 12
 8914 0008 0023     		movs	r3, #0
 8915 000a 7B62     		str	r3, [r7, #36]
4148:./Libraries/STM32H7xx_HAL_Driver/Src/stm32h7xx_hal_jpeg.c ****   uint32_t quantRow, quantVal, scale, i, j;
4149:./Libraries/STM32H7xx_HAL_Driver/Src/stm32h7xx_hal_jpeg.c ****   __IO uint32_t *tableAddress = hjpeg->Instance->QMEM0;
 8916              		.loc 1 4149 38
 8917 000c 7B68     		ldr	r3, [r7, #4]
 8918 000e 1B68     		ldr	r3, [r3]
 8919              		.loc 1 4149 18
 8920 0010 5033     		adds	r3, r3, #80
 8921 0012 BB61     		str	r3, [r7, #24]
4150:./Libraries/STM32H7xx_HAL_Driver/Src/stm32h7xx_hal_jpeg.c **** 
4151:./Libraries/STM32H7xx_HAL_Driver/Src/stm32h7xx_hal_jpeg.c ****   i = 0;
 8922              		.loc 1 4151 5
 8923 0014 0023     		movs	r3, #0
 8924 0016 3B62     		str	r3, [r7, #32]
4152:./Libraries/STM32H7xx_HAL_Driver/Src/stm32h7xx_hal_jpeg.c ****   while (i < (JPEG_QUANT_TABLE_SIZE - 3UL))
 8925              		.loc 1 4152 9
 8926 0018 42E0     		b	.L352
 8927              	.L358:
4153:./Libraries/STM32H7xx_HAL_Driver/Src/stm32h7xx_hal_jpeg.c ****   {
4154:./Libraries/STM32H7xx_HAL_Driver/Src/stm32h7xx_hal_jpeg.c ****     quantRow = *tableAddress;
 8928              		.loc 1 4154 14
 8929 001a BB69     		ldr	r3, [r7, #24]
 8930 001c 1B68     		ldr	r3, [r3]
 8931 001e 7B61     		str	r3, [r7, #20]
4155:./Libraries/STM32H7xx_HAL_Driver/Src/stm32h7xx_hal_jpeg.c ****     for (j = 0; j < 4UL; j++)
ARM GAS  /tmp/ccXFtjVt.s 			page 234


 8932              		.loc 1 4155 12
 8933 0020 0023     		movs	r3, #0
 8934 0022 FB61     		str	r3, [r7, #28]
 8935              		.loc 1 4155 5
 8936 0024 33E0     		b	.L353
 8937              	.L357:
4156:./Libraries/STM32H7xx_HAL_Driver/Src/stm32h7xx_hal_jpeg.c ****     {
4157:./Libraries/STM32H7xx_HAL_Driver/Src/stm32h7xx_hal_jpeg.c ****       quantVal = (quantRow >> (8UL * j)) & 0xFFUL;
 8938              		.loc 1 4157 36
 8939 0026 FB69     		ldr	r3, [r7, #28]
 8940 0028 DB00     		lsls	r3, r3, #3
 8941              		.loc 1 4157 28
 8942 002a 7A69     		ldr	r2, [r7, #20]
 8943 002c 22FA03F3 		lsr	r3, r2, r3
 8944              		.loc 1 4157 16
 8945 0030 DBB2     		uxtb	r3, r3
 8946 0032 3B61     		str	r3, [r7, #16]
4158:./Libraries/STM32H7xx_HAL_Driver/Src/stm32h7xx_hal_jpeg.c ****       if (quantVal == 1UL)
 8947              		.loc 1 4158 10
 8948 0034 3B69     		ldr	r3, [r7, #16]
 8949 0036 012B     		cmp	r3, #1
 8950 0038 03D1     		bne	.L354
4159:./Libraries/STM32H7xx_HAL_Driver/Src/stm32h7xx_hal_jpeg.c ****       {
4160:./Libraries/STM32H7xx_HAL_Driver/Src/stm32h7xx_hal_jpeg.c ****         /* if Quantization value = 1 then quality is 100%*/
4161:./Libraries/STM32H7xx_HAL_Driver/Src/stm32h7xx_hal_jpeg.c ****         quality += 100UL;
 8951              		.loc 1 4161 17
 8952 003a 7B6A     		ldr	r3, [r7, #36]
 8953 003c 6433     		adds	r3, r3, #100
 8954 003e 7B62     		str	r3, [r7, #36]
 8955 0040 22E0     		b	.L355
 8956              	.L354:
4162:./Libraries/STM32H7xx_HAL_Driver/Src/stm32h7xx_hal_jpeg.c ****       }
4163:./Libraries/STM32H7xx_HAL_Driver/Src/stm32h7xx_hal_jpeg.c ****       else
4164:./Libraries/STM32H7xx_HAL_Driver/Src/stm32h7xx_hal_jpeg.c ****       {
4165:./Libraries/STM32H7xx_HAL_Driver/Src/stm32h7xx_hal_jpeg.c ****         /* Note that the quantization coefficients must be specified in the table in zigzag order *
4166:./Libraries/STM32H7xx_HAL_Driver/Src/stm32h7xx_hal_jpeg.c ****         scale = (quantVal * 100UL) / ((uint32_t) hjpeg->QuantTable0[JPEG_ZIGZAG_ORDER[i + j]]);
 8957              		.loc 1 4166 27
 8958 0042 3B69     		ldr	r3, [r7, #16]
 8959 0044 6422     		movs	r2, #100
 8960 0046 02FB03F3 		mul	r3, r2, r3
 8961              		.loc 1 4166 55
 8962 004a 7A68     		ldr	r2, [r7, #4]
 8963 004c D26B     		ldr	r2, [r2, #60]
 8964              		.loc 1 4166 89
 8965 004e 386A     		ldr	r0, [r7, #32]
 8966 0050 F969     		ldr	r1, [r7, #28]
 8967 0052 0144     		add	r1, r1, r0
 8968              		.loc 1 4166 86
 8969 0054 1848     		ldr	r0, .L360
 8970 0056 415C     		ldrb	r1, [r0, r1]	@ zero_extendqisi2
 8971              		.loc 1 4166 68
 8972 0058 0A44     		add	r2, r2, r1
 8973 005a 1278     		ldrb	r2, [r2]	@ zero_extendqisi2
 8974              		.loc 1 4166 15
 8975 005c B3FBF2F3 		udiv	r3, r3, r2
 8976 0060 FB60     		str	r3, [r7, #12]
4167:./Libraries/STM32H7xx_HAL_Driver/Src/stm32h7xx_hal_jpeg.c **** 
ARM GAS  /tmp/ccXFtjVt.s 			page 235


4168:./Libraries/STM32H7xx_HAL_Driver/Src/stm32h7xx_hal_jpeg.c ****         if (scale <= 100UL)
 8977              		.loc 1 4168 12
 8978 0062 FB68     		ldr	r3, [r7, #12]
 8979 0064 642B     		cmp	r3, #100
 8980 0066 07D8     		bhi	.L356
4169:./Libraries/STM32H7xx_HAL_Driver/Src/stm32h7xx_hal_jpeg.c ****         {
4170:./Libraries/STM32H7xx_HAL_Driver/Src/stm32h7xx_hal_jpeg.c ****           quality += (200UL - scale) / 2UL;
 8981              		.loc 1 4170 29
 8982 0068 FB68     		ldr	r3, [r7, #12]
 8983 006a C3F1C803 		rsb	r3, r3, #200
 8984              		.loc 1 4170 38
 8985 006e 5B08     		lsrs	r3, r3, #1
 8986              		.loc 1 4170 19
 8987 0070 7A6A     		ldr	r2, [r7, #36]
 8988 0072 1344     		add	r3, r3, r2
 8989 0074 7B62     		str	r3, [r7, #36]
 8990 0076 07E0     		b	.L355
 8991              	.L356:
4171:./Libraries/STM32H7xx_HAL_Driver/Src/stm32h7xx_hal_jpeg.c ****         }
4172:./Libraries/STM32H7xx_HAL_Driver/Src/stm32h7xx_hal_jpeg.c ****         else
4173:./Libraries/STM32H7xx_HAL_Driver/Src/stm32h7xx_hal_jpeg.c ****         {
4174:./Libraries/STM32H7xx_HAL_Driver/Src/stm32h7xx_hal_jpeg.c ****           quality += 5000UL / scale;
 8992              		.loc 1 4174 29
 8993 0078 41F28832 		movw	r2, #5000
 8994 007c FB68     		ldr	r3, [r7, #12]
 8995 007e B2FBF3F3 		udiv	r3, r2, r3
 8996              		.loc 1 4174 19
 8997 0082 7A6A     		ldr	r2, [r7, #36]
 8998 0084 1344     		add	r3, r3, r2
 8999 0086 7B62     		str	r3, [r7, #36]
 9000              	.L355:
4155:./Libraries/STM32H7xx_HAL_Driver/Src/stm32h7xx_hal_jpeg.c ****     {
 9001              		.loc 1 4155 27 discriminator 2
 9002 0088 FB69     		ldr	r3, [r7, #28]
 9003 008a 0133     		adds	r3, r3, #1
 9004 008c FB61     		str	r3, [r7, #28]
 9005              	.L353:
4155:./Libraries/STM32H7xx_HAL_Driver/Src/stm32h7xx_hal_jpeg.c ****     {
 9006              		.loc 1 4155 5 discriminator 1
 9007 008e FB69     		ldr	r3, [r7, #28]
 9008 0090 032B     		cmp	r3, #3
 9009 0092 C8D9     		bls	.L357
4175:./Libraries/STM32H7xx_HAL_Driver/Src/stm32h7xx_hal_jpeg.c ****         }
4176:./Libraries/STM32H7xx_HAL_Driver/Src/stm32h7xx_hal_jpeg.c ****       }
4177:./Libraries/STM32H7xx_HAL_Driver/Src/stm32h7xx_hal_jpeg.c ****     }
4178:./Libraries/STM32H7xx_HAL_Driver/Src/stm32h7xx_hal_jpeg.c **** 
4179:./Libraries/STM32H7xx_HAL_Driver/Src/stm32h7xx_hal_jpeg.c ****     i += 4UL;
 9010              		.loc 1 4179 7
 9011 0094 3B6A     		ldr	r3, [r7, #32]
 9012 0096 0433     		adds	r3, r3, #4
 9013 0098 3B62     		str	r3, [r7, #32]
4180:./Libraries/STM32H7xx_HAL_Driver/Src/stm32h7xx_hal_jpeg.c ****     tableAddress ++;
 9014              		.loc 1 4180 18
 9015 009a BB69     		ldr	r3, [r7, #24]
 9016 009c 0433     		adds	r3, r3, #4
 9017 009e BB61     		str	r3, [r7, #24]
 9018              	.L352:
ARM GAS  /tmp/ccXFtjVt.s 			page 236


4152:./Libraries/STM32H7xx_HAL_Driver/Src/stm32h7xx_hal_jpeg.c ****   {
 9019              		.loc 1 4152 9
 9020 00a0 3B6A     		ldr	r3, [r7, #32]
 9021 00a2 3C2B     		cmp	r3, #60
 9022 00a4 B9D9     		bls	.L358
4181:./Libraries/STM32H7xx_HAL_Driver/Src/stm32h7xx_hal_jpeg.c ****   }
4182:./Libraries/STM32H7xx_HAL_Driver/Src/stm32h7xx_hal_jpeg.c **** 
4183:./Libraries/STM32H7xx_HAL_Driver/Src/stm32h7xx_hal_jpeg.c ****   return (quality / 64UL);
 9023              		.loc 1 4183 19
 9024 00a6 7B6A     		ldr	r3, [r7, #36]
 9025 00a8 9B09     		lsrs	r3, r3, #6
4184:./Libraries/STM32H7xx_HAL_Driver/Src/stm32h7xx_hal_jpeg.c **** }
 9026              		.loc 1 4184 1
 9027 00aa 1846     		mov	r0, r3
 9028 00ac 2C37     		adds	r7, r7, #44
 9029              	.LCFI286:
 9030              		.cfi_def_cfa_offset 4
 9031 00ae BD46     		mov	sp, r7
 9032              	.LCFI287:
 9033              		.cfi_def_cfa_register 13
 9034              		@ sp needed
 9035 00b0 5DF8047B 		ldr	r7, [sp], #4
 9036              	.LCFI288:
 9037              		.cfi_restore 7
 9038              		.cfi_def_cfa_offset 0
 9039 00b4 7047     		bx	lr
 9040              	.L361:
 9041 00b6 00BF     		.align	2
 9042              	.L360:
 9043 00b8 00000000 		.word	JPEG_ZIGZAG_ORDER
 9044              		.cfi_endproc
 9045              	.LFE383:
 9047              		.section	.rodata.JPEG_LUM_QuantTable.14152,"a"
 9048              		.align	2
 9051              	JPEG_LUM_QuantTable.14152:
 9052 0000 100B0A10 		.ascii	"\020\013\012\020\030(3=\014\014\016\023\032:<7\016\015"
 9052      1828333D 
 9052      0C0C0E13 
 9052      1A3A3C37 
 9052      0E0D
 9053 0012 10182839 		.ascii	"\020\030(9E8\016\021\026\0353WP>\022\026%8DmgM\030#"
 9053      45380E11 
 9053      161D3357 
 9053      503E1216 
 9053      2538446D 
 9054 002a 37405168 		.ascii	"7@Qhq\\1@NWgyxeH\\_bpdgc"
 9054      715C3140 
 9054      4E576779 
 9054      7865485C 
 9054      5F627064 
 9055              		.section	.rodata.JPEG_CHROM_QuantTable.14153,"a"
 9056              		.align	2
 9059              	JPEG_CHROM_QuantTable.14153:
 9060 0000 1112182F 		.ascii	"\021\022\030/cccc\022\025\032Bcccc\030\0328ccccc/Bc"
 9060      63636363 
 9060      12151A42 
 9060      63636363 
ARM GAS  /tmp/ccXFtjVt.s 			page 237


 9060      181A3863 
 9061 001b 63636363 		.ascii	"ccccccccccccccccccccccccccccccccccccc"
 9061      63636363 
 9061      63636363 
 9061      63636363 
 9061      63636363 
 9062              		.text
 9063              	.Letext0:
 9064              		.file 2 "/usr/lib/gcc/arm-none-eabi/9.2.1/include/stdint.h"
 9065              		.file 3 "./Libraries/CMSIS/Core/Include/core_cm7.h"
 9066              		.file 4 "./Libraries/CMSIS/Device/ST/STM32H7xx/Include/system_stm32h7xx.h"
 9067              		.file 5 "./Libraries/CMSIS/Device/ST/STM32H7xx/Include/stm32h747xx.h"
 9068              		.file 6 "/usr/lib/gcc/arm-none-eabi/9.2.1/include/stddef.h"
 9069              		.file 7 "/usr/include/newlib/sys/_types.h"
 9070              		.file 8 "/usr/include/newlib/sys/reent.h"
 9071              		.file 9 "/usr/include/newlib/sys/lock.h"
 9072              		.file 10 "/usr/include/newlib/math.h"
 9073              		.file 11 "./Libraries/STM32H7xx_HAL_Driver/Inc/stm32h7xx_hal_def.h"
 9074              		.file 12 "./Libraries/STM32H7xx_HAL_Driver/Inc/stm32h7xx_hal_mdma.h"
 9075              		.file 13 "./Libraries/STM32H7xx_HAL_Driver/Inc/stm32h7xx_hal_flash.h"
 9076              		.file 14 "./Libraries/STM32H7xx_HAL_Driver/Inc/stm32h7xx_hal_jpeg.h"
 9077              		.file 15 "./Libraries/STM32H7xx_HAL_Driver/Inc/stm32h7xx_hal_uart.h"
 9078              		.file 16 "./Libraries/STM32H7xx_HAL_Driver/Inc/stm32h7xx_hal.h"
ARM GAS  /tmp/ccXFtjVt.s 			page 238


DEFINED SYMBOLS
                            *ABS*:0000000000000000 stm32h7xx_hal_jpeg.c
     /tmp/ccXFtjVt.s:17     .rodata.JPEG_DCLUM_HuffTable:0000000000000000 $d
     /tmp/ccXFtjVt.s:20     .rodata.JPEG_DCLUM_HuffTable:0000000000000000 JPEG_DCLUM_HuffTable
     /tmp/ccXFtjVt.s:25     .rodata.JPEG_DCCHROM_HuffTable:0000000000000000 $d
     /tmp/ccXFtjVt.s:28     .rodata.JPEG_DCCHROM_HuffTable:0000000000000000 JPEG_DCCHROM_HuffTable
     /tmp/ccXFtjVt.s:33     .rodata.JPEG_ACLUM_HuffTable:0000000000000000 $d
     /tmp/ccXFtjVt.s:36     .rodata.JPEG_ACLUM_HuffTable:0000000000000000 JPEG_ACLUM_HuffTable
     /tmp/ccXFtjVt.s:49     .rodata.JPEG_ACCHROM_HuffTable:0000000000000000 $d
     /tmp/ccXFtjVt.s:52     .rodata.JPEG_ACCHROM_HuffTable:0000000000000000 JPEG_ACCHROM_HuffTable
     /tmp/ccXFtjVt.s:66     .rodata.JPEG_ZIGZAG_ORDER:0000000000000000 $d
     /tmp/ccXFtjVt.s:69     .rodata.JPEG_ZIGZAG_ORDER:0000000000000000 JPEG_ZIGZAG_ORDER
     /tmp/ccXFtjVt.s:75     .text.HAL_JPEG_Init:0000000000000000 $t
     /tmp/ccXFtjVt.s:83     .text.HAL_JPEG_Init:0000000000000000 HAL_JPEG_Init
     /tmp/ccXFtjVt.s:358    .text.HAL_JPEG_MspInit:0000000000000000 HAL_JPEG_MspInit
     /tmp/ccXFtjVt.s:4765   .text.JPEG_Set_HuffEnc_Mem:0000000000000000 JPEG_Set_HuffEnc_Mem
     /tmp/ccXFtjVt.s:264    .text.HAL_JPEG_Init:00000000000000fc $d
     /tmp/ccXFtjVt.s:9051   .rodata.JPEG_LUM_QuantTable.14152:0000000000000000 JPEG_LUM_QuantTable.14152
     /tmp/ccXFtjVt.s:9059   .rodata.JPEG_CHROM_QuantTable.14153:0000000000000000 JPEG_CHROM_QuantTable.14153
     /tmp/ccXFtjVt.s:270    .text.HAL_JPEG_DeInit:0000000000000000 $t
     /tmp/ccXFtjVt.s:277    .text.HAL_JPEG_DeInit:0000000000000000 HAL_JPEG_DeInit
     /tmp/ccXFtjVt.s:401    .text.HAL_JPEG_MspDeInit:0000000000000000 HAL_JPEG_MspDeInit
     /tmp/ccXFtjVt.s:351    .text.HAL_JPEG_MspInit:0000000000000000 $t
     /tmp/ccXFtjVt.s:394    .text.HAL_JPEG_MspDeInit:0000000000000000 $t
     /tmp/ccXFtjVt.s:437    .text.HAL_JPEG_ConfigEncoding:0000000000000000 $t
     /tmp/ccXFtjVt.s:444    .text.HAL_JPEG_ConfigEncoding:0000000000000000 HAL_JPEG_ConfigEncoding
     /tmp/ccXFtjVt.s:6137   .text.JPEG_SetColorGrayScale:0000000000000000 JPEG_SetColorGrayScale
     /tmp/ccXFtjVt.s:5755   .text.JPEG_Set_Quantization_Mem:0000000000000000 JPEG_Set_Quantization_Mem
     /tmp/ccXFtjVt.s:5945   .text.JPEG_SetColorYCBCR:0000000000000000 JPEG_SetColorYCBCR
     /tmp/ccXFtjVt.s:6207   .text.JPEG_SetColorCMYK:0000000000000000 JPEG_SetColorCMYK
     /tmp/ccXFtjVt.s:1013   .text.HAL_JPEG_GetInfo:0000000000000000 $t
     /tmp/ccXFtjVt.s:1020   .text.HAL_JPEG_GetInfo:0000000000000000 HAL_JPEG_GetInfo
     /tmp/ccXFtjVt.s:8895   .text.JPEG_GetQuality:0000000000000000 JPEG_GetQuality
     /tmp/ccXFtjVt.s:1261   .text.HAL_JPEG_EnableHeaderParsing:0000000000000000 $t
     /tmp/ccXFtjVt.s:1268   .text.HAL_JPEG_EnableHeaderParsing:0000000000000000 HAL_JPEG_EnableHeaderParsing
     /tmp/ccXFtjVt.s:1358   .text.HAL_JPEG_DisableHeaderParsing:0000000000000000 $t
     /tmp/ccXFtjVt.s:1365   .text.HAL_JPEG_DisableHeaderParsing:0000000000000000 HAL_JPEG_DisableHeaderParsing
     /tmp/ccXFtjVt.s:1455   .text.HAL_JPEG_SetUserQuantTables:0000000000000000 $t
     /tmp/ccXFtjVt.s:1462   .text.HAL_JPEG_SetUserQuantTables:0000000000000000 HAL_JPEG_SetUserQuantTables
     /tmp/ccXFtjVt.s:1566   .text.HAL_JPEG_Encode:0000000000000000 $t
     /tmp/ccXFtjVt.s:1573   .text.HAL_JPEG_Encode:0000000000000000 HAL_JPEG_Encode
     /tmp/ccXFtjVt.s:6381   .text.JPEG_Init_Process:0000000000000000 JPEG_Init_Process
     /tmp/ccXFtjVt.s:6558   .text.JPEG_Process:0000000000000000 JPEG_Process
     /tmp/ccXFtjVt.s:1786   .text.HAL_JPEG_Decode:0000000000000000 $t
     /tmp/ccXFtjVt.s:1793   .text.HAL_JPEG_Decode:0000000000000000 HAL_JPEG_Decode
     /tmp/ccXFtjVt.s:1981   .text.HAL_JPEG_Encode_IT:0000000000000000 $t
     /tmp/ccXFtjVt.s:1988   .text.HAL_JPEG_Encode_IT:0000000000000000 HAL_JPEG_Encode_IT
     /tmp/ccXFtjVt.s:2134   .text.HAL_JPEG_Decode_IT:0000000000000000 $t
     /tmp/ccXFtjVt.s:2141   .text.HAL_JPEG_Decode_IT:0000000000000000 HAL_JPEG_Decode_IT
     /tmp/ccXFtjVt.s:2271   .text.HAL_JPEG_Encode_DMA:0000000000000000 $t
     /tmp/ccXFtjVt.s:2278   .text.HAL_JPEG_Encode_DMA:0000000000000000 HAL_JPEG_Encode_DMA
     /tmp/ccXFtjVt.s:7589   .text.JPEG_DMA_StartProcess:0000000000000000 JPEG_DMA_StartProcess
     /tmp/ccXFtjVt.s:2439   .text.HAL_JPEG_Decode_DMA:0000000000000000 $t
     /tmp/ccXFtjVt.s:2446   .text.HAL_JPEG_Decode_DMA:0000000000000000 HAL_JPEG_Decode_DMA
     /tmp/ccXFtjVt.s:2591   .text.HAL_JPEG_Pause:0000000000000000 $t
     /tmp/ccXFtjVt.s:2598   .text.HAL_JPEG_Pause:0000000000000000 HAL_JPEG_Pause
     /tmp/ccXFtjVt.s:2728   .text.HAL_JPEG_Resume:0000000000000000 $t
ARM GAS  /tmp/ccXFtjVt.s 			page 239


     /tmp/ccXFtjVt.s:2735   .text.HAL_JPEG_Resume:0000000000000000 HAL_JPEG_Resume
     /tmp/ccXFtjVt.s:8149   .text.JPEG_DMA_PollResidualData:0000000000000000 JPEG_DMA_PollResidualData
     /tmp/ccXFtjVt.s:3050   .text.HAL_JPEG_ConfigInputBuffer:0000000000000000 $t
     /tmp/ccXFtjVt.s:3057   .text.HAL_JPEG_ConfigInputBuffer:0000000000000000 HAL_JPEG_ConfigInputBuffer
     /tmp/ccXFtjVt.s:3103   .text.HAL_JPEG_ConfigOutputBuffer:0000000000000000 $t
     /tmp/ccXFtjVt.s:3110   .text.HAL_JPEG_ConfigOutputBuffer:0000000000000000 HAL_JPEG_ConfigOutputBuffer
     /tmp/ccXFtjVt.s:3156   .text.HAL_JPEG_Abort:0000000000000000 $t
     /tmp/ccXFtjVt.s:3163   .text.HAL_JPEG_Abort:0000000000000000 HAL_JPEG_Abort
     /tmp/ccXFtjVt.s:3388   .text.HAL_JPEG_Abort:000000000000014c $d
     /tmp/ccXFtjVt.s:3393   .text.HAL_JPEG_InfoReadyCallback:0000000000000000 $t
     /tmp/ccXFtjVt.s:3400   .text.HAL_JPEG_InfoReadyCallback:0000000000000000 HAL_JPEG_InfoReadyCallback
     /tmp/ccXFtjVt.s:3437   .text.HAL_JPEG_EncodeCpltCallback:0000000000000000 $t
     /tmp/ccXFtjVt.s:3444   .text.HAL_JPEG_EncodeCpltCallback:0000000000000000 HAL_JPEG_EncodeCpltCallback
     /tmp/ccXFtjVt.s:3480   .text.HAL_JPEG_DecodeCpltCallback:0000000000000000 $t
     /tmp/ccXFtjVt.s:3487   .text.HAL_JPEG_DecodeCpltCallback:0000000000000000 HAL_JPEG_DecodeCpltCallback
     /tmp/ccXFtjVt.s:3523   .text.HAL_JPEG_ErrorCallback:0000000000000000 $t
     /tmp/ccXFtjVt.s:3530   .text.HAL_JPEG_ErrorCallback:0000000000000000 HAL_JPEG_ErrorCallback
     /tmp/ccXFtjVt.s:3566   .text.HAL_JPEG_GetDataCallback:0000000000000000 $t
     /tmp/ccXFtjVt.s:3573   .text.HAL_JPEG_GetDataCallback:0000000000000000 HAL_JPEG_GetDataCallback
     /tmp/ccXFtjVt.s:3610   .text.HAL_JPEG_DataReadyCallback:0000000000000000 $t
     /tmp/ccXFtjVt.s:3617   .text.HAL_JPEG_DataReadyCallback:0000000000000000 HAL_JPEG_DataReadyCallback
     /tmp/ccXFtjVt.s:3655   .text.HAL_JPEG_IRQHandler:0000000000000000 $t
     /tmp/ccXFtjVt.s:3662   .text.HAL_JPEG_IRQHandler:0000000000000000 HAL_JPEG_IRQHandler
     /tmp/ccXFtjVt.s:7822   .text.JPEG_DMA_ContinueProcess:0000000000000000 JPEG_DMA_ContinueProcess
     /tmp/ccXFtjVt.s:3737   .text.HAL_JPEG_GetState:0000000000000000 $t
     /tmp/ccXFtjVt.s:3744   .text.HAL_JPEG_GetState:0000000000000000 HAL_JPEG_GetState
     /tmp/ccXFtjVt.s:3784   .text.HAL_JPEG_GetError:0000000000000000 $t
     /tmp/ccXFtjVt.s:3791   .text.HAL_JPEG_GetError:0000000000000000 HAL_JPEG_GetError
     /tmp/ccXFtjVt.s:3830   .text.JPEG_Bits_To_SizeCodes:0000000000000000 $t
     /tmp/ccXFtjVt.s:3836   .text.JPEG_Bits_To_SizeCodes:0000000000000000 JPEG_Bits_To_SizeCodes
     /tmp/ccXFtjVt.s:4029   .text.JPEG_ACHuff_BitsVals_To_SizeCodes:0000000000000000 $t
     /tmp/ccXFtjVt.s:4035   .text.JPEG_ACHuff_BitsVals_To_SizeCodes:0000000000000000 JPEG_ACHuff_BitsVals_To_SizeCodes
     /tmp/ccXFtjVt.s:4195   .text.JPEG_DCHuff_BitsVals_To_SizeCodes:0000000000000000 $t
     /tmp/ccXFtjVt.s:4201   .text.JPEG_DCHuff_BitsVals_To_SizeCodes:0000000000000000 JPEG_DCHuff_BitsVals_To_SizeCodes
     /tmp/ccXFtjVt.s:4318   .text.JPEG_Set_HuffDC_Mem:0000000000000000 $t
     /tmp/ccXFtjVt.s:4324   .text.JPEG_Set_HuffDC_Mem:0000000000000000 JPEG_Set_HuffDC_Mem
     /tmp/ccXFtjVt.s:4510   .text.JPEG_Set_HuffAC_Mem:0000000000000000 $t
     /tmp/ccXFtjVt.s:4516   .text.JPEG_Set_HuffAC_Mem:0000000000000000 JPEG_Set_HuffAC_Mem
     /tmp/ccXFtjVt.s:4751   .text.JPEG_Set_HuffAC_Mem:00000000000001b4 $d
     /tmp/ccXFtjVt.s:4759   .text.JPEG_Set_HuffEnc_Mem:0000000000000000 $t
     /tmp/ccXFtjVt.s:4896   .text.JPEG_Set_Huff_DHTMem:0000000000000000 JPEG_Set_Huff_DHTMem
     /tmp/ccXFtjVt.s:4882   .text.JPEG_Set_HuffEnc_Mem:0000000000000098 $d
     /tmp/ccXFtjVt.s:4890   .text.JPEG_Set_Huff_DHTMem:0000000000000000 $t
     /tmp/ccXFtjVt.s:5306   .text.JPEG_Set_Huff_DHTMem:000000000000020c $d
     /tmp/ccXFtjVt.s:5313   .text.JPEG_Set_Huff_DHTMem:0000000000000220 $t
     /tmp/ccXFtjVt.s:5744   .text.JPEG_Set_Huff_DHTMem:0000000000000458 $d
     /tmp/ccXFtjVt.s:5749   .text.JPEG_Set_Quantization_Mem:0000000000000000 $t
     /tmp/ccXFtjVt.s:5933   .text.JPEG_Set_Quantization_Mem:00000000000000dc $d
     /tmp/ccXFtjVt.s:5939   .text.JPEG_SetColorYCBCR:0000000000000000 $t
     /tmp/ccXFtjVt.s:6131   .text.JPEG_SetColorGrayScale:0000000000000000 $t
     /tmp/ccXFtjVt.s:6201   .text.JPEG_SetColorCMYK:0000000000000000 $t
     /tmp/ccXFtjVt.s:6375   .text.JPEG_Init_Process:0000000000000000 $t
     /tmp/ccXFtjVt.s:6552   .text.JPEG_Process:0000000000000000 $t
     /tmp/ccXFtjVt.s:7232   .text.JPEG_ReadInputData:0000000000000000 JPEG_ReadInputData
     /tmp/ccXFtjVt.s:6818   .text.JPEG_StoreOutputData:0000000000000000 JPEG_StoreOutputData
     /tmp/ccXFtjVt.s:6812   .text.JPEG_StoreOutputData:0000000000000000 $t
     /tmp/ccXFtjVt.s:7226   .text.JPEG_ReadInputData:0000000000000000 $t
ARM GAS  /tmp/ccXFtjVt.s 			page 240


     /tmp/ccXFtjVt.s:7583   .text.JPEG_DMA_StartProcess:0000000000000000 $t
     /tmp/ccXFtjVt.s:7808   .text.JPEG_DMA_StartProcess:0000000000000124 $d
     /tmp/ccXFtjVt.s:8396   .text.JPEG_MDMAInCpltCallback:0000000000000000 JPEG_MDMAInCpltCallback
     /tmp/ccXFtjVt.s:8767   .text.JPEG_MDMAErrorCallback:0000000000000000 JPEG_MDMAErrorCallback
     /tmp/ccXFtjVt.s:8619   .text.JPEG_MDMAOutCpltCallback:0000000000000000 JPEG_MDMAOutCpltCallback
     /tmp/ccXFtjVt.s:8841   .text.JPEG_MDMAOutAbortCallback:0000000000000000 JPEG_MDMAOutAbortCallback
     /tmp/ccXFtjVt.s:7816   .text.JPEG_DMA_ContinueProcess:0000000000000000 $t
     /tmp/ccXFtjVt.s:7986   .text.JPEG_DMA_EndProcess:0000000000000000 JPEG_DMA_EndProcess
     /tmp/ccXFtjVt.s:7980   .text.JPEG_DMA_EndProcess:0000000000000000 $t
     /tmp/ccXFtjVt.s:8143   .text.JPEG_DMA_PollResidualData:0000000000000000 $t
     /tmp/ccXFtjVt.s:8390   .text.JPEG_MDMAInCpltCallback:0000000000000000 $t
     /tmp/ccXFtjVt.s:8613   .text.JPEG_MDMAOutCpltCallback:0000000000000000 $t
     /tmp/ccXFtjVt.s:8761   .text.JPEG_MDMAErrorCallback:0000000000000000 $t
     /tmp/ccXFtjVt.s:8835   .text.JPEG_MDMAOutAbortCallback:0000000000000000 $t
     /tmp/ccXFtjVt.s:8889   .text.JPEG_GetQuality:0000000000000000 $t
     /tmp/ccXFtjVt.s:9043   .text.JPEG_GetQuality:00000000000000b8 $d
     /tmp/ccXFtjVt.s:9048   .rodata.JPEG_LUM_QuantTable.14152:0000000000000000 $d
     /tmp/ccXFtjVt.s:9056   .rodata.JPEG_CHROM_QuantTable.14153:0000000000000000 $d

UNDEFINED SYMBOLS
HAL_GetTick
HAL_MDMA_Start_IT
HAL_MDMA_Abort
HAL_MDMA_Abort_IT
