ARM GAS  /var/folders/wl/rshn8xbx1dsfj1zgryf4g1240000gn/T//ccUniVTQ.s 			page 1


   1              		.cpu cortex-m7
   2              		.eabi_attribute 28, 1
   3              		.eabi_attribute 20, 1
   4              		.eabi_attribute 21, 1
   5              		.eabi_attribute 23, 3
   6              		.eabi_attribute 24, 1
   7              		.eabi_attribute 25, 1
   8              		.eabi_attribute 26, 1
   9              		.eabi_attribute 30, 2
  10              		.eabi_attribute 34, 1
  11              		.eabi_attribute 18, 4
  12              		.file	"stm32h7xx_hal_crc_ex.c"
  13              		.text
  14              	.Ltext0:
  15              		.cfi_sections	.debug_frame
  16              		.section	.text.HAL_CRCEx_Polynomial_Set,"ax",%progbits
  17              		.align	1
  18              		.p2align 2,,3
  19              		.global	HAL_CRCEx_Polynomial_Set
  20              		.arch armv7e-m
  21              		.syntax unified
  22              		.thumb
  23              		.thumb_func
  24              		.fpu fpv5-d16
  26              	HAL_CRCEx_Polynomial_Set:
  27              	.LVL0:
  28              	.LFB144:
  29              		.file 1 ".//Libraries/STM32H7xx_HAL_Driver/Src/stm32h7xx_hal_crc_ex.c"
   1:.//Libraries/STM32H7xx_HAL_Driver/Src/stm32h7xx_hal_crc_ex.c **** /**
   2:.//Libraries/STM32H7xx_HAL_Driver/Src/stm32h7xx_hal_crc_ex.c ****   ******************************************************************************
   3:.//Libraries/STM32H7xx_HAL_Driver/Src/stm32h7xx_hal_crc_ex.c ****   * @file    stm32h7xx_hal_crc_ex.c
   4:.//Libraries/STM32H7xx_HAL_Driver/Src/stm32h7xx_hal_crc_ex.c ****   * @author  MCD Application Team
   5:.//Libraries/STM32H7xx_HAL_Driver/Src/stm32h7xx_hal_crc_ex.c ****   * @brief   Extended CRC HAL module driver.
   6:.//Libraries/STM32H7xx_HAL_Driver/Src/stm32h7xx_hal_crc_ex.c ****   *          This file provides firmware functions to manage the extended
   7:.//Libraries/STM32H7xx_HAL_Driver/Src/stm32h7xx_hal_crc_ex.c ****   *          functionalities of the CRC peripheral.
   8:.//Libraries/STM32H7xx_HAL_Driver/Src/stm32h7xx_hal_crc_ex.c ****   *
   9:.//Libraries/STM32H7xx_HAL_Driver/Src/stm32h7xx_hal_crc_ex.c ****   @verbatim
  10:.//Libraries/STM32H7xx_HAL_Driver/Src/stm32h7xx_hal_crc_ex.c **** ================================================================================
  11:.//Libraries/STM32H7xx_HAL_Driver/Src/stm32h7xx_hal_crc_ex.c ****             ##### How to use this driver #####
  12:.//Libraries/STM32H7xx_HAL_Driver/Src/stm32h7xx_hal_crc_ex.c **** ================================================================================
  13:.//Libraries/STM32H7xx_HAL_Driver/Src/stm32h7xx_hal_crc_ex.c ****     [..]
  14:.//Libraries/STM32H7xx_HAL_Driver/Src/stm32h7xx_hal_crc_ex.c ****          (+) Set user-defined generating polynomial through HAL_CRCEx_Polynomial_Set()
  15:.//Libraries/STM32H7xx_HAL_Driver/Src/stm32h7xx_hal_crc_ex.c ****          (+) Configure Input or Output data inversion
  16:.//Libraries/STM32H7xx_HAL_Driver/Src/stm32h7xx_hal_crc_ex.c **** 
  17:.//Libraries/STM32H7xx_HAL_Driver/Src/stm32h7xx_hal_crc_ex.c ****   @endverbatim
  18:.//Libraries/STM32H7xx_HAL_Driver/Src/stm32h7xx_hal_crc_ex.c ****   ******************************************************************************
  19:.//Libraries/STM32H7xx_HAL_Driver/Src/stm32h7xx_hal_crc_ex.c ****   * @attention
  20:.//Libraries/STM32H7xx_HAL_Driver/Src/stm32h7xx_hal_crc_ex.c ****   *
  21:.//Libraries/STM32H7xx_HAL_Driver/Src/stm32h7xx_hal_crc_ex.c ****   * <h2><center>&copy; Copyright (c) 2017 STMicroelectronics.
  22:.//Libraries/STM32H7xx_HAL_Driver/Src/stm32h7xx_hal_crc_ex.c ****   * All rights reserved.</center></h2>
  23:.//Libraries/STM32H7xx_HAL_Driver/Src/stm32h7xx_hal_crc_ex.c ****   *
  24:.//Libraries/STM32H7xx_HAL_Driver/Src/stm32h7xx_hal_crc_ex.c ****   * This software component is licensed by ST under BSD 3-Clause license,
  25:.//Libraries/STM32H7xx_HAL_Driver/Src/stm32h7xx_hal_crc_ex.c ****   * the "License"; You may not use this file except in compliance with the
  26:.//Libraries/STM32H7xx_HAL_Driver/Src/stm32h7xx_hal_crc_ex.c ****   * License. You may obtain a copy of the License at:
  27:.//Libraries/STM32H7xx_HAL_Driver/Src/stm32h7xx_hal_crc_ex.c ****   *                        opensource.org/licenses/BSD-3-Clause
  28:.//Libraries/STM32H7xx_HAL_Driver/Src/stm32h7xx_hal_crc_ex.c ****   *
  29:.//Libraries/STM32H7xx_HAL_Driver/Src/stm32h7xx_hal_crc_ex.c ****   ******************************************************************************
ARM GAS  /var/folders/wl/rshn8xbx1dsfj1zgryf4g1240000gn/T//ccUniVTQ.s 			page 2


  30:.//Libraries/STM32H7xx_HAL_Driver/Src/stm32h7xx_hal_crc_ex.c ****   */
  31:.//Libraries/STM32H7xx_HAL_Driver/Src/stm32h7xx_hal_crc_ex.c **** 
  32:.//Libraries/STM32H7xx_HAL_Driver/Src/stm32h7xx_hal_crc_ex.c **** /* Includes ------------------------------------------------------------------*/
  33:.//Libraries/STM32H7xx_HAL_Driver/Src/stm32h7xx_hal_crc_ex.c **** #include "stm32h7xx_hal.h"
  34:.//Libraries/STM32H7xx_HAL_Driver/Src/stm32h7xx_hal_crc_ex.c **** 
  35:.//Libraries/STM32H7xx_HAL_Driver/Src/stm32h7xx_hal_crc_ex.c **** /** @addtogroup STM32H7xx_HAL_Driver
  36:.//Libraries/STM32H7xx_HAL_Driver/Src/stm32h7xx_hal_crc_ex.c ****   * @{
  37:.//Libraries/STM32H7xx_HAL_Driver/Src/stm32h7xx_hal_crc_ex.c ****   */
  38:.//Libraries/STM32H7xx_HAL_Driver/Src/stm32h7xx_hal_crc_ex.c **** 
  39:.//Libraries/STM32H7xx_HAL_Driver/Src/stm32h7xx_hal_crc_ex.c **** /** @defgroup CRCEx CRCEx
  40:.//Libraries/STM32H7xx_HAL_Driver/Src/stm32h7xx_hal_crc_ex.c ****   * @brief CRC Extended HAL module driver
  41:.//Libraries/STM32H7xx_HAL_Driver/Src/stm32h7xx_hal_crc_ex.c ****   * @{
  42:.//Libraries/STM32H7xx_HAL_Driver/Src/stm32h7xx_hal_crc_ex.c ****   */
  43:.//Libraries/STM32H7xx_HAL_Driver/Src/stm32h7xx_hal_crc_ex.c **** 
  44:.//Libraries/STM32H7xx_HAL_Driver/Src/stm32h7xx_hal_crc_ex.c **** #ifdef HAL_CRC_MODULE_ENABLED
  45:.//Libraries/STM32H7xx_HAL_Driver/Src/stm32h7xx_hal_crc_ex.c **** 
  46:.//Libraries/STM32H7xx_HAL_Driver/Src/stm32h7xx_hal_crc_ex.c **** /* Private typedef -----------------------------------------------------------*/
  47:.//Libraries/STM32H7xx_HAL_Driver/Src/stm32h7xx_hal_crc_ex.c **** /* Private define ------------------------------------------------------------*/
  48:.//Libraries/STM32H7xx_HAL_Driver/Src/stm32h7xx_hal_crc_ex.c **** /* Private macro -------------------------------------------------------------*/
  49:.//Libraries/STM32H7xx_HAL_Driver/Src/stm32h7xx_hal_crc_ex.c **** /* Private variables ---------------------------------------------------------*/
  50:.//Libraries/STM32H7xx_HAL_Driver/Src/stm32h7xx_hal_crc_ex.c **** /* Private function prototypes -----------------------------------------------*/
  51:.//Libraries/STM32H7xx_HAL_Driver/Src/stm32h7xx_hal_crc_ex.c **** /* Exported functions --------------------------------------------------------*/
  52:.//Libraries/STM32H7xx_HAL_Driver/Src/stm32h7xx_hal_crc_ex.c **** 
  53:.//Libraries/STM32H7xx_HAL_Driver/Src/stm32h7xx_hal_crc_ex.c **** /** @defgroup CRCEx_Exported_Functions CRC Extended Exported Functions
  54:.//Libraries/STM32H7xx_HAL_Driver/Src/stm32h7xx_hal_crc_ex.c ****   * @{
  55:.//Libraries/STM32H7xx_HAL_Driver/Src/stm32h7xx_hal_crc_ex.c ****   */
  56:.//Libraries/STM32H7xx_HAL_Driver/Src/stm32h7xx_hal_crc_ex.c **** 
  57:.//Libraries/STM32H7xx_HAL_Driver/Src/stm32h7xx_hal_crc_ex.c **** /** @defgroup CRCEx_Exported_Functions_Group1 Extended Initialization/de-initialization functions
  58:.//Libraries/STM32H7xx_HAL_Driver/Src/stm32h7xx_hal_crc_ex.c ****   * @brief    Extended Initialization and Configuration functions.
  59:.//Libraries/STM32H7xx_HAL_Driver/Src/stm32h7xx_hal_crc_ex.c ****   *
  60:.//Libraries/STM32H7xx_HAL_Driver/Src/stm32h7xx_hal_crc_ex.c **** @verbatim
  61:.//Libraries/STM32H7xx_HAL_Driver/Src/stm32h7xx_hal_crc_ex.c ****  ===============================================================================
  62:.//Libraries/STM32H7xx_HAL_Driver/Src/stm32h7xx_hal_crc_ex.c ****             ##### Extended configuration functions #####
  63:.//Libraries/STM32H7xx_HAL_Driver/Src/stm32h7xx_hal_crc_ex.c ****  ===============================================================================
  64:.//Libraries/STM32H7xx_HAL_Driver/Src/stm32h7xx_hal_crc_ex.c ****     [..]  This section provides functions allowing to:
  65:.//Libraries/STM32H7xx_HAL_Driver/Src/stm32h7xx_hal_crc_ex.c ****       (+) Configure the generating polynomial
  66:.//Libraries/STM32H7xx_HAL_Driver/Src/stm32h7xx_hal_crc_ex.c ****       (+) Configure the input data inversion
  67:.//Libraries/STM32H7xx_HAL_Driver/Src/stm32h7xx_hal_crc_ex.c ****       (+) Configure the output data inversion
  68:.//Libraries/STM32H7xx_HAL_Driver/Src/stm32h7xx_hal_crc_ex.c **** 
  69:.//Libraries/STM32H7xx_HAL_Driver/Src/stm32h7xx_hal_crc_ex.c **** @endverbatim
  70:.//Libraries/STM32H7xx_HAL_Driver/Src/stm32h7xx_hal_crc_ex.c ****   * @{
  71:.//Libraries/STM32H7xx_HAL_Driver/Src/stm32h7xx_hal_crc_ex.c ****   */
  72:.//Libraries/STM32H7xx_HAL_Driver/Src/stm32h7xx_hal_crc_ex.c **** 
  73:.//Libraries/STM32H7xx_HAL_Driver/Src/stm32h7xx_hal_crc_ex.c **** 
  74:.//Libraries/STM32H7xx_HAL_Driver/Src/stm32h7xx_hal_crc_ex.c **** /**
  75:.//Libraries/STM32H7xx_HAL_Driver/Src/stm32h7xx_hal_crc_ex.c ****   * @brief  Initialize the CRC polynomial if different from default one.
  76:.//Libraries/STM32H7xx_HAL_Driver/Src/stm32h7xx_hal_crc_ex.c ****   * @param  hcrc CRC handle
  77:.//Libraries/STM32H7xx_HAL_Driver/Src/stm32h7xx_hal_crc_ex.c ****   * @param  Pol CRC generating polynomial (7, 8, 16 or 32-bit long).
  78:.//Libraries/STM32H7xx_HAL_Driver/Src/stm32h7xx_hal_crc_ex.c ****   *         This parameter is written in normal representation, e.g.
  79:.//Libraries/STM32H7xx_HAL_Driver/Src/stm32h7xx_hal_crc_ex.c ****   *         @arg for a polynomial of degree 7, X^7 + X^6 + X^5 + X^2 + 1 is written 0x65
  80:.//Libraries/STM32H7xx_HAL_Driver/Src/stm32h7xx_hal_crc_ex.c ****   *         @arg for a polynomial of degree 16, X^16 + X^12 + X^5 + 1 is written 0x1021
  81:.//Libraries/STM32H7xx_HAL_Driver/Src/stm32h7xx_hal_crc_ex.c ****   * @param  PolyLength CRC polynomial length.
  82:.//Libraries/STM32H7xx_HAL_Driver/Src/stm32h7xx_hal_crc_ex.c ****   *         This parameter can be one of the following values:
  83:.//Libraries/STM32H7xx_HAL_Driver/Src/stm32h7xx_hal_crc_ex.c ****   *          @arg @ref CRC_POLYLENGTH_7B  7-bit long CRC (generating polynomial of degree 7)
  84:.//Libraries/STM32H7xx_HAL_Driver/Src/stm32h7xx_hal_crc_ex.c ****   *          @arg @ref CRC_POLYLENGTH_8B  8-bit long CRC (generating polynomial of degree 8)
  85:.//Libraries/STM32H7xx_HAL_Driver/Src/stm32h7xx_hal_crc_ex.c ****   *          @arg @ref CRC_POLYLENGTH_16B 16-bit long CRC (generating polynomial of degree 16)
  86:.//Libraries/STM32H7xx_HAL_Driver/Src/stm32h7xx_hal_crc_ex.c ****   *          @arg @ref CRC_POLYLENGTH_32B 32-bit long CRC (generating polynomial of degree 32)
ARM GAS  /var/folders/wl/rshn8xbx1dsfj1zgryf4g1240000gn/T//ccUniVTQ.s 			page 3


  87:.//Libraries/STM32H7xx_HAL_Driver/Src/stm32h7xx_hal_crc_ex.c ****   * @retval HAL status
  88:.//Libraries/STM32H7xx_HAL_Driver/Src/stm32h7xx_hal_crc_ex.c ****   */
  89:.//Libraries/STM32H7xx_HAL_Driver/Src/stm32h7xx_hal_crc_ex.c **** HAL_StatusTypeDef HAL_CRCEx_Polynomial_Set(CRC_HandleTypeDef *hcrc, uint32_t Pol, uint32_t PolyLeng
  90:.//Libraries/STM32H7xx_HAL_Driver/Src/stm32h7xx_hal_crc_ex.c **** {
  30              		.loc 1 90 1 view -0
  31              		.cfi_startproc
  32              		@ args = 0, pretend = 0, frame = 0
  33              		@ frame_needed = 0, uses_anonymous_args = 0
  34              		@ link register save eliminated.
  91:.//Libraries/STM32H7xx_HAL_Driver/Src/stm32h7xx_hal_crc_ex.c ****   HAL_StatusTypeDef status = HAL_OK;
  35              		.loc 1 91 3 view .LVU1
  92:.//Libraries/STM32H7xx_HAL_Driver/Src/stm32h7xx_hal_crc_ex.c ****   uint32_t msb = 31U; /* polynomial degree is 32 at most, so msb is initialized to max value */
  36              		.loc 1 92 3 view .LVU2
  93:.//Libraries/STM32H7xx_HAL_Driver/Src/stm32h7xx_hal_crc_ex.c **** 
  94:.//Libraries/STM32H7xx_HAL_Driver/Src/stm32h7xx_hal_crc_ex.c ****   /* Check the parameters */
  95:.//Libraries/STM32H7xx_HAL_Driver/Src/stm32h7xx_hal_crc_ex.c ****   assert_param(IS_CRC_POL_LENGTH(PolyLength));
  37              		.loc 1 95 3 view .LVU3
  96:.//Libraries/STM32H7xx_HAL_Driver/Src/stm32h7xx_hal_crc_ex.c **** 
  97:.//Libraries/STM32H7xx_HAL_Driver/Src/stm32h7xx_hal_crc_ex.c ****   /* check polynomial definition vs polynomial size:
  98:.//Libraries/STM32H7xx_HAL_Driver/Src/stm32h7xx_hal_crc_ex.c ****    * polynomial length must be aligned with polynomial
  99:.//Libraries/STM32H7xx_HAL_Driver/Src/stm32h7xx_hal_crc_ex.c ****    * definition. HAL_ERROR is reported if Pol degree is
 100:.//Libraries/STM32H7xx_HAL_Driver/Src/stm32h7xx_hal_crc_ex.c ****    * larger than that indicated by PolyLength.
 101:.//Libraries/STM32H7xx_HAL_Driver/Src/stm32h7xx_hal_crc_ex.c ****    * Look for MSB position: msb will contain the degree of
 102:.//Libraries/STM32H7xx_HAL_Driver/Src/stm32h7xx_hal_crc_ex.c ****    *  the second to the largest polynomial member. E.g., for
 103:.//Libraries/STM32H7xx_HAL_Driver/Src/stm32h7xx_hal_crc_ex.c ****    *  X^7 + X^6 + X^5 + X^2 + 1, msb = 6. */
 104:.//Libraries/STM32H7xx_HAL_Driver/Src/stm32h7xx_hal_crc_ex.c ****   while ((msb-- > 0U) && ((Pol & ((uint32_t)(0x1U) << (msb & 0x1FU))) == 0U))
  38              		.loc 1 104 3 view .LVU4
 105:.//Libraries/STM32H7xx_HAL_Driver/Src/stm32h7xx_hal_crc_ex.c ****   {
 106:.//Libraries/STM32H7xx_HAL_Driver/Src/stm32h7xx_hal_crc_ex.c ****   }
  39              		.loc 1 106 3 view .LVU5
 104:.//Libraries/STM32H7xx_HAL_Driver/Src/stm32h7xx_hal_crc_ex.c ****   {
  40              		.loc 1 104 9 view .LVU6
 104:.//Libraries/STM32H7xx_HAL_Driver/Src/stm32h7xx_hal_crc_ex.c ****   {
  41              		.loc 1 104 14 is_stmt 0 view .LVU7
  42 0000 1E23     		movs	r3, #30
  90:.//Libraries/STM32H7xx_HAL_Driver/Src/stm32h7xx_hal_crc_ex.c ****   HAL_StatusTypeDef status = HAL_OK;
  43              		.loc 1 90 1 view .LVU8
  44 0002 10B4     		push	{r4}
  45              	.LCFI0:
  46              		.cfi_def_cfa_offset 4
  47              		.cfi_offset 4, -4
  48 0004 01E0     		b	.L2
  49              	.LVL1:
  50              	.L4:
 104:.//Libraries/STM32H7xx_HAL_Driver/Src/stm32h7xx_hal_crc_ex.c ****   {
  51              		.loc 1 104 9 discriminator 2 view .LVU9
  52 0006 013B     		subs	r3, r3, #1
  53              	.LVL2:
 104:.//Libraries/STM32H7xx_HAL_Driver/Src/stm32h7xx_hal_crc_ex.c ****   {
  54              		.loc 1 104 9 discriminator 2 view .LVU10
  55 0008 14D3     		bcc	.L3
  56              	.LVL3:
  57              	.L2:
  58              		.loc 1 106 3 is_stmt 1 discriminator 1 view .LVU11
 104:.//Libraries/STM32H7xx_HAL_Driver/Src/stm32h7xx_hal_crc_ex.c ****   {
  59              		.loc 1 104 9 discriminator 1 view .LVU12
 104:.//Libraries/STM32H7xx_HAL_Driver/Src/stm32h7xx_hal_crc_ex.c ****   {
ARM GAS  /var/folders/wl/rshn8xbx1dsfj1zgryf4g1240000gn/T//ccUniVTQ.s 			page 4


  60              		.loc 1 104 71 is_stmt 0 discriminator 1 view .LVU13
  61 000a 21FA03F4 		lsr	r4, r1, r3
 104:.//Libraries/STM32H7xx_HAL_Driver/Src/stm32h7xx_hal_crc_ex.c ****   {
  62              		.loc 1 104 23 discriminator 1 view .LVU14
  63 000e E407     		lsls	r4, r4, #31
  64 0010 F9D5     		bpl	.L4
 107:.//Libraries/STM32H7xx_HAL_Driver/Src/stm32h7xx_hal_crc_ex.c **** 
 108:.//Libraries/STM32H7xx_HAL_Driver/Src/stm32h7xx_hal_crc_ex.c ****   switch (PolyLength)
  65              		.loc 1 108 3 is_stmt 1 view .LVU15
  66 0012 182A     		cmp	r2, #24
  67 0014 0FD8     		bhi	.L21
  68 0016 DFE802F0 		tbb	[pc, r2]
  69              	.L7:
  70 001a 14       		.byte	(.L10-.L7)/2
  71 001b 0E       		.byte	(.L21-.L7)/2
  72 001c 0E       		.byte	(.L21-.L7)/2
  73 001d 0E       		.byte	(.L21-.L7)/2
  74 001e 0E       		.byte	(.L21-.L7)/2
  75 001f 0E       		.byte	(.L21-.L7)/2
  76 0020 0E       		.byte	(.L21-.L7)/2
  77 0021 0E       		.byte	(.L21-.L7)/2
  78 0022 1F       		.byte	(.L9-.L7)/2
  79 0023 0E       		.byte	(.L21-.L7)/2
  80 0024 0E       		.byte	(.L21-.L7)/2
  81 0025 0E       		.byte	(.L21-.L7)/2
  82 0026 0E       		.byte	(.L21-.L7)/2
  83 0027 0E       		.byte	(.L21-.L7)/2
  84 0028 0E       		.byte	(.L21-.L7)/2
  85 0029 0E       		.byte	(.L21-.L7)/2
  86 002a 22       		.byte	(.L8-.L7)/2
  87 002b 0E       		.byte	(.L21-.L7)/2
  88 002c 0E       		.byte	(.L21-.L7)/2
  89 002d 0E       		.byte	(.L21-.L7)/2
  90 002e 0E       		.byte	(.L21-.L7)/2
  91 002f 0E       		.byte	(.L21-.L7)/2
  92 0030 0E       		.byte	(.L21-.L7)/2
  93 0031 0E       		.byte	(.L21-.L7)/2
  94 0032 12       		.byte	(.L6-.L7)/2
  95              	.LVL4:
  96 0033 00       		.p2align 1
  97              	.L3:
  98              		.loc 1 108 3 view .LVU16
  99 0034 2AB1     		cbz	r2, .L10
 100              	.LVL5:
 101              	.L21:
 109:.//Libraries/STM32H7xx_HAL_Driver/Src/stm32h7xx_hal_crc_ex.c ****   {
 110:.//Libraries/STM32H7xx_HAL_Driver/Src/stm32h7xx_hal_crc_ex.c ****     case CRC_POLYLENGTH_7B:
 111:.//Libraries/STM32H7xx_HAL_Driver/Src/stm32h7xx_hal_crc_ex.c ****       if (msb >= HAL_CRC_LENGTH_7B)
 112:.//Libraries/STM32H7xx_HAL_Driver/Src/stm32h7xx_hal_crc_ex.c ****       {
 113:.//Libraries/STM32H7xx_HAL_Driver/Src/stm32h7xx_hal_crc_ex.c ****         status =   HAL_ERROR;
 114:.//Libraries/STM32H7xx_HAL_Driver/Src/stm32h7xx_hal_crc_ex.c ****       }
 115:.//Libraries/STM32H7xx_HAL_Driver/Src/stm32h7xx_hal_crc_ex.c ****       break;
 116:.//Libraries/STM32H7xx_HAL_Driver/Src/stm32h7xx_hal_crc_ex.c ****     case CRC_POLYLENGTH_8B:
 117:.//Libraries/STM32H7xx_HAL_Driver/Src/stm32h7xx_hal_crc_ex.c ****       if (msb >= HAL_CRC_LENGTH_8B)
 118:.//Libraries/STM32H7xx_HAL_Driver/Src/stm32h7xx_hal_crc_ex.c ****       {
 119:.//Libraries/STM32H7xx_HAL_Driver/Src/stm32h7xx_hal_crc_ex.c ****         status =   HAL_ERROR;
 120:.//Libraries/STM32H7xx_HAL_Driver/Src/stm32h7xx_hal_crc_ex.c ****       }
ARM GAS  /var/folders/wl/rshn8xbx1dsfj1zgryf4g1240000gn/T//ccUniVTQ.s 			page 5


 121:.//Libraries/STM32H7xx_HAL_Driver/Src/stm32h7xx_hal_crc_ex.c ****       break;
 122:.//Libraries/STM32H7xx_HAL_Driver/Src/stm32h7xx_hal_crc_ex.c ****     case CRC_POLYLENGTH_16B:
 123:.//Libraries/STM32H7xx_HAL_Driver/Src/stm32h7xx_hal_crc_ex.c ****       if (msb >= HAL_CRC_LENGTH_16B)
 124:.//Libraries/STM32H7xx_HAL_Driver/Src/stm32h7xx_hal_crc_ex.c ****       {
 125:.//Libraries/STM32H7xx_HAL_Driver/Src/stm32h7xx_hal_crc_ex.c ****         status =   HAL_ERROR;
 126:.//Libraries/STM32H7xx_HAL_Driver/Src/stm32h7xx_hal_crc_ex.c ****       }
 127:.//Libraries/STM32H7xx_HAL_Driver/Src/stm32h7xx_hal_crc_ex.c ****       break;
 128:.//Libraries/STM32H7xx_HAL_Driver/Src/stm32h7xx_hal_crc_ex.c **** 
 129:.//Libraries/STM32H7xx_HAL_Driver/Src/stm32h7xx_hal_crc_ex.c ****     case CRC_POLYLENGTH_32B:
 130:.//Libraries/STM32H7xx_HAL_Driver/Src/stm32h7xx_hal_crc_ex.c ****       /* no polynomial definition vs. polynomial length issue possible */
 131:.//Libraries/STM32H7xx_HAL_Driver/Src/stm32h7xx_hal_crc_ex.c ****       break;
 132:.//Libraries/STM32H7xx_HAL_Driver/Src/stm32h7xx_hal_crc_ex.c ****     default:
 133:.//Libraries/STM32H7xx_HAL_Driver/Src/stm32h7xx_hal_crc_ex.c ****       status =  HAL_ERROR;
 102              		.loc 1 133 14 is_stmt 0 view .LVU17
 103 0036 0120     		movs	r0, #1
 104              	.LVL6:
 134:.//Libraries/STM32H7xx_HAL_Driver/Src/stm32h7xx_hal_crc_ex.c ****       break;
 135:.//Libraries/STM32H7xx_HAL_Driver/Src/stm32h7xx_hal_crc_ex.c ****   }
 136:.//Libraries/STM32H7xx_HAL_Driver/Src/stm32h7xx_hal_crc_ex.c ****   if (status == HAL_OK)
 137:.//Libraries/STM32H7xx_HAL_Driver/Src/stm32h7xx_hal_crc_ex.c ****   {
 138:.//Libraries/STM32H7xx_HAL_Driver/Src/stm32h7xx_hal_crc_ex.c ****     /* set generating polynomial */
 139:.//Libraries/STM32H7xx_HAL_Driver/Src/stm32h7xx_hal_crc_ex.c ****     WRITE_REG(hcrc->Instance->POL, Pol);
 140:.//Libraries/STM32H7xx_HAL_Driver/Src/stm32h7xx_hal_crc_ex.c **** 
 141:.//Libraries/STM32H7xx_HAL_Driver/Src/stm32h7xx_hal_crc_ex.c ****     /* set generating polynomial size */
 142:.//Libraries/STM32H7xx_HAL_Driver/Src/stm32h7xx_hal_crc_ex.c ****     MODIFY_REG(hcrc->Instance->CR, CRC_CR_POLYSIZE, PolyLength);
 143:.//Libraries/STM32H7xx_HAL_Driver/Src/stm32h7xx_hal_crc_ex.c ****   }
 144:.//Libraries/STM32H7xx_HAL_Driver/Src/stm32h7xx_hal_crc_ex.c ****   /* Return function status */
 145:.//Libraries/STM32H7xx_HAL_Driver/Src/stm32h7xx_hal_crc_ex.c ****   return status;
 105              		.loc 1 145 3 is_stmt 1 view .LVU18
 146:.//Libraries/STM32H7xx_HAL_Driver/Src/stm32h7xx_hal_crc_ex.c **** }
 106              		.loc 1 146 1 is_stmt 0 view .LVU19
 107 0038 5DF8044B 		ldr	r4, [sp], #4
 108              	.LCFI1:
 109              		.cfi_remember_state
 110              		.cfi_restore 4
 111              		.cfi_def_cfa_offset 0
 112 003c 7047     		bx	lr
 113              	.LVL7:
 114              	.L6:
 115              	.LCFI2:
 116              		.cfi_restore_state
 111:.//Libraries/STM32H7xx_HAL_Driver/Src/stm32h7xx_hal_crc_ex.c ****       {
 117              		.loc 1 111 7 is_stmt 1 view .LVU20
 111:.//Libraries/STM32H7xx_HAL_Driver/Src/stm32h7xx_hal_crc_ex.c ****       {
 118              		.loc 1 111 10 is_stmt 0 view .LVU21
 119 003e 062B     		cmp	r3, #6
 120 0040 F9D8     		bhi	.L21
 121              	.LVL8:
 122              	.L10:
 139:.//Libraries/STM32H7xx_HAL_Driver/Src/stm32h7xx_hal_crc_ex.c **** 
 123              		.loc 1 139 5 is_stmt 1 view .LVU22
 124 0042 0468     		ldr	r4, [r0]
 142:.//Libraries/STM32H7xx_HAL_Driver/Src/stm32h7xx_hal_crc_ex.c ****   }
 125              		.loc 1 142 5 is_stmt 0 view .LVU23
 126 0044 0020     		movs	r0, #0
 127              	.LVL9:
 139:.//Libraries/STM32H7xx_HAL_Driver/Src/stm32h7xx_hal_crc_ex.c **** 
ARM GAS  /var/folders/wl/rshn8xbx1dsfj1zgryf4g1240000gn/T//ccUniVTQ.s 			page 6


 128              		.loc 1 139 5 view .LVU24
 129 0046 6161     		str	r1, [r4, #20]
 142:.//Libraries/STM32H7xx_HAL_Driver/Src/stm32h7xx_hal_crc_ex.c ****   }
 130              		.loc 1 142 5 is_stmt 1 view .LVU25
 131 0048 A368     		ldr	r3, [r4, #8]
 132 004a 23F01803 		bic	r3, r3, #24
 133 004e 1A43     		orrs	r2, r2, r3
 134              	.LVL10:
 142:.//Libraries/STM32H7xx_HAL_Driver/Src/stm32h7xx_hal_crc_ex.c ****   }
 135              		.loc 1 142 5 is_stmt 0 view .LVU26
 136 0050 A260     		str	r2, [r4, #8]
 137              		.loc 1 146 1 view .LVU27
 138 0052 5DF8044B 		ldr	r4, [sp], #4
 139              	.LCFI3:
 140              		.cfi_remember_state
 141              		.cfi_restore 4
 142              		.cfi_def_cfa_offset 0
 143 0056 7047     		bx	lr
 144              	.LVL11:
 145              	.L9:
 146              	.LCFI4:
 147              		.cfi_restore_state
 123:.//Libraries/STM32H7xx_HAL_Driver/Src/stm32h7xx_hal_crc_ex.c ****       {
 148              		.loc 1 123 7 is_stmt 1 view .LVU28
 123:.//Libraries/STM32H7xx_HAL_Driver/Src/stm32h7xx_hal_crc_ex.c ****       {
 149              		.loc 1 123 10 is_stmt 0 view .LVU29
 150 0058 0F2B     		cmp	r3, #15
 151 005a F2D9     		bls	.L10
 152 005c EBE7     		b	.L21
 153              	.L8:
 117:.//Libraries/STM32H7xx_HAL_Driver/Src/stm32h7xx_hal_crc_ex.c ****       {
 154              		.loc 1 117 7 is_stmt 1 view .LVU30
 117:.//Libraries/STM32H7xx_HAL_Driver/Src/stm32h7xx_hal_crc_ex.c ****       {
 155              		.loc 1 117 10 is_stmt 0 view .LVU31
 156 005e 072B     		cmp	r3, #7
 157 0060 EFD9     		bls	.L10
 158 0062 E8E7     		b	.L21
 159              		.cfi_endproc
 160              	.LFE144:
 162              		.section	.text.HAL_CRCEx_Input_Data_Reverse,"ax",%progbits
 163              		.align	1
 164              		.p2align 2,,3
 165              		.global	HAL_CRCEx_Input_Data_Reverse
 166              		.syntax unified
 167              		.thumb
 168              		.thumb_func
 169              		.fpu fpv5-d16
 171              	HAL_CRCEx_Input_Data_Reverse:
 172              	.LVL12:
 173              	.LFB145:
 147:.//Libraries/STM32H7xx_HAL_Driver/Src/stm32h7xx_hal_crc_ex.c **** 
 148:.//Libraries/STM32H7xx_HAL_Driver/Src/stm32h7xx_hal_crc_ex.c **** /**
 149:.//Libraries/STM32H7xx_HAL_Driver/Src/stm32h7xx_hal_crc_ex.c ****   * @brief  Set the Reverse Input data mode.
 150:.//Libraries/STM32H7xx_HAL_Driver/Src/stm32h7xx_hal_crc_ex.c ****   * @param  hcrc CRC handle
 151:.//Libraries/STM32H7xx_HAL_Driver/Src/stm32h7xx_hal_crc_ex.c ****   * @param  InputReverseMode Input Data inversion mode.
 152:.//Libraries/STM32H7xx_HAL_Driver/Src/stm32h7xx_hal_crc_ex.c ****   *         This parameter can be one of the following values:
 153:.//Libraries/STM32H7xx_HAL_Driver/Src/stm32h7xx_hal_crc_ex.c ****   *          @arg @ref CRC_INPUTDATA_INVERSION_NONE     no change in bit order (default value)
ARM GAS  /var/folders/wl/rshn8xbx1dsfj1zgryf4g1240000gn/T//ccUniVTQ.s 			page 7


 154:.//Libraries/STM32H7xx_HAL_Driver/Src/stm32h7xx_hal_crc_ex.c ****   *          @arg @ref CRC_INPUTDATA_INVERSION_BYTE     Byte-wise bit reversal
 155:.//Libraries/STM32H7xx_HAL_Driver/Src/stm32h7xx_hal_crc_ex.c ****   *          @arg @ref CRC_INPUTDATA_INVERSION_HALFWORD HalfWord-wise bit reversal
 156:.//Libraries/STM32H7xx_HAL_Driver/Src/stm32h7xx_hal_crc_ex.c ****   *          @arg @ref CRC_INPUTDATA_INVERSION_WORD     Word-wise bit reversal
 157:.//Libraries/STM32H7xx_HAL_Driver/Src/stm32h7xx_hal_crc_ex.c ****   * @retval HAL status
 158:.//Libraries/STM32H7xx_HAL_Driver/Src/stm32h7xx_hal_crc_ex.c ****   */
 159:.//Libraries/STM32H7xx_HAL_Driver/Src/stm32h7xx_hal_crc_ex.c **** HAL_StatusTypeDef HAL_CRCEx_Input_Data_Reverse(CRC_HandleTypeDef *hcrc, uint32_t InputReverseMode)
 160:.//Libraries/STM32H7xx_HAL_Driver/Src/stm32h7xx_hal_crc_ex.c **** {
 174              		.loc 1 160 1 is_stmt 1 view -0
 175              		.cfi_startproc
 176              		@ args = 0, pretend = 0, frame = 0
 177              		@ frame_needed = 0, uses_anonymous_args = 0
 178              		@ link register save eliminated.
 161:.//Libraries/STM32H7xx_HAL_Driver/Src/stm32h7xx_hal_crc_ex.c ****   /* Check the parameters */
 162:.//Libraries/STM32H7xx_HAL_Driver/Src/stm32h7xx_hal_crc_ex.c ****   assert_param(IS_CRC_INPUTDATA_INVERSION_MODE(InputReverseMode));
 179              		.loc 1 162 3 view .LVU33
 163:.//Libraries/STM32H7xx_HAL_Driver/Src/stm32h7xx_hal_crc_ex.c **** 
 164:.//Libraries/STM32H7xx_HAL_Driver/Src/stm32h7xx_hal_crc_ex.c ****   /* Change CRC peripheral state */
 165:.//Libraries/STM32H7xx_HAL_Driver/Src/stm32h7xx_hal_crc_ex.c ****   hcrc->State = HAL_CRC_STATE_BUSY;
 180              		.loc 1 165 3 view .LVU34
 160:.//Libraries/STM32H7xx_HAL_Driver/Src/stm32h7xx_hal_crc_ex.c ****   /* Check the parameters */
 181              		.loc 1 160 1 is_stmt 0 view .LVU35
 182 0000 0346     		mov	r3, r0
 183              		.loc 1 165 15 view .LVU36
 184 0002 0222     		movs	r2, #2
 166:.//Libraries/STM32H7xx_HAL_Driver/Src/stm32h7xx_hal_crc_ex.c **** 
 167:.//Libraries/STM32H7xx_HAL_Driver/Src/stm32h7xx_hal_crc_ex.c ****   /* set input data inversion mode */
 168:.//Libraries/STM32H7xx_HAL_Driver/Src/stm32h7xx_hal_crc_ex.c ****   MODIFY_REG(hcrc->Instance->CR, CRC_CR_REV_IN, InputReverseMode);
 169:.//Libraries/STM32H7xx_HAL_Driver/Src/stm32h7xx_hal_crc_ex.c ****   /* Change CRC peripheral state */
 170:.//Libraries/STM32H7xx_HAL_Driver/Src/stm32h7xx_hal_crc_ex.c ****   hcrc->State = HAL_CRC_STATE_READY;
 171:.//Libraries/STM32H7xx_HAL_Driver/Src/stm32h7xx_hal_crc_ex.c **** 
 172:.//Libraries/STM32H7xx_HAL_Driver/Src/stm32h7xx_hal_crc_ex.c ****   /* Return function status */
 173:.//Libraries/STM32H7xx_HAL_Driver/Src/stm32h7xx_hal_crc_ex.c ****   return HAL_OK;
 174:.//Libraries/STM32H7xx_HAL_Driver/Src/stm32h7xx_hal_crc_ex.c **** }
 185              		.loc 1 174 1 view .LVU37
 186 0004 0020     		movs	r0, #0
 187              	.LVL13:
 160:.//Libraries/STM32H7xx_HAL_Driver/Src/stm32h7xx_hal_crc_ex.c ****   /* Check the parameters */
 188              		.loc 1 160 1 view .LVU38
 189 0006 30B4     		push	{r4, r5}
 190              	.LCFI5:
 191              		.cfi_def_cfa_offset 8
 192              		.cfi_offset 4, -8
 193              		.cfi_offset 5, -4
 168:.//Libraries/STM32H7xx_HAL_Driver/Src/stm32h7xx_hal_crc_ex.c ****   /* Change CRC peripheral state */
 194              		.loc 1 168 3 view .LVU39
 195 0008 1C68     		ldr	r4, [r3]
 170:.//Libraries/STM32H7xx_HAL_Driver/Src/stm32h7xx_hal_crc_ex.c **** 
 196              		.loc 1 170 15 view .LVU40
 197 000a 0125     		movs	r5, #1
 165:.//Libraries/STM32H7xx_HAL_Driver/Src/stm32h7xx_hal_crc_ex.c **** 
 198              		.loc 1 165 15 view .LVU41
 199 000c 5A77     		strb	r2, [r3, #29]
 168:.//Libraries/STM32H7xx_HAL_Driver/Src/stm32h7xx_hal_crc_ex.c ****   /* Change CRC peripheral state */
 200              		.loc 1 168 3 is_stmt 1 view .LVU42
 201 000e A268     		ldr	r2, [r4, #8]
 202 0010 22F06002 		bic	r2, r2, #96
 203 0014 1143     		orrs	r1, r1, r2
ARM GAS  /var/folders/wl/rshn8xbx1dsfj1zgryf4g1240000gn/T//ccUniVTQ.s 			page 8


 204              	.LVL14:
 168:.//Libraries/STM32H7xx_HAL_Driver/Src/stm32h7xx_hal_crc_ex.c ****   /* Change CRC peripheral state */
 205              		.loc 1 168 3 is_stmt 0 view .LVU43
 206 0016 A160     		str	r1, [r4, #8]
 170:.//Libraries/STM32H7xx_HAL_Driver/Src/stm32h7xx_hal_crc_ex.c **** 
 207              		.loc 1 170 3 is_stmt 1 view .LVU44
 170:.//Libraries/STM32H7xx_HAL_Driver/Src/stm32h7xx_hal_crc_ex.c **** 
 208              		.loc 1 170 15 is_stmt 0 view .LVU45
 209 0018 5D77     		strb	r5, [r3, #29]
 173:.//Libraries/STM32H7xx_HAL_Driver/Src/stm32h7xx_hal_crc_ex.c **** }
 210              		.loc 1 173 3 is_stmt 1 view .LVU46
 211              		.loc 1 174 1 is_stmt 0 view .LVU47
 212 001a 30BC     		pop	{r4, r5}
 213              	.LCFI6:
 214              		.cfi_restore 5
 215              		.cfi_restore 4
 216              		.cfi_def_cfa_offset 0
 217 001c 7047     		bx	lr
 218              		.cfi_endproc
 219              	.LFE145:
 221 001e 00BF     		.section	.text.HAL_CRCEx_Output_Data_Reverse,"ax",%progbits
 222              		.align	1
 223              		.p2align 2,,3
 224              		.global	HAL_CRCEx_Output_Data_Reverse
 225              		.syntax unified
 226              		.thumb
 227              		.thumb_func
 228              		.fpu fpv5-d16
 230              	HAL_CRCEx_Output_Data_Reverse:
 231              	.LVL15:
 232              	.LFB146:
 175:.//Libraries/STM32H7xx_HAL_Driver/Src/stm32h7xx_hal_crc_ex.c **** 
 176:.//Libraries/STM32H7xx_HAL_Driver/Src/stm32h7xx_hal_crc_ex.c **** /**
 177:.//Libraries/STM32H7xx_HAL_Driver/Src/stm32h7xx_hal_crc_ex.c ****   * @brief  Set the Reverse Output data mode.
 178:.//Libraries/STM32H7xx_HAL_Driver/Src/stm32h7xx_hal_crc_ex.c ****   * @param  hcrc CRC handle
 179:.//Libraries/STM32H7xx_HAL_Driver/Src/stm32h7xx_hal_crc_ex.c ****   * @param  OutputReverseMode Output Data inversion mode.
 180:.//Libraries/STM32H7xx_HAL_Driver/Src/stm32h7xx_hal_crc_ex.c ****   *         This parameter can be one of the following values:
 181:.//Libraries/STM32H7xx_HAL_Driver/Src/stm32h7xx_hal_crc_ex.c ****   *          @arg @ref CRC_OUTPUTDATA_INVERSION_DISABLE no CRC inversion (default value)
 182:.//Libraries/STM32H7xx_HAL_Driver/Src/stm32h7xx_hal_crc_ex.c ****   *          @arg @ref CRC_OUTPUTDATA_INVERSION_ENABLE  bit-level inversion (e.g. for a 8-bit CRC: 
 183:.//Libraries/STM32H7xx_HAL_Driver/Src/stm32h7xx_hal_crc_ex.c ****   * @retval HAL status
 184:.//Libraries/STM32H7xx_HAL_Driver/Src/stm32h7xx_hal_crc_ex.c ****   */
 185:.//Libraries/STM32H7xx_HAL_Driver/Src/stm32h7xx_hal_crc_ex.c **** HAL_StatusTypeDef HAL_CRCEx_Output_Data_Reverse(CRC_HandleTypeDef *hcrc, uint32_t OutputReverseMode
 186:.//Libraries/STM32H7xx_HAL_Driver/Src/stm32h7xx_hal_crc_ex.c **** {
 233              		.loc 1 186 1 is_stmt 1 view -0
 234              		.cfi_startproc
 235              		@ args = 0, pretend = 0, frame = 0
 236              		@ frame_needed = 0, uses_anonymous_args = 0
 237              		@ link register save eliminated.
 187:.//Libraries/STM32H7xx_HAL_Driver/Src/stm32h7xx_hal_crc_ex.c ****   /* Check the parameters */
 188:.//Libraries/STM32H7xx_HAL_Driver/Src/stm32h7xx_hal_crc_ex.c ****   assert_param(IS_CRC_OUTPUTDATA_INVERSION_MODE(OutputReverseMode));
 238              		.loc 1 188 3 view .LVU49
 189:.//Libraries/STM32H7xx_HAL_Driver/Src/stm32h7xx_hal_crc_ex.c **** 
 190:.//Libraries/STM32H7xx_HAL_Driver/Src/stm32h7xx_hal_crc_ex.c ****   /* Change CRC peripheral state */
 191:.//Libraries/STM32H7xx_HAL_Driver/Src/stm32h7xx_hal_crc_ex.c ****   hcrc->State = HAL_CRC_STATE_BUSY;
 239              		.loc 1 191 3 view .LVU50
 186:.//Libraries/STM32H7xx_HAL_Driver/Src/stm32h7xx_hal_crc_ex.c ****   /* Check the parameters */
 240              		.loc 1 186 1 is_stmt 0 view .LVU51
ARM GAS  /var/folders/wl/rshn8xbx1dsfj1zgryf4g1240000gn/T//ccUniVTQ.s 			page 9


 241 0000 0346     		mov	r3, r0
 242              		.loc 1 191 15 view .LVU52
 243 0002 0222     		movs	r2, #2
 192:.//Libraries/STM32H7xx_HAL_Driver/Src/stm32h7xx_hal_crc_ex.c **** 
 193:.//Libraries/STM32H7xx_HAL_Driver/Src/stm32h7xx_hal_crc_ex.c ****   /* set output data inversion mode */
 194:.//Libraries/STM32H7xx_HAL_Driver/Src/stm32h7xx_hal_crc_ex.c ****   MODIFY_REG(hcrc->Instance->CR, CRC_CR_REV_OUT, OutputReverseMode);
 195:.//Libraries/STM32H7xx_HAL_Driver/Src/stm32h7xx_hal_crc_ex.c **** 
 196:.//Libraries/STM32H7xx_HAL_Driver/Src/stm32h7xx_hal_crc_ex.c ****   /* Change CRC peripheral state */
 197:.//Libraries/STM32H7xx_HAL_Driver/Src/stm32h7xx_hal_crc_ex.c ****   hcrc->State = HAL_CRC_STATE_READY;
 198:.//Libraries/STM32H7xx_HAL_Driver/Src/stm32h7xx_hal_crc_ex.c **** 
 199:.//Libraries/STM32H7xx_HAL_Driver/Src/stm32h7xx_hal_crc_ex.c ****   /* Return function status */
 200:.//Libraries/STM32H7xx_HAL_Driver/Src/stm32h7xx_hal_crc_ex.c ****   return HAL_OK;
 201:.//Libraries/STM32H7xx_HAL_Driver/Src/stm32h7xx_hal_crc_ex.c **** }
 244              		.loc 1 201 1 view .LVU53
 245 0004 0020     		movs	r0, #0
 246              	.LVL16:
 186:.//Libraries/STM32H7xx_HAL_Driver/Src/stm32h7xx_hal_crc_ex.c ****   /* Check the parameters */
 247              		.loc 1 186 1 view .LVU54
 248 0006 30B4     		push	{r4, r5}
 249              	.LCFI7:
 250              		.cfi_def_cfa_offset 8
 251              		.cfi_offset 4, -8
 252              		.cfi_offset 5, -4
 194:.//Libraries/STM32H7xx_HAL_Driver/Src/stm32h7xx_hal_crc_ex.c **** 
 253              		.loc 1 194 3 view .LVU55
 254 0008 1C68     		ldr	r4, [r3]
 197:.//Libraries/STM32H7xx_HAL_Driver/Src/stm32h7xx_hal_crc_ex.c **** 
 255              		.loc 1 197 15 view .LVU56
 256 000a 0125     		movs	r5, #1
 191:.//Libraries/STM32H7xx_HAL_Driver/Src/stm32h7xx_hal_crc_ex.c **** 
 257              		.loc 1 191 15 view .LVU57
 258 000c 5A77     		strb	r2, [r3, #29]
 194:.//Libraries/STM32H7xx_HAL_Driver/Src/stm32h7xx_hal_crc_ex.c **** 
 259              		.loc 1 194 3 is_stmt 1 view .LVU58
 260 000e A268     		ldr	r2, [r4, #8]
 261 0010 22F08002 		bic	r2, r2, #128
 262 0014 1143     		orrs	r1, r1, r2
 263              	.LVL17:
 194:.//Libraries/STM32H7xx_HAL_Driver/Src/stm32h7xx_hal_crc_ex.c **** 
 264              		.loc 1 194 3 is_stmt 0 view .LVU59
 265 0016 A160     		str	r1, [r4, #8]
 197:.//Libraries/STM32H7xx_HAL_Driver/Src/stm32h7xx_hal_crc_ex.c **** 
 266              		.loc 1 197 3 is_stmt 1 view .LVU60
 197:.//Libraries/STM32H7xx_HAL_Driver/Src/stm32h7xx_hal_crc_ex.c **** 
 267              		.loc 1 197 15 is_stmt 0 view .LVU61
 268 0018 5D77     		strb	r5, [r3, #29]
 200:.//Libraries/STM32H7xx_HAL_Driver/Src/stm32h7xx_hal_crc_ex.c **** }
 269              		.loc 1 200 3 is_stmt 1 view .LVU62
 270              		.loc 1 201 1 is_stmt 0 view .LVU63
 271 001a 30BC     		pop	{r4, r5}
 272              	.LCFI8:
 273              		.cfi_restore 5
 274              		.cfi_restore 4
 275              		.cfi_def_cfa_offset 0
 276 001c 7047     		bx	lr
 277              		.cfi_endproc
 278              	.LFE146:
ARM GAS  /var/folders/wl/rshn8xbx1dsfj1zgryf4g1240000gn/T//ccUniVTQ.s 			page 10


 280 001e 00BF     		.text
 281              	.Letext0:
 282              		.file 2 "/opt/homebrew/Cellar/arm-none-eabi-gcc/9-2019-q4-major/gcc/arm-none-eabi/include/machine/
 283              		.file 3 "/opt/homebrew/Cellar/arm-none-eabi-gcc/9-2019-q4-major/gcc/arm-none-eabi/include/sys/_std
 284              		.file 4 ".//Libraries/CMSIS/Core/Include/core_cm7.h"
 285              		.file 5 ".//Libraries/CMSIS/Device/ST/STM32H7xx/Include/system_stm32h7xx.h"
 286              		.file 6 ".//Libraries/CMSIS/Device/ST/STM32H7xx/Include/stm32h747xx.h"
 287              		.file 7 "/opt/homebrew/Cellar/arm-none-eabi-gcc/9-2019-q4-major/gcc/arm-none-eabi/include/sys/lock
 288              		.file 8 "/opt/homebrew/Cellar/arm-none-eabi-gcc/9-2019-q4-major/gcc/arm-none-eabi/include/sys/_typ
 289              		.file 9 "/opt/homebrew/Cellar/arm-none-eabi-gcc/9-2019-q4-major/gcc/lib/gcc/arm-none-eabi/9.2.1/in
 290              		.file 10 "/opt/homebrew/Cellar/arm-none-eabi-gcc/9-2019-q4-major/gcc/arm-none-eabi/include/sys/ree
 291              		.file 11 "/opt/homebrew/Cellar/arm-none-eabi-gcc/9-2019-q4-major/gcc/arm-none-eabi/include/math.h"
 292              		.file 12 ".//Libraries/STM32H7xx_HAL_Driver/Inc/stm32h7xx_hal_def.h"
 293              		.file 13 ".//Libraries/STM32H7xx_HAL_Driver/Inc/stm32h7xx_hal_crc.h"
 294              		.file 14 ".//Libraries/STM32H7xx_HAL_Driver/Inc/stm32h7xx_hal_flash.h"
 295              		.file 15 ".//Libraries/STM32H7xx_HAL_Driver/Inc/stm32h7xx_hal_uart.h"
 296              		.file 16 ".//Libraries/STM32H7xx_HAL_Driver/Inc/stm32h7xx_hal.h"
ARM GAS  /var/folders/wl/rshn8xbx1dsfj1zgryf4g1240000gn/T//ccUniVTQ.s 			page 11

