ARM GAS  /var/folders/wl/rshn8xbx1dsfj1zgryf4g1240000gn/T//ccDB4cPk.s 			page 1


   1              		.cpu cortex-m7
   2              		.eabi_attribute 28, 1
   3              		.eabi_attribute 20, 1
   4              		.eabi_attribute 21, 1
   5              		.eabi_attribute 23, 3
   6              		.eabi_attribute 24, 1
   7              		.eabi_attribute 25, 1
   8              		.eabi_attribute 26, 1
   9              		.eabi_attribute 30, 2
  10              		.eabi_attribute 34, 1
  11              		.eabi_attribute 18, 4
  12              		.file	"stm32h7xx_it.c"
  13              		.text
  14              	.Ltext0:
  15              		.cfi_sections	.debug_frame
  16              		.section	.text.NMI_Handler,"ax",%progbits
  17              		.align	1
  18              		.p2align 2,,3
  19              		.global	NMI_Handler
  20              		.arch armv7e-m
  21              		.syntax unified
  22              		.thumb
  23              		.thumb_func
  24              		.fpu fpv5-d16
  26              	NMI_Handler:
  27              	.LFB144:
  28              		.file 1 ".//User/code/Src/stm32h7xx_it.c"
   1:.//User/code/Src/stm32h7xx_it.c **** /* USER CODE BEGIN Header */
   2:.//User/code/Src/stm32h7xx_it.c **** /**
   3:.//User/code/Src/stm32h7xx_it.c ****   ******************************************************************************
   4:.//User/code/Src/stm32h7xx_it.c ****   * @file    stm32h7xx_it.c
   5:.//User/code/Src/stm32h7xx_it.c ****   * @brief   Interrupt Service Routines.
   6:.//User/code/Src/stm32h7xx_it.c ****   ******************************************************************************
   7:.//User/code/Src/stm32h7xx_it.c ****   * @attention
   8:.//User/code/Src/stm32h7xx_it.c ****   *
   9:.//User/code/Src/stm32h7xx_it.c ****   * <h2><center>&copy; Copyright (c) 2021 STMicroelectronics.
  10:.//User/code/Src/stm32h7xx_it.c ****   * All rights reserved.</center></h2>
  11:.//User/code/Src/stm32h7xx_it.c ****   *
  12:.//User/code/Src/stm32h7xx_it.c ****   * This software component is licensed by ST under BSD 3-Clause license,
  13:.//User/code/Src/stm32h7xx_it.c ****   * the "License"; You may not use this file except in compliance with the
  14:.//User/code/Src/stm32h7xx_it.c ****   * License. You may obtain a copy of the License at:
  15:.//User/code/Src/stm32h7xx_it.c ****   *                        opensource.org/licenses/BSD-3-Clause
  16:.//User/code/Src/stm32h7xx_it.c ****   *
  17:.//User/code/Src/stm32h7xx_it.c ****   ******************************************************************************
  18:.//User/code/Src/stm32h7xx_it.c ****   */
  19:.//User/code/Src/stm32h7xx_it.c **** /* USER CODE END Header */
  20:.//User/code/Src/stm32h7xx_it.c **** 
  21:.//User/code/Src/stm32h7xx_it.c **** /* Includes ------------------------------------------------------------------*/
  22:.//User/code/Src/stm32h7xx_it.c **** #include "main.h"
  23:.//User/code/Src/stm32h7xx_it.c **** #include "stm32h7xx_it.h"
  24:.//User/code/Src/stm32h7xx_it.c **** /* Private includes ----------------------------------------------------------*/
  25:.//User/code/Src/stm32h7xx_it.c **** /* USER CODE BEGIN Includes */
  26:.//User/code/Src/stm32h7xx_it.c **** /* USER CODE END Includes */
  27:.//User/code/Src/stm32h7xx_it.c **** 
  28:.//User/code/Src/stm32h7xx_it.c **** /* Private typedef -----------------------------------------------------------*/
  29:.//User/code/Src/stm32h7xx_it.c **** /* USER CODE BEGIN TD */
  30:.//User/code/Src/stm32h7xx_it.c **** 
ARM GAS  /var/folders/wl/rshn8xbx1dsfj1zgryf4g1240000gn/T//ccDB4cPk.s 			page 2


  31:.//User/code/Src/stm32h7xx_it.c **** /* USER CODE END TD */
  32:.//User/code/Src/stm32h7xx_it.c **** 
  33:.//User/code/Src/stm32h7xx_it.c **** /* Private define ------------------------------------------------------------*/
  34:.//User/code/Src/stm32h7xx_it.c **** /* USER CODE BEGIN PD */
  35:.//User/code/Src/stm32h7xx_it.c **** 
  36:.//User/code/Src/stm32h7xx_it.c **** /* USER CODE END PD */
  37:.//User/code/Src/stm32h7xx_it.c **** 
  38:.//User/code/Src/stm32h7xx_it.c **** /* Private macro -------------------------------------------------------------*/
  39:.//User/code/Src/stm32h7xx_it.c **** /* USER CODE BEGIN PM */
  40:.//User/code/Src/stm32h7xx_it.c **** 
  41:.//User/code/Src/stm32h7xx_it.c **** /* USER CODE END PM */
  42:.//User/code/Src/stm32h7xx_it.c **** 
  43:.//User/code/Src/stm32h7xx_it.c **** /* Private variables ---------------------------------------------------------*/
  44:.//User/code/Src/stm32h7xx_it.c **** /* USER CODE BEGIN PV */
  45:.//User/code/Src/stm32h7xx_it.c **** 
  46:.//User/code/Src/stm32h7xx_it.c **** /* USER CODE END PV */
  47:.//User/code/Src/stm32h7xx_it.c **** 
  48:.//User/code/Src/stm32h7xx_it.c **** /* Private function prototypes -----------------------------------------------*/
  49:.//User/code/Src/stm32h7xx_it.c **** /* USER CODE BEGIN PFP */
  50:.//User/code/Src/stm32h7xx_it.c **** 
  51:.//User/code/Src/stm32h7xx_it.c **** /* USER CODE END PFP */
  52:.//User/code/Src/stm32h7xx_it.c **** 
  53:.//User/code/Src/stm32h7xx_it.c **** /* Private user code ---------------------------------------------------------*/
  54:.//User/code/Src/stm32h7xx_it.c **** /* USER CODE BEGIN 0 */
  55:.//User/code/Src/stm32h7xx_it.c **** 
  56:.//User/code/Src/stm32h7xx_it.c **** /* USER CODE END 0 */
  57:.//User/code/Src/stm32h7xx_it.c **** 
  58:.//User/code/Src/stm32h7xx_it.c **** /* External variables --------------------------------------------------------*/
  59:.//User/code/Src/stm32h7xx_it.c **** extern DMA_HandleTypeDef hdma_i2c4_rx;
  60:.//User/code/Src/stm32h7xx_it.c **** extern DMA_HandleTypeDef hdma_i2c4_tx;
  61:.//User/code/Src/stm32h7xx_it.c **** extern TIM_HandleTypeDef htim2;
  62:.//User/code/Src/stm32h7xx_it.c **** 
  63:.//User/code/Src/stm32h7xx_it.c **** /* USER CODE BEGIN EV */
  64:.//User/code/Src/stm32h7xx_it.c **** 
  65:.//User/code/Src/stm32h7xx_it.c **** /* USER CODE END EV */
  66:.//User/code/Src/stm32h7xx_it.c **** 
  67:.//User/code/Src/stm32h7xx_it.c **** /******************************************************************************/
  68:.//User/code/Src/stm32h7xx_it.c **** /*           Cortex Processor Interruption and Exception Handlers          */
  69:.//User/code/Src/stm32h7xx_it.c **** /******************************************************************************/
  70:.//User/code/Src/stm32h7xx_it.c **** /**
  71:.//User/code/Src/stm32h7xx_it.c ****   * @brief This function handles Non maskable interrupt.
  72:.//User/code/Src/stm32h7xx_it.c ****   */
  73:.//User/code/Src/stm32h7xx_it.c **** void NMI_Handler(void)
  74:.//User/code/Src/stm32h7xx_it.c **** {
  29              		.loc 1 74 1 view -0
  30              		.cfi_startproc
  31              		@ Volatile: function does not return.
  32              		@ args = 0, pretend = 0, frame = 0
  33              		@ frame_needed = 0, uses_anonymous_args = 0
  34              		@ link register save eliminated.
  35              	.L2:
  75:.//User/code/Src/stm32h7xx_it.c ****   /* USER CODE BEGIN NonMaskableInt_IRQn 0 */
  76:.//User/code/Src/stm32h7xx_it.c **** 
  77:.//User/code/Src/stm32h7xx_it.c ****   /* USER CODE END NonMaskableInt_IRQn 0 */
  78:.//User/code/Src/stm32h7xx_it.c ****   /* USER CODE BEGIN NonMaskableInt_IRQn 1 */
  79:.//User/code/Src/stm32h7xx_it.c ****   while (1)
  36              		.loc 1 79 3 discriminator 1 view .LVU1
ARM GAS  /var/folders/wl/rshn8xbx1dsfj1zgryf4g1240000gn/T//ccDB4cPk.s 			page 3


  80:.//User/code/Src/stm32h7xx_it.c ****   {
  81:.//User/code/Src/stm32h7xx_it.c ****   }
  37              		.loc 1 81 3 discriminator 1 view .LVU2
  79:.//User/code/Src/stm32h7xx_it.c ****   {
  38              		.loc 1 79 9 discriminator 1 view .LVU3
  39 0000 FEE7     		b	.L2
  40              		.cfi_endproc
  41              	.LFE144:
  43 0002 00BF     		.section	.text.HardFault_Handler,"ax",%progbits
  44              		.align	1
  45              		.p2align 2,,3
  46              		.global	HardFault_Handler
  47              		.syntax unified
  48              		.thumb
  49              		.thumb_func
  50              		.fpu fpv5-d16
  52              	HardFault_Handler:
  53              	.LFB145:
  82:.//User/code/Src/stm32h7xx_it.c ****   /* USER CODE END NonMaskableInt_IRQn 1 */
  83:.//User/code/Src/stm32h7xx_it.c **** }
  84:.//User/code/Src/stm32h7xx_it.c **** 
  85:.//User/code/Src/stm32h7xx_it.c **** /**
  86:.//User/code/Src/stm32h7xx_it.c ****   * @brief This function handles Hard fault interrupt.
  87:.//User/code/Src/stm32h7xx_it.c ****   */
  88:.//User/code/Src/stm32h7xx_it.c **** void HardFault_Handler(void)
  89:.//User/code/Src/stm32h7xx_it.c **** {
  54              		.loc 1 89 1 view -0
  55              		.cfi_startproc
  56              		@ Volatile: function does not return.
  57              		@ args = 0, pretend = 0, frame = 0
  58              		@ frame_needed = 0, uses_anonymous_args = 0
  59              		@ link register save eliminated.
  60              	.L5:
  90:.//User/code/Src/stm32h7xx_it.c ****   /* USER CODE BEGIN HardFault_IRQn 0 */
  91:.//User/code/Src/stm32h7xx_it.c **** 
  92:.//User/code/Src/stm32h7xx_it.c ****   /* USER CODE END HardFault_IRQn 0 */
  93:.//User/code/Src/stm32h7xx_it.c ****   while (1)
  61              		.loc 1 93 3 discriminator 1 view .LVU5
  94:.//User/code/Src/stm32h7xx_it.c ****   {
  95:.//User/code/Src/stm32h7xx_it.c ****     /* USER CODE BEGIN W1_HardFault_IRQn 0 */
  96:.//User/code/Src/stm32h7xx_it.c ****     /* USER CODE END W1_HardFault_IRQn 0 */
  97:.//User/code/Src/stm32h7xx_it.c ****   }
  62              		.loc 1 97 3 discriminator 1 view .LVU6
  93:.//User/code/Src/stm32h7xx_it.c ****   {
  63              		.loc 1 93 9 discriminator 1 view .LVU7
  64 0000 FEE7     		b	.L5
  65              		.cfi_endproc
  66              	.LFE145:
  68 0002 00BF     		.section	.text.MemManage_Handler,"ax",%progbits
  69              		.align	1
  70              		.p2align 2,,3
  71              		.global	MemManage_Handler
  72              		.syntax unified
  73              		.thumb
  74              		.thumb_func
  75              		.fpu fpv5-d16
  77              	MemManage_Handler:
ARM GAS  /var/folders/wl/rshn8xbx1dsfj1zgryf4g1240000gn/T//ccDB4cPk.s 			page 4


  78              	.LFB146:
  98:.//User/code/Src/stm32h7xx_it.c **** }
  99:.//User/code/Src/stm32h7xx_it.c **** 
 100:.//User/code/Src/stm32h7xx_it.c **** /**
 101:.//User/code/Src/stm32h7xx_it.c ****   * @brief This function handles Memory management fault.
 102:.//User/code/Src/stm32h7xx_it.c ****   */
 103:.//User/code/Src/stm32h7xx_it.c **** void MemManage_Handler(void)
 104:.//User/code/Src/stm32h7xx_it.c **** {
  79              		.loc 1 104 1 view -0
  80              		.cfi_startproc
  81              		@ Volatile: function does not return.
  82              		@ args = 0, pretend = 0, frame = 0
  83              		@ frame_needed = 0, uses_anonymous_args = 0
  84              		@ link register save eliminated.
  85              	.L7:
 105:.//User/code/Src/stm32h7xx_it.c ****   /* USER CODE BEGIN MemoryManagement_IRQn 0 */
 106:.//User/code/Src/stm32h7xx_it.c **** 
 107:.//User/code/Src/stm32h7xx_it.c ****   /* USER CODE END MemoryManagement_IRQn 0 */
 108:.//User/code/Src/stm32h7xx_it.c ****   while (1)
  86              		.loc 1 108 3 discriminator 1 view .LVU9
 109:.//User/code/Src/stm32h7xx_it.c ****   {
 110:.//User/code/Src/stm32h7xx_it.c ****     /* USER CODE BEGIN W1_MemoryManagement_IRQn 0 */
 111:.//User/code/Src/stm32h7xx_it.c ****     /* USER CODE END W1_MemoryManagement_IRQn 0 */
 112:.//User/code/Src/stm32h7xx_it.c ****   }
  87              		.loc 1 112 3 discriminator 1 view .LVU10
 108:.//User/code/Src/stm32h7xx_it.c ****   {
  88              		.loc 1 108 9 discriminator 1 view .LVU11
  89 0000 FEE7     		b	.L7
  90              		.cfi_endproc
  91              	.LFE146:
  93 0002 00BF     		.section	.text.BusFault_Handler,"ax",%progbits
  94              		.align	1
  95              		.p2align 2,,3
  96              		.global	BusFault_Handler
  97              		.syntax unified
  98              		.thumb
  99              		.thumb_func
 100              		.fpu fpv5-d16
 102              	BusFault_Handler:
 103              	.LFB147:
 113:.//User/code/Src/stm32h7xx_it.c **** }
 114:.//User/code/Src/stm32h7xx_it.c **** 
 115:.//User/code/Src/stm32h7xx_it.c **** /**
 116:.//User/code/Src/stm32h7xx_it.c ****   * @brief This function handles Pre-fetch fault, memory access fault.
 117:.//User/code/Src/stm32h7xx_it.c ****   */
 118:.//User/code/Src/stm32h7xx_it.c **** void BusFault_Handler(void)
 119:.//User/code/Src/stm32h7xx_it.c **** {
 104              		.loc 1 119 1 view -0
 105              		.cfi_startproc
 106              		@ Volatile: function does not return.
 107              		@ args = 0, pretend = 0, frame = 0
 108              		@ frame_needed = 0, uses_anonymous_args = 0
 109              		@ link register save eliminated.
 110              	.L9:
 120:.//User/code/Src/stm32h7xx_it.c ****   /* USER CODE BEGIN BusFault_IRQn 0 */
 121:.//User/code/Src/stm32h7xx_it.c **** 
 122:.//User/code/Src/stm32h7xx_it.c ****   /* USER CODE END BusFault_IRQn 0 */
ARM GAS  /var/folders/wl/rshn8xbx1dsfj1zgryf4g1240000gn/T//ccDB4cPk.s 			page 5


 123:.//User/code/Src/stm32h7xx_it.c ****   while (1)
 111              		.loc 1 123 3 discriminator 1 view .LVU13
 124:.//User/code/Src/stm32h7xx_it.c ****   {
 125:.//User/code/Src/stm32h7xx_it.c ****     /* USER CODE BEGIN W1_BusFault_IRQn 0 */
 126:.//User/code/Src/stm32h7xx_it.c ****     /* USER CODE END W1_BusFault_IRQn 0 */
 127:.//User/code/Src/stm32h7xx_it.c ****   }
 112              		.loc 1 127 3 discriminator 1 view .LVU14
 123:.//User/code/Src/stm32h7xx_it.c ****   {
 113              		.loc 1 123 9 discriminator 1 view .LVU15
 114 0000 FEE7     		b	.L9
 115              		.cfi_endproc
 116              	.LFE147:
 118 0002 00BF     		.section	.text.UsageFault_Handler,"ax",%progbits
 119              		.align	1
 120              		.p2align 2,,3
 121              		.global	UsageFault_Handler
 122              		.syntax unified
 123              		.thumb
 124              		.thumb_func
 125              		.fpu fpv5-d16
 127              	UsageFault_Handler:
 128              	.LFB148:
 128:.//User/code/Src/stm32h7xx_it.c **** }
 129:.//User/code/Src/stm32h7xx_it.c **** 
 130:.//User/code/Src/stm32h7xx_it.c **** /**
 131:.//User/code/Src/stm32h7xx_it.c ****   * @brief This function handles Undefined instruction or illegal state.
 132:.//User/code/Src/stm32h7xx_it.c ****   */
 133:.//User/code/Src/stm32h7xx_it.c **** void UsageFault_Handler(void)
 134:.//User/code/Src/stm32h7xx_it.c **** {
 129              		.loc 1 134 1 view -0
 130              		.cfi_startproc
 131              		@ Volatile: function does not return.
 132              		@ args = 0, pretend = 0, frame = 0
 133              		@ frame_needed = 0, uses_anonymous_args = 0
 134              		@ link register save eliminated.
 135              	.L11:
 135:.//User/code/Src/stm32h7xx_it.c ****   /* USER CODE BEGIN UsageFault_IRQn 0 */
 136:.//User/code/Src/stm32h7xx_it.c **** 
 137:.//User/code/Src/stm32h7xx_it.c ****   /* USER CODE END UsageFault_IRQn 0 */
 138:.//User/code/Src/stm32h7xx_it.c ****   while (1)
 136              		.loc 1 138 3 discriminator 1 view .LVU17
 139:.//User/code/Src/stm32h7xx_it.c ****   {
 140:.//User/code/Src/stm32h7xx_it.c ****     /* USER CODE BEGIN W1_UsageFault_IRQn 0 */
 141:.//User/code/Src/stm32h7xx_it.c ****     /* USER CODE END W1_UsageFault_IRQn 0 */
 142:.//User/code/Src/stm32h7xx_it.c ****   }
 137              		.loc 1 142 3 discriminator 1 view .LVU18
 138:.//User/code/Src/stm32h7xx_it.c ****   {
 138              		.loc 1 138 9 discriminator 1 view .LVU19
 139 0000 FEE7     		b	.L11
 140              		.cfi_endproc
 141              	.LFE148:
 143 0002 00BF     		.section	.text.DebugMon_Handler,"ax",%progbits
 144              		.align	1
 145              		.p2align 2,,3
 146              		.global	DebugMon_Handler
 147              		.syntax unified
 148              		.thumb
ARM GAS  /var/folders/wl/rshn8xbx1dsfj1zgryf4g1240000gn/T//ccDB4cPk.s 			page 6


 149              		.thumb_func
 150              		.fpu fpv5-d16
 152              	DebugMon_Handler:
 153              	.LFB149:
 143:.//User/code/Src/stm32h7xx_it.c **** }
 144:.//User/code/Src/stm32h7xx_it.c **** 
 145:.//User/code/Src/stm32h7xx_it.c **** /**
 146:.//User/code/Src/stm32h7xx_it.c ****   * @brief This function handles Debug monitor.
 147:.//User/code/Src/stm32h7xx_it.c ****   */
 148:.//User/code/Src/stm32h7xx_it.c **** void DebugMon_Handler(void)
 149:.//User/code/Src/stm32h7xx_it.c **** {
 154              		.loc 1 149 1 view -0
 155              		.cfi_startproc
 156              		@ args = 0, pretend = 0, frame = 0
 157              		@ frame_needed = 0, uses_anonymous_args = 0
 158              		@ link register save eliminated.
 150:.//User/code/Src/stm32h7xx_it.c ****   /* USER CODE BEGIN DebugMonitor_IRQn 0 */
 151:.//User/code/Src/stm32h7xx_it.c **** 
 152:.//User/code/Src/stm32h7xx_it.c ****   /* USER CODE END DebugMonitor_IRQn 0 */
 153:.//User/code/Src/stm32h7xx_it.c ****   /* USER CODE BEGIN DebugMonitor_IRQn 1 */
 154:.//User/code/Src/stm32h7xx_it.c **** 
 155:.//User/code/Src/stm32h7xx_it.c ****   /* USER CODE END DebugMonitor_IRQn 1 */
 156:.//User/code/Src/stm32h7xx_it.c **** }
 159              		.loc 1 156 1 view .LVU21
 160 0000 7047     		bx	lr
 161              		.cfi_endproc
 162              	.LFE149:
 164 0002 00BF     		.section	.text.TIM2_IRQHandler,"ax",%progbits
 165              		.align	1
 166              		.p2align 2,,3
 167              		.global	TIM2_IRQHandler
 168              		.syntax unified
 169              		.thumb
 170              		.thumb_func
 171              		.fpu fpv5-d16
 173              	TIM2_IRQHandler:
 174              	.LFB150:
 157:.//User/code/Src/stm32h7xx_it.c **** 
 158:.//User/code/Src/stm32h7xx_it.c **** /******************************************************************************/
 159:.//User/code/Src/stm32h7xx_it.c **** /* STM32H7xx Peripheral Interrupt Handlers                                    */
 160:.//User/code/Src/stm32h7xx_it.c **** /* Add here the Interrupt Handlers for the used peripherals.                  */
 161:.//User/code/Src/stm32h7xx_it.c **** /* For the available peripheral interrupt handler names,                      */
 162:.//User/code/Src/stm32h7xx_it.c **** /* please refer to the startup file (startup_stm32h7xx.s).                    */
 163:.//User/code/Src/stm32h7xx_it.c **** /******************************************************************************/
 164:.//User/code/Src/stm32h7xx_it.c **** 
 165:.//User/code/Src/stm32h7xx_it.c **** /**
 166:.//User/code/Src/stm32h7xx_it.c ****   * @brief This function handles TIM2 global interrupt.
 167:.//User/code/Src/stm32h7xx_it.c ****   */
 168:.//User/code/Src/stm32h7xx_it.c **** void TIM2_IRQHandler(void)
 169:.//User/code/Src/stm32h7xx_it.c **** {
 175              		.loc 1 169 1 view -0
 176              		.cfi_startproc
 177              		@ args = 0, pretend = 0, frame = 0
 178              		@ frame_needed = 0, uses_anonymous_args = 0
 179              		@ link register save eliminated.
 170:.//User/code/Src/stm32h7xx_it.c ****   /* USER CODE BEGIN TIM2_IRQn 0 */
 171:.//User/code/Src/stm32h7xx_it.c **** 
ARM GAS  /var/folders/wl/rshn8xbx1dsfj1zgryf4g1240000gn/T//ccDB4cPk.s 			page 7


 172:.//User/code/Src/stm32h7xx_it.c ****   /* USER CODE END TIM2_IRQn 0 */
 173:.//User/code/Src/stm32h7xx_it.c ****   HAL_TIM_IRQHandler(&htim2);
 180              		.loc 1 173 3 view .LVU23
 181 0000 0148     		ldr	r0, .L14
 182 0002 FFF7FEBF 		b	HAL_TIM_IRQHandler
 183              	.LVL0:
 184              	.L15:
 185 0006 00BF     		.align	2
 186              	.L14:
 187 0008 00000000 		.word	htim2
 188              		.cfi_endproc
 189              	.LFE150:
 191              		.section	.text.BDMA_Channel0_IRQHandler,"ax",%progbits
 192              		.align	1
 193              		.p2align 2,,3
 194              		.global	BDMA_Channel0_IRQHandler
 195              		.syntax unified
 196              		.thumb
 197              		.thumb_func
 198              		.fpu fpv5-d16
 200              	BDMA_Channel0_IRQHandler:
 201              	.LFB151:
 174:.//User/code/Src/stm32h7xx_it.c ****   /* USER CODE BEGIN TIM2_IRQn 1 */
 175:.//User/code/Src/stm32h7xx_it.c **** 
 176:.//User/code/Src/stm32h7xx_it.c ****   /* USER CODE END TIM2_IRQn 1 */
 177:.//User/code/Src/stm32h7xx_it.c **** }
 178:.//User/code/Src/stm32h7xx_it.c **** 
 179:.//User/code/Src/stm32h7xx_it.c **** /**
 180:.//User/code/Src/stm32h7xx_it.c ****   * @brief This function handles BDMA channel0 global interrupt.
 181:.//User/code/Src/stm32h7xx_it.c ****   */
 182:.//User/code/Src/stm32h7xx_it.c **** void BDMA_Channel0_IRQHandler(void)
 183:.//User/code/Src/stm32h7xx_it.c **** {
 202              		.loc 1 183 1 view -0
 203              		.cfi_startproc
 204              		@ args = 0, pretend = 0, frame = 0
 205              		@ frame_needed = 0, uses_anonymous_args = 0
 206              		@ link register save eliminated.
 184:.//User/code/Src/stm32h7xx_it.c ****   /* USER CODE BEGIN BDMA_Channel0_IRQn 0 */
 185:.//User/code/Src/stm32h7xx_it.c **** 
 186:.//User/code/Src/stm32h7xx_it.c ****   /* USER CODE END BDMA_Channel0_IRQn 0 */
 187:.//User/code/Src/stm32h7xx_it.c ****   HAL_DMA_IRQHandler(&hdma_i2c4_rx);
 207              		.loc 1 187 3 view .LVU25
 208 0000 0148     		ldr	r0, .L17
 209 0002 FFF7FEBF 		b	HAL_DMA_IRQHandler
 210              	.LVL1:
 211              	.L18:
 212 0006 00BF     		.align	2
 213              	.L17:
 214 0008 00000000 		.word	hdma_i2c4_rx
 215              		.cfi_endproc
 216              	.LFE151:
 218              		.section	.text.BDMA_Channel1_IRQHandler,"ax",%progbits
 219              		.align	1
 220              		.p2align 2,,3
 221              		.global	BDMA_Channel1_IRQHandler
 222              		.syntax unified
 223              		.thumb
ARM GAS  /var/folders/wl/rshn8xbx1dsfj1zgryf4g1240000gn/T//ccDB4cPk.s 			page 8


 224              		.thumb_func
 225              		.fpu fpv5-d16
 227              	BDMA_Channel1_IRQHandler:
 228              	.LFB152:
 188:.//User/code/Src/stm32h7xx_it.c ****   /* USER CODE BEGIN BDMA_Channel0_IRQn 1 */
 189:.//User/code/Src/stm32h7xx_it.c **** 
 190:.//User/code/Src/stm32h7xx_it.c ****   /* USER CODE END BDMA_Channel0_IRQn 1 */
 191:.//User/code/Src/stm32h7xx_it.c **** }
 192:.//User/code/Src/stm32h7xx_it.c **** 
 193:.//User/code/Src/stm32h7xx_it.c **** /**
 194:.//User/code/Src/stm32h7xx_it.c ****   * @brief This function handles BDMA channel1 global interrupt.
 195:.//User/code/Src/stm32h7xx_it.c ****   */
 196:.//User/code/Src/stm32h7xx_it.c **** void BDMA_Channel1_IRQHandler(void)
 197:.//User/code/Src/stm32h7xx_it.c **** {
 229              		.loc 1 197 1 view -0
 230              		.cfi_startproc
 231              		@ args = 0, pretend = 0, frame = 0
 232              		@ frame_needed = 0, uses_anonymous_args = 0
 233              		@ link register save eliminated.
 198:.//User/code/Src/stm32h7xx_it.c ****   /* USER CODE BEGIN BDMA_Channel1_IRQn 0 */
 199:.//User/code/Src/stm32h7xx_it.c **** 
 200:.//User/code/Src/stm32h7xx_it.c ****   /* USER CODE END BDMA_Channel1_IRQn 0 */
 201:.//User/code/Src/stm32h7xx_it.c ****   HAL_DMA_IRQHandler(&hdma_i2c4_tx);
 234              		.loc 1 201 3 view .LVU27
 235 0000 0148     		ldr	r0, .L20
 236 0002 FFF7FEBF 		b	HAL_DMA_IRQHandler
 237              	.LVL2:
 238              	.L21:
 239 0006 00BF     		.align	2
 240              	.L20:
 241 0008 00000000 		.word	hdma_i2c4_tx
 242              		.cfi_endproc
 243              	.LFE152:
 245              		.text
 246              	.Letext0:
 247              		.file 2 "/opt/homebrew/Cellar/arm-none-eabi-gcc/9-2019-q4-major/gcc/arm-none-eabi/include/machine/
 248              		.file 3 "/opt/homebrew/Cellar/arm-none-eabi-gcc/9-2019-q4-major/gcc/arm-none-eabi/include/sys/_std
 249              		.file 4 ".//Libraries/CMSIS/Core/Include/core_cm7.h"
 250              		.file 5 ".//Libraries/CMSIS/Device/ST/STM32H7xx/Include/system_stm32h7xx.h"
 251              		.file 6 ".//Libraries/CMSIS/Device/ST/STM32H7xx/Include/stm32h747xx.h"
 252              		.file 7 "/opt/homebrew/Cellar/arm-none-eabi-gcc/9-2019-q4-major/gcc/arm-none-eabi/include/sys/lock
 253              		.file 8 "/opt/homebrew/Cellar/arm-none-eabi-gcc/9-2019-q4-major/gcc/arm-none-eabi/include/sys/_typ
 254              		.file 9 "/opt/homebrew/Cellar/arm-none-eabi-gcc/9-2019-q4-major/gcc/lib/gcc/arm-none-eabi/9.2.1/in
 255              		.file 10 "/opt/homebrew/Cellar/arm-none-eabi-gcc/9-2019-q4-major/gcc/arm-none-eabi/include/sys/ree
 256              		.file 11 "/opt/homebrew/Cellar/arm-none-eabi-gcc/9-2019-q4-major/gcc/arm-none-eabi/include/math.h"
 257              		.file 12 ".//Libraries/STM32H7xx_HAL_Driver/Inc/stm32h7xx_hal_def.h"
 258              		.file 13 ".//Libraries/STM32H7xx_HAL_Driver/Inc/stm32h7xx_hal_dma.h"
 259              		.file 14 ".//Libraries/STM32H7xx_HAL_Driver/Inc/stm32h7xx_hal_flash.h"
 260              		.file 15 ".//Libraries/STM32H7xx_HAL_Driver/Inc/stm32h7xx_hal_tim.h"
 261              		.file 16 ".//Libraries/STM32H7xx_HAL_Driver/Inc/stm32h7xx_hal_uart.h"
 262              		.file 17 ".//Libraries/STM32H7xx_HAL_Driver/Inc/stm32h7xx_hal.h"
ARM GAS  /var/folders/wl/rshn8xbx1dsfj1zgryf4g1240000gn/T//ccDB4cPk.s 			page 9

