ARM GAS  /tmp/ccUwcR4B.s 			page 1


   1              		.cpu cortex-m7
   2              		.eabi_attribute 28, 1
   3              		.eabi_attribute 20, 1
   4              		.eabi_attribute 21, 1
   5              		.eabi_attribute 23, 3
   6              		.eabi_attribute 24, 1
   7              		.eabi_attribute 25, 1
   8              		.eabi_attribute 26, 1
   9              		.eabi_attribute 30, 6
  10              		.eabi_attribute 34, 1
  11              		.eabi_attribute 18, 4
  12              		.file	"stm32h7xx_ll_sdmmc.c"
  13              		.text
  14              	.Ltext0:
  15              		.cfi_sections	.debug_frame
  16              		.section	.text.SDMMC_Init,"ax",%progbits
  17              		.align	1
  18              		.global	SDMMC_Init
  19              		.arch armv7e-m
  20              		.syntax unified
  21              		.thumb
  22              		.thumb_func
  23              		.fpu fpv5-d16
  25              	SDMMC_Init:
  26              	.LFB331:
  27              		.file 1 "./Libraries/STM32H7xx_HAL_Driver/Src/stm32h7xx_ll_sdmmc.c"
   1:./Libraries/STM32H7xx_HAL_Driver/Src/stm32h7xx_ll_sdmmc.c **** /**
   2:./Libraries/STM32H7xx_HAL_Driver/Src/stm32h7xx_ll_sdmmc.c ****   ******************************************************************************
   3:./Libraries/STM32H7xx_HAL_Driver/Src/stm32h7xx_ll_sdmmc.c ****   * @file    stm32h7xx_ll_sdmmc.c
   4:./Libraries/STM32H7xx_HAL_Driver/Src/stm32h7xx_ll_sdmmc.c ****   * @author  MCD Application Team
   5:./Libraries/STM32H7xx_HAL_Driver/Src/stm32h7xx_ll_sdmmc.c ****   * @brief   SDMMC Low Layer HAL module driver.
   6:./Libraries/STM32H7xx_HAL_Driver/Src/stm32h7xx_ll_sdmmc.c ****   *
   7:./Libraries/STM32H7xx_HAL_Driver/Src/stm32h7xx_ll_sdmmc.c ****   *          This file provides firmware functions to manage the following
   8:./Libraries/STM32H7xx_HAL_Driver/Src/stm32h7xx_ll_sdmmc.c ****   *          functionalities of the SDMMC peripheral:
   9:./Libraries/STM32H7xx_HAL_Driver/Src/stm32h7xx_ll_sdmmc.c ****   *           + Initialization/de-initialization functions
  10:./Libraries/STM32H7xx_HAL_Driver/Src/stm32h7xx_ll_sdmmc.c ****   *           + I/O operation functions
  11:./Libraries/STM32H7xx_HAL_Driver/Src/stm32h7xx_ll_sdmmc.c ****   *           + Peripheral Control functions
  12:./Libraries/STM32H7xx_HAL_Driver/Src/stm32h7xx_ll_sdmmc.c ****   *           + Peripheral State functions
  13:./Libraries/STM32H7xx_HAL_Driver/Src/stm32h7xx_ll_sdmmc.c ****   *
  14:./Libraries/STM32H7xx_HAL_Driver/Src/stm32h7xx_ll_sdmmc.c ****   @verbatim
  15:./Libraries/STM32H7xx_HAL_Driver/Src/stm32h7xx_ll_sdmmc.c ****   ==============================================================================
  16:./Libraries/STM32H7xx_HAL_Driver/Src/stm32h7xx_ll_sdmmc.c ****                        ##### SDMMC peripheral features #####
  17:./Libraries/STM32H7xx_HAL_Driver/Src/stm32h7xx_ll_sdmmc.c ****   ==============================================================================
  18:./Libraries/STM32H7xx_HAL_Driver/Src/stm32h7xx_ll_sdmmc.c ****     [..] The SD/SDMMC MMC card host interface (SDMMC) provides an interface between the AHB
  19:./Libraries/STM32H7xx_HAL_Driver/Src/stm32h7xx_ll_sdmmc.c ****          peripheral bus and MultiMedia cards (MMCs), SD memory cards, SDMMC cards and CE-ATA
  20:./Libraries/STM32H7xx_HAL_Driver/Src/stm32h7xx_ll_sdmmc.c ****          devices.
  21:./Libraries/STM32H7xx_HAL_Driver/Src/stm32h7xx_ll_sdmmc.c **** 
  22:./Libraries/STM32H7xx_HAL_Driver/Src/stm32h7xx_ll_sdmmc.c ****     [..] The SDMMC features include the following:
  23:./Libraries/STM32H7xx_HAL_Driver/Src/stm32h7xx_ll_sdmmc.c ****          (+) Full compliance with MultiMediaCard System Specification Version 4.51. Card support
  24:./Libraries/STM32H7xx_HAL_Driver/Src/stm32h7xx_ll_sdmmc.c ****              for three different databus modes: 1-bit (default), 4-bit and 8-bit.
  25:./Libraries/STM32H7xx_HAL_Driver/Src/stm32h7xx_ll_sdmmc.c ****          (+) Full compatibility with previous versions of MultiMediaCards (backward compatibility).
  26:./Libraries/STM32H7xx_HAL_Driver/Src/stm32h7xx_ll_sdmmc.c ****          (+) Full compliance with SD memory card specifications version 4.1.
  27:./Libraries/STM32H7xx_HAL_Driver/Src/stm32h7xx_ll_sdmmc.c ****              (SDR104 SDMMC_CK speed limited to maximum allowed IO speed, SPI mode and
  28:./Libraries/STM32H7xx_HAL_Driver/Src/stm32h7xx_ll_sdmmc.c ****               UHS-II mode not supported).
  29:./Libraries/STM32H7xx_HAL_Driver/Src/stm32h7xx_ll_sdmmc.c ****          (+) Full compliance with SDIO card specification version 4.0. Card support
  30:./Libraries/STM32H7xx_HAL_Driver/Src/stm32h7xx_ll_sdmmc.c ****              for two different databus modes: 1-bit (default) and 4-bit.
  31:./Libraries/STM32H7xx_HAL_Driver/Src/stm32h7xx_ll_sdmmc.c ****              (SDR104 SDMMC_CK speed limited to maximum allowed IO speed, SPI mode and
ARM GAS  /tmp/ccUwcR4B.s 			page 2


  32:./Libraries/STM32H7xx_HAL_Driver/Src/stm32h7xx_ll_sdmmc.c ****               UHS-II mode not supported).
  33:./Libraries/STM32H7xx_HAL_Driver/Src/stm32h7xx_ll_sdmmc.c ****          (+) Data transfer up to 208 Mbyte/s for the 8 bit mode. (depending maximum allowed IO spee
  34:./Libraries/STM32H7xx_HAL_Driver/Src/stm32h7xx_ll_sdmmc.c ****          (+) Data and command output enable signals to control external bidirectional drivers
  35:./Libraries/STM32H7xx_HAL_Driver/Src/stm32h7xx_ll_sdmmc.c **** 
  36:./Libraries/STM32H7xx_HAL_Driver/Src/stm32h7xx_ll_sdmmc.c ****                            ##### How to use this driver #####
  37:./Libraries/STM32H7xx_HAL_Driver/Src/stm32h7xx_ll_sdmmc.c ****   ==============================================================================
  38:./Libraries/STM32H7xx_HAL_Driver/Src/stm32h7xx_ll_sdmmc.c ****     [..]
  39:./Libraries/STM32H7xx_HAL_Driver/Src/stm32h7xx_ll_sdmmc.c ****       This driver is a considered as a driver of service for external devices drivers
  40:./Libraries/STM32H7xx_HAL_Driver/Src/stm32h7xx_ll_sdmmc.c ****       that interfaces with the SDMMC peripheral.
  41:./Libraries/STM32H7xx_HAL_Driver/Src/stm32h7xx_ll_sdmmc.c ****       According to the device used (SD card/ MMC card / SDMMC card ...), a set of APIs
  42:./Libraries/STM32H7xx_HAL_Driver/Src/stm32h7xx_ll_sdmmc.c ****       is used in the device's driver to perform SDMMC operations and functionalities.
  43:./Libraries/STM32H7xx_HAL_Driver/Src/stm32h7xx_ll_sdmmc.c **** 
  44:./Libraries/STM32H7xx_HAL_Driver/Src/stm32h7xx_ll_sdmmc.c ****       This driver is almost transparent for the final user, it is only used to implement other
  45:./Libraries/STM32H7xx_HAL_Driver/Src/stm32h7xx_ll_sdmmc.c ****       functionalities of the external device.
  46:./Libraries/STM32H7xx_HAL_Driver/Src/stm32h7xx_ll_sdmmc.c **** 
  47:./Libraries/STM32H7xx_HAL_Driver/Src/stm32h7xx_ll_sdmmc.c ****     [..]
  48:./Libraries/STM32H7xx_HAL_Driver/Src/stm32h7xx_ll_sdmmc.c ****       (+) The SDMMC clock is coming from output of PLL1_Q or PLL2_R.
  49:./Libraries/STM32H7xx_HAL_Driver/Src/stm32h7xx_ll_sdmmc.c ****        Before start working with SDMMC peripheral make sure that the PLL is well configured.
  50:./Libraries/STM32H7xx_HAL_Driver/Src/stm32h7xx_ll_sdmmc.c ****           The SDMMC peripheral uses two clock signals:
  51:./Libraries/STM32H7xx_HAL_Driver/Src/stm32h7xx_ll_sdmmc.c ****           (++) PLL1_Q bus clock (default after reset)
  52:./Libraries/STM32H7xx_HAL_Driver/Src/stm32h7xx_ll_sdmmc.c ****           (++) PLL2_R bus clock
  53:./Libraries/STM32H7xx_HAL_Driver/Src/stm32h7xx_ll_sdmmc.c **** 
  54:./Libraries/STM32H7xx_HAL_Driver/Src/stm32h7xx_ll_sdmmc.c ****       (+) Enable/Disable peripheral clock using RCC peripheral macros related to SDMMC
  55:./Libraries/STM32H7xx_HAL_Driver/Src/stm32h7xx_ll_sdmmc.c ****           peripheral.
  56:./Libraries/STM32H7xx_HAL_Driver/Src/stm32h7xx_ll_sdmmc.c **** 
  57:./Libraries/STM32H7xx_HAL_Driver/Src/stm32h7xx_ll_sdmmc.c ****       (+) Enable the Power ON State using the SDMMC_PowerState_ON(SDMMCx)
  58:./Libraries/STM32H7xx_HAL_Driver/Src/stm32h7xx_ll_sdmmc.c ****           function and disable it using the function SDMMC_PowerState_OFF(SDMMCx).
  59:./Libraries/STM32H7xx_HAL_Driver/Src/stm32h7xx_ll_sdmmc.c **** 
  60:./Libraries/STM32H7xx_HAL_Driver/Src/stm32h7xx_ll_sdmmc.c ****       (+) Enable/Disable the peripheral interrupts using the macros __SDMMC_ENABLE_IT(hSDMMC, IT)
  61:./Libraries/STM32H7xx_HAL_Driver/Src/stm32h7xx_ll_sdmmc.c ****           and __SDMMC_DISABLE_IT(hSDMMC, IT) if you need to use interrupt mode.
  62:./Libraries/STM32H7xx_HAL_Driver/Src/stm32h7xx_ll_sdmmc.c **** 
  63:./Libraries/STM32H7xx_HAL_Driver/Src/stm32h7xx_ll_sdmmc.c ****       (+) When using the DMA mode
  64:./Libraries/STM32H7xx_HAL_Driver/Src/stm32h7xx_ll_sdmmc.c ****           (++) Configure the IDMA mode (Single buffer or double)
  65:./Libraries/STM32H7xx_HAL_Driver/Src/stm32h7xx_ll_sdmmc.c ****           (++) Configure the buffer address
  66:./Libraries/STM32H7xx_HAL_Driver/Src/stm32h7xx_ll_sdmmc.c ****           (++) Configure Data Path State Machine
  67:./Libraries/STM32H7xx_HAL_Driver/Src/stm32h7xx_ll_sdmmc.c **** 
  68:./Libraries/STM32H7xx_HAL_Driver/Src/stm32h7xx_ll_sdmmc.c ****       (+) To control the CPSM (Command Path State Machine) and send
  69:./Libraries/STM32H7xx_HAL_Driver/Src/stm32h7xx_ll_sdmmc.c ****           commands to the card use the SDMMC_SendCommand(SDMMCx),
  70:./Libraries/STM32H7xx_HAL_Driver/Src/stm32h7xx_ll_sdmmc.c ****           SDMMC_GetCommandResponse() and SDMMC_GetResponse() functions. First, user has
  71:./Libraries/STM32H7xx_HAL_Driver/Src/stm32h7xx_ll_sdmmc.c ****           to fill the command structure (pointer to SDMMC_CmdInitTypeDef) according
  72:./Libraries/STM32H7xx_HAL_Driver/Src/stm32h7xx_ll_sdmmc.c ****           to the selected command to be sent.
  73:./Libraries/STM32H7xx_HAL_Driver/Src/stm32h7xx_ll_sdmmc.c ****           The parameters that should be filled are:
  74:./Libraries/STM32H7xx_HAL_Driver/Src/stm32h7xx_ll_sdmmc.c ****            (++) Command Argument
  75:./Libraries/STM32H7xx_HAL_Driver/Src/stm32h7xx_ll_sdmmc.c ****            (++) Command Index
  76:./Libraries/STM32H7xx_HAL_Driver/Src/stm32h7xx_ll_sdmmc.c ****            (++) Command Response type
  77:./Libraries/STM32H7xx_HAL_Driver/Src/stm32h7xx_ll_sdmmc.c ****            (++) Command Wait
  78:./Libraries/STM32H7xx_HAL_Driver/Src/stm32h7xx_ll_sdmmc.c ****            (++) CPSM Status (Enable or Disable).
  79:./Libraries/STM32H7xx_HAL_Driver/Src/stm32h7xx_ll_sdmmc.c **** 
  80:./Libraries/STM32H7xx_HAL_Driver/Src/stm32h7xx_ll_sdmmc.c ****           -@@- To check if the command is well received, read the SDMMC_CMDRESP
  81:./Libraries/STM32H7xx_HAL_Driver/Src/stm32h7xx_ll_sdmmc.c ****               register using the SDMMC_GetCommandResponse().
  82:./Libraries/STM32H7xx_HAL_Driver/Src/stm32h7xx_ll_sdmmc.c ****               The SDMMC responses registers (SDMMC_RESP1 to SDMMC_RESP2), use the
  83:./Libraries/STM32H7xx_HAL_Driver/Src/stm32h7xx_ll_sdmmc.c ****               SDMMC_GetResponse() function.
  84:./Libraries/STM32H7xx_HAL_Driver/Src/stm32h7xx_ll_sdmmc.c **** 
  85:./Libraries/STM32H7xx_HAL_Driver/Src/stm32h7xx_ll_sdmmc.c ****       (+) To control the DPSM (Data Path State Machine) and send/receive
  86:./Libraries/STM32H7xx_HAL_Driver/Src/stm32h7xx_ll_sdmmc.c ****            data to/from the card use the SDMMC_DataConfig(), SDMMC_GetDataCounter(),
  87:./Libraries/STM32H7xx_HAL_Driver/Src/stm32h7xx_ll_sdmmc.c ****           SDMMC_ReadFIFO(), SDMMC_WriteFIFO() and SDMMC_GetFIFOCount() functions.
  88:./Libraries/STM32H7xx_HAL_Driver/Src/stm32h7xx_ll_sdmmc.c **** 
ARM GAS  /tmp/ccUwcR4B.s 			page 3


  89:./Libraries/STM32H7xx_HAL_Driver/Src/stm32h7xx_ll_sdmmc.c ****     *** Read Operations ***
  90:./Libraries/STM32H7xx_HAL_Driver/Src/stm32h7xx_ll_sdmmc.c ****     =======================
  91:./Libraries/STM32H7xx_HAL_Driver/Src/stm32h7xx_ll_sdmmc.c ****     [..]
  92:./Libraries/STM32H7xx_HAL_Driver/Src/stm32h7xx_ll_sdmmc.c ****       (#) First, user has to fill the data structure (pointer to
  93:./Libraries/STM32H7xx_HAL_Driver/Src/stm32h7xx_ll_sdmmc.c ****           SDMMC_DataInitTypeDef) according to the selected data type to be received.
  94:./Libraries/STM32H7xx_HAL_Driver/Src/stm32h7xx_ll_sdmmc.c ****           The parameters that should be filled are:
  95:./Libraries/STM32H7xx_HAL_Driver/Src/stm32h7xx_ll_sdmmc.c ****            (++) Data TimeOut
  96:./Libraries/STM32H7xx_HAL_Driver/Src/stm32h7xx_ll_sdmmc.c ****            (++) Data Length
  97:./Libraries/STM32H7xx_HAL_Driver/Src/stm32h7xx_ll_sdmmc.c ****            (++) Data Block size
  98:./Libraries/STM32H7xx_HAL_Driver/Src/stm32h7xx_ll_sdmmc.c ****            (++) Data Transfer direction: should be from card (To SDMMC)
  99:./Libraries/STM32H7xx_HAL_Driver/Src/stm32h7xx_ll_sdmmc.c ****            (++) Data Transfer mode
 100:./Libraries/STM32H7xx_HAL_Driver/Src/stm32h7xx_ll_sdmmc.c ****            (++) DPSM Status (Enable or Disable)
 101:./Libraries/STM32H7xx_HAL_Driver/Src/stm32h7xx_ll_sdmmc.c **** 
 102:./Libraries/STM32H7xx_HAL_Driver/Src/stm32h7xx_ll_sdmmc.c ****       (#) Configure the SDMMC resources to receive the data from the card
 103:./Libraries/STM32H7xx_HAL_Driver/Src/stm32h7xx_ll_sdmmc.c ****           according to selected transfer mode (Refer to Step 8, 9 and 10).
 104:./Libraries/STM32H7xx_HAL_Driver/Src/stm32h7xx_ll_sdmmc.c **** 
 105:./Libraries/STM32H7xx_HAL_Driver/Src/stm32h7xx_ll_sdmmc.c ****       (#) Send the selected Read command (refer to step 11).
 106:./Libraries/STM32H7xx_HAL_Driver/Src/stm32h7xx_ll_sdmmc.c **** 
 107:./Libraries/STM32H7xx_HAL_Driver/Src/stm32h7xx_ll_sdmmc.c ****       (#) Use the SDMMC flags/interrupts to check the transfer status.
 108:./Libraries/STM32H7xx_HAL_Driver/Src/stm32h7xx_ll_sdmmc.c **** 
 109:./Libraries/STM32H7xx_HAL_Driver/Src/stm32h7xx_ll_sdmmc.c ****     *** Write Operations ***
 110:./Libraries/STM32H7xx_HAL_Driver/Src/stm32h7xx_ll_sdmmc.c ****     ========================
 111:./Libraries/STM32H7xx_HAL_Driver/Src/stm32h7xx_ll_sdmmc.c ****     [..]
 112:./Libraries/STM32H7xx_HAL_Driver/Src/stm32h7xx_ll_sdmmc.c ****      (#) First, user has to fill the data structure (pointer to
 113:./Libraries/STM32H7xx_HAL_Driver/Src/stm32h7xx_ll_sdmmc.c ****          SDMMC_DataInitTypeDef) according to the selected data type to be received.
 114:./Libraries/STM32H7xx_HAL_Driver/Src/stm32h7xx_ll_sdmmc.c ****          The parameters that should be filled are:
 115:./Libraries/STM32H7xx_HAL_Driver/Src/stm32h7xx_ll_sdmmc.c ****           (++) Data TimeOut
 116:./Libraries/STM32H7xx_HAL_Driver/Src/stm32h7xx_ll_sdmmc.c ****           (++) Data Length
 117:./Libraries/STM32H7xx_HAL_Driver/Src/stm32h7xx_ll_sdmmc.c ****           (++) Data Block size
 118:./Libraries/STM32H7xx_HAL_Driver/Src/stm32h7xx_ll_sdmmc.c ****           (++) Data Transfer direction:  should be to card (To CARD)
 119:./Libraries/STM32H7xx_HAL_Driver/Src/stm32h7xx_ll_sdmmc.c ****           (++) Data Transfer mode
 120:./Libraries/STM32H7xx_HAL_Driver/Src/stm32h7xx_ll_sdmmc.c ****           (++) DPSM Status (Enable or Disable)
 121:./Libraries/STM32H7xx_HAL_Driver/Src/stm32h7xx_ll_sdmmc.c **** 
 122:./Libraries/STM32H7xx_HAL_Driver/Src/stm32h7xx_ll_sdmmc.c ****      (#) Configure the SDMMC resources to send the data to the card according to
 123:./Libraries/STM32H7xx_HAL_Driver/Src/stm32h7xx_ll_sdmmc.c ****          selected transfer mode.
 124:./Libraries/STM32H7xx_HAL_Driver/Src/stm32h7xx_ll_sdmmc.c **** 
 125:./Libraries/STM32H7xx_HAL_Driver/Src/stm32h7xx_ll_sdmmc.c ****      (#) Send the selected Write command.
 126:./Libraries/STM32H7xx_HAL_Driver/Src/stm32h7xx_ll_sdmmc.c **** 
 127:./Libraries/STM32H7xx_HAL_Driver/Src/stm32h7xx_ll_sdmmc.c ****      (#) Use the SDMMC flags/interrupts to check the transfer status.
 128:./Libraries/STM32H7xx_HAL_Driver/Src/stm32h7xx_ll_sdmmc.c **** 
 129:./Libraries/STM32H7xx_HAL_Driver/Src/stm32h7xx_ll_sdmmc.c ****     *** Command management operations ***
 130:./Libraries/STM32H7xx_HAL_Driver/Src/stm32h7xx_ll_sdmmc.c ****     =====================================
 131:./Libraries/STM32H7xx_HAL_Driver/Src/stm32h7xx_ll_sdmmc.c ****     [..]
 132:./Libraries/STM32H7xx_HAL_Driver/Src/stm32h7xx_ll_sdmmc.c ****      (#) The commands used for Read/Write/Erase operations are managed in
 133:./Libraries/STM32H7xx_HAL_Driver/Src/stm32h7xx_ll_sdmmc.c ****          separate functions.
 134:./Libraries/STM32H7xx_HAL_Driver/Src/stm32h7xx_ll_sdmmc.c ****          Each function allows to send the needed command with the related argument,
 135:./Libraries/STM32H7xx_HAL_Driver/Src/stm32h7xx_ll_sdmmc.c ****          then check the response.
 136:./Libraries/STM32H7xx_HAL_Driver/Src/stm32h7xx_ll_sdmmc.c ****          By the same approach, you could implement a command and check the response.
 137:./Libraries/STM32H7xx_HAL_Driver/Src/stm32h7xx_ll_sdmmc.c **** 
 138:./Libraries/STM32H7xx_HAL_Driver/Src/stm32h7xx_ll_sdmmc.c ****   @endverbatim
 139:./Libraries/STM32H7xx_HAL_Driver/Src/stm32h7xx_ll_sdmmc.c ****   ******************************************************************************
 140:./Libraries/STM32H7xx_HAL_Driver/Src/stm32h7xx_ll_sdmmc.c ****   * @attention
 141:./Libraries/STM32H7xx_HAL_Driver/Src/stm32h7xx_ll_sdmmc.c ****   *
 142:./Libraries/STM32H7xx_HAL_Driver/Src/stm32h7xx_ll_sdmmc.c ****   * <h2><center>&copy; Copyright (c) 2017 STMicroelectronics.
 143:./Libraries/STM32H7xx_HAL_Driver/Src/stm32h7xx_ll_sdmmc.c ****   * All rights reserved.</center></h2>
 144:./Libraries/STM32H7xx_HAL_Driver/Src/stm32h7xx_ll_sdmmc.c ****   *
 145:./Libraries/STM32H7xx_HAL_Driver/Src/stm32h7xx_ll_sdmmc.c ****   * This software component is licensed by ST under BSD 3-Clause license,
ARM GAS  /tmp/ccUwcR4B.s 			page 4


 146:./Libraries/STM32H7xx_HAL_Driver/Src/stm32h7xx_ll_sdmmc.c ****   * the "License"; You may not use this file except in compliance with the
 147:./Libraries/STM32H7xx_HAL_Driver/Src/stm32h7xx_ll_sdmmc.c ****   * License. You may obtain a copy of the License at:
 148:./Libraries/STM32H7xx_HAL_Driver/Src/stm32h7xx_ll_sdmmc.c ****   *                       opensource.org/licenses/BSD-3-Clause
 149:./Libraries/STM32H7xx_HAL_Driver/Src/stm32h7xx_ll_sdmmc.c ****   *
 150:./Libraries/STM32H7xx_HAL_Driver/Src/stm32h7xx_ll_sdmmc.c ****   ******************************************************************************
 151:./Libraries/STM32H7xx_HAL_Driver/Src/stm32h7xx_ll_sdmmc.c ****   */
 152:./Libraries/STM32H7xx_HAL_Driver/Src/stm32h7xx_ll_sdmmc.c **** 
 153:./Libraries/STM32H7xx_HAL_Driver/Src/stm32h7xx_ll_sdmmc.c **** /* Includes ------------------------------------------------------------------*/
 154:./Libraries/STM32H7xx_HAL_Driver/Src/stm32h7xx_ll_sdmmc.c **** #include "stm32h7xx_hal.h"
 155:./Libraries/STM32H7xx_HAL_Driver/Src/stm32h7xx_ll_sdmmc.c **** 
 156:./Libraries/STM32H7xx_HAL_Driver/Src/stm32h7xx_ll_sdmmc.c **** /** @addtogroup STM32H7xx_HAL_Driver
 157:./Libraries/STM32H7xx_HAL_Driver/Src/stm32h7xx_ll_sdmmc.c ****   * @{
 158:./Libraries/STM32H7xx_HAL_Driver/Src/stm32h7xx_ll_sdmmc.c ****   */
 159:./Libraries/STM32H7xx_HAL_Driver/Src/stm32h7xx_ll_sdmmc.c **** 
 160:./Libraries/STM32H7xx_HAL_Driver/Src/stm32h7xx_ll_sdmmc.c **** /** @defgroup SDMMC_LL SDMMC Low Layer
 161:./Libraries/STM32H7xx_HAL_Driver/Src/stm32h7xx_ll_sdmmc.c ****   * @brief Low layer module for SD
 162:./Libraries/STM32H7xx_HAL_Driver/Src/stm32h7xx_ll_sdmmc.c ****   * @{
 163:./Libraries/STM32H7xx_HAL_Driver/Src/stm32h7xx_ll_sdmmc.c ****   */
 164:./Libraries/STM32H7xx_HAL_Driver/Src/stm32h7xx_ll_sdmmc.c **** 
 165:./Libraries/STM32H7xx_HAL_Driver/Src/stm32h7xx_ll_sdmmc.c **** #if defined (HAL_SD_MODULE_ENABLED) || defined (HAL_MMC_MODULE_ENABLED)
 166:./Libraries/STM32H7xx_HAL_Driver/Src/stm32h7xx_ll_sdmmc.c **** 
 167:./Libraries/STM32H7xx_HAL_Driver/Src/stm32h7xx_ll_sdmmc.c **** /* Private typedef -----------------------------------------------------------*/
 168:./Libraries/STM32H7xx_HAL_Driver/Src/stm32h7xx_ll_sdmmc.c **** /* Private define ------------------------------------------------------------*/
 169:./Libraries/STM32H7xx_HAL_Driver/Src/stm32h7xx_ll_sdmmc.c **** /* Private macro -------------------------------------------------------------*/
 170:./Libraries/STM32H7xx_HAL_Driver/Src/stm32h7xx_ll_sdmmc.c **** /* Private variables ---------------------------------------------------------*/
 171:./Libraries/STM32H7xx_HAL_Driver/Src/stm32h7xx_ll_sdmmc.c **** /* Private function prototypes -----------------------------------------------*/
 172:./Libraries/STM32H7xx_HAL_Driver/Src/stm32h7xx_ll_sdmmc.c **** static uint32_t SDMMC_GetCmdError(SDMMC_TypeDef *SDMMCx);
 173:./Libraries/STM32H7xx_HAL_Driver/Src/stm32h7xx_ll_sdmmc.c **** 
 174:./Libraries/STM32H7xx_HAL_Driver/Src/stm32h7xx_ll_sdmmc.c **** /* Exported functions --------------------------------------------------------*/
 175:./Libraries/STM32H7xx_HAL_Driver/Src/stm32h7xx_ll_sdmmc.c **** 
 176:./Libraries/STM32H7xx_HAL_Driver/Src/stm32h7xx_ll_sdmmc.c **** /** @defgroup SDMMC_LL_Exported_Functions SDMMC Low Layer Exported Functions
 177:./Libraries/STM32H7xx_HAL_Driver/Src/stm32h7xx_ll_sdmmc.c ****   * @{
 178:./Libraries/STM32H7xx_HAL_Driver/Src/stm32h7xx_ll_sdmmc.c ****   */
 179:./Libraries/STM32H7xx_HAL_Driver/Src/stm32h7xx_ll_sdmmc.c **** 
 180:./Libraries/STM32H7xx_HAL_Driver/Src/stm32h7xx_ll_sdmmc.c **** /** @defgroup HAL_SDMMC_LL_Group1 Initialization de-initialization functions
 181:./Libraries/STM32H7xx_HAL_Driver/Src/stm32h7xx_ll_sdmmc.c ****   *  @brief    Initialization and Configuration functions
 182:./Libraries/STM32H7xx_HAL_Driver/Src/stm32h7xx_ll_sdmmc.c ****   *
 183:./Libraries/STM32H7xx_HAL_Driver/Src/stm32h7xx_ll_sdmmc.c **** @verbatim
 184:./Libraries/STM32H7xx_HAL_Driver/Src/stm32h7xx_ll_sdmmc.c ****  ===============================================================================
 185:./Libraries/STM32H7xx_HAL_Driver/Src/stm32h7xx_ll_sdmmc.c ****               ##### Initialization/de-initialization functions #####
 186:./Libraries/STM32H7xx_HAL_Driver/Src/stm32h7xx_ll_sdmmc.c ****  ===============================================================================
 187:./Libraries/STM32H7xx_HAL_Driver/Src/stm32h7xx_ll_sdmmc.c ****     [..]  This section provides functions allowing to:
 188:./Libraries/STM32H7xx_HAL_Driver/Src/stm32h7xx_ll_sdmmc.c **** 
 189:./Libraries/STM32H7xx_HAL_Driver/Src/stm32h7xx_ll_sdmmc.c **** @endverbatim
 190:./Libraries/STM32H7xx_HAL_Driver/Src/stm32h7xx_ll_sdmmc.c ****   * @{
 191:./Libraries/STM32H7xx_HAL_Driver/Src/stm32h7xx_ll_sdmmc.c ****   */
 192:./Libraries/STM32H7xx_HAL_Driver/Src/stm32h7xx_ll_sdmmc.c **** 
 193:./Libraries/STM32H7xx_HAL_Driver/Src/stm32h7xx_ll_sdmmc.c **** /**
 194:./Libraries/STM32H7xx_HAL_Driver/Src/stm32h7xx_ll_sdmmc.c ****   * @brief  Initializes the SDMMC according to the specified
 195:./Libraries/STM32H7xx_HAL_Driver/Src/stm32h7xx_ll_sdmmc.c ****   *         parameters in the SDMMC_InitTypeDef and create the associated handle.
 196:./Libraries/STM32H7xx_HAL_Driver/Src/stm32h7xx_ll_sdmmc.c ****   * @param  SDMMCx: Pointer to SDMMC register base
 197:./Libraries/STM32H7xx_HAL_Driver/Src/stm32h7xx_ll_sdmmc.c ****   * @param  Init: SDMMC initialization structure
 198:./Libraries/STM32H7xx_HAL_Driver/Src/stm32h7xx_ll_sdmmc.c ****   * @retval HAL status
 199:./Libraries/STM32H7xx_HAL_Driver/Src/stm32h7xx_ll_sdmmc.c ****   */
 200:./Libraries/STM32H7xx_HAL_Driver/Src/stm32h7xx_ll_sdmmc.c **** HAL_StatusTypeDef SDMMC_Init(SDMMC_TypeDef *SDMMCx, SDMMC_InitTypeDef Init)
 201:./Libraries/STM32H7xx_HAL_Driver/Src/stm32h7xx_ll_sdmmc.c **** {
  28              		.loc 1 201 1
ARM GAS  /tmp/ccUwcR4B.s 			page 5


  29              		.cfi_startproc
  30              		@ args = 28, pretend = 16, frame = 16
  31              		@ frame_needed = 1, uses_anonymous_args = 0
  32              		@ link register save eliminated.
  33 0000 84B0     		sub	sp, sp, #16
  34              	.LCFI0:
  35              		.cfi_def_cfa_offset 16
  36 0002 80B4     		push	{r7}
  37              	.LCFI1:
  38              		.cfi_def_cfa_offset 20
  39              		.cfi_offset 7, -20
  40 0004 85B0     		sub	sp, sp, #20
  41              	.LCFI2:
  42              		.cfi_def_cfa_offset 40
  43 0006 00AF     		add	r7, sp, #0
  44              	.LCFI3:
  45              		.cfi_def_cfa_register 7
  46 0008 7860     		str	r0, [r7, #4]
  47 000a 07F11C00 		add	r0, r7, #28
  48 000e 80E80E00 		stm	r0, {r1, r2, r3}
 202:./Libraries/STM32H7xx_HAL_Driver/Src/stm32h7xx_ll_sdmmc.c ****   uint32_t tmpreg = 0;
  49              		.loc 1 202 12
  50 0012 0023     		movs	r3, #0
  51 0014 FB60     		str	r3, [r7, #12]
 203:./Libraries/STM32H7xx_HAL_Driver/Src/stm32h7xx_ll_sdmmc.c **** 
 204:./Libraries/STM32H7xx_HAL_Driver/Src/stm32h7xx_ll_sdmmc.c ****   /* Check the parameters */
 205:./Libraries/STM32H7xx_HAL_Driver/Src/stm32h7xx_ll_sdmmc.c ****   assert_param(IS_SDMMC_ALL_INSTANCE(SDMMCx));
 206:./Libraries/STM32H7xx_HAL_Driver/Src/stm32h7xx_ll_sdmmc.c ****   assert_param(IS_SDMMC_CLOCK_EDGE(Init.ClockEdge));
 207:./Libraries/STM32H7xx_HAL_Driver/Src/stm32h7xx_ll_sdmmc.c ****   assert_param(IS_SDMMC_CLOCK_POWER_SAVE(Init.ClockPowerSave));
 208:./Libraries/STM32H7xx_HAL_Driver/Src/stm32h7xx_ll_sdmmc.c ****   assert_param(IS_SDMMC_BUS_WIDE(Init.BusWide));
 209:./Libraries/STM32H7xx_HAL_Driver/Src/stm32h7xx_ll_sdmmc.c ****   assert_param(IS_SDMMC_HARDWARE_FLOW_CONTROL(Init.HardwareFlowControl));
 210:./Libraries/STM32H7xx_HAL_Driver/Src/stm32h7xx_ll_sdmmc.c ****   assert_param(IS_SDMMC_CLKDIV(Init.ClockDiv));
 211:./Libraries/STM32H7xx_HAL_Driver/Src/stm32h7xx_ll_sdmmc.c **** 
 212:./Libraries/STM32H7xx_HAL_Driver/Src/stm32h7xx_ll_sdmmc.c ****   /* Set SDMMC configuration parameters */
 213:./Libraries/STM32H7xx_HAL_Driver/Src/stm32h7xx_ll_sdmmc.c ****   tmpreg |= (Init.ClockEdge           | \
  52              		.loc 1 213 18
  53 0016 FA69     		ldr	r2, [r7, #28]
 214:./Libraries/STM32H7xx_HAL_Driver/Src/stm32h7xx_ll_sdmmc.c ****              Init.ClockPowerSave      | \
  54              		.loc 1 214 18
  55 0018 3B6A     		ldr	r3, [r7, #32]
 213:./Libraries/STM32H7xx_HAL_Driver/Src/stm32h7xx_ll_sdmmc.c ****              Init.ClockPowerSave      | \
  56              		.loc 1 213 39
  57 001a 1A43     		orrs	r2, r2, r3
 215:./Libraries/STM32H7xx_HAL_Driver/Src/stm32h7xx_ll_sdmmc.c ****              Init.BusWide             | \
  58              		.loc 1 215 18
  59 001c 7B6A     		ldr	r3, [r7, #36]
 214:./Libraries/STM32H7xx_HAL_Driver/Src/stm32h7xx_ll_sdmmc.c ****              Init.ClockPowerSave      | \
  60              		.loc 1 214 39
  61 001e 1A43     		orrs	r2, r2, r3
 216:./Libraries/STM32H7xx_HAL_Driver/Src/stm32h7xx_ll_sdmmc.c ****              Init.HardwareFlowControl | \
  62              		.loc 1 216 18
  63 0020 BB6A     		ldr	r3, [r7, #40]
 215:./Libraries/STM32H7xx_HAL_Driver/Src/stm32h7xx_ll_sdmmc.c ****              Init.BusWide             | \
  64              		.loc 1 215 39
  65 0022 1A43     		orrs	r2, r2, r3
 217:./Libraries/STM32H7xx_HAL_Driver/Src/stm32h7xx_ll_sdmmc.c ****              Init.ClockDiv
  66              		.loc 1 217 18
ARM GAS  /tmp/ccUwcR4B.s 			page 6


  67 0024 FB6A     		ldr	r3, [r7, #44]
 216:./Libraries/STM32H7xx_HAL_Driver/Src/stm32h7xx_ll_sdmmc.c ****              Init.HardwareFlowControl | \
  68              		.loc 1 216 39
  69 0026 1343     		orrs	r3, r3, r2
 213:./Libraries/STM32H7xx_HAL_Driver/Src/stm32h7xx_ll_sdmmc.c ****              Init.ClockPowerSave      | \
  70              		.loc 1 213 10
  71 0028 FA68     		ldr	r2, [r7, #12]
  72 002a 1343     		orrs	r3, r3, r2
  73 002c FB60     		str	r3, [r7, #12]
 218:./Libraries/STM32H7xx_HAL_Driver/Src/stm32h7xx_ll_sdmmc.c ****             );
 219:./Libraries/STM32H7xx_HAL_Driver/Src/stm32h7xx_ll_sdmmc.c **** 
 220:./Libraries/STM32H7xx_HAL_Driver/Src/stm32h7xx_ll_sdmmc.c ****   /* Write to SDMMC CLKCR */
 221:./Libraries/STM32H7xx_HAL_Driver/Src/stm32h7xx_ll_sdmmc.c ****   MODIFY_REG(SDMMCx->CLKCR, CLKCR_CLEAR_MASK, tmpreg);
  74              		.loc 1 221 3
  75 002e 7B68     		ldr	r3, [r7, #4]
  76 0030 5A68     		ldr	r2, [r3, #4]
  77 0032 074B     		ldr	r3, .L3
  78 0034 1340     		ands	r3, r3, r2
  79 0036 FA68     		ldr	r2, [r7, #12]
  80 0038 1A43     		orrs	r2, r2, r3
  81 003a 7B68     		ldr	r3, [r7, #4]
  82 003c 5A60     		str	r2, [r3, #4]
 222:./Libraries/STM32H7xx_HAL_Driver/Src/stm32h7xx_ll_sdmmc.c **** 
 223:./Libraries/STM32H7xx_HAL_Driver/Src/stm32h7xx_ll_sdmmc.c ****   return HAL_OK;
  83              		.loc 1 223 10
  84 003e 0023     		movs	r3, #0
 224:./Libraries/STM32H7xx_HAL_Driver/Src/stm32h7xx_ll_sdmmc.c **** }
  85              		.loc 1 224 1
  86 0040 1846     		mov	r0, r3
  87 0042 1437     		adds	r7, r7, #20
  88              	.LCFI4:
  89              		.cfi_def_cfa_offset 20
  90 0044 BD46     		mov	sp, r7
  91              	.LCFI5:
  92              		.cfi_def_cfa_register 13
  93              		@ sp needed
  94 0046 5DF8047B 		ldr	r7, [sp], #4
  95              	.LCFI6:
  96              		.cfi_restore 7
  97              		.cfi_def_cfa_offset 16
  98 004a 04B0     		add	sp, sp, #16
  99              	.LCFI7:
 100              		.cfi_def_cfa_offset 0
 101 004c 7047     		bx	lr
 102              	.L4:
 103 004e 00BF     		.align	2
 104              	.L3:
 105 0050 002CC0FF 		.word	-4183040
 106              		.cfi_endproc
 107              	.LFE331:
 109              		.section	.text.SDMMC_ReadFIFO,"ax",%progbits
 110              		.align	1
 111              		.global	SDMMC_ReadFIFO
 112              		.syntax unified
 113              		.thumb
 114              		.thumb_func
 115              		.fpu fpv5-d16
ARM GAS  /tmp/ccUwcR4B.s 			page 7


 117              	SDMMC_ReadFIFO:
 118              	.LFB332:
 225:./Libraries/STM32H7xx_HAL_Driver/Src/stm32h7xx_ll_sdmmc.c **** 
 226:./Libraries/STM32H7xx_HAL_Driver/Src/stm32h7xx_ll_sdmmc.c **** 
 227:./Libraries/STM32H7xx_HAL_Driver/Src/stm32h7xx_ll_sdmmc.c **** /**
 228:./Libraries/STM32H7xx_HAL_Driver/Src/stm32h7xx_ll_sdmmc.c ****   * @}
 229:./Libraries/STM32H7xx_HAL_Driver/Src/stm32h7xx_ll_sdmmc.c ****   */
 230:./Libraries/STM32H7xx_HAL_Driver/Src/stm32h7xx_ll_sdmmc.c **** 
 231:./Libraries/STM32H7xx_HAL_Driver/Src/stm32h7xx_ll_sdmmc.c **** /** @defgroup HAL_SDMMC_LL_Group2 IO operation functions
 232:./Libraries/STM32H7xx_HAL_Driver/Src/stm32h7xx_ll_sdmmc.c ****   *  @brief   Data transfers functions
 233:./Libraries/STM32H7xx_HAL_Driver/Src/stm32h7xx_ll_sdmmc.c ****   *
 234:./Libraries/STM32H7xx_HAL_Driver/Src/stm32h7xx_ll_sdmmc.c **** @verbatim
 235:./Libraries/STM32H7xx_HAL_Driver/Src/stm32h7xx_ll_sdmmc.c ****  ===============================================================================
 236:./Libraries/STM32H7xx_HAL_Driver/Src/stm32h7xx_ll_sdmmc.c ****                       ##### I/O operation functions #####
 237:./Libraries/STM32H7xx_HAL_Driver/Src/stm32h7xx_ll_sdmmc.c ****  ===============================================================================
 238:./Libraries/STM32H7xx_HAL_Driver/Src/stm32h7xx_ll_sdmmc.c ****     [..]
 239:./Libraries/STM32H7xx_HAL_Driver/Src/stm32h7xx_ll_sdmmc.c ****     This subsection provides a set of functions allowing to manage the SDMMC data
 240:./Libraries/STM32H7xx_HAL_Driver/Src/stm32h7xx_ll_sdmmc.c ****     transfers.
 241:./Libraries/STM32H7xx_HAL_Driver/Src/stm32h7xx_ll_sdmmc.c **** 
 242:./Libraries/STM32H7xx_HAL_Driver/Src/stm32h7xx_ll_sdmmc.c **** @endverbatim
 243:./Libraries/STM32H7xx_HAL_Driver/Src/stm32h7xx_ll_sdmmc.c ****   * @{
 244:./Libraries/STM32H7xx_HAL_Driver/Src/stm32h7xx_ll_sdmmc.c ****   */
 245:./Libraries/STM32H7xx_HAL_Driver/Src/stm32h7xx_ll_sdmmc.c **** 
 246:./Libraries/STM32H7xx_HAL_Driver/Src/stm32h7xx_ll_sdmmc.c **** /**
 247:./Libraries/STM32H7xx_HAL_Driver/Src/stm32h7xx_ll_sdmmc.c ****   * @brief  Read data (word) from Rx FIFO in blocking mode (polling)
 248:./Libraries/STM32H7xx_HAL_Driver/Src/stm32h7xx_ll_sdmmc.c ****   * @param  SDMMCx: Pointer to SDMMC register base
 249:./Libraries/STM32H7xx_HAL_Driver/Src/stm32h7xx_ll_sdmmc.c ****   * @retval HAL status
 250:./Libraries/STM32H7xx_HAL_Driver/Src/stm32h7xx_ll_sdmmc.c ****   */
 251:./Libraries/STM32H7xx_HAL_Driver/Src/stm32h7xx_ll_sdmmc.c **** uint32_t SDMMC_ReadFIFO(SDMMC_TypeDef *SDMMCx)
 252:./Libraries/STM32H7xx_HAL_Driver/Src/stm32h7xx_ll_sdmmc.c **** {
 119              		.loc 1 252 1
 120              		.cfi_startproc
 121              		@ args = 0, pretend = 0, frame = 8
 122              		@ frame_needed = 1, uses_anonymous_args = 0
 123              		@ link register save eliminated.
 124 0000 80B4     		push	{r7}
 125              	.LCFI8:
 126              		.cfi_def_cfa_offset 4
 127              		.cfi_offset 7, -4
 128 0002 83B0     		sub	sp, sp, #12
 129              	.LCFI9:
 130              		.cfi_def_cfa_offset 16
 131 0004 00AF     		add	r7, sp, #0
 132              	.LCFI10:
 133              		.cfi_def_cfa_register 7
 134 0006 7860     		str	r0, [r7, #4]
 253:./Libraries/STM32H7xx_HAL_Driver/Src/stm32h7xx_ll_sdmmc.c ****   /* Read data from Rx FIFO */
 254:./Libraries/STM32H7xx_HAL_Driver/Src/stm32h7xx_ll_sdmmc.c ****   return (SDMMCx->FIFO);
 135              		.loc 1 254 17
 136 0008 7B68     		ldr	r3, [r7, #4]
 137 000a D3F88030 		ldr	r3, [r3, #128]
 255:./Libraries/STM32H7xx_HAL_Driver/Src/stm32h7xx_ll_sdmmc.c **** }
 138              		.loc 1 255 1
 139 000e 1846     		mov	r0, r3
 140 0010 0C37     		adds	r7, r7, #12
 141              	.LCFI11:
 142              		.cfi_def_cfa_offset 4
ARM GAS  /tmp/ccUwcR4B.s 			page 8


 143 0012 BD46     		mov	sp, r7
 144              	.LCFI12:
 145              		.cfi_def_cfa_register 13
 146              		@ sp needed
 147 0014 5DF8047B 		ldr	r7, [sp], #4
 148              	.LCFI13:
 149              		.cfi_restore 7
 150              		.cfi_def_cfa_offset 0
 151 0018 7047     		bx	lr
 152              		.cfi_endproc
 153              	.LFE332:
 155              		.section	.text.SDMMC_WriteFIFO,"ax",%progbits
 156              		.align	1
 157              		.global	SDMMC_WriteFIFO
 158              		.syntax unified
 159              		.thumb
 160              		.thumb_func
 161              		.fpu fpv5-d16
 163              	SDMMC_WriteFIFO:
 164              	.LFB333:
 256:./Libraries/STM32H7xx_HAL_Driver/Src/stm32h7xx_ll_sdmmc.c **** 
 257:./Libraries/STM32H7xx_HAL_Driver/Src/stm32h7xx_ll_sdmmc.c **** /**
 258:./Libraries/STM32H7xx_HAL_Driver/Src/stm32h7xx_ll_sdmmc.c ****   * @brief  Write data (word) to Tx FIFO in blocking mode (polling)
 259:./Libraries/STM32H7xx_HAL_Driver/Src/stm32h7xx_ll_sdmmc.c ****   * @param  SDMMCx: Pointer to SDMMC register base
 260:./Libraries/STM32H7xx_HAL_Driver/Src/stm32h7xx_ll_sdmmc.c ****   * @param  pWriteData: pointer to data to write
 261:./Libraries/STM32H7xx_HAL_Driver/Src/stm32h7xx_ll_sdmmc.c ****   * @retval HAL status
 262:./Libraries/STM32H7xx_HAL_Driver/Src/stm32h7xx_ll_sdmmc.c ****   */
 263:./Libraries/STM32H7xx_HAL_Driver/Src/stm32h7xx_ll_sdmmc.c **** HAL_StatusTypeDef SDMMC_WriteFIFO(SDMMC_TypeDef *SDMMCx, uint32_t *pWriteData)
 264:./Libraries/STM32H7xx_HAL_Driver/Src/stm32h7xx_ll_sdmmc.c **** {
 165              		.loc 1 264 1
 166              		.cfi_startproc
 167              		@ args = 0, pretend = 0, frame = 8
 168              		@ frame_needed = 1, uses_anonymous_args = 0
 169              		@ link register save eliminated.
 170 0000 80B4     		push	{r7}
 171              	.LCFI14:
 172              		.cfi_def_cfa_offset 4
 173              		.cfi_offset 7, -4
 174 0002 83B0     		sub	sp, sp, #12
 175              	.LCFI15:
 176              		.cfi_def_cfa_offset 16
 177 0004 00AF     		add	r7, sp, #0
 178              	.LCFI16:
 179              		.cfi_def_cfa_register 7
 180 0006 7860     		str	r0, [r7, #4]
 181 0008 3960     		str	r1, [r7]
 265:./Libraries/STM32H7xx_HAL_Driver/Src/stm32h7xx_ll_sdmmc.c ****   /* Write data to FIFO */
 266:./Libraries/STM32H7xx_HAL_Driver/Src/stm32h7xx_ll_sdmmc.c ****   SDMMCx->FIFO = *pWriteData;
 182              		.loc 1 266 18
 183 000a 3B68     		ldr	r3, [r7]
 184 000c 1A68     		ldr	r2, [r3]
 185              		.loc 1 266 16
 186 000e 7B68     		ldr	r3, [r7, #4]
 187 0010 C3F88020 		str	r2, [r3, #128]
 267:./Libraries/STM32H7xx_HAL_Driver/Src/stm32h7xx_ll_sdmmc.c **** 
 268:./Libraries/STM32H7xx_HAL_Driver/Src/stm32h7xx_ll_sdmmc.c ****   return HAL_OK;
 188              		.loc 1 268 10
ARM GAS  /tmp/ccUwcR4B.s 			page 9


 189 0014 0023     		movs	r3, #0
 269:./Libraries/STM32H7xx_HAL_Driver/Src/stm32h7xx_ll_sdmmc.c **** }
 190              		.loc 1 269 1
 191 0016 1846     		mov	r0, r3
 192 0018 0C37     		adds	r7, r7, #12
 193              	.LCFI17:
 194              		.cfi_def_cfa_offset 4
 195 001a BD46     		mov	sp, r7
 196              	.LCFI18:
 197              		.cfi_def_cfa_register 13
 198              		@ sp needed
 199 001c 5DF8047B 		ldr	r7, [sp], #4
 200              	.LCFI19:
 201              		.cfi_restore 7
 202              		.cfi_def_cfa_offset 0
 203 0020 7047     		bx	lr
 204              		.cfi_endproc
 205              	.LFE333:
 207              		.section	.text.SDMMC_PowerState_ON,"ax",%progbits
 208              		.align	1
 209              		.global	SDMMC_PowerState_ON
 210              		.syntax unified
 211              		.thumb
 212              		.thumb_func
 213              		.fpu fpv5-d16
 215              	SDMMC_PowerState_ON:
 216              	.LFB334:
 270:./Libraries/STM32H7xx_HAL_Driver/Src/stm32h7xx_ll_sdmmc.c **** 
 271:./Libraries/STM32H7xx_HAL_Driver/Src/stm32h7xx_ll_sdmmc.c **** /**
 272:./Libraries/STM32H7xx_HAL_Driver/Src/stm32h7xx_ll_sdmmc.c ****   * @}
 273:./Libraries/STM32H7xx_HAL_Driver/Src/stm32h7xx_ll_sdmmc.c ****   */
 274:./Libraries/STM32H7xx_HAL_Driver/Src/stm32h7xx_ll_sdmmc.c **** 
 275:./Libraries/STM32H7xx_HAL_Driver/Src/stm32h7xx_ll_sdmmc.c **** /** @defgroup HAL_SDMMC_LL_Group3 Peripheral Control functions
 276:./Libraries/STM32H7xx_HAL_Driver/Src/stm32h7xx_ll_sdmmc.c ****   *  @brief   management functions
 277:./Libraries/STM32H7xx_HAL_Driver/Src/stm32h7xx_ll_sdmmc.c ****   *
 278:./Libraries/STM32H7xx_HAL_Driver/Src/stm32h7xx_ll_sdmmc.c **** @verbatim
 279:./Libraries/STM32H7xx_HAL_Driver/Src/stm32h7xx_ll_sdmmc.c ****  ===============================================================================
 280:./Libraries/STM32H7xx_HAL_Driver/Src/stm32h7xx_ll_sdmmc.c ****                       ##### Peripheral Control functions #####
 281:./Libraries/STM32H7xx_HAL_Driver/Src/stm32h7xx_ll_sdmmc.c ****  ===============================================================================
 282:./Libraries/STM32H7xx_HAL_Driver/Src/stm32h7xx_ll_sdmmc.c ****     [..]
 283:./Libraries/STM32H7xx_HAL_Driver/Src/stm32h7xx_ll_sdmmc.c ****     This subsection provides a set of functions allowing to control the SDMMC data
 284:./Libraries/STM32H7xx_HAL_Driver/Src/stm32h7xx_ll_sdmmc.c ****     transfers.
 285:./Libraries/STM32H7xx_HAL_Driver/Src/stm32h7xx_ll_sdmmc.c **** 
 286:./Libraries/STM32H7xx_HAL_Driver/Src/stm32h7xx_ll_sdmmc.c **** @endverbatim
 287:./Libraries/STM32H7xx_HAL_Driver/Src/stm32h7xx_ll_sdmmc.c ****   * @{
 288:./Libraries/STM32H7xx_HAL_Driver/Src/stm32h7xx_ll_sdmmc.c ****   */
 289:./Libraries/STM32H7xx_HAL_Driver/Src/stm32h7xx_ll_sdmmc.c **** 
 290:./Libraries/STM32H7xx_HAL_Driver/Src/stm32h7xx_ll_sdmmc.c **** /**
 291:./Libraries/STM32H7xx_HAL_Driver/Src/stm32h7xx_ll_sdmmc.c ****   * @brief  Set SDMMC Power state to ON.
 292:./Libraries/STM32H7xx_HAL_Driver/Src/stm32h7xx_ll_sdmmc.c ****   * @param  SDMMCx: Pointer to SDMMC register base
 293:./Libraries/STM32H7xx_HAL_Driver/Src/stm32h7xx_ll_sdmmc.c ****   * @retval HAL status
 294:./Libraries/STM32H7xx_HAL_Driver/Src/stm32h7xx_ll_sdmmc.c ****   */
 295:./Libraries/STM32H7xx_HAL_Driver/Src/stm32h7xx_ll_sdmmc.c **** HAL_StatusTypeDef SDMMC_PowerState_ON(SDMMC_TypeDef *SDMMCx)
 296:./Libraries/STM32H7xx_HAL_Driver/Src/stm32h7xx_ll_sdmmc.c **** {
 217              		.loc 1 296 1
 218              		.cfi_startproc
 219              		@ args = 0, pretend = 0, frame = 8
ARM GAS  /tmp/ccUwcR4B.s 			page 10


 220              		@ frame_needed = 1, uses_anonymous_args = 0
 221              		@ link register save eliminated.
 222 0000 80B4     		push	{r7}
 223              	.LCFI20:
 224              		.cfi_def_cfa_offset 4
 225              		.cfi_offset 7, -4
 226 0002 83B0     		sub	sp, sp, #12
 227              	.LCFI21:
 228              		.cfi_def_cfa_offset 16
 229 0004 00AF     		add	r7, sp, #0
 230              	.LCFI22:
 231              		.cfi_def_cfa_register 7
 232 0006 7860     		str	r0, [r7, #4]
 297:./Libraries/STM32H7xx_HAL_Driver/Src/stm32h7xx_ll_sdmmc.c ****   /* Set power state to ON */
 298:./Libraries/STM32H7xx_HAL_Driver/Src/stm32h7xx_ll_sdmmc.c ****   SDMMCx->POWER |= SDMMC_POWER_PWRCTRL;
 233              		.loc 1 298 17
 234 0008 7B68     		ldr	r3, [r7, #4]
 235 000a 1B68     		ldr	r3, [r3]
 236 000c 43F00302 		orr	r2, r3, #3
 237 0010 7B68     		ldr	r3, [r7, #4]
 238 0012 1A60     		str	r2, [r3]
 299:./Libraries/STM32H7xx_HAL_Driver/Src/stm32h7xx_ll_sdmmc.c **** 
 300:./Libraries/STM32H7xx_HAL_Driver/Src/stm32h7xx_ll_sdmmc.c ****   return HAL_OK;
 239              		.loc 1 300 10
 240 0014 0023     		movs	r3, #0
 301:./Libraries/STM32H7xx_HAL_Driver/Src/stm32h7xx_ll_sdmmc.c **** }
 241              		.loc 1 301 1
 242 0016 1846     		mov	r0, r3
 243 0018 0C37     		adds	r7, r7, #12
 244              	.LCFI23:
 245              		.cfi_def_cfa_offset 4
 246 001a BD46     		mov	sp, r7
 247              	.LCFI24:
 248              		.cfi_def_cfa_register 13
 249              		@ sp needed
 250 001c 5DF8047B 		ldr	r7, [sp], #4
 251              	.LCFI25:
 252              		.cfi_restore 7
 253              		.cfi_def_cfa_offset 0
 254 0020 7047     		bx	lr
 255              		.cfi_endproc
 256              	.LFE334:
 258              		.section	.text.SDMMC_PowerState_Cycle,"ax",%progbits
 259              		.align	1
 260              		.global	SDMMC_PowerState_Cycle
 261              		.syntax unified
 262              		.thumb
 263              		.thumb_func
 264              		.fpu fpv5-d16
 266              	SDMMC_PowerState_Cycle:
 267              	.LFB335:
 302:./Libraries/STM32H7xx_HAL_Driver/Src/stm32h7xx_ll_sdmmc.c **** 
 303:./Libraries/STM32H7xx_HAL_Driver/Src/stm32h7xx_ll_sdmmc.c **** /**
 304:./Libraries/STM32H7xx_HAL_Driver/Src/stm32h7xx_ll_sdmmc.c ****   * @brief  Set SDMMC Power state to Power-Cycle.
 305:./Libraries/STM32H7xx_HAL_Driver/Src/stm32h7xx_ll_sdmmc.c ****   * @param  SDMMCx: Pointer to SDMMC register base
 306:./Libraries/STM32H7xx_HAL_Driver/Src/stm32h7xx_ll_sdmmc.c ****   * @retval HAL status
 307:./Libraries/STM32H7xx_HAL_Driver/Src/stm32h7xx_ll_sdmmc.c ****   */
ARM GAS  /tmp/ccUwcR4B.s 			page 11


 308:./Libraries/STM32H7xx_HAL_Driver/Src/stm32h7xx_ll_sdmmc.c **** HAL_StatusTypeDef SDMMC_PowerState_Cycle(SDMMC_TypeDef *SDMMCx)
 309:./Libraries/STM32H7xx_HAL_Driver/Src/stm32h7xx_ll_sdmmc.c **** {
 268              		.loc 1 309 1
 269              		.cfi_startproc
 270              		@ args = 0, pretend = 0, frame = 8
 271              		@ frame_needed = 1, uses_anonymous_args = 0
 272              		@ link register save eliminated.
 273 0000 80B4     		push	{r7}
 274              	.LCFI26:
 275              		.cfi_def_cfa_offset 4
 276              		.cfi_offset 7, -4
 277 0002 83B0     		sub	sp, sp, #12
 278              	.LCFI27:
 279              		.cfi_def_cfa_offset 16
 280 0004 00AF     		add	r7, sp, #0
 281              	.LCFI28:
 282              		.cfi_def_cfa_register 7
 283 0006 7860     		str	r0, [r7, #4]
 310:./Libraries/STM32H7xx_HAL_Driver/Src/stm32h7xx_ll_sdmmc.c ****   /* Set power state to Power Cycle*/
 311:./Libraries/STM32H7xx_HAL_Driver/Src/stm32h7xx_ll_sdmmc.c ****   SDMMCx->POWER |= SDMMC_POWER_PWRCTRL_1;
 284              		.loc 1 311 17
 285 0008 7B68     		ldr	r3, [r7, #4]
 286 000a 1B68     		ldr	r3, [r3]
 287 000c 43F00202 		orr	r2, r3, #2
 288 0010 7B68     		ldr	r3, [r7, #4]
 289 0012 1A60     		str	r2, [r3]
 312:./Libraries/STM32H7xx_HAL_Driver/Src/stm32h7xx_ll_sdmmc.c **** 
 313:./Libraries/STM32H7xx_HAL_Driver/Src/stm32h7xx_ll_sdmmc.c ****   return HAL_OK;
 290              		.loc 1 313 10
 291 0014 0023     		movs	r3, #0
 314:./Libraries/STM32H7xx_HAL_Driver/Src/stm32h7xx_ll_sdmmc.c **** }
 292              		.loc 1 314 1
 293 0016 1846     		mov	r0, r3
 294 0018 0C37     		adds	r7, r7, #12
 295              	.LCFI29:
 296              		.cfi_def_cfa_offset 4
 297 001a BD46     		mov	sp, r7
 298              	.LCFI30:
 299              		.cfi_def_cfa_register 13
 300              		@ sp needed
 301 001c 5DF8047B 		ldr	r7, [sp], #4
 302              	.LCFI31:
 303              		.cfi_restore 7
 304              		.cfi_def_cfa_offset 0
 305 0020 7047     		bx	lr
 306              		.cfi_endproc
 307              	.LFE335:
 309              		.section	.text.SDMMC_PowerState_OFF,"ax",%progbits
 310              		.align	1
 311              		.global	SDMMC_PowerState_OFF
 312              		.syntax unified
 313              		.thumb
 314              		.thumb_func
 315              		.fpu fpv5-d16
 317              	SDMMC_PowerState_OFF:
 318              	.LFB336:
 315:./Libraries/STM32H7xx_HAL_Driver/Src/stm32h7xx_ll_sdmmc.c **** 
ARM GAS  /tmp/ccUwcR4B.s 			page 12


 316:./Libraries/STM32H7xx_HAL_Driver/Src/stm32h7xx_ll_sdmmc.c **** /**
 317:./Libraries/STM32H7xx_HAL_Driver/Src/stm32h7xx_ll_sdmmc.c ****   * @brief  Set SDMMC Power state to OFF.
 318:./Libraries/STM32H7xx_HAL_Driver/Src/stm32h7xx_ll_sdmmc.c ****   * @param  SDMMCx: Pointer to SDMMC register base
 319:./Libraries/STM32H7xx_HAL_Driver/Src/stm32h7xx_ll_sdmmc.c ****   * @retval HAL status
 320:./Libraries/STM32H7xx_HAL_Driver/Src/stm32h7xx_ll_sdmmc.c ****   */
 321:./Libraries/STM32H7xx_HAL_Driver/Src/stm32h7xx_ll_sdmmc.c **** HAL_StatusTypeDef SDMMC_PowerState_OFF(SDMMC_TypeDef *SDMMCx)
 322:./Libraries/STM32H7xx_HAL_Driver/Src/stm32h7xx_ll_sdmmc.c **** {
 319              		.loc 1 322 1
 320              		.cfi_startproc
 321              		@ args = 0, pretend = 0, frame = 8
 322              		@ frame_needed = 1, uses_anonymous_args = 0
 323              		@ link register save eliminated.
 324 0000 80B4     		push	{r7}
 325              	.LCFI32:
 326              		.cfi_def_cfa_offset 4
 327              		.cfi_offset 7, -4
 328 0002 83B0     		sub	sp, sp, #12
 329              	.LCFI33:
 330              		.cfi_def_cfa_offset 16
 331 0004 00AF     		add	r7, sp, #0
 332              	.LCFI34:
 333              		.cfi_def_cfa_register 7
 334 0006 7860     		str	r0, [r7, #4]
 323:./Libraries/STM32H7xx_HAL_Driver/Src/stm32h7xx_ll_sdmmc.c ****   /* Set power state to OFF */
 324:./Libraries/STM32H7xx_HAL_Driver/Src/stm32h7xx_ll_sdmmc.c ****   SDMMCx->POWER &= ~(SDMMC_POWER_PWRCTRL);
 335              		.loc 1 324 17
 336 0008 7B68     		ldr	r3, [r7, #4]
 337 000a 1B68     		ldr	r3, [r3]
 338 000c 23F00302 		bic	r2, r3, #3
 339 0010 7B68     		ldr	r3, [r7, #4]
 340 0012 1A60     		str	r2, [r3]
 325:./Libraries/STM32H7xx_HAL_Driver/Src/stm32h7xx_ll_sdmmc.c **** 
 326:./Libraries/STM32H7xx_HAL_Driver/Src/stm32h7xx_ll_sdmmc.c ****   return HAL_OK;
 341              		.loc 1 326 10
 342 0014 0023     		movs	r3, #0
 327:./Libraries/STM32H7xx_HAL_Driver/Src/stm32h7xx_ll_sdmmc.c **** }
 343              		.loc 1 327 1
 344 0016 1846     		mov	r0, r3
 345 0018 0C37     		adds	r7, r7, #12
 346              	.LCFI35:
 347              		.cfi_def_cfa_offset 4
 348 001a BD46     		mov	sp, r7
 349              	.LCFI36:
 350              		.cfi_def_cfa_register 13
 351              		@ sp needed
 352 001c 5DF8047B 		ldr	r7, [sp], #4
 353              	.LCFI37:
 354              		.cfi_restore 7
 355              		.cfi_def_cfa_offset 0
 356 0020 7047     		bx	lr
 357              		.cfi_endproc
 358              	.LFE336:
 360              		.section	.text.SDMMC_GetPowerState,"ax",%progbits
 361              		.align	1
 362              		.global	SDMMC_GetPowerState
 363              		.syntax unified
 364              		.thumb
ARM GAS  /tmp/ccUwcR4B.s 			page 13


 365              		.thumb_func
 366              		.fpu fpv5-d16
 368              	SDMMC_GetPowerState:
 369              	.LFB337:
 328:./Libraries/STM32H7xx_HAL_Driver/Src/stm32h7xx_ll_sdmmc.c **** 
 329:./Libraries/STM32H7xx_HAL_Driver/Src/stm32h7xx_ll_sdmmc.c **** /**
 330:./Libraries/STM32H7xx_HAL_Driver/Src/stm32h7xx_ll_sdmmc.c ****   * @brief  Get SDMMC Power state.
 331:./Libraries/STM32H7xx_HAL_Driver/Src/stm32h7xx_ll_sdmmc.c ****   * @param  SDMMCx: Pointer to SDMMC register base
 332:./Libraries/STM32H7xx_HAL_Driver/Src/stm32h7xx_ll_sdmmc.c ****   * @retval Power status of the controller. The returned value can be one of the
 333:./Libraries/STM32H7xx_HAL_Driver/Src/stm32h7xx_ll_sdmmc.c ****   *         following values:
 334:./Libraries/STM32H7xx_HAL_Driver/Src/stm32h7xx_ll_sdmmc.c ****   *            - 0x00: Power OFF
 335:./Libraries/STM32H7xx_HAL_Driver/Src/stm32h7xx_ll_sdmmc.c ****   *            - 0x02: Power UP
 336:./Libraries/STM32H7xx_HAL_Driver/Src/stm32h7xx_ll_sdmmc.c ****   *            - 0x03: Power ON
 337:./Libraries/STM32H7xx_HAL_Driver/Src/stm32h7xx_ll_sdmmc.c ****   */
 338:./Libraries/STM32H7xx_HAL_Driver/Src/stm32h7xx_ll_sdmmc.c **** uint32_t SDMMC_GetPowerState(SDMMC_TypeDef *SDMMCx)
 339:./Libraries/STM32H7xx_HAL_Driver/Src/stm32h7xx_ll_sdmmc.c **** {
 370              		.loc 1 339 1
 371              		.cfi_startproc
 372              		@ args = 0, pretend = 0, frame = 8
 373              		@ frame_needed = 1, uses_anonymous_args = 0
 374              		@ link register save eliminated.
 375 0000 80B4     		push	{r7}
 376              	.LCFI38:
 377              		.cfi_def_cfa_offset 4
 378              		.cfi_offset 7, -4
 379 0002 83B0     		sub	sp, sp, #12
 380              	.LCFI39:
 381              		.cfi_def_cfa_offset 16
 382 0004 00AF     		add	r7, sp, #0
 383              	.LCFI40:
 384              		.cfi_def_cfa_register 7
 385 0006 7860     		str	r0, [r7, #4]
 340:./Libraries/STM32H7xx_HAL_Driver/Src/stm32h7xx_ll_sdmmc.c ****   return (SDMMCx->POWER & SDMMC_POWER_PWRCTRL);
 386              		.loc 1 340 17
 387 0008 7B68     		ldr	r3, [r7, #4]
 388 000a 1B68     		ldr	r3, [r3]
 389              		.loc 1 340 25
 390 000c 03F00303 		and	r3, r3, #3
 341:./Libraries/STM32H7xx_HAL_Driver/Src/stm32h7xx_ll_sdmmc.c **** }
 391              		.loc 1 341 1
 392 0010 1846     		mov	r0, r3
 393 0012 0C37     		adds	r7, r7, #12
 394              	.LCFI41:
 395              		.cfi_def_cfa_offset 4
 396 0014 BD46     		mov	sp, r7
 397              	.LCFI42:
 398              		.cfi_def_cfa_register 13
 399              		@ sp needed
 400 0016 5DF8047B 		ldr	r7, [sp], #4
 401              	.LCFI43:
 402              		.cfi_restore 7
 403              		.cfi_def_cfa_offset 0
 404 001a 7047     		bx	lr
 405              		.cfi_endproc
 406              	.LFE337:
 408              		.section	.text.SDMMC_SendCommand,"ax",%progbits
 409              		.align	1
ARM GAS  /tmp/ccUwcR4B.s 			page 14


 410              		.global	SDMMC_SendCommand
 411              		.syntax unified
 412              		.thumb
 413              		.thumb_func
 414              		.fpu fpv5-d16
 416              	SDMMC_SendCommand:
 417              	.LFB338:
 342:./Libraries/STM32H7xx_HAL_Driver/Src/stm32h7xx_ll_sdmmc.c **** 
 343:./Libraries/STM32H7xx_HAL_Driver/Src/stm32h7xx_ll_sdmmc.c **** /**
 344:./Libraries/STM32H7xx_HAL_Driver/Src/stm32h7xx_ll_sdmmc.c ****   * @brief  Configure the SDMMC command path according to the specified parameters in
 345:./Libraries/STM32H7xx_HAL_Driver/Src/stm32h7xx_ll_sdmmc.c ****   *         SDMMC_CmdInitTypeDef structure and send the command
 346:./Libraries/STM32H7xx_HAL_Driver/Src/stm32h7xx_ll_sdmmc.c ****   * @param  SDMMCx: Pointer to SDMMC register base
 347:./Libraries/STM32H7xx_HAL_Driver/Src/stm32h7xx_ll_sdmmc.c ****   * @param  Command: pointer to a SDMMC_CmdInitTypeDef structure that contains
 348:./Libraries/STM32H7xx_HAL_Driver/Src/stm32h7xx_ll_sdmmc.c ****   *         the configuration information for the SDMMC command
 349:./Libraries/STM32H7xx_HAL_Driver/Src/stm32h7xx_ll_sdmmc.c ****   * @retval HAL status
 350:./Libraries/STM32H7xx_HAL_Driver/Src/stm32h7xx_ll_sdmmc.c ****   */
 351:./Libraries/STM32H7xx_HAL_Driver/Src/stm32h7xx_ll_sdmmc.c **** HAL_StatusTypeDef SDMMC_SendCommand(SDMMC_TypeDef *SDMMCx, SDMMC_CmdInitTypeDef *Command)
 352:./Libraries/STM32H7xx_HAL_Driver/Src/stm32h7xx_ll_sdmmc.c **** {
 418              		.loc 1 352 1
 419              		.cfi_startproc
 420              		@ args = 0, pretend = 0, frame = 16
 421              		@ frame_needed = 1, uses_anonymous_args = 0
 422              		@ link register save eliminated.
 423 0000 80B4     		push	{r7}
 424              	.LCFI44:
 425              		.cfi_def_cfa_offset 4
 426              		.cfi_offset 7, -4
 427 0002 85B0     		sub	sp, sp, #20
 428              	.LCFI45:
 429              		.cfi_def_cfa_offset 24
 430 0004 00AF     		add	r7, sp, #0
 431              	.LCFI46:
 432              		.cfi_def_cfa_register 7
 433 0006 7860     		str	r0, [r7, #4]
 434 0008 3960     		str	r1, [r7]
 353:./Libraries/STM32H7xx_HAL_Driver/Src/stm32h7xx_ll_sdmmc.c ****   uint32_t tmpreg = 0;
 435              		.loc 1 353 12
 436 000a 0023     		movs	r3, #0
 437 000c FB60     		str	r3, [r7, #12]
 354:./Libraries/STM32H7xx_HAL_Driver/Src/stm32h7xx_ll_sdmmc.c **** 
 355:./Libraries/STM32H7xx_HAL_Driver/Src/stm32h7xx_ll_sdmmc.c ****   /* Check the parameters */
 356:./Libraries/STM32H7xx_HAL_Driver/Src/stm32h7xx_ll_sdmmc.c ****   assert_param(IS_SDMMC_CMD_INDEX(Command->CmdIndex));
 357:./Libraries/STM32H7xx_HAL_Driver/Src/stm32h7xx_ll_sdmmc.c ****   assert_param(IS_SDMMC_RESPONSE(Command->Response));
 358:./Libraries/STM32H7xx_HAL_Driver/Src/stm32h7xx_ll_sdmmc.c ****   assert_param(IS_SDMMC_WAIT(Command->WaitForInterrupt));
 359:./Libraries/STM32H7xx_HAL_Driver/Src/stm32h7xx_ll_sdmmc.c ****   assert_param(IS_SDMMC_CPSM(Command->CPSM));
 360:./Libraries/STM32H7xx_HAL_Driver/Src/stm32h7xx_ll_sdmmc.c **** 
 361:./Libraries/STM32H7xx_HAL_Driver/Src/stm32h7xx_ll_sdmmc.c ****   /* Set the SDMMC Argument value */
 362:./Libraries/STM32H7xx_HAL_Driver/Src/stm32h7xx_ll_sdmmc.c ****   SDMMCx->ARG = Command->Argument;
 438              		.loc 1 362 24
 439 000e 3B68     		ldr	r3, [r7]
 440 0010 1A68     		ldr	r2, [r3]
 441              		.loc 1 362 15
 442 0012 7B68     		ldr	r3, [r7, #4]
 443 0014 9A60     		str	r2, [r3, #8]
 363:./Libraries/STM32H7xx_HAL_Driver/Src/stm32h7xx_ll_sdmmc.c **** 
 364:./Libraries/STM32H7xx_HAL_Driver/Src/stm32h7xx_ll_sdmmc.c ****   /* Set SDMMC command parameters */
 365:./Libraries/STM32H7xx_HAL_Driver/Src/stm32h7xx_ll_sdmmc.c ****   tmpreg |= (uint32_t)(Command->CmdIndex         | \
ARM GAS  /tmp/ccUwcR4B.s 			page 15


 444              		.loc 1 365 31
 445 0016 3B68     		ldr	r3, [r7]
 446 0018 5A68     		ldr	r2, [r3, #4]
 366:./Libraries/STM32H7xx_HAL_Driver/Src/stm32h7xx_ll_sdmmc.c ****                        Command->Response         | \
 447              		.loc 1 366 31
 448 001a 3B68     		ldr	r3, [r7]
 449 001c 9B68     		ldr	r3, [r3, #8]
 365:./Libraries/STM32H7xx_HAL_Driver/Src/stm32h7xx_ll_sdmmc.c ****                        Command->Response         | \
 450              		.loc 1 365 50
 451 001e 1A43     		orrs	r2, r2, r3
 367:./Libraries/STM32H7xx_HAL_Driver/Src/stm32h7xx_ll_sdmmc.c ****                        Command->WaitForInterrupt | \
 452              		.loc 1 367 31
 453 0020 3B68     		ldr	r3, [r7]
 454 0022 DB68     		ldr	r3, [r3, #12]
 366:./Libraries/STM32H7xx_HAL_Driver/Src/stm32h7xx_ll_sdmmc.c ****                        Command->Response         | \
 455              		.loc 1 366 50
 456 0024 1A43     		orrs	r2, r2, r3
 368:./Libraries/STM32H7xx_HAL_Driver/Src/stm32h7xx_ll_sdmmc.c ****                        Command->CPSM);
 457              		.loc 1 368 31
 458 0026 3B68     		ldr	r3, [r7]
 459 0028 1B69     		ldr	r3, [r3, #16]
 367:./Libraries/STM32H7xx_HAL_Driver/Src/stm32h7xx_ll_sdmmc.c ****                        Command->WaitForInterrupt | \
 460              		.loc 1 367 50
 461 002a 1343     		orrs	r3, r3, r2
 365:./Libraries/STM32H7xx_HAL_Driver/Src/stm32h7xx_ll_sdmmc.c ****                        Command->Response         | \
 462              		.loc 1 365 10
 463 002c FA68     		ldr	r2, [r7, #12]
 464 002e 1343     		orrs	r3, r3, r2
 465 0030 FB60     		str	r3, [r7, #12]
 369:./Libraries/STM32H7xx_HAL_Driver/Src/stm32h7xx_ll_sdmmc.c **** 
 370:./Libraries/STM32H7xx_HAL_Driver/Src/stm32h7xx_ll_sdmmc.c ****   /* Write to SDMMC CMD register */
 371:./Libraries/STM32H7xx_HAL_Driver/Src/stm32h7xx_ll_sdmmc.c ****   MODIFY_REG(SDMMCx->CMD, CMD_CLEAR_MASK, tmpreg);
 466              		.loc 1 371 3
 467 0032 7B68     		ldr	r3, [r7, #4]
 468 0034 DA68     		ldr	r2, [r3, #12]
 469 0036 064B     		ldr	r3, .L19
 470 0038 1340     		ands	r3, r3, r2
 471 003a FA68     		ldr	r2, [r7, #12]
 472 003c 1A43     		orrs	r2, r2, r3
 473 003e 7B68     		ldr	r3, [r7, #4]
 474 0040 DA60     		str	r2, [r3, #12]
 372:./Libraries/STM32H7xx_HAL_Driver/Src/stm32h7xx_ll_sdmmc.c **** 
 373:./Libraries/STM32H7xx_HAL_Driver/Src/stm32h7xx_ll_sdmmc.c ****   return HAL_OK;
 475              		.loc 1 373 10
 476 0042 0023     		movs	r3, #0
 374:./Libraries/STM32H7xx_HAL_Driver/Src/stm32h7xx_ll_sdmmc.c **** }
 477              		.loc 1 374 1
 478 0044 1846     		mov	r0, r3
 479 0046 1437     		adds	r7, r7, #20
 480              	.LCFI47:
 481              		.cfi_def_cfa_offset 4
 482 0048 BD46     		mov	sp, r7
 483              	.LCFI48:
 484              		.cfi_def_cfa_register 13
 485              		@ sp needed
 486 004a 5DF8047B 		ldr	r7, [sp], #4
 487              	.LCFI49:
ARM GAS  /tmp/ccUwcR4B.s 			page 16


 488              		.cfi_restore 7
 489              		.cfi_def_cfa_offset 0
 490 004e 7047     		bx	lr
 491              	.L20:
 492              		.align	2
 493              	.L19:
 494 0050 C0E0FEFF 		.word	-73536
 495              		.cfi_endproc
 496              	.LFE338:
 498              		.section	.text.SDMMC_GetCommandResponse,"ax",%progbits
 499              		.align	1
 500              		.global	SDMMC_GetCommandResponse
 501              		.syntax unified
 502              		.thumb
 503              		.thumb_func
 504              		.fpu fpv5-d16
 506              	SDMMC_GetCommandResponse:
 507              	.LFB339:
 375:./Libraries/STM32H7xx_HAL_Driver/Src/stm32h7xx_ll_sdmmc.c **** 
 376:./Libraries/STM32H7xx_HAL_Driver/Src/stm32h7xx_ll_sdmmc.c **** /**
 377:./Libraries/STM32H7xx_HAL_Driver/Src/stm32h7xx_ll_sdmmc.c ****   * @brief  Return the command index of last command for which response received
 378:./Libraries/STM32H7xx_HAL_Driver/Src/stm32h7xx_ll_sdmmc.c ****   * @param  SDMMCx: Pointer to SDMMC register base
 379:./Libraries/STM32H7xx_HAL_Driver/Src/stm32h7xx_ll_sdmmc.c ****   * @retval Command index of the last command response received
 380:./Libraries/STM32H7xx_HAL_Driver/Src/stm32h7xx_ll_sdmmc.c ****   */
 381:./Libraries/STM32H7xx_HAL_Driver/Src/stm32h7xx_ll_sdmmc.c **** uint8_t SDMMC_GetCommandResponse(SDMMC_TypeDef *SDMMCx)
 382:./Libraries/STM32H7xx_HAL_Driver/Src/stm32h7xx_ll_sdmmc.c **** {
 508              		.loc 1 382 1
 509              		.cfi_startproc
 510              		@ args = 0, pretend = 0, frame = 8
 511              		@ frame_needed = 1, uses_anonymous_args = 0
 512              		@ link register save eliminated.
 513 0000 80B4     		push	{r7}
 514              	.LCFI50:
 515              		.cfi_def_cfa_offset 4
 516              		.cfi_offset 7, -4
 517 0002 83B0     		sub	sp, sp, #12
 518              	.LCFI51:
 519              		.cfi_def_cfa_offset 16
 520 0004 00AF     		add	r7, sp, #0
 521              	.LCFI52:
 522              		.cfi_def_cfa_register 7
 523 0006 7860     		str	r0, [r7, #4]
 383:./Libraries/STM32H7xx_HAL_Driver/Src/stm32h7xx_ll_sdmmc.c ****   return (uint8_t)(SDMMCx->RESPCMD);
 524              		.loc 1 383 26
 525 0008 7B68     		ldr	r3, [r7, #4]
 526 000a 1B69     		ldr	r3, [r3, #16]
 527              		.loc 1 383 10
 528 000c DBB2     		uxtb	r3, r3
 384:./Libraries/STM32H7xx_HAL_Driver/Src/stm32h7xx_ll_sdmmc.c **** }
 529              		.loc 1 384 1
 530 000e 1846     		mov	r0, r3
 531 0010 0C37     		adds	r7, r7, #12
 532              	.LCFI53:
 533              		.cfi_def_cfa_offset 4
 534 0012 BD46     		mov	sp, r7
 535              	.LCFI54:
 536              		.cfi_def_cfa_register 13
ARM GAS  /tmp/ccUwcR4B.s 			page 17


 537              		@ sp needed
 538 0014 5DF8047B 		ldr	r7, [sp], #4
 539              	.LCFI55:
 540              		.cfi_restore 7
 541              		.cfi_def_cfa_offset 0
 542 0018 7047     		bx	lr
 543              		.cfi_endproc
 544              	.LFE339:
 546              		.section	.text.SDMMC_GetResponse,"ax",%progbits
 547              		.align	1
 548              		.global	SDMMC_GetResponse
 549              		.syntax unified
 550              		.thumb
 551              		.thumb_func
 552              		.fpu fpv5-d16
 554              	SDMMC_GetResponse:
 555              	.LFB340:
 385:./Libraries/STM32H7xx_HAL_Driver/Src/stm32h7xx_ll_sdmmc.c **** 
 386:./Libraries/STM32H7xx_HAL_Driver/Src/stm32h7xx_ll_sdmmc.c **** 
 387:./Libraries/STM32H7xx_HAL_Driver/Src/stm32h7xx_ll_sdmmc.c **** /**
 388:./Libraries/STM32H7xx_HAL_Driver/Src/stm32h7xx_ll_sdmmc.c ****   * @brief  Return the response received from the card for the last command
 389:./Libraries/STM32H7xx_HAL_Driver/Src/stm32h7xx_ll_sdmmc.c ****   * @param  SDMMCx: Pointer to SDMMC register base
 390:./Libraries/STM32H7xx_HAL_Driver/Src/stm32h7xx_ll_sdmmc.c ****   * @param  Response: Specifies the SDMMC response register.
 391:./Libraries/STM32H7xx_HAL_Driver/Src/stm32h7xx_ll_sdmmc.c ****   *          This parameter can be one of the following values:
 392:./Libraries/STM32H7xx_HAL_Driver/Src/stm32h7xx_ll_sdmmc.c ****   *            @arg SDMMC_RESP1: Response Register 1
 393:./Libraries/STM32H7xx_HAL_Driver/Src/stm32h7xx_ll_sdmmc.c ****   *            @arg SDMMC_RESP2: Response Register 2
 394:./Libraries/STM32H7xx_HAL_Driver/Src/stm32h7xx_ll_sdmmc.c ****   *            @arg SDMMC_RESP3: Response Register 3
 395:./Libraries/STM32H7xx_HAL_Driver/Src/stm32h7xx_ll_sdmmc.c ****   *            @arg SDMMC_RESP4: Response Register 4
 396:./Libraries/STM32H7xx_HAL_Driver/Src/stm32h7xx_ll_sdmmc.c ****   * @retval The Corresponding response register value
 397:./Libraries/STM32H7xx_HAL_Driver/Src/stm32h7xx_ll_sdmmc.c ****   */
 398:./Libraries/STM32H7xx_HAL_Driver/Src/stm32h7xx_ll_sdmmc.c **** uint32_t SDMMC_GetResponse(SDMMC_TypeDef *SDMMCx, uint32_t Response)
 399:./Libraries/STM32H7xx_HAL_Driver/Src/stm32h7xx_ll_sdmmc.c **** {
 556              		.loc 1 399 1
 557              		.cfi_startproc
 558              		@ args = 0, pretend = 0, frame = 16
 559              		@ frame_needed = 1, uses_anonymous_args = 0
 560              		@ link register save eliminated.
 561 0000 80B4     		push	{r7}
 562              	.LCFI56:
 563              		.cfi_def_cfa_offset 4
 564              		.cfi_offset 7, -4
 565 0002 85B0     		sub	sp, sp, #20
 566              	.LCFI57:
 567              		.cfi_def_cfa_offset 24
 568 0004 00AF     		add	r7, sp, #0
 569              	.LCFI58:
 570              		.cfi_def_cfa_register 7
 571 0006 7860     		str	r0, [r7, #4]
 572 0008 3960     		str	r1, [r7]
 400:./Libraries/STM32H7xx_HAL_Driver/Src/stm32h7xx_ll_sdmmc.c ****   uint32_t tmp;
 401:./Libraries/STM32H7xx_HAL_Driver/Src/stm32h7xx_ll_sdmmc.c **** 
 402:./Libraries/STM32H7xx_HAL_Driver/Src/stm32h7xx_ll_sdmmc.c ****   /* Check the parameters */
 403:./Libraries/STM32H7xx_HAL_Driver/Src/stm32h7xx_ll_sdmmc.c ****   assert_param(IS_SDMMC_RESP(Response));
 404:./Libraries/STM32H7xx_HAL_Driver/Src/stm32h7xx_ll_sdmmc.c **** 
 405:./Libraries/STM32H7xx_HAL_Driver/Src/stm32h7xx_ll_sdmmc.c ****   /* Get the response */
 406:./Libraries/STM32H7xx_HAL_Driver/Src/stm32h7xx_ll_sdmmc.c ****   tmp = (uint32_t)(&(SDMMCx->RESP1)) + Response;
 573              		.loc 1 406 20
ARM GAS  /tmp/ccUwcR4B.s 			page 18


 574 000a 7B68     		ldr	r3, [r7, #4]
 575 000c 1433     		adds	r3, r3, #20
 576              		.loc 1 406 9
 577 000e 1A46     		mov	r2, r3
 578              		.loc 1 406 7
 579 0010 3B68     		ldr	r3, [r7]
 580 0012 1344     		add	r3, r3, r2
 581 0014 FB60     		str	r3, [r7, #12]
 407:./Libraries/STM32H7xx_HAL_Driver/Src/stm32h7xx_ll_sdmmc.c **** 
 408:./Libraries/STM32H7xx_HAL_Driver/Src/stm32h7xx_ll_sdmmc.c ****   return (*(__IO uint32_t *) tmp);
 582              		.loc 1 408 12
 583 0016 FB68     		ldr	r3, [r7, #12]
 584              		.loc 1 408 11
 585 0018 1B68     		ldr	r3, [r3]
 409:./Libraries/STM32H7xx_HAL_Driver/Src/stm32h7xx_ll_sdmmc.c **** }
 586              		.loc 1 409 1
 587 001a 1846     		mov	r0, r3
 588 001c 1437     		adds	r7, r7, #20
 589              	.LCFI59:
 590              		.cfi_def_cfa_offset 4
 591 001e BD46     		mov	sp, r7
 592              	.LCFI60:
 593              		.cfi_def_cfa_register 13
 594              		@ sp needed
 595 0020 5DF8047B 		ldr	r7, [sp], #4
 596              	.LCFI61:
 597              		.cfi_restore 7
 598              		.cfi_def_cfa_offset 0
 599 0024 7047     		bx	lr
 600              		.cfi_endproc
 601              	.LFE340:
 603              		.section	.text.SDMMC_ConfigData,"ax",%progbits
 604              		.align	1
 605              		.global	SDMMC_ConfigData
 606              		.syntax unified
 607              		.thumb
 608              		.thumb_func
 609              		.fpu fpv5-d16
 611              	SDMMC_ConfigData:
 612              	.LFB341:
 410:./Libraries/STM32H7xx_HAL_Driver/Src/stm32h7xx_ll_sdmmc.c **** 
 411:./Libraries/STM32H7xx_HAL_Driver/Src/stm32h7xx_ll_sdmmc.c **** /**
 412:./Libraries/STM32H7xx_HAL_Driver/Src/stm32h7xx_ll_sdmmc.c ****   * @brief  Configure the SDMMC data path according to the specified
 413:./Libraries/STM32H7xx_HAL_Driver/Src/stm32h7xx_ll_sdmmc.c ****   *         parameters in the SDMMC_DataInitTypeDef.
 414:./Libraries/STM32H7xx_HAL_Driver/Src/stm32h7xx_ll_sdmmc.c ****   * @param  SDMMCx: Pointer to SDMMC register base
 415:./Libraries/STM32H7xx_HAL_Driver/Src/stm32h7xx_ll_sdmmc.c ****   * @param  Data : pointer to a SDMMC_DataInitTypeDef structure
 416:./Libraries/STM32H7xx_HAL_Driver/Src/stm32h7xx_ll_sdmmc.c ****   *         that contains the configuration information for the SDMMC data.
 417:./Libraries/STM32H7xx_HAL_Driver/Src/stm32h7xx_ll_sdmmc.c ****   * @retval HAL status
 418:./Libraries/STM32H7xx_HAL_Driver/Src/stm32h7xx_ll_sdmmc.c ****   */
 419:./Libraries/STM32H7xx_HAL_Driver/Src/stm32h7xx_ll_sdmmc.c **** HAL_StatusTypeDef SDMMC_ConfigData(SDMMC_TypeDef *SDMMCx, SDMMC_DataInitTypeDef *Data)
 420:./Libraries/STM32H7xx_HAL_Driver/Src/stm32h7xx_ll_sdmmc.c **** {
 613              		.loc 1 420 1
 614              		.cfi_startproc
 615              		@ args = 0, pretend = 0, frame = 16
 616              		@ frame_needed = 1, uses_anonymous_args = 0
 617              		@ link register save eliminated.
 618 0000 80B4     		push	{r7}
ARM GAS  /tmp/ccUwcR4B.s 			page 19


 619              	.LCFI62:
 620              		.cfi_def_cfa_offset 4
 621              		.cfi_offset 7, -4
 622 0002 85B0     		sub	sp, sp, #20
 623              	.LCFI63:
 624              		.cfi_def_cfa_offset 24
 625 0004 00AF     		add	r7, sp, #0
 626              	.LCFI64:
 627              		.cfi_def_cfa_register 7
 628 0006 7860     		str	r0, [r7, #4]
 629 0008 3960     		str	r1, [r7]
 421:./Libraries/STM32H7xx_HAL_Driver/Src/stm32h7xx_ll_sdmmc.c ****   uint32_t tmpreg = 0;
 630              		.loc 1 421 12
 631 000a 0023     		movs	r3, #0
 632 000c FB60     		str	r3, [r7, #12]
 422:./Libraries/STM32H7xx_HAL_Driver/Src/stm32h7xx_ll_sdmmc.c **** 
 423:./Libraries/STM32H7xx_HAL_Driver/Src/stm32h7xx_ll_sdmmc.c ****   /* Check the parameters */
 424:./Libraries/STM32H7xx_HAL_Driver/Src/stm32h7xx_ll_sdmmc.c ****   assert_param(IS_SDMMC_DATA_LENGTH(Data->DataLength));
 425:./Libraries/STM32H7xx_HAL_Driver/Src/stm32h7xx_ll_sdmmc.c ****   assert_param(IS_SDMMC_BLOCK_SIZE(Data->DataBlockSize));
 426:./Libraries/STM32H7xx_HAL_Driver/Src/stm32h7xx_ll_sdmmc.c ****   assert_param(IS_SDMMC_TRANSFER_DIR(Data->TransferDir));
 427:./Libraries/STM32H7xx_HAL_Driver/Src/stm32h7xx_ll_sdmmc.c ****   assert_param(IS_SDMMC_TRANSFER_MODE(Data->TransferMode));
 428:./Libraries/STM32H7xx_HAL_Driver/Src/stm32h7xx_ll_sdmmc.c ****   assert_param(IS_SDMMC_DPSM(Data->DPSM));
 429:./Libraries/STM32H7xx_HAL_Driver/Src/stm32h7xx_ll_sdmmc.c **** 
 430:./Libraries/STM32H7xx_HAL_Driver/Src/stm32h7xx_ll_sdmmc.c ****   /* Set the SDMMC Data TimeOut value */
 431:./Libraries/STM32H7xx_HAL_Driver/Src/stm32h7xx_ll_sdmmc.c ****   SDMMCx->DTIMER = Data->DataTimeOut;
 633              		.loc 1 431 24
 634 000e 3B68     		ldr	r3, [r7]
 635 0010 1A68     		ldr	r2, [r3]
 636              		.loc 1 431 18
 637 0012 7B68     		ldr	r3, [r7, #4]
 638 0014 5A62     		str	r2, [r3, #36]
 432:./Libraries/STM32H7xx_HAL_Driver/Src/stm32h7xx_ll_sdmmc.c **** 
 433:./Libraries/STM32H7xx_HAL_Driver/Src/stm32h7xx_ll_sdmmc.c ****   /* Set the SDMMC DataLength value */
 434:./Libraries/STM32H7xx_HAL_Driver/Src/stm32h7xx_ll_sdmmc.c ****   SDMMCx->DLEN = Data->DataLength;
 639              		.loc 1 434 22
 640 0016 3B68     		ldr	r3, [r7]
 641 0018 5A68     		ldr	r2, [r3, #4]
 642              		.loc 1 434 16
 643 001a 7B68     		ldr	r3, [r7, #4]
 644 001c 9A62     		str	r2, [r3, #40]
 435:./Libraries/STM32H7xx_HAL_Driver/Src/stm32h7xx_ll_sdmmc.c **** 
 436:./Libraries/STM32H7xx_HAL_Driver/Src/stm32h7xx_ll_sdmmc.c ****   /* Set the SDMMC data configuration parameters */
 437:./Libraries/STM32H7xx_HAL_Driver/Src/stm32h7xx_ll_sdmmc.c ****   tmpreg |= (uint32_t)(Data->DataBlockSize | \
 645              		.loc 1 437 28
 646 001e 3B68     		ldr	r3, [r7]
 647 0020 9A68     		ldr	r2, [r3, #8]
 438:./Libraries/STM32H7xx_HAL_Driver/Src/stm32h7xx_ll_sdmmc.c ****                        Data->TransferDir   | \
 648              		.loc 1 438 28
 649 0022 3B68     		ldr	r3, [r7]
 650 0024 DB68     		ldr	r3, [r3, #12]
 437:./Libraries/STM32H7xx_HAL_Driver/Src/stm32h7xx_ll_sdmmc.c ****                        Data->TransferDir   | \
 651              		.loc 1 437 44
 652 0026 1A43     		orrs	r2, r2, r3
 439:./Libraries/STM32H7xx_HAL_Driver/Src/stm32h7xx_ll_sdmmc.c ****                        Data->TransferMode  | \
 653              		.loc 1 439 28
 654 0028 3B68     		ldr	r3, [r7]
 655 002a 1B69     		ldr	r3, [r3, #16]
ARM GAS  /tmp/ccUwcR4B.s 			page 20


 438:./Libraries/STM32H7xx_HAL_Driver/Src/stm32h7xx_ll_sdmmc.c ****                        Data->TransferDir   | \
 656              		.loc 1 438 44
 657 002c 1A43     		orrs	r2, r2, r3
 440:./Libraries/STM32H7xx_HAL_Driver/Src/stm32h7xx_ll_sdmmc.c ****                        Data->DPSM);
 658              		.loc 1 440 28
 659 002e 3B68     		ldr	r3, [r7]
 660 0030 5B69     		ldr	r3, [r3, #20]
 439:./Libraries/STM32H7xx_HAL_Driver/Src/stm32h7xx_ll_sdmmc.c ****                        Data->TransferMode  | \
 661              		.loc 1 439 44
 662 0032 1343     		orrs	r3, r3, r2
 437:./Libraries/STM32H7xx_HAL_Driver/Src/stm32h7xx_ll_sdmmc.c ****                        Data->TransferDir   | \
 663              		.loc 1 437 10
 664 0034 FA68     		ldr	r2, [r7, #12]
 665 0036 1343     		orrs	r3, r3, r2
 666 0038 FB60     		str	r3, [r7, #12]
 441:./Libraries/STM32H7xx_HAL_Driver/Src/stm32h7xx_ll_sdmmc.c **** 
 442:./Libraries/STM32H7xx_HAL_Driver/Src/stm32h7xx_ll_sdmmc.c ****   /* Write to SDMMC DCTRL */
 443:./Libraries/STM32H7xx_HAL_Driver/Src/stm32h7xx_ll_sdmmc.c ****   MODIFY_REG(SDMMCx->DCTRL, DCTRL_CLEAR_MASK, tmpreg);
 667              		.loc 1 443 3
 668 003a 7B68     		ldr	r3, [r7, #4]
 669 003c DB6A     		ldr	r3, [r3, #44]
 670 003e 23F0FF02 		bic	r2, r3, #255
 671 0042 FB68     		ldr	r3, [r7, #12]
 672 0044 1A43     		orrs	r2, r2, r3
 673 0046 7B68     		ldr	r3, [r7, #4]
 674 0048 DA62     		str	r2, [r3, #44]
 444:./Libraries/STM32H7xx_HAL_Driver/Src/stm32h7xx_ll_sdmmc.c **** 
 445:./Libraries/STM32H7xx_HAL_Driver/Src/stm32h7xx_ll_sdmmc.c ****   return HAL_OK;
 675              		.loc 1 445 10
 676 004a 0023     		movs	r3, #0
 446:./Libraries/STM32H7xx_HAL_Driver/Src/stm32h7xx_ll_sdmmc.c **** 
 447:./Libraries/STM32H7xx_HAL_Driver/Src/stm32h7xx_ll_sdmmc.c **** }
 677              		.loc 1 447 1
 678 004c 1846     		mov	r0, r3
 679 004e 1437     		adds	r7, r7, #20
 680              	.LCFI65:
 681              		.cfi_def_cfa_offset 4
 682 0050 BD46     		mov	sp, r7
 683              	.LCFI66:
 684              		.cfi_def_cfa_register 13
 685              		@ sp needed
 686 0052 5DF8047B 		ldr	r7, [sp], #4
 687              	.LCFI67:
 688              		.cfi_restore 7
 689              		.cfi_def_cfa_offset 0
 690 0056 7047     		bx	lr
 691              		.cfi_endproc
 692              	.LFE341:
 694              		.section	.text.SDMMC_GetDataCounter,"ax",%progbits
 695              		.align	1
 696              		.global	SDMMC_GetDataCounter
 697              		.syntax unified
 698              		.thumb
 699              		.thumb_func
 700              		.fpu fpv5-d16
 702              	SDMMC_GetDataCounter:
 703              	.LFB342:
ARM GAS  /tmp/ccUwcR4B.s 			page 21


 448:./Libraries/STM32H7xx_HAL_Driver/Src/stm32h7xx_ll_sdmmc.c **** 
 449:./Libraries/STM32H7xx_HAL_Driver/Src/stm32h7xx_ll_sdmmc.c **** /**
 450:./Libraries/STM32H7xx_HAL_Driver/Src/stm32h7xx_ll_sdmmc.c ****   * @brief  Returns number of remaining data bytes to be transferred.
 451:./Libraries/STM32H7xx_HAL_Driver/Src/stm32h7xx_ll_sdmmc.c ****   * @param  SDMMCx: Pointer to SDMMC register base
 452:./Libraries/STM32H7xx_HAL_Driver/Src/stm32h7xx_ll_sdmmc.c ****   * @retval Number of remaining data bytes to be transferred
 453:./Libraries/STM32H7xx_HAL_Driver/Src/stm32h7xx_ll_sdmmc.c ****   */
 454:./Libraries/STM32H7xx_HAL_Driver/Src/stm32h7xx_ll_sdmmc.c **** uint32_t SDMMC_GetDataCounter(SDMMC_TypeDef *SDMMCx)
 455:./Libraries/STM32H7xx_HAL_Driver/Src/stm32h7xx_ll_sdmmc.c **** {
 704              		.loc 1 455 1
 705              		.cfi_startproc
 706              		@ args = 0, pretend = 0, frame = 8
 707              		@ frame_needed = 1, uses_anonymous_args = 0
 708              		@ link register save eliminated.
 709 0000 80B4     		push	{r7}
 710              	.LCFI68:
 711              		.cfi_def_cfa_offset 4
 712              		.cfi_offset 7, -4
 713 0002 83B0     		sub	sp, sp, #12
 714              	.LCFI69:
 715              		.cfi_def_cfa_offset 16
 716 0004 00AF     		add	r7, sp, #0
 717              	.LCFI70:
 718              		.cfi_def_cfa_register 7
 719 0006 7860     		str	r0, [r7, #4]
 456:./Libraries/STM32H7xx_HAL_Driver/Src/stm32h7xx_ll_sdmmc.c ****   return (SDMMCx->DCOUNT);
 720              		.loc 1 456 17
 721 0008 7B68     		ldr	r3, [r7, #4]
 722 000a 1B6B     		ldr	r3, [r3, #48]
 457:./Libraries/STM32H7xx_HAL_Driver/Src/stm32h7xx_ll_sdmmc.c **** }
 723              		.loc 1 457 1
 724 000c 1846     		mov	r0, r3
 725 000e 0C37     		adds	r7, r7, #12
 726              	.LCFI71:
 727              		.cfi_def_cfa_offset 4
 728 0010 BD46     		mov	sp, r7
 729              	.LCFI72:
 730              		.cfi_def_cfa_register 13
 731              		@ sp needed
 732 0012 5DF8047B 		ldr	r7, [sp], #4
 733              	.LCFI73:
 734              		.cfi_restore 7
 735              		.cfi_def_cfa_offset 0
 736 0016 7047     		bx	lr
 737              		.cfi_endproc
 738              	.LFE342:
 740              		.section	.text.SDMMC_GetFIFOCount,"ax",%progbits
 741              		.align	1
 742              		.global	SDMMC_GetFIFOCount
 743              		.syntax unified
 744              		.thumb
 745              		.thumb_func
 746              		.fpu fpv5-d16
 748              	SDMMC_GetFIFOCount:
 749              	.LFB343:
 458:./Libraries/STM32H7xx_HAL_Driver/Src/stm32h7xx_ll_sdmmc.c **** 
 459:./Libraries/STM32H7xx_HAL_Driver/Src/stm32h7xx_ll_sdmmc.c **** /**
 460:./Libraries/STM32H7xx_HAL_Driver/Src/stm32h7xx_ll_sdmmc.c ****   * @brief  Get the FIFO data
ARM GAS  /tmp/ccUwcR4B.s 			page 22


 461:./Libraries/STM32H7xx_HAL_Driver/Src/stm32h7xx_ll_sdmmc.c ****   * @param  SDMMCx: Pointer to SDMMC register base
 462:./Libraries/STM32H7xx_HAL_Driver/Src/stm32h7xx_ll_sdmmc.c ****   * @retval Data received
 463:./Libraries/STM32H7xx_HAL_Driver/Src/stm32h7xx_ll_sdmmc.c ****   */
 464:./Libraries/STM32H7xx_HAL_Driver/Src/stm32h7xx_ll_sdmmc.c **** uint32_t SDMMC_GetFIFOCount(SDMMC_TypeDef *SDMMCx)
 465:./Libraries/STM32H7xx_HAL_Driver/Src/stm32h7xx_ll_sdmmc.c **** {
 750              		.loc 1 465 1
 751              		.cfi_startproc
 752              		@ args = 0, pretend = 0, frame = 8
 753              		@ frame_needed = 1, uses_anonymous_args = 0
 754              		@ link register save eliminated.
 755 0000 80B4     		push	{r7}
 756              	.LCFI74:
 757              		.cfi_def_cfa_offset 4
 758              		.cfi_offset 7, -4
 759 0002 83B0     		sub	sp, sp, #12
 760              	.LCFI75:
 761              		.cfi_def_cfa_offset 16
 762 0004 00AF     		add	r7, sp, #0
 763              	.LCFI76:
 764              		.cfi_def_cfa_register 7
 765 0006 7860     		str	r0, [r7, #4]
 466:./Libraries/STM32H7xx_HAL_Driver/Src/stm32h7xx_ll_sdmmc.c ****   return (SDMMCx->FIFO);
 766              		.loc 1 466 17
 767 0008 7B68     		ldr	r3, [r7, #4]
 768 000a D3F88030 		ldr	r3, [r3, #128]
 467:./Libraries/STM32H7xx_HAL_Driver/Src/stm32h7xx_ll_sdmmc.c **** }
 769              		.loc 1 467 1
 770 000e 1846     		mov	r0, r3
 771 0010 0C37     		adds	r7, r7, #12
 772              	.LCFI77:
 773              		.cfi_def_cfa_offset 4
 774 0012 BD46     		mov	sp, r7
 775              	.LCFI78:
 776              		.cfi_def_cfa_register 13
 777              		@ sp needed
 778 0014 5DF8047B 		ldr	r7, [sp], #4
 779              	.LCFI79:
 780              		.cfi_restore 7
 781              		.cfi_def_cfa_offset 0
 782 0018 7047     		bx	lr
 783              		.cfi_endproc
 784              	.LFE343:
 786              		.section	.text.SDMMC_SetSDMMCReadWaitMode,"ax",%progbits
 787              		.align	1
 788              		.global	SDMMC_SetSDMMCReadWaitMode
 789              		.syntax unified
 790              		.thumb
 791              		.thumb_func
 792              		.fpu fpv5-d16
 794              	SDMMC_SetSDMMCReadWaitMode:
 795              	.LFB344:
 468:./Libraries/STM32H7xx_HAL_Driver/Src/stm32h7xx_ll_sdmmc.c **** 
 469:./Libraries/STM32H7xx_HAL_Driver/Src/stm32h7xx_ll_sdmmc.c **** /**
 470:./Libraries/STM32H7xx_HAL_Driver/Src/stm32h7xx_ll_sdmmc.c ****   * @brief  Sets one of the two options of inserting read wait interval.
 471:./Libraries/STM32H7xx_HAL_Driver/Src/stm32h7xx_ll_sdmmc.c ****   * @param  SDMMCx: Pointer to SDMMC register base
 472:./Libraries/STM32H7xx_HAL_Driver/Src/stm32h7xx_ll_sdmmc.c ****   * @param  SDMMC_ReadWaitMode: SDMMC Read Wait operation mode.
 473:./Libraries/STM32H7xx_HAL_Driver/Src/stm32h7xx_ll_sdmmc.c ****   *          This parameter can be:
ARM GAS  /tmp/ccUwcR4B.s 			page 23


 474:./Libraries/STM32H7xx_HAL_Driver/Src/stm32h7xx_ll_sdmmc.c ****   *            @arg SDMMC_READ_WAIT_MODE_CLK: Read Wait control by stopping SDMMCCLK
 475:./Libraries/STM32H7xx_HAL_Driver/Src/stm32h7xx_ll_sdmmc.c ****   *            @arg SDMMC_READ_WAIT_MODE_DATA2: Read Wait control using SDMMC_DATA2
 476:./Libraries/STM32H7xx_HAL_Driver/Src/stm32h7xx_ll_sdmmc.c ****   * @retval None
 477:./Libraries/STM32H7xx_HAL_Driver/Src/stm32h7xx_ll_sdmmc.c ****   */
 478:./Libraries/STM32H7xx_HAL_Driver/Src/stm32h7xx_ll_sdmmc.c **** HAL_StatusTypeDef SDMMC_SetSDMMCReadWaitMode(SDMMC_TypeDef *SDMMCx, uint32_t SDMMC_ReadWaitMode)
 479:./Libraries/STM32H7xx_HAL_Driver/Src/stm32h7xx_ll_sdmmc.c **** {
 796              		.loc 1 479 1
 797              		.cfi_startproc
 798              		@ args = 0, pretend = 0, frame = 8
 799              		@ frame_needed = 1, uses_anonymous_args = 0
 800              		@ link register save eliminated.
 801 0000 80B4     		push	{r7}
 802              	.LCFI80:
 803              		.cfi_def_cfa_offset 4
 804              		.cfi_offset 7, -4
 805 0002 83B0     		sub	sp, sp, #12
 806              	.LCFI81:
 807              		.cfi_def_cfa_offset 16
 808 0004 00AF     		add	r7, sp, #0
 809              	.LCFI82:
 810              		.cfi_def_cfa_register 7
 811 0006 7860     		str	r0, [r7, #4]
 812 0008 3960     		str	r1, [r7]
 480:./Libraries/STM32H7xx_HAL_Driver/Src/stm32h7xx_ll_sdmmc.c ****   /* Check the parameters */
 481:./Libraries/STM32H7xx_HAL_Driver/Src/stm32h7xx_ll_sdmmc.c ****   assert_param(IS_SDMMC_READWAIT_MODE(SDMMC_ReadWaitMode));
 482:./Libraries/STM32H7xx_HAL_Driver/Src/stm32h7xx_ll_sdmmc.c **** 
 483:./Libraries/STM32H7xx_HAL_Driver/Src/stm32h7xx_ll_sdmmc.c ****   /* Set SDMMC read wait mode */
 484:./Libraries/STM32H7xx_HAL_Driver/Src/stm32h7xx_ll_sdmmc.c ****   MODIFY_REG(SDMMCx->DCTRL, SDMMC_DCTRL_RWMOD, SDMMC_ReadWaitMode);
 813              		.loc 1 484 3
 814 000a 7B68     		ldr	r3, [r7, #4]
 815 000c DB6A     		ldr	r3, [r3, #44]
 816 000e 23F48062 		bic	r2, r3, #1024
 817 0012 3B68     		ldr	r3, [r7]
 818 0014 1A43     		orrs	r2, r2, r3
 819 0016 7B68     		ldr	r3, [r7, #4]
 820 0018 DA62     		str	r2, [r3, #44]
 485:./Libraries/STM32H7xx_HAL_Driver/Src/stm32h7xx_ll_sdmmc.c **** 
 486:./Libraries/STM32H7xx_HAL_Driver/Src/stm32h7xx_ll_sdmmc.c ****   return HAL_OK;
 821              		.loc 1 486 10
 822 001a 0023     		movs	r3, #0
 487:./Libraries/STM32H7xx_HAL_Driver/Src/stm32h7xx_ll_sdmmc.c **** }
 823              		.loc 1 487 1
 824 001c 1846     		mov	r0, r3
 825 001e 0C37     		adds	r7, r7, #12
 826              	.LCFI83:
 827              		.cfi_def_cfa_offset 4
 828 0020 BD46     		mov	sp, r7
 829              	.LCFI84:
 830              		.cfi_def_cfa_register 13
 831              		@ sp needed
 832 0022 5DF8047B 		ldr	r7, [sp], #4
 833              	.LCFI85:
 834              		.cfi_restore 7
 835              		.cfi_def_cfa_offset 0
 836 0026 7047     		bx	lr
 837              		.cfi_endproc
 838              	.LFE344:
ARM GAS  /tmp/ccUwcR4B.s 			page 24


 840              		.section	.text.SDMMC_CmdBlockLength,"ax",%progbits
 841              		.align	1
 842              		.global	SDMMC_CmdBlockLength
 843              		.syntax unified
 844              		.thumb
 845              		.thumb_func
 846              		.fpu fpv5-d16
 848              	SDMMC_CmdBlockLength:
 849              	.LFB345:
 488:./Libraries/STM32H7xx_HAL_Driver/Src/stm32h7xx_ll_sdmmc.c **** 
 489:./Libraries/STM32H7xx_HAL_Driver/Src/stm32h7xx_ll_sdmmc.c **** /**
 490:./Libraries/STM32H7xx_HAL_Driver/Src/stm32h7xx_ll_sdmmc.c ****   * @}
 491:./Libraries/STM32H7xx_HAL_Driver/Src/stm32h7xx_ll_sdmmc.c ****   */
 492:./Libraries/STM32H7xx_HAL_Driver/Src/stm32h7xx_ll_sdmmc.c **** 
 493:./Libraries/STM32H7xx_HAL_Driver/Src/stm32h7xx_ll_sdmmc.c **** 
 494:./Libraries/STM32H7xx_HAL_Driver/Src/stm32h7xx_ll_sdmmc.c **** /** @defgroup HAL_SDMMC_LL_Group4 Command management functions
 495:./Libraries/STM32H7xx_HAL_Driver/Src/stm32h7xx_ll_sdmmc.c ****   *  @brief   Data transfers functions
 496:./Libraries/STM32H7xx_HAL_Driver/Src/stm32h7xx_ll_sdmmc.c ****   *
 497:./Libraries/STM32H7xx_HAL_Driver/Src/stm32h7xx_ll_sdmmc.c **** @verbatim
 498:./Libraries/STM32H7xx_HAL_Driver/Src/stm32h7xx_ll_sdmmc.c ****  ===============================================================================
 499:./Libraries/STM32H7xx_HAL_Driver/Src/stm32h7xx_ll_sdmmc.c ****                    ##### Commands management functions #####
 500:./Libraries/STM32H7xx_HAL_Driver/Src/stm32h7xx_ll_sdmmc.c ****  ===============================================================================
 501:./Libraries/STM32H7xx_HAL_Driver/Src/stm32h7xx_ll_sdmmc.c ****     [..]
 502:./Libraries/STM32H7xx_HAL_Driver/Src/stm32h7xx_ll_sdmmc.c ****     This subsection provides a set of functions allowing to manage the needed commands.
 503:./Libraries/STM32H7xx_HAL_Driver/Src/stm32h7xx_ll_sdmmc.c **** 
 504:./Libraries/STM32H7xx_HAL_Driver/Src/stm32h7xx_ll_sdmmc.c **** @endverbatim
 505:./Libraries/STM32H7xx_HAL_Driver/Src/stm32h7xx_ll_sdmmc.c ****   * @{
 506:./Libraries/STM32H7xx_HAL_Driver/Src/stm32h7xx_ll_sdmmc.c ****   */
 507:./Libraries/STM32H7xx_HAL_Driver/Src/stm32h7xx_ll_sdmmc.c **** 
 508:./Libraries/STM32H7xx_HAL_Driver/Src/stm32h7xx_ll_sdmmc.c **** /**
 509:./Libraries/STM32H7xx_HAL_Driver/Src/stm32h7xx_ll_sdmmc.c ****   * @brief  Send the Data Block Length command and check the response
 510:./Libraries/STM32H7xx_HAL_Driver/Src/stm32h7xx_ll_sdmmc.c ****   * @param  SDMMCx: Pointer to SDMMC register base
 511:./Libraries/STM32H7xx_HAL_Driver/Src/stm32h7xx_ll_sdmmc.c ****   * @retval HAL status
 512:./Libraries/STM32H7xx_HAL_Driver/Src/stm32h7xx_ll_sdmmc.c ****   */
 513:./Libraries/STM32H7xx_HAL_Driver/Src/stm32h7xx_ll_sdmmc.c **** uint32_t SDMMC_CmdBlockLength(SDMMC_TypeDef *SDMMCx, uint32_t BlockSize)
 514:./Libraries/STM32H7xx_HAL_Driver/Src/stm32h7xx_ll_sdmmc.c **** {
 850              		.loc 1 514 1
 851              		.cfi_startproc
 852              		@ args = 0, pretend = 0, frame = 32
 853              		@ frame_needed = 1, uses_anonymous_args = 0
 854 0000 80B5     		push	{r7, lr}
 855              	.LCFI86:
 856              		.cfi_def_cfa_offset 8
 857              		.cfi_offset 7, -8
 858              		.cfi_offset 14, -4
 859 0002 88B0     		sub	sp, sp, #32
 860              	.LCFI87:
 861              		.cfi_def_cfa_offset 40
 862 0004 00AF     		add	r7, sp, #0
 863              	.LCFI88:
 864              		.cfi_def_cfa_register 7
 865 0006 7860     		str	r0, [r7, #4]
 866 0008 3960     		str	r1, [r7]
 515:./Libraries/STM32H7xx_HAL_Driver/Src/stm32h7xx_ll_sdmmc.c ****   SDMMC_CmdInitTypeDef  sdmmc_cmdinit;
 516:./Libraries/STM32H7xx_HAL_Driver/Src/stm32h7xx_ll_sdmmc.c ****   uint32_t errorstate;
 517:./Libraries/STM32H7xx_HAL_Driver/Src/stm32h7xx_ll_sdmmc.c **** 
 518:./Libraries/STM32H7xx_HAL_Driver/Src/stm32h7xx_ll_sdmmc.c ****   /* Set Block Size for Card */
ARM GAS  /tmp/ccUwcR4B.s 			page 25


 519:./Libraries/STM32H7xx_HAL_Driver/Src/stm32h7xx_ll_sdmmc.c ****   sdmmc_cmdinit.Argument         = (uint32_t)BlockSize;
 867              		.loc 1 519 34
 868 000a 3B68     		ldr	r3, [r7]
 869 000c BB60     		str	r3, [r7, #8]
 520:./Libraries/STM32H7xx_HAL_Driver/Src/stm32h7xx_ll_sdmmc.c ****   sdmmc_cmdinit.CmdIndex         = SDMMC_CMD_SET_BLOCKLEN;
 870              		.loc 1 520 34
 871 000e 1023     		movs	r3, #16
 872 0010 FB60     		str	r3, [r7, #12]
 521:./Libraries/STM32H7xx_HAL_Driver/Src/stm32h7xx_ll_sdmmc.c ****   sdmmc_cmdinit.Response         = SDMMC_RESPONSE_SHORT;
 873              		.loc 1 521 34
 874 0012 4FF48073 		mov	r3, #256
 875 0016 3B61     		str	r3, [r7, #16]
 522:./Libraries/STM32H7xx_HAL_Driver/Src/stm32h7xx_ll_sdmmc.c ****   sdmmc_cmdinit.WaitForInterrupt = SDMMC_WAIT_NO;
 876              		.loc 1 522 34
 877 0018 0023     		movs	r3, #0
 878 001a 7B61     		str	r3, [r7, #20]
 523:./Libraries/STM32H7xx_HAL_Driver/Src/stm32h7xx_ll_sdmmc.c ****   sdmmc_cmdinit.CPSM             = SDMMC_CPSM_ENABLE;
 879              		.loc 1 523 34
 880 001c 4FF48053 		mov	r3, #4096
 881 0020 BB61     		str	r3, [r7, #24]
 524:./Libraries/STM32H7xx_HAL_Driver/Src/stm32h7xx_ll_sdmmc.c ****   (void)SDMMC_SendCommand(SDMMCx, &sdmmc_cmdinit);
 882              		.loc 1 524 9
 883 0022 07F10803 		add	r3, r7, #8
 884 0026 1946     		mov	r1, r3
 885 0028 7868     		ldr	r0, [r7, #4]
 886 002a FFF7FEFF 		bl	SDMMC_SendCommand
 525:./Libraries/STM32H7xx_HAL_Driver/Src/stm32h7xx_ll_sdmmc.c **** 
 526:./Libraries/STM32H7xx_HAL_Driver/Src/stm32h7xx_ll_sdmmc.c ****   /* Check for error conditions */
 527:./Libraries/STM32H7xx_HAL_Driver/Src/stm32h7xx_ll_sdmmc.c ****   errorstate = SDMMC_GetCmdResp1(SDMMCx, SDMMC_CMD_SET_BLOCKLEN, SDMMC_CMDTIMEOUT);
 887              		.loc 1 527 16
 888 002e 41F28832 		movw	r2, #5000
 889 0032 1021     		movs	r1, #16
 890 0034 7868     		ldr	r0, [r7, #4]
 891 0036 FFF7FEFF 		bl	SDMMC_GetCmdResp1
 892 003a F861     		str	r0, [r7, #28]
 528:./Libraries/STM32H7xx_HAL_Driver/Src/stm32h7xx_ll_sdmmc.c **** 
 529:./Libraries/STM32H7xx_HAL_Driver/Src/stm32h7xx_ll_sdmmc.c ****   return errorstate;
 893              		.loc 1 529 10
 894 003c FB69     		ldr	r3, [r7, #28]
 530:./Libraries/STM32H7xx_HAL_Driver/Src/stm32h7xx_ll_sdmmc.c **** }
 895              		.loc 1 530 1
 896 003e 1846     		mov	r0, r3
 897 0040 2037     		adds	r7, r7, #32
 898              	.LCFI89:
 899              		.cfi_def_cfa_offset 8
 900 0042 BD46     		mov	sp, r7
 901              	.LCFI90:
 902              		.cfi_def_cfa_register 13
 903              		@ sp needed
 904 0044 80BD     		pop	{r7, pc}
 905              		.cfi_endproc
 906              	.LFE345:
 908              		.section	.text.SDMMC_CmdReadSingleBlock,"ax",%progbits
 909              		.align	1
 910              		.global	SDMMC_CmdReadSingleBlock
 911              		.syntax unified
 912              		.thumb
ARM GAS  /tmp/ccUwcR4B.s 			page 26


 913              		.thumb_func
 914              		.fpu fpv5-d16
 916              	SDMMC_CmdReadSingleBlock:
 917              	.LFB346:
 531:./Libraries/STM32H7xx_HAL_Driver/Src/stm32h7xx_ll_sdmmc.c **** 
 532:./Libraries/STM32H7xx_HAL_Driver/Src/stm32h7xx_ll_sdmmc.c **** /**
 533:./Libraries/STM32H7xx_HAL_Driver/Src/stm32h7xx_ll_sdmmc.c ****   * @brief  Send the Read Single Block command and check the response
 534:./Libraries/STM32H7xx_HAL_Driver/Src/stm32h7xx_ll_sdmmc.c ****   * @param  SDMMCx: Pointer to SDMMC register base
 535:./Libraries/STM32H7xx_HAL_Driver/Src/stm32h7xx_ll_sdmmc.c ****   * @retval HAL status
 536:./Libraries/STM32H7xx_HAL_Driver/Src/stm32h7xx_ll_sdmmc.c ****   */
 537:./Libraries/STM32H7xx_HAL_Driver/Src/stm32h7xx_ll_sdmmc.c **** uint32_t SDMMC_CmdReadSingleBlock(SDMMC_TypeDef *SDMMCx, uint32_t ReadAdd)
 538:./Libraries/STM32H7xx_HAL_Driver/Src/stm32h7xx_ll_sdmmc.c **** {
 918              		.loc 1 538 1
 919              		.cfi_startproc
 920              		@ args = 0, pretend = 0, frame = 32
 921              		@ frame_needed = 1, uses_anonymous_args = 0
 922 0000 80B5     		push	{r7, lr}
 923              	.LCFI91:
 924              		.cfi_def_cfa_offset 8
 925              		.cfi_offset 7, -8
 926              		.cfi_offset 14, -4
 927 0002 88B0     		sub	sp, sp, #32
 928              	.LCFI92:
 929              		.cfi_def_cfa_offset 40
 930 0004 00AF     		add	r7, sp, #0
 931              	.LCFI93:
 932              		.cfi_def_cfa_register 7
 933 0006 7860     		str	r0, [r7, #4]
 934 0008 3960     		str	r1, [r7]
 539:./Libraries/STM32H7xx_HAL_Driver/Src/stm32h7xx_ll_sdmmc.c ****   SDMMC_CmdInitTypeDef  sdmmc_cmdinit;
 540:./Libraries/STM32H7xx_HAL_Driver/Src/stm32h7xx_ll_sdmmc.c ****   uint32_t errorstate;
 541:./Libraries/STM32H7xx_HAL_Driver/Src/stm32h7xx_ll_sdmmc.c **** 
 542:./Libraries/STM32H7xx_HAL_Driver/Src/stm32h7xx_ll_sdmmc.c ****   /* Set Block Size for Card */
 543:./Libraries/STM32H7xx_HAL_Driver/Src/stm32h7xx_ll_sdmmc.c ****   sdmmc_cmdinit.Argument         = (uint32_t)ReadAdd;
 935              		.loc 1 543 34
 936 000a 3B68     		ldr	r3, [r7]
 937 000c BB60     		str	r3, [r7, #8]
 544:./Libraries/STM32H7xx_HAL_Driver/Src/stm32h7xx_ll_sdmmc.c ****   sdmmc_cmdinit.CmdIndex         = SDMMC_CMD_READ_SINGLE_BLOCK;
 938              		.loc 1 544 34
 939 000e 1123     		movs	r3, #17
 940 0010 FB60     		str	r3, [r7, #12]
 545:./Libraries/STM32H7xx_HAL_Driver/Src/stm32h7xx_ll_sdmmc.c ****   sdmmc_cmdinit.Response         = SDMMC_RESPONSE_SHORT;
 941              		.loc 1 545 34
 942 0012 4FF48073 		mov	r3, #256
 943 0016 3B61     		str	r3, [r7, #16]
 546:./Libraries/STM32H7xx_HAL_Driver/Src/stm32h7xx_ll_sdmmc.c ****   sdmmc_cmdinit.WaitForInterrupt = SDMMC_WAIT_NO;
 944              		.loc 1 546 34
 945 0018 0023     		movs	r3, #0
 946 001a 7B61     		str	r3, [r7, #20]
 547:./Libraries/STM32H7xx_HAL_Driver/Src/stm32h7xx_ll_sdmmc.c ****   sdmmc_cmdinit.CPSM             = SDMMC_CPSM_ENABLE;
 947              		.loc 1 547 34
 948 001c 4FF48053 		mov	r3, #4096
 949 0020 BB61     		str	r3, [r7, #24]
 548:./Libraries/STM32H7xx_HAL_Driver/Src/stm32h7xx_ll_sdmmc.c ****   (void)SDMMC_SendCommand(SDMMCx, &sdmmc_cmdinit);
 950              		.loc 1 548 9
 951 0022 07F10803 		add	r3, r7, #8
 952 0026 1946     		mov	r1, r3
ARM GAS  /tmp/ccUwcR4B.s 			page 27


 953 0028 7868     		ldr	r0, [r7, #4]
 954 002a FFF7FEFF 		bl	SDMMC_SendCommand
 549:./Libraries/STM32H7xx_HAL_Driver/Src/stm32h7xx_ll_sdmmc.c **** 
 550:./Libraries/STM32H7xx_HAL_Driver/Src/stm32h7xx_ll_sdmmc.c ****   /* Check for error conditions */
 551:./Libraries/STM32H7xx_HAL_Driver/Src/stm32h7xx_ll_sdmmc.c ****   errorstate = SDMMC_GetCmdResp1(SDMMCx, SDMMC_CMD_READ_SINGLE_BLOCK, SDMMC_CMDTIMEOUT);
 955              		.loc 1 551 16
 956 002e 41F28832 		movw	r2, #5000
 957 0032 1121     		movs	r1, #17
 958 0034 7868     		ldr	r0, [r7, #4]
 959 0036 FFF7FEFF 		bl	SDMMC_GetCmdResp1
 960 003a F861     		str	r0, [r7, #28]
 552:./Libraries/STM32H7xx_HAL_Driver/Src/stm32h7xx_ll_sdmmc.c **** 
 553:./Libraries/STM32H7xx_HAL_Driver/Src/stm32h7xx_ll_sdmmc.c ****   return errorstate;
 961              		.loc 1 553 10
 962 003c FB69     		ldr	r3, [r7, #28]
 554:./Libraries/STM32H7xx_HAL_Driver/Src/stm32h7xx_ll_sdmmc.c **** }
 963              		.loc 1 554 1
 964 003e 1846     		mov	r0, r3
 965 0040 2037     		adds	r7, r7, #32
 966              	.LCFI94:
 967              		.cfi_def_cfa_offset 8
 968 0042 BD46     		mov	sp, r7
 969              	.LCFI95:
 970              		.cfi_def_cfa_register 13
 971              		@ sp needed
 972 0044 80BD     		pop	{r7, pc}
 973              		.cfi_endproc
 974              	.LFE346:
 976              		.section	.text.SDMMC_CmdReadMultiBlock,"ax",%progbits
 977              		.align	1
 978              		.global	SDMMC_CmdReadMultiBlock
 979              		.syntax unified
 980              		.thumb
 981              		.thumb_func
 982              		.fpu fpv5-d16
 984              	SDMMC_CmdReadMultiBlock:
 985              	.LFB347:
 555:./Libraries/STM32H7xx_HAL_Driver/Src/stm32h7xx_ll_sdmmc.c **** 
 556:./Libraries/STM32H7xx_HAL_Driver/Src/stm32h7xx_ll_sdmmc.c **** /**
 557:./Libraries/STM32H7xx_HAL_Driver/Src/stm32h7xx_ll_sdmmc.c ****   * @brief  Send the Read Multi Block command and check the response
 558:./Libraries/STM32H7xx_HAL_Driver/Src/stm32h7xx_ll_sdmmc.c ****   * @param  SDMMCx: Pointer to SDMMC register base
 559:./Libraries/STM32H7xx_HAL_Driver/Src/stm32h7xx_ll_sdmmc.c ****   * @retval HAL status
 560:./Libraries/STM32H7xx_HAL_Driver/Src/stm32h7xx_ll_sdmmc.c ****   */
 561:./Libraries/STM32H7xx_HAL_Driver/Src/stm32h7xx_ll_sdmmc.c **** uint32_t SDMMC_CmdReadMultiBlock(SDMMC_TypeDef *SDMMCx, uint32_t ReadAdd)
 562:./Libraries/STM32H7xx_HAL_Driver/Src/stm32h7xx_ll_sdmmc.c **** {
 986              		.loc 1 562 1
 987              		.cfi_startproc
 988              		@ args = 0, pretend = 0, frame = 32
 989              		@ frame_needed = 1, uses_anonymous_args = 0
 990 0000 80B5     		push	{r7, lr}
 991              	.LCFI96:
 992              		.cfi_def_cfa_offset 8
 993              		.cfi_offset 7, -8
 994              		.cfi_offset 14, -4
 995 0002 88B0     		sub	sp, sp, #32
 996              	.LCFI97:
 997              		.cfi_def_cfa_offset 40
ARM GAS  /tmp/ccUwcR4B.s 			page 28


 998 0004 00AF     		add	r7, sp, #0
 999              	.LCFI98:
 1000              		.cfi_def_cfa_register 7
 1001 0006 7860     		str	r0, [r7, #4]
 1002 0008 3960     		str	r1, [r7]
 563:./Libraries/STM32H7xx_HAL_Driver/Src/stm32h7xx_ll_sdmmc.c ****   SDMMC_CmdInitTypeDef  sdmmc_cmdinit;
 564:./Libraries/STM32H7xx_HAL_Driver/Src/stm32h7xx_ll_sdmmc.c ****   uint32_t errorstate;
 565:./Libraries/STM32H7xx_HAL_Driver/Src/stm32h7xx_ll_sdmmc.c **** 
 566:./Libraries/STM32H7xx_HAL_Driver/Src/stm32h7xx_ll_sdmmc.c ****   /* Set Block Size for Card */
 567:./Libraries/STM32H7xx_HAL_Driver/Src/stm32h7xx_ll_sdmmc.c ****   sdmmc_cmdinit.Argument         = (uint32_t)ReadAdd;
 1003              		.loc 1 567 34
 1004 000a 3B68     		ldr	r3, [r7]
 1005 000c BB60     		str	r3, [r7, #8]
 568:./Libraries/STM32H7xx_HAL_Driver/Src/stm32h7xx_ll_sdmmc.c ****   sdmmc_cmdinit.CmdIndex         = SDMMC_CMD_READ_MULT_BLOCK;
 1006              		.loc 1 568 34
 1007 000e 1223     		movs	r3, #18
 1008 0010 FB60     		str	r3, [r7, #12]
 569:./Libraries/STM32H7xx_HAL_Driver/Src/stm32h7xx_ll_sdmmc.c ****   sdmmc_cmdinit.Response         = SDMMC_RESPONSE_SHORT;
 1009              		.loc 1 569 34
 1010 0012 4FF48073 		mov	r3, #256
 1011 0016 3B61     		str	r3, [r7, #16]
 570:./Libraries/STM32H7xx_HAL_Driver/Src/stm32h7xx_ll_sdmmc.c ****   sdmmc_cmdinit.WaitForInterrupt = SDMMC_WAIT_NO;
 1012              		.loc 1 570 34
 1013 0018 0023     		movs	r3, #0
 1014 001a 7B61     		str	r3, [r7, #20]
 571:./Libraries/STM32H7xx_HAL_Driver/Src/stm32h7xx_ll_sdmmc.c ****   sdmmc_cmdinit.CPSM             = SDMMC_CPSM_ENABLE;
 1015              		.loc 1 571 34
 1016 001c 4FF48053 		mov	r3, #4096
 1017 0020 BB61     		str	r3, [r7, #24]
 572:./Libraries/STM32H7xx_HAL_Driver/Src/stm32h7xx_ll_sdmmc.c ****   (void)SDMMC_SendCommand(SDMMCx, &sdmmc_cmdinit);
 1018              		.loc 1 572 9
 1019 0022 07F10803 		add	r3, r7, #8
 1020 0026 1946     		mov	r1, r3
 1021 0028 7868     		ldr	r0, [r7, #4]
 1022 002a FFF7FEFF 		bl	SDMMC_SendCommand
 573:./Libraries/STM32H7xx_HAL_Driver/Src/stm32h7xx_ll_sdmmc.c **** 
 574:./Libraries/STM32H7xx_HAL_Driver/Src/stm32h7xx_ll_sdmmc.c ****   /* Check for error conditions */
 575:./Libraries/STM32H7xx_HAL_Driver/Src/stm32h7xx_ll_sdmmc.c ****   errorstate = SDMMC_GetCmdResp1(SDMMCx, SDMMC_CMD_READ_MULT_BLOCK, SDMMC_CMDTIMEOUT);
 1023              		.loc 1 575 16
 1024 002e 41F28832 		movw	r2, #5000
 1025 0032 1221     		movs	r1, #18
 1026 0034 7868     		ldr	r0, [r7, #4]
 1027 0036 FFF7FEFF 		bl	SDMMC_GetCmdResp1
 1028 003a F861     		str	r0, [r7, #28]
 576:./Libraries/STM32H7xx_HAL_Driver/Src/stm32h7xx_ll_sdmmc.c **** 
 577:./Libraries/STM32H7xx_HAL_Driver/Src/stm32h7xx_ll_sdmmc.c ****   return errorstate;
 1029              		.loc 1 577 10
 1030 003c FB69     		ldr	r3, [r7, #28]
 578:./Libraries/STM32H7xx_HAL_Driver/Src/stm32h7xx_ll_sdmmc.c **** }
 1031              		.loc 1 578 1
 1032 003e 1846     		mov	r0, r3
 1033 0040 2037     		adds	r7, r7, #32
 1034              	.LCFI99:
 1035              		.cfi_def_cfa_offset 8
 1036 0042 BD46     		mov	sp, r7
 1037              	.LCFI100:
 1038              		.cfi_def_cfa_register 13
ARM GAS  /tmp/ccUwcR4B.s 			page 29


 1039              		@ sp needed
 1040 0044 80BD     		pop	{r7, pc}
 1041              		.cfi_endproc
 1042              	.LFE347:
 1044              		.section	.text.SDMMC_CmdWriteSingleBlock,"ax",%progbits
 1045              		.align	1
 1046              		.global	SDMMC_CmdWriteSingleBlock
 1047              		.syntax unified
 1048              		.thumb
 1049              		.thumb_func
 1050              		.fpu fpv5-d16
 1052              	SDMMC_CmdWriteSingleBlock:
 1053              	.LFB348:
 579:./Libraries/STM32H7xx_HAL_Driver/Src/stm32h7xx_ll_sdmmc.c **** 
 580:./Libraries/STM32H7xx_HAL_Driver/Src/stm32h7xx_ll_sdmmc.c **** /**
 581:./Libraries/STM32H7xx_HAL_Driver/Src/stm32h7xx_ll_sdmmc.c ****   * @brief  Send the Write Single Block command and check the response
 582:./Libraries/STM32H7xx_HAL_Driver/Src/stm32h7xx_ll_sdmmc.c ****   * @param  SDMMCx: Pointer to SDMMC register base
 583:./Libraries/STM32H7xx_HAL_Driver/Src/stm32h7xx_ll_sdmmc.c ****   * @retval HAL status
 584:./Libraries/STM32H7xx_HAL_Driver/Src/stm32h7xx_ll_sdmmc.c ****   */
 585:./Libraries/STM32H7xx_HAL_Driver/Src/stm32h7xx_ll_sdmmc.c **** uint32_t SDMMC_CmdWriteSingleBlock(SDMMC_TypeDef *SDMMCx, uint32_t WriteAdd)
 586:./Libraries/STM32H7xx_HAL_Driver/Src/stm32h7xx_ll_sdmmc.c **** {
 1054              		.loc 1 586 1
 1055              		.cfi_startproc
 1056              		@ args = 0, pretend = 0, frame = 32
 1057              		@ frame_needed = 1, uses_anonymous_args = 0
 1058 0000 80B5     		push	{r7, lr}
 1059              	.LCFI101:
 1060              		.cfi_def_cfa_offset 8
 1061              		.cfi_offset 7, -8
 1062              		.cfi_offset 14, -4
 1063 0002 88B0     		sub	sp, sp, #32
 1064              	.LCFI102:
 1065              		.cfi_def_cfa_offset 40
 1066 0004 00AF     		add	r7, sp, #0
 1067              	.LCFI103:
 1068              		.cfi_def_cfa_register 7
 1069 0006 7860     		str	r0, [r7, #4]
 1070 0008 3960     		str	r1, [r7]
 587:./Libraries/STM32H7xx_HAL_Driver/Src/stm32h7xx_ll_sdmmc.c ****   SDMMC_CmdInitTypeDef  sdmmc_cmdinit;
 588:./Libraries/STM32H7xx_HAL_Driver/Src/stm32h7xx_ll_sdmmc.c ****   uint32_t errorstate;
 589:./Libraries/STM32H7xx_HAL_Driver/Src/stm32h7xx_ll_sdmmc.c **** 
 590:./Libraries/STM32H7xx_HAL_Driver/Src/stm32h7xx_ll_sdmmc.c ****   /* Set Block Size for Card */
 591:./Libraries/STM32H7xx_HAL_Driver/Src/stm32h7xx_ll_sdmmc.c ****   sdmmc_cmdinit.Argument         = (uint32_t)WriteAdd;
 1071              		.loc 1 591 34
 1072 000a 3B68     		ldr	r3, [r7]
 1073 000c BB60     		str	r3, [r7, #8]
 592:./Libraries/STM32H7xx_HAL_Driver/Src/stm32h7xx_ll_sdmmc.c ****   sdmmc_cmdinit.CmdIndex         = SDMMC_CMD_WRITE_SINGLE_BLOCK;
 1074              		.loc 1 592 34
 1075 000e 1823     		movs	r3, #24
 1076 0010 FB60     		str	r3, [r7, #12]
 593:./Libraries/STM32H7xx_HAL_Driver/Src/stm32h7xx_ll_sdmmc.c ****   sdmmc_cmdinit.Response         = SDMMC_RESPONSE_SHORT;
 1077              		.loc 1 593 34
 1078 0012 4FF48073 		mov	r3, #256
 1079 0016 3B61     		str	r3, [r7, #16]
 594:./Libraries/STM32H7xx_HAL_Driver/Src/stm32h7xx_ll_sdmmc.c ****   sdmmc_cmdinit.WaitForInterrupt = SDMMC_WAIT_NO;
 1080              		.loc 1 594 34
 1081 0018 0023     		movs	r3, #0
ARM GAS  /tmp/ccUwcR4B.s 			page 30


 1082 001a 7B61     		str	r3, [r7, #20]
 595:./Libraries/STM32H7xx_HAL_Driver/Src/stm32h7xx_ll_sdmmc.c ****   sdmmc_cmdinit.CPSM             = SDMMC_CPSM_ENABLE;
 1083              		.loc 1 595 34
 1084 001c 4FF48053 		mov	r3, #4096
 1085 0020 BB61     		str	r3, [r7, #24]
 596:./Libraries/STM32H7xx_HAL_Driver/Src/stm32h7xx_ll_sdmmc.c ****   (void)SDMMC_SendCommand(SDMMCx, &sdmmc_cmdinit);
 1086              		.loc 1 596 9
 1087 0022 07F10803 		add	r3, r7, #8
 1088 0026 1946     		mov	r1, r3
 1089 0028 7868     		ldr	r0, [r7, #4]
 1090 002a FFF7FEFF 		bl	SDMMC_SendCommand
 597:./Libraries/STM32H7xx_HAL_Driver/Src/stm32h7xx_ll_sdmmc.c **** 
 598:./Libraries/STM32H7xx_HAL_Driver/Src/stm32h7xx_ll_sdmmc.c ****   /* Check for error conditions */
 599:./Libraries/STM32H7xx_HAL_Driver/Src/stm32h7xx_ll_sdmmc.c ****   errorstate = SDMMC_GetCmdResp1(SDMMCx, SDMMC_CMD_WRITE_SINGLE_BLOCK, SDMMC_CMDTIMEOUT);
 1091              		.loc 1 599 16
 1092 002e 41F28832 		movw	r2, #5000
 1093 0032 1821     		movs	r1, #24
 1094 0034 7868     		ldr	r0, [r7, #4]
 1095 0036 FFF7FEFF 		bl	SDMMC_GetCmdResp1
 1096 003a F861     		str	r0, [r7, #28]
 600:./Libraries/STM32H7xx_HAL_Driver/Src/stm32h7xx_ll_sdmmc.c **** 
 601:./Libraries/STM32H7xx_HAL_Driver/Src/stm32h7xx_ll_sdmmc.c ****   return errorstate;
 1097              		.loc 1 601 10
 1098 003c FB69     		ldr	r3, [r7, #28]
 602:./Libraries/STM32H7xx_HAL_Driver/Src/stm32h7xx_ll_sdmmc.c **** }
 1099              		.loc 1 602 1
 1100 003e 1846     		mov	r0, r3
 1101 0040 2037     		adds	r7, r7, #32
 1102              	.LCFI104:
 1103              		.cfi_def_cfa_offset 8
 1104 0042 BD46     		mov	sp, r7
 1105              	.LCFI105:
 1106              		.cfi_def_cfa_register 13
 1107              		@ sp needed
 1108 0044 80BD     		pop	{r7, pc}
 1109              		.cfi_endproc
 1110              	.LFE348:
 1112              		.section	.text.SDMMC_CmdWriteMultiBlock,"ax",%progbits
 1113              		.align	1
 1114              		.global	SDMMC_CmdWriteMultiBlock
 1115              		.syntax unified
 1116              		.thumb
 1117              		.thumb_func
 1118              		.fpu fpv5-d16
 1120              	SDMMC_CmdWriteMultiBlock:
 1121              	.LFB349:
 603:./Libraries/STM32H7xx_HAL_Driver/Src/stm32h7xx_ll_sdmmc.c **** 
 604:./Libraries/STM32H7xx_HAL_Driver/Src/stm32h7xx_ll_sdmmc.c **** /**
 605:./Libraries/STM32H7xx_HAL_Driver/Src/stm32h7xx_ll_sdmmc.c ****   * @brief  Send the Write Multi Block command and check the response
 606:./Libraries/STM32H7xx_HAL_Driver/Src/stm32h7xx_ll_sdmmc.c ****   * @param  SDMMCx: Pointer to SDMMC register base
 607:./Libraries/STM32H7xx_HAL_Driver/Src/stm32h7xx_ll_sdmmc.c ****   * @retval HAL status
 608:./Libraries/STM32H7xx_HAL_Driver/Src/stm32h7xx_ll_sdmmc.c ****   */
 609:./Libraries/STM32H7xx_HAL_Driver/Src/stm32h7xx_ll_sdmmc.c **** uint32_t SDMMC_CmdWriteMultiBlock(SDMMC_TypeDef *SDMMCx, uint32_t WriteAdd)
 610:./Libraries/STM32H7xx_HAL_Driver/Src/stm32h7xx_ll_sdmmc.c **** {
 1122              		.loc 1 610 1
 1123              		.cfi_startproc
 1124              		@ args = 0, pretend = 0, frame = 32
ARM GAS  /tmp/ccUwcR4B.s 			page 31


 1125              		@ frame_needed = 1, uses_anonymous_args = 0
 1126 0000 80B5     		push	{r7, lr}
 1127              	.LCFI106:
 1128              		.cfi_def_cfa_offset 8
 1129              		.cfi_offset 7, -8
 1130              		.cfi_offset 14, -4
 1131 0002 88B0     		sub	sp, sp, #32
 1132              	.LCFI107:
 1133              		.cfi_def_cfa_offset 40
 1134 0004 00AF     		add	r7, sp, #0
 1135              	.LCFI108:
 1136              		.cfi_def_cfa_register 7
 1137 0006 7860     		str	r0, [r7, #4]
 1138 0008 3960     		str	r1, [r7]
 611:./Libraries/STM32H7xx_HAL_Driver/Src/stm32h7xx_ll_sdmmc.c ****   SDMMC_CmdInitTypeDef  sdmmc_cmdinit;
 612:./Libraries/STM32H7xx_HAL_Driver/Src/stm32h7xx_ll_sdmmc.c ****   uint32_t errorstate;
 613:./Libraries/STM32H7xx_HAL_Driver/Src/stm32h7xx_ll_sdmmc.c **** 
 614:./Libraries/STM32H7xx_HAL_Driver/Src/stm32h7xx_ll_sdmmc.c ****   /* Set Block Size for Card */
 615:./Libraries/STM32H7xx_HAL_Driver/Src/stm32h7xx_ll_sdmmc.c ****   sdmmc_cmdinit.Argument         = (uint32_t)WriteAdd;
 1139              		.loc 1 615 34
 1140 000a 3B68     		ldr	r3, [r7]
 1141 000c BB60     		str	r3, [r7, #8]
 616:./Libraries/STM32H7xx_HAL_Driver/Src/stm32h7xx_ll_sdmmc.c ****   sdmmc_cmdinit.CmdIndex         = SDMMC_CMD_WRITE_MULT_BLOCK;
 1142              		.loc 1 616 34
 1143 000e 1923     		movs	r3, #25
 1144 0010 FB60     		str	r3, [r7, #12]
 617:./Libraries/STM32H7xx_HAL_Driver/Src/stm32h7xx_ll_sdmmc.c ****   sdmmc_cmdinit.Response         = SDMMC_RESPONSE_SHORT;
 1145              		.loc 1 617 34
 1146 0012 4FF48073 		mov	r3, #256
 1147 0016 3B61     		str	r3, [r7, #16]
 618:./Libraries/STM32H7xx_HAL_Driver/Src/stm32h7xx_ll_sdmmc.c ****   sdmmc_cmdinit.WaitForInterrupt = SDMMC_WAIT_NO;
 1148              		.loc 1 618 34
 1149 0018 0023     		movs	r3, #0
 1150 001a 7B61     		str	r3, [r7, #20]
 619:./Libraries/STM32H7xx_HAL_Driver/Src/stm32h7xx_ll_sdmmc.c ****   sdmmc_cmdinit.CPSM             = SDMMC_CPSM_ENABLE;
 1151              		.loc 1 619 34
 1152 001c 4FF48053 		mov	r3, #4096
 1153 0020 BB61     		str	r3, [r7, #24]
 620:./Libraries/STM32H7xx_HAL_Driver/Src/stm32h7xx_ll_sdmmc.c ****   (void)SDMMC_SendCommand(SDMMCx, &sdmmc_cmdinit);
 1154              		.loc 1 620 9
 1155 0022 07F10803 		add	r3, r7, #8
 1156 0026 1946     		mov	r1, r3
 1157 0028 7868     		ldr	r0, [r7, #4]
 1158 002a FFF7FEFF 		bl	SDMMC_SendCommand
 621:./Libraries/STM32H7xx_HAL_Driver/Src/stm32h7xx_ll_sdmmc.c **** 
 622:./Libraries/STM32H7xx_HAL_Driver/Src/stm32h7xx_ll_sdmmc.c ****   /* Check for error conditions */
 623:./Libraries/STM32H7xx_HAL_Driver/Src/stm32h7xx_ll_sdmmc.c ****   errorstate = SDMMC_GetCmdResp1(SDMMCx, SDMMC_CMD_WRITE_MULT_BLOCK, SDMMC_CMDTIMEOUT);
 1159              		.loc 1 623 16
 1160 002e 41F28832 		movw	r2, #5000
 1161 0032 1921     		movs	r1, #25
 1162 0034 7868     		ldr	r0, [r7, #4]
 1163 0036 FFF7FEFF 		bl	SDMMC_GetCmdResp1
 1164 003a F861     		str	r0, [r7, #28]
 624:./Libraries/STM32H7xx_HAL_Driver/Src/stm32h7xx_ll_sdmmc.c **** 
 625:./Libraries/STM32H7xx_HAL_Driver/Src/stm32h7xx_ll_sdmmc.c ****   return errorstate;
 1165              		.loc 1 625 10
 1166 003c FB69     		ldr	r3, [r7, #28]
ARM GAS  /tmp/ccUwcR4B.s 			page 32


 626:./Libraries/STM32H7xx_HAL_Driver/Src/stm32h7xx_ll_sdmmc.c **** }
 1167              		.loc 1 626 1
 1168 003e 1846     		mov	r0, r3
 1169 0040 2037     		adds	r7, r7, #32
 1170              	.LCFI109:
 1171              		.cfi_def_cfa_offset 8
 1172 0042 BD46     		mov	sp, r7
 1173              	.LCFI110:
 1174              		.cfi_def_cfa_register 13
 1175              		@ sp needed
 1176 0044 80BD     		pop	{r7, pc}
 1177              		.cfi_endproc
 1178              	.LFE349:
 1180              		.section	.text.SDMMC_CmdSDEraseStartAdd,"ax",%progbits
 1181              		.align	1
 1182              		.global	SDMMC_CmdSDEraseStartAdd
 1183              		.syntax unified
 1184              		.thumb
 1185              		.thumb_func
 1186              		.fpu fpv5-d16
 1188              	SDMMC_CmdSDEraseStartAdd:
 1189              	.LFB350:
 627:./Libraries/STM32H7xx_HAL_Driver/Src/stm32h7xx_ll_sdmmc.c **** 
 628:./Libraries/STM32H7xx_HAL_Driver/Src/stm32h7xx_ll_sdmmc.c **** /**
 629:./Libraries/STM32H7xx_HAL_Driver/Src/stm32h7xx_ll_sdmmc.c ****   * @brief  Send the Start Address Erase command for SD and check the response
 630:./Libraries/STM32H7xx_HAL_Driver/Src/stm32h7xx_ll_sdmmc.c ****   * @param  SDMMCx: Pointer to SDMMC register base
 631:./Libraries/STM32H7xx_HAL_Driver/Src/stm32h7xx_ll_sdmmc.c ****   * @retval HAL status
 632:./Libraries/STM32H7xx_HAL_Driver/Src/stm32h7xx_ll_sdmmc.c ****   */
 633:./Libraries/STM32H7xx_HAL_Driver/Src/stm32h7xx_ll_sdmmc.c **** uint32_t SDMMC_CmdSDEraseStartAdd(SDMMC_TypeDef *SDMMCx, uint32_t StartAdd)
 634:./Libraries/STM32H7xx_HAL_Driver/Src/stm32h7xx_ll_sdmmc.c **** {
 1190              		.loc 1 634 1
 1191              		.cfi_startproc
 1192              		@ args = 0, pretend = 0, frame = 32
 1193              		@ frame_needed = 1, uses_anonymous_args = 0
 1194 0000 80B5     		push	{r7, lr}
 1195              	.LCFI111:
 1196              		.cfi_def_cfa_offset 8
 1197              		.cfi_offset 7, -8
 1198              		.cfi_offset 14, -4
 1199 0002 88B0     		sub	sp, sp, #32
 1200              	.LCFI112:
 1201              		.cfi_def_cfa_offset 40
 1202 0004 00AF     		add	r7, sp, #0
 1203              	.LCFI113:
 1204              		.cfi_def_cfa_register 7
 1205 0006 7860     		str	r0, [r7, #4]
 1206 0008 3960     		str	r1, [r7]
 635:./Libraries/STM32H7xx_HAL_Driver/Src/stm32h7xx_ll_sdmmc.c ****   SDMMC_CmdInitTypeDef  sdmmc_cmdinit;
 636:./Libraries/STM32H7xx_HAL_Driver/Src/stm32h7xx_ll_sdmmc.c ****   uint32_t errorstate;
 637:./Libraries/STM32H7xx_HAL_Driver/Src/stm32h7xx_ll_sdmmc.c **** 
 638:./Libraries/STM32H7xx_HAL_Driver/Src/stm32h7xx_ll_sdmmc.c ****   /* Set Block Size for Card */
 639:./Libraries/STM32H7xx_HAL_Driver/Src/stm32h7xx_ll_sdmmc.c ****   sdmmc_cmdinit.Argument         = (uint32_t)StartAdd;
 1207              		.loc 1 639 34
 1208 000a 3B68     		ldr	r3, [r7]
 1209 000c BB60     		str	r3, [r7, #8]
 640:./Libraries/STM32H7xx_HAL_Driver/Src/stm32h7xx_ll_sdmmc.c ****   sdmmc_cmdinit.CmdIndex         = SDMMC_CMD_SD_ERASE_GRP_START;
 1210              		.loc 1 640 34
ARM GAS  /tmp/ccUwcR4B.s 			page 33


 1211 000e 2023     		movs	r3, #32
 1212 0010 FB60     		str	r3, [r7, #12]
 641:./Libraries/STM32H7xx_HAL_Driver/Src/stm32h7xx_ll_sdmmc.c ****   sdmmc_cmdinit.Response         = SDMMC_RESPONSE_SHORT;
 1213              		.loc 1 641 34
 1214 0012 4FF48073 		mov	r3, #256
 1215 0016 3B61     		str	r3, [r7, #16]
 642:./Libraries/STM32H7xx_HAL_Driver/Src/stm32h7xx_ll_sdmmc.c ****   sdmmc_cmdinit.WaitForInterrupt = SDMMC_WAIT_NO;
 1216              		.loc 1 642 34
 1217 0018 0023     		movs	r3, #0
 1218 001a 7B61     		str	r3, [r7, #20]
 643:./Libraries/STM32H7xx_HAL_Driver/Src/stm32h7xx_ll_sdmmc.c ****   sdmmc_cmdinit.CPSM             = SDMMC_CPSM_ENABLE;
 1219              		.loc 1 643 34
 1220 001c 4FF48053 		mov	r3, #4096
 1221 0020 BB61     		str	r3, [r7, #24]
 644:./Libraries/STM32H7xx_HAL_Driver/Src/stm32h7xx_ll_sdmmc.c ****   (void)SDMMC_SendCommand(SDMMCx, &sdmmc_cmdinit);
 1222              		.loc 1 644 9
 1223 0022 07F10803 		add	r3, r7, #8
 1224 0026 1946     		mov	r1, r3
 1225 0028 7868     		ldr	r0, [r7, #4]
 1226 002a FFF7FEFF 		bl	SDMMC_SendCommand
 645:./Libraries/STM32H7xx_HAL_Driver/Src/stm32h7xx_ll_sdmmc.c **** 
 646:./Libraries/STM32H7xx_HAL_Driver/Src/stm32h7xx_ll_sdmmc.c ****   /* Check for error conditions */
 647:./Libraries/STM32H7xx_HAL_Driver/Src/stm32h7xx_ll_sdmmc.c ****   errorstate = SDMMC_GetCmdResp1(SDMMCx, SDMMC_CMD_SD_ERASE_GRP_START, SDMMC_CMDTIMEOUT);
 1227              		.loc 1 647 16
 1228 002e 41F28832 		movw	r2, #5000
 1229 0032 2021     		movs	r1, #32
 1230 0034 7868     		ldr	r0, [r7, #4]
 1231 0036 FFF7FEFF 		bl	SDMMC_GetCmdResp1
 1232 003a F861     		str	r0, [r7, #28]
 648:./Libraries/STM32H7xx_HAL_Driver/Src/stm32h7xx_ll_sdmmc.c **** 
 649:./Libraries/STM32H7xx_HAL_Driver/Src/stm32h7xx_ll_sdmmc.c ****   return errorstate;
 1233              		.loc 1 649 10
 1234 003c FB69     		ldr	r3, [r7, #28]
 650:./Libraries/STM32H7xx_HAL_Driver/Src/stm32h7xx_ll_sdmmc.c **** }
 1235              		.loc 1 650 1
 1236 003e 1846     		mov	r0, r3
 1237 0040 2037     		adds	r7, r7, #32
 1238              	.LCFI114:
 1239              		.cfi_def_cfa_offset 8
 1240 0042 BD46     		mov	sp, r7
 1241              	.LCFI115:
 1242              		.cfi_def_cfa_register 13
 1243              		@ sp needed
 1244 0044 80BD     		pop	{r7, pc}
 1245              		.cfi_endproc
 1246              	.LFE350:
 1248              		.section	.text.SDMMC_CmdSDEraseEndAdd,"ax",%progbits
 1249              		.align	1
 1250              		.global	SDMMC_CmdSDEraseEndAdd
 1251              		.syntax unified
 1252              		.thumb
 1253              		.thumb_func
 1254              		.fpu fpv5-d16
 1256              	SDMMC_CmdSDEraseEndAdd:
 1257              	.LFB351:
 651:./Libraries/STM32H7xx_HAL_Driver/Src/stm32h7xx_ll_sdmmc.c **** 
 652:./Libraries/STM32H7xx_HAL_Driver/Src/stm32h7xx_ll_sdmmc.c **** /**
ARM GAS  /tmp/ccUwcR4B.s 			page 34


 653:./Libraries/STM32H7xx_HAL_Driver/Src/stm32h7xx_ll_sdmmc.c ****   * @brief  Send the End Address Erase command for SD and check the response
 654:./Libraries/STM32H7xx_HAL_Driver/Src/stm32h7xx_ll_sdmmc.c ****   * @param  SDMMCx: Pointer to SDMMC register base
 655:./Libraries/STM32H7xx_HAL_Driver/Src/stm32h7xx_ll_sdmmc.c ****   * @retval HAL status
 656:./Libraries/STM32H7xx_HAL_Driver/Src/stm32h7xx_ll_sdmmc.c ****   */
 657:./Libraries/STM32H7xx_HAL_Driver/Src/stm32h7xx_ll_sdmmc.c **** uint32_t SDMMC_CmdSDEraseEndAdd(SDMMC_TypeDef *SDMMCx, uint32_t EndAdd)
 658:./Libraries/STM32H7xx_HAL_Driver/Src/stm32h7xx_ll_sdmmc.c **** {
 1258              		.loc 1 658 1
 1259              		.cfi_startproc
 1260              		@ args = 0, pretend = 0, frame = 32
 1261              		@ frame_needed = 1, uses_anonymous_args = 0
 1262 0000 80B5     		push	{r7, lr}
 1263              	.LCFI116:
 1264              		.cfi_def_cfa_offset 8
 1265              		.cfi_offset 7, -8
 1266              		.cfi_offset 14, -4
 1267 0002 88B0     		sub	sp, sp, #32
 1268              	.LCFI117:
 1269              		.cfi_def_cfa_offset 40
 1270 0004 00AF     		add	r7, sp, #0
 1271              	.LCFI118:
 1272              		.cfi_def_cfa_register 7
 1273 0006 7860     		str	r0, [r7, #4]
 1274 0008 3960     		str	r1, [r7]
 659:./Libraries/STM32H7xx_HAL_Driver/Src/stm32h7xx_ll_sdmmc.c ****   SDMMC_CmdInitTypeDef  sdmmc_cmdinit;
 660:./Libraries/STM32H7xx_HAL_Driver/Src/stm32h7xx_ll_sdmmc.c ****   uint32_t errorstate;
 661:./Libraries/STM32H7xx_HAL_Driver/Src/stm32h7xx_ll_sdmmc.c **** 
 662:./Libraries/STM32H7xx_HAL_Driver/Src/stm32h7xx_ll_sdmmc.c ****   /* Set Block Size for Card */
 663:./Libraries/STM32H7xx_HAL_Driver/Src/stm32h7xx_ll_sdmmc.c ****   sdmmc_cmdinit.Argument         = (uint32_t)EndAdd;
 1275              		.loc 1 663 34
 1276 000a 3B68     		ldr	r3, [r7]
 1277 000c BB60     		str	r3, [r7, #8]
 664:./Libraries/STM32H7xx_HAL_Driver/Src/stm32h7xx_ll_sdmmc.c ****   sdmmc_cmdinit.CmdIndex         = SDMMC_CMD_SD_ERASE_GRP_END;
 1278              		.loc 1 664 34
 1279 000e 2123     		movs	r3, #33
 1280 0010 FB60     		str	r3, [r7, #12]
 665:./Libraries/STM32H7xx_HAL_Driver/Src/stm32h7xx_ll_sdmmc.c ****   sdmmc_cmdinit.Response         = SDMMC_RESPONSE_SHORT;
 1281              		.loc 1 665 34
 1282 0012 4FF48073 		mov	r3, #256
 1283 0016 3B61     		str	r3, [r7, #16]
 666:./Libraries/STM32H7xx_HAL_Driver/Src/stm32h7xx_ll_sdmmc.c ****   sdmmc_cmdinit.WaitForInterrupt = SDMMC_WAIT_NO;
 1284              		.loc 1 666 34
 1285 0018 0023     		movs	r3, #0
 1286 001a 7B61     		str	r3, [r7, #20]
 667:./Libraries/STM32H7xx_HAL_Driver/Src/stm32h7xx_ll_sdmmc.c ****   sdmmc_cmdinit.CPSM             = SDMMC_CPSM_ENABLE;
 1287              		.loc 1 667 34
 1288 001c 4FF48053 		mov	r3, #4096
 1289 0020 BB61     		str	r3, [r7, #24]
 668:./Libraries/STM32H7xx_HAL_Driver/Src/stm32h7xx_ll_sdmmc.c ****   (void)SDMMC_SendCommand(SDMMCx, &sdmmc_cmdinit);
 1290              		.loc 1 668 9
 1291 0022 07F10803 		add	r3, r7, #8
 1292 0026 1946     		mov	r1, r3
 1293 0028 7868     		ldr	r0, [r7, #4]
 1294 002a FFF7FEFF 		bl	SDMMC_SendCommand
 669:./Libraries/STM32H7xx_HAL_Driver/Src/stm32h7xx_ll_sdmmc.c **** 
 670:./Libraries/STM32H7xx_HAL_Driver/Src/stm32h7xx_ll_sdmmc.c ****   /* Check for error conditions */
 671:./Libraries/STM32H7xx_HAL_Driver/Src/stm32h7xx_ll_sdmmc.c ****   errorstate = SDMMC_GetCmdResp1(SDMMCx, SDMMC_CMD_SD_ERASE_GRP_END, SDMMC_CMDTIMEOUT);
 1295              		.loc 1 671 16
ARM GAS  /tmp/ccUwcR4B.s 			page 35


 1296 002e 41F28832 		movw	r2, #5000
 1297 0032 2121     		movs	r1, #33
 1298 0034 7868     		ldr	r0, [r7, #4]
 1299 0036 FFF7FEFF 		bl	SDMMC_GetCmdResp1
 1300 003a F861     		str	r0, [r7, #28]
 672:./Libraries/STM32H7xx_HAL_Driver/Src/stm32h7xx_ll_sdmmc.c **** 
 673:./Libraries/STM32H7xx_HAL_Driver/Src/stm32h7xx_ll_sdmmc.c ****   return errorstate;
 1301              		.loc 1 673 10
 1302 003c FB69     		ldr	r3, [r7, #28]
 674:./Libraries/STM32H7xx_HAL_Driver/Src/stm32h7xx_ll_sdmmc.c **** }
 1303              		.loc 1 674 1
 1304 003e 1846     		mov	r0, r3
 1305 0040 2037     		adds	r7, r7, #32
 1306              	.LCFI119:
 1307              		.cfi_def_cfa_offset 8
 1308 0042 BD46     		mov	sp, r7
 1309              	.LCFI120:
 1310              		.cfi_def_cfa_register 13
 1311              		@ sp needed
 1312 0044 80BD     		pop	{r7, pc}
 1313              		.cfi_endproc
 1314              	.LFE351:
 1316              		.section	.text.SDMMC_CmdEraseStartAdd,"ax",%progbits
 1317              		.align	1
 1318              		.global	SDMMC_CmdEraseStartAdd
 1319              		.syntax unified
 1320              		.thumb
 1321              		.thumb_func
 1322              		.fpu fpv5-d16
 1324              	SDMMC_CmdEraseStartAdd:
 1325              	.LFB352:
 675:./Libraries/STM32H7xx_HAL_Driver/Src/stm32h7xx_ll_sdmmc.c **** 
 676:./Libraries/STM32H7xx_HAL_Driver/Src/stm32h7xx_ll_sdmmc.c **** /**
 677:./Libraries/STM32H7xx_HAL_Driver/Src/stm32h7xx_ll_sdmmc.c ****   * @brief  Send the Start Address Erase command and check the response
 678:./Libraries/STM32H7xx_HAL_Driver/Src/stm32h7xx_ll_sdmmc.c ****   * @param  SDMMCx: Pointer to SDMMC register base
 679:./Libraries/STM32H7xx_HAL_Driver/Src/stm32h7xx_ll_sdmmc.c ****   * @retval HAL status
 680:./Libraries/STM32H7xx_HAL_Driver/Src/stm32h7xx_ll_sdmmc.c ****   */
 681:./Libraries/STM32H7xx_HAL_Driver/Src/stm32h7xx_ll_sdmmc.c **** uint32_t SDMMC_CmdEraseStartAdd(SDMMC_TypeDef *SDMMCx, uint32_t StartAdd)
 682:./Libraries/STM32H7xx_HAL_Driver/Src/stm32h7xx_ll_sdmmc.c **** {
 1326              		.loc 1 682 1
 1327              		.cfi_startproc
 1328              		@ args = 0, pretend = 0, frame = 32
 1329              		@ frame_needed = 1, uses_anonymous_args = 0
 1330 0000 80B5     		push	{r7, lr}
 1331              	.LCFI121:
 1332              		.cfi_def_cfa_offset 8
 1333              		.cfi_offset 7, -8
 1334              		.cfi_offset 14, -4
 1335 0002 88B0     		sub	sp, sp, #32
 1336              	.LCFI122:
 1337              		.cfi_def_cfa_offset 40
 1338 0004 00AF     		add	r7, sp, #0
 1339              	.LCFI123:
 1340              		.cfi_def_cfa_register 7
 1341 0006 7860     		str	r0, [r7, #4]
 1342 0008 3960     		str	r1, [r7]
 683:./Libraries/STM32H7xx_HAL_Driver/Src/stm32h7xx_ll_sdmmc.c ****   SDMMC_CmdInitTypeDef  sdmmc_cmdinit;
ARM GAS  /tmp/ccUwcR4B.s 			page 36


 684:./Libraries/STM32H7xx_HAL_Driver/Src/stm32h7xx_ll_sdmmc.c ****   uint32_t errorstate;
 685:./Libraries/STM32H7xx_HAL_Driver/Src/stm32h7xx_ll_sdmmc.c **** 
 686:./Libraries/STM32H7xx_HAL_Driver/Src/stm32h7xx_ll_sdmmc.c ****   /* Set Block Size for Card */
 687:./Libraries/STM32H7xx_HAL_Driver/Src/stm32h7xx_ll_sdmmc.c ****   sdmmc_cmdinit.Argument         = (uint32_t)StartAdd;
 1343              		.loc 1 687 34
 1344 000a 3B68     		ldr	r3, [r7]
 1345 000c BB60     		str	r3, [r7, #8]
 688:./Libraries/STM32H7xx_HAL_Driver/Src/stm32h7xx_ll_sdmmc.c ****   sdmmc_cmdinit.CmdIndex         = SDMMC_CMD_ERASE_GRP_START;
 1346              		.loc 1 688 34
 1347 000e 2323     		movs	r3, #35
 1348 0010 FB60     		str	r3, [r7, #12]
 689:./Libraries/STM32H7xx_HAL_Driver/Src/stm32h7xx_ll_sdmmc.c ****   sdmmc_cmdinit.Response         = SDMMC_RESPONSE_SHORT;
 1349              		.loc 1 689 34
 1350 0012 4FF48073 		mov	r3, #256
 1351 0016 3B61     		str	r3, [r7, #16]
 690:./Libraries/STM32H7xx_HAL_Driver/Src/stm32h7xx_ll_sdmmc.c ****   sdmmc_cmdinit.WaitForInterrupt = SDMMC_WAIT_NO;
 1352              		.loc 1 690 34
 1353 0018 0023     		movs	r3, #0
 1354 001a 7B61     		str	r3, [r7, #20]
 691:./Libraries/STM32H7xx_HAL_Driver/Src/stm32h7xx_ll_sdmmc.c ****   sdmmc_cmdinit.CPSM             = SDMMC_CPSM_ENABLE;
 1355              		.loc 1 691 34
 1356 001c 4FF48053 		mov	r3, #4096
 1357 0020 BB61     		str	r3, [r7, #24]
 692:./Libraries/STM32H7xx_HAL_Driver/Src/stm32h7xx_ll_sdmmc.c ****   (void)SDMMC_SendCommand(SDMMCx, &sdmmc_cmdinit);
 1358              		.loc 1 692 9
 1359 0022 07F10803 		add	r3, r7, #8
 1360 0026 1946     		mov	r1, r3
 1361 0028 7868     		ldr	r0, [r7, #4]
 1362 002a FFF7FEFF 		bl	SDMMC_SendCommand
 693:./Libraries/STM32H7xx_HAL_Driver/Src/stm32h7xx_ll_sdmmc.c **** 
 694:./Libraries/STM32H7xx_HAL_Driver/Src/stm32h7xx_ll_sdmmc.c ****   /* Check for error conditions */
 695:./Libraries/STM32H7xx_HAL_Driver/Src/stm32h7xx_ll_sdmmc.c ****   errorstate = SDMMC_GetCmdResp1(SDMMCx, SDMMC_CMD_ERASE_GRP_START, SDMMC_CMDTIMEOUT);
 1363              		.loc 1 695 16
 1364 002e 41F28832 		movw	r2, #5000
 1365 0032 2321     		movs	r1, #35
 1366 0034 7868     		ldr	r0, [r7, #4]
 1367 0036 FFF7FEFF 		bl	SDMMC_GetCmdResp1
 1368 003a F861     		str	r0, [r7, #28]
 696:./Libraries/STM32H7xx_HAL_Driver/Src/stm32h7xx_ll_sdmmc.c **** 
 697:./Libraries/STM32H7xx_HAL_Driver/Src/stm32h7xx_ll_sdmmc.c ****   return errorstate;
 1369              		.loc 1 697 10
 1370 003c FB69     		ldr	r3, [r7, #28]
 698:./Libraries/STM32H7xx_HAL_Driver/Src/stm32h7xx_ll_sdmmc.c **** }
 1371              		.loc 1 698 1
 1372 003e 1846     		mov	r0, r3
 1373 0040 2037     		adds	r7, r7, #32
 1374              	.LCFI124:
 1375              		.cfi_def_cfa_offset 8
 1376 0042 BD46     		mov	sp, r7
 1377              	.LCFI125:
 1378              		.cfi_def_cfa_register 13
 1379              		@ sp needed
 1380 0044 80BD     		pop	{r7, pc}
 1381              		.cfi_endproc
 1382              	.LFE352:
 1384              		.section	.text.SDMMC_CmdEraseEndAdd,"ax",%progbits
 1385              		.align	1
ARM GAS  /tmp/ccUwcR4B.s 			page 37


 1386              		.global	SDMMC_CmdEraseEndAdd
 1387              		.syntax unified
 1388              		.thumb
 1389              		.thumb_func
 1390              		.fpu fpv5-d16
 1392              	SDMMC_CmdEraseEndAdd:
 1393              	.LFB353:
 699:./Libraries/STM32H7xx_HAL_Driver/Src/stm32h7xx_ll_sdmmc.c **** 
 700:./Libraries/STM32H7xx_HAL_Driver/Src/stm32h7xx_ll_sdmmc.c **** /**
 701:./Libraries/STM32H7xx_HAL_Driver/Src/stm32h7xx_ll_sdmmc.c ****   * @brief  Send the End Address Erase command and check the response
 702:./Libraries/STM32H7xx_HAL_Driver/Src/stm32h7xx_ll_sdmmc.c ****   * @param  SDMMCx: Pointer to SDMMC register base
 703:./Libraries/STM32H7xx_HAL_Driver/Src/stm32h7xx_ll_sdmmc.c ****   * @retval HAL status
 704:./Libraries/STM32H7xx_HAL_Driver/Src/stm32h7xx_ll_sdmmc.c ****   */
 705:./Libraries/STM32H7xx_HAL_Driver/Src/stm32h7xx_ll_sdmmc.c **** uint32_t SDMMC_CmdEraseEndAdd(SDMMC_TypeDef *SDMMCx, uint32_t EndAdd)
 706:./Libraries/STM32H7xx_HAL_Driver/Src/stm32h7xx_ll_sdmmc.c **** {
 1394              		.loc 1 706 1
 1395              		.cfi_startproc
 1396              		@ args = 0, pretend = 0, frame = 32
 1397              		@ frame_needed = 1, uses_anonymous_args = 0
 1398 0000 80B5     		push	{r7, lr}
 1399              	.LCFI126:
 1400              		.cfi_def_cfa_offset 8
 1401              		.cfi_offset 7, -8
 1402              		.cfi_offset 14, -4
 1403 0002 88B0     		sub	sp, sp, #32
 1404              	.LCFI127:
 1405              		.cfi_def_cfa_offset 40
 1406 0004 00AF     		add	r7, sp, #0
 1407              	.LCFI128:
 1408              		.cfi_def_cfa_register 7
 1409 0006 7860     		str	r0, [r7, #4]
 1410 0008 3960     		str	r1, [r7]
 707:./Libraries/STM32H7xx_HAL_Driver/Src/stm32h7xx_ll_sdmmc.c ****   SDMMC_CmdInitTypeDef  sdmmc_cmdinit;
 708:./Libraries/STM32H7xx_HAL_Driver/Src/stm32h7xx_ll_sdmmc.c ****   uint32_t errorstate;
 709:./Libraries/STM32H7xx_HAL_Driver/Src/stm32h7xx_ll_sdmmc.c **** 
 710:./Libraries/STM32H7xx_HAL_Driver/Src/stm32h7xx_ll_sdmmc.c ****   /* Set Block Size for Card */
 711:./Libraries/STM32H7xx_HAL_Driver/Src/stm32h7xx_ll_sdmmc.c ****   sdmmc_cmdinit.Argument         = (uint32_t)EndAdd;
 1411              		.loc 1 711 34
 1412 000a 3B68     		ldr	r3, [r7]
 1413 000c BB60     		str	r3, [r7, #8]
 712:./Libraries/STM32H7xx_HAL_Driver/Src/stm32h7xx_ll_sdmmc.c ****   sdmmc_cmdinit.CmdIndex         = SDMMC_CMD_ERASE_GRP_END;
 1414              		.loc 1 712 34
 1415 000e 2423     		movs	r3, #36
 1416 0010 FB60     		str	r3, [r7, #12]
 713:./Libraries/STM32H7xx_HAL_Driver/Src/stm32h7xx_ll_sdmmc.c ****   sdmmc_cmdinit.Response         = SDMMC_RESPONSE_SHORT;
 1417              		.loc 1 713 34
 1418 0012 4FF48073 		mov	r3, #256
 1419 0016 3B61     		str	r3, [r7, #16]
 714:./Libraries/STM32H7xx_HAL_Driver/Src/stm32h7xx_ll_sdmmc.c ****   sdmmc_cmdinit.WaitForInterrupt = SDMMC_WAIT_NO;
 1420              		.loc 1 714 34
 1421 0018 0023     		movs	r3, #0
 1422 001a 7B61     		str	r3, [r7, #20]
 715:./Libraries/STM32H7xx_HAL_Driver/Src/stm32h7xx_ll_sdmmc.c ****   sdmmc_cmdinit.CPSM             = SDMMC_CPSM_ENABLE;
 1423              		.loc 1 715 34
 1424 001c 4FF48053 		mov	r3, #4096
 1425 0020 BB61     		str	r3, [r7, #24]
 716:./Libraries/STM32H7xx_HAL_Driver/Src/stm32h7xx_ll_sdmmc.c ****   (void)SDMMC_SendCommand(SDMMCx, &sdmmc_cmdinit);
ARM GAS  /tmp/ccUwcR4B.s 			page 38


 1426              		.loc 1 716 9
 1427 0022 07F10803 		add	r3, r7, #8
 1428 0026 1946     		mov	r1, r3
 1429 0028 7868     		ldr	r0, [r7, #4]
 1430 002a FFF7FEFF 		bl	SDMMC_SendCommand
 717:./Libraries/STM32H7xx_HAL_Driver/Src/stm32h7xx_ll_sdmmc.c **** 
 718:./Libraries/STM32H7xx_HAL_Driver/Src/stm32h7xx_ll_sdmmc.c ****   /* Check for error conditions */
 719:./Libraries/STM32H7xx_HAL_Driver/Src/stm32h7xx_ll_sdmmc.c ****   errorstate = SDMMC_GetCmdResp1(SDMMCx, SDMMC_CMD_ERASE_GRP_END, SDMMC_CMDTIMEOUT);
 1431              		.loc 1 719 16
 1432 002e 41F28832 		movw	r2, #5000
 1433 0032 2421     		movs	r1, #36
 1434 0034 7868     		ldr	r0, [r7, #4]
 1435 0036 FFF7FEFF 		bl	SDMMC_GetCmdResp1
 1436 003a F861     		str	r0, [r7, #28]
 720:./Libraries/STM32H7xx_HAL_Driver/Src/stm32h7xx_ll_sdmmc.c **** 
 721:./Libraries/STM32H7xx_HAL_Driver/Src/stm32h7xx_ll_sdmmc.c ****   return errorstate;
 1437              		.loc 1 721 10
 1438 003c FB69     		ldr	r3, [r7, #28]
 722:./Libraries/STM32H7xx_HAL_Driver/Src/stm32h7xx_ll_sdmmc.c **** }
 1439              		.loc 1 722 1
 1440 003e 1846     		mov	r0, r3
 1441 0040 2037     		adds	r7, r7, #32
 1442              	.LCFI129:
 1443              		.cfi_def_cfa_offset 8
 1444 0042 BD46     		mov	sp, r7
 1445              	.LCFI130:
 1446              		.cfi_def_cfa_register 13
 1447              		@ sp needed
 1448 0044 80BD     		pop	{r7, pc}
 1449              		.cfi_endproc
 1450              	.LFE353:
 1452              		.section	.text.SDMMC_CmdErase,"ax",%progbits
 1453              		.align	1
 1454              		.global	SDMMC_CmdErase
 1455              		.syntax unified
 1456              		.thumb
 1457              		.thumb_func
 1458              		.fpu fpv5-d16
 1460              	SDMMC_CmdErase:
 1461              	.LFB354:
 723:./Libraries/STM32H7xx_HAL_Driver/Src/stm32h7xx_ll_sdmmc.c **** 
 724:./Libraries/STM32H7xx_HAL_Driver/Src/stm32h7xx_ll_sdmmc.c **** /**
 725:./Libraries/STM32H7xx_HAL_Driver/Src/stm32h7xx_ll_sdmmc.c ****   * @brief  Send the Erase command and check the response
 726:./Libraries/STM32H7xx_HAL_Driver/Src/stm32h7xx_ll_sdmmc.c ****   * @param  SDMMCx Pointer to SDMMC register base
 727:./Libraries/STM32H7xx_HAL_Driver/Src/stm32h7xx_ll_sdmmc.c ****   * @param  EraseType Type of erase to be performed
 728:./Libraries/STM32H7xx_HAL_Driver/Src/stm32h7xx_ll_sdmmc.c ****   * @retval HAL status
 729:./Libraries/STM32H7xx_HAL_Driver/Src/stm32h7xx_ll_sdmmc.c ****   */
 730:./Libraries/STM32H7xx_HAL_Driver/Src/stm32h7xx_ll_sdmmc.c **** uint32_t SDMMC_CmdErase(SDMMC_TypeDef *SDMMCx, uint32_t EraseType)
 731:./Libraries/STM32H7xx_HAL_Driver/Src/stm32h7xx_ll_sdmmc.c **** {
 1462              		.loc 1 731 1
 1463              		.cfi_startproc
 1464              		@ args = 0, pretend = 0, frame = 32
 1465              		@ frame_needed = 1, uses_anonymous_args = 0
 1466 0000 80B5     		push	{r7, lr}
 1467              	.LCFI131:
 1468              		.cfi_def_cfa_offset 8
 1469              		.cfi_offset 7, -8
ARM GAS  /tmp/ccUwcR4B.s 			page 39


 1470              		.cfi_offset 14, -4
 1471 0002 88B0     		sub	sp, sp, #32
 1472              	.LCFI132:
 1473              		.cfi_def_cfa_offset 40
 1474 0004 00AF     		add	r7, sp, #0
 1475              	.LCFI133:
 1476              		.cfi_def_cfa_register 7
 1477 0006 7860     		str	r0, [r7, #4]
 1478 0008 3960     		str	r1, [r7]
 732:./Libraries/STM32H7xx_HAL_Driver/Src/stm32h7xx_ll_sdmmc.c ****   SDMMC_CmdInitTypeDef  sdmmc_cmdinit;
 733:./Libraries/STM32H7xx_HAL_Driver/Src/stm32h7xx_ll_sdmmc.c ****   uint32_t errorstate;
 734:./Libraries/STM32H7xx_HAL_Driver/Src/stm32h7xx_ll_sdmmc.c **** 
 735:./Libraries/STM32H7xx_HAL_Driver/Src/stm32h7xx_ll_sdmmc.c ****   /* Set Block Size for Card */
 736:./Libraries/STM32H7xx_HAL_Driver/Src/stm32h7xx_ll_sdmmc.c ****   sdmmc_cmdinit.Argument         = EraseType;
 1479              		.loc 1 736 34
 1480 000a 3B68     		ldr	r3, [r7]
 1481 000c BB60     		str	r3, [r7, #8]
 737:./Libraries/STM32H7xx_HAL_Driver/Src/stm32h7xx_ll_sdmmc.c ****   sdmmc_cmdinit.CmdIndex         = SDMMC_CMD_ERASE;
 1482              		.loc 1 737 34
 1483 000e 2623     		movs	r3, #38
 1484 0010 FB60     		str	r3, [r7, #12]
 738:./Libraries/STM32H7xx_HAL_Driver/Src/stm32h7xx_ll_sdmmc.c ****   sdmmc_cmdinit.Response         = SDMMC_RESPONSE_SHORT;
 1485              		.loc 1 738 34
 1486 0012 4FF48073 		mov	r3, #256
 1487 0016 3B61     		str	r3, [r7, #16]
 739:./Libraries/STM32H7xx_HAL_Driver/Src/stm32h7xx_ll_sdmmc.c ****   sdmmc_cmdinit.WaitForInterrupt = SDMMC_WAIT_NO;
 1488              		.loc 1 739 34
 1489 0018 0023     		movs	r3, #0
 1490 001a 7B61     		str	r3, [r7, #20]
 740:./Libraries/STM32H7xx_HAL_Driver/Src/stm32h7xx_ll_sdmmc.c ****   sdmmc_cmdinit.CPSM             = SDMMC_CPSM_ENABLE;
 1491              		.loc 1 740 34
 1492 001c 4FF48053 		mov	r3, #4096
 1493 0020 BB61     		str	r3, [r7, #24]
 741:./Libraries/STM32H7xx_HAL_Driver/Src/stm32h7xx_ll_sdmmc.c ****   (void)SDMMC_SendCommand(SDMMCx, &sdmmc_cmdinit);
 1494              		.loc 1 741 9
 1495 0022 07F10803 		add	r3, r7, #8
 1496 0026 1946     		mov	r1, r3
 1497 0028 7868     		ldr	r0, [r7, #4]
 1498 002a FFF7FEFF 		bl	SDMMC_SendCommand
 742:./Libraries/STM32H7xx_HAL_Driver/Src/stm32h7xx_ll_sdmmc.c **** 
 743:./Libraries/STM32H7xx_HAL_Driver/Src/stm32h7xx_ll_sdmmc.c ****   /* Check for error conditions */
 744:./Libraries/STM32H7xx_HAL_Driver/Src/stm32h7xx_ll_sdmmc.c ****   errorstate = SDMMC_GetCmdResp1(SDMMCx, SDMMC_CMD_ERASE, SDMMC_MAXERASETIMEOUT);
 1499              		.loc 1 744 16
 1500 002e 4FF21862 		movw	r2, #63000
 1501 0032 2621     		movs	r1, #38
 1502 0034 7868     		ldr	r0, [r7, #4]
 1503 0036 FFF7FEFF 		bl	SDMMC_GetCmdResp1
 1504 003a F861     		str	r0, [r7, #28]
 745:./Libraries/STM32H7xx_HAL_Driver/Src/stm32h7xx_ll_sdmmc.c **** 
 746:./Libraries/STM32H7xx_HAL_Driver/Src/stm32h7xx_ll_sdmmc.c ****   return errorstate;
 1505              		.loc 1 746 10
 1506 003c FB69     		ldr	r3, [r7, #28]
 747:./Libraries/STM32H7xx_HAL_Driver/Src/stm32h7xx_ll_sdmmc.c **** }
 1507              		.loc 1 747 1
 1508 003e 1846     		mov	r0, r3
 1509 0040 2037     		adds	r7, r7, #32
 1510              	.LCFI134:
ARM GAS  /tmp/ccUwcR4B.s 			page 40


 1511              		.cfi_def_cfa_offset 8
 1512 0042 BD46     		mov	sp, r7
 1513              	.LCFI135:
 1514              		.cfi_def_cfa_register 13
 1515              		@ sp needed
 1516 0044 80BD     		pop	{r7, pc}
 1517              		.cfi_endproc
 1518              	.LFE354:
 1520              		.section	.text.SDMMC_CmdStopTransfer,"ax",%progbits
 1521              		.align	1
 1522              		.global	SDMMC_CmdStopTransfer
 1523              		.syntax unified
 1524              		.thumb
 1525              		.thumb_func
 1526              		.fpu fpv5-d16
 1528              	SDMMC_CmdStopTransfer:
 1529              	.LFB355:
 748:./Libraries/STM32H7xx_HAL_Driver/Src/stm32h7xx_ll_sdmmc.c **** 
 749:./Libraries/STM32H7xx_HAL_Driver/Src/stm32h7xx_ll_sdmmc.c **** /**
 750:./Libraries/STM32H7xx_HAL_Driver/Src/stm32h7xx_ll_sdmmc.c ****   * @brief  Send the Stop Transfer command and check the response.
 751:./Libraries/STM32H7xx_HAL_Driver/Src/stm32h7xx_ll_sdmmc.c ****   * @param  SDMMCx: Pointer to SDMMC register base
 752:./Libraries/STM32H7xx_HAL_Driver/Src/stm32h7xx_ll_sdmmc.c ****   * @retval HAL status
 753:./Libraries/STM32H7xx_HAL_Driver/Src/stm32h7xx_ll_sdmmc.c ****   */
 754:./Libraries/STM32H7xx_HAL_Driver/Src/stm32h7xx_ll_sdmmc.c **** uint32_t SDMMC_CmdStopTransfer(SDMMC_TypeDef *SDMMCx)
 755:./Libraries/STM32H7xx_HAL_Driver/Src/stm32h7xx_ll_sdmmc.c **** {
 1530              		.loc 1 755 1
 1531              		.cfi_startproc
 1532              		@ args = 0, pretend = 0, frame = 32
 1533              		@ frame_needed = 1, uses_anonymous_args = 0
 1534 0000 80B5     		push	{r7, lr}
 1535              	.LCFI136:
 1536              		.cfi_def_cfa_offset 8
 1537              		.cfi_offset 7, -8
 1538              		.cfi_offset 14, -4
 1539 0002 88B0     		sub	sp, sp, #32
 1540              	.LCFI137:
 1541              		.cfi_def_cfa_offset 40
 1542 0004 00AF     		add	r7, sp, #0
 1543              	.LCFI138:
 1544              		.cfi_def_cfa_register 7
 1545 0006 7860     		str	r0, [r7, #4]
 756:./Libraries/STM32H7xx_HAL_Driver/Src/stm32h7xx_ll_sdmmc.c ****   SDMMC_CmdInitTypeDef  sdmmc_cmdinit;
 757:./Libraries/STM32H7xx_HAL_Driver/Src/stm32h7xx_ll_sdmmc.c ****   uint32_t errorstate;
 758:./Libraries/STM32H7xx_HAL_Driver/Src/stm32h7xx_ll_sdmmc.c **** 
 759:./Libraries/STM32H7xx_HAL_Driver/Src/stm32h7xx_ll_sdmmc.c ****   /* Send CMD12 STOP_TRANSMISSION  */
 760:./Libraries/STM32H7xx_HAL_Driver/Src/stm32h7xx_ll_sdmmc.c ****   sdmmc_cmdinit.Argument         = 0U;
 1546              		.loc 1 760 34
 1547 0008 0023     		movs	r3, #0
 1548 000a BB60     		str	r3, [r7, #8]
 761:./Libraries/STM32H7xx_HAL_Driver/Src/stm32h7xx_ll_sdmmc.c ****   sdmmc_cmdinit.CmdIndex         = SDMMC_CMD_STOP_TRANSMISSION;
 1549              		.loc 1 761 34
 1550 000c 0C23     		movs	r3, #12
 1551 000e FB60     		str	r3, [r7, #12]
 762:./Libraries/STM32H7xx_HAL_Driver/Src/stm32h7xx_ll_sdmmc.c ****   sdmmc_cmdinit.Response         = SDMMC_RESPONSE_SHORT;
 1552              		.loc 1 762 34
 1553 0010 4FF48073 		mov	r3, #256
 1554 0014 3B61     		str	r3, [r7, #16]
ARM GAS  /tmp/ccUwcR4B.s 			page 41


 763:./Libraries/STM32H7xx_HAL_Driver/Src/stm32h7xx_ll_sdmmc.c ****   sdmmc_cmdinit.WaitForInterrupt = SDMMC_WAIT_NO;
 1555              		.loc 1 763 34
 1556 0016 0023     		movs	r3, #0
 1557 0018 7B61     		str	r3, [r7, #20]
 764:./Libraries/STM32H7xx_HAL_Driver/Src/stm32h7xx_ll_sdmmc.c ****   sdmmc_cmdinit.CPSM             = SDMMC_CPSM_ENABLE;
 1558              		.loc 1 764 34
 1559 001a 4FF48053 		mov	r3, #4096
 1560 001e BB61     		str	r3, [r7, #24]
 765:./Libraries/STM32H7xx_HAL_Driver/Src/stm32h7xx_ll_sdmmc.c **** 
 766:./Libraries/STM32H7xx_HAL_Driver/Src/stm32h7xx_ll_sdmmc.c ****   __SDMMC_CMDSTOP_ENABLE(SDMMCx);
 1561              		.loc 1 766 3
 1562 0020 7B68     		ldr	r3, [r7, #4]
 1563 0022 DB68     		ldr	r3, [r3, #12]
 1564 0024 43F08002 		orr	r2, r3, #128
 1565 0028 7B68     		ldr	r3, [r7, #4]
 1566 002a DA60     		str	r2, [r3, #12]
 767:./Libraries/STM32H7xx_HAL_Driver/Src/stm32h7xx_ll_sdmmc.c ****   __SDMMC_CMDTRANS_DISABLE(SDMMCx);
 1567              		.loc 1 767 3
 1568 002c 7B68     		ldr	r3, [r7, #4]
 1569 002e DB68     		ldr	r3, [r3, #12]
 1570 0030 23F04002 		bic	r2, r3, #64
 1571 0034 7B68     		ldr	r3, [r7, #4]
 1572 0036 DA60     		str	r2, [r3, #12]
 768:./Libraries/STM32H7xx_HAL_Driver/Src/stm32h7xx_ll_sdmmc.c **** 
 769:./Libraries/STM32H7xx_HAL_Driver/Src/stm32h7xx_ll_sdmmc.c ****   (void)SDMMC_SendCommand(SDMMCx, &sdmmc_cmdinit);
 1573              		.loc 1 769 9
 1574 0038 07F10803 		add	r3, r7, #8
 1575 003c 1946     		mov	r1, r3
 1576 003e 7868     		ldr	r0, [r7, #4]
 1577 0040 FFF7FEFF 		bl	SDMMC_SendCommand
 770:./Libraries/STM32H7xx_HAL_Driver/Src/stm32h7xx_ll_sdmmc.c **** 
 771:./Libraries/STM32H7xx_HAL_Driver/Src/stm32h7xx_ll_sdmmc.c ****   /* Check for error conditions */
 772:./Libraries/STM32H7xx_HAL_Driver/Src/stm32h7xx_ll_sdmmc.c ****   errorstate = SDMMC_GetCmdResp1(SDMMCx, SDMMC_CMD_STOP_TRANSMISSION, SDMMC_STOPTRANSFERTIMEOUT);
 1578              		.loc 1 772 16
 1579 0044 0B4A     		ldr	r2, .L56
 1580 0046 0C21     		movs	r1, #12
 1581 0048 7868     		ldr	r0, [r7, #4]
 1582 004a FFF7FEFF 		bl	SDMMC_GetCmdResp1
 1583 004e F861     		str	r0, [r7, #28]
 773:./Libraries/STM32H7xx_HAL_Driver/Src/stm32h7xx_ll_sdmmc.c **** 
 774:./Libraries/STM32H7xx_HAL_Driver/Src/stm32h7xx_ll_sdmmc.c ****   __SDMMC_CMDSTOP_DISABLE(SDMMCx);
 1584              		.loc 1 774 3
 1585 0050 7B68     		ldr	r3, [r7, #4]
 1586 0052 DB68     		ldr	r3, [r3, #12]
 1587 0054 23F08002 		bic	r2, r3, #128
 1588 0058 7B68     		ldr	r3, [r7, #4]
 1589 005a DA60     		str	r2, [r3, #12]
 775:./Libraries/STM32H7xx_HAL_Driver/Src/stm32h7xx_ll_sdmmc.c **** 
 776:./Libraries/STM32H7xx_HAL_Driver/Src/stm32h7xx_ll_sdmmc.c ****   /* Ignore Address Out Of Range Error, Not relevant at end of memory */
 777:./Libraries/STM32H7xx_HAL_Driver/Src/stm32h7xx_ll_sdmmc.c ****   if (errorstate == SDMMC_ERROR_ADDR_OUT_OF_RANGE)
 1590              		.loc 1 777 6
 1591 005c FB69     		ldr	r3, [r7, #28]
 1592 005e B3F1007F 		cmp	r3, #33554432
 1593 0062 01D1     		bne	.L54
 778:./Libraries/STM32H7xx_HAL_Driver/Src/stm32h7xx_ll_sdmmc.c ****   {
 779:./Libraries/STM32H7xx_HAL_Driver/Src/stm32h7xx_ll_sdmmc.c ****     errorstate = SDMMC_ERROR_NONE;
 1594              		.loc 1 779 16
ARM GAS  /tmp/ccUwcR4B.s 			page 42


 1595 0064 0023     		movs	r3, #0
 1596 0066 FB61     		str	r3, [r7, #28]
 1597              	.L54:
 780:./Libraries/STM32H7xx_HAL_Driver/Src/stm32h7xx_ll_sdmmc.c ****   }
 781:./Libraries/STM32H7xx_HAL_Driver/Src/stm32h7xx_ll_sdmmc.c **** 
 782:./Libraries/STM32H7xx_HAL_Driver/Src/stm32h7xx_ll_sdmmc.c ****   return errorstate;
 1598              		.loc 1 782 10
 1599 0068 FB69     		ldr	r3, [r7, #28]
 783:./Libraries/STM32H7xx_HAL_Driver/Src/stm32h7xx_ll_sdmmc.c **** }
 1600              		.loc 1 783 1
 1601 006a 1846     		mov	r0, r3
 1602 006c 2037     		adds	r7, r7, #32
 1603              	.LCFI139:
 1604              		.cfi_def_cfa_offset 8
 1605 006e BD46     		mov	sp, r7
 1606              	.LCFI140:
 1607              		.cfi_def_cfa_register 13
 1608              		@ sp needed
 1609 0070 80BD     		pop	{r7, pc}
 1610              	.L57:
 1611 0072 00BF     		.align	2
 1612              	.L56:
 1613 0074 00E1F505 		.word	100000000
 1614              		.cfi_endproc
 1615              	.LFE355:
 1617              		.section	.text.SDMMC_CmdSelDesel,"ax",%progbits
 1618              		.align	1
 1619              		.global	SDMMC_CmdSelDesel
 1620              		.syntax unified
 1621              		.thumb
 1622              		.thumb_func
 1623              		.fpu fpv5-d16
 1625              	SDMMC_CmdSelDesel:
 1626              	.LFB356:
 784:./Libraries/STM32H7xx_HAL_Driver/Src/stm32h7xx_ll_sdmmc.c **** 
 785:./Libraries/STM32H7xx_HAL_Driver/Src/stm32h7xx_ll_sdmmc.c **** /**
 786:./Libraries/STM32H7xx_HAL_Driver/Src/stm32h7xx_ll_sdmmc.c ****   * @brief  Send the Select Deselect command and check the response.
 787:./Libraries/STM32H7xx_HAL_Driver/Src/stm32h7xx_ll_sdmmc.c ****   * @param  SDMMCx: Pointer to SDMMC register base
 788:./Libraries/STM32H7xx_HAL_Driver/Src/stm32h7xx_ll_sdmmc.c ****   * @param  addr: Address of the card to be selected
 789:./Libraries/STM32H7xx_HAL_Driver/Src/stm32h7xx_ll_sdmmc.c ****   * @retval HAL status
 790:./Libraries/STM32H7xx_HAL_Driver/Src/stm32h7xx_ll_sdmmc.c ****   */
 791:./Libraries/STM32H7xx_HAL_Driver/Src/stm32h7xx_ll_sdmmc.c **** uint32_t SDMMC_CmdSelDesel(SDMMC_TypeDef *SDMMCx, uint32_t Addr)
 792:./Libraries/STM32H7xx_HAL_Driver/Src/stm32h7xx_ll_sdmmc.c **** {
 1627              		.loc 1 792 1
 1628              		.cfi_startproc
 1629              		@ args = 0, pretend = 0, frame = 32
 1630              		@ frame_needed = 1, uses_anonymous_args = 0
 1631 0000 80B5     		push	{r7, lr}
 1632              	.LCFI141:
 1633              		.cfi_def_cfa_offset 8
 1634              		.cfi_offset 7, -8
 1635              		.cfi_offset 14, -4
 1636 0002 88B0     		sub	sp, sp, #32
 1637              	.LCFI142:
 1638              		.cfi_def_cfa_offset 40
 1639 0004 00AF     		add	r7, sp, #0
 1640              	.LCFI143:
ARM GAS  /tmp/ccUwcR4B.s 			page 43


 1641              		.cfi_def_cfa_register 7
 1642 0006 7860     		str	r0, [r7, #4]
 1643 0008 3960     		str	r1, [r7]
 793:./Libraries/STM32H7xx_HAL_Driver/Src/stm32h7xx_ll_sdmmc.c ****   SDMMC_CmdInitTypeDef  sdmmc_cmdinit;
 794:./Libraries/STM32H7xx_HAL_Driver/Src/stm32h7xx_ll_sdmmc.c ****   uint32_t errorstate;
 795:./Libraries/STM32H7xx_HAL_Driver/Src/stm32h7xx_ll_sdmmc.c **** 
 796:./Libraries/STM32H7xx_HAL_Driver/Src/stm32h7xx_ll_sdmmc.c ****   /* Send CMD7 SDMMC_SEL_DESEL_CARD */
 797:./Libraries/STM32H7xx_HAL_Driver/Src/stm32h7xx_ll_sdmmc.c ****   sdmmc_cmdinit.Argument         = (uint32_t)Addr;
 1644              		.loc 1 797 34
 1645 000a 3B68     		ldr	r3, [r7]
 1646 000c BB60     		str	r3, [r7, #8]
 798:./Libraries/STM32H7xx_HAL_Driver/Src/stm32h7xx_ll_sdmmc.c ****   sdmmc_cmdinit.CmdIndex         = SDMMC_CMD_SEL_DESEL_CARD;
 1647              		.loc 1 798 34
 1648 000e 0723     		movs	r3, #7
 1649 0010 FB60     		str	r3, [r7, #12]
 799:./Libraries/STM32H7xx_HAL_Driver/Src/stm32h7xx_ll_sdmmc.c ****   sdmmc_cmdinit.Response         = SDMMC_RESPONSE_SHORT;
 1650              		.loc 1 799 34
 1651 0012 4FF48073 		mov	r3, #256
 1652 0016 3B61     		str	r3, [r7, #16]
 800:./Libraries/STM32H7xx_HAL_Driver/Src/stm32h7xx_ll_sdmmc.c ****   sdmmc_cmdinit.WaitForInterrupt = SDMMC_WAIT_NO;
 1653              		.loc 1 800 34
 1654 0018 0023     		movs	r3, #0
 1655 001a 7B61     		str	r3, [r7, #20]
 801:./Libraries/STM32H7xx_HAL_Driver/Src/stm32h7xx_ll_sdmmc.c ****   sdmmc_cmdinit.CPSM             = SDMMC_CPSM_ENABLE;
 1656              		.loc 1 801 34
 1657 001c 4FF48053 		mov	r3, #4096
 1658 0020 BB61     		str	r3, [r7, #24]
 802:./Libraries/STM32H7xx_HAL_Driver/Src/stm32h7xx_ll_sdmmc.c ****   (void)SDMMC_SendCommand(SDMMCx, &sdmmc_cmdinit);
 1659              		.loc 1 802 9
 1660 0022 07F10803 		add	r3, r7, #8
 1661 0026 1946     		mov	r1, r3
 1662 0028 7868     		ldr	r0, [r7, #4]
 1663 002a FFF7FEFF 		bl	SDMMC_SendCommand
 803:./Libraries/STM32H7xx_HAL_Driver/Src/stm32h7xx_ll_sdmmc.c **** 
 804:./Libraries/STM32H7xx_HAL_Driver/Src/stm32h7xx_ll_sdmmc.c ****   /* Check for error conditions */
 805:./Libraries/STM32H7xx_HAL_Driver/Src/stm32h7xx_ll_sdmmc.c ****   errorstate = SDMMC_GetCmdResp1(SDMMCx, SDMMC_CMD_SEL_DESEL_CARD, SDMMC_CMDTIMEOUT);
 1664              		.loc 1 805 16
 1665 002e 41F28832 		movw	r2, #5000
 1666 0032 0721     		movs	r1, #7
 1667 0034 7868     		ldr	r0, [r7, #4]
 1668 0036 FFF7FEFF 		bl	SDMMC_GetCmdResp1
 1669 003a F861     		str	r0, [r7, #28]
 806:./Libraries/STM32H7xx_HAL_Driver/Src/stm32h7xx_ll_sdmmc.c **** 
 807:./Libraries/STM32H7xx_HAL_Driver/Src/stm32h7xx_ll_sdmmc.c ****   return errorstate;
 1670              		.loc 1 807 10
 1671 003c FB69     		ldr	r3, [r7, #28]
 808:./Libraries/STM32H7xx_HAL_Driver/Src/stm32h7xx_ll_sdmmc.c **** }
 1672              		.loc 1 808 1
 1673 003e 1846     		mov	r0, r3
 1674 0040 2037     		adds	r7, r7, #32
 1675              	.LCFI144:
 1676              		.cfi_def_cfa_offset 8
 1677 0042 BD46     		mov	sp, r7
 1678              	.LCFI145:
 1679              		.cfi_def_cfa_register 13
 1680              		@ sp needed
 1681 0044 80BD     		pop	{r7, pc}
ARM GAS  /tmp/ccUwcR4B.s 			page 44


 1682              		.cfi_endproc
 1683              	.LFE356:
 1685              		.section	.text.SDMMC_CmdGoIdleState,"ax",%progbits
 1686              		.align	1
 1687              		.global	SDMMC_CmdGoIdleState
 1688              		.syntax unified
 1689              		.thumb
 1690              		.thumb_func
 1691              		.fpu fpv5-d16
 1693              	SDMMC_CmdGoIdleState:
 1694              	.LFB357:
 809:./Libraries/STM32H7xx_HAL_Driver/Src/stm32h7xx_ll_sdmmc.c **** 
 810:./Libraries/STM32H7xx_HAL_Driver/Src/stm32h7xx_ll_sdmmc.c **** /**
 811:./Libraries/STM32H7xx_HAL_Driver/Src/stm32h7xx_ll_sdmmc.c ****   * @brief  Send the Go Idle State command and check the response.
 812:./Libraries/STM32H7xx_HAL_Driver/Src/stm32h7xx_ll_sdmmc.c ****   * @param  SDMMCx: Pointer to SDMMC register base
 813:./Libraries/STM32H7xx_HAL_Driver/Src/stm32h7xx_ll_sdmmc.c ****   * @retval HAL status
 814:./Libraries/STM32H7xx_HAL_Driver/Src/stm32h7xx_ll_sdmmc.c ****   */
 815:./Libraries/STM32H7xx_HAL_Driver/Src/stm32h7xx_ll_sdmmc.c **** uint32_t SDMMC_CmdGoIdleState(SDMMC_TypeDef *SDMMCx)
 816:./Libraries/STM32H7xx_HAL_Driver/Src/stm32h7xx_ll_sdmmc.c **** {
 1695              		.loc 1 816 1
 1696              		.cfi_startproc
 1697              		@ args = 0, pretend = 0, frame = 32
 1698              		@ frame_needed = 1, uses_anonymous_args = 0
 1699 0000 80B5     		push	{r7, lr}
 1700              	.LCFI146:
 1701              		.cfi_def_cfa_offset 8
 1702              		.cfi_offset 7, -8
 1703              		.cfi_offset 14, -4
 1704 0002 88B0     		sub	sp, sp, #32
 1705              	.LCFI147:
 1706              		.cfi_def_cfa_offset 40
 1707 0004 00AF     		add	r7, sp, #0
 1708              	.LCFI148:
 1709              		.cfi_def_cfa_register 7
 1710 0006 7860     		str	r0, [r7, #4]
 817:./Libraries/STM32H7xx_HAL_Driver/Src/stm32h7xx_ll_sdmmc.c ****   SDMMC_CmdInitTypeDef  sdmmc_cmdinit;
 818:./Libraries/STM32H7xx_HAL_Driver/Src/stm32h7xx_ll_sdmmc.c ****   uint32_t errorstate;
 819:./Libraries/STM32H7xx_HAL_Driver/Src/stm32h7xx_ll_sdmmc.c **** 
 820:./Libraries/STM32H7xx_HAL_Driver/Src/stm32h7xx_ll_sdmmc.c ****   sdmmc_cmdinit.Argument         = 0U;
 1711              		.loc 1 820 34
 1712 0008 0023     		movs	r3, #0
 1713 000a BB60     		str	r3, [r7, #8]
 821:./Libraries/STM32H7xx_HAL_Driver/Src/stm32h7xx_ll_sdmmc.c ****   sdmmc_cmdinit.CmdIndex         = SDMMC_CMD_GO_IDLE_STATE;
 1714              		.loc 1 821 34
 1715 000c 0023     		movs	r3, #0
 1716 000e FB60     		str	r3, [r7, #12]
 822:./Libraries/STM32H7xx_HAL_Driver/Src/stm32h7xx_ll_sdmmc.c ****   sdmmc_cmdinit.Response         = SDMMC_RESPONSE_NO;
 1717              		.loc 1 822 34
 1718 0010 0023     		movs	r3, #0
 1719 0012 3B61     		str	r3, [r7, #16]
 823:./Libraries/STM32H7xx_HAL_Driver/Src/stm32h7xx_ll_sdmmc.c ****   sdmmc_cmdinit.WaitForInterrupt = SDMMC_WAIT_NO;
 1720              		.loc 1 823 34
 1721 0014 0023     		movs	r3, #0
 1722 0016 7B61     		str	r3, [r7, #20]
 824:./Libraries/STM32H7xx_HAL_Driver/Src/stm32h7xx_ll_sdmmc.c ****   sdmmc_cmdinit.CPSM             = SDMMC_CPSM_ENABLE;
 1723              		.loc 1 824 34
 1724 0018 4FF48053 		mov	r3, #4096
ARM GAS  /tmp/ccUwcR4B.s 			page 45


 1725 001c BB61     		str	r3, [r7, #24]
 825:./Libraries/STM32H7xx_HAL_Driver/Src/stm32h7xx_ll_sdmmc.c ****   (void)SDMMC_SendCommand(SDMMCx, &sdmmc_cmdinit);
 1726              		.loc 1 825 9
 1727 001e 07F10803 		add	r3, r7, #8
 1728 0022 1946     		mov	r1, r3
 1729 0024 7868     		ldr	r0, [r7, #4]
 1730 0026 FFF7FEFF 		bl	SDMMC_SendCommand
 826:./Libraries/STM32H7xx_HAL_Driver/Src/stm32h7xx_ll_sdmmc.c **** 
 827:./Libraries/STM32H7xx_HAL_Driver/Src/stm32h7xx_ll_sdmmc.c ****   /* Check for error conditions */
 828:./Libraries/STM32H7xx_HAL_Driver/Src/stm32h7xx_ll_sdmmc.c ****   errorstate = SDMMC_GetCmdError(SDMMCx);
 1731              		.loc 1 828 16
 1732 002a 7868     		ldr	r0, [r7, #4]
 1733 002c FFF7FEFF 		bl	SDMMC_GetCmdError
 1734 0030 F861     		str	r0, [r7, #28]
 829:./Libraries/STM32H7xx_HAL_Driver/Src/stm32h7xx_ll_sdmmc.c **** 
 830:./Libraries/STM32H7xx_HAL_Driver/Src/stm32h7xx_ll_sdmmc.c ****   return errorstate;
 1735              		.loc 1 830 10
 1736 0032 FB69     		ldr	r3, [r7, #28]
 831:./Libraries/STM32H7xx_HAL_Driver/Src/stm32h7xx_ll_sdmmc.c **** }
 1737              		.loc 1 831 1
 1738 0034 1846     		mov	r0, r3
 1739 0036 2037     		adds	r7, r7, #32
 1740              	.LCFI149:
 1741              		.cfi_def_cfa_offset 8
 1742 0038 BD46     		mov	sp, r7
 1743              	.LCFI150:
 1744              		.cfi_def_cfa_register 13
 1745              		@ sp needed
 1746 003a 80BD     		pop	{r7, pc}
 1747              		.cfi_endproc
 1748              	.LFE357:
 1750              		.section	.text.SDMMC_CmdOperCond,"ax",%progbits
 1751              		.align	1
 1752              		.global	SDMMC_CmdOperCond
 1753              		.syntax unified
 1754              		.thumb
 1755              		.thumb_func
 1756              		.fpu fpv5-d16
 1758              	SDMMC_CmdOperCond:
 1759              	.LFB358:
 832:./Libraries/STM32H7xx_HAL_Driver/Src/stm32h7xx_ll_sdmmc.c **** 
 833:./Libraries/STM32H7xx_HAL_Driver/Src/stm32h7xx_ll_sdmmc.c **** /**
 834:./Libraries/STM32H7xx_HAL_Driver/Src/stm32h7xx_ll_sdmmc.c ****   * @brief  Send the Operating Condition command and check the response.
 835:./Libraries/STM32H7xx_HAL_Driver/Src/stm32h7xx_ll_sdmmc.c ****   * @param  SDMMCx: Pointer to SDMMC register base
 836:./Libraries/STM32H7xx_HAL_Driver/Src/stm32h7xx_ll_sdmmc.c ****   * @retval HAL status
 837:./Libraries/STM32H7xx_HAL_Driver/Src/stm32h7xx_ll_sdmmc.c ****   */
 838:./Libraries/STM32H7xx_HAL_Driver/Src/stm32h7xx_ll_sdmmc.c **** uint32_t SDMMC_CmdOperCond(SDMMC_TypeDef *SDMMCx)
 839:./Libraries/STM32H7xx_HAL_Driver/Src/stm32h7xx_ll_sdmmc.c **** {
 1760              		.loc 1 839 1
 1761              		.cfi_startproc
 1762              		@ args = 0, pretend = 0, frame = 32
 1763              		@ frame_needed = 1, uses_anonymous_args = 0
 1764 0000 80B5     		push	{r7, lr}
 1765              	.LCFI151:
 1766              		.cfi_def_cfa_offset 8
 1767              		.cfi_offset 7, -8
 1768              		.cfi_offset 14, -4
ARM GAS  /tmp/ccUwcR4B.s 			page 46


 1769 0002 88B0     		sub	sp, sp, #32
 1770              	.LCFI152:
 1771              		.cfi_def_cfa_offset 40
 1772 0004 00AF     		add	r7, sp, #0
 1773              	.LCFI153:
 1774              		.cfi_def_cfa_register 7
 1775 0006 7860     		str	r0, [r7, #4]
 840:./Libraries/STM32H7xx_HAL_Driver/Src/stm32h7xx_ll_sdmmc.c ****   SDMMC_CmdInitTypeDef  sdmmc_cmdinit;
 841:./Libraries/STM32H7xx_HAL_Driver/Src/stm32h7xx_ll_sdmmc.c ****   uint32_t errorstate;
 842:./Libraries/STM32H7xx_HAL_Driver/Src/stm32h7xx_ll_sdmmc.c **** 
 843:./Libraries/STM32H7xx_HAL_Driver/Src/stm32h7xx_ll_sdmmc.c ****   /* Send CMD8 to verify SD card interface operating condition */
 844:./Libraries/STM32H7xx_HAL_Driver/Src/stm32h7xx_ll_sdmmc.c ****   /* Argument: - [31:12]: Reserved (shall be set to '0')
 845:./Libraries/STM32H7xx_HAL_Driver/Src/stm32h7xx_ll_sdmmc.c ****   - [11:8]: Supply Voltage (VHS) 0x1 (Range: 2.7-3.6 V)
 846:./Libraries/STM32H7xx_HAL_Driver/Src/stm32h7xx_ll_sdmmc.c ****   - [7:0]: Check Pattern (recommended 0xAA) */
 847:./Libraries/STM32H7xx_HAL_Driver/Src/stm32h7xx_ll_sdmmc.c ****   /* CMD Response: R7 */
 848:./Libraries/STM32H7xx_HAL_Driver/Src/stm32h7xx_ll_sdmmc.c ****   sdmmc_cmdinit.Argument         = SDMMC_CHECK_PATTERN;
 1776              		.loc 1 848 34
 1777 0008 4FF4D573 		mov	r3, #426
 1778 000c BB60     		str	r3, [r7, #8]
 849:./Libraries/STM32H7xx_HAL_Driver/Src/stm32h7xx_ll_sdmmc.c ****   sdmmc_cmdinit.CmdIndex         = SDMMC_CMD_HS_SEND_EXT_CSD;
 1779              		.loc 1 849 34
 1780 000e 0823     		movs	r3, #8
 1781 0010 FB60     		str	r3, [r7, #12]
 850:./Libraries/STM32H7xx_HAL_Driver/Src/stm32h7xx_ll_sdmmc.c ****   sdmmc_cmdinit.Response         = SDMMC_RESPONSE_SHORT;
 1782              		.loc 1 850 34
 1783 0012 4FF48073 		mov	r3, #256
 1784 0016 3B61     		str	r3, [r7, #16]
 851:./Libraries/STM32H7xx_HAL_Driver/Src/stm32h7xx_ll_sdmmc.c ****   sdmmc_cmdinit.WaitForInterrupt = SDMMC_WAIT_NO;
 1785              		.loc 1 851 34
 1786 0018 0023     		movs	r3, #0
 1787 001a 7B61     		str	r3, [r7, #20]
 852:./Libraries/STM32H7xx_HAL_Driver/Src/stm32h7xx_ll_sdmmc.c ****   sdmmc_cmdinit.CPSM             = SDMMC_CPSM_ENABLE;
 1788              		.loc 1 852 34
 1789 001c 4FF48053 		mov	r3, #4096
 1790 0020 BB61     		str	r3, [r7, #24]
 853:./Libraries/STM32H7xx_HAL_Driver/Src/stm32h7xx_ll_sdmmc.c ****   (void)SDMMC_SendCommand(SDMMCx, &sdmmc_cmdinit);
 1791              		.loc 1 853 9
 1792 0022 07F10803 		add	r3, r7, #8
 1793 0026 1946     		mov	r1, r3
 1794 0028 7868     		ldr	r0, [r7, #4]
 1795 002a FFF7FEFF 		bl	SDMMC_SendCommand
 854:./Libraries/STM32H7xx_HAL_Driver/Src/stm32h7xx_ll_sdmmc.c **** 
 855:./Libraries/STM32H7xx_HAL_Driver/Src/stm32h7xx_ll_sdmmc.c ****   /* Check for error conditions */
 856:./Libraries/STM32H7xx_HAL_Driver/Src/stm32h7xx_ll_sdmmc.c ****   errorstate = SDMMC_GetCmdResp7(SDMMCx);
 1796              		.loc 1 856 16
 1797 002e 7868     		ldr	r0, [r7, #4]
 1798 0030 FFF7FEFF 		bl	SDMMC_GetCmdResp7
 1799 0034 F861     		str	r0, [r7, #28]
 857:./Libraries/STM32H7xx_HAL_Driver/Src/stm32h7xx_ll_sdmmc.c **** 
 858:./Libraries/STM32H7xx_HAL_Driver/Src/stm32h7xx_ll_sdmmc.c ****   return errorstate;
 1800              		.loc 1 858 10
 1801 0036 FB69     		ldr	r3, [r7, #28]
 859:./Libraries/STM32H7xx_HAL_Driver/Src/stm32h7xx_ll_sdmmc.c **** }
 1802              		.loc 1 859 1
 1803 0038 1846     		mov	r0, r3
 1804 003a 2037     		adds	r7, r7, #32
 1805              	.LCFI154:
ARM GAS  /tmp/ccUwcR4B.s 			page 47


 1806              		.cfi_def_cfa_offset 8
 1807 003c BD46     		mov	sp, r7
 1808              	.LCFI155:
 1809              		.cfi_def_cfa_register 13
 1810              		@ sp needed
 1811 003e 80BD     		pop	{r7, pc}
 1812              		.cfi_endproc
 1813              	.LFE358:
 1815              		.section	.text.SDMMC_CmdAppCommand,"ax",%progbits
 1816              		.align	1
 1817              		.global	SDMMC_CmdAppCommand
 1818              		.syntax unified
 1819              		.thumb
 1820              		.thumb_func
 1821              		.fpu fpv5-d16
 1823              	SDMMC_CmdAppCommand:
 1824              	.LFB359:
 860:./Libraries/STM32H7xx_HAL_Driver/Src/stm32h7xx_ll_sdmmc.c **** 
 861:./Libraries/STM32H7xx_HAL_Driver/Src/stm32h7xx_ll_sdmmc.c **** /**
 862:./Libraries/STM32H7xx_HAL_Driver/Src/stm32h7xx_ll_sdmmc.c ****   * @brief  Send the Application command to verify that that the next command
 863:./Libraries/STM32H7xx_HAL_Driver/Src/stm32h7xx_ll_sdmmc.c ****   *         is an application specific com-mand rather than a standard command
 864:./Libraries/STM32H7xx_HAL_Driver/Src/stm32h7xx_ll_sdmmc.c ****   *         and check the response.
 865:./Libraries/STM32H7xx_HAL_Driver/Src/stm32h7xx_ll_sdmmc.c ****   * @param  SDMMCx: Pointer to SDMMC register base
 866:./Libraries/STM32H7xx_HAL_Driver/Src/stm32h7xx_ll_sdmmc.c ****   * @param  Argument: Command Argument
 867:./Libraries/STM32H7xx_HAL_Driver/Src/stm32h7xx_ll_sdmmc.c ****   * @retval HAL status
 868:./Libraries/STM32H7xx_HAL_Driver/Src/stm32h7xx_ll_sdmmc.c ****   */
 869:./Libraries/STM32H7xx_HAL_Driver/Src/stm32h7xx_ll_sdmmc.c **** uint32_t SDMMC_CmdAppCommand(SDMMC_TypeDef *SDMMCx, uint32_t Argument)
 870:./Libraries/STM32H7xx_HAL_Driver/Src/stm32h7xx_ll_sdmmc.c **** {
 1825              		.loc 1 870 1
 1826              		.cfi_startproc
 1827              		@ args = 0, pretend = 0, frame = 32
 1828              		@ frame_needed = 1, uses_anonymous_args = 0
 1829 0000 80B5     		push	{r7, lr}
 1830              	.LCFI156:
 1831              		.cfi_def_cfa_offset 8
 1832              		.cfi_offset 7, -8
 1833              		.cfi_offset 14, -4
 1834 0002 88B0     		sub	sp, sp, #32
 1835              	.LCFI157:
 1836              		.cfi_def_cfa_offset 40
 1837 0004 00AF     		add	r7, sp, #0
 1838              	.LCFI158:
 1839              		.cfi_def_cfa_register 7
 1840 0006 7860     		str	r0, [r7, #4]
 1841 0008 3960     		str	r1, [r7]
 871:./Libraries/STM32H7xx_HAL_Driver/Src/stm32h7xx_ll_sdmmc.c ****   SDMMC_CmdInitTypeDef  sdmmc_cmdinit;
 872:./Libraries/STM32H7xx_HAL_Driver/Src/stm32h7xx_ll_sdmmc.c ****   uint32_t errorstate;
 873:./Libraries/STM32H7xx_HAL_Driver/Src/stm32h7xx_ll_sdmmc.c **** 
 874:./Libraries/STM32H7xx_HAL_Driver/Src/stm32h7xx_ll_sdmmc.c ****   sdmmc_cmdinit.Argument         = (uint32_t)Argument;
 1842              		.loc 1 874 34
 1843 000a 3B68     		ldr	r3, [r7]
 1844 000c BB60     		str	r3, [r7, #8]
 875:./Libraries/STM32H7xx_HAL_Driver/Src/stm32h7xx_ll_sdmmc.c ****   sdmmc_cmdinit.CmdIndex         = SDMMC_CMD_APP_CMD;
 1845              		.loc 1 875 34
 1846 000e 3723     		movs	r3, #55
 1847 0010 FB60     		str	r3, [r7, #12]
 876:./Libraries/STM32H7xx_HAL_Driver/Src/stm32h7xx_ll_sdmmc.c ****   sdmmc_cmdinit.Response         = SDMMC_RESPONSE_SHORT;
ARM GAS  /tmp/ccUwcR4B.s 			page 48


 1848              		.loc 1 876 34
 1849 0012 4FF48073 		mov	r3, #256
 1850 0016 3B61     		str	r3, [r7, #16]
 877:./Libraries/STM32H7xx_HAL_Driver/Src/stm32h7xx_ll_sdmmc.c ****   sdmmc_cmdinit.WaitForInterrupt = SDMMC_WAIT_NO;
 1851              		.loc 1 877 34
 1852 0018 0023     		movs	r3, #0
 1853 001a 7B61     		str	r3, [r7, #20]
 878:./Libraries/STM32H7xx_HAL_Driver/Src/stm32h7xx_ll_sdmmc.c ****   sdmmc_cmdinit.CPSM             = SDMMC_CPSM_ENABLE;
 1854              		.loc 1 878 34
 1855 001c 4FF48053 		mov	r3, #4096
 1856 0020 BB61     		str	r3, [r7, #24]
 879:./Libraries/STM32H7xx_HAL_Driver/Src/stm32h7xx_ll_sdmmc.c ****   (void)SDMMC_SendCommand(SDMMCx, &sdmmc_cmdinit);
 1857              		.loc 1 879 9
 1858 0022 07F10803 		add	r3, r7, #8
 1859 0026 1946     		mov	r1, r3
 1860 0028 7868     		ldr	r0, [r7, #4]
 1861 002a FFF7FEFF 		bl	SDMMC_SendCommand
 880:./Libraries/STM32H7xx_HAL_Driver/Src/stm32h7xx_ll_sdmmc.c **** 
 881:./Libraries/STM32H7xx_HAL_Driver/Src/stm32h7xx_ll_sdmmc.c ****   /* Check for error conditions */
 882:./Libraries/STM32H7xx_HAL_Driver/Src/stm32h7xx_ll_sdmmc.c ****   /* If there is a HAL_ERROR, it is a MMC card, else
 883:./Libraries/STM32H7xx_HAL_Driver/Src/stm32h7xx_ll_sdmmc.c ****   it is a SD card: SD card 2.0 (voltage range mismatch)
 884:./Libraries/STM32H7xx_HAL_Driver/Src/stm32h7xx_ll_sdmmc.c ****      or SD card 1.x */
 885:./Libraries/STM32H7xx_HAL_Driver/Src/stm32h7xx_ll_sdmmc.c ****   errorstate = SDMMC_GetCmdResp1(SDMMCx, SDMMC_CMD_APP_CMD, SDMMC_CMDTIMEOUT);
 1862              		.loc 1 885 16
 1863 002e 41F28832 		movw	r2, #5000
 1864 0032 3721     		movs	r1, #55
 1865 0034 7868     		ldr	r0, [r7, #4]
 1866 0036 FFF7FEFF 		bl	SDMMC_GetCmdResp1
 1867 003a F861     		str	r0, [r7, #28]
 886:./Libraries/STM32H7xx_HAL_Driver/Src/stm32h7xx_ll_sdmmc.c **** 
 887:./Libraries/STM32H7xx_HAL_Driver/Src/stm32h7xx_ll_sdmmc.c ****   return errorstate;
 1868              		.loc 1 887 10
 1869 003c FB69     		ldr	r3, [r7, #28]
 888:./Libraries/STM32H7xx_HAL_Driver/Src/stm32h7xx_ll_sdmmc.c **** }
 1870              		.loc 1 888 1
 1871 003e 1846     		mov	r0, r3
 1872 0040 2037     		adds	r7, r7, #32
 1873              	.LCFI159:
 1874              		.cfi_def_cfa_offset 8
 1875 0042 BD46     		mov	sp, r7
 1876              	.LCFI160:
 1877              		.cfi_def_cfa_register 13
 1878              		@ sp needed
 1879 0044 80BD     		pop	{r7, pc}
 1880              		.cfi_endproc
 1881              	.LFE359:
 1883              		.section	.text.SDMMC_CmdAppOperCommand,"ax",%progbits
 1884              		.align	1
 1885              		.global	SDMMC_CmdAppOperCommand
 1886              		.syntax unified
 1887              		.thumb
 1888              		.thumb_func
 1889              		.fpu fpv5-d16
 1891              	SDMMC_CmdAppOperCommand:
 1892              	.LFB360:
 889:./Libraries/STM32H7xx_HAL_Driver/Src/stm32h7xx_ll_sdmmc.c **** 
 890:./Libraries/STM32H7xx_HAL_Driver/Src/stm32h7xx_ll_sdmmc.c **** /**
ARM GAS  /tmp/ccUwcR4B.s 			page 49


 891:./Libraries/STM32H7xx_HAL_Driver/Src/stm32h7xx_ll_sdmmc.c ****   * @brief  Send the command asking the accessed card to send its operating
 892:./Libraries/STM32H7xx_HAL_Driver/Src/stm32h7xx_ll_sdmmc.c ****   *         condition register (OCR)
 893:./Libraries/STM32H7xx_HAL_Driver/Src/stm32h7xx_ll_sdmmc.c ****   * @param  SDMMCx: Pointer to SDMMC register base
 894:./Libraries/STM32H7xx_HAL_Driver/Src/stm32h7xx_ll_sdmmc.c ****   * @param  Argument: Command Argument
 895:./Libraries/STM32H7xx_HAL_Driver/Src/stm32h7xx_ll_sdmmc.c ****   * @retval HAL status
 896:./Libraries/STM32H7xx_HAL_Driver/Src/stm32h7xx_ll_sdmmc.c ****   */
 897:./Libraries/STM32H7xx_HAL_Driver/Src/stm32h7xx_ll_sdmmc.c **** uint32_t SDMMC_CmdAppOperCommand(SDMMC_TypeDef *SDMMCx, uint32_t Argument)
 898:./Libraries/STM32H7xx_HAL_Driver/Src/stm32h7xx_ll_sdmmc.c **** {
 1893              		.loc 1 898 1
 1894              		.cfi_startproc
 1895              		@ args = 0, pretend = 0, frame = 32
 1896              		@ frame_needed = 1, uses_anonymous_args = 0
 1897 0000 80B5     		push	{r7, lr}
 1898              	.LCFI161:
 1899              		.cfi_def_cfa_offset 8
 1900              		.cfi_offset 7, -8
 1901              		.cfi_offset 14, -4
 1902 0002 88B0     		sub	sp, sp, #32
 1903              	.LCFI162:
 1904              		.cfi_def_cfa_offset 40
 1905 0004 00AF     		add	r7, sp, #0
 1906              	.LCFI163:
 1907              		.cfi_def_cfa_register 7
 1908 0006 7860     		str	r0, [r7, #4]
 1909 0008 3960     		str	r1, [r7]
 899:./Libraries/STM32H7xx_HAL_Driver/Src/stm32h7xx_ll_sdmmc.c ****   SDMMC_CmdInitTypeDef  sdmmc_cmdinit;
 900:./Libraries/STM32H7xx_HAL_Driver/Src/stm32h7xx_ll_sdmmc.c ****   uint32_t errorstate;
 901:./Libraries/STM32H7xx_HAL_Driver/Src/stm32h7xx_ll_sdmmc.c **** 
 902:./Libraries/STM32H7xx_HAL_Driver/Src/stm32h7xx_ll_sdmmc.c ****   sdmmc_cmdinit.Argument         = Argument;
 1910              		.loc 1 902 34
 1911 000a 3B68     		ldr	r3, [r7]
 1912 000c BB60     		str	r3, [r7, #8]
 903:./Libraries/STM32H7xx_HAL_Driver/Src/stm32h7xx_ll_sdmmc.c ****   sdmmc_cmdinit.CmdIndex         = SDMMC_CMD_SD_APP_OP_COND;
 1913              		.loc 1 903 34
 1914 000e 2923     		movs	r3, #41
 1915 0010 FB60     		str	r3, [r7, #12]
 904:./Libraries/STM32H7xx_HAL_Driver/Src/stm32h7xx_ll_sdmmc.c ****   sdmmc_cmdinit.Response         = SDMMC_RESPONSE_SHORT;
 1916              		.loc 1 904 34
 1917 0012 4FF48073 		mov	r3, #256
 1918 0016 3B61     		str	r3, [r7, #16]
 905:./Libraries/STM32H7xx_HAL_Driver/Src/stm32h7xx_ll_sdmmc.c ****   sdmmc_cmdinit.WaitForInterrupt = SDMMC_WAIT_NO;
 1919              		.loc 1 905 34
 1920 0018 0023     		movs	r3, #0
 1921 001a 7B61     		str	r3, [r7, #20]
 906:./Libraries/STM32H7xx_HAL_Driver/Src/stm32h7xx_ll_sdmmc.c ****   sdmmc_cmdinit.CPSM             = SDMMC_CPSM_ENABLE;
 1922              		.loc 1 906 34
 1923 001c 4FF48053 		mov	r3, #4096
 1924 0020 BB61     		str	r3, [r7, #24]
 907:./Libraries/STM32H7xx_HAL_Driver/Src/stm32h7xx_ll_sdmmc.c ****   (void)SDMMC_SendCommand(SDMMCx, &sdmmc_cmdinit);
 1925              		.loc 1 907 9
 1926 0022 07F10803 		add	r3, r7, #8
 1927 0026 1946     		mov	r1, r3
 1928 0028 7868     		ldr	r0, [r7, #4]
 1929 002a FFF7FEFF 		bl	SDMMC_SendCommand
 908:./Libraries/STM32H7xx_HAL_Driver/Src/stm32h7xx_ll_sdmmc.c **** 
 909:./Libraries/STM32H7xx_HAL_Driver/Src/stm32h7xx_ll_sdmmc.c ****   /* Check for error conditions */
 910:./Libraries/STM32H7xx_HAL_Driver/Src/stm32h7xx_ll_sdmmc.c ****   errorstate = SDMMC_GetCmdResp3(SDMMCx);
ARM GAS  /tmp/ccUwcR4B.s 			page 50


 1930              		.loc 1 910 16
 1931 002e 7868     		ldr	r0, [r7, #4]
 1932 0030 FFF7FEFF 		bl	SDMMC_GetCmdResp3
 1933 0034 F861     		str	r0, [r7, #28]
 911:./Libraries/STM32H7xx_HAL_Driver/Src/stm32h7xx_ll_sdmmc.c **** 
 912:./Libraries/STM32H7xx_HAL_Driver/Src/stm32h7xx_ll_sdmmc.c ****   return errorstate;
 1934              		.loc 1 912 10
 1935 0036 FB69     		ldr	r3, [r7, #28]
 913:./Libraries/STM32H7xx_HAL_Driver/Src/stm32h7xx_ll_sdmmc.c **** }
 1936              		.loc 1 913 1
 1937 0038 1846     		mov	r0, r3
 1938 003a 2037     		adds	r7, r7, #32
 1939              	.LCFI164:
 1940              		.cfi_def_cfa_offset 8
 1941 003c BD46     		mov	sp, r7
 1942              	.LCFI165:
 1943              		.cfi_def_cfa_register 13
 1944              		@ sp needed
 1945 003e 80BD     		pop	{r7, pc}
 1946              		.cfi_endproc
 1947              	.LFE360:
 1949              		.section	.text.SDMMC_CmdBusWidth,"ax",%progbits
 1950              		.align	1
 1951              		.global	SDMMC_CmdBusWidth
 1952              		.syntax unified
 1953              		.thumb
 1954              		.thumb_func
 1955              		.fpu fpv5-d16
 1957              	SDMMC_CmdBusWidth:
 1958              	.LFB361:
 914:./Libraries/STM32H7xx_HAL_Driver/Src/stm32h7xx_ll_sdmmc.c **** 
 915:./Libraries/STM32H7xx_HAL_Driver/Src/stm32h7xx_ll_sdmmc.c **** /**
 916:./Libraries/STM32H7xx_HAL_Driver/Src/stm32h7xx_ll_sdmmc.c ****   * @brief  Send the Bus Width command and check the response.
 917:./Libraries/STM32H7xx_HAL_Driver/Src/stm32h7xx_ll_sdmmc.c ****   * @param  SDMMCx: Pointer to SDMMC register base
 918:./Libraries/STM32H7xx_HAL_Driver/Src/stm32h7xx_ll_sdmmc.c ****   * @param  BusWidth: BusWidth
 919:./Libraries/STM32H7xx_HAL_Driver/Src/stm32h7xx_ll_sdmmc.c ****   * @retval HAL status
 920:./Libraries/STM32H7xx_HAL_Driver/Src/stm32h7xx_ll_sdmmc.c ****   */
 921:./Libraries/STM32H7xx_HAL_Driver/Src/stm32h7xx_ll_sdmmc.c **** uint32_t SDMMC_CmdBusWidth(SDMMC_TypeDef *SDMMCx, uint32_t BusWidth)
 922:./Libraries/STM32H7xx_HAL_Driver/Src/stm32h7xx_ll_sdmmc.c **** {
 1959              		.loc 1 922 1
 1960              		.cfi_startproc
 1961              		@ args = 0, pretend = 0, frame = 32
 1962              		@ frame_needed = 1, uses_anonymous_args = 0
 1963 0000 80B5     		push	{r7, lr}
 1964              	.LCFI166:
 1965              		.cfi_def_cfa_offset 8
 1966              		.cfi_offset 7, -8
 1967              		.cfi_offset 14, -4
 1968 0002 88B0     		sub	sp, sp, #32
 1969              	.LCFI167:
 1970              		.cfi_def_cfa_offset 40
 1971 0004 00AF     		add	r7, sp, #0
 1972              	.LCFI168:
 1973              		.cfi_def_cfa_register 7
 1974 0006 7860     		str	r0, [r7, #4]
 1975 0008 3960     		str	r1, [r7]
 923:./Libraries/STM32H7xx_HAL_Driver/Src/stm32h7xx_ll_sdmmc.c ****   SDMMC_CmdInitTypeDef  sdmmc_cmdinit;
ARM GAS  /tmp/ccUwcR4B.s 			page 51


 924:./Libraries/STM32H7xx_HAL_Driver/Src/stm32h7xx_ll_sdmmc.c ****   uint32_t errorstate;
 925:./Libraries/STM32H7xx_HAL_Driver/Src/stm32h7xx_ll_sdmmc.c **** 
 926:./Libraries/STM32H7xx_HAL_Driver/Src/stm32h7xx_ll_sdmmc.c ****   sdmmc_cmdinit.Argument         = (uint32_t)BusWidth;
 1976              		.loc 1 926 34
 1977 000a 3B68     		ldr	r3, [r7]
 1978 000c BB60     		str	r3, [r7, #8]
 927:./Libraries/STM32H7xx_HAL_Driver/Src/stm32h7xx_ll_sdmmc.c ****   sdmmc_cmdinit.CmdIndex         = SDMMC_CMD_APP_SD_SET_BUSWIDTH;
 1979              		.loc 1 927 34
 1980 000e 0623     		movs	r3, #6
 1981 0010 FB60     		str	r3, [r7, #12]
 928:./Libraries/STM32H7xx_HAL_Driver/Src/stm32h7xx_ll_sdmmc.c ****   sdmmc_cmdinit.Response         = SDMMC_RESPONSE_SHORT;
 1982              		.loc 1 928 34
 1983 0012 4FF48073 		mov	r3, #256
 1984 0016 3B61     		str	r3, [r7, #16]
 929:./Libraries/STM32H7xx_HAL_Driver/Src/stm32h7xx_ll_sdmmc.c ****   sdmmc_cmdinit.WaitForInterrupt = SDMMC_WAIT_NO;
 1985              		.loc 1 929 34
 1986 0018 0023     		movs	r3, #0
 1987 001a 7B61     		str	r3, [r7, #20]
 930:./Libraries/STM32H7xx_HAL_Driver/Src/stm32h7xx_ll_sdmmc.c ****   sdmmc_cmdinit.CPSM             = SDMMC_CPSM_ENABLE;
 1988              		.loc 1 930 34
 1989 001c 4FF48053 		mov	r3, #4096
 1990 0020 BB61     		str	r3, [r7, #24]
 931:./Libraries/STM32H7xx_HAL_Driver/Src/stm32h7xx_ll_sdmmc.c ****   (void)SDMMC_SendCommand(SDMMCx, &sdmmc_cmdinit);
 1991              		.loc 1 931 9
 1992 0022 07F10803 		add	r3, r7, #8
 1993 0026 1946     		mov	r1, r3
 1994 0028 7868     		ldr	r0, [r7, #4]
 1995 002a FFF7FEFF 		bl	SDMMC_SendCommand
 932:./Libraries/STM32H7xx_HAL_Driver/Src/stm32h7xx_ll_sdmmc.c **** 
 933:./Libraries/STM32H7xx_HAL_Driver/Src/stm32h7xx_ll_sdmmc.c ****   /* Check for error conditions */
 934:./Libraries/STM32H7xx_HAL_Driver/Src/stm32h7xx_ll_sdmmc.c ****   errorstate = SDMMC_GetCmdResp1(SDMMCx, SDMMC_CMD_APP_SD_SET_BUSWIDTH, SDMMC_CMDTIMEOUT);
 1996              		.loc 1 934 16
 1997 002e 41F28832 		movw	r2, #5000
 1998 0032 0621     		movs	r1, #6
 1999 0034 7868     		ldr	r0, [r7, #4]
 2000 0036 FFF7FEFF 		bl	SDMMC_GetCmdResp1
 2001 003a F861     		str	r0, [r7, #28]
 935:./Libraries/STM32H7xx_HAL_Driver/Src/stm32h7xx_ll_sdmmc.c **** 
 936:./Libraries/STM32H7xx_HAL_Driver/Src/stm32h7xx_ll_sdmmc.c ****   return errorstate;
 2002              		.loc 1 936 10
 2003 003c FB69     		ldr	r3, [r7, #28]
 937:./Libraries/STM32H7xx_HAL_Driver/Src/stm32h7xx_ll_sdmmc.c **** }
 2004              		.loc 1 937 1
 2005 003e 1846     		mov	r0, r3
 2006 0040 2037     		adds	r7, r7, #32
 2007              	.LCFI169:
 2008              		.cfi_def_cfa_offset 8
 2009 0042 BD46     		mov	sp, r7
 2010              	.LCFI170:
 2011              		.cfi_def_cfa_register 13
 2012              		@ sp needed
 2013 0044 80BD     		pop	{r7, pc}
 2014              		.cfi_endproc
 2015              	.LFE361:
 2017              		.section	.text.SDMMC_CmdSendSCR,"ax",%progbits
 2018              		.align	1
 2019              		.global	SDMMC_CmdSendSCR
ARM GAS  /tmp/ccUwcR4B.s 			page 52


 2020              		.syntax unified
 2021              		.thumb
 2022              		.thumb_func
 2023              		.fpu fpv5-d16
 2025              	SDMMC_CmdSendSCR:
 2026              	.LFB362:
 938:./Libraries/STM32H7xx_HAL_Driver/Src/stm32h7xx_ll_sdmmc.c **** 
 939:./Libraries/STM32H7xx_HAL_Driver/Src/stm32h7xx_ll_sdmmc.c **** /**
 940:./Libraries/STM32H7xx_HAL_Driver/Src/stm32h7xx_ll_sdmmc.c ****   * @brief  Send the Send SCR command and check the response.
 941:./Libraries/STM32H7xx_HAL_Driver/Src/stm32h7xx_ll_sdmmc.c ****   * @param  SDMMCx: Pointer to SDMMC register base
 942:./Libraries/STM32H7xx_HAL_Driver/Src/stm32h7xx_ll_sdmmc.c ****   * @retval HAL status
 943:./Libraries/STM32H7xx_HAL_Driver/Src/stm32h7xx_ll_sdmmc.c ****   */
 944:./Libraries/STM32H7xx_HAL_Driver/Src/stm32h7xx_ll_sdmmc.c **** uint32_t SDMMC_CmdSendSCR(SDMMC_TypeDef *SDMMCx)
 945:./Libraries/STM32H7xx_HAL_Driver/Src/stm32h7xx_ll_sdmmc.c **** {
 2027              		.loc 1 945 1
 2028              		.cfi_startproc
 2029              		@ args = 0, pretend = 0, frame = 32
 2030              		@ frame_needed = 1, uses_anonymous_args = 0
 2031 0000 80B5     		push	{r7, lr}
 2032              	.LCFI171:
 2033              		.cfi_def_cfa_offset 8
 2034              		.cfi_offset 7, -8
 2035              		.cfi_offset 14, -4
 2036 0002 88B0     		sub	sp, sp, #32
 2037              	.LCFI172:
 2038              		.cfi_def_cfa_offset 40
 2039 0004 00AF     		add	r7, sp, #0
 2040              	.LCFI173:
 2041              		.cfi_def_cfa_register 7
 2042 0006 7860     		str	r0, [r7, #4]
 946:./Libraries/STM32H7xx_HAL_Driver/Src/stm32h7xx_ll_sdmmc.c ****   SDMMC_CmdInitTypeDef  sdmmc_cmdinit;
 947:./Libraries/STM32H7xx_HAL_Driver/Src/stm32h7xx_ll_sdmmc.c ****   uint32_t errorstate;
 948:./Libraries/STM32H7xx_HAL_Driver/Src/stm32h7xx_ll_sdmmc.c **** 
 949:./Libraries/STM32H7xx_HAL_Driver/Src/stm32h7xx_ll_sdmmc.c ****   /* Send CMD51 SD_APP_SEND_SCR */
 950:./Libraries/STM32H7xx_HAL_Driver/Src/stm32h7xx_ll_sdmmc.c ****   sdmmc_cmdinit.Argument         = 0U;
 2043              		.loc 1 950 34
 2044 0008 0023     		movs	r3, #0
 2045 000a BB60     		str	r3, [r7, #8]
 951:./Libraries/STM32H7xx_HAL_Driver/Src/stm32h7xx_ll_sdmmc.c ****   sdmmc_cmdinit.CmdIndex         = SDMMC_CMD_SD_APP_SEND_SCR;
 2046              		.loc 1 951 34
 2047 000c 3323     		movs	r3, #51
 2048 000e FB60     		str	r3, [r7, #12]
 952:./Libraries/STM32H7xx_HAL_Driver/Src/stm32h7xx_ll_sdmmc.c ****   sdmmc_cmdinit.Response         = SDMMC_RESPONSE_SHORT;
 2049              		.loc 1 952 34
 2050 0010 4FF48073 		mov	r3, #256
 2051 0014 3B61     		str	r3, [r7, #16]
 953:./Libraries/STM32H7xx_HAL_Driver/Src/stm32h7xx_ll_sdmmc.c ****   sdmmc_cmdinit.WaitForInterrupt = SDMMC_WAIT_NO;
 2052              		.loc 1 953 34
 2053 0016 0023     		movs	r3, #0
 2054 0018 7B61     		str	r3, [r7, #20]
 954:./Libraries/STM32H7xx_HAL_Driver/Src/stm32h7xx_ll_sdmmc.c ****   sdmmc_cmdinit.CPSM             = SDMMC_CPSM_ENABLE;
 2055              		.loc 1 954 34
 2056 001a 4FF48053 		mov	r3, #4096
 2057 001e BB61     		str	r3, [r7, #24]
 955:./Libraries/STM32H7xx_HAL_Driver/Src/stm32h7xx_ll_sdmmc.c ****   (void)SDMMC_SendCommand(SDMMCx, &sdmmc_cmdinit);
 2058              		.loc 1 955 9
 2059 0020 07F10803 		add	r3, r7, #8
ARM GAS  /tmp/ccUwcR4B.s 			page 53


 2060 0024 1946     		mov	r1, r3
 2061 0026 7868     		ldr	r0, [r7, #4]
 2062 0028 FFF7FEFF 		bl	SDMMC_SendCommand
 956:./Libraries/STM32H7xx_HAL_Driver/Src/stm32h7xx_ll_sdmmc.c **** 
 957:./Libraries/STM32H7xx_HAL_Driver/Src/stm32h7xx_ll_sdmmc.c ****   /* Check for error conditions */
 958:./Libraries/STM32H7xx_HAL_Driver/Src/stm32h7xx_ll_sdmmc.c ****   errorstate = SDMMC_GetCmdResp1(SDMMCx, SDMMC_CMD_SD_APP_SEND_SCR, SDMMC_CMDTIMEOUT);
 2063              		.loc 1 958 16
 2064 002c 41F28832 		movw	r2, #5000
 2065 0030 3321     		movs	r1, #51
 2066 0032 7868     		ldr	r0, [r7, #4]
 2067 0034 FFF7FEFF 		bl	SDMMC_GetCmdResp1
 2068 0038 F861     		str	r0, [r7, #28]
 959:./Libraries/STM32H7xx_HAL_Driver/Src/stm32h7xx_ll_sdmmc.c **** 
 960:./Libraries/STM32H7xx_HAL_Driver/Src/stm32h7xx_ll_sdmmc.c ****   return errorstate;
 2069              		.loc 1 960 10
 2070 003a FB69     		ldr	r3, [r7, #28]
 961:./Libraries/STM32H7xx_HAL_Driver/Src/stm32h7xx_ll_sdmmc.c **** }
 2071              		.loc 1 961 1
 2072 003c 1846     		mov	r0, r3
 2073 003e 2037     		adds	r7, r7, #32
 2074              	.LCFI174:
 2075              		.cfi_def_cfa_offset 8
 2076 0040 BD46     		mov	sp, r7
 2077              	.LCFI175:
 2078              		.cfi_def_cfa_register 13
 2079              		@ sp needed
 2080 0042 80BD     		pop	{r7, pc}
 2081              		.cfi_endproc
 2082              	.LFE362:
 2084              		.section	.text.SDMMC_CmdSendCID,"ax",%progbits
 2085              		.align	1
 2086              		.global	SDMMC_CmdSendCID
 2087              		.syntax unified
 2088              		.thumb
 2089              		.thumb_func
 2090              		.fpu fpv5-d16
 2092              	SDMMC_CmdSendCID:
 2093              	.LFB363:
 962:./Libraries/STM32H7xx_HAL_Driver/Src/stm32h7xx_ll_sdmmc.c **** 
 963:./Libraries/STM32H7xx_HAL_Driver/Src/stm32h7xx_ll_sdmmc.c **** /**
 964:./Libraries/STM32H7xx_HAL_Driver/Src/stm32h7xx_ll_sdmmc.c ****   * @brief  Send the Send CID command and check the response.
 965:./Libraries/STM32H7xx_HAL_Driver/Src/stm32h7xx_ll_sdmmc.c ****   * @param  SDMMCx: Pointer to SDMMC register base
 966:./Libraries/STM32H7xx_HAL_Driver/Src/stm32h7xx_ll_sdmmc.c ****   * @retval HAL status
 967:./Libraries/STM32H7xx_HAL_Driver/Src/stm32h7xx_ll_sdmmc.c ****   */
 968:./Libraries/STM32H7xx_HAL_Driver/Src/stm32h7xx_ll_sdmmc.c **** uint32_t SDMMC_CmdSendCID(SDMMC_TypeDef *SDMMCx)
 969:./Libraries/STM32H7xx_HAL_Driver/Src/stm32h7xx_ll_sdmmc.c **** {
 2094              		.loc 1 969 1
 2095              		.cfi_startproc
 2096              		@ args = 0, pretend = 0, frame = 32
 2097              		@ frame_needed = 1, uses_anonymous_args = 0
 2098 0000 80B5     		push	{r7, lr}
 2099              	.LCFI176:
 2100              		.cfi_def_cfa_offset 8
 2101              		.cfi_offset 7, -8
 2102              		.cfi_offset 14, -4
 2103 0002 88B0     		sub	sp, sp, #32
 2104              	.LCFI177:
ARM GAS  /tmp/ccUwcR4B.s 			page 54


 2105              		.cfi_def_cfa_offset 40
 2106 0004 00AF     		add	r7, sp, #0
 2107              	.LCFI178:
 2108              		.cfi_def_cfa_register 7
 2109 0006 7860     		str	r0, [r7, #4]
 970:./Libraries/STM32H7xx_HAL_Driver/Src/stm32h7xx_ll_sdmmc.c ****   SDMMC_CmdInitTypeDef  sdmmc_cmdinit;
 971:./Libraries/STM32H7xx_HAL_Driver/Src/stm32h7xx_ll_sdmmc.c ****   uint32_t errorstate;
 972:./Libraries/STM32H7xx_HAL_Driver/Src/stm32h7xx_ll_sdmmc.c **** 
 973:./Libraries/STM32H7xx_HAL_Driver/Src/stm32h7xx_ll_sdmmc.c ****   /* Send CMD2 ALL_SEND_CID */
 974:./Libraries/STM32H7xx_HAL_Driver/Src/stm32h7xx_ll_sdmmc.c ****   sdmmc_cmdinit.Argument         = 0U;
 2110              		.loc 1 974 34
 2111 0008 0023     		movs	r3, #0
 2112 000a BB60     		str	r3, [r7, #8]
 975:./Libraries/STM32H7xx_HAL_Driver/Src/stm32h7xx_ll_sdmmc.c ****   sdmmc_cmdinit.CmdIndex         = SDMMC_CMD_ALL_SEND_CID;
 2113              		.loc 1 975 34
 2114 000c 0223     		movs	r3, #2
 2115 000e FB60     		str	r3, [r7, #12]
 976:./Libraries/STM32H7xx_HAL_Driver/Src/stm32h7xx_ll_sdmmc.c ****   sdmmc_cmdinit.Response         = SDMMC_RESPONSE_LONG;
 2116              		.loc 1 976 34
 2117 0010 4FF44073 		mov	r3, #768
 2118 0014 3B61     		str	r3, [r7, #16]
 977:./Libraries/STM32H7xx_HAL_Driver/Src/stm32h7xx_ll_sdmmc.c ****   sdmmc_cmdinit.WaitForInterrupt = SDMMC_WAIT_NO;
 2119              		.loc 1 977 34
 2120 0016 0023     		movs	r3, #0
 2121 0018 7B61     		str	r3, [r7, #20]
 978:./Libraries/STM32H7xx_HAL_Driver/Src/stm32h7xx_ll_sdmmc.c ****   sdmmc_cmdinit.CPSM             = SDMMC_CPSM_ENABLE;
 2122              		.loc 1 978 34
 2123 001a 4FF48053 		mov	r3, #4096
 2124 001e BB61     		str	r3, [r7, #24]
 979:./Libraries/STM32H7xx_HAL_Driver/Src/stm32h7xx_ll_sdmmc.c ****   (void)SDMMC_SendCommand(SDMMCx, &sdmmc_cmdinit);
 2125              		.loc 1 979 9
 2126 0020 07F10803 		add	r3, r7, #8
 2127 0024 1946     		mov	r1, r3
 2128 0026 7868     		ldr	r0, [r7, #4]
 2129 0028 FFF7FEFF 		bl	SDMMC_SendCommand
 980:./Libraries/STM32H7xx_HAL_Driver/Src/stm32h7xx_ll_sdmmc.c **** 
 981:./Libraries/STM32H7xx_HAL_Driver/Src/stm32h7xx_ll_sdmmc.c ****   /* Check for error conditions */
 982:./Libraries/STM32H7xx_HAL_Driver/Src/stm32h7xx_ll_sdmmc.c ****   errorstate = SDMMC_GetCmdResp2(SDMMCx);
 2130              		.loc 1 982 16
 2131 002c 7868     		ldr	r0, [r7, #4]
 2132 002e FFF7FEFF 		bl	SDMMC_GetCmdResp2
 2133 0032 F861     		str	r0, [r7, #28]
 983:./Libraries/STM32H7xx_HAL_Driver/Src/stm32h7xx_ll_sdmmc.c **** 
 984:./Libraries/STM32H7xx_HAL_Driver/Src/stm32h7xx_ll_sdmmc.c ****   return errorstate;
 2134              		.loc 1 984 10
 2135 0034 FB69     		ldr	r3, [r7, #28]
 985:./Libraries/STM32H7xx_HAL_Driver/Src/stm32h7xx_ll_sdmmc.c **** }
 2136              		.loc 1 985 1
 2137 0036 1846     		mov	r0, r3
 2138 0038 2037     		adds	r7, r7, #32
 2139              	.LCFI179:
 2140              		.cfi_def_cfa_offset 8
 2141 003a BD46     		mov	sp, r7
 2142              	.LCFI180:
 2143              		.cfi_def_cfa_register 13
 2144              		@ sp needed
 2145 003c 80BD     		pop	{r7, pc}
ARM GAS  /tmp/ccUwcR4B.s 			page 55


 2146              		.cfi_endproc
 2147              	.LFE363:
 2149              		.section	.text.SDMMC_CmdSendCSD,"ax",%progbits
 2150              		.align	1
 2151              		.global	SDMMC_CmdSendCSD
 2152              		.syntax unified
 2153              		.thumb
 2154              		.thumb_func
 2155              		.fpu fpv5-d16
 2157              	SDMMC_CmdSendCSD:
 2158              	.LFB364:
 986:./Libraries/STM32H7xx_HAL_Driver/Src/stm32h7xx_ll_sdmmc.c **** 
 987:./Libraries/STM32H7xx_HAL_Driver/Src/stm32h7xx_ll_sdmmc.c **** /**
 988:./Libraries/STM32H7xx_HAL_Driver/Src/stm32h7xx_ll_sdmmc.c ****   * @brief  Send the Send CSD command and check the response.
 989:./Libraries/STM32H7xx_HAL_Driver/Src/stm32h7xx_ll_sdmmc.c ****   * @param  SDMMCx: Pointer to SDMMC register base
 990:./Libraries/STM32H7xx_HAL_Driver/Src/stm32h7xx_ll_sdmmc.c ****   * @param  Argument: Command Argument
 991:./Libraries/STM32H7xx_HAL_Driver/Src/stm32h7xx_ll_sdmmc.c ****   * @retval HAL status
 992:./Libraries/STM32H7xx_HAL_Driver/Src/stm32h7xx_ll_sdmmc.c ****   */
 993:./Libraries/STM32H7xx_HAL_Driver/Src/stm32h7xx_ll_sdmmc.c **** uint32_t SDMMC_CmdSendCSD(SDMMC_TypeDef *SDMMCx, uint32_t Argument)
 994:./Libraries/STM32H7xx_HAL_Driver/Src/stm32h7xx_ll_sdmmc.c **** {
 2159              		.loc 1 994 1
 2160              		.cfi_startproc
 2161              		@ args = 0, pretend = 0, frame = 32
 2162              		@ frame_needed = 1, uses_anonymous_args = 0
 2163 0000 80B5     		push	{r7, lr}
 2164              	.LCFI181:
 2165              		.cfi_def_cfa_offset 8
 2166              		.cfi_offset 7, -8
 2167              		.cfi_offset 14, -4
 2168 0002 88B0     		sub	sp, sp, #32
 2169              	.LCFI182:
 2170              		.cfi_def_cfa_offset 40
 2171 0004 00AF     		add	r7, sp, #0
 2172              	.LCFI183:
 2173              		.cfi_def_cfa_register 7
 2174 0006 7860     		str	r0, [r7, #4]
 2175 0008 3960     		str	r1, [r7]
 995:./Libraries/STM32H7xx_HAL_Driver/Src/stm32h7xx_ll_sdmmc.c ****   SDMMC_CmdInitTypeDef  sdmmc_cmdinit;
 996:./Libraries/STM32H7xx_HAL_Driver/Src/stm32h7xx_ll_sdmmc.c ****   uint32_t errorstate;
 997:./Libraries/STM32H7xx_HAL_Driver/Src/stm32h7xx_ll_sdmmc.c **** 
 998:./Libraries/STM32H7xx_HAL_Driver/Src/stm32h7xx_ll_sdmmc.c ****   /* Send CMD9 SEND_CSD */
 999:./Libraries/STM32H7xx_HAL_Driver/Src/stm32h7xx_ll_sdmmc.c ****   sdmmc_cmdinit.Argument         = Argument;
 2176              		.loc 1 999 34
 2177 000a 3B68     		ldr	r3, [r7]
 2178 000c BB60     		str	r3, [r7, #8]
1000:./Libraries/STM32H7xx_HAL_Driver/Src/stm32h7xx_ll_sdmmc.c ****   sdmmc_cmdinit.CmdIndex         = SDMMC_CMD_SEND_CSD;
 2179              		.loc 1 1000 34
 2180 000e 0923     		movs	r3, #9
 2181 0010 FB60     		str	r3, [r7, #12]
1001:./Libraries/STM32H7xx_HAL_Driver/Src/stm32h7xx_ll_sdmmc.c ****   sdmmc_cmdinit.Response         = SDMMC_RESPONSE_LONG;
 2182              		.loc 1 1001 34
 2183 0012 4FF44073 		mov	r3, #768
 2184 0016 3B61     		str	r3, [r7, #16]
1002:./Libraries/STM32H7xx_HAL_Driver/Src/stm32h7xx_ll_sdmmc.c ****   sdmmc_cmdinit.WaitForInterrupt = SDMMC_WAIT_NO;
 2185              		.loc 1 1002 34
 2186 0018 0023     		movs	r3, #0
 2187 001a 7B61     		str	r3, [r7, #20]
ARM GAS  /tmp/ccUwcR4B.s 			page 56


1003:./Libraries/STM32H7xx_HAL_Driver/Src/stm32h7xx_ll_sdmmc.c ****   sdmmc_cmdinit.CPSM             = SDMMC_CPSM_ENABLE;
 2188              		.loc 1 1003 34
 2189 001c 4FF48053 		mov	r3, #4096
 2190 0020 BB61     		str	r3, [r7, #24]
1004:./Libraries/STM32H7xx_HAL_Driver/Src/stm32h7xx_ll_sdmmc.c ****   (void)SDMMC_SendCommand(SDMMCx, &sdmmc_cmdinit);
 2191              		.loc 1 1004 9
 2192 0022 07F10803 		add	r3, r7, #8
 2193 0026 1946     		mov	r1, r3
 2194 0028 7868     		ldr	r0, [r7, #4]
 2195 002a FFF7FEFF 		bl	SDMMC_SendCommand
1005:./Libraries/STM32H7xx_HAL_Driver/Src/stm32h7xx_ll_sdmmc.c **** 
1006:./Libraries/STM32H7xx_HAL_Driver/Src/stm32h7xx_ll_sdmmc.c ****   /* Check for error conditions */
1007:./Libraries/STM32H7xx_HAL_Driver/Src/stm32h7xx_ll_sdmmc.c ****   errorstate = SDMMC_GetCmdResp2(SDMMCx);
 2196              		.loc 1 1007 16
 2197 002e 7868     		ldr	r0, [r7, #4]
 2198 0030 FFF7FEFF 		bl	SDMMC_GetCmdResp2
 2199 0034 F861     		str	r0, [r7, #28]
1008:./Libraries/STM32H7xx_HAL_Driver/Src/stm32h7xx_ll_sdmmc.c **** 
1009:./Libraries/STM32H7xx_HAL_Driver/Src/stm32h7xx_ll_sdmmc.c ****   return errorstate;
 2200              		.loc 1 1009 10
 2201 0036 FB69     		ldr	r3, [r7, #28]
1010:./Libraries/STM32H7xx_HAL_Driver/Src/stm32h7xx_ll_sdmmc.c **** }
 2202              		.loc 1 1010 1
 2203 0038 1846     		mov	r0, r3
 2204 003a 2037     		adds	r7, r7, #32
 2205              	.LCFI184:
 2206              		.cfi_def_cfa_offset 8
 2207 003c BD46     		mov	sp, r7
 2208              	.LCFI185:
 2209              		.cfi_def_cfa_register 13
 2210              		@ sp needed
 2211 003e 80BD     		pop	{r7, pc}
 2212              		.cfi_endproc
 2213              	.LFE364:
 2215              		.section	.text.SDMMC_CmdSetRelAdd,"ax",%progbits
 2216              		.align	1
 2217              		.global	SDMMC_CmdSetRelAdd
 2218              		.syntax unified
 2219              		.thumb
 2220              		.thumb_func
 2221              		.fpu fpv5-d16
 2223              	SDMMC_CmdSetRelAdd:
 2224              	.LFB365:
1011:./Libraries/STM32H7xx_HAL_Driver/Src/stm32h7xx_ll_sdmmc.c **** 
1012:./Libraries/STM32H7xx_HAL_Driver/Src/stm32h7xx_ll_sdmmc.c **** /**
1013:./Libraries/STM32H7xx_HAL_Driver/Src/stm32h7xx_ll_sdmmc.c ****   * @brief  Send the Send CSD command and check the response.
1014:./Libraries/STM32H7xx_HAL_Driver/Src/stm32h7xx_ll_sdmmc.c ****   * @param  SDMMCx: Pointer to SDMMC register base
1015:./Libraries/STM32H7xx_HAL_Driver/Src/stm32h7xx_ll_sdmmc.c ****   * @param  pRCA: Card RCA
1016:./Libraries/STM32H7xx_HAL_Driver/Src/stm32h7xx_ll_sdmmc.c ****   * @retval HAL status
1017:./Libraries/STM32H7xx_HAL_Driver/Src/stm32h7xx_ll_sdmmc.c ****   */
1018:./Libraries/STM32H7xx_HAL_Driver/Src/stm32h7xx_ll_sdmmc.c **** uint32_t SDMMC_CmdSetRelAdd(SDMMC_TypeDef *SDMMCx, uint16_t *pRCA)
1019:./Libraries/STM32H7xx_HAL_Driver/Src/stm32h7xx_ll_sdmmc.c **** {
 2225              		.loc 1 1019 1
 2226              		.cfi_startproc
 2227              		@ args = 0, pretend = 0, frame = 32
 2228              		@ frame_needed = 1, uses_anonymous_args = 0
 2229 0000 80B5     		push	{r7, lr}
ARM GAS  /tmp/ccUwcR4B.s 			page 57


 2230              	.LCFI186:
 2231              		.cfi_def_cfa_offset 8
 2232              		.cfi_offset 7, -8
 2233              		.cfi_offset 14, -4
 2234 0002 88B0     		sub	sp, sp, #32
 2235              	.LCFI187:
 2236              		.cfi_def_cfa_offset 40
 2237 0004 00AF     		add	r7, sp, #0
 2238              	.LCFI188:
 2239              		.cfi_def_cfa_register 7
 2240 0006 7860     		str	r0, [r7, #4]
 2241 0008 3960     		str	r1, [r7]
1020:./Libraries/STM32H7xx_HAL_Driver/Src/stm32h7xx_ll_sdmmc.c ****   SDMMC_CmdInitTypeDef  sdmmc_cmdinit;
1021:./Libraries/STM32H7xx_HAL_Driver/Src/stm32h7xx_ll_sdmmc.c ****   uint32_t errorstate;
1022:./Libraries/STM32H7xx_HAL_Driver/Src/stm32h7xx_ll_sdmmc.c **** 
1023:./Libraries/STM32H7xx_HAL_Driver/Src/stm32h7xx_ll_sdmmc.c ****   /* Send CMD3 SD_CMD_SET_REL_ADDR */
1024:./Libraries/STM32H7xx_HAL_Driver/Src/stm32h7xx_ll_sdmmc.c ****   sdmmc_cmdinit.Argument         = 0U;
 2242              		.loc 1 1024 34
 2243 000a 0023     		movs	r3, #0
 2244 000c BB60     		str	r3, [r7, #8]
1025:./Libraries/STM32H7xx_HAL_Driver/Src/stm32h7xx_ll_sdmmc.c ****   sdmmc_cmdinit.CmdIndex         = SDMMC_CMD_SET_REL_ADDR;
 2245              		.loc 1 1025 34
 2246 000e 0323     		movs	r3, #3
 2247 0010 FB60     		str	r3, [r7, #12]
1026:./Libraries/STM32H7xx_HAL_Driver/Src/stm32h7xx_ll_sdmmc.c ****   sdmmc_cmdinit.Response         = SDMMC_RESPONSE_SHORT;
 2248              		.loc 1 1026 34
 2249 0012 4FF48073 		mov	r3, #256
 2250 0016 3B61     		str	r3, [r7, #16]
1027:./Libraries/STM32H7xx_HAL_Driver/Src/stm32h7xx_ll_sdmmc.c ****   sdmmc_cmdinit.WaitForInterrupt = SDMMC_WAIT_NO;
 2251              		.loc 1 1027 34
 2252 0018 0023     		movs	r3, #0
 2253 001a 7B61     		str	r3, [r7, #20]
1028:./Libraries/STM32H7xx_HAL_Driver/Src/stm32h7xx_ll_sdmmc.c ****   sdmmc_cmdinit.CPSM             = SDMMC_CPSM_ENABLE;
 2254              		.loc 1 1028 34
 2255 001c 4FF48053 		mov	r3, #4096
 2256 0020 BB61     		str	r3, [r7, #24]
1029:./Libraries/STM32H7xx_HAL_Driver/Src/stm32h7xx_ll_sdmmc.c ****   (void)SDMMC_SendCommand(SDMMCx, &sdmmc_cmdinit);
 2257              		.loc 1 1029 9
 2258 0022 07F10803 		add	r3, r7, #8
 2259 0026 1946     		mov	r1, r3
 2260 0028 7868     		ldr	r0, [r7, #4]
 2261 002a FFF7FEFF 		bl	SDMMC_SendCommand
1030:./Libraries/STM32H7xx_HAL_Driver/Src/stm32h7xx_ll_sdmmc.c **** 
1031:./Libraries/STM32H7xx_HAL_Driver/Src/stm32h7xx_ll_sdmmc.c ****   /* Check for error conditions */
1032:./Libraries/STM32H7xx_HAL_Driver/Src/stm32h7xx_ll_sdmmc.c ****   errorstate = SDMMC_GetCmdResp6(SDMMCx, SDMMC_CMD_SET_REL_ADDR, pRCA);
 2262              		.loc 1 1032 16
 2263 002e 3A68     		ldr	r2, [r7]
 2264 0030 0321     		movs	r1, #3
 2265 0032 7868     		ldr	r0, [r7, #4]
 2266 0034 FFF7FEFF 		bl	SDMMC_GetCmdResp6
 2267 0038 F861     		str	r0, [r7, #28]
1033:./Libraries/STM32H7xx_HAL_Driver/Src/stm32h7xx_ll_sdmmc.c **** 
1034:./Libraries/STM32H7xx_HAL_Driver/Src/stm32h7xx_ll_sdmmc.c ****   return errorstate;
 2268              		.loc 1 1034 10
 2269 003a FB69     		ldr	r3, [r7, #28]
1035:./Libraries/STM32H7xx_HAL_Driver/Src/stm32h7xx_ll_sdmmc.c **** }
 2270              		.loc 1 1035 1
ARM GAS  /tmp/ccUwcR4B.s 			page 58


 2271 003c 1846     		mov	r0, r3
 2272 003e 2037     		adds	r7, r7, #32
 2273              	.LCFI189:
 2274              		.cfi_def_cfa_offset 8
 2275 0040 BD46     		mov	sp, r7
 2276              	.LCFI190:
 2277              		.cfi_def_cfa_register 13
 2278              		@ sp needed
 2279 0042 80BD     		pop	{r7, pc}
 2280              		.cfi_endproc
 2281              	.LFE365:
 2283              		.section	.text.SDMMC_CmdSetRelAddMmc,"ax",%progbits
 2284              		.align	1
 2285              		.global	SDMMC_CmdSetRelAddMmc
 2286              		.syntax unified
 2287              		.thumb
 2288              		.thumb_func
 2289              		.fpu fpv5-d16
 2291              	SDMMC_CmdSetRelAddMmc:
 2292              	.LFB366:
1036:./Libraries/STM32H7xx_HAL_Driver/Src/stm32h7xx_ll_sdmmc.c **** 
1037:./Libraries/STM32H7xx_HAL_Driver/Src/stm32h7xx_ll_sdmmc.c **** /**
1038:./Libraries/STM32H7xx_HAL_Driver/Src/stm32h7xx_ll_sdmmc.c ****   * @brief  Send the Set Relative Address command to MMC card (not SD card).
1039:./Libraries/STM32H7xx_HAL_Driver/Src/stm32h7xx_ll_sdmmc.c ****   * @param  SDMMCx Pointer to SDMMC register base
1040:./Libraries/STM32H7xx_HAL_Driver/Src/stm32h7xx_ll_sdmmc.c ****   * @param  RCA Card RCA
1041:./Libraries/STM32H7xx_HAL_Driver/Src/stm32h7xx_ll_sdmmc.c ****   * @retval HAL status
1042:./Libraries/STM32H7xx_HAL_Driver/Src/stm32h7xx_ll_sdmmc.c ****   */
1043:./Libraries/STM32H7xx_HAL_Driver/Src/stm32h7xx_ll_sdmmc.c **** uint32_t SDMMC_CmdSetRelAddMmc(SDMMC_TypeDef *SDMMCx, uint16_t RCA)
1044:./Libraries/STM32H7xx_HAL_Driver/Src/stm32h7xx_ll_sdmmc.c **** {
 2293              		.loc 1 1044 1
 2294              		.cfi_startproc
 2295              		@ args = 0, pretend = 0, frame = 32
 2296              		@ frame_needed = 1, uses_anonymous_args = 0
 2297 0000 80B5     		push	{r7, lr}
 2298              	.LCFI191:
 2299              		.cfi_def_cfa_offset 8
 2300              		.cfi_offset 7, -8
 2301              		.cfi_offset 14, -4
 2302 0002 88B0     		sub	sp, sp, #32
 2303              	.LCFI192:
 2304              		.cfi_def_cfa_offset 40
 2305 0004 00AF     		add	r7, sp, #0
 2306              	.LCFI193:
 2307              		.cfi_def_cfa_register 7
 2308 0006 7860     		str	r0, [r7, #4]
 2309 0008 0B46     		mov	r3, r1
 2310 000a 7B80     		strh	r3, [r7, #2]	@ movhi
1045:./Libraries/STM32H7xx_HAL_Driver/Src/stm32h7xx_ll_sdmmc.c ****   SDMMC_CmdInitTypeDef  sdmmc_cmdinit;
1046:./Libraries/STM32H7xx_HAL_Driver/Src/stm32h7xx_ll_sdmmc.c ****   uint32_t errorstate;
1047:./Libraries/STM32H7xx_HAL_Driver/Src/stm32h7xx_ll_sdmmc.c **** 
1048:./Libraries/STM32H7xx_HAL_Driver/Src/stm32h7xx_ll_sdmmc.c ****   /* Send CMD3 SD_CMD_SET_REL_ADDR */
1049:./Libraries/STM32H7xx_HAL_Driver/Src/stm32h7xx_ll_sdmmc.c ****   sdmmc_cmdinit.Argument         = ((uint32_t)RCA << 16U);
 2311              		.loc 1 1049 37
 2312 000c 7B88     		ldrh	r3, [r7, #2]
 2313              		.loc 1 1049 51
 2314 000e 1B04     		lsls	r3, r3, #16
 2315              		.loc 1 1049 34
ARM GAS  /tmp/ccUwcR4B.s 			page 59


 2316 0010 BB60     		str	r3, [r7, #8]
1050:./Libraries/STM32H7xx_HAL_Driver/Src/stm32h7xx_ll_sdmmc.c ****   sdmmc_cmdinit.CmdIndex         = SDMMC_CMD_SET_REL_ADDR;
 2317              		.loc 1 1050 34
 2318 0012 0323     		movs	r3, #3
 2319 0014 FB60     		str	r3, [r7, #12]
1051:./Libraries/STM32H7xx_HAL_Driver/Src/stm32h7xx_ll_sdmmc.c ****   sdmmc_cmdinit.Response         = SDMMC_RESPONSE_SHORT;
 2320              		.loc 1 1051 34
 2321 0016 4FF48073 		mov	r3, #256
 2322 001a 3B61     		str	r3, [r7, #16]
1052:./Libraries/STM32H7xx_HAL_Driver/Src/stm32h7xx_ll_sdmmc.c ****   sdmmc_cmdinit.WaitForInterrupt = SDMMC_WAIT_NO;
 2323              		.loc 1 1052 34
 2324 001c 0023     		movs	r3, #0
 2325 001e 7B61     		str	r3, [r7, #20]
1053:./Libraries/STM32H7xx_HAL_Driver/Src/stm32h7xx_ll_sdmmc.c ****   sdmmc_cmdinit.CPSM             = SDMMC_CPSM_ENABLE;
 2326              		.loc 1 1053 34
 2327 0020 4FF48053 		mov	r3, #4096
 2328 0024 BB61     		str	r3, [r7, #24]
1054:./Libraries/STM32H7xx_HAL_Driver/Src/stm32h7xx_ll_sdmmc.c ****   (void)SDMMC_SendCommand(SDMMCx, &sdmmc_cmdinit);
 2329              		.loc 1 1054 9
 2330 0026 07F10803 		add	r3, r7, #8
 2331 002a 1946     		mov	r1, r3
 2332 002c 7868     		ldr	r0, [r7, #4]
 2333 002e FFF7FEFF 		bl	SDMMC_SendCommand
1055:./Libraries/STM32H7xx_HAL_Driver/Src/stm32h7xx_ll_sdmmc.c **** 
1056:./Libraries/STM32H7xx_HAL_Driver/Src/stm32h7xx_ll_sdmmc.c ****   /* Check for error conditions */
1057:./Libraries/STM32H7xx_HAL_Driver/Src/stm32h7xx_ll_sdmmc.c ****   errorstate = SDMMC_GetCmdResp1(SDMMCx, SDMMC_CMD_SET_REL_ADDR, SDMMC_CMDTIMEOUT);
 2334              		.loc 1 1057 16
 2335 0032 41F28832 		movw	r2, #5000
 2336 0036 0321     		movs	r1, #3
 2337 0038 7868     		ldr	r0, [r7, #4]
 2338 003a FFF7FEFF 		bl	SDMMC_GetCmdResp1
 2339 003e F861     		str	r0, [r7, #28]
1058:./Libraries/STM32H7xx_HAL_Driver/Src/stm32h7xx_ll_sdmmc.c **** 
1059:./Libraries/STM32H7xx_HAL_Driver/Src/stm32h7xx_ll_sdmmc.c ****   return errorstate;
 2340              		.loc 1 1059 10
 2341 0040 FB69     		ldr	r3, [r7, #28]
1060:./Libraries/STM32H7xx_HAL_Driver/Src/stm32h7xx_ll_sdmmc.c **** }
 2342              		.loc 1 1060 1
 2343 0042 1846     		mov	r0, r3
 2344 0044 2037     		adds	r7, r7, #32
 2345              	.LCFI194:
 2346              		.cfi_def_cfa_offset 8
 2347 0046 BD46     		mov	sp, r7
 2348              	.LCFI195:
 2349              		.cfi_def_cfa_register 13
 2350              		@ sp needed
 2351 0048 80BD     		pop	{r7, pc}
 2352              		.cfi_endproc
 2353              	.LFE366:
 2355              		.section	.text.SDMMC_CmdSendStatus,"ax",%progbits
 2356              		.align	1
 2357              		.global	SDMMC_CmdSendStatus
 2358              		.syntax unified
 2359              		.thumb
 2360              		.thumb_func
 2361              		.fpu fpv5-d16
 2363              	SDMMC_CmdSendStatus:
ARM GAS  /tmp/ccUwcR4B.s 			page 60


 2364              	.LFB367:
1061:./Libraries/STM32H7xx_HAL_Driver/Src/stm32h7xx_ll_sdmmc.c **** 
1062:./Libraries/STM32H7xx_HAL_Driver/Src/stm32h7xx_ll_sdmmc.c **** /**
1063:./Libraries/STM32H7xx_HAL_Driver/Src/stm32h7xx_ll_sdmmc.c ****   * @brief  Send the Status command and check the response.
1064:./Libraries/STM32H7xx_HAL_Driver/Src/stm32h7xx_ll_sdmmc.c ****   * @param  SDMMCx: Pointer to SDMMC register base
1065:./Libraries/STM32H7xx_HAL_Driver/Src/stm32h7xx_ll_sdmmc.c ****   * @param  Argument: Command Argument
1066:./Libraries/STM32H7xx_HAL_Driver/Src/stm32h7xx_ll_sdmmc.c ****   * @retval HAL status
1067:./Libraries/STM32H7xx_HAL_Driver/Src/stm32h7xx_ll_sdmmc.c ****   */
1068:./Libraries/STM32H7xx_HAL_Driver/Src/stm32h7xx_ll_sdmmc.c **** uint32_t SDMMC_CmdSendStatus(SDMMC_TypeDef *SDMMCx, uint32_t Argument)
1069:./Libraries/STM32H7xx_HAL_Driver/Src/stm32h7xx_ll_sdmmc.c **** {
 2365              		.loc 1 1069 1
 2366              		.cfi_startproc
 2367              		@ args = 0, pretend = 0, frame = 32
 2368              		@ frame_needed = 1, uses_anonymous_args = 0
 2369 0000 80B5     		push	{r7, lr}
 2370              	.LCFI196:
 2371              		.cfi_def_cfa_offset 8
 2372              		.cfi_offset 7, -8
 2373              		.cfi_offset 14, -4
 2374 0002 88B0     		sub	sp, sp, #32
 2375              	.LCFI197:
 2376              		.cfi_def_cfa_offset 40
 2377 0004 00AF     		add	r7, sp, #0
 2378              	.LCFI198:
 2379              		.cfi_def_cfa_register 7
 2380 0006 7860     		str	r0, [r7, #4]
 2381 0008 3960     		str	r1, [r7]
1070:./Libraries/STM32H7xx_HAL_Driver/Src/stm32h7xx_ll_sdmmc.c ****   SDMMC_CmdInitTypeDef  sdmmc_cmdinit;
1071:./Libraries/STM32H7xx_HAL_Driver/Src/stm32h7xx_ll_sdmmc.c ****   uint32_t errorstate;
1072:./Libraries/STM32H7xx_HAL_Driver/Src/stm32h7xx_ll_sdmmc.c **** 
1073:./Libraries/STM32H7xx_HAL_Driver/Src/stm32h7xx_ll_sdmmc.c ****   sdmmc_cmdinit.Argument         = Argument;
 2382              		.loc 1 1073 34
 2383 000a 3B68     		ldr	r3, [r7]
 2384 000c BB60     		str	r3, [r7, #8]
1074:./Libraries/STM32H7xx_HAL_Driver/Src/stm32h7xx_ll_sdmmc.c ****   sdmmc_cmdinit.CmdIndex         = SDMMC_CMD_SEND_STATUS;
 2385              		.loc 1 1074 34
 2386 000e 0D23     		movs	r3, #13
 2387 0010 FB60     		str	r3, [r7, #12]
1075:./Libraries/STM32H7xx_HAL_Driver/Src/stm32h7xx_ll_sdmmc.c ****   sdmmc_cmdinit.Response         = SDMMC_RESPONSE_SHORT;
 2388              		.loc 1 1075 34
 2389 0012 4FF48073 		mov	r3, #256
 2390 0016 3B61     		str	r3, [r7, #16]
1076:./Libraries/STM32H7xx_HAL_Driver/Src/stm32h7xx_ll_sdmmc.c ****   sdmmc_cmdinit.WaitForInterrupt = SDMMC_WAIT_NO;
 2391              		.loc 1 1076 34
 2392 0018 0023     		movs	r3, #0
 2393 001a 7B61     		str	r3, [r7, #20]
1077:./Libraries/STM32H7xx_HAL_Driver/Src/stm32h7xx_ll_sdmmc.c ****   sdmmc_cmdinit.CPSM             = SDMMC_CPSM_ENABLE;
 2394              		.loc 1 1077 34
 2395 001c 4FF48053 		mov	r3, #4096
 2396 0020 BB61     		str	r3, [r7, #24]
1078:./Libraries/STM32H7xx_HAL_Driver/Src/stm32h7xx_ll_sdmmc.c ****   (void)SDMMC_SendCommand(SDMMCx, &sdmmc_cmdinit);
 2397              		.loc 1 1078 9
 2398 0022 07F10803 		add	r3, r7, #8
 2399 0026 1946     		mov	r1, r3
 2400 0028 7868     		ldr	r0, [r7, #4]
 2401 002a FFF7FEFF 		bl	SDMMC_SendCommand
1079:./Libraries/STM32H7xx_HAL_Driver/Src/stm32h7xx_ll_sdmmc.c **** 
ARM GAS  /tmp/ccUwcR4B.s 			page 61


1080:./Libraries/STM32H7xx_HAL_Driver/Src/stm32h7xx_ll_sdmmc.c ****   /* Check for error conditions */
1081:./Libraries/STM32H7xx_HAL_Driver/Src/stm32h7xx_ll_sdmmc.c ****   errorstate = SDMMC_GetCmdResp1(SDMMCx, SDMMC_CMD_SEND_STATUS, SDMMC_CMDTIMEOUT);
 2402              		.loc 1 1081 16
 2403 002e 41F28832 		movw	r2, #5000
 2404 0032 0D21     		movs	r1, #13
 2405 0034 7868     		ldr	r0, [r7, #4]
 2406 0036 FFF7FEFF 		bl	SDMMC_GetCmdResp1
 2407 003a F861     		str	r0, [r7, #28]
1082:./Libraries/STM32H7xx_HAL_Driver/Src/stm32h7xx_ll_sdmmc.c **** 
1083:./Libraries/STM32H7xx_HAL_Driver/Src/stm32h7xx_ll_sdmmc.c ****   return errorstate;
 2408              		.loc 1 1083 10
 2409 003c FB69     		ldr	r3, [r7, #28]
1084:./Libraries/STM32H7xx_HAL_Driver/Src/stm32h7xx_ll_sdmmc.c **** }
 2410              		.loc 1 1084 1
 2411 003e 1846     		mov	r0, r3
 2412 0040 2037     		adds	r7, r7, #32
 2413              	.LCFI199:
 2414              		.cfi_def_cfa_offset 8
 2415 0042 BD46     		mov	sp, r7
 2416              	.LCFI200:
 2417              		.cfi_def_cfa_register 13
 2418              		@ sp needed
 2419 0044 80BD     		pop	{r7, pc}
 2420              		.cfi_endproc
 2421              	.LFE367:
 2423              		.section	.text.SDMMC_CmdStatusRegister,"ax",%progbits
 2424              		.align	1
 2425              		.global	SDMMC_CmdStatusRegister
 2426              		.syntax unified
 2427              		.thumb
 2428              		.thumb_func
 2429              		.fpu fpv5-d16
 2431              	SDMMC_CmdStatusRegister:
 2432              	.LFB368:
1085:./Libraries/STM32H7xx_HAL_Driver/Src/stm32h7xx_ll_sdmmc.c **** 
1086:./Libraries/STM32H7xx_HAL_Driver/Src/stm32h7xx_ll_sdmmc.c **** /**
1087:./Libraries/STM32H7xx_HAL_Driver/Src/stm32h7xx_ll_sdmmc.c ****   * @brief  Send the Status register command and check the response.
1088:./Libraries/STM32H7xx_HAL_Driver/Src/stm32h7xx_ll_sdmmc.c ****   * @param  SDMMCx: Pointer to SDMMC register base
1089:./Libraries/STM32H7xx_HAL_Driver/Src/stm32h7xx_ll_sdmmc.c ****   * @retval HAL status
1090:./Libraries/STM32H7xx_HAL_Driver/Src/stm32h7xx_ll_sdmmc.c ****   */
1091:./Libraries/STM32H7xx_HAL_Driver/Src/stm32h7xx_ll_sdmmc.c **** uint32_t SDMMC_CmdStatusRegister(SDMMC_TypeDef *SDMMCx)
1092:./Libraries/STM32H7xx_HAL_Driver/Src/stm32h7xx_ll_sdmmc.c **** {
 2433              		.loc 1 1092 1
 2434              		.cfi_startproc
 2435              		@ args = 0, pretend = 0, frame = 32
 2436              		@ frame_needed = 1, uses_anonymous_args = 0
 2437 0000 80B5     		push	{r7, lr}
 2438              	.LCFI201:
 2439              		.cfi_def_cfa_offset 8
 2440              		.cfi_offset 7, -8
 2441              		.cfi_offset 14, -4
 2442 0002 88B0     		sub	sp, sp, #32
 2443              	.LCFI202:
 2444              		.cfi_def_cfa_offset 40
 2445 0004 00AF     		add	r7, sp, #0
 2446              	.LCFI203:
 2447              		.cfi_def_cfa_register 7
ARM GAS  /tmp/ccUwcR4B.s 			page 62


 2448 0006 7860     		str	r0, [r7, #4]
1093:./Libraries/STM32H7xx_HAL_Driver/Src/stm32h7xx_ll_sdmmc.c ****   SDMMC_CmdInitTypeDef  sdmmc_cmdinit;
1094:./Libraries/STM32H7xx_HAL_Driver/Src/stm32h7xx_ll_sdmmc.c ****   uint32_t errorstate;
1095:./Libraries/STM32H7xx_HAL_Driver/Src/stm32h7xx_ll_sdmmc.c **** 
1096:./Libraries/STM32H7xx_HAL_Driver/Src/stm32h7xx_ll_sdmmc.c ****   sdmmc_cmdinit.Argument         = 0U;
 2449              		.loc 1 1096 34
 2450 0008 0023     		movs	r3, #0
 2451 000a BB60     		str	r3, [r7, #8]
1097:./Libraries/STM32H7xx_HAL_Driver/Src/stm32h7xx_ll_sdmmc.c ****   sdmmc_cmdinit.CmdIndex         = SDMMC_CMD_SD_APP_STATUS;
 2452              		.loc 1 1097 34
 2453 000c 0D23     		movs	r3, #13
 2454 000e FB60     		str	r3, [r7, #12]
1098:./Libraries/STM32H7xx_HAL_Driver/Src/stm32h7xx_ll_sdmmc.c ****   sdmmc_cmdinit.Response         = SDMMC_RESPONSE_SHORT;
 2455              		.loc 1 1098 34
 2456 0010 4FF48073 		mov	r3, #256
 2457 0014 3B61     		str	r3, [r7, #16]
1099:./Libraries/STM32H7xx_HAL_Driver/Src/stm32h7xx_ll_sdmmc.c ****   sdmmc_cmdinit.WaitForInterrupt = SDMMC_WAIT_NO;
 2458              		.loc 1 1099 34
 2459 0016 0023     		movs	r3, #0
 2460 0018 7B61     		str	r3, [r7, #20]
1100:./Libraries/STM32H7xx_HAL_Driver/Src/stm32h7xx_ll_sdmmc.c ****   sdmmc_cmdinit.CPSM             = SDMMC_CPSM_ENABLE;
 2461              		.loc 1 1100 34
 2462 001a 4FF48053 		mov	r3, #4096
 2463 001e BB61     		str	r3, [r7, #24]
1101:./Libraries/STM32H7xx_HAL_Driver/Src/stm32h7xx_ll_sdmmc.c ****   (void)SDMMC_SendCommand(SDMMCx, &sdmmc_cmdinit);
 2464              		.loc 1 1101 9
 2465 0020 07F10803 		add	r3, r7, #8
 2466 0024 1946     		mov	r1, r3
 2467 0026 7868     		ldr	r0, [r7, #4]
 2468 0028 FFF7FEFF 		bl	SDMMC_SendCommand
1102:./Libraries/STM32H7xx_HAL_Driver/Src/stm32h7xx_ll_sdmmc.c **** 
1103:./Libraries/STM32H7xx_HAL_Driver/Src/stm32h7xx_ll_sdmmc.c ****   /* Check for error conditions */
1104:./Libraries/STM32H7xx_HAL_Driver/Src/stm32h7xx_ll_sdmmc.c ****   errorstate = SDMMC_GetCmdResp1(SDMMCx, SDMMC_CMD_SD_APP_STATUS, SDMMC_CMDTIMEOUT);
 2469              		.loc 1 1104 16
 2470 002c 41F28832 		movw	r2, #5000
 2471 0030 0D21     		movs	r1, #13
 2472 0032 7868     		ldr	r0, [r7, #4]
 2473 0034 FFF7FEFF 		bl	SDMMC_GetCmdResp1
 2474 0038 F861     		str	r0, [r7, #28]
1105:./Libraries/STM32H7xx_HAL_Driver/Src/stm32h7xx_ll_sdmmc.c **** 
1106:./Libraries/STM32H7xx_HAL_Driver/Src/stm32h7xx_ll_sdmmc.c ****   return errorstate;
 2475              		.loc 1 1106 10
 2476 003a FB69     		ldr	r3, [r7, #28]
1107:./Libraries/STM32H7xx_HAL_Driver/Src/stm32h7xx_ll_sdmmc.c **** }
 2477              		.loc 1 1107 1
 2478 003c 1846     		mov	r0, r3
 2479 003e 2037     		adds	r7, r7, #32
 2480              	.LCFI204:
 2481              		.cfi_def_cfa_offset 8
 2482 0040 BD46     		mov	sp, r7
 2483              	.LCFI205:
 2484              		.cfi_def_cfa_register 13
 2485              		@ sp needed
 2486 0042 80BD     		pop	{r7, pc}
 2487              		.cfi_endproc
 2488              	.LFE368:
 2490              		.section	.text.SDMMC_CmdOpCondition,"ax",%progbits
ARM GAS  /tmp/ccUwcR4B.s 			page 63


 2491              		.align	1
 2492              		.global	SDMMC_CmdOpCondition
 2493              		.syntax unified
 2494              		.thumb
 2495              		.thumb_func
 2496              		.fpu fpv5-d16
 2498              	SDMMC_CmdOpCondition:
 2499              	.LFB369:
1108:./Libraries/STM32H7xx_HAL_Driver/Src/stm32h7xx_ll_sdmmc.c **** 
1109:./Libraries/STM32H7xx_HAL_Driver/Src/stm32h7xx_ll_sdmmc.c **** /**
1110:./Libraries/STM32H7xx_HAL_Driver/Src/stm32h7xx_ll_sdmmc.c ****   * @brief  Sends host capacity support information and activates the card's
1111:./Libraries/STM32H7xx_HAL_Driver/Src/stm32h7xx_ll_sdmmc.c ****   *         initialization process. Send SDMMC_CMD_SEND_OP_COND command
1112:./Libraries/STM32H7xx_HAL_Driver/Src/stm32h7xx_ll_sdmmc.c ****   * @param  SDMMCx: Pointer to SDMMC register base
1113:./Libraries/STM32H7xx_HAL_Driver/Src/stm32h7xx_ll_sdmmc.c ****   * @parame Argument: Argument used for the command
1114:./Libraries/STM32H7xx_HAL_Driver/Src/stm32h7xx_ll_sdmmc.c ****   * @retval HAL status
1115:./Libraries/STM32H7xx_HAL_Driver/Src/stm32h7xx_ll_sdmmc.c ****   */
1116:./Libraries/STM32H7xx_HAL_Driver/Src/stm32h7xx_ll_sdmmc.c **** uint32_t SDMMC_CmdOpCondition(SDMMC_TypeDef *SDMMCx, uint32_t Argument)
1117:./Libraries/STM32H7xx_HAL_Driver/Src/stm32h7xx_ll_sdmmc.c **** {
 2500              		.loc 1 1117 1
 2501              		.cfi_startproc
 2502              		@ args = 0, pretend = 0, frame = 32
 2503              		@ frame_needed = 1, uses_anonymous_args = 0
 2504 0000 80B5     		push	{r7, lr}
 2505              	.LCFI206:
 2506              		.cfi_def_cfa_offset 8
 2507              		.cfi_offset 7, -8
 2508              		.cfi_offset 14, -4
 2509 0002 88B0     		sub	sp, sp, #32
 2510              	.LCFI207:
 2511              		.cfi_def_cfa_offset 40
 2512 0004 00AF     		add	r7, sp, #0
 2513              	.LCFI208:
 2514              		.cfi_def_cfa_register 7
 2515 0006 7860     		str	r0, [r7, #4]
 2516 0008 3960     		str	r1, [r7]
1118:./Libraries/STM32H7xx_HAL_Driver/Src/stm32h7xx_ll_sdmmc.c ****   SDMMC_CmdInitTypeDef  sdmmc_cmdinit;
1119:./Libraries/STM32H7xx_HAL_Driver/Src/stm32h7xx_ll_sdmmc.c ****   uint32_t errorstate;
1120:./Libraries/STM32H7xx_HAL_Driver/Src/stm32h7xx_ll_sdmmc.c **** 
1121:./Libraries/STM32H7xx_HAL_Driver/Src/stm32h7xx_ll_sdmmc.c ****   sdmmc_cmdinit.Argument         = Argument;
 2517              		.loc 1 1121 34
 2518 000a 3B68     		ldr	r3, [r7]
 2519 000c BB60     		str	r3, [r7, #8]
1122:./Libraries/STM32H7xx_HAL_Driver/Src/stm32h7xx_ll_sdmmc.c ****   sdmmc_cmdinit.CmdIndex         = SDMMC_CMD_SEND_OP_COND;
 2520              		.loc 1 1122 34
 2521 000e 0123     		movs	r3, #1
 2522 0010 FB60     		str	r3, [r7, #12]
1123:./Libraries/STM32H7xx_HAL_Driver/Src/stm32h7xx_ll_sdmmc.c ****   sdmmc_cmdinit.Response         = SDMMC_RESPONSE_SHORT;
 2523              		.loc 1 1123 34
 2524 0012 4FF48073 		mov	r3, #256
 2525 0016 3B61     		str	r3, [r7, #16]
1124:./Libraries/STM32H7xx_HAL_Driver/Src/stm32h7xx_ll_sdmmc.c ****   sdmmc_cmdinit.WaitForInterrupt = SDMMC_WAIT_NO;
 2526              		.loc 1 1124 34
 2527 0018 0023     		movs	r3, #0
 2528 001a 7B61     		str	r3, [r7, #20]
1125:./Libraries/STM32H7xx_HAL_Driver/Src/stm32h7xx_ll_sdmmc.c ****   sdmmc_cmdinit.CPSM             = SDMMC_CPSM_ENABLE;
 2529              		.loc 1 1125 34
 2530 001c 4FF48053 		mov	r3, #4096
ARM GAS  /tmp/ccUwcR4B.s 			page 64


 2531 0020 BB61     		str	r3, [r7, #24]
1126:./Libraries/STM32H7xx_HAL_Driver/Src/stm32h7xx_ll_sdmmc.c ****   (void)SDMMC_SendCommand(SDMMCx, &sdmmc_cmdinit);
 2532              		.loc 1 1126 9
 2533 0022 07F10803 		add	r3, r7, #8
 2534 0026 1946     		mov	r1, r3
 2535 0028 7868     		ldr	r0, [r7, #4]
 2536 002a FFF7FEFF 		bl	SDMMC_SendCommand
1127:./Libraries/STM32H7xx_HAL_Driver/Src/stm32h7xx_ll_sdmmc.c **** 
1128:./Libraries/STM32H7xx_HAL_Driver/Src/stm32h7xx_ll_sdmmc.c ****   /* Check for error conditions */
1129:./Libraries/STM32H7xx_HAL_Driver/Src/stm32h7xx_ll_sdmmc.c ****   errorstate = SDMMC_GetCmdResp3(SDMMCx);
 2537              		.loc 1 1129 16
 2538 002e 7868     		ldr	r0, [r7, #4]
 2539 0030 FFF7FEFF 		bl	SDMMC_GetCmdResp3
 2540 0034 F861     		str	r0, [r7, #28]
1130:./Libraries/STM32H7xx_HAL_Driver/Src/stm32h7xx_ll_sdmmc.c **** 
1131:./Libraries/STM32H7xx_HAL_Driver/Src/stm32h7xx_ll_sdmmc.c ****   return errorstate;
 2541              		.loc 1 1131 10
 2542 0036 FB69     		ldr	r3, [r7, #28]
1132:./Libraries/STM32H7xx_HAL_Driver/Src/stm32h7xx_ll_sdmmc.c **** }
 2543              		.loc 1 1132 1
 2544 0038 1846     		mov	r0, r3
 2545 003a 2037     		adds	r7, r7, #32
 2546              	.LCFI209:
 2547              		.cfi_def_cfa_offset 8
 2548 003c BD46     		mov	sp, r7
 2549              	.LCFI210:
 2550              		.cfi_def_cfa_register 13
 2551              		@ sp needed
 2552 003e 80BD     		pop	{r7, pc}
 2553              		.cfi_endproc
 2554              	.LFE369:
 2556              		.section	.text.SDMMC_CmdSwitch,"ax",%progbits
 2557              		.align	1
 2558              		.global	SDMMC_CmdSwitch
 2559              		.syntax unified
 2560              		.thumb
 2561              		.thumb_func
 2562              		.fpu fpv5-d16
 2564              	SDMMC_CmdSwitch:
 2565              	.LFB370:
1133:./Libraries/STM32H7xx_HAL_Driver/Src/stm32h7xx_ll_sdmmc.c **** 
1134:./Libraries/STM32H7xx_HAL_Driver/Src/stm32h7xx_ll_sdmmc.c **** /**
1135:./Libraries/STM32H7xx_HAL_Driver/Src/stm32h7xx_ll_sdmmc.c ****   * @brief  Checks switchable function and switch card function. SDMMC_CMD_HS_SWITCH command
1136:./Libraries/STM32H7xx_HAL_Driver/Src/stm32h7xx_ll_sdmmc.c ****   * @param  SDMMCx: Pointer to SDMMC register base
1137:./Libraries/STM32H7xx_HAL_Driver/Src/stm32h7xx_ll_sdmmc.c ****   * @parame Argument: Argument used for the command
1138:./Libraries/STM32H7xx_HAL_Driver/Src/stm32h7xx_ll_sdmmc.c ****   * @retval HAL status
1139:./Libraries/STM32H7xx_HAL_Driver/Src/stm32h7xx_ll_sdmmc.c ****   */
1140:./Libraries/STM32H7xx_HAL_Driver/Src/stm32h7xx_ll_sdmmc.c **** uint32_t SDMMC_CmdSwitch(SDMMC_TypeDef *SDMMCx, uint32_t Argument)
1141:./Libraries/STM32H7xx_HAL_Driver/Src/stm32h7xx_ll_sdmmc.c **** {
 2566              		.loc 1 1141 1
 2567              		.cfi_startproc
 2568              		@ args = 0, pretend = 0, frame = 32
 2569              		@ frame_needed = 1, uses_anonymous_args = 0
 2570 0000 80B5     		push	{r7, lr}
 2571              	.LCFI211:
 2572              		.cfi_def_cfa_offset 8
 2573              		.cfi_offset 7, -8
ARM GAS  /tmp/ccUwcR4B.s 			page 65


 2574              		.cfi_offset 14, -4
 2575 0002 88B0     		sub	sp, sp, #32
 2576              	.LCFI212:
 2577              		.cfi_def_cfa_offset 40
 2578 0004 00AF     		add	r7, sp, #0
 2579              	.LCFI213:
 2580              		.cfi_def_cfa_register 7
 2581 0006 7860     		str	r0, [r7, #4]
 2582 0008 3960     		str	r1, [r7]
1142:./Libraries/STM32H7xx_HAL_Driver/Src/stm32h7xx_ll_sdmmc.c ****   SDMMC_CmdInitTypeDef  sdmmc_cmdinit;
1143:./Libraries/STM32H7xx_HAL_Driver/Src/stm32h7xx_ll_sdmmc.c ****   uint32_t errorstate;
1144:./Libraries/STM32H7xx_HAL_Driver/Src/stm32h7xx_ll_sdmmc.c **** 
1145:./Libraries/STM32H7xx_HAL_Driver/Src/stm32h7xx_ll_sdmmc.c ****   /* Send CMD6 to activate SDR50 Mode and Power Limit 1.44W */
1146:./Libraries/STM32H7xx_HAL_Driver/Src/stm32h7xx_ll_sdmmc.c ****   /* CMD Response: R1 */
1147:./Libraries/STM32H7xx_HAL_Driver/Src/stm32h7xx_ll_sdmmc.c ****   sdmmc_cmdinit.Argument         = Argument; /* SDMMC_SDR25_SWITCH_PATTERN;*/
 2583              		.loc 1 1147 34
 2584 000a 3B68     		ldr	r3, [r7]
 2585 000c BB60     		str	r3, [r7, #8]
1148:./Libraries/STM32H7xx_HAL_Driver/Src/stm32h7xx_ll_sdmmc.c ****   sdmmc_cmdinit.CmdIndex         = SDMMC_CMD_HS_SWITCH;
 2586              		.loc 1 1148 34
 2587 000e 0623     		movs	r3, #6
 2588 0010 FB60     		str	r3, [r7, #12]
1149:./Libraries/STM32H7xx_HAL_Driver/Src/stm32h7xx_ll_sdmmc.c ****   sdmmc_cmdinit.Response         = SDMMC_RESPONSE_SHORT;
 2589              		.loc 1 1149 34
 2590 0012 4FF48073 		mov	r3, #256
 2591 0016 3B61     		str	r3, [r7, #16]
1150:./Libraries/STM32H7xx_HAL_Driver/Src/stm32h7xx_ll_sdmmc.c ****   sdmmc_cmdinit.WaitForInterrupt = SDMMC_WAIT_NO;
 2592              		.loc 1 1150 34
 2593 0018 0023     		movs	r3, #0
 2594 001a 7B61     		str	r3, [r7, #20]
1151:./Libraries/STM32H7xx_HAL_Driver/Src/stm32h7xx_ll_sdmmc.c ****   sdmmc_cmdinit.CPSM             = SDMMC_CPSM_ENABLE;
 2595              		.loc 1 1151 34
 2596 001c 4FF48053 		mov	r3, #4096
 2597 0020 BB61     		str	r3, [r7, #24]
1152:./Libraries/STM32H7xx_HAL_Driver/Src/stm32h7xx_ll_sdmmc.c ****   (void)SDMMC_SendCommand(SDMMCx, &sdmmc_cmdinit);
 2598              		.loc 1 1152 9
 2599 0022 07F10803 		add	r3, r7, #8
 2600 0026 1946     		mov	r1, r3
 2601 0028 7868     		ldr	r0, [r7, #4]
 2602 002a FFF7FEFF 		bl	SDMMC_SendCommand
1153:./Libraries/STM32H7xx_HAL_Driver/Src/stm32h7xx_ll_sdmmc.c **** 
1154:./Libraries/STM32H7xx_HAL_Driver/Src/stm32h7xx_ll_sdmmc.c ****   /* Check for error conditions */
1155:./Libraries/STM32H7xx_HAL_Driver/Src/stm32h7xx_ll_sdmmc.c ****   errorstate = SDMMC_GetCmdResp1(SDMMCx, SDMMC_CMD_HS_SWITCH, SDMMC_CMDTIMEOUT);
 2603              		.loc 1 1155 16
 2604 002e 41F28832 		movw	r2, #5000
 2605 0032 0621     		movs	r1, #6
 2606 0034 7868     		ldr	r0, [r7, #4]
 2607 0036 FFF7FEFF 		bl	SDMMC_GetCmdResp1
 2608 003a F861     		str	r0, [r7, #28]
1156:./Libraries/STM32H7xx_HAL_Driver/Src/stm32h7xx_ll_sdmmc.c **** 
1157:./Libraries/STM32H7xx_HAL_Driver/Src/stm32h7xx_ll_sdmmc.c ****   return errorstate;
 2609              		.loc 1 1157 10
 2610 003c FB69     		ldr	r3, [r7, #28]
1158:./Libraries/STM32H7xx_HAL_Driver/Src/stm32h7xx_ll_sdmmc.c **** }
 2611              		.loc 1 1158 1
 2612 003e 1846     		mov	r0, r3
 2613 0040 2037     		adds	r7, r7, #32
ARM GAS  /tmp/ccUwcR4B.s 			page 66


 2614              	.LCFI214:
 2615              		.cfi_def_cfa_offset 8
 2616 0042 BD46     		mov	sp, r7
 2617              	.LCFI215:
 2618              		.cfi_def_cfa_register 13
 2619              		@ sp needed
 2620 0044 80BD     		pop	{r7, pc}
 2621              		.cfi_endproc
 2622              	.LFE370:
 2624              		.section	.text.SDMMC_CmdVoltageSwitch,"ax",%progbits
 2625              		.align	1
 2626              		.global	SDMMC_CmdVoltageSwitch
 2627              		.syntax unified
 2628              		.thumb
 2629              		.thumb_func
 2630              		.fpu fpv5-d16
 2632              	SDMMC_CmdVoltageSwitch:
 2633              	.LFB371:
1159:./Libraries/STM32H7xx_HAL_Driver/Src/stm32h7xx_ll_sdmmc.c **** 
1160:./Libraries/STM32H7xx_HAL_Driver/Src/stm32h7xx_ll_sdmmc.c **** /**
1161:./Libraries/STM32H7xx_HAL_Driver/Src/stm32h7xx_ll_sdmmc.c ****   * @brief  Send the command asking the accessed card to send its operating
1162:./Libraries/STM32H7xx_HAL_Driver/Src/stm32h7xx_ll_sdmmc.c ****   *         condition register (OCR)
1163:./Libraries/STM32H7xx_HAL_Driver/Src/stm32h7xx_ll_sdmmc.c ****   * @param  None
1164:./Libraries/STM32H7xx_HAL_Driver/Src/stm32h7xx_ll_sdmmc.c ****   * @retval HAL status
1165:./Libraries/STM32H7xx_HAL_Driver/Src/stm32h7xx_ll_sdmmc.c ****   */
1166:./Libraries/STM32H7xx_HAL_Driver/Src/stm32h7xx_ll_sdmmc.c **** uint32_t SDMMC_CmdVoltageSwitch(SDMMC_TypeDef *SDMMCx)
1167:./Libraries/STM32H7xx_HAL_Driver/Src/stm32h7xx_ll_sdmmc.c **** {
 2634              		.loc 1 1167 1
 2635              		.cfi_startproc
 2636              		@ args = 0, pretend = 0, frame = 32
 2637              		@ frame_needed = 1, uses_anonymous_args = 0
 2638 0000 80B5     		push	{r7, lr}
 2639              	.LCFI216:
 2640              		.cfi_def_cfa_offset 8
 2641              		.cfi_offset 7, -8
 2642              		.cfi_offset 14, -4
 2643 0002 88B0     		sub	sp, sp, #32
 2644              	.LCFI217:
 2645              		.cfi_def_cfa_offset 40
 2646 0004 00AF     		add	r7, sp, #0
 2647              	.LCFI218:
 2648              		.cfi_def_cfa_register 7
 2649 0006 7860     		str	r0, [r7, #4]
1168:./Libraries/STM32H7xx_HAL_Driver/Src/stm32h7xx_ll_sdmmc.c ****   SDMMC_CmdInitTypeDef  sdmmc_cmdinit;
1169:./Libraries/STM32H7xx_HAL_Driver/Src/stm32h7xx_ll_sdmmc.c ****   uint32_t errorstate;
1170:./Libraries/STM32H7xx_HAL_Driver/Src/stm32h7xx_ll_sdmmc.c **** 
1171:./Libraries/STM32H7xx_HAL_Driver/Src/stm32h7xx_ll_sdmmc.c ****   sdmmc_cmdinit.Argument         = 0x00000000;
 2650              		.loc 1 1171 34
 2651 0008 0023     		movs	r3, #0
 2652 000a BB60     		str	r3, [r7, #8]
1172:./Libraries/STM32H7xx_HAL_Driver/Src/stm32h7xx_ll_sdmmc.c ****   sdmmc_cmdinit.CmdIndex         = SDMMC_CMD_VOLTAGE_SWITCH;
 2653              		.loc 1 1172 34
 2654 000c 0B23     		movs	r3, #11
 2655 000e FB60     		str	r3, [r7, #12]
1173:./Libraries/STM32H7xx_HAL_Driver/Src/stm32h7xx_ll_sdmmc.c ****   sdmmc_cmdinit.Response         = SDMMC_RESPONSE_SHORT;
 2656              		.loc 1 1173 34
 2657 0010 4FF48073 		mov	r3, #256
ARM GAS  /tmp/ccUwcR4B.s 			page 67


 2658 0014 3B61     		str	r3, [r7, #16]
1174:./Libraries/STM32H7xx_HAL_Driver/Src/stm32h7xx_ll_sdmmc.c ****   sdmmc_cmdinit.WaitForInterrupt = SDMMC_WAIT_NO;
 2659              		.loc 1 1174 34
 2660 0016 0023     		movs	r3, #0
 2661 0018 7B61     		str	r3, [r7, #20]
1175:./Libraries/STM32H7xx_HAL_Driver/Src/stm32h7xx_ll_sdmmc.c ****   sdmmc_cmdinit.CPSM             = SDMMC_CPSM_ENABLE;
 2662              		.loc 1 1175 34
 2663 001a 4FF48053 		mov	r3, #4096
 2664 001e BB61     		str	r3, [r7, #24]
1176:./Libraries/STM32H7xx_HAL_Driver/Src/stm32h7xx_ll_sdmmc.c ****   (void)SDMMC_SendCommand(SDMMCx, &sdmmc_cmdinit);
 2665              		.loc 1 1176 9
 2666 0020 07F10803 		add	r3, r7, #8
 2667 0024 1946     		mov	r1, r3
 2668 0026 7868     		ldr	r0, [r7, #4]
 2669 0028 FFF7FEFF 		bl	SDMMC_SendCommand
1177:./Libraries/STM32H7xx_HAL_Driver/Src/stm32h7xx_ll_sdmmc.c **** 
1178:./Libraries/STM32H7xx_HAL_Driver/Src/stm32h7xx_ll_sdmmc.c ****   /* Check for error conditions */
1179:./Libraries/STM32H7xx_HAL_Driver/Src/stm32h7xx_ll_sdmmc.c ****   errorstate = SDMMC_GetCmdResp1(SDMMCx, SDMMC_CMD_VOLTAGE_SWITCH, SDMMC_CMDTIMEOUT);
 2670              		.loc 1 1179 16
 2671 002c 41F28832 		movw	r2, #5000
 2672 0030 0B21     		movs	r1, #11
 2673 0032 7868     		ldr	r0, [r7, #4]
 2674 0034 FFF7FEFF 		bl	SDMMC_GetCmdResp1
 2675 0038 F861     		str	r0, [r7, #28]
1180:./Libraries/STM32H7xx_HAL_Driver/Src/stm32h7xx_ll_sdmmc.c **** 
1181:./Libraries/STM32H7xx_HAL_Driver/Src/stm32h7xx_ll_sdmmc.c ****   return errorstate;
 2676              		.loc 1 1181 10
 2677 003a FB69     		ldr	r3, [r7, #28]
1182:./Libraries/STM32H7xx_HAL_Driver/Src/stm32h7xx_ll_sdmmc.c **** }
 2678              		.loc 1 1182 1
 2679 003c 1846     		mov	r0, r3
 2680 003e 2037     		adds	r7, r7, #32
 2681              	.LCFI219:
 2682              		.cfi_def_cfa_offset 8
 2683 0040 BD46     		mov	sp, r7
 2684              	.LCFI220:
 2685              		.cfi_def_cfa_register 13
 2686              		@ sp needed
 2687 0042 80BD     		pop	{r7, pc}
 2688              		.cfi_endproc
 2689              	.LFE371:
 2691              		.section	.text.SDMMC_CmdSendEXTCSD,"ax",%progbits
 2692              		.align	1
 2693              		.global	SDMMC_CmdSendEXTCSD
 2694              		.syntax unified
 2695              		.thumb
 2696              		.thumb_func
 2697              		.fpu fpv5-d16
 2699              	SDMMC_CmdSendEXTCSD:
 2700              	.LFB372:
1183:./Libraries/STM32H7xx_HAL_Driver/Src/stm32h7xx_ll_sdmmc.c **** 
1184:./Libraries/STM32H7xx_HAL_Driver/Src/stm32h7xx_ll_sdmmc.c **** /**
1185:./Libraries/STM32H7xx_HAL_Driver/Src/stm32h7xx_ll_sdmmc.c ****   * @brief  Send the Send EXT_CSD command and check the response.
1186:./Libraries/STM32H7xx_HAL_Driver/Src/stm32h7xx_ll_sdmmc.c ****   * @param  SDMMCx: Pointer to SDMMC register base
1187:./Libraries/STM32H7xx_HAL_Driver/Src/stm32h7xx_ll_sdmmc.c ****   * @param  Argument: Command Argument
1188:./Libraries/STM32H7xx_HAL_Driver/Src/stm32h7xx_ll_sdmmc.c ****   * @retval HAL status
1189:./Libraries/STM32H7xx_HAL_Driver/Src/stm32h7xx_ll_sdmmc.c ****   */
ARM GAS  /tmp/ccUwcR4B.s 			page 68


1190:./Libraries/STM32H7xx_HAL_Driver/Src/stm32h7xx_ll_sdmmc.c **** uint32_t SDMMC_CmdSendEXTCSD(SDMMC_TypeDef *SDMMCx, uint32_t Argument)
1191:./Libraries/STM32H7xx_HAL_Driver/Src/stm32h7xx_ll_sdmmc.c **** {
 2701              		.loc 1 1191 1
 2702              		.cfi_startproc
 2703              		@ args = 0, pretend = 0, frame = 32
 2704              		@ frame_needed = 1, uses_anonymous_args = 0
 2705 0000 80B5     		push	{r7, lr}
 2706              	.LCFI221:
 2707              		.cfi_def_cfa_offset 8
 2708              		.cfi_offset 7, -8
 2709              		.cfi_offset 14, -4
 2710 0002 88B0     		sub	sp, sp, #32
 2711              	.LCFI222:
 2712              		.cfi_def_cfa_offset 40
 2713 0004 00AF     		add	r7, sp, #0
 2714              	.LCFI223:
 2715              		.cfi_def_cfa_register 7
 2716 0006 7860     		str	r0, [r7, #4]
 2717 0008 3960     		str	r1, [r7]
1192:./Libraries/STM32H7xx_HAL_Driver/Src/stm32h7xx_ll_sdmmc.c ****   SDMMC_CmdInitTypeDef  sdmmc_cmdinit;
1193:./Libraries/STM32H7xx_HAL_Driver/Src/stm32h7xx_ll_sdmmc.c ****   uint32_t errorstate;
1194:./Libraries/STM32H7xx_HAL_Driver/Src/stm32h7xx_ll_sdmmc.c **** 
1195:./Libraries/STM32H7xx_HAL_Driver/Src/stm32h7xx_ll_sdmmc.c ****   /* Send CMD9 SEND_CSD */
1196:./Libraries/STM32H7xx_HAL_Driver/Src/stm32h7xx_ll_sdmmc.c ****   sdmmc_cmdinit.Argument         = Argument;
 2718              		.loc 1 1196 34
 2719 000a 3B68     		ldr	r3, [r7]
 2720 000c BB60     		str	r3, [r7, #8]
1197:./Libraries/STM32H7xx_HAL_Driver/Src/stm32h7xx_ll_sdmmc.c ****   sdmmc_cmdinit.CmdIndex         = SDMMC_CMD_HS_SEND_EXT_CSD;
 2721              		.loc 1 1197 34
 2722 000e 0823     		movs	r3, #8
 2723 0010 FB60     		str	r3, [r7, #12]
1198:./Libraries/STM32H7xx_HAL_Driver/Src/stm32h7xx_ll_sdmmc.c ****   sdmmc_cmdinit.Response         = SDMMC_RESPONSE_SHORT;
 2724              		.loc 1 1198 34
 2725 0012 4FF48073 		mov	r3, #256
 2726 0016 3B61     		str	r3, [r7, #16]
1199:./Libraries/STM32H7xx_HAL_Driver/Src/stm32h7xx_ll_sdmmc.c ****   sdmmc_cmdinit.WaitForInterrupt = SDMMC_WAIT_NO;
 2727              		.loc 1 1199 34
 2728 0018 0023     		movs	r3, #0
 2729 001a 7B61     		str	r3, [r7, #20]
1200:./Libraries/STM32H7xx_HAL_Driver/Src/stm32h7xx_ll_sdmmc.c ****   sdmmc_cmdinit.CPSM             = SDMMC_CPSM_ENABLE;
 2730              		.loc 1 1200 34
 2731 001c 4FF48053 		mov	r3, #4096
 2732 0020 BB61     		str	r3, [r7, #24]
1201:./Libraries/STM32H7xx_HAL_Driver/Src/stm32h7xx_ll_sdmmc.c ****   (void)SDMMC_SendCommand(SDMMCx, &sdmmc_cmdinit);
 2733              		.loc 1 1201 9
 2734 0022 07F10803 		add	r3, r7, #8
 2735 0026 1946     		mov	r1, r3
 2736 0028 7868     		ldr	r0, [r7, #4]
 2737 002a FFF7FEFF 		bl	SDMMC_SendCommand
1202:./Libraries/STM32H7xx_HAL_Driver/Src/stm32h7xx_ll_sdmmc.c **** 
1203:./Libraries/STM32H7xx_HAL_Driver/Src/stm32h7xx_ll_sdmmc.c ****   /* Check for error conditions */
1204:./Libraries/STM32H7xx_HAL_Driver/Src/stm32h7xx_ll_sdmmc.c ****   errorstate = SDMMC_GetCmdResp1(SDMMCx, SDMMC_CMD_HS_SEND_EXT_CSD, SDMMC_CMDTIMEOUT);
 2738              		.loc 1 1204 16
 2739 002e 41F28832 		movw	r2, #5000
 2740 0032 0821     		movs	r1, #8
 2741 0034 7868     		ldr	r0, [r7, #4]
 2742 0036 FFF7FEFF 		bl	SDMMC_GetCmdResp1
ARM GAS  /tmp/ccUwcR4B.s 			page 69


 2743 003a F861     		str	r0, [r7, #28]
1205:./Libraries/STM32H7xx_HAL_Driver/Src/stm32h7xx_ll_sdmmc.c **** 
1206:./Libraries/STM32H7xx_HAL_Driver/Src/stm32h7xx_ll_sdmmc.c ****   return errorstate;
 2744              		.loc 1 1206 10
 2745 003c FB69     		ldr	r3, [r7, #28]
1207:./Libraries/STM32H7xx_HAL_Driver/Src/stm32h7xx_ll_sdmmc.c **** }
 2746              		.loc 1 1207 1
 2747 003e 1846     		mov	r0, r3
 2748 0040 2037     		adds	r7, r7, #32
 2749              	.LCFI224:
 2750              		.cfi_def_cfa_offset 8
 2751 0042 BD46     		mov	sp, r7
 2752              	.LCFI225:
 2753              		.cfi_def_cfa_register 13
 2754              		@ sp needed
 2755 0044 80BD     		pop	{r7, pc}
 2756              		.cfi_endproc
 2757              	.LFE372:
 2759              		.section	.text.SDMMC_GetCmdResp1,"ax",%progbits
 2760              		.align	1
 2761              		.global	SDMMC_GetCmdResp1
 2762              		.syntax unified
 2763              		.thumb
 2764              		.thumb_func
 2765              		.fpu fpv5-d16
 2767              	SDMMC_GetCmdResp1:
 2768              	.LFB373:
1208:./Libraries/STM32H7xx_HAL_Driver/Src/stm32h7xx_ll_sdmmc.c **** 
1209:./Libraries/STM32H7xx_HAL_Driver/Src/stm32h7xx_ll_sdmmc.c **** /**
1210:./Libraries/STM32H7xx_HAL_Driver/Src/stm32h7xx_ll_sdmmc.c ****   * @}
1211:./Libraries/STM32H7xx_HAL_Driver/Src/stm32h7xx_ll_sdmmc.c ****   */
1212:./Libraries/STM32H7xx_HAL_Driver/Src/stm32h7xx_ll_sdmmc.c **** 
1213:./Libraries/STM32H7xx_HAL_Driver/Src/stm32h7xx_ll_sdmmc.c **** 
1214:./Libraries/STM32H7xx_HAL_Driver/Src/stm32h7xx_ll_sdmmc.c **** /** @defgroup HAL_SDMMC_LL_Group5 Responses management functions
1215:./Libraries/STM32H7xx_HAL_Driver/Src/stm32h7xx_ll_sdmmc.c ****   *  @brief   Responses functions
1216:./Libraries/STM32H7xx_HAL_Driver/Src/stm32h7xx_ll_sdmmc.c ****   *
1217:./Libraries/STM32H7xx_HAL_Driver/Src/stm32h7xx_ll_sdmmc.c **** @verbatim
1218:./Libraries/STM32H7xx_HAL_Driver/Src/stm32h7xx_ll_sdmmc.c ****  ===============================================================================
1219:./Libraries/STM32H7xx_HAL_Driver/Src/stm32h7xx_ll_sdmmc.c ****                    ##### Responses management functions #####
1220:./Libraries/STM32H7xx_HAL_Driver/Src/stm32h7xx_ll_sdmmc.c ****  ===============================================================================
1221:./Libraries/STM32H7xx_HAL_Driver/Src/stm32h7xx_ll_sdmmc.c ****     [..]
1222:./Libraries/STM32H7xx_HAL_Driver/Src/stm32h7xx_ll_sdmmc.c ****     This subsection provides a set of functions allowing to manage the needed responses.
1223:./Libraries/STM32H7xx_HAL_Driver/Src/stm32h7xx_ll_sdmmc.c **** 
1224:./Libraries/STM32H7xx_HAL_Driver/Src/stm32h7xx_ll_sdmmc.c **** @endverbatim
1225:./Libraries/STM32H7xx_HAL_Driver/Src/stm32h7xx_ll_sdmmc.c ****   * @{
1226:./Libraries/STM32H7xx_HAL_Driver/Src/stm32h7xx_ll_sdmmc.c ****   */
1227:./Libraries/STM32H7xx_HAL_Driver/Src/stm32h7xx_ll_sdmmc.c **** /**
1228:./Libraries/STM32H7xx_HAL_Driver/Src/stm32h7xx_ll_sdmmc.c ****   * @brief  Checks for error conditions for R1 response.
1229:./Libraries/STM32H7xx_HAL_Driver/Src/stm32h7xx_ll_sdmmc.c ****   * @param  hsd: SD handle
1230:./Libraries/STM32H7xx_HAL_Driver/Src/stm32h7xx_ll_sdmmc.c ****   * @param  SD_CMD: The sent command index
1231:./Libraries/STM32H7xx_HAL_Driver/Src/stm32h7xx_ll_sdmmc.c ****   * @retval SD Card error state
1232:./Libraries/STM32H7xx_HAL_Driver/Src/stm32h7xx_ll_sdmmc.c ****   */
1233:./Libraries/STM32H7xx_HAL_Driver/Src/stm32h7xx_ll_sdmmc.c **** uint32_t SDMMC_GetCmdResp1(SDMMC_TypeDef *SDMMCx, uint8_t SD_CMD, uint32_t Timeout)
1234:./Libraries/STM32H7xx_HAL_Driver/Src/stm32h7xx_ll_sdmmc.c **** {
 2769              		.loc 1 1234 1
 2770              		.cfi_startproc
 2771              		@ args = 0, pretend = 0, frame = 32
ARM GAS  /tmp/ccUwcR4B.s 			page 70


 2772              		@ frame_needed = 1, uses_anonymous_args = 0
 2773 0000 80B5     		push	{r7, lr}
 2774              	.LCFI226:
 2775              		.cfi_def_cfa_offset 8
 2776              		.cfi_offset 7, -8
 2777              		.cfi_offset 14, -4
 2778 0002 88B0     		sub	sp, sp, #32
 2779              	.LCFI227:
 2780              		.cfi_def_cfa_offset 40
 2781 0004 00AF     		add	r7, sp, #0
 2782              	.LCFI228:
 2783              		.cfi_def_cfa_register 7
 2784 0006 F860     		str	r0, [r7, #12]
 2785 0008 0B46     		mov	r3, r1
 2786 000a 7A60     		str	r2, [r7, #4]
 2787 000c FB72     		strb	r3, [r7, #11]
1235:./Libraries/STM32H7xx_HAL_Driver/Src/stm32h7xx_ll_sdmmc.c ****   uint32_t response_r1;
1236:./Libraries/STM32H7xx_HAL_Driver/Src/stm32h7xx_ll_sdmmc.c ****   uint32_t sta_reg;
1237:./Libraries/STM32H7xx_HAL_Driver/Src/stm32h7xx_ll_sdmmc.c **** 
1238:./Libraries/STM32H7xx_HAL_Driver/Src/stm32h7xx_ll_sdmmc.c ****   /* 8 is the number of required instructions cycles for the below loop statement.
1239:./Libraries/STM32H7xx_HAL_Driver/Src/stm32h7xx_ll_sdmmc.c ****   The Timeout is expressed in ms */
1240:./Libraries/STM32H7xx_HAL_Driver/Src/stm32h7xx_ll_sdmmc.c ****   uint32_t count = Timeout * (SystemCoreClock / 8U / 1000U);
 2788              		.loc 1 1240 52
 2789 000e 704B     		ldr	r3, .L118
 2790 0010 1B68     		ldr	r3, [r3]
 2791 0012 704A     		ldr	r2, .L118+4
 2792 0014 A2FB0323 		umull	r2, r3, r2, r3
 2793 0018 5A0A     		lsrs	r2, r3, #9
 2794              		.loc 1 1240 12
 2795 001a 7B68     		ldr	r3, [r7, #4]
 2796 001c 02FB03F3 		mul	r3, r2, r3
 2797 0020 FB61     		str	r3, [r7, #28]
 2798              	.L95:
1241:./Libraries/STM32H7xx_HAL_Driver/Src/stm32h7xx_ll_sdmmc.c **** 
1242:./Libraries/STM32H7xx_HAL_Driver/Src/stm32h7xx_ll_sdmmc.c ****   do
1243:./Libraries/STM32H7xx_HAL_Driver/Src/stm32h7xx_ll_sdmmc.c ****   {
1244:./Libraries/STM32H7xx_HAL_Driver/Src/stm32h7xx_ll_sdmmc.c ****     if (count-- == 0U)
 2799              		.loc 1 1244 14
 2800 0022 FB69     		ldr	r3, [r7, #28]
 2801 0024 5A1E     		subs	r2, r3, #1
 2802 0026 FA61     		str	r2, [r7, #28]
 2803              		.loc 1 1244 8
 2804 0028 002B     		cmp	r3, #0
 2805 002a 02D1     		bne	.L93
1245:./Libraries/STM32H7xx_HAL_Driver/Src/stm32h7xx_ll_sdmmc.c ****     {
1246:./Libraries/STM32H7xx_HAL_Driver/Src/stm32h7xx_ll_sdmmc.c ****       return SDMMC_ERROR_TIMEOUT;
 2806              		.loc 1 1246 14
 2807 002c 4FF00043 		mov	r3, #-2147483648
 2808 0030 C9E0     		b	.L94
 2809              	.L93:
1247:./Libraries/STM32H7xx_HAL_Driver/Src/stm32h7xx_ll_sdmmc.c ****     }
1248:./Libraries/STM32H7xx_HAL_Driver/Src/stm32h7xx_ll_sdmmc.c ****     sta_reg = SDMMCx->STA;
 2810              		.loc 1 1248 13
 2811 0032 FB68     		ldr	r3, [r7, #12]
 2812 0034 5B6B     		ldr	r3, [r3, #52]
 2813 0036 BB61     		str	r3, [r7, #24]
1249:./Libraries/STM32H7xx_HAL_Driver/Src/stm32h7xx_ll_sdmmc.c ****   } while (((sta_reg & (SDMMC_FLAG_CCRCFAIL | SDMMC_FLAG_CMDREND | SDMMC_FLAG_CTIMEOUT |
ARM GAS  /tmp/ccUwcR4B.s 			page 71


 2814              		.loc 1 1249 22
 2815 0038 BA69     		ldr	r2, [r7, #24]
 2816 003a 674B     		ldr	r3, .L118+8
 2817 003c 1340     		ands	r3, r3, r2
1250:./Libraries/STM32H7xx_HAL_Driver/Src/stm32h7xx_ll_sdmmc.c ****                         SDMMC_FLAG_BUSYD0END)) == 0U) || ((sta_reg & SDMMC_FLAG_CMDACT) != 0U));
 2818              		.loc 1 1250 25
 2819 003e 002B     		cmp	r3, #0
 2820 0040 EFD0     		beq	.L95
 2821              		.loc 1 1250 68 discriminator 1
 2822 0042 BB69     		ldr	r3, [r7, #24]
 2823 0044 03F40053 		and	r3, r3, #8192
 2824              		.loc 1 1250 55 discriminator 1
 2825 0048 002B     		cmp	r3, #0
 2826 004a EAD1     		bne	.L95
1251:./Libraries/STM32H7xx_HAL_Driver/Src/stm32h7xx_ll_sdmmc.c **** 
1252:./Libraries/STM32H7xx_HAL_Driver/Src/stm32h7xx_ll_sdmmc.c ****   if (__SDMMC_GET_FLAG(SDMMCx, SDMMC_FLAG_CTIMEOUT))
 2827              		.loc 1 1252 7
 2828 004c FB68     		ldr	r3, [r7, #12]
 2829 004e 5B6B     		ldr	r3, [r3, #52]
 2830 0050 03F00403 		and	r3, r3, #4
 2831              		.loc 1 1252 6
 2832 0054 002B     		cmp	r3, #0
 2833 0056 04D0     		beq	.L96
1253:./Libraries/STM32H7xx_HAL_Driver/Src/stm32h7xx_ll_sdmmc.c ****   {
1254:./Libraries/STM32H7xx_HAL_Driver/Src/stm32h7xx_ll_sdmmc.c ****     __SDMMC_CLEAR_FLAG(SDMMCx, SDMMC_FLAG_CTIMEOUT);
 2834              		.loc 1 1254 5
 2835 0058 FB68     		ldr	r3, [r7, #12]
 2836 005a 0422     		movs	r2, #4
 2837 005c 9A63     		str	r2, [r3, #56]
1255:./Libraries/STM32H7xx_HAL_Driver/Src/stm32h7xx_ll_sdmmc.c **** 
1256:./Libraries/STM32H7xx_HAL_Driver/Src/stm32h7xx_ll_sdmmc.c ****     return SDMMC_ERROR_CMD_RSP_TIMEOUT;
 2838              		.loc 1 1256 12
 2839 005e 0423     		movs	r3, #4
 2840 0060 B1E0     		b	.L94
 2841              	.L96:
1257:./Libraries/STM32H7xx_HAL_Driver/Src/stm32h7xx_ll_sdmmc.c ****   }
1258:./Libraries/STM32H7xx_HAL_Driver/Src/stm32h7xx_ll_sdmmc.c ****   else if (__SDMMC_GET_FLAG(SDMMCx, SDMMC_FLAG_CCRCFAIL))
 2842              		.loc 1 1258 12
 2843 0062 FB68     		ldr	r3, [r7, #12]
 2844 0064 5B6B     		ldr	r3, [r3, #52]
 2845 0066 03F00103 		and	r3, r3, #1
 2846              		.loc 1 1258 11
 2847 006a 002B     		cmp	r3, #0
 2848 006c 04D0     		beq	.L97
1259:./Libraries/STM32H7xx_HAL_Driver/Src/stm32h7xx_ll_sdmmc.c ****   {
1260:./Libraries/STM32H7xx_HAL_Driver/Src/stm32h7xx_ll_sdmmc.c ****     __SDMMC_CLEAR_FLAG(SDMMCx, SDMMC_FLAG_CCRCFAIL);
 2849              		.loc 1 1260 5
 2850 006e FB68     		ldr	r3, [r7, #12]
 2851 0070 0122     		movs	r2, #1
 2852 0072 9A63     		str	r2, [r3, #56]
1261:./Libraries/STM32H7xx_HAL_Driver/Src/stm32h7xx_ll_sdmmc.c **** 
1262:./Libraries/STM32H7xx_HAL_Driver/Src/stm32h7xx_ll_sdmmc.c ****     return SDMMC_ERROR_CMD_CRC_FAIL;
 2853              		.loc 1 1262 12
 2854 0074 0123     		movs	r3, #1
 2855 0076 A6E0     		b	.L94
 2856              	.L97:
1263:./Libraries/STM32H7xx_HAL_Driver/Src/stm32h7xx_ll_sdmmc.c ****   }
ARM GAS  /tmp/ccUwcR4B.s 			page 72


1264:./Libraries/STM32H7xx_HAL_Driver/Src/stm32h7xx_ll_sdmmc.c ****   else
1265:./Libraries/STM32H7xx_HAL_Driver/Src/stm32h7xx_ll_sdmmc.c ****   {
1266:./Libraries/STM32H7xx_HAL_Driver/Src/stm32h7xx_ll_sdmmc.c ****     /* Nothing to do */
1267:./Libraries/STM32H7xx_HAL_Driver/Src/stm32h7xx_ll_sdmmc.c ****   }
1268:./Libraries/STM32H7xx_HAL_Driver/Src/stm32h7xx_ll_sdmmc.c **** 
1269:./Libraries/STM32H7xx_HAL_Driver/Src/stm32h7xx_ll_sdmmc.c ****   /* Clear all the static flags */
1270:./Libraries/STM32H7xx_HAL_Driver/Src/stm32h7xx_ll_sdmmc.c ****   __SDMMC_CLEAR_FLAG(SDMMCx, SDMMC_STATIC_CMD_FLAGS);
 2857              		.loc 1 1270 3
 2858 0078 FB68     		ldr	r3, [r7, #12]
 2859 007a 584A     		ldr	r2, .L118+12
 2860 007c 9A63     		str	r2, [r3, #56]
1271:./Libraries/STM32H7xx_HAL_Driver/Src/stm32h7xx_ll_sdmmc.c **** 
1272:./Libraries/STM32H7xx_HAL_Driver/Src/stm32h7xx_ll_sdmmc.c ****   /* Check response received is of desired command */
1273:./Libraries/STM32H7xx_HAL_Driver/Src/stm32h7xx_ll_sdmmc.c ****   if (SDMMC_GetCommandResponse(SDMMCx) != SD_CMD)
 2861              		.loc 1 1273 7
 2862 007e F868     		ldr	r0, [r7, #12]
 2863 0080 FFF7FEFF 		bl	SDMMC_GetCommandResponse
 2864 0084 0346     		mov	r3, r0
 2865 0086 1A46     		mov	r2, r3
 2866              		.loc 1 1273 6
 2867 0088 FB7A     		ldrb	r3, [r7, #11]	@ zero_extendqisi2
 2868 008a 9342     		cmp	r3, r2
 2869 008c 01D0     		beq	.L98
1274:./Libraries/STM32H7xx_HAL_Driver/Src/stm32h7xx_ll_sdmmc.c ****   {
1275:./Libraries/STM32H7xx_HAL_Driver/Src/stm32h7xx_ll_sdmmc.c ****     return SDMMC_ERROR_CMD_CRC_FAIL;
 2870              		.loc 1 1275 12
 2871 008e 0123     		movs	r3, #1
 2872 0090 99E0     		b	.L94
 2873              	.L98:
1276:./Libraries/STM32H7xx_HAL_Driver/Src/stm32h7xx_ll_sdmmc.c ****   }
1277:./Libraries/STM32H7xx_HAL_Driver/Src/stm32h7xx_ll_sdmmc.c **** 
1278:./Libraries/STM32H7xx_HAL_Driver/Src/stm32h7xx_ll_sdmmc.c ****   /* We have received response, retrieve it for analysis  */
1279:./Libraries/STM32H7xx_HAL_Driver/Src/stm32h7xx_ll_sdmmc.c ****   response_r1 = SDMMC_GetResponse(SDMMCx, SDMMC_RESP1);
 2874              		.loc 1 1279 17
 2875 0092 0021     		movs	r1, #0
 2876 0094 F868     		ldr	r0, [r7, #12]
 2877 0096 FFF7FEFF 		bl	SDMMC_GetResponse
 2878 009a 7861     		str	r0, [r7, #20]
1280:./Libraries/STM32H7xx_HAL_Driver/Src/stm32h7xx_ll_sdmmc.c **** 
1281:./Libraries/STM32H7xx_HAL_Driver/Src/stm32h7xx_ll_sdmmc.c ****   if ((response_r1 & SDMMC_OCR_ERRORBITS) == SDMMC_ALLZERO)
 2879              		.loc 1 1281 20
 2880 009c 7A69     		ldr	r2, [r7, #20]
 2881 009e 504B     		ldr	r3, .L118+16
 2882 00a0 1340     		ands	r3, r3, r2
 2883              		.loc 1 1281 6
 2884 00a2 002B     		cmp	r3, #0
 2885 00a4 01D1     		bne	.L99
1282:./Libraries/STM32H7xx_HAL_Driver/Src/stm32h7xx_ll_sdmmc.c ****   {
1283:./Libraries/STM32H7xx_HAL_Driver/Src/stm32h7xx_ll_sdmmc.c ****     return SDMMC_ERROR_NONE;
 2886              		.loc 1 1283 12
 2887 00a6 0023     		movs	r3, #0
 2888 00a8 8DE0     		b	.L94
 2889              	.L99:
1284:./Libraries/STM32H7xx_HAL_Driver/Src/stm32h7xx_ll_sdmmc.c ****   }
1285:./Libraries/STM32H7xx_HAL_Driver/Src/stm32h7xx_ll_sdmmc.c ****   else if ((response_r1 & SDMMC_OCR_ADDR_OUT_OF_RANGE) == SDMMC_OCR_ADDR_OUT_OF_RANGE)
 2890              		.loc 1 1285 56
 2891 00aa 7B69     		ldr	r3, [r7, #20]
ARM GAS  /tmp/ccUwcR4B.s 			page 73


 2892              		.loc 1 1285 11
 2893 00ac 002B     		cmp	r3, #0
 2894 00ae 02DA     		bge	.L100
1286:./Libraries/STM32H7xx_HAL_Driver/Src/stm32h7xx_ll_sdmmc.c ****   {
1287:./Libraries/STM32H7xx_HAL_Driver/Src/stm32h7xx_ll_sdmmc.c ****     return SDMMC_ERROR_ADDR_OUT_OF_RANGE;
 2895              		.loc 1 1287 12
 2896 00b0 4FF00073 		mov	r3, #33554432
 2897 00b4 87E0     		b	.L94
 2898              	.L100:
1288:./Libraries/STM32H7xx_HAL_Driver/Src/stm32h7xx_ll_sdmmc.c ****   }
1289:./Libraries/STM32H7xx_HAL_Driver/Src/stm32h7xx_ll_sdmmc.c ****   else if ((response_r1 & SDMMC_OCR_ADDR_MISALIGNED) == SDMMC_OCR_ADDR_MISALIGNED)
 2899              		.loc 1 1289 25
 2900 00b6 7B69     		ldr	r3, [r7, #20]
 2901 00b8 03F08043 		and	r3, r3, #1073741824
 2902              		.loc 1 1289 11
 2903 00bc 002B     		cmp	r3, #0
 2904 00be 01D0     		beq	.L101
1290:./Libraries/STM32H7xx_HAL_Driver/Src/stm32h7xx_ll_sdmmc.c ****   {
1291:./Libraries/STM32H7xx_HAL_Driver/Src/stm32h7xx_ll_sdmmc.c ****     return SDMMC_ERROR_ADDR_MISALIGNED;
 2905              		.loc 1 1291 12
 2906 00c0 4023     		movs	r3, #64
 2907 00c2 80E0     		b	.L94
 2908              	.L101:
1292:./Libraries/STM32H7xx_HAL_Driver/Src/stm32h7xx_ll_sdmmc.c ****   }
1293:./Libraries/STM32H7xx_HAL_Driver/Src/stm32h7xx_ll_sdmmc.c ****   else if ((response_r1 & SDMMC_OCR_BLOCK_LEN_ERR) == SDMMC_OCR_BLOCK_LEN_ERR)
 2909              		.loc 1 1293 25
 2910 00c4 7B69     		ldr	r3, [r7, #20]
 2911 00c6 03F00053 		and	r3, r3, #536870912
 2912              		.loc 1 1293 11
 2913 00ca 002B     		cmp	r3, #0
 2914 00cc 01D0     		beq	.L102
1294:./Libraries/STM32H7xx_HAL_Driver/Src/stm32h7xx_ll_sdmmc.c ****   {
1295:./Libraries/STM32H7xx_HAL_Driver/Src/stm32h7xx_ll_sdmmc.c ****     return SDMMC_ERROR_BLOCK_LEN_ERR;
 2915              		.loc 1 1295 12
 2916 00ce 8023     		movs	r3, #128
 2917 00d0 79E0     		b	.L94
 2918              	.L102:
1296:./Libraries/STM32H7xx_HAL_Driver/Src/stm32h7xx_ll_sdmmc.c ****   }
1297:./Libraries/STM32H7xx_HAL_Driver/Src/stm32h7xx_ll_sdmmc.c ****   else if ((response_r1 & SDMMC_OCR_ERASE_SEQ_ERR) == SDMMC_OCR_ERASE_SEQ_ERR)
 2919              		.loc 1 1297 25
 2920 00d2 7B69     		ldr	r3, [r7, #20]
 2921 00d4 03F08053 		and	r3, r3, #268435456
 2922              		.loc 1 1297 11
 2923 00d8 002B     		cmp	r3, #0
 2924 00da 02D0     		beq	.L103
1298:./Libraries/STM32H7xx_HAL_Driver/Src/stm32h7xx_ll_sdmmc.c ****   {
1299:./Libraries/STM32H7xx_HAL_Driver/Src/stm32h7xx_ll_sdmmc.c ****     return SDMMC_ERROR_ERASE_SEQ_ERR;
 2925              		.loc 1 1299 12
 2926 00dc 4FF48073 		mov	r3, #256
 2927 00e0 71E0     		b	.L94
 2928              	.L103:
1300:./Libraries/STM32H7xx_HAL_Driver/Src/stm32h7xx_ll_sdmmc.c ****   }
1301:./Libraries/STM32H7xx_HAL_Driver/Src/stm32h7xx_ll_sdmmc.c ****   else if ((response_r1 & SDMMC_OCR_BAD_ERASE_PARAM) == SDMMC_OCR_BAD_ERASE_PARAM)
 2929              		.loc 1 1301 25
 2930 00e2 7B69     		ldr	r3, [r7, #20]
 2931 00e4 03F00063 		and	r3, r3, #134217728
 2932              		.loc 1 1301 11
ARM GAS  /tmp/ccUwcR4B.s 			page 74


 2933 00e8 002B     		cmp	r3, #0
 2934 00ea 02D0     		beq	.L104
1302:./Libraries/STM32H7xx_HAL_Driver/Src/stm32h7xx_ll_sdmmc.c ****   {
1303:./Libraries/STM32H7xx_HAL_Driver/Src/stm32h7xx_ll_sdmmc.c ****     return SDMMC_ERROR_BAD_ERASE_PARAM;
 2935              		.loc 1 1303 12
 2936 00ec 4FF40073 		mov	r3, #512
 2937 00f0 69E0     		b	.L94
 2938              	.L104:
1304:./Libraries/STM32H7xx_HAL_Driver/Src/stm32h7xx_ll_sdmmc.c ****   }
1305:./Libraries/STM32H7xx_HAL_Driver/Src/stm32h7xx_ll_sdmmc.c ****   else if ((response_r1 & SDMMC_OCR_WRITE_PROT_VIOLATION) == SDMMC_OCR_WRITE_PROT_VIOLATION)
 2939              		.loc 1 1305 25
 2940 00f2 7B69     		ldr	r3, [r7, #20]
 2941 00f4 03F08063 		and	r3, r3, #67108864
 2942              		.loc 1 1305 11
 2943 00f8 002B     		cmp	r3, #0
 2944 00fa 02D0     		beq	.L105
1306:./Libraries/STM32H7xx_HAL_Driver/Src/stm32h7xx_ll_sdmmc.c ****   {
1307:./Libraries/STM32H7xx_HAL_Driver/Src/stm32h7xx_ll_sdmmc.c ****     return SDMMC_ERROR_WRITE_PROT_VIOLATION;
 2945              		.loc 1 1307 12
 2946 00fc 4FF48063 		mov	r3, #1024
 2947 0100 61E0     		b	.L94
 2948              	.L105:
1308:./Libraries/STM32H7xx_HAL_Driver/Src/stm32h7xx_ll_sdmmc.c ****   }
1309:./Libraries/STM32H7xx_HAL_Driver/Src/stm32h7xx_ll_sdmmc.c ****   else if ((response_r1 & SDMMC_OCR_LOCK_UNLOCK_FAILED) == SDMMC_OCR_LOCK_UNLOCK_FAILED)
 2949              		.loc 1 1309 25
 2950 0102 7B69     		ldr	r3, [r7, #20]
 2951 0104 03F08073 		and	r3, r3, #16777216
 2952              		.loc 1 1309 11
 2953 0108 002B     		cmp	r3, #0
 2954 010a 02D0     		beq	.L106
1310:./Libraries/STM32H7xx_HAL_Driver/Src/stm32h7xx_ll_sdmmc.c ****   {
1311:./Libraries/STM32H7xx_HAL_Driver/Src/stm32h7xx_ll_sdmmc.c ****     return SDMMC_ERROR_LOCK_UNLOCK_FAILED;
 2955              		.loc 1 1311 12
 2956 010c 4FF40063 		mov	r3, #2048
 2957 0110 59E0     		b	.L94
 2958              	.L106:
1312:./Libraries/STM32H7xx_HAL_Driver/Src/stm32h7xx_ll_sdmmc.c ****   }
1313:./Libraries/STM32H7xx_HAL_Driver/Src/stm32h7xx_ll_sdmmc.c ****   else if ((response_r1 & SDMMC_OCR_COM_CRC_FAILED) == SDMMC_OCR_COM_CRC_FAILED)
 2959              		.loc 1 1313 25
 2960 0112 7B69     		ldr	r3, [r7, #20]
 2961 0114 03F40003 		and	r3, r3, #8388608
 2962              		.loc 1 1313 11
 2963 0118 002B     		cmp	r3, #0
 2964 011a 02D0     		beq	.L107
1314:./Libraries/STM32H7xx_HAL_Driver/Src/stm32h7xx_ll_sdmmc.c ****   {
1315:./Libraries/STM32H7xx_HAL_Driver/Src/stm32h7xx_ll_sdmmc.c ****     return SDMMC_ERROR_COM_CRC_FAILED;
 2965              		.loc 1 1315 12
 2966 011c 4FF48053 		mov	r3, #4096
 2967 0120 51E0     		b	.L94
 2968              	.L107:
1316:./Libraries/STM32H7xx_HAL_Driver/Src/stm32h7xx_ll_sdmmc.c ****   }
1317:./Libraries/STM32H7xx_HAL_Driver/Src/stm32h7xx_ll_sdmmc.c ****   else if ((response_r1 & SDMMC_OCR_ILLEGAL_CMD) == SDMMC_OCR_ILLEGAL_CMD)
 2969              		.loc 1 1317 25
 2970 0122 7B69     		ldr	r3, [r7, #20]
 2971 0124 03F48003 		and	r3, r3, #4194304
 2972              		.loc 1 1317 11
 2973 0128 002B     		cmp	r3, #0
ARM GAS  /tmp/ccUwcR4B.s 			page 75


 2974 012a 02D0     		beq	.L108
1318:./Libraries/STM32H7xx_HAL_Driver/Src/stm32h7xx_ll_sdmmc.c ****   {
1319:./Libraries/STM32H7xx_HAL_Driver/Src/stm32h7xx_ll_sdmmc.c ****     return SDMMC_ERROR_ILLEGAL_CMD;
 2975              		.loc 1 1319 12
 2976 012c 4FF40053 		mov	r3, #8192
 2977 0130 49E0     		b	.L94
 2978              	.L108:
1320:./Libraries/STM32H7xx_HAL_Driver/Src/stm32h7xx_ll_sdmmc.c ****   }
1321:./Libraries/STM32H7xx_HAL_Driver/Src/stm32h7xx_ll_sdmmc.c ****   else if ((response_r1 & SDMMC_OCR_CARD_ECC_FAILED) == SDMMC_OCR_CARD_ECC_FAILED)
 2979              		.loc 1 1321 25
 2980 0132 7B69     		ldr	r3, [r7, #20]
 2981 0134 03F40013 		and	r3, r3, #2097152
 2982              		.loc 1 1321 11
 2983 0138 002B     		cmp	r3, #0
 2984 013a 02D0     		beq	.L109
1322:./Libraries/STM32H7xx_HAL_Driver/Src/stm32h7xx_ll_sdmmc.c ****   {
1323:./Libraries/STM32H7xx_HAL_Driver/Src/stm32h7xx_ll_sdmmc.c ****     return SDMMC_ERROR_CARD_ECC_FAILED;
 2985              		.loc 1 1323 12
 2986 013c 4FF48043 		mov	r3, #16384
 2987 0140 41E0     		b	.L94
 2988              	.L109:
1324:./Libraries/STM32H7xx_HAL_Driver/Src/stm32h7xx_ll_sdmmc.c ****   }
1325:./Libraries/STM32H7xx_HAL_Driver/Src/stm32h7xx_ll_sdmmc.c ****   else if ((response_r1 & SDMMC_OCR_CC_ERROR) == SDMMC_OCR_CC_ERROR)
 2989              		.loc 1 1325 25
 2990 0142 7B69     		ldr	r3, [r7, #20]
 2991 0144 03F48013 		and	r3, r3, #1048576
 2992              		.loc 1 1325 11
 2993 0148 002B     		cmp	r3, #0
 2994 014a 02D0     		beq	.L110
1326:./Libraries/STM32H7xx_HAL_Driver/Src/stm32h7xx_ll_sdmmc.c ****   {
1327:./Libraries/STM32H7xx_HAL_Driver/Src/stm32h7xx_ll_sdmmc.c ****     return SDMMC_ERROR_CC_ERR;
 2995              		.loc 1 1327 12
 2996 014c 4FF40043 		mov	r3, #32768
 2997 0150 39E0     		b	.L94
 2998              	.L110:
1328:./Libraries/STM32H7xx_HAL_Driver/Src/stm32h7xx_ll_sdmmc.c ****   }
1329:./Libraries/STM32H7xx_HAL_Driver/Src/stm32h7xx_ll_sdmmc.c ****   else if ((response_r1 & SDMMC_OCR_STREAM_READ_UNDERRUN) == SDMMC_OCR_STREAM_READ_UNDERRUN)
 2999              		.loc 1 1329 25
 3000 0152 7B69     		ldr	r3, [r7, #20]
 3001 0154 03F48023 		and	r3, r3, #262144
 3002              		.loc 1 1329 11
 3003 0158 002B     		cmp	r3, #0
 3004 015a 02D0     		beq	.L111
1330:./Libraries/STM32H7xx_HAL_Driver/Src/stm32h7xx_ll_sdmmc.c ****   {
1331:./Libraries/STM32H7xx_HAL_Driver/Src/stm32h7xx_ll_sdmmc.c ****     return SDMMC_ERROR_STREAM_READ_UNDERRUN;
 3005              		.loc 1 1331 12
 3006 015c 4FF40033 		mov	r3, #131072
 3007 0160 31E0     		b	.L94
 3008              	.L111:
1332:./Libraries/STM32H7xx_HAL_Driver/Src/stm32h7xx_ll_sdmmc.c ****   }
1333:./Libraries/STM32H7xx_HAL_Driver/Src/stm32h7xx_ll_sdmmc.c ****   else if ((response_r1 & SDMMC_OCR_STREAM_WRITE_OVERRUN) == SDMMC_OCR_STREAM_WRITE_OVERRUN)
 3009              		.loc 1 1333 25
 3010 0162 7B69     		ldr	r3, [r7, #20]
 3011 0164 03F40033 		and	r3, r3, #131072
 3012              		.loc 1 1333 11
 3013 0168 002B     		cmp	r3, #0
 3014 016a 02D0     		beq	.L112
ARM GAS  /tmp/ccUwcR4B.s 			page 76


1334:./Libraries/STM32H7xx_HAL_Driver/Src/stm32h7xx_ll_sdmmc.c ****   {
1335:./Libraries/STM32H7xx_HAL_Driver/Src/stm32h7xx_ll_sdmmc.c ****     return SDMMC_ERROR_STREAM_WRITE_OVERRUN;
 3015              		.loc 1 1335 12
 3016 016c 4FF48023 		mov	r3, #262144
 3017 0170 29E0     		b	.L94
 3018              	.L112:
1336:./Libraries/STM32H7xx_HAL_Driver/Src/stm32h7xx_ll_sdmmc.c ****   }
1337:./Libraries/STM32H7xx_HAL_Driver/Src/stm32h7xx_ll_sdmmc.c ****   else if ((response_r1 & SDMMC_OCR_CID_CSD_OVERWRITE) == SDMMC_OCR_CID_CSD_OVERWRITE)
 3019              		.loc 1 1337 25
 3020 0172 7B69     		ldr	r3, [r7, #20]
 3021 0174 03F48033 		and	r3, r3, #65536
 3022              		.loc 1 1337 11
 3023 0178 002B     		cmp	r3, #0
 3024 017a 02D0     		beq	.L113
1338:./Libraries/STM32H7xx_HAL_Driver/Src/stm32h7xx_ll_sdmmc.c ****   {
1339:./Libraries/STM32H7xx_HAL_Driver/Src/stm32h7xx_ll_sdmmc.c ****     return SDMMC_ERROR_CID_CSD_OVERWRITE;
 3025              		.loc 1 1339 12
 3026 017c 4FF40023 		mov	r3, #524288
 3027 0180 21E0     		b	.L94
 3028              	.L113:
1340:./Libraries/STM32H7xx_HAL_Driver/Src/stm32h7xx_ll_sdmmc.c ****   }
1341:./Libraries/STM32H7xx_HAL_Driver/Src/stm32h7xx_ll_sdmmc.c ****   else if ((response_r1 & SDMMC_OCR_WP_ERASE_SKIP) == SDMMC_OCR_WP_ERASE_SKIP)
 3029              		.loc 1 1341 25
 3030 0182 7B69     		ldr	r3, [r7, #20]
 3031 0184 03F40043 		and	r3, r3, #32768
 3032              		.loc 1 1341 11
 3033 0188 002B     		cmp	r3, #0
 3034 018a 02D0     		beq	.L114
1342:./Libraries/STM32H7xx_HAL_Driver/Src/stm32h7xx_ll_sdmmc.c ****   {
1343:./Libraries/STM32H7xx_HAL_Driver/Src/stm32h7xx_ll_sdmmc.c ****     return SDMMC_ERROR_WP_ERASE_SKIP;
 3035              		.loc 1 1343 12
 3036 018c 4FF48013 		mov	r3, #1048576
 3037 0190 19E0     		b	.L94
 3038              	.L114:
1344:./Libraries/STM32H7xx_HAL_Driver/Src/stm32h7xx_ll_sdmmc.c ****   }
1345:./Libraries/STM32H7xx_HAL_Driver/Src/stm32h7xx_ll_sdmmc.c ****   else if ((response_r1 & SDMMC_OCR_CARD_ECC_DISABLED) == SDMMC_OCR_CARD_ECC_DISABLED)
 3039              		.loc 1 1345 25
 3040 0192 7B69     		ldr	r3, [r7, #20]
 3041 0194 03F48043 		and	r3, r3, #16384
 3042              		.loc 1 1345 11
 3043 0198 002B     		cmp	r3, #0
 3044 019a 02D0     		beq	.L115
1346:./Libraries/STM32H7xx_HAL_Driver/Src/stm32h7xx_ll_sdmmc.c ****   {
1347:./Libraries/STM32H7xx_HAL_Driver/Src/stm32h7xx_ll_sdmmc.c ****     return SDMMC_ERROR_CARD_ECC_DISABLED;
 3045              		.loc 1 1347 12
 3046 019c 4FF40013 		mov	r3, #2097152
 3047 01a0 11E0     		b	.L94
 3048              	.L115:
1348:./Libraries/STM32H7xx_HAL_Driver/Src/stm32h7xx_ll_sdmmc.c ****   }
1349:./Libraries/STM32H7xx_HAL_Driver/Src/stm32h7xx_ll_sdmmc.c ****   else if ((response_r1 & SDMMC_OCR_ERASE_RESET) == SDMMC_OCR_ERASE_RESET)
 3049              		.loc 1 1349 25
 3050 01a2 7B69     		ldr	r3, [r7, #20]
 3051 01a4 03F40053 		and	r3, r3, #8192
 3052              		.loc 1 1349 11
 3053 01a8 002B     		cmp	r3, #0
 3054 01aa 02D0     		beq	.L116
1350:./Libraries/STM32H7xx_HAL_Driver/Src/stm32h7xx_ll_sdmmc.c ****   {
ARM GAS  /tmp/ccUwcR4B.s 			page 77


1351:./Libraries/STM32H7xx_HAL_Driver/Src/stm32h7xx_ll_sdmmc.c ****     return SDMMC_ERROR_ERASE_RESET;
 3055              		.loc 1 1351 12
 3056 01ac 4FF48003 		mov	r3, #4194304
 3057 01b0 09E0     		b	.L94
 3058              	.L116:
1352:./Libraries/STM32H7xx_HAL_Driver/Src/stm32h7xx_ll_sdmmc.c ****   }
1353:./Libraries/STM32H7xx_HAL_Driver/Src/stm32h7xx_ll_sdmmc.c ****   else if ((response_r1 & SDMMC_OCR_AKE_SEQ_ERROR) == SDMMC_OCR_AKE_SEQ_ERROR)
 3059              		.loc 1 1353 25
 3060 01b2 7B69     		ldr	r3, [r7, #20]
 3061 01b4 03F00803 		and	r3, r3, #8
 3062              		.loc 1 1353 11
 3063 01b8 002B     		cmp	r3, #0
 3064 01ba 02D0     		beq	.L117
1354:./Libraries/STM32H7xx_HAL_Driver/Src/stm32h7xx_ll_sdmmc.c ****   {
1355:./Libraries/STM32H7xx_HAL_Driver/Src/stm32h7xx_ll_sdmmc.c ****     return SDMMC_ERROR_AKE_SEQ_ERR;
 3065              		.loc 1 1355 12
 3066 01bc 4FF40003 		mov	r3, #8388608
 3067 01c0 01E0     		b	.L94
 3068              	.L117:
1356:./Libraries/STM32H7xx_HAL_Driver/Src/stm32h7xx_ll_sdmmc.c ****   }
1357:./Libraries/STM32H7xx_HAL_Driver/Src/stm32h7xx_ll_sdmmc.c ****   else
1358:./Libraries/STM32H7xx_HAL_Driver/Src/stm32h7xx_ll_sdmmc.c ****   {
1359:./Libraries/STM32H7xx_HAL_Driver/Src/stm32h7xx_ll_sdmmc.c ****     return SDMMC_ERROR_GENERAL_UNKNOWN_ERR;
 3069              		.loc 1 1359 12
 3070 01c2 4FF48033 		mov	r3, #65536
 3071              	.L94:
1360:./Libraries/STM32H7xx_HAL_Driver/Src/stm32h7xx_ll_sdmmc.c ****   }
1361:./Libraries/STM32H7xx_HAL_Driver/Src/stm32h7xx_ll_sdmmc.c **** }
 3072              		.loc 1 1361 1
 3073 01c6 1846     		mov	r0, r3
 3074 01c8 2037     		adds	r7, r7, #32
 3075              	.LCFI229:
 3076              		.cfi_def_cfa_offset 8
 3077 01ca BD46     		mov	sp, r7
 3078              	.LCFI230:
 3079              		.cfi_def_cfa_register 13
 3080              		@ sp needed
 3081 01cc 80BD     		pop	{r7, pc}
 3082              	.L119:
 3083 01ce 00BF     		.align	2
 3084              	.L118:
 3085 01d0 00000000 		.word	SystemCoreClock
 3086 01d4 D34D6210 		.word	274877907
 3087 01d8 45002000 		.word	2097221
 3088 01dc C5002000 		.word	2097349
 3089 01e0 08E0FFFD 		.word	-33562616
 3090              		.cfi_endproc
 3091              	.LFE373:
 3093              		.section	.text.SDMMC_GetCmdResp2,"ax",%progbits
 3094              		.align	1
 3095              		.global	SDMMC_GetCmdResp2
 3096              		.syntax unified
 3097              		.thumb
 3098              		.thumb_func
 3099              		.fpu fpv5-d16
 3101              	SDMMC_GetCmdResp2:
 3102              	.LFB374:
ARM GAS  /tmp/ccUwcR4B.s 			page 78


1362:./Libraries/STM32H7xx_HAL_Driver/Src/stm32h7xx_ll_sdmmc.c **** 
1363:./Libraries/STM32H7xx_HAL_Driver/Src/stm32h7xx_ll_sdmmc.c **** /**
1364:./Libraries/STM32H7xx_HAL_Driver/Src/stm32h7xx_ll_sdmmc.c ****   * @brief  Checks for error conditions for R2 (CID or CSD) response.
1365:./Libraries/STM32H7xx_HAL_Driver/Src/stm32h7xx_ll_sdmmc.c ****   * @param  hsd: SD handle
1366:./Libraries/STM32H7xx_HAL_Driver/Src/stm32h7xx_ll_sdmmc.c ****   * @retval SD Card error state
1367:./Libraries/STM32H7xx_HAL_Driver/Src/stm32h7xx_ll_sdmmc.c ****   */
1368:./Libraries/STM32H7xx_HAL_Driver/Src/stm32h7xx_ll_sdmmc.c **** uint32_t SDMMC_GetCmdResp2(SDMMC_TypeDef *SDMMCx)
1369:./Libraries/STM32H7xx_HAL_Driver/Src/stm32h7xx_ll_sdmmc.c **** {
 3103              		.loc 1 1369 1
 3104              		.cfi_startproc
 3105              		@ args = 0, pretend = 0, frame = 16
 3106              		@ frame_needed = 1, uses_anonymous_args = 0
 3107              		@ link register save eliminated.
 3108 0000 80B4     		push	{r7}
 3109              	.LCFI231:
 3110              		.cfi_def_cfa_offset 4
 3111              		.cfi_offset 7, -4
 3112 0002 85B0     		sub	sp, sp, #20
 3113              	.LCFI232:
 3114              		.cfi_def_cfa_offset 24
 3115 0004 00AF     		add	r7, sp, #0
 3116              	.LCFI233:
 3117              		.cfi_def_cfa_register 7
 3118 0006 7860     		str	r0, [r7, #4]
1370:./Libraries/STM32H7xx_HAL_Driver/Src/stm32h7xx_ll_sdmmc.c ****   uint32_t sta_reg;
1371:./Libraries/STM32H7xx_HAL_Driver/Src/stm32h7xx_ll_sdmmc.c ****   /* 8 is the number of required instructions cycles for the below loop statement.
1372:./Libraries/STM32H7xx_HAL_Driver/Src/stm32h7xx_ll_sdmmc.c ****   The SDMMC_CMDTIMEOUT is expressed in ms */
1373:./Libraries/STM32H7xx_HAL_Driver/Src/stm32h7xx_ll_sdmmc.c ****   uint32_t count = SDMMC_CMDTIMEOUT * (SystemCoreClock / 8U / 1000U);
 3119              		.loc 1 1373 61
 3120 0008 1F4B     		ldr	r3, .L126
 3121 000a 1B68     		ldr	r3, [r3]
 3122 000c 1F4A     		ldr	r2, .L126+4
 3123 000e A2FB0323 		umull	r2, r3, r2, r3
 3124 0012 5B0A     		lsrs	r3, r3, #9
 3125              		.loc 1 1373 12
 3126 0014 41F28832 		movw	r2, #5000
 3127 0018 02FB03F3 		mul	r3, r2, r3
 3128 001c FB60     		str	r3, [r7, #12]
 3129              	.L123:
1374:./Libraries/STM32H7xx_HAL_Driver/Src/stm32h7xx_ll_sdmmc.c **** 
1375:./Libraries/STM32H7xx_HAL_Driver/Src/stm32h7xx_ll_sdmmc.c ****   do
1376:./Libraries/STM32H7xx_HAL_Driver/Src/stm32h7xx_ll_sdmmc.c ****   {
1377:./Libraries/STM32H7xx_HAL_Driver/Src/stm32h7xx_ll_sdmmc.c ****     if (count-- == 0U)
 3130              		.loc 1 1377 14
 3131 001e FB68     		ldr	r3, [r7, #12]
 3132 0020 5A1E     		subs	r2, r3, #1
 3133 0022 FA60     		str	r2, [r7, #12]
 3134              		.loc 1 1377 8
 3135 0024 002B     		cmp	r3, #0
 3136 0026 02D1     		bne	.L121
1378:./Libraries/STM32H7xx_HAL_Driver/Src/stm32h7xx_ll_sdmmc.c ****     {
1379:./Libraries/STM32H7xx_HAL_Driver/Src/stm32h7xx_ll_sdmmc.c ****       return SDMMC_ERROR_TIMEOUT;
 3137              		.loc 1 1379 14
 3138 0028 4FF00043 		mov	r3, #-2147483648
 3139 002c 26E0     		b	.L122
 3140              	.L121:
1380:./Libraries/STM32H7xx_HAL_Driver/Src/stm32h7xx_ll_sdmmc.c ****     }
ARM GAS  /tmp/ccUwcR4B.s 			page 79


1381:./Libraries/STM32H7xx_HAL_Driver/Src/stm32h7xx_ll_sdmmc.c ****     sta_reg = SDMMCx->STA;
 3141              		.loc 1 1381 13
 3142 002e 7B68     		ldr	r3, [r7, #4]
 3143 0030 5B6B     		ldr	r3, [r3, #52]
 3144 0032 BB60     		str	r3, [r7, #8]
1382:./Libraries/STM32H7xx_HAL_Driver/Src/stm32h7xx_ll_sdmmc.c ****   } while (((sta_reg & (SDMMC_FLAG_CCRCFAIL | SDMMC_FLAG_CMDREND | SDMMC_FLAG_CTIMEOUT)) == 0U) ||
 3145              		.loc 1 1382 22
 3146 0034 BB68     		ldr	r3, [r7, #8]
 3147 0036 03F04503 		and	r3, r3, #69
1383:./Libraries/STM32H7xx_HAL_Driver/Src/stm32h7xx_ll_sdmmc.c ****            ((sta_reg & SDMMC_FLAG_CMDACT) != 0U));
 3148              		.loc 1 1383 12
 3149 003a 002B     		cmp	r3, #0
 3150 003c EFD0     		beq	.L123
 3151              		.loc 1 1383 22 discriminator 1
 3152 003e BB68     		ldr	r3, [r7, #8]
 3153 0040 03F40053 		and	r3, r3, #8192
1382:./Libraries/STM32H7xx_HAL_Driver/Src/stm32h7xx_ll_sdmmc.c ****   } while (((sta_reg & (SDMMC_FLAG_CCRCFAIL | SDMMC_FLAG_CMDREND | SDMMC_FLAG_CTIMEOUT)) == 0U) ||
 3154              		.loc 1 1382 97 discriminator 1
 3155 0044 002B     		cmp	r3, #0
 3156 0046 EAD1     		bne	.L123
1384:./Libraries/STM32H7xx_HAL_Driver/Src/stm32h7xx_ll_sdmmc.c **** 
1385:./Libraries/STM32H7xx_HAL_Driver/Src/stm32h7xx_ll_sdmmc.c ****   if (__SDMMC_GET_FLAG(SDMMCx, SDMMC_FLAG_CTIMEOUT))
 3157              		.loc 1 1385 7
 3158 0048 7B68     		ldr	r3, [r7, #4]
 3159 004a 5B6B     		ldr	r3, [r3, #52]
 3160 004c 03F00403 		and	r3, r3, #4
 3161              		.loc 1 1385 6
 3162 0050 002B     		cmp	r3, #0
 3163 0052 04D0     		beq	.L124
1386:./Libraries/STM32H7xx_HAL_Driver/Src/stm32h7xx_ll_sdmmc.c ****   {
1387:./Libraries/STM32H7xx_HAL_Driver/Src/stm32h7xx_ll_sdmmc.c ****     __SDMMC_CLEAR_FLAG(SDMMCx, SDMMC_FLAG_CTIMEOUT);
 3164              		.loc 1 1387 5
 3165 0054 7B68     		ldr	r3, [r7, #4]
 3166 0056 0422     		movs	r2, #4
 3167 0058 9A63     		str	r2, [r3, #56]
1388:./Libraries/STM32H7xx_HAL_Driver/Src/stm32h7xx_ll_sdmmc.c **** 
1389:./Libraries/STM32H7xx_HAL_Driver/Src/stm32h7xx_ll_sdmmc.c ****     return SDMMC_ERROR_CMD_RSP_TIMEOUT;
 3168              		.loc 1 1389 12
 3169 005a 0423     		movs	r3, #4
 3170 005c 0EE0     		b	.L122
 3171              	.L124:
1390:./Libraries/STM32H7xx_HAL_Driver/Src/stm32h7xx_ll_sdmmc.c ****   }
1391:./Libraries/STM32H7xx_HAL_Driver/Src/stm32h7xx_ll_sdmmc.c ****   else if (__SDMMC_GET_FLAG(SDMMCx, SDMMC_FLAG_CCRCFAIL))
 3172              		.loc 1 1391 12
 3173 005e 7B68     		ldr	r3, [r7, #4]
 3174 0060 5B6B     		ldr	r3, [r3, #52]
 3175 0062 03F00103 		and	r3, r3, #1
 3176              		.loc 1 1391 11
 3177 0066 002B     		cmp	r3, #0
 3178 0068 04D0     		beq	.L125
1392:./Libraries/STM32H7xx_HAL_Driver/Src/stm32h7xx_ll_sdmmc.c ****   {
1393:./Libraries/STM32H7xx_HAL_Driver/Src/stm32h7xx_ll_sdmmc.c ****     __SDMMC_CLEAR_FLAG(SDMMCx, SDMMC_FLAG_CCRCFAIL);
 3179              		.loc 1 1393 5
 3180 006a 7B68     		ldr	r3, [r7, #4]
 3181 006c 0122     		movs	r2, #1
 3182 006e 9A63     		str	r2, [r3, #56]
1394:./Libraries/STM32H7xx_HAL_Driver/Src/stm32h7xx_ll_sdmmc.c **** 
ARM GAS  /tmp/ccUwcR4B.s 			page 80


1395:./Libraries/STM32H7xx_HAL_Driver/Src/stm32h7xx_ll_sdmmc.c ****     return SDMMC_ERROR_CMD_CRC_FAIL;
 3183              		.loc 1 1395 12
 3184 0070 0123     		movs	r3, #1
 3185 0072 03E0     		b	.L122
 3186              	.L125:
1396:./Libraries/STM32H7xx_HAL_Driver/Src/stm32h7xx_ll_sdmmc.c ****   }
1397:./Libraries/STM32H7xx_HAL_Driver/Src/stm32h7xx_ll_sdmmc.c ****   else
1398:./Libraries/STM32H7xx_HAL_Driver/Src/stm32h7xx_ll_sdmmc.c ****   {
1399:./Libraries/STM32H7xx_HAL_Driver/Src/stm32h7xx_ll_sdmmc.c ****     /* No error flag set */
1400:./Libraries/STM32H7xx_HAL_Driver/Src/stm32h7xx_ll_sdmmc.c ****     /* Clear all the static flags */
1401:./Libraries/STM32H7xx_HAL_Driver/Src/stm32h7xx_ll_sdmmc.c ****     __SDMMC_CLEAR_FLAG(SDMMCx, SDMMC_STATIC_CMD_FLAGS);
 3187              		.loc 1 1401 5
 3188 0074 7B68     		ldr	r3, [r7, #4]
 3189 0076 064A     		ldr	r2, .L126+8
 3190 0078 9A63     		str	r2, [r3, #56]
1402:./Libraries/STM32H7xx_HAL_Driver/Src/stm32h7xx_ll_sdmmc.c ****   }
1403:./Libraries/STM32H7xx_HAL_Driver/Src/stm32h7xx_ll_sdmmc.c **** 
1404:./Libraries/STM32H7xx_HAL_Driver/Src/stm32h7xx_ll_sdmmc.c ****   return SDMMC_ERROR_NONE;
 3191              		.loc 1 1404 10
 3192 007a 0023     		movs	r3, #0
 3193              	.L122:
1405:./Libraries/STM32H7xx_HAL_Driver/Src/stm32h7xx_ll_sdmmc.c **** }
 3194              		.loc 1 1405 1
 3195 007c 1846     		mov	r0, r3
 3196 007e 1437     		adds	r7, r7, #20
 3197              	.LCFI234:
 3198              		.cfi_def_cfa_offset 4
 3199 0080 BD46     		mov	sp, r7
 3200              	.LCFI235:
 3201              		.cfi_def_cfa_register 13
 3202              		@ sp needed
 3203 0082 5DF8047B 		ldr	r7, [sp], #4
 3204              	.LCFI236:
 3205              		.cfi_restore 7
 3206              		.cfi_def_cfa_offset 0
 3207 0086 7047     		bx	lr
 3208              	.L127:
 3209              		.align	2
 3210              	.L126:
 3211 0088 00000000 		.word	SystemCoreClock
 3212 008c D34D6210 		.word	274877907
 3213 0090 C5002000 		.word	2097349
 3214              		.cfi_endproc
 3215              	.LFE374:
 3217              		.section	.text.SDMMC_GetCmdResp3,"ax",%progbits
 3218              		.align	1
 3219              		.global	SDMMC_GetCmdResp3
 3220              		.syntax unified
 3221              		.thumb
 3222              		.thumb_func
 3223              		.fpu fpv5-d16
 3225              	SDMMC_GetCmdResp3:
 3226              	.LFB375:
1406:./Libraries/STM32H7xx_HAL_Driver/Src/stm32h7xx_ll_sdmmc.c **** 
1407:./Libraries/STM32H7xx_HAL_Driver/Src/stm32h7xx_ll_sdmmc.c **** /**
1408:./Libraries/STM32H7xx_HAL_Driver/Src/stm32h7xx_ll_sdmmc.c ****   * @brief  Checks for error conditions for R3 (OCR) response.
1409:./Libraries/STM32H7xx_HAL_Driver/Src/stm32h7xx_ll_sdmmc.c ****   * @param  hsd: SD handle
ARM GAS  /tmp/ccUwcR4B.s 			page 81


1410:./Libraries/STM32H7xx_HAL_Driver/Src/stm32h7xx_ll_sdmmc.c ****   * @retval SD Card error state
1411:./Libraries/STM32H7xx_HAL_Driver/Src/stm32h7xx_ll_sdmmc.c ****   */
1412:./Libraries/STM32H7xx_HAL_Driver/Src/stm32h7xx_ll_sdmmc.c **** uint32_t SDMMC_GetCmdResp3(SDMMC_TypeDef *SDMMCx)
1413:./Libraries/STM32H7xx_HAL_Driver/Src/stm32h7xx_ll_sdmmc.c **** {
 3227              		.loc 1 1413 1
 3228              		.cfi_startproc
 3229              		@ args = 0, pretend = 0, frame = 16
 3230              		@ frame_needed = 1, uses_anonymous_args = 0
 3231              		@ link register save eliminated.
 3232 0000 80B4     		push	{r7}
 3233              	.LCFI237:
 3234              		.cfi_def_cfa_offset 4
 3235              		.cfi_offset 7, -4
 3236 0002 85B0     		sub	sp, sp, #20
 3237              	.LCFI238:
 3238              		.cfi_def_cfa_offset 24
 3239 0004 00AF     		add	r7, sp, #0
 3240              	.LCFI239:
 3241              		.cfi_def_cfa_register 7
 3242 0006 7860     		str	r0, [r7, #4]
1414:./Libraries/STM32H7xx_HAL_Driver/Src/stm32h7xx_ll_sdmmc.c ****   uint32_t sta_reg;
1415:./Libraries/STM32H7xx_HAL_Driver/Src/stm32h7xx_ll_sdmmc.c ****   /* 8 is the number of required instructions cycles for the below loop statement.
1416:./Libraries/STM32H7xx_HAL_Driver/Src/stm32h7xx_ll_sdmmc.c ****   The SDMMC_CMDTIMEOUT is expressed in ms */
1417:./Libraries/STM32H7xx_HAL_Driver/Src/stm32h7xx_ll_sdmmc.c ****   uint32_t count = SDMMC_CMDTIMEOUT * (SystemCoreClock / 8U / 1000U);
 3243              		.loc 1 1417 61
 3244 0008 1A4B     		ldr	r3, .L133
 3245 000a 1B68     		ldr	r3, [r3]
 3246 000c 1A4A     		ldr	r2, .L133+4
 3247 000e A2FB0323 		umull	r2, r3, r2, r3
 3248 0012 5B0A     		lsrs	r3, r3, #9
 3249              		.loc 1 1417 12
 3250 0014 41F28832 		movw	r2, #5000
 3251 0018 02FB03F3 		mul	r3, r2, r3
 3252 001c FB60     		str	r3, [r7, #12]
 3253              	.L131:
1418:./Libraries/STM32H7xx_HAL_Driver/Src/stm32h7xx_ll_sdmmc.c **** 
1419:./Libraries/STM32H7xx_HAL_Driver/Src/stm32h7xx_ll_sdmmc.c ****   do
1420:./Libraries/STM32H7xx_HAL_Driver/Src/stm32h7xx_ll_sdmmc.c ****   {
1421:./Libraries/STM32H7xx_HAL_Driver/Src/stm32h7xx_ll_sdmmc.c ****     if (count-- == 0U)
 3254              		.loc 1 1421 14
 3255 001e FB68     		ldr	r3, [r7, #12]
 3256 0020 5A1E     		subs	r2, r3, #1
 3257 0022 FA60     		str	r2, [r7, #12]
 3258              		.loc 1 1421 8
 3259 0024 002B     		cmp	r3, #0
 3260 0026 02D1     		bne	.L129
1422:./Libraries/STM32H7xx_HAL_Driver/Src/stm32h7xx_ll_sdmmc.c ****     {
1423:./Libraries/STM32H7xx_HAL_Driver/Src/stm32h7xx_ll_sdmmc.c ****       return SDMMC_ERROR_TIMEOUT;
 3261              		.loc 1 1423 14
 3262 0028 4FF00043 		mov	r3, #-2147483648
 3263 002c 1BE0     		b	.L130
 3264              	.L129:
1424:./Libraries/STM32H7xx_HAL_Driver/Src/stm32h7xx_ll_sdmmc.c ****     }
1425:./Libraries/STM32H7xx_HAL_Driver/Src/stm32h7xx_ll_sdmmc.c ****     sta_reg = SDMMCx->STA;
 3265              		.loc 1 1425 13
 3266 002e 7B68     		ldr	r3, [r7, #4]
 3267 0030 5B6B     		ldr	r3, [r3, #52]
ARM GAS  /tmp/ccUwcR4B.s 			page 82


 3268 0032 BB60     		str	r3, [r7, #8]
1426:./Libraries/STM32H7xx_HAL_Driver/Src/stm32h7xx_ll_sdmmc.c ****   } while (((sta_reg & (SDMMC_FLAG_CCRCFAIL | SDMMC_FLAG_CMDREND | SDMMC_FLAG_CTIMEOUT)) == 0U) ||
 3269              		.loc 1 1426 22
 3270 0034 BB68     		ldr	r3, [r7, #8]
 3271 0036 03F04503 		and	r3, r3, #69
1427:./Libraries/STM32H7xx_HAL_Driver/Src/stm32h7xx_ll_sdmmc.c ****            ((sta_reg & SDMMC_FLAG_CMDACT) != 0U));
 3272              		.loc 1 1427 12
 3273 003a 002B     		cmp	r3, #0
 3274 003c EFD0     		beq	.L131
 3275              		.loc 1 1427 22 discriminator 1
 3276 003e BB68     		ldr	r3, [r7, #8]
 3277 0040 03F40053 		and	r3, r3, #8192
1426:./Libraries/STM32H7xx_HAL_Driver/Src/stm32h7xx_ll_sdmmc.c ****   } while (((sta_reg & (SDMMC_FLAG_CCRCFAIL | SDMMC_FLAG_CMDREND | SDMMC_FLAG_CTIMEOUT)) == 0U) ||
 3278              		.loc 1 1426 97 discriminator 1
 3279 0044 002B     		cmp	r3, #0
 3280 0046 EAD1     		bne	.L131
1428:./Libraries/STM32H7xx_HAL_Driver/Src/stm32h7xx_ll_sdmmc.c **** 
1429:./Libraries/STM32H7xx_HAL_Driver/Src/stm32h7xx_ll_sdmmc.c ****   if (__SDMMC_GET_FLAG(SDMMCx, SDMMC_FLAG_CTIMEOUT))
 3281              		.loc 1 1429 7
 3282 0048 7B68     		ldr	r3, [r7, #4]
 3283 004a 5B6B     		ldr	r3, [r3, #52]
 3284 004c 03F00403 		and	r3, r3, #4
 3285              		.loc 1 1429 6
 3286 0050 002B     		cmp	r3, #0
 3287 0052 04D0     		beq	.L132
1430:./Libraries/STM32H7xx_HAL_Driver/Src/stm32h7xx_ll_sdmmc.c ****   {
1431:./Libraries/STM32H7xx_HAL_Driver/Src/stm32h7xx_ll_sdmmc.c ****     __SDMMC_CLEAR_FLAG(SDMMCx, SDMMC_FLAG_CTIMEOUT);
 3288              		.loc 1 1431 5
 3289 0054 7B68     		ldr	r3, [r7, #4]
 3290 0056 0422     		movs	r2, #4
 3291 0058 9A63     		str	r2, [r3, #56]
1432:./Libraries/STM32H7xx_HAL_Driver/Src/stm32h7xx_ll_sdmmc.c **** 
1433:./Libraries/STM32H7xx_HAL_Driver/Src/stm32h7xx_ll_sdmmc.c ****     return SDMMC_ERROR_CMD_RSP_TIMEOUT;
 3292              		.loc 1 1433 12
 3293 005a 0423     		movs	r3, #4
 3294 005c 03E0     		b	.L130
 3295              	.L132:
1434:./Libraries/STM32H7xx_HAL_Driver/Src/stm32h7xx_ll_sdmmc.c ****   }
1435:./Libraries/STM32H7xx_HAL_Driver/Src/stm32h7xx_ll_sdmmc.c ****   else
1436:./Libraries/STM32H7xx_HAL_Driver/Src/stm32h7xx_ll_sdmmc.c ****   {
1437:./Libraries/STM32H7xx_HAL_Driver/Src/stm32h7xx_ll_sdmmc.c ****     /* Clear all the static flags */
1438:./Libraries/STM32H7xx_HAL_Driver/Src/stm32h7xx_ll_sdmmc.c ****     __SDMMC_CLEAR_FLAG(SDMMCx, SDMMC_STATIC_CMD_FLAGS);
 3296              		.loc 1 1438 5
 3297 005e 7B68     		ldr	r3, [r7, #4]
 3298 0060 064A     		ldr	r2, .L133+8
 3299 0062 9A63     		str	r2, [r3, #56]
1439:./Libraries/STM32H7xx_HAL_Driver/Src/stm32h7xx_ll_sdmmc.c ****   }
1440:./Libraries/STM32H7xx_HAL_Driver/Src/stm32h7xx_ll_sdmmc.c **** 
1441:./Libraries/STM32H7xx_HAL_Driver/Src/stm32h7xx_ll_sdmmc.c ****   return SDMMC_ERROR_NONE;
 3300              		.loc 1 1441 10
 3301 0064 0023     		movs	r3, #0
 3302              	.L130:
1442:./Libraries/STM32H7xx_HAL_Driver/Src/stm32h7xx_ll_sdmmc.c **** }
 3303              		.loc 1 1442 1
 3304 0066 1846     		mov	r0, r3
 3305 0068 1437     		adds	r7, r7, #20
 3306              	.LCFI240:
ARM GAS  /tmp/ccUwcR4B.s 			page 83


 3307              		.cfi_def_cfa_offset 4
 3308 006a BD46     		mov	sp, r7
 3309              	.LCFI241:
 3310              		.cfi_def_cfa_register 13
 3311              		@ sp needed
 3312 006c 5DF8047B 		ldr	r7, [sp], #4
 3313              	.LCFI242:
 3314              		.cfi_restore 7
 3315              		.cfi_def_cfa_offset 0
 3316 0070 7047     		bx	lr
 3317              	.L134:
 3318 0072 00BF     		.align	2
 3319              	.L133:
 3320 0074 00000000 		.word	SystemCoreClock
 3321 0078 D34D6210 		.word	274877907
 3322 007c C5002000 		.word	2097349
 3323              		.cfi_endproc
 3324              	.LFE375:
 3326              		.section	.text.SDMMC_GetCmdResp6,"ax",%progbits
 3327              		.align	1
 3328              		.global	SDMMC_GetCmdResp6
 3329              		.syntax unified
 3330              		.thumb
 3331              		.thumb_func
 3332              		.fpu fpv5-d16
 3334              	SDMMC_GetCmdResp6:
 3335              	.LFB376:
1443:./Libraries/STM32H7xx_HAL_Driver/Src/stm32h7xx_ll_sdmmc.c **** 
1444:./Libraries/STM32H7xx_HAL_Driver/Src/stm32h7xx_ll_sdmmc.c **** /**
1445:./Libraries/STM32H7xx_HAL_Driver/Src/stm32h7xx_ll_sdmmc.c ****   * @brief  Checks for error conditions for R6 (RCA) response.
1446:./Libraries/STM32H7xx_HAL_Driver/Src/stm32h7xx_ll_sdmmc.c ****   * @param  hsd: SD handle
1447:./Libraries/STM32H7xx_HAL_Driver/Src/stm32h7xx_ll_sdmmc.c ****   * @param  SD_CMD: The sent command index
1448:./Libraries/STM32H7xx_HAL_Driver/Src/stm32h7xx_ll_sdmmc.c ****   * @param  pRCA: Pointer to the variable that will contain the SD card relative
1449:./Libraries/STM32H7xx_HAL_Driver/Src/stm32h7xx_ll_sdmmc.c ****   *         address RCA
1450:./Libraries/STM32H7xx_HAL_Driver/Src/stm32h7xx_ll_sdmmc.c ****   * @retval SD Card error state
1451:./Libraries/STM32H7xx_HAL_Driver/Src/stm32h7xx_ll_sdmmc.c ****   */
1452:./Libraries/STM32H7xx_HAL_Driver/Src/stm32h7xx_ll_sdmmc.c **** uint32_t SDMMC_GetCmdResp6(SDMMC_TypeDef *SDMMCx, uint8_t SD_CMD, uint16_t *pRCA)
1453:./Libraries/STM32H7xx_HAL_Driver/Src/stm32h7xx_ll_sdmmc.c **** {
 3336              		.loc 1 1453 1
 3337              		.cfi_startproc
 3338              		@ args = 0, pretend = 0, frame = 32
 3339              		@ frame_needed = 1, uses_anonymous_args = 0
 3340 0000 80B5     		push	{r7, lr}
 3341              	.LCFI243:
 3342              		.cfi_def_cfa_offset 8
 3343              		.cfi_offset 7, -8
 3344              		.cfi_offset 14, -4
 3345 0002 88B0     		sub	sp, sp, #32
 3346              	.LCFI244:
 3347              		.cfi_def_cfa_offset 40
 3348 0004 00AF     		add	r7, sp, #0
 3349              	.LCFI245:
 3350              		.cfi_def_cfa_register 7
 3351 0006 F860     		str	r0, [r7, #12]
 3352 0008 0B46     		mov	r3, r1
 3353 000a 7A60     		str	r2, [r7, #4]
 3354 000c FB72     		strb	r3, [r7, #11]
ARM GAS  /tmp/ccUwcR4B.s 			page 84


1454:./Libraries/STM32H7xx_HAL_Driver/Src/stm32h7xx_ll_sdmmc.c ****   uint32_t response_r1;
1455:./Libraries/STM32H7xx_HAL_Driver/Src/stm32h7xx_ll_sdmmc.c ****   uint32_t sta_reg;
1456:./Libraries/STM32H7xx_HAL_Driver/Src/stm32h7xx_ll_sdmmc.c **** 
1457:./Libraries/STM32H7xx_HAL_Driver/Src/stm32h7xx_ll_sdmmc.c ****   /* 8 is the number of required instructions cycles for the below loop statement.
1458:./Libraries/STM32H7xx_HAL_Driver/Src/stm32h7xx_ll_sdmmc.c ****   The SDMMC_CMDTIMEOUT is expressed in ms */
1459:./Libraries/STM32H7xx_HAL_Driver/Src/stm32h7xx_ll_sdmmc.c ****   uint32_t count = SDMMC_CMDTIMEOUT * (SystemCoreClock / 8U / 1000U);
 3355              		.loc 1 1459 61
 3356 000e 354B     		ldr	r3, .L145
 3357 0010 1B68     		ldr	r3, [r3]
 3358 0012 354A     		ldr	r2, .L145+4
 3359 0014 A2FB0323 		umull	r2, r3, r2, r3
 3360 0018 5B0A     		lsrs	r3, r3, #9
 3361              		.loc 1 1459 12
 3362 001a 41F28832 		movw	r2, #5000
 3363 001e 02FB03F3 		mul	r3, r2, r3
 3364 0022 FB61     		str	r3, [r7, #28]
 3365              	.L138:
1460:./Libraries/STM32H7xx_HAL_Driver/Src/stm32h7xx_ll_sdmmc.c **** 
1461:./Libraries/STM32H7xx_HAL_Driver/Src/stm32h7xx_ll_sdmmc.c ****   do
1462:./Libraries/STM32H7xx_HAL_Driver/Src/stm32h7xx_ll_sdmmc.c ****   {
1463:./Libraries/STM32H7xx_HAL_Driver/Src/stm32h7xx_ll_sdmmc.c ****     if (count-- == 0U)
 3366              		.loc 1 1463 14
 3367 0024 FB69     		ldr	r3, [r7, #28]
 3368 0026 5A1E     		subs	r2, r3, #1
 3369 0028 FA61     		str	r2, [r7, #28]
 3370              		.loc 1 1463 8
 3371 002a 002B     		cmp	r3, #0
 3372 002c 02D1     		bne	.L136
1464:./Libraries/STM32H7xx_HAL_Driver/Src/stm32h7xx_ll_sdmmc.c ****     {
1465:./Libraries/STM32H7xx_HAL_Driver/Src/stm32h7xx_ll_sdmmc.c ****       return SDMMC_ERROR_TIMEOUT;
 3373              		.loc 1 1465 14
 3374 002e 4FF00043 		mov	r3, #-2147483648
 3375 0032 52E0     		b	.L137
 3376              	.L136:
1466:./Libraries/STM32H7xx_HAL_Driver/Src/stm32h7xx_ll_sdmmc.c ****     }
1467:./Libraries/STM32H7xx_HAL_Driver/Src/stm32h7xx_ll_sdmmc.c ****     sta_reg = SDMMCx->STA;
 3377              		.loc 1 1467 13
 3378 0034 FB68     		ldr	r3, [r7, #12]
 3379 0036 5B6B     		ldr	r3, [r3, #52]
 3380 0038 BB61     		str	r3, [r7, #24]
1468:./Libraries/STM32H7xx_HAL_Driver/Src/stm32h7xx_ll_sdmmc.c ****   } while (((sta_reg & (SDMMC_FLAG_CCRCFAIL | SDMMC_FLAG_CMDREND | SDMMC_FLAG_CTIMEOUT)) == 0U) ||
 3381              		.loc 1 1468 22
 3382 003a BB69     		ldr	r3, [r7, #24]
 3383 003c 03F04503 		and	r3, r3, #69
1469:./Libraries/STM32H7xx_HAL_Driver/Src/stm32h7xx_ll_sdmmc.c ****            ((sta_reg & SDMMC_FLAG_CMDACT) != 0U));
 3384              		.loc 1 1469 12
 3385 0040 002B     		cmp	r3, #0
 3386 0042 EFD0     		beq	.L138
 3387              		.loc 1 1469 22 discriminator 1
 3388 0044 BB69     		ldr	r3, [r7, #24]
 3389 0046 03F40053 		and	r3, r3, #8192
1468:./Libraries/STM32H7xx_HAL_Driver/Src/stm32h7xx_ll_sdmmc.c ****   } while (((sta_reg & (SDMMC_FLAG_CCRCFAIL | SDMMC_FLAG_CMDREND | SDMMC_FLAG_CTIMEOUT)) == 0U) ||
 3390              		.loc 1 1468 97 discriminator 1
 3391 004a 002B     		cmp	r3, #0
 3392 004c EAD1     		bne	.L138
1470:./Libraries/STM32H7xx_HAL_Driver/Src/stm32h7xx_ll_sdmmc.c **** 
1471:./Libraries/STM32H7xx_HAL_Driver/Src/stm32h7xx_ll_sdmmc.c ****   if (__SDMMC_GET_FLAG(SDMMCx, SDMMC_FLAG_CTIMEOUT))
ARM GAS  /tmp/ccUwcR4B.s 			page 85


 3393              		.loc 1 1471 7
 3394 004e FB68     		ldr	r3, [r7, #12]
 3395 0050 5B6B     		ldr	r3, [r3, #52]
 3396 0052 03F00403 		and	r3, r3, #4
 3397              		.loc 1 1471 6
 3398 0056 002B     		cmp	r3, #0
 3399 0058 04D0     		beq	.L139
1472:./Libraries/STM32H7xx_HAL_Driver/Src/stm32h7xx_ll_sdmmc.c ****   {
1473:./Libraries/STM32H7xx_HAL_Driver/Src/stm32h7xx_ll_sdmmc.c ****     __SDMMC_CLEAR_FLAG(SDMMCx, SDMMC_FLAG_CTIMEOUT);
 3400              		.loc 1 1473 5
 3401 005a FB68     		ldr	r3, [r7, #12]
 3402 005c 0422     		movs	r2, #4
 3403 005e 9A63     		str	r2, [r3, #56]
1474:./Libraries/STM32H7xx_HAL_Driver/Src/stm32h7xx_ll_sdmmc.c **** 
1475:./Libraries/STM32H7xx_HAL_Driver/Src/stm32h7xx_ll_sdmmc.c ****     return SDMMC_ERROR_CMD_RSP_TIMEOUT;
 3404              		.loc 1 1475 12
 3405 0060 0423     		movs	r3, #4
 3406 0062 3AE0     		b	.L137
 3407              	.L139:
1476:./Libraries/STM32H7xx_HAL_Driver/Src/stm32h7xx_ll_sdmmc.c ****   }
1477:./Libraries/STM32H7xx_HAL_Driver/Src/stm32h7xx_ll_sdmmc.c ****   else if (__SDMMC_GET_FLAG(SDMMCx, SDMMC_FLAG_CCRCFAIL))
 3408              		.loc 1 1477 12
 3409 0064 FB68     		ldr	r3, [r7, #12]
 3410 0066 5B6B     		ldr	r3, [r3, #52]
 3411 0068 03F00103 		and	r3, r3, #1
 3412              		.loc 1 1477 11
 3413 006c 002B     		cmp	r3, #0
 3414 006e 04D0     		beq	.L140
1478:./Libraries/STM32H7xx_HAL_Driver/Src/stm32h7xx_ll_sdmmc.c ****   {
1479:./Libraries/STM32H7xx_HAL_Driver/Src/stm32h7xx_ll_sdmmc.c ****     __SDMMC_CLEAR_FLAG(SDMMCx, SDMMC_FLAG_CCRCFAIL);
 3415              		.loc 1 1479 5
 3416 0070 FB68     		ldr	r3, [r7, #12]
 3417 0072 0122     		movs	r2, #1
 3418 0074 9A63     		str	r2, [r3, #56]
1480:./Libraries/STM32H7xx_HAL_Driver/Src/stm32h7xx_ll_sdmmc.c **** 
1481:./Libraries/STM32H7xx_HAL_Driver/Src/stm32h7xx_ll_sdmmc.c ****     return SDMMC_ERROR_CMD_CRC_FAIL;
 3419              		.loc 1 1481 12
 3420 0076 0123     		movs	r3, #1
 3421 0078 2FE0     		b	.L137
 3422              	.L140:
1482:./Libraries/STM32H7xx_HAL_Driver/Src/stm32h7xx_ll_sdmmc.c ****   }
1483:./Libraries/STM32H7xx_HAL_Driver/Src/stm32h7xx_ll_sdmmc.c ****   else
1484:./Libraries/STM32H7xx_HAL_Driver/Src/stm32h7xx_ll_sdmmc.c ****   {
1485:./Libraries/STM32H7xx_HAL_Driver/Src/stm32h7xx_ll_sdmmc.c ****     /* Nothing to do */
1486:./Libraries/STM32H7xx_HAL_Driver/Src/stm32h7xx_ll_sdmmc.c ****   }
1487:./Libraries/STM32H7xx_HAL_Driver/Src/stm32h7xx_ll_sdmmc.c **** 
1488:./Libraries/STM32H7xx_HAL_Driver/Src/stm32h7xx_ll_sdmmc.c ****   /* Check response received is of desired command */
1489:./Libraries/STM32H7xx_HAL_Driver/Src/stm32h7xx_ll_sdmmc.c ****   if (SDMMC_GetCommandResponse(SDMMCx) != SD_CMD)
 3423              		.loc 1 1489 7
 3424 007a F868     		ldr	r0, [r7, #12]
 3425 007c FFF7FEFF 		bl	SDMMC_GetCommandResponse
 3426 0080 0346     		mov	r3, r0
 3427 0082 1A46     		mov	r2, r3
 3428              		.loc 1 1489 6
 3429 0084 FB7A     		ldrb	r3, [r7, #11]	@ zero_extendqisi2
 3430 0086 9342     		cmp	r3, r2
 3431 0088 01D0     		beq	.L141
ARM GAS  /tmp/ccUwcR4B.s 			page 86


1490:./Libraries/STM32H7xx_HAL_Driver/Src/stm32h7xx_ll_sdmmc.c ****   {
1491:./Libraries/STM32H7xx_HAL_Driver/Src/stm32h7xx_ll_sdmmc.c ****     return SDMMC_ERROR_CMD_CRC_FAIL;
 3432              		.loc 1 1491 12
 3433 008a 0123     		movs	r3, #1
 3434 008c 25E0     		b	.L137
 3435              	.L141:
1492:./Libraries/STM32H7xx_HAL_Driver/Src/stm32h7xx_ll_sdmmc.c ****   }
1493:./Libraries/STM32H7xx_HAL_Driver/Src/stm32h7xx_ll_sdmmc.c **** 
1494:./Libraries/STM32H7xx_HAL_Driver/Src/stm32h7xx_ll_sdmmc.c ****   /* Clear all the static flags */
1495:./Libraries/STM32H7xx_HAL_Driver/Src/stm32h7xx_ll_sdmmc.c ****   __SDMMC_CLEAR_FLAG(SDMMCx, SDMMC_STATIC_CMD_FLAGS);
 3436              		.loc 1 1495 3
 3437 008e FB68     		ldr	r3, [r7, #12]
 3438 0090 164A     		ldr	r2, .L145+8
 3439 0092 9A63     		str	r2, [r3, #56]
1496:./Libraries/STM32H7xx_HAL_Driver/Src/stm32h7xx_ll_sdmmc.c **** 
1497:./Libraries/STM32H7xx_HAL_Driver/Src/stm32h7xx_ll_sdmmc.c ****   /* We have received response, retrieve it.  */
1498:./Libraries/STM32H7xx_HAL_Driver/Src/stm32h7xx_ll_sdmmc.c ****   response_r1 = SDMMC_GetResponse(SDMMCx, SDMMC_RESP1);
 3440              		.loc 1 1498 17
 3441 0094 0021     		movs	r1, #0
 3442 0096 F868     		ldr	r0, [r7, #12]
 3443 0098 FFF7FEFF 		bl	SDMMC_GetResponse
 3444 009c 7861     		str	r0, [r7, #20]
1499:./Libraries/STM32H7xx_HAL_Driver/Src/stm32h7xx_ll_sdmmc.c **** 
1500:./Libraries/STM32H7xx_HAL_Driver/Src/stm32h7xx_ll_sdmmc.c ****   if ((response_r1 & (SDMMC_R6_GENERAL_UNKNOWN_ERROR | SDMMC_R6_ILLEGAL_CMD |
 3445              		.loc 1 1500 20
 3446 009e 7B69     		ldr	r3, [r7, #20]
 3447 00a0 03F46043 		and	r3, r3, #57344
 3448              		.loc 1 1500 6
 3449 00a4 002B     		cmp	r3, #0
 3450 00a6 06D1     		bne	.L142
1501:./Libraries/STM32H7xx_HAL_Driver/Src/stm32h7xx_ll_sdmmc.c ****                       SDMMC_R6_COM_CRC_FAILED)) == SDMMC_ALLZERO)
1502:./Libraries/STM32H7xx_HAL_Driver/Src/stm32h7xx_ll_sdmmc.c ****   {
1503:./Libraries/STM32H7xx_HAL_Driver/Src/stm32h7xx_ll_sdmmc.c ****     *pRCA = (uint16_t)(response_r1 >> 16);
 3451              		.loc 1 1503 36
 3452 00a8 7B69     		ldr	r3, [r7, #20]
 3453 00aa 1B0C     		lsrs	r3, r3, #16
 3454              		.loc 1 1503 13
 3455 00ac 9AB2     		uxth	r2, r3
 3456              		.loc 1 1503 11
 3457 00ae 7B68     		ldr	r3, [r7, #4]
 3458 00b0 1A80     		strh	r2, [r3]	@ movhi
1504:./Libraries/STM32H7xx_HAL_Driver/Src/stm32h7xx_ll_sdmmc.c **** 
1505:./Libraries/STM32H7xx_HAL_Driver/Src/stm32h7xx_ll_sdmmc.c ****     return SDMMC_ERROR_NONE;
 3459              		.loc 1 1505 12
 3460 00b2 0023     		movs	r3, #0
 3461 00b4 11E0     		b	.L137
 3462              	.L142:
1506:./Libraries/STM32H7xx_HAL_Driver/Src/stm32h7xx_ll_sdmmc.c ****   }
1507:./Libraries/STM32H7xx_HAL_Driver/Src/stm32h7xx_ll_sdmmc.c ****   else if ((response_r1 & SDMMC_R6_ILLEGAL_CMD) == SDMMC_R6_ILLEGAL_CMD)
 3463              		.loc 1 1507 25
 3464 00b6 7B69     		ldr	r3, [r7, #20]
 3465 00b8 03F48043 		and	r3, r3, #16384
 3466              		.loc 1 1507 11
 3467 00bc 002B     		cmp	r3, #0
 3468 00be 02D0     		beq	.L143
1508:./Libraries/STM32H7xx_HAL_Driver/Src/stm32h7xx_ll_sdmmc.c ****   {
1509:./Libraries/STM32H7xx_HAL_Driver/Src/stm32h7xx_ll_sdmmc.c ****     return SDMMC_ERROR_ILLEGAL_CMD;
ARM GAS  /tmp/ccUwcR4B.s 			page 87


 3469              		.loc 1 1509 12
 3470 00c0 4FF40053 		mov	r3, #8192
 3471 00c4 09E0     		b	.L137
 3472              	.L143:
1510:./Libraries/STM32H7xx_HAL_Driver/Src/stm32h7xx_ll_sdmmc.c ****   }
1511:./Libraries/STM32H7xx_HAL_Driver/Src/stm32h7xx_ll_sdmmc.c ****   else if ((response_r1 & SDMMC_R6_COM_CRC_FAILED) == SDMMC_R6_COM_CRC_FAILED)
 3473              		.loc 1 1511 25
 3474 00c6 7B69     		ldr	r3, [r7, #20]
 3475 00c8 03F40043 		and	r3, r3, #32768
 3476              		.loc 1 1511 11
 3477 00cc 002B     		cmp	r3, #0
 3478 00ce 02D0     		beq	.L144
1512:./Libraries/STM32H7xx_HAL_Driver/Src/stm32h7xx_ll_sdmmc.c ****   {
1513:./Libraries/STM32H7xx_HAL_Driver/Src/stm32h7xx_ll_sdmmc.c ****     return SDMMC_ERROR_COM_CRC_FAILED;
 3479              		.loc 1 1513 12
 3480 00d0 4FF48053 		mov	r3, #4096
 3481 00d4 01E0     		b	.L137
 3482              	.L144:
1514:./Libraries/STM32H7xx_HAL_Driver/Src/stm32h7xx_ll_sdmmc.c ****   }
1515:./Libraries/STM32H7xx_HAL_Driver/Src/stm32h7xx_ll_sdmmc.c ****   else
1516:./Libraries/STM32H7xx_HAL_Driver/Src/stm32h7xx_ll_sdmmc.c ****   {
1517:./Libraries/STM32H7xx_HAL_Driver/Src/stm32h7xx_ll_sdmmc.c ****     return SDMMC_ERROR_GENERAL_UNKNOWN_ERR;
 3483              		.loc 1 1517 12
 3484 00d6 4FF48033 		mov	r3, #65536
 3485              	.L137:
1518:./Libraries/STM32H7xx_HAL_Driver/Src/stm32h7xx_ll_sdmmc.c ****   }
1519:./Libraries/STM32H7xx_HAL_Driver/Src/stm32h7xx_ll_sdmmc.c **** }
 3486              		.loc 1 1519 1
 3487 00da 1846     		mov	r0, r3
 3488 00dc 2037     		adds	r7, r7, #32
 3489              	.LCFI246:
 3490              		.cfi_def_cfa_offset 8
 3491 00de BD46     		mov	sp, r7
 3492              	.LCFI247:
 3493              		.cfi_def_cfa_register 13
 3494              		@ sp needed
 3495 00e0 80BD     		pop	{r7, pc}
 3496              	.L146:
 3497 00e2 00BF     		.align	2
 3498              	.L145:
 3499 00e4 00000000 		.word	SystemCoreClock
 3500 00e8 D34D6210 		.word	274877907
 3501 00ec C5002000 		.word	2097349
 3502              		.cfi_endproc
 3503              	.LFE376:
 3505              		.section	.text.SDMMC_GetCmdResp7,"ax",%progbits
 3506              		.align	1
 3507              		.global	SDMMC_GetCmdResp7
 3508              		.syntax unified
 3509              		.thumb
 3510              		.thumb_func
 3511              		.fpu fpv5-d16
 3513              	SDMMC_GetCmdResp7:
 3514              	.LFB377:
1520:./Libraries/STM32H7xx_HAL_Driver/Src/stm32h7xx_ll_sdmmc.c **** 
1521:./Libraries/STM32H7xx_HAL_Driver/Src/stm32h7xx_ll_sdmmc.c **** /**
1522:./Libraries/STM32H7xx_HAL_Driver/Src/stm32h7xx_ll_sdmmc.c ****   * @brief  Checks for error conditions for R7 response.
ARM GAS  /tmp/ccUwcR4B.s 			page 88


1523:./Libraries/STM32H7xx_HAL_Driver/Src/stm32h7xx_ll_sdmmc.c ****   * @param  hsd: SD handle
1524:./Libraries/STM32H7xx_HAL_Driver/Src/stm32h7xx_ll_sdmmc.c ****   * @retval SD Card error state
1525:./Libraries/STM32H7xx_HAL_Driver/Src/stm32h7xx_ll_sdmmc.c ****   */
1526:./Libraries/STM32H7xx_HAL_Driver/Src/stm32h7xx_ll_sdmmc.c **** uint32_t SDMMC_GetCmdResp7(SDMMC_TypeDef *SDMMCx)
1527:./Libraries/STM32H7xx_HAL_Driver/Src/stm32h7xx_ll_sdmmc.c **** {
 3515              		.loc 1 1527 1
 3516              		.cfi_startproc
 3517              		@ args = 0, pretend = 0, frame = 16
 3518              		@ frame_needed = 1, uses_anonymous_args = 0
 3519              		@ link register save eliminated.
 3520 0000 80B4     		push	{r7}
 3521              	.LCFI248:
 3522              		.cfi_def_cfa_offset 4
 3523              		.cfi_offset 7, -4
 3524 0002 85B0     		sub	sp, sp, #20
 3525              	.LCFI249:
 3526              		.cfi_def_cfa_offset 24
 3527 0004 00AF     		add	r7, sp, #0
 3528              	.LCFI250:
 3529              		.cfi_def_cfa_register 7
 3530 0006 7860     		str	r0, [r7, #4]
1528:./Libraries/STM32H7xx_HAL_Driver/Src/stm32h7xx_ll_sdmmc.c ****   uint32_t sta_reg;
1529:./Libraries/STM32H7xx_HAL_Driver/Src/stm32h7xx_ll_sdmmc.c ****   /* 8 is the number of required instructions cycles for the below loop statement.
1530:./Libraries/STM32H7xx_HAL_Driver/Src/stm32h7xx_ll_sdmmc.c ****   The SDMMC_CMDTIMEOUT is expressed in ms */
1531:./Libraries/STM32H7xx_HAL_Driver/Src/stm32h7xx_ll_sdmmc.c ****   uint32_t count = SDMMC_CMDTIMEOUT * (SystemCoreClock / 8U / 1000U);
 3531              		.loc 1 1531 61
 3532 0008 224B     		ldr	r3, .L154
 3533 000a 1B68     		ldr	r3, [r3]
 3534 000c 224A     		ldr	r2, .L154+4
 3535 000e A2FB0323 		umull	r2, r3, r2, r3
 3536 0012 5B0A     		lsrs	r3, r3, #9
 3537              		.loc 1 1531 12
 3538 0014 41F28832 		movw	r2, #5000
 3539 0018 02FB03F3 		mul	r3, r2, r3
 3540 001c FB60     		str	r3, [r7, #12]
 3541              	.L150:
1532:./Libraries/STM32H7xx_HAL_Driver/Src/stm32h7xx_ll_sdmmc.c **** 
1533:./Libraries/STM32H7xx_HAL_Driver/Src/stm32h7xx_ll_sdmmc.c ****   do
1534:./Libraries/STM32H7xx_HAL_Driver/Src/stm32h7xx_ll_sdmmc.c ****   {
1535:./Libraries/STM32H7xx_HAL_Driver/Src/stm32h7xx_ll_sdmmc.c ****     if (count-- == 0U)
 3542              		.loc 1 1535 14
 3543 001e FB68     		ldr	r3, [r7, #12]
 3544 0020 5A1E     		subs	r2, r3, #1
 3545 0022 FA60     		str	r2, [r7, #12]
 3546              		.loc 1 1535 8
 3547 0024 002B     		cmp	r3, #0
 3548 0026 02D1     		bne	.L148
1536:./Libraries/STM32H7xx_HAL_Driver/Src/stm32h7xx_ll_sdmmc.c ****     {
1537:./Libraries/STM32H7xx_HAL_Driver/Src/stm32h7xx_ll_sdmmc.c ****       return SDMMC_ERROR_TIMEOUT;
 3549              		.loc 1 1537 14
 3550 0028 4FF00043 		mov	r3, #-2147483648
 3551 002c 2CE0     		b	.L149
 3552              	.L148:
1538:./Libraries/STM32H7xx_HAL_Driver/Src/stm32h7xx_ll_sdmmc.c ****     }
1539:./Libraries/STM32H7xx_HAL_Driver/Src/stm32h7xx_ll_sdmmc.c ****     sta_reg = SDMMCx->STA;
 3553              		.loc 1 1539 13
 3554 002e 7B68     		ldr	r3, [r7, #4]
ARM GAS  /tmp/ccUwcR4B.s 			page 89


 3555 0030 5B6B     		ldr	r3, [r3, #52]
 3556 0032 BB60     		str	r3, [r7, #8]
1540:./Libraries/STM32H7xx_HAL_Driver/Src/stm32h7xx_ll_sdmmc.c ****   } while (((sta_reg & (SDMMC_FLAG_CCRCFAIL | SDMMC_FLAG_CMDREND | SDMMC_FLAG_CTIMEOUT)) == 0U) ||
 3557              		.loc 1 1540 22
 3558 0034 BB68     		ldr	r3, [r7, #8]
 3559 0036 03F04503 		and	r3, r3, #69
1541:./Libraries/STM32H7xx_HAL_Driver/Src/stm32h7xx_ll_sdmmc.c ****            ((sta_reg & SDMMC_FLAG_CMDACT) != 0U));
 3560              		.loc 1 1541 12
 3561 003a 002B     		cmp	r3, #0
 3562 003c EFD0     		beq	.L150
 3563              		.loc 1 1541 22 discriminator 1
 3564 003e BB68     		ldr	r3, [r7, #8]
 3565 0040 03F40053 		and	r3, r3, #8192
1540:./Libraries/STM32H7xx_HAL_Driver/Src/stm32h7xx_ll_sdmmc.c ****   } while (((sta_reg & (SDMMC_FLAG_CCRCFAIL | SDMMC_FLAG_CMDREND | SDMMC_FLAG_CTIMEOUT)) == 0U) ||
 3566              		.loc 1 1540 97 discriminator 1
 3567 0044 002B     		cmp	r3, #0
 3568 0046 EAD1     		bne	.L150
1542:./Libraries/STM32H7xx_HAL_Driver/Src/stm32h7xx_ll_sdmmc.c **** 
1543:./Libraries/STM32H7xx_HAL_Driver/Src/stm32h7xx_ll_sdmmc.c ****   if (__SDMMC_GET_FLAG(SDMMCx, SDMMC_FLAG_CTIMEOUT))
 3569              		.loc 1 1543 7
 3570 0048 7B68     		ldr	r3, [r7, #4]
 3571 004a 5B6B     		ldr	r3, [r3, #52]
 3572 004c 03F00403 		and	r3, r3, #4
 3573              		.loc 1 1543 6
 3574 0050 002B     		cmp	r3, #0
 3575 0052 04D0     		beq	.L151
1544:./Libraries/STM32H7xx_HAL_Driver/Src/stm32h7xx_ll_sdmmc.c ****   {
1545:./Libraries/STM32H7xx_HAL_Driver/Src/stm32h7xx_ll_sdmmc.c ****     /* Card is SD V2.0 compliant */
1546:./Libraries/STM32H7xx_HAL_Driver/Src/stm32h7xx_ll_sdmmc.c ****     __SDMMC_CLEAR_FLAG(SDMMCx, SDMMC_FLAG_CTIMEOUT);
 3576              		.loc 1 1546 5
 3577 0054 7B68     		ldr	r3, [r7, #4]
 3578 0056 0422     		movs	r2, #4
 3579 0058 9A63     		str	r2, [r3, #56]
1547:./Libraries/STM32H7xx_HAL_Driver/Src/stm32h7xx_ll_sdmmc.c **** 
1548:./Libraries/STM32H7xx_HAL_Driver/Src/stm32h7xx_ll_sdmmc.c ****     return SDMMC_ERROR_CMD_RSP_TIMEOUT;
 3580              		.loc 1 1548 12
 3581 005a 0423     		movs	r3, #4
 3582 005c 14E0     		b	.L149
 3583              	.L151:
1549:./Libraries/STM32H7xx_HAL_Driver/Src/stm32h7xx_ll_sdmmc.c ****   }
1550:./Libraries/STM32H7xx_HAL_Driver/Src/stm32h7xx_ll_sdmmc.c **** 
1551:./Libraries/STM32H7xx_HAL_Driver/Src/stm32h7xx_ll_sdmmc.c ****   else if (__SDMMC_GET_FLAG(SDMMCx, SDMMC_FLAG_CCRCFAIL))
 3584              		.loc 1 1551 12
 3585 005e 7B68     		ldr	r3, [r7, #4]
 3586 0060 5B6B     		ldr	r3, [r3, #52]
 3587 0062 03F00103 		and	r3, r3, #1
 3588              		.loc 1 1551 11
 3589 0066 002B     		cmp	r3, #0
 3590 0068 04D0     		beq	.L152
1552:./Libraries/STM32H7xx_HAL_Driver/Src/stm32h7xx_ll_sdmmc.c ****   {
1553:./Libraries/STM32H7xx_HAL_Driver/Src/stm32h7xx_ll_sdmmc.c ****     /* Card is SD V2.0 compliant */
1554:./Libraries/STM32H7xx_HAL_Driver/Src/stm32h7xx_ll_sdmmc.c ****     __SDMMC_CLEAR_FLAG(SDMMCx, SDMMC_FLAG_CCRCFAIL);
 3591              		.loc 1 1554 5
 3592 006a 7B68     		ldr	r3, [r7, #4]
 3593 006c 0122     		movs	r2, #1
 3594 006e 9A63     		str	r2, [r3, #56]
1555:./Libraries/STM32H7xx_HAL_Driver/Src/stm32h7xx_ll_sdmmc.c **** 
ARM GAS  /tmp/ccUwcR4B.s 			page 90


1556:./Libraries/STM32H7xx_HAL_Driver/Src/stm32h7xx_ll_sdmmc.c ****     return SDMMC_ERROR_CMD_CRC_FAIL;
 3595              		.loc 1 1556 12
 3596 0070 0123     		movs	r3, #1
 3597 0072 09E0     		b	.L149
 3598              	.L152:
1557:./Libraries/STM32H7xx_HAL_Driver/Src/stm32h7xx_ll_sdmmc.c ****   }
1558:./Libraries/STM32H7xx_HAL_Driver/Src/stm32h7xx_ll_sdmmc.c ****   else
1559:./Libraries/STM32H7xx_HAL_Driver/Src/stm32h7xx_ll_sdmmc.c ****   {
1560:./Libraries/STM32H7xx_HAL_Driver/Src/stm32h7xx_ll_sdmmc.c ****     /* Nothing to do */
1561:./Libraries/STM32H7xx_HAL_Driver/Src/stm32h7xx_ll_sdmmc.c ****   }
1562:./Libraries/STM32H7xx_HAL_Driver/Src/stm32h7xx_ll_sdmmc.c **** 
1563:./Libraries/STM32H7xx_HAL_Driver/Src/stm32h7xx_ll_sdmmc.c ****   if (__SDMMC_GET_FLAG(SDMMCx, SDMMC_FLAG_CMDREND))
 3599              		.loc 1 1563 7
 3600 0074 7B68     		ldr	r3, [r7, #4]
 3601 0076 5B6B     		ldr	r3, [r3, #52]
 3602 0078 03F04003 		and	r3, r3, #64
 3603              		.loc 1 1563 6
 3604 007c 002B     		cmp	r3, #0
 3605 007e 02D0     		beq	.L153
1564:./Libraries/STM32H7xx_HAL_Driver/Src/stm32h7xx_ll_sdmmc.c ****   {
1565:./Libraries/STM32H7xx_HAL_Driver/Src/stm32h7xx_ll_sdmmc.c ****     /* Card is SD V2.0 compliant */
1566:./Libraries/STM32H7xx_HAL_Driver/Src/stm32h7xx_ll_sdmmc.c ****     __SDMMC_CLEAR_FLAG(SDMMCx, SDMMC_FLAG_CMDREND);
 3606              		.loc 1 1566 5
 3607 0080 7B68     		ldr	r3, [r7, #4]
 3608 0082 4022     		movs	r2, #64
 3609 0084 9A63     		str	r2, [r3, #56]
 3610              	.L153:
1567:./Libraries/STM32H7xx_HAL_Driver/Src/stm32h7xx_ll_sdmmc.c ****   }
1568:./Libraries/STM32H7xx_HAL_Driver/Src/stm32h7xx_ll_sdmmc.c **** 
1569:./Libraries/STM32H7xx_HAL_Driver/Src/stm32h7xx_ll_sdmmc.c ****   return SDMMC_ERROR_NONE;
 3611              		.loc 1 1569 10
 3612 0086 0023     		movs	r3, #0
 3613              	.L149:
1570:./Libraries/STM32H7xx_HAL_Driver/Src/stm32h7xx_ll_sdmmc.c **** 
1571:./Libraries/STM32H7xx_HAL_Driver/Src/stm32h7xx_ll_sdmmc.c **** }
 3614              		.loc 1 1571 1
 3615 0088 1846     		mov	r0, r3
 3616 008a 1437     		adds	r7, r7, #20
 3617              	.LCFI251:
 3618              		.cfi_def_cfa_offset 4
 3619 008c BD46     		mov	sp, r7
 3620              	.LCFI252:
 3621              		.cfi_def_cfa_register 13
 3622              		@ sp needed
 3623 008e 5DF8047B 		ldr	r7, [sp], #4
 3624              	.LCFI253:
 3625              		.cfi_restore 7
 3626              		.cfi_def_cfa_offset 0
 3627 0092 7047     		bx	lr
 3628              	.L155:
 3629              		.align	2
 3630              	.L154:
 3631 0094 00000000 		.word	SystemCoreClock
 3632 0098 D34D6210 		.word	274877907
 3633              		.cfi_endproc
 3634              	.LFE377:
 3636              		.section	.text.SDMMC_GetCmdError,"ax",%progbits
ARM GAS  /tmp/ccUwcR4B.s 			page 91


 3637              		.align	1
 3638              		.syntax unified
 3639              		.thumb
 3640              		.thumb_func
 3641              		.fpu fpv5-d16
 3643              	SDMMC_GetCmdError:
 3644              	.LFB378:
1572:./Libraries/STM32H7xx_HAL_Driver/Src/stm32h7xx_ll_sdmmc.c **** 
1573:./Libraries/STM32H7xx_HAL_Driver/Src/stm32h7xx_ll_sdmmc.c **** /**
1574:./Libraries/STM32H7xx_HAL_Driver/Src/stm32h7xx_ll_sdmmc.c ****   * @}
1575:./Libraries/STM32H7xx_HAL_Driver/Src/stm32h7xx_ll_sdmmc.c ****   */
1576:./Libraries/STM32H7xx_HAL_Driver/Src/stm32h7xx_ll_sdmmc.c **** 
1577:./Libraries/STM32H7xx_HAL_Driver/Src/stm32h7xx_ll_sdmmc.c **** /* Private function ----------------------------------------------------------*/
1578:./Libraries/STM32H7xx_HAL_Driver/Src/stm32h7xx_ll_sdmmc.c **** /** @addtogroup SD_Private_Functions
1579:./Libraries/STM32H7xx_HAL_Driver/Src/stm32h7xx_ll_sdmmc.c ****   * @{
1580:./Libraries/STM32H7xx_HAL_Driver/Src/stm32h7xx_ll_sdmmc.c ****   */
1581:./Libraries/STM32H7xx_HAL_Driver/Src/stm32h7xx_ll_sdmmc.c **** 
1582:./Libraries/STM32H7xx_HAL_Driver/Src/stm32h7xx_ll_sdmmc.c **** /**
1583:./Libraries/STM32H7xx_HAL_Driver/Src/stm32h7xx_ll_sdmmc.c ****   * @brief  Checks for error conditions for CMD0.
1584:./Libraries/STM32H7xx_HAL_Driver/Src/stm32h7xx_ll_sdmmc.c ****   * @param  hsd: SD handle
1585:./Libraries/STM32H7xx_HAL_Driver/Src/stm32h7xx_ll_sdmmc.c ****   * @retval SD Card error state
1586:./Libraries/STM32H7xx_HAL_Driver/Src/stm32h7xx_ll_sdmmc.c ****   */
1587:./Libraries/STM32H7xx_HAL_Driver/Src/stm32h7xx_ll_sdmmc.c **** static uint32_t SDMMC_GetCmdError(SDMMC_TypeDef *SDMMCx)
1588:./Libraries/STM32H7xx_HAL_Driver/Src/stm32h7xx_ll_sdmmc.c **** {
 3645              		.loc 1 1588 1
 3646              		.cfi_startproc
 3647              		@ args = 0, pretend = 0, frame = 16
 3648              		@ frame_needed = 1, uses_anonymous_args = 0
 3649              		@ link register save eliminated.
 3650 0000 80B4     		push	{r7}
 3651              	.LCFI254:
 3652              		.cfi_def_cfa_offset 4
 3653              		.cfi_offset 7, -4
 3654 0002 85B0     		sub	sp, sp, #20
 3655              	.LCFI255:
 3656              		.cfi_def_cfa_offset 24
 3657 0004 00AF     		add	r7, sp, #0
 3658              	.LCFI256:
 3659              		.cfi_def_cfa_register 7
 3660 0006 7860     		str	r0, [r7, #4]
1589:./Libraries/STM32H7xx_HAL_Driver/Src/stm32h7xx_ll_sdmmc.c ****   /* 8 is the number of required instructions cycles for the below loop statement.
1590:./Libraries/STM32H7xx_HAL_Driver/Src/stm32h7xx_ll_sdmmc.c ****   The SDMMC_CMDTIMEOUT is expressed in ms */
1591:./Libraries/STM32H7xx_HAL_Driver/Src/stm32h7xx_ll_sdmmc.c ****   uint32_t count = SDMMC_CMDTIMEOUT * (SystemCoreClock / 8U / 1000U);
 3661              		.loc 1 1591 61
 3662 0008 114B     		ldr	r3, .L160
 3663 000a 1B68     		ldr	r3, [r3]
 3664 000c 114A     		ldr	r2, .L160+4
 3665 000e A2FB0323 		umull	r2, r3, r2, r3
 3666 0012 5B0A     		lsrs	r3, r3, #9
 3667              		.loc 1 1591 12
 3668 0014 41F28832 		movw	r2, #5000
 3669 0018 02FB03F3 		mul	r3, r2, r3
 3670 001c FB60     		str	r3, [r7, #12]
 3671              	.L159:
1592:./Libraries/STM32H7xx_HAL_Driver/Src/stm32h7xx_ll_sdmmc.c **** 
1593:./Libraries/STM32H7xx_HAL_Driver/Src/stm32h7xx_ll_sdmmc.c ****   do
1594:./Libraries/STM32H7xx_HAL_Driver/Src/stm32h7xx_ll_sdmmc.c ****   {
ARM GAS  /tmp/ccUwcR4B.s 			page 92


1595:./Libraries/STM32H7xx_HAL_Driver/Src/stm32h7xx_ll_sdmmc.c ****     if (count-- == 0U)
 3672              		.loc 1 1595 14
 3673 001e FB68     		ldr	r3, [r7, #12]
 3674 0020 5A1E     		subs	r2, r3, #1
 3675 0022 FA60     		str	r2, [r7, #12]
 3676              		.loc 1 1595 8
 3677 0024 002B     		cmp	r3, #0
 3678 0026 02D1     		bne	.L157
1596:./Libraries/STM32H7xx_HAL_Driver/Src/stm32h7xx_ll_sdmmc.c ****     {
1597:./Libraries/STM32H7xx_HAL_Driver/Src/stm32h7xx_ll_sdmmc.c ****       return SDMMC_ERROR_TIMEOUT;
 3679              		.loc 1 1597 14
 3680 0028 4FF00043 		mov	r3, #-2147483648
 3681 002c 09E0     		b	.L158
 3682              	.L157:
1598:./Libraries/STM32H7xx_HAL_Driver/Src/stm32h7xx_ll_sdmmc.c ****     }
1599:./Libraries/STM32H7xx_HAL_Driver/Src/stm32h7xx_ll_sdmmc.c **** 
1600:./Libraries/STM32H7xx_HAL_Driver/Src/stm32h7xx_ll_sdmmc.c ****   } while (!__SDMMC_GET_FLAG(SDMMCx, SDMMC_FLAG_CMDSENT));
 3683              		.loc 1 1600 13
 3684 002e 7B68     		ldr	r3, [r7, #4]
 3685 0030 5B6B     		ldr	r3, [r3, #52]
 3686 0032 03F08003 		and	r3, r3, #128
 3687              		.loc 1 1600 3
 3688 0036 002B     		cmp	r3, #0
 3689 0038 F1D0     		beq	.L159
1601:./Libraries/STM32H7xx_HAL_Driver/Src/stm32h7xx_ll_sdmmc.c **** 
1602:./Libraries/STM32H7xx_HAL_Driver/Src/stm32h7xx_ll_sdmmc.c ****   /* Clear all the static flags */
1603:./Libraries/STM32H7xx_HAL_Driver/Src/stm32h7xx_ll_sdmmc.c ****   __SDMMC_CLEAR_FLAG(SDMMCx, SDMMC_STATIC_CMD_FLAGS);
 3690              		.loc 1 1603 3
 3691 003a 7B68     		ldr	r3, [r7, #4]
 3692 003c 064A     		ldr	r2, .L160+8
 3693 003e 9A63     		str	r2, [r3, #56]
1604:./Libraries/STM32H7xx_HAL_Driver/Src/stm32h7xx_ll_sdmmc.c **** 
1605:./Libraries/STM32H7xx_HAL_Driver/Src/stm32h7xx_ll_sdmmc.c ****   return SDMMC_ERROR_NONE;
 3694              		.loc 1 1605 10
 3695 0040 0023     		movs	r3, #0
 3696              	.L158:
1606:./Libraries/STM32H7xx_HAL_Driver/Src/stm32h7xx_ll_sdmmc.c **** }
 3697              		.loc 1 1606 1
 3698 0042 1846     		mov	r0, r3
 3699 0044 1437     		adds	r7, r7, #20
 3700              	.LCFI257:
 3701              		.cfi_def_cfa_offset 4
 3702 0046 BD46     		mov	sp, r7
 3703              	.LCFI258:
 3704              		.cfi_def_cfa_register 13
 3705              		@ sp needed
 3706 0048 5DF8047B 		ldr	r7, [sp], #4
 3707              	.LCFI259:
 3708              		.cfi_restore 7
 3709              		.cfi_def_cfa_offset 0
 3710 004c 7047     		bx	lr
 3711              	.L161:
 3712 004e 00BF     		.align	2
 3713              	.L160:
 3714 0050 00000000 		.word	SystemCoreClock
 3715 0054 D34D6210 		.word	274877907
 3716 0058 C5002000 		.word	2097349
ARM GAS  /tmp/ccUwcR4B.s 			page 93


 3717              		.cfi_endproc
 3718              	.LFE378:
 3720              		.text
 3721              	.Letext0:
 3722              		.file 2 "/usr/lib/gcc/arm-none-eabi/9.2.1/include/stdint.h"
 3723              		.file 3 "./Libraries/CMSIS/Core/Include/core_cm7.h"
 3724              		.file 4 "./Libraries/CMSIS/Device/ST/STM32H7xx/Include/system_stm32h7xx.h"
 3725              		.file 5 "./Libraries/CMSIS/Device/ST/STM32H7xx/Include/stm32h747xx.h"
 3726              		.file 6 "/usr/lib/gcc/arm-none-eabi/9.2.1/include/stddef.h"
 3727              		.file 7 "/usr/include/newlib/sys/_types.h"
 3728              		.file 8 "/usr/include/newlib/sys/reent.h"
 3729              		.file 9 "/usr/include/newlib/sys/lock.h"
 3730              		.file 10 "/usr/include/newlib/math.h"
 3731              		.file 11 "./Libraries/STM32H7xx_HAL_Driver/Inc/stm32h7xx_hal_def.h"
 3732              		.file 12 "./Libraries/STM32H7xx_HAL_Driver/Inc/stm32h7xx_hal_flash.h"
 3733              		.file 13 "./Libraries/STM32H7xx_HAL_Driver/Inc/stm32h7xx_ll_sdmmc.h"
 3734              		.file 14 "./Libraries/STM32H7xx_HAL_Driver/Inc/stm32h7xx_hal_uart.h"
 3735              		.file 15 "./Libraries/STM32H7xx_HAL_Driver/Inc/stm32h7xx_hal.h"
ARM GAS  /tmp/ccUwcR4B.s 			page 94


DEFINED SYMBOLS
                            *ABS*:0000000000000000 stm32h7xx_ll_sdmmc.c
     /tmp/ccUwcR4B.s:17     .text.SDMMC_Init:0000000000000000 $t
     /tmp/ccUwcR4B.s:25     .text.SDMMC_Init:0000000000000000 SDMMC_Init
     /tmp/ccUwcR4B.s:105    .text.SDMMC_Init:0000000000000050 $d
     /tmp/ccUwcR4B.s:110    .text.SDMMC_ReadFIFO:0000000000000000 $t
     /tmp/ccUwcR4B.s:117    .text.SDMMC_ReadFIFO:0000000000000000 SDMMC_ReadFIFO
     /tmp/ccUwcR4B.s:156    .text.SDMMC_WriteFIFO:0000000000000000 $t
     /tmp/ccUwcR4B.s:163    .text.SDMMC_WriteFIFO:0000000000000000 SDMMC_WriteFIFO
     /tmp/ccUwcR4B.s:208    .text.SDMMC_PowerState_ON:0000000000000000 $t
     /tmp/ccUwcR4B.s:215    .text.SDMMC_PowerState_ON:0000000000000000 SDMMC_PowerState_ON
     /tmp/ccUwcR4B.s:259    .text.SDMMC_PowerState_Cycle:0000000000000000 $t
     /tmp/ccUwcR4B.s:266    .text.SDMMC_PowerState_Cycle:0000000000000000 SDMMC_PowerState_Cycle
     /tmp/ccUwcR4B.s:310    .text.SDMMC_PowerState_OFF:0000000000000000 $t
     /tmp/ccUwcR4B.s:317    .text.SDMMC_PowerState_OFF:0000000000000000 SDMMC_PowerState_OFF
     /tmp/ccUwcR4B.s:361    .text.SDMMC_GetPowerState:0000000000000000 $t
     /tmp/ccUwcR4B.s:368    .text.SDMMC_GetPowerState:0000000000000000 SDMMC_GetPowerState
     /tmp/ccUwcR4B.s:409    .text.SDMMC_SendCommand:0000000000000000 $t
     /tmp/ccUwcR4B.s:416    .text.SDMMC_SendCommand:0000000000000000 SDMMC_SendCommand
     /tmp/ccUwcR4B.s:494    .text.SDMMC_SendCommand:0000000000000050 $d
     /tmp/ccUwcR4B.s:499    .text.SDMMC_GetCommandResponse:0000000000000000 $t
     /tmp/ccUwcR4B.s:506    .text.SDMMC_GetCommandResponse:0000000000000000 SDMMC_GetCommandResponse
     /tmp/ccUwcR4B.s:547    .text.SDMMC_GetResponse:0000000000000000 $t
     /tmp/ccUwcR4B.s:554    .text.SDMMC_GetResponse:0000000000000000 SDMMC_GetResponse
     /tmp/ccUwcR4B.s:604    .text.SDMMC_ConfigData:0000000000000000 $t
     /tmp/ccUwcR4B.s:611    .text.SDMMC_ConfigData:0000000000000000 SDMMC_ConfigData
     /tmp/ccUwcR4B.s:695    .text.SDMMC_GetDataCounter:0000000000000000 $t
     /tmp/ccUwcR4B.s:702    .text.SDMMC_GetDataCounter:0000000000000000 SDMMC_GetDataCounter
     /tmp/ccUwcR4B.s:741    .text.SDMMC_GetFIFOCount:0000000000000000 $t
     /tmp/ccUwcR4B.s:748    .text.SDMMC_GetFIFOCount:0000000000000000 SDMMC_GetFIFOCount
     /tmp/ccUwcR4B.s:787    .text.SDMMC_SetSDMMCReadWaitMode:0000000000000000 $t
     /tmp/ccUwcR4B.s:794    .text.SDMMC_SetSDMMCReadWaitMode:0000000000000000 SDMMC_SetSDMMCReadWaitMode
     /tmp/ccUwcR4B.s:841    .text.SDMMC_CmdBlockLength:0000000000000000 $t
     /tmp/ccUwcR4B.s:848    .text.SDMMC_CmdBlockLength:0000000000000000 SDMMC_CmdBlockLength
     /tmp/ccUwcR4B.s:2767   .text.SDMMC_GetCmdResp1:0000000000000000 SDMMC_GetCmdResp1
     /tmp/ccUwcR4B.s:909    .text.SDMMC_CmdReadSingleBlock:0000000000000000 $t
     /tmp/ccUwcR4B.s:916    .text.SDMMC_CmdReadSingleBlock:0000000000000000 SDMMC_CmdReadSingleBlock
     /tmp/ccUwcR4B.s:977    .text.SDMMC_CmdReadMultiBlock:0000000000000000 $t
     /tmp/ccUwcR4B.s:984    .text.SDMMC_CmdReadMultiBlock:0000000000000000 SDMMC_CmdReadMultiBlock
     /tmp/ccUwcR4B.s:1045   .text.SDMMC_CmdWriteSingleBlock:0000000000000000 $t
     /tmp/ccUwcR4B.s:1052   .text.SDMMC_CmdWriteSingleBlock:0000000000000000 SDMMC_CmdWriteSingleBlock
     /tmp/ccUwcR4B.s:1113   .text.SDMMC_CmdWriteMultiBlock:0000000000000000 $t
     /tmp/ccUwcR4B.s:1120   .text.SDMMC_CmdWriteMultiBlock:0000000000000000 SDMMC_CmdWriteMultiBlock
     /tmp/ccUwcR4B.s:1181   .text.SDMMC_CmdSDEraseStartAdd:0000000000000000 $t
     /tmp/ccUwcR4B.s:1188   .text.SDMMC_CmdSDEraseStartAdd:0000000000000000 SDMMC_CmdSDEraseStartAdd
     /tmp/ccUwcR4B.s:1249   .text.SDMMC_CmdSDEraseEndAdd:0000000000000000 $t
     /tmp/ccUwcR4B.s:1256   .text.SDMMC_CmdSDEraseEndAdd:0000000000000000 SDMMC_CmdSDEraseEndAdd
     /tmp/ccUwcR4B.s:1317   .text.SDMMC_CmdEraseStartAdd:0000000000000000 $t
     /tmp/ccUwcR4B.s:1324   .text.SDMMC_CmdEraseStartAdd:0000000000000000 SDMMC_CmdEraseStartAdd
     /tmp/ccUwcR4B.s:1385   .text.SDMMC_CmdEraseEndAdd:0000000000000000 $t
     /tmp/ccUwcR4B.s:1392   .text.SDMMC_CmdEraseEndAdd:0000000000000000 SDMMC_CmdEraseEndAdd
     /tmp/ccUwcR4B.s:1453   .text.SDMMC_CmdErase:0000000000000000 $t
     /tmp/ccUwcR4B.s:1460   .text.SDMMC_CmdErase:0000000000000000 SDMMC_CmdErase
     /tmp/ccUwcR4B.s:1521   .text.SDMMC_CmdStopTransfer:0000000000000000 $t
     /tmp/ccUwcR4B.s:1528   .text.SDMMC_CmdStopTransfer:0000000000000000 SDMMC_CmdStopTransfer
     /tmp/ccUwcR4B.s:1613   .text.SDMMC_CmdStopTransfer:0000000000000074 $d
     /tmp/ccUwcR4B.s:1618   .text.SDMMC_CmdSelDesel:0000000000000000 $t
ARM GAS  /tmp/ccUwcR4B.s 			page 95


     /tmp/ccUwcR4B.s:1625   .text.SDMMC_CmdSelDesel:0000000000000000 SDMMC_CmdSelDesel
     /tmp/ccUwcR4B.s:1686   .text.SDMMC_CmdGoIdleState:0000000000000000 $t
     /tmp/ccUwcR4B.s:1693   .text.SDMMC_CmdGoIdleState:0000000000000000 SDMMC_CmdGoIdleState
     /tmp/ccUwcR4B.s:3643   .text.SDMMC_GetCmdError:0000000000000000 SDMMC_GetCmdError
     /tmp/ccUwcR4B.s:1751   .text.SDMMC_CmdOperCond:0000000000000000 $t
     /tmp/ccUwcR4B.s:1758   .text.SDMMC_CmdOperCond:0000000000000000 SDMMC_CmdOperCond
     /tmp/ccUwcR4B.s:3513   .text.SDMMC_GetCmdResp7:0000000000000000 SDMMC_GetCmdResp7
     /tmp/ccUwcR4B.s:1816   .text.SDMMC_CmdAppCommand:0000000000000000 $t
     /tmp/ccUwcR4B.s:1823   .text.SDMMC_CmdAppCommand:0000000000000000 SDMMC_CmdAppCommand
     /tmp/ccUwcR4B.s:1884   .text.SDMMC_CmdAppOperCommand:0000000000000000 $t
     /tmp/ccUwcR4B.s:1891   .text.SDMMC_CmdAppOperCommand:0000000000000000 SDMMC_CmdAppOperCommand
     /tmp/ccUwcR4B.s:3225   .text.SDMMC_GetCmdResp3:0000000000000000 SDMMC_GetCmdResp3
     /tmp/ccUwcR4B.s:1950   .text.SDMMC_CmdBusWidth:0000000000000000 $t
     /tmp/ccUwcR4B.s:1957   .text.SDMMC_CmdBusWidth:0000000000000000 SDMMC_CmdBusWidth
     /tmp/ccUwcR4B.s:2018   .text.SDMMC_CmdSendSCR:0000000000000000 $t
     /tmp/ccUwcR4B.s:2025   .text.SDMMC_CmdSendSCR:0000000000000000 SDMMC_CmdSendSCR
     /tmp/ccUwcR4B.s:2085   .text.SDMMC_CmdSendCID:0000000000000000 $t
     /tmp/ccUwcR4B.s:2092   .text.SDMMC_CmdSendCID:0000000000000000 SDMMC_CmdSendCID
     /tmp/ccUwcR4B.s:3101   .text.SDMMC_GetCmdResp2:0000000000000000 SDMMC_GetCmdResp2
     /tmp/ccUwcR4B.s:2150   .text.SDMMC_CmdSendCSD:0000000000000000 $t
     /tmp/ccUwcR4B.s:2157   .text.SDMMC_CmdSendCSD:0000000000000000 SDMMC_CmdSendCSD
     /tmp/ccUwcR4B.s:2216   .text.SDMMC_CmdSetRelAdd:0000000000000000 $t
     /tmp/ccUwcR4B.s:2223   .text.SDMMC_CmdSetRelAdd:0000000000000000 SDMMC_CmdSetRelAdd
     /tmp/ccUwcR4B.s:3334   .text.SDMMC_GetCmdResp6:0000000000000000 SDMMC_GetCmdResp6
     /tmp/ccUwcR4B.s:2284   .text.SDMMC_CmdSetRelAddMmc:0000000000000000 $t
     /tmp/ccUwcR4B.s:2291   .text.SDMMC_CmdSetRelAddMmc:0000000000000000 SDMMC_CmdSetRelAddMmc
     /tmp/ccUwcR4B.s:2356   .text.SDMMC_CmdSendStatus:0000000000000000 $t
     /tmp/ccUwcR4B.s:2363   .text.SDMMC_CmdSendStatus:0000000000000000 SDMMC_CmdSendStatus
     /tmp/ccUwcR4B.s:2424   .text.SDMMC_CmdStatusRegister:0000000000000000 $t
     /tmp/ccUwcR4B.s:2431   .text.SDMMC_CmdStatusRegister:0000000000000000 SDMMC_CmdStatusRegister
     /tmp/ccUwcR4B.s:2491   .text.SDMMC_CmdOpCondition:0000000000000000 $t
     /tmp/ccUwcR4B.s:2498   .text.SDMMC_CmdOpCondition:0000000000000000 SDMMC_CmdOpCondition
     /tmp/ccUwcR4B.s:2557   .text.SDMMC_CmdSwitch:0000000000000000 $t
     /tmp/ccUwcR4B.s:2564   .text.SDMMC_CmdSwitch:0000000000000000 SDMMC_CmdSwitch
     /tmp/ccUwcR4B.s:2625   .text.SDMMC_CmdVoltageSwitch:0000000000000000 $t
     /tmp/ccUwcR4B.s:2632   .text.SDMMC_CmdVoltageSwitch:0000000000000000 SDMMC_CmdVoltageSwitch
     /tmp/ccUwcR4B.s:2692   .text.SDMMC_CmdSendEXTCSD:0000000000000000 $t
     /tmp/ccUwcR4B.s:2699   .text.SDMMC_CmdSendEXTCSD:0000000000000000 SDMMC_CmdSendEXTCSD
     /tmp/ccUwcR4B.s:2760   .text.SDMMC_GetCmdResp1:0000000000000000 $t
     /tmp/ccUwcR4B.s:3085   .text.SDMMC_GetCmdResp1:00000000000001d0 $d
     /tmp/ccUwcR4B.s:3094   .text.SDMMC_GetCmdResp2:0000000000000000 $t
     /tmp/ccUwcR4B.s:3211   .text.SDMMC_GetCmdResp2:0000000000000088 $d
     /tmp/ccUwcR4B.s:3218   .text.SDMMC_GetCmdResp3:0000000000000000 $t
     /tmp/ccUwcR4B.s:3320   .text.SDMMC_GetCmdResp3:0000000000000074 $d
     /tmp/ccUwcR4B.s:3327   .text.SDMMC_GetCmdResp6:0000000000000000 $t
     /tmp/ccUwcR4B.s:3499   .text.SDMMC_GetCmdResp6:00000000000000e4 $d
     /tmp/ccUwcR4B.s:3506   .text.SDMMC_GetCmdResp7:0000000000000000 $t
     /tmp/ccUwcR4B.s:3631   .text.SDMMC_GetCmdResp7:0000000000000094 $d
     /tmp/ccUwcR4B.s:3637   .text.SDMMC_GetCmdError:0000000000000000 $t
     /tmp/ccUwcR4B.s:3714   .text.SDMMC_GetCmdError:0000000000000050 $d

UNDEFINED SYMBOLS
SystemCoreClock
