ARM GAS  /tmp/cc5RRSLv.s 			page 1


   1              		.cpu cortex-m7
   2              		.eabi_attribute 28, 1
   3              		.eabi_attribute 20, 1
   4              		.eabi_attribute 21, 1
   5              		.eabi_attribute 23, 3
   6              		.eabi_attribute 24, 1
   7              		.eabi_attribute 25, 1
   8              		.eabi_attribute 26, 1
   9              		.eabi_attribute 30, 2
  10              		.eabi_attribute 34, 1
  11              		.eabi_attribute 18, 4
  12              		.file	"stm32h7xx_hal_nand.c"
  13              		.text
  14              	.Ltext0:
  15              		.cfi_sections	.debug_frame
  16              		.section	.text.HAL_NAND_MspInit,"ax",%progbits
  17              		.align	1
  18              		.p2align 2,,3
  19              		.weak	HAL_NAND_MspInit
  20              		.arch armv7e-m
  21              		.syntax unified
  22              		.thumb
  23              		.thumb_func
  24              		.fpu fpv5-d16
  26              	HAL_NAND_MspInit:
  27              	.LVL0:
  28              	.LFB333:
  29              		.file 1 "./Libraries/STM32H7xx_HAL_Driver/Src/stm32h7xx_hal_nand.c"
   1:./Libraries/STM32H7xx_HAL_Driver/Src/stm32h7xx_hal_nand.c **** /**
   2:./Libraries/STM32H7xx_HAL_Driver/Src/stm32h7xx_hal_nand.c ****   ******************************************************************************
   3:./Libraries/STM32H7xx_HAL_Driver/Src/stm32h7xx_hal_nand.c ****   * @file    stm32h7xx_hal_nand.c
   4:./Libraries/STM32H7xx_HAL_Driver/Src/stm32h7xx_hal_nand.c ****   * @author  MCD Application Team
   5:./Libraries/STM32H7xx_HAL_Driver/Src/stm32h7xx_hal_nand.c ****   * @brief   NAND HAL module driver.
   6:./Libraries/STM32H7xx_HAL_Driver/Src/stm32h7xx_hal_nand.c ****   *          This file provides a generic firmware to drive NAND memories mounted
   7:./Libraries/STM32H7xx_HAL_Driver/Src/stm32h7xx_hal_nand.c ****   *          as external device.
   8:./Libraries/STM32H7xx_HAL_Driver/Src/stm32h7xx_hal_nand.c ****   *
   9:./Libraries/STM32H7xx_HAL_Driver/Src/stm32h7xx_hal_nand.c ****   @verbatim
  10:./Libraries/STM32H7xx_HAL_Driver/Src/stm32h7xx_hal_nand.c ****   ==============================================================================
  11:./Libraries/STM32H7xx_HAL_Driver/Src/stm32h7xx_hal_nand.c ****                          ##### How to use this driver #####
  12:./Libraries/STM32H7xx_HAL_Driver/Src/stm32h7xx_hal_nand.c ****   ==============================================================================
  13:./Libraries/STM32H7xx_HAL_Driver/Src/stm32h7xx_hal_nand.c ****     [..]
  14:./Libraries/STM32H7xx_HAL_Driver/Src/stm32h7xx_hal_nand.c ****       This driver is a generic layered driver which contains a set of APIs used to
  15:./Libraries/STM32H7xx_HAL_Driver/Src/stm32h7xx_hal_nand.c ****       control NAND flash memories. It uses the FMC layer functions to interface
  16:./Libraries/STM32H7xx_HAL_Driver/Src/stm32h7xx_hal_nand.c ****       with NAND devices. This driver is used as follows:
  17:./Libraries/STM32H7xx_HAL_Driver/Src/stm32h7xx_hal_nand.c **** 
  18:./Libraries/STM32H7xx_HAL_Driver/Src/stm32h7xx_hal_nand.c ****       (+) NAND flash memory configuration sequence using the function HAL_NAND_Init()
  19:./Libraries/STM32H7xx_HAL_Driver/Src/stm32h7xx_hal_nand.c ****           with control and timing parameters for both common and attribute spaces.
  20:./Libraries/STM32H7xx_HAL_Driver/Src/stm32h7xx_hal_nand.c **** 
  21:./Libraries/STM32H7xx_HAL_Driver/Src/stm32h7xx_hal_nand.c ****       (+) Read NAND flash memory maker and device IDs using the function
  22:./Libraries/STM32H7xx_HAL_Driver/Src/stm32h7xx_hal_nand.c ****           HAL_NAND_Read_ID(). The read information is stored in the NAND_ID_TypeDef
  23:./Libraries/STM32H7xx_HAL_Driver/Src/stm32h7xx_hal_nand.c ****           structure declared by the function caller.
  24:./Libraries/STM32H7xx_HAL_Driver/Src/stm32h7xx_hal_nand.c **** 
  25:./Libraries/STM32H7xx_HAL_Driver/Src/stm32h7xx_hal_nand.c ****       (+) Access NAND flash memory by read/write operations using the functions
  26:./Libraries/STM32H7xx_HAL_Driver/Src/stm32h7xx_hal_nand.c ****           HAL_NAND_Read_Page_8b()/HAL_NAND_Read_SpareArea_8b(),
  27:./Libraries/STM32H7xx_HAL_Driver/Src/stm32h7xx_hal_nand.c ****           HAL_NAND_Write_Page_8b()/HAL_NAND_Write_SpareArea_8b(),
  28:./Libraries/STM32H7xx_HAL_Driver/Src/stm32h7xx_hal_nand.c ****           HAL_NAND_Read_Page_16b()/HAL_NAND_Read_SpareArea_16b(),
  29:./Libraries/STM32H7xx_HAL_Driver/Src/stm32h7xx_hal_nand.c ****           HAL_NAND_Write_Page_16b()/HAL_NAND_Write_SpareArea_16b()
ARM GAS  /tmp/cc5RRSLv.s 			page 2


  30:./Libraries/STM32H7xx_HAL_Driver/Src/stm32h7xx_hal_nand.c ****           to read/write page(s)/spare area(s). These functions use specific device
  31:./Libraries/STM32H7xx_HAL_Driver/Src/stm32h7xx_hal_nand.c ****           information (Block, page size..) predefined by the user in the NAND_DeviceConfigTypeDef
  32:./Libraries/STM32H7xx_HAL_Driver/Src/stm32h7xx_hal_nand.c ****           structure. The read/write address information is contained by the Nand_Address_Typedef
  33:./Libraries/STM32H7xx_HAL_Driver/Src/stm32h7xx_hal_nand.c ****           structure passed as parameter.
  34:./Libraries/STM32H7xx_HAL_Driver/Src/stm32h7xx_hal_nand.c **** 
  35:./Libraries/STM32H7xx_HAL_Driver/Src/stm32h7xx_hal_nand.c ****       (+) Perform NAND flash Reset chip operation using the function HAL_NAND_Reset().
  36:./Libraries/STM32H7xx_HAL_Driver/Src/stm32h7xx_hal_nand.c **** 
  37:./Libraries/STM32H7xx_HAL_Driver/Src/stm32h7xx_hal_nand.c ****       (+) Perform NAND flash erase block operation using the function HAL_NAND_Erase_Block().
  38:./Libraries/STM32H7xx_HAL_Driver/Src/stm32h7xx_hal_nand.c ****           The erase block address information is contained in the Nand_Address_Typedef
  39:./Libraries/STM32H7xx_HAL_Driver/Src/stm32h7xx_hal_nand.c ****           structure passed as parameter.
  40:./Libraries/STM32H7xx_HAL_Driver/Src/stm32h7xx_hal_nand.c **** 
  41:./Libraries/STM32H7xx_HAL_Driver/Src/stm32h7xx_hal_nand.c ****       (+) Read the NAND flash status operation using the function HAL_NAND_Read_Status().
  42:./Libraries/STM32H7xx_HAL_Driver/Src/stm32h7xx_hal_nand.c **** 
  43:./Libraries/STM32H7xx_HAL_Driver/Src/stm32h7xx_hal_nand.c ****       (+) You can also control the NAND device by calling the control APIs HAL_NAND_ECC_Enable()/
  44:./Libraries/STM32H7xx_HAL_Driver/Src/stm32h7xx_hal_nand.c ****           HAL_NAND_ECC_Disable() to respectively enable/disable the ECC code correction
  45:./Libraries/STM32H7xx_HAL_Driver/Src/stm32h7xx_hal_nand.c ****           feature or the function HAL_NAND_GetECC() to get the ECC correction code.
  46:./Libraries/STM32H7xx_HAL_Driver/Src/stm32h7xx_hal_nand.c **** 
  47:./Libraries/STM32H7xx_HAL_Driver/Src/stm32h7xx_hal_nand.c ****       (+) You can monitor the NAND device HAL state by calling the function
  48:./Libraries/STM32H7xx_HAL_Driver/Src/stm32h7xx_hal_nand.c ****           HAL_NAND_GetState()
  49:./Libraries/STM32H7xx_HAL_Driver/Src/stm32h7xx_hal_nand.c **** 
  50:./Libraries/STM32H7xx_HAL_Driver/Src/stm32h7xx_hal_nand.c ****     [..]
  51:./Libraries/STM32H7xx_HAL_Driver/Src/stm32h7xx_hal_nand.c ****       (@) This driver is a set of generic APIs which handle standard NAND flash operations.
  52:./Libraries/STM32H7xx_HAL_Driver/Src/stm32h7xx_hal_nand.c ****           If a NAND flash device contains different operations and/or implementations,
  53:./Libraries/STM32H7xx_HAL_Driver/Src/stm32h7xx_hal_nand.c ****           it should be implemented separately.
  54:./Libraries/STM32H7xx_HAL_Driver/Src/stm32h7xx_hal_nand.c **** 
  55:./Libraries/STM32H7xx_HAL_Driver/Src/stm32h7xx_hal_nand.c ****     *** Callback registration ***
  56:./Libraries/STM32H7xx_HAL_Driver/Src/stm32h7xx_hal_nand.c ****     =============================================
  57:./Libraries/STM32H7xx_HAL_Driver/Src/stm32h7xx_hal_nand.c ****     [..]
  58:./Libraries/STM32H7xx_HAL_Driver/Src/stm32h7xx_hal_nand.c ****       The compilation define  USE_HAL_NAND_REGISTER_CALLBACKS when set to 1
  59:./Libraries/STM32H7xx_HAL_Driver/Src/stm32h7xx_hal_nand.c ****       allows the user to configure dynamically the driver callbacks.
  60:./Libraries/STM32H7xx_HAL_Driver/Src/stm32h7xx_hal_nand.c **** 
  61:./Libraries/STM32H7xx_HAL_Driver/Src/stm32h7xx_hal_nand.c ****       Use Functions @ref HAL_NAND_RegisterCallback() to register a user callback,
  62:./Libraries/STM32H7xx_HAL_Driver/Src/stm32h7xx_hal_nand.c ****       it allows to register following callbacks:
  63:./Libraries/STM32H7xx_HAL_Driver/Src/stm32h7xx_hal_nand.c ****         (+) MspInitCallback    : NAND MspInit.
  64:./Libraries/STM32H7xx_HAL_Driver/Src/stm32h7xx_hal_nand.c ****         (+) MspDeInitCallback  : NAND MspDeInit.
  65:./Libraries/STM32H7xx_HAL_Driver/Src/stm32h7xx_hal_nand.c ****       This function takes as parameters the HAL peripheral handle, the Callback ID
  66:./Libraries/STM32H7xx_HAL_Driver/Src/stm32h7xx_hal_nand.c ****       and a pointer to the user callback function.
  67:./Libraries/STM32H7xx_HAL_Driver/Src/stm32h7xx_hal_nand.c **** 
  68:./Libraries/STM32H7xx_HAL_Driver/Src/stm32h7xx_hal_nand.c ****       Use function @ref HAL_NAND_UnRegisterCallback() to reset a callback to the default
  69:./Libraries/STM32H7xx_HAL_Driver/Src/stm32h7xx_hal_nand.c ****       weak (surcharged) function. It allows to reset following callbacks:
  70:./Libraries/STM32H7xx_HAL_Driver/Src/stm32h7xx_hal_nand.c ****         (+) MspInitCallback    : NAND MspInit.
  71:./Libraries/STM32H7xx_HAL_Driver/Src/stm32h7xx_hal_nand.c ****         (+) MspDeInitCallback  : NAND MspDeInit.
  72:./Libraries/STM32H7xx_HAL_Driver/Src/stm32h7xx_hal_nand.c ****       This function) takes as parameters the HAL peripheral handle and the Callback ID.
  73:./Libraries/STM32H7xx_HAL_Driver/Src/stm32h7xx_hal_nand.c **** 
  74:./Libraries/STM32H7xx_HAL_Driver/Src/stm32h7xx_hal_nand.c ****       By default, after the @ref HAL_NAND_Init and if the state is HAL_NAND_STATE_RESET
  75:./Libraries/STM32H7xx_HAL_Driver/Src/stm32h7xx_hal_nand.c ****       all callbacks are reset to the corresponding legacy weak (surcharged) functions.
  76:./Libraries/STM32H7xx_HAL_Driver/Src/stm32h7xx_hal_nand.c ****       Exception done for MspInit and MspDeInit callbacks that are respectively
  77:./Libraries/STM32H7xx_HAL_Driver/Src/stm32h7xx_hal_nand.c ****       reset to the legacy weak (surcharged) functions in the @ref HAL_NAND_Init
  78:./Libraries/STM32H7xx_HAL_Driver/Src/stm32h7xx_hal_nand.c ****       and @ref  HAL_NAND_DeInit only when these callbacks are null (not registered beforehand).
  79:./Libraries/STM32H7xx_HAL_Driver/Src/stm32h7xx_hal_nand.c ****       If not, MspInit or MspDeInit are not null, the @ref HAL_NAND_Init and @ref HAL_NAND_DeInit
  80:./Libraries/STM32H7xx_HAL_Driver/Src/stm32h7xx_hal_nand.c ****       keep and use the user MspInit/MspDeInit callbacks (registered beforehand)
  81:./Libraries/STM32H7xx_HAL_Driver/Src/stm32h7xx_hal_nand.c **** 
  82:./Libraries/STM32H7xx_HAL_Driver/Src/stm32h7xx_hal_nand.c ****       Callbacks can be registered/unregistered in READY state only.
  83:./Libraries/STM32H7xx_HAL_Driver/Src/stm32h7xx_hal_nand.c ****       Exception done for MspInit/MspDeInit callbacks that can be registered/unregistered
  84:./Libraries/STM32H7xx_HAL_Driver/Src/stm32h7xx_hal_nand.c ****       in READY or RESET state, thus registered (user) MspInit/DeInit callbacks can be used
  85:./Libraries/STM32H7xx_HAL_Driver/Src/stm32h7xx_hal_nand.c ****       during the Init/DeInit.
  86:./Libraries/STM32H7xx_HAL_Driver/Src/stm32h7xx_hal_nand.c ****       In that case first register the MspInit/MspDeInit user callbacks
ARM GAS  /tmp/cc5RRSLv.s 			page 3


  87:./Libraries/STM32H7xx_HAL_Driver/Src/stm32h7xx_hal_nand.c ****       using @ref HAL_NAND_RegisterCallback before calling @ref HAL_NAND_DeInit
  88:./Libraries/STM32H7xx_HAL_Driver/Src/stm32h7xx_hal_nand.c ****       or @ref HAL_NAND_Init function.
  89:./Libraries/STM32H7xx_HAL_Driver/Src/stm32h7xx_hal_nand.c **** 
  90:./Libraries/STM32H7xx_HAL_Driver/Src/stm32h7xx_hal_nand.c ****       When The compilation define USE_HAL_NAND_REGISTER_CALLBACKS is set to 0 or
  91:./Libraries/STM32H7xx_HAL_Driver/Src/stm32h7xx_hal_nand.c ****       not defined, the callback registering feature is not available
  92:./Libraries/STM32H7xx_HAL_Driver/Src/stm32h7xx_hal_nand.c ****       and weak (surcharged) callbacks are used.
  93:./Libraries/STM32H7xx_HAL_Driver/Src/stm32h7xx_hal_nand.c **** 
  94:./Libraries/STM32H7xx_HAL_Driver/Src/stm32h7xx_hal_nand.c ****   @endverbatim
  95:./Libraries/STM32H7xx_HAL_Driver/Src/stm32h7xx_hal_nand.c ****   ******************************************************************************
  96:./Libraries/STM32H7xx_HAL_Driver/Src/stm32h7xx_hal_nand.c ****   * @attention
  97:./Libraries/STM32H7xx_HAL_Driver/Src/stm32h7xx_hal_nand.c ****   *
  98:./Libraries/STM32H7xx_HAL_Driver/Src/stm32h7xx_hal_nand.c ****   * <h2><center>&copy; Copyright (c) 2017 STMicroelectronics.
  99:./Libraries/STM32H7xx_HAL_Driver/Src/stm32h7xx_hal_nand.c ****   * All rights reserved.</center></h2>
 100:./Libraries/STM32H7xx_HAL_Driver/Src/stm32h7xx_hal_nand.c ****   *
 101:./Libraries/STM32H7xx_HAL_Driver/Src/stm32h7xx_hal_nand.c ****   * This software component is licensed by ST under BSD 3-Clause license,
 102:./Libraries/STM32H7xx_HAL_Driver/Src/stm32h7xx_hal_nand.c ****   * the "License"; You may not use this file except in compliance with the
 103:./Libraries/STM32H7xx_HAL_Driver/Src/stm32h7xx_hal_nand.c ****   * License. You may obtain a copy of the License at:
 104:./Libraries/STM32H7xx_HAL_Driver/Src/stm32h7xx_hal_nand.c ****   *                       opensource.org/licenses/BSD-3-Clause
 105:./Libraries/STM32H7xx_HAL_Driver/Src/stm32h7xx_hal_nand.c ****   *
 106:./Libraries/STM32H7xx_HAL_Driver/Src/stm32h7xx_hal_nand.c ****   ******************************************************************************
 107:./Libraries/STM32H7xx_HAL_Driver/Src/stm32h7xx_hal_nand.c ****   */
 108:./Libraries/STM32H7xx_HAL_Driver/Src/stm32h7xx_hal_nand.c **** 
 109:./Libraries/STM32H7xx_HAL_Driver/Src/stm32h7xx_hal_nand.c **** /* Includes ------------------------------------------------------------------*/
 110:./Libraries/STM32H7xx_HAL_Driver/Src/stm32h7xx_hal_nand.c **** #include "stm32h7xx_hal.h"
 111:./Libraries/STM32H7xx_HAL_Driver/Src/stm32h7xx_hal_nand.c **** 
 112:./Libraries/STM32H7xx_HAL_Driver/Src/stm32h7xx_hal_nand.c **** 
 113:./Libraries/STM32H7xx_HAL_Driver/Src/stm32h7xx_hal_nand.c **** /** @addtogroup STM32H7xx_HAL_Driver
 114:./Libraries/STM32H7xx_HAL_Driver/Src/stm32h7xx_hal_nand.c ****   * @{
 115:./Libraries/STM32H7xx_HAL_Driver/Src/stm32h7xx_hal_nand.c ****   */
 116:./Libraries/STM32H7xx_HAL_Driver/Src/stm32h7xx_hal_nand.c **** 
 117:./Libraries/STM32H7xx_HAL_Driver/Src/stm32h7xx_hal_nand.c **** #ifdef HAL_NAND_MODULE_ENABLED
 118:./Libraries/STM32H7xx_HAL_Driver/Src/stm32h7xx_hal_nand.c **** 
 119:./Libraries/STM32H7xx_HAL_Driver/Src/stm32h7xx_hal_nand.c **** /** @defgroup NAND NAND
 120:./Libraries/STM32H7xx_HAL_Driver/Src/stm32h7xx_hal_nand.c ****   * @brief NAND HAL module driver
 121:./Libraries/STM32H7xx_HAL_Driver/Src/stm32h7xx_hal_nand.c ****   * @{
 122:./Libraries/STM32H7xx_HAL_Driver/Src/stm32h7xx_hal_nand.c ****   */
 123:./Libraries/STM32H7xx_HAL_Driver/Src/stm32h7xx_hal_nand.c **** 
 124:./Libraries/STM32H7xx_HAL_Driver/Src/stm32h7xx_hal_nand.c **** /* Private typedef -----------------------------------------------------------*/
 125:./Libraries/STM32H7xx_HAL_Driver/Src/stm32h7xx_hal_nand.c **** /* Private Constants ------------------------------------------------------------*/
 126:./Libraries/STM32H7xx_HAL_Driver/Src/stm32h7xx_hal_nand.c **** /* Private macro -------------------------------------------------------------*/
 127:./Libraries/STM32H7xx_HAL_Driver/Src/stm32h7xx_hal_nand.c **** /* Private variables ---------------------------------------------------------*/
 128:./Libraries/STM32H7xx_HAL_Driver/Src/stm32h7xx_hal_nand.c **** /* Private function prototypes -----------------------------------------------*/
 129:./Libraries/STM32H7xx_HAL_Driver/Src/stm32h7xx_hal_nand.c **** /* Exported functions ---------------------------------------------------------*/
 130:./Libraries/STM32H7xx_HAL_Driver/Src/stm32h7xx_hal_nand.c **** 
 131:./Libraries/STM32H7xx_HAL_Driver/Src/stm32h7xx_hal_nand.c **** /** @defgroup NAND_Exported_Functions NAND Exported Functions
 132:./Libraries/STM32H7xx_HAL_Driver/Src/stm32h7xx_hal_nand.c ****   * @{
 133:./Libraries/STM32H7xx_HAL_Driver/Src/stm32h7xx_hal_nand.c ****   */
 134:./Libraries/STM32H7xx_HAL_Driver/Src/stm32h7xx_hal_nand.c **** 
 135:./Libraries/STM32H7xx_HAL_Driver/Src/stm32h7xx_hal_nand.c **** /** @defgroup NAND_Exported_Functions_Group1 Initialization and de-initialization functions
 136:./Libraries/STM32H7xx_HAL_Driver/Src/stm32h7xx_hal_nand.c ****   * @brief    Initialization and Configuration functions
 137:./Libraries/STM32H7xx_HAL_Driver/Src/stm32h7xx_hal_nand.c ****   *
 138:./Libraries/STM32H7xx_HAL_Driver/Src/stm32h7xx_hal_nand.c ****   @verbatim
 139:./Libraries/STM32H7xx_HAL_Driver/Src/stm32h7xx_hal_nand.c ****   ==============================================================================
 140:./Libraries/STM32H7xx_HAL_Driver/Src/stm32h7xx_hal_nand.c ****             ##### NAND Initialization and de-initialization functions #####
 141:./Libraries/STM32H7xx_HAL_Driver/Src/stm32h7xx_hal_nand.c ****   ==============================================================================
 142:./Libraries/STM32H7xx_HAL_Driver/Src/stm32h7xx_hal_nand.c ****   [..]
 143:./Libraries/STM32H7xx_HAL_Driver/Src/stm32h7xx_hal_nand.c ****     This section provides functions allowing to initialize/de-initialize
ARM GAS  /tmp/cc5RRSLv.s 			page 4


 144:./Libraries/STM32H7xx_HAL_Driver/Src/stm32h7xx_hal_nand.c ****     the NAND memory
 145:./Libraries/STM32H7xx_HAL_Driver/Src/stm32h7xx_hal_nand.c **** 
 146:./Libraries/STM32H7xx_HAL_Driver/Src/stm32h7xx_hal_nand.c **** @endverbatim
 147:./Libraries/STM32H7xx_HAL_Driver/Src/stm32h7xx_hal_nand.c ****   * @{
 148:./Libraries/STM32H7xx_HAL_Driver/Src/stm32h7xx_hal_nand.c ****   */
 149:./Libraries/STM32H7xx_HAL_Driver/Src/stm32h7xx_hal_nand.c **** 
 150:./Libraries/STM32H7xx_HAL_Driver/Src/stm32h7xx_hal_nand.c **** /**
 151:./Libraries/STM32H7xx_HAL_Driver/Src/stm32h7xx_hal_nand.c ****   * @brief  Perform NAND memory Initialization sequence
 152:./Libraries/STM32H7xx_HAL_Driver/Src/stm32h7xx_hal_nand.c ****   * @param  hnand pointer to a NAND_HandleTypeDef structure that contains
 153:./Libraries/STM32H7xx_HAL_Driver/Src/stm32h7xx_hal_nand.c ****   *                the configuration information for NAND module.
 154:./Libraries/STM32H7xx_HAL_Driver/Src/stm32h7xx_hal_nand.c ****   * @param  ComSpace_Timing pointer to Common space timing structure
 155:./Libraries/STM32H7xx_HAL_Driver/Src/stm32h7xx_hal_nand.c ****   * @param  AttSpace_Timing pointer to Attribute space timing structure
 156:./Libraries/STM32H7xx_HAL_Driver/Src/stm32h7xx_hal_nand.c ****   * @retval HAL status
 157:./Libraries/STM32H7xx_HAL_Driver/Src/stm32h7xx_hal_nand.c ****   */
 158:./Libraries/STM32H7xx_HAL_Driver/Src/stm32h7xx_hal_nand.c **** HAL_StatusTypeDef  HAL_NAND_Init(NAND_HandleTypeDef *hnand, FMC_NAND_PCC_TimingTypeDef *ComSpace_Ti
 159:./Libraries/STM32H7xx_HAL_Driver/Src/stm32h7xx_hal_nand.c ****                                  FMC_NAND_PCC_TimingTypeDef *AttSpace_Timing)
 160:./Libraries/STM32H7xx_HAL_Driver/Src/stm32h7xx_hal_nand.c **** {
 161:./Libraries/STM32H7xx_HAL_Driver/Src/stm32h7xx_hal_nand.c ****   /* Check the NAND handle state */
 162:./Libraries/STM32H7xx_HAL_Driver/Src/stm32h7xx_hal_nand.c ****   if (hnand == NULL)
 163:./Libraries/STM32H7xx_HAL_Driver/Src/stm32h7xx_hal_nand.c ****   {
 164:./Libraries/STM32H7xx_HAL_Driver/Src/stm32h7xx_hal_nand.c ****     return HAL_ERROR;
 165:./Libraries/STM32H7xx_HAL_Driver/Src/stm32h7xx_hal_nand.c ****   }
 166:./Libraries/STM32H7xx_HAL_Driver/Src/stm32h7xx_hal_nand.c **** 
 167:./Libraries/STM32H7xx_HAL_Driver/Src/stm32h7xx_hal_nand.c ****   if (hnand->State == HAL_NAND_STATE_RESET)
 168:./Libraries/STM32H7xx_HAL_Driver/Src/stm32h7xx_hal_nand.c ****   {
 169:./Libraries/STM32H7xx_HAL_Driver/Src/stm32h7xx_hal_nand.c ****     /* Allocate lock resource and initialize it */
 170:./Libraries/STM32H7xx_HAL_Driver/Src/stm32h7xx_hal_nand.c ****     hnand->Lock = HAL_UNLOCKED;
 171:./Libraries/STM32H7xx_HAL_Driver/Src/stm32h7xx_hal_nand.c **** 
 172:./Libraries/STM32H7xx_HAL_Driver/Src/stm32h7xx_hal_nand.c **** #if (USE_HAL_NAND_REGISTER_CALLBACKS == 1)
 173:./Libraries/STM32H7xx_HAL_Driver/Src/stm32h7xx_hal_nand.c ****     if (hnand->MspInitCallback == NULL)
 174:./Libraries/STM32H7xx_HAL_Driver/Src/stm32h7xx_hal_nand.c ****     {
 175:./Libraries/STM32H7xx_HAL_Driver/Src/stm32h7xx_hal_nand.c ****       hnand->MspInitCallback = HAL_NAND_MspInit;
 176:./Libraries/STM32H7xx_HAL_Driver/Src/stm32h7xx_hal_nand.c ****     }
 177:./Libraries/STM32H7xx_HAL_Driver/Src/stm32h7xx_hal_nand.c ****     hnand->ItCallback = HAL_NAND_ITCallback;
 178:./Libraries/STM32H7xx_HAL_Driver/Src/stm32h7xx_hal_nand.c **** 
 179:./Libraries/STM32H7xx_HAL_Driver/Src/stm32h7xx_hal_nand.c ****     /* Init the low level hardware */
 180:./Libraries/STM32H7xx_HAL_Driver/Src/stm32h7xx_hal_nand.c ****     hnand->MspInitCallback(hnand);
 181:./Libraries/STM32H7xx_HAL_Driver/Src/stm32h7xx_hal_nand.c **** #else
 182:./Libraries/STM32H7xx_HAL_Driver/Src/stm32h7xx_hal_nand.c ****     /* Initialize the low level hardware (MSP) */
 183:./Libraries/STM32H7xx_HAL_Driver/Src/stm32h7xx_hal_nand.c ****     HAL_NAND_MspInit(hnand);
 184:./Libraries/STM32H7xx_HAL_Driver/Src/stm32h7xx_hal_nand.c **** #endif /* (USE_HAL_NAND_REGISTER_CALLBACKS) */
 185:./Libraries/STM32H7xx_HAL_Driver/Src/stm32h7xx_hal_nand.c ****   }
 186:./Libraries/STM32H7xx_HAL_Driver/Src/stm32h7xx_hal_nand.c **** 
 187:./Libraries/STM32H7xx_HAL_Driver/Src/stm32h7xx_hal_nand.c ****   /* Initialize NAND control Interface */
 188:./Libraries/STM32H7xx_HAL_Driver/Src/stm32h7xx_hal_nand.c ****   (void)FMC_NAND_Init(hnand->Instance, &(hnand->Init));
 189:./Libraries/STM32H7xx_HAL_Driver/Src/stm32h7xx_hal_nand.c **** 
 190:./Libraries/STM32H7xx_HAL_Driver/Src/stm32h7xx_hal_nand.c ****   /* Initialize NAND common space timing Interface */
 191:./Libraries/STM32H7xx_HAL_Driver/Src/stm32h7xx_hal_nand.c ****   (void)FMC_NAND_CommonSpace_Timing_Init(hnand->Instance, ComSpace_Timing, hnand->Init.NandBank);
 192:./Libraries/STM32H7xx_HAL_Driver/Src/stm32h7xx_hal_nand.c **** 
 193:./Libraries/STM32H7xx_HAL_Driver/Src/stm32h7xx_hal_nand.c ****   /* Initialize NAND attribute space timing Interface */
 194:./Libraries/STM32H7xx_HAL_Driver/Src/stm32h7xx_hal_nand.c ****   (void)FMC_NAND_AttributeSpace_Timing_Init(hnand->Instance, AttSpace_Timing, hnand->Init.NandBank)
 195:./Libraries/STM32H7xx_HAL_Driver/Src/stm32h7xx_hal_nand.c **** 
 196:./Libraries/STM32H7xx_HAL_Driver/Src/stm32h7xx_hal_nand.c ****   /* Enable the NAND device */
 197:./Libraries/STM32H7xx_HAL_Driver/Src/stm32h7xx_hal_nand.c ****   __FMC_NAND_ENABLE(hnand->Instance);
 198:./Libraries/STM32H7xx_HAL_Driver/Src/stm32h7xx_hal_nand.c **** 
 199:./Libraries/STM32H7xx_HAL_Driver/Src/stm32h7xx_hal_nand.c ****   /* Enable FMC Peripheral */
 200:./Libraries/STM32H7xx_HAL_Driver/Src/stm32h7xx_hal_nand.c ****   __FMC_ENABLE();
ARM GAS  /tmp/cc5RRSLv.s 			page 5


 201:./Libraries/STM32H7xx_HAL_Driver/Src/stm32h7xx_hal_nand.c ****   /* Update the NAND controller state */
 202:./Libraries/STM32H7xx_HAL_Driver/Src/stm32h7xx_hal_nand.c ****   hnand->State = HAL_NAND_STATE_READY;
 203:./Libraries/STM32H7xx_HAL_Driver/Src/stm32h7xx_hal_nand.c **** 
 204:./Libraries/STM32H7xx_HAL_Driver/Src/stm32h7xx_hal_nand.c ****   return HAL_OK;
 205:./Libraries/STM32H7xx_HAL_Driver/Src/stm32h7xx_hal_nand.c **** }
 206:./Libraries/STM32H7xx_HAL_Driver/Src/stm32h7xx_hal_nand.c **** 
 207:./Libraries/STM32H7xx_HAL_Driver/Src/stm32h7xx_hal_nand.c **** /**
 208:./Libraries/STM32H7xx_HAL_Driver/Src/stm32h7xx_hal_nand.c ****   * @brief  Perform NAND memory De-Initialization sequence
 209:./Libraries/STM32H7xx_HAL_Driver/Src/stm32h7xx_hal_nand.c ****   * @param  hnand pointer to a NAND_HandleTypeDef structure that contains
 210:./Libraries/STM32H7xx_HAL_Driver/Src/stm32h7xx_hal_nand.c ****   *                the configuration information for NAND module.
 211:./Libraries/STM32H7xx_HAL_Driver/Src/stm32h7xx_hal_nand.c ****   * @retval HAL status
 212:./Libraries/STM32H7xx_HAL_Driver/Src/stm32h7xx_hal_nand.c ****   */
 213:./Libraries/STM32H7xx_HAL_Driver/Src/stm32h7xx_hal_nand.c **** HAL_StatusTypeDef HAL_NAND_DeInit(NAND_HandleTypeDef *hnand)
 214:./Libraries/STM32H7xx_HAL_Driver/Src/stm32h7xx_hal_nand.c **** {
 215:./Libraries/STM32H7xx_HAL_Driver/Src/stm32h7xx_hal_nand.c **** #if (USE_HAL_NAND_REGISTER_CALLBACKS == 1)
 216:./Libraries/STM32H7xx_HAL_Driver/Src/stm32h7xx_hal_nand.c ****   if (hnand->MspDeInitCallback == NULL)
 217:./Libraries/STM32H7xx_HAL_Driver/Src/stm32h7xx_hal_nand.c ****   {
 218:./Libraries/STM32H7xx_HAL_Driver/Src/stm32h7xx_hal_nand.c ****     hnand->MspDeInitCallback = HAL_NAND_MspDeInit;
 219:./Libraries/STM32H7xx_HAL_Driver/Src/stm32h7xx_hal_nand.c ****   }
 220:./Libraries/STM32H7xx_HAL_Driver/Src/stm32h7xx_hal_nand.c **** 
 221:./Libraries/STM32H7xx_HAL_Driver/Src/stm32h7xx_hal_nand.c ****   /* DeInit the low level hardware */
 222:./Libraries/STM32H7xx_HAL_Driver/Src/stm32h7xx_hal_nand.c ****   hnand->MspDeInitCallback(hnand);
 223:./Libraries/STM32H7xx_HAL_Driver/Src/stm32h7xx_hal_nand.c **** #else
 224:./Libraries/STM32H7xx_HAL_Driver/Src/stm32h7xx_hal_nand.c ****   /* Initialize the low level hardware (MSP) */
 225:./Libraries/STM32H7xx_HAL_Driver/Src/stm32h7xx_hal_nand.c ****   HAL_NAND_MspDeInit(hnand);
 226:./Libraries/STM32H7xx_HAL_Driver/Src/stm32h7xx_hal_nand.c **** #endif /* (USE_HAL_NAND_REGISTER_CALLBACKS) */
 227:./Libraries/STM32H7xx_HAL_Driver/Src/stm32h7xx_hal_nand.c **** 
 228:./Libraries/STM32H7xx_HAL_Driver/Src/stm32h7xx_hal_nand.c ****   /* Configure the NAND registers with their reset values */
 229:./Libraries/STM32H7xx_HAL_Driver/Src/stm32h7xx_hal_nand.c ****   (void)FMC_NAND_DeInit(hnand->Instance, hnand->Init.NandBank);
 230:./Libraries/STM32H7xx_HAL_Driver/Src/stm32h7xx_hal_nand.c **** 
 231:./Libraries/STM32H7xx_HAL_Driver/Src/stm32h7xx_hal_nand.c ****   /* Reset the NAND controller state */
 232:./Libraries/STM32H7xx_HAL_Driver/Src/stm32h7xx_hal_nand.c ****   hnand->State = HAL_NAND_STATE_RESET;
 233:./Libraries/STM32H7xx_HAL_Driver/Src/stm32h7xx_hal_nand.c **** 
 234:./Libraries/STM32H7xx_HAL_Driver/Src/stm32h7xx_hal_nand.c ****   /* Release Lock */
 235:./Libraries/STM32H7xx_HAL_Driver/Src/stm32h7xx_hal_nand.c ****   __HAL_UNLOCK(hnand);
 236:./Libraries/STM32H7xx_HAL_Driver/Src/stm32h7xx_hal_nand.c **** 
 237:./Libraries/STM32H7xx_HAL_Driver/Src/stm32h7xx_hal_nand.c ****   return HAL_OK;
 238:./Libraries/STM32H7xx_HAL_Driver/Src/stm32h7xx_hal_nand.c **** }
 239:./Libraries/STM32H7xx_HAL_Driver/Src/stm32h7xx_hal_nand.c **** 
 240:./Libraries/STM32H7xx_HAL_Driver/Src/stm32h7xx_hal_nand.c **** /**
 241:./Libraries/STM32H7xx_HAL_Driver/Src/stm32h7xx_hal_nand.c ****   * @brief  NAND MSP Init
 242:./Libraries/STM32H7xx_HAL_Driver/Src/stm32h7xx_hal_nand.c ****   * @param  hnand pointer to a NAND_HandleTypeDef structure that contains
 243:./Libraries/STM32H7xx_HAL_Driver/Src/stm32h7xx_hal_nand.c ****   *                the configuration information for NAND module.
 244:./Libraries/STM32H7xx_HAL_Driver/Src/stm32h7xx_hal_nand.c ****   * @retval None
 245:./Libraries/STM32H7xx_HAL_Driver/Src/stm32h7xx_hal_nand.c ****   */
 246:./Libraries/STM32H7xx_HAL_Driver/Src/stm32h7xx_hal_nand.c **** __weak void HAL_NAND_MspInit(NAND_HandleTypeDef *hnand)
 247:./Libraries/STM32H7xx_HAL_Driver/Src/stm32h7xx_hal_nand.c **** {
  30              		.loc 1 247 1 view -0
  31              		.cfi_startproc
  32              		@ args = 0, pretend = 0, frame = 0
  33              		@ frame_needed = 0, uses_anonymous_args = 0
  34              		@ link register save eliminated.
 248:./Libraries/STM32H7xx_HAL_Driver/Src/stm32h7xx_hal_nand.c ****   /* Prevent unused argument(s) compilation warning */
 249:./Libraries/STM32H7xx_HAL_Driver/Src/stm32h7xx_hal_nand.c ****   UNUSED(hnand);
  35              		.loc 1 249 3 view .LVU1
 250:./Libraries/STM32H7xx_HAL_Driver/Src/stm32h7xx_hal_nand.c **** 
 251:./Libraries/STM32H7xx_HAL_Driver/Src/stm32h7xx_hal_nand.c ****   /* NOTE : This function Should not be modified, when the callback is needed,
ARM GAS  /tmp/cc5RRSLv.s 			page 6


 252:./Libraries/STM32H7xx_HAL_Driver/Src/stm32h7xx_hal_nand.c ****             the HAL_NAND_MspInit could be implemented in the user file
 253:./Libraries/STM32H7xx_HAL_Driver/Src/stm32h7xx_hal_nand.c ****    */
 254:./Libraries/STM32H7xx_HAL_Driver/Src/stm32h7xx_hal_nand.c **** }
  36              		.loc 1 254 1 is_stmt 0 view .LVU2
  37 0000 7047     		bx	lr
  38              		.cfi_endproc
  39              	.LFE333:
  41 0002 00BF     		.section	.text.HAL_NAND_Init,"ax",%progbits
  42              		.align	1
  43              		.p2align 2,,3
  44              		.global	HAL_NAND_Init
  45              		.syntax unified
  46              		.thumb
  47              		.thumb_func
  48              		.fpu fpv5-d16
  50              	HAL_NAND_Init:
  51              	.LVL1:
  52              	.LFB331:
 160:./Libraries/STM32H7xx_HAL_Driver/Src/stm32h7xx_hal_nand.c ****   /* Check the NAND handle state */
  53              		.loc 1 160 1 is_stmt 1 view -0
  54              		.cfi_startproc
  55              		@ args = 0, pretend = 0, frame = 0
  56              		@ frame_needed = 0, uses_anonymous_args = 0
 162:./Libraries/STM32H7xx_HAL_Driver/Src/stm32h7xx_hal_nand.c ****   {
  57              		.loc 1 162 3 view .LVU4
 162:./Libraries/STM32H7xx_HAL_Driver/Src/stm32h7xx_hal_nand.c ****   {
  58              		.loc 1 162 6 is_stmt 0 view .LVU5
  59 0000 58B3     		cbz	r0, .L6
 167:./Libraries/STM32H7xx_HAL_Driver/Src/stm32h7xx_hal_nand.c ****   {
  60              		.loc 1 167 3 is_stmt 1 view .LVU6
 160:./Libraries/STM32H7xx_HAL_Driver/Src/stm32h7xx_hal_nand.c ****   /* Check the NAND handle state */
  61              		.loc 1 160 1 is_stmt 0 view .LVU7
  62 0002 70B5     		push	{r4, r5, r6, lr}
  63              	.LCFI0:
  64              		.cfi_def_cfa_offset 16
  65              		.cfi_offset 4, -16
  66              		.cfi_offset 5, -12
  67              		.cfi_offset 6, -8
  68              		.cfi_offset 14, -4
 167:./Libraries/STM32H7xx_HAL_Driver/Src/stm32h7xx_hal_nand.c ****   {
  69              		.loc 1 167 12 view .LVU8
  70 0004 90F82130 		ldrb	r3, [r0, #33]	@ zero_extendqisi2
  71 0008 1546     		mov	r5, r2
  72 000a 0E46     		mov	r6, r1
  73 000c 0446     		mov	r4, r0
 167:./Libraries/STM32H7xx_HAL_Driver/Src/stm32h7xx_hal_nand.c ****   {
  74              		.loc 1 167 6 view .LVU9
  75 000e 03F0FF02 		and	r2, r3, #255
  76              	.LVL2:
 167:./Libraries/STM32H7xx_HAL_Driver/Src/stm32h7xx_hal_nand.c ****   {
  77              		.loc 1 167 6 view .LVU10
  78 0012 EBB1     		cbz	r3, .L11
  79              	.LVL3:
  80              	.L5:
 188:./Libraries/STM32H7xx_HAL_Driver/Src/stm32h7xx_hal_nand.c **** 
  81              		.loc 1 188 3 is_stmt 1 view .LVU11
 188:./Libraries/STM32H7xx_HAL_Driver/Src/stm32h7xx_hal_nand.c **** 
ARM GAS  /tmp/cc5RRSLv.s 			page 7


  82              		.loc 1 188 9 is_stmt 0 view .LVU12
  83 0014 2146     		mov	r1, r4
  84 0016 51F8040B 		ldr	r0, [r1], #4
  85 001a FFF7FEFF 		bl	FMC_NAND_Init
  86              	.LVL4:
 191:./Libraries/STM32H7xx_HAL_Driver/Src/stm32h7xx_hal_nand.c **** 
  87              		.loc 1 191 3 is_stmt 1 view .LVU13
 191:./Libraries/STM32H7xx_HAL_Driver/Src/stm32h7xx_hal_nand.c **** 
  88              		.loc 1 191 9 is_stmt 0 view .LVU14
  89 001e 3146     		mov	r1, r6
  90 0020 D4E90002 		ldrd	r0, r2, [r4]
  91 0024 FFF7FEFF 		bl	FMC_NAND_CommonSpace_Timing_Init
  92              	.LVL5:
 194:./Libraries/STM32H7xx_HAL_Driver/Src/stm32h7xx_hal_nand.c **** 
  93              		.loc 1 194 3 is_stmt 1 view .LVU15
 194:./Libraries/STM32H7xx_HAL_Driver/Src/stm32h7xx_hal_nand.c **** 
  94              		.loc 1 194 9 is_stmt 0 view .LVU16
  95 0028 2946     		mov	r1, r5
 202:./Libraries/STM32H7xx_HAL_Driver/Src/stm32h7xx_hal_nand.c **** 
  96              		.loc 1 202 16 view .LVU17
  97 002a 0125     		movs	r5, #1
  98              	.LVL6:
 194:./Libraries/STM32H7xx_HAL_Driver/Src/stm32h7xx_hal_nand.c **** 
  99              		.loc 1 194 9 view .LVU18
 100 002c D4E90002 		ldrd	r0, r2, [r4]
 101 0030 FFF7FEFF 		bl	FMC_NAND_AttributeSpace_Timing_Init
 102              	.LVL7:
 197:./Libraries/STM32H7xx_HAL_Driver/Src/stm32h7xx_hal_nand.c **** 
 103              		.loc 1 197 3 is_stmt 1 view .LVU19
 104 0034 2168     		ldr	r1, [r4]
 200:./Libraries/STM32H7xx_HAL_Driver/Src/stm32h7xx_hal_nand.c ****   /* Update the NAND controller state */
 105              		.loc 1 200 3 is_stmt 0 view .LVU20
 106 0036 0A4A     		ldr	r2, .L12
 204:./Libraries/STM32H7xx_HAL_Driver/Src/stm32h7xx_hal_nand.c **** }
 107              		.loc 1 204 10 view .LVU21
 108 0038 0020     		movs	r0, #0
 197:./Libraries/STM32H7xx_HAL_Driver/Src/stm32h7xx_hal_nand.c **** 
 109              		.loc 1 197 3 view .LVU22
 110 003a 0B68     		ldr	r3, [r1]
 111 003c 43F00403 		orr	r3, r3, #4
 112 0040 0B60     		str	r3, [r1]
 200:./Libraries/STM32H7xx_HAL_Driver/Src/stm32h7xx_hal_nand.c ****   /* Update the NAND controller state */
 113              		.loc 1 200 3 is_stmt 1 view .LVU23
 114 0042 1368     		ldr	r3, [r2]
 115 0044 43F00043 		orr	r3, r3, #-2147483648
 116 0048 1360     		str	r3, [r2]
 202:./Libraries/STM32H7xx_HAL_Driver/Src/stm32h7xx_hal_nand.c **** 
 117              		.loc 1 202 3 view .LVU24
 202:./Libraries/STM32H7xx_HAL_Driver/Src/stm32h7xx_hal_nand.c **** 
 118              		.loc 1 202 16 is_stmt 0 view .LVU25
 119 004a 84F82150 		strb	r5, [r4, #33]
 204:./Libraries/STM32H7xx_HAL_Driver/Src/stm32h7xx_hal_nand.c **** }
 120              		.loc 1 204 3 is_stmt 1 view .LVU26
 205:./Libraries/STM32H7xx_HAL_Driver/Src/stm32h7xx_hal_nand.c **** 
 121              		.loc 1 205 1 is_stmt 0 view .LVU27
 122 004e 70BD     		pop	{r4, r5, r6, pc}
 123              	.LVL8:
ARM GAS  /tmp/cc5RRSLv.s 			page 8


 124              	.L11:
 170:./Libraries/STM32H7xx_HAL_Driver/Src/stm32h7xx_hal_nand.c **** 
 125              		.loc 1 170 5 is_stmt 1 view .LVU28
 170:./Libraries/STM32H7xx_HAL_Driver/Src/stm32h7xx_hal_nand.c **** 
 126              		.loc 1 170 17 is_stmt 0 view .LVU29
 127 0050 80F82020 		strb	r2, [r0, #32]
 183:./Libraries/STM32H7xx_HAL_Driver/Src/stm32h7xx_hal_nand.c **** #endif /* (USE_HAL_NAND_REGISTER_CALLBACKS) */
 128              		.loc 1 183 5 is_stmt 1 view .LVU30
 129 0054 FFF7FEFF 		bl	HAL_NAND_MspInit
 130              	.LVL9:
 183:./Libraries/STM32H7xx_HAL_Driver/Src/stm32h7xx_hal_nand.c **** #endif /* (USE_HAL_NAND_REGISTER_CALLBACKS) */
 131              		.loc 1 183 5 is_stmt 0 view .LVU31
 132 0058 DCE7     		b	.L5
 133              	.LVL10:
 134              	.L6:
 135              	.LCFI1:
 136              		.cfi_def_cfa_offset 0
 137              		.cfi_restore 4
 138              		.cfi_restore 5
 139              		.cfi_restore 6
 140              		.cfi_restore 14
 164:./Libraries/STM32H7xx_HAL_Driver/Src/stm32h7xx_hal_nand.c ****   }
 141              		.loc 1 164 12 view .LVU32
 142 005a 0120     		movs	r0, #1
 143              	.LVL11:
 205:./Libraries/STM32H7xx_HAL_Driver/Src/stm32h7xx_hal_nand.c **** 
 144              		.loc 1 205 1 view .LVU33
 145 005c 7047     		bx	lr
 146              	.L13:
 147 005e 00BF     		.align	2
 148              	.L12:
 149 0060 00400052 		.word	1375748096
 150              		.cfi_endproc
 151              	.LFE331:
 153              		.section	.text.HAL_NAND_MspDeInit,"ax",%progbits
 154              		.align	1
 155              		.p2align 2,,3
 156              		.weak	HAL_NAND_MspDeInit
 157              		.syntax unified
 158              		.thumb
 159              		.thumb_func
 160              		.fpu fpv5-d16
 162              	HAL_NAND_MspDeInit:
 163              	.LFB356:
 164              		.cfi_startproc
 165              		@ args = 0, pretend = 0, frame = 0
 166              		@ frame_needed = 0, uses_anonymous_args = 0
 167              		@ link register save eliminated.
 168 0000 7047     		bx	lr
 169              		.cfi_endproc
 170              	.LFE356:
 172 0002 00BF     		.section	.text.HAL_NAND_DeInit,"ax",%progbits
 173              		.align	1
 174              		.p2align 2,,3
 175              		.global	HAL_NAND_DeInit
 176              		.syntax unified
 177              		.thumb
ARM GAS  /tmp/cc5RRSLv.s 			page 9


 178              		.thumb_func
 179              		.fpu fpv5-d16
 181              	HAL_NAND_DeInit:
 182              	.LVL12:
 183              	.LFB332:
 214:./Libraries/STM32H7xx_HAL_Driver/Src/stm32h7xx_hal_nand.c **** #if (USE_HAL_NAND_REGISTER_CALLBACKS == 1)
 184              		.loc 1 214 1 is_stmt 1 view -0
 185              		.cfi_startproc
 186              		@ args = 0, pretend = 0, frame = 0
 187              		@ frame_needed = 0, uses_anonymous_args = 0
 225:./Libraries/STM32H7xx_HAL_Driver/Src/stm32h7xx_hal_nand.c **** #endif /* (USE_HAL_NAND_REGISTER_CALLBACKS) */
 188              		.loc 1 225 3 view .LVU35
 214:./Libraries/STM32H7xx_HAL_Driver/Src/stm32h7xx_hal_nand.c **** #if (USE_HAL_NAND_REGISTER_CALLBACKS == 1)
 189              		.loc 1 214 1 is_stmt 0 view .LVU36
 190 0000 10B5     		push	{r4, lr}
 191              	.LCFI2:
 192              		.cfi_def_cfa_offset 8
 193              		.cfi_offset 4, -8
 194              		.cfi_offset 14, -4
 214:./Libraries/STM32H7xx_HAL_Driver/Src/stm32h7xx_hal_nand.c **** #if (USE_HAL_NAND_REGISTER_CALLBACKS == 1)
 195              		.loc 1 214 1 view .LVU37
 196 0002 0446     		mov	r4, r0
 225:./Libraries/STM32H7xx_HAL_Driver/Src/stm32h7xx_hal_nand.c **** #endif /* (USE_HAL_NAND_REGISTER_CALLBACKS) */
 197              		.loc 1 225 3 view .LVU38
 198 0004 FFF7FEFF 		bl	HAL_NAND_MspDeInit
 199              	.LVL13:
 229:./Libraries/STM32H7xx_HAL_Driver/Src/stm32h7xx_hal_nand.c **** 
 200              		.loc 1 229 3 is_stmt 1 view .LVU39
 229:./Libraries/STM32H7xx_HAL_Driver/Src/stm32h7xx_hal_nand.c **** 
 201              		.loc 1 229 9 is_stmt 0 view .LVU40
 202 0008 D4E90001 		ldrd	r0, r1, [r4]
 203 000c FFF7FEFF 		bl	FMC_NAND_DeInit
 204              	.LVL14:
 232:./Libraries/STM32H7xx_HAL_Driver/Src/stm32h7xx_hal_nand.c **** 
 205              		.loc 1 232 3 is_stmt 1 view .LVU41
 232:./Libraries/STM32H7xx_HAL_Driver/Src/stm32h7xx_hal_nand.c **** 
 206              		.loc 1 232 16 is_stmt 0 view .LVU42
 207 0010 0020     		movs	r0, #0
 208 0012 84F82100 		strb	r0, [r4, #33]
 235:./Libraries/STM32H7xx_HAL_Driver/Src/stm32h7xx_hal_nand.c **** 
 209              		.loc 1 235 3 is_stmt 1 view .LVU43
 235:./Libraries/STM32H7xx_HAL_Driver/Src/stm32h7xx_hal_nand.c **** 
 210              		.loc 1 235 3 view .LVU44
 211 0016 84F82000 		strb	r0, [r4, #32]
 235:./Libraries/STM32H7xx_HAL_Driver/Src/stm32h7xx_hal_nand.c **** 
 212              		.loc 1 235 3 view .LVU45
 237:./Libraries/STM32H7xx_HAL_Driver/Src/stm32h7xx_hal_nand.c **** }
 213              		.loc 1 237 3 view .LVU46
 238:./Libraries/STM32H7xx_HAL_Driver/Src/stm32h7xx_hal_nand.c **** 
 214              		.loc 1 238 1 is_stmt 0 view .LVU47
 215 001a 10BD     		pop	{r4, pc}
 238:./Libraries/STM32H7xx_HAL_Driver/Src/stm32h7xx_hal_nand.c **** 
 216              		.loc 1 238 1 view .LVU48
 217              		.cfi_endproc
 218              	.LFE332:
 220              		.section	.text.HAL_NAND_ITCallback,"ax",%progbits
 221              		.align	1
ARM GAS  /tmp/cc5RRSLv.s 			page 10


 222              		.p2align 2,,3
 223              		.weak	HAL_NAND_ITCallback
 224              		.syntax unified
 225              		.thumb
 226              		.thumb_func
 227              		.fpu fpv5-d16
 229              	HAL_NAND_ITCallback:
 230              	.LFB358:
 231              		.cfi_startproc
 232              		@ args = 0, pretend = 0, frame = 0
 233              		@ frame_needed = 0, uses_anonymous_args = 0
 234              		@ link register save eliminated.
 235 0000 7047     		bx	lr
 236              		.cfi_endproc
 237              	.LFE358:
 239 0002 00BF     		.section	.text.HAL_NAND_IRQHandler,"ax",%progbits
 240              		.align	1
 241              		.p2align 2,,3
 242              		.global	HAL_NAND_IRQHandler
 243              		.syntax unified
 244              		.thumb
 245              		.thumb_func
 246              		.fpu fpv5-d16
 248              	HAL_NAND_IRQHandler:
 249              	.LVL15:
 250              	.LFB335:
 255:./Libraries/STM32H7xx_HAL_Driver/Src/stm32h7xx_hal_nand.c **** 
 256:./Libraries/STM32H7xx_HAL_Driver/Src/stm32h7xx_hal_nand.c **** /**
 257:./Libraries/STM32H7xx_HAL_Driver/Src/stm32h7xx_hal_nand.c ****   * @brief  NAND MSP DeInit
 258:./Libraries/STM32H7xx_HAL_Driver/Src/stm32h7xx_hal_nand.c ****   * @param  hnand pointer to a NAND_HandleTypeDef structure that contains
 259:./Libraries/STM32H7xx_HAL_Driver/Src/stm32h7xx_hal_nand.c ****   *                the configuration information for NAND module.
 260:./Libraries/STM32H7xx_HAL_Driver/Src/stm32h7xx_hal_nand.c ****   * @retval None
 261:./Libraries/STM32H7xx_HAL_Driver/Src/stm32h7xx_hal_nand.c ****   */
 262:./Libraries/STM32H7xx_HAL_Driver/Src/stm32h7xx_hal_nand.c **** __weak void HAL_NAND_MspDeInit(NAND_HandleTypeDef *hnand)
 263:./Libraries/STM32H7xx_HAL_Driver/Src/stm32h7xx_hal_nand.c **** {
 264:./Libraries/STM32H7xx_HAL_Driver/Src/stm32h7xx_hal_nand.c ****   /* Prevent unused argument(s) compilation warning */
 265:./Libraries/STM32H7xx_HAL_Driver/Src/stm32h7xx_hal_nand.c ****   UNUSED(hnand);
 266:./Libraries/STM32H7xx_HAL_Driver/Src/stm32h7xx_hal_nand.c **** 
 267:./Libraries/STM32H7xx_HAL_Driver/Src/stm32h7xx_hal_nand.c ****   /* NOTE : This function Should not be modified, when the callback is needed,
 268:./Libraries/STM32H7xx_HAL_Driver/Src/stm32h7xx_hal_nand.c ****             the HAL_NAND_MspDeInit could be implemented in the user file
 269:./Libraries/STM32H7xx_HAL_Driver/Src/stm32h7xx_hal_nand.c ****    */
 270:./Libraries/STM32H7xx_HAL_Driver/Src/stm32h7xx_hal_nand.c **** }
 271:./Libraries/STM32H7xx_HAL_Driver/Src/stm32h7xx_hal_nand.c **** 
 272:./Libraries/STM32H7xx_HAL_Driver/Src/stm32h7xx_hal_nand.c **** 
 273:./Libraries/STM32H7xx_HAL_Driver/Src/stm32h7xx_hal_nand.c **** /**
 274:./Libraries/STM32H7xx_HAL_Driver/Src/stm32h7xx_hal_nand.c ****   * @brief  This function handles NAND device interrupt request.
 275:./Libraries/STM32H7xx_HAL_Driver/Src/stm32h7xx_hal_nand.c ****   * @param  hnand pointer to a NAND_HandleTypeDef structure that contains
 276:./Libraries/STM32H7xx_HAL_Driver/Src/stm32h7xx_hal_nand.c ****   *                the configuration information for NAND module.
 277:./Libraries/STM32H7xx_HAL_Driver/Src/stm32h7xx_hal_nand.c ****   * @retval HAL status
 278:./Libraries/STM32H7xx_HAL_Driver/Src/stm32h7xx_hal_nand.c ****   */
 279:./Libraries/STM32H7xx_HAL_Driver/Src/stm32h7xx_hal_nand.c **** void HAL_NAND_IRQHandler(NAND_HandleTypeDef *hnand)
 280:./Libraries/STM32H7xx_HAL_Driver/Src/stm32h7xx_hal_nand.c **** {
 251              		.loc 1 280 1 is_stmt 1 view -0
 252              		.cfi_startproc
 253              		@ args = 0, pretend = 0, frame = 0
 254              		@ frame_needed = 0, uses_anonymous_args = 0
 281:./Libraries/STM32H7xx_HAL_Driver/Src/stm32h7xx_hal_nand.c ****   /* Check NAND interrupt Rising edge flag */
ARM GAS  /tmp/cc5RRSLv.s 			page 11


 282:./Libraries/STM32H7xx_HAL_Driver/Src/stm32h7xx_hal_nand.c ****   if (__FMC_NAND_GET_FLAG(hnand->Instance, hnand->Init.NandBank, FMC_FLAG_RISING_EDGE))
 255              		.loc 1 282 3 view .LVU50
 256              		.loc 1 282 7 is_stmt 0 view .LVU51
 257 0000 0368     		ldr	r3, [r0]
 258 0002 5A68     		ldr	r2, [r3, #4]
 259              		.loc 1 282 6 view .LVU52
 260 0004 D207     		lsls	r2, r2, #31
 280:./Libraries/STM32H7xx_HAL_Driver/Src/stm32h7xx_hal_nand.c ****   /* Check NAND interrupt Rising edge flag */
 261              		.loc 1 280 1 view .LVU53
 262 0006 10B5     		push	{r4, lr}
 263              	.LCFI3:
 264              		.cfi_def_cfa_offset 8
 265              		.cfi_offset 4, -8
 266              		.cfi_offset 14, -4
 280:./Libraries/STM32H7xx_HAL_Driver/Src/stm32h7xx_hal_nand.c ****   /* Check NAND interrupt Rising edge flag */
 267              		.loc 1 280 1 view .LVU54
 268 0008 0446     		mov	r4, r0
 269              		.loc 1 282 6 view .LVU55
 270 000a 24D4     		bmi	.L36
 271              	.LVL16:
 272              	.L19:
 283:./Libraries/STM32H7xx_HAL_Driver/Src/stm32h7xx_hal_nand.c ****   {
 284:./Libraries/STM32H7xx_HAL_Driver/Src/stm32h7xx_hal_nand.c ****     /* NAND interrupt callback*/
 285:./Libraries/STM32H7xx_HAL_Driver/Src/stm32h7xx_hal_nand.c **** #if (USE_HAL_NAND_REGISTER_CALLBACKS == 1)
 286:./Libraries/STM32H7xx_HAL_Driver/Src/stm32h7xx_hal_nand.c ****     hnand->ItCallback(hnand);
 287:./Libraries/STM32H7xx_HAL_Driver/Src/stm32h7xx_hal_nand.c **** #else
 288:./Libraries/STM32H7xx_HAL_Driver/Src/stm32h7xx_hal_nand.c ****     HAL_NAND_ITCallback(hnand);
 289:./Libraries/STM32H7xx_HAL_Driver/Src/stm32h7xx_hal_nand.c **** #endif /* (USE_HAL_NAND_REGISTER_CALLBACKS) */
 290:./Libraries/STM32H7xx_HAL_Driver/Src/stm32h7xx_hal_nand.c **** 
 291:./Libraries/STM32H7xx_HAL_Driver/Src/stm32h7xx_hal_nand.c ****     /* Clear NAND interrupt Rising edge pending bit */
 292:./Libraries/STM32H7xx_HAL_Driver/Src/stm32h7xx_hal_nand.c ****     __FMC_NAND_CLEAR_FLAG(hnand->Instance, FMC_FLAG_RISING_EDGE);
 293:./Libraries/STM32H7xx_HAL_Driver/Src/stm32h7xx_hal_nand.c ****   }
 294:./Libraries/STM32H7xx_HAL_Driver/Src/stm32h7xx_hal_nand.c **** 
 295:./Libraries/STM32H7xx_HAL_Driver/Src/stm32h7xx_hal_nand.c ****   /* Check NAND interrupt Level flag */
 296:./Libraries/STM32H7xx_HAL_Driver/Src/stm32h7xx_hal_nand.c ****   if (__FMC_NAND_GET_FLAG(hnand->Instance, hnand->Init.NandBank, FMC_FLAG_LEVEL))
 273              		.loc 1 296 3 is_stmt 1 view .LVU56
 274              		.loc 1 296 7 is_stmt 0 view .LVU57
 275 000c 5A68     		ldr	r2, [r3, #4]
 276              		.loc 1 296 6 view .LVU58
 277 000e 9107     		lsls	r1, r2, #30
 278 0010 18D4     		bmi	.L37
 279              	.L20:
 297:./Libraries/STM32H7xx_HAL_Driver/Src/stm32h7xx_hal_nand.c ****   {
 298:./Libraries/STM32H7xx_HAL_Driver/Src/stm32h7xx_hal_nand.c ****     /* NAND interrupt callback*/
 299:./Libraries/STM32H7xx_HAL_Driver/Src/stm32h7xx_hal_nand.c **** #if (USE_HAL_NAND_REGISTER_CALLBACKS == 1)
 300:./Libraries/STM32H7xx_HAL_Driver/Src/stm32h7xx_hal_nand.c ****     hnand->ItCallback(hnand);
 301:./Libraries/STM32H7xx_HAL_Driver/Src/stm32h7xx_hal_nand.c **** #else
 302:./Libraries/STM32H7xx_HAL_Driver/Src/stm32h7xx_hal_nand.c ****     HAL_NAND_ITCallback(hnand);
 303:./Libraries/STM32H7xx_HAL_Driver/Src/stm32h7xx_hal_nand.c **** #endif /* (USE_HAL_NAND_REGISTER_CALLBACKS) */
 304:./Libraries/STM32H7xx_HAL_Driver/Src/stm32h7xx_hal_nand.c **** 
 305:./Libraries/STM32H7xx_HAL_Driver/Src/stm32h7xx_hal_nand.c ****     /* Clear NAND interrupt Level pending bit */
 306:./Libraries/STM32H7xx_HAL_Driver/Src/stm32h7xx_hal_nand.c ****     __FMC_NAND_CLEAR_FLAG(hnand->Instance, FMC_FLAG_LEVEL);
 307:./Libraries/STM32H7xx_HAL_Driver/Src/stm32h7xx_hal_nand.c ****   }
 308:./Libraries/STM32H7xx_HAL_Driver/Src/stm32h7xx_hal_nand.c **** 
 309:./Libraries/STM32H7xx_HAL_Driver/Src/stm32h7xx_hal_nand.c ****   /* Check NAND interrupt Falling edge flag */
 310:./Libraries/STM32H7xx_HAL_Driver/Src/stm32h7xx_hal_nand.c ****   if (__FMC_NAND_GET_FLAG(hnand->Instance, hnand->Init.NandBank, FMC_FLAG_FALLING_EDGE))
 280              		.loc 1 310 3 is_stmt 1 view .LVU59
ARM GAS  /tmp/cc5RRSLv.s 			page 12


 281              		.loc 1 310 7 is_stmt 0 view .LVU60
 282 0012 5A68     		ldr	r2, [r3, #4]
 283              		.loc 1 310 6 view .LVU61
 284 0014 5207     		lsls	r2, r2, #29
 285 0016 0CD4     		bmi	.L38
 286              	.L21:
 311:./Libraries/STM32H7xx_HAL_Driver/Src/stm32h7xx_hal_nand.c ****   {
 312:./Libraries/STM32H7xx_HAL_Driver/Src/stm32h7xx_hal_nand.c ****     /* NAND interrupt callback*/
 313:./Libraries/STM32H7xx_HAL_Driver/Src/stm32h7xx_hal_nand.c **** #if (USE_HAL_NAND_REGISTER_CALLBACKS == 1)
 314:./Libraries/STM32H7xx_HAL_Driver/Src/stm32h7xx_hal_nand.c ****     hnand->ItCallback(hnand);
 315:./Libraries/STM32H7xx_HAL_Driver/Src/stm32h7xx_hal_nand.c **** #else
 316:./Libraries/STM32H7xx_HAL_Driver/Src/stm32h7xx_hal_nand.c ****     HAL_NAND_ITCallback(hnand);
 317:./Libraries/STM32H7xx_HAL_Driver/Src/stm32h7xx_hal_nand.c **** #endif /* (USE_HAL_NAND_REGISTER_CALLBACKS) */
 318:./Libraries/STM32H7xx_HAL_Driver/Src/stm32h7xx_hal_nand.c **** 
 319:./Libraries/STM32H7xx_HAL_Driver/Src/stm32h7xx_hal_nand.c ****     /* Clear NAND interrupt Falling edge pending bit */
 320:./Libraries/STM32H7xx_HAL_Driver/Src/stm32h7xx_hal_nand.c ****     __FMC_NAND_CLEAR_FLAG(hnand->Instance, FMC_FLAG_FALLING_EDGE);
 321:./Libraries/STM32H7xx_HAL_Driver/Src/stm32h7xx_hal_nand.c ****   }
 322:./Libraries/STM32H7xx_HAL_Driver/Src/stm32h7xx_hal_nand.c **** 
 323:./Libraries/STM32H7xx_HAL_Driver/Src/stm32h7xx_hal_nand.c ****   /* Check NAND interrupt FIFO empty flag */
 324:./Libraries/STM32H7xx_HAL_Driver/Src/stm32h7xx_hal_nand.c ****   if (__FMC_NAND_GET_FLAG(hnand->Instance, hnand->Init.NandBank, FMC_FLAG_FEMPT))
 287              		.loc 1 324 3 is_stmt 1 view .LVU62
 288              		.loc 1 324 7 is_stmt 0 view .LVU63
 289 0018 5B68     		ldr	r3, [r3, #4]
 290              		.loc 1 324 6 view .LVU64
 291 001a 5B06     		lsls	r3, r3, #25
 292 001c 00D4     		bmi	.L39
 325:./Libraries/STM32H7xx_HAL_Driver/Src/stm32h7xx_hal_nand.c ****   {
 326:./Libraries/STM32H7xx_HAL_Driver/Src/stm32h7xx_hal_nand.c ****     /* NAND interrupt callback*/
 327:./Libraries/STM32H7xx_HAL_Driver/Src/stm32h7xx_hal_nand.c **** #if (USE_HAL_NAND_REGISTER_CALLBACKS == 1)
 328:./Libraries/STM32H7xx_HAL_Driver/Src/stm32h7xx_hal_nand.c ****     hnand->ItCallback(hnand);
 329:./Libraries/STM32H7xx_HAL_Driver/Src/stm32h7xx_hal_nand.c **** #else
 330:./Libraries/STM32H7xx_HAL_Driver/Src/stm32h7xx_hal_nand.c ****     HAL_NAND_ITCallback(hnand);
 331:./Libraries/STM32H7xx_HAL_Driver/Src/stm32h7xx_hal_nand.c **** #endif /* (USE_HAL_NAND_REGISTER_CALLBACKS) */
 332:./Libraries/STM32H7xx_HAL_Driver/Src/stm32h7xx_hal_nand.c **** 
 333:./Libraries/STM32H7xx_HAL_Driver/Src/stm32h7xx_hal_nand.c ****     /* Clear NAND interrupt FIFO empty pending bit */
 334:./Libraries/STM32H7xx_HAL_Driver/Src/stm32h7xx_hal_nand.c ****     __FMC_NAND_CLEAR_FLAG(hnand->Instance, FMC_FLAG_FEMPT);
 335:./Libraries/STM32H7xx_HAL_Driver/Src/stm32h7xx_hal_nand.c ****   }
 336:./Libraries/STM32H7xx_HAL_Driver/Src/stm32h7xx_hal_nand.c **** 
 337:./Libraries/STM32H7xx_HAL_Driver/Src/stm32h7xx_hal_nand.c **** }
 293              		.loc 1 337 1 view .LVU65
 294 001e 10BD     		pop	{r4, pc}
 295              	.LVL17:
 296              	.L39:
 330:./Libraries/STM32H7xx_HAL_Driver/Src/stm32h7xx_hal_nand.c **** #endif /* (USE_HAL_NAND_REGISTER_CALLBACKS) */
 297              		.loc 1 330 5 is_stmt 1 view .LVU66
 298 0020 2046     		mov	r0, r4
 299 0022 FFF7FEFF 		bl	HAL_NAND_ITCallback
 300              	.LVL18:
 334:./Libraries/STM32H7xx_HAL_Driver/Src/stm32h7xx_hal_nand.c ****   }
 301              		.loc 1 334 5 view .LVU67
 302 0026 2268     		ldr	r2, [r4]
 303 0028 5368     		ldr	r3, [r2, #4]
 304 002a 23F04003 		bic	r3, r3, #64
 305 002e 5360     		str	r3, [r2, #4]
 306              		.loc 1 337 1 is_stmt 0 view .LVU68
 307 0030 10BD     		pop	{r4, pc}
 308              	.LVL19:
ARM GAS  /tmp/cc5RRSLv.s 			page 13


 309              	.L38:
 316:./Libraries/STM32H7xx_HAL_Driver/Src/stm32h7xx_hal_nand.c **** #endif /* (USE_HAL_NAND_REGISTER_CALLBACKS) */
 310              		.loc 1 316 5 is_stmt 1 view .LVU69
 311 0032 2046     		mov	r0, r4
 312 0034 FFF7FEFF 		bl	HAL_NAND_ITCallback
 313              	.LVL20:
 320:./Libraries/STM32H7xx_HAL_Driver/Src/stm32h7xx_hal_nand.c ****   }
 314              		.loc 1 320 5 view .LVU70
 315 0038 2368     		ldr	r3, [r4]
 316 003a 5A68     		ldr	r2, [r3, #4]
 317 003c 22F00402 		bic	r2, r2, #4
 318 0040 5A60     		str	r2, [r3, #4]
 319 0042 E9E7     		b	.L21
 320              	.L37:
 302:./Libraries/STM32H7xx_HAL_Driver/Src/stm32h7xx_hal_nand.c **** #endif /* (USE_HAL_NAND_REGISTER_CALLBACKS) */
 321              		.loc 1 302 5 view .LVU71
 322 0044 2046     		mov	r0, r4
 323 0046 FFF7FEFF 		bl	HAL_NAND_ITCallback
 324              	.LVL21:
 306:./Libraries/STM32H7xx_HAL_Driver/Src/stm32h7xx_hal_nand.c ****   }
 325              		.loc 1 306 5 view .LVU72
 326 004a 2368     		ldr	r3, [r4]
 327 004c 5A68     		ldr	r2, [r3, #4]
 328 004e 22F00202 		bic	r2, r2, #2
 329 0052 5A60     		str	r2, [r3, #4]
 330 0054 DDE7     		b	.L20
 331              	.LVL22:
 332              	.L36:
 288:./Libraries/STM32H7xx_HAL_Driver/Src/stm32h7xx_hal_nand.c **** #endif /* (USE_HAL_NAND_REGISTER_CALLBACKS) */
 333              		.loc 1 288 5 view .LVU73
 334 0056 FFF7FEFF 		bl	HAL_NAND_ITCallback
 335              	.LVL23:
 292:./Libraries/STM32H7xx_HAL_Driver/Src/stm32h7xx_hal_nand.c ****   }
 336              		.loc 1 292 5 view .LVU74
 337 005a 2368     		ldr	r3, [r4]
 338 005c 5A68     		ldr	r2, [r3, #4]
 339 005e 22F00102 		bic	r2, r2, #1
 340 0062 5A60     		str	r2, [r3, #4]
 341 0064 D2E7     		b	.L19
 342              		.cfi_endproc
 343              	.LFE335:
 345 0066 00BF     		.section	.text.HAL_NAND_Read_ID,"ax",%progbits
 346              		.align	1
 347              		.p2align 2,,3
 348              		.global	HAL_NAND_Read_ID
 349              		.syntax unified
 350              		.thumb
 351              		.thumb_func
 352              		.fpu fpv5-d16
 354              	HAL_NAND_Read_ID:
 355              	.LVL24:
 356              	.LFB337:
 338:./Libraries/STM32H7xx_HAL_Driver/Src/stm32h7xx_hal_nand.c **** 
 339:./Libraries/STM32H7xx_HAL_Driver/Src/stm32h7xx_hal_nand.c **** /**
 340:./Libraries/STM32H7xx_HAL_Driver/Src/stm32h7xx_hal_nand.c ****   * @brief  NAND interrupt feature callback
 341:./Libraries/STM32H7xx_HAL_Driver/Src/stm32h7xx_hal_nand.c ****   * @param  hnand pointer to a NAND_HandleTypeDef structure that contains
 342:./Libraries/STM32H7xx_HAL_Driver/Src/stm32h7xx_hal_nand.c ****   *                the configuration information for NAND module.
ARM GAS  /tmp/cc5RRSLv.s 			page 14


 343:./Libraries/STM32H7xx_HAL_Driver/Src/stm32h7xx_hal_nand.c ****   * @retval None
 344:./Libraries/STM32H7xx_HAL_Driver/Src/stm32h7xx_hal_nand.c ****   */
 345:./Libraries/STM32H7xx_HAL_Driver/Src/stm32h7xx_hal_nand.c **** __weak void HAL_NAND_ITCallback(NAND_HandleTypeDef *hnand)
 346:./Libraries/STM32H7xx_HAL_Driver/Src/stm32h7xx_hal_nand.c **** {
 347:./Libraries/STM32H7xx_HAL_Driver/Src/stm32h7xx_hal_nand.c ****   /* Prevent unused argument(s) compilation warning */
 348:./Libraries/STM32H7xx_HAL_Driver/Src/stm32h7xx_hal_nand.c ****   UNUSED(hnand);
 349:./Libraries/STM32H7xx_HAL_Driver/Src/stm32h7xx_hal_nand.c **** 
 350:./Libraries/STM32H7xx_HAL_Driver/Src/stm32h7xx_hal_nand.c ****   /* NOTE : This function Should not be modified, when the callback is needed,
 351:./Libraries/STM32H7xx_HAL_Driver/Src/stm32h7xx_hal_nand.c ****             the HAL_NAND_ITCallback could be implemented in the user file
 352:./Libraries/STM32H7xx_HAL_Driver/Src/stm32h7xx_hal_nand.c ****    */
 353:./Libraries/STM32H7xx_HAL_Driver/Src/stm32h7xx_hal_nand.c **** }
 354:./Libraries/STM32H7xx_HAL_Driver/Src/stm32h7xx_hal_nand.c **** 
 355:./Libraries/STM32H7xx_HAL_Driver/Src/stm32h7xx_hal_nand.c **** /**
 356:./Libraries/STM32H7xx_HAL_Driver/Src/stm32h7xx_hal_nand.c ****   * @}
 357:./Libraries/STM32H7xx_HAL_Driver/Src/stm32h7xx_hal_nand.c ****   */
 358:./Libraries/STM32H7xx_HAL_Driver/Src/stm32h7xx_hal_nand.c **** 
 359:./Libraries/STM32H7xx_HAL_Driver/Src/stm32h7xx_hal_nand.c **** /** @defgroup NAND_Exported_Functions_Group2 Input and Output functions
 360:./Libraries/STM32H7xx_HAL_Driver/Src/stm32h7xx_hal_nand.c ****   * @brief    Input Output and memory control functions
 361:./Libraries/STM32H7xx_HAL_Driver/Src/stm32h7xx_hal_nand.c ****   *
 362:./Libraries/STM32H7xx_HAL_Driver/Src/stm32h7xx_hal_nand.c ****   @verbatim
 363:./Libraries/STM32H7xx_HAL_Driver/Src/stm32h7xx_hal_nand.c ****   ==============================================================================
 364:./Libraries/STM32H7xx_HAL_Driver/Src/stm32h7xx_hal_nand.c ****                     ##### NAND Input and Output functions #####
 365:./Libraries/STM32H7xx_HAL_Driver/Src/stm32h7xx_hal_nand.c ****   ==============================================================================
 366:./Libraries/STM32H7xx_HAL_Driver/Src/stm32h7xx_hal_nand.c ****   [..]
 367:./Libraries/STM32H7xx_HAL_Driver/Src/stm32h7xx_hal_nand.c ****     This section provides functions allowing to use and control the NAND
 368:./Libraries/STM32H7xx_HAL_Driver/Src/stm32h7xx_hal_nand.c ****     memory
 369:./Libraries/STM32H7xx_HAL_Driver/Src/stm32h7xx_hal_nand.c **** 
 370:./Libraries/STM32H7xx_HAL_Driver/Src/stm32h7xx_hal_nand.c **** @endverbatim
 371:./Libraries/STM32H7xx_HAL_Driver/Src/stm32h7xx_hal_nand.c ****   * @{
 372:./Libraries/STM32H7xx_HAL_Driver/Src/stm32h7xx_hal_nand.c ****   */
 373:./Libraries/STM32H7xx_HAL_Driver/Src/stm32h7xx_hal_nand.c **** 
 374:./Libraries/STM32H7xx_HAL_Driver/Src/stm32h7xx_hal_nand.c **** /**
 375:./Libraries/STM32H7xx_HAL_Driver/Src/stm32h7xx_hal_nand.c ****   * @brief  Read the NAND memory electronic signature
 376:./Libraries/STM32H7xx_HAL_Driver/Src/stm32h7xx_hal_nand.c ****   * @param  hnand pointer to a NAND_HandleTypeDef structure that contains
 377:./Libraries/STM32H7xx_HAL_Driver/Src/stm32h7xx_hal_nand.c ****   *                the configuration information for NAND module.
 378:./Libraries/STM32H7xx_HAL_Driver/Src/stm32h7xx_hal_nand.c ****   * @param  pNAND_ID NAND ID structure
 379:./Libraries/STM32H7xx_HAL_Driver/Src/stm32h7xx_hal_nand.c ****   * @retval HAL status
 380:./Libraries/STM32H7xx_HAL_Driver/Src/stm32h7xx_hal_nand.c ****   */
 381:./Libraries/STM32H7xx_HAL_Driver/Src/stm32h7xx_hal_nand.c **** HAL_StatusTypeDef HAL_NAND_Read_ID(NAND_HandleTypeDef *hnand, NAND_IDTypeDef *pNAND_ID)
 382:./Libraries/STM32H7xx_HAL_Driver/Src/stm32h7xx_hal_nand.c **** {
 357              		.loc 1 382 1 view -0
 358              		.cfi_startproc
 359              		@ args = 0, pretend = 0, frame = 8
 360              		@ frame_needed = 0, uses_anonymous_args = 0
 361              		@ link register save eliminated.
 383:./Libraries/STM32H7xx_HAL_Driver/Src/stm32h7xx_hal_nand.c ****   __IO uint32_t data = 0;
 362              		.loc 1 383 3 view .LVU76
 382:./Libraries/STM32H7xx_HAL_Driver/Src/stm32h7xx_hal_nand.c ****   __IO uint32_t data = 0;
 363              		.loc 1 382 1 is_stmt 0 view .LVU77
 364 0000 30B4     		push	{r4, r5}
 365              	.LCFI4:
 366              		.cfi_def_cfa_offset 8
 367              		.cfi_offset 4, -8
 368              		.cfi_offset 5, -4
 369              		.loc 1 383 17 view .LVU78
 370 0002 0023     		movs	r3, #0
 382:./Libraries/STM32H7xx_HAL_Driver/Src/stm32h7xx_hal_nand.c ****   __IO uint32_t data = 0;
ARM GAS  /tmp/cc5RRSLv.s 			page 15


 371              		.loc 1 382 1 view .LVU79
 372 0004 82B0     		sub	sp, sp, #8
 373              	.LCFI5:
 374              		.cfi_def_cfa_offset 16
 375              		.loc 1 383 17 view .LVU80
 376 0006 0093     		str	r3, [sp]
 384:./Libraries/STM32H7xx_HAL_Driver/Src/stm32h7xx_hal_nand.c ****   __IO uint32_t data1 = 0;
 377              		.loc 1 384 3 is_stmt 1 view .LVU81
 378              		.loc 1 384 17 is_stmt 0 view .LVU82
 379 0008 0193     		str	r3, [sp, #4]
 385:./Libraries/STM32H7xx_HAL_Driver/Src/stm32h7xx_hal_nand.c ****   uint32_t deviceaddress;
 380              		.loc 1 385 3 is_stmt 1 view .LVU83
 386:./Libraries/STM32H7xx_HAL_Driver/Src/stm32h7xx_hal_nand.c **** 
 387:./Libraries/STM32H7xx_HAL_Driver/Src/stm32h7xx_hal_nand.c ****   /* Check the NAND controller state */
 388:./Libraries/STM32H7xx_HAL_Driver/Src/stm32h7xx_hal_nand.c ****   if (hnand->State == HAL_NAND_STATE_BUSY)
 381              		.loc 1 388 3 view .LVU84
 382              		.loc 1 388 12 is_stmt 0 view .LVU85
 383 000a 90F82120 		ldrb	r2, [r0, #33]	@ zero_extendqisi2
 384              		.loc 1 388 6 view .LVU86
 385 000e 022A     		cmp	r2, #2
 386              		.loc 1 388 12 view .LVU87
 387 0010 D4B2     		uxtb	r4, r2
 388              		.loc 1 388 6 view .LVU88
 389 0012 31D0     		beq	.L41
 389:./Libraries/STM32H7xx_HAL_Driver/Src/stm32h7xx_hal_nand.c ****   {
 390:./Libraries/STM32H7xx_HAL_Driver/Src/stm32h7xx_hal_nand.c ****     return HAL_BUSY;
 391:./Libraries/STM32H7xx_HAL_Driver/Src/stm32h7xx_hal_nand.c ****   }
 392:./Libraries/STM32H7xx_HAL_Driver/Src/stm32h7xx_hal_nand.c ****   else if (hnand->State == HAL_NAND_STATE_READY)
 390              		.loc 1 392 8 is_stmt 1 view .LVU89
 391              		.loc 1 392 17 is_stmt 0 view .LVU90
 392 0014 90F82120 		ldrb	r2, [r0, #33]	@ zero_extendqisi2
 393              		.loc 1 392 11 view .LVU91
 394 0018 012A     		cmp	r2, #1
 395              		.loc 1 392 17 view .LVU92
 396 001a D4B2     		uxtb	r4, r2
 397              		.loc 1 392 11 view .LVU93
 398 001c 30D1     		bne	.L44
 393:./Libraries/STM32H7xx_HAL_Driver/Src/stm32h7xx_hal_nand.c ****   {
 394:./Libraries/STM32H7xx_HAL_Driver/Src/stm32h7xx_hal_nand.c ****     /* Process Locked */
 395:./Libraries/STM32H7xx_HAL_Driver/Src/stm32h7xx_hal_nand.c ****     __HAL_LOCK(hnand);
 399              		.loc 1 395 5 is_stmt 1 view .LVU94
 400              		.loc 1 395 5 view .LVU95
 401 001e 90F82020 		ldrb	r2, [r0, #32]	@ zero_extendqisi2
 402 0022 012A     		cmp	r2, #1
 403 0024 41D0     		beq	.L45
 404              		.loc 1 395 5 discriminator 2 view .LVU96
 405 0026 80F82040 		strb	r4, [r0, #32]
 406              		.loc 1 395 5 discriminator 2 view .LVU97
 396:./Libraries/STM32H7xx_HAL_Driver/Src/stm32h7xx_hal_nand.c **** 
 397:./Libraries/STM32H7xx_HAL_Driver/Src/stm32h7xx_hal_nand.c ****     /* Update the NAND controller state */
 398:./Libraries/STM32H7xx_HAL_Driver/Src/stm32h7xx_hal_nand.c ****     hnand->State = HAL_NAND_STATE_BUSY;
 407              		.loc 1 398 5 discriminator 2 view .LVU98
 408              		.loc 1 398 18 is_stmt 0 discriminator 2 view .LVU99
 409 002a 0225     		movs	r5, #2
 399:./Libraries/STM32H7xx_HAL_Driver/Src/stm32h7xx_hal_nand.c **** 
 400:./Libraries/STM32H7xx_HAL_Driver/Src/stm32h7xx_hal_nand.c ****     /* Identify the device address */
 401:./Libraries/STM32H7xx_HAL_Driver/Src/stm32h7xx_hal_nand.c ****     deviceaddress = NAND_DEVICE;
ARM GAS  /tmp/cc5RRSLv.s 			page 16


 402:./Libraries/STM32H7xx_HAL_Driver/Src/stm32h7xx_hal_nand.c **** 
 403:./Libraries/STM32H7xx_HAL_Driver/Src/stm32h7xx_hal_nand.c ****     /* Send Read ID command sequence */
 404:./Libraries/STM32H7xx_HAL_Driver/Src/stm32h7xx_hal_nand.c ****     *(__IO uint8_t *)((uint32_t)(deviceaddress | CMD_AREA))  = NAND_CMD_READID;
 410              		.loc 1 404 62 discriminator 2 view .LVU100
 411 002c 204A     		ldr	r2, .L51
 412 002e 9024     		movs	r4, #144
 398:./Libraries/STM32H7xx_HAL_Driver/Src/stm32h7xx_hal_nand.c **** 
 413              		.loc 1 398 18 discriminator 2 view .LVU101
 414 0030 80F82150 		strb	r5, [r0, #33]
 401:./Libraries/STM32H7xx_HAL_Driver/Src/stm32h7xx_hal_nand.c **** 
 415              		.loc 1 401 5 is_stmt 1 discriminator 2 view .LVU102
 416              	.LVL25:
 417              		.loc 1 404 5 discriminator 2 view .LVU103
 418              		.loc 1 404 62 is_stmt 0 discriminator 2 view .LVU104
 419 0034 1470     		strb	r4, [r2]
 405:./Libraries/STM32H7xx_HAL_Driver/Src/stm32h7xx_hal_nand.c ****     __DSB();
 420              		.loc 1 405 5 is_stmt 1 discriminator 2 view .LVU105
 421              	.LBB680:
 422              	.LBI680:
 423              		.file 2 "./Libraries/CMSIS/Core/Include/cmsis_gcc.h"
   1:./Libraries/CMSIS/Core/Include/cmsis_gcc.h **** /**************************************************************************//**
   2:./Libraries/CMSIS/Core/Include/cmsis_gcc.h ****  * @file     cmsis_gcc.h
   3:./Libraries/CMSIS/Core/Include/cmsis_gcc.h ****  * @brief    CMSIS compiler GCC header file
   4:./Libraries/CMSIS/Core/Include/cmsis_gcc.h ****  * @version  V5.2.0
   5:./Libraries/CMSIS/Core/Include/cmsis_gcc.h ****  * @date     08. May 2019
   6:./Libraries/CMSIS/Core/Include/cmsis_gcc.h ****  ******************************************************************************/
   7:./Libraries/CMSIS/Core/Include/cmsis_gcc.h **** /*
   8:./Libraries/CMSIS/Core/Include/cmsis_gcc.h ****  * Copyright (c) 2009-2019 Arm Limited. All rights reserved.
   9:./Libraries/CMSIS/Core/Include/cmsis_gcc.h ****  *
  10:./Libraries/CMSIS/Core/Include/cmsis_gcc.h ****  * SPDX-License-Identifier: Apache-2.0
  11:./Libraries/CMSIS/Core/Include/cmsis_gcc.h ****  *
  12:./Libraries/CMSIS/Core/Include/cmsis_gcc.h ****  * Licensed under the Apache License, Version 2.0 (the License); you may
  13:./Libraries/CMSIS/Core/Include/cmsis_gcc.h ****  * not use this file except in compliance with the License.
  14:./Libraries/CMSIS/Core/Include/cmsis_gcc.h ****  * You may obtain a copy of the License at
  15:./Libraries/CMSIS/Core/Include/cmsis_gcc.h ****  *
  16:./Libraries/CMSIS/Core/Include/cmsis_gcc.h ****  * www.apache.org/licenses/LICENSE-2.0
  17:./Libraries/CMSIS/Core/Include/cmsis_gcc.h ****  *
  18:./Libraries/CMSIS/Core/Include/cmsis_gcc.h ****  * Unless required by applicable law or agreed to in writing, software
  19:./Libraries/CMSIS/Core/Include/cmsis_gcc.h ****  * distributed under the License is distributed on an AS IS BASIS, WITHOUT
  20:./Libraries/CMSIS/Core/Include/cmsis_gcc.h ****  * WARRANTIES OR CONDITIONS OF ANY KIND, either express or implied.
  21:./Libraries/CMSIS/Core/Include/cmsis_gcc.h ****  * See the License for the specific language governing permissions and
  22:./Libraries/CMSIS/Core/Include/cmsis_gcc.h ****  * limitations under the License.
  23:./Libraries/CMSIS/Core/Include/cmsis_gcc.h ****  */
  24:./Libraries/CMSIS/Core/Include/cmsis_gcc.h **** 
  25:./Libraries/CMSIS/Core/Include/cmsis_gcc.h **** #ifndef __CMSIS_GCC_H
  26:./Libraries/CMSIS/Core/Include/cmsis_gcc.h **** #define __CMSIS_GCC_H
  27:./Libraries/CMSIS/Core/Include/cmsis_gcc.h **** 
  28:./Libraries/CMSIS/Core/Include/cmsis_gcc.h **** /* ignore some GCC warnings */
  29:./Libraries/CMSIS/Core/Include/cmsis_gcc.h **** #pragma GCC diagnostic push
  30:./Libraries/CMSIS/Core/Include/cmsis_gcc.h **** #pragma GCC diagnostic ignored "-Wsign-conversion"
  31:./Libraries/CMSIS/Core/Include/cmsis_gcc.h **** #pragma GCC diagnostic ignored "-Wconversion"
  32:./Libraries/CMSIS/Core/Include/cmsis_gcc.h **** #pragma GCC diagnostic ignored "-Wunused-parameter"
  33:./Libraries/CMSIS/Core/Include/cmsis_gcc.h **** 
  34:./Libraries/CMSIS/Core/Include/cmsis_gcc.h **** /* Fallback for __has_builtin */
  35:./Libraries/CMSIS/Core/Include/cmsis_gcc.h **** #ifndef __has_builtin
  36:./Libraries/CMSIS/Core/Include/cmsis_gcc.h ****   #define __has_builtin(x) (0)
  37:./Libraries/CMSIS/Core/Include/cmsis_gcc.h **** #endif
ARM GAS  /tmp/cc5RRSLv.s 			page 17


  38:./Libraries/CMSIS/Core/Include/cmsis_gcc.h **** 
  39:./Libraries/CMSIS/Core/Include/cmsis_gcc.h **** /* CMSIS compiler specific defines */
  40:./Libraries/CMSIS/Core/Include/cmsis_gcc.h **** #ifndef   __ASM
  41:./Libraries/CMSIS/Core/Include/cmsis_gcc.h ****   #define __ASM                                  __asm
  42:./Libraries/CMSIS/Core/Include/cmsis_gcc.h **** #endif
  43:./Libraries/CMSIS/Core/Include/cmsis_gcc.h **** #ifndef   __INLINE
  44:./Libraries/CMSIS/Core/Include/cmsis_gcc.h ****   #define __INLINE                               inline
  45:./Libraries/CMSIS/Core/Include/cmsis_gcc.h **** #endif
  46:./Libraries/CMSIS/Core/Include/cmsis_gcc.h **** #ifndef   __STATIC_INLINE
  47:./Libraries/CMSIS/Core/Include/cmsis_gcc.h ****   #define __STATIC_INLINE                        static inline
  48:./Libraries/CMSIS/Core/Include/cmsis_gcc.h **** #endif
  49:./Libraries/CMSIS/Core/Include/cmsis_gcc.h **** #ifndef   __STATIC_FORCEINLINE                 
  50:./Libraries/CMSIS/Core/Include/cmsis_gcc.h ****   #define __STATIC_FORCEINLINE                   __attribute__((always_inline)) static inline
  51:./Libraries/CMSIS/Core/Include/cmsis_gcc.h **** #endif                                           
  52:./Libraries/CMSIS/Core/Include/cmsis_gcc.h **** #ifndef   __NO_RETURN
  53:./Libraries/CMSIS/Core/Include/cmsis_gcc.h ****   #define __NO_RETURN                            __attribute__((__noreturn__))
  54:./Libraries/CMSIS/Core/Include/cmsis_gcc.h **** #endif
  55:./Libraries/CMSIS/Core/Include/cmsis_gcc.h **** #ifndef   __USED
  56:./Libraries/CMSIS/Core/Include/cmsis_gcc.h ****   #define __USED                                 __attribute__((used))
  57:./Libraries/CMSIS/Core/Include/cmsis_gcc.h **** #endif
  58:./Libraries/CMSIS/Core/Include/cmsis_gcc.h **** #ifndef   __WEAK
  59:./Libraries/CMSIS/Core/Include/cmsis_gcc.h ****   #define __WEAK                                 __attribute__((weak))
  60:./Libraries/CMSIS/Core/Include/cmsis_gcc.h **** #endif
  61:./Libraries/CMSIS/Core/Include/cmsis_gcc.h **** #ifndef   __PACKED
  62:./Libraries/CMSIS/Core/Include/cmsis_gcc.h ****   #define __PACKED                               __attribute__((packed, aligned(1)))
  63:./Libraries/CMSIS/Core/Include/cmsis_gcc.h **** #endif
  64:./Libraries/CMSIS/Core/Include/cmsis_gcc.h **** #ifndef   __PACKED_STRUCT
  65:./Libraries/CMSIS/Core/Include/cmsis_gcc.h ****   #define __PACKED_STRUCT                        struct __attribute__((packed, aligned(1)))
  66:./Libraries/CMSIS/Core/Include/cmsis_gcc.h **** #endif
  67:./Libraries/CMSIS/Core/Include/cmsis_gcc.h **** #ifndef   __PACKED_UNION
  68:./Libraries/CMSIS/Core/Include/cmsis_gcc.h ****   #define __PACKED_UNION                         union __attribute__((packed, aligned(1)))
  69:./Libraries/CMSIS/Core/Include/cmsis_gcc.h **** #endif
  70:./Libraries/CMSIS/Core/Include/cmsis_gcc.h **** #ifndef   __UNALIGNED_UINT32        /* deprecated */
  71:./Libraries/CMSIS/Core/Include/cmsis_gcc.h ****   #pragma GCC diagnostic push
  72:./Libraries/CMSIS/Core/Include/cmsis_gcc.h ****   #pragma GCC diagnostic ignored "-Wpacked"
  73:./Libraries/CMSIS/Core/Include/cmsis_gcc.h ****   #pragma GCC diagnostic ignored "-Wattributes"
  74:./Libraries/CMSIS/Core/Include/cmsis_gcc.h ****   struct __attribute__((packed)) T_UINT32 { uint32_t v; };
  75:./Libraries/CMSIS/Core/Include/cmsis_gcc.h ****   #pragma GCC diagnostic pop
  76:./Libraries/CMSIS/Core/Include/cmsis_gcc.h ****   #define __UNALIGNED_UINT32(x)                  (((struct T_UINT32 *)(x))->v)
  77:./Libraries/CMSIS/Core/Include/cmsis_gcc.h **** #endif
  78:./Libraries/CMSIS/Core/Include/cmsis_gcc.h **** #ifndef   __UNALIGNED_UINT16_WRITE
  79:./Libraries/CMSIS/Core/Include/cmsis_gcc.h ****   #pragma GCC diagnostic push
  80:./Libraries/CMSIS/Core/Include/cmsis_gcc.h ****   #pragma GCC diagnostic ignored "-Wpacked"
  81:./Libraries/CMSIS/Core/Include/cmsis_gcc.h ****   #pragma GCC diagnostic ignored "-Wattributes"
  82:./Libraries/CMSIS/Core/Include/cmsis_gcc.h ****   __PACKED_STRUCT T_UINT16_WRITE { uint16_t v; };
  83:./Libraries/CMSIS/Core/Include/cmsis_gcc.h ****   #pragma GCC diagnostic pop
  84:./Libraries/CMSIS/Core/Include/cmsis_gcc.h ****   #define __UNALIGNED_UINT16_WRITE(addr, val)    (void)((((struct T_UINT16_WRITE *)(void *)(addr))-
  85:./Libraries/CMSIS/Core/Include/cmsis_gcc.h **** #endif
  86:./Libraries/CMSIS/Core/Include/cmsis_gcc.h **** #ifndef   __UNALIGNED_UINT16_READ
  87:./Libraries/CMSIS/Core/Include/cmsis_gcc.h ****   #pragma GCC diagnostic push
  88:./Libraries/CMSIS/Core/Include/cmsis_gcc.h ****   #pragma GCC diagnostic ignored "-Wpacked"
  89:./Libraries/CMSIS/Core/Include/cmsis_gcc.h ****   #pragma GCC diagnostic ignored "-Wattributes"
  90:./Libraries/CMSIS/Core/Include/cmsis_gcc.h ****   __PACKED_STRUCT T_UINT16_READ { uint16_t v; };
  91:./Libraries/CMSIS/Core/Include/cmsis_gcc.h ****   #pragma GCC diagnostic pop
  92:./Libraries/CMSIS/Core/Include/cmsis_gcc.h ****   #define __UNALIGNED_UINT16_READ(addr)          (((const struct T_UINT16_READ *)(const void *)(add
  93:./Libraries/CMSIS/Core/Include/cmsis_gcc.h **** #endif
  94:./Libraries/CMSIS/Core/Include/cmsis_gcc.h **** #ifndef   __UNALIGNED_UINT32_WRITE
ARM GAS  /tmp/cc5RRSLv.s 			page 18


  95:./Libraries/CMSIS/Core/Include/cmsis_gcc.h ****   #pragma GCC diagnostic push
  96:./Libraries/CMSIS/Core/Include/cmsis_gcc.h ****   #pragma GCC diagnostic ignored "-Wpacked"
  97:./Libraries/CMSIS/Core/Include/cmsis_gcc.h ****   #pragma GCC diagnostic ignored "-Wattributes"
  98:./Libraries/CMSIS/Core/Include/cmsis_gcc.h ****   __PACKED_STRUCT T_UINT32_WRITE { uint32_t v; };
  99:./Libraries/CMSIS/Core/Include/cmsis_gcc.h ****   #pragma GCC diagnostic pop
 100:./Libraries/CMSIS/Core/Include/cmsis_gcc.h ****   #define __UNALIGNED_UINT32_WRITE(addr, val)    (void)((((struct T_UINT32_WRITE *)(void *)(addr))-
 101:./Libraries/CMSIS/Core/Include/cmsis_gcc.h **** #endif
 102:./Libraries/CMSIS/Core/Include/cmsis_gcc.h **** #ifndef   __UNALIGNED_UINT32_READ
 103:./Libraries/CMSIS/Core/Include/cmsis_gcc.h ****   #pragma GCC diagnostic push
 104:./Libraries/CMSIS/Core/Include/cmsis_gcc.h ****   #pragma GCC diagnostic ignored "-Wpacked"
 105:./Libraries/CMSIS/Core/Include/cmsis_gcc.h ****   #pragma GCC diagnostic ignored "-Wattributes"
 106:./Libraries/CMSIS/Core/Include/cmsis_gcc.h ****   __PACKED_STRUCT T_UINT32_READ { uint32_t v; };
 107:./Libraries/CMSIS/Core/Include/cmsis_gcc.h ****   #pragma GCC diagnostic pop
 108:./Libraries/CMSIS/Core/Include/cmsis_gcc.h ****   #define __UNALIGNED_UINT32_READ(addr)          (((const struct T_UINT32_READ *)(const void *)(add
 109:./Libraries/CMSIS/Core/Include/cmsis_gcc.h **** #endif
 110:./Libraries/CMSIS/Core/Include/cmsis_gcc.h **** #ifndef   __ALIGNED
 111:./Libraries/CMSIS/Core/Include/cmsis_gcc.h ****   #define __ALIGNED(x)                           __attribute__((aligned(x)))
 112:./Libraries/CMSIS/Core/Include/cmsis_gcc.h **** #endif
 113:./Libraries/CMSIS/Core/Include/cmsis_gcc.h **** #ifndef   __RESTRICT
 114:./Libraries/CMSIS/Core/Include/cmsis_gcc.h ****   #define __RESTRICT                             __restrict
 115:./Libraries/CMSIS/Core/Include/cmsis_gcc.h **** #endif
 116:./Libraries/CMSIS/Core/Include/cmsis_gcc.h **** #ifndef   __COMPILER_BARRIER
 117:./Libraries/CMSIS/Core/Include/cmsis_gcc.h ****   #define __COMPILER_BARRIER()                   __ASM volatile("":::"memory")
 118:./Libraries/CMSIS/Core/Include/cmsis_gcc.h **** #endif
 119:./Libraries/CMSIS/Core/Include/cmsis_gcc.h **** 
 120:./Libraries/CMSIS/Core/Include/cmsis_gcc.h **** /* #########################  Startup and Lowlevel Init  ######################## */
 121:./Libraries/CMSIS/Core/Include/cmsis_gcc.h **** 
 122:./Libraries/CMSIS/Core/Include/cmsis_gcc.h **** #ifndef __PROGRAM_START
 123:./Libraries/CMSIS/Core/Include/cmsis_gcc.h **** 
 124:./Libraries/CMSIS/Core/Include/cmsis_gcc.h **** /**
 125:./Libraries/CMSIS/Core/Include/cmsis_gcc.h ****   \brief   Initializes data and bss sections
 126:./Libraries/CMSIS/Core/Include/cmsis_gcc.h ****   \details This default implementations initialized all data and additional bss
 127:./Libraries/CMSIS/Core/Include/cmsis_gcc.h ****            sections relying on .copy.table and .zero.table specified properly
 128:./Libraries/CMSIS/Core/Include/cmsis_gcc.h ****            in the used linker script.
 129:./Libraries/CMSIS/Core/Include/cmsis_gcc.h ****   
 130:./Libraries/CMSIS/Core/Include/cmsis_gcc.h ****  */
 131:./Libraries/CMSIS/Core/Include/cmsis_gcc.h **** __STATIC_FORCEINLINE __NO_RETURN void __cmsis_start(void)
 132:./Libraries/CMSIS/Core/Include/cmsis_gcc.h **** {
 133:./Libraries/CMSIS/Core/Include/cmsis_gcc.h ****   extern void _start(void) __NO_RETURN;
 134:./Libraries/CMSIS/Core/Include/cmsis_gcc.h ****   
 135:./Libraries/CMSIS/Core/Include/cmsis_gcc.h ****   typedef struct {
 136:./Libraries/CMSIS/Core/Include/cmsis_gcc.h ****     uint32_t const* src;
 137:./Libraries/CMSIS/Core/Include/cmsis_gcc.h ****     uint32_t* dest;
 138:./Libraries/CMSIS/Core/Include/cmsis_gcc.h ****     uint32_t  wlen;
 139:./Libraries/CMSIS/Core/Include/cmsis_gcc.h ****   } __copy_table_t;
 140:./Libraries/CMSIS/Core/Include/cmsis_gcc.h ****   
 141:./Libraries/CMSIS/Core/Include/cmsis_gcc.h ****   typedef struct {
 142:./Libraries/CMSIS/Core/Include/cmsis_gcc.h ****     uint32_t* dest;
 143:./Libraries/CMSIS/Core/Include/cmsis_gcc.h ****     uint32_t  wlen;
 144:./Libraries/CMSIS/Core/Include/cmsis_gcc.h ****   } __zero_table_t;
 145:./Libraries/CMSIS/Core/Include/cmsis_gcc.h ****   
 146:./Libraries/CMSIS/Core/Include/cmsis_gcc.h ****   extern const __copy_table_t __copy_table_start__;
 147:./Libraries/CMSIS/Core/Include/cmsis_gcc.h ****   extern const __copy_table_t __copy_table_end__;
 148:./Libraries/CMSIS/Core/Include/cmsis_gcc.h ****   extern const __zero_table_t __zero_table_start__;
 149:./Libraries/CMSIS/Core/Include/cmsis_gcc.h ****   extern const __zero_table_t __zero_table_end__;
 150:./Libraries/CMSIS/Core/Include/cmsis_gcc.h **** 
 151:./Libraries/CMSIS/Core/Include/cmsis_gcc.h ****   for (__copy_table_t const* pTable = &__copy_table_start__; pTable < &__copy_table_end__; ++pTable
ARM GAS  /tmp/cc5RRSLv.s 			page 19


 152:./Libraries/CMSIS/Core/Include/cmsis_gcc.h ****     for(uint32_t i=0u; i<pTable->wlen; ++i) {
 153:./Libraries/CMSIS/Core/Include/cmsis_gcc.h ****       pTable->dest[i] = pTable->src[i];
 154:./Libraries/CMSIS/Core/Include/cmsis_gcc.h ****     }
 155:./Libraries/CMSIS/Core/Include/cmsis_gcc.h ****   }
 156:./Libraries/CMSIS/Core/Include/cmsis_gcc.h ****  
 157:./Libraries/CMSIS/Core/Include/cmsis_gcc.h ****   for (__zero_table_t const* pTable = &__zero_table_start__; pTable < &__zero_table_end__; ++pTable
 158:./Libraries/CMSIS/Core/Include/cmsis_gcc.h ****     for(uint32_t i=0u; i<pTable->wlen; ++i) {
 159:./Libraries/CMSIS/Core/Include/cmsis_gcc.h ****       pTable->dest[i] = 0u;
 160:./Libraries/CMSIS/Core/Include/cmsis_gcc.h ****     }
 161:./Libraries/CMSIS/Core/Include/cmsis_gcc.h ****   }
 162:./Libraries/CMSIS/Core/Include/cmsis_gcc.h ****  
 163:./Libraries/CMSIS/Core/Include/cmsis_gcc.h ****   _start();
 164:./Libraries/CMSIS/Core/Include/cmsis_gcc.h **** }
 165:./Libraries/CMSIS/Core/Include/cmsis_gcc.h ****   
 166:./Libraries/CMSIS/Core/Include/cmsis_gcc.h **** #define __PROGRAM_START           __cmsis_start
 167:./Libraries/CMSIS/Core/Include/cmsis_gcc.h **** #endif
 168:./Libraries/CMSIS/Core/Include/cmsis_gcc.h **** 
 169:./Libraries/CMSIS/Core/Include/cmsis_gcc.h **** #ifndef __INITIAL_SP
 170:./Libraries/CMSIS/Core/Include/cmsis_gcc.h **** #define __INITIAL_SP              __StackTop
 171:./Libraries/CMSIS/Core/Include/cmsis_gcc.h **** #endif
 172:./Libraries/CMSIS/Core/Include/cmsis_gcc.h **** 
 173:./Libraries/CMSIS/Core/Include/cmsis_gcc.h **** #ifndef __STACK_LIMIT
 174:./Libraries/CMSIS/Core/Include/cmsis_gcc.h **** #define __STACK_LIMIT             __StackLimit
 175:./Libraries/CMSIS/Core/Include/cmsis_gcc.h **** #endif
 176:./Libraries/CMSIS/Core/Include/cmsis_gcc.h **** 
 177:./Libraries/CMSIS/Core/Include/cmsis_gcc.h **** #ifndef __VECTOR_TABLE
 178:./Libraries/CMSIS/Core/Include/cmsis_gcc.h **** #define __VECTOR_TABLE            __Vectors
 179:./Libraries/CMSIS/Core/Include/cmsis_gcc.h **** #endif
 180:./Libraries/CMSIS/Core/Include/cmsis_gcc.h **** 
 181:./Libraries/CMSIS/Core/Include/cmsis_gcc.h **** #ifndef __VECTOR_TABLE_ATTRIBUTE
 182:./Libraries/CMSIS/Core/Include/cmsis_gcc.h **** #define __VECTOR_TABLE_ATTRIBUTE  __attribute((used, section(".vectors")))
 183:./Libraries/CMSIS/Core/Include/cmsis_gcc.h **** #endif
 184:./Libraries/CMSIS/Core/Include/cmsis_gcc.h **** 
 185:./Libraries/CMSIS/Core/Include/cmsis_gcc.h **** /* ###########################  Core Function Access  ########################### */
 186:./Libraries/CMSIS/Core/Include/cmsis_gcc.h **** /** \ingroup  CMSIS_Core_FunctionInterface
 187:./Libraries/CMSIS/Core/Include/cmsis_gcc.h ****     \defgroup CMSIS_Core_RegAccFunctions CMSIS Core Register Access Functions
 188:./Libraries/CMSIS/Core/Include/cmsis_gcc.h ****   @{
 189:./Libraries/CMSIS/Core/Include/cmsis_gcc.h ****  */
 190:./Libraries/CMSIS/Core/Include/cmsis_gcc.h **** 
 191:./Libraries/CMSIS/Core/Include/cmsis_gcc.h **** /**
 192:./Libraries/CMSIS/Core/Include/cmsis_gcc.h ****   \brief   Enable IRQ Interrupts
 193:./Libraries/CMSIS/Core/Include/cmsis_gcc.h ****   \details Enables IRQ interrupts by clearing the I-bit in the CPSR.
 194:./Libraries/CMSIS/Core/Include/cmsis_gcc.h ****            Can only be executed in Privileged modes.
 195:./Libraries/CMSIS/Core/Include/cmsis_gcc.h ****  */
 196:./Libraries/CMSIS/Core/Include/cmsis_gcc.h **** __STATIC_FORCEINLINE void __enable_irq(void)
 197:./Libraries/CMSIS/Core/Include/cmsis_gcc.h **** {
 198:./Libraries/CMSIS/Core/Include/cmsis_gcc.h ****   __ASM volatile ("cpsie i" : : : "memory");
 199:./Libraries/CMSIS/Core/Include/cmsis_gcc.h **** }
 200:./Libraries/CMSIS/Core/Include/cmsis_gcc.h **** 
 201:./Libraries/CMSIS/Core/Include/cmsis_gcc.h **** 
 202:./Libraries/CMSIS/Core/Include/cmsis_gcc.h **** /**
 203:./Libraries/CMSIS/Core/Include/cmsis_gcc.h ****   \brief   Disable IRQ Interrupts
 204:./Libraries/CMSIS/Core/Include/cmsis_gcc.h ****   \details Disables IRQ interrupts by setting the I-bit in the CPSR.
 205:./Libraries/CMSIS/Core/Include/cmsis_gcc.h ****            Can only be executed in Privileged modes.
 206:./Libraries/CMSIS/Core/Include/cmsis_gcc.h ****  */
 207:./Libraries/CMSIS/Core/Include/cmsis_gcc.h **** __STATIC_FORCEINLINE void __disable_irq(void)
 208:./Libraries/CMSIS/Core/Include/cmsis_gcc.h **** {
ARM GAS  /tmp/cc5RRSLv.s 			page 20


 209:./Libraries/CMSIS/Core/Include/cmsis_gcc.h ****   __ASM volatile ("cpsid i" : : : "memory");
 210:./Libraries/CMSIS/Core/Include/cmsis_gcc.h **** }
 211:./Libraries/CMSIS/Core/Include/cmsis_gcc.h **** 
 212:./Libraries/CMSIS/Core/Include/cmsis_gcc.h **** 
 213:./Libraries/CMSIS/Core/Include/cmsis_gcc.h **** /**
 214:./Libraries/CMSIS/Core/Include/cmsis_gcc.h ****   \brief   Get Control Register
 215:./Libraries/CMSIS/Core/Include/cmsis_gcc.h ****   \details Returns the content of the Control Register.
 216:./Libraries/CMSIS/Core/Include/cmsis_gcc.h ****   \return               Control Register value
 217:./Libraries/CMSIS/Core/Include/cmsis_gcc.h ****  */
 218:./Libraries/CMSIS/Core/Include/cmsis_gcc.h **** __STATIC_FORCEINLINE uint32_t __get_CONTROL(void)
 219:./Libraries/CMSIS/Core/Include/cmsis_gcc.h **** {
 220:./Libraries/CMSIS/Core/Include/cmsis_gcc.h ****   uint32_t result;
 221:./Libraries/CMSIS/Core/Include/cmsis_gcc.h **** 
 222:./Libraries/CMSIS/Core/Include/cmsis_gcc.h ****   __ASM volatile ("MRS %0, control" : "=r" (result) );
 223:./Libraries/CMSIS/Core/Include/cmsis_gcc.h ****   return(result);
 224:./Libraries/CMSIS/Core/Include/cmsis_gcc.h **** }
 225:./Libraries/CMSIS/Core/Include/cmsis_gcc.h **** 
 226:./Libraries/CMSIS/Core/Include/cmsis_gcc.h **** 
 227:./Libraries/CMSIS/Core/Include/cmsis_gcc.h **** #if (defined (__ARM_FEATURE_CMSE ) && (__ARM_FEATURE_CMSE == 3))
 228:./Libraries/CMSIS/Core/Include/cmsis_gcc.h **** /**
 229:./Libraries/CMSIS/Core/Include/cmsis_gcc.h ****   \brief   Get Control Register (non-secure)
 230:./Libraries/CMSIS/Core/Include/cmsis_gcc.h ****   \details Returns the content of the non-secure Control Register when in secure mode.
 231:./Libraries/CMSIS/Core/Include/cmsis_gcc.h ****   \return               non-secure Control Register value
 232:./Libraries/CMSIS/Core/Include/cmsis_gcc.h ****  */
 233:./Libraries/CMSIS/Core/Include/cmsis_gcc.h **** __STATIC_FORCEINLINE uint32_t __TZ_get_CONTROL_NS(void)
 234:./Libraries/CMSIS/Core/Include/cmsis_gcc.h **** {
 235:./Libraries/CMSIS/Core/Include/cmsis_gcc.h ****   uint32_t result;
 236:./Libraries/CMSIS/Core/Include/cmsis_gcc.h **** 
 237:./Libraries/CMSIS/Core/Include/cmsis_gcc.h ****   __ASM volatile ("MRS %0, control_ns" : "=r" (result) );
 238:./Libraries/CMSIS/Core/Include/cmsis_gcc.h ****   return(result);
 239:./Libraries/CMSIS/Core/Include/cmsis_gcc.h **** }
 240:./Libraries/CMSIS/Core/Include/cmsis_gcc.h **** #endif
 241:./Libraries/CMSIS/Core/Include/cmsis_gcc.h **** 
 242:./Libraries/CMSIS/Core/Include/cmsis_gcc.h **** 
 243:./Libraries/CMSIS/Core/Include/cmsis_gcc.h **** /**
 244:./Libraries/CMSIS/Core/Include/cmsis_gcc.h ****   \brief   Set Control Register
 245:./Libraries/CMSIS/Core/Include/cmsis_gcc.h ****   \details Writes the given value to the Control Register.
 246:./Libraries/CMSIS/Core/Include/cmsis_gcc.h ****   \param [in]    control  Control Register value to set
 247:./Libraries/CMSIS/Core/Include/cmsis_gcc.h ****  */
 248:./Libraries/CMSIS/Core/Include/cmsis_gcc.h **** __STATIC_FORCEINLINE void __set_CONTROL(uint32_t control)
 249:./Libraries/CMSIS/Core/Include/cmsis_gcc.h **** {
 250:./Libraries/CMSIS/Core/Include/cmsis_gcc.h ****   __ASM volatile ("MSR control, %0" : : "r" (control) : "memory");
 251:./Libraries/CMSIS/Core/Include/cmsis_gcc.h **** }
 252:./Libraries/CMSIS/Core/Include/cmsis_gcc.h **** 
 253:./Libraries/CMSIS/Core/Include/cmsis_gcc.h **** 
 254:./Libraries/CMSIS/Core/Include/cmsis_gcc.h **** #if (defined (__ARM_FEATURE_CMSE ) && (__ARM_FEATURE_CMSE == 3))
 255:./Libraries/CMSIS/Core/Include/cmsis_gcc.h **** /**
 256:./Libraries/CMSIS/Core/Include/cmsis_gcc.h ****   \brief   Set Control Register (non-secure)
 257:./Libraries/CMSIS/Core/Include/cmsis_gcc.h ****   \details Writes the given value to the non-secure Control Register when in secure state.
 258:./Libraries/CMSIS/Core/Include/cmsis_gcc.h ****   \param [in]    control  Control Register value to set
 259:./Libraries/CMSIS/Core/Include/cmsis_gcc.h ****  */
 260:./Libraries/CMSIS/Core/Include/cmsis_gcc.h **** __STATIC_FORCEINLINE void __TZ_set_CONTROL_NS(uint32_t control)
 261:./Libraries/CMSIS/Core/Include/cmsis_gcc.h **** {
 262:./Libraries/CMSIS/Core/Include/cmsis_gcc.h ****   __ASM volatile ("MSR control_ns, %0" : : "r" (control) : "memory");
 263:./Libraries/CMSIS/Core/Include/cmsis_gcc.h **** }
 264:./Libraries/CMSIS/Core/Include/cmsis_gcc.h **** #endif
 265:./Libraries/CMSIS/Core/Include/cmsis_gcc.h **** 
ARM GAS  /tmp/cc5RRSLv.s 			page 21


 266:./Libraries/CMSIS/Core/Include/cmsis_gcc.h **** 
 267:./Libraries/CMSIS/Core/Include/cmsis_gcc.h **** /**
 268:./Libraries/CMSIS/Core/Include/cmsis_gcc.h ****   \brief   Get IPSR Register
 269:./Libraries/CMSIS/Core/Include/cmsis_gcc.h ****   \details Returns the content of the IPSR Register.
 270:./Libraries/CMSIS/Core/Include/cmsis_gcc.h ****   \return               IPSR Register value
 271:./Libraries/CMSIS/Core/Include/cmsis_gcc.h ****  */
 272:./Libraries/CMSIS/Core/Include/cmsis_gcc.h **** __STATIC_FORCEINLINE uint32_t __get_IPSR(void)
 273:./Libraries/CMSIS/Core/Include/cmsis_gcc.h **** {
 274:./Libraries/CMSIS/Core/Include/cmsis_gcc.h ****   uint32_t result;
 275:./Libraries/CMSIS/Core/Include/cmsis_gcc.h **** 
 276:./Libraries/CMSIS/Core/Include/cmsis_gcc.h ****   __ASM volatile ("MRS %0, ipsr" : "=r" (result) );
 277:./Libraries/CMSIS/Core/Include/cmsis_gcc.h ****   return(result);
 278:./Libraries/CMSIS/Core/Include/cmsis_gcc.h **** }
 279:./Libraries/CMSIS/Core/Include/cmsis_gcc.h **** 
 280:./Libraries/CMSIS/Core/Include/cmsis_gcc.h **** 
 281:./Libraries/CMSIS/Core/Include/cmsis_gcc.h **** /**
 282:./Libraries/CMSIS/Core/Include/cmsis_gcc.h ****   \brief   Get APSR Register
 283:./Libraries/CMSIS/Core/Include/cmsis_gcc.h ****   \details Returns the content of the APSR Register.
 284:./Libraries/CMSIS/Core/Include/cmsis_gcc.h ****   \return               APSR Register value
 285:./Libraries/CMSIS/Core/Include/cmsis_gcc.h ****  */
 286:./Libraries/CMSIS/Core/Include/cmsis_gcc.h **** __STATIC_FORCEINLINE uint32_t __get_APSR(void)
 287:./Libraries/CMSIS/Core/Include/cmsis_gcc.h **** {
 288:./Libraries/CMSIS/Core/Include/cmsis_gcc.h ****   uint32_t result;
 289:./Libraries/CMSIS/Core/Include/cmsis_gcc.h **** 
 290:./Libraries/CMSIS/Core/Include/cmsis_gcc.h ****   __ASM volatile ("MRS %0, apsr" : "=r" (result) );
 291:./Libraries/CMSIS/Core/Include/cmsis_gcc.h ****   return(result);
 292:./Libraries/CMSIS/Core/Include/cmsis_gcc.h **** }
 293:./Libraries/CMSIS/Core/Include/cmsis_gcc.h **** 
 294:./Libraries/CMSIS/Core/Include/cmsis_gcc.h **** 
 295:./Libraries/CMSIS/Core/Include/cmsis_gcc.h **** /**
 296:./Libraries/CMSIS/Core/Include/cmsis_gcc.h ****   \brief   Get xPSR Register
 297:./Libraries/CMSIS/Core/Include/cmsis_gcc.h ****   \details Returns the content of the xPSR Register.
 298:./Libraries/CMSIS/Core/Include/cmsis_gcc.h ****   \return               xPSR Register value
 299:./Libraries/CMSIS/Core/Include/cmsis_gcc.h ****  */
 300:./Libraries/CMSIS/Core/Include/cmsis_gcc.h **** __STATIC_FORCEINLINE uint32_t __get_xPSR(void)
 301:./Libraries/CMSIS/Core/Include/cmsis_gcc.h **** {
 302:./Libraries/CMSIS/Core/Include/cmsis_gcc.h ****   uint32_t result;
 303:./Libraries/CMSIS/Core/Include/cmsis_gcc.h **** 
 304:./Libraries/CMSIS/Core/Include/cmsis_gcc.h ****   __ASM volatile ("MRS %0, xpsr" : "=r" (result) );
 305:./Libraries/CMSIS/Core/Include/cmsis_gcc.h ****   return(result);
 306:./Libraries/CMSIS/Core/Include/cmsis_gcc.h **** }
 307:./Libraries/CMSIS/Core/Include/cmsis_gcc.h **** 
 308:./Libraries/CMSIS/Core/Include/cmsis_gcc.h **** 
 309:./Libraries/CMSIS/Core/Include/cmsis_gcc.h **** /**
 310:./Libraries/CMSIS/Core/Include/cmsis_gcc.h ****   \brief   Get Process Stack Pointer
 311:./Libraries/CMSIS/Core/Include/cmsis_gcc.h ****   \details Returns the current value of the Process Stack Pointer (PSP).
 312:./Libraries/CMSIS/Core/Include/cmsis_gcc.h ****   \return               PSP Register value
 313:./Libraries/CMSIS/Core/Include/cmsis_gcc.h ****  */
 314:./Libraries/CMSIS/Core/Include/cmsis_gcc.h **** __STATIC_FORCEINLINE uint32_t __get_PSP(void)
 315:./Libraries/CMSIS/Core/Include/cmsis_gcc.h **** {
 316:./Libraries/CMSIS/Core/Include/cmsis_gcc.h ****   uint32_t result;
 317:./Libraries/CMSIS/Core/Include/cmsis_gcc.h **** 
 318:./Libraries/CMSIS/Core/Include/cmsis_gcc.h ****   __ASM volatile ("MRS %0, psp"  : "=r" (result) );
 319:./Libraries/CMSIS/Core/Include/cmsis_gcc.h ****   return(result);
 320:./Libraries/CMSIS/Core/Include/cmsis_gcc.h **** }
 321:./Libraries/CMSIS/Core/Include/cmsis_gcc.h **** 
 322:./Libraries/CMSIS/Core/Include/cmsis_gcc.h **** 
ARM GAS  /tmp/cc5RRSLv.s 			page 22


 323:./Libraries/CMSIS/Core/Include/cmsis_gcc.h **** #if (defined (__ARM_FEATURE_CMSE ) && (__ARM_FEATURE_CMSE == 3))
 324:./Libraries/CMSIS/Core/Include/cmsis_gcc.h **** /**
 325:./Libraries/CMSIS/Core/Include/cmsis_gcc.h ****   \brief   Get Process Stack Pointer (non-secure)
 326:./Libraries/CMSIS/Core/Include/cmsis_gcc.h ****   \details Returns the current value of the non-secure Process Stack Pointer (PSP) when in secure s
 327:./Libraries/CMSIS/Core/Include/cmsis_gcc.h ****   \return               PSP Register value
 328:./Libraries/CMSIS/Core/Include/cmsis_gcc.h ****  */
 329:./Libraries/CMSIS/Core/Include/cmsis_gcc.h **** __STATIC_FORCEINLINE uint32_t __TZ_get_PSP_NS(void)
 330:./Libraries/CMSIS/Core/Include/cmsis_gcc.h **** {
 331:./Libraries/CMSIS/Core/Include/cmsis_gcc.h ****   uint32_t result;
 332:./Libraries/CMSIS/Core/Include/cmsis_gcc.h **** 
 333:./Libraries/CMSIS/Core/Include/cmsis_gcc.h ****   __ASM volatile ("MRS %0, psp_ns"  : "=r" (result) );
 334:./Libraries/CMSIS/Core/Include/cmsis_gcc.h ****   return(result);
 335:./Libraries/CMSIS/Core/Include/cmsis_gcc.h **** }
 336:./Libraries/CMSIS/Core/Include/cmsis_gcc.h **** #endif
 337:./Libraries/CMSIS/Core/Include/cmsis_gcc.h **** 
 338:./Libraries/CMSIS/Core/Include/cmsis_gcc.h **** 
 339:./Libraries/CMSIS/Core/Include/cmsis_gcc.h **** /**
 340:./Libraries/CMSIS/Core/Include/cmsis_gcc.h ****   \brief   Set Process Stack Pointer
 341:./Libraries/CMSIS/Core/Include/cmsis_gcc.h ****   \details Assigns the given value to the Process Stack Pointer (PSP).
 342:./Libraries/CMSIS/Core/Include/cmsis_gcc.h ****   \param [in]    topOfProcStack  Process Stack Pointer value to set
 343:./Libraries/CMSIS/Core/Include/cmsis_gcc.h ****  */
 344:./Libraries/CMSIS/Core/Include/cmsis_gcc.h **** __STATIC_FORCEINLINE void __set_PSP(uint32_t topOfProcStack)
 345:./Libraries/CMSIS/Core/Include/cmsis_gcc.h **** {
 346:./Libraries/CMSIS/Core/Include/cmsis_gcc.h ****   __ASM volatile ("MSR psp, %0" : : "r" (topOfProcStack) : );
 347:./Libraries/CMSIS/Core/Include/cmsis_gcc.h **** }
 348:./Libraries/CMSIS/Core/Include/cmsis_gcc.h **** 
 349:./Libraries/CMSIS/Core/Include/cmsis_gcc.h **** 
 350:./Libraries/CMSIS/Core/Include/cmsis_gcc.h **** #if (defined (__ARM_FEATURE_CMSE ) && (__ARM_FEATURE_CMSE == 3))
 351:./Libraries/CMSIS/Core/Include/cmsis_gcc.h **** /**
 352:./Libraries/CMSIS/Core/Include/cmsis_gcc.h ****   \brief   Set Process Stack Pointer (non-secure)
 353:./Libraries/CMSIS/Core/Include/cmsis_gcc.h ****   \details Assigns the given value to the non-secure Process Stack Pointer (PSP) when in secure sta
 354:./Libraries/CMSIS/Core/Include/cmsis_gcc.h ****   \param [in]    topOfProcStack  Process Stack Pointer value to set
 355:./Libraries/CMSIS/Core/Include/cmsis_gcc.h ****  */
 356:./Libraries/CMSIS/Core/Include/cmsis_gcc.h **** __STATIC_FORCEINLINE void __TZ_set_PSP_NS(uint32_t topOfProcStack)
 357:./Libraries/CMSIS/Core/Include/cmsis_gcc.h **** {
 358:./Libraries/CMSIS/Core/Include/cmsis_gcc.h ****   __ASM volatile ("MSR psp_ns, %0" : : "r" (topOfProcStack) : );
 359:./Libraries/CMSIS/Core/Include/cmsis_gcc.h **** }
 360:./Libraries/CMSIS/Core/Include/cmsis_gcc.h **** #endif
 361:./Libraries/CMSIS/Core/Include/cmsis_gcc.h **** 
 362:./Libraries/CMSIS/Core/Include/cmsis_gcc.h **** 
 363:./Libraries/CMSIS/Core/Include/cmsis_gcc.h **** /**
 364:./Libraries/CMSIS/Core/Include/cmsis_gcc.h ****   \brief   Get Main Stack Pointer
 365:./Libraries/CMSIS/Core/Include/cmsis_gcc.h ****   \details Returns the current value of the Main Stack Pointer (MSP).
 366:./Libraries/CMSIS/Core/Include/cmsis_gcc.h ****   \return               MSP Register value
 367:./Libraries/CMSIS/Core/Include/cmsis_gcc.h ****  */
 368:./Libraries/CMSIS/Core/Include/cmsis_gcc.h **** __STATIC_FORCEINLINE uint32_t __get_MSP(void)
 369:./Libraries/CMSIS/Core/Include/cmsis_gcc.h **** {
 370:./Libraries/CMSIS/Core/Include/cmsis_gcc.h ****   uint32_t result;
 371:./Libraries/CMSIS/Core/Include/cmsis_gcc.h **** 
 372:./Libraries/CMSIS/Core/Include/cmsis_gcc.h ****   __ASM volatile ("MRS %0, msp" : "=r" (result) );
 373:./Libraries/CMSIS/Core/Include/cmsis_gcc.h ****   return(result);
 374:./Libraries/CMSIS/Core/Include/cmsis_gcc.h **** }
 375:./Libraries/CMSIS/Core/Include/cmsis_gcc.h **** 
 376:./Libraries/CMSIS/Core/Include/cmsis_gcc.h **** 
 377:./Libraries/CMSIS/Core/Include/cmsis_gcc.h **** #if (defined (__ARM_FEATURE_CMSE ) && (__ARM_FEATURE_CMSE == 3))
 378:./Libraries/CMSIS/Core/Include/cmsis_gcc.h **** /**
 379:./Libraries/CMSIS/Core/Include/cmsis_gcc.h ****   \brief   Get Main Stack Pointer (non-secure)
ARM GAS  /tmp/cc5RRSLv.s 			page 23


 380:./Libraries/CMSIS/Core/Include/cmsis_gcc.h ****   \details Returns the current value of the non-secure Main Stack Pointer (MSP) when in secure stat
 381:./Libraries/CMSIS/Core/Include/cmsis_gcc.h ****   \return               MSP Register value
 382:./Libraries/CMSIS/Core/Include/cmsis_gcc.h ****  */
 383:./Libraries/CMSIS/Core/Include/cmsis_gcc.h **** __STATIC_FORCEINLINE uint32_t __TZ_get_MSP_NS(void)
 384:./Libraries/CMSIS/Core/Include/cmsis_gcc.h **** {
 385:./Libraries/CMSIS/Core/Include/cmsis_gcc.h ****   uint32_t result;
 386:./Libraries/CMSIS/Core/Include/cmsis_gcc.h **** 
 387:./Libraries/CMSIS/Core/Include/cmsis_gcc.h ****   __ASM volatile ("MRS %0, msp_ns" : "=r" (result) );
 388:./Libraries/CMSIS/Core/Include/cmsis_gcc.h ****   return(result);
 389:./Libraries/CMSIS/Core/Include/cmsis_gcc.h **** }
 390:./Libraries/CMSIS/Core/Include/cmsis_gcc.h **** #endif
 391:./Libraries/CMSIS/Core/Include/cmsis_gcc.h **** 
 392:./Libraries/CMSIS/Core/Include/cmsis_gcc.h **** 
 393:./Libraries/CMSIS/Core/Include/cmsis_gcc.h **** /**
 394:./Libraries/CMSIS/Core/Include/cmsis_gcc.h ****   \brief   Set Main Stack Pointer
 395:./Libraries/CMSIS/Core/Include/cmsis_gcc.h ****   \details Assigns the given value to the Main Stack Pointer (MSP).
 396:./Libraries/CMSIS/Core/Include/cmsis_gcc.h ****   \param [in]    topOfMainStack  Main Stack Pointer value to set
 397:./Libraries/CMSIS/Core/Include/cmsis_gcc.h ****  */
 398:./Libraries/CMSIS/Core/Include/cmsis_gcc.h **** __STATIC_FORCEINLINE void __set_MSP(uint32_t topOfMainStack)
 399:./Libraries/CMSIS/Core/Include/cmsis_gcc.h **** {
 400:./Libraries/CMSIS/Core/Include/cmsis_gcc.h ****   __ASM volatile ("MSR msp, %0" : : "r" (topOfMainStack) : );
 401:./Libraries/CMSIS/Core/Include/cmsis_gcc.h **** }
 402:./Libraries/CMSIS/Core/Include/cmsis_gcc.h **** 
 403:./Libraries/CMSIS/Core/Include/cmsis_gcc.h **** 
 404:./Libraries/CMSIS/Core/Include/cmsis_gcc.h **** #if (defined (__ARM_FEATURE_CMSE ) && (__ARM_FEATURE_CMSE == 3))
 405:./Libraries/CMSIS/Core/Include/cmsis_gcc.h **** /**
 406:./Libraries/CMSIS/Core/Include/cmsis_gcc.h ****   \brief   Set Main Stack Pointer (non-secure)
 407:./Libraries/CMSIS/Core/Include/cmsis_gcc.h ****   \details Assigns the given value to the non-secure Main Stack Pointer (MSP) when in secure state.
 408:./Libraries/CMSIS/Core/Include/cmsis_gcc.h ****   \param [in]    topOfMainStack  Main Stack Pointer value to set
 409:./Libraries/CMSIS/Core/Include/cmsis_gcc.h ****  */
 410:./Libraries/CMSIS/Core/Include/cmsis_gcc.h **** __STATIC_FORCEINLINE void __TZ_set_MSP_NS(uint32_t topOfMainStack)
 411:./Libraries/CMSIS/Core/Include/cmsis_gcc.h **** {
 412:./Libraries/CMSIS/Core/Include/cmsis_gcc.h ****   __ASM volatile ("MSR msp_ns, %0" : : "r" (topOfMainStack) : );
 413:./Libraries/CMSIS/Core/Include/cmsis_gcc.h **** }
 414:./Libraries/CMSIS/Core/Include/cmsis_gcc.h **** #endif
 415:./Libraries/CMSIS/Core/Include/cmsis_gcc.h **** 
 416:./Libraries/CMSIS/Core/Include/cmsis_gcc.h **** 
 417:./Libraries/CMSIS/Core/Include/cmsis_gcc.h **** #if (defined (__ARM_FEATURE_CMSE ) && (__ARM_FEATURE_CMSE == 3))
 418:./Libraries/CMSIS/Core/Include/cmsis_gcc.h **** /**
 419:./Libraries/CMSIS/Core/Include/cmsis_gcc.h ****   \brief   Get Stack Pointer (non-secure)
 420:./Libraries/CMSIS/Core/Include/cmsis_gcc.h ****   \details Returns the current value of the non-secure Stack Pointer (SP) when in secure state.
 421:./Libraries/CMSIS/Core/Include/cmsis_gcc.h ****   \return               SP Register value
 422:./Libraries/CMSIS/Core/Include/cmsis_gcc.h ****  */
 423:./Libraries/CMSIS/Core/Include/cmsis_gcc.h **** __STATIC_FORCEINLINE uint32_t __TZ_get_SP_NS(void)
 424:./Libraries/CMSIS/Core/Include/cmsis_gcc.h **** {
 425:./Libraries/CMSIS/Core/Include/cmsis_gcc.h ****   uint32_t result;
 426:./Libraries/CMSIS/Core/Include/cmsis_gcc.h **** 
 427:./Libraries/CMSIS/Core/Include/cmsis_gcc.h ****   __ASM volatile ("MRS %0, sp_ns" : "=r" (result) );
 428:./Libraries/CMSIS/Core/Include/cmsis_gcc.h ****   return(result);
 429:./Libraries/CMSIS/Core/Include/cmsis_gcc.h **** }
 430:./Libraries/CMSIS/Core/Include/cmsis_gcc.h **** 
 431:./Libraries/CMSIS/Core/Include/cmsis_gcc.h **** 
 432:./Libraries/CMSIS/Core/Include/cmsis_gcc.h **** /**
 433:./Libraries/CMSIS/Core/Include/cmsis_gcc.h ****   \brief   Set Stack Pointer (non-secure)
 434:./Libraries/CMSIS/Core/Include/cmsis_gcc.h ****   \details Assigns the given value to the non-secure Stack Pointer (SP) when in secure state.
 435:./Libraries/CMSIS/Core/Include/cmsis_gcc.h ****   \param [in]    topOfStack  Stack Pointer value to set
 436:./Libraries/CMSIS/Core/Include/cmsis_gcc.h ****  */
ARM GAS  /tmp/cc5RRSLv.s 			page 24


 437:./Libraries/CMSIS/Core/Include/cmsis_gcc.h **** __STATIC_FORCEINLINE void __TZ_set_SP_NS(uint32_t topOfStack)
 438:./Libraries/CMSIS/Core/Include/cmsis_gcc.h **** {
 439:./Libraries/CMSIS/Core/Include/cmsis_gcc.h ****   __ASM volatile ("MSR sp_ns, %0" : : "r" (topOfStack) : );
 440:./Libraries/CMSIS/Core/Include/cmsis_gcc.h **** }
 441:./Libraries/CMSIS/Core/Include/cmsis_gcc.h **** #endif
 442:./Libraries/CMSIS/Core/Include/cmsis_gcc.h **** 
 443:./Libraries/CMSIS/Core/Include/cmsis_gcc.h **** 
 444:./Libraries/CMSIS/Core/Include/cmsis_gcc.h **** /**
 445:./Libraries/CMSIS/Core/Include/cmsis_gcc.h ****   \brief   Get Priority Mask
 446:./Libraries/CMSIS/Core/Include/cmsis_gcc.h ****   \details Returns the current state of the priority mask bit from the Priority Mask Register.
 447:./Libraries/CMSIS/Core/Include/cmsis_gcc.h ****   \return               Priority Mask value
 448:./Libraries/CMSIS/Core/Include/cmsis_gcc.h ****  */
 449:./Libraries/CMSIS/Core/Include/cmsis_gcc.h **** __STATIC_FORCEINLINE uint32_t __get_PRIMASK(void)
 450:./Libraries/CMSIS/Core/Include/cmsis_gcc.h **** {
 451:./Libraries/CMSIS/Core/Include/cmsis_gcc.h ****   uint32_t result;
 452:./Libraries/CMSIS/Core/Include/cmsis_gcc.h **** 
 453:./Libraries/CMSIS/Core/Include/cmsis_gcc.h ****   __ASM volatile ("MRS %0, primask" : "=r" (result) :: "memory");
 454:./Libraries/CMSIS/Core/Include/cmsis_gcc.h ****   return(result);
 455:./Libraries/CMSIS/Core/Include/cmsis_gcc.h **** }
 456:./Libraries/CMSIS/Core/Include/cmsis_gcc.h **** 
 457:./Libraries/CMSIS/Core/Include/cmsis_gcc.h **** 
 458:./Libraries/CMSIS/Core/Include/cmsis_gcc.h **** #if (defined (__ARM_FEATURE_CMSE ) && (__ARM_FEATURE_CMSE == 3))
 459:./Libraries/CMSIS/Core/Include/cmsis_gcc.h **** /**
 460:./Libraries/CMSIS/Core/Include/cmsis_gcc.h ****   \brief   Get Priority Mask (non-secure)
 461:./Libraries/CMSIS/Core/Include/cmsis_gcc.h ****   \details Returns the current state of the non-secure priority mask bit from the Priority Mask Reg
 462:./Libraries/CMSIS/Core/Include/cmsis_gcc.h ****   \return               Priority Mask value
 463:./Libraries/CMSIS/Core/Include/cmsis_gcc.h ****  */
 464:./Libraries/CMSIS/Core/Include/cmsis_gcc.h **** __STATIC_FORCEINLINE uint32_t __TZ_get_PRIMASK_NS(void)
 465:./Libraries/CMSIS/Core/Include/cmsis_gcc.h **** {
 466:./Libraries/CMSIS/Core/Include/cmsis_gcc.h ****   uint32_t result;
 467:./Libraries/CMSIS/Core/Include/cmsis_gcc.h **** 
 468:./Libraries/CMSIS/Core/Include/cmsis_gcc.h ****   __ASM volatile ("MRS %0, primask_ns" : "=r" (result) :: "memory");
 469:./Libraries/CMSIS/Core/Include/cmsis_gcc.h ****   return(result);
 470:./Libraries/CMSIS/Core/Include/cmsis_gcc.h **** }
 471:./Libraries/CMSIS/Core/Include/cmsis_gcc.h **** #endif
 472:./Libraries/CMSIS/Core/Include/cmsis_gcc.h **** 
 473:./Libraries/CMSIS/Core/Include/cmsis_gcc.h **** 
 474:./Libraries/CMSIS/Core/Include/cmsis_gcc.h **** /**
 475:./Libraries/CMSIS/Core/Include/cmsis_gcc.h ****   \brief   Set Priority Mask
 476:./Libraries/CMSIS/Core/Include/cmsis_gcc.h ****   \details Assigns the given value to the Priority Mask Register.
 477:./Libraries/CMSIS/Core/Include/cmsis_gcc.h ****   \param [in]    priMask  Priority Mask
 478:./Libraries/CMSIS/Core/Include/cmsis_gcc.h ****  */
 479:./Libraries/CMSIS/Core/Include/cmsis_gcc.h **** __STATIC_FORCEINLINE void __set_PRIMASK(uint32_t priMask)
 480:./Libraries/CMSIS/Core/Include/cmsis_gcc.h **** {
 481:./Libraries/CMSIS/Core/Include/cmsis_gcc.h ****   __ASM volatile ("MSR primask, %0" : : "r" (priMask) : "memory");
 482:./Libraries/CMSIS/Core/Include/cmsis_gcc.h **** }
 483:./Libraries/CMSIS/Core/Include/cmsis_gcc.h **** 
 484:./Libraries/CMSIS/Core/Include/cmsis_gcc.h **** 
 485:./Libraries/CMSIS/Core/Include/cmsis_gcc.h **** #if (defined (__ARM_FEATURE_CMSE ) && (__ARM_FEATURE_CMSE == 3))
 486:./Libraries/CMSIS/Core/Include/cmsis_gcc.h **** /**
 487:./Libraries/CMSIS/Core/Include/cmsis_gcc.h ****   \brief   Set Priority Mask (non-secure)
 488:./Libraries/CMSIS/Core/Include/cmsis_gcc.h ****   \details Assigns the given value to the non-secure Priority Mask Register when in secure state.
 489:./Libraries/CMSIS/Core/Include/cmsis_gcc.h ****   \param [in]    priMask  Priority Mask
 490:./Libraries/CMSIS/Core/Include/cmsis_gcc.h ****  */
 491:./Libraries/CMSIS/Core/Include/cmsis_gcc.h **** __STATIC_FORCEINLINE void __TZ_set_PRIMASK_NS(uint32_t priMask)
 492:./Libraries/CMSIS/Core/Include/cmsis_gcc.h **** {
 493:./Libraries/CMSIS/Core/Include/cmsis_gcc.h ****   __ASM volatile ("MSR primask_ns, %0" : : "r" (priMask) : "memory");
ARM GAS  /tmp/cc5RRSLv.s 			page 25


 494:./Libraries/CMSIS/Core/Include/cmsis_gcc.h **** }
 495:./Libraries/CMSIS/Core/Include/cmsis_gcc.h **** #endif
 496:./Libraries/CMSIS/Core/Include/cmsis_gcc.h **** 
 497:./Libraries/CMSIS/Core/Include/cmsis_gcc.h **** 
 498:./Libraries/CMSIS/Core/Include/cmsis_gcc.h **** #if ((defined (__ARM_ARCH_7M__      ) && (__ARM_ARCH_7M__      == 1)) || \
 499:./Libraries/CMSIS/Core/Include/cmsis_gcc.h ****      (defined (__ARM_ARCH_7EM__     ) && (__ARM_ARCH_7EM__     == 1)) || \
 500:./Libraries/CMSIS/Core/Include/cmsis_gcc.h ****      (defined (__ARM_ARCH_8M_MAIN__ ) && (__ARM_ARCH_8M_MAIN__ == 1))    )
 501:./Libraries/CMSIS/Core/Include/cmsis_gcc.h **** /**
 502:./Libraries/CMSIS/Core/Include/cmsis_gcc.h ****   \brief   Enable FIQ
 503:./Libraries/CMSIS/Core/Include/cmsis_gcc.h ****   \details Enables FIQ interrupts by clearing the F-bit in the CPSR.
 504:./Libraries/CMSIS/Core/Include/cmsis_gcc.h ****            Can only be executed in Privileged modes.
 505:./Libraries/CMSIS/Core/Include/cmsis_gcc.h ****  */
 506:./Libraries/CMSIS/Core/Include/cmsis_gcc.h **** __STATIC_FORCEINLINE void __enable_fault_irq(void)
 507:./Libraries/CMSIS/Core/Include/cmsis_gcc.h **** {
 508:./Libraries/CMSIS/Core/Include/cmsis_gcc.h ****   __ASM volatile ("cpsie f" : : : "memory");
 509:./Libraries/CMSIS/Core/Include/cmsis_gcc.h **** }
 510:./Libraries/CMSIS/Core/Include/cmsis_gcc.h **** 
 511:./Libraries/CMSIS/Core/Include/cmsis_gcc.h **** 
 512:./Libraries/CMSIS/Core/Include/cmsis_gcc.h **** /**
 513:./Libraries/CMSIS/Core/Include/cmsis_gcc.h ****   \brief   Disable FIQ
 514:./Libraries/CMSIS/Core/Include/cmsis_gcc.h ****   \details Disables FIQ interrupts by setting the F-bit in the CPSR.
 515:./Libraries/CMSIS/Core/Include/cmsis_gcc.h ****            Can only be executed in Privileged modes.
 516:./Libraries/CMSIS/Core/Include/cmsis_gcc.h ****  */
 517:./Libraries/CMSIS/Core/Include/cmsis_gcc.h **** __STATIC_FORCEINLINE void __disable_fault_irq(void)
 518:./Libraries/CMSIS/Core/Include/cmsis_gcc.h **** {
 519:./Libraries/CMSIS/Core/Include/cmsis_gcc.h ****   __ASM volatile ("cpsid f" : : : "memory");
 520:./Libraries/CMSIS/Core/Include/cmsis_gcc.h **** }
 521:./Libraries/CMSIS/Core/Include/cmsis_gcc.h **** 
 522:./Libraries/CMSIS/Core/Include/cmsis_gcc.h **** 
 523:./Libraries/CMSIS/Core/Include/cmsis_gcc.h **** /**
 524:./Libraries/CMSIS/Core/Include/cmsis_gcc.h ****   \brief   Get Base Priority
 525:./Libraries/CMSIS/Core/Include/cmsis_gcc.h ****   \details Returns the current value of the Base Priority register.
 526:./Libraries/CMSIS/Core/Include/cmsis_gcc.h ****   \return               Base Priority register value
 527:./Libraries/CMSIS/Core/Include/cmsis_gcc.h ****  */
 528:./Libraries/CMSIS/Core/Include/cmsis_gcc.h **** __STATIC_FORCEINLINE uint32_t __get_BASEPRI(void)
 529:./Libraries/CMSIS/Core/Include/cmsis_gcc.h **** {
 530:./Libraries/CMSIS/Core/Include/cmsis_gcc.h ****   uint32_t result;
 531:./Libraries/CMSIS/Core/Include/cmsis_gcc.h **** 
 532:./Libraries/CMSIS/Core/Include/cmsis_gcc.h ****   __ASM volatile ("MRS %0, basepri" : "=r" (result) );
 533:./Libraries/CMSIS/Core/Include/cmsis_gcc.h ****   return(result);
 534:./Libraries/CMSIS/Core/Include/cmsis_gcc.h **** }
 535:./Libraries/CMSIS/Core/Include/cmsis_gcc.h **** 
 536:./Libraries/CMSIS/Core/Include/cmsis_gcc.h **** 
 537:./Libraries/CMSIS/Core/Include/cmsis_gcc.h **** #if (defined (__ARM_FEATURE_CMSE ) && (__ARM_FEATURE_CMSE == 3))
 538:./Libraries/CMSIS/Core/Include/cmsis_gcc.h **** /**
 539:./Libraries/CMSIS/Core/Include/cmsis_gcc.h ****   \brief   Get Base Priority (non-secure)
 540:./Libraries/CMSIS/Core/Include/cmsis_gcc.h ****   \details Returns the current value of the non-secure Base Priority register when in secure state.
 541:./Libraries/CMSIS/Core/Include/cmsis_gcc.h ****   \return               Base Priority register value
 542:./Libraries/CMSIS/Core/Include/cmsis_gcc.h ****  */
 543:./Libraries/CMSIS/Core/Include/cmsis_gcc.h **** __STATIC_FORCEINLINE uint32_t __TZ_get_BASEPRI_NS(void)
 544:./Libraries/CMSIS/Core/Include/cmsis_gcc.h **** {
 545:./Libraries/CMSIS/Core/Include/cmsis_gcc.h ****   uint32_t result;
 546:./Libraries/CMSIS/Core/Include/cmsis_gcc.h **** 
 547:./Libraries/CMSIS/Core/Include/cmsis_gcc.h ****   __ASM volatile ("MRS %0, basepri_ns" : "=r" (result) );
 548:./Libraries/CMSIS/Core/Include/cmsis_gcc.h ****   return(result);
 549:./Libraries/CMSIS/Core/Include/cmsis_gcc.h **** }
 550:./Libraries/CMSIS/Core/Include/cmsis_gcc.h **** #endif
ARM GAS  /tmp/cc5RRSLv.s 			page 26


 551:./Libraries/CMSIS/Core/Include/cmsis_gcc.h **** 
 552:./Libraries/CMSIS/Core/Include/cmsis_gcc.h **** 
 553:./Libraries/CMSIS/Core/Include/cmsis_gcc.h **** /**
 554:./Libraries/CMSIS/Core/Include/cmsis_gcc.h ****   \brief   Set Base Priority
 555:./Libraries/CMSIS/Core/Include/cmsis_gcc.h ****   \details Assigns the given value to the Base Priority register.
 556:./Libraries/CMSIS/Core/Include/cmsis_gcc.h ****   \param [in]    basePri  Base Priority value to set
 557:./Libraries/CMSIS/Core/Include/cmsis_gcc.h ****  */
 558:./Libraries/CMSIS/Core/Include/cmsis_gcc.h **** __STATIC_FORCEINLINE void __set_BASEPRI(uint32_t basePri)
 559:./Libraries/CMSIS/Core/Include/cmsis_gcc.h **** {
 560:./Libraries/CMSIS/Core/Include/cmsis_gcc.h ****   __ASM volatile ("MSR basepri, %0" : : "r" (basePri) : "memory");
 561:./Libraries/CMSIS/Core/Include/cmsis_gcc.h **** }
 562:./Libraries/CMSIS/Core/Include/cmsis_gcc.h **** 
 563:./Libraries/CMSIS/Core/Include/cmsis_gcc.h **** 
 564:./Libraries/CMSIS/Core/Include/cmsis_gcc.h **** #if (defined (__ARM_FEATURE_CMSE ) && (__ARM_FEATURE_CMSE == 3))
 565:./Libraries/CMSIS/Core/Include/cmsis_gcc.h **** /**
 566:./Libraries/CMSIS/Core/Include/cmsis_gcc.h ****   \brief   Set Base Priority (non-secure)
 567:./Libraries/CMSIS/Core/Include/cmsis_gcc.h ****   \details Assigns the given value to the non-secure Base Priority register when in secure state.
 568:./Libraries/CMSIS/Core/Include/cmsis_gcc.h ****   \param [in]    basePri  Base Priority value to set
 569:./Libraries/CMSIS/Core/Include/cmsis_gcc.h ****  */
 570:./Libraries/CMSIS/Core/Include/cmsis_gcc.h **** __STATIC_FORCEINLINE void __TZ_set_BASEPRI_NS(uint32_t basePri)
 571:./Libraries/CMSIS/Core/Include/cmsis_gcc.h **** {
 572:./Libraries/CMSIS/Core/Include/cmsis_gcc.h ****   __ASM volatile ("MSR basepri_ns, %0" : : "r" (basePri) : "memory");
 573:./Libraries/CMSIS/Core/Include/cmsis_gcc.h **** }
 574:./Libraries/CMSIS/Core/Include/cmsis_gcc.h **** #endif
 575:./Libraries/CMSIS/Core/Include/cmsis_gcc.h **** 
 576:./Libraries/CMSIS/Core/Include/cmsis_gcc.h **** 
 577:./Libraries/CMSIS/Core/Include/cmsis_gcc.h **** /**
 578:./Libraries/CMSIS/Core/Include/cmsis_gcc.h ****   \brief   Set Base Priority with condition
 579:./Libraries/CMSIS/Core/Include/cmsis_gcc.h ****   \details Assigns the given value to the Base Priority register only if BASEPRI masking is disable
 580:./Libraries/CMSIS/Core/Include/cmsis_gcc.h ****            or the new value increases the BASEPRI priority level.
 581:./Libraries/CMSIS/Core/Include/cmsis_gcc.h ****   \param [in]    basePri  Base Priority value to set
 582:./Libraries/CMSIS/Core/Include/cmsis_gcc.h ****  */
 583:./Libraries/CMSIS/Core/Include/cmsis_gcc.h **** __STATIC_FORCEINLINE void __set_BASEPRI_MAX(uint32_t basePri)
 584:./Libraries/CMSIS/Core/Include/cmsis_gcc.h **** {
 585:./Libraries/CMSIS/Core/Include/cmsis_gcc.h ****   __ASM volatile ("MSR basepri_max, %0" : : "r" (basePri) : "memory");
 586:./Libraries/CMSIS/Core/Include/cmsis_gcc.h **** }
 587:./Libraries/CMSIS/Core/Include/cmsis_gcc.h **** 
 588:./Libraries/CMSIS/Core/Include/cmsis_gcc.h **** 
 589:./Libraries/CMSIS/Core/Include/cmsis_gcc.h **** /**
 590:./Libraries/CMSIS/Core/Include/cmsis_gcc.h ****   \brief   Get Fault Mask
 591:./Libraries/CMSIS/Core/Include/cmsis_gcc.h ****   \details Returns the current value of the Fault Mask register.
 592:./Libraries/CMSIS/Core/Include/cmsis_gcc.h ****   \return               Fault Mask register value
 593:./Libraries/CMSIS/Core/Include/cmsis_gcc.h ****  */
 594:./Libraries/CMSIS/Core/Include/cmsis_gcc.h **** __STATIC_FORCEINLINE uint32_t __get_FAULTMASK(void)
 595:./Libraries/CMSIS/Core/Include/cmsis_gcc.h **** {
 596:./Libraries/CMSIS/Core/Include/cmsis_gcc.h ****   uint32_t result;
 597:./Libraries/CMSIS/Core/Include/cmsis_gcc.h **** 
 598:./Libraries/CMSIS/Core/Include/cmsis_gcc.h ****   __ASM volatile ("MRS %0, faultmask" : "=r" (result) );
 599:./Libraries/CMSIS/Core/Include/cmsis_gcc.h ****   return(result);
 600:./Libraries/CMSIS/Core/Include/cmsis_gcc.h **** }
 601:./Libraries/CMSIS/Core/Include/cmsis_gcc.h **** 
 602:./Libraries/CMSIS/Core/Include/cmsis_gcc.h **** 
 603:./Libraries/CMSIS/Core/Include/cmsis_gcc.h **** #if (defined (__ARM_FEATURE_CMSE ) && (__ARM_FEATURE_CMSE == 3))
 604:./Libraries/CMSIS/Core/Include/cmsis_gcc.h **** /**
 605:./Libraries/CMSIS/Core/Include/cmsis_gcc.h ****   \brief   Get Fault Mask (non-secure)
 606:./Libraries/CMSIS/Core/Include/cmsis_gcc.h ****   \details Returns the current value of the non-secure Fault Mask register when in secure state.
 607:./Libraries/CMSIS/Core/Include/cmsis_gcc.h ****   \return               Fault Mask register value
ARM GAS  /tmp/cc5RRSLv.s 			page 27


 608:./Libraries/CMSIS/Core/Include/cmsis_gcc.h ****  */
 609:./Libraries/CMSIS/Core/Include/cmsis_gcc.h **** __STATIC_FORCEINLINE uint32_t __TZ_get_FAULTMASK_NS(void)
 610:./Libraries/CMSIS/Core/Include/cmsis_gcc.h **** {
 611:./Libraries/CMSIS/Core/Include/cmsis_gcc.h ****   uint32_t result;
 612:./Libraries/CMSIS/Core/Include/cmsis_gcc.h **** 
 613:./Libraries/CMSIS/Core/Include/cmsis_gcc.h ****   __ASM volatile ("MRS %0, faultmask_ns" : "=r" (result) );
 614:./Libraries/CMSIS/Core/Include/cmsis_gcc.h ****   return(result);
 615:./Libraries/CMSIS/Core/Include/cmsis_gcc.h **** }
 616:./Libraries/CMSIS/Core/Include/cmsis_gcc.h **** #endif
 617:./Libraries/CMSIS/Core/Include/cmsis_gcc.h **** 
 618:./Libraries/CMSIS/Core/Include/cmsis_gcc.h **** 
 619:./Libraries/CMSIS/Core/Include/cmsis_gcc.h **** /**
 620:./Libraries/CMSIS/Core/Include/cmsis_gcc.h ****   \brief   Set Fault Mask
 621:./Libraries/CMSIS/Core/Include/cmsis_gcc.h ****   \details Assigns the given value to the Fault Mask register.
 622:./Libraries/CMSIS/Core/Include/cmsis_gcc.h ****   \param [in]    faultMask  Fault Mask value to set
 623:./Libraries/CMSIS/Core/Include/cmsis_gcc.h ****  */
 624:./Libraries/CMSIS/Core/Include/cmsis_gcc.h **** __STATIC_FORCEINLINE void __set_FAULTMASK(uint32_t faultMask)
 625:./Libraries/CMSIS/Core/Include/cmsis_gcc.h **** {
 626:./Libraries/CMSIS/Core/Include/cmsis_gcc.h ****   __ASM volatile ("MSR faultmask, %0" : : "r" (faultMask) : "memory");
 627:./Libraries/CMSIS/Core/Include/cmsis_gcc.h **** }
 628:./Libraries/CMSIS/Core/Include/cmsis_gcc.h **** 
 629:./Libraries/CMSIS/Core/Include/cmsis_gcc.h **** 
 630:./Libraries/CMSIS/Core/Include/cmsis_gcc.h **** #if (defined (__ARM_FEATURE_CMSE ) && (__ARM_FEATURE_CMSE == 3))
 631:./Libraries/CMSIS/Core/Include/cmsis_gcc.h **** /**
 632:./Libraries/CMSIS/Core/Include/cmsis_gcc.h ****   \brief   Set Fault Mask (non-secure)
 633:./Libraries/CMSIS/Core/Include/cmsis_gcc.h ****   \details Assigns the given value to the non-secure Fault Mask register when in secure state.
 634:./Libraries/CMSIS/Core/Include/cmsis_gcc.h ****   \param [in]    faultMask  Fault Mask value to set
 635:./Libraries/CMSIS/Core/Include/cmsis_gcc.h ****  */
 636:./Libraries/CMSIS/Core/Include/cmsis_gcc.h **** __STATIC_FORCEINLINE void __TZ_set_FAULTMASK_NS(uint32_t faultMask)
 637:./Libraries/CMSIS/Core/Include/cmsis_gcc.h **** {
 638:./Libraries/CMSIS/Core/Include/cmsis_gcc.h ****   __ASM volatile ("MSR faultmask_ns, %0" : : "r" (faultMask) : "memory");
 639:./Libraries/CMSIS/Core/Include/cmsis_gcc.h **** }
 640:./Libraries/CMSIS/Core/Include/cmsis_gcc.h **** #endif
 641:./Libraries/CMSIS/Core/Include/cmsis_gcc.h **** 
 642:./Libraries/CMSIS/Core/Include/cmsis_gcc.h **** #endif /* ((defined (__ARM_ARCH_7M__      ) && (__ARM_ARCH_7M__      == 1)) || \
 643:./Libraries/CMSIS/Core/Include/cmsis_gcc.h ****            (defined (__ARM_ARCH_7EM__     ) && (__ARM_ARCH_7EM__     == 1)) || \
 644:./Libraries/CMSIS/Core/Include/cmsis_gcc.h ****            (defined (__ARM_ARCH_8M_MAIN__ ) && (__ARM_ARCH_8M_MAIN__ == 1))    ) */
 645:./Libraries/CMSIS/Core/Include/cmsis_gcc.h **** 
 646:./Libraries/CMSIS/Core/Include/cmsis_gcc.h **** 
 647:./Libraries/CMSIS/Core/Include/cmsis_gcc.h **** #if ((defined (__ARM_ARCH_8M_MAIN__ ) && (__ARM_ARCH_8M_MAIN__ == 1)) || \
 648:./Libraries/CMSIS/Core/Include/cmsis_gcc.h ****      (defined (__ARM_ARCH_8M_BASE__ ) && (__ARM_ARCH_8M_BASE__ == 1))    )
 649:./Libraries/CMSIS/Core/Include/cmsis_gcc.h **** 
 650:./Libraries/CMSIS/Core/Include/cmsis_gcc.h **** /**
 651:./Libraries/CMSIS/Core/Include/cmsis_gcc.h ****   \brief   Get Process Stack Pointer Limit
 652:./Libraries/CMSIS/Core/Include/cmsis_gcc.h ****   Devices without ARMv8-M Main Extensions (i.e. Cortex-M23) lack the non-secure
 653:./Libraries/CMSIS/Core/Include/cmsis_gcc.h ****   Stack Pointer Limit register hence zero is returned always in non-secure
 654:./Libraries/CMSIS/Core/Include/cmsis_gcc.h ****   mode.
 655:./Libraries/CMSIS/Core/Include/cmsis_gcc.h ****   
 656:./Libraries/CMSIS/Core/Include/cmsis_gcc.h ****   \details Returns the current value of the Process Stack Pointer Limit (PSPLIM).
 657:./Libraries/CMSIS/Core/Include/cmsis_gcc.h ****   \return               PSPLIM Register value
 658:./Libraries/CMSIS/Core/Include/cmsis_gcc.h ****  */
 659:./Libraries/CMSIS/Core/Include/cmsis_gcc.h **** __STATIC_FORCEINLINE uint32_t __get_PSPLIM(void)
 660:./Libraries/CMSIS/Core/Include/cmsis_gcc.h **** {
 661:./Libraries/CMSIS/Core/Include/cmsis_gcc.h **** #if (!(defined (__ARM_ARCH_8M_MAIN__ ) && (__ARM_ARCH_8M_MAIN__ == 1)) && \
 662:./Libraries/CMSIS/Core/Include/cmsis_gcc.h ****     (!defined (__ARM_FEATURE_CMSE) || (__ARM_FEATURE_CMSE < 3)))
 663:./Libraries/CMSIS/Core/Include/cmsis_gcc.h ****     // without main extensions, the non-secure PSPLIM is RAZ/WI
 664:./Libraries/CMSIS/Core/Include/cmsis_gcc.h ****   return 0U;
ARM GAS  /tmp/cc5RRSLv.s 			page 28


 665:./Libraries/CMSIS/Core/Include/cmsis_gcc.h **** #else
 666:./Libraries/CMSIS/Core/Include/cmsis_gcc.h ****   uint32_t result;
 667:./Libraries/CMSIS/Core/Include/cmsis_gcc.h ****   __ASM volatile ("MRS %0, psplim"  : "=r" (result) );
 668:./Libraries/CMSIS/Core/Include/cmsis_gcc.h ****   return result;
 669:./Libraries/CMSIS/Core/Include/cmsis_gcc.h **** #endif
 670:./Libraries/CMSIS/Core/Include/cmsis_gcc.h **** }
 671:./Libraries/CMSIS/Core/Include/cmsis_gcc.h **** 
 672:./Libraries/CMSIS/Core/Include/cmsis_gcc.h **** #if (defined (__ARM_FEATURE_CMSE) && (__ARM_FEATURE_CMSE == 3))
 673:./Libraries/CMSIS/Core/Include/cmsis_gcc.h **** /**
 674:./Libraries/CMSIS/Core/Include/cmsis_gcc.h ****   \brief   Get Process Stack Pointer Limit (non-secure)
 675:./Libraries/CMSIS/Core/Include/cmsis_gcc.h ****   Devices without ARMv8-M Main Extensions (i.e. Cortex-M23) lack the non-secure
 676:./Libraries/CMSIS/Core/Include/cmsis_gcc.h ****   Stack Pointer Limit register hence zero is returned always.
 677:./Libraries/CMSIS/Core/Include/cmsis_gcc.h **** 
 678:./Libraries/CMSIS/Core/Include/cmsis_gcc.h ****   \details Returns the current value of the non-secure Process Stack Pointer Limit (PSPLIM) when in
 679:./Libraries/CMSIS/Core/Include/cmsis_gcc.h ****   \return               PSPLIM Register value
 680:./Libraries/CMSIS/Core/Include/cmsis_gcc.h ****  */
 681:./Libraries/CMSIS/Core/Include/cmsis_gcc.h **** __STATIC_FORCEINLINE uint32_t __TZ_get_PSPLIM_NS(void)
 682:./Libraries/CMSIS/Core/Include/cmsis_gcc.h **** {
 683:./Libraries/CMSIS/Core/Include/cmsis_gcc.h **** #if (!(defined (__ARM_ARCH_8M_MAIN__ ) && (__ARM_ARCH_8M_MAIN__ == 1)))
 684:./Libraries/CMSIS/Core/Include/cmsis_gcc.h ****   // without main extensions, the non-secure PSPLIM is RAZ/WI
 685:./Libraries/CMSIS/Core/Include/cmsis_gcc.h ****   return 0U;
 686:./Libraries/CMSIS/Core/Include/cmsis_gcc.h **** #else
 687:./Libraries/CMSIS/Core/Include/cmsis_gcc.h ****   uint32_t result;
 688:./Libraries/CMSIS/Core/Include/cmsis_gcc.h ****   __ASM volatile ("MRS %0, psplim_ns"  : "=r" (result) );
 689:./Libraries/CMSIS/Core/Include/cmsis_gcc.h ****   return result;
 690:./Libraries/CMSIS/Core/Include/cmsis_gcc.h **** #endif
 691:./Libraries/CMSIS/Core/Include/cmsis_gcc.h **** }
 692:./Libraries/CMSIS/Core/Include/cmsis_gcc.h **** #endif
 693:./Libraries/CMSIS/Core/Include/cmsis_gcc.h **** 
 694:./Libraries/CMSIS/Core/Include/cmsis_gcc.h **** 
 695:./Libraries/CMSIS/Core/Include/cmsis_gcc.h **** /**
 696:./Libraries/CMSIS/Core/Include/cmsis_gcc.h ****   \brief   Set Process Stack Pointer Limit
 697:./Libraries/CMSIS/Core/Include/cmsis_gcc.h ****   Devices without ARMv8-M Main Extensions (i.e. Cortex-M23) lack the non-secure
 698:./Libraries/CMSIS/Core/Include/cmsis_gcc.h ****   Stack Pointer Limit register hence the write is silently ignored in non-secure
 699:./Libraries/CMSIS/Core/Include/cmsis_gcc.h ****   mode.
 700:./Libraries/CMSIS/Core/Include/cmsis_gcc.h ****   
 701:./Libraries/CMSIS/Core/Include/cmsis_gcc.h ****   \details Assigns the given value to the Process Stack Pointer Limit (PSPLIM).
 702:./Libraries/CMSIS/Core/Include/cmsis_gcc.h ****   \param [in]    ProcStackPtrLimit  Process Stack Pointer Limit value to set
 703:./Libraries/CMSIS/Core/Include/cmsis_gcc.h ****  */
 704:./Libraries/CMSIS/Core/Include/cmsis_gcc.h **** __STATIC_FORCEINLINE void __set_PSPLIM(uint32_t ProcStackPtrLimit)
 705:./Libraries/CMSIS/Core/Include/cmsis_gcc.h **** {
 706:./Libraries/CMSIS/Core/Include/cmsis_gcc.h **** #if (!(defined (__ARM_ARCH_8M_MAIN__ ) && (__ARM_ARCH_8M_MAIN__ == 1)) && \
 707:./Libraries/CMSIS/Core/Include/cmsis_gcc.h ****     (!defined (__ARM_FEATURE_CMSE) || (__ARM_FEATURE_CMSE < 3)))
 708:./Libraries/CMSIS/Core/Include/cmsis_gcc.h ****   // without main extensions, the non-secure PSPLIM is RAZ/WI
 709:./Libraries/CMSIS/Core/Include/cmsis_gcc.h ****   (void)ProcStackPtrLimit;
 710:./Libraries/CMSIS/Core/Include/cmsis_gcc.h **** #else
 711:./Libraries/CMSIS/Core/Include/cmsis_gcc.h ****   __ASM volatile ("MSR psplim, %0" : : "r" (ProcStackPtrLimit));
 712:./Libraries/CMSIS/Core/Include/cmsis_gcc.h **** #endif
 713:./Libraries/CMSIS/Core/Include/cmsis_gcc.h **** }
 714:./Libraries/CMSIS/Core/Include/cmsis_gcc.h **** 
 715:./Libraries/CMSIS/Core/Include/cmsis_gcc.h **** 
 716:./Libraries/CMSIS/Core/Include/cmsis_gcc.h **** #if (defined (__ARM_FEATURE_CMSE  ) && (__ARM_FEATURE_CMSE   == 3))
 717:./Libraries/CMSIS/Core/Include/cmsis_gcc.h **** /**
 718:./Libraries/CMSIS/Core/Include/cmsis_gcc.h ****   \brief   Set Process Stack Pointer (non-secure)
 719:./Libraries/CMSIS/Core/Include/cmsis_gcc.h ****   Devices without ARMv8-M Main Extensions (i.e. Cortex-M23) lack the non-secure
 720:./Libraries/CMSIS/Core/Include/cmsis_gcc.h ****   Stack Pointer Limit register hence the write is silently ignored.
 721:./Libraries/CMSIS/Core/Include/cmsis_gcc.h **** 
ARM GAS  /tmp/cc5RRSLv.s 			page 29


 722:./Libraries/CMSIS/Core/Include/cmsis_gcc.h ****   \details Assigns the given value to the non-secure Process Stack Pointer Limit (PSPLIM) when in s
 723:./Libraries/CMSIS/Core/Include/cmsis_gcc.h ****   \param [in]    ProcStackPtrLimit  Process Stack Pointer Limit value to set
 724:./Libraries/CMSIS/Core/Include/cmsis_gcc.h ****  */
 725:./Libraries/CMSIS/Core/Include/cmsis_gcc.h **** __STATIC_FORCEINLINE void __TZ_set_PSPLIM_NS(uint32_t ProcStackPtrLimit)
 726:./Libraries/CMSIS/Core/Include/cmsis_gcc.h **** {
 727:./Libraries/CMSIS/Core/Include/cmsis_gcc.h **** #if (!(defined (__ARM_ARCH_8M_MAIN__ ) && (__ARM_ARCH_8M_MAIN__ == 1)))
 728:./Libraries/CMSIS/Core/Include/cmsis_gcc.h ****   // without main extensions, the non-secure PSPLIM is RAZ/WI
 729:./Libraries/CMSIS/Core/Include/cmsis_gcc.h ****   (void)ProcStackPtrLimit;
 730:./Libraries/CMSIS/Core/Include/cmsis_gcc.h **** #else
 731:./Libraries/CMSIS/Core/Include/cmsis_gcc.h ****   __ASM volatile ("MSR psplim_ns, %0\n" : : "r" (ProcStackPtrLimit));
 732:./Libraries/CMSIS/Core/Include/cmsis_gcc.h **** #endif
 733:./Libraries/CMSIS/Core/Include/cmsis_gcc.h **** }
 734:./Libraries/CMSIS/Core/Include/cmsis_gcc.h **** #endif
 735:./Libraries/CMSIS/Core/Include/cmsis_gcc.h **** 
 736:./Libraries/CMSIS/Core/Include/cmsis_gcc.h **** 
 737:./Libraries/CMSIS/Core/Include/cmsis_gcc.h **** /**
 738:./Libraries/CMSIS/Core/Include/cmsis_gcc.h ****   \brief   Get Main Stack Pointer Limit
 739:./Libraries/CMSIS/Core/Include/cmsis_gcc.h ****   Devices without ARMv8-M Main Extensions (i.e. Cortex-M23) lack the non-secure
 740:./Libraries/CMSIS/Core/Include/cmsis_gcc.h ****   Stack Pointer Limit register hence zero is returned always in non-secure
 741:./Libraries/CMSIS/Core/Include/cmsis_gcc.h ****   mode.
 742:./Libraries/CMSIS/Core/Include/cmsis_gcc.h **** 
 743:./Libraries/CMSIS/Core/Include/cmsis_gcc.h ****   \details Returns the current value of the Main Stack Pointer Limit (MSPLIM).
 744:./Libraries/CMSIS/Core/Include/cmsis_gcc.h ****   \return               MSPLIM Register value
 745:./Libraries/CMSIS/Core/Include/cmsis_gcc.h ****  */
 746:./Libraries/CMSIS/Core/Include/cmsis_gcc.h **** __STATIC_FORCEINLINE uint32_t __get_MSPLIM(void)
 747:./Libraries/CMSIS/Core/Include/cmsis_gcc.h **** {
 748:./Libraries/CMSIS/Core/Include/cmsis_gcc.h **** #if (!(defined (__ARM_ARCH_8M_MAIN__ ) && (__ARM_ARCH_8M_MAIN__ == 1)) && \
 749:./Libraries/CMSIS/Core/Include/cmsis_gcc.h ****     (!defined (__ARM_FEATURE_CMSE) || (__ARM_FEATURE_CMSE < 3)))
 750:./Libraries/CMSIS/Core/Include/cmsis_gcc.h ****   // without main extensions, the non-secure MSPLIM is RAZ/WI
 751:./Libraries/CMSIS/Core/Include/cmsis_gcc.h ****   return 0U;
 752:./Libraries/CMSIS/Core/Include/cmsis_gcc.h **** #else
 753:./Libraries/CMSIS/Core/Include/cmsis_gcc.h ****   uint32_t result;
 754:./Libraries/CMSIS/Core/Include/cmsis_gcc.h ****   __ASM volatile ("MRS %0, msplim" : "=r" (result) );
 755:./Libraries/CMSIS/Core/Include/cmsis_gcc.h ****   return result;
 756:./Libraries/CMSIS/Core/Include/cmsis_gcc.h **** #endif
 757:./Libraries/CMSIS/Core/Include/cmsis_gcc.h **** }
 758:./Libraries/CMSIS/Core/Include/cmsis_gcc.h **** 
 759:./Libraries/CMSIS/Core/Include/cmsis_gcc.h **** 
 760:./Libraries/CMSIS/Core/Include/cmsis_gcc.h **** #if (defined (__ARM_FEATURE_CMSE  ) && (__ARM_FEATURE_CMSE   == 3))
 761:./Libraries/CMSIS/Core/Include/cmsis_gcc.h **** /**
 762:./Libraries/CMSIS/Core/Include/cmsis_gcc.h ****   \brief   Get Main Stack Pointer Limit (non-secure)
 763:./Libraries/CMSIS/Core/Include/cmsis_gcc.h ****   Devices without ARMv8-M Main Extensions (i.e. Cortex-M23) lack the non-secure
 764:./Libraries/CMSIS/Core/Include/cmsis_gcc.h ****   Stack Pointer Limit register hence zero is returned always.
 765:./Libraries/CMSIS/Core/Include/cmsis_gcc.h **** 
 766:./Libraries/CMSIS/Core/Include/cmsis_gcc.h ****   \details Returns the current value of the non-secure Main Stack Pointer Limit(MSPLIM) when in sec
 767:./Libraries/CMSIS/Core/Include/cmsis_gcc.h ****   \return               MSPLIM Register value
 768:./Libraries/CMSIS/Core/Include/cmsis_gcc.h ****  */
 769:./Libraries/CMSIS/Core/Include/cmsis_gcc.h **** __STATIC_FORCEINLINE uint32_t __TZ_get_MSPLIM_NS(void)
 770:./Libraries/CMSIS/Core/Include/cmsis_gcc.h **** {
 771:./Libraries/CMSIS/Core/Include/cmsis_gcc.h **** #if (!(defined (__ARM_ARCH_8M_MAIN__ ) && (__ARM_ARCH_8M_MAIN__ == 1)))
 772:./Libraries/CMSIS/Core/Include/cmsis_gcc.h ****   // without main extensions, the non-secure MSPLIM is RAZ/WI
 773:./Libraries/CMSIS/Core/Include/cmsis_gcc.h ****   return 0U;
 774:./Libraries/CMSIS/Core/Include/cmsis_gcc.h **** #else
 775:./Libraries/CMSIS/Core/Include/cmsis_gcc.h ****   uint32_t result;
 776:./Libraries/CMSIS/Core/Include/cmsis_gcc.h ****   __ASM volatile ("MRS %0, msplim_ns" : "=r" (result) );
 777:./Libraries/CMSIS/Core/Include/cmsis_gcc.h ****   return result;
 778:./Libraries/CMSIS/Core/Include/cmsis_gcc.h **** #endif
ARM GAS  /tmp/cc5RRSLv.s 			page 30


 779:./Libraries/CMSIS/Core/Include/cmsis_gcc.h **** }
 780:./Libraries/CMSIS/Core/Include/cmsis_gcc.h **** #endif
 781:./Libraries/CMSIS/Core/Include/cmsis_gcc.h **** 
 782:./Libraries/CMSIS/Core/Include/cmsis_gcc.h **** 
 783:./Libraries/CMSIS/Core/Include/cmsis_gcc.h **** /**
 784:./Libraries/CMSIS/Core/Include/cmsis_gcc.h ****   \brief   Set Main Stack Pointer Limit
 785:./Libraries/CMSIS/Core/Include/cmsis_gcc.h ****   Devices without ARMv8-M Main Extensions (i.e. Cortex-M23) lack the non-secure
 786:./Libraries/CMSIS/Core/Include/cmsis_gcc.h ****   Stack Pointer Limit register hence the write is silently ignored in non-secure
 787:./Libraries/CMSIS/Core/Include/cmsis_gcc.h ****   mode.
 788:./Libraries/CMSIS/Core/Include/cmsis_gcc.h **** 
 789:./Libraries/CMSIS/Core/Include/cmsis_gcc.h ****   \details Assigns the given value to the Main Stack Pointer Limit (MSPLIM).
 790:./Libraries/CMSIS/Core/Include/cmsis_gcc.h ****   \param [in]    MainStackPtrLimit  Main Stack Pointer Limit value to set
 791:./Libraries/CMSIS/Core/Include/cmsis_gcc.h ****  */
 792:./Libraries/CMSIS/Core/Include/cmsis_gcc.h **** __STATIC_FORCEINLINE void __set_MSPLIM(uint32_t MainStackPtrLimit)
 793:./Libraries/CMSIS/Core/Include/cmsis_gcc.h **** {
 794:./Libraries/CMSIS/Core/Include/cmsis_gcc.h **** #if (!(defined (__ARM_ARCH_8M_MAIN__ ) && (__ARM_ARCH_8M_MAIN__ == 1)) && \
 795:./Libraries/CMSIS/Core/Include/cmsis_gcc.h ****     (!defined (__ARM_FEATURE_CMSE) || (__ARM_FEATURE_CMSE < 3)))
 796:./Libraries/CMSIS/Core/Include/cmsis_gcc.h ****   // without main extensions, the non-secure MSPLIM is RAZ/WI
 797:./Libraries/CMSIS/Core/Include/cmsis_gcc.h ****   (void)MainStackPtrLimit;
 798:./Libraries/CMSIS/Core/Include/cmsis_gcc.h **** #else
 799:./Libraries/CMSIS/Core/Include/cmsis_gcc.h ****   __ASM volatile ("MSR msplim, %0" : : "r" (MainStackPtrLimit));
 800:./Libraries/CMSIS/Core/Include/cmsis_gcc.h **** #endif
 801:./Libraries/CMSIS/Core/Include/cmsis_gcc.h **** }
 802:./Libraries/CMSIS/Core/Include/cmsis_gcc.h **** 
 803:./Libraries/CMSIS/Core/Include/cmsis_gcc.h **** 
 804:./Libraries/CMSIS/Core/Include/cmsis_gcc.h **** #if (defined (__ARM_FEATURE_CMSE  ) && (__ARM_FEATURE_CMSE   == 3))
 805:./Libraries/CMSIS/Core/Include/cmsis_gcc.h **** /**
 806:./Libraries/CMSIS/Core/Include/cmsis_gcc.h ****   \brief   Set Main Stack Pointer Limit (non-secure)
 807:./Libraries/CMSIS/Core/Include/cmsis_gcc.h ****   Devices without ARMv8-M Main Extensions (i.e. Cortex-M23) lack the non-secure
 808:./Libraries/CMSIS/Core/Include/cmsis_gcc.h ****   Stack Pointer Limit register hence the write is silently ignored.
 809:./Libraries/CMSIS/Core/Include/cmsis_gcc.h **** 
 810:./Libraries/CMSIS/Core/Include/cmsis_gcc.h ****   \details Assigns the given value to the non-secure Main Stack Pointer Limit (MSPLIM) when in secu
 811:./Libraries/CMSIS/Core/Include/cmsis_gcc.h ****   \param [in]    MainStackPtrLimit  Main Stack Pointer value to set
 812:./Libraries/CMSIS/Core/Include/cmsis_gcc.h ****  */
 813:./Libraries/CMSIS/Core/Include/cmsis_gcc.h **** __STATIC_FORCEINLINE void __TZ_set_MSPLIM_NS(uint32_t MainStackPtrLimit)
 814:./Libraries/CMSIS/Core/Include/cmsis_gcc.h **** {
 815:./Libraries/CMSIS/Core/Include/cmsis_gcc.h **** #if (!(defined (__ARM_ARCH_8M_MAIN__ ) && (__ARM_ARCH_8M_MAIN__ == 1)))
 816:./Libraries/CMSIS/Core/Include/cmsis_gcc.h ****   // without main extensions, the non-secure MSPLIM is RAZ/WI
 817:./Libraries/CMSIS/Core/Include/cmsis_gcc.h ****   (void)MainStackPtrLimit;
 818:./Libraries/CMSIS/Core/Include/cmsis_gcc.h **** #else
 819:./Libraries/CMSIS/Core/Include/cmsis_gcc.h ****   __ASM volatile ("MSR msplim_ns, %0" : : "r" (MainStackPtrLimit));
 820:./Libraries/CMSIS/Core/Include/cmsis_gcc.h **** #endif
 821:./Libraries/CMSIS/Core/Include/cmsis_gcc.h **** }
 822:./Libraries/CMSIS/Core/Include/cmsis_gcc.h **** #endif
 823:./Libraries/CMSIS/Core/Include/cmsis_gcc.h **** 
 824:./Libraries/CMSIS/Core/Include/cmsis_gcc.h **** #endif /* ((defined (__ARM_ARCH_8M_MAIN__ ) && (__ARM_ARCH_8M_MAIN__ == 1)) || \
 825:./Libraries/CMSIS/Core/Include/cmsis_gcc.h ****            (defined (__ARM_ARCH_8M_BASE__ ) && (__ARM_ARCH_8M_BASE__ == 1))    ) */
 826:./Libraries/CMSIS/Core/Include/cmsis_gcc.h **** 
 827:./Libraries/CMSIS/Core/Include/cmsis_gcc.h **** 
 828:./Libraries/CMSIS/Core/Include/cmsis_gcc.h **** /**
 829:./Libraries/CMSIS/Core/Include/cmsis_gcc.h ****   \brief   Get FPSCR
 830:./Libraries/CMSIS/Core/Include/cmsis_gcc.h ****   \details Returns the current value of the Floating Point Status/Control register.
 831:./Libraries/CMSIS/Core/Include/cmsis_gcc.h ****   \return               Floating Point Status/Control register value
 832:./Libraries/CMSIS/Core/Include/cmsis_gcc.h ****  */
 833:./Libraries/CMSIS/Core/Include/cmsis_gcc.h **** __STATIC_FORCEINLINE uint32_t __get_FPSCR(void)
 834:./Libraries/CMSIS/Core/Include/cmsis_gcc.h **** {
 835:./Libraries/CMSIS/Core/Include/cmsis_gcc.h **** #if ((defined (__FPU_PRESENT) && (__FPU_PRESENT == 1U)) && \
ARM GAS  /tmp/cc5RRSLv.s 			page 31


 836:./Libraries/CMSIS/Core/Include/cmsis_gcc.h ****      (defined (__FPU_USED   ) && (__FPU_USED    == 1U))     )
 837:./Libraries/CMSIS/Core/Include/cmsis_gcc.h **** #if __has_builtin(__builtin_arm_get_fpscr) 
 838:./Libraries/CMSIS/Core/Include/cmsis_gcc.h **** // Re-enable using built-in when GCC has been fixed
 839:./Libraries/CMSIS/Core/Include/cmsis_gcc.h **** // || (__GNUC__ > 7) || (__GNUC__ == 7 && __GNUC_MINOR__ >= 2)
 840:./Libraries/CMSIS/Core/Include/cmsis_gcc.h ****   /* see https://gcc.gnu.org/ml/gcc-patches/2017-04/msg00443.html */
 841:./Libraries/CMSIS/Core/Include/cmsis_gcc.h ****   return __builtin_arm_get_fpscr();
 842:./Libraries/CMSIS/Core/Include/cmsis_gcc.h **** #else
 843:./Libraries/CMSIS/Core/Include/cmsis_gcc.h ****   uint32_t result;
 844:./Libraries/CMSIS/Core/Include/cmsis_gcc.h **** 
 845:./Libraries/CMSIS/Core/Include/cmsis_gcc.h ****   __ASM volatile ("VMRS %0, fpscr" : "=r" (result) );
 846:./Libraries/CMSIS/Core/Include/cmsis_gcc.h ****   return(result);
 847:./Libraries/CMSIS/Core/Include/cmsis_gcc.h **** #endif
 848:./Libraries/CMSIS/Core/Include/cmsis_gcc.h **** #else
 849:./Libraries/CMSIS/Core/Include/cmsis_gcc.h ****   return(0U);
 850:./Libraries/CMSIS/Core/Include/cmsis_gcc.h **** #endif
 851:./Libraries/CMSIS/Core/Include/cmsis_gcc.h **** }
 852:./Libraries/CMSIS/Core/Include/cmsis_gcc.h **** 
 853:./Libraries/CMSIS/Core/Include/cmsis_gcc.h **** 
 854:./Libraries/CMSIS/Core/Include/cmsis_gcc.h **** /**
 855:./Libraries/CMSIS/Core/Include/cmsis_gcc.h ****   \brief   Set FPSCR
 856:./Libraries/CMSIS/Core/Include/cmsis_gcc.h ****   \details Assigns the given value to the Floating Point Status/Control register.
 857:./Libraries/CMSIS/Core/Include/cmsis_gcc.h ****   \param [in]    fpscr  Floating Point Status/Control value to set
 858:./Libraries/CMSIS/Core/Include/cmsis_gcc.h ****  */
 859:./Libraries/CMSIS/Core/Include/cmsis_gcc.h **** __STATIC_FORCEINLINE void __set_FPSCR(uint32_t fpscr)
 860:./Libraries/CMSIS/Core/Include/cmsis_gcc.h **** {
 861:./Libraries/CMSIS/Core/Include/cmsis_gcc.h **** #if ((defined (__FPU_PRESENT) && (__FPU_PRESENT == 1U)) && \
 862:./Libraries/CMSIS/Core/Include/cmsis_gcc.h ****      (defined (__FPU_USED   ) && (__FPU_USED    == 1U))     )
 863:./Libraries/CMSIS/Core/Include/cmsis_gcc.h **** #if __has_builtin(__builtin_arm_set_fpscr)
 864:./Libraries/CMSIS/Core/Include/cmsis_gcc.h **** // Re-enable using built-in when GCC has been fixed
 865:./Libraries/CMSIS/Core/Include/cmsis_gcc.h **** // || (__GNUC__ > 7) || (__GNUC__ == 7 && __GNUC_MINOR__ >= 2)
 866:./Libraries/CMSIS/Core/Include/cmsis_gcc.h ****   /* see https://gcc.gnu.org/ml/gcc-patches/2017-04/msg00443.html */
 867:./Libraries/CMSIS/Core/Include/cmsis_gcc.h ****   __builtin_arm_set_fpscr(fpscr);
 868:./Libraries/CMSIS/Core/Include/cmsis_gcc.h **** #else
 869:./Libraries/CMSIS/Core/Include/cmsis_gcc.h ****   __ASM volatile ("VMSR fpscr, %0" : : "r" (fpscr) : "vfpcc", "memory");
 870:./Libraries/CMSIS/Core/Include/cmsis_gcc.h **** #endif
 871:./Libraries/CMSIS/Core/Include/cmsis_gcc.h **** #else
 872:./Libraries/CMSIS/Core/Include/cmsis_gcc.h ****   (void)fpscr;
 873:./Libraries/CMSIS/Core/Include/cmsis_gcc.h **** #endif
 874:./Libraries/CMSIS/Core/Include/cmsis_gcc.h **** }
 875:./Libraries/CMSIS/Core/Include/cmsis_gcc.h **** 
 876:./Libraries/CMSIS/Core/Include/cmsis_gcc.h **** 
 877:./Libraries/CMSIS/Core/Include/cmsis_gcc.h **** /*@} end of CMSIS_Core_RegAccFunctions */
 878:./Libraries/CMSIS/Core/Include/cmsis_gcc.h **** 
 879:./Libraries/CMSIS/Core/Include/cmsis_gcc.h **** 
 880:./Libraries/CMSIS/Core/Include/cmsis_gcc.h **** /* ##########################  Core Instruction Access  ######################### */
 881:./Libraries/CMSIS/Core/Include/cmsis_gcc.h **** /** \defgroup CMSIS_Core_InstructionInterface CMSIS Core Instruction Interface
 882:./Libraries/CMSIS/Core/Include/cmsis_gcc.h ****   Access to dedicated instructions
 883:./Libraries/CMSIS/Core/Include/cmsis_gcc.h ****   @{
 884:./Libraries/CMSIS/Core/Include/cmsis_gcc.h **** */
 885:./Libraries/CMSIS/Core/Include/cmsis_gcc.h **** 
 886:./Libraries/CMSIS/Core/Include/cmsis_gcc.h **** /* Define macros for porting to both thumb1 and thumb2.
 887:./Libraries/CMSIS/Core/Include/cmsis_gcc.h ****  * For thumb1, use low register (r0-r7), specified by constraint "l"
 888:./Libraries/CMSIS/Core/Include/cmsis_gcc.h ****  * Otherwise, use general registers, specified by constraint "r" */
 889:./Libraries/CMSIS/Core/Include/cmsis_gcc.h **** #if defined (__thumb__) && !defined (__thumb2__)
 890:./Libraries/CMSIS/Core/Include/cmsis_gcc.h **** #define __CMSIS_GCC_OUT_REG(r) "=l" (r)
 891:./Libraries/CMSIS/Core/Include/cmsis_gcc.h **** #define __CMSIS_GCC_RW_REG(r) "+l" (r)
 892:./Libraries/CMSIS/Core/Include/cmsis_gcc.h **** #define __CMSIS_GCC_USE_REG(r) "l" (r)
ARM GAS  /tmp/cc5RRSLv.s 			page 32


 893:./Libraries/CMSIS/Core/Include/cmsis_gcc.h **** #else
 894:./Libraries/CMSIS/Core/Include/cmsis_gcc.h **** #define __CMSIS_GCC_OUT_REG(r) "=r" (r)
 895:./Libraries/CMSIS/Core/Include/cmsis_gcc.h **** #define __CMSIS_GCC_RW_REG(r) "+r" (r)
 896:./Libraries/CMSIS/Core/Include/cmsis_gcc.h **** #define __CMSIS_GCC_USE_REG(r) "r" (r)
 897:./Libraries/CMSIS/Core/Include/cmsis_gcc.h **** #endif
 898:./Libraries/CMSIS/Core/Include/cmsis_gcc.h **** 
 899:./Libraries/CMSIS/Core/Include/cmsis_gcc.h **** /**
 900:./Libraries/CMSIS/Core/Include/cmsis_gcc.h ****   \brief   No Operation
 901:./Libraries/CMSIS/Core/Include/cmsis_gcc.h ****   \details No Operation does nothing. This instruction can be used for code alignment purposes.
 902:./Libraries/CMSIS/Core/Include/cmsis_gcc.h ****  */
 903:./Libraries/CMSIS/Core/Include/cmsis_gcc.h **** #define __NOP()                             __ASM volatile ("nop")
 904:./Libraries/CMSIS/Core/Include/cmsis_gcc.h **** 
 905:./Libraries/CMSIS/Core/Include/cmsis_gcc.h **** /**
 906:./Libraries/CMSIS/Core/Include/cmsis_gcc.h ****   \brief   Wait For Interrupt
 907:./Libraries/CMSIS/Core/Include/cmsis_gcc.h ****   \details Wait For Interrupt is a hint instruction that suspends execution until one of a number o
 908:./Libraries/CMSIS/Core/Include/cmsis_gcc.h ****  */
 909:./Libraries/CMSIS/Core/Include/cmsis_gcc.h **** #define __WFI()                             __ASM volatile ("wfi")
 910:./Libraries/CMSIS/Core/Include/cmsis_gcc.h **** 
 911:./Libraries/CMSIS/Core/Include/cmsis_gcc.h **** 
 912:./Libraries/CMSIS/Core/Include/cmsis_gcc.h **** /**
 913:./Libraries/CMSIS/Core/Include/cmsis_gcc.h ****   \brief   Wait For Event
 914:./Libraries/CMSIS/Core/Include/cmsis_gcc.h ****   \details Wait For Event is a hint instruction that permits the processor to enter
 915:./Libraries/CMSIS/Core/Include/cmsis_gcc.h ****            a low-power state until one of a number of events occurs.
 916:./Libraries/CMSIS/Core/Include/cmsis_gcc.h ****  */
 917:./Libraries/CMSIS/Core/Include/cmsis_gcc.h **** #define __WFE()                             __ASM volatile ("wfe")
 918:./Libraries/CMSIS/Core/Include/cmsis_gcc.h **** 
 919:./Libraries/CMSIS/Core/Include/cmsis_gcc.h **** 
 920:./Libraries/CMSIS/Core/Include/cmsis_gcc.h **** /**
 921:./Libraries/CMSIS/Core/Include/cmsis_gcc.h ****   \brief   Send Event
 922:./Libraries/CMSIS/Core/Include/cmsis_gcc.h ****   \details Send Event is a hint instruction. It causes an event to be signaled to the CPU.
 923:./Libraries/CMSIS/Core/Include/cmsis_gcc.h ****  */
 924:./Libraries/CMSIS/Core/Include/cmsis_gcc.h **** #define __SEV()                             __ASM volatile ("sev")
 925:./Libraries/CMSIS/Core/Include/cmsis_gcc.h **** 
 926:./Libraries/CMSIS/Core/Include/cmsis_gcc.h **** 
 927:./Libraries/CMSIS/Core/Include/cmsis_gcc.h **** /**
 928:./Libraries/CMSIS/Core/Include/cmsis_gcc.h ****   \brief   Instruction Synchronization Barrier
 929:./Libraries/CMSIS/Core/Include/cmsis_gcc.h ****   \details Instruction Synchronization Barrier flushes the pipeline in the processor,
 930:./Libraries/CMSIS/Core/Include/cmsis_gcc.h ****            so that all instructions following the ISB are fetched from cache or memory,
 931:./Libraries/CMSIS/Core/Include/cmsis_gcc.h ****            after the instruction has been completed.
 932:./Libraries/CMSIS/Core/Include/cmsis_gcc.h ****  */
 933:./Libraries/CMSIS/Core/Include/cmsis_gcc.h **** __STATIC_FORCEINLINE void __ISB(void)
 934:./Libraries/CMSIS/Core/Include/cmsis_gcc.h **** {
 935:./Libraries/CMSIS/Core/Include/cmsis_gcc.h ****   __ASM volatile ("isb 0xF":::"memory");
 936:./Libraries/CMSIS/Core/Include/cmsis_gcc.h **** }
 937:./Libraries/CMSIS/Core/Include/cmsis_gcc.h **** 
 938:./Libraries/CMSIS/Core/Include/cmsis_gcc.h **** 
 939:./Libraries/CMSIS/Core/Include/cmsis_gcc.h **** /**
 940:./Libraries/CMSIS/Core/Include/cmsis_gcc.h ****   \brief   Data Synchronization Barrier
 941:./Libraries/CMSIS/Core/Include/cmsis_gcc.h ****   \details Acts as a special kind of Data Memory Barrier.
 942:./Libraries/CMSIS/Core/Include/cmsis_gcc.h ****            It completes when all explicit memory accesses before this instruction complete.
 943:./Libraries/CMSIS/Core/Include/cmsis_gcc.h ****  */
 944:./Libraries/CMSIS/Core/Include/cmsis_gcc.h **** __STATIC_FORCEINLINE void __DSB(void)
 424              		.loc 2 944 27 discriminator 2 view .LVU106
 425              	.LBB681:
 945:./Libraries/CMSIS/Core/Include/cmsis_gcc.h **** {
 946:./Libraries/CMSIS/Core/Include/cmsis_gcc.h ****   __ASM volatile ("dsb 0xF":::"memory");
 426              		.loc 2 946 3 discriminator 2 view .LVU107
ARM GAS  /tmp/cc5RRSLv.s 			page 33


 427              		.syntax unified
 428              	@ 946 "./Libraries/CMSIS/Core/Include/cmsis_gcc.h" 1
 429 0036 BFF34F8F 		dsb 0xF
 430              	@ 0 "" 2
 431              		.thumb
 432              		.syntax unified
 433              	.LBE681:
 434              	.LBE680:
 406:./Libraries/STM32H7xx_HAL_Driver/Src/stm32h7xx_hal_nand.c ****     *(__IO uint8_t *)((uint32_t)(deviceaddress | ADDR_AREA)) = 0x00;
 435              		.loc 1 406 5 discriminator 2 view .LVU108
 436              		.loc 1 406 62 is_stmt 0 discriminator 2 view .LVU109
 437 003a 02F58032 		add	r2, r2, #65536
 438 003e 1370     		strb	r3, [r2]
 407:./Libraries/STM32H7xx_HAL_Driver/Src/stm32h7xx_hal_nand.c ****     __DSB();
 439              		.loc 1 407 5 is_stmt 1 discriminator 2 view .LVU110
 440              	.LBB682:
 441              	.LBI682:
 944:./Libraries/CMSIS/Core/Include/cmsis_gcc.h **** {
 442              		.loc 2 944 27 discriminator 2 view .LVU111
 443              	.LBB683:
 444              		.loc 2 946 3 discriminator 2 view .LVU112
 445              		.syntax unified
 446              	@ 946 "./Libraries/CMSIS/Core/Include/cmsis_gcc.h" 1
 447 0040 BFF34F8F 		dsb 0xF
 448              	@ 0 "" 2
 449              		.thumb
 450              		.syntax unified
 451              	.LBE683:
 452              	.LBE682:
 408:./Libraries/STM32H7xx_HAL_Driver/Src/stm32h7xx_hal_nand.c **** 
 409:./Libraries/STM32H7xx_HAL_Driver/Src/stm32h7xx_hal_nand.c ****     /* Read the electronic signature from NAND flash */
 410:./Libraries/STM32H7xx_HAL_Driver/Src/stm32h7xx_hal_nand.c ****     if (hnand->Init.MemoryDataWidth == FMC_NAND_MEM_BUS_WIDTH_8)
 453              		.loc 1 410 5 discriminator 2 view .LVU113
 454              		.loc 1 410 8 is_stmt 0 discriminator 2 view .LVU114
 455 0044 C368     		ldr	r3, [r0, #12]
 456 0046 03B3     		cbz	r3, .L50
 411:./Libraries/STM32H7xx_HAL_Driver/Src/stm32h7xx_hal_nand.c ****     {
 412:./Libraries/STM32H7xx_HAL_Driver/Src/stm32h7xx_hal_nand.c ****       data = *(__IO uint32_t *)deviceaddress;
 413:./Libraries/STM32H7xx_HAL_Driver/Src/stm32h7xx_hal_nand.c **** 
 414:./Libraries/STM32H7xx_HAL_Driver/Src/stm32h7xx_hal_nand.c ****       /* Return the data read */
 415:./Libraries/STM32H7xx_HAL_Driver/Src/stm32h7xx_hal_nand.c ****       pNAND_ID->Maker_Id   = ADDR_1ST_CYCLE(data);
 416:./Libraries/STM32H7xx_HAL_Driver/Src/stm32h7xx_hal_nand.c ****       pNAND_ID->Device_Id  = ADDR_2ND_CYCLE(data);
 417:./Libraries/STM32H7xx_HAL_Driver/Src/stm32h7xx_hal_nand.c ****       pNAND_ID->Third_Id   = ADDR_3RD_CYCLE(data);
 418:./Libraries/STM32H7xx_HAL_Driver/Src/stm32h7xx_hal_nand.c ****       pNAND_ID->Fourth_Id  = ADDR_4TH_CYCLE(data);
 419:./Libraries/STM32H7xx_HAL_Driver/Src/stm32h7xx_hal_nand.c ****     }
 420:./Libraries/STM32H7xx_HAL_Driver/Src/stm32h7xx_hal_nand.c ****     else
 421:./Libraries/STM32H7xx_HAL_Driver/Src/stm32h7xx_hal_nand.c ****     {
 422:./Libraries/STM32H7xx_HAL_Driver/Src/stm32h7xx_hal_nand.c ****       data = *(__IO uint32_t *)deviceaddress;
 457              		.loc 1 422 7 is_stmt 1 view .LVU115
 458              		.loc 1 422 14 is_stmt 0 view .LVU116
 459 0048 4FF00042 		mov	r2, #-2147483648
 423:./Libraries/STM32H7xx_HAL_Driver/Src/stm32h7xx_hal_nand.c ****       data1 = *((__IO uint32_t *)deviceaddress + 4);
 460              		.loc 1 423 15 view .LVU117
 461 004c 194B     		ldr	r3, .L51+4
 422:./Libraries/STM32H7xx_HAL_Driver/Src/stm32h7xx_hal_nand.c ****       data1 = *((__IO uint32_t *)deviceaddress + 4);
 462              		.loc 1 422 14 view .LVU118
 463 004e 1268     		ldr	r2, [r2]
ARM GAS  /tmp/cc5RRSLv.s 			page 34


 422:./Libraries/STM32H7xx_HAL_Driver/Src/stm32h7xx_hal_nand.c ****       data1 = *((__IO uint32_t *)deviceaddress + 4);
 464              		.loc 1 422 12 view .LVU119
 465 0050 0092     		str	r2, [sp]
 466              		.loc 1 423 7 is_stmt 1 view .LVU120
 467              		.loc 1 423 15 is_stmt 0 view .LVU121
 468 0052 1B68     		ldr	r3, [r3]
 469              		.loc 1 423 13 view .LVU122
 470 0054 0193     		str	r3, [sp, #4]
 424:./Libraries/STM32H7xx_HAL_Driver/Src/stm32h7xx_hal_nand.c **** 
 425:./Libraries/STM32H7xx_HAL_Driver/Src/stm32h7xx_hal_nand.c ****       /* Return the data read */
 426:./Libraries/STM32H7xx_HAL_Driver/Src/stm32h7xx_hal_nand.c ****       pNAND_ID->Maker_Id   = ADDR_1ST_CYCLE(data);
 471              		.loc 1 426 7 is_stmt 1 view .LVU123
 472              		.loc 1 426 30 is_stmt 0 view .LVU124
 473 0056 009D     		ldr	r5, [sp]
 427:./Libraries/STM32H7xx_HAL_Driver/Src/stm32h7xx_hal_nand.c ****       pNAND_ID->Device_Id  = ADDR_3RD_CYCLE(data);
 474              		.loc 1 427 30 view .LVU125
 475 0058 009A     		ldr	r2, [sp]
 428:./Libraries/STM32H7xx_HAL_Driver/Src/stm32h7xx_hal_nand.c ****       pNAND_ID->Third_Id   = ADDR_1ST_CYCLE(data1);
 476              		.loc 1 428 30 view .LVU126
 477 005a 019C     		ldr	r4, [sp, #4]
 429:./Libraries/STM32H7xx_HAL_Driver/Src/stm32h7xx_hal_nand.c ****       pNAND_ID->Fourth_Id  = ADDR_3RD_CYCLE(data1);
 478              		.loc 1 429 30 view .LVU127
 479 005c 019B     		ldr	r3, [sp, #4]
 427:./Libraries/STM32H7xx_HAL_Driver/Src/stm32h7xx_hal_nand.c ****       pNAND_ID->Device_Id  = ADDR_3RD_CYCLE(data);
 480              		.loc 1 427 30 view .LVU128
 481 005e 120C     		lsrs	r2, r2, #16
 426:./Libraries/STM32H7xx_HAL_Driver/Src/stm32h7xx_hal_nand.c ****       pNAND_ID->Device_Id  = ADDR_3RD_CYCLE(data);
 482              		.loc 1 426 30 view .LVU129
 483 0060 0D70     		strb	r5, [r1]
 427:./Libraries/STM32H7xx_HAL_Driver/Src/stm32h7xx_hal_nand.c ****       pNAND_ID->Third_Id   = ADDR_1ST_CYCLE(data1);
 484              		.loc 1 427 7 is_stmt 1 view .LVU130
 485              		.loc 1 429 30 is_stmt 0 view .LVU131
 486 0062 1B0C     		lsrs	r3, r3, #16
 427:./Libraries/STM32H7xx_HAL_Driver/Src/stm32h7xx_hal_nand.c ****       pNAND_ID->Third_Id   = ADDR_1ST_CYCLE(data1);
 487              		.loc 1 427 30 view .LVU132
 488 0064 4A70     		strb	r2, [r1, #1]
 428:./Libraries/STM32H7xx_HAL_Driver/Src/stm32h7xx_hal_nand.c ****       pNAND_ID->Fourth_Id  = ADDR_3RD_CYCLE(data1);
 489              		.loc 1 428 7 is_stmt 1 view .LVU133
 428:./Libraries/STM32H7xx_HAL_Driver/Src/stm32h7xx_hal_nand.c ****       pNAND_ID->Fourth_Id  = ADDR_3RD_CYCLE(data1);
 490              		.loc 1 428 30 is_stmt 0 view .LVU134
 491 0066 8C70     		strb	r4, [r1, #2]
 492              		.loc 1 429 7 is_stmt 1 view .LVU135
 493              		.loc 1 429 30 is_stmt 0 view .LVU136
 494 0068 CB70     		strb	r3, [r1, #3]
 495              	.L43:
 430:./Libraries/STM32H7xx_HAL_Driver/Src/stm32h7xx_hal_nand.c ****     }
 431:./Libraries/STM32H7xx_HAL_Driver/Src/stm32h7xx_hal_nand.c **** 
 432:./Libraries/STM32H7xx_HAL_Driver/Src/stm32h7xx_hal_nand.c ****     /* Update the NAND controller state */
 433:./Libraries/STM32H7xx_HAL_Driver/Src/stm32h7xx_hal_nand.c ****     hnand->State = HAL_NAND_STATE_READY;
 496              		.loc 1 433 5 is_stmt 1 view .LVU137
 434:./Libraries/STM32H7xx_HAL_Driver/Src/stm32h7xx_hal_nand.c **** 
 435:./Libraries/STM32H7xx_HAL_Driver/Src/stm32h7xx_hal_nand.c ****     /* Process unlocked */
 436:./Libraries/STM32H7xx_HAL_Driver/Src/stm32h7xx_hal_nand.c ****     __HAL_UNLOCK(hnand);
 497              		.loc 1 436 5 is_stmt 0 view .LVU138
 498 006a 0023     		movs	r3, #0
 433:./Libraries/STM32H7xx_HAL_Driver/Src/stm32h7xx_hal_nand.c **** 
 499              		.loc 1 433 18 view .LVU139
ARM GAS  /tmp/cc5RRSLv.s 			page 35


 500 006c 0122     		movs	r2, #1
 437:./Libraries/STM32H7xx_HAL_Driver/Src/stm32h7xx_hal_nand.c ****   }
 438:./Libraries/STM32H7xx_HAL_Driver/Src/stm32h7xx_hal_nand.c ****   else
 439:./Libraries/STM32H7xx_HAL_Driver/Src/stm32h7xx_hal_nand.c ****   {
 440:./Libraries/STM32H7xx_HAL_Driver/Src/stm32h7xx_hal_nand.c ****     return HAL_ERROR;
 441:./Libraries/STM32H7xx_HAL_Driver/Src/stm32h7xx_hal_nand.c ****   }
 442:./Libraries/STM32H7xx_HAL_Driver/Src/stm32h7xx_hal_nand.c **** 
 443:./Libraries/STM32H7xx_HAL_Driver/Src/stm32h7xx_hal_nand.c ****   return HAL_OK;
 501              		.loc 1 443 10 view .LVU140
 502 006e 1C46     		mov	r4, r3
 433:./Libraries/STM32H7xx_HAL_Driver/Src/stm32h7xx_hal_nand.c **** 
 503              		.loc 1 433 18 view .LVU141
 504 0070 80F82120 		strb	r2, [r0, #33]
 436:./Libraries/STM32H7xx_HAL_Driver/Src/stm32h7xx_hal_nand.c ****   }
 505              		.loc 1 436 5 is_stmt 1 view .LVU142
 436:./Libraries/STM32H7xx_HAL_Driver/Src/stm32h7xx_hal_nand.c ****   }
 506              		.loc 1 436 5 view .LVU143
 507 0074 80F82030 		strb	r3, [r0, #32]
 436:./Libraries/STM32H7xx_HAL_Driver/Src/stm32h7xx_hal_nand.c ****   }
 508              		.loc 1 436 5 view .LVU144
 509              		.loc 1 443 3 view .LVU145
 510              	.LVL26:
 511              	.L41:
 444:./Libraries/STM32H7xx_HAL_Driver/Src/stm32h7xx_hal_nand.c **** }
 512              		.loc 1 444 1 is_stmt 0 view .LVU146
 513 0078 2046     		mov	r0, r4
 514              	.LVL27:
 515              		.loc 1 444 1 view .LVU147
 516 007a 02B0     		add	sp, sp, #8
 517              	.LCFI6:
 518              		.cfi_remember_state
 519              		.cfi_def_cfa_offset 8
 520              		@ sp needed
 521 007c 30BC     		pop	{r4, r5}
 522              	.LCFI7:
 523              		.cfi_restore 5
 524              		.cfi_restore 4
 525              		.cfi_def_cfa_offset 0
 526 007e 7047     		bx	lr
 527              	.LVL28:
 528              	.L44:
 529              	.LCFI8:
 530              		.cfi_restore_state
 440:./Libraries/STM32H7xx_HAL_Driver/Src/stm32h7xx_hal_nand.c ****   }
 531              		.loc 1 440 12 view .LVU148
 532 0080 0124     		movs	r4, #1
 533              		.loc 1 444 1 view .LVU149
 534 0082 2046     		mov	r0, r4
 535              	.LVL29:
 536              		.loc 1 444 1 view .LVU150
 537 0084 02B0     		add	sp, sp, #8
 538              	.LCFI9:
 539              		.cfi_remember_state
 540              		.cfi_def_cfa_offset 8
 541              		@ sp needed
 542 0086 30BC     		pop	{r4, r5}
 543              	.LCFI10:
ARM GAS  /tmp/cc5RRSLv.s 			page 36


 544              		.cfi_restore 5
 545              		.cfi_restore 4
 546              		.cfi_def_cfa_offset 0
 547 0088 7047     		bx	lr
 548              	.LVL30:
 549              	.L50:
 550              	.LCFI11:
 551              		.cfi_restore_state
 412:./Libraries/STM32H7xx_HAL_Driver/Src/stm32h7xx_hal_nand.c **** 
 552              		.loc 1 412 7 is_stmt 1 view .LVU151
 412:./Libraries/STM32H7xx_HAL_Driver/Src/stm32h7xx_hal_nand.c **** 
 553              		.loc 1 412 14 is_stmt 0 view .LVU152
 554 008a 4FF00043 		mov	r3, #-2147483648
 555 008e 1B68     		ldr	r3, [r3]
 412:./Libraries/STM32H7xx_HAL_Driver/Src/stm32h7xx_hal_nand.c **** 
 556              		.loc 1 412 12 view .LVU153
 557 0090 0093     		str	r3, [sp]
 415:./Libraries/STM32H7xx_HAL_Driver/Src/stm32h7xx_hal_nand.c ****       pNAND_ID->Device_Id  = ADDR_2ND_CYCLE(data);
 558              		.loc 1 415 7 is_stmt 1 view .LVU154
 415:./Libraries/STM32H7xx_HAL_Driver/Src/stm32h7xx_hal_nand.c ****       pNAND_ID->Device_Id  = ADDR_2ND_CYCLE(data);
 559              		.loc 1 415 30 is_stmt 0 view .LVU155
 560 0092 009D     		ldr	r5, [sp]
 416:./Libraries/STM32H7xx_HAL_Driver/Src/stm32h7xx_hal_nand.c ****       pNAND_ID->Third_Id   = ADDR_3RD_CYCLE(data);
 561              		.loc 1 416 30 view .LVU156
 562 0094 009C     		ldr	r4, [sp]
 417:./Libraries/STM32H7xx_HAL_Driver/Src/stm32h7xx_hal_nand.c ****       pNAND_ID->Fourth_Id  = ADDR_4TH_CYCLE(data);
 563              		.loc 1 417 30 view .LVU157
 564 0096 009A     		ldr	r2, [sp]
 418:./Libraries/STM32H7xx_HAL_Driver/Src/stm32h7xx_hal_nand.c ****     }
 565              		.loc 1 418 30 view .LVU158
 566 0098 009B     		ldr	r3, [sp]
 416:./Libraries/STM32H7xx_HAL_Driver/Src/stm32h7xx_hal_nand.c ****       pNAND_ID->Third_Id   = ADDR_3RD_CYCLE(data);
 567              		.loc 1 416 30 view .LVU159
 568 009a 240A     		lsrs	r4, r4, #8
 417:./Libraries/STM32H7xx_HAL_Driver/Src/stm32h7xx_hal_nand.c ****       pNAND_ID->Fourth_Id  = ADDR_4TH_CYCLE(data);
 569              		.loc 1 417 30 view .LVU160
 570 009c 120C     		lsrs	r2, r2, #16
 415:./Libraries/STM32H7xx_HAL_Driver/Src/stm32h7xx_hal_nand.c ****       pNAND_ID->Device_Id  = ADDR_2ND_CYCLE(data);
 571              		.loc 1 415 30 view .LVU161
 572 009e 0D70     		strb	r5, [r1]
 416:./Libraries/STM32H7xx_HAL_Driver/Src/stm32h7xx_hal_nand.c ****       pNAND_ID->Third_Id   = ADDR_3RD_CYCLE(data);
 573              		.loc 1 416 7 is_stmt 1 view .LVU162
 418:./Libraries/STM32H7xx_HAL_Driver/Src/stm32h7xx_hal_nand.c ****     }
 574              		.loc 1 418 30 is_stmt 0 view .LVU163
 575 00a0 1B0E     		lsrs	r3, r3, #24
 416:./Libraries/STM32H7xx_HAL_Driver/Src/stm32h7xx_hal_nand.c ****       pNAND_ID->Third_Id   = ADDR_3RD_CYCLE(data);
 576              		.loc 1 416 30 view .LVU164
 577 00a2 4C70     		strb	r4, [r1, #1]
 417:./Libraries/STM32H7xx_HAL_Driver/Src/stm32h7xx_hal_nand.c ****       pNAND_ID->Fourth_Id  = ADDR_4TH_CYCLE(data);
 578              		.loc 1 417 7 is_stmt 1 view .LVU165
 417:./Libraries/STM32H7xx_HAL_Driver/Src/stm32h7xx_hal_nand.c ****       pNAND_ID->Fourth_Id  = ADDR_4TH_CYCLE(data);
 579              		.loc 1 417 30 is_stmt 0 view .LVU166
 580 00a4 8A70     		strb	r2, [r1, #2]
 418:./Libraries/STM32H7xx_HAL_Driver/Src/stm32h7xx_hal_nand.c ****     }
 581              		.loc 1 418 7 is_stmt 1 view .LVU167
 418:./Libraries/STM32H7xx_HAL_Driver/Src/stm32h7xx_hal_nand.c ****     }
 582              		.loc 1 418 30 is_stmt 0 view .LVU168
ARM GAS  /tmp/cc5RRSLv.s 			page 37


 583 00a6 CB70     		strb	r3, [r1, #3]
 584 00a8 DFE7     		b	.L43
 585              	.LVL31:
 586              	.L45:
 390:./Libraries/STM32H7xx_HAL_Driver/Src/stm32h7xx_hal_nand.c ****   }
 587              		.loc 1 390 12 view .LVU169
 588 00aa 0224     		movs	r4, #2
 589 00ac E4E7     		b	.L41
 590              	.L52:
 591 00ae 00BF     		.align	2
 592              	.L51:
 593 00b0 00000180 		.word	-2147418112
 594 00b4 10000080 		.word	-2147483632
 595              		.cfi_endproc
 596              	.LFE337:
 598              		.section	.text.HAL_NAND_Reset,"ax",%progbits
 599              		.align	1
 600              		.p2align 2,,3
 601              		.global	HAL_NAND_Reset
 602              		.syntax unified
 603              		.thumb
 604              		.thumb_func
 605              		.fpu fpv5-d16
 607              	HAL_NAND_Reset:
 608              	.LVL32:
 609              	.LFB338:
 445:./Libraries/STM32H7xx_HAL_Driver/Src/stm32h7xx_hal_nand.c **** 
 446:./Libraries/STM32H7xx_HAL_Driver/Src/stm32h7xx_hal_nand.c **** /**
 447:./Libraries/STM32H7xx_HAL_Driver/Src/stm32h7xx_hal_nand.c ****   * @brief  NAND memory reset
 448:./Libraries/STM32H7xx_HAL_Driver/Src/stm32h7xx_hal_nand.c ****   * @param  hnand pointer to a NAND_HandleTypeDef structure that contains
 449:./Libraries/STM32H7xx_HAL_Driver/Src/stm32h7xx_hal_nand.c ****   *                the configuration information for NAND module.
 450:./Libraries/STM32H7xx_HAL_Driver/Src/stm32h7xx_hal_nand.c ****   * @retval HAL status
 451:./Libraries/STM32H7xx_HAL_Driver/Src/stm32h7xx_hal_nand.c ****   */
 452:./Libraries/STM32H7xx_HAL_Driver/Src/stm32h7xx_hal_nand.c **** HAL_StatusTypeDef HAL_NAND_Reset(NAND_HandleTypeDef *hnand)
 453:./Libraries/STM32H7xx_HAL_Driver/Src/stm32h7xx_hal_nand.c **** {
 610              		.loc 1 453 1 is_stmt 1 view -0
 611              		.cfi_startproc
 612              		@ args = 0, pretend = 0, frame = 0
 613              		@ frame_needed = 0, uses_anonymous_args = 0
 614              		@ link register save eliminated.
 454:./Libraries/STM32H7xx_HAL_Driver/Src/stm32h7xx_hal_nand.c ****   uint32_t deviceaddress;
 615              		.loc 1 454 3 view .LVU171
 455:./Libraries/STM32H7xx_HAL_Driver/Src/stm32h7xx_hal_nand.c **** 
 456:./Libraries/STM32H7xx_HAL_Driver/Src/stm32h7xx_hal_nand.c ****   /* Check the NAND controller state */
 457:./Libraries/STM32H7xx_HAL_Driver/Src/stm32h7xx_hal_nand.c ****   if (hnand->State == HAL_NAND_STATE_BUSY)
 616              		.loc 1 457 3 view .LVU172
 617              		.loc 1 457 12 is_stmt 0 view .LVU173
 618 0000 90F82130 		ldrb	r3, [r0, #33]	@ zero_extendqisi2
 619              		.loc 1 457 6 view .LVU174
 620 0004 022B     		cmp	r3, #2
 621              		.loc 1 457 12 view .LVU175
 622 0006 DAB2     		uxtb	r2, r3
 623              		.loc 1 457 6 view .LVU176
 624 0008 18D0     		beq	.L61
 458:./Libraries/STM32H7xx_HAL_Driver/Src/stm32h7xx_hal_nand.c ****   {
 459:./Libraries/STM32H7xx_HAL_Driver/Src/stm32h7xx_hal_nand.c ****     return HAL_BUSY;
 460:./Libraries/STM32H7xx_HAL_Driver/Src/stm32h7xx_hal_nand.c ****   }
ARM GAS  /tmp/cc5RRSLv.s 			page 38


 461:./Libraries/STM32H7xx_HAL_Driver/Src/stm32h7xx_hal_nand.c ****   else if (hnand->State == HAL_NAND_STATE_READY)
 625              		.loc 1 461 8 is_stmt 1 view .LVU177
 626              		.loc 1 461 17 is_stmt 0 view .LVU178
 627 000a 90F82130 		ldrb	r3, [r0, #33]	@ zero_extendqisi2
 628              		.loc 1 461 11 view .LVU179
 629 000e 012B     		cmp	r3, #1
 630              		.loc 1 461 17 view .LVU180
 631 0010 D9B2     		uxtb	r1, r3
 632              		.loc 1 461 11 view .LVU181
 633 0012 12D1     		bne	.L55
 462:./Libraries/STM32H7xx_HAL_Driver/Src/stm32h7xx_hal_nand.c ****   {
 463:./Libraries/STM32H7xx_HAL_Driver/Src/stm32h7xx_hal_nand.c ****     /* Process Locked */
 464:./Libraries/STM32H7xx_HAL_Driver/Src/stm32h7xx_hal_nand.c ****     __HAL_LOCK(hnand);
 634              		.loc 1 464 5 is_stmt 1 view .LVU182
 635              		.loc 1 464 5 view .LVU183
 636 0014 90F82030 		ldrb	r3, [r0, #32]	@ zero_extendqisi2
 637 0018 012B     		cmp	r3, #1
 638 001a 11D0     		beq	.L56
 639              		.loc 1 464 5 discriminator 2 view .LVU184
 640              		.loc 1 464 5 discriminator 2 view .LVU185
 465:./Libraries/STM32H7xx_HAL_Driver/Src/stm32h7xx_hal_nand.c **** 
 466:./Libraries/STM32H7xx_HAL_Driver/Src/stm32h7xx_hal_nand.c ****     /* Update the NAND controller state */
 467:./Libraries/STM32H7xx_HAL_Driver/Src/stm32h7xx_hal_nand.c ****     hnand->State = HAL_NAND_STATE_BUSY;
 641              		.loc 1 467 5 discriminator 2 view .LVU186
 468:./Libraries/STM32H7xx_HAL_Driver/Src/stm32h7xx_hal_nand.c **** 
 469:./Libraries/STM32H7xx_HAL_Driver/Src/stm32h7xx_hal_nand.c ****     /* Identify the device address */
 470:./Libraries/STM32H7xx_HAL_Driver/Src/stm32h7xx_hal_nand.c ****     deviceaddress = NAND_DEVICE;
 471:./Libraries/STM32H7xx_HAL_Driver/Src/stm32h7xx_hal_nand.c **** 
 472:./Libraries/STM32H7xx_HAL_Driver/Src/stm32h7xx_hal_nand.c ****     /* Send NAND reset command */
 473:./Libraries/STM32H7xx_HAL_Driver/Src/stm32h7xx_hal_nand.c ****     *(__IO uint8_t *)((uint32_t)(deviceaddress | CMD_AREA)) = 0xFF;
 474:./Libraries/STM32H7xx_HAL_Driver/Src/stm32h7xx_hal_nand.c **** 
 475:./Libraries/STM32H7xx_HAL_Driver/Src/stm32h7xx_hal_nand.c ****     /* Update the NAND controller state */
 476:./Libraries/STM32H7xx_HAL_Driver/Src/stm32h7xx_hal_nand.c ****     hnand->State = HAL_NAND_STATE_READY;
 477:./Libraries/STM32H7xx_HAL_Driver/Src/stm32h7xx_hal_nand.c **** 
 478:./Libraries/STM32H7xx_HAL_Driver/Src/stm32h7xx_hal_nand.c ****     /* Process unlocked */
 479:./Libraries/STM32H7xx_HAL_Driver/Src/stm32h7xx_hal_nand.c ****     __HAL_UNLOCK(hnand);
 642              		.loc 1 479 5 is_stmt 0 discriminator 2 view .LVU187
 643 001c 0023     		movs	r3, #0
 473:./Libraries/STM32H7xx_HAL_Driver/Src/stm32h7xx_hal_nand.c **** 
 644              		.loc 1 473 61 discriminator 2 view .LVU188
 645 001e 094A     		ldr	r2, .L64
 453:./Libraries/STM32H7xx_HAL_Driver/Src/stm32h7xx_hal_nand.c ****   uint32_t deviceaddress;
 646              		.loc 1 453 1 discriminator 2 view .LVU189
 647 0020 30B4     		push	{r4, r5}
 648              	.LCFI12:
 649              		.cfi_def_cfa_offset 8
 650              		.cfi_offset 4, -8
 651              		.cfi_offset 5, -4
 467:./Libraries/STM32H7xx_HAL_Driver/Src/stm32h7xx_hal_nand.c **** 
 652              		.loc 1 467 18 discriminator 2 view .LVU190
 653 0022 0225     		movs	r5, #2
 473:./Libraries/STM32H7xx_HAL_Driver/Src/stm32h7xx_hal_nand.c **** 
 654              		.loc 1 473 61 discriminator 2 view .LVU191
 655 0024 FF24     		movs	r4, #255
 467:./Libraries/STM32H7xx_HAL_Driver/Src/stm32h7xx_hal_nand.c **** 
 656              		.loc 1 467 18 discriminator 2 view .LVU192
 657 0026 80F82150 		strb	r5, [r0, #33]
ARM GAS  /tmp/cc5RRSLv.s 			page 39


 470:./Libraries/STM32H7xx_HAL_Driver/Src/stm32h7xx_hal_nand.c **** 
 658              		.loc 1 470 5 is_stmt 1 discriminator 2 view .LVU193
 659              	.LVL33:
 473:./Libraries/STM32H7xx_HAL_Driver/Src/stm32h7xx_hal_nand.c **** 
 660              		.loc 1 473 5 discriminator 2 view .LVU194
 473:./Libraries/STM32H7xx_HAL_Driver/Src/stm32h7xx_hal_nand.c **** 
 661              		.loc 1 473 61 is_stmt 0 discriminator 2 view .LVU195
 662 002a 1470     		strb	r4, [r2]
 476:./Libraries/STM32H7xx_HAL_Driver/Src/stm32h7xx_hal_nand.c **** 
 663              		.loc 1 476 5 is_stmt 1 discriminator 2 view .LVU196
 476:./Libraries/STM32H7xx_HAL_Driver/Src/stm32h7xx_hal_nand.c **** 
 664              		.loc 1 476 18 is_stmt 0 discriminator 2 view .LVU197
 665 002c 80F82110 		strb	r1, [r0, #33]
 666              		.loc 1 479 5 is_stmt 1 discriminator 2 view .LVU198
 667              		.loc 1 479 5 discriminator 2 view .LVU199
 668 0030 80F82030 		strb	r3, [r0, #32]
 669              		.loc 1 479 5 discriminator 2 view .LVU200
 480:./Libraries/STM32H7xx_HAL_Driver/Src/stm32h7xx_hal_nand.c ****   }
 481:./Libraries/STM32H7xx_HAL_Driver/Src/stm32h7xx_hal_nand.c ****   else
 482:./Libraries/STM32H7xx_HAL_Driver/Src/stm32h7xx_hal_nand.c ****   {
 483:./Libraries/STM32H7xx_HAL_Driver/Src/stm32h7xx_hal_nand.c ****     return HAL_ERROR;
 484:./Libraries/STM32H7xx_HAL_Driver/Src/stm32h7xx_hal_nand.c ****   }
 485:./Libraries/STM32H7xx_HAL_Driver/Src/stm32h7xx_hal_nand.c **** 
 486:./Libraries/STM32H7xx_HAL_Driver/Src/stm32h7xx_hal_nand.c ****   return HAL_OK;
 670              		.loc 1 486 3 discriminator 2 view .LVU201
 487:./Libraries/STM32H7xx_HAL_Driver/Src/stm32h7xx_hal_nand.c **** 
 488:./Libraries/STM32H7xx_HAL_Driver/Src/stm32h7xx_hal_nand.c **** }
 671              		.loc 1 488 1 is_stmt 0 discriminator 2 view .LVU202
 672 0034 1846     		mov	r0, r3
 673              	.LVL34:
 674              		.loc 1 488 1 discriminator 2 view .LVU203
 675 0036 30BC     		pop	{r4, r5}
 676              	.LCFI13:
 677              		.cfi_restore 5
 678              		.cfi_restore 4
 679              		.cfi_def_cfa_offset 0
 680 0038 7047     		bx	lr
 681              	.LVL35:
 682              	.L55:
 483:./Libraries/STM32H7xx_HAL_Driver/Src/stm32h7xx_hal_nand.c ****   }
 683              		.loc 1 483 12 view .LVU204
 684 003a 0122     		movs	r2, #1
 685              	.L61:
 686              		.loc 1 488 1 view .LVU205
 687 003c 1046     		mov	r0, r2
 688              	.LVL36:
 689              		.loc 1 488 1 view .LVU206
 690 003e 7047     		bx	lr
 691              	.LVL37:
 692              	.L56:
 459:./Libraries/STM32H7xx_HAL_Driver/Src/stm32h7xx_hal_nand.c ****   }
 693              		.loc 1 459 12 view .LVU207
 694 0040 0222     		movs	r2, #2
 695 0042 FBE7     		b	.L61
 696              	.L65:
 697              		.align	2
 698              	.L64:
ARM GAS  /tmp/cc5RRSLv.s 			page 40


 699 0044 00000180 		.word	-2147418112
 700              		.cfi_endproc
 701              	.LFE338:
 703              		.section	.text.HAL_NAND_ConfigDevice,"ax",%progbits
 704              		.align	1
 705              		.p2align 2,,3
 706              		.global	HAL_NAND_ConfigDevice
 707              		.syntax unified
 708              		.thumb
 709              		.thumb_func
 710              		.fpu fpv5-d16
 712              	HAL_NAND_ConfigDevice:
 713              	.LVL38:
 714              	.LFB339:
 489:./Libraries/STM32H7xx_HAL_Driver/Src/stm32h7xx_hal_nand.c **** 
 490:./Libraries/STM32H7xx_HAL_Driver/Src/stm32h7xx_hal_nand.c **** /**
 491:./Libraries/STM32H7xx_HAL_Driver/Src/stm32h7xx_hal_nand.c ****   * @brief  Configure the device: Enter the physical parameters of the device
 492:./Libraries/STM32H7xx_HAL_Driver/Src/stm32h7xx_hal_nand.c ****   * @param  hnand pointer to a NAND_HandleTypeDef structure that contains
 493:./Libraries/STM32H7xx_HAL_Driver/Src/stm32h7xx_hal_nand.c ****   *                the configuration information for NAND module.
 494:./Libraries/STM32H7xx_HAL_Driver/Src/stm32h7xx_hal_nand.c ****   * @param  pDeviceConfig  pointer to NAND_DeviceConfigTypeDef structure
 495:./Libraries/STM32H7xx_HAL_Driver/Src/stm32h7xx_hal_nand.c ****   * @retval HAL status
 496:./Libraries/STM32H7xx_HAL_Driver/Src/stm32h7xx_hal_nand.c ****   */
 497:./Libraries/STM32H7xx_HAL_Driver/Src/stm32h7xx_hal_nand.c **** HAL_StatusTypeDef  HAL_NAND_ConfigDevice(NAND_HandleTypeDef *hnand, NAND_DeviceConfigTypeDef *pDevi
 498:./Libraries/STM32H7xx_HAL_Driver/Src/stm32h7xx_hal_nand.c **** {
 715              		.loc 1 498 1 is_stmt 1 view -0
 716              		.cfi_startproc
 717              		@ args = 0, pretend = 0, frame = 0
 718              		@ frame_needed = 0, uses_anonymous_args = 0
 719              		@ link register save eliminated.
 499:./Libraries/STM32H7xx_HAL_Driver/Src/stm32h7xx_hal_nand.c ****   hnand->Config.PageSize           = pDeviceConfig->PageSize;
 720              		.loc 1 499 3 view .LVU209
 498:./Libraries/STM32H7xx_HAL_Driver/Src/stm32h7xx_hal_nand.c ****   hnand->Config.PageSize           = pDeviceConfig->PageSize;
 721              		.loc 1 498 1 is_stmt 0 view .LVU210
 722 0000 30B4     		push	{r4, r5}
 723              	.LCFI14:
 724              		.cfi_def_cfa_offset 8
 725              		.cfi_offset 4, -8
 726              		.cfi_offset 5, -4
 498:./Libraries/STM32H7xx_HAL_Driver/Src/stm32h7xx_hal_nand.c ****   hnand->Config.PageSize           = pDeviceConfig->PageSize;
 727              		.loc 1 498 1 view .LVU211
 728 0002 0346     		mov	r3, r0
 500:./Libraries/STM32H7xx_HAL_Driver/Src/stm32h7xx_hal_nand.c ****   hnand->Config.SpareAreaSize      = pDeviceConfig->SpareAreaSize;
 501:./Libraries/STM32H7xx_HAL_Driver/Src/stm32h7xx_hal_nand.c ****   hnand->Config.BlockSize          = pDeviceConfig->BlockSize;
 729              		.loc 1 501 51 view .LVU212
 730 0004 8A68     		ldr	r2, [r1, #8]
 502:./Libraries/STM32H7xx_HAL_Driver/Src/stm32h7xx_hal_nand.c ****   hnand->Config.BlockNbr           = pDeviceConfig->BlockNbr;
 503:./Libraries/STM32H7xx_HAL_Driver/Src/stm32h7xx_hal_nand.c ****   hnand->Config.PlaneSize          = pDeviceConfig->PlaneSize;
 504:./Libraries/STM32H7xx_HAL_Driver/Src/stm32h7xx_hal_nand.c ****   hnand->Config.PlaneNbr           = pDeviceConfig->PlaneNbr;
 505:./Libraries/STM32H7xx_HAL_Driver/Src/stm32h7xx_hal_nand.c ****   hnand->Config.ExtraCommandEnable = pDeviceConfig->ExtraCommandEnable;
 506:./Libraries/STM32H7xx_HAL_Driver/Src/stm32h7xx_hal_nand.c **** 
 507:./Libraries/STM32H7xx_HAL_Driver/Src/stm32h7xx_hal_nand.c ****   return HAL_OK;
 508:./Libraries/STM32H7xx_HAL_Driver/Src/stm32h7xx_hal_nand.c **** }
 731              		.loc 1 508 1 view .LVU213
 732 0006 0020     		movs	r0, #0
 733              	.LVL39:
 500:./Libraries/STM32H7xx_HAL_Driver/Src/stm32h7xx_hal_nand.c ****   hnand->Config.SpareAreaSize      = pDeviceConfig->SpareAreaSize;
 734              		.loc 1 500 51 view .LVU214
ARM GAS  /tmp/cc5RRSLv.s 			page 41


 735 0008 D1E90054 		ldrd	r5, r4, [r1]
 499:./Libraries/STM32H7xx_HAL_Driver/Src/stm32h7xx_hal_nand.c ****   hnand->Config.SpareAreaSize      = pDeviceConfig->SpareAreaSize;
 736              		.loc 1 499 36 view .LVU215
 737 000c 5D62     		str	r5, [r3, #36]
 500:./Libraries/STM32H7xx_HAL_Driver/Src/stm32h7xx_hal_nand.c ****   hnand->Config.SpareAreaSize      = pDeviceConfig->SpareAreaSize;
 738              		.loc 1 500 3 is_stmt 1 view .LVU216
 502:./Libraries/STM32H7xx_HAL_Driver/Src/stm32h7xx_hal_nand.c ****   hnand->Config.BlockNbr           = pDeviceConfig->BlockNbr;
 739              		.loc 1 502 51 is_stmt 0 view .LVU217
 740 000e CD68     		ldr	r5, [r1, #12]
 500:./Libraries/STM32H7xx_HAL_Driver/Src/stm32h7xx_hal_nand.c ****   hnand->Config.SpareAreaSize      = pDeviceConfig->SpareAreaSize;
 741              		.loc 1 500 36 view .LVU218
 742 0010 9C62     		str	r4, [r3, #40]
 501:./Libraries/STM32H7xx_HAL_Driver/Src/stm32h7xx_hal_nand.c ****   hnand->Config.BlockNbr           = pDeviceConfig->BlockNbr;
 743              		.loc 1 501 3 is_stmt 1 view .LVU219
 503:./Libraries/STM32H7xx_HAL_Driver/Src/stm32h7xx_hal_nand.c ****   hnand->Config.PlaneNbr           = pDeviceConfig->PlaneNbr;
 744              		.loc 1 503 51 is_stmt 0 view .LVU220
 745 0012 4C69     		ldr	r4, [r1, #20]
 501:./Libraries/STM32H7xx_HAL_Driver/Src/stm32h7xx_hal_nand.c ****   hnand->Config.BlockNbr           = pDeviceConfig->BlockNbr;
 746              		.loc 1 501 36 view .LVU221
 747 0014 DA62     		str	r2, [r3, #44]
 502:./Libraries/STM32H7xx_HAL_Driver/Src/stm32h7xx_hal_nand.c ****   hnand->Config.PlaneSize          = pDeviceConfig->PlaneSize;
 748              		.loc 1 502 3 is_stmt 1 view .LVU222
 504:./Libraries/STM32H7xx_HAL_Driver/Src/stm32h7xx_hal_nand.c ****   hnand->Config.ExtraCommandEnable = pDeviceConfig->ExtraCommandEnable;
 749              		.loc 1 504 51 is_stmt 0 view .LVU223
 750 0016 0A69     		ldr	r2, [r1, #16]
 502:./Libraries/STM32H7xx_HAL_Driver/Src/stm32h7xx_hal_nand.c ****   hnand->Config.PlaneSize          = pDeviceConfig->PlaneSize;
 751              		.loc 1 502 36 view .LVU224
 752 0018 1D63     		str	r5, [r3, #48]
 503:./Libraries/STM32H7xx_HAL_Driver/Src/stm32h7xx_hal_nand.c ****   hnand->Config.PlaneNbr           = pDeviceConfig->PlaneNbr;
 753              		.loc 1 503 3 is_stmt 1 view .LVU225
 504:./Libraries/STM32H7xx_HAL_Driver/Src/stm32h7xx_hal_nand.c ****   hnand->Config.ExtraCommandEnable = pDeviceConfig->ExtraCommandEnable;
 754              		.loc 1 504 36 is_stmt 0 view .LVU226
 755 001a C3E90D24 		strd	r2, r4, [r3, #52]
 505:./Libraries/STM32H7xx_HAL_Driver/Src/stm32h7xx_hal_nand.c **** 
 756              		.loc 1 505 3 is_stmt 1 view .LVU227
 505:./Libraries/STM32H7xx_HAL_Driver/Src/stm32h7xx_hal_nand.c **** 
 757              		.loc 1 505 51 is_stmt 0 view .LVU228
 758 001e 0A7E     		ldrb	r2, [r1, #24]	@ zero_extendqisi2
 505:./Libraries/STM32H7xx_HAL_Driver/Src/stm32h7xx_hal_nand.c **** 
 759              		.loc 1 505 36 view .LVU229
 760 0020 83F83C20 		strb	r2, [r3, #60]
 507:./Libraries/STM32H7xx_HAL_Driver/Src/stm32h7xx_hal_nand.c **** }
 761              		.loc 1 507 3 is_stmt 1 view .LVU230
 762              		.loc 1 508 1 is_stmt 0 view .LVU231
 763 0024 30BC     		pop	{r4, r5}
 764              	.LCFI15:
 765              		.cfi_restore 5
 766              		.cfi_restore 4
 767              		.cfi_def_cfa_offset 0
 768 0026 7047     		bx	lr
 769              		.cfi_endproc
 770              	.LFE339:
 772              		.section	.text.HAL_NAND_Read_Page_8b,"ax",%progbits
 773              		.align	1
 774              		.p2align 2,,3
 775              		.global	HAL_NAND_Read_Page_8b
 776              		.syntax unified
ARM GAS  /tmp/cc5RRSLv.s 			page 42


 777              		.thumb
 778              		.thumb_func
 779              		.fpu fpv5-d16
 781              	HAL_NAND_Read_Page_8b:
 782              	.LVL40:
 783              	.LFB340:
 509:./Libraries/STM32H7xx_HAL_Driver/Src/stm32h7xx_hal_nand.c **** 
 510:./Libraries/STM32H7xx_HAL_Driver/Src/stm32h7xx_hal_nand.c **** /**
 511:./Libraries/STM32H7xx_HAL_Driver/Src/stm32h7xx_hal_nand.c ****   * @brief  Read Page(s) from NAND memory block (8-bits addressing)
 512:./Libraries/STM32H7xx_HAL_Driver/Src/stm32h7xx_hal_nand.c ****   * @param  hnand pointer to a NAND_HandleTypeDef structure that contains
 513:./Libraries/STM32H7xx_HAL_Driver/Src/stm32h7xx_hal_nand.c ****   *                the configuration information for NAND module.
 514:./Libraries/STM32H7xx_HAL_Driver/Src/stm32h7xx_hal_nand.c ****   * @param  pAddress  pointer to NAND address structure
 515:./Libraries/STM32H7xx_HAL_Driver/Src/stm32h7xx_hal_nand.c ****   * @param  pBuffer  pointer to destination read buffer
 516:./Libraries/STM32H7xx_HAL_Driver/Src/stm32h7xx_hal_nand.c ****   * @param  NumPageToRead  number of pages to read from block
 517:./Libraries/STM32H7xx_HAL_Driver/Src/stm32h7xx_hal_nand.c ****   * @retval HAL status
 518:./Libraries/STM32H7xx_HAL_Driver/Src/stm32h7xx_hal_nand.c ****   */
 519:./Libraries/STM32H7xx_HAL_Driver/Src/stm32h7xx_hal_nand.c **** HAL_StatusTypeDef HAL_NAND_Read_Page_8b(NAND_HandleTypeDef *hnand, NAND_AddressTypeDef *pAddress, u
 520:./Libraries/STM32H7xx_HAL_Driver/Src/stm32h7xx_hal_nand.c ****                                         uint32_t NumPageToRead)
 521:./Libraries/STM32H7xx_HAL_Driver/Src/stm32h7xx_hal_nand.c **** {
 784              		.loc 1 521 1 is_stmt 1 view -0
 785              		.cfi_startproc
 786              		@ args = 0, pretend = 0, frame = 8
 787              		@ frame_needed = 0, uses_anonymous_args = 0
 788              		.loc 1 521 1 is_stmt 0 view .LVU233
 789 0000 2DE9F04F 		push	{r4, r5, r6, r7, r8, r9, r10, fp, lr}
 790              	.LCFI16:
 791              		.cfi_def_cfa_offset 36
 792              		.cfi_offset 4, -36
 793              		.cfi_offset 5, -32
 794              		.cfi_offset 6, -28
 795              		.cfi_offset 7, -24
 796              		.cfi_offset 8, -20
 797              		.cfi_offset 9, -16
 798              		.cfi_offset 10, -12
 799              		.cfi_offset 11, -8
 800              		.cfi_offset 14, -4
 801 0004 1546     		mov	r5, r2
 522:./Libraries/STM32H7xx_HAL_Driver/Src/stm32h7xx_hal_nand.c ****   uint32_t index;
 802              		.loc 1 522 3 is_stmt 1 view .LVU234
 523:./Libraries/STM32H7xx_HAL_Driver/Src/stm32h7xx_hal_nand.c ****   uint32_t tickstart;
 803              		.loc 1 523 3 view .LVU235
 524:./Libraries/STM32H7xx_HAL_Driver/Src/stm32h7xx_hal_nand.c ****   uint32_t deviceaddress;
 804              		.loc 1 524 3 view .LVU236
 525:./Libraries/STM32H7xx_HAL_Driver/Src/stm32h7xx_hal_nand.c ****   uint32_t numpagesread = 0U;
 805              		.loc 1 525 3 view .LVU237
 806              	.LVL41:
 526:./Libraries/STM32H7xx_HAL_Driver/Src/stm32h7xx_hal_nand.c ****   uint32_t nandaddress;
 807              		.loc 1 526 3 view .LVU238
 527:./Libraries/STM32H7xx_HAL_Driver/Src/stm32h7xx_hal_nand.c ****   uint32_t nbpages = NumPageToRead;
 808              		.loc 1 527 3 view .LVU239
 528:./Libraries/STM32H7xx_HAL_Driver/Src/stm32h7xx_hal_nand.c ****   uint8_t *buff = pBuffer;
 809              		.loc 1 528 3 view .LVU240
 529:./Libraries/STM32H7xx_HAL_Driver/Src/stm32h7xx_hal_nand.c **** 
 530:./Libraries/STM32H7xx_HAL_Driver/Src/stm32h7xx_hal_nand.c ****   /* Check the NAND controller state */
 531:./Libraries/STM32H7xx_HAL_Driver/Src/stm32h7xx_hal_nand.c ****   if (hnand->State == HAL_NAND_STATE_BUSY)
 810              		.loc 1 531 3 view .LVU241
 811              		.loc 1 531 12 is_stmt 0 view .LVU242
ARM GAS  /tmp/cc5RRSLv.s 			page 43


 812 0006 90F82120 		ldrb	r2, [r0, #33]	@ zero_extendqisi2
 813              	.LVL42:
 521:./Libraries/STM32H7xx_HAL_Driver/Src/stm32h7xx_hal_nand.c ****   uint32_t index;
 814              		.loc 1 521 1 view .LVU243
 815 000a 0446     		mov	r4, r0
 816 000c 83B0     		sub	sp, sp, #12
 817              	.LCFI17:
 818              		.cfi_def_cfa_offset 48
 819              		.loc 1 531 6 view .LVU244
 820 000e 022A     		cmp	r2, #2
 821              		.loc 1 531 12 view .LVU245
 822 0010 D0B2     		uxtb	r0, r2
 823              	.LVL43:
 824              		.loc 1 531 6 view .LVU246
 825 0012 66D0     		beq	.L69
 532:./Libraries/STM32H7xx_HAL_Driver/Src/stm32h7xx_hal_nand.c ****   {
 533:./Libraries/STM32H7xx_HAL_Driver/Src/stm32h7xx_hal_nand.c ****     return HAL_BUSY;
 534:./Libraries/STM32H7xx_HAL_Driver/Src/stm32h7xx_hal_nand.c ****   }
 535:./Libraries/STM32H7xx_HAL_Driver/Src/stm32h7xx_hal_nand.c ****   else if (hnand->State == HAL_NAND_STATE_READY)
 826              		.loc 1 535 8 is_stmt 1 view .LVU247
 827              		.loc 1 535 17 is_stmt 0 view .LVU248
 828 0014 94F82120 		ldrb	r2, [r4, #33]	@ zero_extendqisi2
 829              		.loc 1 535 11 view .LVU249
 830 0018 012A     		cmp	r2, #1
 831              		.loc 1 535 17 view .LVU250
 832 001a D0B2     		uxtb	r0, r2
 833              		.loc 1 535 11 view .LVU251
 834 001c 64D1     		bne	.L82
 536:./Libraries/STM32H7xx_HAL_Driver/Src/stm32h7xx_hal_nand.c ****   {
 537:./Libraries/STM32H7xx_HAL_Driver/Src/stm32h7xx_hal_nand.c ****     /* Process Locked */
 538:./Libraries/STM32H7xx_HAL_Driver/Src/stm32h7xx_hal_nand.c ****     __HAL_LOCK(hnand);
 835              		.loc 1 538 5 is_stmt 1 view .LVU252
 836              		.loc 1 538 5 view .LVU253
 837 001e 94F82020 		ldrb	r2, [r4, #32]	@ zero_extendqisi2
 838 0022 012A     		cmp	r2, #1
 839 0024 00F0A480 		beq	.L83
 840              		.loc 1 538 5 discriminator 2 view .LVU254
 539:./Libraries/STM32H7xx_HAL_Driver/Src/stm32h7xx_hal_nand.c **** 
 540:./Libraries/STM32H7xx_HAL_Driver/Src/stm32h7xx_hal_nand.c ****     /* Update the NAND controller state */
 541:./Libraries/STM32H7xx_HAL_Driver/Src/stm32h7xx_hal_nand.c ****     hnand->State = HAL_NAND_STATE_BUSY;
 841              		.loc 1 541 18 is_stmt 0 discriminator 2 view .LVU255
 842 0028 0222     		movs	r2, #2
 538:./Libraries/STM32H7xx_HAL_Driver/Src/stm32h7xx_hal_nand.c **** 
 843              		.loc 1 538 5 discriminator 2 view .LVU256
 844 002a 84F82000 		strb	r0, [r4, #32]
 538:./Libraries/STM32H7xx_HAL_Driver/Src/stm32h7xx_hal_nand.c **** 
 845              		.loc 1 538 5 is_stmt 1 discriminator 2 view .LVU257
 846              		.loc 1 541 5 discriminator 2 view .LVU258
 542:./Libraries/STM32H7xx_HAL_Driver/Src/stm32h7xx_hal_nand.c **** 
 543:./Libraries/STM32H7xx_HAL_Driver/Src/stm32h7xx_hal_nand.c ****     /* Identify the device address */
 544:./Libraries/STM32H7xx_HAL_Driver/Src/stm32h7xx_hal_nand.c ****     deviceaddress = NAND_DEVICE;
 545:./Libraries/STM32H7xx_HAL_Driver/Src/stm32h7xx_hal_nand.c **** 
 546:./Libraries/STM32H7xx_HAL_Driver/Src/stm32h7xx_hal_nand.c ****     /* NAND raw address calculation */
 547:./Libraries/STM32H7xx_HAL_Driver/Src/stm32h7xx_hal_nand.c ****     nandaddress = ARRAY_ADDRESS(pAddress, hnand);
 847              		.loc 1 547 19 is_stmt 0 discriminator 2 view .LVU259
 848 002e A06B     		ldr	r0, [r4, #56]
 541:./Libraries/STM32H7xx_HAL_Driver/Src/stm32h7xx_hal_nand.c **** 
ARM GAS  /tmp/cc5RRSLv.s 			page 44


 849              		.loc 1 541 18 discriminator 2 view .LVU260
 850 0030 84F82120 		strb	r2, [r4, #33]
 544:./Libraries/STM32H7xx_HAL_Driver/Src/stm32h7xx_hal_nand.c **** 
 851              		.loc 1 544 5 is_stmt 1 discriminator 2 view .LVU261
 852              	.LVL44:
 853              		.loc 1 547 5 discriminator 2 view .LVU262
 854              		.loc 1 547 19 is_stmt 0 discriminator 2 view .LVU263
 855 0034 8A88     		ldrh	r2, [r1, #4]
 856 0036 4E88     		ldrh	r6, [r1, #2]
 857 0038 0988     		ldrh	r1, [r1]
 858              	.LVL45:
 859              		.loc 1 547 19 discriminator 2 view .LVU264
 860 003a 00FB0626 		mla	r6, r0, r6, r2
 861 003e E26A     		ldr	r2, [r4, #44]
 862              		.loc 1 547 17 discriminator 2 view .LVU265
 863 0040 02FB0616 		mla	r6, r2, r6, r1
 864              	.LVL46:
 548:./Libraries/STM32H7xx_HAL_Driver/Src/stm32h7xx_hal_nand.c **** 
 549:./Libraries/STM32H7xx_HAL_Driver/Src/stm32h7xx_hal_nand.c ****     /* Page(s) read loop */
 550:./Libraries/STM32H7xx_HAL_Driver/Src/stm32h7xx_hal_nand.c ****     while ((nbpages != 0U) && (nandaddress < ((hnand->Config.BlockSize) * (hnand->Config.BlockNbr))
 865              		.loc 1 550 5 is_stmt 1 discriminator 2 view .LVU266
 866              		.loc 1 550 11 discriminator 2 view .LVU267
 867 0044 002B     		cmp	r3, #0
 868 0046 45D0     		beq	.L70
 869 0048 03EB060A 		add	r10, r3, r6
 870              		.loc 1 550 73 is_stmt 0 view .LVU268
 871 004c 236B     		ldr	r3, [r4, #48]
 872              	.LVL47:
 551:./Libraries/STM32H7xx_HAL_Driver/Src/stm32h7xx_hal_nand.c ****     {
 552:./Libraries/STM32H7xx_HAL_Driver/Src/stm32h7xx_hal_nand.c ****       /* Send read page command sequence */
 553:./Libraries/STM32H7xx_HAL_Driver/Src/stm32h7xx_hal_nand.c ****       *(__IO uint8_t *)((uint32_t)(deviceaddress | CMD_AREA)) = NAND_CMD_AREA_A;
 873              		.loc 1 553 63 view .LVU269
 874 004e DFF82891 		ldr	r9, .L103+4
 875 0052 4FF00008 		mov	r8, #0
 550:./Libraries/STM32H7xx_HAL_Driver/Src/stm32h7xx_hal_nand.c ****     {
 876              		.loc 1 550 73 view .LVU270
 877 0056 03FB02F3 		mul	r3, r3, r2
 554:./Libraries/STM32H7xx_HAL_Driver/Src/stm32h7xx_hal_nand.c ****       __DSB();
 555:./Libraries/STM32H7xx_HAL_Driver/Src/stm32h7xx_hal_nand.c **** 
 556:./Libraries/STM32H7xx_HAL_Driver/Src/stm32h7xx_hal_nand.c ****       /* Cards with page size <= 512 bytes */
 557:./Libraries/STM32H7xx_HAL_Driver/Src/stm32h7xx_hal_nand.c ****       if ((hnand->Config.PageSize) <= 512U)
 558:./Libraries/STM32H7xx_HAL_Driver/Src/stm32h7xx_hal_nand.c ****       {
 559:./Libraries/STM32H7xx_HAL_Driver/Src/stm32h7xx_hal_nand.c ****         if (((hnand->Config.BlockSize) * (hnand->Config.BlockNbr)) <= 65535U)
 560:./Libraries/STM32H7xx_HAL_Driver/Src/stm32h7xx_hal_nand.c ****         {
 561:./Libraries/STM32H7xx_HAL_Driver/Src/stm32h7xx_hal_nand.c ****           *(__IO uint8_t *)((uint32_t)(deviceaddress | ADDR_AREA)) = 0x00U;
 562:./Libraries/STM32H7xx_HAL_Driver/Src/stm32h7xx_hal_nand.c ****           __DSB();
 563:./Libraries/STM32H7xx_HAL_Driver/Src/stm32h7xx_hal_nand.c ****           *(__IO uint8_t *)((uint32_t)(deviceaddress | ADDR_AREA)) = ADDR_1ST_CYCLE(nandaddress);
 564:./Libraries/STM32H7xx_HAL_Driver/Src/stm32h7xx_hal_nand.c ****           __DSB();
 565:./Libraries/STM32H7xx_HAL_Driver/Src/stm32h7xx_hal_nand.c ****           *(__IO uint8_t *)((uint32_t)(deviceaddress | ADDR_AREA)) = ADDR_2ND_CYCLE(nandaddress);
 566:./Libraries/STM32H7xx_HAL_Driver/Src/stm32h7xx_hal_nand.c ****           __DSB();
 567:./Libraries/STM32H7xx_HAL_Driver/Src/stm32h7xx_hal_nand.c ****         }
 568:./Libraries/STM32H7xx_HAL_Driver/Src/stm32h7xx_hal_nand.c ****         else /* ((hnand->Config.BlockSize)*(hnand->Config.BlockNbr)) > 65535 */
 569:./Libraries/STM32H7xx_HAL_Driver/Src/stm32h7xx_hal_nand.c ****         {
 570:./Libraries/STM32H7xx_HAL_Driver/Src/stm32h7xx_hal_nand.c ****           *(__IO uint8_t *)((uint32_t)(deviceaddress | ADDR_AREA)) = 0x00U;
 571:./Libraries/STM32H7xx_HAL_Driver/Src/stm32h7xx_hal_nand.c ****           __DSB();
 572:./Libraries/STM32H7xx_HAL_Driver/Src/stm32h7xx_hal_nand.c ****           *(__IO uint8_t *)((uint32_t)(deviceaddress | ADDR_AREA)) = ADDR_1ST_CYCLE(nandaddress);
 573:./Libraries/STM32H7xx_HAL_Driver/Src/stm32h7xx_hal_nand.c ****           __DSB();
ARM GAS  /tmp/cc5RRSLv.s 			page 45


 574:./Libraries/STM32H7xx_HAL_Driver/Src/stm32h7xx_hal_nand.c ****           *(__IO uint8_t *)((uint32_t)(deviceaddress | ADDR_AREA)) = ADDR_2ND_CYCLE(nandaddress);
 575:./Libraries/STM32H7xx_HAL_Driver/Src/stm32h7xx_hal_nand.c ****           __DSB();
 576:./Libraries/STM32H7xx_HAL_Driver/Src/stm32h7xx_hal_nand.c ****           *(__IO uint8_t *)((uint32_t)(deviceaddress | ADDR_AREA)) = ADDR_3RD_CYCLE(nandaddress);
 577:./Libraries/STM32H7xx_HAL_Driver/Src/stm32h7xx_hal_nand.c ****           __DSB();
 578:./Libraries/STM32H7xx_HAL_Driver/Src/stm32h7xx_hal_nand.c ****         }
 579:./Libraries/STM32H7xx_HAL_Driver/Src/stm32h7xx_hal_nand.c ****       }
 580:./Libraries/STM32H7xx_HAL_Driver/Src/stm32h7xx_hal_nand.c ****       else /* (hnand->Config.PageSize) > 512 */
 581:./Libraries/STM32H7xx_HAL_Driver/Src/stm32h7xx_hal_nand.c ****       {
 582:./Libraries/STM32H7xx_HAL_Driver/Src/stm32h7xx_hal_nand.c ****         if (((hnand->Config.BlockSize) * (hnand->Config.BlockNbr)) <= 65535U)
 583:./Libraries/STM32H7xx_HAL_Driver/Src/stm32h7xx_hal_nand.c ****         {
 584:./Libraries/STM32H7xx_HAL_Driver/Src/stm32h7xx_hal_nand.c ****           *(__IO uint8_t *)((uint32_t)(deviceaddress | ADDR_AREA)) = 0x00U;
 585:./Libraries/STM32H7xx_HAL_Driver/Src/stm32h7xx_hal_nand.c ****           __DSB();
 586:./Libraries/STM32H7xx_HAL_Driver/Src/stm32h7xx_hal_nand.c ****           *(__IO uint8_t *)((uint32_t)(deviceaddress | ADDR_AREA)) = 0x00U;
 587:./Libraries/STM32H7xx_HAL_Driver/Src/stm32h7xx_hal_nand.c ****           __DSB();
 588:./Libraries/STM32H7xx_HAL_Driver/Src/stm32h7xx_hal_nand.c ****           *(__IO uint8_t *)((uint32_t)(deviceaddress | ADDR_AREA)) = ADDR_1ST_CYCLE(nandaddress);
 589:./Libraries/STM32H7xx_HAL_Driver/Src/stm32h7xx_hal_nand.c ****           __DSB();
 590:./Libraries/STM32H7xx_HAL_Driver/Src/stm32h7xx_hal_nand.c ****           *(__IO uint8_t *)((uint32_t)(deviceaddress | ADDR_AREA)) = ADDR_2ND_CYCLE(nandaddress);
 591:./Libraries/STM32H7xx_HAL_Driver/Src/stm32h7xx_hal_nand.c ****           __DSB();
 592:./Libraries/STM32H7xx_HAL_Driver/Src/stm32h7xx_hal_nand.c ****         }
 593:./Libraries/STM32H7xx_HAL_Driver/Src/stm32h7xx_hal_nand.c ****         else /* ((hnand->Config.BlockSize)*(hnand->Config.BlockNbr)) > 65535 */
 594:./Libraries/STM32H7xx_HAL_Driver/Src/stm32h7xx_hal_nand.c ****         {
 595:./Libraries/STM32H7xx_HAL_Driver/Src/stm32h7xx_hal_nand.c ****           *(__IO uint8_t *)((uint32_t)(deviceaddress | ADDR_AREA)) = 0x00U;
 878              		.loc 1 595 68 view .LVU271
 879 005a 464F     		ldr	r7, .L103
 550:./Libraries/STM32H7xx_HAL_Driver/Src/stm32h7xx_hal_nand.c ****     {
 880              		.loc 1 550 28 view .LVU272
 881 005c B342     		cmp	r3, r6
 882 005e 39D9     		bls	.L70
 883              	.LVL48:
 884              	.L81:
 553:./Libraries/STM32H7xx_HAL_Driver/Src/stm32h7xx_hal_nand.c ****       __DSB();
 885              		.loc 1 553 7 is_stmt 1 view .LVU273
 553:./Libraries/STM32H7xx_HAL_Driver/Src/stm32h7xx_hal_nand.c ****       __DSB();
 886              		.loc 1 553 63 is_stmt 0 view .LVU274
 887 0060 89F80080 		strb	r8, [r9]
 554:./Libraries/STM32H7xx_HAL_Driver/Src/stm32h7xx_hal_nand.c ****       __DSB();
 888              		.loc 1 554 7 is_stmt 1 view .LVU275
 889              	.LBB684:
 890              	.LBI684:
 944:./Libraries/CMSIS/Core/Include/cmsis_gcc.h **** {
 891              		.loc 2 944 27 view .LVU276
 892              	.LBB685:
 893              		.loc 2 946 3 view .LVU277
 894              		.syntax unified
 895              	@ 946 "./Libraries/CMSIS/Core/Include/cmsis_gcc.h" 1
 896 0064 BFF34F8F 		dsb 0xF
 897              	@ 0 "" 2
 898              		.thumb
 899              		.syntax unified
 900              	.LBE685:
 901              	.LBE684:
 557:./Libraries/STM32H7xx_HAL_Driver/Src/stm32h7xx_hal_nand.c ****       {
 902              		.loc 1 557 7 view .LVU278
 557:./Libraries/STM32H7xx_HAL_Driver/Src/stm32h7xx_hal_nand.c ****       {
 903              		.loc 1 557 10 is_stmt 0 view .LVU279
 904 0068 636A     		ldr	r3, [r4, #36]
 559:./Libraries/STM32H7xx_HAL_Driver/Src/stm32h7xx_hal_nand.c ****         {
ARM GAS  /tmp/cc5RRSLv.s 			page 46


 905              		.loc 1 559 40 view .LVU280
 906 006a E26A     		ldr	r2, [r4, #44]
 557:./Libraries/STM32H7xx_HAL_Driver/Src/stm32h7xx_hal_nand.c ****       {
 907              		.loc 1 557 10 view .LVU281
 908 006c B3F5007F 		cmp	r3, #512
 559:./Libraries/STM32H7xx_HAL_Driver/Src/stm32h7xx_hal_nand.c ****         {
 909              		.loc 1 559 40 view .LVU282
 910 0070 236B     		ldr	r3, [r4, #48]
 561:./Libraries/STM32H7xx_HAL_Driver/Src/stm32h7xx_hal_nand.c ****           __DSB();
 911              		.loc 1 561 68 view .LVU283
 912 0072 87F80080 		strb	r8, [r7]
 559:./Libraries/STM32H7xx_HAL_Driver/Src/stm32h7xx_hal_nand.c ****         {
 913              		.loc 1 559 40 view .LVU284
 914 0076 03FB02F3 		mul	r3, r3, r2
 557:./Libraries/STM32H7xx_HAL_Driver/Src/stm32h7xx_hal_nand.c ****       {
 915              		.loc 1 557 10 view .LVU285
 916 007a 4ED8     		bhi	.L72
 559:./Libraries/STM32H7xx_HAL_Driver/Src/stm32h7xx_hal_nand.c ****         {
 917              		.loc 1 559 9 is_stmt 1 view .LVU286
 559:./Libraries/STM32H7xx_HAL_Driver/Src/stm32h7xx_hal_nand.c ****         {
 918              		.loc 1 559 12 is_stmt 0 view .LVU287
 919 007c B3F5803F 		cmp	r3, #65536
 920 0080 3AD2     		bcs	.L100
 921              	.L99:
 587:./Libraries/STM32H7xx_HAL_Driver/Src/stm32h7xx_hal_nand.c ****           *(__IO uint8_t *)((uint32_t)(deviceaddress | ADDR_AREA)) = ADDR_1ST_CYCLE(nandaddress);
 922              		.loc 1 587 11 is_stmt 1 view .LVU288
 923              	.LBB686:
 924              	.LBI686:
 944:./Libraries/CMSIS/Core/Include/cmsis_gcc.h **** {
 925              		.loc 2 944 27 view .LVU289
 926              	.LBB687:
 927              		.loc 2 946 3 view .LVU290
 928              		.syntax unified
 929              	@ 946 "./Libraries/CMSIS/Core/Include/cmsis_gcc.h" 1
 930 0082 BFF34F8F 		dsb 0xF
 931              	@ 0 "" 2
 932              		.thumb
 933              		.syntax unified
 934              	.LBE687:
 935              	.LBE686:
 588:./Libraries/STM32H7xx_HAL_Driver/Src/stm32h7xx_hal_nand.c ****           __DSB();
 936              		.loc 1 588 11 view .LVU291
 937 0086 F3B2     		uxtb	r3, r6
 588:./Libraries/STM32H7xx_HAL_Driver/Src/stm32h7xx_hal_nand.c ****           __DSB();
 938              		.loc 1 588 68 is_stmt 0 view .LVU292
 939 0088 3B70     		strb	r3, [r7]
 589:./Libraries/STM32H7xx_HAL_Driver/Src/stm32h7xx_hal_nand.c ****           *(__IO uint8_t *)((uint32_t)(deviceaddress | ADDR_AREA)) = ADDR_2ND_CYCLE(nandaddress);
 940              		.loc 1 589 11 is_stmt 1 view .LVU293
 941              	.LBB688:
 942              	.LBI688:
 944:./Libraries/CMSIS/Core/Include/cmsis_gcc.h **** {
 943              		.loc 2 944 27 view .LVU294
 944              	.LBB689:
 945              		.loc 2 946 3 view .LVU295
 946              		.syntax unified
 947              	@ 946 "./Libraries/CMSIS/Core/Include/cmsis_gcc.h" 1
 948 008a BFF34F8F 		dsb 0xF
ARM GAS  /tmp/cc5RRSLv.s 			page 47


 949              	@ 0 "" 2
 950              		.thumb
 951              		.syntax unified
 952              	.LBE689:
 953              	.LBE688:
 590:./Libraries/STM32H7xx_HAL_Driver/Src/stm32h7xx_hal_nand.c ****           __DSB();
 954              		.loc 1 590 11 view .LVU296
 590:./Libraries/STM32H7xx_HAL_Driver/Src/stm32h7xx_hal_nand.c ****           __DSB();
 955              		.loc 1 590 70 is_stmt 0 view .LVU297
 956 008e C6F30723 		ubfx	r3, r6, #8, #8
 590:./Libraries/STM32H7xx_HAL_Driver/Src/stm32h7xx_hal_nand.c ****           __DSB();
 957              		.loc 1 590 68 view .LVU298
 958 0092 3B70     		strb	r3, [r7]
 591:./Libraries/STM32H7xx_HAL_Driver/Src/stm32h7xx_hal_nand.c ****         }
 959              		.loc 1 591 11 is_stmt 1 view .LVU299
 960              	.LBB690:
 961              	.LBI690:
 944:./Libraries/CMSIS/Core/Include/cmsis_gcc.h **** {
 962              		.loc 2 944 27 view .LVU300
 963              	.LBB691:
 964              		.loc 2 946 3 view .LVU301
 965              		.syntax unified
 966              	@ 946 "./Libraries/CMSIS/Core/Include/cmsis_gcc.h" 1
 967 0094 BFF34F8F 		dsb 0xF
 968              	@ 0 "" 2
 969              		.thumb
 970              		.syntax unified
 971              	.L74:
 972              		.loc 2 946 3 is_stmt 0 view .LVU302
 973              	.LBE691:
 974              	.LBE690:
 596:./Libraries/STM32H7xx_HAL_Driver/Src/stm32h7xx_hal_nand.c ****           __DSB();
 597:./Libraries/STM32H7xx_HAL_Driver/Src/stm32h7xx_hal_nand.c ****           *(__IO uint8_t *)((uint32_t)(deviceaddress | ADDR_AREA)) = 0x00U;
 598:./Libraries/STM32H7xx_HAL_Driver/Src/stm32h7xx_hal_nand.c ****           __DSB();
 599:./Libraries/STM32H7xx_HAL_Driver/Src/stm32h7xx_hal_nand.c ****           *(__IO uint8_t *)((uint32_t)(deviceaddress | ADDR_AREA)) = ADDR_1ST_CYCLE(nandaddress);
 600:./Libraries/STM32H7xx_HAL_Driver/Src/stm32h7xx_hal_nand.c ****           __DSB();
 601:./Libraries/STM32H7xx_HAL_Driver/Src/stm32h7xx_hal_nand.c ****           *(__IO uint8_t *)((uint32_t)(deviceaddress | ADDR_AREA)) = ADDR_2ND_CYCLE(nandaddress);
 602:./Libraries/STM32H7xx_HAL_Driver/Src/stm32h7xx_hal_nand.c ****           __DSB();
 603:./Libraries/STM32H7xx_HAL_Driver/Src/stm32h7xx_hal_nand.c ****           *(__IO uint8_t *)((uint32_t)(deviceaddress | ADDR_AREA)) = ADDR_3RD_CYCLE(nandaddress);
 604:./Libraries/STM32H7xx_HAL_Driver/Src/stm32h7xx_hal_nand.c ****           __DSB();
 605:./Libraries/STM32H7xx_HAL_Driver/Src/stm32h7xx_hal_nand.c ****         }
 606:./Libraries/STM32H7xx_HAL_Driver/Src/stm32h7xx_hal_nand.c ****       }
 607:./Libraries/STM32H7xx_HAL_Driver/Src/stm32h7xx_hal_nand.c **** 
 608:./Libraries/STM32H7xx_HAL_Driver/Src/stm32h7xx_hal_nand.c ****       *(__IO uint8_t *)((uint32_t)(deviceaddress | CMD_AREA))  = NAND_CMD_AREA_TRUE1;
 975              		.loc 1 608 7 is_stmt 1 view .LVU303
 976              		.loc 1 608 64 is_stmt 0 view .LVU304
 977 0098 3023     		movs	r3, #48
 978 009a 89F80030 		strb	r3, [r9]
 609:./Libraries/STM32H7xx_HAL_Driver/Src/stm32h7xx_hal_nand.c ****       __DSB();
 979              		.loc 1 609 7 is_stmt 1 view .LVU305
 980              	.LBB692:
 981              	.LBI692:
 944:./Libraries/CMSIS/Core/Include/cmsis_gcc.h **** {
 982              		.loc 2 944 27 view .LVU306
 983              	.LBB693:
 984              		.loc 2 946 3 view .LVU307
 985              		.syntax unified
ARM GAS  /tmp/cc5RRSLv.s 			page 48


 986              	@ 946 "./Libraries/CMSIS/Core/Include/cmsis_gcc.h" 1
 987 009e BFF34F8F 		dsb 0xF
 988              	@ 0 "" 2
 989              		.thumb
 990              		.syntax unified
 991              	.LBE693:
 992              	.LBE692:
 610:./Libraries/STM32H7xx_HAL_Driver/Src/stm32h7xx_hal_nand.c **** 
 611:./Libraries/STM32H7xx_HAL_Driver/Src/stm32h7xx_hal_nand.c **** 
 612:./Libraries/STM32H7xx_HAL_Driver/Src/stm32h7xx_hal_nand.c ****       if (hnand->Config.ExtraCommandEnable == ENABLE)
 993              		.loc 1 612 7 view .LVU308
 994              		.loc 1 612 10 is_stmt 0 view .LVU309
 995 00a2 94F83C30 		ldrb	r3, [r4, #60]	@ zero_extendqisi2
 996 00a6 012B     		cmp	r3, #1
 997 00a8 3FD0     		beq	.L101
 998              	.L76:
 999              	.LVL49:
 613:./Libraries/STM32H7xx_HAL_Driver/Src/stm32h7xx_hal_nand.c ****       {
 614:./Libraries/STM32H7xx_HAL_Driver/Src/stm32h7xx_hal_nand.c ****         /* Get tick */
 615:./Libraries/STM32H7xx_HAL_Driver/Src/stm32h7xx_hal_nand.c ****         tickstart = HAL_GetTick();
 616:./Libraries/STM32H7xx_HAL_Driver/Src/stm32h7xx_hal_nand.c **** 
 617:./Libraries/STM32H7xx_HAL_Driver/Src/stm32h7xx_hal_nand.c ****         /* Read status until NAND is ready */
 618:./Libraries/STM32H7xx_HAL_Driver/Src/stm32h7xx_hal_nand.c ****         while (HAL_NAND_Read_Status(hnand) != NAND_READY)
 619:./Libraries/STM32H7xx_HAL_Driver/Src/stm32h7xx_hal_nand.c ****         {
 620:./Libraries/STM32H7xx_HAL_Driver/Src/stm32h7xx_hal_nand.c ****           if ((HAL_GetTick() - tickstart) > NAND_WRITE_TIMEOUT)
 621:./Libraries/STM32H7xx_HAL_Driver/Src/stm32h7xx_hal_nand.c ****           {
 622:./Libraries/STM32H7xx_HAL_Driver/Src/stm32h7xx_hal_nand.c ****             /* Update the NAND controller state */
 623:./Libraries/STM32H7xx_HAL_Driver/Src/stm32h7xx_hal_nand.c ****             hnand->State = HAL_NAND_STATE_ERROR;
 624:./Libraries/STM32H7xx_HAL_Driver/Src/stm32h7xx_hal_nand.c **** 
 625:./Libraries/STM32H7xx_HAL_Driver/Src/stm32h7xx_hal_nand.c ****             /* Process unlocked */
 626:./Libraries/STM32H7xx_HAL_Driver/Src/stm32h7xx_hal_nand.c ****             __HAL_UNLOCK(hnand);
 627:./Libraries/STM32H7xx_HAL_Driver/Src/stm32h7xx_hal_nand.c **** 
 628:./Libraries/STM32H7xx_HAL_Driver/Src/stm32h7xx_hal_nand.c ****             return HAL_TIMEOUT;
 629:./Libraries/STM32H7xx_HAL_Driver/Src/stm32h7xx_hal_nand.c ****           }
 630:./Libraries/STM32H7xx_HAL_Driver/Src/stm32h7xx_hal_nand.c ****         }
 631:./Libraries/STM32H7xx_HAL_Driver/Src/stm32h7xx_hal_nand.c **** 
 632:./Libraries/STM32H7xx_HAL_Driver/Src/stm32h7xx_hal_nand.c ****         /* Go back to read mode */
 633:./Libraries/STM32H7xx_HAL_Driver/Src/stm32h7xx_hal_nand.c ****         *(__IO uint8_t *)((uint32_t)(deviceaddress | CMD_AREA)) = ((uint8_t)0x00);
 634:./Libraries/STM32H7xx_HAL_Driver/Src/stm32h7xx_hal_nand.c ****         __DSB();
 635:./Libraries/STM32H7xx_HAL_Driver/Src/stm32h7xx_hal_nand.c ****       }
 636:./Libraries/STM32H7xx_HAL_Driver/Src/stm32h7xx_hal_nand.c **** 
 637:./Libraries/STM32H7xx_HAL_Driver/Src/stm32h7xx_hal_nand.c ****       /* Get Data into Buffer */
 638:./Libraries/STM32H7xx_HAL_Driver/Src/stm32h7xx_hal_nand.c ****       for (index = 0U; index < hnand->Config.PageSize; index++)
 1000              		.loc 1 638 24 is_stmt 1 discriminator 1 view .LVU310
 1001              		.loc 1 638 7 is_stmt 0 discriminator 1 view .LVU311
 1002 00aa 636A     		ldr	r3, [r4, #36]
 1003 00ac 4BB1     		cbz	r3, .L79
 1004              		.loc 1 638 7 view .LVU312
 1005 00ae 0022     		movs	r2, #0
 639:./Libraries/STM32H7xx_HAL_Driver/Src/stm32h7xx_hal_nand.c ****       {
 640:./Libraries/STM32H7xx_HAL_Driver/Src/stm32h7xx_hal_nand.c ****         *buff = *(uint8_t *)deviceaddress;
 1006              		.loc 1 640 17 view .LVU313
 1007 00b0 4FF00041 		mov	r1, #-2147483648
 1008              	.LVL50:
 1009              	.L80:
 1010              		.loc 1 640 9 is_stmt 1 discriminator 3 view .LVU314
 1011              		.loc 1 640 17 is_stmt 0 discriminator 3 view .LVU315
ARM GAS  /tmp/cc5RRSLv.s 			page 49


 1012 00b4 0B78     		ldrb	r3, [r1]	@ zero_extendqisi2
 638:./Libraries/STM32H7xx_HAL_Driver/Src/stm32h7xx_hal_nand.c ****       {
 1013              		.loc 1 638 61 discriminator 3 view .LVU316
 1014 00b6 0132     		adds	r2, r2, #1
 1015              	.LVL51:
 1016              		.loc 1 640 15 discriminator 3 view .LVU317
 1017 00b8 05F8013B 		strb	r3, [r5], #1
 1018              	.LVL52:
 641:./Libraries/STM32H7xx_HAL_Driver/Src/stm32h7xx_hal_nand.c ****         buff++;
 1019              		.loc 1 641 9 is_stmt 1 discriminator 3 view .LVU318
 638:./Libraries/STM32H7xx_HAL_Driver/Src/stm32h7xx_hal_nand.c ****       {
 1020              		.loc 1 638 56 discriminator 3 view .LVU319
 638:./Libraries/STM32H7xx_HAL_Driver/Src/stm32h7xx_hal_nand.c ****       {
 1021              		.loc 1 638 24 discriminator 3 view .LVU320
 638:./Libraries/STM32H7xx_HAL_Driver/Src/stm32h7xx_hal_nand.c ****       {
 1022              		.loc 1 638 7 is_stmt 0 discriminator 3 view .LVU321
 1023 00bc 636A     		ldr	r3, [r4, #36]
 1024 00be 9342     		cmp	r3, r2
 1025 00c0 F8D8     		bhi	.L80
 1026              	.LVL53:
 1027              	.L79:
 642:./Libraries/STM32H7xx_HAL_Driver/Src/stm32h7xx_hal_nand.c ****       }
 643:./Libraries/STM32H7xx_HAL_Driver/Src/stm32h7xx_hal_nand.c **** 
 644:./Libraries/STM32H7xx_HAL_Driver/Src/stm32h7xx_hal_nand.c ****       /* Increment read pages number */
 645:./Libraries/STM32H7xx_HAL_Driver/Src/stm32h7xx_hal_nand.c ****       numpagesread++;
 1028              		.loc 1 645 7 is_stmt 1 view .LVU322
 646:./Libraries/STM32H7xx_HAL_Driver/Src/stm32h7xx_hal_nand.c **** 
 647:./Libraries/STM32H7xx_HAL_Driver/Src/stm32h7xx_hal_nand.c ****       /* Decrement pages to read */
 648:./Libraries/STM32H7xx_HAL_Driver/Src/stm32h7xx_hal_nand.c ****       nbpages--;
 1029              		.loc 1 648 7 view .LVU323
 649:./Libraries/STM32H7xx_HAL_Driver/Src/stm32h7xx_hal_nand.c **** 
 650:./Libraries/STM32H7xx_HAL_Driver/Src/stm32h7xx_hal_nand.c ****       /* Increment the NAND address */
 651:./Libraries/STM32H7xx_HAL_Driver/Src/stm32h7xx_hal_nand.c ****       nandaddress = (uint32_t)(nandaddress + 1U);
 1030              		.loc 1 651 7 view .LVU324
 1031              		.loc 1 651 19 is_stmt 0 view .LVU325
 1032 00c2 0136     		adds	r6, r6, #1
 1033              	.LVL54:
 550:./Libraries/STM32H7xx_HAL_Driver/Src/stm32h7xx_hal_nand.c ****     {
 1034              		.loc 1 550 11 is_stmt 1 view .LVU326
 1035 00c4 B245     		cmp	r10, r6
 1036 00c6 05D0     		beq	.L70
 550:./Libraries/STM32H7xx_HAL_Driver/Src/stm32h7xx_hal_nand.c ****     {
 1037              		.loc 1 550 11 is_stmt 0 view .LVU327
 1038 00c8 E26A     		ldr	r2, [r4, #44]
 1039              	.LVL55:
 550:./Libraries/STM32H7xx_HAL_Driver/Src/stm32h7xx_hal_nand.c ****     {
 1040              		.loc 1 550 73 view .LVU328
 1041 00ca 236B     		ldr	r3, [r4, #48]
 1042 00cc 03FB02F3 		mul	r3, r3, r2
 550:./Libraries/STM32H7xx_HAL_Driver/Src/stm32h7xx_hal_nand.c ****     {
 1043              		.loc 1 550 28 view .LVU329
 1044 00d0 B342     		cmp	r3, r6
 1045 00d2 C5D8     		bhi	.L81
 1046              	.LVL56:
 1047              	.L70:
 652:./Libraries/STM32H7xx_HAL_Driver/Src/stm32h7xx_hal_nand.c ****     }
 653:./Libraries/STM32H7xx_HAL_Driver/Src/stm32h7xx_hal_nand.c **** 
ARM GAS  /tmp/cc5RRSLv.s 			page 50


 654:./Libraries/STM32H7xx_HAL_Driver/Src/stm32h7xx_hal_nand.c ****     /* Update the NAND controller state */
 655:./Libraries/STM32H7xx_HAL_Driver/Src/stm32h7xx_hal_nand.c ****     hnand->State = HAL_NAND_STATE_READY;
 1048              		.loc 1 655 5 is_stmt 1 view .LVU330
 656:./Libraries/STM32H7xx_HAL_Driver/Src/stm32h7xx_hal_nand.c **** 
 657:./Libraries/STM32H7xx_HAL_Driver/Src/stm32h7xx_hal_nand.c ****     /* Process unlocked */
 658:./Libraries/STM32H7xx_HAL_Driver/Src/stm32h7xx_hal_nand.c ****     __HAL_UNLOCK(hnand);
 1049              		.loc 1 658 5 is_stmt 0 view .LVU331
 1050 00d4 0023     		movs	r3, #0
 655:./Libraries/STM32H7xx_HAL_Driver/Src/stm32h7xx_hal_nand.c **** 
 1051              		.loc 1 655 18 view .LVU332
 1052 00d6 0122     		movs	r2, #1
 659:./Libraries/STM32H7xx_HAL_Driver/Src/stm32h7xx_hal_nand.c ****   }
 660:./Libraries/STM32H7xx_HAL_Driver/Src/stm32h7xx_hal_nand.c ****   else
 661:./Libraries/STM32H7xx_HAL_Driver/Src/stm32h7xx_hal_nand.c ****   {
 662:./Libraries/STM32H7xx_HAL_Driver/Src/stm32h7xx_hal_nand.c ****     return HAL_ERROR;
 663:./Libraries/STM32H7xx_HAL_Driver/Src/stm32h7xx_hal_nand.c ****   }
 664:./Libraries/STM32H7xx_HAL_Driver/Src/stm32h7xx_hal_nand.c **** 
 665:./Libraries/STM32H7xx_HAL_Driver/Src/stm32h7xx_hal_nand.c ****   return HAL_OK;
 1053              		.loc 1 665 10 view .LVU333
 1054 00d8 1846     		mov	r0, r3
 655:./Libraries/STM32H7xx_HAL_Driver/Src/stm32h7xx_hal_nand.c **** 
 1055              		.loc 1 655 18 view .LVU334
 1056 00da 84F82120 		strb	r2, [r4, #33]
 658:./Libraries/STM32H7xx_HAL_Driver/Src/stm32h7xx_hal_nand.c ****   }
 1057              		.loc 1 658 5 is_stmt 1 view .LVU335
 658:./Libraries/STM32H7xx_HAL_Driver/Src/stm32h7xx_hal_nand.c ****   }
 1058              		.loc 1 658 5 view .LVU336
 1059 00de 84F82030 		strb	r3, [r4, #32]
 658:./Libraries/STM32H7xx_HAL_Driver/Src/stm32h7xx_hal_nand.c ****   }
 1060              		.loc 1 658 5 view .LVU337
 1061              		.loc 1 665 3 view .LVU338
 1062              	.LVL57:
 1063              	.L69:
 666:./Libraries/STM32H7xx_HAL_Driver/Src/stm32h7xx_hal_nand.c **** }
 1064              		.loc 1 666 1 is_stmt 0 view .LVU339
 1065 00e2 03B0     		add	sp, sp, #12
 1066              	.LCFI18:
 1067              		.cfi_remember_state
 1068              		.cfi_def_cfa_offset 36
 1069              		@ sp needed
 1070 00e4 BDE8F08F 		pop	{r4, r5, r6, r7, r8, r9, r10, fp, pc}
 1071              	.LVL58:
 1072              	.L82:
 1073              	.LCFI19:
 1074              		.cfi_restore_state
 662:./Libraries/STM32H7xx_HAL_Driver/Src/stm32h7xx_hal_nand.c ****   }
 1075              		.loc 1 662 12 view .LVU340
 1076 00e8 0120     		movs	r0, #1
 1077              		.loc 1 666 1 view .LVU341
 1078 00ea 03B0     		add	sp, sp, #12
 1079              	.LCFI20:
 1080              		.cfi_remember_state
 1081              		.cfi_def_cfa_offset 36
 1082              		@ sp needed
 1083 00ec BDE8F08F 		pop	{r4, r5, r6, r7, r8, r9, r10, fp, pc}
 1084              	.LVL59:
 1085              	.L75:
ARM GAS  /tmp/cc5RRSLv.s 			page 51


 1086              	.LCFI21:
 1087              		.cfi_restore_state
 595:./Libraries/STM32H7xx_HAL_Driver/Src/stm32h7xx_hal_nand.c ****           __DSB();
 1088              		.loc 1 595 11 is_stmt 1 view .LVU342
 596:./Libraries/STM32H7xx_HAL_Driver/Src/stm32h7xx_hal_nand.c ****           *(__IO uint8_t *)((uint32_t)(deviceaddress | ADDR_AREA)) = 0x00U;
 1089              		.loc 1 596 11 view .LVU343
 1090              	.LBB694:
 1091              	.LBI694:
 944:./Libraries/CMSIS/Core/Include/cmsis_gcc.h **** {
 1092              		.loc 2 944 27 view .LVU344
 1093              	.LBB695:
 1094              		.loc 2 946 3 view .LVU345
 1095              		.syntax unified
 1096              	@ 946 "./Libraries/CMSIS/Core/Include/cmsis_gcc.h" 1
 1097 00f0 BFF34F8F 		dsb 0xF
 1098              	@ 0 "" 2
 1099              		.thumb
 1100              		.syntax unified
 1101              	.LBE695:
 1102              	.LBE694:
 597:./Libraries/STM32H7xx_HAL_Driver/Src/stm32h7xx_hal_nand.c ****           __DSB();
 1103              		.loc 1 597 11 view .LVU346
 597:./Libraries/STM32H7xx_HAL_Driver/Src/stm32h7xx_hal_nand.c ****           __DSB();
 1104              		.loc 1 597 68 is_stmt 0 view .LVU347
 1105 00f4 87F80080 		strb	r8, [r7]
 1106              	.L100:
 598:./Libraries/STM32H7xx_HAL_Driver/Src/stm32h7xx_hal_nand.c ****           *(__IO uint8_t *)((uint32_t)(deviceaddress | ADDR_AREA)) = ADDR_1ST_CYCLE(nandaddress);
 1107              		.loc 1 598 11 is_stmt 1 view .LVU348
 1108              	.LBB696:
 1109              	.LBI696:
 944:./Libraries/CMSIS/Core/Include/cmsis_gcc.h **** {
 1110              		.loc 2 944 27 view .LVU349
 1111              	.LBB697:
 1112              		.loc 2 946 3 view .LVU350
 1113              		.syntax unified
 1114              	@ 946 "./Libraries/CMSIS/Core/Include/cmsis_gcc.h" 1
 1115 00f8 BFF34F8F 		dsb 0xF
 1116              	@ 0 "" 2
 1117              		.thumb
 1118              		.syntax unified
 1119              	.LBE697:
 1120              	.LBE696:
 599:./Libraries/STM32H7xx_HAL_Driver/Src/stm32h7xx_hal_nand.c ****           __DSB();
 1121              		.loc 1 599 11 view .LVU351
 1122 00fc F3B2     		uxtb	r3, r6
 599:./Libraries/STM32H7xx_HAL_Driver/Src/stm32h7xx_hal_nand.c ****           __DSB();
 1123              		.loc 1 599 68 is_stmt 0 view .LVU352
 1124 00fe 3B70     		strb	r3, [r7]
 600:./Libraries/STM32H7xx_HAL_Driver/Src/stm32h7xx_hal_nand.c ****           *(__IO uint8_t *)((uint32_t)(deviceaddress | ADDR_AREA)) = ADDR_2ND_CYCLE(nandaddress);
 1125              		.loc 1 600 11 is_stmt 1 view .LVU353
 1126              	.LBB698:
 1127              	.LBI698:
 944:./Libraries/CMSIS/Core/Include/cmsis_gcc.h **** {
 1128              		.loc 2 944 27 view .LVU354
 1129              	.LBB699:
 1130              		.loc 2 946 3 view .LVU355
 1131              		.syntax unified
ARM GAS  /tmp/cc5RRSLv.s 			page 52


 1132              	@ 946 "./Libraries/CMSIS/Core/Include/cmsis_gcc.h" 1
 1133 0100 BFF34F8F 		dsb 0xF
 1134              	@ 0 "" 2
 1135              		.thumb
 1136              		.syntax unified
 1137              	.LBE699:
 1138              	.LBE698:
 601:./Libraries/STM32H7xx_HAL_Driver/Src/stm32h7xx_hal_nand.c ****           __DSB();
 1139              		.loc 1 601 11 view .LVU356
 601:./Libraries/STM32H7xx_HAL_Driver/Src/stm32h7xx_hal_nand.c ****           __DSB();
 1140              		.loc 1 601 70 is_stmt 0 view .LVU357
 1141 0104 C6F30723 		ubfx	r3, r6, #8, #8
 601:./Libraries/STM32H7xx_HAL_Driver/Src/stm32h7xx_hal_nand.c ****           __DSB();
 1142              		.loc 1 601 68 view .LVU358
 1143 0108 3B70     		strb	r3, [r7]
 602:./Libraries/STM32H7xx_HAL_Driver/Src/stm32h7xx_hal_nand.c ****           *(__IO uint8_t *)((uint32_t)(deviceaddress | ADDR_AREA)) = ADDR_3RD_CYCLE(nandaddress);
 1144              		.loc 1 602 11 is_stmt 1 view .LVU359
 1145              	.LBB700:
 1146              	.LBI700:
 944:./Libraries/CMSIS/Core/Include/cmsis_gcc.h **** {
 1147              		.loc 2 944 27 view .LVU360
 1148              	.LBB701:
 1149              		.loc 2 946 3 view .LVU361
 1150              		.syntax unified
 1151              	@ 946 "./Libraries/CMSIS/Core/Include/cmsis_gcc.h" 1
 1152 010a BFF34F8F 		dsb 0xF
 1153              	@ 0 "" 2
 1154              		.thumb
 1155              		.syntax unified
 1156              	.LBE701:
 1157              	.LBE700:
 603:./Libraries/STM32H7xx_HAL_Driver/Src/stm32h7xx_hal_nand.c ****           __DSB();
 1158              		.loc 1 603 11 view .LVU362
 603:./Libraries/STM32H7xx_HAL_Driver/Src/stm32h7xx_hal_nand.c ****           __DSB();
 1159              		.loc 1 603 70 is_stmt 0 view .LVU363
 1160 010e C6F30743 		ubfx	r3, r6, #16, #8
 603:./Libraries/STM32H7xx_HAL_Driver/Src/stm32h7xx_hal_nand.c ****           __DSB();
 1161              		.loc 1 603 68 view .LVU364
 1162 0112 3B70     		strb	r3, [r7]
 604:./Libraries/STM32H7xx_HAL_Driver/Src/stm32h7xx_hal_nand.c ****         }
 1163              		.loc 1 604 11 is_stmt 1 view .LVU365
 1164              	.LBB702:
 1165              	.LBI702:
 944:./Libraries/CMSIS/Core/Include/cmsis_gcc.h **** {
 1166              		.loc 2 944 27 view .LVU366
 1167              	.LBB703:
 1168              		.loc 2 946 3 view .LVU367
 1169              		.syntax unified
 1170              	@ 946 "./Libraries/CMSIS/Core/Include/cmsis_gcc.h" 1
 1171 0114 BFF34F8F 		dsb 0xF
 1172              	@ 0 "" 2
 947:./Libraries/CMSIS/Core/Include/cmsis_gcc.h **** }
 1173              		.loc 2 947 1 is_stmt 0 view .LVU368
 1174              		.thumb
 1175              		.syntax unified
 1176 0118 BEE7     		b	.L74
 1177              	.L72:
ARM GAS  /tmp/cc5RRSLv.s 			page 53


 1178              		.loc 2 947 1 view .LVU369
 1179              	.LBE703:
 1180              	.LBE702:
 582:./Libraries/STM32H7xx_HAL_Driver/Src/stm32h7xx_hal_nand.c ****         {
 1181              		.loc 1 582 9 is_stmt 1 view .LVU370
 582:./Libraries/STM32H7xx_HAL_Driver/Src/stm32h7xx_hal_nand.c ****         {
 1182              		.loc 1 582 12 is_stmt 0 view .LVU371
 1183 011a B3F5803F 		cmp	r3, #65536
 1184 011e E7D2     		bcs	.L75
 584:./Libraries/STM32H7xx_HAL_Driver/Src/stm32h7xx_hal_nand.c ****           __DSB();
 1185              		.loc 1 584 11 is_stmt 1 view .LVU372
 585:./Libraries/STM32H7xx_HAL_Driver/Src/stm32h7xx_hal_nand.c ****           *(__IO uint8_t *)((uint32_t)(deviceaddress | ADDR_AREA)) = 0x00U;
 1186              		.loc 1 585 11 view .LVU373
 1187              	.LBB704:
 1188              	.LBI704:
 944:./Libraries/CMSIS/Core/Include/cmsis_gcc.h **** {
 1189              		.loc 2 944 27 view .LVU374
 1190              	.LBB705:
 946:./Libraries/CMSIS/Core/Include/cmsis_gcc.h **** }
 1191              		.loc 2 946 3 view .LVU375
 1192              		.syntax unified
 1193              	@ 946 "./Libraries/CMSIS/Core/Include/cmsis_gcc.h" 1
 1194 0120 BFF34F8F 		dsb 0xF
 1195              	@ 0 "" 2
 1196              		.thumb
 1197              		.syntax unified
 1198              	.LBE705:
 1199              	.LBE704:
 586:./Libraries/STM32H7xx_HAL_Driver/Src/stm32h7xx_hal_nand.c ****           __DSB();
 1200              		.loc 1 586 11 view .LVU376
 586:./Libraries/STM32H7xx_HAL_Driver/Src/stm32h7xx_hal_nand.c ****           __DSB();
 1201              		.loc 1 586 68 is_stmt 0 view .LVU377
 1202 0124 87F80080 		strb	r8, [r7]
 1203 0128 ABE7     		b	.L99
 1204              	.L101:
 615:./Libraries/STM32H7xx_HAL_Driver/Src/stm32h7xx_hal_nand.c **** 
 1205              		.loc 1 615 9 is_stmt 1 view .LVU378
 1206              	.LBB706:
 1207              	.LBB707:
 667:./Libraries/STM32H7xx_HAL_Driver/Src/stm32h7xx_hal_nand.c **** 
 668:./Libraries/STM32H7xx_HAL_Driver/Src/stm32h7xx_hal_nand.c **** /**
 669:./Libraries/STM32H7xx_HAL_Driver/Src/stm32h7xx_hal_nand.c ****   * @brief  Read Page(s) from NAND memory block (16-bits addressing)
 670:./Libraries/STM32H7xx_HAL_Driver/Src/stm32h7xx_hal_nand.c ****   * @param  hnand pointer to a NAND_HandleTypeDef structure that contains
 671:./Libraries/STM32H7xx_HAL_Driver/Src/stm32h7xx_hal_nand.c ****   *                the configuration information for NAND module.
 672:./Libraries/STM32H7xx_HAL_Driver/Src/stm32h7xx_hal_nand.c ****   * @param  pAddress  pointer to NAND address structure
 673:./Libraries/STM32H7xx_HAL_Driver/Src/stm32h7xx_hal_nand.c ****   * @param  pBuffer  pointer to destination read buffer. pBuffer should be 16bits aligned
 674:./Libraries/STM32H7xx_HAL_Driver/Src/stm32h7xx_hal_nand.c ****   * @param  NumPageToRead  number of pages to read from block
 675:./Libraries/STM32H7xx_HAL_Driver/Src/stm32h7xx_hal_nand.c ****   * @retval HAL status
 676:./Libraries/STM32H7xx_HAL_Driver/Src/stm32h7xx_hal_nand.c ****   */
 677:./Libraries/STM32H7xx_HAL_Driver/Src/stm32h7xx_hal_nand.c **** HAL_StatusTypeDef HAL_NAND_Read_Page_16b(NAND_HandleTypeDef *hnand, NAND_AddressTypeDef *pAddress, 
 678:./Libraries/STM32H7xx_HAL_Driver/Src/stm32h7xx_hal_nand.c ****                                          uint32_t NumPageToRead)
 679:./Libraries/STM32H7xx_HAL_Driver/Src/stm32h7xx_hal_nand.c **** {
 680:./Libraries/STM32H7xx_HAL_Driver/Src/stm32h7xx_hal_nand.c ****   uint32_t index;
 681:./Libraries/STM32H7xx_HAL_Driver/Src/stm32h7xx_hal_nand.c ****   uint32_t tickstart;
 682:./Libraries/STM32H7xx_HAL_Driver/Src/stm32h7xx_hal_nand.c ****   uint32_t deviceaddress;
 683:./Libraries/STM32H7xx_HAL_Driver/Src/stm32h7xx_hal_nand.c ****   uint32_t numpagesread = 0U;
 684:./Libraries/STM32H7xx_HAL_Driver/Src/stm32h7xx_hal_nand.c ****   uint32_t nandaddress;
ARM GAS  /tmp/cc5RRSLv.s 			page 54


 685:./Libraries/STM32H7xx_HAL_Driver/Src/stm32h7xx_hal_nand.c ****   uint32_t nbpages = NumPageToRead;
 686:./Libraries/STM32H7xx_HAL_Driver/Src/stm32h7xx_hal_nand.c ****   uint16_t *buff = pBuffer;
 687:./Libraries/STM32H7xx_HAL_Driver/Src/stm32h7xx_hal_nand.c **** 
 688:./Libraries/STM32H7xx_HAL_Driver/Src/stm32h7xx_hal_nand.c ****   /* Check the NAND controller state */
 689:./Libraries/STM32H7xx_HAL_Driver/Src/stm32h7xx_hal_nand.c ****   if (hnand->State == HAL_NAND_STATE_BUSY)
 690:./Libraries/STM32H7xx_HAL_Driver/Src/stm32h7xx_hal_nand.c ****   {
 691:./Libraries/STM32H7xx_HAL_Driver/Src/stm32h7xx_hal_nand.c ****     return HAL_BUSY;
 692:./Libraries/STM32H7xx_HAL_Driver/Src/stm32h7xx_hal_nand.c ****   }
 693:./Libraries/STM32H7xx_HAL_Driver/Src/stm32h7xx_hal_nand.c ****   else if (hnand->State == HAL_NAND_STATE_READY)
 694:./Libraries/STM32H7xx_HAL_Driver/Src/stm32h7xx_hal_nand.c ****   {
 695:./Libraries/STM32H7xx_HAL_Driver/Src/stm32h7xx_hal_nand.c ****     /* Process Locked */
 696:./Libraries/STM32H7xx_HAL_Driver/Src/stm32h7xx_hal_nand.c ****     __HAL_LOCK(hnand);
 697:./Libraries/STM32H7xx_HAL_Driver/Src/stm32h7xx_hal_nand.c **** 
 698:./Libraries/STM32H7xx_HAL_Driver/Src/stm32h7xx_hal_nand.c ****     /* Update the NAND controller state */
 699:./Libraries/STM32H7xx_HAL_Driver/Src/stm32h7xx_hal_nand.c ****     hnand->State = HAL_NAND_STATE_BUSY;
 700:./Libraries/STM32H7xx_HAL_Driver/Src/stm32h7xx_hal_nand.c **** 
 701:./Libraries/STM32H7xx_HAL_Driver/Src/stm32h7xx_hal_nand.c ****     /* Identify the device address */
 702:./Libraries/STM32H7xx_HAL_Driver/Src/stm32h7xx_hal_nand.c ****     deviceaddress = NAND_DEVICE;
 703:./Libraries/STM32H7xx_HAL_Driver/Src/stm32h7xx_hal_nand.c **** 
 704:./Libraries/STM32H7xx_HAL_Driver/Src/stm32h7xx_hal_nand.c ****     /* NAND raw address calculation */
 705:./Libraries/STM32H7xx_HAL_Driver/Src/stm32h7xx_hal_nand.c ****     nandaddress = ARRAY_ADDRESS(pAddress, hnand);
 706:./Libraries/STM32H7xx_HAL_Driver/Src/stm32h7xx_hal_nand.c **** 
 707:./Libraries/STM32H7xx_HAL_Driver/Src/stm32h7xx_hal_nand.c ****     /* Page(s) read loop */
 708:./Libraries/STM32H7xx_HAL_Driver/Src/stm32h7xx_hal_nand.c ****     while ((nbpages != 0U) && (nandaddress < ((hnand->Config.BlockSize) * (hnand->Config.BlockNbr))
 709:./Libraries/STM32H7xx_HAL_Driver/Src/stm32h7xx_hal_nand.c ****     {
 710:./Libraries/STM32H7xx_HAL_Driver/Src/stm32h7xx_hal_nand.c ****       /* Send read page command sequence */
 711:./Libraries/STM32H7xx_HAL_Driver/Src/stm32h7xx_hal_nand.c ****       *(__IO uint8_t *)((uint32_t)(deviceaddress | CMD_AREA)) = NAND_CMD_AREA_A;
 712:./Libraries/STM32H7xx_HAL_Driver/Src/stm32h7xx_hal_nand.c ****       __DSB();
 713:./Libraries/STM32H7xx_HAL_Driver/Src/stm32h7xx_hal_nand.c **** 
 714:./Libraries/STM32H7xx_HAL_Driver/Src/stm32h7xx_hal_nand.c ****       /* Cards with page size <= 512 bytes */
 715:./Libraries/STM32H7xx_HAL_Driver/Src/stm32h7xx_hal_nand.c ****       if ((hnand->Config.PageSize) <= 512U)
 716:./Libraries/STM32H7xx_HAL_Driver/Src/stm32h7xx_hal_nand.c ****       {
 717:./Libraries/STM32H7xx_HAL_Driver/Src/stm32h7xx_hal_nand.c ****         if (((hnand->Config.BlockSize) * (hnand->Config.BlockNbr)) <= 65535U)
 718:./Libraries/STM32H7xx_HAL_Driver/Src/stm32h7xx_hal_nand.c ****         {
 719:./Libraries/STM32H7xx_HAL_Driver/Src/stm32h7xx_hal_nand.c ****           *(__IO uint8_t *)((uint32_t)(deviceaddress | ADDR_AREA)) = 0x00U;
 720:./Libraries/STM32H7xx_HAL_Driver/Src/stm32h7xx_hal_nand.c ****           __DSB();
 721:./Libraries/STM32H7xx_HAL_Driver/Src/stm32h7xx_hal_nand.c ****           *(__IO uint8_t *)((uint32_t)(deviceaddress | ADDR_AREA)) = ADDR_1ST_CYCLE(nandaddress);
 722:./Libraries/STM32H7xx_HAL_Driver/Src/stm32h7xx_hal_nand.c ****           __DSB();
 723:./Libraries/STM32H7xx_HAL_Driver/Src/stm32h7xx_hal_nand.c ****           *(__IO uint8_t *)((uint32_t)(deviceaddress | ADDR_AREA)) = ADDR_2ND_CYCLE(nandaddress);
 724:./Libraries/STM32H7xx_HAL_Driver/Src/stm32h7xx_hal_nand.c ****           __DSB();
 725:./Libraries/STM32H7xx_HAL_Driver/Src/stm32h7xx_hal_nand.c ****         }
 726:./Libraries/STM32H7xx_HAL_Driver/Src/stm32h7xx_hal_nand.c ****         else /* ((hnand->Config.BlockSize)*(hnand->Config.BlockNbr)) > 65535 */
 727:./Libraries/STM32H7xx_HAL_Driver/Src/stm32h7xx_hal_nand.c ****         {
 728:./Libraries/STM32H7xx_HAL_Driver/Src/stm32h7xx_hal_nand.c ****           *(__IO uint8_t *)((uint32_t)(deviceaddress | ADDR_AREA)) = 0x00U;
 729:./Libraries/STM32H7xx_HAL_Driver/Src/stm32h7xx_hal_nand.c ****           __DSB();
 730:./Libraries/STM32H7xx_HAL_Driver/Src/stm32h7xx_hal_nand.c ****           *(__IO uint8_t *)((uint32_t)(deviceaddress | ADDR_AREA)) = ADDR_1ST_CYCLE(nandaddress);
 731:./Libraries/STM32H7xx_HAL_Driver/Src/stm32h7xx_hal_nand.c ****           __DSB();
 732:./Libraries/STM32H7xx_HAL_Driver/Src/stm32h7xx_hal_nand.c ****           *(__IO uint8_t *)((uint32_t)(deviceaddress | ADDR_AREA)) = ADDR_2ND_CYCLE(nandaddress);
 733:./Libraries/STM32H7xx_HAL_Driver/Src/stm32h7xx_hal_nand.c ****           __DSB();
 734:./Libraries/STM32H7xx_HAL_Driver/Src/stm32h7xx_hal_nand.c ****           *(__IO uint8_t *)((uint32_t)(deviceaddress | ADDR_AREA)) = ADDR_3RD_CYCLE(nandaddress);
 735:./Libraries/STM32H7xx_HAL_Driver/Src/stm32h7xx_hal_nand.c ****           __DSB();
 736:./Libraries/STM32H7xx_HAL_Driver/Src/stm32h7xx_hal_nand.c ****         }
 737:./Libraries/STM32H7xx_HAL_Driver/Src/stm32h7xx_hal_nand.c ****       }
 738:./Libraries/STM32H7xx_HAL_Driver/Src/stm32h7xx_hal_nand.c ****       else /* (hnand->Config.PageSize) > 512 */
 739:./Libraries/STM32H7xx_HAL_Driver/Src/stm32h7xx_hal_nand.c ****       {
 740:./Libraries/STM32H7xx_HAL_Driver/Src/stm32h7xx_hal_nand.c ****         if (((hnand->Config.BlockSize) * (hnand->Config.BlockNbr)) <= 65535U)
 741:./Libraries/STM32H7xx_HAL_Driver/Src/stm32h7xx_hal_nand.c ****         {
ARM GAS  /tmp/cc5RRSLv.s 			page 55


 742:./Libraries/STM32H7xx_HAL_Driver/Src/stm32h7xx_hal_nand.c ****           *(__IO uint8_t *)((uint32_t)(deviceaddress | ADDR_AREA)) = 0x00U;
 743:./Libraries/STM32H7xx_HAL_Driver/Src/stm32h7xx_hal_nand.c ****           __DSB();
 744:./Libraries/STM32H7xx_HAL_Driver/Src/stm32h7xx_hal_nand.c ****           *(__IO uint8_t *)((uint32_t)(deviceaddress | ADDR_AREA)) = 0x00U;
 745:./Libraries/STM32H7xx_HAL_Driver/Src/stm32h7xx_hal_nand.c ****           __DSB();
 746:./Libraries/STM32H7xx_HAL_Driver/Src/stm32h7xx_hal_nand.c ****           *(__IO uint8_t *)((uint32_t)(deviceaddress | ADDR_AREA)) = ADDR_1ST_CYCLE(nandaddress);
 747:./Libraries/STM32H7xx_HAL_Driver/Src/stm32h7xx_hal_nand.c ****           __DSB();
 748:./Libraries/STM32H7xx_HAL_Driver/Src/stm32h7xx_hal_nand.c ****           *(__IO uint8_t *)((uint32_t)(deviceaddress | ADDR_AREA)) = ADDR_2ND_CYCLE(nandaddress);
 749:./Libraries/STM32H7xx_HAL_Driver/Src/stm32h7xx_hal_nand.c ****           __DSB();
 750:./Libraries/STM32H7xx_HAL_Driver/Src/stm32h7xx_hal_nand.c ****         }
 751:./Libraries/STM32H7xx_HAL_Driver/Src/stm32h7xx_hal_nand.c ****         else /* ((hnand->Config.BlockSize)*(hnand->Config.BlockNbr)) > 65535 */
 752:./Libraries/STM32H7xx_HAL_Driver/Src/stm32h7xx_hal_nand.c ****         {
 753:./Libraries/STM32H7xx_HAL_Driver/Src/stm32h7xx_hal_nand.c ****           *(__IO uint8_t *)((uint32_t)(deviceaddress | ADDR_AREA)) = 0x00U;
 754:./Libraries/STM32H7xx_HAL_Driver/Src/stm32h7xx_hal_nand.c ****           __DSB();
 755:./Libraries/STM32H7xx_HAL_Driver/Src/stm32h7xx_hal_nand.c ****           *(__IO uint8_t *)((uint32_t)(deviceaddress | ADDR_AREA)) = 0x00U;
 756:./Libraries/STM32H7xx_HAL_Driver/Src/stm32h7xx_hal_nand.c ****           __DSB();
 757:./Libraries/STM32H7xx_HAL_Driver/Src/stm32h7xx_hal_nand.c ****           *(__IO uint8_t *)((uint32_t)(deviceaddress | ADDR_AREA)) = ADDR_1ST_CYCLE(nandaddress);
 758:./Libraries/STM32H7xx_HAL_Driver/Src/stm32h7xx_hal_nand.c ****           __DSB();
 759:./Libraries/STM32H7xx_HAL_Driver/Src/stm32h7xx_hal_nand.c ****           *(__IO uint8_t *)((uint32_t)(deviceaddress | ADDR_AREA)) = ADDR_2ND_CYCLE(nandaddress);
 760:./Libraries/STM32H7xx_HAL_Driver/Src/stm32h7xx_hal_nand.c ****           __DSB();
 761:./Libraries/STM32H7xx_HAL_Driver/Src/stm32h7xx_hal_nand.c ****           *(__IO uint8_t *)((uint32_t)(deviceaddress | ADDR_AREA)) = ADDR_3RD_CYCLE(nandaddress);
 762:./Libraries/STM32H7xx_HAL_Driver/Src/stm32h7xx_hal_nand.c ****           __DSB();
 763:./Libraries/STM32H7xx_HAL_Driver/Src/stm32h7xx_hal_nand.c ****         }
 764:./Libraries/STM32H7xx_HAL_Driver/Src/stm32h7xx_hal_nand.c ****       }
 765:./Libraries/STM32H7xx_HAL_Driver/Src/stm32h7xx_hal_nand.c **** 
 766:./Libraries/STM32H7xx_HAL_Driver/Src/stm32h7xx_hal_nand.c ****       *(__IO uint8_t *)((uint32_t)(deviceaddress | CMD_AREA))  = NAND_CMD_AREA_TRUE1;
 767:./Libraries/STM32H7xx_HAL_Driver/Src/stm32h7xx_hal_nand.c ****       __DSB();
 768:./Libraries/STM32H7xx_HAL_Driver/Src/stm32h7xx_hal_nand.c **** 
 769:./Libraries/STM32H7xx_HAL_Driver/Src/stm32h7xx_hal_nand.c ****       if (hnand->Config.ExtraCommandEnable == ENABLE)
 770:./Libraries/STM32H7xx_HAL_Driver/Src/stm32h7xx_hal_nand.c ****       {
 771:./Libraries/STM32H7xx_HAL_Driver/Src/stm32h7xx_hal_nand.c ****         /* Get tick */
 772:./Libraries/STM32H7xx_HAL_Driver/Src/stm32h7xx_hal_nand.c ****         tickstart = HAL_GetTick();
 773:./Libraries/STM32H7xx_HAL_Driver/Src/stm32h7xx_hal_nand.c **** 
 774:./Libraries/STM32H7xx_HAL_Driver/Src/stm32h7xx_hal_nand.c ****         /* Read status until NAND is ready */
 775:./Libraries/STM32H7xx_HAL_Driver/Src/stm32h7xx_hal_nand.c ****         while (HAL_NAND_Read_Status(hnand) != NAND_READY)
 776:./Libraries/STM32H7xx_HAL_Driver/Src/stm32h7xx_hal_nand.c ****         {
 777:./Libraries/STM32H7xx_HAL_Driver/Src/stm32h7xx_hal_nand.c ****           if ((HAL_GetTick() - tickstart) > NAND_WRITE_TIMEOUT)
 778:./Libraries/STM32H7xx_HAL_Driver/Src/stm32h7xx_hal_nand.c ****           {
 779:./Libraries/STM32H7xx_HAL_Driver/Src/stm32h7xx_hal_nand.c ****             /* Update the NAND controller state */
 780:./Libraries/STM32H7xx_HAL_Driver/Src/stm32h7xx_hal_nand.c ****             hnand->State = HAL_NAND_STATE_ERROR;
 781:./Libraries/STM32H7xx_HAL_Driver/Src/stm32h7xx_hal_nand.c **** 
 782:./Libraries/STM32H7xx_HAL_Driver/Src/stm32h7xx_hal_nand.c ****             /* Process unlocked */
 783:./Libraries/STM32H7xx_HAL_Driver/Src/stm32h7xx_hal_nand.c ****             __HAL_UNLOCK(hnand);
 784:./Libraries/STM32H7xx_HAL_Driver/Src/stm32h7xx_hal_nand.c **** 
 785:./Libraries/STM32H7xx_HAL_Driver/Src/stm32h7xx_hal_nand.c ****             return HAL_TIMEOUT;
 786:./Libraries/STM32H7xx_HAL_Driver/Src/stm32h7xx_hal_nand.c ****           }
 787:./Libraries/STM32H7xx_HAL_Driver/Src/stm32h7xx_hal_nand.c ****         }
 788:./Libraries/STM32H7xx_HAL_Driver/Src/stm32h7xx_hal_nand.c **** 
 789:./Libraries/STM32H7xx_HAL_Driver/Src/stm32h7xx_hal_nand.c ****         /* Go back to read mode */
 790:./Libraries/STM32H7xx_HAL_Driver/Src/stm32h7xx_hal_nand.c ****         *(__IO uint8_t *)((uint32_t)(deviceaddress | CMD_AREA)) = ((uint8_t)0x00);
 791:./Libraries/STM32H7xx_HAL_Driver/Src/stm32h7xx_hal_nand.c ****         __DSB();
 792:./Libraries/STM32H7xx_HAL_Driver/Src/stm32h7xx_hal_nand.c ****       }
 793:./Libraries/STM32H7xx_HAL_Driver/Src/stm32h7xx_hal_nand.c **** 
 794:./Libraries/STM32H7xx_HAL_Driver/Src/stm32h7xx_hal_nand.c ****       /* Calculate PageSize */
 795:./Libraries/STM32H7xx_HAL_Driver/Src/stm32h7xx_hal_nand.c ****       if (hnand->Init.MemoryDataWidth == FMC_NAND_MEM_BUS_WIDTH_8)
 796:./Libraries/STM32H7xx_HAL_Driver/Src/stm32h7xx_hal_nand.c ****       {
 797:./Libraries/STM32H7xx_HAL_Driver/Src/stm32h7xx_hal_nand.c ****         hnand->Config.PageSize = hnand->Config.PageSize / 2U;
 798:./Libraries/STM32H7xx_HAL_Driver/Src/stm32h7xx_hal_nand.c ****       }
ARM GAS  /tmp/cc5RRSLv.s 			page 56


 799:./Libraries/STM32H7xx_HAL_Driver/Src/stm32h7xx_hal_nand.c ****       else
 800:./Libraries/STM32H7xx_HAL_Driver/Src/stm32h7xx_hal_nand.c ****       {
 801:./Libraries/STM32H7xx_HAL_Driver/Src/stm32h7xx_hal_nand.c ****         /* Do nothing */
 802:./Libraries/STM32H7xx_HAL_Driver/Src/stm32h7xx_hal_nand.c ****         /* Keep the same PageSize for FMC_NAND_MEM_BUS_WIDTH_16*/
 803:./Libraries/STM32H7xx_HAL_Driver/Src/stm32h7xx_hal_nand.c ****       }
 804:./Libraries/STM32H7xx_HAL_Driver/Src/stm32h7xx_hal_nand.c **** 
 805:./Libraries/STM32H7xx_HAL_Driver/Src/stm32h7xx_hal_nand.c ****       /* Get Data into Buffer */
 806:./Libraries/STM32H7xx_HAL_Driver/Src/stm32h7xx_hal_nand.c ****       for (index = 0U; index < hnand->Config.PageSize; index++)
 807:./Libraries/STM32H7xx_HAL_Driver/Src/stm32h7xx_hal_nand.c ****       {
 808:./Libraries/STM32H7xx_HAL_Driver/Src/stm32h7xx_hal_nand.c ****         *buff = *(uint16_t *)deviceaddress;
 809:./Libraries/STM32H7xx_HAL_Driver/Src/stm32h7xx_hal_nand.c ****         buff++;
 810:./Libraries/STM32H7xx_HAL_Driver/Src/stm32h7xx_hal_nand.c ****       }
 811:./Libraries/STM32H7xx_HAL_Driver/Src/stm32h7xx_hal_nand.c **** 
 812:./Libraries/STM32H7xx_HAL_Driver/Src/stm32h7xx_hal_nand.c ****       /* Increment read pages number */
 813:./Libraries/STM32H7xx_HAL_Driver/Src/stm32h7xx_hal_nand.c ****       numpagesread++;
 814:./Libraries/STM32H7xx_HAL_Driver/Src/stm32h7xx_hal_nand.c **** 
 815:./Libraries/STM32H7xx_HAL_Driver/Src/stm32h7xx_hal_nand.c ****       /* Decrement pages to read */
 816:./Libraries/STM32H7xx_HAL_Driver/Src/stm32h7xx_hal_nand.c ****       nbpages--;
 817:./Libraries/STM32H7xx_HAL_Driver/Src/stm32h7xx_hal_nand.c **** 
 818:./Libraries/STM32H7xx_HAL_Driver/Src/stm32h7xx_hal_nand.c ****       /* Increment the NAND address */
 819:./Libraries/STM32H7xx_HAL_Driver/Src/stm32h7xx_hal_nand.c ****       nandaddress = (uint32_t)(nandaddress + 1U);
 820:./Libraries/STM32H7xx_HAL_Driver/Src/stm32h7xx_hal_nand.c ****     }
 821:./Libraries/STM32H7xx_HAL_Driver/Src/stm32h7xx_hal_nand.c **** 
 822:./Libraries/STM32H7xx_HAL_Driver/Src/stm32h7xx_hal_nand.c ****     /* Update the NAND controller state */
 823:./Libraries/STM32H7xx_HAL_Driver/Src/stm32h7xx_hal_nand.c ****     hnand->State = HAL_NAND_STATE_READY;
 824:./Libraries/STM32H7xx_HAL_Driver/Src/stm32h7xx_hal_nand.c **** 
 825:./Libraries/STM32H7xx_HAL_Driver/Src/stm32h7xx_hal_nand.c ****     /* Process unlocked */
 826:./Libraries/STM32H7xx_HAL_Driver/Src/stm32h7xx_hal_nand.c ****     __HAL_UNLOCK(hnand);
 827:./Libraries/STM32H7xx_HAL_Driver/Src/stm32h7xx_hal_nand.c ****   }
 828:./Libraries/STM32H7xx_HAL_Driver/Src/stm32h7xx_hal_nand.c ****   else
 829:./Libraries/STM32H7xx_HAL_Driver/Src/stm32h7xx_hal_nand.c ****   {
 830:./Libraries/STM32H7xx_HAL_Driver/Src/stm32h7xx_hal_nand.c ****     return HAL_ERROR;
 831:./Libraries/STM32H7xx_HAL_Driver/Src/stm32h7xx_hal_nand.c ****   }
 832:./Libraries/STM32H7xx_HAL_Driver/Src/stm32h7xx_hal_nand.c **** 
 833:./Libraries/STM32H7xx_HAL_Driver/Src/stm32h7xx_hal_nand.c ****   return HAL_OK;
 834:./Libraries/STM32H7xx_HAL_Driver/Src/stm32h7xx_hal_nand.c **** }
 835:./Libraries/STM32H7xx_HAL_Driver/Src/stm32h7xx_hal_nand.c **** 
 836:./Libraries/STM32H7xx_HAL_Driver/Src/stm32h7xx_hal_nand.c **** /**
 837:./Libraries/STM32H7xx_HAL_Driver/Src/stm32h7xx_hal_nand.c ****   * @brief  Write Page(s) to NAND memory block (8-bits addressing)
 838:./Libraries/STM32H7xx_HAL_Driver/Src/stm32h7xx_hal_nand.c ****   * @param  hnand pointer to a NAND_HandleTypeDef structure that contains
 839:./Libraries/STM32H7xx_HAL_Driver/Src/stm32h7xx_hal_nand.c ****   *                the configuration information for NAND module.
 840:./Libraries/STM32H7xx_HAL_Driver/Src/stm32h7xx_hal_nand.c ****   * @param  pAddress  pointer to NAND address structure
 841:./Libraries/STM32H7xx_HAL_Driver/Src/stm32h7xx_hal_nand.c ****   * @param  pBuffer  pointer to source buffer to write
 842:./Libraries/STM32H7xx_HAL_Driver/Src/stm32h7xx_hal_nand.c ****   * @param  NumPageToWrite   number of pages to write to block
 843:./Libraries/STM32H7xx_HAL_Driver/Src/stm32h7xx_hal_nand.c ****   * @retval HAL status
 844:./Libraries/STM32H7xx_HAL_Driver/Src/stm32h7xx_hal_nand.c ****   */
 845:./Libraries/STM32H7xx_HAL_Driver/Src/stm32h7xx_hal_nand.c **** HAL_StatusTypeDef HAL_NAND_Write_Page_8b(NAND_HandleTypeDef *hnand, NAND_AddressTypeDef *pAddress, 
 846:./Libraries/STM32H7xx_HAL_Driver/Src/stm32h7xx_hal_nand.c ****                                          uint32_t NumPageToWrite)
 847:./Libraries/STM32H7xx_HAL_Driver/Src/stm32h7xx_hal_nand.c **** {
 848:./Libraries/STM32H7xx_HAL_Driver/Src/stm32h7xx_hal_nand.c ****   uint32_t index;
 849:./Libraries/STM32H7xx_HAL_Driver/Src/stm32h7xx_hal_nand.c ****   uint32_t tickstart;
 850:./Libraries/STM32H7xx_HAL_Driver/Src/stm32h7xx_hal_nand.c ****   uint32_t deviceaddress;
 851:./Libraries/STM32H7xx_HAL_Driver/Src/stm32h7xx_hal_nand.c ****   uint32_t numpageswritten = 0U;
 852:./Libraries/STM32H7xx_HAL_Driver/Src/stm32h7xx_hal_nand.c ****   uint32_t nandaddress;
 853:./Libraries/STM32H7xx_HAL_Driver/Src/stm32h7xx_hal_nand.c ****   uint32_t nbpages = NumPageToWrite;
 854:./Libraries/STM32H7xx_HAL_Driver/Src/stm32h7xx_hal_nand.c ****   uint8_t *buff = pBuffer;
 855:./Libraries/STM32H7xx_HAL_Driver/Src/stm32h7xx_hal_nand.c **** 
ARM GAS  /tmp/cc5RRSLv.s 			page 57


 856:./Libraries/STM32H7xx_HAL_Driver/Src/stm32h7xx_hal_nand.c ****   /* Check the NAND controller state */
 857:./Libraries/STM32H7xx_HAL_Driver/Src/stm32h7xx_hal_nand.c ****   if (hnand->State == HAL_NAND_STATE_BUSY)
 858:./Libraries/STM32H7xx_HAL_Driver/Src/stm32h7xx_hal_nand.c ****   {
 859:./Libraries/STM32H7xx_HAL_Driver/Src/stm32h7xx_hal_nand.c ****     return HAL_BUSY;
 860:./Libraries/STM32H7xx_HAL_Driver/Src/stm32h7xx_hal_nand.c ****   }
 861:./Libraries/STM32H7xx_HAL_Driver/Src/stm32h7xx_hal_nand.c ****   else if (hnand->State == HAL_NAND_STATE_READY)
 862:./Libraries/STM32H7xx_HAL_Driver/Src/stm32h7xx_hal_nand.c ****   {
 863:./Libraries/STM32H7xx_HAL_Driver/Src/stm32h7xx_hal_nand.c ****     /* Process Locked */
 864:./Libraries/STM32H7xx_HAL_Driver/Src/stm32h7xx_hal_nand.c ****     __HAL_LOCK(hnand);
 865:./Libraries/STM32H7xx_HAL_Driver/Src/stm32h7xx_hal_nand.c **** 
 866:./Libraries/STM32H7xx_HAL_Driver/Src/stm32h7xx_hal_nand.c ****     /* Update the NAND controller state */
 867:./Libraries/STM32H7xx_HAL_Driver/Src/stm32h7xx_hal_nand.c ****     hnand->State = HAL_NAND_STATE_BUSY;
 868:./Libraries/STM32H7xx_HAL_Driver/Src/stm32h7xx_hal_nand.c **** 
 869:./Libraries/STM32H7xx_HAL_Driver/Src/stm32h7xx_hal_nand.c ****     /* Identify the device address */
 870:./Libraries/STM32H7xx_HAL_Driver/Src/stm32h7xx_hal_nand.c ****     deviceaddress = NAND_DEVICE;
 871:./Libraries/STM32H7xx_HAL_Driver/Src/stm32h7xx_hal_nand.c **** 
 872:./Libraries/STM32H7xx_HAL_Driver/Src/stm32h7xx_hal_nand.c ****     /* NAND raw address calculation */
 873:./Libraries/STM32H7xx_HAL_Driver/Src/stm32h7xx_hal_nand.c ****     nandaddress = ARRAY_ADDRESS(pAddress, hnand);
 874:./Libraries/STM32H7xx_HAL_Driver/Src/stm32h7xx_hal_nand.c **** 
 875:./Libraries/STM32H7xx_HAL_Driver/Src/stm32h7xx_hal_nand.c ****     /* Page(s) write loop */
 876:./Libraries/STM32H7xx_HAL_Driver/Src/stm32h7xx_hal_nand.c ****     while ((nbpages != 0U) && (nandaddress < ((hnand->Config.BlockSize) * (hnand->Config.BlockNbr))
 877:./Libraries/STM32H7xx_HAL_Driver/Src/stm32h7xx_hal_nand.c ****     {
 878:./Libraries/STM32H7xx_HAL_Driver/Src/stm32h7xx_hal_nand.c ****       /* Send write page command sequence */
 879:./Libraries/STM32H7xx_HAL_Driver/Src/stm32h7xx_hal_nand.c ****       *(__IO uint8_t *)((uint32_t)(deviceaddress | CMD_AREA)) = NAND_CMD_AREA_A;
 880:./Libraries/STM32H7xx_HAL_Driver/Src/stm32h7xx_hal_nand.c ****       __DSB();
 881:./Libraries/STM32H7xx_HAL_Driver/Src/stm32h7xx_hal_nand.c ****       *(__IO uint8_t *)((uint32_t)(deviceaddress | CMD_AREA)) = NAND_CMD_WRITE0;
 882:./Libraries/STM32H7xx_HAL_Driver/Src/stm32h7xx_hal_nand.c ****       __DSB();
 883:./Libraries/STM32H7xx_HAL_Driver/Src/stm32h7xx_hal_nand.c **** 
 884:./Libraries/STM32H7xx_HAL_Driver/Src/stm32h7xx_hal_nand.c ****       /* Cards with page size <= 512 bytes */
 885:./Libraries/STM32H7xx_HAL_Driver/Src/stm32h7xx_hal_nand.c ****       if ((hnand->Config.PageSize) <= 512U)
 886:./Libraries/STM32H7xx_HAL_Driver/Src/stm32h7xx_hal_nand.c ****       {
 887:./Libraries/STM32H7xx_HAL_Driver/Src/stm32h7xx_hal_nand.c ****         if (((hnand->Config.BlockSize) * (hnand->Config.BlockNbr)) <= 65535U)
 888:./Libraries/STM32H7xx_HAL_Driver/Src/stm32h7xx_hal_nand.c ****         {
 889:./Libraries/STM32H7xx_HAL_Driver/Src/stm32h7xx_hal_nand.c ****           *(__IO uint8_t *)((uint32_t)(deviceaddress | ADDR_AREA)) = 0x00U;
 890:./Libraries/STM32H7xx_HAL_Driver/Src/stm32h7xx_hal_nand.c ****           __DSB();
 891:./Libraries/STM32H7xx_HAL_Driver/Src/stm32h7xx_hal_nand.c ****           *(__IO uint8_t *)((uint32_t)(deviceaddress | ADDR_AREA)) = ADDR_1ST_CYCLE(nandaddress);
 892:./Libraries/STM32H7xx_HAL_Driver/Src/stm32h7xx_hal_nand.c ****           __DSB();
 893:./Libraries/STM32H7xx_HAL_Driver/Src/stm32h7xx_hal_nand.c ****           *(__IO uint8_t *)((uint32_t)(deviceaddress | ADDR_AREA)) = ADDR_2ND_CYCLE(nandaddress);
 894:./Libraries/STM32H7xx_HAL_Driver/Src/stm32h7xx_hal_nand.c ****           __DSB();
 895:./Libraries/STM32H7xx_HAL_Driver/Src/stm32h7xx_hal_nand.c ****         }
 896:./Libraries/STM32H7xx_HAL_Driver/Src/stm32h7xx_hal_nand.c ****         else /* ((hnand->Config.BlockSize)*(hnand->Config.BlockNbr)) > 65535 */
 897:./Libraries/STM32H7xx_HAL_Driver/Src/stm32h7xx_hal_nand.c ****         {
 898:./Libraries/STM32H7xx_HAL_Driver/Src/stm32h7xx_hal_nand.c ****           *(__IO uint8_t *)((uint32_t)(deviceaddress | ADDR_AREA)) = 0x00U;
 899:./Libraries/STM32H7xx_HAL_Driver/Src/stm32h7xx_hal_nand.c ****           __DSB();
 900:./Libraries/STM32H7xx_HAL_Driver/Src/stm32h7xx_hal_nand.c ****           *(__IO uint8_t *)((uint32_t)(deviceaddress | ADDR_AREA)) = ADDR_1ST_CYCLE(nandaddress);
 901:./Libraries/STM32H7xx_HAL_Driver/Src/stm32h7xx_hal_nand.c ****           __DSB();
 902:./Libraries/STM32H7xx_HAL_Driver/Src/stm32h7xx_hal_nand.c ****           *(__IO uint8_t *)((uint32_t)(deviceaddress | ADDR_AREA)) = ADDR_2ND_CYCLE(nandaddress);
 903:./Libraries/STM32H7xx_HAL_Driver/Src/stm32h7xx_hal_nand.c ****           __DSB();
 904:./Libraries/STM32H7xx_HAL_Driver/Src/stm32h7xx_hal_nand.c ****           *(__IO uint8_t *)((uint32_t)(deviceaddress | ADDR_AREA)) = ADDR_3RD_CYCLE(nandaddress);
 905:./Libraries/STM32H7xx_HAL_Driver/Src/stm32h7xx_hal_nand.c ****           __DSB();
 906:./Libraries/STM32H7xx_HAL_Driver/Src/stm32h7xx_hal_nand.c ****         }
 907:./Libraries/STM32H7xx_HAL_Driver/Src/stm32h7xx_hal_nand.c ****       }
 908:./Libraries/STM32H7xx_HAL_Driver/Src/stm32h7xx_hal_nand.c ****       else /* (hnand->Config.PageSize) > 512 */
 909:./Libraries/STM32H7xx_HAL_Driver/Src/stm32h7xx_hal_nand.c ****       {
 910:./Libraries/STM32H7xx_HAL_Driver/Src/stm32h7xx_hal_nand.c ****         if (((hnand->Config.BlockSize) * (hnand->Config.BlockNbr)) <= 65535U)
 911:./Libraries/STM32H7xx_HAL_Driver/Src/stm32h7xx_hal_nand.c ****         {
 912:./Libraries/STM32H7xx_HAL_Driver/Src/stm32h7xx_hal_nand.c ****           *(__IO uint8_t *)((uint32_t)(deviceaddress | ADDR_AREA)) = 0x00U;
ARM GAS  /tmp/cc5RRSLv.s 			page 58


 913:./Libraries/STM32H7xx_HAL_Driver/Src/stm32h7xx_hal_nand.c ****           __DSB();
 914:./Libraries/STM32H7xx_HAL_Driver/Src/stm32h7xx_hal_nand.c ****           *(__IO uint8_t *)((uint32_t)(deviceaddress | ADDR_AREA)) = 0x00U;
 915:./Libraries/STM32H7xx_HAL_Driver/Src/stm32h7xx_hal_nand.c ****           __DSB();
 916:./Libraries/STM32H7xx_HAL_Driver/Src/stm32h7xx_hal_nand.c ****           *(__IO uint8_t *)((uint32_t)(deviceaddress | ADDR_AREA)) = ADDR_1ST_CYCLE(nandaddress);
 917:./Libraries/STM32H7xx_HAL_Driver/Src/stm32h7xx_hal_nand.c ****           __DSB();
 918:./Libraries/STM32H7xx_HAL_Driver/Src/stm32h7xx_hal_nand.c ****           *(__IO uint8_t *)((uint32_t)(deviceaddress | ADDR_AREA)) = ADDR_2ND_CYCLE(nandaddress);
 919:./Libraries/STM32H7xx_HAL_Driver/Src/stm32h7xx_hal_nand.c ****           __DSB();
 920:./Libraries/STM32H7xx_HAL_Driver/Src/stm32h7xx_hal_nand.c ****         }
 921:./Libraries/STM32H7xx_HAL_Driver/Src/stm32h7xx_hal_nand.c ****         else /* ((hnand->Config.BlockSize)*(hnand->Config.BlockNbr)) > 65535 */
 922:./Libraries/STM32H7xx_HAL_Driver/Src/stm32h7xx_hal_nand.c ****         {
 923:./Libraries/STM32H7xx_HAL_Driver/Src/stm32h7xx_hal_nand.c ****           *(__IO uint8_t *)((uint32_t)(deviceaddress | ADDR_AREA)) = 0x00U;
 924:./Libraries/STM32H7xx_HAL_Driver/Src/stm32h7xx_hal_nand.c ****           __DSB();
 925:./Libraries/STM32H7xx_HAL_Driver/Src/stm32h7xx_hal_nand.c ****           *(__IO uint8_t *)((uint32_t)(deviceaddress | ADDR_AREA)) = 0x00U;
 926:./Libraries/STM32H7xx_HAL_Driver/Src/stm32h7xx_hal_nand.c ****           __DSB();
 927:./Libraries/STM32H7xx_HAL_Driver/Src/stm32h7xx_hal_nand.c ****           *(__IO uint8_t *)((uint32_t)(deviceaddress | ADDR_AREA)) = ADDR_1ST_CYCLE(nandaddress);
 928:./Libraries/STM32H7xx_HAL_Driver/Src/stm32h7xx_hal_nand.c ****           __DSB();
 929:./Libraries/STM32H7xx_HAL_Driver/Src/stm32h7xx_hal_nand.c ****           *(__IO uint8_t *)((uint32_t)(deviceaddress | ADDR_AREA)) = ADDR_2ND_CYCLE(nandaddress);
 930:./Libraries/STM32H7xx_HAL_Driver/Src/stm32h7xx_hal_nand.c ****           __DSB();
 931:./Libraries/STM32H7xx_HAL_Driver/Src/stm32h7xx_hal_nand.c ****           *(__IO uint8_t *)((uint32_t)(deviceaddress | ADDR_AREA)) = ADDR_3RD_CYCLE(nandaddress);
 932:./Libraries/STM32H7xx_HAL_Driver/Src/stm32h7xx_hal_nand.c ****           __DSB();
 933:./Libraries/STM32H7xx_HAL_Driver/Src/stm32h7xx_hal_nand.c ****         }
 934:./Libraries/STM32H7xx_HAL_Driver/Src/stm32h7xx_hal_nand.c ****       }
 935:./Libraries/STM32H7xx_HAL_Driver/Src/stm32h7xx_hal_nand.c **** 
 936:./Libraries/STM32H7xx_HAL_Driver/Src/stm32h7xx_hal_nand.c ****       /* Write data to memory */
 937:./Libraries/STM32H7xx_HAL_Driver/Src/stm32h7xx_hal_nand.c ****       for (index = 0U; index < hnand->Config.PageSize; index++)
 938:./Libraries/STM32H7xx_HAL_Driver/Src/stm32h7xx_hal_nand.c ****       {
 939:./Libraries/STM32H7xx_HAL_Driver/Src/stm32h7xx_hal_nand.c ****         *(__IO uint8_t *)deviceaddress = *buff;
 940:./Libraries/STM32H7xx_HAL_Driver/Src/stm32h7xx_hal_nand.c ****         buff++;
 941:./Libraries/STM32H7xx_HAL_Driver/Src/stm32h7xx_hal_nand.c ****         __DSB();
 942:./Libraries/STM32H7xx_HAL_Driver/Src/stm32h7xx_hal_nand.c ****       }
 943:./Libraries/STM32H7xx_HAL_Driver/Src/stm32h7xx_hal_nand.c **** 
 944:./Libraries/STM32H7xx_HAL_Driver/Src/stm32h7xx_hal_nand.c ****       *(__IO uint8_t *)((uint32_t)(deviceaddress | CMD_AREA)) = NAND_CMD_WRITE_TRUE1;
 945:./Libraries/STM32H7xx_HAL_Driver/Src/stm32h7xx_hal_nand.c ****       __DSB();
 946:./Libraries/STM32H7xx_HAL_Driver/Src/stm32h7xx_hal_nand.c **** 
 947:./Libraries/STM32H7xx_HAL_Driver/Src/stm32h7xx_hal_nand.c ****       /* Get tick */
 948:./Libraries/STM32H7xx_HAL_Driver/Src/stm32h7xx_hal_nand.c ****       tickstart = HAL_GetTick();
 949:./Libraries/STM32H7xx_HAL_Driver/Src/stm32h7xx_hal_nand.c **** 
 950:./Libraries/STM32H7xx_HAL_Driver/Src/stm32h7xx_hal_nand.c ****       /* Read status until NAND is ready */
 951:./Libraries/STM32H7xx_HAL_Driver/Src/stm32h7xx_hal_nand.c ****       while (HAL_NAND_Read_Status(hnand) != NAND_READY)
 952:./Libraries/STM32H7xx_HAL_Driver/Src/stm32h7xx_hal_nand.c ****       {
 953:./Libraries/STM32H7xx_HAL_Driver/Src/stm32h7xx_hal_nand.c ****         if ((HAL_GetTick() - tickstart) > NAND_WRITE_TIMEOUT)
 954:./Libraries/STM32H7xx_HAL_Driver/Src/stm32h7xx_hal_nand.c ****         {
 955:./Libraries/STM32H7xx_HAL_Driver/Src/stm32h7xx_hal_nand.c ****           /* Update the NAND controller state */
 956:./Libraries/STM32H7xx_HAL_Driver/Src/stm32h7xx_hal_nand.c ****           hnand->State = HAL_NAND_STATE_ERROR;
 957:./Libraries/STM32H7xx_HAL_Driver/Src/stm32h7xx_hal_nand.c **** 
 958:./Libraries/STM32H7xx_HAL_Driver/Src/stm32h7xx_hal_nand.c ****           /* Process unlocked */
 959:./Libraries/STM32H7xx_HAL_Driver/Src/stm32h7xx_hal_nand.c ****           __HAL_UNLOCK(hnand);
 960:./Libraries/STM32H7xx_HAL_Driver/Src/stm32h7xx_hal_nand.c **** 
 961:./Libraries/STM32H7xx_HAL_Driver/Src/stm32h7xx_hal_nand.c ****           return HAL_TIMEOUT;
 962:./Libraries/STM32H7xx_HAL_Driver/Src/stm32h7xx_hal_nand.c ****         }
 963:./Libraries/STM32H7xx_HAL_Driver/Src/stm32h7xx_hal_nand.c ****       }
 964:./Libraries/STM32H7xx_HAL_Driver/Src/stm32h7xx_hal_nand.c **** 
 965:./Libraries/STM32H7xx_HAL_Driver/Src/stm32h7xx_hal_nand.c ****       /* Increment written pages number */
 966:./Libraries/STM32H7xx_HAL_Driver/Src/stm32h7xx_hal_nand.c ****       numpageswritten++;
 967:./Libraries/STM32H7xx_HAL_Driver/Src/stm32h7xx_hal_nand.c **** 
 968:./Libraries/STM32H7xx_HAL_Driver/Src/stm32h7xx_hal_nand.c ****       /* Decrement pages to write */
 969:./Libraries/STM32H7xx_HAL_Driver/Src/stm32h7xx_hal_nand.c ****       nbpages--;
ARM GAS  /tmp/cc5RRSLv.s 			page 59


 970:./Libraries/STM32H7xx_HAL_Driver/Src/stm32h7xx_hal_nand.c **** 
 971:./Libraries/STM32H7xx_HAL_Driver/Src/stm32h7xx_hal_nand.c ****       /* Increment the NAND address */
 972:./Libraries/STM32H7xx_HAL_Driver/Src/stm32h7xx_hal_nand.c ****       nandaddress = (uint32_t)(nandaddress + 1U);
 973:./Libraries/STM32H7xx_HAL_Driver/Src/stm32h7xx_hal_nand.c ****     }
 974:./Libraries/STM32H7xx_HAL_Driver/Src/stm32h7xx_hal_nand.c **** 
 975:./Libraries/STM32H7xx_HAL_Driver/Src/stm32h7xx_hal_nand.c ****     /* Update the NAND controller state */
 976:./Libraries/STM32H7xx_HAL_Driver/Src/stm32h7xx_hal_nand.c ****     hnand->State = HAL_NAND_STATE_READY;
 977:./Libraries/STM32H7xx_HAL_Driver/Src/stm32h7xx_hal_nand.c **** 
 978:./Libraries/STM32H7xx_HAL_Driver/Src/stm32h7xx_hal_nand.c ****     /* Process unlocked */
 979:./Libraries/STM32H7xx_HAL_Driver/Src/stm32h7xx_hal_nand.c ****     __HAL_UNLOCK(hnand);
 980:./Libraries/STM32H7xx_HAL_Driver/Src/stm32h7xx_hal_nand.c ****   }
 981:./Libraries/STM32H7xx_HAL_Driver/Src/stm32h7xx_hal_nand.c ****   else
 982:./Libraries/STM32H7xx_HAL_Driver/Src/stm32h7xx_hal_nand.c ****   {
 983:./Libraries/STM32H7xx_HAL_Driver/Src/stm32h7xx_hal_nand.c ****     return HAL_ERROR;
 984:./Libraries/STM32H7xx_HAL_Driver/Src/stm32h7xx_hal_nand.c ****   }
 985:./Libraries/STM32H7xx_HAL_Driver/Src/stm32h7xx_hal_nand.c **** 
 986:./Libraries/STM32H7xx_HAL_Driver/Src/stm32h7xx_hal_nand.c ****   return HAL_OK;
 987:./Libraries/STM32H7xx_HAL_Driver/Src/stm32h7xx_hal_nand.c **** }
 988:./Libraries/STM32H7xx_HAL_Driver/Src/stm32h7xx_hal_nand.c **** 
 989:./Libraries/STM32H7xx_HAL_Driver/Src/stm32h7xx_hal_nand.c **** /**
 990:./Libraries/STM32H7xx_HAL_Driver/Src/stm32h7xx_hal_nand.c ****   * @brief  Write Page(s) to NAND memory block (16-bits addressing)
 991:./Libraries/STM32H7xx_HAL_Driver/Src/stm32h7xx_hal_nand.c ****   * @param  hnand pointer to a NAND_HandleTypeDef structure that contains
 992:./Libraries/STM32H7xx_HAL_Driver/Src/stm32h7xx_hal_nand.c ****   *                the configuration information for NAND module.
 993:./Libraries/STM32H7xx_HAL_Driver/Src/stm32h7xx_hal_nand.c ****   * @param  pAddress  pointer to NAND address structure
 994:./Libraries/STM32H7xx_HAL_Driver/Src/stm32h7xx_hal_nand.c ****   * @param  pBuffer  pointer to source buffer to write. pBuffer should be 16bits aligned
 995:./Libraries/STM32H7xx_HAL_Driver/Src/stm32h7xx_hal_nand.c ****   * @param  NumPageToWrite   number of pages to write to block
 996:./Libraries/STM32H7xx_HAL_Driver/Src/stm32h7xx_hal_nand.c ****   * @retval HAL status
 997:./Libraries/STM32H7xx_HAL_Driver/Src/stm32h7xx_hal_nand.c ****   */
 998:./Libraries/STM32H7xx_HAL_Driver/Src/stm32h7xx_hal_nand.c **** HAL_StatusTypeDef HAL_NAND_Write_Page_16b(NAND_HandleTypeDef *hnand, NAND_AddressTypeDef *pAddress,
 999:./Libraries/STM32H7xx_HAL_Driver/Src/stm32h7xx_hal_nand.c ****                                           uint32_t NumPageToWrite)
1000:./Libraries/STM32H7xx_HAL_Driver/Src/stm32h7xx_hal_nand.c **** {
1001:./Libraries/STM32H7xx_HAL_Driver/Src/stm32h7xx_hal_nand.c ****   uint32_t index;
1002:./Libraries/STM32H7xx_HAL_Driver/Src/stm32h7xx_hal_nand.c ****   uint32_t tickstart;
