ARM GAS  /tmp/ccV6RgLU.s 			page 1


   1              		.cpu cortex-m7
   2              		.eabi_attribute 28, 1
   3              		.eabi_attribute 20, 1
   4              		.eabi_attribute 21, 1
   5              		.eabi_attribute 23, 3
   6              		.eabi_attribute 24, 1
   7              		.eabi_attribute 25, 1
   8              		.eabi_attribute 26, 1
   9              		.eabi_attribute 30, 6
  10              		.eabi_attribute 34, 1
  11              		.eabi_attribute 18, 4
  12              		.file	"stm32h7xx_hal_crc.c"
  13              		.text
  14              	.Ltext0:
  15              		.cfi_sections	.debug_frame
  16              		.section	.text.HAL_CRC_Init,"ax",%progbits
  17              		.align	1
  18              		.global	HAL_CRC_Init
  19              		.arch armv7e-m
  20              		.syntax unified
  21              		.thumb
  22              		.thumb_func
  23              		.fpu fpv5-d16
  25              	HAL_CRC_Init:
  26              	.LFB331:
  27              		.file 1 "./Libraries/STM32H7xx_HAL_Driver/Src/stm32h7xx_hal_crc.c"
   1:./Libraries/STM32H7xx_HAL_Driver/Src/stm32h7xx_hal_crc.c **** /**
   2:./Libraries/STM32H7xx_HAL_Driver/Src/stm32h7xx_hal_crc.c ****   ******************************************************************************
   3:./Libraries/STM32H7xx_HAL_Driver/Src/stm32h7xx_hal_crc.c ****   * @file    stm32h7xx_hal_crc.c
   4:./Libraries/STM32H7xx_HAL_Driver/Src/stm32h7xx_hal_crc.c ****   * @author  MCD Application Team
   5:./Libraries/STM32H7xx_HAL_Driver/Src/stm32h7xx_hal_crc.c ****   * @brief   CRC HAL module driver.
   6:./Libraries/STM32H7xx_HAL_Driver/Src/stm32h7xx_hal_crc.c ****   *          This file provides firmware functions to manage the following
   7:./Libraries/STM32H7xx_HAL_Driver/Src/stm32h7xx_hal_crc.c ****   *          functionalities of the Cyclic Redundancy Check (CRC) peripheral:
   8:./Libraries/STM32H7xx_HAL_Driver/Src/stm32h7xx_hal_crc.c ****   *           + Initialization and de-initialization functions
   9:./Libraries/STM32H7xx_HAL_Driver/Src/stm32h7xx_hal_crc.c ****   *           + Peripheral Control functions
  10:./Libraries/STM32H7xx_HAL_Driver/Src/stm32h7xx_hal_crc.c ****   *           + Peripheral State functions
  11:./Libraries/STM32H7xx_HAL_Driver/Src/stm32h7xx_hal_crc.c ****   *
  12:./Libraries/STM32H7xx_HAL_Driver/Src/stm32h7xx_hal_crc.c ****   @verbatim
  13:./Libraries/STM32H7xx_HAL_Driver/Src/stm32h7xx_hal_crc.c ****  ===============================================================================
  14:./Libraries/STM32H7xx_HAL_Driver/Src/stm32h7xx_hal_crc.c ****                      ##### How to use this driver #####
  15:./Libraries/STM32H7xx_HAL_Driver/Src/stm32h7xx_hal_crc.c ****  ===============================================================================
  16:./Libraries/STM32H7xx_HAL_Driver/Src/stm32h7xx_hal_crc.c ****     [..]
  17:./Libraries/STM32H7xx_HAL_Driver/Src/stm32h7xx_hal_crc.c ****          (+) Enable CRC AHB clock using __HAL_RCC_CRC_CLK_ENABLE();
  18:./Libraries/STM32H7xx_HAL_Driver/Src/stm32h7xx_hal_crc.c ****          (+) Initialize CRC calculator
  19:./Libraries/STM32H7xx_HAL_Driver/Src/stm32h7xx_hal_crc.c ****              (++) specify generating polynomial (peripheral default or non-default one)
  20:./Libraries/STM32H7xx_HAL_Driver/Src/stm32h7xx_hal_crc.c ****              (++) specify initialization value (peripheral default or non-default one)
  21:./Libraries/STM32H7xx_HAL_Driver/Src/stm32h7xx_hal_crc.c ****              (++) specify input data format
  22:./Libraries/STM32H7xx_HAL_Driver/Src/stm32h7xx_hal_crc.c ****              (++) specify input or output data inversion mode if any
  23:./Libraries/STM32H7xx_HAL_Driver/Src/stm32h7xx_hal_crc.c ****          (+) Use HAL_CRC_Accumulate() function to compute the CRC value of the
  24:./Libraries/STM32H7xx_HAL_Driver/Src/stm32h7xx_hal_crc.c ****              input data buffer starting with the previously computed CRC as
  25:./Libraries/STM32H7xx_HAL_Driver/Src/stm32h7xx_hal_crc.c ****              initialization value
  26:./Libraries/STM32H7xx_HAL_Driver/Src/stm32h7xx_hal_crc.c ****          (+) Use HAL_CRC_Calculate() function to compute the CRC value of the
  27:./Libraries/STM32H7xx_HAL_Driver/Src/stm32h7xx_hal_crc.c ****              input data buffer starting with the defined initialization value
  28:./Libraries/STM32H7xx_HAL_Driver/Src/stm32h7xx_hal_crc.c ****              (default or non-default) to initiate CRC calculation
  29:./Libraries/STM32H7xx_HAL_Driver/Src/stm32h7xx_hal_crc.c **** 
  30:./Libraries/STM32H7xx_HAL_Driver/Src/stm32h7xx_hal_crc.c ****   @endverbatim
  31:./Libraries/STM32H7xx_HAL_Driver/Src/stm32h7xx_hal_crc.c ****   ******************************************************************************
ARM GAS  /tmp/ccV6RgLU.s 			page 2


  32:./Libraries/STM32H7xx_HAL_Driver/Src/stm32h7xx_hal_crc.c ****   * @attention
  33:./Libraries/STM32H7xx_HAL_Driver/Src/stm32h7xx_hal_crc.c ****   *
  34:./Libraries/STM32H7xx_HAL_Driver/Src/stm32h7xx_hal_crc.c ****   * <h2><center>&copy; Copyright (c) 2017 STMicroelectronics.
  35:./Libraries/STM32H7xx_HAL_Driver/Src/stm32h7xx_hal_crc.c ****   * All rights reserved.</center></h2>
  36:./Libraries/STM32H7xx_HAL_Driver/Src/stm32h7xx_hal_crc.c ****   *
  37:./Libraries/STM32H7xx_HAL_Driver/Src/stm32h7xx_hal_crc.c ****   * This software component is licensed by ST under BSD 3-Clause license,
  38:./Libraries/STM32H7xx_HAL_Driver/Src/stm32h7xx_hal_crc.c ****   * the "License"; You may not use this file except in compliance with the
  39:./Libraries/STM32H7xx_HAL_Driver/Src/stm32h7xx_hal_crc.c ****   * License. You may obtain a copy of the License at:
  40:./Libraries/STM32H7xx_HAL_Driver/Src/stm32h7xx_hal_crc.c ****   *                        opensource.org/licenses/BSD-3-Clause
  41:./Libraries/STM32H7xx_HAL_Driver/Src/stm32h7xx_hal_crc.c ****   *
  42:./Libraries/STM32H7xx_HAL_Driver/Src/stm32h7xx_hal_crc.c ****   ******************************************************************************
  43:./Libraries/STM32H7xx_HAL_Driver/Src/stm32h7xx_hal_crc.c ****   */
  44:./Libraries/STM32H7xx_HAL_Driver/Src/stm32h7xx_hal_crc.c **** 
  45:./Libraries/STM32H7xx_HAL_Driver/Src/stm32h7xx_hal_crc.c **** /* Includes ------------------------------------------------------------------*/
  46:./Libraries/STM32H7xx_HAL_Driver/Src/stm32h7xx_hal_crc.c **** #include "stm32h7xx_hal.h"
  47:./Libraries/STM32H7xx_HAL_Driver/Src/stm32h7xx_hal_crc.c **** 
  48:./Libraries/STM32H7xx_HAL_Driver/Src/stm32h7xx_hal_crc.c **** /** @addtogroup STM32H7xx_HAL_Driver
  49:./Libraries/STM32H7xx_HAL_Driver/Src/stm32h7xx_hal_crc.c ****   * @{
  50:./Libraries/STM32H7xx_HAL_Driver/Src/stm32h7xx_hal_crc.c ****   */
  51:./Libraries/STM32H7xx_HAL_Driver/Src/stm32h7xx_hal_crc.c **** 
  52:./Libraries/STM32H7xx_HAL_Driver/Src/stm32h7xx_hal_crc.c **** /** @defgroup CRC CRC
  53:./Libraries/STM32H7xx_HAL_Driver/Src/stm32h7xx_hal_crc.c ****   * @brief CRC HAL module driver.
  54:./Libraries/STM32H7xx_HAL_Driver/Src/stm32h7xx_hal_crc.c ****   * @{
  55:./Libraries/STM32H7xx_HAL_Driver/Src/stm32h7xx_hal_crc.c ****   */
  56:./Libraries/STM32H7xx_HAL_Driver/Src/stm32h7xx_hal_crc.c **** 
  57:./Libraries/STM32H7xx_HAL_Driver/Src/stm32h7xx_hal_crc.c **** #ifdef HAL_CRC_MODULE_ENABLED
  58:./Libraries/STM32H7xx_HAL_Driver/Src/stm32h7xx_hal_crc.c **** 
  59:./Libraries/STM32H7xx_HAL_Driver/Src/stm32h7xx_hal_crc.c **** /* Private typedef -----------------------------------------------------------*/
  60:./Libraries/STM32H7xx_HAL_Driver/Src/stm32h7xx_hal_crc.c **** /* Private define ------------------------------------------------------------*/
  61:./Libraries/STM32H7xx_HAL_Driver/Src/stm32h7xx_hal_crc.c **** /* Private macro -------------------------------------------------------------*/
  62:./Libraries/STM32H7xx_HAL_Driver/Src/stm32h7xx_hal_crc.c **** /* Private variables ---------------------------------------------------------*/
  63:./Libraries/STM32H7xx_HAL_Driver/Src/stm32h7xx_hal_crc.c **** /* Private function prototypes -----------------------------------------------*/
  64:./Libraries/STM32H7xx_HAL_Driver/Src/stm32h7xx_hal_crc.c **** /** @defgroup CRC_Private_Functions CRC Private Functions
  65:./Libraries/STM32H7xx_HAL_Driver/Src/stm32h7xx_hal_crc.c ****  * @{
  66:./Libraries/STM32H7xx_HAL_Driver/Src/stm32h7xx_hal_crc.c ****  */
  67:./Libraries/STM32H7xx_HAL_Driver/Src/stm32h7xx_hal_crc.c **** static uint32_t CRC_Handle_8(CRC_HandleTypeDef *hcrc, uint8_t pBuffer[], uint32_t BufferLength);
  68:./Libraries/STM32H7xx_HAL_Driver/Src/stm32h7xx_hal_crc.c **** static uint32_t CRC_Handle_16(CRC_HandleTypeDef *hcrc, uint16_t pBuffer[], uint32_t BufferLength);
  69:./Libraries/STM32H7xx_HAL_Driver/Src/stm32h7xx_hal_crc.c **** /**
  70:./Libraries/STM32H7xx_HAL_Driver/Src/stm32h7xx_hal_crc.c ****   * @}
  71:./Libraries/STM32H7xx_HAL_Driver/Src/stm32h7xx_hal_crc.c ****   */
  72:./Libraries/STM32H7xx_HAL_Driver/Src/stm32h7xx_hal_crc.c **** 
  73:./Libraries/STM32H7xx_HAL_Driver/Src/stm32h7xx_hal_crc.c **** /* Exported functions --------------------------------------------------------*/
  74:./Libraries/STM32H7xx_HAL_Driver/Src/stm32h7xx_hal_crc.c **** 
  75:./Libraries/STM32H7xx_HAL_Driver/Src/stm32h7xx_hal_crc.c **** /** @defgroup CRC_Exported_Functions CRC Exported Functions
  76:./Libraries/STM32H7xx_HAL_Driver/Src/stm32h7xx_hal_crc.c ****   * @{
  77:./Libraries/STM32H7xx_HAL_Driver/Src/stm32h7xx_hal_crc.c ****   */
  78:./Libraries/STM32H7xx_HAL_Driver/Src/stm32h7xx_hal_crc.c **** 
  79:./Libraries/STM32H7xx_HAL_Driver/Src/stm32h7xx_hal_crc.c **** /** @defgroup CRC_Exported_Functions_Group1 Initialization and de-initialization functions
  80:./Libraries/STM32H7xx_HAL_Driver/Src/stm32h7xx_hal_crc.c ****  *  @brief    Initialization and Configuration functions.
  81:./Libraries/STM32H7xx_HAL_Driver/Src/stm32h7xx_hal_crc.c ****  *
  82:./Libraries/STM32H7xx_HAL_Driver/Src/stm32h7xx_hal_crc.c **** @verbatim
  83:./Libraries/STM32H7xx_HAL_Driver/Src/stm32h7xx_hal_crc.c ****  ===============================================================================
  84:./Libraries/STM32H7xx_HAL_Driver/Src/stm32h7xx_hal_crc.c ****             ##### Initialization and de-initialization functions #####
  85:./Libraries/STM32H7xx_HAL_Driver/Src/stm32h7xx_hal_crc.c ****  ===============================================================================
  86:./Libraries/STM32H7xx_HAL_Driver/Src/stm32h7xx_hal_crc.c ****     [..]  This section provides functions allowing to:
  87:./Libraries/STM32H7xx_HAL_Driver/Src/stm32h7xx_hal_crc.c ****       (+) Initialize the CRC according to the specified parameters
  88:./Libraries/STM32H7xx_HAL_Driver/Src/stm32h7xx_hal_crc.c ****           in the CRC_InitTypeDef and create the associated handle
ARM GAS  /tmp/ccV6RgLU.s 			page 3


  89:./Libraries/STM32H7xx_HAL_Driver/Src/stm32h7xx_hal_crc.c ****       (+) DeInitialize the CRC peripheral
  90:./Libraries/STM32H7xx_HAL_Driver/Src/stm32h7xx_hal_crc.c ****       (+) Initialize the CRC MSP (MCU Specific Package)
  91:./Libraries/STM32H7xx_HAL_Driver/Src/stm32h7xx_hal_crc.c ****       (+) DeInitialize the CRC MSP
  92:./Libraries/STM32H7xx_HAL_Driver/Src/stm32h7xx_hal_crc.c **** 
  93:./Libraries/STM32H7xx_HAL_Driver/Src/stm32h7xx_hal_crc.c **** @endverbatim
  94:./Libraries/STM32H7xx_HAL_Driver/Src/stm32h7xx_hal_crc.c ****   * @{
  95:./Libraries/STM32H7xx_HAL_Driver/Src/stm32h7xx_hal_crc.c ****   */
  96:./Libraries/STM32H7xx_HAL_Driver/Src/stm32h7xx_hal_crc.c **** 
  97:./Libraries/STM32H7xx_HAL_Driver/Src/stm32h7xx_hal_crc.c **** /**
  98:./Libraries/STM32H7xx_HAL_Driver/Src/stm32h7xx_hal_crc.c ****   * @brief  Initialize the CRC according to the specified
  99:./Libraries/STM32H7xx_HAL_Driver/Src/stm32h7xx_hal_crc.c ****   *         parameters in the CRC_InitTypeDef and create the associated handle.
 100:./Libraries/STM32H7xx_HAL_Driver/Src/stm32h7xx_hal_crc.c ****   * @param  hcrc CRC handle
 101:./Libraries/STM32H7xx_HAL_Driver/Src/stm32h7xx_hal_crc.c ****   * @retval HAL status
 102:./Libraries/STM32H7xx_HAL_Driver/Src/stm32h7xx_hal_crc.c ****   */
 103:./Libraries/STM32H7xx_HAL_Driver/Src/stm32h7xx_hal_crc.c **** HAL_StatusTypeDef HAL_CRC_Init(CRC_HandleTypeDef *hcrc)
 104:./Libraries/STM32H7xx_HAL_Driver/Src/stm32h7xx_hal_crc.c **** {
  28              		.loc 1 104 1
  29              		.cfi_startproc
  30              		@ args = 0, pretend = 0, frame = 8
  31              		@ frame_needed = 1, uses_anonymous_args = 0
  32 0000 80B5     		push	{r7, lr}
  33              	.LCFI0:
  34              		.cfi_def_cfa_offset 8
  35              		.cfi_offset 7, -8
  36              		.cfi_offset 14, -4
  37 0002 82B0     		sub	sp, sp, #8
  38              	.LCFI1:
  39              		.cfi_def_cfa_offset 16
  40 0004 00AF     		add	r7, sp, #0
  41              	.LCFI2:
  42              		.cfi_def_cfa_register 7
  43 0006 7860     		str	r0, [r7, #4]
 105:./Libraries/STM32H7xx_HAL_Driver/Src/stm32h7xx_hal_crc.c ****   /* Check the CRC handle allocation */
 106:./Libraries/STM32H7xx_HAL_Driver/Src/stm32h7xx_hal_crc.c ****   if (hcrc == NULL)
  44              		.loc 1 106 6
  45 0008 7B68     		ldr	r3, [r7, #4]
  46 000a 002B     		cmp	r3, #0
  47 000c 01D1     		bne	.L2
 107:./Libraries/STM32H7xx_HAL_Driver/Src/stm32h7xx_hal_crc.c ****   {
 108:./Libraries/STM32H7xx_HAL_Driver/Src/stm32h7xx_hal_crc.c ****     return HAL_ERROR;
  48              		.loc 1 108 12
  49 000e 0123     		movs	r3, #1
  50 0010 54E0     		b	.L3
  51              	.L2:
 109:./Libraries/STM32H7xx_HAL_Driver/Src/stm32h7xx_hal_crc.c ****   }
 110:./Libraries/STM32H7xx_HAL_Driver/Src/stm32h7xx_hal_crc.c **** 
 111:./Libraries/STM32H7xx_HAL_Driver/Src/stm32h7xx_hal_crc.c ****   /* Check the parameters */
 112:./Libraries/STM32H7xx_HAL_Driver/Src/stm32h7xx_hal_crc.c ****   assert_param(IS_CRC_ALL_INSTANCE(hcrc->Instance));
 113:./Libraries/STM32H7xx_HAL_Driver/Src/stm32h7xx_hal_crc.c **** 
 114:./Libraries/STM32H7xx_HAL_Driver/Src/stm32h7xx_hal_crc.c ****   if (hcrc->State == HAL_CRC_STATE_RESET)
  52              		.loc 1 114 11
  53 0012 7B68     		ldr	r3, [r7, #4]
  54 0014 5B7F     		ldrb	r3, [r3, #29]
  55 0016 DBB2     		uxtb	r3, r3
  56              		.loc 1 114 6
  57 0018 002B     		cmp	r3, #0
  58 001a 05D1     		bne	.L4
ARM GAS  /tmp/ccV6RgLU.s 			page 4


 115:./Libraries/STM32H7xx_HAL_Driver/Src/stm32h7xx_hal_crc.c ****   {
 116:./Libraries/STM32H7xx_HAL_Driver/Src/stm32h7xx_hal_crc.c ****     /* Allocate lock resource and initialize it */
 117:./Libraries/STM32H7xx_HAL_Driver/Src/stm32h7xx_hal_crc.c ****     hcrc->Lock = HAL_UNLOCKED;
  59              		.loc 1 117 16
  60 001c 7B68     		ldr	r3, [r7, #4]
  61 001e 0022     		movs	r2, #0
  62 0020 1A77     		strb	r2, [r3, #28]
 118:./Libraries/STM32H7xx_HAL_Driver/Src/stm32h7xx_hal_crc.c ****     /* Init the low level hardware */
 119:./Libraries/STM32H7xx_HAL_Driver/Src/stm32h7xx_hal_crc.c ****     HAL_CRC_MspInit(hcrc);
  63              		.loc 1 119 5
  64 0022 7868     		ldr	r0, [r7, #4]
  65 0024 FFF7FEFF 		bl	HAL_CRC_MspInit
  66              	.L4:
 120:./Libraries/STM32H7xx_HAL_Driver/Src/stm32h7xx_hal_crc.c ****   }
 121:./Libraries/STM32H7xx_HAL_Driver/Src/stm32h7xx_hal_crc.c **** 
 122:./Libraries/STM32H7xx_HAL_Driver/Src/stm32h7xx_hal_crc.c ****   hcrc->State = HAL_CRC_STATE_BUSY;
  67              		.loc 1 122 15
  68 0028 7B68     		ldr	r3, [r7, #4]
  69 002a 0222     		movs	r2, #2
  70 002c 5A77     		strb	r2, [r3, #29]
 123:./Libraries/STM32H7xx_HAL_Driver/Src/stm32h7xx_hal_crc.c **** 
 124:./Libraries/STM32H7xx_HAL_Driver/Src/stm32h7xx_hal_crc.c ****   /* check whether or not non-default generating polynomial has been
 125:./Libraries/STM32H7xx_HAL_Driver/Src/stm32h7xx_hal_crc.c ****    * picked up by user */
 126:./Libraries/STM32H7xx_HAL_Driver/Src/stm32h7xx_hal_crc.c ****   assert_param(IS_DEFAULT_POLYNOMIAL(hcrc->Init.DefaultPolynomialUse));
 127:./Libraries/STM32H7xx_HAL_Driver/Src/stm32h7xx_hal_crc.c ****   if (hcrc->Init.DefaultPolynomialUse == DEFAULT_POLYNOMIAL_ENABLE)
  71              		.loc 1 127 17
  72 002e 7B68     		ldr	r3, [r7, #4]
  73 0030 1B79     		ldrb	r3, [r3, #4]	@ zero_extendqisi2
  74              		.loc 1 127 6
  75 0032 002B     		cmp	r3, #0
  76 0034 0CD1     		bne	.L5
 128:./Libraries/STM32H7xx_HAL_Driver/Src/stm32h7xx_hal_crc.c ****   {
 129:./Libraries/STM32H7xx_HAL_Driver/Src/stm32h7xx_hal_crc.c ****     /* initialize peripheral with default generating polynomial */
 130:./Libraries/STM32H7xx_HAL_Driver/Src/stm32h7xx_hal_crc.c ****     WRITE_REG(hcrc->Instance->POL, DEFAULT_CRC32_POLY);
  77              		.loc 1 130 5
  78 0036 7B68     		ldr	r3, [r7, #4]
  79 0038 1B68     		ldr	r3, [r3]
  80 003a 224A     		ldr	r2, .L9
  81 003c 5A61     		str	r2, [r3, #20]
 131:./Libraries/STM32H7xx_HAL_Driver/Src/stm32h7xx_hal_crc.c ****     MODIFY_REG(hcrc->Instance->CR, CRC_CR_POLYSIZE, CRC_POLYLENGTH_32B);
  82              		.loc 1 131 5
  83 003e 7B68     		ldr	r3, [r7, #4]
  84 0040 1B68     		ldr	r3, [r3]
  85 0042 9A68     		ldr	r2, [r3, #8]
  86 0044 7B68     		ldr	r3, [r7, #4]
  87 0046 1B68     		ldr	r3, [r3]
  88 0048 22F01802 		bic	r2, r2, #24
  89 004c 9A60     		str	r2, [r3, #8]
  90 004e 0CE0     		b	.L6
  91              	.L5:
 132:./Libraries/STM32H7xx_HAL_Driver/Src/stm32h7xx_hal_crc.c ****   }
 133:./Libraries/STM32H7xx_HAL_Driver/Src/stm32h7xx_hal_crc.c ****   else
 134:./Libraries/STM32H7xx_HAL_Driver/Src/stm32h7xx_hal_crc.c ****   {
 135:./Libraries/STM32H7xx_HAL_Driver/Src/stm32h7xx_hal_crc.c ****     /* initialize CRC peripheral with generating polynomial defined by user */
 136:./Libraries/STM32H7xx_HAL_Driver/Src/stm32h7xx_hal_crc.c ****     if (HAL_CRCEx_Polynomial_Set(hcrc, hcrc->Init.GeneratingPolynomial, hcrc->Init.CRCLength) != HA
  92              		.loc 1 136 9
  93 0050 7B68     		ldr	r3, [r7, #4]
ARM GAS  /tmp/ccV6RgLU.s 			page 5


  94 0052 9968     		ldr	r1, [r3, #8]
  95 0054 7B68     		ldr	r3, [r7, #4]
  96 0056 DB68     		ldr	r3, [r3, #12]
  97 0058 1A46     		mov	r2, r3
  98 005a 7868     		ldr	r0, [r7, #4]
  99 005c FFF7FEFF 		bl	HAL_CRCEx_Polynomial_Set
 100 0060 0346     		mov	r3, r0
 101              		.loc 1 136 8
 102 0062 002B     		cmp	r3, #0
 103 0064 01D0     		beq	.L6
 137:./Libraries/STM32H7xx_HAL_Driver/Src/stm32h7xx_hal_crc.c ****     {
 138:./Libraries/STM32H7xx_HAL_Driver/Src/stm32h7xx_hal_crc.c ****       return HAL_ERROR;
 104              		.loc 1 138 14
 105 0066 0123     		movs	r3, #1
 106 0068 28E0     		b	.L3
 107              	.L6:
 139:./Libraries/STM32H7xx_HAL_Driver/Src/stm32h7xx_hal_crc.c ****     }
 140:./Libraries/STM32H7xx_HAL_Driver/Src/stm32h7xx_hal_crc.c ****   }
 141:./Libraries/STM32H7xx_HAL_Driver/Src/stm32h7xx_hal_crc.c **** 
 142:./Libraries/STM32H7xx_HAL_Driver/Src/stm32h7xx_hal_crc.c ****   /* check whether or not non-default CRC initial value has been
 143:./Libraries/STM32H7xx_HAL_Driver/Src/stm32h7xx_hal_crc.c ****    * picked up by user */
 144:./Libraries/STM32H7xx_HAL_Driver/Src/stm32h7xx_hal_crc.c ****   assert_param(IS_DEFAULT_INIT_VALUE(hcrc->Init.DefaultInitValueUse));
 145:./Libraries/STM32H7xx_HAL_Driver/Src/stm32h7xx_hal_crc.c ****   if (hcrc->Init.DefaultInitValueUse == DEFAULT_INIT_VALUE_ENABLE)
 108              		.loc 1 145 17
 109 006a 7B68     		ldr	r3, [r7, #4]
 110 006c 5B79     		ldrb	r3, [r3, #5]	@ zero_extendqisi2
 111              		.loc 1 145 6
 112 006e 002B     		cmp	r3, #0
 113 0070 05D1     		bne	.L7
 146:./Libraries/STM32H7xx_HAL_Driver/Src/stm32h7xx_hal_crc.c ****   {
 147:./Libraries/STM32H7xx_HAL_Driver/Src/stm32h7xx_hal_crc.c ****     WRITE_REG(hcrc->Instance->INIT, DEFAULT_CRC_INITVALUE);
 114              		.loc 1 147 5
 115 0072 7B68     		ldr	r3, [r7, #4]
 116 0074 1B68     		ldr	r3, [r3]
 117 0076 4FF0FF32 		mov	r2, #-1
 118 007a 1A61     		str	r2, [r3, #16]
 119 007c 04E0     		b	.L8
 120              	.L7:
 148:./Libraries/STM32H7xx_HAL_Driver/Src/stm32h7xx_hal_crc.c ****   }
 149:./Libraries/STM32H7xx_HAL_Driver/Src/stm32h7xx_hal_crc.c ****   else
 150:./Libraries/STM32H7xx_HAL_Driver/Src/stm32h7xx_hal_crc.c ****   {
 151:./Libraries/STM32H7xx_HAL_Driver/Src/stm32h7xx_hal_crc.c ****     WRITE_REG(hcrc->Instance->INIT, hcrc->Init.InitValue);
 121              		.loc 1 151 5
 122 007e 7B68     		ldr	r3, [r7, #4]
 123 0080 1B68     		ldr	r3, [r3]
 124 0082 7A68     		ldr	r2, [r7, #4]
 125 0084 1269     		ldr	r2, [r2, #16]
 126 0086 1A61     		str	r2, [r3, #16]
 127              	.L8:
 152:./Libraries/STM32H7xx_HAL_Driver/Src/stm32h7xx_hal_crc.c ****   }
 153:./Libraries/STM32H7xx_HAL_Driver/Src/stm32h7xx_hal_crc.c **** 
 154:./Libraries/STM32H7xx_HAL_Driver/Src/stm32h7xx_hal_crc.c **** 
 155:./Libraries/STM32H7xx_HAL_Driver/Src/stm32h7xx_hal_crc.c ****   /* set input data inversion mode */
 156:./Libraries/STM32H7xx_HAL_Driver/Src/stm32h7xx_hal_crc.c ****   assert_param(IS_CRC_INPUTDATA_INVERSION_MODE(hcrc->Init.InputDataInversionMode));
 157:./Libraries/STM32H7xx_HAL_Driver/Src/stm32h7xx_hal_crc.c ****   MODIFY_REG(hcrc->Instance->CR, CRC_CR_REV_IN, hcrc->Init.InputDataInversionMode);
 128              		.loc 1 157 3
 129 0088 7B68     		ldr	r3, [r7, #4]
ARM GAS  /tmp/ccV6RgLU.s 			page 6


 130 008a 1B68     		ldr	r3, [r3]
 131 008c 9B68     		ldr	r3, [r3, #8]
 132 008e 23F06001 		bic	r1, r3, #96
 133 0092 7B68     		ldr	r3, [r7, #4]
 134 0094 5A69     		ldr	r2, [r3, #20]
 135 0096 7B68     		ldr	r3, [r7, #4]
 136 0098 1B68     		ldr	r3, [r3]
 137 009a 0A43     		orrs	r2, r2, r1
 138 009c 9A60     		str	r2, [r3, #8]
 158:./Libraries/STM32H7xx_HAL_Driver/Src/stm32h7xx_hal_crc.c **** 
 159:./Libraries/STM32H7xx_HAL_Driver/Src/stm32h7xx_hal_crc.c ****   /* set output data inversion mode */
 160:./Libraries/STM32H7xx_HAL_Driver/Src/stm32h7xx_hal_crc.c ****   assert_param(IS_CRC_OUTPUTDATA_INVERSION_MODE(hcrc->Init.OutputDataInversionMode));
 161:./Libraries/STM32H7xx_HAL_Driver/Src/stm32h7xx_hal_crc.c ****   MODIFY_REG(hcrc->Instance->CR, CRC_CR_REV_OUT, hcrc->Init.OutputDataInversionMode);
 139              		.loc 1 161 3
 140 009e 7B68     		ldr	r3, [r7, #4]
 141 00a0 1B68     		ldr	r3, [r3]
 142 00a2 9B68     		ldr	r3, [r3, #8]
 143 00a4 23F08001 		bic	r1, r3, #128
 144 00a8 7B68     		ldr	r3, [r7, #4]
 145 00aa 9A69     		ldr	r2, [r3, #24]
 146 00ac 7B68     		ldr	r3, [r7, #4]
 147 00ae 1B68     		ldr	r3, [r3]
 148 00b0 0A43     		orrs	r2, r2, r1
 149 00b2 9A60     		str	r2, [r3, #8]
 162:./Libraries/STM32H7xx_HAL_Driver/Src/stm32h7xx_hal_crc.c **** 
 163:./Libraries/STM32H7xx_HAL_Driver/Src/stm32h7xx_hal_crc.c ****   /* makes sure the input data format (bytes, halfwords or words stream)
 164:./Libraries/STM32H7xx_HAL_Driver/Src/stm32h7xx_hal_crc.c ****    * is properly specified by user */
 165:./Libraries/STM32H7xx_HAL_Driver/Src/stm32h7xx_hal_crc.c ****   assert_param(IS_CRC_INPUTDATA_FORMAT(hcrc->InputDataFormat));
 166:./Libraries/STM32H7xx_HAL_Driver/Src/stm32h7xx_hal_crc.c **** 
 167:./Libraries/STM32H7xx_HAL_Driver/Src/stm32h7xx_hal_crc.c ****   /* Change CRC peripheral state */
 168:./Libraries/STM32H7xx_HAL_Driver/Src/stm32h7xx_hal_crc.c ****   hcrc->State = HAL_CRC_STATE_READY;
 150              		.loc 1 168 15
 151 00b4 7B68     		ldr	r3, [r7, #4]
 152 00b6 0122     		movs	r2, #1
 153 00b8 5A77     		strb	r2, [r3, #29]
 169:./Libraries/STM32H7xx_HAL_Driver/Src/stm32h7xx_hal_crc.c **** 
 170:./Libraries/STM32H7xx_HAL_Driver/Src/stm32h7xx_hal_crc.c ****   /* Return function status */
 171:./Libraries/STM32H7xx_HAL_Driver/Src/stm32h7xx_hal_crc.c ****   return HAL_OK;
 154              		.loc 1 171 10
 155 00ba 0023     		movs	r3, #0
 156              	.L3:
 172:./Libraries/STM32H7xx_HAL_Driver/Src/stm32h7xx_hal_crc.c **** }
 157              		.loc 1 172 1
 158 00bc 1846     		mov	r0, r3
 159 00be 0837     		adds	r7, r7, #8
 160              	.LCFI3:
 161              		.cfi_def_cfa_offset 8
 162 00c0 BD46     		mov	sp, r7
 163              	.LCFI4:
 164              		.cfi_def_cfa_register 13
 165              		@ sp needed
 166 00c2 80BD     		pop	{r7, pc}
 167              	.L10:
 168              		.align	2
 169              	.L9:
 170 00c4 B71DC104 		.word	79764919
 171              		.cfi_endproc
ARM GAS  /tmp/ccV6RgLU.s 			page 7


 172              	.LFE331:
 174              		.section	.text.HAL_CRC_DeInit,"ax",%progbits
 175              		.align	1
 176              		.global	HAL_CRC_DeInit
 177              		.syntax unified
 178              		.thumb
 179              		.thumb_func
 180              		.fpu fpv5-d16
 182              	HAL_CRC_DeInit:
 183              	.LFB332:
 173:./Libraries/STM32H7xx_HAL_Driver/Src/stm32h7xx_hal_crc.c **** 
 174:./Libraries/STM32H7xx_HAL_Driver/Src/stm32h7xx_hal_crc.c **** /**
 175:./Libraries/STM32H7xx_HAL_Driver/Src/stm32h7xx_hal_crc.c ****   * @brief  DeInitialize the CRC peripheral.
 176:./Libraries/STM32H7xx_HAL_Driver/Src/stm32h7xx_hal_crc.c ****   * @param  hcrc CRC handle
 177:./Libraries/STM32H7xx_HAL_Driver/Src/stm32h7xx_hal_crc.c ****   * @retval HAL status
 178:./Libraries/STM32H7xx_HAL_Driver/Src/stm32h7xx_hal_crc.c ****   */
 179:./Libraries/STM32H7xx_HAL_Driver/Src/stm32h7xx_hal_crc.c **** HAL_StatusTypeDef HAL_CRC_DeInit(CRC_HandleTypeDef *hcrc)
 180:./Libraries/STM32H7xx_HAL_Driver/Src/stm32h7xx_hal_crc.c **** {
 184              		.loc 1 180 1
 185              		.cfi_startproc
 186              		@ args = 0, pretend = 0, frame = 8
 187              		@ frame_needed = 1, uses_anonymous_args = 0
 188 0000 80B5     		push	{r7, lr}
 189              	.LCFI5:
 190              		.cfi_def_cfa_offset 8
 191              		.cfi_offset 7, -8
 192              		.cfi_offset 14, -4
 193 0002 82B0     		sub	sp, sp, #8
 194              	.LCFI6:
 195              		.cfi_def_cfa_offset 16
 196 0004 00AF     		add	r7, sp, #0
 197              	.LCFI7:
 198              		.cfi_def_cfa_register 7
 199 0006 7860     		str	r0, [r7, #4]
 181:./Libraries/STM32H7xx_HAL_Driver/Src/stm32h7xx_hal_crc.c ****   /* Check the CRC handle allocation */
 182:./Libraries/STM32H7xx_HAL_Driver/Src/stm32h7xx_hal_crc.c ****   if (hcrc == NULL)
 200              		.loc 1 182 6
 201 0008 7B68     		ldr	r3, [r7, #4]
 202 000a 002B     		cmp	r3, #0
 203 000c 01D1     		bne	.L12
 183:./Libraries/STM32H7xx_HAL_Driver/Src/stm32h7xx_hal_crc.c ****   {
 184:./Libraries/STM32H7xx_HAL_Driver/Src/stm32h7xx_hal_crc.c ****     return HAL_ERROR;
 204              		.loc 1 184 12
 205 000e 0123     		movs	r3, #1
 206 0010 22E0     		b	.L13
 207              	.L12:
 185:./Libraries/STM32H7xx_HAL_Driver/Src/stm32h7xx_hal_crc.c ****   }
 186:./Libraries/STM32H7xx_HAL_Driver/Src/stm32h7xx_hal_crc.c **** 
 187:./Libraries/STM32H7xx_HAL_Driver/Src/stm32h7xx_hal_crc.c ****   /* Check the parameters */
 188:./Libraries/STM32H7xx_HAL_Driver/Src/stm32h7xx_hal_crc.c ****   assert_param(IS_CRC_ALL_INSTANCE(hcrc->Instance));
 189:./Libraries/STM32H7xx_HAL_Driver/Src/stm32h7xx_hal_crc.c **** 
 190:./Libraries/STM32H7xx_HAL_Driver/Src/stm32h7xx_hal_crc.c ****   /* Check the CRC peripheral state */
 191:./Libraries/STM32H7xx_HAL_Driver/Src/stm32h7xx_hal_crc.c ****   if (hcrc->State == HAL_CRC_STATE_BUSY)
 208              		.loc 1 191 11
 209 0012 7B68     		ldr	r3, [r7, #4]
 210 0014 5B7F     		ldrb	r3, [r3, #29]
 211 0016 DBB2     		uxtb	r3, r3
ARM GAS  /tmp/ccV6RgLU.s 			page 8


 212              		.loc 1 191 6
 213 0018 022B     		cmp	r3, #2
 214 001a 01D1     		bne	.L14
 192:./Libraries/STM32H7xx_HAL_Driver/Src/stm32h7xx_hal_crc.c ****   {
 193:./Libraries/STM32H7xx_HAL_Driver/Src/stm32h7xx_hal_crc.c ****     return HAL_BUSY;
 215              		.loc 1 193 12
 216 001c 0223     		movs	r3, #2
 217 001e 1BE0     		b	.L13
 218              	.L14:
 194:./Libraries/STM32H7xx_HAL_Driver/Src/stm32h7xx_hal_crc.c ****   }
 195:./Libraries/STM32H7xx_HAL_Driver/Src/stm32h7xx_hal_crc.c **** 
 196:./Libraries/STM32H7xx_HAL_Driver/Src/stm32h7xx_hal_crc.c ****   /* Change CRC peripheral state */
 197:./Libraries/STM32H7xx_HAL_Driver/Src/stm32h7xx_hal_crc.c ****   hcrc->State = HAL_CRC_STATE_BUSY;
 219              		.loc 1 197 15
 220 0020 7B68     		ldr	r3, [r7, #4]
 221 0022 0222     		movs	r2, #2
 222 0024 5A77     		strb	r2, [r3, #29]
 198:./Libraries/STM32H7xx_HAL_Driver/Src/stm32h7xx_hal_crc.c **** 
 199:./Libraries/STM32H7xx_HAL_Driver/Src/stm32h7xx_hal_crc.c ****   /* Reset CRC calculation unit */
 200:./Libraries/STM32H7xx_HAL_Driver/Src/stm32h7xx_hal_crc.c ****   __HAL_CRC_DR_RESET(hcrc);
 223              		.loc 1 200 3
 224 0026 7B68     		ldr	r3, [r7, #4]
 225 0028 1B68     		ldr	r3, [r3]
 226 002a 9A68     		ldr	r2, [r3, #8]
 227 002c 7B68     		ldr	r3, [r7, #4]
 228 002e 1B68     		ldr	r3, [r3]
 229 0030 42F00102 		orr	r2, r2, #1
 230 0034 9A60     		str	r2, [r3, #8]
 201:./Libraries/STM32H7xx_HAL_Driver/Src/stm32h7xx_hal_crc.c **** 
 202:./Libraries/STM32H7xx_HAL_Driver/Src/stm32h7xx_hal_crc.c ****   /* Reset IDR register content */
 203:./Libraries/STM32H7xx_HAL_Driver/Src/stm32h7xx_hal_crc.c ****   CLEAR_BIT(hcrc->Instance->IDR, CRC_IDR_IDR);
 231              		.loc 1 203 3
 232 0036 7B68     		ldr	r3, [r7, #4]
 233 0038 1B68     		ldr	r3, [r3]
 234 003a 5B68     		ldr	r3, [r3, #4]
 235 003c 7B68     		ldr	r3, [r7, #4]
 236 003e 1B68     		ldr	r3, [r3]
 237 0040 0022     		movs	r2, #0
 238 0042 5A60     		str	r2, [r3, #4]
 204:./Libraries/STM32H7xx_HAL_Driver/Src/stm32h7xx_hal_crc.c **** 
 205:./Libraries/STM32H7xx_HAL_Driver/Src/stm32h7xx_hal_crc.c ****   /* DeInit the low level hardware */
 206:./Libraries/STM32H7xx_HAL_Driver/Src/stm32h7xx_hal_crc.c ****   HAL_CRC_MspDeInit(hcrc);
 239              		.loc 1 206 3
 240 0044 7868     		ldr	r0, [r7, #4]
 241 0046 FFF7FEFF 		bl	HAL_CRC_MspDeInit
 207:./Libraries/STM32H7xx_HAL_Driver/Src/stm32h7xx_hal_crc.c **** 
 208:./Libraries/STM32H7xx_HAL_Driver/Src/stm32h7xx_hal_crc.c ****   /* Change CRC peripheral state */
 209:./Libraries/STM32H7xx_HAL_Driver/Src/stm32h7xx_hal_crc.c ****   hcrc->State = HAL_CRC_STATE_RESET;
 242              		.loc 1 209 15
 243 004a 7B68     		ldr	r3, [r7, #4]
 244 004c 0022     		movs	r2, #0
 245 004e 5A77     		strb	r2, [r3, #29]
 210:./Libraries/STM32H7xx_HAL_Driver/Src/stm32h7xx_hal_crc.c **** 
 211:./Libraries/STM32H7xx_HAL_Driver/Src/stm32h7xx_hal_crc.c ****   /* Process unlocked */
 212:./Libraries/STM32H7xx_HAL_Driver/Src/stm32h7xx_hal_crc.c ****   __HAL_UNLOCK(hcrc);
 246              		.loc 1 212 3
 247 0050 7B68     		ldr	r3, [r7, #4]
ARM GAS  /tmp/ccV6RgLU.s 			page 9


 248 0052 0022     		movs	r2, #0
 249 0054 1A77     		strb	r2, [r3, #28]
 213:./Libraries/STM32H7xx_HAL_Driver/Src/stm32h7xx_hal_crc.c **** 
 214:./Libraries/STM32H7xx_HAL_Driver/Src/stm32h7xx_hal_crc.c ****   /* Return function status */
 215:./Libraries/STM32H7xx_HAL_Driver/Src/stm32h7xx_hal_crc.c ****   return HAL_OK;
 250              		.loc 1 215 10
 251 0056 0023     		movs	r3, #0
 252              	.L13:
 216:./Libraries/STM32H7xx_HAL_Driver/Src/stm32h7xx_hal_crc.c **** }
 253              		.loc 1 216 1
 254 0058 1846     		mov	r0, r3
 255 005a 0837     		adds	r7, r7, #8
 256              	.LCFI8:
 257              		.cfi_def_cfa_offset 8
 258 005c BD46     		mov	sp, r7
 259              	.LCFI9:
 260              		.cfi_def_cfa_register 13
 261              		@ sp needed
 262 005e 80BD     		pop	{r7, pc}
 263              		.cfi_endproc
 264              	.LFE332:
 266              		.section	.text.HAL_CRC_MspInit,"ax",%progbits
 267              		.align	1
 268              		.weak	HAL_CRC_MspInit
 269              		.syntax unified
 270              		.thumb
 271              		.thumb_func
 272              		.fpu fpv5-d16
 274              	HAL_CRC_MspInit:
 275              	.LFB333:
 217:./Libraries/STM32H7xx_HAL_Driver/Src/stm32h7xx_hal_crc.c **** 
 218:./Libraries/STM32H7xx_HAL_Driver/Src/stm32h7xx_hal_crc.c **** /**
 219:./Libraries/STM32H7xx_HAL_Driver/Src/stm32h7xx_hal_crc.c ****   * @brief  Initializes the CRC MSP.
 220:./Libraries/STM32H7xx_HAL_Driver/Src/stm32h7xx_hal_crc.c ****   * @param  hcrc CRC handle
 221:./Libraries/STM32H7xx_HAL_Driver/Src/stm32h7xx_hal_crc.c ****   * @retval None
 222:./Libraries/STM32H7xx_HAL_Driver/Src/stm32h7xx_hal_crc.c ****   */
 223:./Libraries/STM32H7xx_HAL_Driver/Src/stm32h7xx_hal_crc.c **** __weak void HAL_CRC_MspInit(CRC_HandleTypeDef *hcrc)
 224:./Libraries/STM32H7xx_HAL_Driver/Src/stm32h7xx_hal_crc.c **** {
 276              		.loc 1 224 1
 277              		.cfi_startproc
 278              		@ args = 0, pretend = 0, frame = 8
 279              		@ frame_needed = 1, uses_anonymous_args = 0
 280              		@ link register save eliminated.
 281 0000 80B4     		push	{r7}
 282              	.LCFI10:
 283              		.cfi_def_cfa_offset 4
 284              		.cfi_offset 7, -4
 285 0002 83B0     		sub	sp, sp, #12
 286              	.LCFI11:
 287              		.cfi_def_cfa_offset 16
 288 0004 00AF     		add	r7, sp, #0
 289              	.LCFI12:
 290              		.cfi_def_cfa_register 7
 291 0006 7860     		str	r0, [r7, #4]
 225:./Libraries/STM32H7xx_HAL_Driver/Src/stm32h7xx_hal_crc.c ****   /* Prevent unused argument(s) compilation warning */
 226:./Libraries/STM32H7xx_HAL_Driver/Src/stm32h7xx_hal_crc.c ****   UNUSED(hcrc);
 227:./Libraries/STM32H7xx_HAL_Driver/Src/stm32h7xx_hal_crc.c **** 
ARM GAS  /tmp/ccV6RgLU.s 			page 10


 228:./Libraries/STM32H7xx_HAL_Driver/Src/stm32h7xx_hal_crc.c ****   /* NOTE : This function should not be modified, when the callback is needed,
 229:./Libraries/STM32H7xx_HAL_Driver/Src/stm32h7xx_hal_crc.c ****             the HAL_CRC_MspInit can be implemented in the user file
 230:./Libraries/STM32H7xx_HAL_Driver/Src/stm32h7xx_hal_crc.c ****    */
 231:./Libraries/STM32H7xx_HAL_Driver/Src/stm32h7xx_hal_crc.c **** }
 292              		.loc 1 231 1
 293 0008 00BF     		nop
 294 000a 0C37     		adds	r7, r7, #12
 295              	.LCFI13:
 296              		.cfi_def_cfa_offset 4
 297 000c BD46     		mov	sp, r7
 298              	.LCFI14:
 299              		.cfi_def_cfa_register 13
 300              		@ sp needed
 301 000e 5DF8047B 		ldr	r7, [sp], #4
 302              	.LCFI15:
 303              		.cfi_restore 7
 304              		.cfi_def_cfa_offset 0
 305 0012 7047     		bx	lr
 306              		.cfi_endproc
 307              	.LFE333:
 309              		.section	.text.HAL_CRC_MspDeInit,"ax",%progbits
 310              		.align	1
 311              		.weak	HAL_CRC_MspDeInit
 312              		.syntax unified
 313              		.thumb
 314              		.thumb_func
 315              		.fpu fpv5-d16
 317              	HAL_CRC_MspDeInit:
 318              	.LFB334:
 232:./Libraries/STM32H7xx_HAL_Driver/Src/stm32h7xx_hal_crc.c **** 
 233:./Libraries/STM32H7xx_HAL_Driver/Src/stm32h7xx_hal_crc.c **** /**
 234:./Libraries/STM32H7xx_HAL_Driver/Src/stm32h7xx_hal_crc.c ****   * @brief  DeInitialize the CRC MSP.
 235:./Libraries/STM32H7xx_HAL_Driver/Src/stm32h7xx_hal_crc.c ****   * @param  hcrc CRC handle
 236:./Libraries/STM32H7xx_HAL_Driver/Src/stm32h7xx_hal_crc.c ****   * @retval None
 237:./Libraries/STM32H7xx_HAL_Driver/Src/stm32h7xx_hal_crc.c ****   */
 238:./Libraries/STM32H7xx_HAL_Driver/Src/stm32h7xx_hal_crc.c **** __weak void HAL_CRC_MspDeInit(CRC_HandleTypeDef *hcrc)
 239:./Libraries/STM32H7xx_HAL_Driver/Src/stm32h7xx_hal_crc.c **** {
 319              		.loc 1 239 1
 320              		.cfi_startproc
 321              		@ args = 0, pretend = 0, frame = 8
 322              		@ frame_needed = 1, uses_anonymous_args = 0
 323              		@ link register save eliminated.
 324 0000 80B4     		push	{r7}
 325              	.LCFI16:
 326              		.cfi_def_cfa_offset 4
 327              		.cfi_offset 7, -4
 328 0002 83B0     		sub	sp, sp, #12
 329              	.LCFI17:
 330              		.cfi_def_cfa_offset 16
 331 0004 00AF     		add	r7, sp, #0
 332              	.LCFI18:
 333              		.cfi_def_cfa_register 7
 334 0006 7860     		str	r0, [r7, #4]
 240:./Libraries/STM32H7xx_HAL_Driver/Src/stm32h7xx_hal_crc.c ****   /* Prevent unused argument(s) compilation warning */
 241:./Libraries/STM32H7xx_HAL_Driver/Src/stm32h7xx_hal_crc.c ****   UNUSED(hcrc);
 242:./Libraries/STM32H7xx_HAL_Driver/Src/stm32h7xx_hal_crc.c **** 
 243:./Libraries/STM32H7xx_HAL_Driver/Src/stm32h7xx_hal_crc.c ****   /* NOTE : This function should not be modified, when the callback is needed,
ARM GAS  /tmp/ccV6RgLU.s 			page 11


 244:./Libraries/STM32H7xx_HAL_Driver/Src/stm32h7xx_hal_crc.c ****             the HAL_CRC_MspDeInit can be implemented in the user file
 245:./Libraries/STM32H7xx_HAL_Driver/Src/stm32h7xx_hal_crc.c ****    */
 246:./Libraries/STM32H7xx_HAL_Driver/Src/stm32h7xx_hal_crc.c **** }
 335              		.loc 1 246 1
 336 0008 00BF     		nop
 337 000a 0C37     		adds	r7, r7, #12
 338              	.LCFI19:
 339              		.cfi_def_cfa_offset 4
 340 000c BD46     		mov	sp, r7
 341              	.LCFI20:
 342              		.cfi_def_cfa_register 13
 343              		@ sp needed
 344 000e 5DF8047B 		ldr	r7, [sp], #4
 345              	.LCFI21:
 346              		.cfi_restore 7
 347              		.cfi_def_cfa_offset 0
 348 0012 7047     		bx	lr
 349              		.cfi_endproc
 350              	.LFE334:
 352              		.section	.text.HAL_CRC_Accumulate,"ax",%progbits
 353              		.align	1
 354              		.global	HAL_CRC_Accumulate
 355              		.syntax unified
 356              		.thumb
 357              		.thumb_func
 358              		.fpu fpv5-d16
 360              	HAL_CRC_Accumulate:
 361              	.LFB335:
 247:./Libraries/STM32H7xx_HAL_Driver/Src/stm32h7xx_hal_crc.c **** 
 248:./Libraries/STM32H7xx_HAL_Driver/Src/stm32h7xx_hal_crc.c **** /**
 249:./Libraries/STM32H7xx_HAL_Driver/Src/stm32h7xx_hal_crc.c ****   * @}
 250:./Libraries/STM32H7xx_HAL_Driver/Src/stm32h7xx_hal_crc.c ****   */
 251:./Libraries/STM32H7xx_HAL_Driver/Src/stm32h7xx_hal_crc.c **** 
 252:./Libraries/STM32H7xx_HAL_Driver/Src/stm32h7xx_hal_crc.c **** /** @defgroup CRC_Exported_Functions_Group2 Peripheral Control functions
 253:./Libraries/STM32H7xx_HAL_Driver/Src/stm32h7xx_hal_crc.c ****  *  @brief    management functions.
 254:./Libraries/STM32H7xx_HAL_Driver/Src/stm32h7xx_hal_crc.c ****  *
 255:./Libraries/STM32H7xx_HAL_Driver/Src/stm32h7xx_hal_crc.c **** @verbatim
 256:./Libraries/STM32H7xx_HAL_Driver/Src/stm32h7xx_hal_crc.c ****  ===============================================================================
 257:./Libraries/STM32H7xx_HAL_Driver/Src/stm32h7xx_hal_crc.c ****                       ##### Peripheral Control functions #####
 258:./Libraries/STM32H7xx_HAL_Driver/Src/stm32h7xx_hal_crc.c ****  ===============================================================================
 259:./Libraries/STM32H7xx_HAL_Driver/Src/stm32h7xx_hal_crc.c ****     [..]  This section provides functions allowing to:
 260:./Libraries/STM32H7xx_HAL_Driver/Src/stm32h7xx_hal_crc.c ****       (+) compute the 7, 8, 16 or 32-bit CRC value of an 8, 16 or 32-bit data buffer
 261:./Libraries/STM32H7xx_HAL_Driver/Src/stm32h7xx_hal_crc.c ****           using combination of the previous CRC value and the new one.
 262:./Libraries/STM32H7xx_HAL_Driver/Src/stm32h7xx_hal_crc.c **** 
 263:./Libraries/STM32H7xx_HAL_Driver/Src/stm32h7xx_hal_crc.c ****        [..]  or
 264:./Libraries/STM32H7xx_HAL_Driver/Src/stm32h7xx_hal_crc.c **** 
 265:./Libraries/STM32H7xx_HAL_Driver/Src/stm32h7xx_hal_crc.c ****       (+) compute the 7, 8, 16 or 32-bit CRC value of an 8, 16 or 32-bit data buffer
 266:./Libraries/STM32H7xx_HAL_Driver/Src/stm32h7xx_hal_crc.c ****           independently of the previous CRC value.
 267:./Libraries/STM32H7xx_HAL_Driver/Src/stm32h7xx_hal_crc.c **** 
 268:./Libraries/STM32H7xx_HAL_Driver/Src/stm32h7xx_hal_crc.c **** @endverbatim
 269:./Libraries/STM32H7xx_HAL_Driver/Src/stm32h7xx_hal_crc.c ****   * @{
 270:./Libraries/STM32H7xx_HAL_Driver/Src/stm32h7xx_hal_crc.c ****   */
 271:./Libraries/STM32H7xx_HAL_Driver/Src/stm32h7xx_hal_crc.c **** 
 272:./Libraries/STM32H7xx_HAL_Driver/Src/stm32h7xx_hal_crc.c **** /**
 273:./Libraries/STM32H7xx_HAL_Driver/Src/stm32h7xx_hal_crc.c ****   * @brief  Compute the 7, 8, 16 or 32-bit CRC value of an 8, 16 or 32-bit data buffer
 274:./Libraries/STM32H7xx_HAL_Driver/Src/stm32h7xx_hal_crc.c ****   *         starting with the previously computed CRC as initialization value.
 275:./Libraries/STM32H7xx_HAL_Driver/Src/stm32h7xx_hal_crc.c ****   * @param  hcrc CRC handle
ARM GAS  /tmp/ccV6RgLU.s 			page 12


 276:./Libraries/STM32H7xx_HAL_Driver/Src/stm32h7xx_hal_crc.c ****   * @param  pBuffer pointer to the input data buffer, exact input data format is
 277:./Libraries/STM32H7xx_HAL_Driver/Src/stm32h7xx_hal_crc.c ****   *         provided by hcrc->InputDataFormat.
 278:./Libraries/STM32H7xx_HAL_Driver/Src/stm32h7xx_hal_crc.c ****   * @param  BufferLength input data buffer length (number of bytes if pBuffer
 279:./Libraries/STM32H7xx_HAL_Driver/Src/stm32h7xx_hal_crc.c ****   *         type is * uint8_t, number of half-words if pBuffer type is * uint16_t,
 280:./Libraries/STM32H7xx_HAL_Driver/Src/stm32h7xx_hal_crc.c ****   *         number of words if pBuffer type is * uint32_t).
 281:./Libraries/STM32H7xx_HAL_Driver/Src/stm32h7xx_hal_crc.c ****   * @note  By default, the API expects a uint32_t pointer as input buffer parameter.
 282:./Libraries/STM32H7xx_HAL_Driver/Src/stm32h7xx_hal_crc.c ****   *        Input buffer pointers with other types simply need to be cast in uint32_t
 283:./Libraries/STM32H7xx_HAL_Driver/Src/stm32h7xx_hal_crc.c ****   *        and the API will internally adjust its input data processing based on the
 284:./Libraries/STM32H7xx_HAL_Driver/Src/stm32h7xx_hal_crc.c ****   *        handle field hcrc->InputDataFormat.
 285:./Libraries/STM32H7xx_HAL_Driver/Src/stm32h7xx_hal_crc.c ****   * @retval uint32_t CRC (returned value LSBs for CRC shorter than 32 bits)
 286:./Libraries/STM32H7xx_HAL_Driver/Src/stm32h7xx_hal_crc.c ****   */
 287:./Libraries/STM32H7xx_HAL_Driver/Src/stm32h7xx_hal_crc.c **** uint32_t HAL_CRC_Accumulate(CRC_HandleTypeDef *hcrc, uint32_t pBuffer[], uint32_t BufferLength)
 288:./Libraries/STM32H7xx_HAL_Driver/Src/stm32h7xx_hal_crc.c **** {
 362              		.loc 1 288 1
 363              		.cfi_startproc
 364              		@ args = 0, pretend = 0, frame = 24
 365              		@ frame_needed = 1, uses_anonymous_args = 0
 366 0000 80B5     		push	{r7, lr}
 367              	.LCFI22:
 368              		.cfi_def_cfa_offset 8
 369              		.cfi_offset 7, -8
 370              		.cfi_offset 14, -4
 371 0002 86B0     		sub	sp, sp, #24
 372              	.LCFI23:
 373              		.cfi_def_cfa_offset 32
 374 0004 00AF     		add	r7, sp, #0
 375              	.LCFI24:
 376              		.cfi_def_cfa_register 7
 377 0006 F860     		str	r0, [r7, #12]
 378 0008 B960     		str	r1, [r7, #8]
 379 000a 7A60     		str	r2, [r7, #4]
 289:./Libraries/STM32H7xx_HAL_Driver/Src/stm32h7xx_hal_crc.c ****   uint32_t index;      /* CRC input data buffer index */
 290:./Libraries/STM32H7xx_HAL_Driver/Src/stm32h7xx_hal_crc.c ****   uint32_t temp = 0U;  /* CRC output (read from hcrc->Instance->DR register) */
 380              		.loc 1 290 12
 381 000c 0023     		movs	r3, #0
 382 000e 3B61     		str	r3, [r7, #16]
 291:./Libraries/STM32H7xx_HAL_Driver/Src/stm32h7xx_hal_crc.c **** 
 292:./Libraries/STM32H7xx_HAL_Driver/Src/stm32h7xx_hal_crc.c ****   /* Change CRC peripheral state */
 293:./Libraries/STM32H7xx_HAL_Driver/Src/stm32h7xx_hal_crc.c ****   hcrc->State = HAL_CRC_STATE_BUSY;
 383              		.loc 1 293 15
 384 0010 FB68     		ldr	r3, [r7, #12]
 385 0012 0222     		movs	r2, #2
 386 0014 5A77     		strb	r2, [r3, #29]
 294:./Libraries/STM32H7xx_HAL_Driver/Src/stm32h7xx_hal_crc.c **** 
 295:./Libraries/STM32H7xx_HAL_Driver/Src/stm32h7xx_hal_crc.c ****   switch (hcrc->InputDataFormat)
 387              		.loc 1 295 15
 388 0016 FB68     		ldr	r3, [r7, #12]
 389 0018 1B6A     		ldr	r3, [r3, #32]
 390              		.loc 1 295 3
 391 001a 032B     		cmp	r3, #3
 392 001c 06D0     		beq	.L18
 393 001e 032B     		cmp	r3, #3
 394 0020 29D8     		bhi	.L26
 395 0022 012B     		cmp	r3, #1
 396 0024 19D0     		beq	.L20
 397 0026 022B     		cmp	r3, #2
 398 0028 1ED0     		beq	.L21
ARM GAS  /tmp/ccV6RgLU.s 			page 13


 296:./Libraries/STM32H7xx_HAL_Driver/Src/stm32h7xx_hal_crc.c ****   {
 297:./Libraries/STM32H7xx_HAL_Driver/Src/stm32h7xx_hal_crc.c ****     case CRC_INPUTDATA_FORMAT_WORDS:
 298:./Libraries/STM32H7xx_HAL_Driver/Src/stm32h7xx_hal_crc.c ****       /* Enter Data to the CRC calculator */
 299:./Libraries/STM32H7xx_HAL_Driver/Src/stm32h7xx_hal_crc.c ****       for (index = 0U; index < BufferLength; index++)
 300:./Libraries/STM32H7xx_HAL_Driver/Src/stm32h7xx_hal_crc.c ****       {
 301:./Libraries/STM32H7xx_HAL_Driver/Src/stm32h7xx_hal_crc.c ****         hcrc->Instance->DR = pBuffer[index];
 302:./Libraries/STM32H7xx_HAL_Driver/Src/stm32h7xx_hal_crc.c ****       }
 303:./Libraries/STM32H7xx_HAL_Driver/Src/stm32h7xx_hal_crc.c ****       temp = hcrc->Instance->DR;
 304:./Libraries/STM32H7xx_HAL_Driver/Src/stm32h7xx_hal_crc.c ****       break;
 305:./Libraries/STM32H7xx_HAL_Driver/Src/stm32h7xx_hal_crc.c **** 
 306:./Libraries/STM32H7xx_HAL_Driver/Src/stm32h7xx_hal_crc.c ****     case CRC_INPUTDATA_FORMAT_BYTES:
 307:./Libraries/STM32H7xx_HAL_Driver/Src/stm32h7xx_hal_crc.c ****       temp = CRC_Handle_8(hcrc, (uint8_t *)pBuffer, BufferLength);
 308:./Libraries/STM32H7xx_HAL_Driver/Src/stm32h7xx_hal_crc.c ****       break;
 309:./Libraries/STM32H7xx_HAL_Driver/Src/stm32h7xx_hal_crc.c **** 
 310:./Libraries/STM32H7xx_HAL_Driver/Src/stm32h7xx_hal_crc.c ****     case CRC_INPUTDATA_FORMAT_HALFWORDS:
 311:./Libraries/STM32H7xx_HAL_Driver/Src/stm32h7xx_hal_crc.c ****       temp = CRC_Handle_16(hcrc, (uint16_t *)(void *)pBuffer, BufferLength);    /* Derogation Misra
 312:./Libraries/STM32H7xx_HAL_Driver/Src/stm32h7xx_hal_crc.c ****       break;
 313:./Libraries/STM32H7xx_HAL_Driver/Src/stm32h7xx_hal_crc.c ****     default:
 314:./Libraries/STM32H7xx_HAL_Driver/Src/stm32h7xx_hal_crc.c ****       break;
 399              		.loc 1 314 7
 400 002a 24E0     		b	.L26
 401              	.L18:
 299:./Libraries/STM32H7xx_HAL_Driver/Src/stm32h7xx_hal_crc.c ****       {
 402              		.loc 1 299 18
 403 002c 0023     		movs	r3, #0
 404 002e 7B61     		str	r3, [r7, #20]
 299:./Libraries/STM32H7xx_HAL_Driver/Src/stm32h7xx_hal_crc.c ****       {
 405              		.loc 1 299 7
 406 0030 0AE0     		b	.L22
 407              	.L23:
 301:./Libraries/STM32H7xx_HAL_Driver/Src/stm32h7xx_hal_crc.c ****       }
 408              		.loc 1 301 37 discriminator 3
 409 0032 7B69     		ldr	r3, [r7, #20]
 410 0034 9B00     		lsls	r3, r3, #2
 411 0036 BA68     		ldr	r2, [r7, #8]
 412 0038 1A44     		add	r2, r2, r3
 301:./Libraries/STM32H7xx_HAL_Driver/Src/stm32h7xx_hal_crc.c ****       }
 413              		.loc 1 301 13 discriminator 3
 414 003a FB68     		ldr	r3, [r7, #12]
 415 003c 1B68     		ldr	r3, [r3]
 301:./Libraries/STM32H7xx_HAL_Driver/Src/stm32h7xx_hal_crc.c ****       }
 416              		.loc 1 301 37 discriminator 3
 417 003e 1268     		ldr	r2, [r2]
 301:./Libraries/STM32H7xx_HAL_Driver/Src/stm32h7xx_hal_crc.c ****       }
 418              		.loc 1 301 28 discriminator 3
 419 0040 1A60     		str	r2, [r3]
 299:./Libraries/STM32H7xx_HAL_Driver/Src/stm32h7xx_hal_crc.c ****       {
 420              		.loc 1 299 51 discriminator 3
 421 0042 7B69     		ldr	r3, [r7, #20]
 422 0044 0133     		adds	r3, r3, #1
 423 0046 7B61     		str	r3, [r7, #20]
 424              	.L22:
 299:./Libraries/STM32H7xx_HAL_Driver/Src/stm32h7xx_hal_crc.c ****       {
 425              		.loc 1 299 7 discriminator 1
 426 0048 7A69     		ldr	r2, [r7, #20]
 427 004a 7B68     		ldr	r3, [r7, #4]
 428 004c 9A42     		cmp	r2, r3
ARM GAS  /tmp/ccV6RgLU.s 			page 14


 429 004e F0D3     		bcc	.L23
 303:./Libraries/STM32H7xx_HAL_Driver/Src/stm32h7xx_hal_crc.c ****       break;
 430              		.loc 1 303 18
 431 0050 FB68     		ldr	r3, [r7, #12]
 432 0052 1B68     		ldr	r3, [r3]
 303:./Libraries/STM32H7xx_HAL_Driver/Src/stm32h7xx_hal_crc.c ****       break;
 433              		.loc 1 303 12
 434 0054 1B68     		ldr	r3, [r3]
 435 0056 3B61     		str	r3, [r7, #16]
 304:./Libraries/STM32H7xx_HAL_Driver/Src/stm32h7xx_hal_crc.c **** 
 436              		.loc 1 304 7
 437 0058 0EE0     		b	.L24
 438              	.L20:
 307:./Libraries/STM32H7xx_HAL_Driver/Src/stm32h7xx_hal_crc.c ****       break;
 439              		.loc 1 307 14
 440 005a 7A68     		ldr	r2, [r7, #4]
 441 005c B968     		ldr	r1, [r7, #8]
 442 005e F868     		ldr	r0, [r7, #12]
 443 0060 FFF7FEFF 		bl	CRC_Handle_8
 444 0064 3861     		str	r0, [r7, #16]
 308:./Libraries/STM32H7xx_HAL_Driver/Src/stm32h7xx_hal_crc.c **** 
 445              		.loc 1 308 7
 446 0066 07E0     		b	.L24
 447              	.L21:
 311:./Libraries/STM32H7xx_HAL_Driver/Src/stm32h7xx_hal_crc.c ****       break;
 448              		.loc 1 311 14
 449 0068 7A68     		ldr	r2, [r7, #4]
 450 006a B968     		ldr	r1, [r7, #8]
 451 006c F868     		ldr	r0, [r7, #12]
 452 006e FFF7FEFF 		bl	CRC_Handle_16
 453 0072 3861     		str	r0, [r7, #16]
 312:./Libraries/STM32H7xx_HAL_Driver/Src/stm32h7xx_hal_crc.c ****     default:
 454              		.loc 1 312 7
 455 0074 00E0     		b	.L24
 456              	.L26:
 457              		.loc 1 314 7
 458 0076 00BF     		nop
 459              	.L24:
 315:./Libraries/STM32H7xx_HAL_Driver/Src/stm32h7xx_hal_crc.c ****   }
 316:./Libraries/STM32H7xx_HAL_Driver/Src/stm32h7xx_hal_crc.c **** 
 317:./Libraries/STM32H7xx_HAL_Driver/Src/stm32h7xx_hal_crc.c ****   /* Change CRC peripheral state */
 318:./Libraries/STM32H7xx_HAL_Driver/Src/stm32h7xx_hal_crc.c ****   hcrc->State = HAL_CRC_STATE_READY;
 460              		.loc 1 318 15
 461 0078 FB68     		ldr	r3, [r7, #12]
 462 007a 0122     		movs	r2, #1
 463 007c 5A77     		strb	r2, [r3, #29]
 319:./Libraries/STM32H7xx_HAL_Driver/Src/stm32h7xx_hal_crc.c **** 
 320:./Libraries/STM32H7xx_HAL_Driver/Src/stm32h7xx_hal_crc.c ****   /* Return the CRC computed value */
 321:./Libraries/STM32H7xx_HAL_Driver/Src/stm32h7xx_hal_crc.c ****   return temp;
 464              		.loc 1 321 10
 465 007e 3B69     		ldr	r3, [r7, #16]
 322:./Libraries/STM32H7xx_HAL_Driver/Src/stm32h7xx_hal_crc.c **** }
 466              		.loc 1 322 1
 467 0080 1846     		mov	r0, r3
 468 0082 1837     		adds	r7, r7, #24
 469              	.LCFI25:
 470              		.cfi_def_cfa_offset 8
ARM GAS  /tmp/ccV6RgLU.s 			page 15


 471 0084 BD46     		mov	sp, r7
 472              	.LCFI26:
 473              		.cfi_def_cfa_register 13
 474              		@ sp needed
 475 0086 80BD     		pop	{r7, pc}
 476              		.cfi_endproc
 477              	.LFE335:
 479              		.section	.text.HAL_CRC_Calculate,"ax",%progbits
 480              		.align	1
 481              		.global	HAL_CRC_Calculate
 482              		.syntax unified
 483              		.thumb
 484              		.thumb_func
 485              		.fpu fpv5-d16
 487              	HAL_CRC_Calculate:
 488              	.LFB336:
 323:./Libraries/STM32H7xx_HAL_Driver/Src/stm32h7xx_hal_crc.c **** 
 324:./Libraries/STM32H7xx_HAL_Driver/Src/stm32h7xx_hal_crc.c **** /**
 325:./Libraries/STM32H7xx_HAL_Driver/Src/stm32h7xx_hal_crc.c ****   * @brief  Compute the 7, 8, 16 or 32-bit CRC value of an 8, 16 or 32-bit data buffer
 326:./Libraries/STM32H7xx_HAL_Driver/Src/stm32h7xx_hal_crc.c ****   *         starting with hcrc->Instance->INIT as initialization value.
 327:./Libraries/STM32H7xx_HAL_Driver/Src/stm32h7xx_hal_crc.c ****   * @param  hcrc CRC handle
 328:./Libraries/STM32H7xx_HAL_Driver/Src/stm32h7xx_hal_crc.c ****   * @param  pBuffer pointer to the input data buffer, exact input data format is
 329:./Libraries/STM32H7xx_HAL_Driver/Src/stm32h7xx_hal_crc.c ****   *         provided by hcrc->InputDataFormat.
 330:./Libraries/STM32H7xx_HAL_Driver/Src/stm32h7xx_hal_crc.c ****   * @param  BufferLength input data buffer length (number of bytes if pBuffer
 331:./Libraries/STM32H7xx_HAL_Driver/Src/stm32h7xx_hal_crc.c ****   *         type is * uint8_t, number of half-words if pBuffer type is * uint16_t,
 332:./Libraries/STM32H7xx_HAL_Driver/Src/stm32h7xx_hal_crc.c ****   *         number of words if pBuffer type is * uint32_t).
 333:./Libraries/STM32H7xx_HAL_Driver/Src/stm32h7xx_hal_crc.c ****   * @note  By default, the API expects a uint32_t pointer as input buffer parameter.
 334:./Libraries/STM32H7xx_HAL_Driver/Src/stm32h7xx_hal_crc.c ****   *        Input buffer pointers with other types simply need to be cast in uint32_t
 335:./Libraries/STM32H7xx_HAL_Driver/Src/stm32h7xx_hal_crc.c ****   *        and the API will internally adjust its input data processing based on the
 336:./Libraries/STM32H7xx_HAL_Driver/Src/stm32h7xx_hal_crc.c ****   *        handle field hcrc->InputDataFormat.
 337:./Libraries/STM32H7xx_HAL_Driver/Src/stm32h7xx_hal_crc.c ****   * @retval uint32_t CRC (returned value LSBs for CRC shorter than 32 bits)
 338:./Libraries/STM32H7xx_HAL_Driver/Src/stm32h7xx_hal_crc.c ****   */
 339:./Libraries/STM32H7xx_HAL_Driver/Src/stm32h7xx_hal_crc.c **** uint32_t HAL_CRC_Calculate(CRC_HandleTypeDef *hcrc, uint32_t pBuffer[], uint32_t BufferLength)
 340:./Libraries/STM32H7xx_HAL_Driver/Src/stm32h7xx_hal_crc.c **** {
 489              		.loc 1 340 1
 490              		.cfi_startproc
 491              		@ args = 0, pretend = 0, frame = 24
 492              		@ frame_needed = 1, uses_anonymous_args = 0
 493 0000 80B5     		push	{r7, lr}
 494              	.LCFI27:
 495              		.cfi_def_cfa_offset 8
 496              		.cfi_offset 7, -8
 497              		.cfi_offset 14, -4
 498 0002 86B0     		sub	sp, sp, #24
 499              	.LCFI28:
 500              		.cfi_def_cfa_offset 32
 501 0004 00AF     		add	r7, sp, #0
 502              	.LCFI29:
 503              		.cfi_def_cfa_register 7
 504 0006 F860     		str	r0, [r7, #12]
 505 0008 B960     		str	r1, [r7, #8]
 506 000a 7A60     		str	r2, [r7, #4]
 341:./Libraries/STM32H7xx_HAL_Driver/Src/stm32h7xx_hal_crc.c ****   uint32_t index;      /* CRC input data buffer index */
 342:./Libraries/STM32H7xx_HAL_Driver/Src/stm32h7xx_hal_crc.c ****   uint32_t temp = 0U;  /* CRC output (read from hcrc->Instance->DR register) */
 507              		.loc 1 342 12
 508 000c 0023     		movs	r3, #0
 509 000e 3B61     		str	r3, [r7, #16]
ARM GAS  /tmp/ccV6RgLU.s 			page 16


 343:./Libraries/STM32H7xx_HAL_Driver/Src/stm32h7xx_hal_crc.c **** 
 344:./Libraries/STM32H7xx_HAL_Driver/Src/stm32h7xx_hal_crc.c ****   /* Change CRC peripheral state */
 345:./Libraries/STM32H7xx_HAL_Driver/Src/stm32h7xx_hal_crc.c ****   hcrc->State = HAL_CRC_STATE_BUSY;
 510              		.loc 1 345 15
 511 0010 FB68     		ldr	r3, [r7, #12]
 512 0012 0222     		movs	r2, #2
 513 0014 5A77     		strb	r2, [r3, #29]
 346:./Libraries/STM32H7xx_HAL_Driver/Src/stm32h7xx_hal_crc.c **** 
 347:./Libraries/STM32H7xx_HAL_Driver/Src/stm32h7xx_hal_crc.c ****   /* Reset CRC Calculation Unit (hcrc->Instance->INIT is
 348:./Libraries/STM32H7xx_HAL_Driver/Src/stm32h7xx_hal_crc.c ****   *  written in hcrc->Instance->DR) */
 349:./Libraries/STM32H7xx_HAL_Driver/Src/stm32h7xx_hal_crc.c ****   __HAL_CRC_DR_RESET(hcrc);
 514              		.loc 1 349 3
 515 0016 FB68     		ldr	r3, [r7, #12]
 516 0018 1B68     		ldr	r3, [r3]
 517 001a 9A68     		ldr	r2, [r3, #8]
 518 001c FB68     		ldr	r3, [r7, #12]
 519 001e 1B68     		ldr	r3, [r3]
 520 0020 42F00102 		orr	r2, r2, #1
 521 0024 9A60     		str	r2, [r3, #8]
 350:./Libraries/STM32H7xx_HAL_Driver/Src/stm32h7xx_hal_crc.c **** 
 351:./Libraries/STM32H7xx_HAL_Driver/Src/stm32h7xx_hal_crc.c ****   switch (hcrc->InputDataFormat)
 522              		.loc 1 351 15
 523 0026 FB68     		ldr	r3, [r7, #12]
 524 0028 1B6A     		ldr	r3, [r3, #32]
 525              		.loc 1 351 3
 526 002a 032B     		cmp	r3, #3
 527 002c 06D0     		beq	.L28
 528 002e 032B     		cmp	r3, #3
 529 0030 29D8     		bhi	.L36
 530 0032 012B     		cmp	r3, #1
 531 0034 19D0     		beq	.L30
 532 0036 022B     		cmp	r3, #2
 533 0038 1ED0     		beq	.L31
 352:./Libraries/STM32H7xx_HAL_Driver/Src/stm32h7xx_hal_crc.c ****   {
 353:./Libraries/STM32H7xx_HAL_Driver/Src/stm32h7xx_hal_crc.c ****     case CRC_INPUTDATA_FORMAT_WORDS:
 354:./Libraries/STM32H7xx_HAL_Driver/Src/stm32h7xx_hal_crc.c ****       /* Enter 32-bit input data to the CRC calculator */
 355:./Libraries/STM32H7xx_HAL_Driver/Src/stm32h7xx_hal_crc.c ****       for (index = 0U; index < BufferLength; index++)
 356:./Libraries/STM32H7xx_HAL_Driver/Src/stm32h7xx_hal_crc.c ****       {
 357:./Libraries/STM32H7xx_HAL_Driver/Src/stm32h7xx_hal_crc.c ****         hcrc->Instance->DR = pBuffer[index];
 358:./Libraries/STM32H7xx_HAL_Driver/Src/stm32h7xx_hal_crc.c ****       }
 359:./Libraries/STM32H7xx_HAL_Driver/Src/stm32h7xx_hal_crc.c ****       temp = hcrc->Instance->DR;
 360:./Libraries/STM32H7xx_HAL_Driver/Src/stm32h7xx_hal_crc.c ****       break;
 361:./Libraries/STM32H7xx_HAL_Driver/Src/stm32h7xx_hal_crc.c **** 
 362:./Libraries/STM32H7xx_HAL_Driver/Src/stm32h7xx_hal_crc.c ****     case CRC_INPUTDATA_FORMAT_BYTES:
 363:./Libraries/STM32H7xx_HAL_Driver/Src/stm32h7xx_hal_crc.c ****       /* Specific 8-bit input data handling  */
 364:./Libraries/STM32H7xx_HAL_Driver/Src/stm32h7xx_hal_crc.c ****       temp = CRC_Handle_8(hcrc, (uint8_t *)pBuffer, BufferLength);
 365:./Libraries/STM32H7xx_HAL_Driver/Src/stm32h7xx_hal_crc.c ****       break;
 366:./Libraries/STM32H7xx_HAL_Driver/Src/stm32h7xx_hal_crc.c **** 
 367:./Libraries/STM32H7xx_HAL_Driver/Src/stm32h7xx_hal_crc.c ****     case CRC_INPUTDATA_FORMAT_HALFWORDS:
 368:./Libraries/STM32H7xx_HAL_Driver/Src/stm32h7xx_hal_crc.c ****       /* Specific 16-bit input data handling  */
 369:./Libraries/STM32H7xx_HAL_Driver/Src/stm32h7xx_hal_crc.c ****       temp = CRC_Handle_16(hcrc, (uint16_t *)(void *)pBuffer, BufferLength);    /* Derogation Misra
 370:./Libraries/STM32H7xx_HAL_Driver/Src/stm32h7xx_hal_crc.c ****       break;
 371:./Libraries/STM32H7xx_HAL_Driver/Src/stm32h7xx_hal_crc.c **** 
 372:./Libraries/STM32H7xx_HAL_Driver/Src/stm32h7xx_hal_crc.c ****     default:
 373:./Libraries/STM32H7xx_HAL_Driver/Src/stm32h7xx_hal_crc.c ****       break;
 534              		.loc 1 373 7
 535 003a 24E0     		b	.L36
ARM GAS  /tmp/ccV6RgLU.s 			page 17


 536              	.L28:
 355:./Libraries/STM32H7xx_HAL_Driver/Src/stm32h7xx_hal_crc.c ****       {
 537              		.loc 1 355 18
 538 003c 0023     		movs	r3, #0
 539 003e 7B61     		str	r3, [r7, #20]
 355:./Libraries/STM32H7xx_HAL_Driver/Src/stm32h7xx_hal_crc.c ****       {
 540              		.loc 1 355 7
 541 0040 0AE0     		b	.L32
 542              	.L33:
 357:./Libraries/STM32H7xx_HAL_Driver/Src/stm32h7xx_hal_crc.c ****       }
 543              		.loc 1 357 37 discriminator 3
 544 0042 7B69     		ldr	r3, [r7, #20]
 545 0044 9B00     		lsls	r3, r3, #2
 546 0046 BA68     		ldr	r2, [r7, #8]
 547 0048 1A44     		add	r2, r2, r3
 357:./Libraries/STM32H7xx_HAL_Driver/Src/stm32h7xx_hal_crc.c ****       }
 548              		.loc 1 357 13 discriminator 3
 549 004a FB68     		ldr	r3, [r7, #12]
 550 004c 1B68     		ldr	r3, [r3]
 357:./Libraries/STM32H7xx_HAL_Driver/Src/stm32h7xx_hal_crc.c ****       }
 551              		.loc 1 357 37 discriminator 3
 552 004e 1268     		ldr	r2, [r2]
 357:./Libraries/STM32H7xx_HAL_Driver/Src/stm32h7xx_hal_crc.c ****       }
 553              		.loc 1 357 28 discriminator 3
 554 0050 1A60     		str	r2, [r3]
 355:./Libraries/STM32H7xx_HAL_Driver/Src/stm32h7xx_hal_crc.c ****       {
 555              		.loc 1 355 51 discriminator 3
 556 0052 7B69     		ldr	r3, [r7, #20]
 557 0054 0133     		adds	r3, r3, #1
 558 0056 7B61     		str	r3, [r7, #20]
 559              	.L32:
 355:./Libraries/STM32H7xx_HAL_Driver/Src/stm32h7xx_hal_crc.c ****       {
 560              		.loc 1 355 7 discriminator 1
 561 0058 7A69     		ldr	r2, [r7, #20]
 562 005a 7B68     		ldr	r3, [r7, #4]
 563 005c 9A42     		cmp	r2, r3
 564 005e F0D3     		bcc	.L33
 359:./Libraries/STM32H7xx_HAL_Driver/Src/stm32h7xx_hal_crc.c ****       break;
 565              		.loc 1 359 18
 566 0060 FB68     		ldr	r3, [r7, #12]
 567 0062 1B68     		ldr	r3, [r3]
 359:./Libraries/STM32H7xx_HAL_Driver/Src/stm32h7xx_hal_crc.c ****       break;
 568              		.loc 1 359 12
 569 0064 1B68     		ldr	r3, [r3]
 570 0066 3B61     		str	r3, [r7, #16]
 360:./Libraries/STM32H7xx_HAL_Driver/Src/stm32h7xx_hal_crc.c **** 
 571              		.loc 1 360 7
 572 0068 0EE0     		b	.L34
 573              	.L30:
 364:./Libraries/STM32H7xx_HAL_Driver/Src/stm32h7xx_hal_crc.c ****       break;
 574              		.loc 1 364 14
 575 006a 7A68     		ldr	r2, [r7, #4]
 576 006c B968     		ldr	r1, [r7, #8]
 577 006e F868     		ldr	r0, [r7, #12]
 578 0070 FFF7FEFF 		bl	CRC_Handle_8
 579 0074 3861     		str	r0, [r7, #16]
 365:./Libraries/STM32H7xx_HAL_Driver/Src/stm32h7xx_hal_crc.c **** 
ARM GAS  /tmp/ccV6RgLU.s 			page 18


 580              		.loc 1 365 7
 581 0076 07E0     		b	.L34
 582              	.L31:
 369:./Libraries/STM32H7xx_HAL_Driver/Src/stm32h7xx_hal_crc.c ****       break;
 583              		.loc 1 369 14
 584 0078 7A68     		ldr	r2, [r7, #4]
 585 007a B968     		ldr	r1, [r7, #8]
 586 007c F868     		ldr	r0, [r7, #12]
 587 007e FFF7FEFF 		bl	CRC_Handle_16
 588 0082 3861     		str	r0, [r7, #16]
 370:./Libraries/STM32H7xx_HAL_Driver/Src/stm32h7xx_hal_crc.c **** 
 589              		.loc 1 370 7
 590 0084 00E0     		b	.L34
 591              	.L36:
 592              		.loc 1 373 7
 593 0086 00BF     		nop
 594              	.L34:
 374:./Libraries/STM32H7xx_HAL_Driver/Src/stm32h7xx_hal_crc.c ****   }
 375:./Libraries/STM32H7xx_HAL_Driver/Src/stm32h7xx_hal_crc.c **** 
 376:./Libraries/STM32H7xx_HAL_Driver/Src/stm32h7xx_hal_crc.c ****   /* Change CRC peripheral state */
 377:./Libraries/STM32H7xx_HAL_Driver/Src/stm32h7xx_hal_crc.c ****   hcrc->State = HAL_CRC_STATE_READY;
 595              		.loc 1 377 15
 596 0088 FB68     		ldr	r3, [r7, #12]
 597 008a 0122     		movs	r2, #1
 598 008c 5A77     		strb	r2, [r3, #29]
 378:./Libraries/STM32H7xx_HAL_Driver/Src/stm32h7xx_hal_crc.c **** 
 379:./Libraries/STM32H7xx_HAL_Driver/Src/stm32h7xx_hal_crc.c ****   /* Return the CRC computed value */
 380:./Libraries/STM32H7xx_HAL_Driver/Src/stm32h7xx_hal_crc.c ****   return temp;
 599              		.loc 1 380 10
 600 008e 3B69     		ldr	r3, [r7, #16]
 381:./Libraries/STM32H7xx_HAL_Driver/Src/stm32h7xx_hal_crc.c **** }
 601              		.loc 1 381 1
 602 0090 1846     		mov	r0, r3
 603 0092 1837     		adds	r7, r7, #24
 604              	.LCFI30:
 605              		.cfi_def_cfa_offset 8
 606 0094 BD46     		mov	sp, r7
 607              	.LCFI31:
 608              		.cfi_def_cfa_register 13
 609              		@ sp needed
 610 0096 80BD     		pop	{r7, pc}
 611              		.cfi_endproc
 612              	.LFE336:
 614              		.section	.text.HAL_CRC_GetState,"ax",%progbits
 615              		.align	1
 616              		.global	HAL_CRC_GetState
 617              		.syntax unified
 618              		.thumb
 619              		.thumb_func
 620              		.fpu fpv5-d16
 622              	HAL_CRC_GetState:
 623              	.LFB337:
 382:./Libraries/STM32H7xx_HAL_Driver/Src/stm32h7xx_hal_crc.c **** 
 383:./Libraries/STM32H7xx_HAL_Driver/Src/stm32h7xx_hal_crc.c **** /**
 384:./Libraries/STM32H7xx_HAL_Driver/Src/stm32h7xx_hal_crc.c ****   * @}
 385:./Libraries/STM32H7xx_HAL_Driver/Src/stm32h7xx_hal_crc.c ****   */
 386:./Libraries/STM32H7xx_HAL_Driver/Src/stm32h7xx_hal_crc.c **** 
ARM GAS  /tmp/ccV6RgLU.s 			page 19


 387:./Libraries/STM32H7xx_HAL_Driver/Src/stm32h7xx_hal_crc.c **** /** @defgroup CRC_Exported_Functions_Group3 Peripheral State functions
 388:./Libraries/STM32H7xx_HAL_Driver/Src/stm32h7xx_hal_crc.c ****  *  @brief    Peripheral State functions.
 389:./Libraries/STM32H7xx_HAL_Driver/Src/stm32h7xx_hal_crc.c ****  *
 390:./Libraries/STM32H7xx_HAL_Driver/Src/stm32h7xx_hal_crc.c **** @verbatim
 391:./Libraries/STM32H7xx_HAL_Driver/Src/stm32h7xx_hal_crc.c ****  ===============================================================================
 392:./Libraries/STM32H7xx_HAL_Driver/Src/stm32h7xx_hal_crc.c ****                       ##### Peripheral State functions #####
 393:./Libraries/STM32H7xx_HAL_Driver/Src/stm32h7xx_hal_crc.c ****  ===============================================================================
 394:./Libraries/STM32H7xx_HAL_Driver/Src/stm32h7xx_hal_crc.c ****     [..]
 395:./Libraries/STM32H7xx_HAL_Driver/Src/stm32h7xx_hal_crc.c ****     This subsection permits to get in run-time the status of the peripheral.
 396:./Libraries/STM32H7xx_HAL_Driver/Src/stm32h7xx_hal_crc.c **** 
 397:./Libraries/STM32H7xx_HAL_Driver/Src/stm32h7xx_hal_crc.c **** @endverbatim
 398:./Libraries/STM32H7xx_HAL_Driver/Src/stm32h7xx_hal_crc.c ****   * @{
 399:./Libraries/STM32H7xx_HAL_Driver/Src/stm32h7xx_hal_crc.c ****   */
 400:./Libraries/STM32H7xx_HAL_Driver/Src/stm32h7xx_hal_crc.c **** 
 401:./Libraries/STM32H7xx_HAL_Driver/Src/stm32h7xx_hal_crc.c **** /**
 402:./Libraries/STM32H7xx_HAL_Driver/Src/stm32h7xx_hal_crc.c ****   * @brief  Return the CRC handle state.
 403:./Libraries/STM32H7xx_HAL_Driver/Src/stm32h7xx_hal_crc.c ****   * @param  hcrc CRC handle
 404:./Libraries/STM32H7xx_HAL_Driver/Src/stm32h7xx_hal_crc.c ****   * @retval HAL state
 405:./Libraries/STM32H7xx_HAL_Driver/Src/stm32h7xx_hal_crc.c ****   */
 406:./Libraries/STM32H7xx_HAL_Driver/Src/stm32h7xx_hal_crc.c **** HAL_CRC_StateTypeDef HAL_CRC_GetState(CRC_HandleTypeDef *hcrc)
 407:./Libraries/STM32H7xx_HAL_Driver/Src/stm32h7xx_hal_crc.c **** {
 624              		.loc 1 407 1
 625              		.cfi_startproc
 626              		@ args = 0, pretend = 0, frame = 8
 627              		@ frame_needed = 1, uses_anonymous_args = 0
 628              		@ link register save eliminated.
 629 0000 80B4     		push	{r7}
 630              	.LCFI32:
 631              		.cfi_def_cfa_offset 4
 632              		.cfi_offset 7, -4
 633 0002 83B0     		sub	sp, sp, #12
 634              	.LCFI33:
 635              		.cfi_def_cfa_offset 16
 636 0004 00AF     		add	r7, sp, #0
 637              	.LCFI34:
 638              		.cfi_def_cfa_register 7
 639 0006 7860     		str	r0, [r7, #4]
 408:./Libraries/STM32H7xx_HAL_Driver/Src/stm32h7xx_hal_crc.c ****   /* Return CRC handle state */
 409:./Libraries/STM32H7xx_HAL_Driver/Src/stm32h7xx_hal_crc.c ****   return hcrc->State;
 640              		.loc 1 409 14
 641 0008 7B68     		ldr	r3, [r7, #4]
 642 000a 5B7F     		ldrb	r3, [r3, #29]
 643 000c DBB2     		uxtb	r3, r3
 410:./Libraries/STM32H7xx_HAL_Driver/Src/stm32h7xx_hal_crc.c **** }
 644              		.loc 1 410 1
 645 000e 1846     		mov	r0, r3
 646 0010 0C37     		adds	r7, r7, #12
 647              	.LCFI35:
 648              		.cfi_def_cfa_offset 4
 649 0012 BD46     		mov	sp, r7
 650              	.LCFI36:
 651              		.cfi_def_cfa_register 13
 652              		@ sp needed
 653 0014 5DF8047B 		ldr	r7, [sp], #4
 654              	.LCFI37:
 655              		.cfi_restore 7
 656              		.cfi_def_cfa_offset 0
ARM GAS  /tmp/ccV6RgLU.s 			page 20


 657 0018 7047     		bx	lr
 658              		.cfi_endproc
 659              	.LFE337:
 661              		.section	.text.CRC_Handle_8,"ax",%progbits
 662              		.align	1
 663              		.syntax unified
 664              		.thumb
 665              		.thumb_func
 666              		.fpu fpv5-d16
 668              	CRC_Handle_8:
 669              	.LFB338:
 411:./Libraries/STM32H7xx_HAL_Driver/Src/stm32h7xx_hal_crc.c **** 
 412:./Libraries/STM32H7xx_HAL_Driver/Src/stm32h7xx_hal_crc.c **** /**
 413:./Libraries/STM32H7xx_HAL_Driver/Src/stm32h7xx_hal_crc.c ****   * @}
 414:./Libraries/STM32H7xx_HAL_Driver/Src/stm32h7xx_hal_crc.c ****   */
 415:./Libraries/STM32H7xx_HAL_Driver/Src/stm32h7xx_hal_crc.c **** 
 416:./Libraries/STM32H7xx_HAL_Driver/Src/stm32h7xx_hal_crc.c **** /**
 417:./Libraries/STM32H7xx_HAL_Driver/Src/stm32h7xx_hal_crc.c ****   * @}
 418:./Libraries/STM32H7xx_HAL_Driver/Src/stm32h7xx_hal_crc.c ****   */
 419:./Libraries/STM32H7xx_HAL_Driver/Src/stm32h7xx_hal_crc.c **** 
 420:./Libraries/STM32H7xx_HAL_Driver/Src/stm32h7xx_hal_crc.c **** /** @addtogroup CRC_Private_Functions
 421:./Libraries/STM32H7xx_HAL_Driver/Src/stm32h7xx_hal_crc.c ****  * @{
 422:./Libraries/STM32H7xx_HAL_Driver/Src/stm32h7xx_hal_crc.c ****  */
 423:./Libraries/STM32H7xx_HAL_Driver/Src/stm32h7xx_hal_crc.c **** 
 424:./Libraries/STM32H7xx_HAL_Driver/Src/stm32h7xx_hal_crc.c **** /**
 425:./Libraries/STM32H7xx_HAL_Driver/Src/stm32h7xx_hal_crc.c ****   * @brief  Enter 8-bit input data to the CRC calculator.
 426:./Libraries/STM32H7xx_HAL_Driver/Src/stm32h7xx_hal_crc.c ****   *         Specific data handling to optimize processing time.
 427:./Libraries/STM32H7xx_HAL_Driver/Src/stm32h7xx_hal_crc.c ****   * @param  hcrc CRC handle
 428:./Libraries/STM32H7xx_HAL_Driver/Src/stm32h7xx_hal_crc.c ****   * @param  pBuffer pointer to the input data buffer
 429:./Libraries/STM32H7xx_HAL_Driver/Src/stm32h7xx_hal_crc.c ****   * @param  BufferLength input data buffer length
 430:./Libraries/STM32H7xx_HAL_Driver/Src/stm32h7xx_hal_crc.c ****   * @retval uint32_t CRC (returned value LSBs for CRC shorter than 32 bits)
 431:./Libraries/STM32H7xx_HAL_Driver/Src/stm32h7xx_hal_crc.c ****   */
 432:./Libraries/STM32H7xx_HAL_Driver/Src/stm32h7xx_hal_crc.c **** static uint32_t CRC_Handle_8(CRC_HandleTypeDef *hcrc, uint8_t pBuffer[], uint32_t BufferLength)
 433:./Libraries/STM32H7xx_HAL_Driver/Src/stm32h7xx_hal_crc.c **** {
 670              		.loc 1 433 1
 671              		.cfi_startproc
 672              		@ args = 0, pretend = 0, frame = 32
 673              		@ frame_needed = 1, uses_anonymous_args = 0
 674              		@ link register save eliminated.
 675 0000 80B4     		push	{r7}
 676              	.LCFI38:
 677              		.cfi_def_cfa_offset 4
 678              		.cfi_offset 7, -4
 679 0002 89B0     		sub	sp, sp, #36
 680              	.LCFI39:
 681              		.cfi_def_cfa_offset 40
 682 0004 00AF     		add	r7, sp, #0
 683              	.LCFI40:
 684              		.cfi_def_cfa_register 7
 685 0006 F860     		str	r0, [r7, #12]
 686 0008 B960     		str	r1, [r7, #8]
 687 000a 7A60     		str	r2, [r7, #4]
 434:./Libraries/STM32H7xx_HAL_Driver/Src/stm32h7xx_hal_crc.c ****   uint32_t i; /* input data buffer index */
 435:./Libraries/STM32H7xx_HAL_Driver/Src/stm32h7xx_hal_crc.c ****   uint16_t data;
 436:./Libraries/STM32H7xx_HAL_Driver/Src/stm32h7xx_hal_crc.c ****   __IO uint16_t *pReg;
 437:./Libraries/STM32H7xx_HAL_Driver/Src/stm32h7xx_hal_crc.c **** 
 438:./Libraries/STM32H7xx_HAL_Driver/Src/stm32h7xx_hal_crc.c ****   /* Processing time optimization: 4 bytes are entered in a row with a single word write,
ARM GAS  /tmp/ccV6RgLU.s 			page 21


 439:./Libraries/STM32H7xx_HAL_Driver/Src/stm32h7xx_hal_crc.c ****    * last bytes must be carefully fed to the CRC calculator to ensure a correct type
 440:./Libraries/STM32H7xx_HAL_Driver/Src/stm32h7xx_hal_crc.c ****    * handling by the peripheral */
 441:./Libraries/STM32H7xx_HAL_Driver/Src/stm32h7xx_hal_crc.c ****   for (i = 0U; i < (BufferLength / 4U); i++)
 688              		.loc 1 441 10
 689 000c 0023     		movs	r3, #0
 690 000e FB61     		str	r3, [r7, #28]
 691              		.loc 1 441 3
 692 0010 23E0     		b	.L40
 693              	.L41:
 442:./Libraries/STM32H7xx_HAL_Driver/Src/stm32h7xx_hal_crc.c ****   {
 443:./Libraries/STM32H7xx_HAL_Driver/Src/stm32h7xx_hal_crc.c ****     hcrc->Instance->DR = ((uint32_t)pBuffer[4U * i] << 24U) | \
 694              		.loc 1 443 48 discriminator 3
 695 0012 FB69     		ldr	r3, [r7, #28]
 696 0014 9B00     		lsls	r3, r3, #2
 697              		.loc 1 443 44 discriminator 3
 698 0016 BA68     		ldr	r2, [r7, #8]
 699 0018 1344     		add	r3, r3, r2
 700 001a 1B78     		ldrb	r3, [r3]	@ zero_extendqisi2
 701              		.loc 1 443 53 discriminator 3
 702 001c 1A06     		lsls	r2, r3, #24
 444:./Libraries/STM32H7xx_HAL_Driver/Src/stm32h7xx_hal_crc.c ****                          ((uint32_t)pBuffer[(4U * i) + 1U] << 16U) | \
 703              		.loc 1 444 49 discriminator 3
 704 001e FB69     		ldr	r3, [r7, #28]
 705 0020 9B00     		lsls	r3, r3, #2
 706              		.loc 1 444 44 discriminator 3
 707 0022 0133     		adds	r3, r3, #1
 708 0024 B968     		ldr	r1, [r7, #8]
 709 0026 0B44     		add	r3, r3, r1
 710 0028 1B78     		ldrb	r3, [r3]	@ zero_extendqisi2
 711              		.loc 1 444 60 discriminator 3
 712 002a 1B04     		lsls	r3, r3, #16
 443:./Libraries/STM32H7xx_HAL_Driver/Src/stm32h7xx_hal_crc.c ****                          ((uint32_t)pBuffer[(4U * i) + 1U] << 16U) | \
 713              		.loc 1 443 61 discriminator 3
 714 002c 1A43     		orrs	r2, r2, r3
 445:./Libraries/STM32H7xx_HAL_Driver/Src/stm32h7xx_hal_crc.c ****                          ((uint32_t)pBuffer[(4U * i) + 2U] << 8U)  | \
 715              		.loc 1 445 49 discriminator 3
 716 002e FB69     		ldr	r3, [r7, #28]
 717 0030 9B00     		lsls	r3, r3, #2
 718              		.loc 1 445 44 discriminator 3
 719 0032 0233     		adds	r3, r3, #2
 720 0034 B968     		ldr	r1, [r7, #8]
 721 0036 0B44     		add	r3, r3, r1
 722 0038 1B78     		ldrb	r3, [r3]	@ zero_extendqisi2
 723              		.loc 1 445 60 discriminator 3
 724 003a 1B02     		lsls	r3, r3, #8
 444:./Libraries/STM32H7xx_HAL_Driver/Src/stm32h7xx_hal_crc.c ****                          ((uint32_t)pBuffer[(4U * i) + 1U] << 16U) | \
 725              		.loc 1 444 68 discriminator 3
 726 003c 1A43     		orrs	r2, r2, r3
 446:./Libraries/STM32H7xx_HAL_Driver/Src/stm32h7xx_hal_crc.c ****                          (uint32_t)pBuffer[(4U * i) + 3U];
 727              		.loc 1 446 48 discriminator 3
 728 003e FB69     		ldr	r3, [r7, #28]
 729 0040 9B00     		lsls	r3, r3, #2
 730              		.loc 1 446 43 discriminator 3
 731 0042 0333     		adds	r3, r3, #3
 732 0044 B968     		ldr	r1, [r7, #8]
 733 0046 0B44     		add	r3, r3, r1
 734 0048 1B78     		ldrb	r3, [r3]	@ zero_extendqisi2
ARM GAS  /tmp/ccV6RgLU.s 			page 22


 735              		.loc 1 446 26 discriminator 3
 736 004a 1946     		mov	r1, r3
 443:./Libraries/STM32H7xx_HAL_Driver/Src/stm32h7xx_hal_crc.c ****                          ((uint32_t)pBuffer[(4U * i) + 1U] << 16U) | \
 737              		.loc 1 443 9 discriminator 3
 738 004c FB68     		ldr	r3, [r7, #12]
 739 004e 1B68     		ldr	r3, [r3]
 445:./Libraries/STM32H7xx_HAL_Driver/Src/stm32h7xx_hal_crc.c ****                          ((uint32_t)pBuffer[(4U * i) + 2U] << 8U)  | \
 740              		.loc 1 445 68 discriminator 3
 741 0050 0A43     		orrs	r2, r2, r1
 443:./Libraries/STM32H7xx_HAL_Driver/Src/stm32h7xx_hal_crc.c ****                          ((uint32_t)pBuffer[(4U * i) + 1U] << 16U) | \
 742              		.loc 1 443 24 discriminator 3
 743 0052 1A60     		str	r2, [r3]
 441:./Libraries/STM32H7xx_HAL_Driver/Src/stm32h7xx_hal_crc.c ****   {
 744              		.loc 1 441 42 discriminator 3
 745 0054 FB69     		ldr	r3, [r7, #28]
 746 0056 0133     		adds	r3, r3, #1
 747 0058 FB61     		str	r3, [r7, #28]
 748              	.L40:
 441:./Libraries/STM32H7xx_HAL_Driver/Src/stm32h7xx_hal_crc.c ****   {
 749              		.loc 1 441 34 discriminator 1
 750 005a 7B68     		ldr	r3, [r7, #4]
 751 005c 9B08     		lsrs	r3, r3, #2
 441:./Libraries/STM32H7xx_HAL_Driver/Src/stm32h7xx_hal_crc.c ****   {
 752              		.loc 1 441 3 discriminator 1
 753 005e FA69     		ldr	r2, [r7, #28]
 754 0060 9A42     		cmp	r2, r3
 755 0062 D6D3     		bcc	.L41
 447:./Libraries/STM32H7xx_HAL_Driver/Src/stm32h7xx_hal_crc.c ****   }
 448:./Libraries/STM32H7xx_HAL_Driver/Src/stm32h7xx_hal_crc.c ****   /* last bytes specific handling */
 449:./Libraries/STM32H7xx_HAL_Driver/Src/stm32h7xx_hal_crc.c ****   if ((BufferLength % 4U) != 0U)
 756              		.loc 1 449 21
 757 0064 7B68     		ldr	r3, [r7, #4]
 758 0066 03F00303 		and	r3, r3, #3
 759              		.loc 1 449 6
 760 006a 002B     		cmp	r3, #0
 761 006c 4DD0     		beq	.L42
 450:./Libraries/STM32H7xx_HAL_Driver/Src/stm32h7xx_hal_crc.c ****   {
 451:./Libraries/STM32H7xx_HAL_Driver/Src/stm32h7xx_hal_crc.c ****     if ((BufferLength % 4U) == 1U)
 762              		.loc 1 451 23
 763 006e 7B68     		ldr	r3, [r7, #4]
 764 0070 03F00303 		and	r3, r3, #3
 765              		.loc 1 451 8
 766 0074 012B     		cmp	r3, #1
 767 0076 07D1     		bne	.L43
 452:./Libraries/STM32H7xx_HAL_Driver/Src/stm32h7xx_hal_crc.c ****     {
 453:./Libraries/STM32H7xx_HAL_Driver/Src/stm32h7xx_hal_crc.c ****       *(__IO uint8_t *)(__IO void *)(&hcrc->Instance->DR) = pBuffer[4U * i];         /* Derogation 
 768              		.loc 1 453 72
 769 0078 FB69     		ldr	r3, [r7, #28]
 770 007a 9B00     		lsls	r3, r3, #2
 771              		.loc 1 453 68
 772 007c BA68     		ldr	r2, [r7, #8]
 773 007e 1344     		add	r3, r3, r2
 774              		.loc 1 453 43
 775 0080 FA68     		ldr	r2, [r7, #12]
 776 0082 1268     		ldr	r2, [r2]
 777              		.loc 1 453 68
 778 0084 1B78     		ldrb	r3, [r3]	@ zero_extendqisi2
ARM GAS  /tmp/ccV6RgLU.s 			page 23


 779              		.loc 1 453 59
 780 0086 1370     		strb	r3, [r2]
 781              	.L43:
 454:./Libraries/STM32H7xx_HAL_Driver/Src/stm32h7xx_hal_crc.c ****     }
 455:./Libraries/STM32H7xx_HAL_Driver/Src/stm32h7xx_hal_crc.c ****     if ((BufferLength % 4U) == 2U)
 782              		.loc 1 455 23
 783 0088 7B68     		ldr	r3, [r7, #4]
 784 008a 03F00303 		and	r3, r3, #3
 785              		.loc 1 455 8
 786 008e 022B     		cmp	r3, #2
 787 0090 16D1     		bne	.L44
 456:./Libraries/STM32H7xx_HAL_Driver/Src/stm32h7xx_hal_crc.c ****     {
 457:./Libraries/STM32H7xx_HAL_Driver/Src/stm32h7xx_hal_crc.c ****       data = ((uint16_t)(pBuffer[4U * i]) << 8U) | (uint16_t)pBuffer[(4U * i) + 1U];
 788              		.loc 1 457 37
 789 0092 FB69     		ldr	r3, [r7, #28]
 790 0094 9B00     		lsls	r3, r3, #2
 791              		.loc 1 457 33
 792 0096 BA68     		ldr	r2, [r7, #8]
 793 0098 1344     		add	r3, r3, r2
 794 009a 1B78     		ldrb	r3, [r3]	@ zero_extendqisi2
 795              		.loc 1 457 43
 796 009c 1B02     		lsls	r3, r3, #8
 797              		.loc 1 457 50
 798 009e 1AB2     		sxth	r2, r3
 799              		.loc 1 457 74
 800 00a0 FB69     		ldr	r3, [r7, #28]
 801 00a2 9B00     		lsls	r3, r3, #2
 802              		.loc 1 457 69
 803 00a4 0133     		adds	r3, r3, #1
 804 00a6 B968     		ldr	r1, [r7, #8]
 805 00a8 0B44     		add	r3, r3, r1
 806 00aa 1B78     		ldrb	r3, [r3]	@ zero_extendqisi2
 807 00ac 1BB2     		sxth	r3, r3
 808              		.loc 1 457 50
 809 00ae 1343     		orrs	r3, r3, r2
 810 00b0 1BB2     		sxth	r3, r3
 811              		.loc 1 457 12
 812 00b2 7B83     		strh	r3, [r7, #26]	@ movhi
 458:./Libraries/STM32H7xx_HAL_Driver/Src/stm32h7xx_hal_crc.c ****       pReg = (__IO uint16_t *)(__IO void *)(&hcrc->Instance->DR);                    /* Derogation 
 813              		.loc 1 458 50
 814 00b4 FB68     		ldr	r3, [r7, #12]
 815 00b6 1B68     		ldr	r3, [r3]
 816              		.loc 1 458 12
 817 00b8 7B61     		str	r3, [r7, #20]
 459:./Libraries/STM32H7xx_HAL_Driver/Src/stm32h7xx_hal_crc.c ****       *pReg = data;
 818              		.loc 1 459 13
 819 00ba 7B69     		ldr	r3, [r7, #20]
 820 00bc 7A8B     		ldrh	r2, [r7, #26]	@ movhi
 821 00be 1A80     		strh	r2, [r3]	@ movhi
 822              	.L44:
 460:./Libraries/STM32H7xx_HAL_Driver/Src/stm32h7xx_hal_crc.c ****     }
 461:./Libraries/STM32H7xx_HAL_Driver/Src/stm32h7xx_hal_crc.c ****     if ((BufferLength % 4U) == 3U)
 823              		.loc 1 461 23
 824 00c0 7B68     		ldr	r3, [r7, #4]
 825 00c2 03F00303 		and	r3, r3, #3
 826              		.loc 1 461 8
 827 00c6 032B     		cmp	r3, #3
ARM GAS  /tmp/ccV6RgLU.s 			page 24


 828 00c8 1FD1     		bne	.L42
 462:./Libraries/STM32H7xx_HAL_Driver/Src/stm32h7xx_hal_crc.c ****     {
 463:./Libraries/STM32H7xx_HAL_Driver/Src/stm32h7xx_hal_crc.c ****       data = ((uint16_t)(pBuffer[4U * i]) << 8U) | (uint16_t)pBuffer[(4U * i) + 1U];
 829              		.loc 1 463 37
 830 00ca FB69     		ldr	r3, [r7, #28]
 831 00cc 9B00     		lsls	r3, r3, #2
 832              		.loc 1 463 33
 833 00ce BA68     		ldr	r2, [r7, #8]
 834 00d0 1344     		add	r3, r3, r2
 835 00d2 1B78     		ldrb	r3, [r3]	@ zero_extendqisi2
 836              		.loc 1 463 43
 837 00d4 1B02     		lsls	r3, r3, #8
 838              		.loc 1 463 50
 839 00d6 1AB2     		sxth	r2, r3
 840              		.loc 1 463 74
 841 00d8 FB69     		ldr	r3, [r7, #28]
 842 00da 9B00     		lsls	r3, r3, #2
 843              		.loc 1 463 69
 844 00dc 0133     		adds	r3, r3, #1
 845 00de B968     		ldr	r1, [r7, #8]
 846 00e0 0B44     		add	r3, r3, r1
 847 00e2 1B78     		ldrb	r3, [r3]	@ zero_extendqisi2
 848 00e4 1BB2     		sxth	r3, r3
 849              		.loc 1 463 50
 850 00e6 1343     		orrs	r3, r3, r2
 851 00e8 1BB2     		sxth	r3, r3
 852              		.loc 1 463 12
 853 00ea 7B83     		strh	r3, [r7, #26]	@ movhi
 464:./Libraries/STM32H7xx_HAL_Driver/Src/stm32h7xx_hal_crc.c ****       pReg = (__IO uint16_t *)(__IO void *)(&hcrc->Instance->DR);                    /* Derogation 
 854              		.loc 1 464 50
 855 00ec FB68     		ldr	r3, [r7, #12]
 856 00ee 1B68     		ldr	r3, [r3]
 857              		.loc 1 464 12
 858 00f0 7B61     		str	r3, [r7, #20]
 465:./Libraries/STM32H7xx_HAL_Driver/Src/stm32h7xx_hal_crc.c ****       *pReg = data;
 859              		.loc 1 465 13
 860 00f2 7B69     		ldr	r3, [r7, #20]
 861 00f4 7A8B     		ldrh	r2, [r7, #26]	@ movhi
 862 00f6 1A80     		strh	r2, [r3]	@ movhi
 466:./Libraries/STM32H7xx_HAL_Driver/Src/stm32h7xx_hal_crc.c **** 
 467:./Libraries/STM32H7xx_HAL_Driver/Src/stm32h7xx_hal_crc.c ****       *(__IO uint8_t *)(__IO void *)(&hcrc->Instance->DR) = pBuffer[(4U * i) + 2U];  /* Derogation 
 863              		.loc 1 467 73
 864 00f8 FB69     		ldr	r3, [r7, #28]
 865 00fa 9B00     		lsls	r3, r3, #2
 866              		.loc 1 467 68
 867 00fc 0233     		adds	r3, r3, #2
 868 00fe BA68     		ldr	r2, [r7, #8]
 869 0100 1344     		add	r3, r3, r2
 870              		.loc 1 467 43
 871 0102 FA68     		ldr	r2, [r7, #12]
 872 0104 1268     		ldr	r2, [r2]
 873              		.loc 1 467 68
 874 0106 1B78     		ldrb	r3, [r3]	@ zero_extendqisi2
 875              		.loc 1 467 59
 876 0108 1370     		strb	r3, [r2]
 877              	.L42:
 468:./Libraries/STM32H7xx_HAL_Driver/Src/stm32h7xx_hal_crc.c ****     }
ARM GAS  /tmp/ccV6RgLU.s 			page 25


 469:./Libraries/STM32H7xx_HAL_Driver/Src/stm32h7xx_hal_crc.c ****   }
 470:./Libraries/STM32H7xx_HAL_Driver/Src/stm32h7xx_hal_crc.c **** 
 471:./Libraries/STM32H7xx_HAL_Driver/Src/stm32h7xx_hal_crc.c ****   /* Return the CRC computed value */
 472:./Libraries/STM32H7xx_HAL_Driver/Src/stm32h7xx_hal_crc.c ****   return hcrc->Instance->DR;
 878              		.loc 1 472 14
 879 010a FB68     		ldr	r3, [r7, #12]
 880 010c 1B68     		ldr	r3, [r3]
 881              		.loc 1 472 24
 882 010e 1B68     		ldr	r3, [r3]
 473:./Libraries/STM32H7xx_HAL_Driver/Src/stm32h7xx_hal_crc.c **** }
 883              		.loc 1 473 1
 884 0110 1846     		mov	r0, r3
 885 0112 2437     		adds	r7, r7, #36
 886              	.LCFI41:
 887              		.cfi_def_cfa_offset 4
 888 0114 BD46     		mov	sp, r7
 889              	.LCFI42:
 890              		.cfi_def_cfa_register 13
 891              		@ sp needed
 892 0116 5DF8047B 		ldr	r7, [sp], #4
 893              	.LCFI43:
 894              		.cfi_restore 7
 895              		.cfi_def_cfa_offset 0
 896 011a 7047     		bx	lr
 897              		.cfi_endproc
 898              	.LFE338:
 900              		.section	.text.CRC_Handle_16,"ax",%progbits
 901              		.align	1
 902              		.syntax unified
 903              		.thumb
 904              		.thumb_func
 905              		.fpu fpv5-d16
 907              	CRC_Handle_16:
 908              	.LFB339:
 474:./Libraries/STM32H7xx_HAL_Driver/Src/stm32h7xx_hal_crc.c **** 
 475:./Libraries/STM32H7xx_HAL_Driver/Src/stm32h7xx_hal_crc.c **** /**
 476:./Libraries/STM32H7xx_HAL_Driver/Src/stm32h7xx_hal_crc.c ****   * @brief  Enter 16-bit input data to the CRC calculator.
 477:./Libraries/STM32H7xx_HAL_Driver/Src/stm32h7xx_hal_crc.c ****   *         Specific data handling to optimize processing time.
 478:./Libraries/STM32H7xx_HAL_Driver/Src/stm32h7xx_hal_crc.c ****   * @param  hcrc CRC handle
 479:./Libraries/STM32H7xx_HAL_Driver/Src/stm32h7xx_hal_crc.c ****   * @param  pBuffer pointer to the input data buffer
 480:./Libraries/STM32H7xx_HAL_Driver/Src/stm32h7xx_hal_crc.c ****   * @param  BufferLength input data buffer length
 481:./Libraries/STM32H7xx_HAL_Driver/Src/stm32h7xx_hal_crc.c ****   * @retval uint32_t CRC (returned value LSBs for CRC shorter than 32 bits)
 482:./Libraries/STM32H7xx_HAL_Driver/Src/stm32h7xx_hal_crc.c ****   */
 483:./Libraries/STM32H7xx_HAL_Driver/Src/stm32h7xx_hal_crc.c **** static uint32_t CRC_Handle_16(CRC_HandleTypeDef *hcrc, uint16_t pBuffer[], uint32_t BufferLength)
 484:./Libraries/STM32H7xx_HAL_Driver/Src/stm32h7xx_hal_crc.c **** {
 909              		.loc 1 484 1
 910              		.cfi_startproc
 911              		@ args = 0, pretend = 0, frame = 24
 912              		@ frame_needed = 1, uses_anonymous_args = 0
 913              		@ link register save eliminated.
 914 0000 80B4     		push	{r7}
 915              	.LCFI44:
 916              		.cfi_def_cfa_offset 4
 917              		.cfi_offset 7, -4
 918 0002 87B0     		sub	sp, sp, #28
 919              	.LCFI45:
 920              		.cfi_def_cfa_offset 32
ARM GAS  /tmp/ccV6RgLU.s 			page 26


 921 0004 00AF     		add	r7, sp, #0
 922              	.LCFI46:
 923              		.cfi_def_cfa_register 7
 924 0006 F860     		str	r0, [r7, #12]
 925 0008 B960     		str	r1, [r7, #8]
 926 000a 7A60     		str	r2, [r7, #4]
 485:./Libraries/STM32H7xx_HAL_Driver/Src/stm32h7xx_hal_crc.c ****   uint32_t i;  /* input data buffer index */
 486:./Libraries/STM32H7xx_HAL_Driver/Src/stm32h7xx_hal_crc.c ****   __IO uint16_t *pReg;
 487:./Libraries/STM32H7xx_HAL_Driver/Src/stm32h7xx_hal_crc.c **** 
 488:./Libraries/STM32H7xx_HAL_Driver/Src/stm32h7xx_hal_crc.c ****   /* Processing time optimization: 2 HalfWords are entered in a row with a single word write,
 489:./Libraries/STM32H7xx_HAL_Driver/Src/stm32h7xx_hal_crc.c ****    * in case of odd length, last HalfWord must be carefully fed to the CRC calculator to ensure
 490:./Libraries/STM32H7xx_HAL_Driver/Src/stm32h7xx_hal_crc.c ****    * a correct type handling by the peripheral */
 491:./Libraries/STM32H7xx_HAL_Driver/Src/stm32h7xx_hal_crc.c ****   for (i = 0U; i < (BufferLength / 2U); i++)
 927              		.loc 1 491 10
 928 000c 0023     		movs	r3, #0
 929 000e 7B61     		str	r3, [r7, #20]
 930              		.loc 1 491 3
 931 0010 13E0     		b	.L47
 932              	.L48:
 492:./Libraries/STM32H7xx_HAL_Driver/Src/stm32h7xx_hal_crc.c ****   {
 493:./Libraries/STM32H7xx_HAL_Driver/Src/stm32h7xx_hal_crc.c ****     hcrc->Instance->DR = ((uint32_t)pBuffer[2U * i] << 16U) | (uint32_t)pBuffer[(2U * i) + 1U];
 933              		.loc 1 493 44 discriminator 3
 934 0012 7B69     		ldr	r3, [r7, #20]
 935 0014 9B00     		lsls	r3, r3, #2
 936 0016 BA68     		ldr	r2, [r7, #8]
 937 0018 1344     		add	r3, r3, r2
 938 001a 1B88     		ldrh	r3, [r3]
 939              		.loc 1 493 53 discriminator 3
 940 001c 1A04     		lsls	r2, r3, #16
 941              		.loc 1 493 80 discriminator 3
 942 001e 7B69     		ldr	r3, [r7, #20]
 943 0020 9B00     		lsls	r3, r3, #2
 944 0022 0233     		adds	r3, r3, #2
 945 0024 B968     		ldr	r1, [r7, #8]
 946 0026 0B44     		add	r3, r3, r1
 947 0028 1B88     		ldrh	r3, [r3]
 948              		.loc 1 493 63 discriminator 3
 949 002a 1946     		mov	r1, r3
 950              		.loc 1 493 9 discriminator 3
 951 002c FB68     		ldr	r3, [r7, #12]
 952 002e 1B68     		ldr	r3, [r3]
 953              		.loc 1 493 61 discriminator 3
 954 0030 0A43     		orrs	r2, r2, r1
 955              		.loc 1 493 24 discriminator 3
 956 0032 1A60     		str	r2, [r3]
 491:./Libraries/STM32H7xx_HAL_Driver/Src/stm32h7xx_hal_crc.c ****   {
 957              		.loc 1 491 42 discriminator 3
 958 0034 7B69     		ldr	r3, [r7, #20]
 959 0036 0133     		adds	r3, r3, #1
 960 0038 7B61     		str	r3, [r7, #20]
 961              	.L47:
 491:./Libraries/STM32H7xx_HAL_Driver/Src/stm32h7xx_hal_crc.c ****   {
 962              		.loc 1 491 34 discriminator 1
 963 003a 7B68     		ldr	r3, [r7, #4]
 964 003c 5B08     		lsrs	r3, r3, #1
 491:./Libraries/STM32H7xx_HAL_Driver/Src/stm32h7xx_hal_crc.c ****   {
 965              		.loc 1 491 3 discriminator 1
ARM GAS  /tmp/ccV6RgLU.s 			page 27


 966 003e 7A69     		ldr	r2, [r7, #20]
 967 0040 9A42     		cmp	r2, r3
 968 0042 E6D3     		bcc	.L48
 494:./Libraries/STM32H7xx_HAL_Driver/Src/stm32h7xx_hal_crc.c ****   }
 495:./Libraries/STM32H7xx_HAL_Driver/Src/stm32h7xx_hal_crc.c ****   if ((BufferLength % 2U) != 0U)
 969              		.loc 1 495 21
 970 0044 7B68     		ldr	r3, [r7, #4]
 971 0046 03F00103 		and	r3, r3, #1
 972              		.loc 1 495 6
 973 004a 002B     		cmp	r3, #0
 974 004c 09D0     		beq	.L49
 496:./Libraries/STM32H7xx_HAL_Driver/Src/stm32h7xx_hal_crc.c ****   {
 497:./Libraries/STM32H7xx_HAL_Driver/Src/stm32h7xx_hal_crc.c ****     pReg = (__IO uint16_t *)(__IO void *)(&hcrc->Instance->DR);                 /* Derogation Misra
 975              		.loc 1 497 48
 976 004e FB68     		ldr	r3, [r7, #12]
 977 0050 1B68     		ldr	r3, [r3]
 978              		.loc 1 497 10
 979 0052 3B61     		str	r3, [r7, #16]
 498:./Libraries/STM32H7xx_HAL_Driver/Src/stm32h7xx_hal_crc.c ****     *pReg = pBuffer[2U * i];
 980              		.loc 1 498 20
 981 0054 7B69     		ldr	r3, [r7, #20]
 982 0056 9B00     		lsls	r3, r3, #2
 983 0058 BA68     		ldr	r2, [r7, #8]
 984 005a 1344     		add	r3, r3, r2
 985 005c 1A88     		ldrh	r2, [r3]
 986              		.loc 1 498 11
 987 005e 3B69     		ldr	r3, [r7, #16]
 988 0060 1A80     		strh	r2, [r3]	@ movhi
 989              	.L49:
 499:./Libraries/STM32H7xx_HAL_Driver/Src/stm32h7xx_hal_crc.c ****   }
 500:./Libraries/STM32H7xx_HAL_Driver/Src/stm32h7xx_hal_crc.c **** 
 501:./Libraries/STM32H7xx_HAL_Driver/Src/stm32h7xx_hal_crc.c ****   /* Return the CRC computed value */
 502:./Libraries/STM32H7xx_HAL_Driver/Src/stm32h7xx_hal_crc.c ****   return hcrc->Instance->DR;
 990              		.loc 1 502 14
 991 0062 FB68     		ldr	r3, [r7, #12]
 992 0064 1B68     		ldr	r3, [r3]
 993              		.loc 1 502 24
 994 0066 1B68     		ldr	r3, [r3]
 503:./Libraries/STM32H7xx_HAL_Driver/Src/stm32h7xx_hal_crc.c **** }
 995              		.loc 1 503 1
 996 0068 1846     		mov	r0, r3
 997 006a 1C37     		adds	r7, r7, #28
 998              	.LCFI47:
 999              		.cfi_def_cfa_offset 4
 1000 006c BD46     		mov	sp, r7
 1001              	.LCFI48:
 1002              		.cfi_def_cfa_register 13
 1003              		@ sp needed
 1004 006e 5DF8047B 		ldr	r7, [sp], #4
 1005              	.LCFI49:
 1006              		.cfi_restore 7
 1007              		.cfi_def_cfa_offset 0
 1008 0072 7047     		bx	lr
 1009              		.cfi_endproc
 1010              	.LFE339:
 1012              		.text
 1013              	.Letext0:
ARM GAS  /tmp/ccV6RgLU.s 			page 28


 1014              		.file 2 "/usr/lib/gcc/arm-none-eabi/9.2.1/include/stdint.h"
 1015              		.file 3 "./Libraries/CMSIS/Core/Include/core_cm7.h"
 1016              		.file 4 "./Libraries/CMSIS/Device/ST/STM32H7xx/Include/system_stm32h7xx.h"
 1017              		.file 5 "./Libraries/CMSIS/Device/ST/STM32H7xx/Include/stm32h747xx.h"
 1018              		.file 6 "/usr/lib/gcc/arm-none-eabi/9.2.1/include/stddef.h"
 1019              		.file 7 "/usr/include/newlib/sys/_types.h"
 1020              		.file 8 "/usr/include/newlib/sys/reent.h"
 1021              		.file 9 "/usr/include/newlib/sys/lock.h"
 1022              		.file 10 "/usr/include/newlib/math.h"
 1023              		.file 11 "./Libraries/STM32H7xx_HAL_Driver/Inc/stm32h7xx_hal_def.h"
 1024              		.file 12 "./Libraries/STM32H7xx_HAL_Driver/Inc/stm32h7xx_hal_crc.h"
 1025              		.file 13 "./Libraries/STM32H7xx_HAL_Driver/Inc/stm32h7xx_hal_flash.h"
 1026              		.file 14 "./Libraries/STM32H7xx_HAL_Driver/Inc/stm32h7xx_hal_uart.h"
 1027              		.file 15 "./Libraries/STM32H7xx_HAL_Driver/Inc/stm32h7xx_hal.h"
ARM GAS  /tmp/ccV6RgLU.s 			page 29


DEFINED SYMBOLS
                            *ABS*:0000000000000000 stm32h7xx_hal_crc.c
     /tmp/ccV6RgLU.s:17     .text.HAL_CRC_Init:0000000000000000 $t
     /tmp/ccV6RgLU.s:25     .text.HAL_CRC_Init:0000000000000000 HAL_CRC_Init
     /tmp/ccV6RgLU.s:274    .text.HAL_CRC_MspInit:0000000000000000 HAL_CRC_MspInit
     /tmp/ccV6RgLU.s:170    .text.HAL_CRC_Init:00000000000000c4 $d
     /tmp/ccV6RgLU.s:175    .text.HAL_CRC_DeInit:0000000000000000 $t
     /tmp/ccV6RgLU.s:182    .text.HAL_CRC_DeInit:0000000000000000 HAL_CRC_DeInit
     /tmp/ccV6RgLU.s:317    .text.HAL_CRC_MspDeInit:0000000000000000 HAL_CRC_MspDeInit
     /tmp/ccV6RgLU.s:267    .text.HAL_CRC_MspInit:0000000000000000 $t
     /tmp/ccV6RgLU.s:310    .text.HAL_CRC_MspDeInit:0000000000000000 $t
     /tmp/ccV6RgLU.s:353    .text.HAL_CRC_Accumulate:0000000000000000 $t
     /tmp/ccV6RgLU.s:360    .text.HAL_CRC_Accumulate:0000000000000000 HAL_CRC_Accumulate
     /tmp/ccV6RgLU.s:668    .text.CRC_Handle_8:0000000000000000 CRC_Handle_8
     /tmp/ccV6RgLU.s:907    .text.CRC_Handle_16:0000000000000000 CRC_Handle_16
     /tmp/ccV6RgLU.s:480    .text.HAL_CRC_Calculate:0000000000000000 $t
     /tmp/ccV6RgLU.s:487    .text.HAL_CRC_Calculate:0000000000000000 HAL_CRC_Calculate
     /tmp/ccV6RgLU.s:615    .text.HAL_CRC_GetState:0000000000000000 $t
     /tmp/ccV6RgLU.s:622    .text.HAL_CRC_GetState:0000000000000000 HAL_CRC_GetState
     /tmp/ccV6RgLU.s:662    .text.CRC_Handle_8:0000000000000000 $t
     /tmp/ccV6RgLU.s:901    .text.CRC_Handle_16:0000000000000000 $t

UNDEFINED SYMBOLS
HAL_CRCEx_Polynomial_Set
