ARM GAS  /tmp/ccxx2olO.s 			page 1


   1              		.cpu cortex-m7
   2              		.eabi_attribute 28, 1
   3              		.eabi_attribute 20, 1
   4              		.eabi_attribute 21, 1
   5              		.eabi_attribute 23, 3
   6              		.eabi_attribute 24, 1
   7              		.eabi_attribute 25, 1
   8              		.eabi_attribute 26, 1
   9              		.eabi_attribute 30, 6
  10              		.eabi_attribute 34, 1
  11              		.eabi_attribute 18, 4
  12              		.file	"stm32h7xx_hal_tim_ex.c"
  13              		.text
  14              	.Ltext0:
  15              		.cfi_sections	.debug_frame
  16              		.section	.text.HAL_TIMEx_HallSensor_Init,"ax",%progbits
  17              		.align	1
  18              		.global	HAL_TIMEx_HallSensor_Init
  19              		.arch armv7e-m
  20              		.syntax unified
  21              		.thumb
  22              		.thumb_func
  23              		.fpu fpv5-d16
  25              	HAL_TIMEx_HallSensor_Init:
  26              	.LFB331:
  27              		.file 1 "./Libraries/STM32H7xx_HAL_Driver/Src/stm32h7xx_hal_tim_ex.c"
   1:./Libraries/STM32H7xx_HAL_Driver/Src/stm32h7xx_hal_tim_ex.c **** /**
   2:./Libraries/STM32H7xx_HAL_Driver/Src/stm32h7xx_hal_tim_ex.c ****   ******************************************************************************
   3:./Libraries/STM32H7xx_HAL_Driver/Src/stm32h7xx_hal_tim_ex.c ****   * @file    stm32h7xx_hal_tim_ex.c
   4:./Libraries/STM32H7xx_HAL_Driver/Src/stm32h7xx_hal_tim_ex.c ****   * @author  MCD Application Team
   5:./Libraries/STM32H7xx_HAL_Driver/Src/stm32h7xx_hal_tim_ex.c ****   * @brief   TIM HAL module driver.
   6:./Libraries/STM32H7xx_HAL_Driver/Src/stm32h7xx_hal_tim_ex.c ****   *          This file provides firmware functions to manage the following
   7:./Libraries/STM32H7xx_HAL_Driver/Src/stm32h7xx_hal_tim_ex.c ****   *          functionalities of the Timer Extended peripheral:
   8:./Libraries/STM32H7xx_HAL_Driver/Src/stm32h7xx_hal_tim_ex.c ****   *           + Time Hall Sensor Interface Initialization
   9:./Libraries/STM32H7xx_HAL_Driver/Src/stm32h7xx_hal_tim_ex.c ****   *           + Time Hall Sensor Interface Start
  10:./Libraries/STM32H7xx_HAL_Driver/Src/stm32h7xx_hal_tim_ex.c ****   *           + Time Complementary signal break and dead time configuration
  11:./Libraries/STM32H7xx_HAL_Driver/Src/stm32h7xx_hal_tim_ex.c ****   *           + Time Master and Slave synchronization configuration
  12:./Libraries/STM32H7xx_HAL_Driver/Src/stm32h7xx_hal_tim_ex.c ****   *           + Time Output Compare/PWM Channel Configuration (for channels 5 and 6)
  13:./Libraries/STM32H7xx_HAL_Driver/Src/stm32h7xx_hal_tim_ex.c ****   *           + Timer remapping capabilities configuration
  14:./Libraries/STM32H7xx_HAL_Driver/Src/stm32h7xx_hal_tim_ex.c ****   @verbatim
  15:./Libraries/STM32H7xx_HAL_Driver/Src/stm32h7xx_hal_tim_ex.c ****   ==============================================================================
  16:./Libraries/STM32H7xx_HAL_Driver/Src/stm32h7xx_hal_tim_ex.c ****                       ##### TIMER Extended features #####
  17:./Libraries/STM32H7xx_HAL_Driver/Src/stm32h7xx_hal_tim_ex.c ****   ==============================================================================
  18:./Libraries/STM32H7xx_HAL_Driver/Src/stm32h7xx_hal_tim_ex.c ****   [..]
  19:./Libraries/STM32H7xx_HAL_Driver/Src/stm32h7xx_hal_tim_ex.c ****     The Timer Extended features include:
  20:./Libraries/STM32H7xx_HAL_Driver/Src/stm32h7xx_hal_tim_ex.c ****     (#) Complementary outputs with programmable dead-time for :
  21:./Libraries/STM32H7xx_HAL_Driver/Src/stm32h7xx_hal_tim_ex.c ****         (++) Output Compare
  22:./Libraries/STM32H7xx_HAL_Driver/Src/stm32h7xx_hal_tim_ex.c ****         (++) PWM generation (Edge and Center-aligned Mode)
  23:./Libraries/STM32H7xx_HAL_Driver/Src/stm32h7xx_hal_tim_ex.c ****         (++) One-pulse mode output
  24:./Libraries/STM32H7xx_HAL_Driver/Src/stm32h7xx_hal_tim_ex.c ****     (#) Synchronization circuit to control the timer with external signals and to
  25:./Libraries/STM32H7xx_HAL_Driver/Src/stm32h7xx_hal_tim_ex.c ****         interconnect several timers together.
  26:./Libraries/STM32H7xx_HAL_Driver/Src/stm32h7xx_hal_tim_ex.c ****     (#) Break input to put the timer output signals in reset state or in a known state.
  27:./Libraries/STM32H7xx_HAL_Driver/Src/stm32h7xx_hal_tim_ex.c ****     (#) Supports incremental (quadrature) encoder and hall-sensor circuitry for
  28:./Libraries/STM32H7xx_HAL_Driver/Src/stm32h7xx_hal_tim_ex.c ****         positioning purposes
  29:./Libraries/STM32H7xx_HAL_Driver/Src/stm32h7xx_hal_tim_ex.c **** 
  30:./Libraries/STM32H7xx_HAL_Driver/Src/stm32h7xx_hal_tim_ex.c ****             ##### How to use this driver #####
  31:./Libraries/STM32H7xx_HAL_Driver/Src/stm32h7xx_hal_tim_ex.c ****   ==============================================================================
ARM GAS  /tmp/ccxx2olO.s 			page 2


  32:./Libraries/STM32H7xx_HAL_Driver/Src/stm32h7xx_hal_tim_ex.c ****     [..]
  33:./Libraries/STM32H7xx_HAL_Driver/Src/stm32h7xx_hal_tim_ex.c ****      (#) Initialize the TIM low level resources by implementing the following functions
  34:./Libraries/STM32H7xx_HAL_Driver/Src/stm32h7xx_hal_tim_ex.c ****          depending on the selected feature:
  35:./Libraries/STM32H7xx_HAL_Driver/Src/stm32h7xx_hal_tim_ex.c ****            (++) Hall Sensor output : HAL_TIMEx_HallSensor_MspInit()
  36:./Libraries/STM32H7xx_HAL_Driver/Src/stm32h7xx_hal_tim_ex.c **** 
  37:./Libraries/STM32H7xx_HAL_Driver/Src/stm32h7xx_hal_tim_ex.c ****      (#) Initialize the TIM low level resources :
  38:./Libraries/STM32H7xx_HAL_Driver/Src/stm32h7xx_hal_tim_ex.c ****         (##) Enable the TIM interface clock using __HAL_RCC_TIMx_CLK_ENABLE();
  39:./Libraries/STM32H7xx_HAL_Driver/Src/stm32h7xx_hal_tim_ex.c ****         (##) TIM pins configuration
  40:./Libraries/STM32H7xx_HAL_Driver/Src/stm32h7xx_hal_tim_ex.c ****             (+++) Enable the clock for the TIM GPIOs using the following function:
  41:./Libraries/STM32H7xx_HAL_Driver/Src/stm32h7xx_hal_tim_ex.c ****               __HAL_RCC_GPIOx_CLK_ENABLE();
  42:./Libraries/STM32H7xx_HAL_Driver/Src/stm32h7xx_hal_tim_ex.c ****             (+++) Configure these TIM pins in Alternate function mode using HAL_GPIO_Init();
  43:./Libraries/STM32H7xx_HAL_Driver/Src/stm32h7xx_hal_tim_ex.c **** 
  44:./Libraries/STM32H7xx_HAL_Driver/Src/stm32h7xx_hal_tim_ex.c ****      (#) The external Clock can be configured, if needed (the default clock is the
  45:./Libraries/STM32H7xx_HAL_Driver/Src/stm32h7xx_hal_tim_ex.c ****          internal clock from the APBx), using the following function:
  46:./Libraries/STM32H7xx_HAL_Driver/Src/stm32h7xx_hal_tim_ex.c ****          HAL_TIM_ConfigClockSource, the clock configuration should be done before
  47:./Libraries/STM32H7xx_HAL_Driver/Src/stm32h7xx_hal_tim_ex.c ****          any start function.
  48:./Libraries/STM32H7xx_HAL_Driver/Src/stm32h7xx_hal_tim_ex.c **** 
  49:./Libraries/STM32H7xx_HAL_Driver/Src/stm32h7xx_hal_tim_ex.c ****      (#) Configure the TIM in the desired functioning mode using one of the
  50:./Libraries/STM32H7xx_HAL_Driver/Src/stm32h7xx_hal_tim_ex.c ****          initialization function of this driver:
  51:./Libraries/STM32H7xx_HAL_Driver/Src/stm32h7xx_hal_tim_ex.c ****           (++) HAL_TIMEx_HallSensor_Init() and HAL_TIMEx_ConfigCommutEvent(): to use the
  52:./Libraries/STM32H7xx_HAL_Driver/Src/stm32h7xx_hal_tim_ex.c ****                Timer Hall Sensor Interface and the commutation event with the corresponding
  53:./Libraries/STM32H7xx_HAL_Driver/Src/stm32h7xx_hal_tim_ex.c ****                Interrupt and DMA request if needed (Note that One Timer is used to interface
  54:./Libraries/STM32H7xx_HAL_Driver/Src/stm32h7xx_hal_tim_ex.c ****                with the Hall sensor Interface and another Timer should be used to use
  55:./Libraries/STM32H7xx_HAL_Driver/Src/stm32h7xx_hal_tim_ex.c ****                the commutation event).
  56:./Libraries/STM32H7xx_HAL_Driver/Src/stm32h7xx_hal_tim_ex.c **** 
  57:./Libraries/STM32H7xx_HAL_Driver/Src/stm32h7xx_hal_tim_ex.c ****      (#) Activate the TIM peripheral using one of the start functions:
  58:./Libraries/STM32H7xx_HAL_Driver/Src/stm32h7xx_hal_tim_ex.c ****            (++) Complementary Output Compare : HAL_TIMEx_OCN_Start(), HAL_TIMEx_OCN_Start_DMA(), HA
  59:./Libraries/STM32H7xx_HAL_Driver/Src/stm32h7xx_hal_tim_ex.c ****            (++) Complementary PWM generation : HAL_TIMEx_PWMN_Start(), HAL_TIMEx_PWMN_Start_DMA(), 
  60:./Libraries/STM32H7xx_HAL_Driver/Src/stm32h7xx_hal_tim_ex.c ****            (++) Complementary One-pulse mode output : HAL_TIMEx_OnePulseN_Start(), HAL_TIMEx_OnePul
  61:./Libraries/STM32H7xx_HAL_Driver/Src/stm32h7xx_hal_tim_ex.c ****            (++) Hall Sensor output : HAL_TIMEx_HallSensor_Start(), HAL_TIMEx_HallSensor_Start_DMA()
  62:./Libraries/STM32H7xx_HAL_Driver/Src/stm32h7xx_hal_tim_ex.c **** 
  63:./Libraries/STM32H7xx_HAL_Driver/Src/stm32h7xx_hal_tim_ex.c ****   @endverbatim
  64:./Libraries/STM32H7xx_HAL_Driver/Src/stm32h7xx_hal_tim_ex.c ****   ******************************************************************************
  65:./Libraries/STM32H7xx_HAL_Driver/Src/stm32h7xx_hal_tim_ex.c ****   * @attention
  66:./Libraries/STM32H7xx_HAL_Driver/Src/stm32h7xx_hal_tim_ex.c ****   *
  67:./Libraries/STM32H7xx_HAL_Driver/Src/stm32h7xx_hal_tim_ex.c ****   * <h2><center>&copy; Copyright (c) 2017 STMicroelectronics.
  68:./Libraries/STM32H7xx_HAL_Driver/Src/stm32h7xx_hal_tim_ex.c ****   * All rights reserved.</center></h2>
  69:./Libraries/STM32H7xx_HAL_Driver/Src/stm32h7xx_hal_tim_ex.c ****   *
  70:./Libraries/STM32H7xx_HAL_Driver/Src/stm32h7xx_hal_tim_ex.c ****   * This software component is licensed by ST under BSD 3-Clause license,
  71:./Libraries/STM32H7xx_HAL_Driver/Src/stm32h7xx_hal_tim_ex.c ****   * the "License"; You may not use this file except in compliance with the
  72:./Libraries/STM32H7xx_HAL_Driver/Src/stm32h7xx_hal_tim_ex.c ****   * License. You may obtain a copy of the License at:
  73:./Libraries/STM32H7xx_HAL_Driver/Src/stm32h7xx_hal_tim_ex.c ****   *                        opensource.org/licenses/BSD-3-Clause
  74:./Libraries/STM32H7xx_HAL_Driver/Src/stm32h7xx_hal_tim_ex.c ****   *
  75:./Libraries/STM32H7xx_HAL_Driver/Src/stm32h7xx_hal_tim_ex.c ****   ******************************************************************************
  76:./Libraries/STM32H7xx_HAL_Driver/Src/stm32h7xx_hal_tim_ex.c ****   */
  77:./Libraries/STM32H7xx_HAL_Driver/Src/stm32h7xx_hal_tim_ex.c **** 
  78:./Libraries/STM32H7xx_HAL_Driver/Src/stm32h7xx_hal_tim_ex.c **** /* Includes ------------------------------------------------------------------*/
  79:./Libraries/STM32H7xx_HAL_Driver/Src/stm32h7xx_hal_tim_ex.c **** #include "stm32h7xx_hal.h"
  80:./Libraries/STM32H7xx_HAL_Driver/Src/stm32h7xx_hal_tim_ex.c **** 
  81:./Libraries/STM32H7xx_HAL_Driver/Src/stm32h7xx_hal_tim_ex.c **** /** @addtogroup STM32H7xx_HAL_Driver
  82:./Libraries/STM32H7xx_HAL_Driver/Src/stm32h7xx_hal_tim_ex.c ****   * @{
  83:./Libraries/STM32H7xx_HAL_Driver/Src/stm32h7xx_hal_tim_ex.c ****   */
  84:./Libraries/STM32H7xx_HAL_Driver/Src/stm32h7xx_hal_tim_ex.c **** 
  85:./Libraries/STM32H7xx_HAL_Driver/Src/stm32h7xx_hal_tim_ex.c **** /** @defgroup TIMEx TIMEx
  86:./Libraries/STM32H7xx_HAL_Driver/Src/stm32h7xx_hal_tim_ex.c ****   * @brief TIM Extended HAL module driver
  87:./Libraries/STM32H7xx_HAL_Driver/Src/stm32h7xx_hal_tim_ex.c ****   * @{
  88:./Libraries/STM32H7xx_HAL_Driver/Src/stm32h7xx_hal_tim_ex.c ****   */
ARM GAS  /tmp/ccxx2olO.s 			page 3


  89:./Libraries/STM32H7xx_HAL_Driver/Src/stm32h7xx_hal_tim_ex.c **** 
  90:./Libraries/STM32H7xx_HAL_Driver/Src/stm32h7xx_hal_tim_ex.c **** #ifdef HAL_TIM_MODULE_ENABLED
  91:./Libraries/STM32H7xx_HAL_Driver/Src/stm32h7xx_hal_tim_ex.c **** 
  92:./Libraries/STM32H7xx_HAL_Driver/Src/stm32h7xx_hal_tim_ex.c **** /* Private typedef -----------------------------------------------------------*/
  93:./Libraries/STM32H7xx_HAL_Driver/Src/stm32h7xx_hal_tim_ex.c **** /* Private define ------------------------------------------------------------*/
  94:./Libraries/STM32H7xx_HAL_Driver/Src/stm32h7xx_hal_tim_ex.c **** /* Private macros ------------------------------------------------------------*/
  95:./Libraries/STM32H7xx_HAL_Driver/Src/stm32h7xx_hal_tim_ex.c **** /* Private variables ---------------------------------------------------------*/
  96:./Libraries/STM32H7xx_HAL_Driver/Src/stm32h7xx_hal_tim_ex.c **** /* Private function prototypes -----------------------------------------------*/
  97:./Libraries/STM32H7xx_HAL_Driver/Src/stm32h7xx_hal_tim_ex.c **** static void TIM_DMADelayPulseNCplt(DMA_HandleTypeDef *hdma);
  98:./Libraries/STM32H7xx_HAL_Driver/Src/stm32h7xx_hal_tim_ex.c **** static void TIM_DMAErrorCCxN(DMA_HandleTypeDef *hdma);
  99:./Libraries/STM32H7xx_HAL_Driver/Src/stm32h7xx_hal_tim_ex.c **** static void TIM_CCxNChannelCmd(TIM_TypeDef *TIMx, uint32_t Channel, uint32_t ChannelNState);
 100:./Libraries/STM32H7xx_HAL_Driver/Src/stm32h7xx_hal_tim_ex.c **** 
 101:./Libraries/STM32H7xx_HAL_Driver/Src/stm32h7xx_hal_tim_ex.c **** /* Exported functions --------------------------------------------------------*/
 102:./Libraries/STM32H7xx_HAL_Driver/Src/stm32h7xx_hal_tim_ex.c **** /** @defgroup TIMEx_Exported_Functions TIM Extended Exported Functions
 103:./Libraries/STM32H7xx_HAL_Driver/Src/stm32h7xx_hal_tim_ex.c ****   * @{
 104:./Libraries/STM32H7xx_HAL_Driver/Src/stm32h7xx_hal_tim_ex.c ****   */
 105:./Libraries/STM32H7xx_HAL_Driver/Src/stm32h7xx_hal_tim_ex.c **** 
 106:./Libraries/STM32H7xx_HAL_Driver/Src/stm32h7xx_hal_tim_ex.c **** /** @defgroup TIMEx_Exported_Functions_Group1 Extended Timer Hall Sensor functions
 107:./Libraries/STM32H7xx_HAL_Driver/Src/stm32h7xx_hal_tim_ex.c ****   * @brief    Timer Hall Sensor functions
 108:./Libraries/STM32H7xx_HAL_Driver/Src/stm32h7xx_hal_tim_ex.c ****   *
 109:./Libraries/STM32H7xx_HAL_Driver/Src/stm32h7xx_hal_tim_ex.c **** @verbatim
 110:./Libraries/STM32H7xx_HAL_Driver/Src/stm32h7xx_hal_tim_ex.c ****   ==============================================================================
 111:./Libraries/STM32H7xx_HAL_Driver/Src/stm32h7xx_hal_tim_ex.c ****                       ##### Timer Hall Sensor functions #####
 112:./Libraries/STM32H7xx_HAL_Driver/Src/stm32h7xx_hal_tim_ex.c ****   ==============================================================================
 113:./Libraries/STM32H7xx_HAL_Driver/Src/stm32h7xx_hal_tim_ex.c ****   [..]
 114:./Libraries/STM32H7xx_HAL_Driver/Src/stm32h7xx_hal_tim_ex.c ****     This section provides functions allowing to:
 115:./Libraries/STM32H7xx_HAL_Driver/Src/stm32h7xx_hal_tim_ex.c ****     (+) Initialize and configure TIM HAL Sensor.
 116:./Libraries/STM32H7xx_HAL_Driver/Src/stm32h7xx_hal_tim_ex.c ****     (+) De-initialize TIM HAL Sensor.
 117:./Libraries/STM32H7xx_HAL_Driver/Src/stm32h7xx_hal_tim_ex.c ****     (+) Start the Hall Sensor Interface.
 118:./Libraries/STM32H7xx_HAL_Driver/Src/stm32h7xx_hal_tim_ex.c ****     (+) Stop the Hall Sensor Interface.
 119:./Libraries/STM32H7xx_HAL_Driver/Src/stm32h7xx_hal_tim_ex.c ****     (+) Start the Hall Sensor Interface and enable interrupts.
 120:./Libraries/STM32H7xx_HAL_Driver/Src/stm32h7xx_hal_tim_ex.c ****     (+) Stop the Hall Sensor Interface and disable interrupts.
 121:./Libraries/STM32H7xx_HAL_Driver/Src/stm32h7xx_hal_tim_ex.c ****     (+) Start the Hall Sensor Interface and enable DMA transfers.
 122:./Libraries/STM32H7xx_HAL_Driver/Src/stm32h7xx_hal_tim_ex.c ****     (+) Stop the Hall Sensor Interface and disable DMA transfers.
 123:./Libraries/STM32H7xx_HAL_Driver/Src/stm32h7xx_hal_tim_ex.c **** 
 124:./Libraries/STM32H7xx_HAL_Driver/Src/stm32h7xx_hal_tim_ex.c **** @endverbatim
 125:./Libraries/STM32H7xx_HAL_Driver/Src/stm32h7xx_hal_tim_ex.c ****   * @{
 126:./Libraries/STM32H7xx_HAL_Driver/Src/stm32h7xx_hal_tim_ex.c ****   */
 127:./Libraries/STM32H7xx_HAL_Driver/Src/stm32h7xx_hal_tim_ex.c **** /**
 128:./Libraries/STM32H7xx_HAL_Driver/Src/stm32h7xx_hal_tim_ex.c ****   * @brief  Initializes the TIM Hall Sensor Interface and initialize the associated handle.
 129:./Libraries/STM32H7xx_HAL_Driver/Src/stm32h7xx_hal_tim_ex.c ****   * @note   When the timer instance is initialized in Hall Sensor Interface mode,
 130:./Libraries/STM32H7xx_HAL_Driver/Src/stm32h7xx_hal_tim_ex.c ****   *         timer channels 1 and channel 2 are reserved and cannot be used for
 131:./Libraries/STM32H7xx_HAL_Driver/Src/stm32h7xx_hal_tim_ex.c ****   *         other purpose.
 132:./Libraries/STM32H7xx_HAL_Driver/Src/stm32h7xx_hal_tim_ex.c ****   * @param  htim TIM Hall Sensor Interface handle
 133:./Libraries/STM32H7xx_HAL_Driver/Src/stm32h7xx_hal_tim_ex.c ****   * @param  sConfig TIM Hall Sensor configuration structure
 134:./Libraries/STM32H7xx_HAL_Driver/Src/stm32h7xx_hal_tim_ex.c ****   * @retval HAL status
 135:./Libraries/STM32H7xx_HAL_Driver/Src/stm32h7xx_hal_tim_ex.c ****   */
 136:./Libraries/STM32H7xx_HAL_Driver/Src/stm32h7xx_hal_tim_ex.c **** HAL_StatusTypeDef HAL_TIMEx_HallSensor_Init(TIM_HandleTypeDef *htim, TIM_HallSensor_InitTypeDef *sC
 137:./Libraries/STM32H7xx_HAL_Driver/Src/stm32h7xx_hal_tim_ex.c **** {
  28              		.loc 1 137 1
  29              		.cfi_startproc
  30              		@ args = 0, pretend = 0, frame = 40
  31              		@ frame_needed = 1, uses_anonymous_args = 0
  32 0000 80B5     		push	{r7, lr}
  33              	.LCFI0:
  34              		.cfi_def_cfa_offset 8
  35              		.cfi_offset 7, -8
ARM GAS  /tmp/ccxx2olO.s 			page 4


  36              		.cfi_offset 14, -4
  37 0002 8AB0     		sub	sp, sp, #40
  38              	.LCFI1:
  39              		.cfi_def_cfa_offset 48
  40 0004 00AF     		add	r7, sp, #0
  41              	.LCFI2:
  42              		.cfi_def_cfa_register 7
  43 0006 7860     		str	r0, [r7, #4]
  44 0008 3960     		str	r1, [r7]
 138:./Libraries/STM32H7xx_HAL_Driver/Src/stm32h7xx_hal_tim_ex.c ****   TIM_OC_InitTypeDef OC_Config;
 139:./Libraries/STM32H7xx_HAL_Driver/Src/stm32h7xx_hal_tim_ex.c **** 
 140:./Libraries/STM32H7xx_HAL_Driver/Src/stm32h7xx_hal_tim_ex.c ****   /* Check the TIM handle allocation */
 141:./Libraries/STM32H7xx_HAL_Driver/Src/stm32h7xx_hal_tim_ex.c ****   if (htim == NULL)
  45              		.loc 1 141 6
  46 000a 7B68     		ldr	r3, [r7, #4]
  47 000c 002B     		cmp	r3, #0
  48 000e 01D1     		bne	.L2
 142:./Libraries/STM32H7xx_HAL_Driver/Src/stm32h7xx_hal_tim_ex.c ****   {
 143:./Libraries/STM32H7xx_HAL_Driver/Src/stm32h7xx_hal_tim_ex.c ****     return HAL_ERROR;
  49              		.loc 1 143 12
  50 0010 0123     		movs	r3, #1
  51 0012 9AE0     		b	.L5
  52              	.L2:
 144:./Libraries/STM32H7xx_HAL_Driver/Src/stm32h7xx_hal_tim_ex.c ****   }
 145:./Libraries/STM32H7xx_HAL_Driver/Src/stm32h7xx_hal_tim_ex.c **** 
 146:./Libraries/STM32H7xx_HAL_Driver/Src/stm32h7xx_hal_tim_ex.c ****   /* Check the parameters */
 147:./Libraries/STM32H7xx_HAL_Driver/Src/stm32h7xx_hal_tim_ex.c ****   assert_param(IS_TIM_HALL_SENSOR_INTERFACE_INSTANCE(htim->Instance));
 148:./Libraries/STM32H7xx_HAL_Driver/Src/stm32h7xx_hal_tim_ex.c ****   assert_param(IS_TIM_COUNTER_MODE(htim->Init.CounterMode));
 149:./Libraries/STM32H7xx_HAL_Driver/Src/stm32h7xx_hal_tim_ex.c ****   assert_param(IS_TIM_CLOCKDIVISION_DIV(htim->Init.ClockDivision));
 150:./Libraries/STM32H7xx_HAL_Driver/Src/stm32h7xx_hal_tim_ex.c ****   assert_param(IS_TIM_AUTORELOAD_PRELOAD(htim->Init.AutoReloadPreload));
 151:./Libraries/STM32H7xx_HAL_Driver/Src/stm32h7xx_hal_tim_ex.c ****   assert_param(IS_TIM_IC_POLARITY(sConfig->IC1Polarity));
 152:./Libraries/STM32H7xx_HAL_Driver/Src/stm32h7xx_hal_tim_ex.c ****   assert_param(IS_TIM_IC_PRESCALER(sConfig->IC1Prescaler));
 153:./Libraries/STM32H7xx_HAL_Driver/Src/stm32h7xx_hal_tim_ex.c ****   assert_param(IS_TIM_IC_FILTER(sConfig->IC1Filter));
 154:./Libraries/STM32H7xx_HAL_Driver/Src/stm32h7xx_hal_tim_ex.c **** 
 155:./Libraries/STM32H7xx_HAL_Driver/Src/stm32h7xx_hal_tim_ex.c ****   if (htim->State == HAL_TIM_STATE_RESET)
  53              		.loc 1 155 11
  54 0014 7B68     		ldr	r3, [r7, #4]
  55 0016 93F83D30 		ldrb	r3, [r3, #61]
  56 001a DBB2     		uxtb	r3, r3
  57              		.loc 1 155 6
  58 001c 002B     		cmp	r3, #0
  59 001e 06D1     		bne	.L4
 156:./Libraries/STM32H7xx_HAL_Driver/Src/stm32h7xx_hal_tim_ex.c ****   {
 157:./Libraries/STM32H7xx_HAL_Driver/Src/stm32h7xx_hal_tim_ex.c ****     /* Allocate lock resource and initialize it */
 158:./Libraries/STM32H7xx_HAL_Driver/Src/stm32h7xx_hal_tim_ex.c ****     htim->Lock = HAL_UNLOCKED;
  60              		.loc 1 158 16
  61 0020 7B68     		ldr	r3, [r7, #4]
  62 0022 0022     		movs	r2, #0
  63 0024 83F83C20 		strb	r2, [r3, #60]
 159:./Libraries/STM32H7xx_HAL_Driver/Src/stm32h7xx_hal_tim_ex.c **** 
 160:./Libraries/STM32H7xx_HAL_Driver/Src/stm32h7xx_hal_tim_ex.c **** #if (USE_HAL_TIM_REGISTER_CALLBACKS == 1)
 161:./Libraries/STM32H7xx_HAL_Driver/Src/stm32h7xx_hal_tim_ex.c ****     /* Reset interrupt callbacks to legacy week callbacks */
 162:./Libraries/STM32H7xx_HAL_Driver/Src/stm32h7xx_hal_tim_ex.c ****     TIM_ResetCallback(htim);
 163:./Libraries/STM32H7xx_HAL_Driver/Src/stm32h7xx_hal_tim_ex.c **** 
 164:./Libraries/STM32H7xx_HAL_Driver/Src/stm32h7xx_hal_tim_ex.c ****     if (htim->HallSensor_MspInitCallback == NULL)
 165:./Libraries/STM32H7xx_HAL_Driver/Src/stm32h7xx_hal_tim_ex.c ****     {
 166:./Libraries/STM32H7xx_HAL_Driver/Src/stm32h7xx_hal_tim_ex.c ****       htim->HallSensor_MspInitCallback = HAL_TIMEx_HallSensor_MspInit;
ARM GAS  /tmp/ccxx2olO.s 			page 5


 167:./Libraries/STM32H7xx_HAL_Driver/Src/stm32h7xx_hal_tim_ex.c ****     }
 168:./Libraries/STM32H7xx_HAL_Driver/Src/stm32h7xx_hal_tim_ex.c ****     /* Init the low level hardware : GPIO, CLOCK, NVIC */
 169:./Libraries/STM32H7xx_HAL_Driver/Src/stm32h7xx_hal_tim_ex.c ****     htim->HallSensor_MspInitCallback(htim);
 170:./Libraries/STM32H7xx_HAL_Driver/Src/stm32h7xx_hal_tim_ex.c **** #else
 171:./Libraries/STM32H7xx_HAL_Driver/Src/stm32h7xx_hal_tim_ex.c ****     /* Init the low level hardware : GPIO, CLOCK, NVIC and DMA */
 172:./Libraries/STM32H7xx_HAL_Driver/Src/stm32h7xx_hal_tim_ex.c ****     HAL_TIMEx_HallSensor_MspInit(htim);
  64              		.loc 1 172 5
  65 0028 7868     		ldr	r0, [r7, #4]
  66 002a FFF7FEFF 		bl	HAL_TIMEx_HallSensor_MspInit
  67              	.L4:
 173:./Libraries/STM32H7xx_HAL_Driver/Src/stm32h7xx_hal_tim_ex.c **** #endif /* USE_HAL_TIM_REGISTER_CALLBACKS */
 174:./Libraries/STM32H7xx_HAL_Driver/Src/stm32h7xx_hal_tim_ex.c ****   }
 175:./Libraries/STM32H7xx_HAL_Driver/Src/stm32h7xx_hal_tim_ex.c **** 
 176:./Libraries/STM32H7xx_HAL_Driver/Src/stm32h7xx_hal_tim_ex.c ****   /* Set the TIM state */
 177:./Libraries/STM32H7xx_HAL_Driver/Src/stm32h7xx_hal_tim_ex.c ****   htim->State = HAL_TIM_STATE_BUSY;
  68              		.loc 1 177 15
  69 002e 7B68     		ldr	r3, [r7, #4]
  70 0030 0222     		movs	r2, #2
  71 0032 83F83D20 		strb	r2, [r3, #61]
 178:./Libraries/STM32H7xx_HAL_Driver/Src/stm32h7xx_hal_tim_ex.c **** 
 179:./Libraries/STM32H7xx_HAL_Driver/Src/stm32h7xx_hal_tim_ex.c ****   /* Configure the Time base in the Encoder Mode */
 180:./Libraries/STM32H7xx_HAL_Driver/Src/stm32h7xx_hal_tim_ex.c ****   TIM_Base_SetConfig(htim->Instance, &htim->Init);
  72              		.loc 1 180 3
  73 0036 7B68     		ldr	r3, [r7, #4]
  74 0038 1A68     		ldr	r2, [r3]
  75 003a 7B68     		ldr	r3, [r7, #4]
  76 003c 0433     		adds	r3, r3, #4
  77 003e 1946     		mov	r1, r3
  78 0040 1046     		mov	r0, r2
  79 0042 FFF7FEFF 		bl	TIM_Base_SetConfig
 181:./Libraries/STM32H7xx_HAL_Driver/Src/stm32h7xx_hal_tim_ex.c **** 
 182:./Libraries/STM32H7xx_HAL_Driver/Src/stm32h7xx_hal_tim_ex.c ****   /* Configure the Channel 1 as Input Channel to interface with the three Outputs of the  Hall sens
 183:./Libraries/STM32H7xx_HAL_Driver/Src/stm32h7xx_hal_tim_ex.c ****   TIM_TI1_SetConfig(htim->Instance, sConfig->IC1Polarity, TIM_ICSELECTION_TRC, sConfig->IC1Filter);
  80              		.loc 1 183 3
  81 0046 7B68     		ldr	r3, [r7, #4]
  82 0048 1868     		ldr	r0, [r3]
  83 004a 3B68     		ldr	r3, [r7]
  84 004c 1968     		ldr	r1, [r3]
  85 004e 3B68     		ldr	r3, [r7]
  86 0050 9B68     		ldr	r3, [r3, #8]
  87 0052 0322     		movs	r2, #3
  88 0054 FFF7FEFF 		bl	TIM_TI1_SetConfig
 184:./Libraries/STM32H7xx_HAL_Driver/Src/stm32h7xx_hal_tim_ex.c **** 
 185:./Libraries/STM32H7xx_HAL_Driver/Src/stm32h7xx_hal_tim_ex.c ****   /* Reset the IC1PSC Bits */
 186:./Libraries/STM32H7xx_HAL_Driver/Src/stm32h7xx_hal_tim_ex.c ****   htim->Instance->CCMR1 &= ~TIM_CCMR1_IC1PSC;
  89              		.loc 1 186 7
  90 0058 7B68     		ldr	r3, [r7, #4]
  91 005a 1B68     		ldr	r3, [r3]
  92              		.loc 1 186 25
  93 005c 9A69     		ldr	r2, [r3, #24]
  94              		.loc 1 186 7
  95 005e 7B68     		ldr	r3, [r7, #4]
  96 0060 1B68     		ldr	r3, [r3]
  97              		.loc 1 186 25
  98 0062 22F00C02 		bic	r2, r2, #12
  99 0066 9A61     		str	r2, [r3, #24]
 187:./Libraries/STM32H7xx_HAL_Driver/Src/stm32h7xx_hal_tim_ex.c ****   /* Set the IC1PSC value */
ARM GAS  /tmp/ccxx2olO.s 			page 6


 188:./Libraries/STM32H7xx_HAL_Driver/Src/stm32h7xx_hal_tim_ex.c ****   htim->Instance->CCMR1 |= sConfig->IC1Prescaler;
 100              		.loc 1 188 7
 101 0068 7B68     		ldr	r3, [r7, #4]
 102 006a 1B68     		ldr	r3, [r3]
 103              		.loc 1 188 25
 104 006c 9969     		ldr	r1, [r3, #24]
 105              		.loc 1 188 35
 106 006e 3B68     		ldr	r3, [r7]
 107 0070 5A68     		ldr	r2, [r3, #4]
 108              		.loc 1 188 7
 109 0072 7B68     		ldr	r3, [r7, #4]
 110 0074 1B68     		ldr	r3, [r3]
 111              		.loc 1 188 25
 112 0076 0A43     		orrs	r2, r2, r1
 113 0078 9A61     		str	r2, [r3, #24]
 189:./Libraries/STM32H7xx_HAL_Driver/Src/stm32h7xx_hal_tim_ex.c **** 
 190:./Libraries/STM32H7xx_HAL_Driver/Src/stm32h7xx_hal_tim_ex.c ****   /* Enable the Hall sensor interface (XOR function of the three inputs) */
 191:./Libraries/STM32H7xx_HAL_Driver/Src/stm32h7xx_hal_tim_ex.c ****   htim->Instance->CR2 |= TIM_CR2_TI1S;
 114              		.loc 1 191 7
 115 007a 7B68     		ldr	r3, [r7, #4]
 116 007c 1B68     		ldr	r3, [r3]
 117              		.loc 1 191 23
 118 007e 5A68     		ldr	r2, [r3, #4]
 119              		.loc 1 191 7
 120 0080 7B68     		ldr	r3, [r7, #4]
 121 0082 1B68     		ldr	r3, [r3]
 122              		.loc 1 191 23
 123 0084 42F08002 		orr	r2, r2, #128
 124 0088 5A60     		str	r2, [r3, #4]
 192:./Libraries/STM32H7xx_HAL_Driver/Src/stm32h7xx_hal_tim_ex.c **** 
 193:./Libraries/STM32H7xx_HAL_Driver/Src/stm32h7xx_hal_tim_ex.c ****   /* Select the TIM_TS_TI1F_ED signal as Input trigger for the TIM */
 194:./Libraries/STM32H7xx_HAL_Driver/Src/stm32h7xx_hal_tim_ex.c ****   htim->Instance->SMCR &= ~TIM_SMCR_TS;
 125              		.loc 1 194 7
 126 008a 7B68     		ldr	r3, [r7, #4]
 127 008c 1B68     		ldr	r3, [r3]
 128              		.loc 1 194 24
 129 008e 9968     		ldr	r1, [r3, #8]
 130              		.loc 1 194 7
 131 0090 7B68     		ldr	r3, [r7, #4]
 132 0092 1A68     		ldr	r2, [r3]
 133              		.loc 1 194 24
 134 0094 2F4B     		ldr	r3, .L6
 135 0096 0B40     		ands	r3, r3, r1
 136 0098 9360     		str	r3, [r2, #8]
 195:./Libraries/STM32H7xx_HAL_Driver/Src/stm32h7xx_hal_tim_ex.c ****   htim->Instance->SMCR |= TIM_TS_TI1F_ED;
 137              		.loc 1 195 7
 138 009a 7B68     		ldr	r3, [r7, #4]
 139 009c 1B68     		ldr	r3, [r3]
 140              		.loc 1 195 24
 141 009e 9A68     		ldr	r2, [r3, #8]
 142              		.loc 1 195 7
 143 00a0 7B68     		ldr	r3, [r7, #4]
 144 00a2 1B68     		ldr	r3, [r3]
 145              		.loc 1 195 24
 146 00a4 42F04002 		orr	r2, r2, #64
 147 00a8 9A60     		str	r2, [r3, #8]
 196:./Libraries/STM32H7xx_HAL_Driver/Src/stm32h7xx_hal_tim_ex.c **** 
ARM GAS  /tmp/ccxx2olO.s 			page 7


 197:./Libraries/STM32H7xx_HAL_Driver/Src/stm32h7xx_hal_tim_ex.c ****   /* Use the TIM_TS_TI1F_ED signal to reset the TIM counter each edge detection */
 198:./Libraries/STM32H7xx_HAL_Driver/Src/stm32h7xx_hal_tim_ex.c ****   htim->Instance->SMCR &= ~TIM_SMCR_SMS;
 148              		.loc 1 198 7
 149 00aa 7B68     		ldr	r3, [r7, #4]
 150 00ac 1B68     		ldr	r3, [r3]
 151              		.loc 1 198 24
 152 00ae 9968     		ldr	r1, [r3, #8]
 153              		.loc 1 198 7
 154 00b0 7B68     		ldr	r3, [r7, #4]
 155 00b2 1A68     		ldr	r2, [r3]
 156              		.loc 1 198 24
 157 00b4 284B     		ldr	r3, .L6+4
 158 00b6 0B40     		ands	r3, r3, r1
 159 00b8 9360     		str	r3, [r2, #8]
 199:./Libraries/STM32H7xx_HAL_Driver/Src/stm32h7xx_hal_tim_ex.c ****   htim->Instance->SMCR |= TIM_SLAVEMODE_RESET;
 160              		.loc 1 199 7
 161 00ba 7B68     		ldr	r3, [r7, #4]
 162 00bc 1B68     		ldr	r3, [r3]
 163              		.loc 1 199 24
 164 00be 9A68     		ldr	r2, [r3, #8]
 165              		.loc 1 199 7
 166 00c0 7B68     		ldr	r3, [r7, #4]
 167 00c2 1B68     		ldr	r3, [r3]
 168              		.loc 1 199 24
 169 00c4 42F00402 		orr	r2, r2, #4
 170 00c8 9A60     		str	r2, [r3, #8]
 200:./Libraries/STM32H7xx_HAL_Driver/Src/stm32h7xx_hal_tim_ex.c **** 
 201:./Libraries/STM32H7xx_HAL_Driver/Src/stm32h7xx_hal_tim_ex.c ****   /* Program channel 2 in PWM 2 mode with the desired Commutation_Delay*/
 202:./Libraries/STM32H7xx_HAL_Driver/Src/stm32h7xx_hal_tim_ex.c ****   OC_Config.OCFastMode = TIM_OCFAST_DISABLE;
 171              		.loc 1 202 24
 172 00ca 0023     		movs	r3, #0
 173 00cc FB61     		str	r3, [r7, #28]
 203:./Libraries/STM32H7xx_HAL_Driver/Src/stm32h7xx_hal_tim_ex.c ****   OC_Config.OCIdleState = TIM_OCIDLESTATE_RESET;
 174              		.loc 1 203 25
 175 00ce 0023     		movs	r3, #0
 176 00d0 3B62     		str	r3, [r7, #32]
 204:./Libraries/STM32H7xx_HAL_Driver/Src/stm32h7xx_hal_tim_ex.c ****   OC_Config.OCMode = TIM_OCMODE_PWM2;
 177              		.loc 1 204 20
 178 00d2 7023     		movs	r3, #112
 179 00d4 FB60     		str	r3, [r7, #12]
 205:./Libraries/STM32H7xx_HAL_Driver/Src/stm32h7xx_hal_tim_ex.c ****   OC_Config.OCNIdleState = TIM_OCNIDLESTATE_RESET;
 180              		.loc 1 205 26
 181 00d6 0023     		movs	r3, #0
 182 00d8 7B62     		str	r3, [r7, #36]
 206:./Libraries/STM32H7xx_HAL_Driver/Src/stm32h7xx_hal_tim_ex.c ****   OC_Config.OCNPolarity = TIM_OCNPOLARITY_HIGH;
 183              		.loc 1 206 25
 184 00da 0023     		movs	r3, #0
 185 00dc BB61     		str	r3, [r7, #24]
 207:./Libraries/STM32H7xx_HAL_Driver/Src/stm32h7xx_hal_tim_ex.c ****   OC_Config.OCPolarity = TIM_OCPOLARITY_HIGH;
 186              		.loc 1 207 24
 187 00de 0023     		movs	r3, #0
 188 00e0 7B61     		str	r3, [r7, #20]
 208:./Libraries/STM32H7xx_HAL_Driver/Src/stm32h7xx_hal_tim_ex.c ****   OC_Config.Pulse = sConfig->Commutation_Delay;
 189              		.loc 1 208 28
 190 00e2 3B68     		ldr	r3, [r7]
 191 00e4 DB68     		ldr	r3, [r3, #12]
 192              		.loc 1 208 19
ARM GAS  /tmp/ccxx2olO.s 			page 8


 193 00e6 3B61     		str	r3, [r7, #16]
 209:./Libraries/STM32H7xx_HAL_Driver/Src/stm32h7xx_hal_tim_ex.c **** 
 210:./Libraries/STM32H7xx_HAL_Driver/Src/stm32h7xx_hal_tim_ex.c ****   TIM_OC2_SetConfig(htim->Instance, &OC_Config);
 194              		.loc 1 210 3
 195 00e8 7B68     		ldr	r3, [r7, #4]
 196 00ea 1B68     		ldr	r3, [r3]
 197 00ec 07F10C02 		add	r2, r7, #12
 198 00f0 1146     		mov	r1, r2
 199 00f2 1846     		mov	r0, r3
 200 00f4 FFF7FEFF 		bl	TIM_OC2_SetConfig
 211:./Libraries/STM32H7xx_HAL_Driver/Src/stm32h7xx_hal_tim_ex.c **** 
 212:./Libraries/STM32H7xx_HAL_Driver/Src/stm32h7xx_hal_tim_ex.c ****   /* Select OC2REF as trigger output on TRGO: write the MMS bits in the TIMx_CR2
 213:./Libraries/STM32H7xx_HAL_Driver/Src/stm32h7xx_hal_tim_ex.c ****     register to 101 */
 214:./Libraries/STM32H7xx_HAL_Driver/Src/stm32h7xx_hal_tim_ex.c ****   htim->Instance->CR2 &= ~TIM_CR2_MMS;
 201              		.loc 1 214 7
 202 00f8 7B68     		ldr	r3, [r7, #4]
 203 00fa 1B68     		ldr	r3, [r3]
 204              		.loc 1 214 23
 205 00fc 5A68     		ldr	r2, [r3, #4]
 206              		.loc 1 214 7
 207 00fe 7B68     		ldr	r3, [r7, #4]
 208 0100 1B68     		ldr	r3, [r3]
 209              		.loc 1 214 23
 210 0102 22F07002 		bic	r2, r2, #112
 211 0106 5A60     		str	r2, [r3, #4]
 215:./Libraries/STM32H7xx_HAL_Driver/Src/stm32h7xx_hal_tim_ex.c ****   htim->Instance->CR2 |= TIM_TRGO_OC2REF;
 212              		.loc 1 215 7
 213 0108 7B68     		ldr	r3, [r7, #4]
 214 010a 1B68     		ldr	r3, [r3]
 215              		.loc 1 215 23
 216 010c 5A68     		ldr	r2, [r3, #4]
 217              		.loc 1 215 7
 218 010e 7B68     		ldr	r3, [r7, #4]
 219 0110 1B68     		ldr	r3, [r3]
 220              		.loc 1 215 23
 221 0112 42F05002 		orr	r2, r2, #80
 222 0116 5A60     		str	r2, [r3, #4]
 216:./Libraries/STM32H7xx_HAL_Driver/Src/stm32h7xx_hal_tim_ex.c **** 
 217:./Libraries/STM32H7xx_HAL_Driver/Src/stm32h7xx_hal_tim_ex.c ****   /* Initialize the DMA burst operation state */
 218:./Libraries/STM32H7xx_HAL_Driver/Src/stm32h7xx_hal_tim_ex.c ****   htim->DMABurstState = HAL_DMA_BURST_STATE_READY;
 223              		.loc 1 218 23
 224 0118 7B68     		ldr	r3, [r7, #4]
 225 011a 0122     		movs	r2, #1
 226 011c 83F84820 		strb	r2, [r3, #72]
 219:./Libraries/STM32H7xx_HAL_Driver/Src/stm32h7xx_hal_tim_ex.c **** 
 220:./Libraries/STM32H7xx_HAL_Driver/Src/stm32h7xx_hal_tim_ex.c ****   /* Initialize the TIM channels state */
 221:./Libraries/STM32H7xx_HAL_Driver/Src/stm32h7xx_hal_tim_ex.c ****   TIM_CHANNEL_STATE_SET(htim, TIM_CHANNEL_1, HAL_TIM_CHANNEL_STATE_READY);
 227              		.loc 1 221 3
 228 0120 7B68     		ldr	r3, [r7, #4]
 229 0122 0122     		movs	r2, #1
 230 0124 83F83E20 		strb	r2, [r3, #62]
 222:./Libraries/STM32H7xx_HAL_Driver/Src/stm32h7xx_hal_tim_ex.c ****   TIM_CHANNEL_STATE_SET(htim, TIM_CHANNEL_2, HAL_TIM_CHANNEL_STATE_READY);
 231              		.loc 1 222 3
 232 0128 7B68     		ldr	r3, [r7, #4]
 233 012a 0122     		movs	r2, #1
 234 012c 83F83F20 		strb	r2, [r3, #63]
 223:./Libraries/STM32H7xx_HAL_Driver/Src/stm32h7xx_hal_tim_ex.c ****   TIM_CHANNEL_N_STATE_SET(htim, TIM_CHANNEL_1, HAL_TIM_CHANNEL_STATE_READY);
ARM GAS  /tmp/ccxx2olO.s 			page 9


 235              		.loc 1 223 3
 236 0130 7B68     		ldr	r3, [r7, #4]
 237 0132 0122     		movs	r2, #1
 238 0134 83F84420 		strb	r2, [r3, #68]
 224:./Libraries/STM32H7xx_HAL_Driver/Src/stm32h7xx_hal_tim_ex.c ****   TIM_CHANNEL_N_STATE_SET(htim, TIM_CHANNEL_2, HAL_TIM_CHANNEL_STATE_READY);
 239              		.loc 1 224 3
 240 0138 7B68     		ldr	r3, [r7, #4]
 241 013a 0122     		movs	r2, #1
 242 013c 83F84520 		strb	r2, [r3, #69]
 225:./Libraries/STM32H7xx_HAL_Driver/Src/stm32h7xx_hal_tim_ex.c **** 
 226:./Libraries/STM32H7xx_HAL_Driver/Src/stm32h7xx_hal_tim_ex.c ****   /* Initialize the TIM state*/
 227:./Libraries/STM32H7xx_HAL_Driver/Src/stm32h7xx_hal_tim_ex.c ****   htim->State = HAL_TIM_STATE_READY;
 243              		.loc 1 227 15
 244 0140 7B68     		ldr	r3, [r7, #4]
 245 0142 0122     		movs	r2, #1
 246 0144 83F83D20 		strb	r2, [r3, #61]
 228:./Libraries/STM32H7xx_HAL_Driver/Src/stm32h7xx_hal_tim_ex.c **** 
 229:./Libraries/STM32H7xx_HAL_Driver/Src/stm32h7xx_hal_tim_ex.c ****   return HAL_OK;
 247              		.loc 1 229 10
 248 0148 0023     		movs	r3, #0
 249              	.L5:
 230:./Libraries/STM32H7xx_HAL_Driver/Src/stm32h7xx_hal_tim_ex.c **** }
 250              		.loc 1 230 1 discriminator 1
 251 014a 1846     		mov	r0, r3
 252 014c 2837     		adds	r7, r7, #40
 253              	.LCFI3:
 254              		.cfi_def_cfa_offset 8
 255 014e BD46     		mov	sp, r7
 256              	.LCFI4:
 257              		.cfi_def_cfa_register 13
 258              		@ sp needed
 259 0150 80BD     		pop	{r7, pc}
 260              	.L7:
 261 0152 00BF     		.align	2
 262              	.L6:
 263 0154 8FFFCFFF 		.word	-3145841
 264 0158 F8FFFEFF 		.word	-65544
 265              		.cfi_endproc
 266              	.LFE331:
 268              		.section	.text.HAL_TIMEx_HallSensor_DeInit,"ax",%progbits
 269              		.align	1
 270              		.global	HAL_TIMEx_HallSensor_DeInit
 271              		.syntax unified
 272              		.thumb
 273              		.thumb_func
 274              		.fpu fpv5-d16
 276              	HAL_TIMEx_HallSensor_DeInit:
 277              	.LFB332:
 231:./Libraries/STM32H7xx_HAL_Driver/Src/stm32h7xx_hal_tim_ex.c **** 
 232:./Libraries/STM32H7xx_HAL_Driver/Src/stm32h7xx_hal_tim_ex.c **** /**
 233:./Libraries/STM32H7xx_HAL_Driver/Src/stm32h7xx_hal_tim_ex.c ****   * @brief  DeInitializes the TIM Hall Sensor interface
 234:./Libraries/STM32H7xx_HAL_Driver/Src/stm32h7xx_hal_tim_ex.c ****   * @param  htim TIM Hall Sensor Interface handle
 235:./Libraries/STM32H7xx_HAL_Driver/Src/stm32h7xx_hal_tim_ex.c ****   * @retval HAL status
 236:./Libraries/STM32H7xx_HAL_Driver/Src/stm32h7xx_hal_tim_ex.c ****   */
 237:./Libraries/STM32H7xx_HAL_Driver/Src/stm32h7xx_hal_tim_ex.c **** HAL_StatusTypeDef HAL_TIMEx_HallSensor_DeInit(TIM_HandleTypeDef *htim)
 238:./Libraries/STM32H7xx_HAL_Driver/Src/stm32h7xx_hal_tim_ex.c **** {
 278              		.loc 1 238 1
ARM GAS  /tmp/ccxx2olO.s 			page 10


 279              		.cfi_startproc
 280              		@ args = 0, pretend = 0, frame = 8
 281              		@ frame_needed = 1, uses_anonymous_args = 0
 282 0000 80B5     		push	{r7, lr}
 283              	.LCFI5:
 284              		.cfi_def_cfa_offset 8
 285              		.cfi_offset 7, -8
 286              		.cfi_offset 14, -4
 287 0002 82B0     		sub	sp, sp, #8
 288              	.LCFI6:
 289              		.cfi_def_cfa_offset 16
 290 0004 00AF     		add	r7, sp, #0
 291              	.LCFI7:
 292              		.cfi_def_cfa_register 7
 293 0006 7860     		str	r0, [r7, #4]
 239:./Libraries/STM32H7xx_HAL_Driver/Src/stm32h7xx_hal_tim_ex.c ****   /* Check the parameters */
 240:./Libraries/STM32H7xx_HAL_Driver/Src/stm32h7xx_hal_tim_ex.c ****   assert_param(IS_TIM_INSTANCE(htim->Instance));
 241:./Libraries/STM32H7xx_HAL_Driver/Src/stm32h7xx_hal_tim_ex.c **** 
 242:./Libraries/STM32H7xx_HAL_Driver/Src/stm32h7xx_hal_tim_ex.c ****   htim->State = HAL_TIM_STATE_BUSY;
 294              		.loc 1 242 15
 295 0008 7B68     		ldr	r3, [r7, #4]
 296 000a 0222     		movs	r2, #2
 297 000c 83F83D20 		strb	r2, [r3, #61]
 243:./Libraries/STM32H7xx_HAL_Driver/Src/stm32h7xx_hal_tim_ex.c **** 
 244:./Libraries/STM32H7xx_HAL_Driver/Src/stm32h7xx_hal_tim_ex.c ****   /* Disable the TIM Peripheral Clock */
 245:./Libraries/STM32H7xx_HAL_Driver/Src/stm32h7xx_hal_tim_ex.c ****   __HAL_TIM_DISABLE(htim);
 298              		.loc 1 245 3
 299 0010 7B68     		ldr	r3, [r7, #4]
 300 0012 1B68     		ldr	r3, [r3]
 301 0014 1A6A     		ldr	r2, [r3, #32]
 302 0016 41F21113 		movw	r3, #4369
 303 001a 1340     		ands	r3, r3, r2
 304 001c 002B     		cmp	r3, #0
 305 001e 0FD1     		bne	.L9
 306              		.loc 1 245 3 is_stmt 0 discriminator 1
 307 0020 7B68     		ldr	r3, [r7, #4]
 308 0022 1B68     		ldr	r3, [r3]
 309 0024 1A6A     		ldr	r2, [r3, #32]
 310 0026 40F24443 		movw	r3, #1092
 311 002a 1340     		ands	r3, r3, r2
 312 002c 002B     		cmp	r3, #0
 313 002e 07D1     		bne	.L9
 314              		.loc 1 245 3 discriminator 2
 315 0030 7B68     		ldr	r3, [r7, #4]
 316 0032 1B68     		ldr	r3, [r3]
 317 0034 1A68     		ldr	r2, [r3]
 318 0036 7B68     		ldr	r3, [r7, #4]
 319 0038 1B68     		ldr	r3, [r3]
 320 003a 22F00102 		bic	r2, r2, #1
 321 003e 1A60     		str	r2, [r3]
 322              	.L9:
 246:./Libraries/STM32H7xx_HAL_Driver/Src/stm32h7xx_hal_tim_ex.c **** 
 247:./Libraries/STM32H7xx_HAL_Driver/Src/stm32h7xx_hal_tim_ex.c **** #if (USE_HAL_TIM_REGISTER_CALLBACKS == 1)
 248:./Libraries/STM32H7xx_HAL_Driver/Src/stm32h7xx_hal_tim_ex.c ****   if (htim->HallSensor_MspDeInitCallback == NULL)
 249:./Libraries/STM32H7xx_HAL_Driver/Src/stm32h7xx_hal_tim_ex.c ****   {
 250:./Libraries/STM32H7xx_HAL_Driver/Src/stm32h7xx_hal_tim_ex.c ****     htim->HallSensor_MspDeInitCallback = HAL_TIMEx_HallSensor_MspDeInit;
 251:./Libraries/STM32H7xx_HAL_Driver/Src/stm32h7xx_hal_tim_ex.c ****   }
ARM GAS  /tmp/ccxx2olO.s 			page 11


 252:./Libraries/STM32H7xx_HAL_Driver/Src/stm32h7xx_hal_tim_ex.c ****   /* DeInit the low level hardware */
 253:./Libraries/STM32H7xx_HAL_Driver/Src/stm32h7xx_hal_tim_ex.c ****   htim->HallSensor_MspDeInitCallback(htim);
 254:./Libraries/STM32H7xx_HAL_Driver/Src/stm32h7xx_hal_tim_ex.c **** #else
 255:./Libraries/STM32H7xx_HAL_Driver/Src/stm32h7xx_hal_tim_ex.c ****   /* DeInit the low level hardware: GPIO, CLOCK, NVIC */
 256:./Libraries/STM32H7xx_HAL_Driver/Src/stm32h7xx_hal_tim_ex.c ****   HAL_TIMEx_HallSensor_MspDeInit(htim);
 323              		.loc 1 256 3 is_stmt 1
 324 0040 7868     		ldr	r0, [r7, #4]
 325 0042 FFF7FEFF 		bl	HAL_TIMEx_HallSensor_MspDeInit
 257:./Libraries/STM32H7xx_HAL_Driver/Src/stm32h7xx_hal_tim_ex.c **** #endif /* USE_HAL_TIM_REGISTER_CALLBACKS */
 258:./Libraries/STM32H7xx_HAL_Driver/Src/stm32h7xx_hal_tim_ex.c **** 
 259:./Libraries/STM32H7xx_HAL_Driver/Src/stm32h7xx_hal_tim_ex.c ****   /* Change the DMA burst operation state */
 260:./Libraries/STM32H7xx_HAL_Driver/Src/stm32h7xx_hal_tim_ex.c ****   htim->DMABurstState = HAL_DMA_BURST_STATE_RESET;
 326              		.loc 1 260 23
 327 0046 7B68     		ldr	r3, [r7, #4]
 328 0048 0022     		movs	r2, #0
 329 004a 83F84820 		strb	r2, [r3, #72]
 261:./Libraries/STM32H7xx_HAL_Driver/Src/stm32h7xx_hal_tim_ex.c **** 
 262:./Libraries/STM32H7xx_HAL_Driver/Src/stm32h7xx_hal_tim_ex.c ****   /* Change the TIM channels state */
 263:./Libraries/STM32H7xx_HAL_Driver/Src/stm32h7xx_hal_tim_ex.c ****   TIM_CHANNEL_STATE_SET(htim, TIM_CHANNEL_1, HAL_TIM_CHANNEL_STATE_RESET);
 330              		.loc 1 263 3
 331 004e 7B68     		ldr	r3, [r7, #4]
 332 0050 0022     		movs	r2, #0
 333 0052 83F83E20 		strb	r2, [r3, #62]
 264:./Libraries/STM32H7xx_HAL_Driver/Src/stm32h7xx_hal_tim_ex.c ****   TIM_CHANNEL_STATE_SET(htim, TIM_CHANNEL_2, HAL_TIM_CHANNEL_STATE_RESET);
 334              		.loc 1 264 3
 335 0056 7B68     		ldr	r3, [r7, #4]
 336 0058 0022     		movs	r2, #0
 337 005a 83F83F20 		strb	r2, [r3, #63]
 265:./Libraries/STM32H7xx_HAL_Driver/Src/stm32h7xx_hal_tim_ex.c ****   TIM_CHANNEL_N_STATE_SET(htim, TIM_CHANNEL_1, HAL_TIM_CHANNEL_STATE_RESET);
 338              		.loc 1 265 3
 339 005e 7B68     		ldr	r3, [r7, #4]
 340 0060 0022     		movs	r2, #0
 341 0062 83F84420 		strb	r2, [r3, #68]
 266:./Libraries/STM32H7xx_HAL_Driver/Src/stm32h7xx_hal_tim_ex.c ****   TIM_CHANNEL_N_STATE_SET(htim, TIM_CHANNEL_2, HAL_TIM_CHANNEL_STATE_RESET);
 342              		.loc 1 266 3
 343 0066 7B68     		ldr	r3, [r7, #4]
 344 0068 0022     		movs	r2, #0
 345 006a 83F84520 		strb	r2, [r3, #69]
 267:./Libraries/STM32H7xx_HAL_Driver/Src/stm32h7xx_hal_tim_ex.c **** 
 268:./Libraries/STM32H7xx_HAL_Driver/Src/stm32h7xx_hal_tim_ex.c ****   /* Change TIM state */
 269:./Libraries/STM32H7xx_HAL_Driver/Src/stm32h7xx_hal_tim_ex.c ****   htim->State = HAL_TIM_STATE_RESET;
 346              		.loc 1 269 15
 347 006e 7B68     		ldr	r3, [r7, #4]
 348 0070 0022     		movs	r2, #0
 349 0072 83F83D20 		strb	r2, [r3, #61]
 270:./Libraries/STM32H7xx_HAL_Driver/Src/stm32h7xx_hal_tim_ex.c **** 
 271:./Libraries/STM32H7xx_HAL_Driver/Src/stm32h7xx_hal_tim_ex.c ****   /* Release Lock */
 272:./Libraries/STM32H7xx_HAL_Driver/Src/stm32h7xx_hal_tim_ex.c ****   __HAL_UNLOCK(htim);
 350              		.loc 1 272 3
 351 0076 7B68     		ldr	r3, [r7, #4]
 352 0078 0022     		movs	r2, #0
 353 007a 83F83C20 		strb	r2, [r3, #60]
 273:./Libraries/STM32H7xx_HAL_Driver/Src/stm32h7xx_hal_tim_ex.c **** 
 274:./Libraries/STM32H7xx_HAL_Driver/Src/stm32h7xx_hal_tim_ex.c ****   return HAL_OK;
 354              		.loc 1 274 10
 355 007e 0023     		movs	r3, #0
 275:./Libraries/STM32H7xx_HAL_Driver/Src/stm32h7xx_hal_tim_ex.c **** }
ARM GAS  /tmp/ccxx2olO.s 			page 12


 356              		.loc 1 275 1
 357 0080 1846     		mov	r0, r3
 358 0082 0837     		adds	r7, r7, #8
 359              	.LCFI8:
 360              		.cfi_def_cfa_offset 8
 361 0084 BD46     		mov	sp, r7
 362              	.LCFI9:
 363              		.cfi_def_cfa_register 13
 364              		@ sp needed
 365 0086 80BD     		pop	{r7, pc}
 366              		.cfi_endproc
 367              	.LFE332:
 369              		.section	.text.HAL_TIMEx_HallSensor_MspInit,"ax",%progbits
 370              		.align	1
 371              		.weak	HAL_TIMEx_HallSensor_MspInit
 372              		.syntax unified
 373              		.thumb
 374              		.thumb_func
 375              		.fpu fpv5-d16
 377              	HAL_TIMEx_HallSensor_MspInit:
 378              	.LFB333:
 276:./Libraries/STM32H7xx_HAL_Driver/Src/stm32h7xx_hal_tim_ex.c **** 
 277:./Libraries/STM32H7xx_HAL_Driver/Src/stm32h7xx_hal_tim_ex.c **** /**
 278:./Libraries/STM32H7xx_HAL_Driver/Src/stm32h7xx_hal_tim_ex.c ****   * @brief  Initializes the TIM Hall Sensor MSP.
 279:./Libraries/STM32H7xx_HAL_Driver/Src/stm32h7xx_hal_tim_ex.c ****   * @param  htim TIM Hall Sensor Interface handle
 280:./Libraries/STM32H7xx_HAL_Driver/Src/stm32h7xx_hal_tim_ex.c ****   * @retval None
 281:./Libraries/STM32H7xx_HAL_Driver/Src/stm32h7xx_hal_tim_ex.c ****   */
 282:./Libraries/STM32H7xx_HAL_Driver/Src/stm32h7xx_hal_tim_ex.c **** __weak void HAL_TIMEx_HallSensor_MspInit(TIM_HandleTypeDef *htim)
 283:./Libraries/STM32H7xx_HAL_Driver/Src/stm32h7xx_hal_tim_ex.c **** {
 379              		.loc 1 283 1
 380              		.cfi_startproc
 381              		@ args = 0, pretend = 0, frame = 8
 382              		@ frame_needed = 1, uses_anonymous_args = 0
 383              		@ link register save eliminated.
 384 0000 80B4     		push	{r7}
 385              	.LCFI10:
 386              		.cfi_def_cfa_offset 4
 387              		.cfi_offset 7, -4
 388 0002 83B0     		sub	sp, sp, #12
 389              	.LCFI11:
 390              		.cfi_def_cfa_offset 16
 391 0004 00AF     		add	r7, sp, #0
 392              	.LCFI12:
 393              		.cfi_def_cfa_register 7
 394 0006 7860     		str	r0, [r7, #4]
 284:./Libraries/STM32H7xx_HAL_Driver/Src/stm32h7xx_hal_tim_ex.c ****   /* Prevent unused argument(s) compilation warning */
 285:./Libraries/STM32H7xx_HAL_Driver/Src/stm32h7xx_hal_tim_ex.c ****   UNUSED(htim);
 286:./Libraries/STM32H7xx_HAL_Driver/Src/stm32h7xx_hal_tim_ex.c **** 
 287:./Libraries/STM32H7xx_HAL_Driver/Src/stm32h7xx_hal_tim_ex.c ****   /* NOTE : This function should not be modified, when the callback is needed,
 288:./Libraries/STM32H7xx_HAL_Driver/Src/stm32h7xx_hal_tim_ex.c ****             the HAL_TIMEx_HallSensor_MspInit could be implemented in the user file
 289:./Libraries/STM32H7xx_HAL_Driver/Src/stm32h7xx_hal_tim_ex.c ****    */
 290:./Libraries/STM32H7xx_HAL_Driver/Src/stm32h7xx_hal_tim_ex.c **** }
 395              		.loc 1 290 1
 396 0008 00BF     		nop
 397 000a 0C37     		adds	r7, r7, #12
 398              	.LCFI13:
 399              		.cfi_def_cfa_offset 4
ARM GAS  /tmp/ccxx2olO.s 			page 13


 400 000c BD46     		mov	sp, r7
 401              	.LCFI14:
 402              		.cfi_def_cfa_register 13
 403              		@ sp needed
 404 000e 5DF8047B 		ldr	r7, [sp], #4
 405              	.LCFI15:
 406              		.cfi_restore 7
 407              		.cfi_def_cfa_offset 0
 408 0012 7047     		bx	lr
 409              		.cfi_endproc
 410              	.LFE333:
 412              		.section	.text.HAL_TIMEx_HallSensor_MspDeInit,"ax",%progbits
 413              		.align	1
 414              		.weak	HAL_TIMEx_HallSensor_MspDeInit
 415              		.syntax unified
 416              		.thumb
 417              		.thumb_func
 418              		.fpu fpv5-d16
 420              	HAL_TIMEx_HallSensor_MspDeInit:
 421              	.LFB334:
 291:./Libraries/STM32H7xx_HAL_Driver/Src/stm32h7xx_hal_tim_ex.c **** 
 292:./Libraries/STM32H7xx_HAL_Driver/Src/stm32h7xx_hal_tim_ex.c **** /**
 293:./Libraries/STM32H7xx_HAL_Driver/Src/stm32h7xx_hal_tim_ex.c ****   * @brief  DeInitializes TIM Hall Sensor MSP.
 294:./Libraries/STM32H7xx_HAL_Driver/Src/stm32h7xx_hal_tim_ex.c ****   * @param  htim TIM Hall Sensor Interface handle
 295:./Libraries/STM32H7xx_HAL_Driver/Src/stm32h7xx_hal_tim_ex.c ****   * @retval None
 296:./Libraries/STM32H7xx_HAL_Driver/Src/stm32h7xx_hal_tim_ex.c ****   */
 297:./Libraries/STM32H7xx_HAL_Driver/Src/stm32h7xx_hal_tim_ex.c **** __weak void HAL_TIMEx_HallSensor_MspDeInit(TIM_HandleTypeDef *htim)
 298:./Libraries/STM32H7xx_HAL_Driver/Src/stm32h7xx_hal_tim_ex.c **** {
 422              		.loc 1 298 1
 423              		.cfi_startproc
 424              		@ args = 0, pretend = 0, frame = 8
 425              		@ frame_needed = 1, uses_anonymous_args = 0
 426              		@ link register save eliminated.
 427 0000 80B4     		push	{r7}
 428              	.LCFI16:
 429              		.cfi_def_cfa_offset 4
 430              		.cfi_offset 7, -4
 431 0002 83B0     		sub	sp, sp, #12
 432              	.LCFI17:
 433              		.cfi_def_cfa_offset 16
 434 0004 00AF     		add	r7, sp, #0
 435              	.LCFI18:
 436              		.cfi_def_cfa_register 7
 437 0006 7860     		str	r0, [r7, #4]
 299:./Libraries/STM32H7xx_HAL_Driver/Src/stm32h7xx_hal_tim_ex.c ****   /* Prevent unused argument(s) compilation warning */
 300:./Libraries/STM32H7xx_HAL_Driver/Src/stm32h7xx_hal_tim_ex.c ****   UNUSED(htim);
 301:./Libraries/STM32H7xx_HAL_Driver/Src/stm32h7xx_hal_tim_ex.c **** 
 302:./Libraries/STM32H7xx_HAL_Driver/Src/stm32h7xx_hal_tim_ex.c ****   /* NOTE : This function should not be modified, when the callback is needed,
 303:./Libraries/STM32H7xx_HAL_Driver/Src/stm32h7xx_hal_tim_ex.c ****             the HAL_TIMEx_HallSensor_MspDeInit could be implemented in the user file
 304:./Libraries/STM32H7xx_HAL_Driver/Src/stm32h7xx_hal_tim_ex.c ****    */
 305:./Libraries/STM32H7xx_HAL_Driver/Src/stm32h7xx_hal_tim_ex.c **** }
 438              		.loc 1 305 1
 439 0008 00BF     		nop
 440 000a 0C37     		adds	r7, r7, #12
 441              	.LCFI19:
 442              		.cfi_def_cfa_offset 4
 443 000c BD46     		mov	sp, r7
ARM GAS  /tmp/ccxx2olO.s 			page 14


 444              	.LCFI20:
 445              		.cfi_def_cfa_register 13
 446              		@ sp needed
 447 000e 5DF8047B 		ldr	r7, [sp], #4
 448              	.LCFI21:
 449              		.cfi_restore 7
 450              		.cfi_def_cfa_offset 0
 451 0012 7047     		bx	lr
 452              		.cfi_endproc
 453              	.LFE334:
 455              		.section	.text.HAL_TIMEx_HallSensor_Start,"ax",%progbits
 456              		.align	1
 457              		.global	HAL_TIMEx_HallSensor_Start
 458              		.syntax unified
 459              		.thumb
 460              		.thumb_func
 461              		.fpu fpv5-d16
 463              	HAL_TIMEx_HallSensor_Start:
 464              	.LFB335:
 306:./Libraries/STM32H7xx_HAL_Driver/Src/stm32h7xx_hal_tim_ex.c **** 
 307:./Libraries/STM32H7xx_HAL_Driver/Src/stm32h7xx_hal_tim_ex.c **** /**
 308:./Libraries/STM32H7xx_HAL_Driver/Src/stm32h7xx_hal_tim_ex.c ****   * @brief  Starts the TIM Hall Sensor Interface.
 309:./Libraries/STM32H7xx_HAL_Driver/Src/stm32h7xx_hal_tim_ex.c ****   * @param  htim TIM Hall Sensor Interface handle
 310:./Libraries/STM32H7xx_HAL_Driver/Src/stm32h7xx_hal_tim_ex.c ****   * @retval HAL status
 311:./Libraries/STM32H7xx_HAL_Driver/Src/stm32h7xx_hal_tim_ex.c ****   */
 312:./Libraries/STM32H7xx_HAL_Driver/Src/stm32h7xx_hal_tim_ex.c **** HAL_StatusTypeDef HAL_TIMEx_HallSensor_Start(TIM_HandleTypeDef *htim)
 313:./Libraries/STM32H7xx_HAL_Driver/Src/stm32h7xx_hal_tim_ex.c **** {
 465              		.loc 1 313 1
 466              		.cfi_startproc
 467              		@ args = 0, pretend = 0, frame = 16
 468              		@ frame_needed = 1, uses_anonymous_args = 0
 469 0000 80B5     		push	{r7, lr}
 470              	.LCFI22:
 471              		.cfi_def_cfa_offset 8
 472              		.cfi_offset 7, -8
 473              		.cfi_offset 14, -4
 474 0002 84B0     		sub	sp, sp, #16
 475              	.LCFI23:
 476              		.cfi_def_cfa_offset 24
 477 0004 00AF     		add	r7, sp, #0
 478              	.LCFI24:
 479              		.cfi_def_cfa_register 7
 480 0006 7860     		str	r0, [r7, #4]
 314:./Libraries/STM32H7xx_HAL_Driver/Src/stm32h7xx_hal_tim_ex.c ****   uint32_t tmpsmcr;
 315:./Libraries/STM32H7xx_HAL_Driver/Src/stm32h7xx_hal_tim_ex.c ****   HAL_TIM_ChannelStateTypeDef channel_1_state = TIM_CHANNEL_STATE_GET(htim, TIM_CHANNEL_1);
 481              		.loc 1 315 31
 482 0008 7B68     		ldr	r3, [r7, #4]
 483 000a 93F83E30 		ldrb	r3, [r3, #62]
 484 000e FB73     		strb	r3, [r7, #15]
 316:./Libraries/STM32H7xx_HAL_Driver/Src/stm32h7xx_hal_tim_ex.c ****   HAL_TIM_ChannelStateTypeDef channel_2_state = TIM_CHANNEL_STATE_GET(htim, TIM_CHANNEL_2);
 485              		.loc 1 316 31
 486 0010 7B68     		ldr	r3, [r7, #4]
 487 0012 93F83F30 		ldrb	r3, [r3, #63]
 488 0016 BB73     		strb	r3, [r7, #14]
 317:./Libraries/STM32H7xx_HAL_Driver/Src/stm32h7xx_hal_tim_ex.c ****   HAL_TIM_ChannelStateTypeDef complementary_channel_1_state = TIM_CHANNEL_N_STATE_GET(htim, TIM_CHA
 489              		.loc 1 317 31
 490 0018 7B68     		ldr	r3, [r7, #4]
ARM GAS  /tmp/ccxx2olO.s 			page 15


 491 001a 93F84430 		ldrb	r3, [r3, #68]
 492 001e 7B73     		strb	r3, [r7, #13]
 318:./Libraries/STM32H7xx_HAL_Driver/Src/stm32h7xx_hal_tim_ex.c ****   HAL_TIM_ChannelStateTypeDef complementary_channel_2_state = TIM_CHANNEL_N_STATE_GET(htim, TIM_CHA
 493              		.loc 1 318 31
 494 0020 7B68     		ldr	r3, [r7, #4]
 495 0022 93F84530 		ldrb	r3, [r3, #69]
 496 0026 3B73     		strb	r3, [r7, #12]
 319:./Libraries/STM32H7xx_HAL_Driver/Src/stm32h7xx_hal_tim_ex.c **** 
 320:./Libraries/STM32H7xx_HAL_Driver/Src/stm32h7xx_hal_tim_ex.c ****   /* Check the parameters */
 321:./Libraries/STM32H7xx_HAL_Driver/Src/stm32h7xx_hal_tim_ex.c ****   assert_param(IS_TIM_HALL_SENSOR_INTERFACE_INSTANCE(htim->Instance));
 322:./Libraries/STM32H7xx_HAL_Driver/Src/stm32h7xx_hal_tim_ex.c **** 
 323:./Libraries/STM32H7xx_HAL_Driver/Src/stm32h7xx_hal_tim_ex.c ****   /* Check the TIM channels state */
 324:./Libraries/STM32H7xx_HAL_Driver/Src/stm32h7xx_hal_tim_ex.c ****   if ((channel_1_state != HAL_TIM_CHANNEL_STATE_READY)
 497              		.loc 1 324 6
 498 0028 FB7B     		ldrb	r3, [r7, #15]	@ zero_extendqisi2
 499 002a 012B     		cmp	r3, #1
 500 002c 08D1     		bne	.L14
 325:./Libraries/STM32H7xx_HAL_Driver/Src/stm32h7xx_hal_tim_ex.c ****       || (channel_2_state != HAL_TIM_CHANNEL_STATE_READY)
 501              		.loc 1 325 7
 502 002e BB7B     		ldrb	r3, [r7, #14]	@ zero_extendqisi2
 503 0030 012B     		cmp	r3, #1
 504 0032 05D1     		bne	.L14
 326:./Libraries/STM32H7xx_HAL_Driver/Src/stm32h7xx_hal_tim_ex.c ****       || (complementary_channel_1_state != HAL_TIM_CHANNEL_STATE_READY)
 505              		.loc 1 326 7
 506 0034 7B7B     		ldrb	r3, [r7, #13]	@ zero_extendqisi2
 507 0036 012B     		cmp	r3, #1
 508 0038 02D1     		bne	.L14
 327:./Libraries/STM32H7xx_HAL_Driver/Src/stm32h7xx_hal_tim_ex.c ****       || (complementary_channel_2_state != HAL_TIM_CHANNEL_STATE_READY))
 509              		.loc 1 327 7
 510 003a 3B7B     		ldrb	r3, [r7, #12]	@ zero_extendqisi2
 511 003c 012B     		cmp	r3, #1
 512 003e 01D0     		beq	.L15
 513              	.L14:
 328:./Libraries/STM32H7xx_HAL_Driver/Src/stm32h7xx_hal_tim_ex.c ****   {
 329:./Libraries/STM32H7xx_HAL_Driver/Src/stm32h7xx_hal_tim_ex.c ****     return HAL_ERROR;
 514              		.loc 1 329 12
 515 0040 0123     		movs	r3, #1
 516 0042 5AE0     		b	.L16
 517              	.L15:
 330:./Libraries/STM32H7xx_HAL_Driver/Src/stm32h7xx_hal_tim_ex.c ****   }
 331:./Libraries/STM32H7xx_HAL_Driver/Src/stm32h7xx_hal_tim_ex.c **** 
 332:./Libraries/STM32H7xx_HAL_Driver/Src/stm32h7xx_hal_tim_ex.c ****   /* Set the TIM channels state */
 333:./Libraries/STM32H7xx_HAL_Driver/Src/stm32h7xx_hal_tim_ex.c ****   TIM_CHANNEL_STATE_SET(htim, TIM_CHANNEL_1, HAL_TIM_CHANNEL_STATE_BUSY);
 518              		.loc 1 333 3
 519 0044 7B68     		ldr	r3, [r7, #4]
 520 0046 0222     		movs	r2, #2
 521 0048 83F83E20 		strb	r2, [r3, #62]
 334:./Libraries/STM32H7xx_HAL_Driver/Src/stm32h7xx_hal_tim_ex.c ****   TIM_CHANNEL_STATE_SET(htim, TIM_CHANNEL_2, HAL_TIM_CHANNEL_STATE_BUSY);
 522              		.loc 1 334 3
 523 004c 7B68     		ldr	r3, [r7, #4]
 524 004e 0222     		movs	r2, #2
 525 0050 83F83F20 		strb	r2, [r3, #63]
 335:./Libraries/STM32H7xx_HAL_Driver/Src/stm32h7xx_hal_tim_ex.c ****   TIM_CHANNEL_N_STATE_SET(htim, TIM_CHANNEL_1, HAL_TIM_CHANNEL_STATE_BUSY);
 526              		.loc 1 335 3
 527 0054 7B68     		ldr	r3, [r7, #4]
 528 0056 0222     		movs	r2, #2
 529 0058 83F84420 		strb	r2, [r3, #68]
ARM GAS  /tmp/ccxx2olO.s 			page 16


 336:./Libraries/STM32H7xx_HAL_Driver/Src/stm32h7xx_hal_tim_ex.c ****   TIM_CHANNEL_N_STATE_SET(htim, TIM_CHANNEL_2, HAL_TIM_CHANNEL_STATE_BUSY);
 530              		.loc 1 336 3
 531 005c 7B68     		ldr	r3, [r7, #4]
 532 005e 0222     		movs	r2, #2
 533 0060 83F84520 		strb	r2, [r3, #69]
 337:./Libraries/STM32H7xx_HAL_Driver/Src/stm32h7xx_hal_tim_ex.c **** 
 338:./Libraries/STM32H7xx_HAL_Driver/Src/stm32h7xx_hal_tim_ex.c ****   /* Enable the Input Capture channel 1
 339:./Libraries/STM32H7xx_HAL_Driver/Src/stm32h7xx_hal_tim_ex.c ****   (in the Hall Sensor Interface the three possible channels that can be used are TIM_CHANNEL_1, TIM
 340:./Libraries/STM32H7xx_HAL_Driver/Src/stm32h7xx_hal_tim_ex.c ****   TIM_CCxChannelCmd(htim->Instance, TIM_CHANNEL_1, TIM_CCx_ENABLE);
 534              		.loc 1 340 3
 535 0064 7B68     		ldr	r3, [r7, #4]
 536 0066 1B68     		ldr	r3, [r3]
 537 0068 0122     		movs	r2, #1
 538 006a 0021     		movs	r1, #0
 539 006c 1846     		mov	r0, r3
 540 006e FFF7FEFF 		bl	TIM_CCxChannelCmd
 341:./Libraries/STM32H7xx_HAL_Driver/Src/stm32h7xx_hal_tim_ex.c **** 
 342:./Libraries/STM32H7xx_HAL_Driver/Src/stm32h7xx_hal_tim_ex.c ****   /* Enable the Peripheral, except in trigger mode where enable is automatically done with trigger 
 343:./Libraries/STM32H7xx_HAL_Driver/Src/stm32h7xx_hal_tim_ex.c ****   if (IS_TIM_SLAVE_INSTANCE(htim->Instance))
 541              		.loc 1 343 7
 542 0072 7B68     		ldr	r3, [r7, #4]
 543 0074 1B68     		ldr	r3, [r3]
 544              		.loc 1 343 6
 545 0076 234A     		ldr	r2, .L22
 546 0078 9342     		cmp	r3, r2
 547 007a 1DD0     		beq	.L17
 548              		.loc 1 343 7 discriminator 1
 549 007c 7B68     		ldr	r3, [r7, #4]
 550 007e 1B68     		ldr	r3, [r3]
 551 0080 B3F1804F 		cmp	r3, #1073741824
 552 0084 18D0     		beq	.L17
 553              		.loc 1 343 7 is_stmt 0 discriminator 2
 554 0086 7B68     		ldr	r3, [r7, #4]
 555 0088 1B68     		ldr	r3, [r3]
 556 008a 1F4A     		ldr	r2, .L22+4
 557 008c 9342     		cmp	r3, r2
 558 008e 13D0     		beq	.L17
 559              		.loc 1 343 7 discriminator 3
 560 0090 7B68     		ldr	r3, [r7, #4]
 561 0092 1B68     		ldr	r3, [r3]
 562 0094 1D4A     		ldr	r2, .L22+8
 563 0096 9342     		cmp	r3, r2
 564 0098 0ED0     		beq	.L17
 565              		.loc 1 343 7 discriminator 4
 566 009a 7B68     		ldr	r3, [r7, #4]
 567 009c 1B68     		ldr	r3, [r3]
 568 009e 1C4A     		ldr	r2, .L22+12
 569 00a0 9342     		cmp	r3, r2
 570 00a2 09D0     		beq	.L17
 571              		.loc 1 343 7 discriminator 5
 572 00a4 7B68     		ldr	r3, [r7, #4]
 573 00a6 1B68     		ldr	r3, [r3]
 574 00a8 1A4A     		ldr	r2, .L22+16
 575 00aa 9342     		cmp	r3, r2
 576 00ac 04D0     		beq	.L17
 577              		.loc 1 343 7 discriminator 6
 578 00ae 7B68     		ldr	r3, [r7, #4]
ARM GAS  /tmp/ccxx2olO.s 			page 17


 579 00b0 1B68     		ldr	r3, [r3]
 580 00b2 194A     		ldr	r2, .L22+20
 581 00b4 9342     		cmp	r3, r2
 582 00b6 15D1     		bne	.L18
 583              	.L17:
 344:./Libraries/STM32H7xx_HAL_Driver/Src/stm32h7xx_hal_tim_ex.c ****   {
 345:./Libraries/STM32H7xx_HAL_Driver/Src/stm32h7xx_hal_tim_ex.c ****     tmpsmcr = htim->Instance->SMCR & TIM_SMCR_SMS;
 584              		.loc 1 345 19 is_stmt 1
 585 00b8 7B68     		ldr	r3, [r7, #4]
 586 00ba 1B68     		ldr	r3, [r3]
 587              		.loc 1 345 29
 588 00bc 9A68     		ldr	r2, [r3, #8]
 589              		.loc 1 345 13
 590 00be 174B     		ldr	r3, .L22+24
 591 00c0 1340     		ands	r3, r3, r2
 592 00c2 BB60     		str	r3, [r7, #8]
 346:./Libraries/STM32H7xx_HAL_Driver/Src/stm32h7xx_hal_tim_ex.c ****     if (!IS_TIM_SLAVEMODE_TRIGGER_ENABLED(tmpsmcr))
 593              		.loc 1 346 8
 594 00c4 BB68     		ldr	r3, [r7, #8]
 595 00c6 062B     		cmp	r3, #6
 596 00c8 15D0     		beq	.L21
 597              		.loc 1 346 9 discriminator 1
 598 00ca BB68     		ldr	r3, [r7, #8]
 599 00cc B3F5803F 		cmp	r3, #65536
 600 00d0 11D0     		beq	.L21
 347:./Libraries/STM32H7xx_HAL_Driver/Src/stm32h7xx_hal_tim_ex.c ****     {
 348:./Libraries/STM32H7xx_HAL_Driver/Src/stm32h7xx_hal_tim_ex.c ****       __HAL_TIM_ENABLE(htim);
 601              		.loc 1 348 7
 602 00d2 7B68     		ldr	r3, [r7, #4]
 603 00d4 1B68     		ldr	r3, [r3]
 604 00d6 1A68     		ldr	r2, [r3]
 605 00d8 7B68     		ldr	r3, [r7, #4]
 606 00da 1B68     		ldr	r3, [r3]
 607 00dc 42F00102 		orr	r2, r2, #1
 608 00e0 1A60     		str	r2, [r3]
 346:./Libraries/STM32H7xx_HAL_Driver/Src/stm32h7xx_hal_tim_ex.c ****     if (!IS_TIM_SLAVEMODE_TRIGGER_ENABLED(tmpsmcr))
 609              		.loc 1 346 8
 610 00e2 08E0     		b	.L21
 611              	.L18:
 349:./Libraries/STM32H7xx_HAL_Driver/Src/stm32h7xx_hal_tim_ex.c ****     }
 350:./Libraries/STM32H7xx_HAL_Driver/Src/stm32h7xx_hal_tim_ex.c ****   }
 351:./Libraries/STM32H7xx_HAL_Driver/Src/stm32h7xx_hal_tim_ex.c ****   else
 352:./Libraries/STM32H7xx_HAL_Driver/Src/stm32h7xx_hal_tim_ex.c ****   {
 353:./Libraries/STM32H7xx_HAL_Driver/Src/stm32h7xx_hal_tim_ex.c ****     __HAL_TIM_ENABLE(htim);
 612              		.loc 1 353 5
 613 00e4 7B68     		ldr	r3, [r7, #4]
 614 00e6 1B68     		ldr	r3, [r3]
 615 00e8 1A68     		ldr	r2, [r3]
 616 00ea 7B68     		ldr	r3, [r7, #4]
 617 00ec 1B68     		ldr	r3, [r3]
 618 00ee 42F00102 		orr	r2, r2, #1
 619 00f2 1A60     		str	r2, [r3]
 620 00f4 00E0     		b	.L20
 621              	.L21:
 346:./Libraries/STM32H7xx_HAL_Driver/Src/stm32h7xx_hal_tim_ex.c ****     {
 622              		.loc 1 346 8
 623 00f6 00BF     		nop
ARM GAS  /tmp/ccxx2olO.s 			page 18


 624              	.L20:
 354:./Libraries/STM32H7xx_HAL_Driver/Src/stm32h7xx_hal_tim_ex.c ****   }
 355:./Libraries/STM32H7xx_HAL_Driver/Src/stm32h7xx_hal_tim_ex.c **** 
 356:./Libraries/STM32H7xx_HAL_Driver/Src/stm32h7xx_hal_tim_ex.c ****   /* Return function status */
 357:./Libraries/STM32H7xx_HAL_Driver/Src/stm32h7xx_hal_tim_ex.c ****   return HAL_OK;
 625              		.loc 1 357 10
 626 00f8 0023     		movs	r3, #0
 627              	.L16:
 358:./Libraries/STM32H7xx_HAL_Driver/Src/stm32h7xx_hal_tim_ex.c **** }
 628              		.loc 1 358 1
 629 00fa 1846     		mov	r0, r3
 630 00fc 1037     		adds	r7, r7, #16
 631              	.LCFI25:
 632              		.cfi_def_cfa_offset 8
 633 00fe BD46     		mov	sp, r7
 634              	.LCFI26:
 635              		.cfi_def_cfa_register 13
 636              		@ sp needed
 637 0100 80BD     		pop	{r7, pc}
 638              	.L23:
 639 0102 00BF     		.align	2
 640              	.L22:
 641 0104 00000140 		.word	1073807360
 642 0108 00040040 		.word	1073742848
 643 010c 00080040 		.word	1073743872
 644 0110 000C0040 		.word	1073744896
 645 0114 00040140 		.word	1073808384
 646 0118 00180040 		.word	1073747968
 647 011c 07000100 		.word	65543
 648              		.cfi_endproc
 649              	.LFE335:
 651              		.section	.text.HAL_TIMEx_HallSensor_Stop,"ax",%progbits
 652              		.align	1
 653              		.global	HAL_TIMEx_HallSensor_Stop
 654              		.syntax unified
 655              		.thumb
 656              		.thumb_func
 657              		.fpu fpv5-d16
 659              	HAL_TIMEx_HallSensor_Stop:
 660              	.LFB336:
 359:./Libraries/STM32H7xx_HAL_Driver/Src/stm32h7xx_hal_tim_ex.c **** 
 360:./Libraries/STM32H7xx_HAL_Driver/Src/stm32h7xx_hal_tim_ex.c **** /**
 361:./Libraries/STM32H7xx_HAL_Driver/Src/stm32h7xx_hal_tim_ex.c ****   * @brief  Stops the TIM Hall sensor Interface.
 362:./Libraries/STM32H7xx_HAL_Driver/Src/stm32h7xx_hal_tim_ex.c ****   * @param  htim TIM Hall Sensor Interface handle
 363:./Libraries/STM32H7xx_HAL_Driver/Src/stm32h7xx_hal_tim_ex.c ****   * @retval HAL status
 364:./Libraries/STM32H7xx_HAL_Driver/Src/stm32h7xx_hal_tim_ex.c ****   */
 365:./Libraries/STM32H7xx_HAL_Driver/Src/stm32h7xx_hal_tim_ex.c **** HAL_StatusTypeDef HAL_TIMEx_HallSensor_Stop(TIM_HandleTypeDef *htim)
 366:./Libraries/STM32H7xx_HAL_Driver/Src/stm32h7xx_hal_tim_ex.c **** {
 661              		.loc 1 366 1
 662              		.cfi_startproc
 663              		@ args = 0, pretend = 0, frame = 8
 664              		@ frame_needed = 1, uses_anonymous_args = 0
 665 0000 80B5     		push	{r7, lr}
 666              	.LCFI27:
 667              		.cfi_def_cfa_offset 8
 668              		.cfi_offset 7, -8
 669              		.cfi_offset 14, -4
ARM GAS  /tmp/ccxx2olO.s 			page 19


 670 0002 82B0     		sub	sp, sp, #8
 671              	.LCFI28:
 672              		.cfi_def_cfa_offset 16
 673 0004 00AF     		add	r7, sp, #0
 674              	.LCFI29:
 675              		.cfi_def_cfa_register 7
 676 0006 7860     		str	r0, [r7, #4]
 367:./Libraries/STM32H7xx_HAL_Driver/Src/stm32h7xx_hal_tim_ex.c ****   /* Check the parameters */
 368:./Libraries/STM32H7xx_HAL_Driver/Src/stm32h7xx_hal_tim_ex.c ****   assert_param(IS_TIM_HALL_SENSOR_INTERFACE_INSTANCE(htim->Instance));
 369:./Libraries/STM32H7xx_HAL_Driver/Src/stm32h7xx_hal_tim_ex.c **** 
 370:./Libraries/STM32H7xx_HAL_Driver/Src/stm32h7xx_hal_tim_ex.c ****   /* Disable the Input Capture channels 1, 2 and 3
 371:./Libraries/STM32H7xx_HAL_Driver/Src/stm32h7xx_hal_tim_ex.c ****     (in the Hall Sensor Interface the three possible channels that can be used are TIM_CHANNEL_1, T
 372:./Libraries/STM32H7xx_HAL_Driver/Src/stm32h7xx_hal_tim_ex.c ****   TIM_CCxChannelCmd(htim->Instance, TIM_CHANNEL_1, TIM_CCx_DISABLE);
 677              		.loc 1 372 3
 678 0008 7B68     		ldr	r3, [r7, #4]
 679 000a 1B68     		ldr	r3, [r3]
 680 000c 0022     		movs	r2, #0
 681 000e 0021     		movs	r1, #0
 682 0010 1846     		mov	r0, r3
 683 0012 FFF7FEFF 		bl	TIM_CCxChannelCmd
 373:./Libraries/STM32H7xx_HAL_Driver/Src/stm32h7xx_hal_tim_ex.c **** 
 374:./Libraries/STM32H7xx_HAL_Driver/Src/stm32h7xx_hal_tim_ex.c ****   /* Disable the Peripheral */
 375:./Libraries/STM32H7xx_HAL_Driver/Src/stm32h7xx_hal_tim_ex.c ****   __HAL_TIM_DISABLE(htim);
 684              		.loc 1 375 3
 685 0016 7B68     		ldr	r3, [r7, #4]
 686 0018 1B68     		ldr	r3, [r3]
 687 001a 1A6A     		ldr	r2, [r3, #32]
 688 001c 41F21113 		movw	r3, #4369
 689 0020 1340     		ands	r3, r3, r2
 690 0022 002B     		cmp	r3, #0
 691 0024 0FD1     		bne	.L25
 692              		.loc 1 375 3 is_stmt 0 discriminator 1
 693 0026 7B68     		ldr	r3, [r7, #4]
 694 0028 1B68     		ldr	r3, [r3]
 695 002a 1A6A     		ldr	r2, [r3, #32]
 696 002c 40F24443 		movw	r3, #1092
 697 0030 1340     		ands	r3, r3, r2
 698 0032 002B     		cmp	r3, #0
 699 0034 07D1     		bne	.L25
 700              		.loc 1 375 3 discriminator 2
 701 0036 7B68     		ldr	r3, [r7, #4]
 702 0038 1B68     		ldr	r3, [r3]
 703 003a 1A68     		ldr	r2, [r3]
 704 003c 7B68     		ldr	r3, [r7, #4]
 705 003e 1B68     		ldr	r3, [r3]
 706 0040 22F00102 		bic	r2, r2, #1
 707 0044 1A60     		str	r2, [r3]
 708              	.L25:
 376:./Libraries/STM32H7xx_HAL_Driver/Src/stm32h7xx_hal_tim_ex.c **** 
 377:./Libraries/STM32H7xx_HAL_Driver/Src/stm32h7xx_hal_tim_ex.c ****   /* Set the TIM channels state */
 378:./Libraries/STM32H7xx_HAL_Driver/Src/stm32h7xx_hal_tim_ex.c ****   TIM_CHANNEL_STATE_SET(htim, TIM_CHANNEL_1, HAL_TIM_CHANNEL_STATE_READY);
 709              		.loc 1 378 3 is_stmt 1
 710 0046 7B68     		ldr	r3, [r7, #4]
 711 0048 0122     		movs	r2, #1
 712 004a 83F83E20 		strb	r2, [r3, #62]
 379:./Libraries/STM32H7xx_HAL_Driver/Src/stm32h7xx_hal_tim_ex.c ****   TIM_CHANNEL_STATE_SET(htim, TIM_CHANNEL_2, HAL_TIM_CHANNEL_STATE_READY);
 713              		.loc 1 379 3
ARM GAS  /tmp/ccxx2olO.s 			page 20


 714 004e 7B68     		ldr	r3, [r7, #4]
 715 0050 0122     		movs	r2, #1
 716 0052 83F83F20 		strb	r2, [r3, #63]
 380:./Libraries/STM32H7xx_HAL_Driver/Src/stm32h7xx_hal_tim_ex.c ****   TIM_CHANNEL_N_STATE_SET(htim, TIM_CHANNEL_1, HAL_TIM_CHANNEL_STATE_READY);
 717              		.loc 1 380 3
 718 0056 7B68     		ldr	r3, [r7, #4]
 719 0058 0122     		movs	r2, #1
 720 005a 83F84420 		strb	r2, [r3, #68]
 381:./Libraries/STM32H7xx_HAL_Driver/Src/stm32h7xx_hal_tim_ex.c ****   TIM_CHANNEL_N_STATE_SET(htim, TIM_CHANNEL_2, HAL_TIM_CHANNEL_STATE_READY);
 721              		.loc 1 381 3
 722 005e 7B68     		ldr	r3, [r7, #4]
 723 0060 0122     		movs	r2, #1
 724 0062 83F84520 		strb	r2, [r3, #69]
 382:./Libraries/STM32H7xx_HAL_Driver/Src/stm32h7xx_hal_tim_ex.c **** 
 383:./Libraries/STM32H7xx_HAL_Driver/Src/stm32h7xx_hal_tim_ex.c ****   /* Return function status */
 384:./Libraries/STM32H7xx_HAL_Driver/Src/stm32h7xx_hal_tim_ex.c ****   return HAL_OK;
 725              		.loc 1 384 10
 726 0066 0023     		movs	r3, #0
 385:./Libraries/STM32H7xx_HAL_Driver/Src/stm32h7xx_hal_tim_ex.c **** }
 727              		.loc 1 385 1
 728 0068 1846     		mov	r0, r3
 729 006a 0837     		adds	r7, r7, #8
 730              	.LCFI30:
 731              		.cfi_def_cfa_offset 8
 732 006c BD46     		mov	sp, r7
 733              	.LCFI31:
 734              		.cfi_def_cfa_register 13
 735              		@ sp needed
 736 006e 80BD     		pop	{r7, pc}
 737              		.cfi_endproc
 738              	.LFE336:
 740              		.section	.text.HAL_TIMEx_HallSensor_Start_IT,"ax",%progbits
 741              		.align	1
 742              		.global	HAL_TIMEx_HallSensor_Start_IT
 743              		.syntax unified
 744              		.thumb
 745              		.thumb_func
 746              		.fpu fpv5-d16
 748              	HAL_TIMEx_HallSensor_Start_IT:
 749              	.LFB337:
 386:./Libraries/STM32H7xx_HAL_Driver/Src/stm32h7xx_hal_tim_ex.c **** 
 387:./Libraries/STM32H7xx_HAL_Driver/Src/stm32h7xx_hal_tim_ex.c **** /**
 388:./Libraries/STM32H7xx_HAL_Driver/Src/stm32h7xx_hal_tim_ex.c ****   * @brief  Starts the TIM Hall Sensor Interface in interrupt mode.
 389:./Libraries/STM32H7xx_HAL_Driver/Src/stm32h7xx_hal_tim_ex.c ****   * @param  htim TIM Hall Sensor Interface handle
 390:./Libraries/STM32H7xx_HAL_Driver/Src/stm32h7xx_hal_tim_ex.c ****   * @retval HAL status
 391:./Libraries/STM32H7xx_HAL_Driver/Src/stm32h7xx_hal_tim_ex.c ****   */
 392:./Libraries/STM32H7xx_HAL_Driver/Src/stm32h7xx_hal_tim_ex.c **** HAL_StatusTypeDef HAL_TIMEx_HallSensor_Start_IT(TIM_HandleTypeDef *htim)
 393:./Libraries/STM32H7xx_HAL_Driver/Src/stm32h7xx_hal_tim_ex.c **** {
 750              		.loc 1 393 1
 751              		.cfi_startproc
 752              		@ args = 0, pretend = 0, frame = 16
 753              		@ frame_needed = 1, uses_anonymous_args = 0
 754 0000 80B5     		push	{r7, lr}
 755              	.LCFI32:
 756              		.cfi_def_cfa_offset 8
 757              		.cfi_offset 7, -8
 758              		.cfi_offset 14, -4
ARM GAS  /tmp/ccxx2olO.s 			page 21


 759 0002 84B0     		sub	sp, sp, #16
 760              	.LCFI33:
 761              		.cfi_def_cfa_offset 24
 762 0004 00AF     		add	r7, sp, #0
 763              	.LCFI34:
 764              		.cfi_def_cfa_register 7
 765 0006 7860     		str	r0, [r7, #4]
 394:./Libraries/STM32H7xx_HAL_Driver/Src/stm32h7xx_hal_tim_ex.c ****   uint32_t tmpsmcr;
 395:./Libraries/STM32H7xx_HAL_Driver/Src/stm32h7xx_hal_tim_ex.c ****   HAL_TIM_ChannelStateTypeDef channel_1_state = TIM_CHANNEL_STATE_GET(htim, TIM_CHANNEL_1);
 766              		.loc 1 395 31
 767 0008 7B68     		ldr	r3, [r7, #4]
 768 000a 93F83E30 		ldrb	r3, [r3, #62]
 769 000e FB73     		strb	r3, [r7, #15]
 396:./Libraries/STM32H7xx_HAL_Driver/Src/stm32h7xx_hal_tim_ex.c ****   HAL_TIM_ChannelStateTypeDef channel_2_state = TIM_CHANNEL_STATE_GET(htim, TIM_CHANNEL_2);
 770              		.loc 1 396 31
 771 0010 7B68     		ldr	r3, [r7, #4]
 772 0012 93F83F30 		ldrb	r3, [r3, #63]
 773 0016 BB73     		strb	r3, [r7, #14]
 397:./Libraries/STM32H7xx_HAL_Driver/Src/stm32h7xx_hal_tim_ex.c ****   HAL_TIM_ChannelStateTypeDef complementary_channel_1_state = TIM_CHANNEL_N_STATE_GET(htim, TIM_CHA
 774              		.loc 1 397 31
 775 0018 7B68     		ldr	r3, [r7, #4]
 776 001a 93F84430 		ldrb	r3, [r3, #68]
 777 001e 7B73     		strb	r3, [r7, #13]
 398:./Libraries/STM32H7xx_HAL_Driver/Src/stm32h7xx_hal_tim_ex.c ****   HAL_TIM_ChannelStateTypeDef complementary_channel_2_state = TIM_CHANNEL_N_STATE_GET(htim, TIM_CHA
 778              		.loc 1 398 31
 779 0020 7B68     		ldr	r3, [r7, #4]
 780 0022 93F84530 		ldrb	r3, [r3, #69]
 781 0026 3B73     		strb	r3, [r7, #12]
 399:./Libraries/STM32H7xx_HAL_Driver/Src/stm32h7xx_hal_tim_ex.c **** 
 400:./Libraries/STM32H7xx_HAL_Driver/Src/stm32h7xx_hal_tim_ex.c ****   /* Check the parameters */
 401:./Libraries/STM32H7xx_HAL_Driver/Src/stm32h7xx_hal_tim_ex.c ****   assert_param(IS_TIM_HALL_SENSOR_INTERFACE_INSTANCE(htim->Instance));
 402:./Libraries/STM32H7xx_HAL_Driver/Src/stm32h7xx_hal_tim_ex.c **** 
 403:./Libraries/STM32H7xx_HAL_Driver/Src/stm32h7xx_hal_tim_ex.c ****   /* Check the TIM channels state */
 404:./Libraries/STM32H7xx_HAL_Driver/Src/stm32h7xx_hal_tim_ex.c ****   if ((channel_1_state != HAL_TIM_CHANNEL_STATE_READY)
 782              		.loc 1 404 6
 783 0028 FB7B     		ldrb	r3, [r7, #15]	@ zero_extendqisi2
 784 002a 012B     		cmp	r3, #1
 785 002c 08D1     		bne	.L28
 405:./Libraries/STM32H7xx_HAL_Driver/Src/stm32h7xx_hal_tim_ex.c ****       || (channel_2_state != HAL_TIM_CHANNEL_STATE_READY)
 786              		.loc 1 405 7
 787 002e BB7B     		ldrb	r3, [r7, #14]	@ zero_extendqisi2
 788 0030 012B     		cmp	r3, #1
 789 0032 05D1     		bne	.L28
 406:./Libraries/STM32H7xx_HAL_Driver/Src/stm32h7xx_hal_tim_ex.c ****       || (complementary_channel_1_state != HAL_TIM_CHANNEL_STATE_READY)
 790              		.loc 1 406 7
 791 0034 7B7B     		ldrb	r3, [r7, #13]	@ zero_extendqisi2
 792 0036 012B     		cmp	r3, #1
 793 0038 02D1     		bne	.L28
 407:./Libraries/STM32H7xx_HAL_Driver/Src/stm32h7xx_hal_tim_ex.c ****       || (complementary_channel_2_state != HAL_TIM_CHANNEL_STATE_READY))
 794              		.loc 1 407 7
 795 003a 3B7B     		ldrb	r3, [r7, #12]	@ zero_extendqisi2
 796 003c 012B     		cmp	r3, #1
 797 003e 01D0     		beq	.L29
 798              	.L28:
 408:./Libraries/STM32H7xx_HAL_Driver/Src/stm32h7xx_hal_tim_ex.c ****   {
 409:./Libraries/STM32H7xx_HAL_Driver/Src/stm32h7xx_hal_tim_ex.c ****     return HAL_ERROR;
 799              		.loc 1 409 12
ARM GAS  /tmp/ccxx2olO.s 			page 22


 800 0040 0123     		movs	r3, #1
 801 0042 62E0     		b	.L30
 802              	.L29:
 410:./Libraries/STM32H7xx_HAL_Driver/Src/stm32h7xx_hal_tim_ex.c ****   }
 411:./Libraries/STM32H7xx_HAL_Driver/Src/stm32h7xx_hal_tim_ex.c **** 
 412:./Libraries/STM32H7xx_HAL_Driver/Src/stm32h7xx_hal_tim_ex.c ****   /* Set the TIM channels state */
 413:./Libraries/STM32H7xx_HAL_Driver/Src/stm32h7xx_hal_tim_ex.c ****   TIM_CHANNEL_STATE_SET(htim, TIM_CHANNEL_1, HAL_TIM_CHANNEL_STATE_BUSY);
 803              		.loc 1 413 3
 804 0044 7B68     		ldr	r3, [r7, #4]
 805 0046 0222     		movs	r2, #2
 806 0048 83F83E20 		strb	r2, [r3, #62]
 414:./Libraries/STM32H7xx_HAL_Driver/Src/stm32h7xx_hal_tim_ex.c ****   TIM_CHANNEL_STATE_SET(htim, TIM_CHANNEL_2, HAL_TIM_CHANNEL_STATE_BUSY);
 807              		.loc 1 414 3
 808 004c 7B68     		ldr	r3, [r7, #4]
 809 004e 0222     		movs	r2, #2
 810 0050 83F83F20 		strb	r2, [r3, #63]
 415:./Libraries/STM32H7xx_HAL_Driver/Src/stm32h7xx_hal_tim_ex.c ****   TIM_CHANNEL_N_STATE_SET(htim, TIM_CHANNEL_1, HAL_TIM_CHANNEL_STATE_BUSY);
 811              		.loc 1 415 3
 812 0054 7B68     		ldr	r3, [r7, #4]
 813 0056 0222     		movs	r2, #2
 814 0058 83F84420 		strb	r2, [r3, #68]
 416:./Libraries/STM32H7xx_HAL_Driver/Src/stm32h7xx_hal_tim_ex.c ****   TIM_CHANNEL_N_STATE_SET(htim, TIM_CHANNEL_2, HAL_TIM_CHANNEL_STATE_BUSY);
 815              		.loc 1 416 3
 816 005c 7B68     		ldr	r3, [r7, #4]
 817 005e 0222     		movs	r2, #2
 818 0060 83F84520 		strb	r2, [r3, #69]
 417:./Libraries/STM32H7xx_HAL_Driver/Src/stm32h7xx_hal_tim_ex.c **** 
 418:./Libraries/STM32H7xx_HAL_Driver/Src/stm32h7xx_hal_tim_ex.c ****   /* Enable the capture compare Interrupts 1 event */
 419:./Libraries/STM32H7xx_HAL_Driver/Src/stm32h7xx_hal_tim_ex.c ****   __HAL_TIM_ENABLE_IT(htim, TIM_IT_CC1);
 819              		.loc 1 419 3
 820 0064 7B68     		ldr	r3, [r7, #4]
 821 0066 1B68     		ldr	r3, [r3]
 822 0068 DA68     		ldr	r2, [r3, #12]
 823 006a 7B68     		ldr	r3, [r7, #4]
 824 006c 1B68     		ldr	r3, [r3]
 825 006e 42F00202 		orr	r2, r2, #2
 826 0072 DA60     		str	r2, [r3, #12]
 420:./Libraries/STM32H7xx_HAL_Driver/Src/stm32h7xx_hal_tim_ex.c **** 
 421:./Libraries/STM32H7xx_HAL_Driver/Src/stm32h7xx_hal_tim_ex.c ****   /* Enable the Input Capture channel 1
 422:./Libraries/STM32H7xx_HAL_Driver/Src/stm32h7xx_hal_tim_ex.c ****     (in the Hall Sensor Interface the three possible channels that can be used are TIM_CHANNEL_1, T
 423:./Libraries/STM32H7xx_HAL_Driver/Src/stm32h7xx_hal_tim_ex.c ****   TIM_CCxChannelCmd(htim->Instance, TIM_CHANNEL_1, TIM_CCx_ENABLE);
 827              		.loc 1 423 3
 828 0074 7B68     		ldr	r3, [r7, #4]
 829 0076 1B68     		ldr	r3, [r3]
 830 0078 0122     		movs	r2, #1
 831 007a 0021     		movs	r1, #0
 832 007c 1846     		mov	r0, r3
 833 007e FFF7FEFF 		bl	TIM_CCxChannelCmd
 424:./Libraries/STM32H7xx_HAL_Driver/Src/stm32h7xx_hal_tim_ex.c **** 
 425:./Libraries/STM32H7xx_HAL_Driver/Src/stm32h7xx_hal_tim_ex.c ****   /* Enable the Peripheral, except in trigger mode where enable is automatically done with trigger 
 426:./Libraries/STM32H7xx_HAL_Driver/Src/stm32h7xx_hal_tim_ex.c ****   if (IS_TIM_SLAVE_INSTANCE(htim->Instance))
 834              		.loc 1 426 7
 835 0082 7B68     		ldr	r3, [r7, #4]
 836 0084 1B68     		ldr	r3, [r3]
 837              		.loc 1 426 6
 838 0086 234A     		ldr	r2, .L36
 839 0088 9342     		cmp	r3, r2
ARM GAS  /tmp/ccxx2olO.s 			page 23


 840 008a 1DD0     		beq	.L31
 841              		.loc 1 426 7 discriminator 1
 842 008c 7B68     		ldr	r3, [r7, #4]
 843 008e 1B68     		ldr	r3, [r3]
 844 0090 B3F1804F 		cmp	r3, #1073741824
 845 0094 18D0     		beq	.L31
 846              		.loc 1 426 7 is_stmt 0 discriminator 2
 847 0096 7B68     		ldr	r3, [r7, #4]
 848 0098 1B68     		ldr	r3, [r3]
 849 009a 1F4A     		ldr	r2, .L36+4
 850 009c 9342     		cmp	r3, r2
 851 009e 13D0     		beq	.L31
 852              		.loc 1 426 7 discriminator 3
 853 00a0 7B68     		ldr	r3, [r7, #4]
 854 00a2 1B68     		ldr	r3, [r3]
 855 00a4 1D4A     		ldr	r2, .L36+8
 856 00a6 9342     		cmp	r3, r2
 857 00a8 0ED0     		beq	.L31
 858              		.loc 1 426 7 discriminator 4
 859 00aa 7B68     		ldr	r3, [r7, #4]
 860 00ac 1B68     		ldr	r3, [r3]
 861 00ae 1C4A     		ldr	r2, .L36+12
 862 00b0 9342     		cmp	r3, r2
 863 00b2 09D0     		beq	.L31
 864              		.loc 1 426 7 discriminator 5
 865 00b4 7B68     		ldr	r3, [r7, #4]
 866 00b6 1B68     		ldr	r3, [r3]
 867 00b8 1A4A     		ldr	r2, .L36+16
 868 00ba 9342     		cmp	r3, r2
 869 00bc 04D0     		beq	.L31
 870              		.loc 1 426 7 discriminator 6
 871 00be 7B68     		ldr	r3, [r7, #4]
 872 00c0 1B68     		ldr	r3, [r3]
 873 00c2 194A     		ldr	r2, .L36+20
 874 00c4 9342     		cmp	r3, r2
 875 00c6 15D1     		bne	.L32
 876              	.L31:
 427:./Libraries/STM32H7xx_HAL_Driver/Src/stm32h7xx_hal_tim_ex.c ****   {
 428:./Libraries/STM32H7xx_HAL_Driver/Src/stm32h7xx_hal_tim_ex.c ****     tmpsmcr = htim->Instance->SMCR & TIM_SMCR_SMS;
 877              		.loc 1 428 19 is_stmt 1
 878 00c8 7B68     		ldr	r3, [r7, #4]
 879 00ca 1B68     		ldr	r3, [r3]
 880              		.loc 1 428 29
 881 00cc 9A68     		ldr	r2, [r3, #8]
 882              		.loc 1 428 13
 883 00ce 174B     		ldr	r3, .L36+24
 884 00d0 1340     		ands	r3, r3, r2
 885 00d2 BB60     		str	r3, [r7, #8]
 429:./Libraries/STM32H7xx_HAL_Driver/Src/stm32h7xx_hal_tim_ex.c ****     if (!IS_TIM_SLAVEMODE_TRIGGER_ENABLED(tmpsmcr))
 886              		.loc 1 429 8
 887 00d4 BB68     		ldr	r3, [r7, #8]
 888 00d6 062B     		cmp	r3, #6
 889 00d8 15D0     		beq	.L35
 890              		.loc 1 429 9 discriminator 1
 891 00da BB68     		ldr	r3, [r7, #8]
 892 00dc B3F5803F 		cmp	r3, #65536
 893 00e0 11D0     		beq	.L35
ARM GAS  /tmp/ccxx2olO.s 			page 24


 430:./Libraries/STM32H7xx_HAL_Driver/Src/stm32h7xx_hal_tim_ex.c ****     {
 431:./Libraries/STM32H7xx_HAL_Driver/Src/stm32h7xx_hal_tim_ex.c ****       __HAL_TIM_ENABLE(htim);
 894              		.loc 1 431 7
 895 00e2 7B68     		ldr	r3, [r7, #4]
 896 00e4 1B68     		ldr	r3, [r3]
 897 00e6 1A68     		ldr	r2, [r3]
 898 00e8 7B68     		ldr	r3, [r7, #4]
 899 00ea 1B68     		ldr	r3, [r3]
 900 00ec 42F00102 		orr	r2, r2, #1
 901 00f0 1A60     		str	r2, [r3]
 429:./Libraries/STM32H7xx_HAL_Driver/Src/stm32h7xx_hal_tim_ex.c ****     if (!IS_TIM_SLAVEMODE_TRIGGER_ENABLED(tmpsmcr))
 902              		.loc 1 429 8
 903 00f2 08E0     		b	.L35
 904              	.L32:
 432:./Libraries/STM32H7xx_HAL_Driver/Src/stm32h7xx_hal_tim_ex.c ****     }
 433:./Libraries/STM32H7xx_HAL_Driver/Src/stm32h7xx_hal_tim_ex.c ****   }
 434:./Libraries/STM32H7xx_HAL_Driver/Src/stm32h7xx_hal_tim_ex.c ****   else
 435:./Libraries/STM32H7xx_HAL_Driver/Src/stm32h7xx_hal_tim_ex.c ****   {
 436:./Libraries/STM32H7xx_HAL_Driver/Src/stm32h7xx_hal_tim_ex.c ****     __HAL_TIM_ENABLE(htim);
 905              		.loc 1 436 5
 906 00f4 7B68     		ldr	r3, [r7, #4]
 907 00f6 1B68     		ldr	r3, [r3]
 908 00f8 1A68     		ldr	r2, [r3]
 909 00fa 7B68     		ldr	r3, [r7, #4]
 910 00fc 1B68     		ldr	r3, [r3]
 911 00fe 42F00102 		orr	r2, r2, #1
 912 0102 1A60     		str	r2, [r3]
 913 0104 00E0     		b	.L34
 914              	.L35:
 429:./Libraries/STM32H7xx_HAL_Driver/Src/stm32h7xx_hal_tim_ex.c ****     {
 915              		.loc 1 429 8
 916 0106 00BF     		nop
 917              	.L34:
 437:./Libraries/STM32H7xx_HAL_Driver/Src/stm32h7xx_hal_tim_ex.c ****   }
 438:./Libraries/STM32H7xx_HAL_Driver/Src/stm32h7xx_hal_tim_ex.c **** 
 439:./Libraries/STM32H7xx_HAL_Driver/Src/stm32h7xx_hal_tim_ex.c ****   /* Return function status */
 440:./Libraries/STM32H7xx_HAL_Driver/Src/stm32h7xx_hal_tim_ex.c ****   return HAL_OK;
 918              		.loc 1 440 10
 919 0108 0023     		movs	r3, #0
 920              	.L30:
 441:./Libraries/STM32H7xx_HAL_Driver/Src/stm32h7xx_hal_tim_ex.c **** }
 921              		.loc 1 441 1
 922 010a 1846     		mov	r0, r3
 923 010c 1037     		adds	r7, r7, #16
 924              	.LCFI35:
 925              		.cfi_def_cfa_offset 8
 926 010e BD46     		mov	sp, r7
 927              	.LCFI36:
 928              		.cfi_def_cfa_register 13
 929              		@ sp needed
 930 0110 80BD     		pop	{r7, pc}
 931              	.L37:
 932 0112 00BF     		.align	2
 933              	.L36:
 934 0114 00000140 		.word	1073807360
 935 0118 00040040 		.word	1073742848
 936 011c 00080040 		.word	1073743872
ARM GAS  /tmp/ccxx2olO.s 			page 25


 937 0120 000C0040 		.word	1073744896
 938 0124 00040140 		.word	1073808384
 939 0128 00180040 		.word	1073747968
 940 012c 07000100 		.word	65543
 941              		.cfi_endproc
 942              	.LFE337:
 944              		.section	.text.HAL_TIMEx_HallSensor_Stop_IT,"ax",%progbits
 945              		.align	1
 946              		.global	HAL_TIMEx_HallSensor_Stop_IT
 947              		.syntax unified
 948              		.thumb
 949              		.thumb_func
 950              		.fpu fpv5-d16
 952              	HAL_TIMEx_HallSensor_Stop_IT:
 953              	.LFB338:
 442:./Libraries/STM32H7xx_HAL_Driver/Src/stm32h7xx_hal_tim_ex.c **** 
 443:./Libraries/STM32H7xx_HAL_Driver/Src/stm32h7xx_hal_tim_ex.c **** /**
 444:./Libraries/STM32H7xx_HAL_Driver/Src/stm32h7xx_hal_tim_ex.c ****   * @brief  Stops the TIM Hall Sensor Interface in interrupt mode.
 445:./Libraries/STM32H7xx_HAL_Driver/Src/stm32h7xx_hal_tim_ex.c ****   * @param  htim TIM Hall Sensor Interface handle
 446:./Libraries/STM32H7xx_HAL_Driver/Src/stm32h7xx_hal_tim_ex.c ****   * @retval HAL status
 447:./Libraries/STM32H7xx_HAL_Driver/Src/stm32h7xx_hal_tim_ex.c ****   */
 448:./Libraries/STM32H7xx_HAL_Driver/Src/stm32h7xx_hal_tim_ex.c **** HAL_StatusTypeDef HAL_TIMEx_HallSensor_Stop_IT(TIM_HandleTypeDef *htim)
 449:./Libraries/STM32H7xx_HAL_Driver/Src/stm32h7xx_hal_tim_ex.c **** {
 954              		.loc 1 449 1
 955              		.cfi_startproc
 956              		@ args = 0, pretend = 0, frame = 8
 957              		@ frame_needed = 1, uses_anonymous_args = 0
 958 0000 80B5     		push	{r7, lr}
 959              	.LCFI37:
 960              		.cfi_def_cfa_offset 8
 961              		.cfi_offset 7, -8
 962              		.cfi_offset 14, -4
 963 0002 82B0     		sub	sp, sp, #8
 964              	.LCFI38:
 965              		.cfi_def_cfa_offset 16
 966 0004 00AF     		add	r7, sp, #0
 967              	.LCFI39:
 968              		.cfi_def_cfa_register 7
 969 0006 7860     		str	r0, [r7, #4]
 450:./Libraries/STM32H7xx_HAL_Driver/Src/stm32h7xx_hal_tim_ex.c ****   /* Check the parameters */
 451:./Libraries/STM32H7xx_HAL_Driver/Src/stm32h7xx_hal_tim_ex.c ****   assert_param(IS_TIM_HALL_SENSOR_INTERFACE_INSTANCE(htim->Instance));
 452:./Libraries/STM32H7xx_HAL_Driver/Src/stm32h7xx_hal_tim_ex.c **** 
 453:./Libraries/STM32H7xx_HAL_Driver/Src/stm32h7xx_hal_tim_ex.c ****   /* Disable the Input Capture channel 1
 454:./Libraries/STM32H7xx_HAL_Driver/Src/stm32h7xx_hal_tim_ex.c ****     (in the Hall Sensor Interface the three possible channels that can be used are TIM_CHANNEL_1, T
 455:./Libraries/STM32H7xx_HAL_Driver/Src/stm32h7xx_hal_tim_ex.c ****   TIM_CCxChannelCmd(htim->Instance, TIM_CHANNEL_1, TIM_CCx_DISABLE);
 970              		.loc 1 455 3
 971 0008 7B68     		ldr	r3, [r7, #4]
 972 000a 1B68     		ldr	r3, [r3]
 973 000c 0022     		movs	r2, #0
 974 000e 0021     		movs	r1, #0
 975 0010 1846     		mov	r0, r3
 976 0012 FFF7FEFF 		bl	TIM_CCxChannelCmd
 456:./Libraries/STM32H7xx_HAL_Driver/Src/stm32h7xx_hal_tim_ex.c **** 
 457:./Libraries/STM32H7xx_HAL_Driver/Src/stm32h7xx_hal_tim_ex.c ****   /* Disable the capture compare Interrupts event */
 458:./Libraries/STM32H7xx_HAL_Driver/Src/stm32h7xx_hal_tim_ex.c ****   __HAL_TIM_DISABLE_IT(htim, TIM_IT_CC1);
 977              		.loc 1 458 3
 978 0016 7B68     		ldr	r3, [r7, #4]
ARM GAS  /tmp/ccxx2olO.s 			page 26


 979 0018 1B68     		ldr	r3, [r3]
 980 001a DA68     		ldr	r2, [r3, #12]
 981 001c 7B68     		ldr	r3, [r7, #4]
 982 001e 1B68     		ldr	r3, [r3]
 983 0020 22F00202 		bic	r2, r2, #2
 984 0024 DA60     		str	r2, [r3, #12]
 459:./Libraries/STM32H7xx_HAL_Driver/Src/stm32h7xx_hal_tim_ex.c **** 
 460:./Libraries/STM32H7xx_HAL_Driver/Src/stm32h7xx_hal_tim_ex.c ****   /* Disable the Peripheral */
 461:./Libraries/STM32H7xx_HAL_Driver/Src/stm32h7xx_hal_tim_ex.c ****   __HAL_TIM_DISABLE(htim);
 985              		.loc 1 461 3
 986 0026 7B68     		ldr	r3, [r7, #4]
 987 0028 1B68     		ldr	r3, [r3]
 988 002a 1A6A     		ldr	r2, [r3, #32]
 989 002c 41F21113 		movw	r3, #4369
 990 0030 1340     		ands	r3, r3, r2
 991 0032 002B     		cmp	r3, #0
 992 0034 0FD1     		bne	.L39
 993              		.loc 1 461 3 is_stmt 0 discriminator 1
 994 0036 7B68     		ldr	r3, [r7, #4]
 995 0038 1B68     		ldr	r3, [r3]
 996 003a 1A6A     		ldr	r2, [r3, #32]
 997 003c 40F24443 		movw	r3, #1092
 998 0040 1340     		ands	r3, r3, r2
 999 0042 002B     		cmp	r3, #0
 1000 0044 07D1     		bne	.L39
 1001              		.loc 1 461 3 discriminator 2
 1002 0046 7B68     		ldr	r3, [r7, #4]
 1003 0048 1B68     		ldr	r3, [r3]
 1004 004a 1A68     		ldr	r2, [r3]
 1005 004c 7B68     		ldr	r3, [r7, #4]
 1006 004e 1B68     		ldr	r3, [r3]
 1007 0050 22F00102 		bic	r2, r2, #1
 1008 0054 1A60     		str	r2, [r3]
 1009              	.L39:
 462:./Libraries/STM32H7xx_HAL_Driver/Src/stm32h7xx_hal_tim_ex.c **** 
 463:./Libraries/STM32H7xx_HAL_Driver/Src/stm32h7xx_hal_tim_ex.c ****   /* Set the TIM channels state */
 464:./Libraries/STM32H7xx_HAL_Driver/Src/stm32h7xx_hal_tim_ex.c ****   TIM_CHANNEL_STATE_SET(htim, TIM_CHANNEL_1, HAL_TIM_CHANNEL_STATE_READY);
 1010              		.loc 1 464 3 is_stmt 1
 1011 0056 7B68     		ldr	r3, [r7, #4]
 1012 0058 0122     		movs	r2, #1
 1013 005a 83F83E20 		strb	r2, [r3, #62]
 465:./Libraries/STM32H7xx_HAL_Driver/Src/stm32h7xx_hal_tim_ex.c ****   TIM_CHANNEL_STATE_SET(htim, TIM_CHANNEL_2, HAL_TIM_CHANNEL_STATE_READY);
 1014              		.loc 1 465 3
 1015 005e 7B68     		ldr	r3, [r7, #4]
 1016 0060 0122     		movs	r2, #1
 1017 0062 83F83F20 		strb	r2, [r3, #63]
 466:./Libraries/STM32H7xx_HAL_Driver/Src/stm32h7xx_hal_tim_ex.c ****   TIM_CHANNEL_N_STATE_SET(htim, TIM_CHANNEL_1, HAL_TIM_CHANNEL_STATE_READY);
 1018              		.loc 1 466 3
 1019 0066 7B68     		ldr	r3, [r7, #4]
 1020 0068 0122     		movs	r2, #1
 1021 006a 83F84420 		strb	r2, [r3, #68]
 467:./Libraries/STM32H7xx_HAL_Driver/Src/stm32h7xx_hal_tim_ex.c ****   TIM_CHANNEL_N_STATE_SET(htim, TIM_CHANNEL_2, HAL_TIM_CHANNEL_STATE_READY);
 1022              		.loc 1 467 3
 1023 006e 7B68     		ldr	r3, [r7, #4]
 1024 0070 0122     		movs	r2, #1
 1025 0072 83F84520 		strb	r2, [r3, #69]
 468:./Libraries/STM32H7xx_HAL_Driver/Src/stm32h7xx_hal_tim_ex.c **** 
ARM GAS  /tmp/ccxx2olO.s 			page 27


 469:./Libraries/STM32H7xx_HAL_Driver/Src/stm32h7xx_hal_tim_ex.c ****   /* Return function status */
 470:./Libraries/STM32H7xx_HAL_Driver/Src/stm32h7xx_hal_tim_ex.c ****   return HAL_OK;
 1026              		.loc 1 470 10
 1027 0076 0023     		movs	r3, #0
 471:./Libraries/STM32H7xx_HAL_Driver/Src/stm32h7xx_hal_tim_ex.c **** }
 1028              		.loc 1 471 1
 1029 0078 1846     		mov	r0, r3
 1030 007a 0837     		adds	r7, r7, #8
 1031              	.LCFI40:
 1032              		.cfi_def_cfa_offset 8
 1033 007c BD46     		mov	sp, r7
 1034              	.LCFI41:
 1035              		.cfi_def_cfa_register 13
 1036              		@ sp needed
 1037 007e 80BD     		pop	{r7, pc}
 1038              		.cfi_endproc
 1039              	.LFE338:
 1041              		.section	.text.HAL_TIMEx_HallSensor_Start_DMA,"ax",%progbits
 1042              		.align	1
 1043              		.global	HAL_TIMEx_HallSensor_Start_DMA
 1044              		.syntax unified
 1045              		.thumb
 1046              		.thumb_func
 1047              		.fpu fpv5-d16
 1049              	HAL_TIMEx_HallSensor_Start_DMA:
 1050              	.LFB339:
 472:./Libraries/STM32H7xx_HAL_Driver/Src/stm32h7xx_hal_tim_ex.c **** 
 473:./Libraries/STM32H7xx_HAL_Driver/Src/stm32h7xx_hal_tim_ex.c **** /**
 474:./Libraries/STM32H7xx_HAL_Driver/Src/stm32h7xx_hal_tim_ex.c ****   * @brief  Starts the TIM Hall Sensor Interface in DMA mode.
 475:./Libraries/STM32H7xx_HAL_Driver/Src/stm32h7xx_hal_tim_ex.c ****   * @param  htim TIM Hall Sensor Interface handle
 476:./Libraries/STM32H7xx_HAL_Driver/Src/stm32h7xx_hal_tim_ex.c ****   * @param  pData The destination Buffer address.
 477:./Libraries/STM32H7xx_HAL_Driver/Src/stm32h7xx_hal_tim_ex.c ****   * @param  Length The length of data to be transferred from TIM peripheral to memory.
 478:./Libraries/STM32H7xx_HAL_Driver/Src/stm32h7xx_hal_tim_ex.c ****   * @retval HAL status
 479:./Libraries/STM32H7xx_HAL_Driver/Src/stm32h7xx_hal_tim_ex.c ****   */
 480:./Libraries/STM32H7xx_HAL_Driver/Src/stm32h7xx_hal_tim_ex.c **** HAL_StatusTypeDef HAL_TIMEx_HallSensor_Start_DMA(TIM_HandleTypeDef *htim, uint32_t *pData, uint16_t
 481:./Libraries/STM32H7xx_HAL_Driver/Src/stm32h7xx_hal_tim_ex.c **** {
 1051              		.loc 1 481 1
 1052              		.cfi_startproc
 1053              		@ args = 0, pretend = 0, frame = 24
 1054              		@ frame_needed = 1, uses_anonymous_args = 0
 1055 0000 80B5     		push	{r7, lr}
 1056              	.LCFI42:
 1057              		.cfi_def_cfa_offset 8
 1058              		.cfi_offset 7, -8
 1059              		.cfi_offset 14, -4
 1060 0002 86B0     		sub	sp, sp, #24
 1061              	.LCFI43:
 1062              		.cfi_def_cfa_offset 32
 1063 0004 00AF     		add	r7, sp, #0
 1064              	.LCFI44:
 1065              		.cfi_def_cfa_register 7
 1066 0006 F860     		str	r0, [r7, #12]
 1067 0008 B960     		str	r1, [r7, #8]
 1068 000a 1346     		mov	r3, r2
 1069 000c FB80     		strh	r3, [r7, #6]	@ movhi
 482:./Libraries/STM32H7xx_HAL_Driver/Src/stm32h7xx_hal_tim_ex.c ****   uint32_t tmpsmcr;
 483:./Libraries/STM32H7xx_HAL_Driver/Src/stm32h7xx_hal_tim_ex.c ****   HAL_TIM_ChannelStateTypeDef channel_1_state = TIM_CHANNEL_STATE_GET(htim, TIM_CHANNEL_1);
ARM GAS  /tmp/ccxx2olO.s 			page 28


 1070              		.loc 1 483 31
 1071 000e FB68     		ldr	r3, [r7, #12]
 1072 0010 93F83E30 		ldrb	r3, [r3, #62]
 1073 0014 FB75     		strb	r3, [r7, #23]
 484:./Libraries/STM32H7xx_HAL_Driver/Src/stm32h7xx_hal_tim_ex.c ****   HAL_TIM_ChannelStateTypeDef complementary_channel_1_state = TIM_CHANNEL_N_STATE_GET(htim, TIM_CHA
 1074              		.loc 1 484 31
 1075 0016 FB68     		ldr	r3, [r7, #12]
 1076 0018 93F84430 		ldrb	r3, [r3, #68]
 1077 001c BB75     		strb	r3, [r7, #22]
 485:./Libraries/STM32H7xx_HAL_Driver/Src/stm32h7xx_hal_tim_ex.c **** 
 486:./Libraries/STM32H7xx_HAL_Driver/Src/stm32h7xx_hal_tim_ex.c ****   /* Check the parameters */
 487:./Libraries/STM32H7xx_HAL_Driver/Src/stm32h7xx_hal_tim_ex.c ****   assert_param(IS_TIM_HALL_SENSOR_INTERFACE_INSTANCE(htim->Instance));
 488:./Libraries/STM32H7xx_HAL_Driver/Src/stm32h7xx_hal_tim_ex.c **** 
 489:./Libraries/STM32H7xx_HAL_Driver/Src/stm32h7xx_hal_tim_ex.c ****   /* Set the TIM channel state */
 490:./Libraries/STM32H7xx_HAL_Driver/Src/stm32h7xx_hal_tim_ex.c ****   if ((channel_1_state == HAL_TIM_CHANNEL_STATE_BUSY)
 1078              		.loc 1 490 6
 1079 001e FB7D     		ldrb	r3, [r7, #23]	@ zero_extendqisi2
 1080 0020 022B     		cmp	r3, #2
 1081 0022 02D0     		beq	.L42
 491:./Libraries/STM32H7xx_HAL_Driver/Src/stm32h7xx_hal_tim_ex.c ****       || (complementary_channel_1_state == HAL_TIM_CHANNEL_STATE_BUSY))
 1082              		.loc 1 491 7
 1083 0024 BB7D     		ldrb	r3, [r7, #22]	@ zero_extendqisi2
 1084 0026 022B     		cmp	r3, #2
 1085 0028 01D1     		bne	.L43
 1086              	.L42:
 492:./Libraries/STM32H7xx_HAL_Driver/Src/stm32h7xx_hal_tim_ex.c ****   {
 493:./Libraries/STM32H7xx_HAL_Driver/Src/stm32h7xx_hal_tim_ex.c ****     return HAL_BUSY;
 1087              		.loc 1 493 12
 1088 002a 0223     		movs	r3, #2
 1089 002c 87E0     		b	.L44
 1090              	.L43:
 494:./Libraries/STM32H7xx_HAL_Driver/Src/stm32h7xx_hal_tim_ex.c ****   }
 495:./Libraries/STM32H7xx_HAL_Driver/Src/stm32h7xx_hal_tim_ex.c ****   else if ((channel_1_state == HAL_TIM_CHANNEL_STATE_READY)
 1091              		.loc 1 495 11
 1092 002e FB7D     		ldrb	r3, [r7, #23]	@ zero_extendqisi2
 1093 0030 012B     		cmp	r3, #1
 1094 0032 34D1     		bne	.L45
 496:./Libraries/STM32H7xx_HAL_Driver/Src/stm32h7xx_hal_tim_ex.c ****            && (complementary_channel_1_state == HAL_TIM_CHANNEL_STATE_READY))
 1095              		.loc 1 496 12
 1096 0034 BB7D     		ldrb	r3, [r7, #22]	@ zero_extendqisi2
 1097 0036 012B     		cmp	r3, #1
 1098 0038 31D1     		bne	.L45
 497:./Libraries/STM32H7xx_HAL_Driver/Src/stm32h7xx_hal_tim_ex.c ****   {
 498:./Libraries/STM32H7xx_HAL_Driver/Src/stm32h7xx_hal_tim_ex.c ****     if ((pData == NULL) && (Length > 0U))
 1099              		.loc 1 498 8
 1100 003a BB68     		ldr	r3, [r7, #8]
 1101 003c 002B     		cmp	r3, #0
 1102 003e 04D1     		bne	.L46
 1103              		.loc 1 498 25 discriminator 1
 1104 0040 FB88     		ldrh	r3, [r7, #6]
 1105 0042 002B     		cmp	r3, #0
 1106 0044 01D0     		beq	.L46
 499:./Libraries/STM32H7xx_HAL_Driver/Src/stm32h7xx_hal_tim_ex.c ****     {
 500:./Libraries/STM32H7xx_HAL_Driver/Src/stm32h7xx_hal_tim_ex.c ****       return HAL_ERROR;
 1107              		.loc 1 500 14
 1108 0046 0123     		movs	r3, #1
 1109 0048 79E0     		b	.L44
ARM GAS  /tmp/ccxx2olO.s 			page 29


 1110              	.L46:
 501:./Libraries/STM32H7xx_HAL_Driver/Src/stm32h7xx_hal_tim_ex.c ****     }
 502:./Libraries/STM32H7xx_HAL_Driver/Src/stm32h7xx_hal_tim_ex.c ****     else
 503:./Libraries/STM32H7xx_HAL_Driver/Src/stm32h7xx_hal_tim_ex.c ****     {
 504:./Libraries/STM32H7xx_HAL_Driver/Src/stm32h7xx_hal_tim_ex.c ****       TIM_CHANNEL_STATE_SET(htim, TIM_CHANNEL_1, HAL_TIM_CHANNEL_STATE_BUSY);
 1111              		.loc 1 504 7
 1112 004a FB68     		ldr	r3, [r7, #12]
 1113 004c 0222     		movs	r2, #2
 1114 004e 83F83E20 		strb	r2, [r3, #62]
 505:./Libraries/STM32H7xx_HAL_Driver/Src/stm32h7xx_hal_tim_ex.c ****       TIM_CHANNEL_N_STATE_SET(htim, TIM_CHANNEL_1, HAL_TIM_CHANNEL_STATE_BUSY);
 1115              		.loc 1 505 7
 1116 0052 FB68     		ldr	r3, [r7, #12]
 1117 0054 0222     		movs	r2, #2
 1118 0056 83F84420 		strb	r2, [r3, #68]
 498:./Libraries/STM32H7xx_HAL_Driver/Src/stm32h7xx_hal_tim_ex.c ****     {
 1119              		.loc 1 498 8
 1120 005a 00BF     		nop
 506:./Libraries/STM32H7xx_HAL_Driver/Src/stm32h7xx_hal_tim_ex.c ****     }
 507:./Libraries/STM32H7xx_HAL_Driver/Src/stm32h7xx_hal_tim_ex.c ****   }
 508:./Libraries/STM32H7xx_HAL_Driver/Src/stm32h7xx_hal_tim_ex.c ****   else
 509:./Libraries/STM32H7xx_HAL_Driver/Src/stm32h7xx_hal_tim_ex.c ****   {
 510:./Libraries/STM32H7xx_HAL_Driver/Src/stm32h7xx_hal_tim_ex.c ****     return HAL_ERROR;
 511:./Libraries/STM32H7xx_HAL_Driver/Src/stm32h7xx_hal_tim_ex.c ****   }
 512:./Libraries/STM32H7xx_HAL_Driver/Src/stm32h7xx_hal_tim_ex.c **** 
 513:./Libraries/STM32H7xx_HAL_Driver/Src/stm32h7xx_hal_tim_ex.c ****   /* Enable the Input Capture channel 1
 514:./Libraries/STM32H7xx_HAL_Driver/Src/stm32h7xx_hal_tim_ex.c ****     (in the Hall Sensor Interface the three possible channels that can be used are TIM_CHANNEL_1, T
 515:./Libraries/STM32H7xx_HAL_Driver/Src/stm32h7xx_hal_tim_ex.c ****   TIM_CCxChannelCmd(htim->Instance, TIM_CHANNEL_1, TIM_CCx_ENABLE);
 1121              		.loc 1 515 3
 1122 005c FB68     		ldr	r3, [r7, #12]
 1123 005e 1B68     		ldr	r3, [r3]
 1124 0060 0122     		movs	r2, #1
 1125 0062 0021     		movs	r1, #0
 1126 0064 1846     		mov	r0, r3
 1127 0066 FFF7FEFF 		bl	TIM_CCxChannelCmd
 516:./Libraries/STM32H7xx_HAL_Driver/Src/stm32h7xx_hal_tim_ex.c **** 
 517:./Libraries/STM32H7xx_HAL_Driver/Src/stm32h7xx_hal_tim_ex.c ****   /* Set the DMA Input Capture 1 Callbacks */
 518:./Libraries/STM32H7xx_HAL_Driver/Src/stm32h7xx_hal_tim_ex.c ****   htim->hdma[TIM_DMA_ID_CC1]->XferCpltCallback = TIM_DMACaptureCplt;
 1128              		.loc 1 518 13
 1129 006a FB68     		ldr	r3, [r7, #12]
 1130 006c 5B6A     		ldr	r3, [r3, #36]
 1131              		.loc 1 518 48
 1132 006e 364A     		ldr	r2, .L55
 1133 0070 DA63     		str	r2, [r3, #60]
 519:./Libraries/STM32H7xx_HAL_Driver/Src/stm32h7xx_hal_tim_ex.c ****   htim->hdma[TIM_DMA_ID_CC1]->XferHalfCpltCallback = TIM_DMACaptureHalfCplt;
 1134              		.loc 1 519 13
 1135 0072 FB68     		ldr	r3, [r7, #12]
 1136 0074 5B6A     		ldr	r3, [r3, #36]
 1137              		.loc 1 519 52
 1138 0076 354A     		ldr	r2, .L55+4
 1139 0078 1A64     		str	r2, [r3, #64]
 520:./Libraries/STM32H7xx_HAL_Driver/Src/stm32h7xx_hal_tim_ex.c ****   /* Set the DMA error callback */
 521:./Libraries/STM32H7xx_HAL_Driver/Src/stm32h7xx_hal_tim_ex.c ****   htim->hdma[TIM_DMA_ID_CC1]->XferErrorCallback = TIM_DMAError ;
 1140              		.loc 1 521 13
 1141 007a FB68     		ldr	r3, [r7, #12]
 1142 007c 5B6A     		ldr	r3, [r3, #36]
 1143              		.loc 1 521 49
 1144 007e 344A     		ldr	r2, .L55+8
ARM GAS  /tmp/ccxx2olO.s 			page 30


 1145 0080 DA64     		str	r2, [r3, #76]
 522:./Libraries/STM32H7xx_HAL_Driver/Src/stm32h7xx_hal_tim_ex.c **** 
 523:./Libraries/STM32H7xx_HAL_Driver/Src/stm32h7xx_hal_tim_ex.c ****   /* Enable the DMA stream for Capture 1*/
 524:./Libraries/STM32H7xx_HAL_Driver/Src/stm32h7xx_hal_tim_ex.c ****   if (HAL_DMA_Start_IT(htim->hdma[TIM_DMA_ID_CC1], (uint32_t)&htim->Instance->CCR1, (uint32_t)pData
 1146              		.loc 1 524 7
 1147 0082 FB68     		ldr	r3, [r7, #12]
 1148 0084 586A     		ldr	r0, [r3, #36]
 1149              		.loc 1 524 67
 1150 0086 FB68     		ldr	r3, [r7, #12]
 1151 0088 1B68     		ldr	r3, [r3]
 1152              		.loc 1 524 62
 1153 008a 3433     		adds	r3, r3, #52
 1154              		.loc 1 524 7
 1155 008c 1946     		mov	r1, r3
 1156 008e BA68     		ldr	r2, [r7, #8]
 1157 0090 FB88     		ldrh	r3, [r7, #6]
 1158 0092 FFF7FEFF 		bl	HAL_DMA_Start_IT
 1159 0096 0346     		mov	r3, r0
 1160              		.loc 1 524 6
 1161 0098 002B     		cmp	r3, #0
 1162 009a 04D0     		beq	.L48
 1163 009c 01E0     		b	.L53
 1164              	.L45:
 510:./Libraries/STM32H7xx_HAL_Driver/Src/stm32h7xx_hal_tim_ex.c ****   }
 1165              		.loc 1 510 12
 1166 009e 0123     		movs	r3, #1
 1167 00a0 4DE0     		b	.L44
 1168              	.L53:
 525:./Libraries/STM32H7xx_HAL_Driver/Src/stm32h7xx_hal_tim_ex.c ****   {
 526:./Libraries/STM32H7xx_HAL_Driver/Src/stm32h7xx_hal_tim_ex.c ****     /* Return error status */
 527:./Libraries/STM32H7xx_HAL_Driver/Src/stm32h7xx_hal_tim_ex.c ****     return HAL_ERROR;
 1169              		.loc 1 527 12
 1170 00a2 0123     		movs	r3, #1
 1171 00a4 4BE0     		b	.L44
 1172              	.L48:
 528:./Libraries/STM32H7xx_HAL_Driver/Src/stm32h7xx_hal_tim_ex.c ****   }
 529:./Libraries/STM32H7xx_HAL_Driver/Src/stm32h7xx_hal_tim_ex.c ****   /* Enable the capture compare 1 Interrupt */
 530:./Libraries/STM32H7xx_HAL_Driver/Src/stm32h7xx_hal_tim_ex.c ****   __HAL_TIM_ENABLE_DMA(htim, TIM_DMA_CC1);
 1173              		.loc 1 530 3
 1174 00a6 FB68     		ldr	r3, [r7, #12]
 1175 00a8 1B68     		ldr	r3, [r3]
 1176 00aa DA68     		ldr	r2, [r3, #12]
 1177 00ac FB68     		ldr	r3, [r7, #12]
 1178 00ae 1B68     		ldr	r3, [r3]
 1179 00b0 42F40072 		orr	r2, r2, #512
 1180 00b4 DA60     		str	r2, [r3, #12]
 531:./Libraries/STM32H7xx_HAL_Driver/Src/stm32h7xx_hal_tim_ex.c **** 
 532:./Libraries/STM32H7xx_HAL_Driver/Src/stm32h7xx_hal_tim_ex.c ****   /* Enable the Peripheral, except in trigger mode where enable is automatically done with trigger 
 533:./Libraries/STM32H7xx_HAL_Driver/Src/stm32h7xx_hal_tim_ex.c ****   if (IS_TIM_SLAVE_INSTANCE(htim->Instance))
 1181              		.loc 1 533 7
 1182 00b6 FB68     		ldr	r3, [r7, #12]
 1183 00b8 1B68     		ldr	r3, [r3]
 1184              		.loc 1 533 6
 1185 00ba 264A     		ldr	r2, .L55+12
 1186 00bc 9342     		cmp	r3, r2
 1187 00be 1DD0     		beq	.L49
 1188              		.loc 1 533 7 discriminator 1
ARM GAS  /tmp/ccxx2olO.s 			page 31


 1189 00c0 FB68     		ldr	r3, [r7, #12]
 1190 00c2 1B68     		ldr	r3, [r3]
 1191 00c4 B3F1804F 		cmp	r3, #1073741824
 1192 00c8 18D0     		beq	.L49
 1193              		.loc 1 533 7 is_stmt 0 discriminator 2
 1194 00ca FB68     		ldr	r3, [r7, #12]
 1195 00cc 1B68     		ldr	r3, [r3]
 1196 00ce 224A     		ldr	r2, .L55+16
 1197 00d0 9342     		cmp	r3, r2
 1198 00d2 13D0     		beq	.L49
 1199              		.loc 1 533 7 discriminator 3
 1200 00d4 FB68     		ldr	r3, [r7, #12]
 1201 00d6 1B68     		ldr	r3, [r3]
 1202 00d8 204A     		ldr	r2, .L55+20
 1203 00da 9342     		cmp	r3, r2
 1204 00dc 0ED0     		beq	.L49
 1205              		.loc 1 533 7 discriminator 4
 1206 00de FB68     		ldr	r3, [r7, #12]
 1207 00e0 1B68     		ldr	r3, [r3]
 1208 00e2 1F4A     		ldr	r2, .L55+24
 1209 00e4 9342     		cmp	r3, r2
 1210 00e6 09D0     		beq	.L49
 1211              		.loc 1 533 7 discriminator 5
 1212 00e8 FB68     		ldr	r3, [r7, #12]
 1213 00ea 1B68     		ldr	r3, [r3]
 1214 00ec 1D4A     		ldr	r2, .L55+28
 1215 00ee 9342     		cmp	r3, r2
 1216 00f0 04D0     		beq	.L49
 1217              		.loc 1 533 7 discriminator 6
 1218 00f2 FB68     		ldr	r3, [r7, #12]
 1219 00f4 1B68     		ldr	r3, [r3]
 1220 00f6 1C4A     		ldr	r2, .L55+32
 1221 00f8 9342     		cmp	r3, r2
 1222 00fa 15D1     		bne	.L50
 1223              	.L49:
 534:./Libraries/STM32H7xx_HAL_Driver/Src/stm32h7xx_hal_tim_ex.c ****   {
 535:./Libraries/STM32H7xx_HAL_Driver/Src/stm32h7xx_hal_tim_ex.c ****     tmpsmcr = htim->Instance->SMCR & TIM_SMCR_SMS;
 1224              		.loc 1 535 19 is_stmt 1
 1225 00fc FB68     		ldr	r3, [r7, #12]
 1226 00fe 1B68     		ldr	r3, [r3]
 1227              		.loc 1 535 29
 1228 0100 9A68     		ldr	r2, [r3, #8]
 1229              		.loc 1 535 13
 1230 0102 1A4B     		ldr	r3, .L55+36
 1231 0104 1340     		ands	r3, r3, r2
 1232 0106 3B61     		str	r3, [r7, #16]
 536:./Libraries/STM32H7xx_HAL_Driver/Src/stm32h7xx_hal_tim_ex.c ****     if (!IS_TIM_SLAVEMODE_TRIGGER_ENABLED(tmpsmcr))
 1233              		.loc 1 536 8
 1234 0108 3B69     		ldr	r3, [r7, #16]
 1235 010a 062B     		cmp	r3, #6
 1236 010c 15D0     		beq	.L54
 1237              		.loc 1 536 9 discriminator 1
 1238 010e 3B69     		ldr	r3, [r7, #16]
 1239 0110 B3F5803F 		cmp	r3, #65536
 1240 0114 11D0     		beq	.L54
 537:./Libraries/STM32H7xx_HAL_Driver/Src/stm32h7xx_hal_tim_ex.c ****     {
 538:./Libraries/STM32H7xx_HAL_Driver/Src/stm32h7xx_hal_tim_ex.c ****       __HAL_TIM_ENABLE(htim);
ARM GAS  /tmp/ccxx2olO.s 			page 32


 1241              		.loc 1 538 7
 1242 0116 FB68     		ldr	r3, [r7, #12]
 1243 0118 1B68     		ldr	r3, [r3]
 1244 011a 1A68     		ldr	r2, [r3]
 1245 011c FB68     		ldr	r3, [r7, #12]
 1246 011e 1B68     		ldr	r3, [r3]
 1247 0120 42F00102 		orr	r2, r2, #1
 1248 0124 1A60     		str	r2, [r3]
 536:./Libraries/STM32H7xx_HAL_Driver/Src/stm32h7xx_hal_tim_ex.c ****     if (!IS_TIM_SLAVEMODE_TRIGGER_ENABLED(tmpsmcr))
 1249              		.loc 1 536 8
 1250 0126 08E0     		b	.L54
 1251              	.L50:
 539:./Libraries/STM32H7xx_HAL_Driver/Src/stm32h7xx_hal_tim_ex.c ****     }
 540:./Libraries/STM32H7xx_HAL_Driver/Src/stm32h7xx_hal_tim_ex.c ****   }
 541:./Libraries/STM32H7xx_HAL_Driver/Src/stm32h7xx_hal_tim_ex.c ****   else
 542:./Libraries/STM32H7xx_HAL_Driver/Src/stm32h7xx_hal_tim_ex.c ****   {
 543:./Libraries/STM32H7xx_HAL_Driver/Src/stm32h7xx_hal_tim_ex.c ****     __HAL_TIM_ENABLE(htim);
 1252              		.loc 1 543 5
 1253 0128 FB68     		ldr	r3, [r7, #12]
 1254 012a 1B68     		ldr	r3, [r3]
 1255 012c 1A68     		ldr	r2, [r3]
 1256 012e FB68     		ldr	r3, [r7, #12]
 1257 0130 1B68     		ldr	r3, [r3]
 1258 0132 42F00102 		orr	r2, r2, #1
 1259 0136 1A60     		str	r2, [r3]
 1260 0138 00E0     		b	.L52
 1261              	.L54:
 536:./Libraries/STM32H7xx_HAL_Driver/Src/stm32h7xx_hal_tim_ex.c ****     {
 1262              		.loc 1 536 8
 1263 013a 00BF     		nop
 1264              	.L52:
 544:./Libraries/STM32H7xx_HAL_Driver/Src/stm32h7xx_hal_tim_ex.c ****   }
 545:./Libraries/STM32H7xx_HAL_Driver/Src/stm32h7xx_hal_tim_ex.c **** 
 546:./Libraries/STM32H7xx_HAL_Driver/Src/stm32h7xx_hal_tim_ex.c ****   /* Return function status */
 547:./Libraries/STM32H7xx_HAL_Driver/Src/stm32h7xx_hal_tim_ex.c ****   return HAL_OK;
 1265              		.loc 1 547 10
 1266 013c 0023     		movs	r3, #0
 1267              	.L44:
 548:./Libraries/STM32H7xx_HAL_Driver/Src/stm32h7xx_hal_tim_ex.c **** }
 1268              		.loc 1 548 1
 1269 013e 1846     		mov	r0, r3
 1270 0140 1837     		adds	r7, r7, #24
 1271              	.LCFI45:
 1272              		.cfi_def_cfa_offset 8
 1273 0142 BD46     		mov	sp, r7
 1274              	.LCFI46:
 1275              		.cfi_def_cfa_register 13
 1276              		@ sp needed
 1277 0144 80BD     		pop	{r7, pc}
 1278              	.L56:
 1279 0146 00BF     		.align	2
 1280              	.L55:
 1281 0148 00000000 		.word	TIM_DMACaptureCplt
 1282 014c 00000000 		.word	TIM_DMACaptureHalfCplt
 1283 0150 00000000 		.word	TIM_DMAError
 1284 0154 00000140 		.word	1073807360
 1285 0158 00040040 		.word	1073742848
ARM GAS  /tmp/ccxx2olO.s 			page 33


 1286 015c 00080040 		.word	1073743872
 1287 0160 000C0040 		.word	1073744896
 1288 0164 00040140 		.word	1073808384
 1289 0168 00180040 		.word	1073747968
 1290 016c 07000100 		.word	65543
 1291              		.cfi_endproc
 1292              	.LFE339:
 1294              		.section	.text.HAL_TIMEx_HallSensor_Stop_DMA,"ax",%progbits
 1295              		.align	1
 1296              		.global	HAL_TIMEx_HallSensor_Stop_DMA
 1297              		.syntax unified
 1298              		.thumb
 1299              		.thumb_func
 1300              		.fpu fpv5-d16
 1302              	HAL_TIMEx_HallSensor_Stop_DMA:
 1303              	.LFB340:
 549:./Libraries/STM32H7xx_HAL_Driver/Src/stm32h7xx_hal_tim_ex.c **** 
 550:./Libraries/STM32H7xx_HAL_Driver/Src/stm32h7xx_hal_tim_ex.c **** /**
 551:./Libraries/STM32H7xx_HAL_Driver/Src/stm32h7xx_hal_tim_ex.c ****   * @brief  Stops the TIM Hall Sensor Interface in DMA mode.
 552:./Libraries/STM32H7xx_HAL_Driver/Src/stm32h7xx_hal_tim_ex.c ****   * @param  htim TIM Hall Sensor Interface handle
 553:./Libraries/STM32H7xx_HAL_Driver/Src/stm32h7xx_hal_tim_ex.c ****   * @retval HAL status
 554:./Libraries/STM32H7xx_HAL_Driver/Src/stm32h7xx_hal_tim_ex.c ****   */
 555:./Libraries/STM32H7xx_HAL_Driver/Src/stm32h7xx_hal_tim_ex.c **** HAL_StatusTypeDef HAL_TIMEx_HallSensor_Stop_DMA(TIM_HandleTypeDef *htim)
 556:./Libraries/STM32H7xx_HAL_Driver/Src/stm32h7xx_hal_tim_ex.c **** {
 1304              		.loc 1 556 1
 1305              		.cfi_startproc
 1306              		@ args = 0, pretend = 0, frame = 8
 1307              		@ frame_needed = 1, uses_anonymous_args = 0
 1308 0000 80B5     		push	{r7, lr}
 1309              	.LCFI47:
 1310              		.cfi_def_cfa_offset 8
 1311              		.cfi_offset 7, -8
 1312              		.cfi_offset 14, -4
 1313 0002 82B0     		sub	sp, sp, #8
 1314              	.LCFI48:
 1315              		.cfi_def_cfa_offset 16
 1316 0004 00AF     		add	r7, sp, #0
 1317              	.LCFI49:
 1318              		.cfi_def_cfa_register 7
 1319 0006 7860     		str	r0, [r7, #4]
 557:./Libraries/STM32H7xx_HAL_Driver/Src/stm32h7xx_hal_tim_ex.c ****   /* Check the parameters */
 558:./Libraries/STM32H7xx_HAL_Driver/Src/stm32h7xx_hal_tim_ex.c ****   assert_param(IS_TIM_HALL_SENSOR_INTERFACE_INSTANCE(htim->Instance));
 559:./Libraries/STM32H7xx_HAL_Driver/Src/stm32h7xx_hal_tim_ex.c **** 
 560:./Libraries/STM32H7xx_HAL_Driver/Src/stm32h7xx_hal_tim_ex.c ****   /* Disable the Input Capture channel 1
 561:./Libraries/STM32H7xx_HAL_Driver/Src/stm32h7xx_hal_tim_ex.c ****     (in the Hall Sensor Interface the three possible channels that can be used are TIM_CHANNEL_1, T
 562:./Libraries/STM32H7xx_HAL_Driver/Src/stm32h7xx_hal_tim_ex.c ****   TIM_CCxChannelCmd(htim->Instance, TIM_CHANNEL_1, TIM_CCx_DISABLE);
 1320              		.loc 1 562 3
 1321 0008 7B68     		ldr	r3, [r7, #4]
 1322 000a 1B68     		ldr	r3, [r3]
 1323 000c 0022     		movs	r2, #0
 1324 000e 0021     		movs	r1, #0
 1325 0010 1846     		mov	r0, r3
 1326 0012 FFF7FEFF 		bl	TIM_CCxChannelCmd
 563:./Libraries/STM32H7xx_HAL_Driver/Src/stm32h7xx_hal_tim_ex.c **** 
 564:./Libraries/STM32H7xx_HAL_Driver/Src/stm32h7xx_hal_tim_ex.c **** 
 565:./Libraries/STM32H7xx_HAL_Driver/Src/stm32h7xx_hal_tim_ex.c ****   /* Disable the capture compare Interrupts 1 event */
 566:./Libraries/STM32H7xx_HAL_Driver/Src/stm32h7xx_hal_tim_ex.c ****   __HAL_TIM_DISABLE_DMA(htim, TIM_DMA_CC1);
ARM GAS  /tmp/ccxx2olO.s 			page 34


 1327              		.loc 1 566 3
 1328 0016 7B68     		ldr	r3, [r7, #4]
 1329 0018 1B68     		ldr	r3, [r3]
 1330 001a DA68     		ldr	r2, [r3, #12]
 1331 001c 7B68     		ldr	r3, [r7, #4]
 1332 001e 1B68     		ldr	r3, [r3]
 1333 0020 22F40072 		bic	r2, r2, #512
 1334 0024 DA60     		str	r2, [r3, #12]
 567:./Libraries/STM32H7xx_HAL_Driver/Src/stm32h7xx_hal_tim_ex.c **** 
 568:./Libraries/STM32H7xx_HAL_Driver/Src/stm32h7xx_hal_tim_ex.c ****   (void)HAL_DMA_Abort_IT(htim->hdma[TIM_DMA_ID_CC1]);
 1335              		.loc 1 568 9
 1336 0026 7B68     		ldr	r3, [r7, #4]
 1337 0028 5B6A     		ldr	r3, [r3, #36]
 1338 002a 1846     		mov	r0, r3
 1339 002c FFF7FEFF 		bl	HAL_DMA_Abort_IT
 569:./Libraries/STM32H7xx_HAL_Driver/Src/stm32h7xx_hal_tim_ex.c **** 
 570:./Libraries/STM32H7xx_HAL_Driver/Src/stm32h7xx_hal_tim_ex.c ****   /* Disable the Peripheral */
 571:./Libraries/STM32H7xx_HAL_Driver/Src/stm32h7xx_hal_tim_ex.c ****   __HAL_TIM_DISABLE(htim);
 1340              		.loc 1 571 3
 1341 0030 7B68     		ldr	r3, [r7, #4]
 1342 0032 1B68     		ldr	r3, [r3]
 1343 0034 1A6A     		ldr	r2, [r3, #32]
 1344 0036 41F21113 		movw	r3, #4369
 1345 003a 1340     		ands	r3, r3, r2
 1346 003c 002B     		cmp	r3, #0
 1347 003e 0FD1     		bne	.L58
 1348              		.loc 1 571 3 is_stmt 0 discriminator 1
 1349 0040 7B68     		ldr	r3, [r7, #4]
 1350 0042 1B68     		ldr	r3, [r3]
 1351 0044 1A6A     		ldr	r2, [r3, #32]
 1352 0046 40F24443 		movw	r3, #1092
 1353 004a 1340     		ands	r3, r3, r2
 1354 004c 002B     		cmp	r3, #0
 1355 004e 07D1     		bne	.L58
 1356              		.loc 1 571 3 discriminator 2
 1357 0050 7B68     		ldr	r3, [r7, #4]
 1358 0052 1B68     		ldr	r3, [r3]
 1359 0054 1A68     		ldr	r2, [r3]
 1360 0056 7B68     		ldr	r3, [r7, #4]
 1361 0058 1B68     		ldr	r3, [r3]
 1362 005a 22F00102 		bic	r2, r2, #1
 1363 005e 1A60     		str	r2, [r3]
 1364              	.L58:
 572:./Libraries/STM32H7xx_HAL_Driver/Src/stm32h7xx_hal_tim_ex.c **** 
 573:./Libraries/STM32H7xx_HAL_Driver/Src/stm32h7xx_hal_tim_ex.c ****   /* Set the TIM channel state */
 574:./Libraries/STM32H7xx_HAL_Driver/Src/stm32h7xx_hal_tim_ex.c ****   TIM_CHANNEL_STATE_SET(htim, TIM_CHANNEL_1, HAL_TIM_CHANNEL_STATE_READY);
 1365              		.loc 1 574 3 is_stmt 1
 1366 0060 7B68     		ldr	r3, [r7, #4]
 1367 0062 0122     		movs	r2, #1
 1368 0064 83F83E20 		strb	r2, [r3, #62]
 575:./Libraries/STM32H7xx_HAL_Driver/Src/stm32h7xx_hal_tim_ex.c ****   TIM_CHANNEL_N_STATE_SET(htim, TIM_CHANNEL_1, HAL_TIM_CHANNEL_STATE_READY);
 1369              		.loc 1 575 3
 1370 0068 7B68     		ldr	r3, [r7, #4]
 1371 006a 0122     		movs	r2, #1
 1372 006c 83F84420 		strb	r2, [r3, #68]
 576:./Libraries/STM32H7xx_HAL_Driver/Src/stm32h7xx_hal_tim_ex.c **** 
 577:./Libraries/STM32H7xx_HAL_Driver/Src/stm32h7xx_hal_tim_ex.c ****   /* Return function status */
ARM GAS  /tmp/ccxx2olO.s 			page 35


 578:./Libraries/STM32H7xx_HAL_Driver/Src/stm32h7xx_hal_tim_ex.c ****   return HAL_OK;
 1373              		.loc 1 578 10
 1374 0070 0023     		movs	r3, #0
 579:./Libraries/STM32H7xx_HAL_Driver/Src/stm32h7xx_hal_tim_ex.c **** }
 1375              		.loc 1 579 1
 1376 0072 1846     		mov	r0, r3
 1377 0074 0837     		adds	r7, r7, #8
 1378              	.LCFI50:
 1379              		.cfi_def_cfa_offset 8
 1380 0076 BD46     		mov	sp, r7
 1381              	.LCFI51:
 1382              		.cfi_def_cfa_register 13
 1383              		@ sp needed
 1384 0078 80BD     		pop	{r7, pc}
 1385              		.cfi_endproc
 1386              	.LFE340:
 1388              		.section	.text.HAL_TIMEx_OCN_Start,"ax",%progbits
 1389              		.align	1
 1390              		.global	HAL_TIMEx_OCN_Start
 1391              		.syntax unified
 1392              		.thumb
 1393              		.thumb_func
 1394              		.fpu fpv5-d16
 1396              	HAL_TIMEx_OCN_Start:
 1397              	.LFB341:
 580:./Libraries/STM32H7xx_HAL_Driver/Src/stm32h7xx_hal_tim_ex.c **** 
 581:./Libraries/STM32H7xx_HAL_Driver/Src/stm32h7xx_hal_tim_ex.c **** /**
 582:./Libraries/STM32H7xx_HAL_Driver/Src/stm32h7xx_hal_tim_ex.c ****   * @}
 583:./Libraries/STM32H7xx_HAL_Driver/Src/stm32h7xx_hal_tim_ex.c ****   */
 584:./Libraries/STM32H7xx_HAL_Driver/Src/stm32h7xx_hal_tim_ex.c **** 
 585:./Libraries/STM32H7xx_HAL_Driver/Src/stm32h7xx_hal_tim_ex.c **** /** @defgroup TIMEx_Exported_Functions_Group2 Extended Timer Complementary Output Compare functions
 586:./Libraries/STM32H7xx_HAL_Driver/Src/stm32h7xx_hal_tim_ex.c ****   *  @brief   Timer Complementary Output Compare functions
 587:./Libraries/STM32H7xx_HAL_Driver/Src/stm32h7xx_hal_tim_ex.c ****   *
 588:./Libraries/STM32H7xx_HAL_Driver/Src/stm32h7xx_hal_tim_ex.c **** @verbatim
 589:./Libraries/STM32H7xx_HAL_Driver/Src/stm32h7xx_hal_tim_ex.c ****   ==============================================================================
 590:./Libraries/STM32H7xx_HAL_Driver/Src/stm32h7xx_hal_tim_ex.c ****               ##### Timer Complementary Output Compare functions #####
 591:./Libraries/STM32H7xx_HAL_Driver/Src/stm32h7xx_hal_tim_ex.c ****   ==============================================================================
 592:./Libraries/STM32H7xx_HAL_Driver/Src/stm32h7xx_hal_tim_ex.c ****   [..]
 593:./Libraries/STM32H7xx_HAL_Driver/Src/stm32h7xx_hal_tim_ex.c ****     This section provides functions allowing to:
 594:./Libraries/STM32H7xx_HAL_Driver/Src/stm32h7xx_hal_tim_ex.c ****     (+) Start the Complementary Output Compare/PWM.
 595:./Libraries/STM32H7xx_HAL_Driver/Src/stm32h7xx_hal_tim_ex.c ****     (+) Stop the Complementary Output Compare/PWM.
 596:./Libraries/STM32H7xx_HAL_Driver/Src/stm32h7xx_hal_tim_ex.c ****     (+) Start the Complementary Output Compare/PWM and enable interrupts.
 597:./Libraries/STM32H7xx_HAL_Driver/Src/stm32h7xx_hal_tim_ex.c ****     (+) Stop the Complementary Output Compare/PWM and disable interrupts.
 598:./Libraries/STM32H7xx_HAL_Driver/Src/stm32h7xx_hal_tim_ex.c ****     (+) Start the Complementary Output Compare/PWM and enable DMA transfers.
 599:./Libraries/STM32H7xx_HAL_Driver/Src/stm32h7xx_hal_tim_ex.c ****     (+) Stop the Complementary Output Compare/PWM and disable DMA transfers.
 600:./Libraries/STM32H7xx_HAL_Driver/Src/stm32h7xx_hal_tim_ex.c **** 
 601:./Libraries/STM32H7xx_HAL_Driver/Src/stm32h7xx_hal_tim_ex.c **** @endverbatim
 602:./Libraries/STM32H7xx_HAL_Driver/Src/stm32h7xx_hal_tim_ex.c ****   * @{
 603:./Libraries/STM32H7xx_HAL_Driver/Src/stm32h7xx_hal_tim_ex.c ****   */
 604:./Libraries/STM32H7xx_HAL_Driver/Src/stm32h7xx_hal_tim_ex.c **** 
 605:./Libraries/STM32H7xx_HAL_Driver/Src/stm32h7xx_hal_tim_ex.c **** /**
 606:./Libraries/STM32H7xx_HAL_Driver/Src/stm32h7xx_hal_tim_ex.c ****   * @brief  Starts the TIM Output Compare signal generation on the complementary
 607:./Libraries/STM32H7xx_HAL_Driver/Src/stm32h7xx_hal_tim_ex.c ****   *         output.
 608:./Libraries/STM32H7xx_HAL_Driver/Src/stm32h7xx_hal_tim_ex.c ****   * @param  htim TIM Output Compare handle
 609:./Libraries/STM32H7xx_HAL_Driver/Src/stm32h7xx_hal_tim_ex.c ****   * @param  Channel TIM Channel to be enabled
 610:./Libraries/STM32H7xx_HAL_Driver/Src/stm32h7xx_hal_tim_ex.c ****   *          This parameter can be one of the following values:
 611:./Libraries/STM32H7xx_HAL_Driver/Src/stm32h7xx_hal_tim_ex.c ****   *            @arg TIM_CHANNEL_1: TIM Channel 1 selected
ARM GAS  /tmp/ccxx2olO.s 			page 36


 612:./Libraries/STM32H7xx_HAL_Driver/Src/stm32h7xx_hal_tim_ex.c ****   *            @arg TIM_CHANNEL_2: TIM Channel 2 selected
 613:./Libraries/STM32H7xx_HAL_Driver/Src/stm32h7xx_hal_tim_ex.c ****   *            @arg TIM_CHANNEL_3: TIM Channel 3 selected
 614:./Libraries/STM32H7xx_HAL_Driver/Src/stm32h7xx_hal_tim_ex.c ****   * @retval HAL status
 615:./Libraries/STM32H7xx_HAL_Driver/Src/stm32h7xx_hal_tim_ex.c ****   */
 616:./Libraries/STM32H7xx_HAL_Driver/Src/stm32h7xx_hal_tim_ex.c **** HAL_StatusTypeDef HAL_TIMEx_OCN_Start(TIM_HandleTypeDef *htim, uint32_t Channel)
 617:./Libraries/STM32H7xx_HAL_Driver/Src/stm32h7xx_hal_tim_ex.c **** {
 1398              		.loc 1 617 1
 1399              		.cfi_startproc
 1400              		@ args = 0, pretend = 0, frame = 16
 1401              		@ frame_needed = 1, uses_anonymous_args = 0
 1402 0000 80B5     		push	{r7, lr}
 1403              	.LCFI52:
 1404              		.cfi_def_cfa_offset 8
 1405              		.cfi_offset 7, -8
 1406              		.cfi_offset 14, -4
 1407 0002 84B0     		sub	sp, sp, #16
 1408              	.LCFI53:
 1409              		.cfi_def_cfa_offset 24
 1410 0004 00AF     		add	r7, sp, #0
 1411              	.LCFI54:
 1412              		.cfi_def_cfa_register 7
 1413 0006 7860     		str	r0, [r7, #4]
 1414 0008 3960     		str	r1, [r7]
 618:./Libraries/STM32H7xx_HAL_Driver/Src/stm32h7xx_hal_tim_ex.c ****   uint32_t tmpsmcr;
 619:./Libraries/STM32H7xx_HAL_Driver/Src/stm32h7xx_hal_tim_ex.c **** 
 620:./Libraries/STM32H7xx_HAL_Driver/Src/stm32h7xx_hal_tim_ex.c ****   /* Check the parameters */
 621:./Libraries/STM32H7xx_HAL_Driver/Src/stm32h7xx_hal_tim_ex.c ****   assert_param(IS_TIM_CCXN_INSTANCE(htim->Instance, Channel));
 622:./Libraries/STM32H7xx_HAL_Driver/Src/stm32h7xx_hal_tim_ex.c **** 
 623:./Libraries/STM32H7xx_HAL_Driver/Src/stm32h7xx_hal_tim_ex.c ****   /* Check the TIM complementary channel state */
 624:./Libraries/STM32H7xx_HAL_Driver/Src/stm32h7xx_hal_tim_ex.c ****   if (TIM_CHANNEL_N_STATE_GET(htim, Channel) != HAL_TIM_CHANNEL_STATE_READY)
 1415              		.loc 1 624 46
 1416 000a 3B68     		ldr	r3, [r7]
 1417 000c 002B     		cmp	r3, #0
 1418 000e 09D1     		bne	.L61
 1419              		.loc 1 624 7 discriminator 1
 1420 0010 7B68     		ldr	r3, [r7, #4]
 1421 0012 93F84430 		ldrb	r3, [r3, #68]
 1422 0016 DBB2     		uxtb	r3, r3
 1423              		.loc 1 624 46 discriminator 1
 1424 0018 012B     		cmp	r3, #1
 1425 001a 14BF     		ite	ne
 1426 001c 0123     		movne	r3, #1
 1427 001e 0023     		moveq	r3, #0
 1428 0020 DBB2     		uxtb	r3, r3
 1429 0022 22E0     		b	.L62
 1430              	.L61:
 1431              		.loc 1 624 46 is_stmt 0 discriminator 2
 1432 0024 3B68     		ldr	r3, [r7]
 1433 0026 042B     		cmp	r3, #4
 1434 0028 09D1     		bne	.L63
 1435              		.loc 1 624 7 is_stmt 1 discriminator 4
 1436 002a 7B68     		ldr	r3, [r7, #4]
 1437 002c 93F84530 		ldrb	r3, [r3, #69]
 1438 0030 DBB2     		uxtb	r3, r3
 1439              		.loc 1 624 46 discriminator 4
 1440 0032 012B     		cmp	r3, #1
 1441 0034 14BF     		ite	ne
ARM GAS  /tmp/ccxx2olO.s 			page 37


 1442 0036 0123     		movne	r3, #1
 1443 0038 0023     		moveq	r3, #0
 1444 003a DBB2     		uxtb	r3, r3
 1445 003c 15E0     		b	.L62
 1446              	.L63:
 1447              		.loc 1 624 46 is_stmt 0 discriminator 5
 1448 003e 3B68     		ldr	r3, [r7]
 1449 0040 082B     		cmp	r3, #8
 1450 0042 09D1     		bne	.L65
 1451              		.loc 1 624 7 is_stmt 1 discriminator 7
 1452 0044 7B68     		ldr	r3, [r7, #4]
 1453 0046 93F84630 		ldrb	r3, [r3, #70]
 1454 004a DBB2     		uxtb	r3, r3
 1455              		.loc 1 624 46 discriminator 7
 1456 004c 012B     		cmp	r3, #1
 1457 004e 14BF     		ite	ne
 1458 0050 0123     		movne	r3, #1
 1459 0052 0023     		moveq	r3, #0
 1460 0054 DBB2     		uxtb	r3, r3
 1461 0056 08E0     		b	.L62
 1462              	.L65:
 1463              		.loc 1 624 7 discriminator 8
 1464 0058 7B68     		ldr	r3, [r7, #4]
 1465 005a 93F84730 		ldrb	r3, [r3, #71]
 1466 005e DBB2     		uxtb	r3, r3
 1467              		.loc 1 624 46 discriminator 8
 1468 0060 012B     		cmp	r3, #1
 1469 0062 14BF     		ite	ne
 1470 0064 0123     		movne	r3, #1
 1471 0066 0023     		moveq	r3, #0
 1472 0068 DBB2     		uxtb	r3, r3
 1473              	.L62:
 1474              		.loc 1 624 6 discriminator 12
 1475 006a 002B     		cmp	r3, #0
 1476 006c 01D0     		beq	.L67
 625:./Libraries/STM32H7xx_HAL_Driver/Src/stm32h7xx_hal_tim_ex.c ****   {
 626:./Libraries/STM32H7xx_HAL_Driver/Src/stm32h7xx_hal_tim_ex.c ****     return HAL_ERROR;
 1477              		.loc 1 626 12
 1478 006e 0123     		movs	r3, #1
 1479 0070 6EE0     		b	.L68
 1480              	.L67:
 627:./Libraries/STM32H7xx_HAL_Driver/Src/stm32h7xx_hal_tim_ex.c ****   }
 628:./Libraries/STM32H7xx_HAL_Driver/Src/stm32h7xx_hal_tim_ex.c **** 
 629:./Libraries/STM32H7xx_HAL_Driver/Src/stm32h7xx_hal_tim_ex.c ****   /* Set the TIM complementary channel state */
 630:./Libraries/STM32H7xx_HAL_Driver/Src/stm32h7xx_hal_tim_ex.c ****   TIM_CHANNEL_N_STATE_SET(htim, Channel, HAL_TIM_CHANNEL_STATE_BUSY);
 1481              		.loc 1 630 3
 1482 0072 3B68     		ldr	r3, [r7]
 1483 0074 002B     		cmp	r3, #0
 1484 0076 04D1     		bne	.L69
 1485              		.loc 1 630 3 is_stmt 0 discriminator 1
 1486 0078 7B68     		ldr	r3, [r7, #4]
 1487 007a 0222     		movs	r2, #2
 1488 007c 83F84420 		strb	r2, [r3, #68]
 1489 0080 13E0     		b	.L70
 1490              	.L69:
 1491              		.loc 1 630 3 discriminator 2
 1492 0082 3B68     		ldr	r3, [r7]
ARM GAS  /tmp/ccxx2olO.s 			page 38


 1493 0084 042B     		cmp	r3, #4
 1494 0086 04D1     		bne	.L71
 1495              		.loc 1 630 3 discriminator 3
 1496 0088 7B68     		ldr	r3, [r7, #4]
 1497 008a 0222     		movs	r2, #2
 1498 008c 83F84520 		strb	r2, [r3, #69]
 1499 0090 0BE0     		b	.L70
 1500              	.L71:
 1501              		.loc 1 630 3 discriminator 4
 1502 0092 3B68     		ldr	r3, [r7]
 1503 0094 082B     		cmp	r3, #8
 1504 0096 04D1     		bne	.L73
 1505              		.loc 1 630 3 discriminator 6
 1506 0098 7B68     		ldr	r3, [r7, #4]
 1507 009a 0222     		movs	r2, #2
 1508 009c 83F84620 		strb	r2, [r3, #70]
 1509 00a0 03E0     		b	.L70
 1510              	.L73:
 1511              		.loc 1 630 3 discriminator 7
 1512 00a2 7B68     		ldr	r3, [r7, #4]
 1513 00a4 0222     		movs	r2, #2
 1514 00a6 83F84720 		strb	r2, [r3, #71]
 1515              	.L70:
 631:./Libraries/STM32H7xx_HAL_Driver/Src/stm32h7xx_hal_tim_ex.c **** 
 632:./Libraries/STM32H7xx_HAL_Driver/Src/stm32h7xx_hal_tim_ex.c ****   /* Enable the Capture compare channel N */
 633:./Libraries/STM32H7xx_HAL_Driver/Src/stm32h7xx_hal_tim_ex.c ****   TIM_CCxNChannelCmd(htim->Instance, Channel, TIM_CCxN_ENABLE);
 1516              		.loc 1 633 3 is_stmt 1
 1517 00aa 7B68     		ldr	r3, [r7, #4]
 1518 00ac 1B68     		ldr	r3, [r3]
 1519 00ae 0422     		movs	r2, #4
 1520 00b0 3968     		ldr	r1, [r7]
 1521 00b2 1846     		mov	r0, r3
 1522 00b4 FFF7FEFF 		bl	TIM_CCxNChannelCmd
 634:./Libraries/STM32H7xx_HAL_Driver/Src/stm32h7xx_hal_tim_ex.c **** 
 635:./Libraries/STM32H7xx_HAL_Driver/Src/stm32h7xx_hal_tim_ex.c ****   /* Enable the Main Output */
 636:./Libraries/STM32H7xx_HAL_Driver/Src/stm32h7xx_hal_tim_ex.c ****   __HAL_TIM_MOE_ENABLE(htim);
 1523              		.loc 1 636 3
 1524 00b8 7B68     		ldr	r3, [r7, #4]
 1525 00ba 1B68     		ldr	r3, [r3]
 1526 00bc 5A6C     		ldr	r2, [r3, #68]
 1527 00be 7B68     		ldr	r3, [r7, #4]
 1528 00c0 1B68     		ldr	r3, [r3]
 1529 00c2 42F40042 		orr	r2, r2, #32768
 1530 00c6 5A64     		str	r2, [r3, #68]
 637:./Libraries/STM32H7xx_HAL_Driver/Src/stm32h7xx_hal_tim_ex.c **** 
 638:./Libraries/STM32H7xx_HAL_Driver/Src/stm32h7xx_hal_tim_ex.c ****   /* Enable the Peripheral, except in trigger mode where enable is automatically done with trigger 
 639:./Libraries/STM32H7xx_HAL_Driver/Src/stm32h7xx_hal_tim_ex.c ****   if (IS_TIM_SLAVE_INSTANCE(htim->Instance))
 1531              		.loc 1 639 7
 1532 00c8 7B68     		ldr	r3, [r7, #4]
 1533 00ca 1B68     		ldr	r3, [r3]
 1534              		.loc 1 639 6
 1535 00cc 224A     		ldr	r2, .L80
 1536 00ce 9342     		cmp	r3, r2
 1537 00d0 1DD0     		beq	.L75
 1538              		.loc 1 639 7 discriminator 1
 1539 00d2 7B68     		ldr	r3, [r7, #4]
 1540 00d4 1B68     		ldr	r3, [r3]
ARM GAS  /tmp/ccxx2olO.s 			page 39


 1541 00d6 B3F1804F 		cmp	r3, #1073741824
 1542 00da 18D0     		beq	.L75
 1543              		.loc 1 639 7 is_stmt 0 discriminator 2
 1544 00dc 7B68     		ldr	r3, [r7, #4]
 1545 00de 1B68     		ldr	r3, [r3]
 1546 00e0 1E4A     		ldr	r2, .L80+4
 1547 00e2 9342     		cmp	r3, r2
 1548 00e4 13D0     		beq	.L75
 1549              		.loc 1 639 7 discriminator 3
 1550 00e6 7B68     		ldr	r3, [r7, #4]
 1551 00e8 1B68     		ldr	r3, [r3]
 1552 00ea 1D4A     		ldr	r2, .L80+8
 1553 00ec 9342     		cmp	r3, r2
 1554 00ee 0ED0     		beq	.L75
 1555              		.loc 1 639 7 discriminator 4
 1556 00f0 7B68     		ldr	r3, [r7, #4]
 1557 00f2 1B68     		ldr	r3, [r3]
 1558 00f4 1B4A     		ldr	r2, .L80+12
 1559 00f6 9342     		cmp	r3, r2
 1560 00f8 09D0     		beq	.L75
 1561              		.loc 1 639 7 discriminator 5
 1562 00fa 7B68     		ldr	r3, [r7, #4]
 1563 00fc 1B68     		ldr	r3, [r3]
 1564 00fe 1A4A     		ldr	r2, .L80+16
 1565 0100 9342     		cmp	r3, r2
 1566 0102 04D0     		beq	.L75
 1567              		.loc 1 639 7 discriminator 6
 1568 0104 7B68     		ldr	r3, [r7, #4]
 1569 0106 1B68     		ldr	r3, [r3]
 1570 0108 184A     		ldr	r2, .L80+20
 1571 010a 9342     		cmp	r3, r2
 1572 010c 15D1     		bne	.L76
 1573              	.L75:
 640:./Libraries/STM32H7xx_HAL_Driver/Src/stm32h7xx_hal_tim_ex.c ****   {
 641:./Libraries/STM32H7xx_HAL_Driver/Src/stm32h7xx_hal_tim_ex.c ****     tmpsmcr = htim->Instance->SMCR & TIM_SMCR_SMS;
 1574              		.loc 1 641 19 is_stmt 1
 1575 010e 7B68     		ldr	r3, [r7, #4]
 1576 0110 1B68     		ldr	r3, [r3]
 1577              		.loc 1 641 29
 1578 0112 9A68     		ldr	r2, [r3, #8]
 1579              		.loc 1 641 13
 1580 0114 164B     		ldr	r3, .L80+24
 1581 0116 1340     		ands	r3, r3, r2
 1582 0118 FB60     		str	r3, [r7, #12]
 642:./Libraries/STM32H7xx_HAL_Driver/Src/stm32h7xx_hal_tim_ex.c ****     if (!IS_TIM_SLAVEMODE_TRIGGER_ENABLED(tmpsmcr))
 1583              		.loc 1 642 8
 1584 011a FB68     		ldr	r3, [r7, #12]
 1585 011c 062B     		cmp	r3, #6
 1586 011e 15D0     		beq	.L79
 1587              		.loc 1 642 9 discriminator 1
 1588 0120 FB68     		ldr	r3, [r7, #12]
 1589 0122 B3F5803F 		cmp	r3, #65536
 1590 0126 11D0     		beq	.L79
 643:./Libraries/STM32H7xx_HAL_Driver/Src/stm32h7xx_hal_tim_ex.c ****     {
 644:./Libraries/STM32H7xx_HAL_Driver/Src/stm32h7xx_hal_tim_ex.c ****       __HAL_TIM_ENABLE(htim);
 1591              		.loc 1 644 7
 1592 0128 7B68     		ldr	r3, [r7, #4]
ARM GAS  /tmp/ccxx2olO.s 			page 40


 1593 012a 1B68     		ldr	r3, [r3]
 1594 012c 1A68     		ldr	r2, [r3]
 1595 012e 7B68     		ldr	r3, [r7, #4]
 1596 0130 1B68     		ldr	r3, [r3]
 1597 0132 42F00102 		orr	r2, r2, #1
 1598 0136 1A60     		str	r2, [r3]
 642:./Libraries/STM32H7xx_HAL_Driver/Src/stm32h7xx_hal_tim_ex.c ****     if (!IS_TIM_SLAVEMODE_TRIGGER_ENABLED(tmpsmcr))
 1599              		.loc 1 642 8
 1600 0138 08E0     		b	.L79
 1601              	.L76:
 645:./Libraries/STM32H7xx_HAL_Driver/Src/stm32h7xx_hal_tim_ex.c ****     }
 646:./Libraries/STM32H7xx_HAL_Driver/Src/stm32h7xx_hal_tim_ex.c ****   }
 647:./Libraries/STM32H7xx_HAL_Driver/Src/stm32h7xx_hal_tim_ex.c ****   else
 648:./Libraries/STM32H7xx_HAL_Driver/Src/stm32h7xx_hal_tim_ex.c ****   {
 649:./Libraries/STM32H7xx_HAL_Driver/Src/stm32h7xx_hal_tim_ex.c ****     __HAL_TIM_ENABLE(htim);
 1602              		.loc 1 649 5
 1603 013a 7B68     		ldr	r3, [r7, #4]
 1604 013c 1B68     		ldr	r3, [r3]
 1605 013e 1A68     		ldr	r2, [r3]
 1606 0140 7B68     		ldr	r3, [r7, #4]
 1607 0142 1B68     		ldr	r3, [r3]
 1608 0144 42F00102 		orr	r2, r2, #1
 1609 0148 1A60     		str	r2, [r3]
 1610 014a 00E0     		b	.L78
 1611              	.L79:
 642:./Libraries/STM32H7xx_HAL_Driver/Src/stm32h7xx_hal_tim_ex.c ****     {
 1612              		.loc 1 642 8
 1613 014c 00BF     		nop
 1614              	.L78:
 650:./Libraries/STM32H7xx_HAL_Driver/Src/stm32h7xx_hal_tim_ex.c ****   }
 651:./Libraries/STM32H7xx_HAL_Driver/Src/stm32h7xx_hal_tim_ex.c **** 
 652:./Libraries/STM32H7xx_HAL_Driver/Src/stm32h7xx_hal_tim_ex.c ****   /* Return function status */
 653:./Libraries/STM32H7xx_HAL_Driver/Src/stm32h7xx_hal_tim_ex.c ****   return HAL_OK;
 1615              		.loc 1 653 10
 1616 014e 0023     		movs	r3, #0
 1617              	.L68:
 654:./Libraries/STM32H7xx_HAL_Driver/Src/stm32h7xx_hal_tim_ex.c **** }
 1618              		.loc 1 654 1
 1619 0150 1846     		mov	r0, r3
 1620 0152 1037     		adds	r7, r7, #16
 1621              	.LCFI55:
 1622              		.cfi_def_cfa_offset 8
 1623 0154 BD46     		mov	sp, r7
 1624              	.LCFI56:
 1625              		.cfi_def_cfa_register 13
 1626              		@ sp needed
 1627 0156 80BD     		pop	{r7, pc}
 1628              	.L81:
 1629              		.align	2
 1630              	.L80:
 1631 0158 00000140 		.word	1073807360
 1632 015c 00040040 		.word	1073742848
 1633 0160 00080040 		.word	1073743872
 1634 0164 000C0040 		.word	1073744896
 1635 0168 00040140 		.word	1073808384
 1636 016c 00180040 		.word	1073747968
 1637 0170 07000100 		.word	65543
ARM GAS  /tmp/ccxx2olO.s 			page 41


 1638              		.cfi_endproc
 1639              	.LFE341:
 1641              		.section	.text.HAL_TIMEx_OCN_Stop,"ax",%progbits
 1642              		.align	1
 1643              		.global	HAL_TIMEx_OCN_Stop
 1644              		.syntax unified
 1645              		.thumb
 1646              		.thumb_func
 1647              		.fpu fpv5-d16
 1649              	HAL_TIMEx_OCN_Stop:
 1650              	.LFB342:
 655:./Libraries/STM32H7xx_HAL_Driver/Src/stm32h7xx_hal_tim_ex.c **** 
 656:./Libraries/STM32H7xx_HAL_Driver/Src/stm32h7xx_hal_tim_ex.c **** /**
 657:./Libraries/STM32H7xx_HAL_Driver/Src/stm32h7xx_hal_tim_ex.c ****   * @brief  Stops the TIM Output Compare signal generation on the complementary
 658:./Libraries/STM32H7xx_HAL_Driver/Src/stm32h7xx_hal_tim_ex.c ****   *         output.
 659:./Libraries/STM32H7xx_HAL_Driver/Src/stm32h7xx_hal_tim_ex.c ****   * @param  htim TIM handle
 660:./Libraries/STM32H7xx_HAL_Driver/Src/stm32h7xx_hal_tim_ex.c ****   * @param  Channel TIM Channel to be disabled
 661:./Libraries/STM32H7xx_HAL_Driver/Src/stm32h7xx_hal_tim_ex.c ****   *          This parameter can be one of the following values:
 662:./Libraries/STM32H7xx_HAL_Driver/Src/stm32h7xx_hal_tim_ex.c ****   *            @arg TIM_CHANNEL_1: TIM Channel 1 selected
 663:./Libraries/STM32H7xx_HAL_Driver/Src/stm32h7xx_hal_tim_ex.c ****   *            @arg TIM_CHANNEL_2: TIM Channel 2 selected
 664:./Libraries/STM32H7xx_HAL_Driver/Src/stm32h7xx_hal_tim_ex.c ****   *            @arg TIM_CHANNEL_3: TIM Channel 3 selected
 665:./Libraries/STM32H7xx_HAL_Driver/Src/stm32h7xx_hal_tim_ex.c ****   * @retval HAL status
 666:./Libraries/STM32H7xx_HAL_Driver/Src/stm32h7xx_hal_tim_ex.c ****   */
 667:./Libraries/STM32H7xx_HAL_Driver/Src/stm32h7xx_hal_tim_ex.c **** HAL_StatusTypeDef HAL_TIMEx_OCN_Stop(TIM_HandleTypeDef *htim, uint32_t Channel)
 668:./Libraries/STM32H7xx_HAL_Driver/Src/stm32h7xx_hal_tim_ex.c **** {
 1651              		.loc 1 668 1
 1652              		.cfi_startproc
 1653              		@ args = 0, pretend = 0, frame = 8
 1654              		@ frame_needed = 1, uses_anonymous_args = 0
 1655 0000 80B5     		push	{r7, lr}
 1656              	.LCFI57:
 1657              		.cfi_def_cfa_offset 8
 1658              		.cfi_offset 7, -8
 1659              		.cfi_offset 14, -4
 1660 0002 82B0     		sub	sp, sp, #8
 1661              	.LCFI58:
 1662              		.cfi_def_cfa_offset 16
 1663 0004 00AF     		add	r7, sp, #0
 1664              	.LCFI59:
 1665              		.cfi_def_cfa_register 7
 1666 0006 7860     		str	r0, [r7, #4]
 1667 0008 3960     		str	r1, [r7]
 669:./Libraries/STM32H7xx_HAL_Driver/Src/stm32h7xx_hal_tim_ex.c ****   /* Check the parameters */
 670:./Libraries/STM32H7xx_HAL_Driver/Src/stm32h7xx_hal_tim_ex.c ****   assert_param(IS_TIM_CCXN_INSTANCE(htim->Instance, Channel));
 671:./Libraries/STM32H7xx_HAL_Driver/Src/stm32h7xx_hal_tim_ex.c **** 
 672:./Libraries/STM32H7xx_HAL_Driver/Src/stm32h7xx_hal_tim_ex.c ****   /* Disable the Capture compare channel N */
 673:./Libraries/STM32H7xx_HAL_Driver/Src/stm32h7xx_hal_tim_ex.c ****   TIM_CCxNChannelCmd(htim->Instance, Channel, TIM_CCxN_DISABLE);
 1668              		.loc 1 673 3
 1669 000a 7B68     		ldr	r3, [r7, #4]
 1670 000c 1B68     		ldr	r3, [r3]
 1671 000e 0022     		movs	r2, #0
 1672 0010 3968     		ldr	r1, [r7]
 1673 0012 1846     		mov	r0, r3
 1674 0014 FFF7FEFF 		bl	TIM_CCxNChannelCmd
 674:./Libraries/STM32H7xx_HAL_Driver/Src/stm32h7xx_hal_tim_ex.c **** 
 675:./Libraries/STM32H7xx_HAL_Driver/Src/stm32h7xx_hal_tim_ex.c ****   /* Disable the Main Output */
 676:./Libraries/STM32H7xx_HAL_Driver/Src/stm32h7xx_hal_tim_ex.c ****   __HAL_TIM_MOE_DISABLE(htim);
ARM GAS  /tmp/ccxx2olO.s 			page 42


 1675              		.loc 1 676 3
 1676 0018 7B68     		ldr	r3, [r7, #4]
 1677 001a 1B68     		ldr	r3, [r3]
 1678 001c 1A6A     		ldr	r2, [r3, #32]
 1679 001e 41F21113 		movw	r3, #4369
 1680 0022 1340     		ands	r3, r3, r2
 1681 0024 002B     		cmp	r3, #0
 1682 0026 0FD1     		bne	.L83
 1683              		.loc 1 676 3 is_stmt 0 discriminator 1
 1684 0028 7B68     		ldr	r3, [r7, #4]
 1685 002a 1B68     		ldr	r3, [r3]
 1686 002c 1A6A     		ldr	r2, [r3, #32]
 1687 002e 40F24443 		movw	r3, #1092
 1688 0032 1340     		ands	r3, r3, r2
 1689 0034 002B     		cmp	r3, #0
 1690 0036 07D1     		bne	.L83
 1691              		.loc 1 676 3 discriminator 2
 1692 0038 7B68     		ldr	r3, [r7, #4]
 1693 003a 1B68     		ldr	r3, [r3]
 1694 003c 5A6C     		ldr	r2, [r3, #68]
 1695 003e 7B68     		ldr	r3, [r7, #4]
 1696 0040 1B68     		ldr	r3, [r3]
 1697 0042 22F40042 		bic	r2, r2, #32768
 1698 0046 5A64     		str	r2, [r3, #68]
 1699              	.L83:
 677:./Libraries/STM32H7xx_HAL_Driver/Src/stm32h7xx_hal_tim_ex.c **** 
 678:./Libraries/STM32H7xx_HAL_Driver/Src/stm32h7xx_hal_tim_ex.c ****   /* Disable the Peripheral */
 679:./Libraries/STM32H7xx_HAL_Driver/Src/stm32h7xx_hal_tim_ex.c ****   __HAL_TIM_DISABLE(htim);
 1700              		.loc 1 679 3 is_stmt 1
 1701 0048 7B68     		ldr	r3, [r7, #4]
 1702 004a 1B68     		ldr	r3, [r3]
 1703 004c 1A6A     		ldr	r2, [r3, #32]
 1704 004e 41F21113 		movw	r3, #4369
 1705 0052 1340     		ands	r3, r3, r2
 1706 0054 002B     		cmp	r3, #0
 1707 0056 0FD1     		bne	.L84
 1708              		.loc 1 679 3 is_stmt 0 discriminator 1
 1709 0058 7B68     		ldr	r3, [r7, #4]
 1710 005a 1B68     		ldr	r3, [r3]
 1711 005c 1A6A     		ldr	r2, [r3, #32]
 1712 005e 40F24443 		movw	r3, #1092
 1713 0062 1340     		ands	r3, r3, r2
 1714 0064 002B     		cmp	r3, #0
 1715 0066 07D1     		bne	.L84
 1716              		.loc 1 679 3 discriminator 2
 1717 0068 7B68     		ldr	r3, [r7, #4]
 1718 006a 1B68     		ldr	r3, [r3]
 1719 006c 1A68     		ldr	r2, [r3]
 1720 006e 7B68     		ldr	r3, [r7, #4]
 1721 0070 1B68     		ldr	r3, [r3]
 1722 0072 22F00102 		bic	r2, r2, #1
 1723 0076 1A60     		str	r2, [r3]
 1724              	.L84:
 680:./Libraries/STM32H7xx_HAL_Driver/Src/stm32h7xx_hal_tim_ex.c **** 
 681:./Libraries/STM32H7xx_HAL_Driver/Src/stm32h7xx_hal_tim_ex.c ****   /* Set the TIM complementary channel state */
 682:./Libraries/STM32H7xx_HAL_Driver/Src/stm32h7xx_hal_tim_ex.c ****   TIM_CHANNEL_N_STATE_SET(htim, Channel, HAL_TIM_CHANNEL_STATE_READY);
 1725              		.loc 1 682 3 is_stmt 1
ARM GAS  /tmp/ccxx2olO.s 			page 43


 1726 0078 3B68     		ldr	r3, [r7]
 1727 007a 002B     		cmp	r3, #0
 1728 007c 04D1     		bne	.L85
 1729              		.loc 1 682 3 is_stmt 0 discriminator 1
 1730 007e 7B68     		ldr	r3, [r7, #4]
 1731 0080 0122     		movs	r2, #1
 1732 0082 83F84420 		strb	r2, [r3, #68]
 1733 0086 13E0     		b	.L86
 1734              	.L85:
 1735              		.loc 1 682 3 discriminator 2
 1736 0088 3B68     		ldr	r3, [r7]
 1737 008a 042B     		cmp	r3, #4
 1738 008c 04D1     		bne	.L87
 1739              		.loc 1 682 3 discriminator 3
 1740 008e 7B68     		ldr	r3, [r7, #4]
 1741 0090 0122     		movs	r2, #1
 1742 0092 83F84520 		strb	r2, [r3, #69]
 1743 0096 0BE0     		b	.L86
 1744              	.L87:
 1745              		.loc 1 682 3 discriminator 4
 1746 0098 3B68     		ldr	r3, [r7]
 1747 009a 082B     		cmp	r3, #8
 1748 009c 04D1     		bne	.L89
 1749              		.loc 1 682 3 discriminator 6
 1750 009e 7B68     		ldr	r3, [r7, #4]
 1751 00a0 0122     		movs	r2, #1
 1752 00a2 83F84620 		strb	r2, [r3, #70]
 1753 00a6 03E0     		b	.L86
 1754              	.L89:
 1755              		.loc 1 682 3 discriminator 7
 1756 00a8 7B68     		ldr	r3, [r7, #4]
 1757 00aa 0122     		movs	r2, #1
 1758 00ac 83F84720 		strb	r2, [r3, #71]
 1759              	.L86:
 683:./Libraries/STM32H7xx_HAL_Driver/Src/stm32h7xx_hal_tim_ex.c **** 
 684:./Libraries/STM32H7xx_HAL_Driver/Src/stm32h7xx_hal_tim_ex.c ****   /* Return function status */
 685:./Libraries/STM32H7xx_HAL_Driver/Src/stm32h7xx_hal_tim_ex.c ****   return HAL_OK;
 1760              		.loc 1 685 10 is_stmt 1
 1761 00b0 0023     		movs	r3, #0
 686:./Libraries/STM32H7xx_HAL_Driver/Src/stm32h7xx_hal_tim_ex.c **** }
 1762              		.loc 1 686 1
 1763 00b2 1846     		mov	r0, r3
 1764 00b4 0837     		adds	r7, r7, #8
 1765              	.LCFI60:
 1766              		.cfi_def_cfa_offset 8
 1767 00b6 BD46     		mov	sp, r7
 1768              	.LCFI61:
 1769              		.cfi_def_cfa_register 13
 1770              		@ sp needed
 1771 00b8 80BD     		pop	{r7, pc}
 1772              		.cfi_endproc
 1773              	.LFE342:
 1775              		.section	.text.HAL_TIMEx_OCN_Start_IT,"ax",%progbits
 1776              		.align	1
 1777              		.global	HAL_TIMEx_OCN_Start_IT
 1778              		.syntax unified
 1779              		.thumb
ARM GAS  /tmp/ccxx2olO.s 			page 44


 1780              		.thumb_func
 1781              		.fpu fpv5-d16
 1783              	HAL_TIMEx_OCN_Start_IT:
 1784              	.LFB343:
 687:./Libraries/STM32H7xx_HAL_Driver/Src/stm32h7xx_hal_tim_ex.c **** 
 688:./Libraries/STM32H7xx_HAL_Driver/Src/stm32h7xx_hal_tim_ex.c **** /**
 689:./Libraries/STM32H7xx_HAL_Driver/Src/stm32h7xx_hal_tim_ex.c ****   * @brief  Starts the TIM Output Compare signal generation in interrupt mode
 690:./Libraries/STM32H7xx_HAL_Driver/Src/stm32h7xx_hal_tim_ex.c ****   *         on the complementary output.
 691:./Libraries/STM32H7xx_HAL_Driver/Src/stm32h7xx_hal_tim_ex.c ****   * @param  htim TIM OC handle
 692:./Libraries/STM32H7xx_HAL_Driver/Src/stm32h7xx_hal_tim_ex.c ****   * @param  Channel TIM Channel to be enabled
 693:./Libraries/STM32H7xx_HAL_Driver/Src/stm32h7xx_hal_tim_ex.c ****   *          This parameter can be one of the following values:
 694:./Libraries/STM32H7xx_HAL_Driver/Src/stm32h7xx_hal_tim_ex.c ****   *            @arg TIM_CHANNEL_1: TIM Channel 1 selected
 695:./Libraries/STM32H7xx_HAL_Driver/Src/stm32h7xx_hal_tim_ex.c ****   *            @arg TIM_CHANNEL_2: TIM Channel 2 selected
 696:./Libraries/STM32H7xx_HAL_Driver/Src/stm32h7xx_hal_tim_ex.c ****   *            @arg TIM_CHANNEL_3: TIM Channel 3 selected
 697:./Libraries/STM32H7xx_HAL_Driver/Src/stm32h7xx_hal_tim_ex.c ****   * @retval HAL status
 698:./Libraries/STM32H7xx_HAL_Driver/Src/stm32h7xx_hal_tim_ex.c ****   */
 699:./Libraries/STM32H7xx_HAL_Driver/Src/stm32h7xx_hal_tim_ex.c **** HAL_StatusTypeDef HAL_TIMEx_OCN_Start_IT(TIM_HandleTypeDef *htim, uint32_t Channel)
 700:./Libraries/STM32H7xx_HAL_Driver/Src/stm32h7xx_hal_tim_ex.c **** {
 1785              		.loc 1 700 1
 1786              		.cfi_startproc
 1787              		@ args = 0, pretend = 0, frame = 16
 1788              		@ frame_needed = 1, uses_anonymous_args = 0
 1789 0000 80B5     		push	{r7, lr}
 1790              	.LCFI62:
 1791              		.cfi_def_cfa_offset 8
 1792              		.cfi_offset 7, -8
 1793              		.cfi_offset 14, -4
 1794 0002 84B0     		sub	sp, sp, #16
 1795              	.LCFI63:
 1796              		.cfi_def_cfa_offset 24
 1797 0004 00AF     		add	r7, sp, #0
 1798              	.LCFI64:
 1799              		.cfi_def_cfa_register 7
 1800 0006 7860     		str	r0, [r7, #4]
 1801 0008 3960     		str	r1, [r7]
 701:./Libraries/STM32H7xx_HAL_Driver/Src/stm32h7xx_hal_tim_ex.c ****   uint32_t tmpsmcr;
 702:./Libraries/STM32H7xx_HAL_Driver/Src/stm32h7xx_hal_tim_ex.c **** 
 703:./Libraries/STM32H7xx_HAL_Driver/Src/stm32h7xx_hal_tim_ex.c ****   /* Check the parameters */
 704:./Libraries/STM32H7xx_HAL_Driver/Src/stm32h7xx_hal_tim_ex.c ****   assert_param(IS_TIM_CCXN_INSTANCE(htim->Instance, Channel));
 705:./Libraries/STM32H7xx_HAL_Driver/Src/stm32h7xx_hal_tim_ex.c **** 
 706:./Libraries/STM32H7xx_HAL_Driver/Src/stm32h7xx_hal_tim_ex.c ****   /* Check the TIM complementary channel state */
 707:./Libraries/STM32H7xx_HAL_Driver/Src/stm32h7xx_hal_tim_ex.c ****   if (TIM_CHANNEL_N_STATE_GET(htim, Channel) != HAL_TIM_CHANNEL_STATE_READY)
 1802              		.loc 1 707 46
 1803 000a 3B68     		ldr	r3, [r7]
 1804 000c 002B     		cmp	r3, #0
 1805 000e 09D1     		bne	.L93
 1806              		.loc 1 707 7 discriminator 1
 1807 0010 7B68     		ldr	r3, [r7, #4]
 1808 0012 93F84430 		ldrb	r3, [r3, #68]
 1809 0016 DBB2     		uxtb	r3, r3
 1810              		.loc 1 707 46 discriminator 1
 1811 0018 012B     		cmp	r3, #1
 1812 001a 14BF     		ite	ne
 1813 001c 0123     		movne	r3, #1
 1814 001e 0023     		moveq	r3, #0
 1815 0020 DBB2     		uxtb	r3, r3
 1816 0022 22E0     		b	.L94
ARM GAS  /tmp/ccxx2olO.s 			page 45


 1817              	.L93:
 1818              		.loc 1 707 46 is_stmt 0 discriminator 2
 1819 0024 3B68     		ldr	r3, [r7]
 1820 0026 042B     		cmp	r3, #4
 1821 0028 09D1     		bne	.L95
 1822              		.loc 1 707 7 is_stmt 1 discriminator 4
 1823 002a 7B68     		ldr	r3, [r7, #4]
 1824 002c 93F84530 		ldrb	r3, [r3, #69]
 1825 0030 DBB2     		uxtb	r3, r3
 1826              		.loc 1 707 46 discriminator 4
 1827 0032 012B     		cmp	r3, #1
 1828 0034 14BF     		ite	ne
 1829 0036 0123     		movne	r3, #1
 1830 0038 0023     		moveq	r3, #0
 1831 003a DBB2     		uxtb	r3, r3
 1832 003c 15E0     		b	.L94
 1833              	.L95:
 1834              		.loc 1 707 46 is_stmt 0 discriminator 5
 1835 003e 3B68     		ldr	r3, [r7]
 1836 0040 082B     		cmp	r3, #8
 1837 0042 09D1     		bne	.L97
 1838              		.loc 1 707 7 is_stmt 1 discriminator 7
 1839 0044 7B68     		ldr	r3, [r7, #4]
 1840 0046 93F84630 		ldrb	r3, [r3, #70]
 1841 004a DBB2     		uxtb	r3, r3
 1842              		.loc 1 707 46 discriminator 7
 1843 004c 012B     		cmp	r3, #1
 1844 004e 14BF     		ite	ne
 1845 0050 0123     		movne	r3, #1
 1846 0052 0023     		moveq	r3, #0
 1847 0054 DBB2     		uxtb	r3, r3
 1848 0056 08E0     		b	.L94
 1849              	.L97:
 1850              		.loc 1 707 7 discriminator 8
 1851 0058 7B68     		ldr	r3, [r7, #4]
 1852 005a 93F84730 		ldrb	r3, [r3, #71]
 1853 005e DBB2     		uxtb	r3, r3
 1854              		.loc 1 707 46 discriminator 8
 1855 0060 012B     		cmp	r3, #1
 1856 0062 14BF     		ite	ne
 1857 0064 0123     		movne	r3, #1
 1858 0066 0023     		moveq	r3, #0
 1859 0068 DBB2     		uxtb	r3, r3
 1860              	.L94:
 1861              		.loc 1 707 6 discriminator 12
 1862 006a 002B     		cmp	r3, #0
 1863 006c 01D0     		beq	.L99
 708:./Libraries/STM32H7xx_HAL_Driver/Src/stm32h7xx_hal_tim_ex.c ****   {
 709:./Libraries/STM32H7xx_HAL_Driver/Src/stm32h7xx_hal_tim_ex.c ****     return HAL_ERROR;
 1864              		.loc 1 709 12
 1865 006e 0123     		movs	r3, #1
 1866 0070 9FE0     		b	.L100
 1867              	.L99:
 710:./Libraries/STM32H7xx_HAL_Driver/Src/stm32h7xx_hal_tim_ex.c ****   }
 711:./Libraries/STM32H7xx_HAL_Driver/Src/stm32h7xx_hal_tim_ex.c **** 
 712:./Libraries/STM32H7xx_HAL_Driver/Src/stm32h7xx_hal_tim_ex.c ****   /* Set the TIM complementary channel state */
 713:./Libraries/STM32H7xx_HAL_Driver/Src/stm32h7xx_hal_tim_ex.c ****   TIM_CHANNEL_N_STATE_SET(htim, Channel, HAL_TIM_CHANNEL_STATE_BUSY);
ARM GAS  /tmp/ccxx2olO.s 			page 46


 1868              		.loc 1 713 3
 1869 0072 3B68     		ldr	r3, [r7]
 1870 0074 002B     		cmp	r3, #0
 1871 0076 04D1     		bne	.L101
 1872              		.loc 1 713 3 is_stmt 0 discriminator 1
 1873 0078 7B68     		ldr	r3, [r7, #4]
 1874 007a 0222     		movs	r2, #2
 1875 007c 83F84420 		strb	r2, [r3, #68]
 1876 0080 13E0     		b	.L102
 1877              	.L101:
 1878              		.loc 1 713 3 discriminator 2
 1879 0082 3B68     		ldr	r3, [r7]
 1880 0084 042B     		cmp	r3, #4
 1881 0086 04D1     		bne	.L103
 1882              		.loc 1 713 3 discriminator 3
 1883 0088 7B68     		ldr	r3, [r7, #4]
 1884 008a 0222     		movs	r2, #2
 1885 008c 83F84520 		strb	r2, [r3, #69]
 1886 0090 0BE0     		b	.L102
 1887              	.L103:
 1888              		.loc 1 713 3 discriminator 4
 1889 0092 3B68     		ldr	r3, [r7]
 1890 0094 082B     		cmp	r3, #8
 1891 0096 04D1     		bne	.L105
 1892              		.loc 1 713 3 discriminator 6
 1893 0098 7B68     		ldr	r3, [r7, #4]
 1894 009a 0222     		movs	r2, #2
 1895 009c 83F84620 		strb	r2, [r3, #70]
 1896 00a0 03E0     		b	.L102
 1897              	.L105:
 1898              		.loc 1 713 3 discriminator 7
 1899 00a2 7B68     		ldr	r3, [r7, #4]
 1900 00a4 0222     		movs	r2, #2
 1901 00a6 83F84720 		strb	r2, [r3, #71]
 1902              	.L102:
 714:./Libraries/STM32H7xx_HAL_Driver/Src/stm32h7xx_hal_tim_ex.c **** 
 715:./Libraries/STM32H7xx_HAL_Driver/Src/stm32h7xx_hal_tim_ex.c ****   switch (Channel)
 1903              		.loc 1 715 3 is_stmt 1
 1904 00aa 3B68     		ldr	r3, [r7]
 1905 00ac 082B     		cmp	r3, #8
 1906 00ae 1BD0     		beq	.L107
 1907 00b0 3B68     		ldr	r3, [r7]
 1908 00b2 082B     		cmp	r3, #8
 1909 00b4 21D8     		bhi	.L116
 1910 00b6 3B68     		ldr	r3, [r7]
 1911 00b8 002B     		cmp	r3, #0
 1912 00ba 03D0     		beq	.L109
 1913 00bc 3B68     		ldr	r3, [r7]
 1914 00be 042B     		cmp	r3, #4
 1915 00c0 09D0     		beq	.L110
 716:./Libraries/STM32H7xx_HAL_Driver/Src/stm32h7xx_hal_tim_ex.c ****   {
 717:./Libraries/STM32H7xx_HAL_Driver/Src/stm32h7xx_hal_tim_ex.c ****     case TIM_CHANNEL_1:
 718:./Libraries/STM32H7xx_HAL_Driver/Src/stm32h7xx_hal_tim_ex.c ****     {
 719:./Libraries/STM32H7xx_HAL_Driver/Src/stm32h7xx_hal_tim_ex.c ****       /* Enable the TIM Output Compare interrupt */
 720:./Libraries/STM32H7xx_HAL_Driver/Src/stm32h7xx_hal_tim_ex.c ****       __HAL_TIM_ENABLE_IT(htim, TIM_IT_CC1);
 721:./Libraries/STM32H7xx_HAL_Driver/Src/stm32h7xx_hal_tim_ex.c ****       break;
 722:./Libraries/STM32H7xx_HAL_Driver/Src/stm32h7xx_hal_tim_ex.c ****     }
ARM GAS  /tmp/ccxx2olO.s 			page 47


 723:./Libraries/STM32H7xx_HAL_Driver/Src/stm32h7xx_hal_tim_ex.c **** 
 724:./Libraries/STM32H7xx_HAL_Driver/Src/stm32h7xx_hal_tim_ex.c ****     case TIM_CHANNEL_2:
 725:./Libraries/STM32H7xx_HAL_Driver/Src/stm32h7xx_hal_tim_ex.c ****     {
 726:./Libraries/STM32H7xx_HAL_Driver/Src/stm32h7xx_hal_tim_ex.c ****       /* Enable the TIM Output Compare interrupt */
 727:./Libraries/STM32H7xx_HAL_Driver/Src/stm32h7xx_hal_tim_ex.c ****       __HAL_TIM_ENABLE_IT(htim, TIM_IT_CC2);
 728:./Libraries/STM32H7xx_HAL_Driver/Src/stm32h7xx_hal_tim_ex.c ****       break;
 729:./Libraries/STM32H7xx_HAL_Driver/Src/stm32h7xx_hal_tim_ex.c ****     }
 730:./Libraries/STM32H7xx_HAL_Driver/Src/stm32h7xx_hal_tim_ex.c **** 
 731:./Libraries/STM32H7xx_HAL_Driver/Src/stm32h7xx_hal_tim_ex.c ****     case TIM_CHANNEL_3:
 732:./Libraries/STM32H7xx_HAL_Driver/Src/stm32h7xx_hal_tim_ex.c ****     {
 733:./Libraries/STM32H7xx_HAL_Driver/Src/stm32h7xx_hal_tim_ex.c ****       /* Enable the TIM Output Compare interrupt */
 734:./Libraries/STM32H7xx_HAL_Driver/Src/stm32h7xx_hal_tim_ex.c ****       __HAL_TIM_ENABLE_IT(htim, TIM_IT_CC3);
 735:./Libraries/STM32H7xx_HAL_Driver/Src/stm32h7xx_hal_tim_ex.c ****       break;
 736:./Libraries/STM32H7xx_HAL_Driver/Src/stm32h7xx_hal_tim_ex.c ****     }
 737:./Libraries/STM32H7xx_HAL_Driver/Src/stm32h7xx_hal_tim_ex.c **** 
 738:./Libraries/STM32H7xx_HAL_Driver/Src/stm32h7xx_hal_tim_ex.c **** 
 739:./Libraries/STM32H7xx_HAL_Driver/Src/stm32h7xx_hal_tim_ex.c ****     default:
 740:./Libraries/STM32H7xx_HAL_Driver/Src/stm32h7xx_hal_tim_ex.c ****       break;
 1916              		.loc 1 740 7
 1917 00c2 1AE0     		b	.L116
 1918              	.L109:
 720:./Libraries/STM32H7xx_HAL_Driver/Src/stm32h7xx_hal_tim_ex.c ****       break;
 1919              		.loc 1 720 7
 1920 00c4 7B68     		ldr	r3, [r7, #4]
 1921 00c6 1B68     		ldr	r3, [r3]
 1922 00c8 DA68     		ldr	r2, [r3, #12]
 1923 00ca 7B68     		ldr	r3, [r7, #4]
 1924 00cc 1B68     		ldr	r3, [r3]
 1925 00ce 42F00202 		orr	r2, r2, #2
 1926 00d2 DA60     		str	r2, [r3, #12]
 721:./Libraries/STM32H7xx_HAL_Driver/Src/stm32h7xx_hal_tim_ex.c ****     }
 1927              		.loc 1 721 7
 1928 00d4 12E0     		b	.L111
 1929              	.L110:
 727:./Libraries/STM32H7xx_HAL_Driver/Src/stm32h7xx_hal_tim_ex.c ****       break;
 1930              		.loc 1 727 7
 1931 00d6 7B68     		ldr	r3, [r7, #4]
 1932 00d8 1B68     		ldr	r3, [r3]
 1933 00da DA68     		ldr	r2, [r3, #12]
 1934 00dc 7B68     		ldr	r3, [r7, #4]
 1935 00de 1B68     		ldr	r3, [r3]
 1936 00e0 42F00402 		orr	r2, r2, #4
 1937 00e4 DA60     		str	r2, [r3, #12]
 728:./Libraries/STM32H7xx_HAL_Driver/Src/stm32h7xx_hal_tim_ex.c ****     }
 1938              		.loc 1 728 7
 1939 00e6 09E0     		b	.L111
 1940              	.L107:
 734:./Libraries/STM32H7xx_HAL_Driver/Src/stm32h7xx_hal_tim_ex.c ****       break;
 1941              		.loc 1 734 7
 1942 00e8 7B68     		ldr	r3, [r7, #4]
 1943 00ea 1B68     		ldr	r3, [r3]
 1944 00ec DA68     		ldr	r2, [r3, #12]
 1945 00ee 7B68     		ldr	r3, [r7, #4]
 1946 00f0 1B68     		ldr	r3, [r3]
 1947 00f2 42F00802 		orr	r2, r2, #8
 1948 00f6 DA60     		str	r2, [r3, #12]
 735:./Libraries/STM32H7xx_HAL_Driver/Src/stm32h7xx_hal_tim_ex.c ****     }
ARM GAS  /tmp/ccxx2olO.s 			page 48


 1949              		.loc 1 735 7
 1950 00f8 00E0     		b	.L111
 1951              	.L116:
 1952              		.loc 1 740 7
 1953 00fa 00BF     		nop
 1954              	.L111:
 741:./Libraries/STM32H7xx_HAL_Driver/Src/stm32h7xx_hal_tim_ex.c ****   }
 742:./Libraries/STM32H7xx_HAL_Driver/Src/stm32h7xx_hal_tim_ex.c **** 
 743:./Libraries/STM32H7xx_HAL_Driver/Src/stm32h7xx_hal_tim_ex.c ****   /* Enable the TIM Break interrupt */
 744:./Libraries/STM32H7xx_HAL_Driver/Src/stm32h7xx_hal_tim_ex.c ****   __HAL_TIM_ENABLE_IT(htim, TIM_IT_BREAK);
 1955              		.loc 1 744 3
 1956 00fc 7B68     		ldr	r3, [r7, #4]
 1957 00fe 1B68     		ldr	r3, [r3]
 1958 0100 DA68     		ldr	r2, [r3, #12]
 1959 0102 7B68     		ldr	r3, [r7, #4]
 1960 0104 1B68     		ldr	r3, [r3]
 1961 0106 42F08002 		orr	r2, r2, #128
 1962 010a DA60     		str	r2, [r3, #12]
 745:./Libraries/STM32H7xx_HAL_Driver/Src/stm32h7xx_hal_tim_ex.c **** 
 746:./Libraries/STM32H7xx_HAL_Driver/Src/stm32h7xx_hal_tim_ex.c ****   /* Enable the Capture compare channel N */
 747:./Libraries/STM32H7xx_HAL_Driver/Src/stm32h7xx_hal_tim_ex.c ****   TIM_CCxNChannelCmd(htim->Instance, Channel, TIM_CCxN_ENABLE);
 1963              		.loc 1 747 3
 1964 010c 7B68     		ldr	r3, [r7, #4]
 1965 010e 1B68     		ldr	r3, [r3]
 1966 0110 0422     		movs	r2, #4
 1967 0112 3968     		ldr	r1, [r7]
 1968 0114 1846     		mov	r0, r3
 1969 0116 FFF7FEFF 		bl	TIM_CCxNChannelCmd
 748:./Libraries/STM32H7xx_HAL_Driver/Src/stm32h7xx_hal_tim_ex.c **** 
 749:./Libraries/STM32H7xx_HAL_Driver/Src/stm32h7xx_hal_tim_ex.c ****   /* Enable the Main Output */
 750:./Libraries/STM32H7xx_HAL_Driver/Src/stm32h7xx_hal_tim_ex.c ****   __HAL_TIM_MOE_ENABLE(htim);
 1970              		.loc 1 750 3
 1971 011a 7B68     		ldr	r3, [r7, #4]
 1972 011c 1B68     		ldr	r3, [r3]
 1973 011e 5A6C     		ldr	r2, [r3, #68]
 1974 0120 7B68     		ldr	r3, [r7, #4]
 1975 0122 1B68     		ldr	r3, [r3]
 1976 0124 42F40042 		orr	r2, r2, #32768
 1977 0128 5A64     		str	r2, [r3, #68]
 751:./Libraries/STM32H7xx_HAL_Driver/Src/stm32h7xx_hal_tim_ex.c **** 
 752:./Libraries/STM32H7xx_HAL_Driver/Src/stm32h7xx_hal_tim_ex.c ****   /* Enable the Peripheral, except in trigger mode where enable is automatically done with trigger 
 753:./Libraries/STM32H7xx_HAL_Driver/Src/stm32h7xx_hal_tim_ex.c ****   if (IS_TIM_SLAVE_INSTANCE(htim->Instance))
 1978              		.loc 1 753 7
 1979 012a 7B68     		ldr	r3, [r7, #4]
 1980 012c 1B68     		ldr	r3, [r3]
 1981              		.loc 1 753 6
 1982 012e 234A     		ldr	r2, .L118
 1983 0130 9342     		cmp	r3, r2
 1984 0132 1DD0     		beq	.L112
 1985              		.loc 1 753 7 discriminator 1
 1986 0134 7B68     		ldr	r3, [r7, #4]
 1987 0136 1B68     		ldr	r3, [r3]
 1988 0138 B3F1804F 		cmp	r3, #1073741824
 1989 013c 18D0     		beq	.L112
 1990              		.loc 1 753 7 is_stmt 0 discriminator 2
 1991 013e 7B68     		ldr	r3, [r7, #4]
 1992 0140 1B68     		ldr	r3, [r3]
ARM GAS  /tmp/ccxx2olO.s 			page 49


 1993 0142 1F4A     		ldr	r2, .L118+4
 1994 0144 9342     		cmp	r3, r2
 1995 0146 13D0     		beq	.L112
 1996              		.loc 1 753 7 discriminator 3
 1997 0148 7B68     		ldr	r3, [r7, #4]
 1998 014a 1B68     		ldr	r3, [r3]
 1999 014c 1D4A     		ldr	r2, .L118+8
 2000 014e 9342     		cmp	r3, r2
 2001 0150 0ED0     		beq	.L112
 2002              		.loc 1 753 7 discriminator 4
 2003 0152 7B68     		ldr	r3, [r7, #4]
 2004 0154 1B68     		ldr	r3, [r3]
 2005 0156 1C4A     		ldr	r2, .L118+12
 2006 0158 9342     		cmp	r3, r2
 2007 015a 09D0     		beq	.L112
 2008              		.loc 1 753 7 discriminator 5
 2009 015c 7B68     		ldr	r3, [r7, #4]
 2010 015e 1B68     		ldr	r3, [r3]
 2011 0160 1A4A     		ldr	r2, .L118+16
 2012 0162 9342     		cmp	r3, r2
 2013 0164 04D0     		beq	.L112
 2014              		.loc 1 753 7 discriminator 6
 2015 0166 7B68     		ldr	r3, [r7, #4]
 2016 0168 1B68     		ldr	r3, [r3]
 2017 016a 194A     		ldr	r2, .L118+20
 2018 016c 9342     		cmp	r3, r2
 2019 016e 15D1     		bne	.L113
 2020              	.L112:
 754:./Libraries/STM32H7xx_HAL_Driver/Src/stm32h7xx_hal_tim_ex.c ****   {
 755:./Libraries/STM32H7xx_HAL_Driver/Src/stm32h7xx_hal_tim_ex.c ****     tmpsmcr = htim->Instance->SMCR & TIM_SMCR_SMS;
 2021              		.loc 1 755 19 is_stmt 1
 2022 0170 7B68     		ldr	r3, [r7, #4]
 2023 0172 1B68     		ldr	r3, [r3]
 2024              		.loc 1 755 29
 2025 0174 9A68     		ldr	r2, [r3, #8]
 2026              		.loc 1 755 13
 2027 0176 174B     		ldr	r3, .L118+24
 2028 0178 1340     		ands	r3, r3, r2
 2029 017a FB60     		str	r3, [r7, #12]
 756:./Libraries/STM32H7xx_HAL_Driver/Src/stm32h7xx_hal_tim_ex.c ****     if (!IS_TIM_SLAVEMODE_TRIGGER_ENABLED(tmpsmcr))
 2030              		.loc 1 756 8
 2031 017c FB68     		ldr	r3, [r7, #12]
 2032 017e 062B     		cmp	r3, #6
 2033 0180 15D0     		beq	.L117
 2034              		.loc 1 756 9 discriminator 1
 2035 0182 FB68     		ldr	r3, [r7, #12]
 2036 0184 B3F5803F 		cmp	r3, #65536
 2037 0188 11D0     		beq	.L117
 757:./Libraries/STM32H7xx_HAL_Driver/Src/stm32h7xx_hal_tim_ex.c ****     {
 758:./Libraries/STM32H7xx_HAL_Driver/Src/stm32h7xx_hal_tim_ex.c ****       __HAL_TIM_ENABLE(htim);
 2038              		.loc 1 758 7
 2039 018a 7B68     		ldr	r3, [r7, #4]
 2040 018c 1B68     		ldr	r3, [r3]
 2041 018e 1A68     		ldr	r2, [r3]
 2042 0190 7B68     		ldr	r3, [r7, #4]
 2043 0192 1B68     		ldr	r3, [r3]
 2044 0194 42F00102 		orr	r2, r2, #1
ARM GAS  /tmp/ccxx2olO.s 			page 50


 2045 0198 1A60     		str	r2, [r3]
 756:./Libraries/STM32H7xx_HAL_Driver/Src/stm32h7xx_hal_tim_ex.c ****     if (!IS_TIM_SLAVEMODE_TRIGGER_ENABLED(tmpsmcr))
 2046              		.loc 1 756 8
 2047 019a 08E0     		b	.L117
 2048              	.L113:
 759:./Libraries/STM32H7xx_HAL_Driver/Src/stm32h7xx_hal_tim_ex.c ****     }
 760:./Libraries/STM32H7xx_HAL_Driver/Src/stm32h7xx_hal_tim_ex.c ****   }
 761:./Libraries/STM32H7xx_HAL_Driver/Src/stm32h7xx_hal_tim_ex.c ****   else
 762:./Libraries/STM32H7xx_HAL_Driver/Src/stm32h7xx_hal_tim_ex.c ****   {
 763:./Libraries/STM32H7xx_HAL_Driver/Src/stm32h7xx_hal_tim_ex.c ****     __HAL_TIM_ENABLE(htim);
 2049              		.loc 1 763 5
 2050 019c 7B68     		ldr	r3, [r7, #4]
 2051 019e 1B68     		ldr	r3, [r3]
 2052 01a0 1A68     		ldr	r2, [r3]
 2053 01a2 7B68     		ldr	r3, [r7, #4]
 2054 01a4 1B68     		ldr	r3, [r3]
 2055 01a6 42F00102 		orr	r2, r2, #1
 2056 01aa 1A60     		str	r2, [r3]
 2057 01ac 00E0     		b	.L115
 2058              	.L117:
 756:./Libraries/STM32H7xx_HAL_Driver/Src/stm32h7xx_hal_tim_ex.c ****     {
 2059              		.loc 1 756 8
 2060 01ae 00BF     		nop
 2061              	.L115:
 764:./Libraries/STM32H7xx_HAL_Driver/Src/stm32h7xx_hal_tim_ex.c ****   }
 765:./Libraries/STM32H7xx_HAL_Driver/Src/stm32h7xx_hal_tim_ex.c **** 
 766:./Libraries/STM32H7xx_HAL_Driver/Src/stm32h7xx_hal_tim_ex.c ****   /* Return function status */
 767:./Libraries/STM32H7xx_HAL_Driver/Src/stm32h7xx_hal_tim_ex.c ****   return HAL_OK;
 2062              		.loc 1 767 10
 2063 01b0 0023     		movs	r3, #0
 2064              	.L100:
 768:./Libraries/STM32H7xx_HAL_Driver/Src/stm32h7xx_hal_tim_ex.c **** }
 2065              		.loc 1 768 1
 2066 01b2 1846     		mov	r0, r3
 2067 01b4 1037     		adds	r7, r7, #16
 2068              	.LCFI65:
 2069              		.cfi_def_cfa_offset 8
 2070 01b6 BD46     		mov	sp, r7
 2071              	.LCFI66:
 2072              		.cfi_def_cfa_register 13
 2073              		@ sp needed
 2074 01b8 80BD     		pop	{r7, pc}
 2075              	.L119:
 2076 01ba 00BF     		.align	2
 2077              	.L118:
 2078 01bc 00000140 		.word	1073807360
 2079 01c0 00040040 		.word	1073742848
 2080 01c4 00080040 		.word	1073743872
 2081 01c8 000C0040 		.word	1073744896
 2082 01cc 00040140 		.word	1073808384
 2083 01d0 00180040 		.word	1073747968
 2084 01d4 07000100 		.word	65543
 2085              		.cfi_endproc
 2086              	.LFE343:
 2088              		.section	.text.HAL_TIMEx_OCN_Stop_IT,"ax",%progbits
 2089              		.align	1
 2090              		.global	HAL_TIMEx_OCN_Stop_IT
ARM GAS  /tmp/ccxx2olO.s 			page 51


 2091              		.syntax unified
 2092              		.thumb
 2093              		.thumb_func
 2094              		.fpu fpv5-d16
 2096              	HAL_TIMEx_OCN_Stop_IT:
 2097              	.LFB344:
 769:./Libraries/STM32H7xx_HAL_Driver/Src/stm32h7xx_hal_tim_ex.c **** 
 770:./Libraries/STM32H7xx_HAL_Driver/Src/stm32h7xx_hal_tim_ex.c **** /**
 771:./Libraries/STM32H7xx_HAL_Driver/Src/stm32h7xx_hal_tim_ex.c ****   * @brief  Stops the TIM Output Compare signal generation in interrupt mode
 772:./Libraries/STM32H7xx_HAL_Driver/Src/stm32h7xx_hal_tim_ex.c ****   *         on the complementary output.
 773:./Libraries/STM32H7xx_HAL_Driver/Src/stm32h7xx_hal_tim_ex.c ****   * @param  htim TIM Output Compare handle
 774:./Libraries/STM32H7xx_HAL_Driver/Src/stm32h7xx_hal_tim_ex.c ****   * @param  Channel TIM Channel to be disabled
 775:./Libraries/STM32H7xx_HAL_Driver/Src/stm32h7xx_hal_tim_ex.c ****   *          This parameter can be one of the following values:
 776:./Libraries/STM32H7xx_HAL_Driver/Src/stm32h7xx_hal_tim_ex.c ****   *            @arg TIM_CHANNEL_1: TIM Channel 1 selected
 777:./Libraries/STM32H7xx_HAL_Driver/Src/stm32h7xx_hal_tim_ex.c ****   *            @arg TIM_CHANNEL_2: TIM Channel 2 selected
 778:./Libraries/STM32H7xx_HAL_Driver/Src/stm32h7xx_hal_tim_ex.c ****   *            @arg TIM_CHANNEL_3: TIM Channel 3 selected
 779:./Libraries/STM32H7xx_HAL_Driver/Src/stm32h7xx_hal_tim_ex.c ****   * @retval HAL status
 780:./Libraries/STM32H7xx_HAL_Driver/Src/stm32h7xx_hal_tim_ex.c ****   */
 781:./Libraries/STM32H7xx_HAL_Driver/Src/stm32h7xx_hal_tim_ex.c **** HAL_StatusTypeDef HAL_TIMEx_OCN_Stop_IT(TIM_HandleTypeDef *htim, uint32_t Channel)
 782:./Libraries/STM32H7xx_HAL_Driver/Src/stm32h7xx_hal_tim_ex.c **** {
 2098              		.loc 1 782 1
 2099              		.cfi_startproc
 2100              		@ args = 0, pretend = 0, frame = 16
 2101              		@ frame_needed = 1, uses_anonymous_args = 0
 2102 0000 80B5     		push	{r7, lr}
 2103              	.LCFI67:
 2104              		.cfi_def_cfa_offset 8
 2105              		.cfi_offset 7, -8
 2106              		.cfi_offset 14, -4
 2107 0002 84B0     		sub	sp, sp, #16
 2108              	.LCFI68:
 2109              		.cfi_def_cfa_offset 24
 2110 0004 00AF     		add	r7, sp, #0
 2111              	.LCFI69:
 2112              		.cfi_def_cfa_register 7
 2113 0006 7860     		str	r0, [r7, #4]
 2114 0008 3960     		str	r1, [r7]
 783:./Libraries/STM32H7xx_HAL_Driver/Src/stm32h7xx_hal_tim_ex.c ****   uint32_t tmpccer;
 784:./Libraries/STM32H7xx_HAL_Driver/Src/stm32h7xx_hal_tim_ex.c ****   /* Check the parameters */
 785:./Libraries/STM32H7xx_HAL_Driver/Src/stm32h7xx_hal_tim_ex.c ****   assert_param(IS_TIM_CCXN_INSTANCE(htim->Instance, Channel));
 786:./Libraries/STM32H7xx_HAL_Driver/Src/stm32h7xx_hal_tim_ex.c **** 
 787:./Libraries/STM32H7xx_HAL_Driver/Src/stm32h7xx_hal_tim_ex.c ****   switch (Channel)
 2115              		.loc 1 787 3
 2116 000a 3B68     		ldr	r3, [r7]
 2117 000c 082B     		cmp	r3, #8
 2118 000e 1BD0     		beq	.L121
 2119 0010 3B68     		ldr	r3, [r7]
 2120 0012 082B     		cmp	r3, #8
 2121 0014 21D8     		bhi	.L136
 2122 0016 3B68     		ldr	r3, [r7]
 2123 0018 002B     		cmp	r3, #0
 2124 001a 03D0     		beq	.L123
 2125 001c 3B68     		ldr	r3, [r7]
 2126 001e 042B     		cmp	r3, #4
 2127 0020 09D0     		beq	.L124
 788:./Libraries/STM32H7xx_HAL_Driver/Src/stm32h7xx_hal_tim_ex.c ****   {
 789:./Libraries/STM32H7xx_HAL_Driver/Src/stm32h7xx_hal_tim_ex.c ****     case TIM_CHANNEL_1:
ARM GAS  /tmp/ccxx2olO.s 			page 52


 790:./Libraries/STM32H7xx_HAL_Driver/Src/stm32h7xx_hal_tim_ex.c ****     {
 791:./Libraries/STM32H7xx_HAL_Driver/Src/stm32h7xx_hal_tim_ex.c ****       /* Disable the TIM Output Compare interrupt */
 792:./Libraries/STM32H7xx_HAL_Driver/Src/stm32h7xx_hal_tim_ex.c ****       __HAL_TIM_DISABLE_IT(htim, TIM_IT_CC1);
 793:./Libraries/STM32H7xx_HAL_Driver/Src/stm32h7xx_hal_tim_ex.c ****       break;
 794:./Libraries/STM32H7xx_HAL_Driver/Src/stm32h7xx_hal_tim_ex.c ****     }
 795:./Libraries/STM32H7xx_HAL_Driver/Src/stm32h7xx_hal_tim_ex.c **** 
 796:./Libraries/STM32H7xx_HAL_Driver/Src/stm32h7xx_hal_tim_ex.c ****     case TIM_CHANNEL_2:
 797:./Libraries/STM32H7xx_HAL_Driver/Src/stm32h7xx_hal_tim_ex.c ****     {
 798:./Libraries/STM32H7xx_HAL_Driver/Src/stm32h7xx_hal_tim_ex.c ****       /* Disable the TIM Output Compare interrupt */
 799:./Libraries/STM32H7xx_HAL_Driver/Src/stm32h7xx_hal_tim_ex.c ****       __HAL_TIM_DISABLE_IT(htim, TIM_IT_CC2);
 800:./Libraries/STM32H7xx_HAL_Driver/Src/stm32h7xx_hal_tim_ex.c ****       break;
 801:./Libraries/STM32H7xx_HAL_Driver/Src/stm32h7xx_hal_tim_ex.c ****     }
 802:./Libraries/STM32H7xx_HAL_Driver/Src/stm32h7xx_hal_tim_ex.c **** 
 803:./Libraries/STM32H7xx_HAL_Driver/Src/stm32h7xx_hal_tim_ex.c ****     case TIM_CHANNEL_3:
 804:./Libraries/STM32H7xx_HAL_Driver/Src/stm32h7xx_hal_tim_ex.c ****     {
 805:./Libraries/STM32H7xx_HAL_Driver/Src/stm32h7xx_hal_tim_ex.c ****       /* Disable the TIM Output Compare interrupt */
 806:./Libraries/STM32H7xx_HAL_Driver/Src/stm32h7xx_hal_tim_ex.c ****       __HAL_TIM_DISABLE_IT(htim, TIM_IT_CC3);
 807:./Libraries/STM32H7xx_HAL_Driver/Src/stm32h7xx_hal_tim_ex.c ****       break;
 808:./Libraries/STM32H7xx_HAL_Driver/Src/stm32h7xx_hal_tim_ex.c ****     }
 809:./Libraries/STM32H7xx_HAL_Driver/Src/stm32h7xx_hal_tim_ex.c **** 
 810:./Libraries/STM32H7xx_HAL_Driver/Src/stm32h7xx_hal_tim_ex.c ****     default:
 811:./Libraries/STM32H7xx_HAL_Driver/Src/stm32h7xx_hal_tim_ex.c ****       break;
 2128              		.loc 1 811 7
 2129 0022 1AE0     		b	.L136
 2130              	.L123:
 792:./Libraries/STM32H7xx_HAL_Driver/Src/stm32h7xx_hal_tim_ex.c ****       break;
 2131              		.loc 1 792 7
 2132 0024 7B68     		ldr	r3, [r7, #4]
 2133 0026 1B68     		ldr	r3, [r3]
 2134 0028 DA68     		ldr	r2, [r3, #12]
 2135 002a 7B68     		ldr	r3, [r7, #4]
 2136 002c 1B68     		ldr	r3, [r3]
 2137 002e 22F00202 		bic	r2, r2, #2
 2138 0032 DA60     		str	r2, [r3, #12]
 793:./Libraries/STM32H7xx_HAL_Driver/Src/stm32h7xx_hal_tim_ex.c ****     }
 2139              		.loc 1 793 7
 2140 0034 12E0     		b	.L125
 2141              	.L124:
 799:./Libraries/STM32H7xx_HAL_Driver/Src/stm32h7xx_hal_tim_ex.c ****       break;
 2142              		.loc 1 799 7
 2143 0036 7B68     		ldr	r3, [r7, #4]
 2144 0038 1B68     		ldr	r3, [r3]
 2145 003a DA68     		ldr	r2, [r3, #12]
 2146 003c 7B68     		ldr	r3, [r7, #4]
 2147 003e 1B68     		ldr	r3, [r3]
 2148 0040 22F00402 		bic	r2, r2, #4
 2149 0044 DA60     		str	r2, [r3, #12]
 800:./Libraries/STM32H7xx_HAL_Driver/Src/stm32h7xx_hal_tim_ex.c ****     }
 2150              		.loc 1 800 7
 2151 0046 09E0     		b	.L125
 2152              	.L121:
 806:./Libraries/STM32H7xx_HAL_Driver/Src/stm32h7xx_hal_tim_ex.c ****       break;
 2153              		.loc 1 806 7
 2154 0048 7B68     		ldr	r3, [r7, #4]
 2155 004a 1B68     		ldr	r3, [r3]
 2156 004c DA68     		ldr	r2, [r3, #12]
 2157 004e 7B68     		ldr	r3, [r7, #4]
ARM GAS  /tmp/ccxx2olO.s 			page 53


 2158 0050 1B68     		ldr	r3, [r3]
 2159 0052 22F00802 		bic	r2, r2, #8
 2160 0056 DA60     		str	r2, [r3, #12]
 807:./Libraries/STM32H7xx_HAL_Driver/Src/stm32h7xx_hal_tim_ex.c ****     }
 2161              		.loc 1 807 7
 2162 0058 00E0     		b	.L125
 2163              	.L136:
 2164              		.loc 1 811 7
 2165 005a 00BF     		nop
 2166              	.L125:
 812:./Libraries/STM32H7xx_HAL_Driver/Src/stm32h7xx_hal_tim_ex.c ****   }
 813:./Libraries/STM32H7xx_HAL_Driver/Src/stm32h7xx_hal_tim_ex.c **** 
 814:./Libraries/STM32H7xx_HAL_Driver/Src/stm32h7xx_hal_tim_ex.c ****   /* Disable the Capture compare channel N */
 815:./Libraries/STM32H7xx_HAL_Driver/Src/stm32h7xx_hal_tim_ex.c ****   TIM_CCxNChannelCmd(htim->Instance, Channel, TIM_CCxN_DISABLE);
 2167              		.loc 1 815 3
 2168 005c 7B68     		ldr	r3, [r7, #4]
 2169 005e 1B68     		ldr	r3, [r3]
 2170 0060 0022     		movs	r2, #0
 2171 0062 3968     		ldr	r1, [r7]
 2172 0064 1846     		mov	r0, r3
 2173 0066 FFF7FEFF 		bl	TIM_CCxNChannelCmd
 816:./Libraries/STM32H7xx_HAL_Driver/Src/stm32h7xx_hal_tim_ex.c **** 
 817:./Libraries/STM32H7xx_HAL_Driver/Src/stm32h7xx_hal_tim_ex.c ****   /* Disable the TIM Break interrupt (only if no more channel is active) */
 818:./Libraries/STM32H7xx_HAL_Driver/Src/stm32h7xx_hal_tim_ex.c ****   tmpccer = htim->Instance->CCER;
 2174              		.loc 1 818 17
 2175 006a 7B68     		ldr	r3, [r7, #4]
 2176 006c 1B68     		ldr	r3, [r3]
 2177              		.loc 1 818 11
 2178 006e 1B6A     		ldr	r3, [r3, #32]
 2179 0070 FB60     		str	r3, [r7, #12]
 819:./Libraries/STM32H7xx_HAL_Driver/Src/stm32h7xx_hal_tim_ex.c ****   if ((tmpccer & (TIM_CCER_CC1NE | TIM_CCER_CC2NE | TIM_CCER_CC3NE)) == (uint32_t)RESET)
 2180              		.loc 1 819 16
 2181 0072 FA68     		ldr	r2, [r7, #12]
 2182 0074 40F24443 		movw	r3, #1092
 2183 0078 1340     		ands	r3, r3, r2
 2184              		.loc 1 819 6
 2185 007a 002B     		cmp	r3, #0
 2186 007c 07D1     		bne	.L126
 820:./Libraries/STM32H7xx_HAL_Driver/Src/stm32h7xx_hal_tim_ex.c ****   {
 821:./Libraries/STM32H7xx_HAL_Driver/Src/stm32h7xx_hal_tim_ex.c ****     __HAL_TIM_DISABLE_IT(htim, TIM_IT_BREAK);
 2187              		.loc 1 821 5
 2188 007e 7B68     		ldr	r3, [r7, #4]
 2189 0080 1B68     		ldr	r3, [r3]
 2190 0082 DA68     		ldr	r2, [r3, #12]
 2191 0084 7B68     		ldr	r3, [r7, #4]
 2192 0086 1B68     		ldr	r3, [r3]
 2193 0088 22F08002 		bic	r2, r2, #128
 2194 008c DA60     		str	r2, [r3, #12]
 2195              	.L126:
 822:./Libraries/STM32H7xx_HAL_Driver/Src/stm32h7xx_hal_tim_ex.c ****   }
 823:./Libraries/STM32H7xx_HAL_Driver/Src/stm32h7xx_hal_tim_ex.c **** 
 824:./Libraries/STM32H7xx_HAL_Driver/Src/stm32h7xx_hal_tim_ex.c ****   /* Disable the Main Output */
 825:./Libraries/STM32H7xx_HAL_Driver/Src/stm32h7xx_hal_tim_ex.c ****   __HAL_TIM_MOE_DISABLE(htim);
 2196              		.loc 1 825 3
 2197 008e 7B68     		ldr	r3, [r7, #4]
 2198 0090 1B68     		ldr	r3, [r3]
 2199 0092 1A6A     		ldr	r2, [r3, #32]
ARM GAS  /tmp/ccxx2olO.s 			page 54


 2200 0094 41F21113 		movw	r3, #4369
 2201 0098 1340     		ands	r3, r3, r2
 2202 009a 002B     		cmp	r3, #0
 2203 009c 0FD1     		bne	.L127
 2204              		.loc 1 825 3 is_stmt 0 discriminator 1
 2205 009e 7B68     		ldr	r3, [r7, #4]
 2206 00a0 1B68     		ldr	r3, [r3]
 2207 00a2 1A6A     		ldr	r2, [r3, #32]
 2208 00a4 40F24443 		movw	r3, #1092
 2209 00a8 1340     		ands	r3, r3, r2
 2210 00aa 002B     		cmp	r3, #0
 2211 00ac 07D1     		bne	.L127
 2212              		.loc 1 825 3 discriminator 2
 2213 00ae 7B68     		ldr	r3, [r7, #4]
 2214 00b0 1B68     		ldr	r3, [r3]
 2215 00b2 5A6C     		ldr	r2, [r3, #68]
 2216 00b4 7B68     		ldr	r3, [r7, #4]
 2217 00b6 1B68     		ldr	r3, [r3]
 2218 00b8 22F40042 		bic	r2, r2, #32768
 2219 00bc 5A64     		str	r2, [r3, #68]
 2220              	.L127:
 826:./Libraries/STM32H7xx_HAL_Driver/Src/stm32h7xx_hal_tim_ex.c **** 
 827:./Libraries/STM32H7xx_HAL_Driver/Src/stm32h7xx_hal_tim_ex.c ****   /* Disable the Peripheral */
 828:./Libraries/STM32H7xx_HAL_Driver/Src/stm32h7xx_hal_tim_ex.c ****   __HAL_TIM_DISABLE(htim);
 2221              		.loc 1 828 3 is_stmt 1
 2222 00be 7B68     		ldr	r3, [r7, #4]
 2223 00c0 1B68     		ldr	r3, [r3]
 2224 00c2 1A6A     		ldr	r2, [r3, #32]
 2225 00c4 41F21113 		movw	r3, #4369
 2226 00c8 1340     		ands	r3, r3, r2
 2227 00ca 002B     		cmp	r3, #0
 2228 00cc 0FD1     		bne	.L128
 2229              		.loc 1 828 3 is_stmt 0 discriminator 1
 2230 00ce 7B68     		ldr	r3, [r7, #4]
 2231 00d0 1B68     		ldr	r3, [r3]
 2232 00d2 1A6A     		ldr	r2, [r3, #32]
 2233 00d4 40F24443 		movw	r3, #1092
 2234 00d8 1340     		ands	r3, r3, r2
 2235 00da 002B     		cmp	r3, #0
 2236 00dc 07D1     		bne	.L128
 2237              		.loc 1 828 3 discriminator 2
 2238 00de 7B68     		ldr	r3, [r7, #4]
 2239 00e0 1B68     		ldr	r3, [r3]
 2240 00e2 1A68     		ldr	r2, [r3]
 2241 00e4 7B68     		ldr	r3, [r7, #4]
 2242 00e6 1B68     		ldr	r3, [r3]
 2243 00e8 22F00102 		bic	r2, r2, #1
 2244 00ec 1A60     		str	r2, [r3]
 2245              	.L128:
 829:./Libraries/STM32H7xx_HAL_Driver/Src/stm32h7xx_hal_tim_ex.c **** 
 830:./Libraries/STM32H7xx_HAL_Driver/Src/stm32h7xx_hal_tim_ex.c ****   /* Set the TIM complementary channel state */
 831:./Libraries/STM32H7xx_HAL_Driver/Src/stm32h7xx_hal_tim_ex.c ****   TIM_CHANNEL_N_STATE_SET(htim, Channel, HAL_TIM_CHANNEL_STATE_READY);
 2246              		.loc 1 831 3 is_stmt 1
 2247 00ee 3B68     		ldr	r3, [r7]
 2248 00f0 002B     		cmp	r3, #0
 2249 00f2 04D1     		bne	.L129
 2250              		.loc 1 831 3 is_stmt 0 discriminator 1
ARM GAS  /tmp/ccxx2olO.s 			page 55


 2251 00f4 7B68     		ldr	r3, [r7, #4]
 2252 00f6 0122     		movs	r2, #1
 2253 00f8 83F84420 		strb	r2, [r3, #68]
 2254 00fc 13E0     		b	.L130
 2255              	.L129:
 2256              		.loc 1 831 3 discriminator 2
 2257 00fe 3B68     		ldr	r3, [r7]
 2258 0100 042B     		cmp	r3, #4
 2259 0102 04D1     		bne	.L131
 2260              		.loc 1 831 3 discriminator 3
 2261 0104 7B68     		ldr	r3, [r7, #4]
 2262 0106 0122     		movs	r2, #1
 2263 0108 83F84520 		strb	r2, [r3, #69]
 2264 010c 0BE0     		b	.L130
 2265              	.L131:
 2266              		.loc 1 831 3 discriminator 4
 2267 010e 3B68     		ldr	r3, [r7]
 2268 0110 082B     		cmp	r3, #8
 2269 0112 04D1     		bne	.L133
 2270              		.loc 1 831 3 discriminator 6
 2271 0114 7B68     		ldr	r3, [r7, #4]
 2272 0116 0122     		movs	r2, #1
 2273 0118 83F84620 		strb	r2, [r3, #70]
 2274 011c 03E0     		b	.L130
 2275              	.L133:
 2276              		.loc 1 831 3 discriminator 7
 2277 011e 7B68     		ldr	r3, [r7, #4]
 2278 0120 0122     		movs	r2, #1
 2279 0122 83F84720 		strb	r2, [r3, #71]
 2280              	.L130:
 832:./Libraries/STM32H7xx_HAL_Driver/Src/stm32h7xx_hal_tim_ex.c **** 
 833:./Libraries/STM32H7xx_HAL_Driver/Src/stm32h7xx_hal_tim_ex.c ****   /* Return function status */
 834:./Libraries/STM32H7xx_HAL_Driver/Src/stm32h7xx_hal_tim_ex.c ****   return HAL_OK;
 2281              		.loc 1 834 10 is_stmt 1
 2282 0126 0023     		movs	r3, #0
 835:./Libraries/STM32H7xx_HAL_Driver/Src/stm32h7xx_hal_tim_ex.c **** }
 2283              		.loc 1 835 1
 2284 0128 1846     		mov	r0, r3
 2285 012a 1037     		adds	r7, r7, #16
 2286              	.LCFI70:
 2287              		.cfi_def_cfa_offset 8
 2288 012c BD46     		mov	sp, r7
 2289              	.LCFI71:
 2290              		.cfi_def_cfa_register 13
 2291              		@ sp needed
 2292 012e 80BD     		pop	{r7, pc}
 2293              		.cfi_endproc
 2294              	.LFE344:
 2296              		.section	.text.HAL_TIMEx_OCN_Start_DMA,"ax",%progbits
 2297              		.align	1
 2298              		.global	HAL_TIMEx_OCN_Start_DMA
 2299              		.syntax unified
 2300              		.thumb
 2301              		.thumb_func
 2302              		.fpu fpv5-d16
 2304              	HAL_TIMEx_OCN_Start_DMA:
 2305              	.LFB345:
ARM GAS  /tmp/ccxx2olO.s 			page 56


 836:./Libraries/STM32H7xx_HAL_Driver/Src/stm32h7xx_hal_tim_ex.c **** 
 837:./Libraries/STM32H7xx_HAL_Driver/Src/stm32h7xx_hal_tim_ex.c **** /**
 838:./Libraries/STM32H7xx_HAL_Driver/Src/stm32h7xx_hal_tim_ex.c ****   * @brief  Starts the TIM Output Compare signal generation in DMA mode
 839:./Libraries/STM32H7xx_HAL_Driver/Src/stm32h7xx_hal_tim_ex.c ****   *         on the complementary output.
 840:./Libraries/STM32H7xx_HAL_Driver/Src/stm32h7xx_hal_tim_ex.c ****   * @param  htim TIM Output Compare handle
 841:./Libraries/STM32H7xx_HAL_Driver/Src/stm32h7xx_hal_tim_ex.c ****   * @param  Channel TIM Channel to be enabled
 842:./Libraries/STM32H7xx_HAL_Driver/Src/stm32h7xx_hal_tim_ex.c ****   *          This parameter can be one of the following values:
 843:./Libraries/STM32H7xx_HAL_Driver/Src/stm32h7xx_hal_tim_ex.c ****   *            @arg TIM_CHANNEL_1: TIM Channel 1 selected
 844:./Libraries/STM32H7xx_HAL_Driver/Src/stm32h7xx_hal_tim_ex.c ****   *            @arg TIM_CHANNEL_2: TIM Channel 2 selected
 845:./Libraries/STM32H7xx_HAL_Driver/Src/stm32h7xx_hal_tim_ex.c ****   *            @arg TIM_CHANNEL_3: TIM Channel 3 selected
 846:./Libraries/STM32H7xx_HAL_Driver/Src/stm32h7xx_hal_tim_ex.c ****   * @param  pData The source Buffer address.
 847:./Libraries/STM32H7xx_HAL_Driver/Src/stm32h7xx_hal_tim_ex.c ****   * @param  Length The length of data to be transferred from memory to TIM peripheral
 848:./Libraries/STM32H7xx_HAL_Driver/Src/stm32h7xx_hal_tim_ex.c ****   * @retval HAL status
 849:./Libraries/STM32H7xx_HAL_Driver/Src/stm32h7xx_hal_tim_ex.c ****   */
 850:./Libraries/STM32H7xx_HAL_Driver/Src/stm32h7xx_hal_tim_ex.c **** HAL_StatusTypeDef HAL_TIMEx_OCN_Start_DMA(TIM_HandleTypeDef *htim, uint32_t Channel, uint32_t *pDat
 851:./Libraries/STM32H7xx_HAL_Driver/Src/stm32h7xx_hal_tim_ex.c **** {
 2306              		.loc 1 851 1
 2307              		.cfi_startproc
 2308              		@ args = 0, pretend = 0, frame = 24
 2309              		@ frame_needed = 1, uses_anonymous_args = 0
 2310 0000 80B5     		push	{r7, lr}
 2311              	.LCFI72:
 2312              		.cfi_def_cfa_offset 8
 2313              		.cfi_offset 7, -8
 2314              		.cfi_offset 14, -4
 2315 0002 86B0     		sub	sp, sp, #24
 2316              	.LCFI73:
 2317              		.cfi_def_cfa_offset 32
 2318 0004 00AF     		add	r7, sp, #0
 2319              	.LCFI74:
 2320              		.cfi_def_cfa_register 7
 2321 0006 F860     		str	r0, [r7, #12]
 2322 0008 B960     		str	r1, [r7, #8]
 2323 000a 7A60     		str	r2, [r7, #4]
 2324 000c 7B80     		strh	r3, [r7, #2]	@ movhi
 852:./Libraries/STM32H7xx_HAL_Driver/Src/stm32h7xx_hal_tim_ex.c ****   uint32_t tmpsmcr;
 853:./Libraries/STM32H7xx_HAL_Driver/Src/stm32h7xx_hal_tim_ex.c **** 
 854:./Libraries/STM32H7xx_HAL_Driver/Src/stm32h7xx_hal_tim_ex.c ****   /* Check the parameters */
 855:./Libraries/STM32H7xx_HAL_Driver/Src/stm32h7xx_hal_tim_ex.c ****   assert_param(IS_TIM_CCXN_INSTANCE(htim->Instance, Channel));
 856:./Libraries/STM32H7xx_HAL_Driver/Src/stm32h7xx_hal_tim_ex.c **** 
 857:./Libraries/STM32H7xx_HAL_Driver/Src/stm32h7xx_hal_tim_ex.c ****   /* Set the TIM complementary channel state */
 858:./Libraries/STM32H7xx_HAL_Driver/Src/stm32h7xx_hal_tim_ex.c ****   if (TIM_CHANNEL_N_STATE_GET(htim, Channel) == HAL_TIM_CHANNEL_STATE_BUSY)
 2325              		.loc 1 858 46
 2326 000e BB68     		ldr	r3, [r7, #8]
 2327 0010 002B     		cmp	r3, #0
 2328 0012 09D1     		bne	.L138
 2329              		.loc 1 858 7 discriminator 1
 2330 0014 FB68     		ldr	r3, [r7, #12]
 2331 0016 93F84430 		ldrb	r3, [r3, #68]
 2332 001a DBB2     		uxtb	r3, r3
 2333              		.loc 1 858 46 discriminator 1
 2334 001c 022B     		cmp	r3, #2
 2335 001e 0CBF     		ite	eq
 2336 0020 0123     		moveq	r3, #1
 2337 0022 0023     		movne	r3, #0
 2338 0024 DBB2     		uxtb	r3, r3
 2339 0026 22E0     		b	.L139
ARM GAS  /tmp/ccxx2olO.s 			page 57


 2340              	.L138:
 2341              		.loc 1 858 46 is_stmt 0 discriminator 2
 2342 0028 BB68     		ldr	r3, [r7, #8]
 2343 002a 042B     		cmp	r3, #4
 2344 002c 09D1     		bne	.L140
 2345              		.loc 1 858 7 is_stmt 1 discriminator 4
 2346 002e FB68     		ldr	r3, [r7, #12]
 2347 0030 93F84530 		ldrb	r3, [r3, #69]
 2348 0034 DBB2     		uxtb	r3, r3
 2349              		.loc 1 858 46 discriminator 4
 2350 0036 022B     		cmp	r3, #2
 2351 0038 0CBF     		ite	eq
 2352 003a 0123     		moveq	r3, #1
 2353 003c 0023     		movne	r3, #0
 2354 003e DBB2     		uxtb	r3, r3
 2355 0040 15E0     		b	.L139
 2356              	.L140:
 2357              		.loc 1 858 46 is_stmt 0 discriminator 5
 2358 0042 BB68     		ldr	r3, [r7, #8]
 2359 0044 082B     		cmp	r3, #8
 2360 0046 09D1     		bne	.L142
 2361              		.loc 1 858 7 is_stmt 1 discriminator 7
 2362 0048 FB68     		ldr	r3, [r7, #12]
 2363 004a 93F84630 		ldrb	r3, [r3, #70]
 2364 004e DBB2     		uxtb	r3, r3
 2365              		.loc 1 858 46 discriminator 7
 2366 0050 022B     		cmp	r3, #2
 2367 0052 0CBF     		ite	eq
 2368 0054 0123     		moveq	r3, #1
 2369 0056 0023     		movne	r3, #0
 2370 0058 DBB2     		uxtb	r3, r3
 2371 005a 08E0     		b	.L139
 2372              	.L142:
 2373              		.loc 1 858 7 discriminator 8
 2374 005c FB68     		ldr	r3, [r7, #12]
 2375 005e 93F84730 		ldrb	r3, [r3, #71]
 2376 0062 DBB2     		uxtb	r3, r3
 2377              		.loc 1 858 46 discriminator 8
 2378 0064 022B     		cmp	r3, #2
 2379 0066 0CBF     		ite	eq
 2380 0068 0123     		moveq	r3, #1
 2381 006a 0023     		movne	r3, #0
 2382 006c DBB2     		uxtb	r3, r3
 2383              	.L139:
 2384              		.loc 1 858 6 discriminator 12
 2385 006e 002B     		cmp	r3, #0
 2386 0070 01D0     		beq	.L144
 859:./Libraries/STM32H7xx_HAL_Driver/Src/stm32h7xx_hal_tim_ex.c ****   {
 860:./Libraries/STM32H7xx_HAL_Driver/Src/stm32h7xx_hal_tim_ex.c ****     return HAL_BUSY;
 2387              		.loc 1 860 12
 2388 0072 0223     		movs	r3, #2
 2389 0074 25E1     		b	.L145
 2390              	.L144:
 861:./Libraries/STM32H7xx_HAL_Driver/Src/stm32h7xx_hal_tim_ex.c ****   }
 862:./Libraries/STM32H7xx_HAL_Driver/Src/stm32h7xx_hal_tim_ex.c ****   else if (TIM_CHANNEL_N_STATE_GET(htim, Channel) == HAL_TIM_CHANNEL_STATE_READY)
 2391              		.loc 1 862 51
 2392 0076 BB68     		ldr	r3, [r7, #8]
ARM GAS  /tmp/ccxx2olO.s 			page 58


 2393 0078 002B     		cmp	r3, #0
 2394 007a 09D1     		bne	.L146
 2395              		.loc 1 862 12 discriminator 1
 2396 007c FB68     		ldr	r3, [r7, #12]
 2397 007e 93F84430 		ldrb	r3, [r3, #68]
 2398 0082 DBB2     		uxtb	r3, r3
 2399              		.loc 1 862 51 discriminator 1
 2400 0084 012B     		cmp	r3, #1
 2401 0086 0CBF     		ite	eq
 2402 0088 0123     		moveq	r3, #1
 2403 008a 0023     		movne	r3, #0
 2404 008c DBB2     		uxtb	r3, r3
 2405 008e 22E0     		b	.L147
 2406              	.L146:
 2407              		.loc 1 862 51 is_stmt 0 discriminator 2
 2408 0090 BB68     		ldr	r3, [r7, #8]
 2409 0092 042B     		cmp	r3, #4
 2410 0094 09D1     		bne	.L148
 2411              		.loc 1 862 12 is_stmt 1 discriminator 4
 2412 0096 FB68     		ldr	r3, [r7, #12]
 2413 0098 93F84530 		ldrb	r3, [r3, #69]
 2414 009c DBB2     		uxtb	r3, r3
 2415              		.loc 1 862 51 discriminator 4
 2416 009e 012B     		cmp	r3, #1
 2417 00a0 0CBF     		ite	eq
 2418 00a2 0123     		moveq	r3, #1
 2419 00a4 0023     		movne	r3, #0
 2420 00a6 DBB2     		uxtb	r3, r3
 2421 00a8 15E0     		b	.L147
 2422              	.L148:
 2423              		.loc 1 862 51 is_stmt 0 discriminator 5
 2424 00aa BB68     		ldr	r3, [r7, #8]
 2425 00ac 082B     		cmp	r3, #8
 2426 00ae 09D1     		bne	.L150
 2427              		.loc 1 862 12 is_stmt 1 discriminator 7
 2428 00b0 FB68     		ldr	r3, [r7, #12]
 2429 00b2 93F84630 		ldrb	r3, [r3, #70]
 2430 00b6 DBB2     		uxtb	r3, r3
 2431              		.loc 1 862 51 discriminator 7
 2432 00b8 012B     		cmp	r3, #1
 2433 00ba 0CBF     		ite	eq
 2434 00bc 0123     		moveq	r3, #1
 2435 00be 0023     		movne	r3, #0
 2436 00c0 DBB2     		uxtb	r3, r3
 2437 00c2 08E0     		b	.L147
 2438              	.L150:
 2439              		.loc 1 862 12 discriminator 8
 2440 00c4 FB68     		ldr	r3, [r7, #12]
 2441 00c6 93F84730 		ldrb	r3, [r3, #71]
 2442 00ca DBB2     		uxtb	r3, r3
 2443              		.loc 1 862 51 discriminator 8
 2444 00cc 012B     		cmp	r3, #1
 2445 00ce 0CBF     		ite	eq
 2446 00d0 0123     		moveq	r3, #1
 2447 00d2 0023     		movne	r3, #0
 2448 00d4 DBB2     		uxtb	r3, r3
 2449              	.L147:
ARM GAS  /tmp/ccxx2olO.s 			page 59


 2450              		.loc 1 862 11 discriminator 12
 2451 00d6 002B     		cmp	r3, #0
 2452 00d8 24D0     		beq	.L152
 863:./Libraries/STM32H7xx_HAL_Driver/Src/stm32h7xx_hal_tim_ex.c ****   {
 864:./Libraries/STM32H7xx_HAL_Driver/Src/stm32h7xx_hal_tim_ex.c ****     if ((pData == NULL) && (Length > 0U))
 2453              		.loc 1 864 8
 2454 00da 7B68     		ldr	r3, [r7, #4]
 2455 00dc 002B     		cmp	r3, #0
 2456 00de 04D1     		bne	.L153
 2457              		.loc 1 864 25 discriminator 1
 2458 00e0 7B88     		ldrh	r3, [r7, #2]
 2459 00e2 002B     		cmp	r3, #0
 2460 00e4 01D0     		beq	.L153
 865:./Libraries/STM32H7xx_HAL_Driver/Src/stm32h7xx_hal_tim_ex.c ****     {
 866:./Libraries/STM32H7xx_HAL_Driver/Src/stm32h7xx_hal_tim_ex.c ****       return HAL_ERROR;
 2461              		.loc 1 866 14
 2462 00e6 0123     		movs	r3, #1
 2463 00e8 EBE0     		b	.L145
 2464              	.L153:
 867:./Libraries/STM32H7xx_HAL_Driver/Src/stm32h7xx_hal_tim_ex.c ****     }
 868:./Libraries/STM32H7xx_HAL_Driver/Src/stm32h7xx_hal_tim_ex.c ****     else
 869:./Libraries/STM32H7xx_HAL_Driver/Src/stm32h7xx_hal_tim_ex.c ****     {
 870:./Libraries/STM32H7xx_HAL_Driver/Src/stm32h7xx_hal_tim_ex.c ****       TIM_CHANNEL_N_STATE_SET(htim, Channel, HAL_TIM_CHANNEL_STATE_BUSY);
 2465              		.loc 1 870 7
 2466 00ea BB68     		ldr	r3, [r7, #8]
 2467 00ec 002B     		cmp	r3, #0
 2468 00ee 04D1     		bne	.L154
 2469              		.loc 1 870 7 is_stmt 0 discriminator 1
 2470 00f0 FB68     		ldr	r3, [r7, #12]
 2471 00f2 0222     		movs	r2, #2
 2472 00f4 83F84420 		strb	r2, [r3, #68]
 2473 00f8 16E0     		b	.L155
 2474              	.L154:
 2475              		.loc 1 870 7 discriminator 2
 2476 00fa BB68     		ldr	r3, [r7, #8]
 2477 00fc 042B     		cmp	r3, #4
 2478 00fe 04D1     		bne	.L156
 2479              		.loc 1 870 7 discriminator 3
 2480 0100 FB68     		ldr	r3, [r7, #12]
 2481 0102 0222     		movs	r2, #2
 2482 0104 83F84520 		strb	r2, [r3, #69]
 2483 0108 0EE0     		b	.L155
 2484              	.L156:
 2485              		.loc 1 870 7 discriminator 4
 2486 010a BB68     		ldr	r3, [r7, #8]
 2487 010c 082B     		cmp	r3, #8
 2488 010e 04D1     		bne	.L158
 2489              		.loc 1 870 7 discriminator 6
 2490 0110 FB68     		ldr	r3, [r7, #12]
 2491 0112 0222     		movs	r2, #2
 2492 0114 83F84620 		strb	r2, [r3, #70]
 2493 0118 06E0     		b	.L155
 2494              	.L158:
 2495              		.loc 1 870 7 discriminator 7
 2496 011a FB68     		ldr	r3, [r7, #12]
 2497 011c 0222     		movs	r2, #2
 2498 011e 83F84720 		strb	r2, [r3, #71]
ARM GAS  /tmp/ccxx2olO.s 			page 60


 2499 0122 01E0     		b	.L155
 2500              	.L152:
 871:./Libraries/STM32H7xx_HAL_Driver/Src/stm32h7xx_hal_tim_ex.c ****     }
 872:./Libraries/STM32H7xx_HAL_Driver/Src/stm32h7xx_hal_tim_ex.c ****   }
 873:./Libraries/STM32H7xx_HAL_Driver/Src/stm32h7xx_hal_tim_ex.c ****   else
 874:./Libraries/STM32H7xx_HAL_Driver/Src/stm32h7xx_hal_tim_ex.c ****   {
 875:./Libraries/STM32H7xx_HAL_Driver/Src/stm32h7xx_hal_tim_ex.c ****     return HAL_ERROR;
 2501              		.loc 1 875 12 is_stmt 1
 2502 0124 0123     		movs	r3, #1
 2503 0126 CCE0     		b	.L145
 2504              	.L155:
 876:./Libraries/STM32H7xx_HAL_Driver/Src/stm32h7xx_hal_tim_ex.c ****   }
 877:./Libraries/STM32H7xx_HAL_Driver/Src/stm32h7xx_hal_tim_ex.c **** 
 878:./Libraries/STM32H7xx_HAL_Driver/Src/stm32h7xx_hal_tim_ex.c ****   switch (Channel)
 2505              		.loc 1 878 3
 2506 0128 BB68     		ldr	r3, [r7, #8]
 2507 012a 082B     		cmp	r3, #8
 2508 012c 51D0     		beq	.L160
 2509 012e BB68     		ldr	r3, [r7, #8]
 2510 0130 082B     		cmp	r3, #8
 2511 0132 72D8     		bhi	.L172
 2512 0134 BB68     		ldr	r3, [r7, #8]
 2513 0136 002B     		cmp	r3, #0
 2514 0138 03D0     		beq	.L162
 2515 013a BB68     		ldr	r3, [r7, #8]
 2516 013c 042B     		cmp	r3, #4
 2517 013e 24D0     		beq	.L163
 879:./Libraries/STM32H7xx_HAL_Driver/Src/stm32h7xx_hal_tim_ex.c ****   {
 880:./Libraries/STM32H7xx_HAL_Driver/Src/stm32h7xx_hal_tim_ex.c ****     case TIM_CHANNEL_1:
 881:./Libraries/STM32H7xx_HAL_Driver/Src/stm32h7xx_hal_tim_ex.c ****     {
 882:./Libraries/STM32H7xx_HAL_Driver/Src/stm32h7xx_hal_tim_ex.c ****       /* Set the DMA compare callbacks */
 883:./Libraries/STM32H7xx_HAL_Driver/Src/stm32h7xx_hal_tim_ex.c ****       htim->hdma[TIM_DMA_ID_CC1]->XferCpltCallback = TIM_DMADelayPulseNCplt;
 884:./Libraries/STM32H7xx_HAL_Driver/Src/stm32h7xx_hal_tim_ex.c ****       htim->hdma[TIM_DMA_ID_CC1]->XferHalfCpltCallback = TIM_DMADelayPulseHalfCplt;
 885:./Libraries/STM32H7xx_HAL_Driver/Src/stm32h7xx_hal_tim_ex.c **** 
 886:./Libraries/STM32H7xx_HAL_Driver/Src/stm32h7xx_hal_tim_ex.c ****       /* Set the DMA error callback */
 887:./Libraries/STM32H7xx_HAL_Driver/Src/stm32h7xx_hal_tim_ex.c ****       htim->hdma[TIM_DMA_ID_CC1]->XferErrorCallback = TIM_DMAErrorCCxN ;
 888:./Libraries/STM32H7xx_HAL_Driver/Src/stm32h7xx_hal_tim_ex.c **** 
 889:./Libraries/STM32H7xx_HAL_Driver/Src/stm32h7xx_hal_tim_ex.c ****       /* Enable the DMA stream */
 890:./Libraries/STM32H7xx_HAL_Driver/Src/stm32h7xx_hal_tim_ex.c ****       if (HAL_DMA_Start_IT(htim->hdma[TIM_DMA_ID_CC1], (uint32_t)pData, (uint32_t)&htim->Instance->
 891:./Libraries/STM32H7xx_HAL_Driver/Src/stm32h7xx_hal_tim_ex.c ****       {
 892:./Libraries/STM32H7xx_HAL_Driver/Src/stm32h7xx_hal_tim_ex.c ****         /* Return error status */
 893:./Libraries/STM32H7xx_HAL_Driver/Src/stm32h7xx_hal_tim_ex.c ****         return HAL_ERROR;
 894:./Libraries/STM32H7xx_HAL_Driver/Src/stm32h7xx_hal_tim_ex.c ****       }
 895:./Libraries/STM32H7xx_HAL_Driver/Src/stm32h7xx_hal_tim_ex.c ****       /* Enable the TIM Output Compare DMA request */
 896:./Libraries/STM32H7xx_HAL_Driver/Src/stm32h7xx_hal_tim_ex.c ****       __HAL_TIM_ENABLE_DMA(htim, TIM_DMA_CC1);
 897:./Libraries/STM32H7xx_HAL_Driver/Src/stm32h7xx_hal_tim_ex.c ****       break;
 898:./Libraries/STM32H7xx_HAL_Driver/Src/stm32h7xx_hal_tim_ex.c ****     }
 899:./Libraries/STM32H7xx_HAL_Driver/Src/stm32h7xx_hal_tim_ex.c **** 
 900:./Libraries/STM32H7xx_HAL_Driver/Src/stm32h7xx_hal_tim_ex.c ****     case TIM_CHANNEL_2:
 901:./Libraries/STM32H7xx_HAL_Driver/Src/stm32h7xx_hal_tim_ex.c ****     {
 902:./Libraries/STM32H7xx_HAL_Driver/Src/stm32h7xx_hal_tim_ex.c ****       /* Set the DMA compare callbacks */
 903:./Libraries/STM32H7xx_HAL_Driver/Src/stm32h7xx_hal_tim_ex.c ****       htim->hdma[TIM_DMA_ID_CC2]->XferCpltCallback = TIM_DMADelayPulseNCplt;
 904:./Libraries/STM32H7xx_HAL_Driver/Src/stm32h7xx_hal_tim_ex.c ****       htim->hdma[TIM_DMA_ID_CC2]->XferHalfCpltCallback = TIM_DMADelayPulseHalfCplt;
 905:./Libraries/STM32H7xx_HAL_Driver/Src/stm32h7xx_hal_tim_ex.c **** 
 906:./Libraries/STM32H7xx_HAL_Driver/Src/stm32h7xx_hal_tim_ex.c ****       /* Set the DMA error callback */
 907:./Libraries/STM32H7xx_HAL_Driver/Src/stm32h7xx_hal_tim_ex.c ****       htim->hdma[TIM_DMA_ID_CC2]->XferErrorCallback = TIM_DMAErrorCCxN ;
 908:./Libraries/STM32H7xx_HAL_Driver/Src/stm32h7xx_hal_tim_ex.c **** 
ARM GAS  /tmp/ccxx2olO.s 			page 61


 909:./Libraries/STM32H7xx_HAL_Driver/Src/stm32h7xx_hal_tim_ex.c ****       /* Enable the DMA stream */
 910:./Libraries/STM32H7xx_HAL_Driver/Src/stm32h7xx_hal_tim_ex.c ****       if (HAL_DMA_Start_IT(htim->hdma[TIM_DMA_ID_CC2], (uint32_t)pData, (uint32_t)&htim->Instance->
 911:./Libraries/STM32H7xx_HAL_Driver/Src/stm32h7xx_hal_tim_ex.c ****       {
 912:./Libraries/STM32H7xx_HAL_Driver/Src/stm32h7xx_hal_tim_ex.c ****         /* Return error status */
 913:./Libraries/STM32H7xx_HAL_Driver/Src/stm32h7xx_hal_tim_ex.c ****         return HAL_ERROR;
 914:./Libraries/STM32H7xx_HAL_Driver/Src/stm32h7xx_hal_tim_ex.c ****       }
 915:./Libraries/STM32H7xx_HAL_Driver/Src/stm32h7xx_hal_tim_ex.c ****       /* Enable the TIM Output Compare DMA request */
 916:./Libraries/STM32H7xx_HAL_Driver/Src/stm32h7xx_hal_tim_ex.c ****       __HAL_TIM_ENABLE_DMA(htim, TIM_DMA_CC2);
 917:./Libraries/STM32H7xx_HAL_Driver/Src/stm32h7xx_hal_tim_ex.c ****       break;
 918:./Libraries/STM32H7xx_HAL_Driver/Src/stm32h7xx_hal_tim_ex.c ****     }
 919:./Libraries/STM32H7xx_HAL_Driver/Src/stm32h7xx_hal_tim_ex.c **** 
 920:./Libraries/STM32H7xx_HAL_Driver/Src/stm32h7xx_hal_tim_ex.c ****     case TIM_CHANNEL_3:
 921:./Libraries/STM32H7xx_HAL_Driver/Src/stm32h7xx_hal_tim_ex.c ****     {
 922:./Libraries/STM32H7xx_HAL_Driver/Src/stm32h7xx_hal_tim_ex.c ****       /* Set the DMA compare callbacks */
 923:./Libraries/STM32H7xx_HAL_Driver/Src/stm32h7xx_hal_tim_ex.c ****       htim->hdma[TIM_DMA_ID_CC3]->XferCpltCallback = TIM_DMADelayPulseNCplt;
 924:./Libraries/STM32H7xx_HAL_Driver/Src/stm32h7xx_hal_tim_ex.c ****       htim->hdma[TIM_DMA_ID_CC3]->XferHalfCpltCallback = TIM_DMADelayPulseHalfCplt;
 925:./Libraries/STM32H7xx_HAL_Driver/Src/stm32h7xx_hal_tim_ex.c **** 
 926:./Libraries/STM32H7xx_HAL_Driver/Src/stm32h7xx_hal_tim_ex.c ****       /* Set the DMA error callback */
 927:./Libraries/STM32H7xx_HAL_Driver/Src/stm32h7xx_hal_tim_ex.c ****       htim->hdma[TIM_DMA_ID_CC3]->XferErrorCallback = TIM_DMAErrorCCxN ;
 928:./Libraries/STM32H7xx_HAL_Driver/Src/stm32h7xx_hal_tim_ex.c **** 
 929:./Libraries/STM32H7xx_HAL_Driver/Src/stm32h7xx_hal_tim_ex.c ****       /* Enable the DMA stream */
 930:./Libraries/STM32H7xx_HAL_Driver/Src/stm32h7xx_hal_tim_ex.c ****       if (HAL_DMA_Start_IT(htim->hdma[TIM_DMA_ID_CC3], (uint32_t)pData, (uint32_t)&htim->Instance->
 931:./Libraries/STM32H7xx_HAL_Driver/Src/stm32h7xx_hal_tim_ex.c ****       {
 932:./Libraries/STM32H7xx_HAL_Driver/Src/stm32h7xx_hal_tim_ex.c ****         /* Return error status */
 933:./Libraries/STM32H7xx_HAL_Driver/Src/stm32h7xx_hal_tim_ex.c ****         return HAL_ERROR;
 934:./Libraries/STM32H7xx_HAL_Driver/Src/stm32h7xx_hal_tim_ex.c ****       }
 935:./Libraries/STM32H7xx_HAL_Driver/Src/stm32h7xx_hal_tim_ex.c ****       /* Enable the TIM Output Compare DMA request */
 936:./Libraries/STM32H7xx_HAL_Driver/Src/stm32h7xx_hal_tim_ex.c ****       __HAL_TIM_ENABLE_DMA(htim, TIM_DMA_CC3);
 937:./Libraries/STM32H7xx_HAL_Driver/Src/stm32h7xx_hal_tim_ex.c ****       break;
 938:./Libraries/STM32H7xx_HAL_Driver/Src/stm32h7xx_hal_tim_ex.c ****     }
 939:./Libraries/STM32H7xx_HAL_Driver/Src/stm32h7xx_hal_tim_ex.c **** 
 940:./Libraries/STM32H7xx_HAL_Driver/Src/stm32h7xx_hal_tim_ex.c ****     default:
 941:./Libraries/STM32H7xx_HAL_Driver/Src/stm32h7xx_hal_tim_ex.c ****       break;
 2518              		.loc 1 941 7
 2519 0140 6BE0     		b	.L172
 2520              	.L162:
 883:./Libraries/STM32H7xx_HAL_Driver/Src/stm32h7xx_hal_tim_ex.c ****       htim->hdma[TIM_DMA_ID_CC1]->XferHalfCpltCallback = TIM_DMADelayPulseHalfCplt;
 2521              		.loc 1 883 17
 2522 0142 FB68     		ldr	r3, [r7, #12]
 2523 0144 5B6A     		ldr	r3, [r3, #36]
 883:./Libraries/STM32H7xx_HAL_Driver/Src/stm32h7xx_hal_tim_ex.c ****       htim->hdma[TIM_DMA_ID_CC1]->XferHalfCpltCallback = TIM_DMADelayPulseHalfCplt;
 2524              		.loc 1 883 52
 2525 0146 614A     		ldr	r2, .L174
 2526 0148 DA63     		str	r2, [r3, #60]
 884:./Libraries/STM32H7xx_HAL_Driver/Src/stm32h7xx_hal_tim_ex.c **** 
 2527              		.loc 1 884 17
 2528 014a FB68     		ldr	r3, [r7, #12]
 2529 014c 5B6A     		ldr	r3, [r3, #36]
 884:./Libraries/STM32H7xx_HAL_Driver/Src/stm32h7xx_hal_tim_ex.c **** 
 2530              		.loc 1 884 56
 2531 014e 604A     		ldr	r2, .L174+4
 2532 0150 1A64     		str	r2, [r3, #64]
 887:./Libraries/STM32H7xx_HAL_Driver/Src/stm32h7xx_hal_tim_ex.c **** 
 2533              		.loc 1 887 17
 2534 0152 FB68     		ldr	r3, [r7, #12]
 2535 0154 5B6A     		ldr	r3, [r3, #36]
 887:./Libraries/STM32H7xx_HAL_Driver/Src/stm32h7xx_hal_tim_ex.c **** 
ARM GAS  /tmp/ccxx2olO.s 			page 62


 2536              		.loc 1 887 53
 2537 0156 5F4A     		ldr	r2, .L174+8
 2538 0158 DA64     		str	r2, [r3, #76]
 890:./Libraries/STM32H7xx_HAL_Driver/Src/stm32h7xx_hal_tim_ex.c ****       {
 2539              		.loc 1 890 11
 2540 015a FB68     		ldr	r3, [r7, #12]
 2541 015c 586A     		ldr	r0, [r3, #36]
 2542 015e 7968     		ldr	r1, [r7, #4]
 890:./Libraries/STM32H7xx_HAL_Driver/Src/stm32h7xx_hal_tim_ex.c ****       {
 2543              		.loc 1 890 88
 2544 0160 FB68     		ldr	r3, [r7, #12]
 2545 0162 1B68     		ldr	r3, [r3]
 890:./Libraries/STM32H7xx_HAL_Driver/Src/stm32h7xx_hal_tim_ex.c ****       {
 2546              		.loc 1 890 83
 2547 0164 3433     		adds	r3, r3, #52
 890:./Libraries/STM32H7xx_HAL_Driver/Src/stm32h7xx_hal_tim_ex.c ****       {
 2548              		.loc 1 890 11
 2549 0166 1A46     		mov	r2, r3
 2550 0168 7B88     		ldrh	r3, [r7, #2]
 2551 016a FFF7FEFF 		bl	HAL_DMA_Start_IT
 2552 016e 0346     		mov	r3, r0
 890:./Libraries/STM32H7xx_HAL_Driver/Src/stm32h7xx_hal_tim_ex.c ****       {
 2553              		.loc 1 890 10
 2554 0170 002B     		cmp	r3, #0
 2555 0172 01D0     		beq	.L164
 893:./Libraries/STM32H7xx_HAL_Driver/Src/stm32h7xx_hal_tim_ex.c ****       }
 2556              		.loc 1 893 16
 2557 0174 0123     		movs	r3, #1
 2558 0176 A4E0     		b	.L145
 2559              	.L164:
 896:./Libraries/STM32H7xx_HAL_Driver/Src/stm32h7xx_hal_tim_ex.c ****       break;
 2560              		.loc 1 896 7
 2561 0178 FB68     		ldr	r3, [r7, #12]
 2562 017a 1B68     		ldr	r3, [r3]
 2563 017c DA68     		ldr	r2, [r3, #12]
 2564 017e FB68     		ldr	r3, [r7, #12]
 2565 0180 1B68     		ldr	r3, [r3]
 2566 0182 42F40072 		orr	r2, r2, #512
 2567 0186 DA60     		str	r2, [r3, #12]
 897:./Libraries/STM32H7xx_HAL_Driver/Src/stm32h7xx_hal_tim_ex.c ****     }
 2568              		.loc 1 897 7
 2569 0188 48E0     		b	.L165
 2570              	.L163:
 903:./Libraries/STM32H7xx_HAL_Driver/Src/stm32h7xx_hal_tim_ex.c ****       htim->hdma[TIM_DMA_ID_CC2]->XferHalfCpltCallback = TIM_DMADelayPulseHalfCplt;
 2571              		.loc 1 903 17
 2572 018a FB68     		ldr	r3, [r7, #12]
 2573 018c 9B6A     		ldr	r3, [r3, #40]
 903:./Libraries/STM32H7xx_HAL_Driver/Src/stm32h7xx_hal_tim_ex.c ****       htim->hdma[TIM_DMA_ID_CC2]->XferHalfCpltCallback = TIM_DMADelayPulseHalfCplt;
 2574              		.loc 1 903 52
 2575 018e 4F4A     		ldr	r2, .L174
 2576 0190 DA63     		str	r2, [r3, #60]
 904:./Libraries/STM32H7xx_HAL_Driver/Src/stm32h7xx_hal_tim_ex.c **** 
 2577              		.loc 1 904 17
 2578 0192 FB68     		ldr	r3, [r7, #12]
 2579 0194 9B6A     		ldr	r3, [r3, #40]
 904:./Libraries/STM32H7xx_HAL_Driver/Src/stm32h7xx_hal_tim_ex.c **** 
 2580              		.loc 1 904 56
ARM GAS  /tmp/ccxx2olO.s 			page 63


 2581 0196 4E4A     		ldr	r2, .L174+4
 2582 0198 1A64     		str	r2, [r3, #64]
 907:./Libraries/STM32H7xx_HAL_Driver/Src/stm32h7xx_hal_tim_ex.c **** 
 2583              		.loc 1 907 17
 2584 019a FB68     		ldr	r3, [r7, #12]
 2585 019c 9B6A     		ldr	r3, [r3, #40]
 907:./Libraries/STM32H7xx_HAL_Driver/Src/stm32h7xx_hal_tim_ex.c **** 
 2586              		.loc 1 907 53
 2587 019e 4D4A     		ldr	r2, .L174+8
 2588 01a0 DA64     		str	r2, [r3, #76]
 910:./Libraries/STM32H7xx_HAL_Driver/Src/stm32h7xx_hal_tim_ex.c ****       {
 2589              		.loc 1 910 11
 2590 01a2 FB68     		ldr	r3, [r7, #12]
 2591 01a4 986A     		ldr	r0, [r3, #40]
 2592 01a6 7968     		ldr	r1, [r7, #4]
 910:./Libraries/STM32H7xx_HAL_Driver/Src/stm32h7xx_hal_tim_ex.c ****       {
 2593              		.loc 1 910 88
 2594 01a8 FB68     		ldr	r3, [r7, #12]
 2595 01aa 1B68     		ldr	r3, [r3]
 910:./Libraries/STM32H7xx_HAL_Driver/Src/stm32h7xx_hal_tim_ex.c ****       {
 2596              		.loc 1 910 83
 2597 01ac 3833     		adds	r3, r3, #56
 910:./Libraries/STM32H7xx_HAL_Driver/Src/stm32h7xx_hal_tim_ex.c ****       {
 2598              		.loc 1 910 11
 2599 01ae 1A46     		mov	r2, r3
 2600 01b0 7B88     		ldrh	r3, [r7, #2]
 2601 01b2 FFF7FEFF 		bl	HAL_DMA_Start_IT
 2602 01b6 0346     		mov	r3, r0
 910:./Libraries/STM32H7xx_HAL_Driver/Src/stm32h7xx_hal_tim_ex.c ****       {
 2603              		.loc 1 910 10
 2604 01b8 002B     		cmp	r3, #0
 2605 01ba 01D0     		beq	.L166
 913:./Libraries/STM32H7xx_HAL_Driver/Src/stm32h7xx_hal_tim_ex.c ****       }
 2606              		.loc 1 913 16
 2607 01bc 0123     		movs	r3, #1
 2608 01be 80E0     		b	.L145
 2609              	.L166:
 916:./Libraries/STM32H7xx_HAL_Driver/Src/stm32h7xx_hal_tim_ex.c ****       break;
 2610              		.loc 1 916 7
 2611 01c0 FB68     		ldr	r3, [r7, #12]
 2612 01c2 1B68     		ldr	r3, [r3]
 2613 01c4 DA68     		ldr	r2, [r3, #12]
 2614 01c6 FB68     		ldr	r3, [r7, #12]
 2615 01c8 1B68     		ldr	r3, [r3]
 2616 01ca 42F48062 		orr	r2, r2, #1024
 2617 01ce DA60     		str	r2, [r3, #12]
 917:./Libraries/STM32H7xx_HAL_Driver/Src/stm32h7xx_hal_tim_ex.c ****     }
 2618              		.loc 1 917 7
 2619 01d0 24E0     		b	.L165
 2620              	.L160:
 923:./Libraries/STM32H7xx_HAL_Driver/Src/stm32h7xx_hal_tim_ex.c ****       htim->hdma[TIM_DMA_ID_CC3]->XferHalfCpltCallback = TIM_DMADelayPulseHalfCplt;
 2621              		.loc 1 923 17
 2622 01d2 FB68     		ldr	r3, [r7, #12]
 2623 01d4 DB6A     		ldr	r3, [r3, #44]
 923:./Libraries/STM32H7xx_HAL_Driver/Src/stm32h7xx_hal_tim_ex.c ****       htim->hdma[TIM_DMA_ID_CC3]->XferHalfCpltCallback = TIM_DMADelayPulseHalfCplt;
 2624              		.loc 1 923 52
 2625 01d6 3D4A     		ldr	r2, .L174
ARM GAS  /tmp/ccxx2olO.s 			page 64


 2626 01d8 DA63     		str	r2, [r3, #60]
 924:./Libraries/STM32H7xx_HAL_Driver/Src/stm32h7xx_hal_tim_ex.c **** 
 2627              		.loc 1 924 17
 2628 01da FB68     		ldr	r3, [r7, #12]
 2629 01dc DB6A     		ldr	r3, [r3, #44]
 924:./Libraries/STM32H7xx_HAL_Driver/Src/stm32h7xx_hal_tim_ex.c **** 
 2630              		.loc 1 924 56
 2631 01de 3C4A     		ldr	r2, .L174+4
 2632 01e0 1A64     		str	r2, [r3, #64]
 927:./Libraries/STM32H7xx_HAL_Driver/Src/stm32h7xx_hal_tim_ex.c **** 
 2633              		.loc 1 927 17
 2634 01e2 FB68     		ldr	r3, [r7, #12]
 2635 01e4 DB6A     		ldr	r3, [r3, #44]
 927:./Libraries/STM32H7xx_HAL_Driver/Src/stm32h7xx_hal_tim_ex.c **** 
 2636              		.loc 1 927 53
 2637 01e6 3B4A     		ldr	r2, .L174+8
 2638 01e8 DA64     		str	r2, [r3, #76]
 930:./Libraries/STM32H7xx_HAL_Driver/Src/stm32h7xx_hal_tim_ex.c ****       {
 2639              		.loc 1 930 11
 2640 01ea FB68     		ldr	r3, [r7, #12]
 2641 01ec D86A     		ldr	r0, [r3, #44]
 2642 01ee 7968     		ldr	r1, [r7, #4]
 930:./Libraries/STM32H7xx_HAL_Driver/Src/stm32h7xx_hal_tim_ex.c ****       {
 2643              		.loc 1 930 88
 2644 01f0 FB68     		ldr	r3, [r7, #12]
 2645 01f2 1B68     		ldr	r3, [r3]
 930:./Libraries/STM32H7xx_HAL_Driver/Src/stm32h7xx_hal_tim_ex.c ****       {
 2646              		.loc 1 930 83
 2647 01f4 3C33     		adds	r3, r3, #60
 930:./Libraries/STM32H7xx_HAL_Driver/Src/stm32h7xx_hal_tim_ex.c ****       {
 2648              		.loc 1 930 11
 2649 01f6 1A46     		mov	r2, r3
 2650 01f8 7B88     		ldrh	r3, [r7, #2]
 2651 01fa FFF7FEFF 		bl	HAL_DMA_Start_IT
 2652 01fe 0346     		mov	r3, r0
 930:./Libraries/STM32H7xx_HAL_Driver/Src/stm32h7xx_hal_tim_ex.c ****       {
 2653              		.loc 1 930 10
 2654 0200 002B     		cmp	r3, #0
 2655 0202 01D0     		beq	.L167
 933:./Libraries/STM32H7xx_HAL_Driver/Src/stm32h7xx_hal_tim_ex.c ****       }
 2656              		.loc 1 933 16
 2657 0204 0123     		movs	r3, #1
 2658 0206 5CE0     		b	.L145
 2659              	.L167:
 936:./Libraries/STM32H7xx_HAL_Driver/Src/stm32h7xx_hal_tim_ex.c ****       break;
 2660              		.loc 1 936 7
 2661 0208 FB68     		ldr	r3, [r7, #12]
 2662 020a 1B68     		ldr	r3, [r3]
 2663 020c DA68     		ldr	r2, [r3, #12]
 2664 020e FB68     		ldr	r3, [r7, #12]
 2665 0210 1B68     		ldr	r3, [r3]
 2666 0212 42F40062 		orr	r2, r2, #2048
 2667 0216 DA60     		str	r2, [r3, #12]
 937:./Libraries/STM32H7xx_HAL_Driver/Src/stm32h7xx_hal_tim_ex.c ****     }
 2668              		.loc 1 937 7
 2669 0218 00E0     		b	.L165
 2670              	.L172:
ARM GAS  /tmp/ccxx2olO.s 			page 65


 2671              		.loc 1 941 7
 2672 021a 00BF     		nop
 2673              	.L165:
 942:./Libraries/STM32H7xx_HAL_Driver/Src/stm32h7xx_hal_tim_ex.c ****   }
 943:./Libraries/STM32H7xx_HAL_Driver/Src/stm32h7xx_hal_tim_ex.c **** 
 944:./Libraries/STM32H7xx_HAL_Driver/Src/stm32h7xx_hal_tim_ex.c ****   /* Enable the Capture compare channel N */
 945:./Libraries/STM32H7xx_HAL_Driver/Src/stm32h7xx_hal_tim_ex.c ****   TIM_CCxNChannelCmd(htim->Instance, Channel, TIM_CCxN_ENABLE);
 2674              		.loc 1 945 3
 2675 021c FB68     		ldr	r3, [r7, #12]
 2676 021e 1B68     		ldr	r3, [r3]
 2677 0220 0422     		movs	r2, #4
 2678 0222 B968     		ldr	r1, [r7, #8]
 2679 0224 1846     		mov	r0, r3
 2680 0226 FFF7FEFF 		bl	TIM_CCxNChannelCmd
 946:./Libraries/STM32H7xx_HAL_Driver/Src/stm32h7xx_hal_tim_ex.c **** 
 947:./Libraries/STM32H7xx_HAL_Driver/Src/stm32h7xx_hal_tim_ex.c ****   /* Enable the Main Output */
 948:./Libraries/STM32H7xx_HAL_Driver/Src/stm32h7xx_hal_tim_ex.c ****   __HAL_TIM_MOE_ENABLE(htim);
 2681              		.loc 1 948 3
 2682 022a FB68     		ldr	r3, [r7, #12]
 2683 022c 1B68     		ldr	r3, [r3]
 2684 022e 5A6C     		ldr	r2, [r3, #68]
 2685 0230 FB68     		ldr	r3, [r7, #12]
 2686 0232 1B68     		ldr	r3, [r3]
 2687 0234 42F40042 		orr	r2, r2, #32768
 2688 0238 5A64     		str	r2, [r3, #68]
 949:./Libraries/STM32H7xx_HAL_Driver/Src/stm32h7xx_hal_tim_ex.c **** 
 950:./Libraries/STM32H7xx_HAL_Driver/Src/stm32h7xx_hal_tim_ex.c ****   /* Enable the Peripheral, except in trigger mode where enable is automatically done with trigger 
 951:./Libraries/STM32H7xx_HAL_Driver/Src/stm32h7xx_hal_tim_ex.c ****   if (IS_TIM_SLAVE_INSTANCE(htim->Instance))
 2689              		.loc 1 951 7
 2690 023a FB68     		ldr	r3, [r7, #12]
 2691 023c 1B68     		ldr	r3, [r3]
 2692              		.loc 1 951 6
 2693 023e 264A     		ldr	r2, .L174+12
 2694 0240 9342     		cmp	r3, r2
 2695 0242 1DD0     		beq	.L168
 2696              		.loc 1 951 7 discriminator 1
 2697 0244 FB68     		ldr	r3, [r7, #12]
 2698 0246 1B68     		ldr	r3, [r3]
 2699 0248 B3F1804F 		cmp	r3, #1073741824
 2700 024c 18D0     		beq	.L168
 2701              		.loc 1 951 7 is_stmt 0 discriminator 2
 2702 024e FB68     		ldr	r3, [r7, #12]
 2703 0250 1B68     		ldr	r3, [r3]
 2704 0252 224A     		ldr	r2, .L174+16
 2705 0254 9342     		cmp	r3, r2
 2706 0256 13D0     		beq	.L168
 2707              		.loc 1 951 7 discriminator 3
 2708 0258 FB68     		ldr	r3, [r7, #12]
 2709 025a 1B68     		ldr	r3, [r3]
 2710 025c 204A     		ldr	r2, .L174+20
 2711 025e 9342     		cmp	r3, r2
 2712 0260 0ED0     		beq	.L168
 2713              		.loc 1 951 7 discriminator 4
 2714 0262 FB68     		ldr	r3, [r7, #12]
 2715 0264 1B68     		ldr	r3, [r3]
 2716 0266 1F4A     		ldr	r2, .L174+24
 2717 0268 9342     		cmp	r3, r2
ARM GAS  /tmp/ccxx2olO.s 			page 66


 2718 026a 09D0     		beq	.L168
 2719              		.loc 1 951 7 discriminator 5
 2720 026c FB68     		ldr	r3, [r7, #12]
 2721 026e 1B68     		ldr	r3, [r3]
 2722 0270 1D4A     		ldr	r2, .L174+28
 2723 0272 9342     		cmp	r3, r2
 2724 0274 04D0     		beq	.L168
 2725              		.loc 1 951 7 discriminator 6
 2726 0276 FB68     		ldr	r3, [r7, #12]
 2727 0278 1B68     		ldr	r3, [r3]
 2728 027a 1C4A     		ldr	r2, .L174+32
 2729 027c 9342     		cmp	r3, r2
 2730 027e 15D1     		bne	.L169
 2731              	.L168:
 952:./Libraries/STM32H7xx_HAL_Driver/Src/stm32h7xx_hal_tim_ex.c ****   {
 953:./Libraries/STM32H7xx_HAL_Driver/Src/stm32h7xx_hal_tim_ex.c ****     tmpsmcr = htim->Instance->SMCR & TIM_SMCR_SMS;
 2732              		.loc 1 953 19 is_stmt 1
 2733 0280 FB68     		ldr	r3, [r7, #12]
 2734 0282 1B68     		ldr	r3, [r3]
 2735              		.loc 1 953 29
 2736 0284 9A68     		ldr	r2, [r3, #8]
 2737              		.loc 1 953 13
 2738 0286 1A4B     		ldr	r3, .L174+36
 2739 0288 1340     		ands	r3, r3, r2
 2740 028a 7B61     		str	r3, [r7, #20]
 954:./Libraries/STM32H7xx_HAL_Driver/Src/stm32h7xx_hal_tim_ex.c ****     if (!IS_TIM_SLAVEMODE_TRIGGER_ENABLED(tmpsmcr))
 2741              		.loc 1 954 8
 2742 028c 7B69     		ldr	r3, [r7, #20]
 2743 028e 062B     		cmp	r3, #6
 2744 0290 15D0     		beq	.L173
 2745              		.loc 1 954 9 discriminator 1
 2746 0292 7B69     		ldr	r3, [r7, #20]
 2747 0294 B3F5803F 		cmp	r3, #65536
 2748 0298 11D0     		beq	.L173
 955:./Libraries/STM32H7xx_HAL_Driver/Src/stm32h7xx_hal_tim_ex.c ****     {
 956:./Libraries/STM32H7xx_HAL_Driver/Src/stm32h7xx_hal_tim_ex.c ****       __HAL_TIM_ENABLE(htim);
 2749              		.loc 1 956 7
 2750 029a FB68     		ldr	r3, [r7, #12]
 2751 029c 1B68     		ldr	r3, [r3]
 2752 029e 1A68     		ldr	r2, [r3]
 2753 02a0 FB68     		ldr	r3, [r7, #12]
 2754 02a2 1B68     		ldr	r3, [r3]
 2755 02a4 42F00102 		orr	r2, r2, #1
 2756 02a8 1A60     		str	r2, [r3]
 954:./Libraries/STM32H7xx_HAL_Driver/Src/stm32h7xx_hal_tim_ex.c ****     if (!IS_TIM_SLAVEMODE_TRIGGER_ENABLED(tmpsmcr))
 2757              		.loc 1 954 8
 2758 02aa 08E0     		b	.L173
 2759              	.L169:
 957:./Libraries/STM32H7xx_HAL_Driver/Src/stm32h7xx_hal_tim_ex.c ****     }
 958:./Libraries/STM32H7xx_HAL_Driver/Src/stm32h7xx_hal_tim_ex.c ****   }
 959:./Libraries/STM32H7xx_HAL_Driver/Src/stm32h7xx_hal_tim_ex.c ****   else
 960:./Libraries/STM32H7xx_HAL_Driver/Src/stm32h7xx_hal_tim_ex.c ****   {
 961:./Libraries/STM32H7xx_HAL_Driver/Src/stm32h7xx_hal_tim_ex.c ****     __HAL_TIM_ENABLE(htim);
 2760              		.loc 1 961 5
 2761 02ac FB68     		ldr	r3, [r7, #12]
 2762 02ae 1B68     		ldr	r3, [r3]
 2763 02b0 1A68     		ldr	r2, [r3]
ARM GAS  /tmp/ccxx2olO.s 			page 67


 2764 02b2 FB68     		ldr	r3, [r7, #12]
 2765 02b4 1B68     		ldr	r3, [r3]
 2766 02b6 42F00102 		orr	r2, r2, #1
 2767 02ba 1A60     		str	r2, [r3]
 2768 02bc 00E0     		b	.L171
 2769              	.L173:
 954:./Libraries/STM32H7xx_HAL_Driver/Src/stm32h7xx_hal_tim_ex.c ****     {
 2770              		.loc 1 954 8
 2771 02be 00BF     		nop
 2772              	.L171:
 962:./Libraries/STM32H7xx_HAL_Driver/Src/stm32h7xx_hal_tim_ex.c ****   }
 963:./Libraries/STM32H7xx_HAL_Driver/Src/stm32h7xx_hal_tim_ex.c **** 
 964:./Libraries/STM32H7xx_HAL_Driver/Src/stm32h7xx_hal_tim_ex.c ****   /* Return function status */
 965:./Libraries/STM32H7xx_HAL_Driver/Src/stm32h7xx_hal_tim_ex.c ****   return HAL_OK;
 2773              		.loc 1 965 10
 2774 02c0 0023     		movs	r3, #0
 2775              	.L145:
 966:./Libraries/STM32H7xx_HAL_Driver/Src/stm32h7xx_hal_tim_ex.c **** }
 2776              		.loc 1 966 1
 2777 02c2 1846     		mov	r0, r3
 2778 02c4 1837     		adds	r7, r7, #24
 2779              	.LCFI75:
 2780              		.cfi_def_cfa_offset 8
 2781 02c6 BD46     		mov	sp, r7
 2782              	.LCFI76:
 2783              		.cfi_def_cfa_register 13
 2784              		@ sp needed
 2785 02c8 80BD     		pop	{r7, pc}
 2786              	.L175:
 2787 02ca 00BF     		.align	2
 2788              	.L174:
 2789 02cc 00000000 		.word	TIM_DMADelayPulseNCplt
 2790 02d0 00000000 		.word	TIM_DMADelayPulseHalfCplt
 2791 02d4 00000000 		.word	TIM_DMAErrorCCxN
 2792 02d8 00000140 		.word	1073807360
 2793 02dc 00040040 		.word	1073742848
 2794 02e0 00080040 		.word	1073743872
 2795 02e4 000C0040 		.word	1073744896
 2796 02e8 00040140 		.word	1073808384
 2797 02ec 00180040 		.word	1073747968
 2798 02f0 07000100 		.word	65543
 2799              		.cfi_endproc
 2800              	.LFE345:
 2802              		.section	.text.HAL_TIMEx_OCN_Stop_DMA,"ax",%progbits
 2803              		.align	1
 2804              		.global	HAL_TIMEx_OCN_Stop_DMA
 2805              		.syntax unified
 2806              		.thumb
 2807              		.thumb_func
 2808              		.fpu fpv5-d16
 2810              	HAL_TIMEx_OCN_Stop_DMA:
 2811              	.LFB346:
 967:./Libraries/STM32H7xx_HAL_Driver/Src/stm32h7xx_hal_tim_ex.c **** 
 968:./Libraries/STM32H7xx_HAL_Driver/Src/stm32h7xx_hal_tim_ex.c **** /**
 969:./Libraries/STM32H7xx_HAL_Driver/Src/stm32h7xx_hal_tim_ex.c ****   * @brief  Stops the TIM Output Compare signal generation in DMA mode
 970:./Libraries/STM32H7xx_HAL_Driver/Src/stm32h7xx_hal_tim_ex.c ****   *         on the complementary output.
 971:./Libraries/STM32H7xx_HAL_Driver/Src/stm32h7xx_hal_tim_ex.c ****   * @param  htim TIM Output Compare handle
ARM GAS  /tmp/ccxx2olO.s 			page 68


 972:./Libraries/STM32H7xx_HAL_Driver/Src/stm32h7xx_hal_tim_ex.c ****   * @param  Channel TIM Channel to be disabled
 973:./Libraries/STM32H7xx_HAL_Driver/Src/stm32h7xx_hal_tim_ex.c ****   *          This parameter can be one of the following values:
 974:./Libraries/STM32H7xx_HAL_Driver/Src/stm32h7xx_hal_tim_ex.c ****   *            @arg TIM_CHANNEL_1: TIM Channel 1 selected
 975:./Libraries/STM32H7xx_HAL_Driver/Src/stm32h7xx_hal_tim_ex.c ****   *            @arg TIM_CHANNEL_2: TIM Channel 2 selected
 976:./Libraries/STM32H7xx_HAL_Driver/Src/stm32h7xx_hal_tim_ex.c ****   *            @arg TIM_CHANNEL_3: TIM Channel 3 selected
 977:./Libraries/STM32H7xx_HAL_Driver/Src/stm32h7xx_hal_tim_ex.c ****   * @retval HAL status
 978:./Libraries/STM32H7xx_HAL_Driver/Src/stm32h7xx_hal_tim_ex.c ****   */
 979:./Libraries/STM32H7xx_HAL_Driver/Src/stm32h7xx_hal_tim_ex.c **** HAL_StatusTypeDef HAL_TIMEx_OCN_Stop_DMA(TIM_HandleTypeDef *htim, uint32_t Channel)
 980:./Libraries/STM32H7xx_HAL_Driver/Src/stm32h7xx_hal_tim_ex.c **** {
 2812              		.loc 1 980 1
 2813              		.cfi_startproc
 2814              		@ args = 0, pretend = 0, frame = 8
 2815              		@ frame_needed = 1, uses_anonymous_args = 0
 2816 0000 80B5     		push	{r7, lr}
 2817              	.LCFI77:
 2818              		.cfi_def_cfa_offset 8
 2819              		.cfi_offset 7, -8
 2820              		.cfi_offset 14, -4
 2821 0002 82B0     		sub	sp, sp, #8
 2822              	.LCFI78:
 2823              		.cfi_def_cfa_offset 16
 2824 0004 00AF     		add	r7, sp, #0
 2825              	.LCFI79:
 2826              		.cfi_def_cfa_register 7
 2827 0006 7860     		str	r0, [r7, #4]
 2828 0008 3960     		str	r1, [r7]
 981:./Libraries/STM32H7xx_HAL_Driver/Src/stm32h7xx_hal_tim_ex.c ****   /* Check the parameters */
 982:./Libraries/STM32H7xx_HAL_Driver/Src/stm32h7xx_hal_tim_ex.c ****   assert_param(IS_TIM_CCXN_INSTANCE(htim->Instance, Channel));
 983:./Libraries/STM32H7xx_HAL_Driver/Src/stm32h7xx_hal_tim_ex.c **** 
 984:./Libraries/STM32H7xx_HAL_Driver/Src/stm32h7xx_hal_tim_ex.c ****   switch (Channel)
 2829              		.loc 1 984 3
 2830 000a 3B68     		ldr	r3, [r7]
 2831 000c 082B     		cmp	r3, #8
 2832 000e 25D0     		beq	.L177
 2833 0010 3B68     		ldr	r3, [r7]
 2834 0012 082B     		cmp	r3, #8
 2835 0014 30D8     		bhi	.L191
 2836 0016 3B68     		ldr	r3, [r7]
 2837 0018 002B     		cmp	r3, #0
 2838 001a 03D0     		beq	.L179
 2839 001c 3B68     		ldr	r3, [r7]
 2840 001e 042B     		cmp	r3, #4
 2841 0020 0ED0     		beq	.L180
 985:./Libraries/STM32H7xx_HAL_Driver/Src/stm32h7xx_hal_tim_ex.c ****   {
 986:./Libraries/STM32H7xx_HAL_Driver/Src/stm32h7xx_hal_tim_ex.c ****     case TIM_CHANNEL_1:
 987:./Libraries/STM32H7xx_HAL_Driver/Src/stm32h7xx_hal_tim_ex.c ****     {
 988:./Libraries/STM32H7xx_HAL_Driver/Src/stm32h7xx_hal_tim_ex.c ****       /* Disable the TIM Output Compare DMA request */
 989:./Libraries/STM32H7xx_HAL_Driver/Src/stm32h7xx_hal_tim_ex.c ****       __HAL_TIM_DISABLE_DMA(htim, TIM_DMA_CC1);
 990:./Libraries/STM32H7xx_HAL_Driver/Src/stm32h7xx_hal_tim_ex.c ****       (void)HAL_DMA_Abort_IT(htim->hdma[TIM_DMA_ID_CC1]);
 991:./Libraries/STM32H7xx_HAL_Driver/Src/stm32h7xx_hal_tim_ex.c ****       break;
 992:./Libraries/STM32H7xx_HAL_Driver/Src/stm32h7xx_hal_tim_ex.c ****     }
 993:./Libraries/STM32H7xx_HAL_Driver/Src/stm32h7xx_hal_tim_ex.c **** 
 994:./Libraries/STM32H7xx_HAL_Driver/Src/stm32h7xx_hal_tim_ex.c ****     case TIM_CHANNEL_2:
 995:./Libraries/STM32H7xx_HAL_Driver/Src/stm32h7xx_hal_tim_ex.c ****     {
 996:./Libraries/STM32H7xx_HAL_Driver/Src/stm32h7xx_hal_tim_ex.c ****       /* Disable the TIM Output Compare DMA request */
 997:./Libraries/STM32H7xx_HAL_Driver/Src/stm32h7xx_hal_tim_ex.c ****       __HAL_TIM_DISABLE_DMA(htim, TIM_DMA_CC2);
 998:./Libraries/STM32H7xx_HAL_Driver/Src/stm32h7xx_hal_tim_ex.c ****       (void)HAL_DMA_Abort_IT(htim->hdma[TIM_DMA_ID_CC2]);
ARM GAS  /tmp/ccxx2olO.s 			page 69


 999:./Libraries/STM32H7xx_HAL_Driver/Src/stm32h7xx_hal_tim_ex.c ****       break;
1000:./Libraries/STM32H7xx_HAL_Driver/Src/stm32h7xx_hal_tim_ex.c ****     }
1001:./Libraries/STM32H7xx_HAL_Driver/Src/stm32h7xx_hal_tim_ex.c **** 
1002:./Libraries/STM32H7xx_HAL_Driver/Src/stm32h7xx_hal_tim_ex.c ****     case TIM_CHANNEL_3:
1003:./Libraries/STM32H7xx_HAL_Driver/Src/stm32h7xx_hal_tim_ex.c ****     {
1004:./Libraries/STM32H7xx_HAL_Driver/Src/stm32h7xx_hal_tim_ex.c ****       /* Disable the TIM Output Compare DMA request */
1005:./Libraries/STM32H7xx_HAL_Driver/Src/stm32h7xx_hal_tim_ex.c ****       __HAL_TIM_DISABLE_DMA(htim, TIM_DMA_CC3);
1006:./Libraries/STM32H7xx_HAL_Driver/Src/stm32h7xx_hal_tim_ex.c ****       (void)HAL_DMA_Abort_IT(htim->hdma[TIM_DMA_ID_CC3]);
1007:./Libraries/STM32H7xx_HAL_Driver/Src/stm32h7xx_hal_tim_ex.c ****       break;
1008:./Libraries/STM32H7xx_HAL_Driver/Src/stm32h7xx_hal_tim_ex.c ****     }
1009:./Libraries/STM32H7xx_HAL_Driver/Src/stm32h7xx_hal_tim_ex.c **** 
1010:./Libraries/STM32H7xx_HAL_Driver/Src/stm32h7xx_hal_tim_ex.c ****     default:
1011:./Libraries/STM32H7xx_HAL_Driver/Src/stm32h7xx_hal_tim_ex.c ****       break;
 2842              		.loc 1 1011 7
 2843 0022 29E0     		b	.L191
 2844              	.L179:
 989:./Libraries/STM32H7xx_HAL_Driver/Src/stm32h7xx_hal_tim_ex.c ****       (void)HAL_DMA_Abort_IT(htim->hdma[TIM_DMA_ID_CC1]);
 2845              		.loc 1 989 7
 2846 0024 7B68     		ldr	r3, [r7, #4]
 2847 0026 1B68     		ldr	r3, [r3]
 2848 0028 DA68     		ldr	r2, [r3, #12]
 2849 002a 7B68     		ldr	r3, [r7, #4]
 2850 002c 1B68     		ldr	r3, [r3]
 2851 002e 22F40072 		bic	r2, r2, #512
 2852 0032 DA60     		str	r2, [r3, #12]
 990:./Libraries/STM32H7xx_HAL_Driver/Src/stm32h7xx_hal_tim_ex.c ****       break;
 2853              		.loc 1 990 13
 2854 0034 7B68     		ldr	r3, [r7, #4]
 2855 0036 5B6A     		ldr	r3, [r3, #36]
 2856 0038 1846     		mov	r0, r3
 2857 003a FFF7FEFF 		bl	HAL_DMA_Abort_IT
 991:./Libraries/STM32H7xx_HAL_Driver/Src/stm32h7xx_hal_tim_ex.c ****     }
 2858              		.loc 1 991 7
 2859 003e 1CE0     		b	.L181
 2860              	.L180:
 997:./Libraries/STM32H7xx_HAL_Driver/Src/stm32h7xx_hal_tim_ex.c ****       (void)HAL_DMA_Abort_IT(htim->hdma[TIM_DMA_ID_CC2]);
 2861              		.loc 1 997 7
 2862 0040 7B68     		ldr	r3, [r7, #4]
 2863 0042 1B68     		ldr	r3, [r3]
 2864 0044 DA68     		ldr	r2, [r3, #12]
 2865 0046 7B68     		ldr	r3, [r7, #4]
 2866 0048 1B68     		ldr	r3, [r3]
 2867 004a 22F48062 		bic	r2, r2, #1024
 2868 004e DA60     		str	r2, [r3, #12]
 998:./Libraries/STM32H7xx_HAL_Driver/Src/stm32h7xx_hal_tim_ex.c ****       break;
 2869              		.loc 1 998 13
 2870 0050 7B68     		ldr	r3, [r7, #4]
 2871 0052 9B6A     		ldr	r3, [r3, #40]
 2872 0054 1846     		mov	r0, r3
 2873 0056 FFF7FEFF 		bl	HAL_DMA_Abort_IT
 999:./Libraries/STM32H7xx_HAL_Driver/Src/stm32h7xx_hal_tim_ex.c ****     }
 2874              		.loc 1 999 7
 2875 005a 0EE0     		b	.L181
 2876              	.L177:
1005:./Libraries/STM32H7xx_HAL_Driver/Src/stm32h7xx_hal_tim_ex.c ****       (void)HAL_DMA_Abort_IT(htim->hdma[TIM_DMA_ID_CC3]);
 2877              		.loc 1 1005 7
 2878 005c 7B68     		ldr	r3, [r7, #4]
ARM GAS  /tmp/ccxx2olO.s 			page 70


 2879 005e 1B68     		ldr	r3, [r3]
 2880 0060 DA68     		ldr	r2, [r3, #12]
 2881 0062 7B68     		ldr	r3, [r7, #4]
 2882 0064 1B68     		ldr	r3, [r3]
 2883 0066 22F40062 		bic	r2, r2, #2048
 2884 006a DA60     		str	r2, [r3, #12]
1006:./Libraries/STM32H7xx_HAL_Driver/Src/stm32h7xx_hal_tim_ex.c ****       break;
 2885              		.loc 1 1006 13
 2886 006c 7B68     		ldr	r3, [r7, #4]
 2887 006e DB6A     		ldr	r3, [r3, #44]
 2888 0070 1846     		mov	r0, r3
 2889 0072 FFF7FEFF 		bl	HAL_DMA_Abort_IT
1007:./Libraries/STM32H7xx_HAL_Driver/Src/stm32h7xx_hal_tim_ex.c ****     }
 2890              		.loc 1 1007 7
 2891 0076 00E0     		b	.L181
 2892              	.L191:
 2893              		.loc 1 1011 7
 2894 0078 00BF     		nop
 2895              	.L181:
1012:./Libraries/STM32H7xx_HAL_Driver/Src/stm32h7xx_hal_tim_ex.c ****   }
1013:./Libraries/STM32H7xx_HAL_Driver/Src/stm32h7xx_hal_tim_ex.c **** 
1014:./Libraries/STM32H7xx_HAL_Driver/Src/stm32h7xx_hal_tim_ex.c ****   /* Disable the Capture compare channel N */
1015:./Libraries/STM32H7xx_HAL_Driver/Src/stm32h7xx_hal_tim_ex.c ****   TIM_CCxNChannelCmd(htim->Instance, Channel, TIM_CCxN_DISABLE);
 2896              		.loc 1 1015 3
 2897 007a 7B68     		ldr	r3, [r7, #4]
 2898 007c 1B68     		ldr	r3, [r3]
 2899 007e 0022     		movs	r2, #0
 2900 0080 3968     		ldr	r1, [r7]
 2901 0082 1846     		mov	r0, r3
 2902 0084 FFF7FEFF 		bl	TIM_CCxNChannelCmd
1016:./Libraries/STM32H7xx_HAL_Driver/Src/stm32h7xx_hal_tim_ex.c **** 
1017:./Libraries/STM32H7xx_HAL_Driver/Src/stm32h7xx_hal_tim_ex.c ****   /* Disable the Main Output */
1018:./Libraries/STM32H7xx_HAL_Driver/Src/stm32h7xx_hal_tim_ex.c ****   __HAL_TIM_MOE_DISABLE(htim);
 2903              		.loc 1 1018 3
 2904 0088 7B68     		ldr	r3, [r7, #4]
 2905 008a 1B68     		ldr	r3, [r3]
 2906 008c 1A6A     		ldr	r2, [r3, #32]
 2907 008e 41F21113 		movw	r3, #4369
 2908 0092 1340     		ands	r3, r3, r2
 2909 0094 002B     		cmp	r3, #0
 2910 0096 0FD1     		bne	.L182
 2911              		.loc 1 1018 3 is_stmt 0 discriminator 1
 2912 0098 7B68     		ldr	r3, [r7, #4]
 2913 009a 1B68     		ldr	r3, [r3]
 2914 009c 1A6A     		ldr	r2, [r3, #32]
 2915 009e 40F24443 		movw	r3, #1092
 2916 00a2 1340     		ands	r3, r3, r2
 2917 00a4 002B     		cmp	r3, #0
 2918 00a6 07D1     		bne	.L182
 2919              		.loc 1 1018 3 discriminator 2
 2920 00a8 7B68     		ldr	r3, [r7, #4]
 2921 00aa 1B68     		ldr	r3, [r3]
 2922 00ac 5A6C     		ldr	r2, [r3, #68]
 2923 00ae 7B68     		ldr	r3, [r7, #4]
 2924 00b0 1B68     		ldr	r3, [r3]
 2925 00b2 22F40042 		bic	r2, r2, #32768
 2926 00b6 5A64     		str	r2, [r3, #68]
ARM GAS  /tmp/ccxx2olO.s 			page 71


 2927              	.L182:
1019:./Libraries/STM32H7xx_HAL_Driver/Src/stm32h7xx_hal_tim_ex.c **** 
1020:./Libraries/STM32H7xx_HAL_Driver/Src/stm32h7xx_hal_tim_ex.c ****   /* Disable the Peripheral */
1021:./Libraries/STM32H7xx_HAL_Driver/Src/stm32h7xx_hal_tim_ex.c ****   __HAL_TIM_DISABLE(htim);
 2928              		.loc 1 1021 3 is_stmt 1
 2929 00b8 7B68     		ldr	r3, [r7, #4]
 2930 00ba 1B68     		ldr	r3, [r3]
 2931 00bc 1A6A     		ldr	r2, [r3, #32]
 2932 00be 41F21113 		movw	r3, #4369
 2933 00c2 1340     		ands	r3, r3, r2
 2934 00c4 002B     		cmp	r3, #0
 2935 00c6 0FD1     		bne	.L183
 2936              		.loc 1 1021 3 is_stmt 0 discriminator 1
 2937 00c8 7B68     		ldr	r3, [r7, #4]
 2938 00ca 1B68     		ldr	r3, [r3]
 2939 00cc 1A6A     		ldr	r2, [r3, #32]
 2940 00ce 40F24443 		movw	r3, #1092
 2941 00d2 1340     		ands	r3, r3, r2
 2942 00d4 002B     		cmp	r3, #0
 2943 00d6 07D1     		bne	.L183
 2944              		.loc 1 1021 3 discriminator 2
 2945 00d8 7B68     		ldr	r3, [r7, #4]
 2946 00da 1B68     		ldr	r3, [r3]
 2947 00dc 1A68     		ldr	r2, [r3]
 2948 00de 7B68     		ldr	r3, [r7, #4]
 2949 00e0 1B68     		ldr	r3, [r3]
 2950 00e2 22F00102 		bic	r2, r2, #1
 2951 00e6 1A60     		str	r2, [r3]
 2952              	.L183:
1022:./Libraries/STM32H7xx_HAL_Driver/Src/stm32h7xx_hal_tim_ex.c **** 
1023:./Libraries/STM32H7xx_HAL_Driver/Src/stm32h7xx_hal_tim_ex.c ****   /* Set the TIM complementary channel state */
1024:./Libraries/STM32H7xx_HAL_Driver/Src/stm32h7xx_hal_tim_ex.c ****   TIM_CHANNEL_N_STATE_SET(htim, Channel, HAL_TIM_CHANNEL_STATE_READY);
 2953              		.loc 1 1024 3 is_stmt 1
 2954 00e8 3B68     		ldr	r3, [r7]
 2955 00ea 002B     		cmp	r3, #0
 2956 00ec 04D1     		bne	.L184
 2957              		.loc 1 1024 3 is_stmt 0 discriminator 1
 2958 00ee 7B68     		ldr	r3, [r7, #4]
 2959 00f0 0122     		movs	r2, #1
 2960 00f2 83F84420 		strb	r2, [r3, #68]
 2961 00f6 13E0     		b	.L185
 2962              	.L184:
 2963              		.loc 1 1024 3 discriminator 2
 2964 00f8 3B68     		ldr	r3, [r7]
 2965 00fa 042B     		cmp	r3, #4
 2966 00fc 04D1     		bne	.L186
 2967              		.loc 1 1024 3 discriminator 3
 2968 00fe 7B68     		ldr	r3, [r7, #4]
 2969 0100 0122     		movs	r2, #1
 2970 0102 83F84520 		strb	r2, [r3, #69]
 2971 0106 0BE0     		b	.L185
 2972              	.L186:
 2973              		.loc 1 1024 3 discriminator 4
 2974 0108 3B68     		ldr	r3, [r7]
 2975 010a 082B     		cmp	r3, #8
 2976 010c 04D1     		bne	.L188
 2977              		.loc 1 1024 3 discriminator 6
ARM GAS  /tmp/ccxx2olO.s 			page 72


 2978 010e 7B68     		ldr	r3, [r7, #4]
 2979 0110 0122     		movs	r2, #1
 2980 0112 83F84620 		strb	r2, [r3, #70]
 2981 0116 03E0     		b	.L185
 2982              	.L188:
 2983              		.loc 1 1024 3 discriminator 7
 2984 0118 7B68     		ldr	r3, [r7, #4]
 2985 011a 0122     		movs	r2, #1
 2986 011c 83F84720 		strb	r2, [r3, #71]
 2987              	.L185:
1025:./Libraries/STM32H7xx_HAL_Driver/Src/stm32h7xx_hal_tim_ex.c **** 
1026:./Libraries/STM32H7xx_HAL_Driver/Src/stm32h7xx_hal_tim_ex.c ****   /* Return function status */
1027:./Libraries/STM32H7xx_HAL_Driver/Src/stm32h7xx_hal_tim_ex.c ****   return HAL_OK;
 2988              		.loc 1 1027 10 is_stmt 1
 2989 0120 0023     		movs	r3, #0
1028:./Libraries/STM32H7xx_HAL_Driver/Src/stm32h7xx_hal_tim_ex.c **** }
 2990              		.loc 1 1028 1
 2991 0122 1846     		mov	r0, r3
 2992 0124 0837     		adds	r7, r7, #8
 2993              	.LCFI80:
 2994              		.cfi_def_cfa_offset 8
 2995 0126 BD46     		mov	sp, r7
 2996              	.LCFI81:
 2997              		.cfi_def_cfa_register 13
 2998              		@ sp needed
 2999 0128 80BD     		pop	{r7, pc}
 3000              		.cfi_endproc
 3001              	.LFE346:
 3003              		.section	.text.HAL_TIMEx_PWMN_Start,"ax",%progbits
 3004              		.align	1
 3005              		.global	HAL_TIMEx_PWMN_Start
 3006              		.syntax unified
 3007              		.thumb
 3008              		.thumb_func
 3009              		.fpu fpv5-d16
 3011              	HAL_TIMEx_PWMN_Start:
 3012              	.LFB347:
1029:./Libraries/STM32H7xx_HAL_Driver/Src/stm32h7xx_hal_tim_ex.c **** 
1030:./Libraries/STM32H7xx_HAL_Driver/Src/stm32h7xx_hal_tim_ex.c **** /**
1031:./Libraries/STM32H7xx_HAL_Driver/Src/stm32h7xx_hal_tim_ex.c ****   * @}
1032:./Libraries/STM32H7xx_HAL_Driver/Src/stm32h7xx_hal_tim_ex.c ****   */
1033:./Libraries/STM32H7xx_HAL_Driver/Src/stm32h7xx_hal_tim_ex.c **** 
1034:./Libraries/STM32H7xx_HAL_Driver/Src/stm32h7xx_hal_tim_ex.c **** /** @defgroup TIMEx_Exported_Functions_Group3 Extended Timer Complementary PWM functions
1035:./Libraries/STM32H7xx_HAL_Driver/Src/stm32h7xx_hal_tim_ex.c ****   * @brief    Timer Complementary PWM functions
1036:./Libraries/STM32H7xx_HAL_Driver/Src/stm32h7xx_hal_tim_ex.c ****   *
1037:./Libraries/STM32H7xx_HAL_Driver/Src/stm32h7xx_hal_tim_ex.c **** @verbatim
1038:./Libraries/STM32H7xx_HAL_Driver/Src/stm32h7xx_hal_tim_ex.c ****   ==============================================================================
1039:./Libraries/STM32H7xx_HAL_Driver/Src/stm32h7xx_hal_tim_ex.c ****                  ##### Timer Complementary PWM functions #####
1040:./Libraries/STM32H7xx_HAL_Driver/Src/stm32h7xx_hal_tim_ex.c ****   ==============================================================================
1041:./Libraries/STM32H7xx_HAL_Driver/Src/stm32h7xx_hal_tim_ex.c ****   [..]
1042:./Libraries/STM32H7xx_HAL_Driver/Src/stm32h7xx_hal_tim_ex.c ****     This section provides functions allowing to:
1043:./Libraries/STM32H7xx_HAL_Driver/Src/stm32h7xx_hal_tim_ex.c ****     (+) Start the Complementary PWM.
1044:./Libraries/STM32H7xx_HAL_Driver/Src/stm32h7xx_hal_tim_ex.c ****     (+) Stop the Complementary PWM.
1045:./Libraries/STM32H7xx_HAL_Driver/Src/stm32h7xx_hal_tim_ex.c ****     (+) Start the Complementary PWM and enable interrupts.
1046:./Libraries/STM32H7xx_HAL_Driver/Src/stm32h7xx_hal_tim_ex.c ****     (+) Stop the Complementary PWM and disable interrupts.
1047:./Libraries/STM32H7xx_HAL_Driver/Src/stm32h7xx_hal_tim_ex.c ****     (+) Start the Complementary PWM and enable DMA transfers.
1048:./Libraries/STM32H7xx_HAL_Driver/Src/stm32h7xx_hal_tim_ex.c ****     (+) Stop the Complementary PWM and disable DMA transfers.
ARM GAS  /tmp/ccxx2olO.s 			page 73


1049:./Libraries/STM32H7xx_HAL_Driver/Src/stm32h7xx_hal_tim_ex.c ****     (+) Start the Complementary Input Capture measurement.
1050:./Libraries/STM32H7xx_HAL_Driver/Src/stm32h7xx_hal_tim_ex.c ****     (+) Stop the Complementary Input Capture.
1051:./Libraries/STM32H7xx_HAL_Driver/Src/stm32h7xx_hal_tim_ex.c ****     (+) Start the Complementary Input Capture and enable interrupts.
1052:./Libraries/STM32H7xx_HAL_Driver/Src/stm32h7xx_hal_tim_ex.c ****     (+) Stop the Complementary Input Capture and disable interrupts.
1053:./Libraries/STM32H7xx_HAL_Driver/Src/stm32h7xx_hal_tim_ex.c ****     (+) Start the Complementary Input Capture and enable DMA transfers.
1054:./Libraries/STM32H7xx_HAL_Driver/Src/stm32h7xx_hal_tim_ex.c ****     (+) Stop the Complementary Input Capture and disable DMA transfers.
1055:./Libraries/STM32H7xx_HAL_Driver/Src/stm32h7xx_hal_tim_ex.c ****     (+) Start the Complementary One Pulse generation.
1056:./Libraries/STM32H7xx_HAL_Driver/Src/stm32h7xx_hal_tim_ex.c ****     (+) Stop the Complementary One Pulse.
1057:./Libraries/STM32H7xx_HAL_Driver/Src/stm32h7xx_hal_tim_ex.c ****     (+) Start the Complementary One Pulse and enable interrupts.
1058:./Libraries/STM32H7xx_HAL_Driver/Src/stm32h7xx_hal_tim_ex.c ****     (+) Stop the Complementary One Pulse and disable interrupts.
1059:./Libraries/STM32H7xx_HAL_Driver/Src/stm32h7xx_hal_tim_ex.c **** 
1060:./Libraries/STM32H7xx_HAL_Driver/Src/stm32h7xx_hal_tim_ex.c **** @endverbatim
1061:./Libraries/STM32H7xx_HAL_Driver/Src/stm32h7xx_hal_tim_ex.c ****   * @{
1062:./Libraries/STM32H7xx_HAL_Driver/Src/stm32h7xx_hal_tim_ex.c ****   */
1063:./Libraries/STM32H7xx_HAL_Driver/Src/stm32h7xx_hal_tim_ex.c **** 
1064:./Libraries/STM32H7xx_HAL_Driver/Src/stm32h7xx_hal_tim_ex.c **** /**
1065:./Libraries/STM32H7xx_HAL_Driver/Src/stm32h7xx_hal_tim_ex.c ****   * @brief  Starts the PWM signal generation on the complementary output.
1066:./Libraries/STM32H7xx_HAL_Driver/Src/stm32h7xx_hal_tim_ex.c ****   * @param  htim TIM handle
1067:./Libraries/STM32H7xx_HAL_Driver/Src/stm32h7xx_hal_tim_ex.c ****   * @param  Channel TIM Channel to be enabled
1068:./Libraries/STM32H7xx_HAL_Driver/Src/stm32h7xx_hal_tim_ex.c ****   *          This parameter can be one of the following values:
1069:./Libraries/STM32H7xx_HAL_Driver/Src/stm32h7xx_hal_tim_ex.c ****   *            @arg TIM_CHANNEL_1: TIM Channel 1 selected
1070:./Libraries/STM32H7xx_HAL_Driver/Src/stm32h7xx_hal_tim_ex.c ****   *            @arg TIM_CHANNEL_2: TIM Channel 2 selected
1071:./Libraries/STM32H7xx_HAL_Driver/Src/stm32h7xx_hal_tim_ex.c ****   *            @arg TIM_CHANNEL_3: TIM Channel 3 selected
1072:./Libraries/STM32H7xx_HAL_Driver/Src/stm32h7xx_hal_tim_ex.c ****   * @retval HAL status
1073:./Libraries/STM32H7xx_HAL_Driver/Src/stm32h7xx_hal_tim_ex.c ****   */
1074:./Libraries/STM32H7xx_HAL_Driver/Src/stm32h7xx_hal_tim_ex.c **** HAL_StatusTypeDef HAL_TIMEx_PWMN_Start(TIM_HandleTypeDef *htim, uint32_t Channel)
1075:./Libraries/STM32H7xx_HAL_Driver/Src/stm32h7xx_hal_tim_ex.c **** {
 3013              		.loc 1 1075 1
 3014              		.cfi_startproc
 3015              		@ args = 0, pretend = 0, frame = 16
 3016              		@ frame_needed = 1, uses_anonymous_args = 0
 3017 0000 80B5     		push	{r7, lr}
 3018              	.LCFI82:
 3019              		.cfi_def_cfa_offset 8
 3020              		.cfi_offset 7, -8
 3021              		.cfi_offset 14, -4
 3022 0002 84B0     		sub	sp, sp, #16
 3023              	.LCFI83:
 3024              		.cfi_def_cfa_offset 24
 3025 0004 00AF     		add	r7, sp, #0
 3026              	.LCFI84:
 3027              		.cfi_def_cfa_register 7
 3028 0006 7860     		str	r0, [r7, #4]
 3029 0008 3960     		str	r1, [r7]
1076:./Libraries/STM32H7xx_HAL_Driver/Src/stm32h7xx_hal_tim_ex.c ****   uint32_t tmpsmcr;
1077:./Libraries/STM32H7xx_HAL_Driver/Src/stm32h7xx_hal_tim_ex.c **** 
1078:./Libraries/STM32H7xx_HAL_Driver/Src/stm32h7xx_hal_tim_ex.c ****   /* Check the parameters */
1079:./Libraries/STM32H7xx_HAL_Driver/Src/stm32h7xx_hal_tim_ex.c ****   assert_param(IS_TIM_CCXN_INSTANCE(htim->Instance, Channel));
1080:./Libraries/STM32H7xx_HAL_Driver/Src/stm32h7xx_hal_tim_ex.c **** 
1081:./Libraries/STM32H7xx_HAL_Driver/Src/stm32h7xx_hal_tim_ex.c ****   /* Check the TIM complementary channel state */
1082:./Libraries/STM32H7xx_HAL_Driver/Src/stm32h7xx_hal_tim_ex.c ****   if (TIM_CHANNEL_N_STATE_GET(htim, Channel) != HAL_TIM_CHANNEL_STATE_READY)
 3030              		.loc 1 1082 46
 3031 000a 3B68     		ldr	r3, [r7]
 3032 000c 002B     		cmp	r3, #0
 3033 000e 09D1     		bne	.L193
 3034              		.loc 1 1082 7 discriminator 1
 3035 0010 7B68     		ldr	r3, [r7, #4]
ARM GAS  /tmp/ccxx2olO.s 			page 74


 3036 0012 93F84430 		ldrb	r3, [r3, #68]
 3037 0016 DBB2     		uxtb	r3, r3
 3038              		.loc 1 1082 46 discriminator 1
 3039 0018 012B     		cmp	r3, #1
 3040 001a 14BF     		ite	ne
 3041 001c 0123     		movne	r3, #1
 3042 001e 0023     		moveq	r3, #0
 3043 0020 DBB2     		uxtb	r3, r3
 3044 0022 22E0     		b	.L194
 3045              	.L193:
 3046              		.loc 1 1082 46 is_stmt 0 discriminator 2
 3047 0024 3B68     		ldr	r3, [r7]
 3048 0026 042B     		cmp	r3, #4
 3049 0028 09D1     		bne	.L195
 3050              		.loc 1 1082 7 is_stmt 1 discriminator 4
 3051 002a 7B68     		ldr	r3, [r7, #4]
 3052 002c 93F84530 		ldrb	r3, [r3, #69]
 3053 0030 DBB2     		uxtb	r3, r3
 3054              		.loc 1 1082 46 discriminator 4
 3055 0032 012B     		cmp	r3, #1
 3056 0034 14BF     		ite	ne
 3057 0036 0123     		movne	r3, #1
 3058 0038 0023     		moveq	r3, #0
 3059 003a DBB2     		uxtb	r3, r3
 3060 003c 15E0     		b	.L194
 3061              	.L195:
 3062              		.loc 1 1082 46 is_stmt 0 discriminator 5
 3063 003e 3B68     		ldr	r3, [r7]
 3064 0040 082B     		cmp	r3, #8
 3065 0042 09D1     		bne	.L197
 3066              		.loc 1 1082 7 is_stmt 1 discriminator 7
 3067 0044 7B68     		ldr	r3, [r7, #4]
 3068 0046 93F84630 		ldrb	r3, [r3, #70]
 3069 004a DBB2     		uxtb	r3, r3
 3070              		.loc 1 1082 46 discriminator 7
 3071 004c 012B     		cmp	r3, #1
 3072 004e 14BF     		ite	ne
 3073 0050 0123     		movne	r3, #1
 3074 0052 0023     		moveq	r3, #0
 3075 0054 DBB2     		uxtb	r3, r3
 3076 0056 08E0     		b	.L194
 3077              	.L197:
 3078              		.loc 1 1082 7 discriminator 8
 3079 0058 7B68     		ldr	r3, [r7, #4]
 3080 005a 93F84730 		ldrb	r3, [r3, #71]
 3081 005e DBB2     		uxtb	r3, r3
 3082              		.loc 1 1082 46 discriminator 8
 3083 0060 012B     		cmp	r3, #1
 3084 0062 14BF     		ite	ne
 3085 0064 0123     		movne	r3, #1
 3086 0066 0023     		moveq	r3, #0
 3087 0068 DBB2     		uxtb	r3, r3
 3088              	.L194:
 3089              		.loc 1 1082 6 discriminator 12
 3090 006a 002B     		cmp	r3, #0
 3091 006c 01D0     		beq	.L199
1083:./Libraries/STM32H7xx_HAL_Driver/Src/stm32h7xx_hal_tim_ex.c ****   {
ARM GAS  /tmp/ccxx2olO.s 			page 75


1084:./Libraries/STM32H7xx_HAL_Driver/Src/stm32h7xx_hal_tim_ex.c ****     return HAL_ERROR;
 3092              		.loc 1 1084 12
 3093 006e 0123     		movs	r3, #1
 3094 0070 6EE0     		b	.L200
 3095              	.L199:
1085:./Libraries/STM32H7xx_HAL_Driver/Src/stm32h7xx_hal_tim_ex.c ****   }
1086:./Libraries/STM32H7xx_HAL_Driver/Src/stm32h7xx_hal_tim_ex.c **** 
1087:./Libraries/STM32H7xx_HAL_Driver/Src/stm32h7xx_hal_tim_ex.c ****   /* Set the TIM complementary channel state */
1088:./Libraries/STM32H7xx_HAL_Driver/Src/stm32h7xx_hal_tim_ex.c ****   TIM_CHANNEL_N_STATE_SET(htim, Channel, HAL_TIM_CHANNEL_STATE_BUSY);
 3096              		.loc 1 1088 3
 3097 0072 3B68     		ldr	r3, [r7]
 3098 0074 002B     		cmp	r3, #0
 3099 0076 04D1     		bne	.L201
 3100              		.loc 1 1088 3 is_stmt 0 discriminator 1
 3101 0078 7B68     		ldr	r3, [r7, #4]
 3102 007a 0222     		movs	r2, #2
 3103 007c 83F84420 		strb	r2, [r3, #68]
 3104 0080 13E0     		b	.L202
 3105              	.L201:
 3106              		.loc 1 1088 3 discriminator 2
 3107 0082 3B68     		ldr	r3, [r7]
 3108 0084 042B     		cmp	r3, #4
 3109 0086 04D1     		bne	.L203
 3110              		.loc 1 1088 3 discriminator 3
 3111 0088 7B68     		ldr	r3, [r7, #4]
 3112 008a 0222     		movs	r2, #2
 3113 008c 83F84520 		strb	r2, [r3, #69]
 3114 0090 0BE0     		b	.L202
 3115              	.L203:
 3116              		.loc 1 1088 3 discriminator 4
 3117 0092 3B68     		ldr	r3, [r7]
 3118 0094 082B     		cmp	r3, #8
 3119 0096 04D1     		bne	.L205
 3120              		.loc 1 1088 3 discriminator 6
 3121 0098 7B68     		ldr	r3, [r7, #4]
 3122 009a 0222     		movs	r2, #2
 3123 009c 83F84620 		strb	r2, [r3, #70]
 3124 00a0 03E0     		b	.L202
 3125              	.L205:
 3126              		.loc 1 1088 3 discriminator 7
 3127 00a2 7B68     		ldr	r3, [r7, #4]
 3128 00a4 0222     		movs	r2, #2
 3129 00a6 83F84720 		strb	r2, [r3, #71]
 3130              	.L202:
1089:./Libraries/STM32H7xx_HAL_Driver/Src/stm32h7xx_hal_tim_ex.c **** 
1090:./Libraries/STM32H7xx_HAL_Driver/Src/stm32h7xx_hal_tim_ex.c ****   /* Enable the complementary PWM output  */
1091:./Libraries/STM32H7xx_HAL_Driver/Src/stm32h7xx_hal_tim_ex.c ****   TIM_CCxNChannelCmd(htim->Instance, Channel, TIM_CCxN_ENABLE);
 3131              		.loc 1 1091 3 is_stmt 1
 3132 00aa 7B68     		ldr	r3, [r7, #4]
 3133 00ac 1B68     		ldr	r3, [r3]
 3134 00ae 0422     		movs	r2, #4
 3135 00b0 3968     		ldr	r1, [r7]
 3136 00b2 1846     		mov	r0, r3
 3137 00b4 FFF7FEFF 		bl	TIM_CCxNChannelCmd
1092:./Libraries/STM32H7xx_HAL_Driver/Src/stm32h7xx_hal_tim_ex.c **** 
1093:./Libraries/STM32H7xx_HAL_Driver/Src/stm32h7xx_hal_tim_ex.c ****   /* Enable the Main Output */
1094:./Libraries/STM32H7xx_HAL_Driver/Src/stm32h7xx_hal_tim_ex.c ****   __HAL_TIM_MOE_ENABLE(htim);
ARM GAS  /tmp/ccxx2olO.s 			page 76


 3138              		.loc 1 1094 3
 3139 00b8 7B68     		ldr	r3, [r7, #4]
 3140 00ba 1B68     		ldr	r3, [r3]
 3141 00bc 5A6C     		ldr	r2, [r3, #68]
 3142 00be 7B68     		ldr	r3, [r7, #4]
 3143 00c0 1B68     		ldr	r3, [r3]
 3144 00c2 42F40042 		orr	r2, r2, #32768
 3145 00c6 5A64     		str	r2, [r3, #68]
1095:./Libraries/STM32H7xx_HAL_Driver/Src/stm32h7xx_hal_tim_ex.c **** 
1096:./Libraries/STM32H7xx_HAL_Driver/Src/stm32h7xx_hal_tim_ex.c ****   /* Enable the Peripheral, except in trigger mode where enable is automatically done with trigger 
1097:./Libraries/STM32H7xx_HAL_Driver/Src/stm32h7xx_hal_tim_ex.c ****   if (IS_TIM_SLAVE_INSTANCE(htim->Instance))
 3146              		.loc 1 1097 7
 3147 00c8 7B68     		ldr	r3, [r7, #4]
 3148 00ca 1B68     		ldr	r3, [r3]
 3149              		.loc 1 1097 6
 3150 00cc 224A     		ldr	r2, .L212
 3151 00ce 9342     		cmp	r3, r2
 3152 00d0 1DD0     		beq	.L207
 3153              		.loc 1 1097 7 discriminator 1
 3154 00d2 7B68     		ldr	r3, [r7, #4]
 3155 00d4 1B68     		ldr	r3, [r3]
 3156 00d6 B3F1804F 		cmp	r3, #1073741824
 3157 00da 18D0     		beq	.L207
 3158              		.loc 1 1097 7 is_stmt 0 discriminator 2
 3159 00dc 7B68     		ldr	r3, [r7, #4]
 3160 00de 1B68     		ldr	r3, [r3]
 3161 00e0 1E4A     		ldr	r2, .L212+4
 3162 00e2 9342     		cmp	r3, r2
 3163 00e4 13D0     		beq	.L207
 3164              		.loc 1 1097 7 discriminator 3
 3165 00e6 7B68     		ldr	r3, [r7, #4]
 3166 00e8 1B68     		ldr	r3, [r3]
 3167 00ea 1D4A     		ldr	r2, .L212+8
 3168 00ec 9342     		cmp	r3, r2
 3169 00ee 0ED0     		beq	.L207
 3170              		.loc 1 1097 7 discriminator 4
 3171 00f0 7B68     		ldr	r3, [r7, #4]
 3172 00f2 1B68     		ldr	r3, [r3]
 3173 00f4 1B4A     		ldr	r2, .L212+12
 3174 00f6 9342     		cmp	r3, r2
 3175 00f8 09D0     		beq	.L207
 3176              		.loc 1 1097 7 discriminator 5
 3177 00fa 7B68     		ldr	r3, [r7, #4]
 3178 00fc 1B68     		ldr	r3, [r3]
 3179 00fe 1A4A     		ldr	r2, .L212+16
 3180 0100 9342     		cmp	r3, r2
 3181 0102 04D0     		beq	.L207
 3182              		.loc 1 1097 7 discriminator 6
 3183 0104 7B68     		ldr	r3, [r7, #4]
 3184 0106 1B68     		ldr	r3, [r3]
 3185 0108 184A     		ldr	r2, .L212+20
 3186 010a 9342     		cmp	r3, r2
 3187 010c 15D1     		bne	.L208
 3188              	.L207:
1098:./Libraries/STM32H7xx_HAL_Driver/Src/stm32h7xx_hal_tim_ex.c ****   {
1099:./Libraries/STM32H7xx_HAL_Driver/Src/stm32h7xx_hal_tim_ex.c ****     tmpsmcr = htim->Instance->SMCR & TIM_SMCR_SMS;
 3189              		.loc 1 1099 19 is_stmt 1
ARM GAS  /tmp/ccxx2olO.s 			page 77


 3190 010e 7B68     		ldr	r3, [r7, #4]
 3191 0110 1B68     		ldr	r3, [r3]
 3192              		.loc 1 1099 29
 3193 0112 9A68     		ldr	r2, [r3, #8]
 3194              		.loc 1 1099 13
 3195 0114 164B     		ldr	r3, .L212+24
 3196 0116 1340     		ands	r3, r3, r2
 3197 0118 FB60     		str	r3, [r7, #12]
1100:./Libraries/STM32H7xx_HAL_Driver/Src/stm32h7xx_hal_tim_ex.c ****     if (!IS_TIM_SLAVEMODE_TRIGGER_ENABLED(tmpsmcr))
 3198              		.loc 1 1100 8
 3199 011a FB68     		ldr	r3, [r7, #12]
 3200 011c 062B     		cmp	r3, #6
 3201 011e 15D0     		beq	.L211
 3202              		.loc 1 1100 9 discriminator 1
 3203 0120 FB68     		ldr	r3, [r7, #12]
 3204 0122 B3F5803F 		cmp	r3, #65536
 3205 0126 11D0     		beq	.L211
1101:./Libraries/STM32H7xx_HAL_Driver/Src/stm32h7xx_hal_tim_ex.c ****     {
1102:./Libraries/STM32H7xx_HAL_Driver/Src/stm32h7xx_hal_tim_ex.c ****       __HAL_TIM_ENABLE(htim);
 3206              		.loc 1 1102 7
 3207 0128 7B68     		ldr	r3, [r7, #4]
 3208 012a 1B68     		ldr	r3, [r3]
 3209 012c 1A68     		ldr	r2, [r3]
 3210 012e 7B68     		ldr	r3, [r7, #4]
 3211 0130 1B68     		ldr	r3, [r3]
 3212 0132 42F00102 		orr	r2, r2, #1
 3213 0136 1A60     		str	r2, [r3]
1100:./Libraries/STM32H7xx_HAL_Driver/Src/stm32h7xx_hal_tim_ex.c ****     if (!IS_TIM_SLAVEMODE_TRIGGER_ENABLED(tmpsmcr))
 3214              		.loc 1 1100 8
 3215 0138 08E0     		b	.L211
 3216              	.L208:
1103:./Libraries/STM32H7xx_HAL_Driver/Src/stm32h7xx_hal_tim_ex.c ****     }
1104:./Libraries/STM32H7xx_HAL_Driver/Src/stm32h7xx_hal_tim_ex.c ****   }
1105:./Libraries/STM32H7xx_HAL_Driver/Src/stm32h7xx_hal_tim_ex.c ****   else
1106:./Libraries/STM32H7xx_HAL_Driver/Src/stm32h7xx_hal_tim_ex.c ****   {
1107:./Libraries/STM32H7xx_HAL_Driver/Src/stm32h7xx_hal_tim_ex.c ****     __HAL_TIM_ENABLE(htim);
 3217              		.loc 1 1107 5
 3218 013a 7B68     		ldr	r3, [r7, #4]
 3219 013c 1B68     		ldr	r3, [r3]
 3220 013e 1A68     		ldr	r2, [r3]
 3221 0140 7B68     		ldr	r3, [r7, #4]
 3222 0142 1B68     		ldr	r3, [r3]
 3223 0144 42F00102 		orr	r2, r2, #1
 3224 0148 1A60     		str	r2, [r3]
 3225 014a 00E0     		b	.L210
 3226              	.L211:
1100:./Libraries/STM32H7xx_HAL_Driver/Src/stm32h7xx_hal_tim_ex.c ****     {
 3227              		.loc 1 1100 8
 3228 014c 00BF     		nop
 3229              	.L210:
1108:./Libraries/STM32H7xx_HAL_Driver/Src/stm32h7xx_hal_tim_ex.c ****   }
1109:./Libraries/STM32H7xx_HAL_Driver/Src/stm32h7xx_hal_tim_ex.c **** 
1110:./Libraries/STM32H7xx_HAL_Driver/Src/stm32h7xx_hal_tim_ex.c ****   /* Return function status */
1111:./Libraries/STM32H7xx_HAL_Driver/Src/stm32h7xx_hal_tim_ex.c ****   return HAL_OK;
 3230              		.loc 1 1111 10
 3231 014e 0023     		movs	r3, #0
 3232              	.L200:
ARM GAS  /tmp/ccxx2olO.s 			page 78


1112:./Libraries/STM32H7xx_HAL_Driver/Src/stm32h7xx_hal_tim_ex.c **** }
 3233              		.loc 1 1112 1
 3234 0150 1846     		mov	r0, r3
 3235 0152 1037     		adds	r7, r7, #16
 3236              	.LCFI85:
 3237              		.cfi_def_cfa_offset 8
 3238 0154 BD46     		mov	sp, r7
 3239              	.LCFI86:
 3240              		.cfi_def_cfa_register 13
 3241              		@ sp needed
 3242 0156 80BD     		pop	{r7, pc}
 3243              	.L213:
 3244              		.align	2
 3245              	.L212:
 3246 0158 00000140 		.word	1073807360
 3247 015c 00040040 		.word	1073742848
 3248 0160 00080040 		.word	1073743872
 3249 0164 000C0040 		.word	1073744896
 3250 0168 00040140 		.word	1073808384
 3251 016c 00180040 		.word	1073747968
 3252 0170 07000100 		.word	65543
 3253              		.cfi_endproc
 3254              	.LFE347:
 3256              		.section	.text.HAL_TIMEx_PWMN_Stop,"ax",%progbits
 3257              		.align	1
 3258              		.global	HAL_TIMEx_PWMN_Stop
 3259              		.syntax unified
 3260              		.thumb
 3261              		.thumb_func
 3262              		.fpu fpv5-d16
 3264              	HAL_TIMEx_PWMN_Stop:
 3265              	.LFB348:
1113:./Libraries/STM32H7xx_HAL_Driver/Src/stm32h7xx_hal_tim_ex.c **** 
1114:./Libraries/STM32H7xx_HAL_Driver/Src/stm32h7xx_hal_tim_ex.c **** /**
1115:./Libraries/STM32H7xx_HAL_Driver/Src/stm32h7xx_hal_tim_ex.c ****   * @brief  Stops the PWM signal generation on the complementary output.
1116:./Libraries/STM32H7xx_HAL_Driver/Src/stm32h7xx_hal_tim_ex.c ****   * @param  htim TIM handle
1117:./Libraries/STM32H7xx_HAL_Driver/Src/stm32h7xx_hal_tim_ex.c ****   * @param  Channel TIM Channel to be disabled
1118:./Libraries/STM32H7xx_HAL_Driver/Src/stm32h7xx_hal_tim_ex.c ****   *          This parameter can be one of the following values:
1119:./Libraries/STM32H7xx_HAL_Driver/Src/stm32h7xx_hal_tim_ex.c ****   *            @arg TIM_CHANNEL_1: TIM Channel 1 selected
1120:./Libraries/STM32H7xx_HAL_Driver/Src/stm32h7xx_hal_tim_ex.c ****   *            @arg TIM_CHANNEL_2: TIM Channel 2 selected
1121:./Libraries/STM32H7xx_HAL_Driver/Src/stm32h7xx_hal_tim_ex.c ****   *            @arg TIM_CHANNEL_3: TIM Channel 3 selected
1122:./Libraries/STM32H7xx_HAL_Driver/Src/stm32h7xx_hal_tim_ex.c ****   * @retval HAL status
1123:./Libraries/STM32H7xx_HAL_Driver/Src/stm32h7xx_hal_tim_ex.c ****   */
1124:./Libraries/STM32H7xx_HAL_Driver/Src/stm32h7xx_hal_tim_ex.c **** HAL_StatusTypeDef HAL_TIMEx_PWMN_Stop(TIM_HandleTypeDef *htim, uint32_t Channel)
1125:./Libraries/STM32H7xx_HAL_Driver/Src/stm32h7xx_hal_tim_ex.c **** {
 3266              		.loc 1 1125 1
 3267              		.cfi_startproc
 3268              		@ args = 0, pretend = 0, frame = 8
 3269              		@ frame_needed = 1, uses_anonymous_args = 0
 3270 0000 80B5     		push	{r7, lr}
 3271              	.LCFI87:
 3272              		.cfi_def_cfa_offset 8
 3273              		.cfi_offset 7, -8
 3274              		.cfi_offset 14, -4
 3275 0002 82B0     		sub	sp, sp, #8
 3276              	.LCFI88:
 3277              		.cfi_def_cfa_offset 16
ARM GAS  /tmp/ccxx2olO.s 			page 79


 3278 0004 00AF     		add	r7, sp, #0
 3279              	.LCFI89:
 3280              		.cfi_def_cfa_register 7
 3281 0006 7860     		str	r0, [r7, #4]
 3282 0008 3960     		str	r1, [r7]
1126:./Libraries/STM32H7xx_HAL_Driver/Src/stm32h7xx_hal_tim_ex.c ****   /* Check the parameters */
1127:./Libraries/STM32H7xx_HAL_Driver/Src/stm32h7xx_hal_tim_ex.c ****   assert_param(IS_TIM_CCXN_INSTANCE(htim->Instance, Channel));
1128:./Libraries/STM32H7xx_HAL_Driver/Src/stm32h7xx_hal_tim_ex.c **** 
1129:./Libraries/STM32H7xx_HAL_Driver/Src/stm32h7xx_hal_tim_ex.c ****   /* Disable the complementary PWM output  */
1130:./Libraries/STM32H7xx_HAL_Driver/Src/stm32h7xx_hal_tim_ex.c ****   TIM_CCxNChannelCmd(htim->Instance, Channel, TIM_CCxN_DISABLE);
 3283              		.loc 1 1130 3
 3284 000a 7B68     		ldr	r3, [r7, #4]
 3285 000c 1B68     		ldr	r3, [r3]
 3286 000e 0022     		movs	r2, #0
 3287 0010 3968     		ldr	r1, [r7]
 3288 0012 1846     		mov	r0, r3
 3289 0014 FFF7FEFF 		bl	TIM_CCxNChannelCmd
1131:./Libraries/STM32H7xx_HAL_Driver/Src/stm32h7xx_hal_tim_ex.c **** 
1132:./Libraries/STM32H7xx_HAL_Driver/Src/stm32h7xx_hal_tim_ex.c ****   /* Disable the Main Output */
1133:./Libraries/STM32H7xx_HAL_Driver/Src/stm32h7xx_hal_tim_ex.c ****   __HAL_TIM_MOE_DISABLE(htim);
 3290              		.loc 1 1133 3
 3291 0018 7B68     		ldr	r3, [r7, #4]
 3292 001a 1B68     		ldr	r3, [r3]
 3293 001c 1A6A     		ldr	r2, [r3, #32]
 3294 001e 41F21113 		movw	r3, #4369
 3295 0022 1340     		ands	r3, r3, r2
 3296 0024 002B     		cmp	r3, #0
 3297 0026 0FD1     		bne	.L215
 3298              		.loc 1 1133 3 is_stmt 0 discriminator 1
 3299 0028 7B68     		ldr	r3, [r7, #4]
 3300 002a 1B68     		ldr	r3, [r3]
 3301 002c 1A6A     		ldr	r2, [r3, #32]
 3302 002e 40F24443 		movw	r3, #1092
 3303 0032 1340     		ands	r3, r3, r2
 3304 0034 002B     		cmp	r3, #0
 3305 0036 07D1     		bne	.L215
 3306              		.loc 1 1133 3 discriminator 2
 3307 0038 7B68     		ldr	r3, [r7, #4]
 3308 003a 1B68     		ldr	r3, [r3]
 3309 003c 5A6C     		ldr	r2, [r3, #68]
 3310 003e 7B68     		ldr	r3, [r7, #4]
 3311 0040 1B68     		ldr	r3, [r3]
 3312 0042 22F40042 		bic	r2, r2, #32768
 3313 0046 5A64     		str	r2, [r3, #68]
 3314              	.L215:
1134:./Libraries/STM32H7xx_HAL_Driver/Src/stm32h7xx_hal_tim_ex.c **** 
1135:./Libraries/STM32H7xx_HAL_Driver/Src/stm32h7xx_hal_tim_ex.c ****   /* Disable the Peripheral */
1136:./Libraries/STM32H7xx_HAL_Driver/Src/stm32h7xx_hal_tim_ex.c ****   __HAL_TIM_DISABLE(htim);
 3315              		.loc 1 1136 3 is_stmt 1
 3316 0048 7B68     		ldr	r3, [r7, #4]
 3317 004a 1B68     		ldr	r3, [r3]
 3318 004c 1A6A     		ldr	r2, [r3, #32]
 3319 004e 41F21113 		movw	r3, #4369
 3320 0052 1340     		ands	r3, r3, r2
 3321 0054 002B     		cmp	r3, #0
 3322 0056 0FD1     		bne	.L216
 3323              		.loc 1 1136 3 is_stmt 0 discriminator 1
ARM GAS  /tmp/ccxx2olO.s 			page 80


 3324 0058 7B68     		ldr	r3, [r7, #4]
 3325 005a 1B68     		ldr	r3, [r3]
 3326 005c 1A6A     		ldr	r2, [r3, #32]
 3327 005e 40F24443 		movw	r3, #1092
 3328 0062 1340     		ands	r3, r3, r2
 3329 0064 002B     		cmp	r3, #0
 3330 0066 07D1     		bne	.L216
 3331              		.loc 1 1136 3 discriminator 2
 3332 0068 7B68     		ldr	r3, [r7, #4]
 3333 006a 1B68     		ldr	r3, [r3]
 3334 006c 1A68     		ldr	r2, [r3]
 3335 006e 7B68     		ldr	r3, [r7, #4]
 3336 0070 1B68     		ldr	r3, [r3]
 3337 0072 22F00102 		bic	r2, r2, #1
 3338 0076 1A60     		str	r2, [r3]
 3339              	.L216:
1137:./Libraries/STM32H7xx_HAL_Driver/Src/stm32h7xx_hal_tim_ex.c **** 
1138:./Libraries/STM32H7xx_HAL_Driver/Src/stm32h7xx_hal_tim_ex.c ****   /* Set the TIM complementary channel state */
1139:./Libraries/STM32H7xx_HAL_Driver/Src/stm32h7xx_hal_tim_ex.c ****   TIM_CHANNEL_N_STATE_SET(htim, Channel, HAL_TIM_CHANNEL_STATE_READY);
 3340              		.loc 1 1139 3 is_stmt 1
 3341 0078 3B68     		ldr	r3, [r7]
 3342 007a 002B     		cmp	r3, #0
 3343 007c 04D1     		bne	.L217
 3344              		.loc 1 1139 3 is_stmt 0 discriminator 1
 3345 007e 7B68     		ldr	r3, [r7, #4]
 3346 0080 0122     		movs	r2, #1
 3347 0082 83F84420 		strb	r2, [r3, #68]
 3348 0086 13E0     		b	.L218
 3349              	.L217:
 3350              		.loc 1 1139 3 discriminator 2
 3351 0088 3B68     		ldr	r3, [r7]
 3352 008a 042B     		cmp	r3, #4
 3353 008c 04D1     		bne	.L219
 3354              		.loc 1 1139 3 discriminator 3
 3355 008e 7B68     		ldr	r3, [r7, #4]
 3356 0090 0122     		movs	r2, #1
 3357 0092 83F84520 		strb	r2, [r3, #69]
 3358 0096 0BE0     		b	.L218
 3359              	.L219:
 3360              		.loc 1 1139 3 discriminator 4
 3361 0098 3B68     		ldr	r3, [r7]
 3362 009a 082B     		cmp	r3, #8
 3363 009c 04D1     		bne	.L221
 3364              		.loc 1 1139 3 discriminator 6
 3365 009e 7B68     		ldr	r3, [r7, #4]
 3366 00a0 0122     		movs	r2, #1
 3367 00a2 83F84620 		strb	r2, [r3, #70]
 3368 00a6 03E0     		b	.L218
 3369              	.L221:
 3370              		.loc 1 1139 3 discriminator 7
 3371 00a8 7B68     		ldr	r3, [r7, #4]
 3372 00aa 0122     		movs	r2, #1
 3373 00ac 83F84720 		strb	r2, [r3, #71]
 3374              	.L218:
1140:./Libraries/STM32H7xx_HAL_Driver/Src/stm32h7xx_hal_tim_ex.c **** 
1141:./Libraries/STM32H7xx_HAL_Driver/Src/stm32h7xx_hal_tim_ex.c ****   /* Return function status */
1142:./Libraries/STM32H7xx_HAL_Driver/Src/stm32h7xx_hal_tim_ex.c ****   return HAL_OK;
ARM GAS  /tmp/ccxx2olO.s 			page 81


 3375              		.loc 1 1142 10 is_stmt 1
 3376 00b0 0023     		movs	r3, #0
1143:./Libraries/STM32H7xx_HAL_Driver/Src/stm32h7xx_hal_tim_ex.c **** }
 3377              		.loc 1 1143 1
 3378 00b2 1846     		mov	r0, r3
 3379 00b4 0837     		adds	r7, r7, #8
 3380              	.LCFI90:
 3381              		.cfi_def_cfa_offset 8
 3382 00b6 BD46     		mov	sp, r7
 3383              	.LCFI91:
 3384              		.cfi_def_cfa_register 13
 3385              		@ sp needed
 3386 00b8 80BD     		pop	{r7, pc}
 3387              		.cfi_endproc
 3388              	.LFE348:
 3390              		.section	.text.HAL_TIMEx_PWMN_Start_IT,"ax",%progbits
 3391              		.align	1
 3392              		.global	HAL_TIMEx_PWMN_Start_IT
 3393              		.syntax unified
 3394              		.thumb
 3395              		.thumb_func
 3396              		.fpu fpv5-d16
 3398              	HAL_TIMEx_PWMN_Start_IT:
 3399              	.LFB349:
1144:./Libraries/STM32H7xx_HAL_Driver/Src/stm32h7xx_hal_tim_ex.c **** 
1145:./Libraries/STM32H7xx_HAL_Driver/Src/stm32h7xx_hal_tim_ex.c **** /**
1146:./Libraries/STM32H7xx_HAL_Driver/Src/stm32h7xx_hal_tim_ex.c ****   * @brief  Starts the PWM signal generation in interrupt mode on the
1147:./Libraries/STM32H7xx_HAL_Driver/Src/stm32h7xx_hal_tim_ex.c ****   *         complementary output.
1148:./Libraries/STM32H7xx_HAL_Driver/Src/stm32h7xx_hal_tim_ex.c ****   * @param  htim TIM handle
1149:./Libraries/STM32H7xx_HAL_Driver/Src/stm32h7xx_hal_tim_ex.c ****   * @param  Channel TIM Channel to be disabled
1150:./Libraries/STM32H7xx_HAL_Driver/Src/stm32h7xx_hal_tim_ex.c ****   *          This parameter can be one of the following values:
1151:./Libraries/STM32H7xx_HAL_Driver/Src/stm32h7xx_hal_tim_ex.c ****   *            @arg TIM_CHANNEL_1: TIM Channel 1 selected
1152:./Libraries/STM32H7xx_HAL_Driver/Src/stm32h7xx_hal_tim_ex.c ****   *            @arg TIM_CHANNEL_2: TIM Channel 2 selected
1153:./Libraries/STM32H7xx_HAL_Driver/Src/stm32h7xx_hal_tim_ex.c ****   *            @arg TIM_CHANNEL_3: TIM Channel 3 selected
1154:./Libraries/STM32H7xx_HAL_Driver/Src/stm32h7xx_hal_tim_ex.c ****   * @retval HAL status
1155:./Libraries/STM32H7xx_HAL_Driver/Src/stm32h7xx_hal_tim_ex.c ****   */
1156:./Libraries/STM32H7xx_HAL_Driver/Src/stm32h7xx_hal_tim_ex.c **** HAL_StatusTypeDef HAL_TIMEx_PWMN_Start_IT(TIM_HandleTypeDef *htim, uint32_t Channel)
1157:./Libraries/STM32H7xx_HAL_Driver/Src/stm32h7xx_hal_tim_ex.c **** {
 3400              		.loc 1 1157 1
 3401              		.cfi_startproc
 3402              		@ args = 0, pretend = 0, frame = 16
 3403              		@ frame_needed = 1, uses_anonymous_args = 0
 3404 0000 80B5     		push	{r7, lr}
 3405              	.LCFI92:
 3406              		.cfi_def_cfa_offset 8
 3407              		.cfi_offset 7, -8
 3408              		.cfi_offset 14, -4
 3409 0002 84B0     		sub	sp, sp, #16
 3410              	.LCFI93:
 3411              		.cfi_def_cfa_offset 24
 3412 0004 00AF     		add	r7, sp, #0
 3413              	.LCFI94:
 3414              		.cfi_def_cfa_register 7
 3415 0006 7860     		str	r0, [r7, #4]
 3416 0008 3960     		str	r1, [r7]
1158:./Libraries/STM32H7xx_HAL_Driver/Src/stm32h7xx_hal_tim_ex.c ****   uint32_t tmpsmcr;
1159:./Libraries/STM32H7xx_HAL_Driver/Src/stm32h7xx_hal_tim_ex.c **** 
ARM GAS  /tmp/ccxx2olO.s 			page 82


1160:./Libraries/STM32H7xx_HAL_Driver/Src/stm32h7xx_hal_tim_ex.c ****   /* Check the parameters */
1161:./Libraries/STM32H7xx_HAL_Driver/Src/stm32h7xx_hal_tim_ex.c ****   assert_param(IS_TIM_CCXN_INSTANCE(htim->Instance, Channel));
1162:./Libraries/STM32H7xx_HAL_Driver/Src/stm32h7xx_hal_tim_ex.c **** 
1163:./Libraries/STM32H7xx_HAL_Driver/Src/stm32h7xx_hal_tim_ex.c ****   /* Check the TIM complementary channel state */
1164:./Libraries/STM32H7xx_HAL_Driver/Src/stm32h7xx_hal_tim_ex.c ****   if (TIM_CHANNEL_N_STATE_GET(htim, Channel) != HAL_TIM_CHANNEL_STATE_READY)
 3417              		.loc 1 1164 46
 3418 000a 3B68     		ldr	r3, [r7]
 3419 000c 002B     		cmp	r3, #0
 3420 000e 09D1     		bne	.L225
 3421              		.loc 1 1164 7 discriminator 1
 3422 0010 7B68     		ldr	r3, [r7, #4]
 3423 0012 93F84430 		ldrb	r3, [r3, #68]
 3424 0016 DBB2     		uxtb	r3, r3
 3425              		.loc 1 1164 46 discriminator 1
 3426 0018 012B     		cmp	r3, #1
 3427 001a 14BF     		ite	ne
 3428 001c 0123     		movne	r3, #1
 3429 001e 0023     		moveq	r3, #0
 3430 0020 DBB2     		uxtb	r3, r3
 3431 0022 22E0     		b	.L226
 3432              	.L225:
 3433              		.loc 1 1164 46 is_stmt 0 discriminator 2
 3434 0024 3B68     		ldr	r3, [r7]
 3435 0026 042B     		cmp	r3, #4
 3436 0028 09D1     		bne	.L227
 3437              		.loc 1 1164 7 is_stmt 1 discriminator 4
 3438 002a 7B68     		ldr	r3, [r7, #4]
 3439 002c 93F84530 		ldrb	r3, [r3, #69]
 3440 0030 DBB2     		uxtb	r3, r3
 3441              		.loc 1 1164 46 discriminator 4
 3442 0032 012B     		cmp	r3, #1
 3443 0034 14BF     		ite	ne
 3444 0036 0123     		movne	r3, #1
 3445 0038 0023     		moveq	r3, #0
 3446 003a DBB2     		uxtb	r3, r3
 3447 003c 15E0     		b	.L226
 3448              	.L227:
 3449              		.loc 1 1164 46 is_stmt 0 discriminator 5
 3450 003e 3B68     		ldr	r3, [r7]
 3451 0040 082B     		cmp	r3, #8
 3452 0042 09D1     		bne	.L229
 3453              		.loc 1 1164 7 is_stmt 1 discriminator 7
 3454 0044 7B68     		ldr	r3, [r7, #4]
 3455 0046 93F84630 		ldrb	r3, [r3, #70]
 3456 004a DBB2     		uxtb	r3, r3
 3457              		.loc 1 1164 46 discriminator 7
 3458 004c 012B     		cmp	r3, #1
 3459 004e 14BF     		ite	ne
 3460 0050 0123     		movne	r3, #1
 3461 0052 0023     		moveq	r3, #0
 3462 0054 DBB2     		uxtb	r3, r3
 3463 0056 08E0     		b	.L226
 3464              	.L229:
 3465              		.loc 1 1164 7 discriminator 8
 3466 0058 7B68     		ldr	r3, [r7, #4]
 3467 005a 93F84730 		ldrb	r3, [r3, #71]
 3468 005e DBB2     		uxtb	r3, r3
ARM GAS  /tmp/ccxx2olO.s 			page 83


 3469              		.loc 1 1164 46 discriminator 8
 3470 0060 012B     		cmp	r3, #1
 3471 0062 14BF     		ite	ne
 3472 0064 0123     		movne	r3, #1
 3473 0066 0023     		moveq	r3, #0
 3474 0068 DBB2     		uxtb	r3, r3
 3475              	.L226:
 3476              		.loc 1 1164 6 discriminator 12
 3477 006a 002B     		cmp	r3, #0
 3478 006c 01D0     		beq	.L231
1165:./Libraries/STM32H7xx_HAL_Driver/Src/stm32h7xx_hal_tim_ex.c ****   {
1166:./Libraries/STM32H7xx_HAL_Driver/Src/stm32h7xx_hal_tim_ex.c ****     return HAL_ERROR;
 3479              		.loc 1 1166 12
 3480 006e 0123     		movs	r3, #1
 3481 0070 9FE0     		b	.L232
 3482              	.L231:
1167:./Libraries/STM32H7xx_HAL_Driver/Src/stm32h7xx_hal_tim_ex.c ****   }
1168:./Libraries/STM32H7xx_HAL_Driver/Src/stm32h7xx_hal_tim_ex.c **** 
1169:./Libraries/STM32H7xx_HAL_Driver/Src/stm32h7xx_hal_tim_ex.c ****   /* Set the TIM complementary channel state */
1170:./Libraries/STM32H7xx_HAL_Driver/Src/stm32h7xx_hal_tim_ex.c ****   TIM_CHANNEL_N_STATE_SET(htim, Channel, HAL_TIM_CHANNEL_STATE_BUSY);
 3483              		.loc 1 1170 3
 3484 0072 3B68     		ldr	r3, [r7]
 3485 0074 002B     		cmp	r3, #0
 3486 0076 04D1     		bne	.L233
 3487              		.loc 1 1170 3 is_stmt 0 discriminator 1
 3488 0078 7B68     		ldr	r3, [r7, #4]
 3489 007a 0222     		movs	r2, #2
 3490 007c 83F84420 		strb	r2, [r3, #68]
 3491 0080 13E0     		b	.L234
 3492              	.L233:
 3493              		.loc 1 1170 3 discriminator 2
 3494 0082 3B68     		ldr	r3, [r7]
 3495 0084 042B     		cmp	r3, #4
 3496 0086 04D1     		bne	.L235
 3497              		.loc 1 1170 3 discriminator 3
 3498 0088 7B68     		ldr	r3, [r7, #4]
 3499 008a 0222     		movs	r2, #2
 3500 008c 83F84520 		strb	r2, [r3, #69]
 3501 0090 0BE0     		b	.L234
 3502              	.L235:
 3503              		.loc 1 1170 3 discriminator 4
 3504 0092 3B68     		ldr	r3, [r7]
 3505 0094 082B     		cmp	r3, #8
 3506 0096 04D1     		bne	.L237
 3507              		.loc 1 1170 3 discriminator 6
 3508 0098 7B68     		ldr	r3, [r7, #4]
 3509 009a 0222     		movs	r2, #2
 3510 009c 83F84620 		strb	r2, [r3, #70]
 3511 00a0 03E0     		b	.L234
 3512              	.L237:
 3513              		.loc 1 1170 3 discriminator 7
 3514 00a2 7B68     		ldr	r3, [r7, #4]
 3515 00a4 0222     		movs	r2, #2
 3516 00a6 83F84720 		strb	r2, [r3, #71]
 3517              	.L234:
1171:./Libraries/STM32H7xx_HAL_Driver/Src/stm32h7xx_hal_tim_ex.c **** 
1172:./Libraries/STM32H7xx_HAL_Driver/Src/stm32h7xx_hal_tim_ex.c ****   switch (Channel)
ARM GAS  /tmp/ccxx2olO.s 			page 84


 3518              		.loc 1 1172 3 is_stmt 1
 3519 00aa 3B68     		ldr	r3, [r7]
 3520 00ac 082B     		cmp	r3, #8
 3521 00ae 1BD0     		beq	.L239
 3522 00b0 3B68     		ldr	r3, [r7]
 3523 00b2 082B     		cmp	r3, #8
 3524 00b4 21D8     		bhi	.L248
 3525 00b6 3B68     		ldr	r3, [r7]
 3526 00b8 002B     		cmp	r3, #0
 3527 00ba 03D0     		beq	.L241
 3528 00bc 3B68     		ldr	r3, [r7]
 3529 00be 042B     		cmp	r3, #4
 3530 00c0 09D0     		beq	.L242
1173:./Libraries/STM32H7xx_HAL_Driver/Src/stm32h7xx_hal_tim_ex.c ****   {
1174:./Libraries/STM32H7xx_HAL_Driver/Src/stm32h7xx_hal_tim_ex.c ****     case TIM_CHANNEL_1:
1175:./Libraries/STM32H7xx_HAL_Driver/Src/stm32h7xx_hal_tim_ex.c ****     {
1176:./Libraries/STM32H7xx_HAL_Driver/Src/stm32h7xx_hal_tim_ex.c ****       /* Enable the TIM Capture/Compare 1 interrupt */
1177:./Libraries/STM32H7xx_HAL_Driver/Src/stm32h7xx_hal_tim_ex.c ****       __HAL_TIM_ENABLE_IT(htim, TIM_IT_CC1);
1178:./Libraries/STM32H7xx_HAL_Driver/Src/stm32h7xx_hal_tim_ex.c ****       break;
1179:./Libraries/STM32H7xx_HAL_Driver/Src/stm32h7xx_hal_tim_ex.c ****     }
1180:./Libraries/STM32H7xx_HAL_Driver/Src/stm32h7xx_hal_tim_ex.c **** 
1181:./Libraries/STM32H7xx_HAL_Driver/Src/stm32h7xx_hal_tim_ex.c ****     case TIM_CHANNEL_2:
1182:./Libraries/STM32H7xx_HAL_Driver/Src/stm32h7xx_hal_tim_ex.c ****     {
1183:./Libraries/STM32H7xx_HAL_Driver/Src/stm32h7xx_hal_tim_ex.c ****       /* Enable the TIM Capture/Compare 2 interrupt */
1184:./Libraries/STM32H7xx_HAL_Driver/Src/stm32h7xx_hal_tim_ex.c ****       __HAL_TIM_ENABLE_IT(htim, TIM_IT_CC2);
1185:./Libraries/STM32H7xx_HAL_Driver/Src/stm32h7xx_hal_tim_ex.c ****       break;
1186:./Libraries/STM32H7xx_HAL_Driver/Src/stm32h7xx_hal_tim_ex.c ****     }
1187:./Libraries/STM32H7xx_HAL_Driver/Src/stm32h7xx_hal_tim_ex.c **** 
1188:./Libraries/STM32H7xx_HAL_Driver/Src/stm32h7xx_hal_tim_ex.c ****     case TIM_CHANNEL_3:
1189:./Libraries/STM32H7xx_HAL_Driver/Src/stm32h7xx_hal_tim_ex.c ****     {
1190:./Libraries/STM32H7xx_HAL_Driver/Src/stm32h7xx_hal_tim_ex.c ****       /* Enable the TIM Capture/Compare 3 interrupt */
1191:./Libraries/STM32H7xx_HAL_Driver/Src/stm32h7xx_hal_tim_ex.c ****       __HAL_TIM_ENABLE_IT(htim, TIM_IT_CC3);
1192:./Libraries/STM32H7xx_HAL_Driver/Src/stm32h7xx_hal_tim_ex.c ****       break;
1193:./Libraries/STM32H7xx_HAL_Driver/Src/stm32h7xx_hal_tim_ex.c ****     }
1194:./Libraries/STM32H7xx_HAL_Driver/Src/stm32h7xx_hal_tim_ex.c **** 
1195:./Libraries/STM32H7xx_HAL_Driver/Src/stm32h7xx_hal_tim_ex.c ****     default:
1196:./Libraries/STM32H7xx_HAL_Driver/Src/stm32h7xx_hal_tim_ex.c ****       break;
 3531              		.loc 1 1196 7
 3532 00c2 1AE0     		b	.L248
 3533              	.L241:
1177:./Libraries/STM32H7xx_HAL_Driver/Src/stm32h7xx_hal_tim_ex.c ****       break;
 3534              		.loc 1 1177 7
 3535 00c4 7B68     		ldr	r3, [r7, #4]
 3536 00c6 1B68     		ldr	r3, [r3]
 3537 00c8 DA68     		ldr	r2, [r3, #12]
 3538 00ca 7B68     		ldr	r3, [r7, #4]
 3539 00cc 1B68     		ldr	r3, [r3]
 3540 00ce 42F00202 		orr	r2, r2, #2
 3541 00d2 DA60     		str	r2, [r3, #12]
1178:./Libraries/STM32H7xx_HAL_Driver/Src/stm32h7xx_hal_tim_ex.c ****     }
 3542              		.loc 1 1178 7
 3543 00d4 12E0     		b	.L243
 3544              	.L242:
1184:./Libraries/STM32H7xx_HAL_Driver/Src/stm32h7xx_hal_tim_ex.c ****       break;
 3545              		.loc 1 1184 7
 3546 00d6 7B68     		ldr	r3, [r7, #4]
 3547 00d8 1B68     		ldr	r3, [r3]
ARM GAS  /tmp/ccxx2olO.s 			page 85


 3548 00da DA68     		ldr	r2, [r3, #12]
 3549 00dc 7B68     		ldr	r3, [r7, #4]
 3550 00de 1B68     		ldr	r3, [r3]
 3551 00e0 42F00402 		orr	r2, r2, #4
 3552 00e4 DA60     		str	r2, [r3, #12]
1185:./Libraries/STM32H7xx_HAL_Driver/Src/stm32h7xx_hal_tim_ex.c ****     }
 3553              		.loc 1 1185 7
 3554 00e6 09E0     		b	.L243
 3555              	.L239:
1191:./Libraries/STM32H7xx_HAL_Driver/Src/stm32h7xx_hal_tim_ex.c ****       break;
 3556              		.loc 1 1191 7
 3557 00e8 7B68     		ldr	r3, [r7, #4]
 3558 00ea 1B68     		ldr	r3, [r3]
 3559 00ec DA68     		ldr	r2, [r3, #12]
 3560 00ee 7B68     		ldr	r3, [r7, #4]
 3561 00f0 1B68     		ldr	r3, [r3]
 3562 00f2 42F00802 		orr	r2, r2, #8
 3563 00f6 DA60     		str	r2, [r3, #12]
1192:./Libraries/STM32H7xx_HAL_Driver/Src/stm32h7xx_hal_tim_ex.c ****     }
 3564              		.loc 1 1192 7
 3565 00f8 00E0     		b	.L243
 3566              	.L248:
 3567              		.loc 1 1196 7
 3568 00fa 00BF     		nop
 3569              	.L243:
1197:./Libraries/STM32H7xx_HAL_Driver/Src/stm32h7xx_hal_tim_ex.c ****   }
1198:./Libraries/STM32H7xx_HAL_Driver/Src/stm32h7xx_hal_tim_ex.c **** 
1199:./Libraries/STM32H7xx_HAL_Driver/Src/stm32h7xx_hal_tim_ex.c ****   /* Enable the TIM Break interrupt */
1200:./Libraries/STM32H7xx_HAL_Driver/Src/stm32h7xx_hal_tim_ex.c ****   __HAL_TIM_ENABLE_IT(htim, TIM_IT_BREAK);
 3570              		.loc 1 1200 3
 3571 00fc 7B68     		ldr	r3, [r7, #4]
 3572 00fe 1B68     		ldr	r3, [r3]
 3573 0100 DA68     		ldr	r2, [r3, #12]
 3574 0102 7B68     		ldr	r3, [r7, #4]
 3575 0104 1B68     		ldr	r3, [r3]
 3576 0106 42F08002 		orr	r2, r2, #128
 3577 010a DA60     		str	r2, [r3, #12]
1201:./Libraries/STM32H7xx_HAL_Driver/Src/stm32h7xx_hal_tim_ex.c **** 
1202:./Libraries/STM32H7xx_HAL_Driver/Src/stm32h7xx_hal_tim_ex.c ****   /* Enable the complementary PWM output  */
1203:./Libraries/STM32H7xx_HAL_Driver/Src/stm32h7xx_hal_tim_ex.c ****   TIM_CCxNChannelCmd(htim->Instance, Channel, TIM_CCxN_ENABLE);
 3578              		.loc 1 1203 3
 3579 010c 7B68     		ldr	r3, [r7, #4]
 3580 010e 1B68     		ldr	r3, [r3]
 3581 0110 0422     		movs	r2, #4
 3582 0112 3968     		ldr	r1, [r7]
 3583 0114 1846     		mov	r0, r3
 3584 0116 FFF7FEFF 		bl	TIM_CCxNChannelCmd
1204:./Libraries/STM32H7xx_HAL_Driver/Src/stm32h7xx_hal_tim_ex.c **** 
1205:./Libraries/STM32H7xx_HAL_Driver/Src/stm32h7xx_hal_tim_ex.c ****   /* Enable the Main Output */
1206:./Libraries/STM32H7xx_HAL_Driver/Src/stm32h7xx_hal_tim_ex.c ****   __HAL_TIM_MOE_ENABLE(htim);
 3585              		.loc 1 1206 3
 3586 011a 7B68     		ldr	r3, [r7, #4]
 3587 011c 1B68     		ldr	r3, [r3]
 3588 011e 5A6C     		ldr	r2, [r3, #68]
 3589 0120 7B68     		ldr	r3, [r7, #4]
 3590 0122 1B68     		ldr	r3, [r3]
 3591 0124 42F40042 		orr	r2, r2, #32768
ARM GAS  /tmp/ccxx2olO.s 			page 86


 3592 0128 5A64     		str	r2, [r3, #68]
1207:./Libraries/STM32H7xx_HAL_Driver/Src/stm32h7xx_hal_tim_ex.c **** 
1208:./Libraries/STM32H7xx_HAL_Driver/Src/stm32h7xx_hal_tim_ex.c ****   /* Enable the Peripheral, except in trigger mode where enable is automatically done with trigger 
1209:./Libraries/STM32H7xx_HAL_Driver/Src/stm32h7xx_hal_tim_ex.c ****   if (IS_TIM_SLAVE_INSTANCE(htim->Instance))
 3593              		.loc 1 1209 7
 3594 012a 7B68     		ldr	r3, [r7, #4]
 3595 012c 1B68     		ldr	r3, [r3]
 3596              		.loc 1 1209 6
 3597 012e 234A     		ldr	r2, .L250
 3598 0130 9342     		cmp	r3, r2
 3599 0132 1DD0     		beq	.L244
 3600              		.loc 1 1209 7 discriminator 1
 3601 0134 7B68     		ldr	r3, [r7, #4]
 3602 0136 1B68     		ldr	r3, [r3]
 3603 0138 B3F1804F 		cmp	r3, #1073741824
 3604 013c 18D0     		beq	.L244
 3605              		.loc 1 1209 7 is_stmt 0 discriminator 2
 3606 013e 7B68     		ldr	r3, [r7, #4]
 3607 0140 1B68     		ldr	r3, [r3]
 3608 0142 1F4A     		ldr	r2, .L250+4
 3609 0144 9342     		cmp	r3, r2
 3610 0146 13D0     		beq	.L244
 3611              		.loc 1 1209 7 discriminator 3
 3612 0148 7B68     		ldr	r3, [r7, #4]
 3613 014a 1B68     		ldr	r3, [r3]
 3614 014c 1D4A     		ldr	r2, .L250+8
 3615 014e 9342     		cmp	r3, r2
 3616 0150 0ED0     		beq	.L244
 3617              		.loc 1 1209 7 discriminator 4
 3618 0152 7B68     		ldr	r3, [r7, #4]
 3619 0154 1B68     		ldr	r3, [r3]
 3620 0156 1C4A     		ldr	r2, .L250+12
 3621 0158 9342     		cmp	r3, r2
 3622 015a 09D0     		beq	.L244
 3623              		.loc 1 1209 7 discriminator 5
 3624 015c 7B68     		ldr	r3, [r7, #4]
 3625 015e 1B68     		ldr	r3, [r3]
 3626 0160 1A4A     		ldr	r2, .L250+16
 3627 0162 9342     		cmp	r3, r2
 3628 0164 04D0     		beq	.L244
 3629              		.loc 1 1209 7 discriminator 6
 3630 0166 7B68     		ldr	r3, [r7, #4]
 3631 0168 1B68     		ldr	r3, [r3]
 3632 016a 194A     		ldr	r2, .L250+20
 3633 016c 9342     		cmp	r3, r2
 3634 016e 15D1     		bne	.L245
 3635              	.L244:
1210:./Libraries/STM32H7xx_HAL_Driver/Src/stm32h7xx_hal_tim_ex.c ****   {
1211:./Libraries/STM32H7xx_HAL_Driver/Src/stm32h7xx_hal_tim_ex.c ****     tmpsmcr = htim->Instance->SMCR & TIM_SMCR_SMS;
 3636              		.loc 1 1211 19 is_stmt 1
 3637 0170 7B68     		ldr	r3, [r7, #4]
 3638 0172 1B68     		ldr	r3, [r3]
 3639              		.loc 1 1211 29
 3640 0174 9A68     		ldr	r2, [r3, #8]
 3641              		.loc 1 1211 13
 3642 0176 174B     		ldr	r3, .L250+24
 3643 0178 1340     		ands	r3, r3, r2
ARM GAS  /tmp/ccxx2olO.s 			page 87


 3644 017a FB60     		str	r3, [r7, #12]
1212:./Libraries/STM32H7xx_HAL_Driver/Src/stm32h7xx_hal_tim_ex.c ****     if (!IS_TIM_SLAVEMODE_TRIGGER_ENABLED(tmpsmcr))
 3645              		.loc 1 1212 8
 3646 017c FB68     		ldr	r3, [r7, #12]
 3647 017e 062B     		cmp	r3, #6
 3648 0180 15D0     		beq	.L249
 3649              		.loc 1 1212 9 discriminator 1
 3650 0182 FB68     		ldr	r3, [r7, #12]
 3651 0184 B3F5803F 		cmp	r3, #65536
 3652 0188 11D0     		beq	.L249
1213:./Libraries/STM32H7xx_HAL_Driver/Src/stm32h7xx_hal_tim_ex.c ****     {
1214:./Libraries/STM32H7xx_HAL_Driver/Src/stm32h7xx_hal_tim_ex.c ****       __HAL_TIM_ENABLE(htim);
 3653              		.loc 1 1214 7
 3654 018a 7B68     		ldr	r3, [r7, #4]
 3655 018c 1B68     		ldr	r3, [r3]
 3656 018e 1A68     		ldr	r2, [r3]
 3657 0190 7B68     		ldr	r3, [r7, #4]
 3658 0192 1B68     		ldr	r3, [r3]
 3659 0194 42F00102 		orr	r2, r2, #1
 3660 0198 1A60     		str	r2, [r3]
1212:./Libraries/STM32H7xx_HAL_Driver/Src/stm32h7xx_hal_tim_ex.c ****     if (!IS_TIM_SLAVEMODE_TRIGGER_ENABLED(tmpsmcr))
 3661              		.loc 1 1212 8
 3662 019a 08E0     		b	.L249
 3663              	.L245:
1215:./Libraries/STM32H7xx_HAL_Driver/Src/stm32h7xx_hal_tim_ex.c ****     }
1216:./Libraries/STM32H7xx_HAL_Driver/Src/stm32h7xx_hal_tim_ex.c ****   }
1217:./Libraries/STM32H7xx_HAL_Driver/Src/stm32h7xx_hal_tim_ex.c ****   else
1218:./Libraries/STM32H7xx_HAL_Driver/Src/stm32h7xx_hal_tim_ex.c ****   {
1219:./Libraries/STM32H7xx_HAL_Driver/Src/stm32h7xx_hal_tim_ex.c ****     __HAL_TIM_ENABLE(htim);
 3664              		.loc 1 1219 5
 3665 019c 7B68     		ldr	r3, [r7, #4]
 3666 019e 1B68     		ldr	r3, [r3]
 3667 01a0 1A68     		ldr	r2, [r3]
 3668 01a2 7B68     		ldr	r3, [r7, #4]
 3669 01a4 1B68     		ldr	r3, [r3]
 3670 01a6 42F00102 		orr	r2, r2, #1
 3671 01aa 1A60     		str	r2, [r3]
 3672 01ac 00E0     		b	.L247
 3673              	.L249:
1212:./Libraries/STM32H7xx_HAL_Driver/Src/stm32h7xx_hal_tim_ex.c ****     {
 3674              		.loc 1 1212 8
 3675 01ae 00BF     		nop
 3676              	.L247:
1220:./Libraries/STM32H7xx_HAL_Driver/Src/stm32h7xx_hal_tim_ex.c ****   }
1221:./Libraries/STM32H7xx_HAL_Driver/Src/stm32h7xx_hal_tim_ex.c **** 
1222:./Libraries/STM32H7xx_HAL_Driver/Src/stm32h7xx_hal_tim_ex.c ****   /* Return function status */
1223:./Libraries/STM32H7xx_HAL_Driver/Src/stm32h7xx_hal_tim_ex.c ****   return HAL_OK;
 3677              		.loc 1 1223 10
 3678 01b0 0023     		movs	r3, #0
 3679              	.L232:
1224:./Libraries/STM32H7xx_HAL_Driver/Src/stm32h7xx_hal_tim_ex.c **** }
 3680              		.loc 1 1224 1
 3681 01b2 1846     		mov	r0, r3
 3682 01b4 1037     		adds	r7, r7, #16
 3683              	.LCFI95:
 3684              		.cfi_def_cfa_offset 8
 3685 01b6 BD46     		mov	sp, r7
ARM GAS  /tmp/ccxx2olO.s 			page 88


 3686              	.LCFI96:
 3687              		.cfi_def_cfa_register 13
 3688              		@ sp needed
 3689 01b8 80BD     		pop	{r7, pc}
 3690              	.L251:
 3691 01ba 00BF     		.align	2
 3692              	.L250:
 3693 01bc 00000140 		.word	1073807360
 3694 01c0 00040040 		.word	1073742848
 3695 01c4 00080040 		.word	1073743872
 3696 01c8 000C0040 		.word	1073744896
 3697 01cc 00040140 		.word	1073808384
 3698 01d0 00180040 		.word	1073747968
 3699 01d4 07000100 		.word	65543
 3700              		.cfi_endproc
 3701              	.LFE349:
 3703              		.section	.text.HAL_TIMEx_PWMN_Stop_IT,"ax",%progbits
 3704              		.align	1
 3705              		.global	HAL_TIMEx_PWMN_Stop_IT
 3706              		.syntax unified
 3707              		.thumb
 3708              		.thumb_func
 3709              		.fpu fpv5-d16
 3711              	HAL_TIMEx_PWMN_Stop_IT:
 3712              	.LFB350:
1225:./Libraries/STM32H7xx_HAL_Driver/Src/stm32h7xx_hal_tim_ex.c **** 
1226:./Libraries/STM32H7xx_HAL_Driver/Src/stm32h7xx_hal_tim_ex.c **** /**
1227:./Libraries/STM32H7xx_HAL_Driver/Src/stm32h7xx_hal_tim_ex.c ****   * @brief  Stops the PWM signal generation in interrupt mode on the
1228:./Libraries/STM32H7xx_HAL_Driver/Src/stm32h7xx_hal_tim_ex.c ****   *         complementary output.
1229:./Libraries/STM32H7xx_HAL_Driver/Src/stm32h7xx_hal_tim_ex.c ****   * @param  htim TIM handle
1230:./Libraries/STM32H7xx_HAL_Driver/Src/stm32h7xx_hal_tim_ex.c ****   * @param  Channel TIM Channel to be disabled
1231:./Libraries/STM32H7xx_HAL_Driver/Src/stm32h7xx_hal_tim_ex.c ****   *          This parameter can be one of the following values:
1232:./Libraries/STM32H7xx_HAL_Driver/Src/stm32h7xx_hal_tim_ex.c ****   *            @arg TIM_CHANNEL_1: TIM Channel 1 selected
1233:./Libraries/STM32H7xx_HAL_Driver/Src/stm32h7xx_hal_tim_ex.c ****   *            @arg TIM_CHANNEL_2: TIM Channel 2 selected
1234:./Libraries/STM32H7xx_HAL_Driver/Src/stm32h7xx_hal_tim_ex.c ****   *            @arg TIM_CHANNEL_3: TIM Channel 3 selected
1235:./Libraries/STM32H7xx_HAL_Driver/Src/stm32h7xx_hal_tim_ex.c ****   * @retval HAL status
1236:./Libraries/STM32H7xx_HAL_Driver/Src/stm32h7xx_hal_tim_ex.c ****   */
1237:./Libraries/STM32H7xx_HAL_Driver/Src/stm32h7xx_hal_tim_ex.c **** HAL_StatusTypeDef HAL_TIMEx_PWMN_Stop_IT(TIM_HandleTypeDef *htim, uint32_t Channel)
1238:./Libraries/STM32H7xx_HAL_Driver/Src/stm32h7xx_hal_tim_ex.c **** {
 3713              		.loc 1 1238 1
 3714              		.cfi_startproc
 3715              		@ args = 0, pretend = 0, frame = 16
 3716              		@ frame_needed = 1, uses_anonymous_args = 0
 3717 0000 80B5     		push	{r7, lr}
 3718              	.LCFI97:
 3719              		.cfi_def_cfa_offset 8
 3720              		.cfi_offset 7, -8
 3721              		.cfi_offset 14, -4
 3722 0002 84B0     		sub	sp, sp, #16
 3723              	.LCFI98:
 3724              		.cfi_def_cfa_offset 24
 3725 0004 00AF     		add	r7, sp, #0
 3726              	.LCFI99:
 3727              		.cfi_def_cfa_register 7
 3728 0006 7860     		str	r0, [r7, #4]
 3729 0008 3960     		str	r1, [r7]
1239:./Libraries/STM32H7xx_HAL_Driver/Src/stm32h7xx_hal_tim_ex.c ****   uint32_t tmpccer;
ARM GAS  /tmp/ccxx2olO.s 			page 89


1240:./Libraries/STM32H7xx_HAL_Driver/Src/stm32h7xx_hal_tim_ex.c **** 
1241:./Libraries/STM32H7xx_HAL_Driver/Src/stm32h7xx_hal_tim_ex.c ****   /* Check the parameters */
1242:./Libraries/STM32H7xx_HAL_Driver/Src/stm32h7xx_hal_tim_ex.c ****   assert_param(IS_TIM_CCXN_INSTANCE(htim->Instance, Channel));
1243:./Libraries/STM32H7xx_HAL_Driver/Src/stm32h7xx_hal_tim_ex.c **** 
1244:./Libraries/STM32H7xx_HAL_Driver/Src/stm32h7xx_hal_tim_ex.c ****   switch (Channel)
 3730              		.loc 1 1244 3
 3731 000a 3B68     		ldr	r3, [r7]
 3732 000c 082B     		cmp	r3, #8
 3733 000e 1BD0     		beq	.L253
 3734 0010 3B68     		ldr	r3, [r7]
 3735 0012 082B     		cmp	r3, #8
 3736 0014 21D8     		bhi	.L268
 3737 0016 3B68     		ldr	r3, [r7]
 3738 0018 002B     		cmp	r3, #0
 3739 001a 03D0     		beq	.L255
 3740 001c 3B68     		ldr	r3, [r7]
 3741 001e 042B     		cmp	r3, #4
 3742 0020 09D0     		beq	.L256
1245:./Libraries/STM32H7xx_HAL_Driver/Src/stm32h7xx_hal_tim_ex.c ****   {
1246:./Libraries/STM32H7xx_HAL_Driver/Src/stm32h7xx_hal_tim_ex.c ****     case TIM_CHANNEL_1:
1247:./Libraries/STM32H7xx_HAL_Driver/Src/stm32h7xx_hal_tim_ex.c ****     {
1248:./Libraries/STM32H7xx_HAL_Driver/Src/stm32h7xx_hal_tim_ex.c ****       /* Disable the TIM Capture/Compare 1 interrupt */
1249:./Libraries/STM32H7xx_HAL_Driver/Src/stm32h7xx_hal_tim_ex.c ****       __HAL_TIM_DISABLE_IT(htim, TIM_IT_CC1);
1250:./Libraries/STM32H7xx_HAL_Driver/Src/stm32h7xx_hal_tim_ex.c ****       break;
1251:./Libraries/STM32H7xx_HAL_Driver/Src/stm32h7xx_hal_tim_ex.c ****     }
1252:./Libraries/STM32H7xx_HAL_Driver/Src/stm32h7xx_hal_tim_ex.c **** 
1253:./Libraries/STM32H7xx_HAL_Driver/Src/stm32h7xx_hal_tim_ex.c ****     case TIM_CHANNEL_2:
1254:./Libraries/STM32H7xx_HAL_Driver/Src/stm32h7xx_hal_tim_ex.c ****     {
1255:./Libraries/STM32H7xx_HAL_Driver/Src/stm32h7xx_hal_tim_ex.c ****       /* Disable the TIM Capture/Compare 2 interrupt */
1256:./Libraries/STM32H7xx_HAL_Driver/Src/stm32h7xx_hal_tim_ex.c ****       __HAL_TIM_DISABLE_IT(htim, TIM_IT_CC2);
1257:./Libraries/STM32H7xx_HAL_Driver/Src/stm32h7xx_hal_tim_ex.c ****       break;
1258:./Libraries/STM32H7xx_HAL_Driver/Src/stm32h7xx_hal_tim_ex.c ****     }
1259:./Libraries/STM32H7xx_HAL_Driver/Src/stm32h7xx_hal_tim_ex.c **** 
1260:./Libraries/STM32H7xx_HAL_Driver/Src/stm32h7xx_hal_tim_ex.c ****     case TIM_CHANNEL_3:
1261:./Libraries/STM32H7xx_HAL_Driver/Src/stm32h7xx_hal_tim_ex.c ****     {
1262:./Libraries/STM32H7xx_HAL_Driver/Src/stm32h7xx_hal_tim_ex.c ****       /* Disable the TIM Capture/Compare 3 interrupt */
1263:./Libraries/STM32H7xx_HAL_Driver/Src/stm32h7xx_hal_tim_ex.c ****       __HAL_TIM_DISABLE_IT(htim, TIM_IT_CC3);
1264:./Libraries/STM32H7xx_HAL_Driver/Src/stm32h7xx_hal_tim_ex.c ****       break;
1265:./Libraries/STM32H7xx_HAL_Driver/Src/stm32h7xx_hal_tim_ex.c ****     }
1266:./Libraries/STM32H7xx_HAL_Driver/Src/stm32h7xx_hal_tim_ex.c **** 
1267:./Libraries/STM32H7xx_HAL_Driver/Src/stm32h7xx_hal_tim_ex.c ****     default:
1268:./Libraries/STM32H7xx_HAL_Driver/Src/stm32h7xx_hal_tim_ex.c ****       break;
 3743              		.loc 1 1268 7
 3744 0022 1AE0     		b	.L268
 3745              	.L255:
1249:./Libraries/STM32H7xx_HAL_Driver/Src/stm32h7xx_hal_tim_ex.c ****       break;
 3746              		.loc 1 1249 7
 3747 0024 7B68     		ldr	r3, [r7, #4]
 3748 0026 1B68     		ldr	r3, [r3]
 3749 0028 DA68     		ldr	r2, [r3, #12]
 3750 002a 7B68     		ldr	r3, [r7, #4]
 3751 002c 1B68     		ldr	r3, [r3]
 3752 002e 22F00202 		bic	r2, r2, #2
 3753 0032 DA60     		str	r2, [r3, #12]
1250:./Libraries/STM32H7xx_HAL_Driver/Src/stm32h7xx_hal_tim_ex.c ****     }
 3754              		.loc 1 1250 7
 3755 0034 12E0     		b	.L257
ARM GAS  /tmp/ccxx2olO.s 			page 90


 3756              	.L256:
1256:./Libraries/STM32H7xx_HAL_Driver/Src/stm32h7xx_hal_tim_ex.c ****       break;
 3757              		.loc 1 1256 7
 3758 0036 7B68     		ldr	r3, [r7, #4]
 3759 0038 1B68     		ldr	r3, [r3]
 3760 003a DA68     		ldr	r2, [r3, #12]
 3761 003c 7B68     		ldr	r3, [r7, #4]
 3762 003e 1B68     		ldr	r3, [r3]
 3763 0040 22F00402 		bic	r2, r2, #4
 3764 0044 DA60     		str	r2, [r3, #12]
1257:./Libraries/STM32H7xx_HAL_Driver/Src/stm32h7xx_hal_tim_ex.c ****     }
 3765              		.loc 1 1257 7
 3766 0046 09E0     		b	.L257
 3767              	.L253:
1263:./Libraries/STM32H7xx_HAL_Driver/Src/stm32h7xx_hal_tim_ex.c ****       break;
 3768              		.loc 1 1263 7
 3769 0048 7B68     		ldr	r3, [r7, #4]
 3770 004a 1B68     		ldr	r3, [r3]
 3771 004c DA68     		ldr	r2, [r3, #12]
 3772 004e 7B68     		ldr	r3, [r7, #4]
 3773 0050 1B68     		ldr	r3, [r3]
 3774 0052 22F00802 		bic	r2, r2, #8
 3775 0056 DA60     		str	r2, [r3, #12]
1264:./Libraries/STM32H7xx_HAL_Driver/Src/stm32h7xx_hal_tim_ex.c ****     }
 3776              		.loc 1 1264 7
 3777 0058 00E0     		b	.L257
 3778              	.L268:
 3779              		.loc 1 1268 7
 3780 005a 00BF     		nop
 3781              	.L257:
1269:./Libraries/STM32H7xx_HAL_Driver/Src/stm32h7xx_hal_tim_ex.c ****   }
1270:./Libraries/STM32H7xx_HAL_Driver/Src/stm32h7xx_hal_tim_ex.c **** 
1271:./Libraries/STM32H7xx_HAL_Driver/Src/stm32h7xx_hal_tim_ex.c ****   /* Disable the complementary PWM output  */
1272:./Libraries/STM32H7xx_HAL_Driver/Src/stm32h7xx_hal_tim_ex.c ****   TIM_CCxNChannelCmd(htim->Instance, Channel, TIM_CCxN_DISABLE);
 3782              		.loc 1 1272 3
 3783 005c 7B68     		ldr	r3, [r7, #4]
 3784 005e 1B68     		ldr	r3, [r3]
 3785 0060 0022     		movs	r2, #0
 3786 0062 3968     		ldr	r1, [r7]
 3787 0064 1846     		mov	r0, r3
 3788 0066 FFF7FEFF 		bl	TIM_CCxNChannelCmd
1273:./Libraries/STM32H7xx_HAL_Driver/Src/stm32h7xx_hal_tim_ex.c **** 
1274:./Libraries/STM32H7xx_HAL_Driver/Src/stm32h7xx_hal_tim_ex.c ****   /* Disable the TIM Break interrupt (only if no more channel is active) */
1275:./Libraries/STM32H7xx_HAL_Driver/Src/stm32h7xx_hal_tim_ex.c ****   tmpccer = htim->Instance->CCER;
 3789              		.loc 1 1275 17
 3790 006a 7B68     		ldr	r3, [r7, #4]
 3791 006c 1B68     		ldr	r3, [r3]
 3792              		.loc 1 1275 11
 3793 006e 1B6A     		ldr	r3, [r3, #32]
 3794 0070 FB60     		str	r3, [r7, #12]
1276:./Libraries/STM32H7xx_HAL_Driver/Src/stm32h7xx_hal_tim_ex.c ****   if ((tmpccer & (TIM_CCER_CC1NE | TIM_CCER_CC2NE | TIM_CCER_CC3NE)) == (uint32_t)RESET)
 3795              		.loc 1 1276 16
 3796 0072 FA68     		ldr	r2, [r7, #12]
 3797 0074 40F24443 		movw	r3, #1092
 3798 0078 1340     		ands	r3, r3, r2
 3799              		.loc 1 1276 6
 3800 007a 002B     		cmp	r3, #0
ARM GAS  /tmp/ccxx2olO.s 			page 91


 3801 007c 07D1     		bne	.L258
1277:./Libraries/STM32H7xx_HAL_Driver/Src/stm32h7xx_hal_tim_ex.c ****   {
1278:./Libraries/STM32H7xx_HAL_Driver/Src/stm32h7xx_hal_tim_ex.c ****     __HAL_TIM_DISABLE_IT(htim, TIM_IT_BREAK);
 3802              		.loc 1 1278 5
 3803 007e 7B68     		ldr	r3, [r7, #4]
 3804 0080 1B68     		ldr	r3, [r3]
 3805 0082 DA68     		ldr	r2, [r3, #12]
 3806 0084 7B68     		ldr	r3, [r7, #4]
 3807 0086 1B68     		ldr	r3, [r3]
 3808 0088 22F08002 		bic	r2, r2, #128
 3809 008c DA60     		str	r2, [r3, #12]
 3810              	.L258:
1279:./Libraries/STM32H7xx_HAL_Driver/Src/stm32h7xx_hal_tim_ex.c ****   }
1280:./Libraries/STM32H7xx_HAL_Driver/Src/stm32h7xx_hal_tim_ex.c **** 
1281:./Libraries/STM32H7xx_HAL_Driver/Src/stm32h7xx_hal_tim_ex.c ****   /* Disable the Main Output */
1282:./Libraries/STM32H7xx_HAL_Driver/Src/stm32h7xx_hal_tim_ex.c ****   __HAL_TIM_MOE_DISABLE(htim);
 3811              		.loc 1 1282 3
 3812 008e 7B68     		ldr	r3, [r7, #4]
 3813 0090 1B68     		ldr	r3, [r3]
 3814 0092 1A6A     		ldr	r2, [r3, #32]
 3815 0094 41F21113 		movw	r3, #4369
 3816 0098 1340     		ands	r3, r3, r2
 3817 009a 002B     		cmp	r3, #0
 3818 009c 0FD1     		bne	.L259
 3819              		.loc 1 1282 3 is_stmt 0 discriminator 1
 3820 009e 7B68     		ldr	r3, [r7, #4]
 3821 00a0 1B68     		ldr	r3, [r3]
 3822 00a2 1A6A     		ldr	r2, [r3, #32]
 3823 00a4 40F24443 		movw	r3, #1092
 3824 00a8 1340     		ands	r3, r3, r2
 3825 00aa 002B     		cmp	r3, #0
 3826 00ac 07D1     		bne	.L259
 3827              		.loc 1 1282 3 discriminator 2
 3828 00ae 7B68     		ldr	r3, [r7, #4]
 3829 00b0 1B68     		ldr	r3, [r3]
 3830 00b2 5A6C     		ldr	r2, [r3, #68]
 3831 00b4 7B68     		ldr	r3, [r7, #4]
 3832 00b6 1B68     		ldr	r3, [r3]
 3833 00b8 22F40042 		bic	r2, r2, #32768
 3834 00bc 5A64     		str	r2, [r3, #68]
 3835              	.L259:
1283:./Libraries/STM32H7xx_HAL_Driver/Src/stm32h7xx_hal_tim_ex.c **** 
1284:./Libraries/STM32H7xx_HAL_Driver/Src/stm32h7xx_hal_tim_ex.c ****   /* Disable the Peripheral */
1285:./Libraries/STM32H7xx_HAL_Driver/Src/stm32h7xx_hal_tim_ex.c ****   __HAL_TIM_DISABLE(htim);
 3836              		.loc 1 1285 3 is_stmt 1
 3837 00be 7B68     		ldr	r3, [r7, #4]
 3838 00c0 1B68     		ldr	r3, [r3]
 3839 00c2 1A6A     		ldr	r2, [r3, #32]
 3840 00c4 41F21113 		movw	r3, #4369
 3841 00c8 1340     		ands	r3, r3, r2
 3842 00ca 002B     		cmp	r3, #0
 3843 00cc 0FD1     		bne	.L260
 3844              		.loc 1 1285 3 is_stmt 0 discriminator 1
 3845 00ce 7B68     		ldr	r3, [r7, #4]
 3846 00d0 1B68     		ldr	r3, [r3]
 3847 00d2 1A6A     		ldr	r2, [r3, #32]
 3848 00d4 40F24443 		movw	r3, #1092
ARM GAS  /tmp/ccxx2olO.s 			page 92


 3849 00d8 1340     		ands	r3, r3, r2
 3850 00da 002B     		cmp	r3, #0
 3851 00dc 07D1     		bne	.L260
 3852              		.loc 1 1285 3 discriminator 2
 3853 00de 7B68     		ldr	r3, [r7, #4]
 3854 00e0 1B68     		ldr	r3, [r3]
 3855 00e2 1A68     		ldr	r2, [r3]
 3856 00e4 7B68     		ldr	r3, [r7, #4]
 3857 00e6 1B68     		ldr	r3, [r3]
 3858 00e8 22F00102 		bic	r2, r2, #1
 3859 00ec 1A60     		str	r2, [r3]
 3860              	.L260:
1286:./Libraries/STM32H7xx_HAL_Driver/Src/stm32h7xx_hal_tim_ex.c **** 
1287:./Libraries/STM32H7xx_HAL_Driver/Src/stm32h7xx_hal_tim_ex.c ****   /* Set the TIM complementary channel state */
1288:./Libraries/STM32H7xx_HAL_Driver/Src/stm32h7xx_hal_tim_ex.c ****   TIM_CHANNEL_N_STATE_SET(htim, Channel, HAL_TIM_CHANNEL_STATE_READY);
 3861              		.loc 1 1288 3 is_stmt 1
 3862 00ee 3B68     		ldr	r3, [r7]
 3863 00f0 002B     		cmp	r3, #0
 3864 00f2 04D1     		bne	.L261
 3865              		.loc 1 1288 3 is_stmt 0 discriminator 1
 3866 00f4 7B68     		ldr	r3, [r7, #4]
 3867 00f6 0122     		movs	r2, #1
 3868 00f8 83F84420 		strb	r2, [r3, #68]
 3869 00fc 13E0     		b	.L262
 3870              	.L261:
 3871              		.loc 1 1288 3 discriminator 2
 3872 00fe 3B68     		ldr	r3, [r7]
 3873 0100 042B     		cmp	r3, #4
 3874 0102 04D1     		bne	.L263
 3875              		.loc 1 1288 3 discriminator 3
 3876 0104 7B68     		ldr	r3, [r7, #4]
 3877 0106 0122     		movs	r2, #1
 3878 0108 83F84520 		strb	r2, [r3, #69]
 3879 010c 0BE0     		b	.L262
 3880              	.L263:
 3881              		.loc 1 1288 3 discriminator 4
 3882 010e 3B68     		ldr	r3, [r7]
 3883 0110 082B     		cmp	r3, #8
 3884 0112 04D1     		bne	.L265
 3885              		.loc 1 1288 3 discriminator 6
 3886 0114 7B68     		ldr	r3, [r7, #4]
 3887 0116 0122     		movs	r2, #1
 3888 0118 83F84620 		strb	r2, [r3, #70]
 3889 011c 03E0     		b	.L262
 3890              	.L265:
 3891              		.loc 1 1288 3 discriminator 7
 3892 011e 7B68     		ldr	r3, [r7, #4]
 3893 0120 0122     		movs	r2, #1
 3894 0122 83F84720 		strb	r2, [r3, #71]
 3895              	.L262:
1289:./Libraries/STM32H7xx_HAL_Driver/Src/stm32h7xx_hal_tim_ex.c **** 
1290:./Libraries/STM32H7xx_HAL_Driver/Src/stm32h7xx_hal_tim_ex.c ****   /* Return function status */
1291:./Libraries/STM32H7xx_HAL_Driver/Src/stm32h7xx_hal_tim_ex.c ****   return HAL_OK;
 3896              		.loc 1 1291 10 is_stmt 1
 3897 0126 0023     		movs	r3, #0
1292:./Libraries/STM32H7xx_HAL_Driver/Src/stm32h7xx_hal_tim_ex.c **** }
 3898              		.loc 1 1292 1
ARM GAS  /tmp/ccxx2olO.s 			page 93


 3899 0128 1846     		mov	r0, r3
 3900 012a 1037     		adds	r7, r7, #16
 3901              	.LCFI100:
 3902              		.cfi_def_cfa_offset 8
 3903 012c BD46     		mov	sp, r7
 3904              	.LCFI101:
 3905              		.cfi_def_cfa_register 13
 3906              		@ sp needed
 3907 012e 80BD     		pop	{r7, pc}
 3908              		.cfi_endproc
 3909              	.LFE350:
 3911              		.section	.text.HAL_TIMEx_PWMN_Start_DMA,"ax",%progbits
 3912              		.align	1
 3913              		.global	HAL_TIMEx_PWMN_Start_DMA
 3914              		.syntax unified
 3915              		.thumb
 3916              		.thumb_func
 3917              		.fpu fpv5-d16
 3919              	HAL_TIMEx_PWMN_Start_DMA:
 3920              	.LFB351:
1293:./Libraries/STM32H7xx_HAL_Driver/Src/stm32h7xx_hal_tim_ex.c **** 
1294:./Libraries/STM32H7xx_HAL_Driver/Src/stm32h7xx_hal_tim_ex.c **** /**
1295:./Libraries/STM32H7xx_HAL_Driver/Src/stm32h7xx_hal_tim_ex.c ****   * @brief  Starts the TIM PWM signal generation in DMA mode on the
1296:./Libraries/STM32H7xx_HAL_Driver/Src/stm32h7xx_hal_tim_ex.c ****   *         complementary output
1297:./Libraries/STM32H7xx_HAL_Driver/Src/stm32h7xx_hal_tim_ex.c ****   * @param  htim TIM handle
1298:./Libraries/STM32H7xx_HAL_Driver/Src/stm32h7xx_hal_tim_ex.c ****   * @param  Channel TIM Channel to be enabled
1299:./Libraries/STM32H7xx_HAL_Driver/Src/stm32h7xx_hal_tim_ex.c ****   *          This parameter can be one of the following values:
1300:./Libraries/STM32H7xx_HAL_Driver/Src/stm32h7xx_hal_tim_ex.c ****   *            @arg TIM_CHANNEL_1: TIM Channel 1 selected
1301:./Libraries/STM32H7xx_HAL_Driver/Src/stm32h7xx_hal_tim_ex.c ****   *            @arg TIM_CHANNEL_2: TIM Channel 2 selected
1302:./Libraries/STM32H7xx_HAL_Driver/Src/stm32h7xx_hal_tim_ex.c ****   *            @arg TIM_CHANNEL_3: TIM Channel 3 selected
1303:./Libraries/STM32H7xx_HAL_Driver/Src/stm32h7xx_hal_tim_ex.c ****   * @param  pData The source Buffer address.
1304:./Libraries/STM32H7xx_HAL_Driver/Src/stm32h7xx_hal_tim_ex.c ****   * @param  Length The length of data to be transferred from memory to TIM peripheral
1305:./Libraries/STM32H7xx_HAL_Driver/Src/stm32h7xx_hal_tim_ex.c ****   * @retval HAL status
1306:./Libraries/STM32H7xx_HAL_Driver/Src/stm32h7xx_hal_tim_ex.c ****   */
1307:./Libraries/STM32H7xx_HAL_Driver/Src/stm32h7xx_hal_tim_ex.c **** HAL_StatusTypeDef HAL_TIMEx_PWMN_Start_DMA(TIM_HandleTypeDef *htim, uint32_t Channel, uint32_t *pDa
1308:./Libraries/STM32H7xx_HAL_Driver/Src/stm32h7xx_hal_tim_ex.c **** {
 3921              		.loc 1 1308 1
 3922              		.cfi_startproc
 3923              		@ args = 0, pretend = 0, frame = 24
 3924              		@ frame_needed = 1, uses_anonymous_args = 0
 3925 0000 80B5     		push	{r7, lr}
 3926              	.LCFI102:
 3927              		.cfi_def_cfa_offset 8
 3928              		.cfi_offset 7, -8
 3929              		.cfi_offset 14, -4
 3930 0002 86B0     		sub	sp, sp, #24
 3931              	.LCFI103:
 3932              		.cfi_def_cfa_offset 32
 3933 0004 00AF     		add	r7, sp, #0
 3934              	.LCFI104:
 3935              		.cfi_def_cfa_register 7
 3936 0006 F860     		str	r0, [r7, #12]
 3937 0008 B960     		str	r1, [r7, #8]
 3938 000a 7A60     		str	r2, [r7, #4]
 3939 000c 7B80     		strh	r3, [r7, #2]	@ movhi
1309:./Libraries/STM32H7xx_HAL_Driver/Src/stm32h7xx_hal_tim_ex.c ****   uint32_t tmpsmcr;
1310:./Libraries/STM32H7xx_HAL_Driver/Src/stm32h7xx_hal_tim_ex.c **** 
ARM GAS  /tmp/ccxx2olO.s 			page 94


1311:./Libraries/STM32H7xx_HAL_Driver/Src/stm32h7xx_hal_tim_ex.c ****   /* Check the parameters */
1312:./Libraries/STM32H7xx_HAL_Driver/Src/stm32h7xx_hal_tim_ex.c ****   assert_param(IS_TIM_CCXN_INSTANCE(htim->Instance, Channel));
1313:./Libraries/STM32H7xx_HAL_Driver/Src/stm32h7xx_hal_tim_ex.c **** 
1314:./Libraries/STM32H7xx_HAL_Driver/Src/stm32h7xx_hal_tim_ex.c ****   /* Set the TIM complementary channel state */
1315:./Libraries/STM32H7xx_HAL_Driver/Src/stm32h7xx_hal_tim_ex.c ****   if (TIM_CHANNEL_N_STATE_GET(htim, Channel) == HAL_TIM_CHANNEL_STATE_BUSY)
 3940              		.loc 1 1315 46
 3941 000e BB68     		ldr	r3, [r7, #8]
 3942 0010 002B     		cmp	r3, #0
 3943 0012 09D1     		bne	.L270
 3944              		.loc 1 1315 7 discriminator 1
 3945 0014 FB68     		ldr	r3, [r7, #12]
 3946 0016 93F84430 		ldrb	r3, [r3, #68]
 3947 001a DBB2     		uxtb	r3, r3
 3948              		.loc 1 1315 46 discriminator 1
 3949 001c 022B     		cmp	r3, #2
 3950 001e 0CBF     		ite	eq
 3951 0020 0123     		moveq	r3, #1
 3952 0022 0023     		movne	r3, #0
 3953 0024 DBB2     		uxtb	r3, r3
 3954 0026 22E0     		b	.L271
 3955              	.L270:
 3956              		.loc 1 1315 46 is_stmt 0 discriminator 2
 3957 0028 BB68     		ldr	r3, [r7, #8]
 3958 002a 042B     		cmp	r3, #4
 3959 002c 09D1     		bne	.L272
 3960              		.loc 1 1315 7 is_stmt 1 discriminator 4
 3961 002e FB68     		ldr	r3, [r7, #12]
 3962 0030 93F84530 		ldrb	r3, [r3, #69]
 3963 0034 DBB2     		uxtb	r3, r3
 3964              		.loc 1 1315 46 discriminator 4
 3965 0036 022B     		cmp	r3, #2
 3966 0038 0CBF     		ite	eq
 3967 003a 0123     		moveq	r3, #1
 3968 003c 0023     		movne	r3, #0
 3969 003e DBB2     		uxtb	r3, r3
 3970 0040 15E0     		b	.L271
 3971              	.L272:
 3972              		.loc 1 1315 46 is_stmt 0 discriminator 5
 3973 0042 BB68     		ldr	r3, [r7, #8]
 3974 0044 082B     		cmp	r3, #8
 3975 0046 09D1     		bne	.L274
 3976              		.loc 1 1315 7 is_stmt 1 discriminator 7
 3977 0048 FB68     		ldr	r3, [r7, #12]
 3978 004a 93F84630 		ldrb	r3, [r3, #70]
 3979 004e DBB2     		uxtb	r3, r3
 3980              		.loc 1 1315 46 discriminator 7
 3981 0050 022B     		cmp	r3, #2
 3982 0052 0CBF     		ite	eq
 3983 0054 0123     		moveq	r3, #1
 3984 0056 0023     		movne	r3, #0
 3985 0058 DBB2     		uxtb	r3, r3
 3986 005a 08E0     		b	.L271
 3987              	.L274:
 3988              		.loc 1 1315 7 discriminator 8
 3989 005c FB68     		ldr	r3, [r7, #12]
 3990 005e 93F84730 		ldrb	r3, [r3, #71]
 3991 0062 DBB2     		uxtb	r3, r3
ARM GAS  /tmp/ccxx2olO.s 			page 95


 3992              		.loc 1 1315 46 discriminator 8
 3993 0064 022B     		cmp	r3, #2
 3994 0066 0CBF     		ite	eq
 3995 0068 0123     		moveq	r3, #1
 3996 006a 0023     		movne	r3, #0
 3997 006c DBB2     		uxtb	r3, r3
 3998              	.L271:
 3999              		.loc 1 1315 6 discriminator 12
 4000 006e 002B     		cmp	r3, #0
 4001 0070 01D0     		beq	.L276
1316:./Libraries/STM32H7xx_HAL_Driver/Src/stm32h7xx_hal_tim_ex.c ****   {
1317:./Libraries/STM32H7xx_HAL_Driver/Src/stm32h7xx_hal_tim_ex.c ****     return HAL_BUSY;
 4002              		.loc 1 1317 12
 4003 0072 0223     		movs	r3, #2
 4004 0074 25E1     		b	.L277
 4005              	.L276:
1318:./Libraries/STM32H7xx_HAL_Driver/Src/stm32h7xx_hal_tim_ex.c ****   }
1319:./Libraries/STM32H7xx_HAL_Driver/Src/stm32h7xx_hal_tim_ex.c ****   else if (TIM_CHANNEL_N_STATE_GET(htim, Channel) == HAL_TIM_CHANNEL_STATE_READY)
 4006              		.loc 1 1319 51
 4007 0076 BB68     		ldr	r3, [r7, #8]
 4008 0078 002B     		cmp	r3, #0
 4009 007a 09D1     		bne	.L278
 4010              		.loc 1 1319 12 discriminator 1
 4011 007c FB68     		ldr	r3, [r7, #12]
 4012 007e 93F84430 		ldrb	r3, [r3, #68]
 4013 0082 DBB2     		uxtb	r3, r3
 4014              		.loc 1 1319 51 discriminator 1
 4015 0084 012B     		cmp	r3, #1
 4016 0086 0CBF     		ite	eq
 4017 0088 0123     		moveq	r3, #1
 4018 008a 0023     		movne	r3, #0
 4019 008c DBB2     		uxtb	r3, r3
 4020 008e 22E0     		b	.L279
 4021              	.L278:
 4022              		.loc 1 1319 51 is_stmt 0 discriminator 2
 4023 0090 BB68     		ldr	r3, [r7, #8]
 4024 0092 042B     		cmp	r3, #4
 4025 0094 09D1     		bne	.L280
 4026              		.loc 1 1319 12 is_stmt 1 discriminator 4
 4027 0096 FB68     		ldr	r3, [r7, #12]
 4028 0098 93F84530 		ldrb	r3, [r3, #69]
 4029 009c DBB2     		uxtb	r3, r3
 4030              		.loc 1 1319 51 discriminator 4
 4031 009e 012B     		cmp	r3, #1
 4032 00a0 0CBF     		ite	eq
 4033 00a2 0123     		moveq	r3, #1
 4034 00a4 0023     		movne	r3, #0
 4035 00a6 DBB2     		uxtb	r3, r3
 4036 00a8 15E0     		b	.L279
 4037              	.L280:
 4038              		.loc 1 1319 51 is_stmt 0 discriminator 5
 4039 00aa BB68     		ldr	r3, [r7, #8]
 4040 00ac 082B     		cmp	r3, #8
 4041 00ae 09D1     		bne	.L282
 4042              		.loc 1 1319 12 is_stmt 1 discriminator 7
 4043 00b0 FB68     		ldr	r3, [r7, #12]
 4044 00b2 93F84630 		ldrb	r3, [r3, #70]
ARM GAS  /tmp/ccxx2olO.s 			page 96


 4045 00b6 DBB2     		uxtb	r3, r3
 4046              		.loc 1 1319 51 discriminator 7
 4047 00b8 012B     		cmp	r3, #1
 4048 00ba 0CBF     		ite	eq
 4049 00bc 0123     		moveq	r3, #1
 4050 00be 0023     		movne	r3, #0
 4051 00c0 DBB2     		uxtb	r3, r3
 4052 00c2 08E0     		b	.L279
 4053              	.L282:
 4054              		.loc 1 1319 12 discriminator 8
 4055 00c4 FB68     		ldr	r3, [r7, #12]
 4056 00c6 93F84730 		ldrb	r3, [r3, #71]
 4057 00ca DBB2     		uxtb	r3, r3
 4058              		.loc 1 1319 51 discriminator 8
 4059 00cc 012B     		cmp	r3, #1
 4060 00ce 0CBF     		ite	eq
 4061 00d0 0123     		moveq	r3, #1
 4062 00d2 0023     		movne	r3, #0
 4063 00d4 DBB2     		uxtb	r3, r3
 4064              	.L279:
 4065              		.loc 1 1319 11 discriminator 12
 4066 00d6 002B     		cmp	r3, #0
 4067 00d8 24D0     		beq	.L284
1320:./Libraries/STM32H7xx_HAL_Driver/Src/stm32h7xx_hal_tim_ex.c ****   {
1321:./Libraries/STM32H7xx_HAL_Driver/Src/stm32h7xx_hal_tim_ex.c ****     if ((pData == NULL) && (Length > 0U))
 4068              		.loc 1 1321 8
 4069 00da 7B68     		ldr	r3, [r7, #4]
 4070 00dc 002B     		cmp	r3, #0
 4071 00de 04D1     		bne	.L285
 4072              		.loc 1 1321 25 discriminator 1
 4073 00e0 7B88     		ldrh	r3, [r7, #2]
 4074 00e2 002B     		cmp	r3, #0
 4075 00e4 01D0     		beq	.L285
1322:./Libraries/STM32H7xx_HAL_Driver/Src/stm32h7xx_hal_tim_ex.c ****     {
1323:./Libraries/STM32H7xx_HAL_Driver/Src/stm32h7xx_hal_tim_ex.c ****       return HAL_ERROR;
 4076              		.loc 1 1323 14
 4077 00e6 0123     		movs	r3, #1
 4078 00e8 EBE0     		b	.L277
 4079              	.L285:
1324:./Libraries/STM32H7xx_HAL_Driver/Src/stm32h7xx_hal_tim_ex.c ****     }
1325:./Libraries/STM32H7xx_HAL_Driver/Src/stm32h7xx_hal_tim_ex.c ****     else
1326:./Libraries/STM32H7xx_HAL_Driver/Src/stm32h7xx_hal_tim_ex.c ****     {
1327:./Libraries/STM32H7xx_HAL_Driver/Src/stm32h7xx_hal_tim_ex.c ****       TIM_CHANNEL_N_STATE_SET(htim, Channel, HAL_TIM_CHANNEL_STATE_BUSY);
 4080              		.loc 1 1327 7
 4081 00ea BB68     		ldr	r3, [r7, #8]
 4082 00ec 002B     		cmp	r3, #0
 4083 00ee 04D1     		bne	.L286
 4084              		.loc 1 1327 7 is_stmt 0 discriminator 1
 4085 00f0 FB68     		ldr	r3, [r7, #12]
 4086 00f2 0222     		movs	r2, #2
 4087 00f4 83F84420 		strb	r2, [r3, #68]
 4088 00f8 16E0     		b	.L287
 4089              	.L286:
 4090              		.loc 1 1327 7 discriminator 2
 4091 00fa BB68     		ldr	r3, [r7, #8]
 4092 00fc 042B     		cmp	r3, #4
 4093 00fe 04D1     		bne	.L288
ARM GAS  /tmp/ccxx2olO.s 			page 97


 4094              		.loc 1 1327 7 discriminator 3
 4095 0100 FB68     		ldr	r3, [r7, #12]
 4096 0102 0222     		movs	r2, #2
 4097 0104 83F84520 		strb	r2, [r3, #69]
 4098 0108 0EE0     		b	.L287
 4099              	.L288:
 4100              		.loc 1 1327 7 discriminator 4
 4101 010a BB68     		ldr	r3, [r7, #8]
 4102 010c 082B     		cmp	r3, #8
 4103 010e 04D1     		bne	.L290
 4104              		.loc 1 1327 7 discriminator 6
 4105 0110 FB68     		ldr	r3, [r7, #12]
 4106 0112 0222     		movs	r2, #2
 4107 0114 83F84620 		strb	r2, [r3, #70]
 4108 0118 06E0     		b	.L287
 4109              	.L290:
 4110              		.loc 1 1327 7 discriminator 7
 4111 011a FB68     		ldr	r3, [r7, #12]
 4112 011c 0222     		movs	r2, #2
 4113 011e 83F84720 		strb	r2, [r3, #71]
 4114 0122 01E0     		b	.L287
 4115              	.L284:
1328:./Libraries/STM32H7xx_HAL_Driver/Src/stm32h7xx_hal_tim_ex.c ****     }
1329:./Libraries/STM32H7xx_HAL_Driver/Src/stm32h7xx_hal_tim_ex.c ****   }
1330:./Libraries/STM32H7xx_HAL_Driver/Src/stm32h7xx_hal_tim_ex.c ****   else
1331:./Libraries/STM32H7xx_HAL_Driver/Src/stm32h7xx_hal_tim_ex.c ****   {
1332:./Libraries/STM32H7xx_HAL_Driver/Src/stm32h7xx_hal_tim_ex.c ****     return HAL_ERROR;
 4116              		.loc 1 1332 12 is_stmt 1
 4117 0124 0123     		movs	r3, #1
 4118 0126 CCE0     		b	.L277
 4119              	.L287:
1333:./Libraries/STM32H7xx_HAL_Driver/Src/stm32h7xx_hal_tim_ex.c ****   }
1334:./Libraries/STM32H7xx_HAL_Driver/Src/stm32h7xx_hal_tim_ex.c **** 
1335:./Libraries/STM32H7xx_HAL_Driver/Src/stm32h7xx_hal_tim_ex.c ****   switch (Channel)
 4120              		.loc 1 1335 3
 4121 0128 BB68     		ldr	r3, [r7, #8]
 4122 012a 082B     		cmp	r3, #8
 4123 012c 51D0     		beq	.L292
 4124 012e BB68     		ldr	r3, [r7, #8]
 4125 0130 082B     		cmp	r3, #8
 4126 0132 72D8     		bhi	.L304
 4127 0134 BB68     		ldr	r3, [r7, #8]
 4128 0136 002B     		cmp	r3, #0
 4129 0138 03D0     		beq	.L294
 4130 013a BB68     		ldr	r3, [r7, #8]
 4131 013c 042B     		cmp	r3, #4
 4132 013e 24D0     		beq	.L295
1336:./Libraries/STM32H7xx_HAL_Driver/Src/stm32h7xx_hal_tim_ex.c ****   {
1337:./Libraries/STM32H7xx_HAL_Driver/Src/stm32h7xx_hal_tim_ex.c ****     case TIM_CHANNEL_1:
1338:./Libraries/STM32H7xx_HAL_Driver/Src/stm32h7xx_hal_tim_ex.c ****     {
1339:./Libraries/STM32H7xx_HAL_Driver/Src/stm32h7xx_hal_tim_ex.c ****       /* Set the DMA compare callbacks */
1340:./Libraries/STM32H7xx_HAL_Driver/Src/stm32h7xx_hal_tim_ex.c ****       htim->hdma[TIM_DMA_ID_CC1]->XferCpltCallback = TIM_DMADelayPulseNCplt;
1341:./Libraries/STM32H7xx_HAL_Driver/Src/stm32h7xx_hal_tim_ex.c ****       htim->hdma[TIM_DMA_ID_CC1]->XferHalfCpltCallback = TIM_DMADelayPulseHalfCplt;
1342:./Libraries/STM32H7xx_HAL_Driver/Src/stm32h7xx_hal_tim_ex.c **** 
1343:./Libraries/STM32H7xx_HAL_Driver/Src/stm32h7xx_hal_tim_ex.c ****       /* Set the DMA error callback */
1344:./Libraries/STM32H7xx_HAL_Driver/Src/stm32h7xx_hal_tim_ex.c ****       htim->hdma[TIM_DMA_ID_CC1]->XferErrorCallback = TIM_DMAErrorCCxN ;
1345:./Libraries/STM32H7xx_HAL_Driver/Src/stm32h7xx_hal_tim_ex.c **** 
ARM GAS  /tmp/ccxx2olO.s 			page 98


1346:./Libraries/STM32H7xx_HAL_Driver/Src/stm32h7xx_hal_tim_ex.c ****       /* Enable the DMA stream */
1347:./Libraries/STM32H7xx_HAL_Driver/Src/stm32h7xx_hal_tim_ex.c ****       if (HAL_DMA_Start_IT(htim->hdma[TIM_DMA_ID_CC1], (uint32_t)pData, (uint32_t)&htim->Instance->
1348:./Libraries/STM32H7xx_HAL_Driver/Src/stm32h7xx_hal_tim_ex.c ****       {
1349:./Libraries/STM32H7xx_HAL_Driver/Src/stm32h7xx_hal_tim_ex.c ****         /* Return error status */
1350:./Libraries/STM32H7xx_HAL_Driver/Src/stm32h7xx_hal_tim_ex.c ****         return HAL_ERROR;
1351:./Libraries/STM32H7xx_HAL_Driver/Src/stm32h7xx_hal_tim_ex.c ****       }
1352:./Libraries/STM32H7xx_HAL_Driver/Src/stm32h7xx_hal_tim_ex.c ****       /* Enable the TIM Capture/Compare 1 DMA request */
1353:./Libraries/STM32H7xx_HAL_Driver/Src/stm32h7xx_hal_tim_ex.c ****       __HAL_TIM_ENABLE_DMA(htim, TIM_DMA_CC1);
1354:./Libraries/STM32H7xx_HAL_Driver/Src/stm32h7xx_hal_tim_ex.c ****       break;
1355:./Libraries/STM32H7xx_HAL_Driver/Src/stm32h7xx_hal_tim_ex.c ****     }
1356:./Libraries/STM32H7xx_HAL_Driver/Src/stm32h7xx_hal_tim_ex.c **** 
1357:./Libraries/STM32H7xx_HAL_Driver/Src/stm32h7xx_hal_tim_ex.c ****     case TIM_CHANNEL_2:
1358:./Libraries/STM32H7xx_HAL_Driver/Src/stm32h7xx_hal_tim_ex.c ****     {
1359:./Libraries/STM32H7xx_HAL_Driver/Src/stm32h7xx_hal_tim_ex.c ****       /* Set the DMA compare callbacks */
1360:./Libraries/STM32H7xx_HAL_Driver/Src/stm32h7xx_hal_tim_ex.c ****       htim->hdma[TIM_DMA_ID_CC2]->XferCpltCallback = TIM_DMADelayPulseNCplt;
1361:./Libraries/STM32H7xx_HAL_Driver/Src/stm32h7xx_hal_tim_ex.c ****       htim->hdma[TIM_DMA_ID_CC2]->XferHalfCpltCallback = TIM_DMADelayPulseHalfCplt;
1362:./Libraries/STM32H7xx_HAL_Driver/Src/stm32h7xx_hal_tim_ex.c **** 
1363:./Libraries/STM32H7xx_HAL_Driver/Src/stm32h7xx_hal_tim_ex.c ****       /* Set the DMA error callback */
1364:./Libraries/STM32H7xx_HAL_Driver/Src/stm32h7xx_hal_tim_ex.c ****       htim->hdma[TIM_DMA_ID_CC2]->XferErrorCallback = TIM_DMAErrorCCxN ;
1365:./Libraries/STM32H7xx_HAL_Driver/Src/stm32h7xx_hal_tim_ex.c **** 
1366:./Libraries/STM32H7xx_HAL_Driver/Src/stm32h7xx_hal_tim_ex.c ****       /* Enable the DMA stream */
1367:./Libraries/STM32H7xx_HAL_Driver/Src/stm32h7xx_hal_tim_ex.c ****       if (HAL_DMA_Start_IT(htim->hdma[TIM_DMA_ID_CC2], (uint32_t)pData, (uint32_t)&htim->Instance->
1368:./Libraries/STM32H7xx_HAL_Driver/Src/stm32h7xx_hal_tim_ex.c ****       {
1369:./Libraries/STM32H7xx_HAL_Driver/Src/stm32h7xx_hal_tim_ex.c ****         /* Return error status */
1370:./Libraries/STM32H7xx_HAL_Driver/Src/stm32h7xx_hal_tim_ex.c ****         return HAL_ERROR;
1371:./Libraries/STM32H7xx_HAL_Driver/Src/stm32h7xx_hal_tim_ex.c ****       }
1372:./Libraries/STM32H7xx_HAL_Driver/Src/stm32h7xx_hal_tim_ex.c ****       /* Enable the TIM Capture/Compare 2 DMA request */
1373:./Libraries/STM32H7xx_HAL_Driver/Src/stm32h7xx_hal_tim_ex.c ****       __HAL_TIM_ENABLE_DMA(htim, TIM_DMA_CC2);
1374:./Libraries/STM32H7xx_HAL_Driver/Src/stm32h7xx_hal_tim_ex.c ****       break;
1375:./Libraries/STM32H7xx_HAL_Driver/Src/stm32h7xx_hal_tim_ex.c ****     }
1376:./Libraries/STM32H7xx_HAL_Driver/Src/stm32h7xx_hal_tim_ex.c **** 
1377:./Libraries/STM32H7xx_HAL_Driver/Src/stm32h7xx_hal_tim_ex.c ****     case TIM_CHANNEL_3:
1378:./Libraries/STM32H7xx_HAL_Driver/Src/stm32h7xx_hal_tim_ex.c ****     {
1379:./Libraries/STM32H7xx_HAL_Driver/Src/stm32h7xx_hal_tim_ex.c ****       /* Set the DMA compare callbacks */
1380:./Libraries/STM32H7xx_HAL_Driver/Src/stm32h7xx_hal_tim_ex.c ****       htim->hdma[TIM_DMA_ID_CC3]->XferCpltCallback = TIM_DMADelayPulseNCplt;
1381:./Libraries/STM32H7xx_HAL_Driver/Src/stm32h7xx_hal_tim_ex.c ****       htim->hdma[TIM_DMA_ID_CC3]->XferHalfCpltCallback = TIM_DMADelayPulseHalfCplt;
1382:./Libraries/STM32H7xx_HAL_Driver/Src/stm32h7xx_hal_tim_ex.c **** 
1383:./Libraries/STM32H7xx_HAL_Driver/Src/stm32h7xx_hal_tim_ex.c ****       /* Set the DMA error callback */
1384:./Libraries/STM32H7xx_HAL_Driver/Src/stm32h7xx_hal_tim_ex.c ****       htim->hdma[TIM_DMA_ID_CC3]->XferErrorCallback = TIM_DMAErrorCCxN ;
1385:./Libraries/STM32H7xx_HAL_Driver/Src/stm32h7xx_hal_tim_ex.c **** 
1386:./Libraries/STM32H7xx_HAL_Driver/Src/stm32h7xx_hal_tim_ex.c ****       /* Enable the DMA stream */
1387:./Libraries/STM32H7xx_HAL_Driver/Src/stm32h7xx_hal_tim_ex.c ****       if (HAL_DMA_Start_IT(htim->hdma[TIM_DMA_ID_CC3], (uint32_t)pData, (uint32_t)&htim->Instance->
1388:./Libraries/STM32H7xx_HAL_Driver/Src/stm32h7xx_hal_tim_ex.c ****       {
1389:./Libraries/STM32H7xx_HAL_Driver/Src/stm32h7xx_hal_tim_ex.c ****         /* Return error status */
1390:./Libraries/STM32H7xx_HAL_Driver/Src/stm32h7xx_hal_tim_ex.c ****         return HAL_ERROR;
1391:./Libraries/STM32H7xx_HAL_Driver/Src/stm32h7xx_hal_tim_ex.c ****       }
1392:./Libraries/STM32H7xx_HAL_Driver/Src/stm32h7xx_hal_tim_ex.c ****       /* Enable the TIM Capture/Compare 3 DMA request */
1393:./Libraries/STM32H7xx_HAL_Driver/Src/stm32h7xx_hal_tim_ex.c ****       __HAL_TIM_ENABLE_DMA(htim, TIM_DMA_CC3);
1394:./Libraries/STM32H7xx_HAL_Driver/Src/stm32h7xx_hal_tim_ex.c ****       break;
1395:./Libraries/STM32H7xx_HAL_Driver/Src/stm32h7xx_hal_tim_ex.c ****     }
1396:./Libraries/STM32H7xx_HAL_Driver/Src/stm32h7xx_hal_tim_ex.c **** 
1397:./Libraries/STM32H7xx_HAL_Driver/Src/stm32h7xx_hal_tim_ex.c ****     default:
1398:./Libraries/STM32H7xx_HAL_Driver/Src/stm32h7xx_hal_tim_ex.c ****       break;
 4133              		.loc 1 1398 7
 4134 0140 6BE0     		b	.L304
 4135              	.L294:
1340:./Libraries/STM32H7xx_HAL_Driver/Src/stm32h7xx_hal_tim_ex.c ****       htim->hdma[TIM_DMA_ID_CC1]->XferHalfCpltCallback = TIM_DMADelayPulseHalfCplt;
ARM GAS  /tmp/ccxx2olO.s 			page 99


 4136              		.loc 1 1340 17
 4137 0142 FB68     		ldr	r3, [r7, #12]
 4138 0144 5B6A     		ldr	r3, [r3, #36]
1340:./Libraries/STM32H7xx_HAL_Driver/Src/stm32h7xx_hal_tim_ex.c ****       htim->hdma[TIM_DMA_ID_CC1]->XferHalfCpltCallback = TIM_DMADelayPulseHalfCplt;
 4139              		.loc 1 1340 52
 4140 0146 614A     		ldr	r2, .L306
 4141 0148 DA63     		str	r2, [r3, #60]
1341:./Libraries/STM32H7xx_HAL_Driver/Src/stm32h7xx_hal_tim_ex.c **** 
 4142              		.loc 1 1341 17
 4143 014a FB68     		ldr	r3, [r7, #12]
 4144 014c 5B6A     		ldr	r3, [r3, #36]
1341:./Libraries/STM32H7xx_HAL_Driver/Src/stm32h7xx_hal_tim_ex.c **** 
 4145              		.loc 1 1341 56
 4146 014e 604A     		ldr	r2, .L306+4
 4147 0150 1A64     		str	r2, [r3, #64]
1344:./Libraries/STM32H7xx_HAL_Driver/Src/stm32h7xx_hal_tim_ex.c **** 
 4148              		.loc 1 1344 17
 4149 0152 FB68     		ldr	r3, [r7, #12]
 4150 0154 5B6A     		ldr	r3, [r3, #36]
1344:./Libraries/STM32H7xx_HAL_Driver/Src/stm32h7xx_hal_tim_ex.c **** 
 4151              		.loc 1 1344 53
 4152 0156 5F4A     		ldr	r2, .L306+8
 4153 0158 DA64     		str	r2, [r3, #76]
1347:./Libraries/STM32H7xx_HAL_Driver/Src/stm32h7xx_hal_tim_ex.c ****       {
 4154              		.loc 1 1347 11
 4155 015a FB68     		ldr	r3, [r7, #12]
 4156 015c 586A     		ldr	r0, [r3, #36]
 4157 015e 7968     		ldr	r1, [r7, #4]
1347:./Libraries/STM32H7xx_HAL_Driver/Src/stm32h7xx_hal_tim_ex.c ****       {
 4158              		.loc 1 1347 88
 4159 0160 FB68     		ldr	r3, [r7, #12]
 4160 0162 1B68     		ldr	r3, [r3]
1347:./Libraries/STM32H7xx_HAL_Driver/Src/stm32h7xx_hal_tim_ex.c ****       {
 4161              		.loc 1 1347 83
 4162 0164 3433     		adds	r3, r3, #52
1347:./Libraries/STM32H7xx_HAL_Driver/Src/stm32h7xx_hal_tim_ex.c ****       {
 4163              		.loc 1 1347 11
 4164 0166 1A46     		mov	r2, r3
 4165 0168 7B88     		ldrh	r3, [r7, #2]
 4166 016a FFF7FEFF 		bl	HAL_DMA_Start_IT
 4167 016e 0346     		mov	r3, r0
1347:./Libraries/STM32H7xx_HAL_Driver/Src/stm32h7xx_hal_tim_ex.c ****       {
 4168              		.loc 1 1347 10
 4169 0170 002B     		cmp	r3, #0
 4170 0172 01D0     		beq	.L296
1350:./Libraries/STM32H7xx_HAL_Driver/Src/stm32h7xx_hal_tim_ex.c ****       }
 4171              		.loc 1 1350 16
 4172 0174 0123     		movs	r3, #1
 4173 0176 A4E0     		b	.L277
 4174              	.L296:
1353:./Libraries/STM32H7xx_HAL_Driver/Src/stm32h7xx_hal_tim_ex.c ****       break;
 4175              		.loc 1 1353 7
 4176 0178 FB68     		ldr	r3, [r7, #12]
 4177 017a 1B68     		ldr	r3, [r3]
 4178 017c DA68     		ldr	r2, [r3, #12]
 4179 017e FB68     		ldr	r3, [r7, #12]
 4180 0180 1B68     		ldr	r3, [r3]
ARM GAS  /tmp/ccxx2olO.s 			page 100


 4181 0182 42F40072 		orr	r2, r2, #512
 4182 0186 DA60     		str	r2, [r3, #12]
1354:./Libraries/STM32H7xx_HAL_Driver/Src/stm32h7xx_hal_tim_ex.c ****     }
 4183              		.loc 1 1354 7
 4184 0188 48E0     		b	.L297
 4185              	.L295:
1360:./Libraries/STM32H7xx_HAL_Driver/Src/stm32h7xx_hal_tim_ex.c ****       htim->hdma[TIM_DMA_ID_CC2]->XferHalfCpltCallback = TIM_DMADelayPulseHalfCplt;
 4186              		.loc 1 1360 17
 4187 018a FB68     		ldr	r3, [r7, #12]
 4188 018c 9B6A     		ldr	r3, [r3, #40]
1360:./Libraries/STM32H7xx_HAL_Driver/Src/stm32h7xx_hal_tim_ex.c ****       htim->hdma[TIM_DMA_ID_CC2]->XferHalfCpltCallback = TIM_DMADelayPulseHalfCplt;
 4189              		.loc 1 1360 52
 4190 018e 4F4A     		ldr	r2, .L306
 4191 0190 DA63     		str	r2, [r3, #60]
1361:./Libraries/STM32H7xx_HAL_Driver/Src/stm32h7xx_hal_tim_ex.c **** 
 4192              		.loc 1 1361 17
 4193 0192 FB68     		ldr	r3, [r7, #12]
 4194 0194 9B6A     		ldr	r3, [r3, #40]
1361:./Libraries/STM32H7xx_HAL_Driver/Src/stm32h7xx_hal_tim_ex.c **** 
 4195              		.loc 1 1361 56
 4196 0196 4E4A     		ldr	r2, .L306+4
 4197 0198 1A64     		str	r2, [r3, #64]
1364:./Libraries/STM32H7xx_HAL_Driver/Src/stm32h7xx_hal_tim_ex.c **** 
 4198              		.loc 1 1364 17
 4199 019a FB68     		ldr	r3, [r7, #12]
 4200 019c 9B6A     		ldr	r3, [r3, #40]
1364:./Libraries/STM32H7xx_HAL_Driver/Src/stm32h7xx_hal_tim_ex.c **** 
 4201              		.loc 1 1364 53
 4202 019e 4D4A     		ldr	r2, .L306+8
 4203 01a0 DA64     		str	r2, [r3, #76]
1367:./Libraries/STM32H7xx_HAL_Driver/Src/stm32h7xx_hal_tim_ex.c ****       {
 4204              		.loc 1 1367 11
 4205 01a2 FB68     		ldr	r3, [r7, #12]
 4206 01a4 986A     		ldr	r0, [r3, #40]
 4207 01a6 7968     		ldr	r1, [r7, #4]
1367:./Libraries/STM32H7xx_HAL_Driver/Src/stm32h7xx_hal_tim_ex.c ****       {
 4208              		.loc 1 1367 88
 4209 01a8 FB68     		ldr	r3, [r7, #12]
 4210 01aa 1B68     		ldr	r3, [r3]
1367:./Libraries/STM32H7xx_HAL_Driver/Src/stm32h7xx_hal_tim_ex.c ****       {
 4211              		.loc 1 1367 83
 4212 01ac 3833     		adds	r3, r3, #56
1367:./Libraries/STM32H7xx_HAL_Driver/Src/stm32h7xx_hal_tim_ex.c ****       {
 4213              		.loc 1 1367 11
 4214 01ae 1A46     		mov	r2, r3
 4215 01b0 7B88     		ldrh	r3, [r7, #2]
 4216 01b2 FFF7FEFF 		bl	HAL_DMA_Start_IT
 4217 01b6 0346     		mov	r3, r0
1367:./Libraries/STM32H7xx_HAL_Driver/Src/stm32h7xx_hal_tim_ex.c ****       {
 4218              		.loc 1 1367 10
 4219 01b8 002B     		cmp	r3, #0
 4220 01ba 01D0     		beq	.L298
1370:./Libraries/STM32H7xx_HAL_Driver/Src/stm32h7xx_hal_tim_ex.c ****       }
 4221              		.loc 1 1370 16
 4222 01bc 0123     		movs	r3, #1
 4223 01be 80E0     		b	.L277
 4224              	.L298:
ARM GAS  /tmp/ccxx2olO.s 			page 101


1373:./Libraries/STM32H7xx_HAL_Driver/Src/stm32h7xx_hal_tim_ex.c ****       break;
 4225              		.loc 1 1373 7
 4226 01c0 FB68     		ldr	r3, [r7, #12]
 4227 01c2 1B68     		ldr	r3, [r3]
 4228 01c4 DA68     		ldr	r2, [r3, #12]
 4229 01c6 FB68     		ldr	r3, [r7, #12]
 4230 01c8 1B68     		ldr	r3, [r3]
 4231 01ca 42F48062 		orr	r2, r2, #1024
 4232 01ce DA60     		str	r2, [r3, #12]
1374:./Libraries/STM32H7xx_HAL_Driver/Src/stm32h7xx_hal_tim_ex.c ****     }
 4233              		.loc 1 1374 7
 4234 01d0 24E0     		b	.L297
 4235              	.L292:
1380:./Libraries/STM32H7xx_HAL_Driver/Src/stm32h7xx_hal_tim_ex.c ****       htim->hdma[TIM_DMA_ID_CC3]->XferHalfCpltCallback = TIM_DMADelayPulseHalfCplt;
 4236              		.loc 1 1380 17
 4237 01d2 FB68     		ldr	r3, [r7, #12]
 4238 01d4 DB6A     		ldr	r3, [r3, #44]
1380:./Libraries/STM32H7xx_HAL_Driver/Src/stm32h7xx_hal_tim_ex.c ****       htim->hdma[TIM_DMA_ID_CC3]->XferHalfCpltCallback = TIM_DMADelayPulseHalfCplt;
 4239              		.loc 1 1380 52
 4240 01d6 3D4A     		ldr	r2, .L306
 4241 01d8 DA63     		str	r2, [r3, #60]
1381:./Libraries/STM32H7xx_HAL_Driver/Src/stm32h7xx_hal_tim_ex.c **** 
 4242              		.loc 1 1381 17
 4243 01da FB68     		ldr	r3, [r7, #12]
 4244 01dc DB6A     		ldr	r3, [r3, #44]
1381:./Libraries/STM32H7xx_HAL_Driver/Src/stm32h7xx_hal_tim_ex.c **** 
 4245              		.loc 1 1381 56
 4246 01de 3C4A     		ldr	r2, .L306+4
 4247 01e0 1A64     		str	r2, [r3, #64]
1384:./Libraries/STM32H7xx_HAL_Driver/Src/stm32h7xx_hal_tim_ex.c **** 
 4248              		.loc 1 1384 17
 4249 01e2 FB68     		ldr	r3, [r7, #12]
 4250 01e4 DB6A     		ldr	r3, [r3, #44]
1384:./Libraries/STM32H7xx_HAL_Driver/Src/stm32h7xx_hal_tim_ex.c **** 
 4251              		.loc 1 1384 53
 4252 01e6 3B4A     		ldr	r2, .L306+8
 4253 01e8 DA64     		str	r2, [r3, #76]
1387:./Libraries/STM32H7xx_HAL_Driver/Src/stm32h7xx_hal_tim_ex.c ****       {
 4254              		.loc 1 1387 11
 4255 01ea FB68     		ldr	r3, [r7, #12]
 4256 01ec D86A     		ldr	r0, [r3, #44]
 4257 01ee 7968     		ldr	r1, [r7, #4]
1387:./Libraries/STM32H7xx_HAL_Driver/Src/stm32h7xx_hal_tim_ex.c ****       {
 4258              		.loc 1 1387 88
 4259 01f0 FB68     		ldr	r3, [r7, #12]
 4260 01f2 1B68     		ldr	r3, [r3]
1387:./Libraries/STM32H7xx_HAL_Driver/Src/stm32h7xx_hal_tim_ex.c ****       {
 4261              		.loc 1 1387 83
 4262 01f4 3C33     		adds	r3, r3, #60
1387:./Libraries/STM32H7xx_HAL_Driver/Src/stm32h7xx_hal_tim_ex.c ****       {
 4263              		.loc 1 1387 11
 4264 01f6 1A46     		mov	r2, r3
 4265 01f8 7B88     		ldrh	r3, [r7, #2]
 4266 01fa FFF7FEFF 		bl	HAL_DMA_Start_IT
 4267 01fe 0346     		mov	r3, r0
1387:./Libraries/STM32H7xx_HAL_Driver/Src/stm32h7xx_hal_tim_ex.c ****       {
 4268              		.loc 1 1387 10
ARM GAS  /tmp/ccxx2olO.s 			page 102


 4269 0200 002B     		cmp	r3, #0
 4270 0202 01D0     		beq	.L299
1390:./Libraries/STM32H7xx_HAL_Driver/Src/stm32h7xx_hal_tim_ex.c ****       }
 4271              		.loc 1 1390 16
 4272 0204 0123     		movs	r3, #1
 4273 0206 5CE0     		b	.L277
 4274              	.L299:
1393:./Libraries/STM32H7xx_HAL_Driver/Src/stm32h7xx_hal_tim_ex.c ****       break;
 4275              		.loc 1 1393 7
 4276 0208 FB68     		ldr	r3, [r7, #12]
 4277 020a 1B68     		ldr	r3, [r3]
 4278 020c DA68     		ldr	r2, [r3, #12]
 4279 020e FB68     		ldr	r3, [r7, #12]
 4280 0210 1B68     		ldr	r3, [r3]
 4281 0212 42F40062 		orr	r2, r2, #2048
 4282 0216 DA60     		str	r2, [r3, #12]
1394:./Libraries/STM32H7xx_HAL_Driver/Src/stm32h7xx_hal_tim_ex.c ****     }
 4283              		.loc 1 1394 7
 4284 0218 00E0     		b	.L297
 4285              	.L304:
 4286              		.loc 1 1398 7
 4287 021a 00BF     		nop
 4288              	.L297:
1399:./Libraries/STM32H7xx_HAL_Driver/Src/stm32h7xx_hal_tim_ex.c ****   }
1400:./Libraries/STM32H7xx_HAL_Driver/Src/stm32h7xx_hal_tim_ex.c **** 
1401:./Libraries/STM32H7xx_HAL_Driver/Src/stm32h7xx_hal_tim_ex.c ****   /* Enable the complementary PWM output  */
1402:./Libraries/STM32H7xx_HAL_Driver/Src/stm32h7xx_hal_tim_ex.c ****   TIM_CCxNChannelCmd(htim->Instance, Channel, TIM_CCxN_ENABLE);
 4289              		.loc 1 1402 3
 4290 021c FB68     		ldr	r3, [r7, #12]
 4291 021e 1B68     		ldr	r3, [r3]
 4292 0220 0422     		movs	r2, #4
 4293 0222 B968     		ldr	r1, [r7, #8]
 4294 0224 1846     		mov	r0, r3
 4295 0226 FFF7FEFF 		bl	TIM_CCxNChannelCmd
1403:./Libraries/STM32H7xx_HAL_Driver/Src/stm32h7xx_hal_tim_ex.c **** 
1404:./Libraries/STM32H7xx_HAL_Driver/Src/stm32h7xx_hal_tim_ex.c ****   /* Enable the Main Output */
1405:./Libraries/STM32H7xx_HAL_Driver/Src/stm32h7xx_hal_tim_ex.c ****   __HAL_TIM_MOE_ENABLE(htim);
 4296              		.loc 1 1405 3
 4297 022a FB68     		ldr	r3, [r7, #12]
 4298 022c 1B68     		ldr	r3, [r3]
 4299 022e 5A6C     		ldr	r2, [r3, #68]
 4300 0230 FB68     		ldr	r3, [r7, #12]
 4301 0232 1B68     		ldr	r3, [r3]
 4302 0234 42F40042 		orr	r2, r2, #32768
 4303 0238 5A64     		str	r2, [r3, #68]
1406:./Libraries/STM32H7xx_HAL_Driver/Src/stm32h7xx_hal_tim_ex.c **** 
1407:./Libraries/STM32H7xx_HAL_Driver/Src/stm32h7xx_hal_tim_ex.c ****   /* Enable the Peripheral, except in trigger mode where enable is automatically done with trigger 
1408:./Libraries/STM32H7xx_HAL_Driver/Src/stm32h7xx_hal_tim_ex.c ****   if (IS_TIM_SLAVE_INSTANCE(htim->Instance))
 4304              		.loc 1 1408 7
 4305 023a FB68     		ldr	r3, [r7, #12]
 4306 023c 1B68     		ldr	r3, [r3]
 4307              		.loc 1 1408 6
 4308 023e 264A     		ldr	r2, .L306+12
 4309 0240 9342     		cmp	r3, r2
 4310 0242 1DD0     		beq	.L300
 4311              		.loc 1 1408 7 discriminator 1
 4312 0244 FB68     		ldr	r3, [r7, #12]
ARM GAS  /tmp/ccxx2olO.s 			page 103


 4313 0246 1B68     		ldr	r3, [r3]
 4314 0248 B3F1804F 		cmp	r3, #1073741824
 4315 024c 18D0     		beq	.L300
 4316              		.loc 1 1408 7 is_stmt 0 discriminator 2
 4317 024e FB68     		ldr	r3, [r7, #12]
 4318 0250 1B68     		ldr	r3, [r3]
 4319 0252 224A     		ldr	r2, .L306+16
 4320 0254 9342     		cmp	r3, r2
 4321 0256 13D0     		beq	.L300
 4322              		.loc 1 1408 7 discriminator 3
 4323 0258 FB68     		ldr	r3, [r7, #12]
 4324 025a 1B68     		ldr	r3, [r3]
 4325 025c 204A     		ldr	r2, .L306+20
 4326 025e 9342     		cmp	r3, r2
 4327 0260 0ED0     		beq	.L300
 4328              		.loc 1 1408 7 discriminator 4
 4329 0262 FB68     		ldr	r3, [r7, #12]
 4330 0264 1B68     		ldr	r3, [r3]
 4331 0266 1F4A     		ldr	r2, .L306+24
 4332 0268 9342     		cmp	r3, r2
 4333 026a 09D0     		beq	.L300
 4334              		.loc 1 1408 7 discriminator 5
 4335 026c FB68     		ldr	r3, [r7, #12]
 4336 026e 1B68     		ldr	r3, [r3]
 4337 0270 1D4A     		ldr	r2, .L306+28
 4338 0272 9342     		cmp	r3, r2
 4339 0274 04D0     		beq	.L300
 4340              		.loc 1 1408 7 discriminator 6
 4341 0276 FB68     		ldr	r3, [r7, #12]
 4342 0278 1B68     		ldr	r3, [r3]
 4343 027a 1C4A     		ldr	r2, .L306+32
 4344 027c 9342     		cmp	r3, r2
 4345 027e 15D1     		bne	.L301
 4346              	.L300:
1409:./Libraries/STM32H7xx_HAL_Driver/Src/stm32h7xx_hal_tim_ex.c ****   {
1410:./Libraries/STM32H7xx_HAL_Driver/Src/stm32h7xx_hal_tim_ex.c ****     tmpsmcr = htim->Instance->SMCR & TIM_SMCR_SMS;
 4347              		.loc 1 1410 19 is_stmt 1
 4348 0280 FB68     		ldr	r3, [r7, #12]
 4349 0282 1B68     		ldr	r3, [r3]
 4350              		.loc 1 1410 29
 4351 0284 9A68     		ldr	r2, [r3, #8]
 4352              		.loc 1 1410 13
 4353 0286 1A4B     		ldr	r3, .L306+36
 4354 0288 1340     		ands	r3, r3, r2
 4355 028a 7B61     		str	r3, [r7, #20]
1411:./Libraries/STM32H7xx_HAL_Driver/Src/stm32h7xx_hal_tim_ex.c ****     if (!IS_TIM_SLAVEMODE_TRIGGER_ENABLED(tmpsmcr))
 4356              		.loc 1 1411 8
 4357 028c 7B69     		ldr	r3, [r7, #20]
 4358 028e 062B     		cmp	r3, #6
 4359 0290 15D0     		beq	.L305
 4360              		.loc 1 1411 9 discriminator 1
 4361 0292 7B69     		ldr	r3, [r7, #20]
 4362 0294 B3F5803F 		cmp	r3, #65536
 4363 0298 11D0     		beq	.L305
1412:./Libraries/STM32H7xx_HAL_Driver/Src/stm32h7xx_hal_tim_ex.c ****     {
1413:./Libraries/STM32H7xx_HAL_Driver/Src/stm32h7xx_hal_tim_ex.c ****       __HAL_TIM_ENABLE(htim);
 4364              		.loc 1 1413 7
ARM GAS  /tmp/ccxx2olO.s 			page 104


 4365 029a FB68     		ldr	r3, [r7, #12]
 4366 029c 1B68     		ldr	r3, [r3]
 4367 029e 1A68     		ldr	r2, [r3]
 4368 02a0 FB68     		ldr	r3, [r7, #12]
 4369 02a2 1B68     		ldr	r3, [r3]
 4370 02a4 42F00102 		orr	r2, r2, #1
 4371 02a8 1A60     		str	r2, [r3]
1411:./Libraries/STM32H7xx_HAL_Driver/Src/stm32h7xx_hal_tim_ex.c ****     if (!IS_TIM_SLAVEMODE_TRIGGER_ENABLED(tmpsmcr))
 4372              		.loc 1 1411 8
 4373 02aa 08E0     		b	.L305
 4374              	.L301:
1414:./Libraries/STM32H7xx_HAL_Driver/Src/stm32h7xx_hal_tim_ex.c ****     }
1415:./Libraries/STM32H7xx_HAL_Driver/Src/stm32h7xx_hal_tim_ex.c ****   }
1416:./Libraries/STM32H7xx_HAL_Driver/Src/stm32h7xx_hal_tim_ex.c ****   else
1417:./Libraries/STM32H7xx_HAL_Driver/Src/stm32h7xx_hal_tim_ex.c ****   {
1418:./Libraries/STM32H7xx_HAL_Driver/Src/stm32h7xx_hal_tim_ex.c ****     __HAL_TIM_ENABLE(htim);
 4375              		.loc 1 1418 5
 4376 02ac FB68     		ldr	r3, [r7, #12]
 4377 02ae 1B68     		ldr	r3, [r3]
 4378 02b0 1A68     		ldr	r2, [r3]
 4379 02b2 FB68     		ldr	r3, [r7, #12]
 4380 02b4 1B68     		ldr	r3, [r3]
 4381 02b6 42F00102 		orr	r2, r2, #1
 4382 02ba 1A60     		str	r2, [r3]
 4383 02bc 00E0     		b	.L303
 4384              	.L305:
1411:./Libraries/STM32H7xx_HAL_Driver/Src/stm32h7xx_hal_tim_ex.c ****     {
 4385              		.loc 1 1411 8
 4386 02be 00BF     		nop
 4387              	.L303:
1419:./Libraries/STM32H7xx_HAL_Driver/Src/stm32h7xx_hal_tim_ex.c ****   }
1420:./Libraries/STM32H7xx_HAL_Driver/Src/stm32h7xx_hal_tim_ex.c **** 
1421:./Libraries/STM32H7xx_HAL_Driver/Src/stm32h7xx_hal_tim_ex.c ****   /* Return function status */
1422:./Libraries/STM32H7xx_HAL_Driver/Src/stm32h7xx_hal_tim_ex.c ****   return HAL_OK;
 4388              		.loc 1 1422 10
 4389 02c0 0023     		movs	r3, #0
 4390              	.L277:
1423:./Libraries/STM32H7xx_HAL_Driver/Src/stm32h7xx_hal_tim_ex.c **** }
 4391              		.loc 1 1423 1
 4392 02c2 1846     		mov	r0, r3
 4393 02c4 1837     		adds	r7, r7, #24
 4394              	.LCFI105:
 4395              		.cfi_def_cfa_offset 8
 4396 02c6 BD46     		mov	sp, r7
 4397              	.LCFI106:
 4398              		.cfi_def_cfa_register 13
 4399              		@ sp needed
 4400 02c8 80BD     		pop	{r7, pc}
 4401              	.L307:
 4402 02ca 00BF     		.align	2
 4403              	.L306:
 4404 02cc 00000000 		.word	TIM_DMADelayPulseNCplt
 4405 02d0 00000000 		.word	TIM_DMADelayPulseHalfCplt
 4406 02d4 00000000 		.word	TIM_DMAErrorCCxN
 4407 02d8 00000140 		.word	1073807360
 4408 02dc 00040040 		.word	1073742848
 4409 02e0 00080040 		.word	1073743872
ARM GAS  /tmp/ccxx2olO.s 			page 105


 4410 02e4 000C0040 		.word	1073744896
 4411 02e8 00040140 		.word	1073808384
 4412 02ec 00180040 		.word	1073747968
 4413 02f0 07000100 		.word	65543
 4414              		.cfi_endproc
 4415              	.LFE351:
 4417              		.section	.text.HAL_TIMEx_PWMN_Stop_DMA,"ax",%progbits
 4418              		.align	1
 4419              		.global	HAL_TIMEx_PWMN_Stop_DMA
 4420              		.syntax unified
 4421              		.thumb
 4422              		.thumb_func
 4423              		.fpu fpv5-d16
 4425              	HAL_TIMEx_PWMN_Stop_DMA:
 4426              	.LFB352:
1424:./Libraries/STM32H7xx_HAL_Driver/Src/stm32h7xx_hal_tim_ex.c **** 
1425:./Libraries/STM32H7xx_HAL_Driver/Src/stm32h7xx_hal_tim_ex.c **** /**
1426:./Libraries/STM32H7xx_HAL_Driver/Src/stm32h7xx_hal_tim_ex.c ****   * @brief  Stops the TIM PWM signal generation in DMA mode on the complementary
1427:./Libraries/STM32H7xx_HAL_Driver/Src/stm32h7xx_hal_tim_ex.c ****   *         output
1428:./Libraries/STM32H7xx_HAL_Driver/Src/stm32h7xx_hal_tim_ex.c ****   * @param  htim TIM handle
1429:./Libraries/STM32H7xx_HAL_Driver/Src/stm32h7xx_hal_tim_ex.c ****   * @param  Channel TIM Channel to be disabled
1430:./Libraries/STM32H7xx_HAL_Driver/Src/stm32h7xx_hal_tim_ex.c ****   *          This parameter can be one of the following values:
1431:./Libraries/STM32H7xx_HAL_Driver/Src/stm32h7xx_hal_tim_ex.c ****   *            @arg TIM_CHANNEL_1: TIM Channel 1 selected
1432:./Libraries/STM32H7xx_HAL_Driver/Src/stm32h7xx_hal_tim_ex.c ****   *            @arg TIM_CHANNEL_2: TIM Channel 2 selected
1433:./Libraries/STM32H7xx_HAL_Driver/Src/stm32h7xx_hal_tim_ex.c ****   *            @arg TIM_CHANNEL_3: TIM Channel 3 selected
1434:./Libraries/STM32H7xx_HAL_Driver/Src/stm32h7xx_hal_tim_ex.c ****   * @retval HAL status
1435:./Libraries/STM32H7xx_HAL_Driver/Src/stm32h7xx_hal_tim_ex.c ****   */
1436:./Libraries/STM32H7xx_HAL_Driver/Src/stm32h7xx_hal_tim_ex.c **** HAL_StatusTypeDef HAL_TIMEx_PWMN_Stop_DMA(TIM_HandleTypeDef *htim, uint32_t Channel)
1437:./Libraries/STM32H7xx_HAL_Driver/Src/stm32h7xx_hal_tim_ex.c **** {
 4427              		.loc 1 1437 1
 4428              		.cfi_startproc
 4429              		@ args = 0, pretend = 0, frame = 8
 4430              		@ frame_needed = 1, uses_anonymous_args = 0
 4431 0000 80B5     		push	{r7, lr}
 4432              	.LCFI107:
 4433              		.cfi_def_cfa_offset 8
 4434              		.cfi_offset 7, -8
 4435              		.cfi_offset 14, -4
 4436 0002 82B0     		sub	sp, sp, #8
 4437              	.LCFI108:
 4438              		.cfi_def_cfa_offset 16
 4439 0004 00AF     		add	r7, sp, #0
 4440              	.LCFI109:
 4441              		.cfi_def_cfa_register 7
 4442 0006 7860     		str	r0, [r7, #4]
 4443 0008 3960     		str	r1, [r7]
1438:./Libraries/STM32H7xx_HAL_Driver/Src/stm32h7xx_hal_tim_ex.c ****   /* Check the parameters */
1439:./Libraries/STM32H7xx_HAL_Driver/Src/stm32h7xx_hal_tim_ex.c ****   assert_param(IS_TIM_CCXN_INSTANCE(htim->Instance, Channel));
1440:./Libraries/STM32H7xx_HAL_Driver/Src/stm32h7xx_hal_tim_ex.c **** 
1441:./Libraries/STM32H7xx_HAL_Driver/Src/stm32h7xx_hal_tim_ex.c ****   switch (Channel)
 4444              		.loc 1 1441 3
 4445 000a 3B68     		ldr	r3, [r7]
 4446 000c 082B     		cmp	r3, #8
 4447 000e 25D0     		beq	.L309
 4448 0010 3B68     		ldr	r3, [r7]
 4449 0012 082B     		cmp	r3, #8
 4450 0014 30D8     		bhi	.L323
ARM GAS  /tmp/ccxx2olO.s 			page 106


 4451 0016 3B68     		ldr	r3, [r7]
 4452 0018 002B     		cmp	r3, #0
 4453 001a 03D0     		beq	.L311
 4454 001c 3B68     		ldr	r3, [r7]
 4455 001e 042B     		cmp	r3, #4
 4456 0020 0ED0     		beq	.L312
1442:./Libraries/STM32H7xx_HAL_Driver/Src/stm32h7xx_hal_tim_ex.c ****   {
1443:./Libraries/STM32H7xx_HAL_Driver/Src/stm32h7xx_hal_tim_ex.c ****     case TIM_CHANNEL_1:
1444:./Libraries/STM32H7xx_HAL_Driver/Src/stm32h7xx_hal_tim_ex.c ****     {
1445:./Libraries/STM32H7xx_HAL_Driver/Src/stm32h7xx_hal_tim_ex.c ****       /* Disable the TIM Capture/Compare 1 DMA request */
1446:./Libraries/STM32H7xx_HAL_Driver/Src/stm32h7xx_hal_tim_ex.c ****       __HAL_TIM_DISABLE_DMA(htim, TIM_DMA_CC1);
1447:./Libraries/STM32H7xx_HAL_Driver/Src/stm32h7xx_hal_tim_ex.c ****       (void)HAL_DMA_Abort_IT(htim->hdma[TIM_DMA_ID_CC1]);
1448:./Libraries/STM32H7xx_HAL_Driver/Src/stm32h7xx_hal_tim_ex.c ****       break;
1449:./Libraries/STM32H7xx_HAL_Driver/Src/stm32h7xx_hal_tim_ex.c ****     }
1450:./Libraries/STM32H7xx_HAL_Driver/Src/stm32h7xx_hal_tim_ex.c **** 
1451:./Libraries/STM32H7xx_HAL_Driver/Src/stm32h7xx_hal_tim_ex.c ****     case TIM_CHANNEL_2:
1452:./Libraries/STM32H7xx_HAL_Driver/Src/stm32h7xx_hal_tim_ex.c ****     {
1453:./Libraries/STM32H7xx_HAL_Driver/Src/stm32h7xx_hal_tim_ex.c ****       /* Disable the TIM Capture/Compare 2 DMA request */
1454:./Libraries/STM32H7xx_HAL_Driver/Src/stm32h7xx_hal_tim_ex.c ****       __HAL_TIM_DISABLE_DMA(htim, TIM_DMA_CC2);
1455:./Libraries/STM32H7xx_HAL_Driver/Src/stm32h7xx_hal_tim_ex.c ****       (void)HAL_DMA_Abort_IT(htim->hdma[TIM_DMA_ID_CC2]);
1456:./Libraries/STM32H7xx_HAL_Driver/Src/stm32h7xx_hal_tim_ex.c ****       break;
1457:./Libraries/STM32H7xx_HAL_Driver/Src/stm32h7xx_hal_tim_ex.c ****     }
1458:./Libraries/STM32H7xx_HAL_Driver/Src/stm32h7xx_hal_tim_ex.c **** 
1459:./Libraries/STM32H7xx_HAL_Driver/Src/stm32h7xx_hal_tim_ex.c ****     case TIM_CHANNEL_3:
1460:./Libraries/STM32H7xx_HAL_Driver/Src/stm32h7xx_hal_tim_ex.c ****     {
1461:./Libraries/STM32H7xx_HAL_Driver/Src/stm32h7xx_hal_tim_ex.c ****       /* Disable the TIM Capture/Compare 3 DMA request */
1462:./Libraries/STM32H7xx_HAL_Driver/Src/stm32h7xx_hal_tim_ex.c ****       __HAL_TIM_DISABLE_DMA(htim, TIM_DMA_CC3);
1463:./Libraries/STM32H7xx_HAL_Driver/Src/stm32h7xx_hal_tim_ex.c ****       (void)HAL_DMA_Abort_IT(htim->hdma[TIM_DMA_ID_CC3]);
1464:./Libraries/STM32H7xx_HAL_Driver/Src/stm32h7xx_hal_tim_ex.c ****       break;
1465:./Libraries/STM32H7xx_HAL_Driver/Src/stm32h7xx_hal_tim_ex.c ****     }
1466:./Libraries/STM32H7xx_HAL_Driver/Src/stm32h7xx_hal_tim_ex.c **** 
1467:./Libraries/STM32H7xx_HAL_Driver/Src/stm32h7xx_hal_tim_ex.c ****     default:
1468:./Libraries/STM32H7xx_HAL_Driver/Src/stm32h7xx_hal_tim_ex.c ****       break;
 4457              		.loc 1 1468 7
 4458 0022 29E0     		b	.L323
 4459              	.L311:
1446:./Libraries/STM32H7xx_HAL_Driver/Src/stm32h7xx_hal_tim_ex.c ****       (void)HAL_DMA_Abort_IT(htim->hdma[TIM_DMA_ID_CC1]);
 4460              		.loc 1 1446 7
 4461 0024 7B68     		ldr	r3, [r7, #4]
 4462 0026 1B68     		ldr	r3, [r3]
 4463 0028 DA68     		ldr	r2, [r3, #12]
 4464 002a 7B68     		ldr	r3, [r7, #4]
 4465 002c 1B68     		ldr	r3, [r3]
 4466 002e 22F40072 		bic	r2, r2, #512
 4467 0032 DA60     		str	r2, [r3, #12]
1447:./Libraries/STM32H7xx_HAL_Driver/Src/stm32h7xx_hal_tim_ex.c ****       break;
 4468              		.loc 1 1447 13
 4469 0034 7B68     		ldr	r3, [r7, #4]
 4470 0036 5B6A     		ldr	r3, [r3, #36]
 4471 0038 1846     		mov	r0, r3
 4472 003a FFF7FEFF 		bl	HAL_DMA_Abort_IT
1448:./Libraries/STM32H7xx_HAL_Driver/Src/stm32h7xx_hal_tim_ex.c ****     }
 4473              		.loc 1 1448 7
 4474 003e 1CE0     		b	.L313
 4475              	.L312:
1454:./Libraries/STM32H7xx_HAL_Driver/Src/stm32h7xx_hal_tim_ex.c ****       (void)HAL_DMA_Abort_IT(htim->hdma[TIM_DMA_ID_CC2]);
 4476              		.loc 1 1454 7
ARM GAS  /tmp/ccxx2olO.s 			page 107


 4477 0040 7B68     		ldr	r3, [r7, #4]
 4478 0042 1B68     		ldr	r3, [r3]
 4479 0044 DA68     		ldr	r2, [r3, #12]
 4480 0046 7B68     		ldr	r3, [r7, #4]
 4481 0048 1B68     		ldr	r3, [r3]
 4482 004a 22F48062 		bic	r2, r2, #1024
 4483 004e DA60     		str	r2, [r3, #12]
1455:./Libraries/STM32H7xx_HAL_Driver/Src/stm32h7xx_hal_tim_ex.c ****       break;
 4484              		.loc 1 1455 13
 4485 0050 7B68     		ldr	r3, [r7, #4]
 4486 0052 9B6A     		ldr	r3, [r3, #40]
 4487 0054 1846     		mov	r0, r3
 4488 0056 FFF7FEFF 		bl	HAL_DMA_Abort_IT
1456:./Libraries/STM32H7xx_HAL_Driver/Src/stm32h7xx_hal_tim_ex.c ****     }
 4489              		.loc 1 1456 7
 4490 005a 0EE0     		b	.L313
 4491              	.L309:
1462:./Libraries/STM32H7xx_HAL_Driver/Src/stm32h7xx_hal_tim_ex.c ****       (void)HAL_DMA_Abort_IT(htim->hdma[TIM_DMA_ID_CC3]);
 4492              		.loc 1 1462 7
 4493 005c 7B68     		ldr	r3, [r7, #4]
 4494 005e 1B68     		ldr	r3, [r3]
 4495 0060 DA68     		ldr	r2, [r3, #12]
 4496 0062 7B68     		ldr	r3, [r7, #4]
 4497 0064 1B68     		ldr	r3, [r3]
 4498 0066 22F40062 		bic	r2, r2, #2048
 4499 006a DA60     		str	r2, [r3, #12]
1463:./Libraries/STM32H7xx_HAL_Driver/Src/stm32h7xx_hal_tim_ex.c ****       break;
 4500              		.loc 1 1463 13
 4501 006c 7B68     		ldr	r3, [r7, #4]
 4502 006e DB6A     		ldr	r3, [r3, #44]
 4503 0070 1846     		mov	r0, r3
 4504 0072 FFF7FEFF 		bl	HAL_DMA_Abort_IT
1464:./Libraries/STM32H7xx_HAL_Driver/Src/stm32h7xx_hal_tim_ex.c ****     }
 4505              		.loc 1 1464 7
 4506 0076 00E0     		b	.L313
 4507              	.L323:
 4508              		.loc 1 1468 7
 4509 0078 00BF     		nop
 4510              	.L313:
1469:./Libraries/STM32H7xx_HAL_Driver/Src/stm32h7xx_hal_tim_ex.c ****   }
1470:./Libraries/STM32H7xx_HAL_Driver/Src/stm32h7xx_hal_tim_ex.c **** 
1471:./Libraries/STM32H7xx_HAL_Driver/Src/stm32h7xx_hal_tim_ex.c ****   /* Disable the complementary PWM output */
1472:./Libraries/STM32H7xx_HAL_Driver/Src/stm32h7xx_hal_tim_ex.c ****   TIM_CCxNChannelCmd(htim->Instance, Channel, TIM_CCxN_DISABLE);
 4511              		.loc 1 1472 3
 4512 007a 7B68     		ldr	r3, [r7, #4]
 4513 007c 1B68     		ldr	r3, [r3]
 4514 007e 0022     		movs	r2, #0
 4515 0080 3968     		ldr	r1, [r7]
 4516 0082 1846     		mov	r0, r3
 4517 0084 FFF7FEFF 		bl	TIM_CCxNChannelCmd
1473:./Libraries/STM32H7xx_HAL_Driver/Src/stm32h7xx_hal_tim_ex.c **** 
1474:./Libraries/STM32H7xx_HAL_Driver/Src/stm32h7xx_hal_tim_ex.c ****   /* Disable the Main Output */
1475:./Libraries/STM32H7xx_HAL_Driver/Src/stm32h7xx_hal_tim_ex.c ****   __HAL_TIM_MOE_DISABLE(htim);
 4518              		.loc 1 1475 3
 4519 0088 7B68     		ldr	r3, [r7, #4]
 4520 008a 1B68     		ldr	r3, [r3]
 4521 008c 1A6A     		ldr	r2, [r3, #32]
ARM GAS  /tmp/ccxx2olO.s 			page 108


 4522 008e 41F21113 		movw	r3, #4369
 4523 0092 1340     		ands	r3, r3, r2
 4524 0094 002B     		cmp	r3, #0
 4525 0096 0FD1     		bne	.L314
 4526              		.loc 1 1475 3 is_stmt 0 discriminator 1
 4527 0098 7B68     		ldr	r3, [r7, #4]
 4528 009a 1B68     		ldr	r3, [r3]
 4529 009c 1A6A     		ldr	r2, [r3, #32]
 4530 009e 40F24443 		movw	r3, #1092
 4531 00a2 1340     		ands	r3, r3, r2
 4532 00a4 002B     		cmp	r3, #0
 4533 00a6 07D1     		bne	.L314
 4534              		.loc 1 1475 3 discriminator 2
 4535 00a8 7B68     		ldr	r3, [r7, #4]
 4536 00aa 1B68     		ldr	r3, [r3]
 4537 00ac 5A6C     		ldr	r2, [r3, #68]
 4538 00ae 7B68     		ldr	r3, [r7, #4]
 4539 00b0 1B68     		ldr	r3, [r3]
 4540 00b2 22F40042 		bic	r2, r2, #32768
 4541 00b6 5A64     		str	r2, [r3, #68]
 4542              	.L314:
1476:./Libraries/STM32H7xx_HAL_Driver/Src/stm32h7xx_hal_tim_ex.c **** 
1477:./Libraries/STM32H7xx_HAL_Driver/Src/stm32h7xx_hal_tim_ex.c ****   /* Disable the Peripheral */
1478:./Libraries/STM32H7xx_HAL_Driver/Src/stm32h7xx_hal_tim_ex.c ****   __HAL_TIM_DISABLE(htim);
 4543              		.loc 1 1478 3 is_stmt 1
 4544 00b8 7B68     		ldr	r3, [r7, #4]
 4545 00ba 1B68     		ldr	r3, [r3]
 4546 00bc 1A6A     		ldr	r2, [r3, #32]
 4547 00be 41F21113 		movw	r3, #4369
 4548 00c2 1340     		ands	r3, r3, r2
 4549 00c4 002B     		cmp	r3, #0
 4550 00c6 0FD1     		bne	.L315
 4551              		.loc 1 1478 3 is_stmt 0 discriminator 1
 4552 00c8 7B68     		ldr	r3, [r7, #4]
 4553 00ca 1B68     		ldr	r3, [r3]
 4554 00cc 1A6A     		ldr	r2, [r3, #32]
 4555 00ce 40F24443 		movw	r3, #1092
 4556 00d2 1340     		ands	r3, r3, r2
 4557 00d4 002B     		cmp	r3, #0
 4558 00d6 07D1     		bne	.L315
 4559              		.loc 1 1478 3 discriminator 2
 4560 00d8 7B68     		ldr	r3, [r7, #4]
 4561 00da 1B68     		ldr	r3, [r3]
 4562 00dc 1A68     		ldr	r2, [r3]
 4563 00de 7B68     		ldr	r3, [r7, #4]
 4564 00e0 1B68     		ldr	r3, [r3]
 4565 00e2 22F00102 		bic	r2, r2, #1
 4566 00e6 1A60     		str	r2, [r3]
 4567              	.L315:
1479:./Libraries/STM32H7xx_HAL_Driver/Src/stm32h7xx_hal_tim_ex.c **** 
1480:./Libraries/STM32H7xx_HAL_Driver/Src/stm32h7xx_hal_tim_ex.c ****   /* Set the TIM complementary channel state */
1481:./Libraries/STM32H7xx_HAL_Driver/Src/stm32h7xx_hal_tim_ex.c ****   TIM_CHANNEL_N_STATE_SET(htim, Channel, HAL_TIM_CHANNEL_STATE_READY);
 4568              		.loc 1 1481 3 is_stmt 1
 4569 00e8 3B68     		ldr	r3, [r7]
 4570 00ea 002B     		cmp	r3, #0
 4571 00ec 04D1     		bne	.L316
 4572              		.loc 1 1481 3 is_stmt 0 discriminator 1
ARM GAS  /tmp/ccxx2olO.s 			page 109


 4573 00ee 7B68     		ldr	r3, [r7, #4]
 4574 00f0 0122     		movs	r2, #1
 4575 00f2 83F84420 		strb	r2, [r3, #68]
 4576 00f6 13E0     		b	.L317
 4577              	.L316:
 4578              		.loc 1 1481 3 discriminator 2
 4579 00f8 3B68     		ldr	r3, [r7]
 4580 00fa 042B     		cmp	r3, #4
 4581 00fc 04D1     		bne	.L318
 4582              		.loc 1 1481 3 discriminator 3
 4583 00fe 7B68     		ldr	r3, [r7, #4]
 4584 0100 0122     		movs	r2, #1
 4585 0102 83F84520 		strb	r2, [r3, #69]
 4586 0106 0BE0     		b	.L317
 4587              	.L318:
 4588              		.loc 1 1481 3 discriminator 4
 4589 0108 3B68     		ldr	r3, [r7]
 4590 010a 082B     		cmp	r3, #8
 4591 010c 04D1     		bne	.L320
 4592              		.loc 1 1481 3 discriminator 6
 4593 010e 7B68     		ldr	r3, [r7, #4]
 4594 0110 0122     		movs	r2, #1
 4595 0112 83F84620 		strb	r2, [r3, #70]
 4596 0116 03E0     		b	.L317
 4597              	.L320:
 4598              		.loc 1 1481 3 discriminator 7
 4599 0118 7B68     		ldr	r3, [r7, #4]
 4600 011a 0122     		movs	r2, #1
 4601 011c 83F84720 		strb	r2, [r3, #71]
 4602              	.L317:
1482:./Libraries/STM32H7xx_HAL_Driver/Src/stm32h7xx_hal_tim_ex.c **** 
1483:./Libraries/STM32H7xx_HAL_Driver/Src/stm32h7xx_hal_tim_ex.c ****   /* Return function status */
1484:./Libraries/STM32H7xx_HAL_Driver/Src/stm32h7xx_hal_tim_ex.c ****   return HAL_OK;
 4603              		.loc 1 1484 10 is_stmt 1
 4604 0120 0023     		movs	r3, #0
1485:./Libraries/STM32H7xx_HAL_Driver/Src/stm32h7xx_hal_tim_ex.c **** }
 4605              		.loc 1 1485 1
 4606 0122 1846     		mov	r0, r3
 4607 0124 0837     		adds	r7, r7, #8
 4608              	.LCFI110:
 4609              		.cfi_def_cfa_offset 8
 4610 0126 BD46     		mov	sp, r7
 4611              	.LCFI111:
 4612              		.cfi_def_cfa_register 13
 4613              		@ sp needed
 4614 0128 80BD     		pop	{r7, pc}
 4615              		.cfi_endproc
 4616              	.LFE352:
 4618              		.section	.text.HAL_TIMEx_OnePulseN_Start,"ax",%progbits
 4619              		.align	1
 4620              		.global	HAL_TIMEx_OnePulseN_Start
 4621              		.syntax unified
 4622              		.thumb
 4623              		.thumb_func
 4624              		.fpu fpv5-d16
 4626              	HAL_TIMEx_OnePulseN_Start:
 4627              	.LFB353:
ARM GAS  /tmp/ccxx2olO.s 			page 110


1486:./Libraries/STM32H7xx_HAL_Driver/Src/stm32h7xx_hal_tim_ex.c **** 
1487:./Libraries/STM32H7xx_HAL_Driver/Src/stm32h7xx_hal_tim_ex.c **** /**
1488:./Libraries/STM32H7xx_HAL_Driver/Src/stm32h7xx_hal_tim_ex.c ****   * @}
1489:./Libraries/STM32H7xx_HAL_Driver/Src/stm32h7xx_hal_tim_ex.c ****   */
1490:./Libraries/STM32H7xx_HAL_Driver/Src/stm32h7xx_hal_tim_ex.c **** 
1491:./Libraries/STM32H7xx_HAL_Driver/Src/stm32h7xx_hal_tim_ex.c **** /** @defgroup TIMEx_Exported_Functions_Group4 Extended Timer Complementary One Pulse functions
1492:./Libraries/STM32H7xx_HAL_Driver/Src/stm32h7xx_hal_tim_ex.c ****   * @brief    Timer Complementary One Pulse functions
1493:./Libraries/STM32H7xx_HAL_Driver/Src/stm32h7xx_hal_tim_ex.c ****   *
1494:./Libraries/STM32H7xx_HAL_Driver/Src/stm32h7xx_hal_tim_ex.c **** @verbatim
1495:./Libraries/STM32H7xx_HAL_Driver/Src/stm32h7xx_hal_tim_ex.c ****   ==============================================================================
1496:./Libraries/STM32H7xx_HAL_Driver/Src/stm32h7xx_hal_tim_ex.c ****                 ##### Timer Complementary One Pulse functions #####
1497:./Libraries/STM32H7xx_HAL_Driver/Src/stm32h7xx_hal_tim_ex.c ****   ==============================================================================
1498:./Libraries/STM32H7xx_HAL_Driver/Src/stm32h7xx_hal_tim_ex.c ****   [..]
1499:./Libraries/STM32H7xx_HAL_Driver/Src/stm32h7xx_hal_tim_ex.c ****     This section provides functions allowing to:
1500:./Libraries/STM32H7xx_HAL_Driver/Src/stm32h7xx_hal_tim_ex.c ****     (+) Start the Complementary One Pulse generation.
1501:./Libraries/STM32H7xx_HAL_Driver/Src/stm32h7xx_hal_tim_ex.c ****     (+) Stop the Complementary One Pulse.
1502:./Libraries/STM32H7xx_HAL_Driver/Src/stm32h7xx_hal_tim_ex.c ****     (+) Start the Complementary One Pulse and enable interrupts.
1503:./Libraries/STM32H7xx_HAL_Driver/Src/stm32h7xx_hal_tim_ex.c ****     (+) Stop the Complementary One Pulse and disable interrupts.
1504:./Libraries/STM32H7xx_HAL_Driver/Src/stm32h7xx_hal_tim_ex.c **** 
1505:./Libraries/STM32H7xx_HAL_Driver/Src/stm32h7xx_hal_tim_ex.c **** @endverbatim
1506:./Libraries/STM32H7xx_HAL_Driver/Src/stm32h7xx_hal_tim_ex.c ****   * @{
1507:./Libraries/STM32H7xx_HAL_Driver/Src/stm32h7xx_hal_tim_ex.c ****   */
1508:./Libraries/STM32H7xx_HAL_Driver/Src/stm32h7xx_hal_tim_ex.c **** 
1509:./Libraries/STM32H7xx_HAL_Driver/Src/stm32h7xx_hal_tim_ex.c **** /**
1510:./Libraries/STM32H7xx_HAL_Driver/Src/stm32h7xx_hal_tim_ex.c ****   * @brief  Starts the TIM One Pulse signal generation on the complementary
1511:./Libraries/STM32H7xx_HAL_Driver/Src/stm32h7xx_hal_tim_ex.c ****   *         output.
1512:./Libraries/STM32H7xx_HAL_Driver/Src/stm32h7xx_hal_tim_ex.c ****   * @note OutputChannel must match the pulse output channel chosen when calling 
1513:./Libraries/STM32H7xx_HAL_Driver/Src/stm32h7xx_hal_tim_ex.c ****   *       @ref HAL_TIM_OnePulse_ConfigChannel(). 
1514:./Libraries/STM32H7xx_HAL_Driver/Src/stm32h7xx_hal_tim_ex.c ****   * @param  htim TIM One Pulse handle
1515:./Libraries/STM32H7xx_HAL_Driver/Src/stm32h7xx_hal_tim_ex.c ****   * @param  OutputChannel pulse output channel to enable
1516:./Libraries/STM32H7xx_HAL_Driver/Src/stm32h7xx_hal_tim_ex.c ****   *          This parameter can be one of the following values:
1517:./Libraries/STM32H7xx_HAL_Driver/Src/stm32h7xx_hal_tim_ex.c ****   *            @arg TIM_CHANNEL_1: TIM Channel 1 selected
1518:./Libraries/STM32H7xx_HAL_Driver/Src/stm32h7xx_hal_tim_ex.c ****   *            @arg TIM_CHANNEL_2: TIM Channel 2 selected
1519:./Libraries/STM32H7xx_HAL_Driver/Src/stm32h7xx_hal_tim_ex.c ****   * @retval HAL status
1520:./Libraries/STM32H7xx_HAL_Driver/Src/stm32h7xx_hal_tim_ex.c ****   */
1521:./Libraries/STM32H7xx_HAL_Driver/Src/stm32h7xx_hal_tim_ex.c **** HAL_StatusTypeDef HAL_TIMEx_OnePulseN_Start(TIM_HandleTypeDef *htim, uint32_t OutputChannel)
1522:./Libraries/STM32H7xx_HAL_Driver/Src/stm32h7xx_hal_tim_ex.c **** {
 4628              		.loc 1 1522 1
 4629              		.cfi_startproc
 4630              		@ args = 0, pretend = 0, frame = 16
 4631              		@ frame_needed = 1, uses_anonymous_args = 0
 4632 0000 80B5     		push	{r7, lr}
 4633              	.LCFI112:
 4634              		.cfi_def_cfa_offset 8
 4635              		.cfi_offset 7, -8
 4636              		.cfi_offset 14, -4
 4637 0002 84B0     		sub	sp, sp, #16
 4638              	.LCFI113:
 4639              		.cfi_def_cfa_offset 24
 4640 0004 00AF     		add	r7, sp, #0
 4641              	.LCFI114:
 4642              		.cfi_def_cfa_register 7
 4643 0006 7860     		str	r0, [r7, #4]
 4644 0008 3960     		str	r1, [r7]
1523:./Libraries/STM32H7xx_HAL_Driver/Src/stm32h7xx_hal_tim_ex.c ****   uint32_t input_channel = (OutputChannel == TIM_CHANNEL_1) ? TIM_CHANNEL_2 : TIM_CHANNEL_1;
 4645              		.loc 1 1523 77
 4646 000a 3B68     		ldr	r3, [r7]
ARM GAS  /tmp/ccxx2olO.s 			page 111


 4647 000c 002B     		cmp	r3, #0
 4648 000e 01D1     		bne	.L325
 4649              		.loc 1 1523 77 is_stmt 0 discriminator 1
 4650 0010 0423     		movs	r3, #4
 4651 0012 00E0     		b	.L326
 4652              	.L325:
 4653              		.loc 1 1523 77 discriminator 2
 4654 0014 0023     		movs	r3, #0
 4655              	.L326:
 4656              		.loc 1 1523 12 is_stmt 1 discriminator 4
 4657 0016 FB60     		str	r3, [r7, #12]
1524:./Libraries/STM32H7xx_HAL_Driver/Src/stm32h7xx_hal_tim_ex.c ****   HAL_TIM_ChannelStateTypeDef channel_1_state = TIM_CHANNEL_STATE_GET(htim, TIM_CHANNEL_1);
 4658              		.loc 1 1524 31 discriminator 4
 4659 0018 7B68     		ldr	r3, [r7, #4]
 4660 001a 93F83E30 		ldrb	r3, [r3, #62]
 4661 001e FB72     		strb	r3, [r7, #11]
1525:./Libraries/STM32H7xx_HAL_Driver/Src/stm32h7xx_hal_tim_ex.c ****   HAL_TIM_ChannelStateTypeDef channel_2_state = TIM_CHANNEL_STATE_GET(htim, TIM_CHANNEL_2);
 4662              		.loc 1 1525 31 discriminator 4
 4663 0020 7B68     		ldr	r3, [r7, #4]
 4664 0022 93F83F30 		ldrb	r3, [r3, #63]
 4665 0026 BB72     		strb	r3, [r7, #10]
1526:./Libraries/STM32H7xx_HAL_Driver/Src/stm32h7xx_hal_tim_ex.c ****   HAL_TIM_ChannelStateTypeDef complementary_channel_1_state = TIM_CHANNEL_N_STATE_GET(htim, TIM_CHA
 4666              		.loc 1 1526 31 discriminator 4
 4667 0028 7B68     		ldr	r3, [r7, #4]
 4668 002a 93F84430 		ldrb	r3, [r3, #68]
 4669 002e 7B72     		strb	r3, [r7, #9]
1527:./Libraries/STM32H7xx_HAL_Driver/Src/stm32h7xx_hal_tim_ex.c ****   HAL_TIM_ChannelStateTypeDef complementary_channel_2_state = TIM_CHANNEL_N_STATE_GET(htim, TIM_CHA
 4670              		.loc 1 1527 31 discriminator 4
 4671 0030 7B68     		ldr	r3, [r7, #4]
 4672 0032 93F84530 		ldrb	r3, [r3, #69]
 4673 0036 3B72     		strb	r3, [r7, #8]
1528:./Libraries/STM32H7xx_HAL_Driver/Src/stm32h7xx_hal_tim_ex.c **** 
1529:./Libraries/STM32H7xx_HAL_Driver/Src/stm32h7xx_hal_tim_ex.c ****   /* Check the parameters */
1530:./Libraries/STM32H7xx_HAL_Driver/Src/stm32h7xx_hal_tim_ex.c ****   assert_param(IS_TIM_CCXN_INSTANCE(htim->Instance, OutputChannel));
1531:./Libraries/STM32H7xx_HAL_Driver/Src/stm32h7xx_hal_tim_ex.c **** 
1532:./Libraries/STM32H7xx_HAL_Driver/Src/stm32h7xx_hal_tim_ex.c ****   /* Check the TIM channels state */
1533:./Libraries/STM32H7xx_HAL_Driver/Src/stm32h7xx_hal_tim_ex.c ****    if ((channel_1_state != HAL_TIM_CHANNEL_STATE_READY)
 4674              		.loc 1 1533 7 discriminator 4
 4675 0038 FB7A     		ldrb	r3, [r7, #11]	@ zero_extendqisi2
 4676 003a 012B     		cmp	r3, #1
 4677 003c 08D1     		bne	.L327
1534:./Libraries/STM32H7xx_HAL_Driver/Src/stm32h7xx_hal_tim_ex.c ****       || (channel_2_state != HAL_TIM_CHANNEL_STATE_READY)
 4678              		.loc 1 1534 7
 4679 003e BB7A     		ldrb	r3, [r7, #10]	@ zero_extendqisi2
 4680 0040 012B     		cmp	r3, #1
 4681 0042 05D1     		bne	.L327
1535:./Libraries/STM32H7xx_HAL_Driver/Src/stm32h7xx_hal_tim_ex.c ****       || (complementary_channel_1_state != HAL_TIM_CHANNEL_STATE_READY)
 4682              		.loc 1 1535 7
 4683 0044 7B7A     		ldrb	r3, [r7, #9]	@ zero_extendqisi2
 4684 0046 012B     		cmp	r3, #1
 4685 0048 02D1     		bne	.L327
1536:./Libraries/STM32H7xx_HAL_Driver/Src/stm32h7xx_hal_tim_ex.c ****       || (complementary_channel_2_state != HAL_TIM_CHANNEL_STATE_READY))
 4686              		.loc 1 1536 7
 4687 004a 3B7A     		ldrb	r3, [r7, #8]	@ zero_extendqisi2
 4688 004c 012B     		cmp	r3, #1
 4689 004e 01D0     		beq	.L328
 4690              	.L327:
ARM GAS  /tmp/ccxx2olO.s 			page 112


1537:./Libraries/STM32H7xx_HAL_Driver/Src/stm32h7xx_hal_tim_ex.c ****   {
1538:./Libraries/STM32H7xx_HAL_Driver/Src/stm32h7xx_hal_tim_ex.c ****     return HAL_ERROR;
 4691              		.loc 1 1538 12
 4692 0050 0123     		movs	r3, #1
 4693 0052 26E0     		b	.L329
 4694              	.L328:
1539:./Libraries/STM32H7xx_HAL_Driver/Src/stm32h7xx_hal_tim_ex.c ****   }
1540:./Libraries/STM32H7xx_HAL_Driver/Src/stm32h7xx_hal_tim_ex.c **** 
1541:./Libraries/STM32H7xx_HAL_Driver/Src/stm32h7xx_hal_tim_ex.c ****   /* Set the TIM channels state */
1542:./Libraries/STM32H7xx_HAL_Driver/Src/stm32h7xx_hal_tim_ex.c ****   TIM_CHANNEL_STATE_SET(htim, TIM_CHANNEL_1, HAL_TIM_CHANNEL_STATE_BUSY);
 4695              		.loc 1 1542 3
 4696 0054 7B68     		ldr	r3, [r7, #4]
 4697 0056 0222     		movs	r2, #2
 4698 0058 83F83E20 		strb	r2, [r3, #62]
1543:./Libraries/STM32H7xx_HAL_Driver/Src/stm32h7xx_hal_tim_ex.c ****   TIM_CHANNEL_STATE_SET(htim, TIM_CHANNEL_2, HAL_TIM_CHANNEL_STATE_BUSY);
 4699              		.loc 1 1543 3
 4700 005c 7B68     		ldr	r3, [r7, #4]
 4701 005e 0222     		movs	r2, #2
 4702 0060 83F83F20 		strb	r2, [r3, #63]
1544:./Libraries/STM32H7xx_HAL_Driver/Src/stm32h7xx_hal_tim_ex.c ****   TIM_CHANNEL_N_STATE_SET(htim, TIM_CHANNEL_1, HAL_TIM_CHANNEL_STATE_BUSY);
 4703              		.loc 1 1544 3
 4704 0064 7B68     		ldr	r3, [r7, #4]
 4705 0066 0222     		movs	r2, #2
 4706 0068 83F84420 		strb	r2, [r3, #68]
1545:./Libraries/STM32H7xx_HAL_Driver/Src/stm32h7xx_hal_tim_ex.c ****   TIM_CHANNEL_N_STATE_SET(htim, TIM_CHANNEL_2, HAL_TIM_CHANNEL_STATE_BUSY);
 4707              		.loc 1 1545 3
 4708 006c 7B68     		ldr	r3, [r7, #4]
 4709 006e 0222     		movs	r2, #2
 4710 0070 83F84520 		strb	r2, [r3, #69]
1546:./Libraries/STM32H7xx_HAL_Driver/Src/stm32h7xx_hal_tim_ex.c **** 
1547:./Libraries/STM32H7xx_HAL_Driver/Src/stm32h7xx_hal_tim_ex.c ****   /* Enable the complementary One Pulse output channel and the Input Capture channel */
1548:./Libraries/STM32H7xx_HAL_Driver/Src/stm32h7xx_hal_tim_ex.c ****   TIM_CCxNChannelCmd(htim->Instance, OutputChannel, TIM_CCxN_ENABLE);
 4711              		.loc 1 1548 3
 4712 0074 7B68     		ldr	r3, [r7, #4]
 4713 0076 1B68     		ldr	r3, [r3]
 4714 0078 0422     		movs	r2, #4
 4715 007a 3968     		ldr	r1, [r7]
 4716 007c 1846     		mov	r0, r3
 4717 007e FFF7FEFF 		bl	TIM_CCxNChannelCmd
1549:./Libraries/STM32H7xx_HAL_Driver/Src/stm32h7xx_hal_tim_ex.c ****   TIM_CCxChannelCmd(htim->Instance, input_channel, TIM_CCx_ENABLE);
 4718              		.loc 1 1549 3
 4719 0082 7B68     		ldr	r3, [r7, #4]
 4720 0084 1B68     		ldr	r3, [r3]
 4721 0086 0122     		movs	r2, #1
 4722 0088 F968     		ldr	r1, [r7, #12]
 4723 008a 1846     		mov	r0, r3
 4724 008c FFF7FEFF 		bl	TIM_CCxChannelCmd
1550:./Libraries/STM32H7xx_HAL_Driver/Src/stm32h7xx_hal_tim_ex.c **** 
1551:./Libraries/STM32H7xx_HAL_Driver/Src/stm32h7xx_hal_tim_ex.c ****   /* Enable the Main Output */
1552:./Libraries/STM32H7xx_HAL_Driver/Src/stm32h7xx_hal_tim_ex.c ****   __HAL_TIM_MOE_ENABLE(htim);
 4725              		.loc 1 1552 3
 4726 0090 7B68     		ldr	r3, [r7, #4]
 4727 0092 1B68     		ldr	r3, [r3]
 4728 0094 5A6C     		ldr	r2, [r3, #68]
 4729 0096 7B68     		ldr	r3, [r7, #4]
 4730 0098 1B68     		ldr	r3, [r3]
 4731 009a 42F40042 		orr	r2, r2, #32768
ARM GAS  /tmp/ccxx2olO.s 			page 113


 4732 009e 5A64     		str	r2, [r3, #68]
1553:./Libraries/STM32H7xx_HAL_Driver/Src/stm32h7xx_hal_tim_ex.c **** 
1554:./Libraries/STM32H7xx_HAL_Driver/Src/stm32h7xx_hal_tim_ex.c ****   /* Return function status */
1555:./Libraries/STM32H7xx_HAL_Driver/Src/stm32h7xx_hal_tim_ex.c ****   return HAL_OK;
 4733              		.loc 1 1555 10
 4734 00a0 0023     		movs	r3, #0
 4735              	.L329:
1556:./Libraries/STM32H7xx_HAL_Driver/Src/stm32h7xx_hal_tim_ex.c **** }
 4736              		.loc 1 1556 1
 4737 00a2 1846     		mov	r0, r3
 4738 00a4 1037     		adds	r7, r7, #16
 4739              	.LCFI115:
 4740              		.cfi_def_cfa_offset 8
 4741 00a6 BD46     		mov	sp, r7
 4742              	.LCFI116:
 4743              		.cfi_def_cfa_register 13
 4744              		@ sp needed
 4745 00a8 80BD     		pop	{r7, pc}
 4746              		.cfi_endproc
 4747              	.LFE353:
 4749              		.section	.text.HAL_TIMEx_OnePulseN_Stop,"ax",%progbits
 4750              		.align	1
 4751              		.global	HAL_TIMEx_OnePulseN_Stop
 4752              		.syntax unified
 4753              		.thumb
 4754              		.thumb_func
 4755              		.fpu fpv5-d16
 4757              	HAL_TIMEx_OnePulseN_Stop:
 4758              	.LFB354:
1557:./Libraries/STM32H7xx_HAL_Driver/Src/stm32h7xx_hal_tim_ex.c **** 
1558:./Libraries/STM32H7xx_HAL_Driver/Src/stm32h7xx_hal_tim_ex.c **** /**
1559:./Libraries/STM32H7xx_HAL_Driver/Src/stm32h7xx_hal_tim_ex.c ****   * @brief  Stops the TIM One Pulse signal generation on the complementary
1560:./Libraries/STM32H7xx_HAL_Driver/Src/stm32h7xx_hal_tim_ex.c ****   *         output.
1561:./Libraries/STM32H7xx_HAL_Driver/Src/stm32h7xx_hal_tim_ex.c ****   * @note OutputChannel must match the pulse output channel chosen when calling 
1562:./Libraries/STM32H7xx_HAL_Driver/Src/stm32h7xx_hal_tim_ex.c ****   *       @ref HAL_TIM_OnePulse_ConfigChannel(). 
1563:./Libraries/STM32H7xx_HAL_Driver/Src/stm32h7xx_hal_tim_ex.c ****   * @param  htim TIM One Pulse handle
1564:./Libraries/STM32H7xx_HAL_Driver/Src/stm32h7xx_hal_tim_ex.c ****   * @param  OutputChannel pulse output channel to disable
1565:./Libraries/STM32H7xx_HAL_Driver/Src/stm32h7xx_hal_tim_ex.c ****   *          This parameter can be one of the following values:
1566:./Libraries/STM32H7xx_HAL_Driver/Src/stm32h7xx_hal_tim_ex.c ****   *            @arg TIM_CHANNEL_1: TIM Channel 1 selected
1567:./Libraries/STM32H7xx_HAL_Driver/Src/stm32h7xx_hal_tim_ex.c ****   *            @arg TIM_CHANNEL_2: TIM Channel 2 selected
1568:./Libraries/STM32H7xx_HAL_Driver/Src/stm32h7xx_hal_tim_ex.c ****   * @retval HAL status
1569:./Libraries/STM32H7xx_HAL_Driver/Src/stm32h7xx_hal_tim_ex.c ****   */
1570:./Libraries/STM32H7xx_HAL_Driver/Src/stm32h7xx_hal_tim_ex.c **** HAL_StatusTypeDef HAL_TIMEx_OnePulseN_Stop(TIM_HandleTypeDef *htim, uint32_t OutputChannel)
1571:./Libraries/STM32H7xx_HAL_Driver/Src/stm32h7xx_hal_tim_ex.c **** {
 4759              		.loc 1 1571 1
 4760              		.cfi_startproc
 4761              		@ args = 0, pretend = 0, frame = 16
 4762              		@ frame_needed = 1, uses_anonymous_args = 0
 4763 0000 80B5     		push	{r7, lr}
 4764              	.LCFI117:
 4765              		.cfi_def_cfa_offset 8
 4766              		.cfi_offset 7, -8
 4767              		.cfi_offset 14, -4
 4768 0002 84B0     		sub	sp, sp, #16
 4769              	.LCFI118:
 4770              		.cfi_def_cfa_offset 24
 4771 0004 00AF     		add	r7, sp, #0
ARM GAS  /tmp/ccxx2olO.s 			page 114


 4772              	.LCFI119:
 4773              		.cfi_def_cfa_register 7
 4774 0006 7860     		str	r0, [r7, #4]
 4775 0008 3960     		str	r1, [r7]
1572:./Libraries/STM32H7xx_HAL_Driver/Src/stm32h7xx_hal_tim_ex.c ****   uint32_t input_channel = (OutputChannel == TIM_CHANNEL_1) ? TIM_CHANNEL_2 : TIM_CHANNEL_1;
 4776              		.loc 1 1572 77
 4777 000a 3B68     		ldr	r3, [r7]
 4778 000c 002B     		cmp	r3, #0
 4779 000e 01D1     		bne	.L331
 4780              		.loc 1 1572 77 is_stmt 0 discriminator 1
 4781 0010 0423     		movs	r3, #4
 4782 0012 00E0     		b	.L332
 4783              	.L331:
 4784              		.loc 1 1572 77 discriminator 2
 4785 0014 0023     		movs	r3, #0
 4786              	.L332:
 4787              		.loc 1 1572 12 is_stmt 1 discriminator 4
 4788 0016 FB60     		str	r3, [r7, #12]
1573:./Libraries/STM32H7xx_HAL_Driver/Src/stm32h7xx_hal_tim_ex.c **** 
1574:./Libraries/STM32H7xx_HAL_Driver/Src/stm32h7xx_hal_tim_ex.c ****   /* Check the parameters */
1575:./Libraries/STM32H7xx_HAL_Driver/Src/stm32h7xx_hal_tim_ex.c ****   assert_param(IS_TIM_CCXN_INSTANCE(htim->Instance, OutputChannel));
1576:./Libraries/STM32H7xx_HAL_Driver/Src/stm32h7xx_hal_tim_ex.c **** 
1577:./Libraries/STM32H7xx_HAL_Driver/Src/stm32h7xx_hal_tim_ex.c ****   /* Disable the complementary One Pulse output channel and the Input Capture channel */
1578:./Libraries/STM32H7xx_HAL_Driver/Src/stm32h7xx_hal_tim_ex.c ****   TIM_CCxNChannelCmd(htim->Instance, OutputChannel, TIM_CCxN_DISABLE);
 4789              		.loc 1 1578 3 discriminator 4
 4790 0018 7B68     		ldr	r3, [r7, #4]
 4791 001a 1B68     		ldr	r3, [r3]
 4792 001c 0022     		movs	r2, #0
 4793 001e 3968     		ldr	r1, [r7]
 4794 0020 1846     		mov	r0, r3
 4795 0022 FFF7FEFF 		bl	TIM_CCxNChannelCmd
1579:./Libraries/STM32H7xx_HAL_Driver/Src/stm32h7xx_hal_tim_ex.c ****   TIM_CCxChannelCmd(htim->Instance, input_channel, TIM_CCx_DISABLE);
 4796              		.loc 1 1579 3 discriminator 4
 4797 0026 7B68     		ldr	r3, [r7, #4]
 4798 0028 1B68     		ldr	r3, [r3]
 4799 002a 0022     		movs	r2, #0
 4800 002c F968     		ldr	r1, [r7, #12]
 4801 002e 1846     		mov	r0, r3
 4802 0030 FFF7FEFF 		bl	TIM_CCxChannelCmd
1580:./Libraries/STM32H7xx_HAL_Driver/Src/stm32h7xx_hal_tim_ex.c **** 
1581:./Libraries/STM32H7xx_HAL_Driver/Src/stm32h7xx_hal_tim_ex.c ****   /* Disable the Main Output */
1582:./Libraries/STM32H7xx_HAL_Driver/Src/stm32h7xx_hal_tim_ex.c ****   __HAL_TIM_MOE_DISABLE(htim);
 4803              		.loc 1 1582 3 discriminator 4
 4804 0034 7B68     		ldr	r3, [r7, #4]
 4805 0036 1B68     		ldr	r3, [r3]
 4806 0038 1A6A     		ldr	r2, [r3, #32]
 4807 003a 41F21113 		movw	r3, #4369
 4808 003e 1340     		ands	r3, r3, r2
 4809 0040 002B     		cmp	r3, #0
 4810 0042 0FD1     		bne	.L333
 4811              		.loc 1 1582 3 is_stmt 0 discriminator 1
 4812 0044 7B68     		ldr	r3, [r7, #4]
 4813 0046 1B68     		ldr	r3, [r3]
 4814 0048 1A6A     		ldr	r2, [r3, #32]
 4815 004a 40F24443 		movw	r3, #1092
 4816 004e 1340     		ands	r3, r3, r2
 4817 0050 002B     		cmp	r3, #0
ARM GAS  /tmp/ccxx2olO.s 			page 115


 4818 0052 07D1     		bne	.L333
 4819              		.loc 1 1582 3 discriminator 2
 4820 0054 7B68     		ldr	r3, [r7, #4]
 4821 0056 1B68     		ldr	r3, [r3]
 4822 0058 5A6C     		ldr	r2, [r3, #68]
 4823 005a 7B68     		ldr	r3, [r7, #4]
 4824 005c 1B68     		ldr	r3, [r3]
 4825 005e 22F40042 		bic	r2, r2, #32768
 4826 0062 5A64     		str	r2, [r3, #68]
 4827              	.L333:
1583:./Libraries/STM32H7xx_HAL_Driver/Src/stm32h7xx_hal_tim_ex.c **** 
1584:./Libraries/STM32H7xx_HAL_Driver/Src/stm32h7xx_hal_tim_ex.c ****   /* Disable the Peripheral */
1585:./Libraries/STM32H7xx_HAL_Driver/Src/stm32h7xx_hal_tim_ex.c ****   __HAL_TIM_DISABLE(htim);
 4828              		.loc 1 1585 3 is_stmt 1
 4829 0064 7B68     		ldr	r3, [r7, #4]
 4830 0066 1B68     		ldr	r3, [r3]
 4831 0068 1A6A     		ldr	r2, [r3, #32]
 4832 006a 41F21113 		movw	r3, #4369
 4833 006e 1340     		ands	r3, r3, r2
 4834 0070 002B     		cmp	r3, #0
 4835 0072 0FD1     		bne	.L334
 4836              		.loc 1 1585 3 is_stmt 0 discriminator 1
 4837 0074 7B68     		ldr	r3, [r7, #4]
 4838 0076 1B68     		ldr	r3, [r3]
 4839 0078 1A6A     		ldr	r2, [r3, #32]
 4840 007a 40F24443 		movw	r3, #1092
 4841 007e 1340     		ands	r3, r3, r2
 4842 0080 002B     		cmp	r3, #0
 4843 0082 07D1     		bne	.L334
 4844              		.loc 1 1585 3 discriminator 2
 4845 0084 7B68     		ldr	r3, [r7, #4]
 4846 0086 1B68     		ldr	r3, [r3]
 4847 0088 1A68     		ldr	r2, [r3]
 4848 008a 7B68     		ldr	r3, [r7, #4]
 4849 008c 1B68     		ldr	r3, [r3]
 4850 008e 22F00102 		bic	r2, r2, #1
 4851 0092 1A60     		str	r2, [r3]
 4852              	.L334:
1586:./Libraries/STM32H7xx_HAL_Driver/Src/stm32h7xx_hal_tim_ex.c **** 
1587:./Libraries/STM32H7xx_HAL_Driver/Src/stm32h7xx_hal_tim_ex.c ****   /* Set the TIM  channels state */
1588:./Libraries/STM32H7xx_HAL_Driver/Src/stm32h7xx_hal_tim_ex.c ****   TIM_CHANNEL_STATE_SET(htim, TIM_CHANNEL_1, HAL_TIM_CHANNEL_STATE_READY);
 4853              		.loc 1 1588 3 is_stmt 1
 4854 0094 7B68     		ldr	r3, [r7, #4]
 4855 0096 0122     		movs	r2, #1
 4856 0098 83F83E20 		strb	r2, [r3, #62]
1589:./Libraries/STM32H7xx_HAL_Driver/Src/stm32h7xx_hal_tim_ex.c ****   TIM_CHANNEL_STATE_SET(htim, TIM_CHANNEL_2, HAL_TIM_CHANNEL_STATE_READY);
 4857              		.loc 1 1589 3
 4858 009c 7B68     		ldr	r3, [r7, #4]
 4859 009e 0122     		movs	r2, #1
 4860 00a0 83F83F20 		strb	r2, [r3, #63]
1590:./Libraries/STM32H7xx_HAL_Driver/Src/stm32h7xx_hal_tim_ex.c ****   TIM_CHANNEL_N_STATE_SET(htim, TIM_CHANNEL_1, HAL_TIM_CHANNEL_STATE_READY);
 4861              		.loc 1 1590 3
 4862 00a4 7B68     		ldr	r3, [r7, #4]
 4863 00a6 0122     		movs	r2, #1
 4864 00a8 83F84420 		strb	r2, [r3, #68]
1591:./Libraries/STM32H7xx_HAL_Driver/Src/stm32h7xx_hal_tim_ex.c ****   TIM_CHANNEL_N_STATE_SET(htim, TIM_CHANNEL_2, HAL_TIM_CHANNEL_STATE_READY);
 4865              		.loc 1 1591 3
ARM GAS  /tmp/ccxx2olO.s 			page 116


 4866 00ac 7B68     		ldr	r3, [r7, #4]
 4867 00ae 0122     		movs	r2, #1
 4868 00b0 83F84520 		strb	r2, [r3, #69]
1592:./Libraries/STM32H7xx_HAL_Driver/Src/stm32h7xx_hal_tim_ex.c **** 
1593:./Libraries/STM32H7xx_HAL_Driver/Src/stm32h7xx_hal_tim_ex.c ****   /* Return function status */
1594:./Libraries/STM32H7xx_HAL_Driver/Src/stm32h7xx_hal_tim_ex.c ****   return HAL_OK;
 4869              		.loc 1 1594 10
 4870 00b4 0023     		movs	r3, #0
1595:./Libraries/STM32H7xx_HAL_Driver/Src/stm32h7xx_hal_tim_ex.c **** }
 4871              		.loc 1 1595 1
 4872 00b6 1846     		mov	r0, r3
 4873 00b8 1037     		adds	r7, r7, #16
 4874              	.LCFI120:
 4875              		.cfi_def_cfa_offset 8
 4876 00ba BD46     		mov	sp, r7
 4877              	.LCFI121:
 4878              		.cfi_def_cfa_register 13
 4879              		@ sp needed
 4880 00bc 80BD     		pop	{r7, pc}
 4881              		.cfi_endproc
 4882              	.LFE354:
 4884              		.section	.text.HAL_TIMEx_OnePulseN_Start_IT,"ax",%progbits
 4885              		.align	1
 4886              		.global	HAL_TIMEx_OnePulseN_Start_IT
 4887              		.syntax unified
 4888              		.thumb
 4889              		.thumb_func
 4890              		.fpu fpv5-d16
 4892              	HAL_TIMEx_OnePulseN_Start_IT:
 4893              	.LFB355:
1596:./Libraries/STM32H7xx_HAL_Driver/Src/stm32h7xx_hal_tim_ex.c **** 
1597:./Libraries/STM32H7xx_HAL_Driver/Src/stm32h7xx_hal_tim_ex.c **** /**
1598:./Libraries/STM32H7xx_HAL_Driver/Src/stm32h7xx_hal_tim_ex.c ****   * @brief  Starts the TIM One Pulse signal generation in interrupt mode on the
1599:./Libraries/STM32H7xx_HAL_Driver/Src/stm32h7xx_hal_tim_ex.c ****   *         complementary channel.
1600:./Libraries/STM32H7xx_HAL_Driver/Src/stm32h7xx_hal_tim_ex.c ****   * @note OutputChannel must match the pulse output channel chosen when calling 
1601:./Libraries/STM32H7xx_HAL_Driver/Src/stm32h7xx_hal_tim_ex.c ****   *       @ref HAL_TIM_OnePulse_ConfigChannel(). 
1602:./Libraries/STM32H7xx_HAL_Driver/Src/stm32h7xx_hal_tim_ex.c ****   * @param  htim TIM One Pulse handle
1603:./Libraries/STM32H7xx_HAL_Driver/Src/stm32h7xx_hal_tim_ex.c ****   * @param  OutputChannel pulse output channel to enable
1604:./Libraries/STM32H7xx_HAL_Driver/Src/stm32h7xx_hal_tim_ex.c ****   *          This parameter can be one of the following values:
1605:./Libraries/STM32H7xx_HAL_Driver/Src/stm32h7xx_hal_tim_ex.c ****   *            @arg TIM_CHANNEL_1: TIM Channel 1 selected
1606:./Libraries/STM32H7xx_HAL_Driver/Src/stm32h7xx_hal_tim_ex.c ****   *            @arg TIM_CHANNEL_2: TIM Channel 2 selected
1607:./Libraries/STM32H7xx_HAL_Driver/Src/stm32h7xx_hal_tim_ex.c ****   * @retval HAL status
1608:./Libraries/STM32H7xx_HAL_Driver/Src/stm32h7xx_hal_tim_ex.c ****   */
1609:./Libraries/STM32H7xx_HAL_Driver/Src/stm32h7xx_hal_tim_ex.c **** HAL_StatusTypeDef HAL_TIMEx_OnePulseN_Start_IT(TIM_HandleTypeDef *htim, uint32_t OutputChannel)
1610:./Libraries/STM32H7xx_HAL_Driver/Src/stm32h7xx_hal_tim_ex.c **** {
 4894              		.loc 1 1610 1
 4895              		.cfi_startproc
 4896              		@ args = 0, pretend = 0, frame = 16
 4897              		@ frame_needed = 1, uses_anonymous_args = 0
 4898 0000 80B5     		push	{r7, lr}
 4899              	.LCFI122:
 4900              		.cfi_def_cfa_offset 8
 4901              		.cfi_offset 7, -8
 4902              		.cfi_offset 14, -4
 4903 0002 84B0     		sub	sp, sp, #16
 4904              	.LCFI123:
 4905              		.cfi_def_cfa_offset 24
ARM GAS  /tmp/ccxx2olO.s 			page 117


 4906 0004 00AF     		add	r7, sp, #0
 4907              	.LCFI124:
 4908              		.cfi_def_cfa_register 7
 4909 0006 7860     		str	r0, [r7, #4]
 4910 0008 3960     		str	r1, [r7]
1611:./Libraries/STM32H7xx_HAL_Driver/Src/stm32h7xx_hal_tim_ex.c ****   uint32_t input_channel = (OutputChannel == TIM_CHANNEL_1) ? TIM_CHANNEL_2 : TIM_CHANNEL_1;
 4911              		.loc 1 1611 77
 4912 000a 3B68     		ldr	r3, [r7]
 4913 000c 002B     		cmp	r3, #0
 4914 000e 01D1     		bne	.L337
 4915              		.loc 1 1611 77 is_stmt 0 discriminator 1
 4916 0010 0423     		movs	r3, #4
 4917 0012 00E0     		b	.L338
 4918              	.L337:
 4919              		.loc 1 1611 77 discriminator 2
 4920 0014 0023     		movs	r3, #0
 4921              	.L338:
 4922              		.loc 1 1611 12 is_stmt 1 discriminator 4
 4923 0016 FB60     		str	r3, [r7, #12]
1612:./Libraries/STM32H7xx_HAL_Driver/Src/stm32h7xx_hal_tim_ex.c ****   HAL_TIM_ChannelStateTypeDef channel_1_state = TIM_CHANNEL_STATE_GET(htim, TIM_CHANNEL_1);
 4924              		.loc 1 1612 31 discriminator 4
 4925 0018 7B68     		ldr	r3, [r7, #4]
 4926 001a 93F83E30 		ldrb	r3, [r3, #62]
 4927 001e FB72     		strb	r3, [r7, #11]
1613:./Libraries/STM32H7xx_HAL_Driver/Src/stm32h7xx_hal_tim_ex.c ****   HAL_TIM_ChannelStateTypeDef channel_2_state = TIM_CHANNEL_STATE_GET(htim, TIM_CHANNEL_2);
 4928              		.loc 1 1613 31 discriminator 4
 4929 0020 7B68     		ldr	r3, [r7, #4]
 4930 0022 93F83F30 		ldrb	r3, [r3, #63]
 4931 0026 BB72     		strb	r3, [r7, #10]
1614:./Libraries/STM32H7xx_HAL_Driver/Src/stm32h7xx_hal_tim_ex.c ****   HAL_TIM_ChannelStateTypeDef complementary_channel_1_state = TIM_CHANNEL_N_STATE_GET(htim, TIM_CHA
 4932              		.loc 1 1614 31 discriminator 4
 4933 0028 7B68     		ldr	r3, [r7, #4]
 4934 002a 93F84430 		ldrb	r3, [r3, #68]
 4935 002e 7B72     		strb	r3, [r7, #9]
1615:./Libraries/STM32H7xx_HAL_Driver/Src/stm32h7xx_hal_tim_ex.c ****   HAL_TIM_ChannelStateTypeDef complementary_channel_2_state = TIM_CHANNEL_N_STATE_GET(htim, TIM_CHA
 4936              		.loc 1 1615 31 discriminator 4
 4937 0030 7B68     		ldr	r3, [r7, #4]
 4938 0032 93F84530 		ldrb	r3, [r3, #69]
 4939 0036 3B72     		strb	r3, [r7, #8]
1616:./Libraries/STM32H7xx_HAL_Driver/Src/stm32h7xx_hal_tim_ex.c **** 
1617:./Libraries/STM32H7xx_HAL_Driver/Src/stm32h7xx_hal_tim_ex.c ****   /* Check the parameters */
1618:./Libraries/STM32H7xx_HAL_Driver/Src/stm32h7xx_hal_tim_ex.c ****   assert_param(IS_TIM_CCXN_INSTANCE(htim->Instance, OutputChannel));
1619:./Libraries/STM32H7xx_HAL_Driver/Src/stm32h7xx_hal_tim_ex.c **** 
1620:./Libraries/STM32H7xx_HAL_Driver/Src/stm32h7xx_hal_tim_ex.c ****   /* Check the TIM channels state */
1621:./Libraries/STM32H7xx_HAL_Driver/Src/stm32h7xx_hal_tim_ex.c ****    if ((channel_1_state != HAL_TIM_CHANNEL_STATE_READY)
 4940              		.loc 1 1621 7 discriminator 4
 4941 0038 FB7A     		ldrb	r3, [r7, #11]	@ zero_extendqisi2
 4942 003a 012B     		cmp	r3, #1
 4943 003c 08D1     		bne	.L339
1622:./Libraries/STM32H7xx_HAL_Driver/Src/stm32h7xx_hal_tim_ex.c ****       || (channel_2_state != HAL_TIM_CHANNEL_STATE_READY)
 4944              		.loc 1 1622 7
 4945 003e BB7A     		ldrb	r3, [r7, #10]	@ zero_extendqisi2
 4946 0040 012B     		cmp	r3, #1
 4947 0042 05D1     		bne	.L339
1623:./Libraries/STM32H7xx_HAL_Driver/Src/stm32h7xx_hal_tim_ex.c ****       || (complementary_channel_1_state != HAL_TIM_CHANNEL_STATE_READY)
 4948              		.loc 1 1623 7
 4949 0044 7B7A     		ldrb	r3, [r7, #9]	@ zero_extendqisi2
ARM GAS  /tmp/ccxx2olO.s 			page 118


 4950 0046 012B     		cmp	r3, #1
 4951 0048 02D1     		bne	.L339
1624:./Libraries/STM32H7xx_HAL_Driver/Src/stm32h7xx_hal_tim_ex.c ****       || (complementary_channel_2_state != HAL_TIM_CHANNEL_STATE_READY))
 4952              		.loc 1 1624 7
 4953 004a 3B7A     		ldrb	r3, [r7, #8]	@ zero_extendqisi2
 4954 004c 012B     		cmp	r3, #1
 4955 004e 01D0     		beq	.L340
 4956              	.L339:
1625:./Libraries/STM32H7xx_HAL_Driver/Src/stm32h7xx_hal_tim_ex.c ****   {
1626:./Libraries/STM32H7xx_HAL_Driver/Src/stm32h7xx_hal_tim_ex.c ****     return HAL_ERROR;
 4957              		.loc 1 1626 12
 4958 0050 0123     		movs	r3, #1
 4959 0052 36E0     		b	.L341
 4960              	.L340:
1627:./Libraries/STM32H7xx_HAL_Driver/Src/stm32h7xx_hal_tim_ex.c ****   }
1628:./Libraries/STM32H7xx_HAL_Driver/Src/stm32h7xx_hal_tim_ex.c **** 
1629:./Libraries/STM32H7xx_HAL_Driver/Src/stm32h7xx_hal_tim_ex.c ****   /* Set the TIM channels state */
1630:./Libraries/STM32H7xx_HAL_Driver/Src/stm32h7xx_hal_tim_ex.c ****   TIM_CHANNEL_STATE_SET(htim, TIM_CHANNEL_1, HAL_TIM_CHANNEL_STATE_BUSY);
 4961              		.loc 1 1630 3
 4962 0054 7B68     		ldr	r3, [r7, #4]
 4963 0056 0222     		movs	r2, #2
 4964 0058 83F83E20 		strb	r2, [r3, #62]
1631:./Libraries/STM32H7xx_HAL_Driver/Src/stm32h7xx_hal_tim_ex.c ****   TIM_CHANNEL_STATE_SET(htim, TIM_CHANNEL_2, HAL_TIM_CHANNEL_STATE_BUSY);
 4965              		.loc 1 1631 3
 4966 005c 7B68     		ldr	r3, [r7, #4]
 4967 005e 0222     		movs	r2, #2
 4968 0060 83F83F20 		strb	r2, [r3, #63]
1632:./Libraries/STM32H7xx_HAL_Driver/Src/stm32h7xx_hal_tim_ex.c ****   TIM_CHANNEL_N_STATE_SET(htim, TIM_CHANNEL_1, HAL_TIM_CHANNEL_STATE_BUSY);
 4969              		.loc 1 1632 3
 4970 0064 7B68     		ldr	r3, [r7, #4]
 4971 0066 0222     		movs	r2, #2
 4972 0068 83F84420 		strb	r2, [r3, #68]
1633:./Libraries/STM32H7xx_HAL_Driver/Src/stm32h7xx_hal_tim_ex.c ****   TIM_CHANNEL_N_STATE_SET(htim, TIM_CHANNEL_2, HAL_TIM_CHANNEL_STATE_BUSY);
 4973              		.loc 1 1633 3
 4974 006c 7B68     		ldr	r3, [r7, #4]
 4975 006e 0222     		movs	r2, #2
 4976 0070 83F84520 		strb	r2, [r3, #69]
1634:./Libraries/STM32H7xx_HAL_Driver/Src/stm32h7xx_hal_tim_ex.c **** 
1635:./Libraries/STM32H7xx_HAL_Driver/Src/stm32h7xx_hal_tim_ex.c ****   /* Enable the TIM Capture/Compare 1 interrupt */
1636:./Libraries/STM32H7xx_HAL_Driver/Src/stm32h7xx_hal_tim_ex.c ****   __HAL_TIM_ENABLE_IT(htim, TIM_IT_CC1);
 4977              		.loc 1 1636 3
 4978 0074 7B68     		ldr	r3, [r7, #4]
 4979 0076 1B68     		ldr	r3, [r3]
 4980 0078 DA68     		ldr	r2, [r3, #12]
 4981 007a 7B68     		ldr	r3, [r7, #4]
 4982 007c 1B68     		ldr	r3, [r3]
 4983 007e 42F00202 		orr	r2, r2, #2
 4984 0082 DA60     		str	r2, [r3, #12]
1637:./Libraries/STM32H7xx_HAL_Driver/Src/stm32h7xx_hal_tim_ex.c **** 
1638:./Libraries/STM32H7xx_HAL_Driver/Src/stm32h7xx_hal_tim_ex.c ****   /* Enable the TIM Capture/Compare 2 interrupt */
1639:./Libraries/STM32H7xx_HAL_Driver/Src/stm32h7xx_hal_tim_ex.c ****   __HAL_TIM_ENABLE_IT(htim, TIM_IT_CC2);
 4985              		.loc 1 1639 3
 4986 0084 7B68     		ldr	r3, [r7, #4]
 4987 0086 1B68     		ldr	r3, [r3]
 4988 0088 DA68     		ldr	r2, [r3, #12]
 4989 008a 7B68     		ldr	r3, [r7, #4]
 4990 008c 1B68     		ldr	r3, [r3]
ARM GAS  /tmp/ccxx2olO.s 			page 119


 4991 008e 42F00402 		orr	r2, r2, #4
 4992 0092 DA60     		str	r2, [r3, #12]
1640:./Libraries/STM32H7xx_HAL_Driver/Src/stm32h7xx_hal_tim_ex.c **** 
1641:./Libraries/STM32H7xx_HAL_Driver/Src/stm32h7xx_hal_tim_ex.c ****   /* Enable the complementary One Pulse output channel and the Input Capture channel */
1642:./Libraries/STM32H7xx_HAL_Driver/Src/stm32h7xx_hal_tim_ex.c ****   TIM_CCxNChannelCmd(htim->Instance, OutputChannel, TIM_CCxN_ENABLE);
 4993              		.loc 1 1642 3
 4994 0094 7B68     		ldr	r3, [r7, #4]
 4995 0096 1B68     		ldr	r3, [r3]
 4996 0098 0422     		movs	r2, #4
 4997 009a 3968     		ldr	r1, [r7]
 4998 009c 1846     		mov	r0, r3
 4999 009e FFF7FEFF 		bl	TIM_CCxNChannelCmd
1643:./Libraries/STM32H7xx_HAL_Driver/Src/stm32h7xx_hal_tim_ex.c ****   TIM_CCxChannelCmd(htim->Instance, input_channel, TIM_CCx_ENABLE);
 5000              		.loc 1 1643 3
 5001 00a2 7B68     		ldr	r3, [r7, #4]
 5002 00a4 1B68     		ldr	r3, [r3]
 5003 00a6 0122     		movs	r2, #1
 5004 00a8 F968     		ldr	r1, [r7, #12]
 5005 00aa 1846     		mov	r0, r3
 5006 00ac FFF7FEFF 		bl	TIM_CCxChannelCmd
1644:./Libraries/STM32H7xx_HAL_Driver/Src/stm32h7xx_hal_tim_ex.c **** 
1645:./Libraries/STM32H7xx_HAL_Driver/Src/stm32h7xx_hal_tim_ex.c ****   /* Enable the Main Output */
1646:./Libraries/STM32H7xx_HAL_Driver/Src/stm32h7xx_hal_tim_ex.c ****   __HAL_TIM_MOE_ENABLE(htim);
 5007              		.loc 1 1646 3
 5008 00b0 7B68     		ldr	r3, [r7, #4]
 5009 00b2 1B68     		ldr	r3, [r3]
 5010 00b4 5A6C     		ldr	r2, [r3, #68]
 5011 00b6 7B68     		ldr	r3, [r7, #4]
 5012 00b8 1B68     		ldr	r3, [r3]
 5013 00ba 42F40042 		orr	r2, r2, #32768
 5014 00be 5A64     		str	r2, [r3, #68]
1647:./Libraries/STM32H7xx_HAL_Driver/Src/stm32h7xx_hal_tim_ex.c **** 
1648:./Libraries/STM32H7xx_HAL_Driver/Src/stm32h7xx_hal_tim_ex.c ****   /* Return function status */
1649:./Libraries/STM32H7xx_HAL_Driver/Src/stm32h7xx_hal_tim_ex.c ****   return HAL_OK;
 5015              		.loc 1 1649 10
 5016 00c0 0023     		movs	r3, #0
 5017              	.L341:
1650:./Libraries/STM32H7xx_HAL_Driver/Src/stm32h7xx_hal_tim_ex.c **** }
 5018              		.loc 1 1650 1
 5019 00c2 1846     		mov	r0, r3
 5020 00c4 1037     		adds	r7, r7, #16
 5021              	.LCFI125:
 5022              		.cfi_def_cfa_offset 8
 5023 00c6 BD46     		mov	sp, r7
 5024              	.LCFI126:
 5025              		.cfi_def_cfa_register 13
 5026              		@ sp needed
 5027 00c8 80BD     		pop	{r7, pc}
 5028              		.cfi_endproc
 5029              	.LFE355:
 5031              		.section	.text.HAL_TIMEx_OnePulseN_Stop_IT,"ax",%progbits
 5032              		.align	1
 5033              		.global	HAL_TIMEx_OnePulseN_Stop_IT
 5034              		.syntax unified
 5035              		.thumb
 5036              		.thumb_func
 5037              		.fpu fpv5-d16
ARM GAS  /tmp/ccxx2olO.s 			page 120


 5039              	HAL_TIMEx_OnePulseN_Stop_IT:
 5040              	.LFB356:
1651:./Libraries/STM32H7xx_HAL_Driver/Src/stm32h7xx_hal_tim_ex.c **** 
1652:./Libraries/STM32H7xx_HAL_Driver/Src/stm32h7xx_hal_tim_ex.c **** /**
1653:./Libraries/STM32H7xx_HAL_Driver/Src/stm32h7xx_hal_tim_ex.c ****   * @brief  Stops the TIM One Pulse signal generation in interrupt mode on the
1654:./Libraries/STM32H7xx_HAL_Driver/Src/stm32h7xx_hal_tim_ex.c ****   *         complementary channel.
1655:./Libraries/STM32H7xx_HAL_Driver/Src/stm32h7xx_hal_tim_ex.c ****   * @note OutputChannel must match the pulse output channel chosen when calling 
1656:./Libraries/STM32H7xx_HAL_Driver/Src/stm32h7xx_hal_tim_ex.c ****   *       @ref HAL_TIM_OnePulse_ConfigChannel(). 
1657:./Libraries/STM32H7xx_HAL_Driver/Src/stm32h7xx_hal_tim_ex.c ****   * @param  htim TIM One Pulse handle
1658:./Libraries/STM32H7xx_HAL_Driver/Src/stm32h7xx_hal_tim_ex.c ****   * @param  OutputChannel pulse output channel to disable
1659:./Libraries/STM32H7xx_HAL_Driver/Src/stm32h7xx_hal_tim_ex.c ****   *          This parameter can be one of the following values:
1660:./Libraries/STM32H7xx_HAL_Driver/Src/stm32h7xx_hal_tim_ex.c ****   *            @arg TIM_CHANNEL_1: TIM Channel 1 selected
1661:./Libraries/STM32H7xx_HAL_Driver/Src/stm32h7xx_hal_tim_ex.c ****   *            @arg TIM_CHANNEL_2: TIM Channel 2 selected
1662:./Libraries/STM32H7xx_HAL_Driver/Src/stm32h7xx_hal_tim_ex.c ****   * @retval HAL status
1663:./Libraries/STM32H7xx_HAL_Driver/Src/stm32h7xx_hal_tim_ex.c ****   */
1664:./Libraries/STM32H7xx_HAL_Driver/Src/stm32h7xx_hal_tim_ex.c **** HAL_StatusTypeDef HAL_TIMEx_OnePulseN_Stop_IT(TIM_HandleTypeDef *htim, uint32_t OutputChannel)
1665:./Libraries/STM32H7xx_HAL_Driver/Src/stm32h7xx_hal_tim_ex.c **** {
 5041              		.loc 1 1665 1
 5042              		.cfi_startproc
 5043              		@ args = 0, pretend = 0, frame = 16
 5044              		@ frame_needed = 1, uses_anonymous_args = 0
 5045 0000 80B5     		push	{r7, lr}
 5046              	.LCFI127:
 5047              		.cfi_def_cfa_offset 8
 5048              		.cfi_offset 7, -8
 5049              		.cfi_offset 14, -4
 5050 0002 84B0     		sub	sp, sp, #16
 5051              	.LCFI128:
 5052              		.cfi_def_cfa_offset 24
 5053 0004 00AF     		add	r7, sp, #0
 5054              	.LCFI129:
 5055              		.cfi_def_cfa_register 7
 5056 0006 7860     		str	r0, [r7, #4]
 5057 0008 3960     		str	r1, [r7]
1666:./Libraries/STM32H7xx_HAL_Driver/Src/stm32h7xx_hal_tim_ex.c ****   uint32_t input_channel = (OutputChannel == TIM_CHANNEL_1) ? TIM_CHANNEL_2 : TIM_CHANNEL_1;
 5058              		.loc 1 1666 77
 5059 000a 3B68     		ldr	r3, [r7]
 5060 000c 002B     		cmp	r3, #0
 5061 000e 01D1     		bne	.L343
 5062              		.loc 1 1666 77 is_stmt 0 discriminator 1
 5063 0010 0423     		movs	r3, #4
 5064 0012 00E0     		b	.L344
 5065              	.L343:
 5066              		.loc 1 1666 77 discriminator 2
 5067 0014 0023     		movs	r3, #0
 5068              	.L344:
 5069              		.loc 1 1666 12 is_stmt 1 discriminator 4
 5070 0016 FB60     		str	r3, [r7, #12]
1667:./Libraries/STM32H7xx_HAL_Driver/Src/stm32h7xx_hal_tim_ex.c **** 
1668:./Libraries/STM32H7xx_HAL_Driver/Src/stm32h7xx_hal_tim_ex.c ****   /* Check the parameters */
1669:./Libraries/STM32H7xx_HAL_Driver/Src/stm32h7xx_hal_tim_ex.c ****   assert_param(IS_TIM_CCXN_INSTANCE(htim->Instance, OutputChannel));
1670:./Libraries/STM32H7xx_HAL_Driver/Src/stm32h7xx_hal_tim_ex.c **** 
1671:./Libraries/STM32H7xx_HAL_Driver/Src/stm32h7xx_hal_tim_ex.c ****   /* Disable the TIM Capture/Compare 1 interrupt */
1672:./Libraries/STM32H7xx_HAL_Driver/Src/stm32h7xx_hal_tim_ex.c ****   __HAL_TIM_DISABLE_IT(htim, TIM_IT_CC1);
 5071              		.loc 1 1672 3 discriminator 4
 5072 0018 7B68     		ldr	r3, [r7, #4]
 5073 001a 1B68     		ldr	r3, [r3]
ARM GAS  /tmp/ccxx2olO.s 			page 121


 5074 001c DA68     		ldr	r2, [r3, #12]
 5075 001e 7B68     		ldr	r3, [r7, #4]
 5076 0020 1B68     		ldr	r3, [r3]
 5077 0022 22F00202 		bic	r2, r2, #2
 5078 0026 DA60     		str	r2, [r3, #12]
1673:./Libraries/STM32H7xx_HAL_Driver/Src/stm32h7xx_hal_tim_ex.c **** 
1674:./Libraries/STM32H7xx_HAL_Driver/Src/stm32h7xx_hal_tim_ex.c ****   /* Disable the TIM Capture/Compare 2 interrupt */
1675:./Libraries/STM32H7xx_HAL_Driver/Src/stm32h7xx_hal_tim_ex.c ****   __HAL_TIM_DISABLE_IT(htim, TIM_IT_CC2);
 5079              		.loc 1 1675 3 discriminator 4
 5080 0028 7B68     		ldr	r3, [r7, #4]
 5081 002a 1B68     		ldr	r3, [r3]
 5082 002c DA68     		ldr	r2, [r3, #12]
 5083 002e 7B68     		ldr	r3, [r7, #4]
 5084 0030 1B68     		ldr	r3, [r3]
 5085 0032 22F00402 		bic	r2, r2, #4
 5086 0036 DA60     		str	r2, [r3, #12]
1676:./Libraries/STM32H7xx_HAL_Driver/Src/stm32h7xx_hal_tim_ex.c **** 
1677:./Libraries/STM32H7xx_HAL_Driver/Src/stm32h7xx_hal_tim_ex.c ****   /* Disable the complementary One Pulse output channel and the Input Capture channel */
1678:./Libraries/STM32H7xx_HAL_Driver/Src/stm32h7xx_hal_tim_ex.c ****   TIM_CCxNChannelCmd(htim->Instance, OutputChannel, TIM_CCxN_DISABLE);
 5087              		.loc 1 1678 3 discriminator 4
 5088 0038 7B68     		ldr	r3, [r7, #4]
 5089 003a 1B68     		ldr	r3, [r3]
 5090 003c 0022     		movs	r2, #0
 5091 003e 3968     		ldr	r1, [r7]
 5092 0040 1846     		mov	r0, r3
 5093 0042 FFF7FEFF 		bl	TIM_CCxNChannelCmd
1679:./Libraries/STM32H7xx_HAL_Driver/Src/stm32h7xx_hal_tim_ex.c ****   TIM_CCxChannelCmd(htim->Instance, input_channel, TIM_CCx_DISABLE);
 5094              		.loc 1 1679 3 discriminator 4
 5095 0046 7B68     		ldr	r3, [r7, #4]
 5096 0048 1B68     		ldr	r3, [r3]
 5097 004a 0022     		movs	r2, #0
 5098 004c F968     		ldr	r1, [r7, #12]
 5099 004e 1846     		mov	r0, r3
 5100 0050 FFF7FEFF 		bl	TIM_CCxChannelCmd
1680:./Libraries/STM32H7xx_HAL_Driver/Src/stm32h7xx_hal_tim_ex.c **** 
1681:./Libraries/STM32H7xx_HAL_Driver/Src/stm32h7xx_hal_tim_ex.c ****   /* Disable the Main Output */
1682:./Libraries/STM32H7xx_HAL_Driver/Src/stm32h7xx_hal_tim_ex.c ****   __HAL_TIM_MOE_DISABLE(htim);
 5101              		.loc 1 1682 3 discriminator 4
 5102 0054 7B68     		ldr	r3, [r7, #4]
 5103 0056 1B68     		ldr	r3, [r3]
 5104 0058 1A6A     		ldr	r2, [r3, #32]
 5105 005a 41F21113 		movw	r3, #4369
 5106 005e 1340     		ands	r3, r3, r2
 5107 0060 002B     		cmp	r3, #0
 5108 0062 0FD1     		bne	.L345
 5109              		.loc 1 1682 3 is_stmt 0 discriminator 1
 5110 0064 7B68     		ldr	r3, [r7, #4]
 5111 0066 1B68     		ldr	r3, [r3]
 5112 0068 1A6A     		ldr	r2, [r3, #32]
 5113 006a 40F24443 		movw	r3, #1092
 5114 006e 1340     		ands	r3, r3, r2
 5115 0070 002B     		cmp	r3, #0
 5116 0072 07D1     		bne	.L345
 5117              		.loc 1 1682 3 discriminator 2
 5118 0074 7B68     		ldr	r3, [r7, #4]
 5119 0076 1B68     		ldr	r3, [r3]
 5120 0078 5A6C     		ldr	r2, [r3, #68]
ARM GAS  /tmp/ccxx2olO.s 			page 122


 5121 007a 7B68     		ldr	r3, [r7, #4]
 5122 007c 1B68     		ldr	r3, [r3]
 5123 007e 22F40042 		bic	r2, r2, #32768
 5124 0082 5A64     		str	r2, [r3, #68]
 5125              	.L345:
1683:./Libraries/STM32H7xx_HAL_Driver/Src/stm32h7xx_hal_tim_ex.c **** 
1684:./Libraries/STM32H7xx_HAL_Driver/Src/stm32h7xx_hal_tim_ex.c ****   /* Disable the Peripheral */
1685:./Libraries/STM32H7xx_HAL_Driver/Src/stm32h7xx_hal_tim_ex.c ****   __HAL_TIM_DISABLE(htim);
 5126              		.loc 1 1685 3 is_stmt 1
 5127 0084 7B68     		ldr	r3, [r7, #4]
 5128 0086 1B68     		ldr	r3, [r3]
 5129 0088 1A6A     		ldr	r2, [r3, #32]
 5130 008a 41F21113 		movw	r3, #4369
 5131 008e 1340     		ands	r3, r3, r2
 5132 0090 002B     		cmp	r3, #0
 5133 0092 0FD1     		bne	.L346
 5134              		.loc 1 1685 3 is_stmt 0 discriminator 1
 5135 0094 7B68     		ldr	r3, [r7, #4]
 5136 0096 1B68     		ldr	r3, [r3]
 5137 0098 1A6A     		ldr	r2, [r3, #32]
 5138 009a 40F24443 		movw	r3, #1092
 5139 009e 1340     		ands	r3, r3, r2
 5140 00a0 002B     		cmp	r3, #0
 5141 00a2 07D1     		bne	.L346
 5142              		.loc 1 1685 3 discriminator 2
 5143 00a4 7B68     		ldr	r3, [r7, #4]
 5144 00a6 1B68     		ldr	r3, [r3]
 5145 00a8 1A68     		ldr	r2, [r3]
 5146 00aa 7B68     		ldr	r3, [r7, #4]
 5147 00ac 1B68     		ldr	r3, [r3]
 5148 00ae 22F00102 		bic	r2, r2, #1
 5149 00b2 1A60     		str	r2, [r3]
 5150              	.L346:
1686:./Libraries/STM32H7xx_HAL_Driver/Src/stm32h7xx_hal_tim_ex.c **** 
1687:./Libraries/STM32H7xx_HAL_Driver/Src/stm32h7xx_hal_tim_ex.c ****   /* Set the TIM  channels state */
1688:./Libraries/STM32H7xx_HAL_Driver/Src/stm32h7xx_hal_tim_ex.c ****   TIM_CHANNEL_STATE_SET(htim, TIM_CHANNEL_1, HAL_TIM_CHANNEL_STATE_READY);
 5151              		.loc 1 1688 3 is_stmt 1
 5152 00b4 7B68     		ldr	r3, [r7, #4]
 5153 00b6 0122     		movs	r2, #1
 5154 00b8 83F83E20 		strb	r2, [r3, #62]
1689:./Libraries/STM32H7xx_HAL_Driver/Src/stm32h7xx_hal_tim_ex.c ****   TIM_CHANNEL_STATE_SET(htim, TIM_CHANNEL_2, HAL_TIM_CHANNEL_STATE_READY);
 5155              		.loc 1 1689 3
 5156 00bc 7B68     		ldr	r3, [r7, #4]
 5157 00be 0122     		movs	r2, #1
 5158 00c0 83F83F20 		strb	r2, [r3, #63]
1690:./Libraries/STM32H7xx_HAL_Driver/Src/stm32h7xx_hal_tim_ex.c ****   TIM_CHANNEL_N_STATE_SET(htim, TIM_CHANNEL_1, HAL_TIM_CHANNEL_STATE_READY);
 5159              		.loc 1 1690 3
 5160 00c4 7B68     		ldr	r3, [r7, #4]
 5161 00c6 0122     		movs	r2, #1
 5162 00c8 83F84420 		strb	r2, [r3, #68]
1691:./Libraries/STM32H7xx_HAL_Driver/Src/stm32h7xx_hal_tim_ex.c ****   TIM_CHANNEL_N_STATE_SET(htim, TIM_CHANNEL_2, HAL_TIM_CHANNEL_STATE_READY);
 5163              		.loc 1 1691 3
 5164 00cc 7B68     		ldr	r3, [r7, #4]
 5165 00ce 0122     		movs	r2, #1
 5166 00d0 83F84520 		strb	r2, [r3, #69]
1692:./Libraries/STM32H7xx_HAL_Driver/Src/stm32h7xx_hal_tim_ex.c **** 
1693:./Libraries/STM32H7xx_HAL_Driver/Src/stm32h7xx_hal_tim_ex.c ****   /* Return function status */
ARM GAS  /tmp/ccxx2olO.s 			page 123


1694:./Libraries/STM32H7xx_HAL_Driver/Src/stm32h7xx_hal_tim_ex.c ****   return HAL_OK;
 5167              		.loc 1 1694 10
 5168 00d4 0023     		movs	r3, #0
1695:./Libraries/STM32H7xx_HAL_Driver/Src/stm32h7xx_hal_tim_ex.c **** }
 5169              		.loc 1 1695 1
 5170 00d6 1846     		mov	r0, r3
 5171 00d8 1037     		adds	r7, r7, #16
 5172              	.LCFI130:
 5173              		.cfi_def_cfa_offset 8
 5174 00da BD46     		mov	sp, r7
 5175              	.LCFI131:
 5176              		.cfi_def_cfa_register 13
 5177              		@ sp needed
 5178 00dc 80BD     		pop	{r7, pc}
 5179              		.cfi_endproc
 5180              	.LFE356:
 5182              		.section	.text.HAL_TIMEx_ConfigCommutEvent,"ax",%progbits
 5183              		.align	1
 5184              		.global	HAL_TIMEx_ConfigCommutEvent
 5185              		.syntax unified
 5186              		.thumb
 5187              		.thumb_func
 5188              		.fpu fpv5-d16
 5190              	HAL_TIMEx_ConfigCommutEvent:
 5191              	.LFB357:
1696:./Libraries/STM32H7xx_HAL_Driver/Src/stm32h7xx_hal_tim_ex.c **** 
1697:./Libraries/STM32H7xx_HAL_Driver/Src/stm32h7xx_hal_tim_ex.c **** /**
1698:./Libraries/STM32H7xx_HAL_Driver/Src/stm32h7xx_hal_tim_ex.c ****   * @}
1699:./Libraries/STM32H7xx_HAL_Driver/Src/stm32h7xx_hal_tim_ex.c ****   */
1700:./Libraries/STM32H7xx_HAL_Driver/Src/stm32h7xx_hal_tim_ex.c **** 
1701:./Libraries/STM32H7xx_HAL_Driver/Src/stm32h7xx_hal_tim_ex.c **** /** @defgroup TIMEx_Exported_Functions_Group5 Extended Peripheral Control functions
1702:./Libraries/STM32H7xx_HAL_Driver/Src/stm32h7xx_hal_tim_ex.c ****   * @brief    Peripheral Control functions
1703:./Libraries/STM32H7xx_HAL_Driver/Src/stm32h7xx_hal_tim_ex.c ****   *
1704:./Libraries/STM32H7xx_HAL_Driver/Src/stm32h7xx_hal_tim_ex.c **** @verbatim
1705:./Libraries/STM32H7xx_HAL_Driver/Src/stm32h7xx_hal_tim_ex.c ****   ==============================================================================
1706:./Libraries/STM32H7xx_HAL_Driver/Src/stm32h7xx_hal_tim_ex.c ****                     ##### Peripheral Control functions #####
1707:./Libraries/STM32H7xx_HAL_Driver/Src/stm32h7xx_hal_tim_ex.c ****   ==============================================================================
1708:./Libraries/STM32H7xx_HAL_Driver/Src/stm32h7xx_hal_tim_ex.c ****   [..]
1709:./Libraries/STM32H7xx_HAL_Driver/Src/stm32h7xx_hal_tim_ex.c ****     This section provides functions allowing to:
1710:./Libraries/STM32H7xx_HAL_Driver/Src/stm32h7xx_hal_tim_ex.c ****       (+) Configure the commutation event in case of use of the Hall sensor interface.
1711:./Libraries/STM32H7xx_HAL_Driver/Src/stm32h7xx_hal_tim_ex.c ****       (+) Configure Output channels for OC and PWM mode.
1712:./Libraries/STM32H7xx_HAL_Driver/Src/stm32h7xx_hal_tim_ex.c **** 
1713:./Libraries/STM32H7xx_HAL_Driver/Src/stm32h7xx_hal_tim_ex.c ****       (+) Configure Complementary channels, break features and dead time.
1714:./Libraries/STM32H7xx_HAL_Driver/Src/stm32h7xx_hal_tim_ex.c ****       (+) Configure Master synchronization.
1715:./Libraries/STM32H7xx_HAL_Driver/Src/stm32h7xx_hal_tim_ex.c ****       (+) Configure timer remapping capabilities.
1716:./Libraries/STM32H7xx_HAL_Driver/Src/stm32h7xx_hal_tim_ex.c ****       (+) Select timer input source.
1717:./Libraries/STM32H7xx_HAL_Driver/Src/stm32h7xx_hal_tim_ex.c ****       (+) Enable or disable channel grouping.
1718:./Libraries/STM32H7xx_HAL_Driver/Src/stm32h7xx_hal_tim_ex.c **** 
1719:./Libraries/STM32H7xx_HAL_Driver/Src/stm32h7xx_hal_tim_ex.c **** @endverbatim
1720:./Libraries/STM32H7xx_HAL_Driver/Src/stm32h7xx_hal_tim_ex.c ****   * @{
1721:./Libraries/STM32H7xx_HAL_Driver/Src/stm32h7xx_hal_tim_ex.c ****   */
1722:./Libraries/STM32H7xx_HAL_Driver/Src/stm32h7xx_hal_tim_ex.c **** 
1723:./Libraries/STM32H7xx_HAL_Driver/Src/stm32h7xx_hal_tim_ex.c **** /**
1724:./Libraries/STM32H7xx_HAL_Driver/Src/stm32h7xx_hal_tim_ex.c ****   * @brief  Configure the TIM commutation event sequence.
1725:./Libraries/STM32H7xx_HAL_Driver/Src/stm32h7xx_hal_tim_ex.c ****   * @note  This function is mandatory to use the commutation event in order to
1726:./Libraries/STM32H7xx_HAL_Driver/Src/stm32h7xx_hal_tim_ex.c ****   *        update the configuration at each commutation detection on the TRGI input of the Timer,
1727:./Libraries/STM32H7xx_HAL_Driver/Src/stm32h7xx_hal_tim_ex.c ****   *        the typical use of this feature is with the use of another Timer(interface Timer)
ARM GAS  /tmp/ccxx2olO.s 			page 124


1728:./Libraries/STM32H7xx_HAL_Driver/Src/stm32h7xx_hal_tim_ex.c ****   *        configured in Hall sensor interface, this interface Timer will generate the
1729:./Libraries/STM32H7xx_HAL_Driver/Src/stm32h7xx_hal_tim_ex.c ****   *        commutation at its TRGO output (connected to Timer used in this function) each time
1730:./Libraries/STM32H7xx_HAL_Driver/Src/stm32h7xx_hal_tim_ex.c ****   *        the TI1 of the Interface Timer detect a commutation at its input TI1.
1731:./Libraries/STM32H7xx_HAL_Driver/Src/stm32h7xx_hal_tim_ex.c ****   * @param  htim TIM handle
1732:./Libraries/STM32H7xx_HAL_Driver/Src/stm32h7xx_hal_tim_ex.c ****   * @param  InputTrigger the Internal trigger corresponding to the Timer Interfacing with the Hall 
1733:./Libraries/STM32H7xx_HAL_Driver/Src/stm32h7xx_hal_tim_ex.c ****   *          This parameter can be one of the following values:
1734:./Libraries/STM32H7xx_HAL_Driver/Src/stm32h7xx_hal_tim_ex.c ****   *            @arg TIM_TS_ITR0: Internal trigger 0 selected
1735:./Libraries/STM32H7xx_HAL_Driver/Src/stm32h7xx_hal_tim_ex.c ****   *            @arg TIM_TS_ITR1: Internal trigger 1 selected
1736:./Libraries/STM32H7xx_HAL_Driver/Src/stm32h7xx_hal_tim_ex.c ****   *            @arg TIM_TS_ITR2: Internal trigger 2 selected
1737:./Libraries/STM32H7xx_HAL_Driver/Src/stm32h7xx_hal_tim_ex.c ****   *            @arg TIM_TS_ITR3: Internal trigger 3 selected
1738:./Libraries/STM32H7xx_HAL_Driver/Src/stm32h7xx_hal_tim_ex.c ****   *            @arg TIM_TS_ITR12: Internal trigger 12 selected (*)
1739:./Libraries/STM32H7xx_HAL_Driver/Src/stm32h7xx_hal_tim_ex.c ****   *            @arg TIM_TS_ITR13: Internal trigger 13 selected (*)
1740:./Libraries/STM32H7xx_HAL_Driver/Src/stm32h7xx_hal_tim_ex.c ****   *            @arg TIM_TS_NONE: No trigger is needed
1741:./Libraries/STM32H7xx_HAL_Driver/Src/stm32h7xx_hal_tim_ex.c ****   * @param  CommutationSource the Commutation Event source
1742:./Libraries/STM32H7xx_HAL_Driver/Src/stm32h7xx_hal_tim_ex.c ****   *          This parameter can be one of the following values:
1743:./Libraries/STM32H7xx_HAL_Driver/Src/stm32h7xx_hal_tim_ex.c ****   *            @arg TIM_COMMUTATION_TRGI: Commutation source is the TRGI of the Interface Timer
1744:./Libraries/STM32H7xx_HAL_Driver/Src/stm32h7xx_hal_tim_ex.c ****   *            @arg TIM_COMMUTATION_SOFTWARE:  Commutation source is set by software using the COMG
1745:./Libraries/STM32H7xx_HAL_Driver/Src/stm32h7xx_hal_tim_ex.c ****   * @retval HAL status
1746:./Libraries/STM32H7xx_HAL_Driver/Src/stm32h7xx_hal_tim_ex.c ****   */
1747:./Libraries/STM32H7xx_HAL_Driver/Src/stm32h7xx_hal_tim_ex.c **** HAL_StatusTypeDef HAL_TIMEx_ConfigCommutEvent(TIM_HandleTypeDef *htim, uint32_t  InputTrigger,
1748:./Libraries/STM32H7xx_HAL_Driver/Src/stm32h7xx_hal_tim_ex.c ****                                               uint32_t  CommutationSource)
1749:./Libraries/STM32H7xx_HAL_Driver/Src/stm32h7xx_hal_tim_ex.c **** {
 5192              		.loc 1 1749 1
 5193              		.cfi_startproc
 5194              		@ args = 0, pretend = 0, frame = 16
 5195              		@ frame_needed = 1, uses_anonymous_args = 0
 5196              		@ link register save eliminated.
 5197 0000 80B4     		push	{r7}
 5198              	.LCFI132:
 5199              		.cfi_def_cfa_offset 4
 5200              		.cfi_offset 7, -4
 5201 0002 85B0     		sub	sp, sp, #20
 5202              	.LCFI133:
 5203              		.cfi_def_cfa_offset 24
 5204 0004 00AF     		add	r7, sp, #0
 5205              	.LCFI134:
 5206              		.cfi_def_cfa_register 7
 5207 0006 F860     		str	r0, [r7, #12]
 5208 0008 B960     		str	r1, [r7, #8]
 5209 000a 7A60     		str	r2, [r7, #4]
1750:./Libraries/STM32H7xx_HAL_Driver/Src/stm32h7xx_hal_tim_ex.c ****   /* Check the parameters */
1751:./Libraries/STM32H7xx_HAL_Driver/Src/stm32h7xx_hal_tim_ex.c ****   assert_param(IS_TIM_COMMUTATION_EVENT_INSTANCE(htim->Instance));
1752:./Libraries/STM32H7xx_HAL_Driver/Src/stm32h7xx_hal_tim_ex.c ****   assert_param(IS_TIM_INTERNAL_TRIGGEREVENT_SELECTION(InputTrigger));
1753:./Libraries/STM32H7xx_HAL_Driver/Src/stm32h7xx_hal_tim_ex.c **** 
1754:./Libraries/STM32H7xx_HAL_Driver/Src/stm32h7xx_hal_tim_ex.c ****   __HAL_LOCK(htim);
 5210              		.loc 1 1754 3
 5211 000c FB68     		ldr	r3, [r7, #12]
 5212 000e 93F83C30 		ldrb	r3, [r3, #60]	@ zero_extendqisi2
 5213 0012 012B     		cmp	r3, #1
 5214 0014 01D1     		bne	.L349
 5215              		.loc 1 1754 3 is_stmt 0 discriminator 1
 5216 0016 0223     		movs	r3, #2
 5217 0018 54E0     		b	.L350
 5218              	.L349:
 5219              		.loc 1 1754 3 discriminator 2
 5220 001a FB68     		ldr	r3, [r7, #12]
 5221 001c 0122     		movs	r2, #1
ARM GAS  /tmp/ccxx2olO.s 			page 125


 5222 001e 83F83C20 		strb	r2, [r3, #60]
1755:./Libraries/STM32H7xx_HAL_Driver/Src/stm32h7xx_hal_tim_ex.c **** 
1756:./Libraries/STM32H7xx_HAL_Driver/Src/stm32h7xx_hal_tim_ex.c ****   if ((InputTrigger == TIM_TS_ITR0)  || (InputTrigger == TIM_TS_ITR1) ||
 5223              		.loc 1 1756 6 is_stmt 1 discriminator 2
 5224 0022 BB68     		ldr	r3, [r7, #8]
 5225 0024 002B     		cmp	r3, #0
 5226 0026 10D0     		beq	.L351
 5227              		.loc 1 1756 38 discriminator 1
 5228 0028 BB68     		ldr	r3, [r7, #8]
 5229 002a 102B     		cmp	r3, #16
 5230 002c 0DD0     		beq	.L351
 5231              		.loc 1 1756 71 discriminator 2
 5232 002e BB68     		ldr	r3, [r7, #8]
 5233 0030 202B     		cmp	r3, #32
 5234 0032 0AD0     		beq	.L351
1757:./Libraries/STM32H7xx_HAL_Driver/Src/stm32h7xx_hal_tim_ex.c ****       (InputTrigger == TIM_TS_ITR2)  || (InputTrigger == TIM_TS_ITR3) ||
 5235              		.loc 1 1757 38
 5236 0034 BB68     		ldr	r3, [r7, #8]
 5237 0036 302B     		cmp	r3, #48
 5238 0038 07D0     		beq	.L351
 5239              		.loc 1 1757 71 discriminator 1
 5240 003a BB68     		ldr	r3, [r7, #8]
 5241 003c B3F5001F 		cmp	r3, #2097152
 5242 0040 03D0     		beq	.L351
1758:./Libraries/STM32H7xx_HAL_Driver/Src/stm32h7xx_hal_tim_ex.c ****       (InputTrigger == TIM_TS_ITR12)  || (InputTrigger == TIM_TS_ITR13))
 5243              		.loc 1 1758 39
 5244 0042 BB68     		ldr	r3, [r7, #8]
 5245 0044 224A     		ldr	r2, .L353
 5246 0046 9342     		cmp	r3, r2
 5247 0048 0FD1     		bne	.L352
 5248              	.L351:
1759:./Libraries/STM32H7xx_HAL_Driver/Src/stm32h7xx_hal_tim_ex.c ****   {
1760:./Libraries/STM32H7xx_HAL_Driver/Src/stm32h7xx_hal_tim_ex.c ****     /* Select the Input trigger */
1761:./Libraries/STM32H7xx_HAL_Driver/Src/stm32h7xx_hal_tim_ex.c ****     htim->Instance->SMCR &= ~TIM_SMCR_TS;
 5249              		.loc 1 1761 9
 5250 004a FB68     		ldr	r3, [r7, #12]
 5251 004c 1B68     		ldr	r3, [r3]
 5252              		.loc 1 1761 26
 5253 004e 9968     		ldr	r1, [r3, #8]
 5254              		.loc 1 1761 9
 5255 0050 FB68     		ldr	r3, [r7, #12]
 5256 0052 1A68     		ldr	r2, [r3]
 5257              		.loc 1 1761 26
 5258 0054 1F4B     		ldr	r3, .L353+4
 5259 0056 0B40     		ands	r3, r3, r1
 5260 0058 9360     		str	r3, [r2, #8]
1762:./Libraries/STM32H7xx_HAL_Driver/Src/stm32h7xx_hal_tim_ex.c ****     htim->Instance->SMCR |= InputTrigger;
 5261              		.loc 1 1762 9
 5262 005a FB68     		ldr	r3, [r7, #12]
 5263 005c 1B68     		ldr	r3, [r3]
 5264              		.loc 1 1762 26
 5265 005e 9968     		ldr	r1, [r3, #8]
 5266              		.loc 1 1762 9
 5267 0060 FB68     		ldr	r3, [r7, #12]
 5268 0062 1B68     		ldr	r3, [r3]
 5269              		.loc 1 1762 26
 5270 0064 BA68     		ldr	r2, [r7, #8]
ARM GAS  /tmp/ccxx2olO.s 			page 126


 5271 0066 0A43     		orrs	r2, r2, r1
 5272 0068 9A60     		str	r2, [r3, #8]
 5273              	.L352:
1763:./Libraries/STM32H7xx_HAL_Driver/Src/stm32h7xx_hal_tim_ex.c ****   }
1764:./Libraries/STM32H7xx_HAL_Driver/Src/stm32h7xx_hal_tim_ex.c **** 
1765:./Libraries/STM32H7xx_HAL_Driver/Src/stm32h7xx_hal_tim_ex.c ****   /* Select the Capture Compare preload feature */
1766:./Libraries/STM32H7xx_HAL_Driver/Src/stm32h7xx_hal_tim_ex.c ****   htim->Instance->CR2 |= TIM_CR2_CCPC;
 5274              		.loc 1 1766 7
 5275 006a FB68     		ldr	r3, [r7, #12]
 5276 006c 1B68     		ldr	r3, [r3]
 5277              		.loc 1 1766 23
 5278 006e 5A68     		ldr	r2, [r3, #4]
 5279              		.loc 1 1766 7
 5280 0070 FB68     		ldr	r3, [r7, #12]
 5281 0072 1B68     		ldr	r3, [r3]
 5282              		.loc 1 1766 23
 5283 0074 42F00102 		orr	r2, r2, #1
 5284 0078 5A60     		str	r2, [r3, #4]
1767:./Libraries/STM32H7xx_HAL_Driver/Src/stm32h7xx_hal_tim_ex.c ****   /* Select the Commutation event source */
1768:./Libraries/STM32H7xx_HAL_Driver/Src/stm32h7xx_hal_tim_ex.c ****   htim->Instance->CR2 &= ~TIM_CR2_CCUS;
 5285              		.loc 1 1768 7
 5286 007a FB68     		ldr	r3, [r7, #12]
 5287 007c 1B68     		ldr	r3, [r3]
 5288              		.loc 1 1768 23
 5289 007e 5A68     		ldr	r2, [r3, #4]
 5290              		.loc 1 1768 7
 5291 0080 FB68     		ldr	r3, [r7, #12]
 5292 0082 1B68     		ldr	r3, [r3]
 5293              		.loc 1 1768 23
 5294 0084 22F00402 		bic	r2, r2, #4
 5295 0088 5A60     		str	r2, [r3, #4]
1769:./Libraries/STM32H7xx_HAL_Driver/Src/stm32h7xx_hal_tim_ex.c ****   htim->Instance->CR2 |= CommutationSource;
 5296              		.loc 1 1769 7
 5297 008a FB68     		ldr	r3, [r7, #12]
 5298 008c 1B68     		ldr	r3, [r3]
 5299              		.loc 1 1769 23
 5300 008e 5968     		ldr	r1, [r3, #4]
 5301              		.loc 1 1769 7
 5302 0090 FB68     		ldr	r3, [r7, #12]
 5303 0092 1B68     		ldr	r3, [r3]
 5304              		.loc 1 1769 23
 5305 0094 7A68     		ldr	r2, [r7, #4]
 5306 0096 0A43     		orrs	r2, r2, r1
 5307 0098 5A60     		str	r2, [r3, #4]
1770:./Libraries/STM32H7xx_HAL_Driver/Src/stm32h7xx_hal_tim_ex.c **** 
1771:./Libraries/STM32H7xx_HAL_Driver/Src/stm32h7xx_hal_tim_ex.c ****   /* Disable Commutation Interrupt */
1772:./Libraries/STM32H7xx_HAL_Driver/Src/stm32h7xx_hal_tim_ex.c ****   __HAL_TIM_DISABLE_IT(htim, TIM_IT_COM);
 5308              		.loc 1 1772 3
 5309 009a FB68     		ldr	r3, [r7, #12]
 5310 009c 1B68     		ldr	r3, [r3]
 5311 009e DA68     		ldr	r2, [r3, #12]
 5312 00a0 FB68     		ldr	r3, [r7, #12]
 5313 00a2 1B68     		ldr	r3, [r3]
 5314 00a4 22F02002 		bic	r2, r2, #32
 5315 00a8 DA60     		str	r2, [r3, #12]
1773:./Libraries/STM32H7xx_HAL_Driver/Src/stm32h7xx_hal_tim_ex.c **** 
1774:./Libraries/STM32H7xx_HAL_Driver/Src/stm32h7xx_hal_tim_ex.c ****   /* Disable Commutation DMA request */
ARM GAS  /tmp/ccxx2olO.s 			page 127


1775:./Libraries/STM32H7xx_HAL_Driver/Src/stm32h7xx_hal_tim_ex.c ****   __HAL_TIM_DISABLE_DMA(htim, TIM_DMA_COM);
 5316              		.loc 1 1775 3
 5317 00aa FB68     		ldr	r3, [r7, #12]
 5318 00ac 1B68     		ldr	r3, [r3]
 5319 00ae DA68     		ldr	r2, [r3, #12]
 5320 00b0 FB68     		ldr	r3, [r7, #12]
 5321 00b2 1B68     		ldr	r3, [r3]
 5322 00b4 22F40052 		bic	r2, r2, #8192
 5323 00b8 DA60     		str	r2, [r3, #12]
1776:./Libraries/STM32H7xx_HAL_Driver/Src/stm32h7xx_hal_tim_ex.c **** 
1777:./Libraries/STM32H7xx_HAL_Driver/Src/stm32h7xx_hal_tim_ex.c ****   __HAL_UNLOCK(htim);
 5324              		.loc 1 1777 3
 5325 00ba FB68     		ldr	r3, [r7, #12]
 5326 00bc 0022     		movs	r2, #0
 5327 00be 83F83C20 		strb	r2, [r3, #60]
1778:./Libraries/STM32H7xx_HAL_Driver/Src/stm32h7xx_hal_tim_ex.c **** 
1779:./Libraries/STM32H7xx_HAL_Driver/Src/stm32h7xx_hal_tim_ex.c ****   return HAL_OK;
 5328              		.loc 1 1779 10
 5329 00c2 0023     		movs	r3, #0
 5330              	.L350:
1780:./Libraries/STM32H7xx_HAL_Driver/Src/stm32h7xx_hal_tim_ex.c **** }
 5331              		.loc 1 1780 1
 5332 00c4 1846     		mov	r0, r3
 5333 00c6 1437     		adds	r7, r7, #20
 5334              	.LCFI135:
 5335              		.cfi_def_cfa_offset 4
 5336 00c8 BD46     		mov	sp, r7
 5337              	.LCFI136:
 5338              		.cfi_def_cfa_register 13
 5339              		@ sp needed
 5340 00ca 5DF8047B 		ldr	r7, [sp], #4
 5341              	.LCFI137:
 5342              		.cfi_restore 7
 5343              		.cfi_def_cfa_offset 0
 5344 00ce 7047     		bx	lr
 5345              	.L354:
 5346              		.align	2
 5347              	.L353:
 5348 00d0 10002000 		.word	2097168
 5349 00d4 8FFFCFFF 		.word	-3145841
 5350              		.cfi_endproc
 5351              	.LFE357:
 5353              		.section	.text.HAL_TIMEx_ConfigCommutEvent_IT,"ax",%progbits
 5354              		.align	1
 5355              		.global	HAL_TIMEx_ConfigCommutEvent_IT
 5356              		.syntax unified
 5357              		.thumb
 5358              		.thumb_func
 5359              		.fpu fpv5-d16
 5361              	HAL_TIMEx_ConfigCommutEvent_IT:
 5362              	.LFB358:
1781:./Libraries/STM32H7xx_HAL_Driver/Src/stm32h7xx_hal_tim_ex.c **** 
1782:./Libraries/STM32H7xx_HAL_Driver/Src/stm32h7xx_hal_tim_ex.c **** /**
1783:./Libraries/STM32H7xx_HAL_Driver/Src/stm32h7xx_hal_tim_ex.c ****   * @brief  Configure the TIM commutation event sequence with interrupt.
1784:./Libraries/STM32H7xx_HAL_Driver/Src/stm32h7xx_hal_tim_ex.c ****   * @note  This function is mandatory to use the commutation event in order to
1785:./Libraries/STM32H7xx_HAL_Driver/Src/stm32h7xx_hal_tim_ex.c ****   *        update the configuration at each commutation detection on the TRGI input of the Timer,
1786:./Libraries/STM32H7xx_HAL_Driver/Src/stm32h7xx_hal_tim_ex.c ****   *        the typical use of this feature is with the use of another Timer(interface Timer)
ARM GAS  /tmp/ccxx2olO.s 			page 128


1787:./Libraries/STM32H7xx_HAL_Driver/Src/stm32h7xx_hal_tim_ex.c ****   *        configured in Hall sensor interface, this interface Timer will generate the
1788:./Libraries/STM32H7xx_HAL_Driver/Src/stm32h7xx_hal_tim_ex.c ****   *        commutation at its TRGO output (connected to Timer used in this function) each time
1789:./Libraries/STM32H7xx_HAL_Driver/Src/stm32h7xx_hal_tim_ex.c ****   *        the TI1 of the Interface Timer detect a commutation at its input TI1.
1790:./Libraries/STM32H7xx_HAL_Driver/Src/stm32h7xx_hal_tim_ex.c ****   * @param  htim TIM handle
1791:./Libraries/STM32H7xx_HAL_Driver/Src/stm32h7xx_hal_tim_ex.c ****   * @param  InputTrigger the Internal trigger corresponding to the Timer Interfacing with the Hall 
1792:./Libraries/STM32H7xx_HAL_Driver/Src/stm32h7xx_hal_tim_ex.c ****   *          This parameter can be one of the following values:
1793:./Libraries/STM32H7xx_HAL_Driver/Src/stm32h7xx_hal_tim_ex.c ****   *            @arg TIM_TS_ITR0: Internal trigger 0 selected
1794:./Libraries/STM32H7xx_HAL_Driver/Src/stm32h7xx_hal_tim_ex.c ****   *            @arg TIM_TS_ITR1: Internal trigger 1 selected
1795:./Libraries/STM32H7xx_HAL_Driver/Src/stm32h7xx_hal_tim_ex.c ****   *            @arg TIM_TS_ITR2: Internal trigger 2 selected
1796:./Libraries/STM32H7xx_HAL_Driver/Src/stm32h7xx_hal_tim_ex.c ****   *            @arg TIM_TS_ITR3: Internal trigger 3 selected
1797:./Libraries/STM32H7xx_HAL_Driver/Src/stm32h7xx_hal_tim_ex.c ****   *            @arg TIM_TS_ITR2: Internal trigger 12 selected (*)
1798:./Libraries/STM32H7xx_HAL_Driver/Src/stm32h7xx_hal_tim_ex.c ****   *            @arg TIM_TS_ITR3: Internal trigger 13 selected (*)
1799:./Libraries/STM32H7xx_HAL_Driver/Src/stm32h7xx_hal_tim_ex.c ****   *            @arg TIM_TS_NONE: No trigger is needed
1800:./Libraries/STM32H7xx_HAL_Driver/Src/stm32h7xx_hal_tim_ex.c ****   * @param  CommutationSource the Commutation Event source
1801:./Libraries/STM32H7xx_HAL_Driver/Src/stm32h7xx_hal_tim_ex.c ****   *          This parameter can be one of the following values:
1802:./Libraries/STM32H7xx_HAL_Driver/Src/stm32h7xx_hal_tim_ex.c ****   *            @arg TIM_COMMUTATION_TRGI: Commutation source is the TRGI of the Interface Timer
1803:./Libraries/STM32H7xx_HAL_Driver/Src/stm32h7xx_hal_tim_ex.c ****   *            @arg TIM_COMMUTATION_SOFTWARE:  Commutation source is set by software using the COMG
1804:./Libraries/STM32H7xx_HAL_Driver/Src/stm32h7xx_hal_tim_ex.c ****   * @retval HAL status
1805:./Libraries/STM32H7xx_HAL_Driver/Src/stm32h7xx_hal_tim_ex.c ****   */
1806:./Libraries/STM32H7xx_HAL_Driver/Src/stm32h7xx_hal_tim_ex.c **** HAL_StatusTypeDef HAL_TIMEx_ConfigCommutEvent_IT(TIM_HandleTypeDef *htim, uint32_t  InputTrigger,
1807:./Libraries/STM32H7xx_HAL_Driver/Src/stm32h7xx_hal_tim_ex.c ****                                                  uint32_t  CommutationSource)
1808:./Libraries/STM32H7xx_HAL_Driver/Src/stm32h7xx_hal_tim_ex.c **** {
 5363              		.loc 1 1808 1
 5364              		.cfi_startproc
 5365              		@ args = 0, pretend = 0, frame = 16
 5366              		@ frame_needed = 1, uses_anonymous_args = 0
 5367              		@ link register save eliminated.
 5368 0000 80B4     		push	{r7}
 5369              	.LCFI138:
 5370              		.cfi_def_cfa_offset 4
 5371              		.cfi_offset 7, -4
 5372 0002 85B0     		sub	sp, sp, #20
 5373              	.LCFI139:
 5374              		.cfi_def_cfa_offset 24
 5375 0004 00AF     		add	r7, sp, #0
 5376              	.LCFI140:
 5377              		.cfi_def_cfa_register 7
 5378 0006 F860     		str	r0, [r7, #12]
 5379 0008 B960     		str	r1, [r7, #8]
 5380 000a 7A60     		str	r2, [r7, #4]
1809:./Libraries/STM32H7xx_HAL_Driver/Src/stm32h7xx_hal_tim_ex.c ****   /* Check the parameters */
1810:./Libraries/STM32H7xx_HAL_Driver/Src/stm32h7xx_hal_tim_ex.c ****   assert_param(IS_TIM_COMMUTATION_EVENT_INSTANCE(htim->Instance));
1811:./Libraries/STM32H7xx_HAL_Driver/Src/stm32h7xx_hal_tim_ex.c ****   assert_param(IS_TIM_INTERNAL_TRIGGEREVENT_SELECTION(InputTrigger));
1812:./Libraries/STM32H7xx_HAL_Driver/Src/stm32h7xx_hal_tim_ex.c **** 
1813:./Libraries/STM32H7xx_HAL_Driver/Src/stm32h7xx_hal_tim_ex.c ****   __HAL_LOCK(htim);
 5381              		.loc 1 1813 3
 5382 000c FB68     		ldr	r3, [r7, #12]
 5383 000e 93F83C30 		ldrb	r3, [r3, #60]	@ zero_extendqisi2
 5384 0012 012B     		cmp	r3, #1
 5385 0014 01D1     		bne	.L356
 5386              		.loc 1 1813 3 is_stmt 0 discriminator 1
 5387 0016 0223     		movs	r3, #2
 5388 0018 54E0     		b	.L357
 5389              	.L356:
 5390              		.loc 1 1813 3 discriminator 2
 5391 001a FB68     		ldr	r3, [r7, #12]
 5392 001c 0122     		movs	r2, #1
ARM GAS  /tmp/ccxx2olO.s 			page 129


 5393 001e 83F83C20 		strb	r2, [r3, #60]
1814:./Libraries/STM32H7xx_HAL_Driver/Src/stm32h7xx_hal_tim_ex.c **** 
1815:./Libraries/STM32H7xx_HAL_Driver/Src/stm32h7xx_hal_tim_ex.c ****   if ((InputTrigger == TIM_TS_ITR0)  || (InputTrigger == TIM_TS_ITR1) ||
 5394              		.loc 1 1815 6 is_stmt 1 discriminator 2
 5395 0022 BB68     		ldr	r3, [r7, #8]
 5396 0024 002B     		cmp	r3, #0
 5397 0026 10D0     		beq	.L358
 5398              		.loc 1 1815 38 discriminator 1
 5399 0028 BB68     		ldr	r3, [r7, #8]
 5400 002a 102B     		cmp	r3, #16
 5401 002c 0DD0     		beq	.L358
 5402              		.loc 1 1815 71 discriminator 2
 5403 002e BB68     		ldr	r3, [r7, #8]
 5404 0030 202B     		cmp	r3, #32
 5405 0032 0AD0     		beq	.L358
1816:./Libraries/STM32H7xx_HAL_Driver/Src/stm32h7xx_hal_tim_ex.c ****       (InputTrigger == TIM_TS_ITR2)  || (InputTrigger == TIM_TS_ITR3) ||
 5406              		.loc 1 1816 38
 5407 0034 BB68     		ldr	r3, [r7, #8]
 5408 0036 302B     		cmp	r3, #48
 5409 0038 07D0     		beq	.L358
 5410              		.loc 1 1816 71 discriminator 1
 5411 003a BB68     		ldr	r3, [r7, #8]
 5412 003c B3F5001F 		cmp	r3, #2097152
 5413 0040 03D0     		beq	.L358
1817:./Libraries/STM32H7xx_HAL_Driver/Src/stm32h7xx_hal_tim_ex.c ****       (InputTrigger == TIM_TS_ITR12)  || (InputTrigger == TIM_TS_ITR13))
 5414              		.loc 1 1817 39
 5415 0042 BB68     		ldr	r3, [r7, #8]
 5416 0044 224A     		ldr	r2, .L360
 5417 0046 9342     		cmp	r3, r2
 5418 0048 0FD1     		bne	.L359
 5419              	.L358:
1818:./Libraries/STM32H7xx_HAL_Driver/Src/stm32h7xx_hal_tim_ex.c ****   {
1819:./Libraries/STM32H7xx_HAL_Driver/Src/stm32h7xx_hal_tim_ex.c ****     /* Select the Input trigger */
1820:./Libraries/STM32H7xx_HAL_Driver/Src/stm32h7xx_hal_tim_ex.c ****     htim->Instance->SMCR &= ~TIM_SMCR_TS;
 5420              		.loc 1 1820 9
 5421 004a FB68     		ldr	r3, [r7, #12]
 5422 004c 1B68     		ldr	r3, [r3]
 5423              		.loc 1 1820 26
 5424 004e 9968     		ldr	r1, [r3, #8]
 5425              		.loc 1 1820 9
 5426 0050 FB68     		ldr	r3, [r7, #12]
 5427 0052 1A68     		ldr	r2, [r3]
 5428              		.loc 1 1820 26
 5429 0054 1F4B     		ldr	r3, .L360+4
 5430 0056 0B40     		ands	r3, r3, r1
 5431 0058 9360     		str	r3, [r2, #8]
1821:./Libraries/STM32H7xx_HAL_Driver/Src/stm32h7xx_hal_tim_ex.c ****     htim->Instance->SMCR |= InputTrigger;
 5432              		.loc 1 1821 9
 5433 005a FB68     		ldr	r3, [r7, #12]
 5434 005c 1B68     		ldr	r3, [r3]
 5435              		.loc 1 1821 26
 5436 005e 9968     		ldr	r1, [r3, #8]
 5437              		.loc 1 1821 9
 5438 0060 FB68     		ldr	r3, [r7, #12]
 5439 0062 1B68     		ldr	r3, [r3]
 5440              		.loc 1 1821 26
 5441 0064 BA68     		ldr	r2, [r7, #8]
ARM GAS  /tmp/ccxx2olO.s 			page 130


 5442 0066 0A43     		orrs	r2, r2, r1
 5443 0068 9A60     		str	r2, [r3, #8]
 5444              	.L359:
1822:./Libraries/STM32H7xx_HAL_Driver/Src/stm32h7xx_hal_tim_ex.c ****   }
1823:./Libraries/STM32H7xx_HAL_Driver/Src/stm32h7xx_hal_tim_ex.c **** 
1824:./Libraries/STM32H7xx_HAL_Driver/Src/stm32h7xx_hal_tim_ex.c ****   /* Select the Capture Compare preload feature */
1825:./Libraries/STM32H7xx_HAL_Driver/Src/stm32h7xx_hal_tim_ex.c ****   htim->Instance->CR2 |= TIM_CR2_CCPC;
 5445              		.loc 1 1825 7
 5446 006a FB68     		ldr	r3, [r7, #12]
 5447 006c 1B68     		ldr	r3, [r3]
 5448              		.loc 1 1825 23
 5449 006e 5A68     		ldr	r2, [r3, #4]
 5450              		.loc 1 1825 7
 5451 0070 FB68     		ldr	r3, [r7, #12]
 5452 0072 1B68     		ldr	r3, [r3]
 5453              		.loc 1 1825 23
 5454 0074 42F00102 		orr	r2, r2, #1
 5455 0078 5A60     		str	r2, [r3, #4]
1826:./Libraries/STM32H7xx_HAL_Driver/Src/stm32h7xx_hal_tim_ex.c ****   /* Select the Commutation event source */
1827:./Libraries/STM32H7xx_HAL_Driver/Src/stm32h7xx_hal_tim_ex.c ****   htim->Instance->CR2 &= ~TIM_CR2_CCUS;
 5456              		.loc 1 1827 7
 5457 007a FB68     		ldr	r3, [r7, #12]
 5458 007c 1B68     		ldr	r3, [r3]
 5459              		.loc 1 1827 23
 5460 007e 5A68     		ldr	r2, [r3, #4]
 5461              		.loc 1 1827 7
 5462 0080 FB68     		ldr	r3, [r7, #12]
 5463 0082 1B68     		ldr	r3, [r3]
 5464              		.loc 1 1827 23
 5465 0084 22F00402 		bic	r2, r2, #4
 5466 0088 5A60     		str	r2, [r3, #4]
1828:./Libraries/STM32H7xx_HAL_Driver/Src/stm32h7xx_hal_tim_ex.c ****   htim->Instance->CR2 |= CommutationSource;
 5467              		.loc 1 1828 7
 5468 008a FB68     		ldr	r3, [r7, #12]
 5469 008c 1B68     		ldr	r3, [r3]
 5470              		.loc 1 1828 23
 5471 008e 5968     		ldr	r1, [r3, #4]
 5472              		.loc 1 1828 7
 5473 0090 FB68     		ldr	r3, [r7, #12]
 5474 0092 1B68     		ldr	r3, [r3]
 5475              		.loc 1 1828 23
 5476 0094 7A68     		ldr	r2, [r7, #4]
 5477 0096 0A43     		orrs	r2, r2, r1
 5478 0098 5A60     		str	r2, [r3, #4]
1829:./Libraries/STM32H7xx_HAL_Driver/Src/stm32h7xx_hal_tim_ex.c **** 
1830:./Libraries/STM32H7xx_HAL_Driver/Src/stm32h7xx_hal_tim_ex.c ****   /* Disable Commutation DMA request */
1831:./Libraries/STM32H7xx_HAL_Driver/Src/stm32h7xx_hal_tim_ex.c ****   __HAL_TIM_DISABLE_DMA(htim, TIM_DMA_COM);
 5479              		.loc 1 1831 3
 5480 009a FB68     		ldr	r3, [r7, #12]
 5481 009c 1B68     		ldr	r3, [r3]
 5482 009e DA68     		ldr	r2, [r3, #12]
 5483 00a0 FB68     		ldr	r3, [r7, #12]
 5484 00a2 1B68     		ldr	r3, [r3]
 5485 00a4 22F40052 		bic	r2, r2, #8192
 5486 00a8 DA60     		str	r2, [r3, #12]
1832:./Libraries/STM32H7xx_HAL_Driver/Src/stm32h7xx_hal_tim_ex.c **** 
1833:./Libraries/STM32H7xx_HAL_Driver/Src/stm32h7xx_hal_tim_ex.c ****   /* Enable the Commutation Interrupt */
ARM GAS  /tmp/ccxx2olO.s 			page 131


1834:./Libraries/STM32H7xx_HAL_Driver/Src/stm32h7xx_hal_tim_ex.c ****   __HAL_TIM_ENABLE_IT(htim, TIM_IT_COM);
 5487              		.loc 1 1834 3
 5488 00aa FB68     		ldr	r3, [r7, #12]
 5489 00ac 1B68     		ldr	r3, [r3]
 5490 00ae DA68     		ldr	r2, [r3, #12]
 5491 00b0 FB68     		ldr	r3, [r7, #12]
 5492 00b2 1B68     		ldr	r3, [r3]
 5493 00b4 42F02002 		orr	r2, r2, #32
 5494 00b8 DA60     		str	r2, [r3, #12]
1835:./Libraries/STM32H7xx_HAL_Driver/Src/stm32h7xx_hal_tim_ex.c **** 
1836:./Libraries/STM32H7xx_HAL_Driver/Src/stm32h7xx_hal_tim_ex.c ****   __HAL_UNLOCK(htim);
 5495              		.loc 1 1836 3
 5496 00ba FB68     		ldr	r3, [r7, #12]
 5497 00bc 0022     		movs	r2, #0
 5498 00be 83F83C20 		strb	r2, [r3, #60]
1837:./Libraries/STM32H7xx_HAL_Driver/Src/stm32h7xx_hal_tim_ex.c **** 
1838:./Libraries/STM32H7xx_HAL_Driver/Src/stm32h7xx_hal_tim_ex.c ****   return HAL_OK;
 5499              		.loc 1 1838 10
 5500 00c2 0023     		movs	r3, #0
 5501              	.L357:
1839:./Libraries/STM32H7xx_HAL_Driver/Src/stm32h7xx_hal_tim_ex.c **** }
 5502              		.loc 1 1839 1
 5503 00c4 1846     		mov	r0, r3
 5504 00c6 1437     		adds	r7, r7, #20
 5505              	.LCFI141:
 5506              		.cfi_def_cfa_offset 4
 5507 00c8 BD46     		mov	sp, r7
 5508              	.LCFI142:
 5509              		.cfi_def_cfa_register 13
 5510              		@ sp needed
 5511 00ca 5DF8047B 		ldr	r7, [sp], #4
 5512              	.LCFI143:
 5513              		.cfi_restore 7
 5514              		.cfi_def_cfa_offset 0
 5515 00ce 7047     		bx	lr
 5516              	.L361:
 5517              		.align	2
 5518              	.L360:
 5519 00d0 10002000 		.word	2097168
 5520 00d4 8FFFCFFF 		.word	-3145841
 5521              		.cfi_endproc
 5522              	.LFE358:
 5524              		.section	.text.HAL_TIMEx_ConfigCommutEvent_DMA,"ax",%progbits
 5525              		.align	1
 5526              		.global	HAL_TIMEx_ConfigCommutEvent_DMA
 5527              		.syntax unified
 5528              		.thumb
 5529              		.thumb_func
 5530              		.fpu fpv5-d16
 5532              	HAL_TIMEx_ConfigCommutEvent_DMA:
 5533              	.LFB359:
1840:./Libraries/STM32H7xx_HAL_Driver/Src/stm32h7xx_hal_tim_ex.c **** 
1841:./Libraries/STM32H7xx_HAL_Driver/Src/stm32h7xx_hal_tim_ex.c **** /**
1842:./Libraries/STM32H7xx_HAL_Driver/Src/stm32h7xx_hal_tim_ex.c ****   * @brief  Configure the TIM commutation event sequence with DMA.
1843:./Libraries/STM32H7xx_HAL_Driver/Src/stm32h7xx_hal_tim_ex.c ****   * @note  This function is mandatory to use the commutation event in order to
1844:./Libraries/STM32H7xx_HAL_Driver/Src/stm32h7xx_hal_tim_ex.c ****   *        update the configuration at each commutation detection on the TRGI input of the Timer,
1845:./Libraries/STM32H7xx_HAL_Driver/Src/stm32h7xx_hal_tim_ex.c ****   *        the typical use of this feature is with the use of another Timer(interface Timer)
ARM GAS  /tmp/ccxx2olO.s 			page 132


1846:./Libraries/STM32H7xx_HAL_Driver/Src/stm32h7xx_hal_tim_ex.c ****   *        configured in Hall sensor interface, this interface Timer will generate the
1847:./Libraries/STM32H7xx_HAL_Driver/Src/stm32h7xx_hal_tim_ex.c ****   *        commutation at its TRGO output (connected to Timer used in this function) each time
1848:./Libraries/STM32H7xx_HAL_Driver/Src/stm32h7xx_hal_tim_ex.c ****   *        the TI1 of the Interface Timer detect a commutation at its input TI1.
1849:./Libraries/STM32H7xx_HAL_Driver/Src/stm32h7xx_hal_tim_ex.c ****   * @note  The user should configure the DMA in his own software, in This function only the COMDE b
1850:./Libraries/STM32H7xx_HAL_Driver/Src/stm32h7xx_hal_tim_ex.c ****   * @param  htim TIM handle
1851:./Libraries/STM32H7xx_HAL_Driver/Src/stm32h7xx_hal_tim_ex.c ****   * @param  InputTrigger the Internal trigger corresponding to the Timer Interfacing with the Hall 
1852:./Libraries/STM32H7xx_HAL_Driver/Src/stm32h7xx_hal_tim_ex.c ****   *          This parameter can be one of the following values:
1853:./Libraries/STM32H7xx_HAL_Driver/Src/stm32h7xx_hal_tim_ex.c ****   *            @arg TIM_TS_ITR0: Internal trigger 0 selected
1854:./Libraries/STM32H7xx_HAL_Driver/Src/stm32h7xx_hal_tim_ex.c ****   *            @arg TIM_TS_ITR1: Internal trigger 1 selected
1855:./Libraries/STM32H7xx_HAL_Driver/Src/stm32h7xx_hal_tim_ex.c ****   *            @arg TIM_TS_ITR2: Internal trigger 2 selected
1856:./Libraries/STM32H7xx_HAL_Driver/Src/stm32h7xx_hal_tim_ex.c ****   *            @arg TIM_TS_ITR3: Internal trigger 3 selected
1857:./Libraries/STM32H7xx_HAL_Driver/Src/stm32h7xx_hal_tim_ex.c ****   *            @arg TIM_TS_ITR2: Internal trigger 12 selected (*)
1858:./Libraries/STM32H7xx_HAL_Driver/Src/stm32h7xx_hal_tim_ex.c ****   *            @arg TIM_TS_ITR3: Internal trigger 13 selected (*)
1859:./Libraries/STM32H7xx_HAL_Driver/Src/stm32h7xx_hal_tim_ex.c ****   *            @arg TIM_TS_NONE: No trigger is needed
1860:./Libraries/STM32H7xx_HAL_Driver/Src/stm32h7xx_hal_tim_ex.c ****   *
1861:./Libraries/STM32H7xx_HAL_Driver/Src/stm32h7xx_hal_tim_ex.c ****   *         (*)  Value not defined in all devices.
1862:./Libraries/STM32H7xx_HAL_Driver/Src/stm32h7xx_hal_tim_ex.c ****   *
1863:./Libraries/STM32H7xx_HAL_Driver/Src/stm32h7xx_hal_tim_ex.c ****   * @param  CommutationSource the Commutation Event source
1864:./Libraries/STM32H7xx_HAL_Driver/Src/stm32h7xx_hal_tim_ex.c ****   *          This parameter can be one of the following values:
1865:./Libraries/STM32H7xx_HAL_Driver/Src/stm32h7xx_hal_tim_ex.c ****   *            @arg TIM_COMMUTATION_TRGI: Commutation source is the TRGI of the Interface Timer
1866:./Libraries/STM32H7xx_HAL_Driver/Src/stm32h7xx_hal_tim_ex.c ****   *            @arg TIM_COMMUTATION_SOFTWARE:  Commutation source is set by software using the COMG
1867:./Libraries/STM32H7xx_HAL_Driver/Src/stm32h7xx_hal_tim_ex.c ****   * @retval HAL status
1868:./Libraries/STM32H7xx_HAL_Driver/Src/stm32h7xx_hal_tim_ex.c ****   */
1869:./Libraries/STM32H7xx_HAL_Driver/Src/stm32h7xx_hal_tim_ex.c **** HAL_StatusTypeDef HAL_TIMEx_ConfigCommutEvent_DMA(TIM_HandleTypeDef *htim, uint32_t  InputTrigger,
1870:./Libraries/STM32H7xx_HAL_Driver/Src/stm32h7xx_hal_tim_ex.c ****                                                   uint32_t  CommutationSource)
1871:./Libraries/STM32H7xx_HAL_Driver/Src/stm32h7xx_hal_tim_ex.c **** {
 5534              		.loc 1 1871 1
 5535              		.cfi_startproc
 5536              		@ args = 0, pretend = 0, frame = 16
 5537              		@ frame_needed = 1, uses_anonymous_args = 0
 5538              		@ link register save eliminated.
 5539 0000 80B4     		push	{r7}
 5540              	.LCFI144:
 5541              		.cfi_def_cfa_offset 4
 5542              		.cfi_offset 7, -4
 5543 0002 85B0     		sub	sp, sp, #20
 5544              	.LCFI145:
 5545              		.cfi_def_cfa_offset 24
 5546 0004 00AF     		add	r7, sp, #0
 5547              	.LCFI146:
 5548              		.cfi_def_cfa_register 7
 5549 0006 F860     		str	r0, [r7, #12]
 5550 0008 B960     		str	r1, [r7, #8]
 5551 000a 7A60     		str	r2, [r7, #4]
1872:./Libraries/STM32H7xx_HAL_Driver/Src/stm32h7xx_hal_tim_ex.c ****   /* Check the parameters */
1873:./Libraries/STM32H7xx_HAL_Driver/Src/stm32h7xx_hal_tim_ex.c ****   assert_param(IS_TIM_COMMUTATION_EVENT_INSTANCE(htim->Instance));
1874:./Libraries/STM32H7xx_HAL_Driver/Src/stm32h7xx_hal_tim_ex.c ****   assert_param(IS_TIM_INTERNAL_TRIGGEREVENT_SELECTION(InputTrigger));
1875:./Libraries/STM32H7xx_HAL_Driver/Src/stm32h7xx_hal_tim_ex.c **** 
1876:./Libraries/STM32H7xx_HAL_Driver/Src/stm32h7xx_hal_tim_ex.c ****   __HAL_LOCK(htim);
 5552              		.loc 1 1876 3
 5553 000c FB68     		ldr	r3, [r7, #12]
 5554 000e 93F83C30 		ldrb	r3, [r3, #60]	@ zero_extendqisi2
 5555 0012 012B     		cmp	r3, #1
 5556 0014 01D1     		bne	.L363
 5557              		.loc 1 1876 3 is_stmt 0 discriminator 1
 5558 0016 0223     		movs	r3, #2
 5559 0018 60E0     		b	.L364
ARM GAS  /tmp/ccxx2olO.s 			page 133


 5560              	.L363:
 5561              		.loc 1 1876 3 discriminator 2
 5562 001a FB68     		ldr	r3, [r7, #12]
 5563 001c 0122     		movs	r2, #1
 5564 001e 83F83C20 		strb	r2, [r3, #60]
1877:./Libraries/STM32H7xx_HAL_Driver/Src/stm32h7xx_hal_tim_ex.c **** 
1878:./Libraries/STM32H7xx_HAL_Driver/Src/stm32h7xx_hal_tim_ex.c ****   if ((InputTrigger == TIM_TS_ITR0)  || (InputTrigger == TIM_TS_ITR1) ||
 5565              		.loc 1 1878 6 is_stmt 1 discriminator 2
 5566 0022 BB68     		ldr	r3, [r7, #8]
 5567 0024 002B     		cmp	r3, #0
 5568 0026 10D0     		beq	.L365
 5569              		.loc 1 1878 38 discriminator 1
 5570 0028 BB68     		ldr	r3, [r7, #8]
 5571 002a 102B     		cmp	r3, #16
 5572 002c 0DD0     		beq	.L365
 5573              		.loc 1 1878 71 discriminator 2
 5574 002e BB68     		ldr	r3, [r7, #8]
 5575 0030 202B     		cmp	r3, #32
 5576 0032 0AD0     		beq	.L365
1879:./Libraries/STM32H7xx_HAL_Driver/Src/stm32h7xx_hal_tim_ex.c ****       (InputTrigger == TIM_TS_ITR2)  || (InputTrigger == TIM_TS_ITR3) ||
 5577              		.loc 1 1879 38
 5578 0034 BB68     		ldr	r3, [r7, #8]
 5579 0036 302B     		cmp	r3, #48
 5580 0038 07D0     		beq	.L365
 5581              		.loc 1 1879 71 discriminator 1
 5582 003a BB68     		ldr	r3, [r7, #8]
 5583 003c B3F5001F 		cmp	r3, #2097152
 5584 0040 03D0     		beq	.L365
1880:./Libraries/STM32H7xx_HAL_Driver/Src/stm32h7xx_hal_tim_ex.c ****       (InputTrigger == TIM_TS_ITR12)  || (InputTrigger == TIM_TS_ITR13))
 5585              		.loc 1 1880 39
 5586 0042 BB68     		ldr	r3, [r7, #8]
 5587 0044 284A     		ldr	r2, .L367
 5588 0046 9342     		cmp	r3, r2
 5589 0048 0FD1     		bne	.L366
 5590              	.L365:
1881:./Libraries/STM32H7xx_HAL_Driver/Src/stm32h7xx_hal_tim_ex.c ****   {
1882:./Libraries/STM32H7xx_HAL_Driver/Src/stm32h7xx_hal_tim_ex.c ****     /* Select the Input trigger */
1883:./Libraries/STM32H7xx_HAL_Driver/Src/stm32h7xx_hal_tim_ex.c ****     htim->Instance->SMCR &= ~TIM_SMCR_TS;
 5591              		.loc 1 1883 9
 5592 004a FB68     		ldr	r3, [r7, #12]
 5593 004c 1B68     		ldr	r3, [r3]
 5594              		.loc 1 1883 26
 5595 004e 9968     		ldr	r1, [r3, #8]
 5596              		.loc 1 1883 9
 5597 0050 FB68     		ldr	r3, [r7, #12]
 5598 0052 1A68     		ldr	r2, [r3]
 5599              		.loc 1 1883 26
 5600 0054 254B     		ldr	r3, .L367+4
 5601 0056 0B40     		ands	r3, r3, r1
 5602 0058 9360     		str	r3, [r2, #8]
1884:./Libraries/STM32H7xx_HAL_Driver/Src/stm32h7xx_hal_tim_ex.c ****     htim->Instance->SMCR |= InputTrigger;
 5603              		.loc 1 1884 9
 5604 005a FB68     		ldr	r3, [r7, #12]
 5605 005c 1B68     		ldr	r3, [r3]
 5606              		.loc 1 1884 26
 5607 005e 9968     		ldr	r1, [r3, #8]
 5608              		.loc 1 1884 9
ARM GAS  /tmp/ccxx2olO.s 			page 134


 5609 0060 FB68     		ldr	r3, [r7, #12]
 5610 0062 1B68     		ldr	r3, [r3]
 5611              		.loc 1 1884 26
 5612 0064 BA68     		ldr	r2, [r7, #8]
 5613 0066 0A43     		orrs	r2, r2, r1
 5614 0068 9A60     		str	r2, [r3, #8]
 5615              	.L366:
1885:./Libraries/STM32H7xx_HAL_Driver/Src/stm32h7xx_hal_tim_ex.c ****   }
1886:./Libraries/STM32H7xx_HAL_Driver/Src/stm32h7xx_hal_tim_ex.c **** 
1887:./Libraries/STM32H7xx_HAL_Driver/Src/stm32h7xx_hal_tim_ex.c ****   /* Select the Capture Compare preload feature */
1888:./Libraries/STM32H7xx_HAL_Driver/Src/stm32h7xx_hal_tim_ex.c ****   htim->Instance->CR2 |= TIM_CR2_CCPC;
 5616              		.loc 1 1888 7
 5617 006a FB68     		ldr	r3, [r7, #12]
 5618 006c 1B68     		ldr	r3, [r3]
 5619              		.loc 1 1888 23
 5620 006e 5A68     		ldr	r2, [r3, #4]
 5621              		.loc 1 1888 7
 5622 0070 FB68     		ldr	r3, [r7, #12]
 5623 0072 1B68     		ldr	r3, [r3]
 5624              		.loc 1 1888 23
 5625 0074 42F00102 		orr	r2, r2, #1
 5626 0078 5A60     		str	r2, [r3, #4]
1889:./Libraries/STM32H7xx_HAL_Driver/Src/stm32h7xx_hal_tim_ex.c ****   /* Select the Commutation event source */
1890:./Libraries/STM32H7xx_HAL_Driver/Src/stm32h7xx_hal_tim_ex.c ****   htim->Instance->CR2 &= ~TIM_CR2_CCUS;
 5627              		.loc 1 1890 7
 5628 007a FB68     		ldr	r3, [r7, #12]
 5629 007c 1B68     		ldr	r3, [r3]
 5630              		.loc 1 1890 23
 5631 007e 5A68     		ldr	r2, [r3, #4]
 5632              		.loc 1 1890 7
 5633 0080 FB68     		ldr	r3, [r7, #12]
 5634 0082 1B68     		ldr	r3, [r3]
 5635              		.loc 1 1890 23
 5636 0084 22F00402 		bic	r2, r2, #4
 5637 0088 5A60     		str	r2, [r3, #4]
1891:./Libraries/STM32H7xx_HAL_Driver/Src/stm32h7xx_hal_tim_ex.c ****   htim->Instance->CR2 |= CommutationSource;
 5638              		.loc 1 1891 7
 5639 008a FB68     		ldr	r3, [r7, #12]
 5640 008c 1B68     		ldr	r3, [r3]
 5641              		.loc 1 1891 23
 5642 008e 5968     		ldr	r1, [r3, #4]
 5643              		.loc 1 1891 7
 5644 0090 FB68     		ldr	r3, [r7, #12]
 5645 0092 1B68     		ldr	r3, [r3]
 5646              		.loc 1 1891 23
 5647 0094 7A68     		ldr	r2, [r7, #4]
 5648 0096 0A43     		orrs	r2, r2, r1
 5649 0098 5A60     		str	r2, [r3, #4]
1892:./Libraries/STM32H7xx_HAL_Driver/Src/stm32h7xx_hal_tim_ex.c **** 
1893:./Libraries/STM32H7xx_HAL_Driver/Src/stm32h7xx_hal_tim_ex.c ****   /* Enable the Commutation DMA Request */
1894:./Libraries/STM32H7xx_HAL_Driver/Src/stm32h7xx_hal_tim_ex.c ****   /* Set the DMA Commutation Callback */
1895:./Libraries/STM32H7xx_HAL_Driver/Src/stm32h7xx_hal_tim_ex.c ****   htim->hdma[TIM_DMA_ID_COMMUTATION]->XferCpltCallback = TIMEx_DMACommutationCplt;
 5650              		.loc 1 1895 13
 5651 009a FB68     		ldr	r3, [r7, #12]
 5652 009c 5B6B     		ldr	r3, [r3, #52]
 5653              		.loc 1 1895 56
 5654 009e 144A     		ldr	r2, .L367+8
ARM GAS  /tmp/ccxx2olO.s 			page 135


 5655 00a0 DA63     		str	r2, [r3, #60]
1896:./Libraries/STM32H7xx_HAL_Driver/Src/stm32h7xx_hal_tim_ex.c ****   htim->hdma[TIM_DMA_ID_COMMUTATION]->XferHalfCpltCallback = TIMEx_DMACommutationHalfCplt;
 5656              		.loc 1 1896 13
 5657 00a2 FB68     		ldr	r3, [r7, #12]
 5658 00a4 5B6B     		ldr	r3, [r3, #52]
 5659              		.loc 1 1896 60
 5660 00a6 134A     		ldr	r2, .L367+12
 5661 00a8 1A64     		str	r2, [r3, #64]
1897:./Libraries/STM32H7xx_HAL_Driver/Src/stm32h7xx_hal_tim_ex.c ****   /* Set the DMA error callback */
1898:./Libraries/STM32H7xx_HAL_Driver/Src/stm32h7xx_hal_tim_ex.c ****   htim->hdma[TIM_DMA_ID_COMMUTATION]->XferErrorCallback = TIM_DMAError;
 5662              		.loc 1 1898 13
 5663 00aa FB68     		ldr	r3, [r7, #12]
 5664 00ac 5B6B     		ldr	r3, [r3, #52]
 5665              		.loc 1 1898 57
 5666 00ae 124A     		ldr	r2, .L367+16
 5667 00b0 DA64     		str	r2, [r3, #76]
1899:./Libraries/STM32H7xx_HAL_Driver/Src/stm32h7xx_hal_tim_ex.c **** 
1900:./Libraries/STM32H7xx_HAL_Driver/Src/stm32h7xx_hal_tim_ex.c ****   /* Disable Commutation Interrupt */
1901:./Libraries/STM32H7xx_HAL_Driver/Src/stm32h7xx_hal_tim_ex.c ****   __HAL_TIM_DISABLE_IT(htim, TIM_IT_COM);
 5668              		.loc 1 1901 3
 5669 00b2 FB68     		ldr	r3, [r7, #12]
 5670 00b4 1B68     		ldr	r3, [r3]
 5671 00b6 DA68     		ldr	r2, [r3, #12]
 5672 00b8 FB68     		ldr	r3, [r7, #12]
 5673 00ba 1B68     		ldr	r3, [r3]
 5674 00bc 22F02002 		bic	r2, r2, #32
 5675 00c0 DA60     		str	r2, [r3, #12]
1902:./Libraries/STM32H7xx_HAL_Driver/Src/stm32h7xx_hal_tim_ex.c **** 
1903:./Libraries/STM32H7xx_HAL_Driver/Src/stm32h7xx_hal_tim_ex.c ****   /* Enable the Commutation DMA Request */
1904:./Libraries/STM32H7xx_HAL_Driver/Src/stm32h7xx_hal_tim_ex.c ****   __HAL_TIM_ENABLE_DMA(htim, TIM_DMA_COM);
 5676              		.loc 1 1904 3
 5677 00c2 FB68     		ldr	r3, [r7, #12]
 5678 00c4 1B68     		ldr	r3, [r3]
 5679 00c6 DA68     		ldr	r2, [r3, #12]
 5680 00c8 FB68     		ldr	r3, [r7, #12]
 5681 00ca 1B68     		ldr	r3, [r3]
 5682 00cc 42F40052 		orr	r2, r2, #8192
 5683 00d0 DA60     		str	r2, [r3, #12]
1905:./Libraries/STM32H7xx_HAL_Driver/Src/stm32h7xx_hal_tim_ex.c **** 
1906:./Libraries/STM32H7xx_HAL_Driver/Src/stm32h7xx_hal_tim_ex.c ****   __HAL_UNLOCK(htim);
 5684              		.loc 1 1906 3
 5685 00d2 FB68     		ldr	r3, [r7, #12]
 5686 00d4 0022     		movs	r2, #0
 5687 00d6 83F83C20 		strb	r2, [r3, #60]
1907:./Libraries/STM32H7xx_HAL_Driver/Src/stm32h7xx_hal_tim_ex.c **** 
1908:./Libraries/STM32H7xx_HAL_Driver/Src/stm32h7xx_hal_tim_ex.c ****   return HAL_OK;
 5688              		.loc 1 1908 10
 5689 00da 0023     		movs	r3, #0
 5690              	.L364:
1909:./Libraries/STM32H7xx_HAL_Driver/Src/stm32h7xx_hal_tim_ex.c **** }
 5691              		.loc 1 1909 1
 5692 00dc 1846     		mov	r0, r3
 5693 00de 1437     		adds	r7, r7, #20
 5694              	.LCFI147:
 5695              		.cfi_def_cfa_offset 4
 5696 00e0 BD46     		mov	sp, r7
 5697              	.LCFI148:
ARM GAS  /tmp/ccxx2olO.s 			page 136


 5698              		.cfi_def_cfa_register 13
 5699              		@ sp needed
 5700 00e2 5DF8047B 		ldr	r7, [sp], #4
 5701              	.LCFI149:
 5702              		.cfi_restore 7
 5703              		.cfi_def_cfa_offset 0
 5704 00e6 7047     		bx	lr
 5705              	.L368:
 5706              		.align	2
 5707              	.L367:
 5708 00e8 10002000 		.word	2097168
 5709 00ec 8FFFCFFF 		.word	-3145841
 5710 00f0 00000000 		.word	TIMEx_DMACommutationCplt
 5711 00f4 00000000 		.word	TIMEx_DMACommutationHalfCplt
 5712 00f8 00000000 		.word	TIM_DMAError
 5713              		.cfi_endproc
 5714              	.LFE359:
 5716              		.section	.text.HAL_TIMEx_MasterConfigSynchronization,"ax",%progbits
 5717              		.align	1
 5718              		.global	HAL_TIMEx_MasterConfigSynchronization
 5719              		.syntax unified
 5720              		.thumb
 5721              		.thumb_func
 5722              		.fpu fpv5-d16
 5724              	HAL_TIMEx_MasterConfigSynchronization:
 5725              	.LFB360:
1910:./Libraries/STM32H7xx_HAL_Driver/Src/stm32h7xx_hal_tim_ex.c **** 
1911:./Libraries/STM32H7xx_HAL_Driver/Src/stm32h7xx_hal_tim_ex.c **** /**
1912:./Libraries/STM32H7xx_HAL_Driver/Src/stm32h7xx_hal_tim_ex.c ****   * @brief  Configures the TIM in master mode.
1913:./Libraries/STM32H7xx_HAL_Driver/Src/stm32h7xx_hal_tim_ex.c ****   * @param  htim TIM handle.
1914:./Libraries/STM32H7xx_HAL_Driver/Src/stm32h7xx_hal_tim_ex.c ****   * @param  sMasterConfig pointer to a TIM_MasterConfigTypeDef structure that
1915:./Libraries/STM32H7xx_HAL_Driver/Src/stm32h7xx_hal_tim_ex.c ****   *         contains the selected trigger output (TRGO) and the Master/Slave
1916:./Libraries/STM32H7xx_HAL_Driver/Src/stm32h7xx_hal_tim_ex.c ****   *         mode.
1917:./Libraries/STM32H7xx_HAL_Driver/Src/stm32h7xx_hal_tim_ex.c ****   * @retval HAL status
1918:./Libraries/STM32H7xx_HAL_Driver/Src/stm32h7xx_hal_tim_ex.c ****   */
1919:./Libraries/STM32H7xx_HAL_Driver/Src/stm32h7xx_hal_tim_ex.c **** HAL_StatusTypeDef HAL_TIMEx_MasterConfigSynchronization(TIM_HandleTypeDef *htim,
1920:./Libraries/STM32H7xx_HAL_Driver/Src/stm32h7xx_hal_tim_ex.c ****                                                         TIM_MasterConfigTypeDef *sMasterConfig)
1921:./Libraries/STM32H7xx_HAL_Driver/Src/stm32h7xx_hal_tim_ex.c **** {
 5726              		.loc 1 1921 1
 5727              		.cfi_startproc
 5728              		@ args = 0, pretend = 0, frame = 16
 5729              		@ frame_needed = 1, uses_anonymous_args = 0
 5730              		@ link register save eliminated.
 5731 0000 80B4     		push	{r7}
 5732              	.LCFI150:
 5733              		.cfi_def_cfa_offset 4
 5734              		.cfi_offset 7, -4
 5735 0002 85B0     		sub	sp, sp, #20
 5736              	.LCFI151:
 5737              		.cfi_def_cfa_offset 24
 5738 0004 00AF     		add	r7, sp, #0
 5739              	.LCFI152:
 5740              		.cfi_def_cfa_register 7
 5741 0006 7860     		str	r0, [r7, #4]
 5742 0008 3960     		str	r1, [r7]
1922:./Libraries/STM32H7xx_HAL_Driver/Src/stm32h7xx_hal_tim_ex.c ****   uint32_t tmpcr2;
1923:./Libraries/STM32H7xx_HAL_Driver/Src/stm32h7xx_hal_tim_ex.c ****   uint32_t tmpsmcr;
ARM GAS  /tmp/ccxx2olO.s 			page 137


1924:./Libraries/STM32H7xx_HAL_Driver/Src/stm32h7xx_hal_tim_ex.c **** 
1925:./Libraries/STM32H7xx_HAL_Driver/Src/stm32h7xx_hal_tim_ex.c ****   /* Check the parameters */
1926:./Libraries/STM32H7xx_HAL_Driver/Src/stm32h7xx_hal_tim_ex.c ****   assert_param(IS_TIM_MASTER_INSTANCE(htim->Instance));
1927:./Libraries/STM32H7xx_HAL_Driver/Src/stm32h7xx_hal_tim_ex.c ****   assert_param(IS_TIM_TRGO_SOURCE(sMasterConfig->MasterOutputTrigger));
1928:./Libraries/STM32H7xx_HAL_Driver/Src/stm32h7xx_hal_tim_ex.c ****   assert_param(IS_TIM_MSM_STATE(sMasterConfig->MasterSlaveMode));
1929:./Libraries/STM32H7xx_HAL_Driver/Src/stm32h7xx_hal_tim_ex.c **** 
1930:./Libraries/STM32H7xx_HAL_Driver/Src/stm32h7xx_hal_tim_ex.c ****   /* Check input state */
1931:./Libraries/STM32H7xx_HAL_Driver/Src/stm32h7xx_hal_tim_ex.c ****   __HAL_LOCK(htim);
 5743              		.loc 1 1931 3
 5744 000a 7B68     		ldr	r3, [r7, #4]
 5745 000c 93F83C30 		ldrb	r3, [r3, #60]	@ zero_extendqisi2
 5746 0010 012B     		cmp	r3, #1
 5747 0012 01D1     		bne	.L370
 5748              		.loc 1 1931 3 is_stmt 0 discriminator 1
 5749 0014 0223     		movs	r3, #2
 5750 0016 68E0     		b	.L371
 5751              	.L370:
 5752              		.loc 1 1931 3 discriminator 2
 5753 0018 7B68     		ldr	r3, [r7, #4]
 5754 001a 0122     		movs	r2, #1
 5755 001c 83F83C20 		strb	r2, [r3, #60]
1932:./Libraries/STM32H7xx_HAL_Driver/Src/stm32h7xx_hal_tim_ex.c **** 
1933:./Libraries/STM32H7xx_HAL_Driver/Src/stm32h7xx_hal_tim_ex.c ****   /* Change the handler state */
1934:./Libraries/STM32H7xx_HAL_Driver/Src/stm32h7xx_hal_tim_ex.c ****   htim->State = HAL_TIM_STATE_BUSY;
 5756              		.loc 1 1934 15 is_stmt 1 discriminator 2
 5757 0020 7B68     		ldr	r3, [r7, #4]
 5758 0022 0222     		movs	r2, #2
 5759 0024 83F83D20 		strb	r2, [r3, #61]
1935:./Libraries/STM32H7xx_HAL_Driver/Src/stm32h7xx_hal_tim_ex.c **** 
1936:./Libraries/STM32H7xx_HAL_Driver/Src/stm32h7xx_hal_tim_ex.c ****   /* Get the TIMx CR2 register value */
1937:./Libraries/STM32H7xx_HAL_Driver/Src/stm32h7xx_hal_tim_ex.c ****   tmpcr2 = htim->Instance->CR2;
 5760              		.loc 1 1937 16 discriminator 2
 5761 0028 7B68     		ldr	r3, [r7, #4]
 5762 002a 1B68     		ldr	r3, [r3]
 5763              		.loc 1 1937 10 discriminator 2
 5764 002c 5B68     		ldr	r3, [r3, #4]
 5765 002e FB60     		str	r3, [r7, #12]
1938:./Libraries/STM32H7xx_HAL_Driver/Src/stm32h7xx_hal_tim_ex.c **** 
1939:./Libraries/STM32H7xx_HAL_Driver/Src/stm32h7xx_hal_tim_ex.c ****   /* Get the TIMx SMCR register value */
1940:./Libraries/STM32H7xx_HAL_Driver/Src/stm32h7xx_hal_tim_ex.c ****   tmpsmcr = htim->Instance->SMCR;
 5766              		.loc 1 1940 17 discriminator 2
 5767 0030 7B68     		ldr	r3, [r7, #4]
 5768 0032 1B68     		ldr	r3, [r3]
 5769              		.loc 1 1940 11 discriminator 2
 5770 0034 9B68     		ldr	r3, [r3, #8]
 5771 0036 BB60     		str	r3, [r7, #8]
1941:./Libraries/STM32H7xx_HAL_Driver/Src/stm32h7xx_hal_tim_ex.c **** 
1942:./Libraries/STM32H7xx_HAL_Driver/Src/stm32h7xx_hal_tim_ex.c ****   /* If the timer supports ADC synchronization through TRGO2, set the master mode selection 2 */
1943:./Libraries/STM32H7xx_HAL_Driver/Src/stm32h7xx_hal_tim_ex.c ****   if (IS_TIM_TRGO2_INSTANCE(htim->Instance))
 5772              		.loc 1 1943 7 discriminator 2
 5773 0038 7B68     		ldr	r3, [r7, #4]
 5774 003a 1B68     		ldr	r3, [r3]
 5775              		.loc 1 1943 6 discriminator 2
 5776 003c 2E4A     		ldr	r2, .L376
 5777 003e 9342     		cmp	r3, r2
 5778 0040 04D0     		beq	.L372
 5779              		.loc 1 1943 7 discriminator 1
ARM GAS  /tmp/ccxx2olO.s 			page 138


 5780 0042 7B68     		ldr	r3, [r7, #4]
 5781 0044 1B68     		ldr	r3, [r3]
 5782 0046 2D4A     		ldr	r2, .L376+4
 5783 0048 9342     		cmp	r3, r2
 5784 004a 08D1     		bne	.L373
 5785              	.L372:
1944:./Libraries/STM32H7xx_HAL_Driver/Src/stm32h7xx_hal_tim_ex.c ****   {
1945:./Libraries/STM32H7xx_HAL_Driver/Src/stm32h7xx_hal_tim_ex.c ****     /* Check the parameters */
1946:./Libraries/STM32H7xx_HAL_Driver/Src/stm32h7xx_hal_tim_ex.c ****     assert_param(IS_TIM_TRGO2_SOURCE(sMasterConfig->MasterOutputTrigger2));
1947:./Libraries/STM32H7xx_HAL_Driver/Src/stm32h7xx_hal_tim_ex.c **** 
1948:./Libraries/STM32H7xx_HAL_Driver/Src/stm32h7xx_hal_tim_ex.c ****     /* Clear the MMS2 bits */
1949:./Libraries/STM32H7xx_HAL_Driver/Src/stm32h7xx_hal_tim_ex.c ****     tmpcr2 &= ~TIM_CR2_MMS2;
 5786              		.loc 1 1949 12
 5787 004c FB68     		ldr	r3, [r7, #12]
 5788 004e 23F47003 		bic	r3, r3, #15728640
 5789 0052 FB60     		str	r3, [r7, #12]
1950:./Libraries/STM32H7xx_HAL_Driver/Src/stm32h7xx_hal_tim_ex.c ****     /* Select the TRGO2 source*/
1951:./Libraries/STM32H7xx_HAL_Driver/Src/stm32h7xx_hal_tim_ex.c ****     tmpcr2 |= sMasterConfig->MasterOutputTrigger2;
 5790              		.loc 1 1951 28
 5791 0054 3B68     		ldr	r3, [r7]
 5792 0056 5B68     		ldr	r3, [r3, #4]
 5793              		.loc 1 1951 12
 5794 0058 FA68     		ldr	r2, [r7, #12]
 5795 005a 1343     		orrs	r3, r3, r2
 5796 005c FB60     		str	r3, [r7, #12]
 5797              	.L373:
1952:./Libraries/STM32H7xx_HAL_Driver/Src/stm32h7xx_hal_tim_ex.c ****   }
1953:./Libraries/STM32H7xx_HAL_Driver/Src/stm32h7xx_hal_tim_ex.c **** 
1954:./Libraries/STM32H7xx_HAL_Driver/Src/stm32h7xx_hal_tim_ex.c ****   /* Reset the MMS Bits */
1955:./Libraries/STM32H7xx_HAL_Driver/Src/stm32h7xx_hal_tim_ex.c ****   tmpcr2 &= ~TIM_CR2_MMS;
 5798              		.loc 1 1955 10
 5799 005e FB68     		ldr	r3, [r7, #12]
 5800 0060 23F07003 		bic	r3, r3, #112
 5801 0064 FB60     		str	r3, [r7, #12]
1956:./Libraries/STM32H7xx_HAL_Driver/Src/stm32h7xx_hal_tim_ex.c ****   /* Select the TRGO source */
1957:./Libraries/STM32H7xx_HAL_Driver/Src/stm32h7xx_hal_tim_ex.c ****   tmpcr2 |=  sMasterConfig->MasterOutputTrigger;
 5802              		.loc 1 1957 27
 5803 0066 3B68     		ldr	r3, [r7]
 5804 0068 1B68     		ldr	r3, [r3]
 5805              		.loc 1 1957 10
 5806 006a FA68     		ldr	r2, [r7, #12]
 5807 006c 1343     		orrs	r3, r3, r2
 5808 006e FB60     		str	r3, [r7, #12]
1958:./Libraries/STM32H7xx_HAL_Driver/Src/stm32h7xx_hal_tim_ex.c **** 
1959:./Libraries/STM32H7xx_HAL_Driver/Src/stm32h7xx_hal_tim_ex.c ****   /* Update TIMx CR2 */
1960:./Libraries/STM32H7xx_HAL_Driver/Src/stm32h7xx_hal_tim_ex.c ****   htim->Instance->CR2 = tmpcr2;
 5809              		.loc 1 1960 7
 5810 0070 7B68     		ldr	r3, [r7, #4]
 5811 0072 1B68     		ldr	r3, [r3]
 5812              		.loc 1 1960 23
 5813 0074 FA68     		ldr	r2, [r7, #12]
 5814 0076 5A60     		str	r2, [r3, #4]
1961:./Libraries/STM32H7xx_HAL_Driver/Src/stm32h7xx_hal_tim_ex.c **** 
1962:./Libraries/STM32H7xx_HAL_Driver/Src/stm32h7xx_hal_tim_ex.c ****   if (IS_TIM_SLAVE_INSTANCE(htim->Instance))
 5815              		.loc 1 1962 7
 5816 0078 7B68     		ldr	r3, [r7, #4]
 5817 007a 1B68     		ldr	r3, [r3]
ARM GAS  /tmp/ccxx2olO.s 			page 139


 5818              		.loc 1 1962 6
 5819 007c 1E4A     		ldr	r2, .L376
 5820 007e 9342     		cmp	r3, r2
 5821 0080 1DD0     		beq	.L374
 5822              		.loc 1 1962 7 discriminator 1
 5823 0082 7B68     		ldr	r3, [r7, #4]
 5824 0084 1B68     		ldr	r3, [r3]
 5825 0086 B3F1804F 		cmp	r3, #1073741824
 5826 008a 18D0     		beq	.L374
 5827              		.loc 1 1962 7 is_stmt 0 discriminator 2
 5828 008c 7B68     		ldr	r3, [r7, #4]
 5829 008e 1B68     		ldr	r3, [r3]
 5830 0090 1B4A     		ldr	r2, .L376+8
 5831 0092 9342     		cmp	r3, r2
 5832 0094 13D0     		beq	.L374
 5833              		.loc 1 1962 7 discriminator 3
 5834 0096 7B68     		ldr	r3, [r7, #4]
 5835 0098 1B68     		ldr	r3, [r3]
 5836 009a 1A4A     		ldr	r2, .L376+12
 5837 009c 9342     		cmp	r3, r2
 5838 009e 0ED0     		beq	.L374
 5839              		.loc 1 1962 7 discriminator 4
 5840 00a0 7B68     		ldr	r3, [r7, #4]
 5841 00a2 1B68     		ldr	r3, [r3]
 5842 00a4 184A     		ldr	r2, .L376+16
 5843 00a6 9342     		cmp	r3, r2
 5844 00a8 09D0     		beq	.L374
 5845              		.loc 1 1962 7 discriminator 5
 5846 00aa 7B68     		ldr	r3, [r7, #4]
 5847 00ac 1B68     		ldr	r3, [r3]
 5848 00ae 134A     		ldr	r2, .L376+4
 5849 00b0 9342     		cmp	r3, r2
 5850 00b2 04D0     		beq	.L374
 5851              		.loc 1 1962 7 discriminator 6
 5852 00b4 7B68     		ldr	r3, [r7, #4]
 5853 00b6 1B68     		ldr	r3, [r3]
 5854 00b8 144A     		ldr	r2, .L376+20
 5855 00ba 9342     		cmp	r3, r2
 5856 00bc 0CD1     		bne	.L375
 5857              	.L374:
1963:./Libraries/STM32H7xx_HAL_Driver/Src/stm32h7xx_hal_tim_ex.c ****   {
1964:./Libraries/STM32H7xx_HAL_Driver/Src/stm32h7xx_hal_tim_ex.c ****     /* Reset the MSM Bit */
1965:./Libraries/STM32H7xx_HAL_Driver/Src/stm32h7xx_hal_tim_ex.c ****     tmpsmcr &= ~TIM_SMCR_MSM;
 5858              		.loc 1 1965 13 is_stmt 1
 5859 00be BB68     		ldr	r3, [r7, #8]
 5860 00c0 23F08003 		bic	r3, r3, #128
 5861 00c4 BB60     		str	r3, [r7, #8]
1966:./Libraries/STM32H7xx_HAL_Driver/Src/stm32h7xx_hal_tim_ex.c ****     /* Set master mode */
1967:./Libraries/STM32H7xx_HAL_Driver/Src/stm32h7xx_hal_tim_ex.c ****     tmpsmcr |= sMasterConfig->MasterSlaveMode;
 5862              		.loc 1 1967 29
 5863 00c6 3B68     		ldr	r3, [r7]
 5864 00c8 9B68     		ldr	r3, [r3, #8]
 5865              		.loc 1 1967 13
 5866 00ca BA68     		ldr	r2, [r7, #8]
 5867 00cc 1343     		orrs	r3, r3, r2
 5868 00ce BB60     		str	r3, [r7, #8]
1968:./Libraries/STM32H7xx_HAL_Driver/Src/stm32h7xx_hal_tim_ex.c **** 
ARM GAS  /tmp/ccxx2olO.s 			page 140


1969:./Libraries/STM32H7xx_HAL_Driver/Src/stm32h7xx_hal_tim_ex.c ****     /* Update TIMx SMCR */
1970:./Libraries/STM32H7xx_HAL_Driver/Src/stm32h7xx_hal_tim_ex.c ****     htim->Instance->SMCR = tmpsmcr;
 5869              		.loc 1 1970 9
 5870 00d0 7B68     		ldr	r3, [r7, #4]
 5871 00d2 1B68     		ldr	r3, [r3]
 5872              		.loc 1 1970 26
 5873 00d4 BA68     		ldr	r2, [r7, #8]
 5874 00d6 9A60     		str	r2, [r3, #8]
 5875              	.L375:
1971:./Libraries/STM32H7xx_HAL_Driver/Src/stm32h7xx_hal_tim_ex.c ****   }
1972:./Libraries/STM32H7xx_HAL_Driver/Src/stm32h7xx_hal_tim_ex.c **** 
1973:./Libraries/STM32H7xx_HAL_Driver/Src/stm32h7xx_hal_tim_ex.c ****   /* Change the htim state */
1974:./Libraries/STM32H7xx_HAL_Driver/Src/stm32h7xx_hal_tim_ex.c ****   htim->State = HAL_TIM_STATE_READY;
 5876              		.loc 1 1974 15
 5877 00d8 7B68     		ldr	r3, [r7, #4]
 5878 00da 0122     		movs	r2, #1
 5879 00dc 83F83D20 		strb	r2, [r3, #61]
1975:./Libraries/STM32H7xx_HAL_Driver/Src/stm32h7xx_hal_tim_ex.c **** 
1976:./Libraries/STM32H7xx_HAL_Driver/Src/stm32h7xx_hal_tim_ex.c ****   __HAL_UNLOCK(htim);
 5880              		.loc 1 1976 3
 5881 00e0 7B68     		ldr	r3, [r7, #4]
 5882 00e2 0022     		movs	r2, #0
 5883 00e4 83F83C20 		strb	r2, [r3, #60]
1977:./Libraries/STM32H7xx_HAL_Driver/Src/stm32h7xx_hal_tim_ex.c **** 
1978:./Libraries/STM32H7xx_HAL_Driver/Src/stm32h7xx_hal_tim_ex.c ****   return HAL_OK;
 5884              		.loc 1 1978 10
 5885 00e8 0023     		movs	r3, #0
 5886              	.L371:
1979:./Libraries/STM32H7xx_HAL_Driver/Src/stm32h7xx_hal_tim_ex.c **** }
 5887              		.loc 1 1979 1
 5888 00ea 1846     		mov	r0, r3
 5889 00ec 1437     		adds	r7, r7, #20
 5890              	.LCFI153:
 5891              		.cfi_def_cfa_offset 4
 5892 00ee BD46     		mov	sp, r7
 5893              	.LCFI154:
 5894              		.cfi_def_cfa_register 13
 5895              		@ sp needed
 5896 00f0 5DF8047B 		ldr	r7, [sp], #4
 5897              	.LCFI155:
 5898              		.cfi_restore 7
 5899              		.cfi_def_cfa_offset 0
 5900 00f4 7047     		bx	lr
 5901              	.L377:
 5902 00f6 00BF     		.align	2
 5903              	.L376:
 5904 00f8 00000140 		.word	1073807360
 5905 00fc 00040140 		.word	1073808384
 5906 0100 00040040 		.word	1073742848
 5907 0104 00080040 		.word	1073743872
 5908 0108 000C0040 		.word	1073744896
 5909 010c 00180040 		.word	1073747968
 5910              		.cfi_endproc
 5911              	.LFE360:
 5913              		.section	.text.HAL_TIMEx_ConfigBreakDeadTime,"ax",%progbits
 5914              		.align	1
 5915              		.global	HAL_TIMEx_ConfigBreakDeadTime
ARM GAS  /tmp/ccxx2olO.s 			page 141


 5916              		.syntax unified
 5917              		.thumb
 5918              		.thumb_func
 5919              		.fpu fpv5-d16
 5921              	HAL_TIMEx_ConfigBreakDeadTime:
 5922              	.LFB361:
1980:./Libraries/STM32H7xx_HAL_Driver/Src/stm32h7xx_hal_tim_ex.c **** 
1981:./Libraries/STM32H7xx_HAL_Driver/Src/stm32h7xx_hal_tim_ex.c **** /**
1982:./Libraries/STM32H7xx_HAL_Driver/Src/stm32h7xx_hal_tim_ex.c ****   * @brief  Configures the Break feature, dead time, Lock level, OSSI/OSSR State
1983:./Libraries/STM32H7xx_HAL_Driver/Src/stm32h7xx_hal_tim_ex.c ****   *         and the AOE(automatic output enable).
1984:./Libraries/STM32H7xx_HAL_Driver/Src/stm32h7xx_hal_tim_ex.c ****   * @param  htim TIM handle
1985:./Libraries/STM32H7xx_HAL_Driver/Src/stm32h7xx_hal_tim_ex.c ****   * @param  sBreakDeadTimeConfig pointer to a TIM_ConfigBreakDeadConfigTypeDef structure that
1986:./Libraries/STM32H7xx_HAL_Driver/Src/stm32h7xx_hal_tim_ex.c ****   *         contains the BDTR Register configuration  information for the TIM peripheral.
1987:./Libraries/STM32H7xx_HAL_Driver/Src/stm32h7xx_hal_tim_ex.c ****   * @note   Interrupts can be generated when an active level is detected on the
1988:./Libraries/STM32H7xx_HAL_Driver/Src/stm32h7xx_hal_tim_ex.c ****   *         break input, the break 2 input or the system break input. Break
1989:./Libraries/STM32H7xx_HAL_Driver/Src/stm32h7xx_hal_tim_ex.c ****   *         interrupt can be enabled by calling the @ref __HAL_TIM_ENABLE_IT macro.
1990:./Libraries/STM32H7xx_HAL_Driver/Src/stm32h7xx_hal_tim_ex.c ****   * @retval HAL status
1991:./Libraries/STM32H7xx_HAL_Driver/Src/stm32h7xx_hal_tim_ex.c ****   */
1992:./Libraries/STM32H7xx_HAL_Driver/Src/stm32h7xx_hal_tim_ex.c **** HAL_StatusTypeDef HAL_TIMEx_ConfigBreakDeadTime(TIM_HandleTypeDef *htim,
1993:./Libraries/STM32H7xx_HAL_Driver/Src/stm32h7xx_hal_tim_ex.c ****                                                 TIM_BreakDeadTimeConfigTypeDef *sBreakDeadTimeConfi
1994:./Libraries/STM32H7xx_HAL_Driver/Src/stm32h7xx_hal_tim_ex.c **** {
 5923              		.loc 1 1994 1
 5924              		.cfi_startproc
 5925              		@ args = 0, pretend = 0, frame = 16
 5926              		@ frame_needed = 1, uses_anonymous_args = 0
 5927              		@ link register save eliminated.
 5928 0000 80B4     		push	{r7}
 5929              	.LCFI156:
 5930              		.cfi_def_cfa_offset 4
 5931              		.cfi_offset 7, -4
 5932 0002 85B0     		sub	sp, sp, #20
 5933              	.LCFI157:
 5934              		.cfi_def_cfa_offset 24
 5935 0004 00AF     		add	r7, sp, #0
 5936              	.LCFI158:
 5937              		.cfi_def_cfa_register 7
 5938 0006 7860     		str	r0, [r7, #4]
 5939 0008 3960     		str	r1, [r7]
1995:./Libraries/STM32H7xx_HAL_Driver/Src/stm32h7xx_hal_tim_ex.c ****   /* Keep this variable initialized to 0 as it is used to configure BDTR register */
1996:./Libraries/STM32H7xx_HAL_Driver/Src/stm32h7xx_hal_tim_ex.c ****   uint32_t tmpbdtr = 0U;
 5940              		.loc 1 1996 12
 5941 000a 0023     		movs	r3, #0
 5942 000c FB60     		str	r3, [r7, #12]
1997:./Libraries/STM32H7xx_HAL_Driver/Src/stm32h7xx_hal_tim_ex.c **** 
1998:./Libraries/STM32H7xx_HAL_Driver/Src/stm32h7xx_hal_tim_ex.c ****   /* Check the parameters */
1999:./Libraries/STM32H7xx_HAL_Driver/Src/stm32h7xx_hal_tim_ex.c ****   assert_param(IS_TIM_BREAK_INSTANCE(htim->Instance));
2000:./Libraries/STM32H7xx_HAL_Driver/Src/stm32h7xx_hal_tim_ex.c ****   assert_param(IS_TIM_OSSR_STATE(sBreakDeadTimeConfig->OffStateRunMode));
2001:./Libraries/STM32H7xx_HAL_Driver/Src/stm32h7xx_hal_tim_ex.c ****   assert_param(IS_TIM_OSSI_STATE(sBreakDeadTimeConfig->OffStateIDLEMode));
2002:./Libraries/STM32H7xx_HAL_Driver/Src/stm32h7xx_hal_tim_ex.c ****   assert_param(IS_TIM_LOCK_LEVEL(sBreakDeadTimeConfig->LockLevel));
2003:./Libraries/STM32H7xx_HAL_Driver/Src/stm32h7xx_hal_tim_ex.c ****   assert_param(IS_TIM_DEADTIME(sBreakDeadTimeConfig->DeadTime));
2004:./Libraries/STM32H7xx_HAL_Driver/Src/stm32h7xx_hal_tim_ex.c ****   assert_param(IS_TIM_BREAK_STATE(sBreakDeadTimeConfig->BreakState));
2005:./Libraries/STM32H7xx_HAL_Driver/Src/stm32h7xx_hal_tim_ex.c ****   assert_param(IS_TIM_BREAK_POLARITY(sBreakDeadTimeConfig->BreakPolarity));
2006:./Libraries/STM32H7xx_HAL_Driver/Src/stm32h7xx_hal_tim_ex.c ****   assert_param(IS_TIM_BREAK_FILTER(sBreakDeadTimeConfig->BreakFilter));
2007:./Libraries/STM32H7xx_HAL_Driver/Src/stm32h7xx_hal_tim_ex.c ****   assert_param(IS_TIM_AUTOMATIC_OUTPUT_STATE(sBreakDeadTimeConfig->AutomaticOutput));
2008:./Libraries/STM32H7xx_HAL_Driver/Src/stm32h7xx_hal_tim_ex.c **** 
2009:./Libraries/STM32H7xx_HAL_Driver/Src/stm32h7xx_hal_tim_ex.c ****   /* Check input state */
2010:./Libraries/STM32H7xx_HAL_Driver/Src/stm32h7xx_hal_tim_ex.c ****   __HAL_LOCK(htim);
ARM GAS  /tmp/ccxx2olO.s 			page 142


 5943              		.loc 1 2010 3
 5944 000e 7B68     		ldr	r3, [r7, #4]
 5945 0010 93F83C30 		ldrb	r3, [r3, #60]	@ zero_extendqisi2
 5946 0014 012B     		cmp	r3, #1
 5947 0016 01D1     		bne	.L379
 5948              		.loc 1 2010 3 is_stmt 0 discriminator 1
 5949 0018 0223     		movs	r3, #2
 5950 001a 65E0     		b	.L380
 5951              	.L379:
 5952              		.loc 1 2010 3 discriminator 2
 5953 001c 7B68     		ldr	r3, [r7, #4]
 5954 001e 0122     		movs	r2, #1
 5955 0020 83F83C20 		strb	r2, [r3, #60]
2011:./Libraries/STM32H7xx_HAL_Driver/Src/stm32h7xx_hal_tim_ex.c **** 
2012:./Libraries/STM32H7xx_HAL_Driver/Src/stm32h7xx_hal_tim_ex.c ****   /* Set the Lock level, the Break enable Bit and the Polarity, the OSSR State,
2013:./Libraries/STM32H7xx_HAL_Driver/Src/stm32h7xx_hal_tim_ex.c ****      the OSSI State, the dead time value and the Automatic Output Enable Bit */
2014:./Libraries/STM32H7xx_HAL_Driver/Src/stm32h7xx_hal_tim_ex.c **** 
2015:./Libraries/STM32H7xx_HAL_Driver/Src/stm32h7xx_hal_tim_ex.c ****   /* Set the BDTR bits */
2016:./Libraries/STM32H7xx_HAL_Driver/Src/stm32h7xx_hal_tim_ex.c ****   MODIFY_REG(tmpbdtr, TIM_BDTR_DTG, sBreakDeadTimeConfig->DeadTime);
 5956              		.loc 1 2016 3 is_stmt 1 discriminator 2
 5957 0024 FB68     		ldr	r3, [r7, #12]
 5958 0026 23F0FF02 		bic	r2, r3, #255
 5959 002a 3B68     		ldr	r3, [r7]
 5960 002c DB68     		ldr	r3, [r3, #12]
 5961 002e 1343     		orrs	r3, r3, r2
 5962 0030 FB60     		str	r3, [r7, #12]
2017:./Libraries/STM32H7xx_HAL_Driver/Src/stm32h7xx_hal_tim_ex.c ****   MODIFY_REG(tmpbdtr, TIM_BDTR_LOCK, sBreakDeadTimeConfig->LockLevel);
 5963              		.loc 1 2017 3 discriminator 2
 5964 0032 FB68     		ldr	r3, [r7, #12]
 5965 0034 23F44072 		bic	r2, r3, #768
 5966 0038 3B68     		ldr	r3, [r7]
 5967 003a 9B68     		ldr	r3, [r3, #8]
 5968 003c 1343     		orrs	r3, r3, r2
 5969 003e FB60     		str	r3, [r7, #12]
2018:./Libraries/STM32H7xx_HAL_Driver/Src/stm32h7xx_hal_tim_ex.c ****   MODIFY_REG(tmpbdtr, TIM_BDTR_OSSI, sBreakDeadTimeConfig->OffStateIDLEMode);
 5970              		.loc 1 2018 3 discriminator 2
 5971 0040 FB68     		ldr	r3, [r7, #12]
 5972 0042 23F48062 		bic	r2, r3, #1024
 5973 0046 3B68     		ldr	r3, [r7]
 5974 0048 5B68     		ldr	r3, [r3, #4]
 5975 004a 1343     		orrs	r3, r3, r2
 5976 004c FB60     		str	r3, [r7, #12]
2019:./Libraries/STM32H7xx_HAL_Driver/Src/stm32h7xx_hal_tim_ex.c ****   MODIFY_REG(tmpbdtr, TIM_BDTR_OSSR, sBreakDeadTimeConfig->OffStateRunMode);
 5977              		.loc 1 2019 3 discriminator 2
 5978 004e FB68     		ldr	r3, [r7, #12]
 5979 0050 23F40062 		bic	r2, r3, #2048
 5980 0054 3B68     		ldr	r3, [r7]
 5981 0056 1B68     		ldr	r3, [r3]
 5982 0058 1343     		orrs	r3, r3, r2
 5983 005a FB60     		str	r3, [r7, #12]
2020:./Libraries/STM32H7xx_HAL_Driver/Src/stm32h7xx_hal_tim_ex.c ****   MODIFY_REG(tmpbdtr, TIM_BDTR_BKE, sBreakDeadTimeConfig->BreakState);
 5984              		.loc 1 2020 3 discriminator 2
 5985 005c FB68     		ldr	r3, [r7, #12]
 5986 005e 23F48052 		bic	r2, r3, #4096
 5987 0062 3B68     		ldr	r3, [r7]
 5988 0064 1B69     		ldr	r3, [r3, #16]
 5989 0066 1343     		orrs	r3, r3, r2
ARM GAS  /tmp/ccxx2olO.s 			page 143


 5990 0068 FB60     		str	r3, [r7, #12]
2021:./Libraries/STM32H7xx_HAL_Driver/Src/stm32h7xx_hal_tim_ex.c ****   MODIFY_REG(tmpbdtr, TIM_BDTR_BKP, sBreakDeadTimeConfig->BreakPolarity);
 5991              		.loc 1 2021 3 discriminator 2
 5992 006a FB68     		ldr	r3, [r7, #12]
 5993 006c 23F40052 		bic	r2, r3, #8192
 5994 0070 3B68     		ldr	r3, [r7]
 5995 0072 5B69     		ldr	r3, [r3, #20]
 5996 0074 1343     		orrs	r3, r3, r2
 5997 0076 FB60     		str	r3, [r7, #12]
2022:./Libraries/STM32H7xx_HAL_Driver/Src/stm32h7xx_hal_tim_ex.c ****   MODIFY_REG(tmpbdtr, TIM_BDTR_AOE, sBreakDeadTimeConfig->AutomaticOutput);
 5998              		.loc 1 2022 3 discriminator 2
 5999 0078 FB68     		ldr	r3, [r7, #12]
 6000 007a 23F48042 		bic	r2, r3, #16384
 6001 007e 3B68     		ldr	r3, [r7]
 6002 0080 9B6A     		ldr	r3, [r3, #40]
 6003 0082 1343     		orrs	r3, r3, r2
 6004 0084 FB60     		str	r3, [r7, #12]
2023:./Libraries/STM32H7xx_HAL_Driver/Src/stm32h7xx_hal_tim_ex.c ****   MODIFY_REG(tmpbdtr, TIM_BDTR_BKF, (sBreakDeadTimeConfig->BreakFilter << TIM_BDTR_BKF_Pos));
 6005              		.loc 1 2023 3 discriminator 2
 6006 0086 FB68     		ldr	r3, [r7, #12]
 6007 0088 23F47022 		bic	r2, r3, #983040
 6008 008c 3B68     		ldr	r3, [r7]
 6009 008e 9B69     		ldr	r3, [r3, #24]
 6010 0090 1B04     		lsls	r3, r3, #16
 6011 0092 1343     		orrs	r3, r3, r2
 6012 0094 FB60     		str	r3, [r7, #12]
2024:./Libraries/STM32H7xx_HAL_Driver/Src/stm32h7xx_hal_tim_ex.c **** 
2025:./Libraries/STM32H7xx_HAL_Driver/Src/stm32h7xx_hal_tim_ex.c ****   if (IS_TIM_BKIN2_INSTANCE(htim->Instance))
 6013              		.loc 1 2025 7 discriminator 2
 6014 0096 7B68     		ldr	r3, [r7, #4]
 6015 0098 1B68     		ldr	r3, [r3]
 6016              		.loc 1 2025 6 discriminator 2
 6017 009a 164A     		ldr	r2, .L383
 6018 009c 9342     		cmp	r3, r2
 6019 009e 04D0     		beq	.L381
 6020              		.loc 1 2025 7 discriminator 1
 6021 00a0 7B68     		ldr	r3, [r7, #4]
 6022 00a2 1B68     		ldr	r3, [r3]
 6023 00a4 144A     		ldr	r2, .L383+4
 6024 00a6 9342     		cmp	r3, r2
 6025 00a8 15D1     		bne	.L382
 6026              	.L381:
2026:./Libraries/STM32H7xx_HAL_Driver/Src/stm32h7xx_hal_tim_ex.c ****   {
2027:./Libraries/STM32H7xx_HAL_Driver/Src/stm32h7xx_hal_tim_ex.c ****     /* Check the parameters */
2028:./Libraries/STM32H7xx_HAL_Driver/Src/stm32h7xx_hal_tim_ex.c ****     assert_param(IS_TIM_BREAK2_STATE(sBreakDeadTimeConfig->Break2State));
2029:./Libraries/STM32H7xx_HAL_Driver/Src/stm32h7xx_hal_tim_ex.c ****     assert_param(IS_TIM_BREAK2_POLARITY(sBreakDeadTimeConfig->Break2Polarity));
2030:./Libraries/STM32H7xx_HAL_Driver/Src/stm32h7xx_hal_tim_ex.c ****     assert_param(IS_TIM_BREAK_FILTER(sBreakDeadTimeConfig->Break2Filter));
2031:./Libraries/STM32H7xx_HAL_Driver/Src/stm32h7xx_hal_tim_ex.c **** 
2032:./Libraries/STM32H7xx_HAL_Driver/Src/stm32h7xx_hal_tim_ex.c ****     /* Set the BREAK2 input related BDTR bits */
2033:./Libraries/STM32H7xx_HAL_Driver/Src/stm32h7xx_hal_tim_ex.c ****     MODIFY_REG(tmpbdtr, TIM_BDTR_BK2F, (sBreakDeadTimeConfig->Break2Filter << TIM_BDTR_BK2F_Pos));
 6027              		.loc 1 2033 5
 6028 00aa FB68     		ldr	r3, [r7, #12]
 6029 00ac 23F47002 		bic	r2, r3, #15728640
 6030 00b0 3B68     		ldr	r3, [r7]
 6031 00b2 5B6A     		ldr	r3, [r3, #36]
 6032 00b4 1B05     		lsls	r3, r3, #20
 6033 00b6 1343     		orrs	r3, r3, r2
ARM GAS  /tmp/ccxx2olO.s 			page 144


 6034 00b8 FB60     		str	r3, [r7, #12]
2034:./Libraries/STM32H7xx_HAL_Driver/Src/stm32h7xx_hal_tim_ex.c ****     MODIFY_REG(tmpbdtr, TIM_BDTR_BK2E, sBreakDeadTimeConfig->Break2State);
 6035              		.loc 1 2034 5
 6036 00ba FB68     		ldr	r3, [r7, #12]
 6037 00bc 23F08072 		bic	r2, r3, #16777216
 6038 00c0 3B68     		ldr	r3, [r7]
 6039 00c2 DB69     		ldr	r3, [r3, #28]
 6040 00c4 1343     		orrs	r3, r3, r2
 6041 00c6 FB60     		str	r3, [r7, #12]
2035:./Libraries/STM32H7xx_HAL_Driver/Src/stm32h7xx_hal_tim_ex.c ****     MODIFY_REG(tmpbdtr, TIM_BDTR_BK2P, sBreakDeadTimeConfig->Break2Polarity);
 6042              		.loc 1 2035 5
 6043 00c8 FB68     		ldr	r3, [r7, #12]
 6044 00ca 23F00072 		bic	r2, r3, #33554432
 6045 00ce 3B68     		ldr	r3, [r7]
 6046 00d0 1B6A     		ldr	r3, [r3, #32]
 6047 00d2 1343     		orrs	r3, r3, r2
 6048 00d4 FB60     		str	r3, [r7, #12]
 6049              	.L382:
2036:./Libraries/STM32H7xx_HAL_Driver/Src/stm32h7xx_hal_tim_ex.c ****   }
2037:./Libraries/STM32H7xx_HAL_Driver/Src/stm32h7xx_hal_tim_ex.c **** 
2038:./Libraries/STM32H7xx_HAL_Driver/Src/stm32h7xx_hal_tim_ex.c ****   /* Set TIMx_BDTR */
2039:./Libraries/STM32H7xx_HAL_Driver/Src/stm32h7xx_hal_tim_ex.c ****   htim->Instance->BDTR = tmpbdtr;
 6050              		.loc 1 2039 7
 6051 00d6 7B68     		ldr	r3, [r7, #4]
 6052 00d8 1B68     		ldr	r3, [r3]
 6053              		.loc 1 2039 24
 6054 00da FA68     		ldr	r2, [r7, #12]
 6055 00dc 5A64     		str	r2, [r3, #68]
2040:./Libraries/STM32H7xx_HAL_Driver/Src/stm32h7xx_hal_tim_ex.c **** 
2041:./Libraries/STM32H7xx_HAL_Driver/Src/stm32h7xx_hal_tim_ex.c ****   __HAL_UNLOCK(htim);
 6056              		.loc 1 2041 3
 6057 00de 7B68     		ldr	r3, [r7, #4]
 6058 00e0 0022     		movs	r2, #0
 6059 00e2 83F83C20 		strb	r2, [r3, #60]
2042:./Libraries/STM32H7xx_HAL_Driver/Src/stm32h7xx_hal_tim_ex.c **** 
2043:./Libraries/STM32H7xx_HAL_Driver/Src/stm32h7xx_hal_tim_ex.c ****   return HAL_OK;
 6060              		.loc 1 2043 10
 6061 00e6 0023     		movs	r3, #0
 6062              	.L380:
2044:./Libraries/STM32H7xx_HAL_Driver/Src/stm32h7xx_hal_tim_ex.c **** }
 6063              		.loc 1 2044 1
 6064 00e8 1846     		mov	r0, r3
 6065 00ea 1437     		adds	r7, r7, #20
 6066              	.LCFI159:
 6067              		.cfi_def_cfa_offset 4
 6068 00ec BD46     		mov	sp, r7
 6069              	.LCFI160:
 6070              		.cfi_def_cfa_register 13
 6071              		@ sp needed
 6072 00ee 5DF8047B 		ldr	r7, [sp], #4
 6073              	.LCFI161:
 6074              		.cfi_restore 7
 6075              		.cfi_def_cfa_offset 0
 6076 00f2 7047     		bx	lr
 6077              	.L384:
 6078              		.align	2
 6079              	.L383:
ARM GAS  /tmp/ccxx2olO.s 			page 145


 6080 00f4 00000140 		.word	1073807360
 6081 00f8 00040140 		.word	1073808384
 6082              		.cfi_endproc
 6083              	.LFE361:
 6085              		.section	.text.HAL_TIMEx_ConfigBreakInput,"ax",%progbits
 6086              		.align	1
 6087              		.global	HAL_TIMEx_ConfigBreakInput
 6088              		.syntax unified
 6089              		.thumb
 6090              		.thumb_func
 6091              		.fpu fpv5-d16
 6093              	HAL_TIMEx_ConfigBreakInput:
 6094              	.LFB362:
2045:./Libraries/STM32H7xx_HAL_Driver/Src/stm32h7xx_hal_tim_ex.c **** #if defined(TIM_BREAK_INPUT_SUPPORT)
2046:./Libraries/STM32H7xx_HAL_Driver/Src/stm32h7xx_hal_tim_ex.c **** 
2047:./Libraries/STM32H7xx_HAL_Driver/Src/stm32h7xx_hal_tim_ex.c **** /**
2048:./Libraries/STM32H7xx_HAL_Driver/Src/stm32h7xx_hal_tim_ex.c ****   * @brief  Configures the break input source.
2049:./Libraries/STM32H7xx_HAL_Driver/Src/stm32h7xx_hal_tim_ex.c ****   * @param  htim TIM handle.
2050:./Libraries/STM32H7xx_HAL_Driver/Src/stm32h7xx_hal_tim_ex.c ****   * @param  BreakInput Break input to configure
2051:./Libraries/STM32H7xx_HAL_Driver/Src/stm32h7xx_hal_tim_ex.c ****   *          This parameter can be one of the following values:
2052:./Libraries/STM32H7xx_HAL_Driver/Src/stm32h7xx_hal_tim_ex.c ****   *            @arg TIM_BREAKINPUT_BRK: Timer break input
2053:./Libraries/STM32H7xx_HAL_Driver/Src/stm32h7xx_hal_tim_ex.c ****   *            @arg TIM_BREAKINPUT_BRK2: Timer break 2 input
2054:./Libraries/STM32H7xx_HAL_Driver/Src/stm32h7xx_hal_tim_ex.c ****   * @param  sBreakInputConfig Break input source configuration
2055:./Libraries/STM32H7xx_HAL_Driver/Src/stm32h7xx_hal_tim_ex.c ****   * @retval HAL status
2056:./Libraries/STM32H7xx_HAL_Driver/Src/stm32h7xx_hal_tim_ex.c ****   */
2057:./Libraries/STM32H7xx_HAL_Driver/Src/stm32h7xx_hal_tim_ex.c **** HAL_StatusTypeDef HAL_TIMEx_ConfigBreakInput(TIM_HandleTypeDef *htim,
2058:./Libraries/STM32H7xx_HAL_Driver/Src/stm32h7xx_hal_tim_ex.c ****                                              uint32_t BreakInput,
2059:./Libraries/STM32H7xx_HAL_Driver/Src/stm32h7xx_hal_tim_ex.c ****                                              TIMEx_BreakInputConfigTypeDef *sBreakInputConfig)
2060:./Libraries/STM32H7xx_HAL_Driver/Src/stm32h7xx_hal_tim_ex.c **** 
2061:./Libraries/STM32H7xx_HAL_Driver/Src/stm32h7xx_hal_tim_ex.c **** {
 6095              		.loc 1 2061 1
 6096              		.cfi_startproc
 6097              		@ args = 0, pretend = 0, frame = 40
 6098              		@ frame_needed = 1, uses_anonymous_args = 0
 6099              		@ link register save eliminated.
 6100 0000 80B4     		push	{r7}
 6101              	.LCFI162:
 6102              		.cfi_def_cfa_offset 4
 6103              		.cfi_offset 7, -4
 6104 0002 8BB0     		sub	sp, sp, #44
 6105              	.LCFI163:
 6106              		.cfi_def_cfa_offset 48
 6107 0004 00AF     		add	r7, sp, #0
 6108              	.LCFI164:
 6109              		.cfi_def_cfa_register 7
 6110 0006 F860     		str	r0, [r7, #12]
 6111 0008 B960     		str	r1, [r7, #8]
 6112 000a 7A60     		str	r2, [r7, #4]
2062:./Libraries/STM32H7xx_HAL_Driver/Src/stm32h7xx_hal_tim_ex.c ****   uint32_t tmporx;
2063:./Libraries/STM32H7xx_HAL_Driver/Src/stm32h7xx_hal_tim_ex.c ****   uint32_t bkin_enable_mask;
2064:./Libraries/STM32H7xx_HAL_Driver/Src/stm32h7xx_hal_tim_ex.c ****   uint32_t bkin_polarity_mask;
2065:./Libraries/STM32H7xx_HAL_Driver/Src/stm32h7xx_hal_tim_ex.c ****   uint32_t bkin_enable_bitpos;
2066:./Libraries/STM32H7xx_HAL_Driver/Src/stm32h7xx_hal_tim_ex.c ****   uint32_t bkin_polarity_bitpos;
2067:./Libraries/STM32H7xx_HAL_Driver/Src/stm32h7xx_hal_tim_ex.c **** 
2068:./Libraries/STM32H7xx_HAL_Driver/Src/stm32h7xx_hal_tim_ex.c ****   /* Check the parameters */
2069:./Libraries/STM32H7xx_HAL_Driver/Src/stm32h7xx_hal_tim_ex.c ****   assert_param(IS_TIM_BREAK_INSTANCE(htim->Instance));
2070:./Libraries/STM32H7xx_HAL_Driver/Src/stm32h7xx_hal_tim_ex.c ****   assert_param(IS_TIM_BREAKINPUT(BreakInput));
ARM GAS  /tmp/ccxx2olO.s 			page 146


2071:./Libraries/STM32H7xx_HAL_Driver/Src/stm32h7xx_hal_tim_ex.c ****   assert_param(IS_TIM_BREAKINPUTSOURCE(sBreakInputConfig->Source));
2072:./Libraries/STM32H7xx_HAL_Driver/Src/stm32h7xx_hal_tim_ex.c ****   assert_param(IS_TIM_BREAKINPUTSOURCE_STATE(sBreakInputConfig->Enable));
2073:./Libraries/STM32H7xx_HAL_Driver/Src/stm32h7xx_hal_tim_ex.c ****   if (sBreakInputConfig->Source != TIM_BREAKINPUTSOURCE_DFSDM1)
2074:./Libraries/STM32H7xx_HAL_Driver/Src/stm32h7xx_hal_tim_ex.c ****   {
2075:./Libraries/STM32H7xx_HAL_Driver/Src/stm32h7xx_hal_tim_ex.c ****     assert_param(IS_TIM_BREAKINPUTSOURCE_POLARITY(sBreakInputConfig->Polarity));
2076:./Libraries/STM32H7xx_HAL_Driver/Src/stm32h7xx_hal_tim_ex.c ****   }
2077:./Libraries/STM32H7xx_HAL_Driver/Src/stm32h7xx_hal_tim_ex.c **** 
2078:./Libraries/STM32H7xx_HAL_Driver/Src/stm32h7xx_hal_tim_ex.c ****   /* Check input state */
2079:./Libraries/STM32H7xx_HAL_Driver/Src/stm32h7xx_hal_tim_ex.c ****   __HAL_LOCK(htim);
 6113              		.loc 1 2079 3
 6114 000c FB68     		ldr	r3, [r7, #12]
 6115 000e 93F83C30 		ldrb	r3, [r3, #60]	@ zero_extendqisi2
 6116 0012 012B     		cmp	r3, #1
 6117 0014 01D1     		bne	.L386
 6118              		.loc 1 2079 3 is_stmt 0 discriminator 1
 6119 0016 0223     		movs	r3, #2
 6120 0018 ABE0     		b	.L387
 6121              	.L386:
 6122              		.loc 1 2079 3 discriminator 2
 6123 001a FB68     		ldr	r3, [r7, #12]
 6124 001c 0122     		movs	r2, #1
 6125 001e 83F83C20 		strb	r2, [r3, #60]
2080:./Libraries/STM32H7xx_HAL_Driver/Src/stm32h7xx_hal_tim_ex.c **** 
2081:./Libraries/STM32H7xx_HAL_Driver/Src/stm32h7xx_hal_tim_ex.c ****   switch (sBreakInputConfig->Source)
 6126              		.loc 1 2081 28 is_stmt 1 discriminator 2
 6127 0022 7B68     		ldr	r3, [r7, #4]
 6128 0024 1B68     		ldr	r3, [r3]
 6129 0026 013B     		subs	r3, r3, #1
 6130 0028 072B     		cmp	r3, #7
 6131 002a 3BD8     		bhi	.L388
 6132 002c 01A2     		adr	r2, .L390
 6133 002e 52F823F0 		ldr	pc, [r2, r3, lsl #2]
 6134 0032 00BF     		.p2align 2
 6135              	.L390:
 6136 0034 55000000 		.word	.L393+1
 6137 0038 69000000 		.word	.L392+1
 6138 003c A5000000 		.word	.L388+1
 6139 0040 7D000000 		.word	.L391+1
 6140 0044 A5000000 		.word	.L388+1
 6141 0048 A5000000 		.word	.L388+1
 6142 004c A5000000 		.word	.L388+1
 6143 0050 91000000 		.word	.L389+1
 6144              		.p2align 1
 6145              	.L393:
2082:./Libraries/STM32H7xx_HAL_Driver/Src/stm32h7xx_hal_tim_ex.c ****   {
2083:./Libraries/STM32H7xx_HAL_Driver/Src/stm32h7xx_hal_tim_ex.c ****     case TIM_BREAKINPUTSOURCE_BKIN:
2084:./Libraries/STM32H7xx_HAL_Driver/Src/stm32h7xx_hal_tim_ex.c ****     {
2085:./Libraries/STM32H7xx_HAL_Driver/Src/stm32h7xx_hal_tim_ex.c ****       bkin_enable_mask = TIM1_AF1_BKINE;
 6146              		.loc 1 2085 24
 6147 0054 0123     		movs	r3, #1
 6148 0056 3B62     		str	r3, [r7, #32]
2086:./Libraries/STM32H7xx_HAL_Driver/Src/stm32h7xx_hal_tim_ex.c ****       bkin_enable_bitpos = TIM1_AF1_BKINE_Pos;
 6149              		.loc 1 2086 26
 6150 0058 0023     		movs	r3, #0
 6151 005a BB61     		str	r3, [r7, #24]
2087:./Libraries/STM32H7xx_HAL_Driver/Src/stm32h7xx_hal_tim_ex.c ****       bkin_polarity_mask = TIM1_AF1_BKINP;
 6152              		.loc 1 2087 26
ARM GAS  /tmp/ccxx2olO.s 			page 147


 6153 005c 4FF40073 		mov	r3, #512
 6154 0060 FB61     		str	r3, [r7, #28]
2088:./Libraries/STM32H7xx_HAL_Driver/Src/stm32h7xx_hal_tim_ex.c ****       bkin_polarity_bitpos = TIM1_AF1_BKINP_Pos;
 6155              		.loc 1 2088 28
 6156 0062 0923     		movs	r3, #9
 6157 0064 7B61     		str	r3, [r7, #20]
2089:./Libraries/STM32H7xx_HAL_Driver/Src/stm32h7xx_hal_tim_ex.c ****       break;
 6158              		.loc 1 2089 7
 6159 0066 26E0     		b	.L394
 6160              	.L392:
2090:./Libraries/STM32H7xx_HAL_Driver/Src/stm32h7xx_hal_tim_ex.c ****     }
2091:./Libraries/STM32H7xx_HAL_Driver/Src/stm32h7xx_hal_tim_ex.c ****     case TIM_BREAKINPUTSOURCE_COMP1:
2092:./Libraries/STM32H7xx_HAL_Driver/Src/stm32h7xx_hal_tim_ex.c ****     {
2093:./Libraries/STM32H7xx_HAL_Driver/Src/stm32h7xx_hal_tim_ex.c ****       bkin_enable_mask = TIM1_AF1_BKCMP1E;
 6161              		.loc 1 2093 24
 6162 0068 0223     		movs	r3, #2
 6163 006a 3B62     		str	r3, [r7, #32]
2094:./Libraries/STM32H7xx_HAL_Driver/Src/stm32h7xx_hal_tim_ex.c ****       bkin_enable_bitpos = TIM1_AF1_BKCMP1E_Pos;
 6164              		.loc 1 2094 26
 6165 006c 0123     		movs	r3, #1
 6166 006e BB61     		str	r3, [r7, #24]
2095:./Libraries/STM32H7xx_HAL_Driver/Src/stm32h7xx_hal_tim_ex.c ****       bkin_polarity_mask = TIM1_AF1_BKCMP1P;
 6167              		.loc 1 2095 26
 6168 0070 4FF48063 		mov	r3, #1024
 6169 0074 FB61     		str	r3, [r7, #28]
2096:./Libraries/STM32H7xx_HAL_Driver/Src/stm32h7xx_hal_tim_ex.c ****       bkin_polarity_bitpos = TIM1_AF1_BKCMP1P_Pos;
 6170              		.loc 1 2096 28
 6171 0076 0A23     		movs	r3, #10
 6172 0078 7B61     		str	r3, [r7, #20]
2097:./Libraries/STM32H7xx_HAL_Driver/Src/stm32h7xx_hal_tim_ex.c ****       break;
 6173              		.loc 1 2097 7
 6174 007a 1CE0     		b	.L394
 6175              	.L391:
2098:./Libraries/STM32H7xx_HAL_Driver/Src/stm32h7xx_hal_tim_ex.c ****     }
2099:./Libraries/STM32H7xx_HAL_Driver/Src/stm32h7xx_hal_tim_ex.c ****     case TIM_BREAKINPUTSOURCE_COMP2:
2100:./Libraries/STM32H7xx_HAL_Driver/Src/stm32h7xx_hal_tim_ex.c ****     {
2101:./Libraries/STM32H7xx_HAL_Driver/Src/stm32h7xx_hal_tim_ex.c ****       bkin_enable_mask = TIM1_AF1_BKCMP2E;
 6176              		.loc 1 2101 24
 6177 007c 0423     		movs	r3, #4
 6178 007e 3B62     		str	r3, [r7, #32]
2102:./Libraries/STM32H7xx_HAL_Driver/Src/stm32h7xx_hal_tim_ex.c ****       bkin_enable_bitpos = TIM1_AF1_BKCMP2E_Pos;
 6179              		.loc 1 2102 26
 6180 0080 0223     		movs	r3, #2
 6181 0082 BB61     		str	r3, [r7, #24]
2103:./Libraries/STM32H7xx_HAL_Driver/Src/stm32h7xx_hal_tim_ex.c ****       bkin_polarity_mask = TIM1_AF1_BKCMP2P;
 6182              		.loc 1 2103 26
 6183 0084 4FF40063 		mov	r3, #2048
 6184 0088 FB61     		str	r3, [r7, #28]
2104:./Libraries/STM32H7xx_HAL_Driver/Src/stm32h7xx_hal_tim_ex.c ****       bkin_polarity_bitpos = TIM1_AF1_BKCMP2P_Pos;
 6185              		.loc 1 2104 28
 6186 008a 0B23     		movs	r3, #11
 6187 008c 7B61     		str	r3, [r7, #20]
2105:./Libraries/STM32H7xx_HAL_Driver/Src/stm32h7xx_hal_tim_ex.c ****       break;
 6188              		.loc 1 2105 7
 6189 008e 12E0     		b	.L394
 6190              	.L389:
2106:./Libraries/STM32H7xx_HAL_Driver/Src/stm32h7xx_hal_tim_ex.c ****     }
ARM GAS  /tmp/ccxx2olO.s 			page 148


2107:./Libraries/STM32H7xx_HAL_Driver/Src/stm32h7xx_hal_tim_ex.c ****     case TIM_BREAKINPUTSOURCE_DFSDM1:
2108:./Libraries/STM32H7xx_HAL_Driver/Src/stm32h7xx_hal_tim_ex.c ****     {
2109:./Libraries/STM32H7xx_HAL_Driver/Src/stm32h7xx_hal_tim_ex.c ****       bkin_enable_mask = TIM1_AF1_BKDF1BK0E;
 6191              		.loc 1 2109 24
 6192 0090 4FF48073 		mov	r3, #256
 6193 0094 3B62     		str	r3, [r7, #32]
2110:./Libraries/STM32H7xx_HAL_Driver/Src/stm32h7xx_hal_tim_ex.c ****       bkin_enable_bitpos = 8U;
 6194              		.loc 1 2110 26
 6195 0096 0823     		movs	r3, #8
 6196 0098 BB61     		str	r3, [r7, #24]
2111:./Libraries/STM32H7xx_HAL_Driver/Src/stm32h7xx_hal_tim_ex.c ****       bkin_polarity_mask = 0U;
 6197              		.loc 1 2111 26
 6198 009a 0023     		movs	r3, #0
 6199 009c FB61     		str	r3, [r7, #28]
2112:./Libraries/STM32H7xx_HAL_Driver/Src/stm32h7xx_hal_tim_ex.c ****       bkin_polarity_bitpos = 0U;
 6200              		.loc 1 2112 28
 6201 009e 0023     		movs	r3, #0
 6202 00a0 7B61     		str	r3, [r7, #20]
2113:./Libraries/STM32H7xx_HAL_Driver/Src/stm32h7xx_hal_tim_ex.c ****       break;
 6203              		.loc 1 2113 7
 6204 00a2 08E0     		b	.L394
 6205              	.L388:
2114:./Libraries/STM32H7xx_HAL_Driver/Src/stm32h7xx_hal_tim_ex.c ****     }
2115:./Libraries/STM32H7xx_HAL_Driver/Src/stm32h7xx_hal_tim_ex.c **** 
2116:./Libraries/STM32H7xx_HAL_Driver/Src/stm32h7xx_hal_tim_ex.c ****     default:
2117:./Libraries/STM32H7xx_HAL_Driver/Src/stm32h7xx_hal_tim_ex.c ****     {
2118:./Libraries/STM32H7xx_HAL_Driver/Src/stm32h7xx_hal_tim_ex.c ****       bkin_enable_mask = 0U;
 6206              		.loc 1 2118 24
 6207 00a4 0023     		movs	r3, #0
 6208 00a6 3B62     		str	r3, [r7, #32]
2119:./Libraries/STM32H7xx_HAL_Driver/Src/stm32h7xx_hal_tim_ex.c ****       bkin_polarity_mask = 0U;
 6209              		.loc 1 2119 26
 6210 00a8 0023     		movs	r3, #0
 6211 00aa FB61     		str	r3, [r7, #28]
2120:./Libraries/STM32H7xx_HAL_Driver/Src/stm32h7xx_hal_tim_ex.c ****       bkin_enable_bitpos = 0U;
 6212              		.loc 1 2120 26
 6213 00ac 0023     		movs	r3, #0
 6214 00ae BB61     		str	r3, [r7, #24]
2121:./Libraries/STM32H7xx_HAL_Driver/Src/stm32h7xx_hal_tim_ex.c ****       bkin_polarity_bitpos = 0U;
 6215              		.loc 1 2121 28
 6216 00b0 0023     		movs	r3, #0
 6217 00b2 7B61     		str	r3, [r7, #20]
2122:./Libraries/STM32H7xx_HAL_Driver/Src/stm32h7xx_hal_tim_ex.c ****       break;
 6218              		.loc 1 2122 7
 6219 00b4 00BF     		nop
 6220              	.L394:
2123:./Libraries/STM32H7xx_HAL_Driver/Src/stm32h7xx_hal_tim_ex.c ****     }
2124:./Libraries/STM32H7xx_HAL_Driver/Src/stm32h7xx_hal_tim_ex.c ****   }
2125:./Libraries/STM32H7xx_HAL_Driver/Src/stm32h7xx_hal_tim_ex.c **** 
2126:./Libraries/STM32H7xx_HAL_Driver/Src/stm32h7xx_hal_tim_ex.c ****   switch (BreakInput)
 6221              		.loc 1 2126 3
 6222 00b6 BB68     		ldr	r3, [r7, #8]
 6223 00b8 012B     		cmp	r3, #1
 6224 00ba 03D0     		beq	.L395
 6225 00bc BB68     		ldr	r3, [r7, #8]
 6226 00be 022B     		cmp	r3, #2
 6227 00c0 29D0     		beq	.L396
ARM GAS  /tmp/ccxx2olO.s 			page 149


2127:./Libraries/STM32H7xx_HAL_Driver/Src/stm32h7xx_hal_tim_ex.c ****   {
2128:./Libraries/STM32H7xx_HAL_Driver/Src/stm32h7xx_hal_tim_ex.c ****     case TIM_BREAKINPUT_BRK:
2129:./Libraries/STM32H7xx_HAL_Driver/Src/stm32h7xx_hal_tim_ex.c ****     {
2130:./Libraries/STM32H7xx_HAL_Driver/Src/stm32h7xx_hal_tim_ex.c ****       /* Get the TIMx_AF1 register value */
2131:./Libraries/STM32H7xx_HAL_Driver/Src/stm32h7xx_hal_tim_ex.c ****       tmporx = htim->Instance->AF1;
2132:./Libraries/STM32H7xx_HAL_Driver/Src/stm32h7xx_hal_tim_ex.c **** 
2133:./Libraries/STM32H7xx_HAL_Driver/Src/stm32h7xx_hal_tim_ex.c ****       /* Enable the break input */
2134:./Libraries/STM32H7xx_HAL_Driver/Src/stm32h7xx_hal_tim_ex.c ****       tmporx &= ~bkin_enable_mask;
2135:./Libraries/STM32H7xx_HAL_Driver/Src/stm32h7xx_hal_tim_ex.c ****       tmporx |= (sBreakInputConfig->Enable << bkin_enable_bitpos) & bkin_enable_mask;
2136:./Libraries/STM32H7xx_HAL_Driver/Src/stm32h7xx_hal_tim_ex.c **** 
2137:./Libraries/STM32H7xx_HAL_Driver/Src/stm32h7xx_hal_tim_ex.c ****       /* Set the break input polarity */
2138:./Libraries/STM32H7xx_HAL_Driver/Src/stm32h7xx_hal_tim_ex.c ****       if (sBreakInputConfig->Source != TIM_BREAKINPUTSOURCE_DFSDM1)
2139:./Libraries/STM32H7xx_HAL_Driver/Src/stm32h7xx_hal_tim_ex.c ****         {
2140:./Libraries/STM32H7xx_HAL_Driver/Src/stm32h7xx_hal_tim_ex.c ****           tmporx &= ~bkin_polarity_mask;
2141:./Libraries/STM32H7xx_HAL_Driver/Src/stm32h7xx_hal_tim_ex.c ****           tmporx |= (sBreakInputConfig->Polarity << bkin_polarity_bitpos) & bkin_polarity_mask;
2142:./Libraries/STM32H7xx_HAL_Driver/Src/stm32h7xx_hal_tim_ex.c ****         }
2143:./Libraries/STM32H7xx_HAL_Driver/Src/stm32h7xx_hal_tim_ex.c **** 
2144:./Libraries/STM32H7xx_HAL_Driver/Src/stm32h7xx_hal_tim_ex.c ****       /* Set TIMx_AF1 */
2145:./Libraries/STM32H7xx_HAL_Driver/Src/stm32h7xx_hal_tim_ex.c ****       htim->Instance->AF1 = tmporx;
2146:./Libraries/STM32H7xx_HAL_Driver/Src/stm32h7xx_hal_tim_ex.c ****       break;
2147:./Libraries/STM32H7xx_HAL_Driver/Src/stm32h7xx_hal_tim_ex.c ****     }
2148:./Libraries/STM32H7xx_HAL_Driver/Src/stm32h7xx_hal_tim_ex.c ****     case TIM_BREAKINPUT_BRK2:
2149:./Libraries/STM32H7xx_HAL_Driver/Src/stm32h7xx_hal_tim_ex.c ****     {
2150:./Libraries/STM32H7xx_HAL_Driver/Src/stm32h7xx_hal_tim_ex.c ****       /* Get the TIMx_AF2 register value */
2151:./Libraries/STM32H7xx_HAL_Driver/Src/stm32h7xx_hal_tim_ex.c ****       tmporx = htim->Instance->AF2;
2152:./Libraries/STM32H7xx_HAL_Driver/Src/stm32h7xx_hal_tim_ex.c **** 
2153:./Libraries/STM32H7xx_HAL_Driver/Src/stm32h7xx_hal_tim_ex.c ****       /* Enable the break input */
2154:./Libraries/STM32H7xx_HAL_Driver/Src/stm32h7xx_hal_tim_ex.c ****       tmporx &= ~bkin_enable_mask;
2155:./Libraries/STM32H7xx_HAL_Driver/Src/stm32h7xx_hal_tim_ex.c ****       tmporx |= (sBreakInputConfig->Enable << bkin_enable_bitpos) & bkin_enable_mask;
2156:./Libraries/STM32H7xx_HAL_Driver/Src/stm32h7xx_hal_tim_ex.c **** 
2157:./Libraries/STM32H7xx_HAL_Driver/Src/stm32h7xx_hal_tim_ex.c ****       /* Set the break input polarity */
2158:./Libraries/STM32H7xx_HAL_Driver/Src/stm32h7xx_hal_tim_ex.c ****       if (sBreakInputConfig->Source != TIM_BREAKINPUTSOURCE_DFSDM1)
2159:./Libraries/STM32H7xx_HAL_Driver/Src/stm32h7xx_hal_tim_ex.c ****         {
2160:./Libraries/STM32H7xx_HAL_Driver/Src/stm32h7xx_hal_tim_ex.c ****           tmporx &= ~bkin_polarity_mask;
2161:./Libraries/STM32H7xx_HAL_Driver/Src/stm32h7xx_hal_tim_ex.c ****           tmporx |= (sBreakInputConfig->Polarity << bkin_polarity_bitpos) & bkin_polarity_mask;
2162:./Libraries/STM32H7xx_HAL_Driver/Src/stm32h7xx_hal_tim_ex.c ****         }
2163:./Libraries/STM32H7xx_HAL_Driver/Src/stm32h7xx_hal_tim_ex.c **** 
2164:./Libraries/STM32H7xx_HAL_Driver/Src/stm32h7xx_hal_tim_ex.c ****       /* Set TIMx_AF2 */
2165:./Libraries/STM32H7xx_HAL_Driver/Src/stm32h7xx_hal_tim_ex.c ****       htim->Instance->AF2 = tmporx;
2166:./Libraries/STM32H7xx_HAL_Driver/Src/stm32h7xx_hal_tim_ex.c ****       break;
2167:./Libraries/STM32H7xx_HAL_Driver/Src/stm32h7xx_hal_tim_ex.c ****     }
2168:./Libraries/STM32H7xx_HAL_Driver/Src/stm32h7xx_hal_tim_ex.c ****     default:
2169:./Libraries/STM32H7xx_HAL_Driver/Src/stm32h7xx_hal_tim_ex.c ****       break;
 6228              		.loc 1 2169 7
 6229 00c2 51E0     		b	.L399
 6230              	.L395:
2131:./Libraries/STM32H7xx_HAL_Driver/Src/stm32h7xx_hal_tim_ex.c **** 
 6231              		.loc 1 2131 20
 6232 00c4 FB68     		ldr	r3, [r7, #12]
 6233 00c6 1B68     		ldr	r3, [r3]
2131:./Libraries/STM32H7xx_HAL_Driver/Src/stm32h7xx_hal_tim_ex.c **** 
 6234              		.loc 1 2131 14
 6235 00c8 1B6E     		ldr	r3, [r3, #96]
 6236 00ca 7B62     		str	r3, [r7, #36]
2134:./Libraries/STM32H7xx_HAL_Driver/Src/stm32h7xx_hal_tim_ex.c ****       tmporx |= (sBreakInputConfig->Enable << bkin_enable_bitpos) & bkin_enable_mask;
 6237              		.loc 1 2134 17
 6238 00cc 3B6A     		ldr	r3, [r7, #32]
ARM GAS  /tmp/ccxx2olO.s 			page 150


 6239 00ce DB43     		mvns	r3, r3
2134:./Libraries/STM32H7xx_HAL_Driver/Src/stm32h7xx_hal_tim_ex.c ****       tmporx |= (sBreakInputConfig->Enable << bkin_enable_bitpos) & bkin_enable_mask;
 6240              		.loc 1 2134 14
 6241 00d0 7A6A     		ldr	r2, [r7, #36]
 6242 00d2 1340     		ands	r3, r3, r2
 6243 00d4 7B62     		str	r3, [r7, #36]
2135:./Libraries/STM32H7xx_HAL_Driver/Src/stm32h7xx_hal_tim_ex.c **** 
 6244              		.loc 1 2135 35
 6245 00d6 7B68     		ldr	r3, [r7, #4]
 6246 00d8 5A68     		ldr	r2, [r3, #4]
2135:./Libraries/STM32H7xx_HAL_Driver/Src/stm32h7xx_hal_tim_ex.c **** 
 6247              		.loc 1 2135 44
 6248 00da BB69     		ldr	r3, [r7, #24]
 6249 00dc 9A40     		lsls	r2, r2, r3
2135:./Libraries/STM32H7xx_HAL_Driver/Src/stm32h7xx_hal_tim_ex.c **** 
 6250              		.loc 1 2135 67
 6251 00de 3B6A     		ldr	r3, [r7, #32]
 6252 00e0 1340     		ands	r3, r3, r2
2135:./Libraries/STM32H7xx_HAL_Driver/Src/stm32h7xx_hal_tim_ex.c **** 
 6253              		.loc 1 2135 14
 6254 00e2 7A6A     		ldr	r2, [r7, #36]
 6255 00e4 1343     		orrs	r3, r3, r2
 6256 00e6 7B62     		str	r3, [r7, #36]
2138:./Libraries/STM32H7xx_HAL_Driver/Src/stm32h7xx_hal_tim_ex.c ****         {
 6257              		.loc 1 2138 28
 6258 00e8 7B68     		ldr	r3, [r7, #4]
 6259 00ea 1B68     		ldr	r3, [r3]
2138:./Libraries/STM32H7xx_HAL_Driver/Src/stm32h7xx_hal_tim_ex.c ****         {
 6260              		.loc 1 2138 10
 6261 00ec 082B     		cmp	r3, #8
 6262 00ee 0DD0     		beq	.L398
2140:./Libraries/STM32H7xx_HAL_Driver/Src/stm32h7xx_hal_tim_ex.c ****           tmporx |= (sBreakInputConfig->Polarity << bkin_polarity_bitpos) & bkin_polarity_mask;
 6263              		.loc 1 2140 21
 6264 00f0 FB69     		ldr	r3, [r7, #28]
 6265 00f2 DB43     		mvns	r3, r3
2140:./Libraries/STM32H7xx_HAL_Driver/Src/stm32h7xx_hal_tim_ex.c ****           tmporx |= (sBreakInputConfig->Polarity << bkin_polarity_bitpos) & bkin_polarity_mask;
 6266              		.loc 1 2140 18
 6267 00f4 7A6A     		ldr	r2, [r7, #36]
 6268 00f6 1340     		ands	r3, r3, r2
 6269 00f8 7B62     		str	r3, [r7, #36]
2141:./Libraries/STM32H7xx_HAL_Driver/Src/stm32h7xx_hal_tim_ex.c ****         }
 6270              		.loc 1 2141 39
 6271 00fa 7B68     		ldr	r3, [r7, #4]
 6272 00fc 9A68     		ldr	r2, [r3, #8]
2141:./Libraries/STM32H7xx_HAL_Driver/Src/stm32h7xx_hal_tim_ex.c ****         }
 6273              		.loc 1 2141 50
 6274 00fe 7B69     		ldr	r3, [r7, #20]
 6275 0100 9A40     		lsls	r2, r2, r3
2141:./Libraries/STM32H7xx_HAL_Driver/Src/stm32h7xx_hal_tim_ex.c ****         }
 6276              		.loc 1 2141 75
 6277 0102 FB69     		ldr	r3, [r7, #28]
 6278 0104 1340     		ands	r3, r3, r2
2141:./Libraries/STM32H7xx_HAL_Driver/Src/stm32h7xx_hal_tim_ex.c ****         }
 6279              		.loc 1 2141 18
 6280 0106 7A6A     		ldr	r2, [r7, #36]
 6281 0108 1343     		orrs	r3, r3, r2
 6282 010a 7B62     		str	r3, [r7, #36]
ARM GAS  /tmp/ccxx2olO.s 			page 151


 6283              	.L398:
2145:./Libraries/STM32H7xx_HAL_Driver/Src/stm32h7xx_hal_tim_ex.c ****       break;
 6284              		.loc 1 2145 11
 6285 010c FB68     		ldr	r3, [r7, #12]
 6286 010e 1B68     		ldr	r3, [r3]
2145:./Libraries/STM32H7xx_HAL_Driver/Src/stm32h7xx_hal_tim_ex.c ****       break;
 6287              		.loc 1 2145 27
 6288 0110 7A6A     		ldr	r2, [r7, #36]
 6289 0112 1A66     		str	r2, [r3, #96]
2146:./Libraries/STM32H7xx_HAL_Driver/Src/stm32h7xx_hal_tim_ex.c ****     }
 6290              		.loc 1 2146 7
 6291 0114 28E0     		b	.L399
 6292              	.L396:
2151:./Libraries/STM32H7xx_HAL_Driver/Src/stm32h7xx_hal_tim_ex.c **** 
 6293              		.loc 1 2151 20
 6294 0116 FB68     		ldr	r3, [r7, #12]
 6295 0118 1B68     		ldr	r3, [r3]
2151:./Libraries/STM32H7xx_HAL_Driver/Src/stm32h7xx_hal_tim_ex.c **** 
 6296              		.loc 1 2151 14
 6297 011a 5B6E     		ldr	r3, [r3, #100]
 6298 011c 7B62     		str	r3, [r7, #36]
2154:./Libraries/STM32H7xx_HAL_Driver/Src/stm32h7xx_hal_tim_ex.c ****       tmporx |= (sBreakInputConfig->Enable << bkin_enable_bitpos) & bkin_enable_mask;
 6299              		.loc 1 2154 17
 6300 011e 3B6A     		ldr	r3, [r7, #32]
 6301 0120 DB43     		mvns	r3, r3
2154:./Libraries/STM32H7xx_HAL_Driver/Src/stm32h7xx_hal_tim_ex.c ****       tmporx |= (sBreakInputConfig->Enable << bkin_enable_bitpos) & bkin_enable_mask;
 6302              		.loc 1 2154 14
 6303 0122 7A6A     		ldr	r2, [r7, #36]
 6304 0124 1340     		ands	r3, r3, r2
 6305 0126 7B62     		str	r3, [r7, #36]
2155:./Libraries/STM32H7xx_HAL_Driver/Src/stm32h7xx_hal_tim_ex.c **** 
 6306              		.loc 1 2155 35
 6307 0128 7B68     		ldr	r3, [r7, #4]
 6308 012a 5A68     		ldr	r2, [r3, #4]
2155:./Libraries/STM32H7xx_HAL_Driver/Src/stm32h7xx_hal_tim_ex.c **** 
 6309              		.loc 1 2155 44
 6310 012c BB69     		ldr	r3, [r7, #24]
 6311 012e 9A40     		lsls	r2, r2, r3
2155:./Libraries/STM32H7xx_HAL_Driver/Src/stm32h7xx_hal_tim_ex.c **** 
 6312              		.loc 1 2155 67
 6313 0130 3B6A     		ldr	r3, [r7, #32]
 6314 0132 1340     		ands	r3, r3, r2
2155:./Libraries/STM32H7xx_HAL_Driver/Src/stm32h7xx_hal_tim_ex.c **** 
 6315              		.loc 1 2155 14
 6316 0134 7A6A     		ldr	r2, [r7, #36]
 6317 0136 1343     		orrs	r3, r3, r2
 6318 0138 7B62     		str	r3, [r7, #36]
2158:./Libraries/STM32H7xx_HAL_Driver/Src/stm32h7xx_hal_tim_ex.c ****         {
 6319              		.loc 1 2158 28
 6320 013a 7B68     		ldr	r3, [r7, #4]
 6321 013c 1B68     		ldr	r3, [r3]
2158:./Libraries/STM32H7xx_HAL_Driver/Src/stm32h7xx_hal_tim_ex.c ****         {
 6322              		.loc 1 2158 10
 6323 013e 082B     		cmp	r3, #8
 6324 0140 0DD0     		beq	.L400
2160:./Libraries/STM32H7xx_HAL_Driver/Src/stm32h7xx_hal_tim_ex.c ****           tmporx |= (sBreakInputConfig->Polarity << bkin_polarity_bitpos) & bkin_polarity_mask;
 6325              		.loc 1 2160 21
ARM GAS  /tmp/ccxx2olO.s 			page 152


 6326 0142 FB69     		ldr	r3, [r7, #28]
 6327 0144 DB43     		mvns	r3, r3
2160:./Libraries/STM32H7xx_HAL_Driver/Src/stm32h7xx_hal_tim_ex.c ****           tmporx |= (sBreakInputConfig->Polarity << bkin_polarity_bitpos) & bkin_polarity_mask;
 6328              		.loc 1 2160 18
 6329 0146 7A6A     		ldr	r2, [r7, #36]
 6330 0148 1340     		ands	r3, r3, r2
 6331 014a 7B62     		str	r3, [r7, #36]
2161:./Libraries/STM32H7xx_HAL_Driver/Src/stm32h7xx_hal_tim_ex.c ****         }
 6332              		.loc 1 2161 39
 6333 014c 7B68     		ldr	r3, [r7, #4]
 6334 014e 9A68     		ldr	r2, [r3, #8]
2161:./Libraries/STM32H7xx_HAL_Driver/Src/stm32h7xx_hal_tim_ex.c ****         }
 6335              		.loc 1 2161 50
 6336 0150 7B69     		ldr	r3, [r7, #20]
 6337 0152 9A40     		lsls	r2, r2, r3
2161:./Libraries/STM32H7xx_HAL_Driver/Src/stm32h7xx_hal_tim_ex.c ****         }
 6338              		.loc 1 2161 75
 6339 0154 FB69     		ldr	r3, [r7, #28]
 6340 0156 1340     		ands	r3, r3, r2
2161:./Libraries/STM32H7xx_HAL_Driver/Src/stm32h7xx_hal_tim_ex.c ****         }
 6341              		.loc 1 2161 18
 6342 0158 7A6A     		ldr	r2, [r7, #36]
 6343 015a 1343     		orrs	r3, r3, r2
 6344 015c 7B62     		str	r3, [r7, #36]
 6345              	.L400:
2165:./Libraries/STM32H7xx_HAL_Driver/Src/stm32h7xx_hal_tim_ex.c ****       break;
 6346              		.loc 1 2165 11
 6347 015e FB68     		ldr	r3, [r7, #12]
 6348 0160 1B68     		ldr	r3, [r3]
2165:./Libraries/STM32H7xx_HAL_Driver/Src/stm32h7xx_hal_tim_ex.c ****       break;
 6349              		.loc 1 2165 27
 6350 0162 7A6A     		ldr	r2, [r7, #36]
 6351 0164 5A66     		str	r2, [r3, #100]
2166:./Libraries/STM32H7xx_HAL_Driver/Src/stm32h7xx_hal_tim_ex.c ****     }
 6352              		.loc 1 2166 7
 6353 0166 00BF     		nop
 6354              	.L399:
2170:./Libraries/STM32H7xx_HAL_Driver/Src/stm32h7xx_hal_tim_ex.c ****   }
2171:./Libraries/STM32H7xx_HAL_Driver/Src/stm32h7xx_hal_tim_ex.c **** 
2172:./Libraries/STM32H7xx_HAL_Driver/Src/stm32h7xx_hal_tim_ex.c ****   __HAL_UNLOCK(htim);
 6355              		.loc 1 2172 3
 6356 0168 FB68     		ldr	r3, [r7, #12]
 6357 016a 0022     		movs	r2, #0
 6358 016c 83F83C20 		strb	r2, [r3, #60]
2173:./Libraries/STM32H7xx_HAL_Driver/Src/stm32h7xx_hal_tim_ex.c **** 
2174:./Libraries/STM32H7xx_HAL_Driver/Src/stm32h7xx_hal_tim_ex.c ****   return HAL_OK;
 6359              		.loc 1 2174 10
 6360 0170 0023     		movs	r3, #0
 6361              	.L387:
2175:./Libraries/STM32H7xx_HAL_Driver/Src/stm32h7xx_hal_tim_ex.c **** }
 6362              		.loc 1 2175 1
 6363 0172 1846     		mov	r0, r3
 6364 0174 2C37     		adds	r7, r7, #44
 6365              	.LCFI165:
 6366              		.cfi_def_cfa_offset 4
 6367 0176 BD46     		mov	sp, r7
 6368              	.LCFI166:
ARM GAS  /tmp/ccxx2olO.s 			page 153


 6369              		.cfi_def_cfa_register 13
 6370              		@ sp needed
 6371 0178 5DF8047B 		ldr	r7, [sp], #4
 6372              	.LCFI167:
 6373              		.cfi_restore 7
 6374              		.cfi_def_cfa_offset 0
 6375 017c 7047     		bx	lr
 6376              		.cfi_endproc
 6377              	.LFE362:
 6379 017e 00BF     		.section	.text.HAL_TIMEx_RemapConfig,"ax",%progbits
 6380              		.align	1
 6381              		.global	HAL_TIMEx_RemapConfig
 6382              		.syntax unified
 6383              		.thumb
 6384              		.thumb_func
 6385              		.fpu fpv5-d16
 6387              	HAL_TIMEx_RemapConfig:
 6388              	.LFB363:
2176:./Libraries/STM32H7xx_HAL_Driver/Src/stm32h7xx_hal_tim_ex.c **** #endif /*TIM_BREAK_INPUT_SUPPORT */
2177:./Libraries/STM32H7xx_HAL_Driver/Src/stm32h7xx_hal_tim_ex.c **** 
2178:./Libraries/STM32H7xx_HAL_Driver/Src/stm32h7xx_hal_tim_ex.c **** /**
2179:./Libraries/STM32H7xx_HAL_Driver/Src/stm32h7xx_hal_tim_ex.c ****   * @brief  Configures the TIMx Remapping input capabilities.
2180:./Libraries/STM32H7xx_HAL_Driver/Src/stm32h7xx_hal_tim_ex.c ****   * @param  htim TIM handle.
2181:./Libraries/STM32H7xx_HAL_Driver/Src/stm32h7xx_hal_tim_ex.c ****   * @param  Remap specifies the TIM remapping source.
2182:./Libraries/STM32H7xx_HAL_Driver/Src/stm32h7xx_hal_tim_ex.c ****   *         For TIM1, the parameter is one of the following values:
2183:./Libraries/STM32H7xx_HAL_Driver/Src/stm32h7xx_hal_tim_ex.c ****   *            @arg TIM_TIM1_ETR_GPIO:               TIM1_ETR is connected to GPIO
2184:./Libraries/STM32H7xx_HAL_Driver/Src/stm32h7xx_hal_tim_ex.c ****   *            @arg TIM_TIM1_ETR_COMP1:              TIM1_ETR is connected to COMP1 output
2185:./Libraries/STM32H7xx_HAL_Driver/Src/stm32h7xx_hal_tim_ex.c ****   *            @arg TIM_TIM1_ETR_COMP2:              TIM1_ETR is connected to COMP2 output
2186:./Libraries/STM32H7xx_HAL_Driver/Src/stm32h7xx_hal_tim_ex.c ****   *            @arg TIM_TIM1_ETR_ADC1_AWD1:          TIM1_ETR is connected to ADC1 AWD1
2187:./Libraries/STM32H7xx_HAL_Driver/Src/stm32h7xx_hal_tim_ex.c ****   *            @arg TIM_TIM1_ETR_ADC1_AWD2:          TIM1_ETR is connected to ADC1 AWD2
2188:./Libraries/STM32H7xx_HAL_Driver/Src/stm32h7xx_hal_tim_ex.c ****   *            @arg TIM_TIM1_ETR_ADC1_AWD3:          TIM1_ETR is connected to ADC1 AWD3
2189:./Libraries/STM32H7xx_HAL_Driver/Src/stm32h7xx_hal_tim_ex.c ****   *            @arg TIM_TIM1_ETR_ADC3_AWD1:          TIM1_ETR is connected to ADC3 AWD1
2190:./Libraries/STM32H7xx_HAL_Driver/Src/stm32h7xx_hal_tim_ex.c ****   *            @arg TIM_TIM1_ETR_ADC3_AWD2:          TIM1_ETR is connected to ADC3 AWD2
2191:./Libraries/STM32H7xx_HAL_Driver/Src/stm32h7xx_hal_tim_ex.c ****   *            @arg TIM_TIM1_ETR_ADC3_AWD3:          TIM1_ETR is connected to ADC3 AWD3
2192:./Libraries/STM32H7xx_HAL_Driver/Src/stm32h7xx_hal_tim_ex.c ****   *
2193:./Libraries/STM32H7xx_HAL_Driver/Src/stm32h7xx_hal_tim_ex.c ****   *         For TIM2, the parameter is one of the following values:
2194:./Libraries/STM32H7xx_HAL_Driver/Src/stm32h7xx_hal_tim_ex.c ****   *            @arg TIM_TIM2_ETR_GPIO:               TIM2_ETR is connected to GPIO
2195:./Libraries/STM32H7xx_HAL_Driver/Src/stm32h7xx_hal_tim_ex.c ****   *            @arg TIM_TIM2_ETR_COMP1:              TIM2_ETR is connected to COMP1 output
2196:./Libraries/STM32H7xx_HAL_Driver/Src/stm32h7xx_hal_tim_ex.c ****   *            @arg TIM_TIM2_ETR_COMP2:              TIM2_ETR is connected to COMP2 output
2197:./Libraries/STM32H7xx_HAL_Driver/Src/stm32h7xx_hal_tim_ex.c ****   *            @arg TIM_TIM2_ETR_LSE:                TIM2_ETR is connected to LSE
2198:./Libraries/STM32H7xx_HAL_Driver/Src/stm32h7xx_hal_tim_ex.c ****   *            @arg TIM_TIM2_ETR_SAI1_FSA:           TIM2_ETR is connected to SAI1 FS_A
2199:./Libraries/STM32H7xx_HAL_Driver/Src/stm32h7xx_hal_tim_ex.c ****   *            @arg TIM_TIM2_ETR_SAI1_FSB:           TIM2_ETR is connected to SAI1 FS_B
2200:./Libraries/STM32H7xx_HAL_Driver/Src/stm32h7xx_hal_tim_ex.c ****   *
2201:./Libraries/STM32H7xx_HAL_Driver/Src/stm32h7xx_hal_tim_ex.c ****   *         For TIM3, the parameter is one of the following values:
2202:./Libraries/STM32H7xx_HAL_Driver/Src/stm32h7xx_hal_tim_ex.c ****   *            @arg TIM_TIM3_ETR_GPIO:               TIM3_ETR is connected to GPIO
2203:./Libraries/STM32H7xx_HAL_Driver/Src/stm32h7xx_hal_tim_ex.c ****   *            @arg TIM_TIM3_ETR_COMP1:              TIM3_ETR is connected to COMP1 output
2204:./Libraries/STM32H7xx_HAL_Driver/Src/stm32h7xx_hal_tim_ex.c ****   *
2205:./Libraries/STM32H7xx_HAL_Driver/Src/stm32h7xx_hal_tim_ex.c ****   *         For TIM5, the parameter is one of the following values:
2206:./Libraries/STM32H7xx_HAL_Driver/Src/stm32h7xx_hal_tim_ex.c ****   *            @arg TIM_TIM5_ETR_GPIO:               TIM5_ETR is connected to GPIO
2207:./Libraries/STM32H7xx_HAL_Driver/Src/stm32h7xx_hal_tim_ex.c ****   *            @arg TIM_TIM5_ETR_SAI2_FSA:           TIM5_ETR is connected to SAI2 FS_A (*)
2208:./Libraries/STM32H7xx_HAL_Driver/Src/stm32h7xx_hal_tim_ex.c ****   *            @arg TIM_TIM5_ETR_SAI2_FSB:           TIM5_ETR is connected to SAI2 FS_B (*)
2209:./Libraries/STM32H7xx_HAL_Driver/Src/stm32h7xx_hal_tim_ex.c ****   *            @arg TIM_TIM5_ETR_SAI4_FSA:           TIM5_ETR is connected to SAI2 FS_A (*)
2210:./Libraries/STM32H7xx_HAL_Driver/Src/stm32h7xx_hal_tim_ex.c ****   *            @arg TIM_TIM5_ETR_SAI4_FSB:           TIM5_ETR is connected to SAI2 FS_B (*)
2211:./Libraries/STM32H7xx_HAL_Driver/Src/stm32h7xx_hal_tim_ex.c ****   *
2212:./Libraries/STM32H7xx_HAL_Driver/Src/stm32h7xx_hal_tim_ex.c ****   *         For TIM8, the parameter is one of the following values:
2213:./Libraries/STM32H7xx_HAL_Driver/Src/stm32h7xx_hal_tim_ex.c ****   *            @arg TIM_TIM8_ETR_GPIO:               TIM8_ETR is connected to GPIO
2214:./Libraries/STM32H7xx_HAL_Driver/Src/stm32h7xx_hal_tim_ex.c ****   *            @arg TIM_TIM8_ETR_COMP1:              TIM8_ETR is connected to COMP1 output
ARM GAS  /tmp/ccxx2olO.s 			page 154


2215:./Libraries/STM32H7xx_HAL_Driver/Src/stm32h7xx_hal_tim_ex.c ****   *            @arg TIM_TIM8_ETR_COMP2:              TIM8_ETR is connected to COMP2 output
2216:./Libraries/STM32H7xx_HAL_Driver/Src/stm32h7xx_hal_tim_ex.c ****   *            @arg TIM_TIM8_ETR_ADC2_AWD1:          TIM8_ETR is connected to ADC2 AWD1
2217:./Libraries/STM32H7xx_HAL_Driver/Src/stm32h7xx_hal_tim_ex.c ****   *            @arg TIM_TIM8_ETR_ADC2_AWD2:          TIM8_ETR is connected to ADC2 AWD2
2218:./Libraries/STM32H7xx_HAL_Driver/Src/stm32h7xx_hal_tim_ex.c ****   *            @arg TIM_TIM8_ETR_ADC2_AWD3:          TIM8_ETR is connected to ADC2 AWD3
2219:./Libraries/STM32H7xx_HAL_Driver/Src/stm32h7xx_hal_tim_ex.c ****   *            @arg TIM_TIM8_ETR_ADC3_AWD1:          TIM8_ETR is connected to ADC3 AWD1
2220:./Libraries/STM32H7xx_HAL_Driver/Src/stm32h7xx_hal_tim_ex.c ****   *            @arg TIM_TIM8_ETR_ADC3_AWD2:          TIM8_ETR is connected to ADC3 AWD2
2221:./Libraries/STM32H7xx_HAL_Driver/Src/stm32h7xx_hal_tim_ex.c ****   *            @arg TIM_TIM8_ETR_ADC3_AWD3:          TIM8_ETR is connected to ADC3 AWD3
2222:./Libraries/STM32H7xx_HAL_Driver/Src/stm32h7xx_hal_tim_ex.c ****   *
2223:./Libraries/STM32H7xx_HAL_Driver/Src/stm32h7xx_hal_tim_ex.c ****   *         For TIM23, the parameter is one of the following values: (*)
2224:./Libraries/STM32H7xx_HAL_Driver/Src/stm32h7xx_hal_tim_ex.c ****   *            @arg TIM_TIM23_ETR_GPIO               TIM23_ETR is connected to GPIO
2225:./Libraries/STM32H7xx_HAL_Driver/Src/stm32h7xx_hal_tim_ex.c ****   *            @arg TIM_TIM23_ETR_COMP1              TIM23_ETR is connected to COMP1 output
2226:./Libraries/STM32H7xx_HAL_Driver/Src/stm32h7xx_hal_tim_ex.c ****   *            @arg TIM_TIM23_ETR_COMP2              TIM23_ETR is connected to COMP2 output
2227:./Libraries/STM32H7xx_HAL_Driver/Src/stm32h7xx_hal_tim_ex.c ****   *
2228:./Libraries/STM32H7xx_HAL_Driver/Src/stm32h7xx_hal_tim_ex.c ****   *         For TIM24, the parameter is one of the following values: (*)
2229:./Libraries/STM32H7xx_HAL_Driver/Src/stm32h7xx_hal_tim_ex.c ****   *           @arg TIM_TIM24_ETR_GPIO                TIM24_ETR is connected to GPIO
2230:./Libraries/STM32H7xx_HAL_Driver/Src/stm32h7xx_hal_tim_ex.c ****   *           @arg TIM_TIM24_ETR_SAI4_FSA            TIM24_ETR is connected to SAI4 FS_A
2231:./Libraries/STM32H7xx_HAL_Driver/Src/stm32h7xx_hal_tim_ex.c ****   *           @arg TIM_TIM24_ETR_SAI4_FSB            TIM24_ETR is connected to SAI4 FS_B
2232:./Libraries/STM32H7xx_HAL_Driver/Src/stm32h7xx_hal_tim_ex.c ****   *           @arg TIM_TIM24_ETR_SAI1_FSA            TIM24_ETR is connected to SAI1 FS_A
2233:./Libraries/STM32H7xx_HAL_Driver/Src/stm32h7xx_hal_tim_ex.c ****   *           @arg TIM_TIM24_ETR_SAI1_FSB            TIM24_ETR is connected to SAI1 FS_B
2234:./Libraries/STM32H7xx_HAL_Driver/Src/stm32h7xx_hal_tim_ex.c ****   *
2235:./Libraries/STM32H7xx_HAL_Driver/Src/stm32h7xx_hal_tim_ex.c ****   *         (*)  Value not defined in all devices.
2236:./Libraries/STM32H7xx_HAL_Driver/Src/stm32h7xx_hal_tim_ex.c ****   *
2237:./Libraries/STM32H7xx_HAL_Driver/Src/stm32h7xx_hal_tim_ex.c ****   * @retval HAL status
2238:./Libraries/STM32H7xx_HAL_Driver/Src/stm32h7xx_hal_tim_ex.c ****   */
2239:./Libraries/STM32H7xx_HAL_Driver/Src/stm32h7xx_hal_tim_ex.c **** HAL_StatusTypeDef HAL_TIMEx_RemapConfig(TIM_HandleTypeDef *htim, uint32_t Remap)
2240:./Libraries/STM32H7xx_HAL_Driver/Src/stm32h7xx_hal_tim_ex.c **** {
 6389              		.loc 1 2240 1
 6390              		.cfi_startproc
 6391              		@ args = 0, pretend = 0, frame = 8
 6392              		@ frame_needed = 1, uses_anonymous_args = 0
 6393              		@ link register save eliminated.
 6394 0000 80B4     		push	{r7}
 6395              	.LCFI168:
 6396              		.cfi_def_cfa_offset 4
 6397              		.cfi_offset 7, -4
 6398 0002 83B0     		sub	sp, sp, #12
 6399              	.LCFI169:
 6400              		.cfi_def_cfa_offset 16
 6401 0004 00AF     		add	r7, sp, #0
 6402              	.LCFI170:
 6403              		.cfi_def_cfa_register 7
 6404 0006 7860     		str	r0, [r7, #4]
 6405 0008 3960     		str	r1, [r7]
2241:./Libraries/STM32H7xx_HAL_Driver/Src/stm32h7xx_hal_tim_ex.c ****   /* Check parameters */
2242:./Libraries/STM32H7xx_HAL_Driver/Src/stm32h7xx_hal_tim_ex.c ****   assert_param(IS_TIM_REMAP_INSTANCE(htim->Instance));
2243:./Libraries/STM32H7xx_HAL_Driver/Src/stm32h7xx_hal_tim_ex.c ****   assert_param(IS_TIM_REMAP(Remap));
2244:./Libraries/STM32H7xx_HAL_Driver/Src/stm32h7xx_hal_tim_ex.c **** 
2245:./Libraries/STM32H7xx_HAL_Driver/Src/stm32h7xx_hal_tim_ex.c ****   __HAL_LOCK(htim);
 6406              		.loc 1 2245 3
 6407 000a 7B68     		ldr	r3, [r7, #4]
 6408 000c 93F83C30 		ldrb	r3, [r3, #60]	@ zero_extendqisi2
 6409 0010 012B     		cmp	r3, #1
 6410 0012 01D1     		bne	.L402
 6411              		.loc 1 2245 3 is_stmt 0 discriminator 1
 6412 0014 0223     		movs	r3, #2
 6413 0016 12E0     		b	.L403
 6414              	.L402:
ARM GAS  /tmp/ccxx2olO.s 			page 155


 6415              		.loc 1 2245 3 discriminator 2
 6416 0018 7B68     		ldr	r3, [r7, #4]
 6417 001a 0122     		movs	r2, #1
 6418 001c 83F83C20 		strb	r2, [r3, #60]
2246:./Libraries/STM32H7xx_HAL_Driver/Src/stm32h7xx_hal_tim_ex.c **** 
2247:./Libraries/STM32H7xx_HAL_Driver/Src/stm32h7xx_hal_tim_ex.c ****   MODIFY_REG(htim->Instance->AF1, TIM1_AF1_ETRSEL_Msk, Remap);
 6419              		.loc 1 2247 3 is_stmt 1 discriminator 2
 6420 0020 7B68     		ldr	r3, [r7, #4]
 6421 0022 1B68     		ldr	r3, [r3]
 6422 0024 1B6E     		ldr	r3, [r3, #96]
 6423 0026 23F47031 		bic	r1, r3, #245760
 6424 002a 7B68     		ldr	r3, [r7, #4]
 6425 002c 1B68     		ldr	r3, [r3]
 6426 002e 3A68     		ldr	r2, [r7]
 6427 0030 0A43     		orrs	r2, r2, r1
 6428 0032 1A66     		str	r2, [r3, #96]
2248:./Libraries/STM32H7xx_HAL_Driver/Src/stm32h7xx_hal_tim_ex.c **** 
2249:./Libraries/STM32H7xx_HAL_Driver/Src/stm32h7xx_hal_tim_ex.c ****   __HAL_UNLOCK(htim);
 6429              		.loc 1 2249 3 discriminator 2
 6430 0034 7B68     		ldr	r3, [r7, #4]
 6431 0036 0022     		movs	r2, #0
 6432 0038 83F83C20 		strb	r2, [r3, #60]
2250:./Libraries/STM32H7xx_HAL_Driver/Src/stm32h7xx_hal_tim_ex.c **** 
2251:./Libraries/STM32H7xx_HAL_Driver/Src/stm32h7xx_hal_tim_ex.c ****   return HAL_OK;
 6433              		.loc 1 2251 10 discriminator 2
 6434 003c 0023     		movs	r3, #0
 6435              	.L403:
2252:./Libraries/STM32H7xx_HAL_Driver/Src/stm32h7xx_hal_tim_ex.c **** }
 6436              		.loc 1 2252 1
 6437 003e 1846     		mov	r0, r3
 6438 0040 0C37     		adds	r7, r7, #12
 6439              	.LCFI171:
 6440              		.cfi_def_cfa_offset 4
 6441 0042 BD46     		mov	sp, r7
 6442              	.LCFI172:
 6443              		.cfi_def_cfa_register 13
 6444              		@ sp needed
 6445 0044 5DF8047B 		ldr	r7, [sp], #4
 6446              	.LCFI173:
 6447              		.cfi_restore 7
 6448              		.cfi_def_cfa_offset 0
 6449 0048 7047     		bx	lr
 6450              		.cfi_endproc
 6451              	.LFE363:
 6453              		.section	.text.HAL_TIMEx_TISelection,"ax",%progbits
 6454              		.align	1
 6455              		.global	HAL_TIMEx_TISelection
 6456              		.syntax unified
 6457              		.thumb
 6458              		.thumb_func
 6459              		.fpu fpv5-d16
 6461              	HAL_TIMEx_TISelection:
 6462              	.LFB364:
2253:./Libraries/STM32H7xx_HAL_Driver/Src/stm32h7xx_hal_tim_ex.c **** 
2254:./Libraries/STM32H7xx_HAL_Driver/Src/stm32h7xx_hal_tim_ex.c **** /**
2255:./Libraries/STM32H7xx_HAL_Driver/Src/stm32h7xx_hal_tim_ex.c ****   * @brief  Select the timer input source
2256:./Libraries/STM32H7xx_HAL_Driver/Src/stm32h7xx_hal_tim_ex.c ****   * @param  htim TIM handle.
ARM GAS  /tmp/ccxx2olO.s 			page 156


2257:./Libraries/STM32H7xx_HAL_Driver/Src/stm32h7xx_hal_tim_ex.c ****   * @param  Channel specifies the TIM Channel
2258:./Libraries/STM32H7xx_HAL_Driver/Src/stm32h7xx_hal_tim_ex.c ****   *          This parameter can be one of the following values:
2259:./Libraries/STM32H7xx_HAL_Driver/Src/stm32h7xx_hal_tim_ex.c ****   *            @arg TIM_CHANNEL_1: TI1 input channel
2260:./Libraries/STM32H7xx_HAL_Driver/Src/stm32h7xx_hal_tim_ex.c ****   *            @arg TIM_CHANNEL_2: TI2 input channel
2261:./Libraries/STM32H7xx_HAL_Driver/Src/stm32h7xx_hal_tim_ex.c ****   *            @arg TIM_CHANNEL_3: TIM Channel 3
2262:./Libraries/STM32H7xx_HAL_Driver/Src/stm32h7xx_hal_tim_ex.c ****   *            @arg TIM_CHANNEL_4: TIM Channel 4
2263:./Libraries/STM32H7xx_HAL_Driver/Src/stm32h7xx_hal_tim_ex.c ****   * @param  TISelection parameter of the TIM_TISelectionStruct structure is detailed as follows:
2264:./Libraries/STM32H7xx_HAL_Driver/Src/stm32h7xx_hal_tim_ex.c ****   *         For TIM1, the parameter is one of the following values:
2265:./Libraries/STM32H7xx_HAL_Driver/Src/stm32h7xx_hal_tim_ex.c ****   *            @arg TIM_TIM1_TI1_GPIO:                TIM1 TI1 is connected to GPIO
2266:./Libraries/STM32H7xx_HAL_Driver/Src/stm32h7xx_hal_tim_ex.c ****   *            @arg TIM_TIM1_TI1_COMP1:               TIM1 TI1 is connected to COMP1 output
2267:./Libraries/STM32H7xx_HAL_Driver/Src/stm32h7xx_hal_tim_ex.c ****   *
2268:./Libraries/STM32H7xx_HAL_Driver/Src/stm32h7xx_hal_tim_ex.c ****   *         For TIM2, the parameter is one of the following values:
2269:./Libraries/STM32H7xx_HAL_Driver/Src/stm32h7xx_hal_tim_ex.c ****   *            @arg TIM_TIM2_TI4_GPIO:                TIM2 TI4 is connected to GPIO
2270:./Libraries/STM32H7xx_HAL_Driver/Src/stm32h7xx_hal_tim_ex.c ****   *            @arg TIM_TIM2_TI4_COMP1:               TIM2 TI4 is connected to COMP1 output
2271:./Libraries/STM32H7xx_HAL_Driver/Src/stm32h7xx_hal_tim_ex.c ****   *            @arg TIM_TIM2_TI4_COMP2:               TIM2 TI4 is connected to COMP2 output
2272:./Libraries/STM32H7xx_HAL_Driver/Src/stm32h7xx_hal_tim_ex.c ****   *            @arg TIM_TIM2_TI4_COMP1_COMP2:         TIM2 TI4 is connected to logical OR between C
2273:./Libraries/STM32H7xx_HAL_Driver/Src/stm32h7xx_hal_tim_ex.c ****   *
2274:./Libraries/STM32H7xx_HAL_Driver/Src/stm32h7xx_hal_tim_ex.c ****   *         For TIM3, the parameter is one of the following values:
2275:./Libraries/STM32H7xx_HAL_Driver/Src/stm32h7xx_hal_tim_ex.c ****   *            @arg TIM_TIM3_TI1_GPIO:                TIM3 TI1 is connected to GPIO
2276:./Libraries/STM32H7xx_HAL_Driver/Src/stm32h7xx_hal_tim_ex.c ****   *            @arg TIM_TIM3_TI1_COMP1:               TIM3 TI1 is connected to COMP1 output
2277:./Libraries/STM32H7xx_HAL_Driver/Src/stm32h7xx_hal_tim_ex.c ****   *            @arg TIM_TIM3_TI1_COMP2:               TIM3 TI1 is connected to COMP2 output
2278:./Libraries/STM32H7xx_HAL_Driver/Src/stm32h7xx_hal_tim_ex.c ****   *            @arg TIM_TIM3_TI1_COMP1_COMP2:         TIM3 TI1 is connected to logical OR between C
2279:./Libraries/STM32H7xx_HAL_Driver/Src/stm32h7xx_hal_tim_ex.c ****   *
2280:./Libraries/STM32H7xx_HAL_Driver/Src/stm32h7xx_hal_tim_ex.c ****   *         For TIM5, the parameter is one of the following values:
2281:./Libraries/STM32H7xx_HAL_Driver/Src/stm32h7xx_hal_tim_ex.c ****   *            @arg TIM_TIM5_TI1_GPIO:                TIM5 TI1 is connected to GPIO
2282:./Libraries/STM32H7xx_HAL_Driver/Src/stm32h7xx_hal_tim_ex.c ****   *            @arg TIM_TIM5_TI1_CAN_TMP:             TIM5 TI1 is connected to CAN TMP
2283:./Libraries/STM32H7xx_HAL_Driver/Src/stm32h7xx_hal_tim_ex.c ****   *            @arg TIM_TIM5_TI1_CAN_RTP:             TIM5 TI1 is connected to CAN RTP
2284:./Libraries/STM32H7xx_HAL_Driver/Src/stm32h7xx_hal_tim_ex.c ****   *
2285:./Libraries/STM32H7xx_HAL_Driver/Src/stm32h7xx_hal_tim_ex.c ****   *         For TIM8, the parameter is one of the following values:
2286:./Libraries/STM32H7xx_HAL_Driver/Src/stm32h7xx_hal_tim_ex.c ****   *            @arg TIM_TIM8_TI1_GPIO:               TIM8 TI1 is connected to GPIO
2287:./Libraries/STM32H7xx_HAL_Driver/Src/stm32h7xx_hal_tim_ex.c ****   *            @arg TIM_TIM8_TI1_COMP2:              TIM8 TI1 is connected to COMP2 output
2288:./Libraries/STM32H7xx_HAL_Driver/Src/stm32h7xx_hal_tim_ex.c ****   *
2289:./Libraries/STM32H7xx_HAL_Driver/Src/stm32h7xx_hal_tim_ex.c ****   *         For TIM12, the parameter can have the following values: (*)
2290:./Libraries/STM32H7xx_HAL_Driver/Src/stm32h7xx_hal_tim_ex.c ****   *            @arg TIM_TIM12_TI1_GPIO:              TIM12 TI1 is connected to GPIO
2291:./Libraries/STM32H7xx_HAL_Driver/Src/stm32h7xx_hal_tim_ex.c ****   *            @arg TIM_TIM12_TI1_SPDIF_FS:          TIM12 TI1 is connected to SPDIF FS
2292:./Libraries/STM32H7xx_HAL_Driver/Src/stm32h7xx_hal_tim_ex.c ****   *
2293:./Libraries/STM32H7xx_HAL_Driver/Src/stm32h7xx_hal_tim_ex.c ****   *         For TIM15, the parameter is one of the following values:
2294:./Libraries/STM32H7xx_HAL_Driver/Src/stm32h7xx_hal_tim_ex.c ****   *            @arg TIM_TIM15_TI1_GPIO:              TIM15 TI1 is connected to GPIO
2295:./Libraries/STM32H7xx_HAL_Driver/Src/stm32h7xx_hal_tim_ex.c ****   *            @arg TIM_TIM15_TI1_TIM2:              TIM15 TI1 is connected to TIM2 CH1
2296:./Libraries/STM32H7xx_HAL_Driver/Src/stm32h7xx_hal_tim_ex.c ****   *            @arg TIM_TIM15_TI1_TIM3:              TIM15 TI1 is connected to TIM3 CH1
2297:./Libraries/STM32H7xx_HAL_Driver/Src/stm32h7xx_hal_tim_ex.c ****   *            @arg TIM_TIM15_TI1_TIM4:              TIM15 TI1 is connected to TIM4 CH1
2298:./Libraries/STM32H7xx_HAL_Driver/Src/stm32h7xx_hal_tim_ex.c ****   *            @arg TIM_TIM15_TI1_LSE:               TIM15 TI1 is connected to LSE
2299:./Libraries/STM32H7xx_HAL_Driver/Src/stm32h7xx_hal_tim_ex.c ****   *            @arg TIM_TIM15_TI1_CSI:               TIM15 TI1 is connected to CSI
2300:./Libraries/STM32H7xx_HAL_Driver/Src/stm32h7xx_hal_tim_ex.c ****   *            @arg TIM_TIM15_TI1_MCO2:              TIM15 TI1 is connected to MCO2
2301:./Libraries/STM32H7xx_HAL_Driver/Src/stm32h7xx_hal_tim_ex.c ****   *            @arg TIM_TIM15_TI2_GPIO:              TIM15 TI2 is connected to GPIO
2302:./Libraries/STM32H7xx_HAL_Driver/Src/stm32h7xx_hal_tim_ex.c ****   *            @arg TIM_TIM15_TI2_TIM2:              TIM15 TI2 is connected to TIM2 CH2
2303:./Libraries/STM32H7xx_HAL_Driver/Src/stm32h7xx_hal_tim_ex.c ****   *            @arg TIM_TIM15_TI2_TIM3:              TIM15 TI2 is connected to TIM3 CH2
2304:./Libraries/STM32H7xx_HAL_Driver/Src/stm32h7xx_hal_tim_ex.c ****   *            @arg TIM_TIM15_TI2_TIM4:              TIM15 TI2 is connected to TIM4 CH2
2305:./Libraries/STM32H7xx_HAL_Driver/Src/stm32h7xx_hal_tim_ex.c ****   *
2306:./Libraries/STM32H7xx_HAL_Driver/Src/stm32h7xx_hal_tim_ex.c ****   *         For TIM16, the parameter can have the following values:
2307:./Libraries/STM32H7xx_HAL_Driver/Src/stm32h7xx_hal_tim_ex.c ****   *            @arg TIM_TIM16_TI1_GPIO:              TIM16 TI1 is connected to GPIO
2308:./Libraries/STM32H7xx_HAL_Driver/Src/stm32h7xx_hal_tim_ex.c ****   *            @arg TIM_TIM16_TI1_LSI:               TIM16 TI1 is connected to LSI
2309:./Libraries/STM32H7xx_HAL_Driver/Src/stm32h7xx_hal_tim_ex.c ****   *            @arg TIM_TIM16_TI1_LSE:               TIM16 TI1 is connected to LSE
2310:./Libraries/STM32H7xx_HAL_Driver/Src/stm32h7xx_hal_tim_ex.c ****   *            @arg TIM_TIM16_TI1_RTC:               TIM16 TI1 is connected to RTC wakeup interrupt
2311:./Libraries/STM32H7xx_HAL_Driver/Src/stm32h7xx_hal_tim_ex.c ****   *
2312:./Libraries/STM32H7xx_HAL_Driver/Src/stm32h7xx_hal_tim_ex.c ****   *         For TIM17, the parameter can have the following values:
2313:./Libraries/STM32H7xx_HAL_Driver/Src/stm32h7xx_hal_tim_ex.c ****   *            @arg TIM_TIM17_TI1_GPIO:              TIM17 TI1 is connected to GPIO
ARM GAS  /tmp/ccxx2olO.s 			page 157


2314:./Libraries/STM32H7xx_HAL_Driver/Src/stm32h7xx_hal_tim_ex.c ****   *            @arg TIM_TIM17_TI1_SPDIF_FS:          TIM17 TI1 is connected to SPDIF FS (*)
2315:./Libraries/STM32H7xx_HAL_Driver/Src/stm32h7xx_hal_tim_ex.c ****   *            @arg TIM_TIM17_TI1_HSE_1MHZ:          TIM17 TI1 is connected to HSE 1MHz
2316:./Libraries/STM32H7xx_HAL_Driver/Src/stm32h7xx_hal_tim_ex.c ****   *            @arg TIM_TIM17_TI1_MCO1:              TIM17 TI1 is connected to MCO1
2317:./Libraries/STM32H7xx_HAL_Driver/Src/stm32h7xx_hal_tim_ex.c ****   *
2318:./Libraries/STM32H7xx_HAL_Driver/Src/stm32h7xx_hal_tim_ex.c ****   *         For TIM23, the parameter can have the following values: (*)
2319:./Libraries/STM32H7xx_HAL_Driver/Src/stm32h7xx_hal_tim_ex.c ****   *            @arg TIM_TIM23_TI4_GPIO               TIM23_TI4 is connected to GPIO
2320:./Libraries/STM32H7xx_HAL_Driver/Src/stm32h7xx_hal_tim_ex.c ****   *            @arg TIM_TIM23_TI4_COMP1              TIM23_TI4 is connected to COMP1 output
2321:./Libraries/STM32H7xx_HAL_Driver/Src/stm32h7xx_hal_tim_ex.c ****   *            @arg TIM_TIM23_TI4_COMP2              TIM23_TI4 is connected to COMP2 output
2322:./Libraries/STM32H7xx_HAL_Driver/Src/stm32h7xx_hal_tim_ex.c ****   *            @arg TIM_TIM23_TI4_COMP1_COMP2        TIM23_TI4 is connected to COMP2 output
2323:./Libraries/STM32H7xx_HAL_Driver/Src/stm32h7xx_hal_tim_ex.c ****   *
2324:./Libraries/STM32H7xx_HAL_Driver/Src/stm32h7xx_hal_tim_ex.c ****   *         For TIM24, the parameter can have the following values: (*)
2325:./Libraries/STM32H7xx_HAL_Driver/Src/stm32h7xx_hal_tim_ex.c ****   *            @arg TIM_TIM24_TI1_GPIO               TIM24_TI1 is connected to GPIO
2326:./Libraries/STM32H7xx_HAL_Driver/Src/stm32h7xx_hal_tim_ex.c ****   *            @arg TIM_TIM24_TI1_CAN_TMP            TIM24_TI1 is connected to CAN_TMP
2327:./Libraries/STM32H7xx_HAL_Driver/Src/stm32h7xx_hal_tim_ex.c ****   *            @arg TIM_TIM24_TI1_CAN_RTP            TIM24_TI1 is connected to CAN_RTP
2328:./Libraries/STM32H7xx_HAL_Driver/Src/stm32h7xx_hal_tim_ex.c ****   *            @arg TIM_TIM24_TI1_CAN_SOC            TIM24_TI1 is connected to CAN_SOC
2329:./Libraries/STM32H7xx_HAL_Driver/Src/stm32h7xx_hal_tim_ex.c ****   *
2330:./Libraries/STM32H7xx_HAL_Driver/Src/stm32h7xx_hal_tim_ex.c ****   *         (*)  Value not defined in all devices. \n
2331:./Libraries/STM32H7xx_HAL_Driver/Src/stm32h7xx_hal_tim_ex.c ****   * @retval HAL status
2332:./Libraries/STM32H7xx_HAL_Driver/Src/stm32h7xx_hal_tim_ex.c ****   */
2333:./Libraries/STM32H7xx_HAL_Driver/Src/stm32h7xx_hal_tim_ex.c **** HAL_StatusTypeDef  HAL_TIMEx_TISelection(TIM_HandleTypeDef *htim, uint32_t TISelection, uint32_t Ch
2334:./Libraries/STM32H7xx_HAL_Driver/Src/stm32h7xx_hal_tim_ex.c **** {
 6463              		.loc 1 2334 1
 6464              		.cfi_startproc
 6465              		@ args = 0, pretend = 0, frame = 24
 6466              		@ frame_needed = 1, uses_anonymous_args = 0
 6467              		@ link register save eliminated.
 6468 0000 80B4     		push	{r7}
 6469              	.LCFI174:
 6470              		.cfi_def_cfa_offset 4
 6471              		.cfi_offset 7, -4
 6472 0002 87B0     		sub	sp, sp, #28
 6473              	.LCFI175:
 6474              		.cfi_def_cfa_offset 32
 6475 0004 00AF     		add	r7, sp, #0
 6476              	.LCFI176:
 6477              		.cfi_def_cfa_register 7
 6478 0006 F860     		str	r0, [r7, #12]
 6479 0008 B960     		str	r1, [r7, #8]
 6480 000a 7A60     		str	r2, [r7, #4]
2335:./Libraries/STM32H7xx_HAL_Driver/Src/stm32h7xx_hal_tim_ex.c ****   HAL_StatusTypeDef status = HAL_OK;
 6481              		.loc 1 2335 21
 6482 000c 0023     		movs	r3, #0
 6483 000e FB75     		strb	r3, [r7, #23]
2336:./Libraries/STM32H7xx_HAL_Driver/Src/stm32h7xx_hal_tim_ex.c **** 
2337:./Libraries/STM32H7xx_HAL_Driver/Src/stm32h7xx_hal_tim_ex.c ****   /* Check parameters */
2338:./Libraries/STM32H7xx_HAL_Driver/Src/stm32h7xx_hal_tim_ex.c ****   assert_param(IS_TIM_TISEL_INSTANCE(htim->Instance));
2339:./Libraries/STM32H7xx_HAL_Driver/Src/stm32h7xx_hal_tim_ex.c ****   assert_param(IS_TIM_TISEL(TISelection));
2340:./Libraries/STM32H7xx_HAL_Driver/Src/stm32h7xx_hal_tim_ex.c **** 
2341:./Libraries/STM32H7xx_HAL_Driver/Src/stm32h7xx_hal_tim_ex.c ****   __HAL_LOCK(htim);
 6484              		.loc 1 2341 3
 6485 0010 FB68     		ldr	r3, [r7, #12]
 6486 0012 93F83C30 		ldrb	r3, [r3, #60]	@ zero_extendqisi2
 6487 0016 012B     		cmp	r3, #1
 6488 0018 01D1     		bne	.L405
 6489              		.loc 1 2341 3 is_stmt 0 discriminator 1
 6490 001a 0223     		movs	r3, #2
 6491 001c 58E0     		b	.L406
ARM GAS  /tmp/ccxx2olO.s 			page 158


 6492              	.L405:
 6493              		.loc 1 2341 3 discriminator 2
 6494 001e FB68     		ldr	r3, [r7, #12]
 6495 0020 0122     		movs	r2, #1
 6496 0022 83F83C20 		strb	r2, [r3, #60]
 6497 0026 7B68     		ldr	r3, [r7, #4]
 6498 0028 0C2B     		cmp	r3, #12
 6499 002a 49D8     		bhi	.L407
 6500 002c 01A2     		adr	r2, .L409
 6501 002e 52F823F0 		ldr	pc, [r2, r3, lsl #2]
 6502 0032 00BF     		.p2align 2
 6503              	.L409:
 6504 0034 69000000 		.word	.L412+1
 6505 0038 C1000000 		.word	.L407+1
 6506 003c C1000000 		.word	.L407+1
 6507 0040 C1000000 		.word	.L407+1
 6508 0044 7F000000 		.word	.L411+1
 6509 0048 C1000000 		.word	.L407+1
 6510 004c C1000000 		.word	.L407+1
 6511 0050 C1000000 		.word	.L407+1
 6512 0054 95000000 		.word	.L410+1
 6513 0058 C1000000 		.word	.L407+1
 6514 005c C1000000 		.word	.L407+1
 6515 0060 C1000000 		.word	.L407+1
 6516 0064 AB000000 		.word	.L408+1
 6517              		.p2align 1
 6518              	.L412:
2342:./Libraries/STM32H7xx_HAL_Driver/Src/stm32h7xx_hal_tim_ex.c **** 
2343:./Libraries/STM32H7xx_HAL_Driver/Src/stm32h7xx_hal_tim_ex.c ****   switch (Channel)
2344:./Libraries/STM32H7xx_HAL_Driver/Src/stm32h7xx_hal_tim_ex.c ****   {
2345:./Libraries/STM32H7xx_HAL_Driver/Src/stm32h7xx_hal_tim_ex.c ****     case TIM_CHANNEL_1:
2346:./Libraries/STM32H7xx_HAL_Driver/Src/stm32h7xx_hal_tim_ex.c ****       MODIFY_REG(htim->Instance->TISEL, TIM_TISEL_TI1SEL, TISelection);
 6519              		.loc 1 2346 7 is_stmt 1
 6520 0068 FB68     		ldr	r3, [r7, #12]
 6521 006a 1B68     		ldr	r3, [r3]
 6522 006c 9B6E     		ldr	r3, [r3, #104]
 6523 006e 23F00F01 		bic	r1, r3, #15
 6524 0072 FB68     		ldr	r3, [r7, #12]
 6525 0074 1B68     		ldr	r3, [r3]
 6526 0076 BA68     		ldr	r2, [r7, #8]
 6527 0078 0A43     		orrs	r2, r2, r1
 6528 007a 9A66     		str	r2, [r3, #104]
2347:./Libraries/STM32H7xx_HAL_Driver/Src/stm32h7xx_hal_tim_ex.c ****       break;
 6529              		.loc 1 2347 7
 6530 007c 23E0     		b	.L413
 6531              	.L411:
2348:./Libraries/STM32H7xx_HAL_Driver/Src/stm32h7xx_hal_tim_ex.c ****     case TIM_CHANNEL_2:
2349:./Libraries/STM32H7xx_HAL_Driver/Src/stm32h7xx_hal_tim_ex.c ****       MODIFY_REG(htim->Instance->TISEL, TIM_TISEL_TI2SEL, TISelection);
 6532              		.loc 1 2349 7
 6533 007e FB68     		ldr	r3, [r7, #12]
 6534 0080 1B68     		ldr	r3, [r3]
 6535 0082 9B6E     		ldr	r3, [r3, #104]
 6536 0084 23F47061 		bic	r1, r3, #3840
 6537 0088 FB68     		ldr	r3, [r7, #12]
 6538 008a 1B68     		ldr	r3, [r3]
 6539 008c BA68     		ldr	r2, [r7, #8]
 6540 008e 0A43     		orrs	r2, r2, r1
ARM GAS  /tmp/ccxx2olO.s 			page 159


 6541 0090 9A66     		str	r2, [r3, #104]
2350:./Libraries/STM32H7xx_HAL_Driver/Src/stm32h7xx_hal_tim_ex.c ****       break;
 6542              		.loc 1 2350 7
 6543 0092 18E0     		b	.L413
 6544              	.L410:
2351:./Libraries/STM32H7xx_HAL_Driver/Src/stm32h7xx_hal_tim_ex.c ****     case TIM_CHANNEL_3:
2352:./Libraries/STM32H7xx_HAL_Driver/Src/stm32h7xx_hal_tim_ex.c ****       MODIFY_REG(htim->Instance->TISEL, TIM_TISEL_TI3SEL, TISelection);
 6545              		.loc 1 2352 7
 6546 0094 FB68     		ldr	r3, [r7, #12]
 6547 0096 1B68     		ldr	r3, [r3]
 6548 0098 9B6E     		ldr	r3, [r3, #104]
 6549 009a 23F47021 		bic	r1, r3, #983040
 6550 009e FB68     		ldr	r3, [r7, #12]
 6551 00a0 1B68     		ldr	r3, [r3]
 6552 00a2 BA68     		ldr	r2, [r7, #8]
 6553 00a4 0A43     		orrs	r2, r2, r1
 6554 00a6 9A66     		str	r2, [r3, #104]
2353:./Libraries/STM32H7xx_HAL_Driver/Src/stm32h7xx_hal_tim_ex.c ****       break;
 6555              		.loc 1 2353 7
 6556 00a8 0DE0     		b	.L413
 6557              	.L408:
2354:./Libraries/STM32H7xx_HAL_Driver/Src/stm32h7xx_hal_tim_ex.c ****     case TIM_CHANNEL_4:
2355:./Libraries/STM32H7xx_HAL_Driver/Src/stm32h7xx_hal_tim_ex.c ****       MODIFY_REG(htim->Instance->TISEL, TIM_TISEL_TI4SEL, TISelection);
 6558              		.loc 1 2355 7
 6559 00aa FB68     		ldr	r3, [r7, #12]
 6560 00ac 1B68     		ldr	r3, [r3]
 6561 00ae 9B6E     		ldr	r3, [r3, #104]
 6562 00b0 23F07061 		bic	r1, r3, #251658240
 6563 00b4 FB68     		ldr	r3, [r7, #12]
 6564 00b6 1B68     		ldr	r3, [r3]
 6565 00b8 BA68     		ldr	r2, [r7, #8]
 6566 00ba 0A43     		orrs	r2, r2, r1
 6567 00bc 9A66     		str	r2, [r3, #104]
2356:./Libraries/STM32H7xx_HAL_Driver/Src/stm32h7xx_hal_tim_ex.c ****       break;
 6568              		.loc 1 2356 7
 6569 00be 02E0     		b	.L413
 6570              	.L407:
2357:./Libraries/STM32H7xx_HAL_Driver/Src/stm32h7xx_hal_tim_ex.c ****     default:
2358:./Libraries/STM32H7xx_HAL_Driver/Src/stm32h7xx_hal_tim_ex.c ****       status = HAL_ERROR;
 6571              		.loc 1 2358 14
 6572 00c0 0123     		movs	r3, #1
 6573 00c2 FB75     		strb	r3, [r7, #23]
2359:./Libraries/STM32H7xx_HAL_Driver/Src/stm32h7xx_hal_tim_ex.c ****       break;
 6574              		.loc 1 2359 7
 6575 00c4 00BF     		nop
 6576              	.L413:
2360:./Libraries/STM32H7xx_HAL_Driver/Src/stm32h7xx_hal_tim_ex.c ****   }
2361:./Libraries/STM32H7xx_HAL_Driver/Src/stm32h7xx_hal_tim_ex.c **** 
2362:./Libraries/STM32H7xx_HAL_Driver/Src/stm32h7xx_hal_tim_ex.c ****   __HAL_UNLOCK(htim);
 6577              		.loc 1 2362 3
 6578 00c6 FB68     		ldr	r3, [r7, #12]
 6579 00c8 0022     		movs	r2, #0
 6580 00ca 83F83C20 		strb	r2, [r3, #60]
2363:./Libraries/STM32H7xx_HAL_Driver/Src/stm32h7xx_hal_tim_ex.c **** 
2364:./Libraries/STM32H7xx_HAL_Driver/Src/stm32h7xx_hal_tim_ex.c ****   return status;
 6581              		.loc 1 2364 10
 6582 00ce FB7D     		ldrb	r3, [r7, #23]	@ zero_extendqisi2
ARM GAS  /tmp/ccxx2olO.s 			page 160


 6583              	.L406:
2365:./Libraries/STM32H7xx_HAL_Driver/Src/stm32h7xx_hal_tim_ex.c **** }
 6584              		.loc 1 2365 1
 6585 00d0 1846     		mov	r0, r3
 6586 00d2 1C37     		adds	r7, r7, #28
 6587              	.LCFI177:
 6588              		.cfi_def_cfa_offset 4
 6589 00d4 BD46     		mov	sp, r7
 6590              	.LCFI178:
 6591              		.cfi_def_cfa_register 13
 6592              		@ sp needed
 6593 00d6 5DF8047B 		ldr	r7, [sp], #4
 6594              	.LCFI179:
 6595              		.cfi_restore 7
 6596              		.cfi_def_cfa_offset 0
 6597 00da 7047     		bx	lr
 6598              		.cfi_endproc
 6599              	.LFE364:
 6601              		.section	.text.HAL_TIMEx_GroupChannel5,"ax",%progbits
 6602              		.align	1
 6603              		.global	HAL_TIMEx_GroupChannel5
 6604              		.syntax unified
 6605              		.thumb
 6606              		.thumb_func
 6607              		.fpu fpv5-d16
 6609              	HAL_TIMEx_GroupChannel5:
 6610              	.LFB365:
2366:./Libraries/STM32H7xx_HAL_Driver/Src/stm32h7xx_hal_tim_ex.c **** 
2367:./Libraries/STM32H7xx_HAL_Driver/Src/stm32h7xx_hal_tim_ex.c **** /**
2368:./Libraries/STM32H7xx_HAL_Driver/Src/stm32h7xx_hal_tim_ex.c ****   * @brief  Group channel 5 and channel 1, 2 or 3
2369:./Libraries/STM32H7xx_HAL_Driver/Src/stm32h7xx_hal_tim_ex.c ****   * @param  htim TIM handle.
2370:./Libraries/STM32H7xx_HAL_Driver/Src/stm32h7xx_hal_tim_ex.c ****   * @param  Channels specifies the reference signal(s) the OC5REF is combined with.
2371:./Libraries/STM32H7xx_HAL_Driver/Src/stm32h7xx_hal_tim_ex.c ****   *         This parameter can be any combination of the following values:
2372:./Libraries/STM32H7xx_HAL_Driver/Src/stm32h7xx_hal_tim_ex.c ****   *         TIM_GROUPCH5_NONE: No effect of OC5REF on OC1REFC, OC2REFC and OC3REFC
2373:./Libraries/STM32H7xx_HAL_Driver/Src/stm32h7xx_hal_tim_ex.c ****   *         TIM_GROUPCH5_OC1REFC: OC1REFC is the logical AND of OC1REFC and OC5REF
2374:./Libraries/STM32H7xx_HAL_Driver/Src/stm32h7xx_hal_tim_ex.c ****   *         TIM_GROUPCH5_OC2REFC: OC2REFC is the logical AND of OC2REFC and OC5REF
2375:./Libraries/STM32H7xx_HAL_Driver/Src/stm32h7xx_hal_tim_ex.c ****   *         TIM_GROUPCH5_OC3REFC: OC3REFC is the logical AND of OC3REFC and OC5REF
2376:./Libraries/STM32H7xx_HAL_Driver/Src/stm32h7xx_hal_tim_ex.c ****   * @retval HAL status
2377:./Libraries/STM32H7xx_HAL_Driver/Src/stm32h7xx_hal_tim_ex.c ****   */
2378:./Libraries/STM32H7xx_HAL_Driver/Src/stm32h7xx_hal_tim_ex.c **** HAL_StatusTypeDef HAL_TIMEx_GroupChannel5(TIM_HandleTypeDef *htim, uint32_t Channels)
2379:./Libraries/STM32H7xx_HAL_Driver/Src/stm32h7xx_hal_tim_ex.c **** {
 6611              		.loc 1 2379 1
 6612              		.cfi_startproc
 6613              		@ args = 0, pretend = 0, frame = 8
 6614              		@ frame_needed = 1, uses_anonymous_args = 0
 6615              		@ link register save eliminated.
 6616 0000 80B4     		push	{r7}
 6617              	.LCFI180:
 6618              		.cfi_def_cfa_offset 4
 6619              		.cfi_offset 7, -4
 6620 0002 83B0     		sub	sp, sp, #12
 6621              	.LCFI181:
 6622              		.cfi_def_cfa_offset 16
 6623 0004 00AF     		add	r7, sp, #0
 6624              	.LCFI182:
 6625              		.cfi_def_cfa_register 7
 6626 0006 7860     		str	r0, [r7, #4]
ARM GAS  /tmp/ccxx2olO.s 			page 161


 6627 0008 3960     		str	r1, [r7]
2380:./Libraries/STM32H7xx_HAL_Driver/Src/stm32h7xx_hal_tim_ex.c ****   /* Check parameters */
2381:./Libraries/STM32H7xx_HAL_Driver/Src/stm32h7xx_hal_tim_ex.c ****   assert_param(IS_TIM_COMBINED3PHASEPWM_INSTANCE(htim->Instance));
2382:./Libraries/STM32H7xx_HAL_Driver/Src/stm32h7xx_hal_tim_ex.c ****   assert_param(IS_TIM_GROUPCH5(Channels));
2383:./Libraries/STM32H7xx_HAL_Driver/Src/stm32h7xx_hal_tim_ex.c **** 
2384:./Libraries/STM32H7xx_HAL_Driver/Src/stm32h7xx_hal_tim_ex.c ****   /* Process Locked */
2385:./Libraries/STM32H7xx_HAL_Driver/Src/stm32h7xx_hal_tim_ex.c ****   __HAL_LOCK(htim);
 6628              		.loc 1 2385 3
 6629 000a 7B68     		ldr	r3, [r7, #4]
 6630 000c 93F83C30 		ldrb	r3, [r3, #60]	@ zero_extendqisi2
 6631 0010 012B     		cmp	r3, #1
 6632 0012 01D1     		bne	.L415
 6633              		.loc 1 2385 3 is_stmt 0 discriminator 1
 6634 0014 0223     		movs	r3, #2
 6635 0016 20E0     		b	.L416
 6636              	.L415:
 6637              		.loc 1 2385 3 discriminator 2
 6638 0018 7B68     		ldr	r3, [r7, #4]
 6639 001a 0122     		movs	r2, #1
 6640 001c 83F83C20 		strb	r2, [r3, #60]
2386:./Libraries/STM32H7xx_HAL_Driver/Src/stm32h7xx_hal_tim_ex.c **** 
2387:./Libraries/STM32H7xx_HAL_Driver/Src/stm32h7xx_hal_tim_ex.c ****   htim->State = HAL_TIM_STATE_BUSY;
 6641              		.loc 1 2387 15 is_stmt 1 discriminator 2
 6642 0020 7B68     		ldr	r3, [r7, #4]
 6643 0022 0222     		movs	r2, #2
 6644 0024 83F83D20 		strb	r2, [r3, #61]
2388:./Libraries/STM32H7xx_HAL_Driver/Src/stm32h7xx_hal_tim_ex.c **** 
2389:./Libraries/STM32H7xx_HAL_Driver/Src/stm32h7xx_hal_tim_ex.c ****   /* Clear GC5Cx bit fields */
2390:./Libraries/STM32H7xx_HAL_Driver/Src/stm32h7xx_hal_tim_ex.c ****   htim->Instance->CCR5 &= ~(TIM_CCR5_GC5C3 | TIM_CCR5_GC5C2 | TIM_CCR5_GC5C1);
 6645              		.loc 1 2390 7 discriminator 2
 6646 0028 7B68     		ldr	r3, [r7, #4]
 6647 002a 1B68     		ldr	r3, [r3]
 6648              		.loc 1 2390 24 discriminator 2
 6649 002c 9A6D     		ldr	r2, [r3, #88]
 6650              		.loc 1 2390 7 discriminator 2
 6651 002e 7B68     		ldr	r3, [r7, #4]
 6652 0030 1B68     		ldr	r3, [r3]
 6653              		.loc 1 2390 24 discriminator 2
 6654 0032 22F06042 		bic	r2, r2, #-536870912
 6655 0036 9A65     		str	r2, [r3, #88]
2391:./Libraries/STM32H7xx_HAL_Driver/Src/stm32h7xx_hal_tim_ex.c **** 
2392:./Libraries/STM32H7xx_HAL_Driver/Src/stm32h7xx_hal_tim_ex.c ****   /* Set GC5Cx bit fields */
2393:./Libraries/STM32H7xx_HAL_Driver/Src/stm32h7xx_hal_tim_ex.c ****   htim->Instance->CCR5 |= Channels;
 6656              		.loc 1 2393 7 discriminator 2
 6657 0038 7B68     		ldr	r3, [r7, #4]
 6658 003a 1B68     		ldr	r3, [r3]
 6659              		.loc 1 2393 24 discriminator 2
 6660 003c 996D     		ldr	r1, [r3, #88]
 6661              		.loc 1 2393 7 discriminator 2
 6662 003e 7B68     		ldr	r3, [r7, #4]
 6663 0040 1B68     		ldr	r3, [r3]
 6664              		.loc 1 2393 24 discriminator 2
 6665 0042 3A68     		ldr	r2, [r7]
 6666 0044 0A43     		orrs	r2, r2, r1
 6667 0046 9A65     		str	r2, [r3, #88]
2394:./Libraries/STM32H7xx_HAL_Driver/Src/stm32h7xx_hal_tim_ex.c **** 
2395:./Libraries/STM32H7xx_HAL_Driver/Src/stm32h7xx_hal_tim_ex.c ****   /* Change the htim state */
ARM GAS  /tmp/ccxx2olO.s 			page 162


2396:./Libraries/STM32H7xx_HAL_Driver/Src/stm32h7xx_hal_tim_ex.c ****   htim->State = HAL_TIM_STATE_READY;
 6668              		.loc 1 2396 15 discriminator 2
 6669 0048 7B68     		ldr	r3, [r7, #4]
 6670 004a 0122     		movs	r2, #1
 6671 004c 83F83D20 		strb	r2, [r3, #61]
2397:./Libraries/STM32H7xx_HAL_Driver/Src/stm32h7xx_hal_tim_ex.c **** 
2398:./Libraries/STM32H7xx_HAL_Driver/Src/stm32h7xx_hal_tim_ex.c ****   __HAL_UNLOCK(htim);
 6672              		.loc 1 2398 3 discriminator 2
 6673 0050 7B68     		ldr	r3, [r7, #4]
 6674 0052 0022     		movs	r2, #0
 6675 0054 83F83C20 		strb	r2, [r3, #60]
2399:./Libraries/STM32H7xx_HAL_Driver/Src/stm32h7xx_hal_tim_ex.c **** 
2400:./Libraries/STM32H7xx_HAL_Driver/Src/stm32h7xx_hal_tim_ex.c ****   return HAL_OK;
 6676              		.loc 1 2400 10 discriminator 2
 6677 0058 0023     		movs	r3, #0
 6678              	.L416:
2401:./Libraries/STM32H7xx_HAL_Driver/Src/stm32h7xx_hal_tim_ex.c **** }
 6679              		.loc 1 2401 1
 6680 005a 1846     		mov	r0, r3
 6681 005c 0C37     		adds	r7, r7, #12
 6682              	.LCFI183:
 6683              		.cfi_def_cfa_offset 4
 6684 005e BD46     		mov	sp, r7
 6685              	.LCFI184:
 6686              		.cfi_def_cfa_register 13
 6687              		@ sp needed
 6688 0060 5DF8047B 		ldr	r7, [sp], #4
 6689              	.LCFI185:
 6690              		.cfi_restore 7
 6691              		.cfi_def_cfa_offset 0
 6692 0064 7047     		bx	lr
 6693              		.cfi_endproc
 6694              	.LFE365:
 6696              		.section	.text.HAL_TIMEx_CommutCallback,"ax",%progbits
 6697              		.align	1
 6698              		.weak	HAL_TIMEx_CommutCallback
 6699              		.syntax unified
 6700              		.thumb
 6701              		.thumb_func
 6702              		.fpu fpv5-d16
 6704              	HAL_TIMEx_CommutCallback:
 6705              	.LFB366:
2402:./Libraries/STM32H7xx_HAL_Driver/Src/stm32h7xx_hal_tim_ex.c **** 
2403:./Libraries/STM32H7xx_HAL_Driver/Src/stm32h7xx_hal_tim_ex.c **** /**
2404:./Libraries/STM32H7xx_HAL_Driver/Src/stm32h7xx_hal_tim_ex.c ****   * @}
2405:./Libraries/STM32H7xx_HAL_Driver/Src/stm32h7xx_hal_tim_ex.c ****   */
2406:./Libraries/STM32H7xx_HAL_Driver/Src/stm32h7xx_hal_tim_ex.c **** 
2407:./Libraries/STM32H7xx_HAL_Driver/Src/stm32h7xx_hal_tim_ex.c **** /** @defgroup TIMEx_Exported_Functions_Group6 Extended Callbacks functions
2408:./Libraries/STM32H7xx_HAL_Driver/Src/stm32h7xx_hal_tim_ex.c ****   * @brief    Extended Callbacks functions
2409:./Libraries/STM32H7xx_HAL_Driver/Src/stm32h7xx_hal_tim_ex.c ****   *
2410:./Libraries/STM32H7xx_HAL_Driver/Src/stm32h7xx_hal_tim_ex.c **** @verbatim
2411:./Libraries/STM32H7xx_HAL_Driver/Src/stm32h7xx_hal_tim_ex.c ****   ==============================================================================
2412:./Libraries/STM32H7xx_HAL_Driver/Src/stm32h7xx_hal_tim_ex.c ****                     ##### Extended Callbacks functions #####
2413:./Libraries/STM32H7xx_HAL_Driver/Src/stm32h7xx_hal_tim_ex.c ****   ==============================================================================
2414:./Libraries/STM32H7xx_HAL_Driver/Src/stm32h7xx_hal_tim_ex.c ****   [..]
2415:./Libraries/STM32H7xx_HAL_Driver/Src/stm32h7xx_hal_tim_ex.c ****     This section provides Extended TIM callback functions:
2416:./Libraries/STM32H7xx_HAL_Driver/Src/stm32h7xx_hal_tim_ex.c ****     (+) Timer Commutation callback
ARM GAS  /tmp/ccxx2olO.s 			page 163


2417:./Libraries/STM32H7xx_HAL_Driver/Src/stm32h7xx_hal_tim_ex.c ****     (+) Timer Break callback
2418:./Libraries/STM32H7xx_HAL_Driver/Src/stm32h7xx_hal_tim_ex.c **** 
2419:./Libraries/STM32H7xx_HAL_Driver/Src/stm32h7xx_hal_tim_ex.c **** @endverbatim
2420:./Libraries/STM32H7xx_HAL_Driver/Src/stm32h7xx_hal_tim_ex.c ****   * @{
2421:./Libraries/STM32H7xx_HAL_Driver/Src/stm32h7xx_hal_tim_ex.c ****   */
2422:./Libraries/STM32H7xx_HAL_Driver/Src/stm32h7xx_hal_tim_ex.c **** 
2423:./Libraries/STM32H7xx_HAL_Driver/Src/stm32h7xx_hal_tim_ex.c **** /**
2424:./Libraries/STM32H7xx_HAL_Driver/Src/stm32h7xx_hal_tim_ex.c ****   * @brief  Hall commutation changed callback in non-blocking mode
2425:./Libraries/STM32H7xx_HAL_Driver/Src/stm32h7xx_hal_tim_ex.c ****   * @param  htim TIM handle
2426:./Libraries/STM32H7xx_HAL_Driver/Src/stm32h7xx_hal_tim_ex.c ****   * @retval None
2427:./Libraries/STM32H7xx_HAL_Driver/Src/stm32h7xx_hal_tim_ex.c ****   */
2428:./Libraries/STM32H7xx_HAL_Driver/Src/stm32h7xx_hal_tim_ex.c **** __weak void HAL_TIMEx_CommutCallback(TIM_HandleTypeDef *htim)
2429:./Libraries/STM32H7xx_HAL_Driver/Src/stm32h7xx_hal_tim_ex.c **** {
 6706              		.loc 1 2429 1
 6707              		.cfi_startproc
 6708              		@ args = 0, pretend = 0, frame = 8
 6709              		@ frame_needed = 1, uses_anonymous_args = 0
 6710              		@ link register save eliminated.
 6711 0000 80B4     		push	{r7}
 6712              	.LCFI186:
 6713              		.cfi_def_cfa_offset 4
 6714              		.cfi_offset 7, -4
 6715 0002 83B0     		sub	sp, sp, #12
 6716              	.LCFI187:
 6717              		.cfi_def_cfa_offset 16
 6718 0004 00AF     		add	r7, sp, #0
 6719              	.LCFI188:
 6720              		.cfi_def_cfa_register 7
 6721 0006 7860     		str	r0, [r7, #4]
2430:./Libraries/STM32H7xx_HAL_Driver/Src/stm32h7xx_hal_tim_ex.c ****   /* Prevent unused argument(s) compilation warning */
2431:./Libraries/STM32H7xx_HAL_Driver/Src/stm32h7xx_hal_tim_ex.c ****   UNUSED(htim);
2432:./Libraries/STM32H7xx_HAL_Driver/Src/stm32h7xx_hal_tim_ex.c **** 
2433:./Libraries/STM32H7xx_HAL_Driver/Src/stm32h7xx_hal_tim_ex.c ****   /* NOTE : This function should not be modified, when the callback is needed,
2434:./Libraries/STM32H7xx_HAL_Driver/Src/stm32h7xx_hal_tim_ex.c ****             the HAL_TIMEx_CommutCallback could be implemented in the user file
2435:./Libraries/STM32H7xx_HAL_Driver/Src/stm32h7xx_hal_tim_ex.c ****    */
2436:./Libraries/STM32H7xx_HAL_Driver/Src/stm32h7xx_hal_tim_ex.c **** }
 6722              		.loc 1 2436 1
 6723 0008 00BF     		nop
 6724 000a 0C37     		adds	r7, r7, #12
 6725              	.LCFI189:
 6726              		.cfi_def_cfa_offset 4
 6727 000c BD46     		mov	sp, r7
 6728              	.LCFI190:
 6729              		.cfi_def_cfa_register 13
 6730              		@ sp needed
 6731 000e 5DF8047B 		ldr	r7, [sp], #4
 6732              	.LCFI191:
 6733              		.cfi_restore 7
 6734              		.cfi_def_cfa_offset 0
 6735 0012 7047     		bx	lr
 6736              		.cfi_endproc
 6737              	.LFE366:
 6739              		.section	.text.HAL_TIMEx_CommutHalfCpltCallback,"ax",%progbits
 6740              		.align	1
 6741              		.weak	HAL_TIMEx_CommutHalfCpltCallback
 6742              		.syntax unified
 6743              		.thumb
ARM GAS  /tmp/ccxx2olO.s 			page 164


 6744              		.thumb_func
 6745              		.fpu fpv5-d16
 6747              	HAL_TIMEx_CommutHalfCpltCallback:
 6748              	.LFB367:
2437:./Libraries/STM32H7xx_HAL_Driver/Src/stm32h7xx_hal_tim_ex.c **** /**
2438:./Libraries/STM32H7xx_HAL_Driver/Src/stm32h7xx_hal_tim_ex.c ****   * @brief  Hall commutation changed half complete callback in non-blocking mode
2439:./Libraries/STM32H7xx_HAL_Driver/Src/stm32h7xx_hal_tim_ex.c ****   * @param  htim TIM handle
2440:./Libraries/STM32H7xx_HAL_Driver/Src/stm32h7xx_hal_tim_ex.c ****   * @retval None
2441:./Libraries/STM32H7xx_HAL_Driver/Src/stm32h7xx_hal_tim_ex.c ****   */
2442:./Libraries/STM32H7xx_HAL_Driver/Src/stm32h7xx_hal_tim_ex.c **** __weak void HAL_TIMEx_CommutHalfCpltCallback(TIM_HandleTypeDef *htim)
2443:./Libraries/STM32H7xx_HAL_Driver/Src/stm32h7xx_hal_tim_ex.c **** {
 6749              		.loc 1 2443 1
 6750              		.cfi_startproc
 6751              		@ args = 0, pretend = 0, frame = 8
 6752              		@ frame_needed = 1, uses_anonymous_args = 0
 6753              		@ link register save eliminated.
 6754 0000 80B4     		push	{r7}
 6755              	.LCFI192:
 6756              		.cfi_def_cfa_offset 4
 6757              		.cfi_offset 7, -4
 6758 0002 83B0     		sub	sp, sp, #12
 6759              	.LCFI193:
 6760              		.cfi_def_cfa_offset 16
 6761 0004 00AF     		add	r7, sp, #0
 6762              	.LCFI194:
 6763              		.cfi_def_cfa_register 7
 6764 0006 7860     		str	r0, [r7, #4]
2444:./Libraries/STM32H7xx_HAL_Driver/Src/stm32h7xx_hal_tim_ex.c ****   /* Prevent unused argument(s) compilation warning */
2445:./Libraries/STM32H7xx_HAL_Driver/Src/stm32h7xx_hal_tim_ex.c ****   UNUSED(htim);
2446:./Libraries/STM32H7xx_HAL_Driver/Src/stm32h7xx_hal_tim_ex.c **** 
2447:./Libraries/STM32H7xx_HAL_Driver/Src/stm32h7xx_hal_tim_ex.c ****   /* NOTE : This function should not be modified, when the callback is needed,
2448:./Libraries/STM32H7xx_HAL_Driver/Src/stm32h7xx_hal_tim_ex.c ****             the HAL_TIMEx_CommutHalfCpltCallback could be implemented in the user file
2449:./Libraries/STM32H7xx_HAL_Driver/Src/stm32h7xx_hal_tim_ex.c ****    */
2450:./Libraries/STM32H7xx_HAL_Driver/Src/stm32h7xx_hal_tim_ex.c **** }
 6765              		.loc 1 2450 1
 6766 0008 00BF     		nop
 6767 000a 0C37     		adds	r7, r7, #12
 6768              	.LCFI195:
 6769              		.cfi_def_cfa_offset 4
 6770 000c BD46     		mov	sp, r7
 6771              	.LCFI196:
 6772              		.cfi_def_cfa_register 13
 6773              		@ sp needed
 6774 000e 5DF8047B 		ldr	r7, [sp], #4
 6775              	.LCFI197:
 6776              		.cfi_restore 7
 6777              		.cfi_def_cfa_offset 0
 6778 0012 7047     		bx	lr
 6779              		.cfi_endproc
 6780              	.LFE367:
 6782              		.section	.text.HAL_TIMEx_BreakCallback,"ax",%progbits
 6783              		.align	1
 6784              		.weak	HAL_TIMEx_BreakCallback
 6785              		.syntax unified
 6786              		.thumb
 6787              		.thumb_func
 6788              		.fpu fpv5-d16
ARM GAS  /tmp/ccxx2olO.s 			page 165


 6790              	HAL_TIMEx_BreakCallback:
 6791              	.LFB368:
2451:./Libraries/STM32H7xx_HAL_Driver/Src/stm32h7xx_hal_tim_ex.c **** 
2452:./Libraries/STM32H7xx_HAL_Driver/Src/stm32h7xx_hal_tim_ex.c **** /**
2453:./Libraries/STM32H7xx_HAL_Driver/Src/stm32h7xx_hal_tim_ex.c ****   * @brief  Hall Break detection callback in non-blocking mode
2454:./Libraries/STM32H7xx_HAL_Driver/Src/stm32h7xx_hal_tim_ex.c ****   * @param  htim TIM handle
2455:./Libraries/STM32H7xx_HAL_Driver/Src/stm32h7xx_hal_tim_ex.c ****   * @retval None
2456:./Libraries/STM32H7xx_HAL_Driver/Src/stm32h7xx_hal_tim_ex.c ****   */
2457:./Libraries/STM32H7xx_HAL_Driver/Src/stm32h7xx_hal_tim_ex.c **** __weak void HAL_TIMEx_BreakCallback(TIM_HandleTypeDef *htim)
2458:./Libraries/STM32H7xx_HAL_Driver/Src/stm32h7xx_hal_tim_ex.c **** {
 6792              		.loc 1 2458 1
 6793              		.cfi_startproc
 6794              		@ args = 0, pretend = 0, frame = 8
 6795              		@ frame_needed = 1, uses_anonymous_args = 0
 6796              		@ link register save eliminated.
 6797 0000 80B4     		push	{r7}
 6798              	.LCFI198:
 6799              		.cfi_def_cfa_offset 4
 6800              		.cfi_offset 7, -4
 6801 0002 83B0     		sub	sp, sp, #12
 6802              	.LCFI199:
 6803              		.cfi_def_cfa_offset 16
 6804 0004 00AF     		add	r7, sp, #0
 6805              	.LCFI200:
 6806              		.cfi_def_cfa_register 7
 6807 0006 7860     		str	r0, [r7, #4]
2459:./Libraries/STM32H7xx_HAL_Driver/Src/stm32h7xx_hal_tim_ex.c ****   /* Prevent unused argument(s) compilation warning */
2460:./Libraries/STM32H7xx_HAL_Driver/Src/stm32h7xx_hal_tim_ex.c ****   UNUSED(htim);
2461:./Libraries/STM32H7xx_HAL_Driver/Src/stm32h7xx_hal_tim_ex.c **** 
2462:./Libraries/STM32H7xx_HAL_Driver/Src/stm32h7xx_hal_tim_ex.c ****   /* NOTE : This function should not be modified, when the callback is needed,
2463:./Libraries/STM32H7xx_HAL_Driver/Src/stm32h7xx_hal_tim_ex.c ****             the HAL_TIMEx_BreakCallback could be implemented in the user file
2464:./Libraries/STM32H7xx_HAL_Driver/Src/stm32h7xx_hal_tim_ex.c ****    */
2465:./Libraries/STM32H7xx_HAL_Driver/Src/stm32h7xx_hal_tim_ex.c **** }
 6808              		.loc 1 2465 1
 6809 0008 00BF     		nop
 6810 000a 0C37     		adds	r7, r7, #12
 6811              	.LCFI201:
 6812              		.cfi_def_cfa_offset 4
 6813 000c BD46     		mov	sp, r7
 6814              	.LCFI202:
 6815              		.cfi_def_cfa_register 13
 6816              		@ sp needed
 6817 000e 5DF8047B 		ldr	r7, [sp], #4
 6818              	.LCFI203:
 6819              		.cfi_restore 7
 6820              		.cfi_def_cfa_offset 0
 6821 0012 7047     		bx	lr
 6822              		.cfi_endproc
 6823              	.LFE368:
 6825              		.section	.text.HAL_TIMEx_Break2Callback,"ax",%progbits
 6826              		.align	1
 6827              		.weak	HAL_TIMEx_Break2Callback
 6828              		.syntax unified
 6829              		.thumb
 6830              		.thumb_func
 6831              		.fpu fpv5-d16
 6833              	HAL_TIMEx_Break2Callback:
ARM GAS  /tmp/ccxx2olO.s 			page 166


 6834              	.LFB369:
2466:./Libraries/STM32H7xx_HAL_Driver/Src/stm32h7xx_hal_tim_ex.c **** 
2467:./Libraries/STM32H7xx_HAL_Driver/Src/stm32h7xx_hal_tim_ex.c **** /**
2468:./Libraries/STM32H7xx_HAL_Driver/Src/stm32h7xx_hal_tim_ex.c ****   * @brief  Hall Break2 detection callback in non blocking mode
2469:./Libraries/STM32H7xx_HAL_Driver/Src/stm32h7xx_hal_tim_ex.c ****   * @param  htim: TIM handle
2470:./Libraries/STM32H7xx_HAL_Driver/Src/stm32h7xx_hal_tim_ex.c ****   * @retval None
2471:./Libraries/STM32H7xx_HAL_Driver/Src/stm32h7xx_hal_tim_ex.c ****   */
2472:./Libraries/STM32H7xx_HAL_Driver/Src/stm32h7xx_hal_tim_ex.c **** __weak void HAL_TIMEx_Break2Callback(TIM_HandleTypeDef *htim)
2473:./Libraries/STM32H7xx_HAL_Driver/Src/stm32h7xx_hal_tim_ex.c **** {
 6835              		.loc 1 2473 1
 6836              		.cfi_startproc
 6837              		@ args = 0, pretend = 0, frame = 8
 6838              		@ frame_needed = 1, uses_anonymous_args = 0
 6839              		@ link register save eliminated.
 6840 0000 80B4     		push	{r7}
 6841              	.LCFI204:
 6842              		.cfi_def_cfa_offset 4
 6843              		.cfi_offset 7, -4
 6844 0002 83B0     		sub	sp, sp, #12
 6845              	.LCFI205:
 6846              		.cfi_def_cfa_offset 16
 6847 0004 00AF     		add	r7, sp, #0
 6848              	.LCFI206:
 6849              		.cfi_def_cfa_register 7
 6850 0006 7860     		str	r0, [r7, #4]
2474:./Libraries/STM32H7xx_HAL_Driver/Src/stm32h7xx_hal_tim_ex.c ****   /* Prevent unused argument(s) compilation warning */
2475:./Libraries/STM32H7xx_HAL_Driver/Src/stm32h7xx_hal_tim_ex.c ****   UNUSED(htim);
2476:./Libraries/STM32H7xx_HAL_Driver/Src/stm32h7xx_hal_tim_ex.c **** 
2477:./Libraries/STM32H7xx_HAL_Driver/Src/stm32h7xx_hal_tim_ex.c ****   /* NOTE : This function Should not be modified, when the callback is needed,
2478:./Libraries/STM32H7xx_HAL_Driver/Src/stm32h7xx_hal_tim_ex.c ****             the HAL_TIMEx_Break2Callback could be implemented in the user file
2479:./Libraries/STM32H7xx_HAL_Driver/Src/stm32h7xx_hal_tim_ex.c ****    */
2480:./Libraries/STM32H7xx_HAL_Driver/Src/stm32h7xx_hal_tim_ex.c **** }
 6851              		.loc 1 2480 1
 6852 0008 00BF     		nop
 6853 000a 0C37     		adds	r7, r7, #12
 6854              	.LCFI207:
 6855              		.cfi_def_cfa_offset 4
 6856 000c BD46     		mov	sp, r7
 6857              	.LCFI208:
 6858              		.cfi_def_cfa_register 13
 6859              		@ sp needed
 6860 000e 5DF8047B 		ldr	r7, [sp], #4
 6861              	.LCFI209:
 6862              		.cfi_restore 7
 6863              		.cfi_def_cfa_offset 0
 6864 0012 7047     		bx	lr
 6865              		.cfi_endproc
 6866              	.LFE369:
 6868              		.section	.text.HAL_TIMEx_HallSensor_GetState,"ax",%progbits
 6869              		.align	1
 6870              		.global	HAL_TIMEx_HallSensor_GetState
 6871              		.syntax unified
 6872              		.thumb
 6873              		.thumb_func
 6874              		.fpu fpv5-d16
 6876              	HAL_TIMEx_HallSensor_GetState:
 6877              	.LFB370:
ARM GAS  /tmp/ccxx2olO.s 			page 167


2481:./Libraries/STM32H7xx_HAL_Driver/Src/stm32h7xx_hal_tim_ex.c **** /**
2482:./Libraries/STM32H7xx_HAL_Driver/Src/stm32h7xx_hal_tim_ex.c ****   * @}
2483:./Libraries/STM32H7xx_HAL_Driver/Src/stm32h7xx_hal_tim_ex.c ****   */
2484:./Libraries/STM32H7xx_HAL_Driver/Src/stm32h7xx_hal_tim_ex.c **** 
2485:./Libraries/STM32H7xx_HAL_Driver/Src/stm32h7xx_hal_tim_ex.c **** /** @defgroup TIMEx_Exported_Functions_Group7 Extended Peripheral State functions
2486:./Libraries/STM32H7xx_HAL_Driver/Src/stm32h7xx_hal_tim_ex.c ****   * @brief    Extended Peripheral State functions
2487:./Libraries/STM32H7xx_HAL_Driver/Src/stm32h7xx_hal_tim_ex.c ****   *
2488:./Libraries/STM32H7xx_HAL_Driver/Src/stm32h7xx_hal_tim_ex.c **** @verbatim
2489:./Libraries/STM32H7xx_HAL_Driver/Src/stm32h7xx_hal_tim_ex.c ****   ==============================================================================
2490:./Libraries/STM32H7xx_HAL_Driver/Src/stm32h7xx_hal_tim_ex.c ****                 ##### Extended Peripheral State functions #####
2491:./Libraries/STM32H7xx_HAL_Driver/Src/stm32h7xx_hal_tim_ex.c ****   ==============================================================================
2492:./Libraries/STM32H7xx_HAL_Driver/Src/stm32h7xx_hal_tim_ex.c ****   [..]
2493:./Libraries/STM32H7xx_HAL_Driver/Src/stm32h7xx_hal_tim_ex.c ****     This subsection permits to get in run-time the status of the peripheral
2494:./Libraries/STM32H7xx_HAL_Driver/Src/stm32h7xx_hal_tim_ex.c ****     and the data flow.
2495:./Libraries/STM32H7xx_HAL_Driver/Src/stm32h7xx_hal_tim_ex.c **** 
2496:./Libraries/STM32H7xx_HAL_Driver/Src/stm32h7xx_hal_tim_ex.c **** @endverbatim
2497:./Libraries/STM32H7xx_HAL_Driver/Src/stm32h7xx_hal_tim_ex.c ****   * @{
2498:./Libraries/STM32H7xx_HAL_Driver/Src/stm32h7xx_hal_tim_ex.c ****   */
2499:./Libraries/STM32H7xx_HAL_Driver/Src/stm32h7xx_hal_tim_ex.c **** 
2500:./Libraries/STM32H7xx_HAL_Driver/Src/stm32h7xx_hal_tim_ex.c **** /**
2501:./Libraries/STM32H7xx_HAL_Driver/Src/stm32h7xx_hal_tim_ex.c ****   * @brief  Return the TIM Hall Sensor interface handle state.
2502:./Libraries/STM32H7xx_HAL_Driver/Src/stm32h7xx_hal_tim_ex.c ****   * @param  htim TIM Hall Sensor handle
2503:./Libraries/STM32H7xx_HAL_Driver/Src/stm32h7xx_hal_tim_ex.c ****   * @retval HAL state
2504:./Libraries/STM32H7xx_HAL_Driver/Src/stm32h7xx_hal_tim_ex.c ****   */
2505:./Libraries/STM32H7xx_HAL_Driver/Src/stm32h7xx_hal_tim_ex.c **** HAL_TIM_StateTypeDef HAL_TIMEx_HallSensor_GetState(TIM_HandleTypeDef *htim)
2506:./Libraries/STM32H7xx_HAL_Driver/Src/stm32h7xx_hal_tim_ex.c **** {
 6878              		.loc 1 2506 1
 6879              		.cfi_startproc
 6880              		@ args = 0, pretend = 0, frame = 8
 6881              		@ frame_needed = 1, uses_anonymous_args = 0
 6882              		@ link register save eliminated.
 6883 0000 80B4     		push	{r7}
 6884              	.LCFI210:
 6885              		.cfi_def_cfa_offset 4
 6886              		.cfi_offset 7, -4
 6887 0002 83B0     		sub	sp, sp, #12
 6888              	.LCFI211:
 6889              		.cfi_def_cfa_offset 16
 6890 0004 00AF     		add	r7, sp, #0
 6891              	.LCFI212:
 6892              		.cfi_def_cfa_register 7
 6893 0006 7860     		str	r0, [r7, #4]
2507:./Libraries/STM32H7xx_HAL_Driver/Src/stm32h7xx_hal_tim_ex.c ****   return htim->State;
 6894              		.loc 1 2507 14
 6895 0008 7B68     		ldr	r3, [r7, #4]
 6896 000a 93F83D30 		ldrb	r3, [r3, #61]
 6897 000e DBB2     		uxtb	r3, r3
2508:./Libraries/STM32H7xx_HAL_Driver/Src/stm32h7xx_hal_tim_ex.c **** }
 6898              		.loc 1 2508 1
 6899 0010 1846     		mov	r0, r3
 6900 0012 0C37     		adds	r7, r7, #12
 6901              	.LCFI213:
 6902              		.cfi_def_cfa_offset 4
 6903 0014 BD46     		mov	sp, r7
 6904              	.LCFI214:
 6905              		.cfi_def_cfa_register 13
 6906              		@ sp needed
ARM GAS  /tmp/ccxx2olO.s 			page 168


 6907 0016 5DF8047B 		ldr	r7, [sp], #4
 6908              	.LCFI215:
 6909              		.cfi_restore 7
 6910              		.cfi_def_cfa_offset 0
 6911 001a 7047     		bx	lr
 6912              		.cfi_endproc
 6913              	.LFE370:
 6915              		.section	.text.HAL_TIMEx_GetChannelNState,"ax",%progbits
 6916              		.align	1
 6917              		.global	HAL_TIMEx_GetChannelNState
 6918              		.syntax unified
 6919              		.thumb
 6920              		.thumb_func
 6921              		.fpu fpv5-d16
 6923              	HAL_TIMEx_GetChannelNState:
 6924              	.LFB371:
2509:./Libraries/STM32H7xx_HAL_Driver/Src/stm32h7xx_hal_tim_ex.c **** 
2510:./Libraries/STM32H7xx_HAL_Driver/Src/stm32h7xx_hal_tim_ex.c **** /**
2511:./Libraries/STM32H7xx_HAL_Driver/Src/stm32h7xx_hal_tim_ex.c ****   * @brief  Return actual state of the TIM complementary channel.
2512:./Libraries/STM32H7xx_HAL_Driver/Src/stm32h7xx_hal_tim_ex.c ****   * @param  htim TIM handle
2513:./Libraries/STM32H7xx_HAL_Driver/Src/stm32h7xx_hal_tim_ex.c ****   * @param  ChannelN TIM Complementary channel
2514:./Libraries/STM32H7xx_HAL_Driver/Src/stm32h7xx_hal_tim_ex.c ****   *          This parameter can be one of the following values:
2515:./Libraries/STM32H7xx_HAL_Driver/Src/stm32h7xx_hal_tim_ex.c ****   *            @arg TIM_CHANNEL_1: TIM Channel 1
2516:./Libraries/STM32H7xx_HAL_Driver/Src/stm32h7xx_hal_tim_ex.c ****   *            @arg TIM_CHANNEL_2: TIM Channel 2
2517:./Libraries/STM32H7xx_HAL_Driver/Src/stm32h7xx_hal_tim_ex.c ****   *            @arg TIM_CHANNEL_3: TIM Channel 3
2518:./Libraries/STM32H7xx_HAL_Driver/Src/stm32h7xx_hal_tim_ex.c ****   * @retval TIM Complementary channel state
2519:./Libraries/STM32H7xx_HAL_Driver/Src/stm32h7xx_hal_tim_ex.c ****   */
2520:./Libraries/STM32H7xx_HAL_Driver/Src/stm32h7xx_hal_tim_ex.c **** HAL_TIM_ChannelStateTypeDef HAL_TIMEx_GetChannelNState(TIM_HandleTypeDef *htim,  uint32_t ChannelN)
2521:./Libraries/STM32H7xx_HAL_Driver/Src/stm32h7xx_hal_tim_ex.c **** {
 6925              		.loc 1 2521 1
 6926              		.cfi_startproc
 6927              		@ args = 0, pretend = 0, frame = 16
 6928              		@ frame_needed = 1, uses_anonymous_args = 0
 6929              		@ link register save eliminated.
 6930 0000 80B4     		push	{r7}
 6931              	.LCFI216:
 6932              		.cfi_def_cfa_offset 4
 6933              		.cfi_offset 7, -4
 6934 0002 85B0     		sub	sp, sp, #20
 6935              	.LCFI217:
 6936              		.cfi_def_cfa_offset 24
 6937 0004 00AF     		add	r7, sp, #0
 6938              	.LCFI218:
 6939              		.cfi_def_cfa_register 7
 6940 0006 7860     		str	r0, [r7, #4]
 6941 0008 3960     		str	r1, [r7]
2522:./Libraries/STM32H7xx_HAL_Driver/Src/stm32h7xx_hal_tim_ex.c ****   HAL_TIM_ChannelStateTypeDef channel_state;
2523:./Libraries/STM32H7xx_HAL_Driver/Src/stm32h7xx_hal_tim_ex.c **** 
2524:./Libraries/STM32H7xx_HAL_Driver/Src/stm32h7xx_hal_tim_ex.c ****   /* Check the parameters */
2525:./Libraries/STM32H7xx_HAL_Driver/Src/stm32h7xx_hal_tim_ex.c ****   assert_param(IS_TIM_CCXN_INSTANCE(htim->Instance, ChannelN));
2526:./Libraries/STM32H7xx_HAL_Driver/Src/stm32h7xx_hal_tim_ex.c **** 
2527:./Libraries/STM32H7xx_HAL_Driver/Src/stm32h7xx_hal_tim_ex.c ****   channel_state = TIM_CHANNEL_N_STATE_GET(htim, ChannelN);
 6942              		.loc 1 2527 19
 6943 000a 3B68     		ldr	r3, [r7]
 6944 000c 002B     		cmp	r3, #0
 6945 000e 04D1     		bne	.L424
 6946              		.loc 1 2527 19 is_stmt 0 discriminator 1
ARM GAS  /tmp/ccxx2olO.s 			page 169


 6947 0010 7B68     		ldr	r3, [r7, #4]
 6948 0012 93F84430 		ldrb	r3, [r3, #68]
 6949 0016 DBB2     		uxtb	r3, r3
 6950 0018 13E0     		b	.L425
 6951              	.L424:
 6952              		.loc 1 2527 19 discriminator 2
 6953 001a 3B68     		ldr	r3, [r7]
 6954 001c 042B     		cmp	r3, #4
 6955 001e 04D1     		bne	.L426
 6956              		.loc 1 2527 19 discriminator 4
 6957 0020 7B68     		ldr	r3, [r7, #4]
 6958 0022 93F84530 		ldrb	r3, [r3, #69]
 6959 0026 DBB2     		uxtb	r3, r3
 6960 0028 0BE0     		b	.L425
 6961              	.L426:
 6962              		.loc 1 2527 19 discriminator 5
 6963 002a 3B68     		ldr	r3, [r7]
 6964 002c 082B     		cmp	r3, #8
 6965 002e 04D1     		bne	.L428
 6966              		.loc 1 2527 19 discriminator 7
 6967 0030 7B68     		ldr	r3, [r7, #4]
 6968 0032 93F84630 		ldrb	r3, [r3, #70]
 6969 0036 DBB2     		uxtb	r3, r3
 6970 0038 03E0     		b	.L425
 6971              	.L428:
 6972              		.loc 1 2527 19 discriminator 8
 6973 003a 7B68     		ldr	r3, [r7, #4]
 6974 003c 93F84730 		ldrb	r3, [r3, #71]
 6975 0040 DBB2     		uxtb	r3, r3
 6976              	.L425:
 6977              		.loc 1 2527 17 is_stmt 1 discriminator 12
 6978 0042 FB73     		strb	r3, [r7, #15]
2528:./Libraries/STM32H7xx_HAL_Driver/Src/stm32h7xx_hal_tim_ex.c **** 
2529:./Libraries/STM32H7xx_HAL_Driver/Src/stm32h7xx_hal_tim_ex.c ****   return channel_state;
 6979              		.loc 1 2529 10 discriminator 12
 6980 0044 FB7B     		ldrb	r3, [r7, #15]	@ zero_extendqisi2
2530:./Libraries/STM32H7xx_HAL_Driver/Src/stm32h7xx_hal_tim_ex.c **** }
 6981              		.loc 1 2530 1 discriminator 12
 6982 0046 1846     		mov	r0, r3
 6983 0048 1437     		adds	r7, r7, #20
 6984              	.LCFI219:
 6985              		.cfi_def_cfa_offset 4
 6986 004a BD46     		mov	sp, r7
 6987              	.LCFI220:
 6988              		.cfi_def_cfa_register 13
 6989              		@ sp needed
 6990 004c 5DF8047B 		ldr	r7, [sp], #4
 6991              	.LCFI221:
 6992              		.cfi_restore 7
 6993              		.cfi_def_cfa_offset 0
 6994 0050 7047     		bx	lr
 6995              		.cfi_endproc
 6996              	.LFE371:
 6998              		.section	.text.TIMEx_DMACommutationCplt,"ax",%progbits
 6999              		.align	1
 7000              		.global	TIMEx_DMACommutationCplt
 7001              		.syntax unified
ARM GAS  /tmp/ccxx2olO.s 			page 170


 7002              		.thumb
 7003              		.thumb_func
 7004              		.fpu fpv5-d16
 7006              	TIMEx_DMACommutationCplt:
 7007              	.LFB372:
2531:./Libraries/STM32H7xx_HAL_Driver/Src/stm32h7xx_hal_tim_ex.c **** /**
2532:./Libraries/STM32H7xx_HAL_Driver/Src/stm32h7xx_hal_tim_ex.c ****   * @}
2533:./Libraries/STM32H7xx_HAL_Driver/Src/stm32h7xx_hal_tim_ex.c ****   */
2534:./Libraries/STM32H7xx_HAL_Driver/Src/stm32h7xx_hal_tim_ex.c **** 
2535:./Libraries/STM32H7xx_HAL_Driver/Src/stm32h7xx_hal_tim_ex.c **** /**
2536:./Libraries/STM32H7xx_HAL_Driver/Src/stm32h7xx_hal_tim_ex.c ****   * @}
2537:./Libraries/STM32H7xx_HAL_Driver/Src/stm32h7xx_hal_tim_ex.c ****   */
2538:./Libraries/STM32H7xx_HAL_Driver/Src/stm32h7xx_hal_tim_ex.c **** 
2539:./Libraries/STM32H7xx_HAL_Driver/Src/stm32h7xx_hal_tim_ex.c **** /* Private functions ---------------------------------------------------------*/
2540:./Libraries/STM32H7xx_HAL_Driver/Src/stm32h7xx_hal_tim_ex.c **** /** @defgroup TIMEx_Private_Functions TIMEx Private Functions
2541:./Libraries/STM32H7xx_HAL_Driver/Src/stm32h7xx_hal_tim_ex.c ****   * @{
2542:./Libraries/STM32H7xx_HAL_Driver/Src/stm32h7xx_hal_tim_ex.c ****   */
2543:./Libraries/STM32H7xx_HAL_Driver/Src/stm32h7xx_hal_tim_ex.c **** 
2544:./Libraries/STM32H7xx_HAL_Driver/Src/stm32h7xx_hal_tim_ex.c **** /**
2545:./Libraries/STM32H7xx_HAL_Driver/Src/stm32h7xx_hal_tim_ex.c ****   * @brief  TIM DMA Commutation callback.
2546:./Libraries/STM32H7xx_HAL_Driver/Src/stm32h7xx_hal_tim_ex.c ****   * @param  hdma pointer to DMA handle.
2547:./Libraries/STM32H7xx_HAL_Driver/Src/stm32h7xx_hal_tim_ex.c ****   * @retval None
2548:./Libraries/STM32H7xx_HAL_Driver/Src/stm32h7xx_hal_tim_ex.c ****   */
2549:./Libraries/STM32H7xx_HAL_Driver/Src/stm32h7xx_hal_tim_ex.c **** void TIMEx_DMACommutationCplt(DMA_HandleTypeDef *hdma)
2550:./Libraries/STM32H7xx_HAL_Driver/Src/stm32h7xx_hal_tim_ex.c **** {
 7008              		.loc 1 2550 1
 7009              		.cfi_startproc
 7010              		@ args = 0, pretend = 0, frame = 16
 7011              		@ frame_needed = 1, uses_anonymous_args = 0
 7012 0000 80B5     		push	{r7, lr}
 7013              	.LCFI222:
 7014              		.cfi_def_cfa_offset 8
 7015              		.cfi_offset 7, -8
 7016              		.cfi_offset 14, -4
 7017 0002 84B0     		sub	sp, sp, #16
 7018              	.LCFI223:
 7019              		.cfi_def_cfa_offset 24
 7020 0004 00AF     		add	r7, sp, #0
 7021              	.LCFI224:
 7022              		.cfi_def_cfa_register 7
 7023 0006 7860     		str	r0, [r7, #4]
2551:./Libraries/STM32H7xx_HAL_Driver/Src/stm32h7xx_hal_tim_ex.c ****   TIM_HandleTypeDef *htim = (TIM_HandleTypeDef *)((DMA_HandleTypeDef *)hdma)->Parent;
 7024              		.loc 1 2551 22
 7025 0008 7B68     		ldr	r3, [r7, #4]
 7026 000a 9B6B     		ldr	r3, [r3, #56]
 7027 000c FB60     		str	r3, [r7, #12]
2552:./Libraries/STM32H7xx_HAL_Driver/Src/stm32h7xx_hal_tim_ex.c **** 
2553:./Libraries/STM32H7xx_HAL_Driver/Src/stm32h7xx_hal_tim_ex.c ****   /* Change the htim state */
2554:./Libraries/STM32H7xx_HAL_Driver/Src/stm32h7xx_hal_tim_ex.c ****   htim->State = HAL_TIM_STATE_READY;
 7028              		.loc 1 2554 15
 7029 000e FB68     		ldr	r3, [r7, #12]
 7030 0010 0122     		movs	r2, #1
 7031 0012 83F83D20 		strb	r2, [r3, #61]
2555:./Libraries/STM32H7xx_HAL_Driver/Src/stm32h7xx_hal_tim_ex.c **** 
2556:./Libraries/STM32H7xx_HAL_Driver/Src/stm32h7xx_hal_tim_ex.c **** #if (USE_HAL_TIM_REGISTER_CALLBACKS == 1)
2557:./Libraries/STM32H7xx_HAL_Driver/Src/stm32h7xx_hal_tim_ex.c ****   htim->CommutationCallback(htim);
2558:./Libraries/STM32H7xx_HAL_Driver/Src/stm32h7xx_hal_tim_ex.c **** #else
ARM GAS  /tmp/ccxx2olO.s 			page 171


2559:./Libraries/STM32H7xx_HAL_Driver/Src/stm32h7xx_hal_tim_ex.c ****   HAL_TIMEx_CommutCallback(htim);
 7032              		.loc 1 2559 3
 7033 0016 F868     		ldr	r0, [r7, #12]
 7034 0018 FFF7FEFF 		bl	HAL_TIMEx_CommutCallback
2560:./Libraries/STM32H7xx_HAL_Driver/Src/stm32h7xx_hal_tim_ex.c **** #endif /* USE_HAL_TIM_REGISTER_CALLBACKS */
2561:./Libraries/STM32H7xx_HAL_Driver/Src/stm32h7xx_hal_tim_ex.c **** }
 7035              		.loc 1 2561 1
 7036 001c 00BF     		nop
 7037 001e 1037     		adds	r7, r7, #16
 7038              	.LCFI225:
 7039              		.cfi_def_cfa_offset 8
 7040 0020 BD46     		mov	sp, r7
 7041              	.LCFI226:
 7042              		.cfi_def_cfa_register 13
 7043              		@ sp needed
 7044 0022 80BD     		pop	{r7, pc}
 7045              		.cfi_endproc
 7046              	.LFE372:
 7048              		.section	.text.TIMEx_DMACommutationHalfCplt,"ax",%progbits
 7049              		.align	1
 7050              		.global	TIMEx_DMACommutationHalfCplt
 7051              		.syntax unified
 7052              		.thumb
 7053              		.thumb_func
 7054              		.fpu fpv5-d16
 7056              	TIMEx_DMACommutationHalfCplt:
 7057              	.LFB373:
2562:./Libraries/STM32H7xx_HAL_Driver/Src/stm32h7xx_hal_tim_ex.c **** 
2563:./Libraries/STM32H7xx_HAL_Driver/Src/stm32h7xx_hal_tim_ex.c **** /**
2564:./Libraries/STM32H7xx_HAL_Driver/Src/stm32h7xx_hal_tim_ex.c ****   * @brief  TIM DMA Commutation half complete callback.
2565:./Libraries/STM32H7xx_HAL_Driver/Src/stm32h7xx_hal_tim_ex.c ****   * @param  hdma pointer to DMA handle.
2566:./Libraries/STM32H7xx_HAL_Driver/Src/stm32h7xx_hal_tim_ex.c ****   * @retval None
2567:./Libraries/STM32H7xx_HAL_Driver/Src/stm32h7xx_hal_tim_ex.c ****   */
2568:./Libraries/STM32H7xx_HAL_Driver/Src/stm32h7xx_hal_tim_ex.c **** void TIMEx_DMACommutationHalfCplt(DMA_HandleTypeDef *hdma)
2569:./Libraries/STM32H7xx_HAL_Driver/Src/stm32h7xx_hal_tim_ex.c **** {
 7058              		.loc 1 2569 1
 7059              		.cfi_startproc
 7060              		@ args = 0, pretend = 0, frame = 16
 7061              		@ frame_needed = 1, uses_anonymous_args = 0
 7062 0000 80B5     		push	{r7, lr}
 7063              	.LCFI227:
 7064              		.cfi_def_cfa_offset 8
 7065              		.cfi_offset 7, -8
 7066              		.cfi_offset 14, -4
 7067 0002 84B0     		sub	sp, sp, #16
 7068              	.LCFI228:
 7069              		.cfi_def_cfa_offset 24
 7070 0004 00AF     		add	r7, sp, #0
 7071              	.LCFI229:
 7072              		.cfi_def_cfa_register 7
 7073 0006 7860     		str	r0, [r7, #4]
2570:./Libraries/STM32H7xx_HAL_Driver/Src/stm32h7xx_hal_tim_ex.c ****   TIM_HandleTypeDef *htim = (TIM_HandleTypeDef *)((DMA_HandleTypeDef *)hdma)->Parent;
 7074              		.loc 1 2570 22
 7075 0008 7B68     		ldr	r3, [r7, #4]
 7076 000a 9B6B     		ldr	r3, [r3, #56]
 7077 000c FB60     		str	r3, [r7, #12]
2571:./Libraries/STM32H7xx_HAL_Driver/Src/stm32h7xx_hal_tim_ex.c **** 
ARM GAS  /tmp/ccxx2olO.s 			page 172


2572:./Libraries/STM32H7xx_HAL_Driver/Src/stm32h7xx_hal_tim_ex.c ****   /* Change the htim state */
2573:./Libraries/STM32H7xx_HAL_Driver/Src/stm32h7xx_hal_tim_ex.c ****   htim->State = HAL_TIM_STATE_READY;
 7078              		.loc 1 2573 15
 7079 000e FB68     		ldr	r3, [r7, #12]
 7080 0010 0122     		movs	r2, #1
 7081 0012 83F83D20 		strb	r2, [r3, #61]
2574:./Libraries/STM32H7xx_HAL_Driver/Src/stm32h7xx_hal_tim_ex.c **** 
2575:./Libraries/STM32H7xx_HAL_Driver/Src/stm32h7xx_hal_tim_ex.c **** #if (USE_HAL_TIM_REGISTER_CALLBACKS == 1)
2576:./Libraries/STM32H7xx_HAL_Driver/Src/stm32h7xx_hal_tim_ex.c ****   htim->CommutationHalfCpltCallback(htim);
2577:./Libraries/STM32H7xx_HAL_Driver/Src/stm32h7xx_hal_tim_ex.c **** #else
2578:./Libraries/STM32H7xx_HAL_Driver/Src/stm32h7xx_hal_tim_ex.c ****   HAL_TIMEx_CommutHalfCpltCallback(htim);
 7082              		.loc 1 2578 3
 7083 0016 F868     		ldr	r0, [r7, #12]
 7084 0018 FFF7FEFF 		bl	HAL_TIMEx_CommutHalfCpltCallback
2579:./Libraries/STM32H7xx_HAL_Driver/Src/stm32h7xx_hal_tim_ex.c **** #endif /* USE_HAL_TIM_REGISTER_CALLBACKS */
2580:./Libraries/STM32H7xx_HAL_Driver/Src/stm32h7xx_hal_tim_ex.c **** }
 7085              		.loc 1 2580 1
 7086 001c 00BF     		nop
 7087 001e 1037     		adds	r7, r7, #16
 7088              	.LCFI230:
 7089              		.cfi_def_cfa_offset 8
 7090 0020 BD46     		mov	sp, r7
 7091              	.LCFI231:
 7092              		.cfi_def_cfa_register 13
 7093              		@ sp needed
 7094 0022 80BD     		pop	{r7, pc}
 7095              		.cfi_endproc
 7096              	.LFE373:
 7098              		.section	.text.TIM_DMADelayPulseNCplt,"ax",%progbits
 7099              		.align	1
 7100              		.syntax unified
 7101              		.thumb
 7102              		.thumb_func
 7103              		.fpu fpv5-d16
 7105              	TIM_DMADelayPulseNCplt:
 7106              	.LFB374:
2581:./Libraries/STM32H7xx_HAL_Driver/Src/stm32h7xx_hal_tim_ex.c **** 
2582:./Libraries/STM32H7xx_HAL_Driver/Src/stm32h7xx_hal_tim_ex.c **** 
2583:./Libraries/STM32H7xx_HAL_Driver/Src/stm32h7xx_hal_tim_ex.c **** /**
2584:./Libraries/STM32H7xx_HAL_Driver/Src/stm32h7xx_hal_tim_ex.c ****   * @brief  TIM DMA Delay Pulse complete callback (complementary channel).
2585:./Libraries/STM32H7xx_HAL_Driver/Src/stm32h7xx_hal_tim_ex.c ****   * @param  hdma pointer to DMA handle.
2586:./Libraries/STM32H7xx_HAL_Driver/Src/stm32h7xx_hal_tim_ex.c ****   * @retval None
2587:./Libraries/STM32H7xx_HAL_Driver/Src/stm32h7xx_hal_tim_ex.c ****   */
2588:./Libraries/STM32H7xx_HAL_Driver/Src/stm32h7xx_hal_tim_ex.c **** static void TIM_DMADelayPulseNCplt(DMA_HandleTypeDef *hdma)
2589:./Libraries/STM32H7xx_HAL_Driver/Src/stm32h7xx_hal_tim_ex.c **** {
 7107              		.loc 1 2589 1
 7108              		.cfi_startproc
 7109              		@ args = 0, pretend = 0, frame = 16
 7110              		@ frame_needed = 1, uses_anonymous_args = 0
 7111 0000 80B5     		push	{r7, lr}
 7112              	.LCFI232:
 7113              		.cfi_def_cfa_offset 8
 7114              		.cfi_offset 7, -8
 7115              		.cfi_offset 14, -4
 7116 0002 84B0     		sub	sp, sp, #16
 7117              	.LCFI233:
 7118              		.cfi_def_cfa_offset 24
ARM GAS  /tmp/ccxx2olO.s 			page 173


 7119 0004 00AF     		add	r7, sp, #0
 7120              	.LCFI234:
 7121              		.cfi_def_cfa_register 7
 7122 0006 7860     		str	r0, [r7, #4]
2590:./Libraries/STM32H7xx_HAL_Driver/Src/stm32h7xx_hal_tim_ex.c ****   TIM_HandleTypeDef *htim = (TIM_HandleTypeDef *)((DMA_HandleTypeDef *)hdma)->Parent;
 7123              		.loc 1 2590 22
 7124 0008 7B68     		ldr	r3, [r7, #4]
 7125 000a 9B6B     		ldr	r3, [r3, #56]
 7126 000c FB60     		str	r3, [r7, #12]
2591:./Libraries/STM32H7xx_HAL_Driver/Src/stm32h7xx_hal_tim_ex.c **** 
2592:./Libraries/STM32H7xx_HAL_Driver/Src/stm32h7xx_hal_tim_ex.c ****   if (hdma == htim->hdma[TIM_DMA_ID_CC1])
 7127              		.loc 1 2592 25
 7128 000e FB68     		ldr	r3, [r7, #12]
 7129 0010 5B6A     		ldr	r3, [r3, #36]
 7130              		.loc 1 2592 6
 7131 0012 7A68     		ldr	r2, [r7, #4]
 7132 0014 9A42     		cmp	r2, r3
 7133 0016 0BD1     		bne	.L434
2593:./Libraries/STM32H7xx_HAL_Driver/Src/stm32h7xx_hal_tim_ex.c ****   {
2594:./Libraries/STM32H7xx_HAL_Driver/Src/stm32h7xx_hal_tim_ex.c ****     htim->Channel = HAL_TIM_ACTIVE_CHANNEL_1;
 7134              		.loc 1 2594 19
 7135 0018 FB68     		ldr	r3, [r7, #12]
 7136 001a 0122     		movs	r2, #1
 7137 001c 1A77     		strb	r2, [r3, #28]
2595:./Libraries/STM32H7xx_HAL_Driver/Src/stm32h7xx_hal_tim_ex.c **** 
2596:./Libraries/STM32H7xx_HAL_Driver/Src/stm32h7xx_hal_tim_ex.c ****     if (hdma->Init.Mode == DMA_NORMAL)
 7138              		.loc 1 2596 19
 7139 001e 7B68     		ldr	r3, [r7, #4]
 7140 0020 DB69     		ldr	r3, [r3, #28]
 7141              		.loc 1 2596 8
 7142 0022 002B     		cmp	r3, #0
 7143 0024 36D1     		bne	.L435
2597:./Libraries/STM32H7xx_HAL_Driver/Src/stm32h7xx_hal_tim_ex.c ****     {
2598:./Libraries/STM32H7xx_HAL_Driver/Src/stm32h7xx_hal_tim_ex.c ****       TIM_CHANNEL_N_STATE_SET(htim, TIM_CHANNEL_1, HAL_TIM_CHANNEL_STATE_READY);
 7144              		.loc 1 2598 7
 7145 0026 FB68     		ldr	r3, [r7, #12]
 7146 0028 0122     		movs	r2, #1
 7147 002a 83F84420 		strb	r2, [r3, #68]
 7148 002e 31E0     		b	.L435
 7149              	.L434:
2599:./Libraries/STM32H7xx_HAL_Driver/Src/stm32h7xx_hal_tim_ex.c ****     }
2600:./Libraries/STM32H7xx_HAL_Driver/Src/stm32h7xx_hal_tim_ex.c ****   }
2601:./Libraries/STM32H7xx_HAL_Driver/Src/stm32h7xx_hal_tim_ex.c ****   else if (hdma == htim->hdma[TIM_DMA_ID_CC2])
 7150              		.loc 1 2601 30
 7151 0030 FB68     		ldr	r3, [r7, #12]
 7152 0032 9B6A     		ldr	r3, [r3, #40]
 7153              		.loc 1 2601 11
 7154 0034 7A68     		ldr	r2, [r7, #4]
 7155 0036 9A42     		cmp	r2, r3
 7156 0038 0BD1     		bne	.L436
2602:./Libraries/STM32H7xx_HAL_Driver/Src/stm32h7xx_hal_tim_ex.c ****   {
2603:./Libraries/STM32H7xx_HAL_Driver/Src/stm32h7xx_hal_tim_ex.c ****     htim->Channel = HAL_TIM_ACTIVE_CHANNEL_2;
 7157              		.loc 1 2603 19
 7158 003a FB68     		ldr	r3, [r7, #12]
 7159 003c 0222     		movs	r2, #2
 7160 003e 1A77     		strb	r2, [r3, #28]
2604:./Libraries/STM32H7xx_HAL_Driver/Src/stm32h7xx_hal_tim_ex.c **** 
ARM GAS  /tmp/ccxx2olO.s 			page 174


2605:./Libraries/STM32H7xx_HAL_Driver/Src/stm32h7xx_hal_tim_ex.c ****     if (hdma->Init.Mode == DMA_NORMAL)
 7161              		.loc 1 2605 19
 7162 0040 7B68     		ldr	r3, [r7, #4]
 7163 0042 DB69     		ldr	r3, [r3, #28]
 7164              		.loc 1 2605 8
 7165 0044 002B     		cmp	r3, #0
 7166 0046 25D1     		bne	.L435
2606:./Libraries/STM32H7xx_HAL_Driver/Src/stm32h7xx_hal_tim_ex.c ****     {
2607:./Libraries/STM32H7xx_HAL_Driver/Src/stm32h7xx_hal_tim_ex.c ****       TIM_CHANNEL_N_STATE_SET(htim, TIM_CHANNEL_2, HAL_TIM_CHANNEL_STATE_READY);
 7167              		.loc 1 2607 7
 7168 0048 FB68     		ldr	r3, [r7, #12]
 7169 004a 0122     		movs	r2, #1
 7170 004c 83F84520 		strb	r2, [r3, #69]
 7171 0050 20E0     		b	.L435
 7172              	.L436:
2608:./Libraries/STM32H7xx_HAL_Driver/Src/stm32h7xx_hal_tim_ex.c ****     }
2609:./Libraries/STM32H7xx_HAL_Driver/Src/stm32h7xx_hal_tim_ex.c ****   }
2610:./Libraries/STM32H7xx_HAL_Driver/Src/stm32h7xx_hal_tim_ex.c ****   else if (hdma == htim->hdma[TIM_DMA_ID_CC3])
 7173              		.loc 1 2610 30
 7174 0052 FB68     		ldr	r3, [r7, #12]
 7175 0054 DB6A     		ldr	r3, [r3, #44]
 7176              		.loc 1 2610 11
 7177 0056 7A68     		ldr	r2, [r7, #4]
 7178 0058 9A42     		cmp	r2, r3
 7179 005a 0BD1     		bne	.L437
2611:./Libraries/STM32H7xx_HAL_Driver/Src/stm32h7xx_hal_tim_ex.c ****   {
2612:./Libraries/STM32H7xx_HAL_Driver/Src/stm32h7xx_hal_tim_ex.c ****     htim->Channel = HAL_TIM_ACTIVE_CHANNEL_3;
 7180              		.loc 1 2612 19
 7181 005c FB68     		ldr	r3, [r7, #12]
 7182 005e 0422     		movs	r2, #4
 7183 0060 1A77     		strb	r2, [r3, #28]
2613:./Libraries/STM32H7xx_HAL_Driver/Src/stm32h7xx_hal_tim_ex.c **** 
2614:./Libraries/STM32H7xx_HAL_Driver/Src/stm32h7xx_hal_tim_ex.c ****     if (hdma->Init.Mode == DMA_NORMAL)
 7184              		.loc 1 2614 19
 7185 0062 7B68     		ldr	r3, [r7, #4]
 7186 0064 DB69     		ldr	r3, [r3, #28]
 7187              		.loc 1 2614 8
 7188 0066 002B     		cmp	r3, #0
 7189 0068 14D1     		bne	.L435
2615:./Libraries/STM32H7xx_HAL_Driver/Src/stm32h7xx_hal_tim_ex.c ****     {
2616:./Libraries/STM32H7xx_HAL_Driver/Src/stm32h7xx_hal_tim_ex.c ****       TIM_CHANNEL_N_STATE_SET(htim, TIM_CHANNEL_3, HAL_TIM_CHANNEL_STATE_READY);
 7190              		.loc 1 2616 7
 7191 006a FB68     		ldr	r3, [r7, #12]
 7192 006c 0122     		movs	r2, #1
 7193 006e 83F84620 		strb	r2, [r3, #70]
 7194 0072 0FE0     		b	.L435
 7195              	.L437:
2617:./Libraries/STM32H7xx_HAL_Driver/Src/stm32h7xx_hal_tim_ex.c ****     }
2618:./Libraries/STM32H7xx_HAL_Driver/Src/stm32h7xx_hal_tim_ex.c ****   }
2619:./Libraries/STM32H7xx_HAL_Driver/Src/stm32h7xx_hal_tim_ex.c ****   else if (hdma == htim->hdma[TIM_DMA_ID_CC4])
 7196              		.loc 1 2619 30
 7197 0074 FB68     		ldr	r3, [r7, #12]
 7198 0076 1B6B     		ldr	r3, [r3, #48]
 7199              		.loc 1 2619 11
 7200 0078 7A68     		ldr	r2, [r7, #4]
 7201 007a 9A42     		cmp	r2, r3
 7202 007c 0AD1     		bne	.L435
ARM GAS  /tmp/ccxx2olO.s 			page 175


2620:./Libraries/STM32H7xx_HAL_Driver/Src/stm32h7xx_hal_tim_ex.c ****   {
2621:./Libraries/STM32H7xx_HAL_Driver/Src/stm32h7xx_hal_tim_ex.c ****     htim->Channel = HAL_TIM_ACTIVE_CHANNEL_4;
 7203              		.loc 1 2621 19
 7204 007e FB68     		ldr	r3, [r7, #12]
 7205 0080 0822     		movs	r2, #8
 7206 0082 1A77     		strb	r2, [r3, #28]
2622:./Libraries/STM32H7xx_HAL_Driver/Src/stm32h7xx_hal_tim_ex.c **** 
2623:./Libraries/STM32H7xx_HAL_Driver/Src/stm32h7xx_hal_tim_ex.c ****     if (hdma->Init.Mode == DMA_NORMAL)
 7207              		.loc 1 2623 19
 7208 0084 7B68     		ldr	r3, [r7, #4]
 7209 0086 DB69     		ldr	r3, [r3, #28]
 7210              		.loc 1 2623 8
 7211 0088 002B     		cmp	r3, #0
 7212 008a 03D1     		bne	.L435
2624:./Libraries/STM32H7xx_HAL_Driver/Src/stm32h7xx_hal_tim_ex.c ****     {
2625:./Libraries/STM32H7xx_HAL_Driver/Src/stm32h7xx_hal_tim_ex.c ****       TIM_CHANNEL_N_STATE_SET(htim, TIM_CHANNEL_4, HAL_TIM_CHANNEL_STATE_READY);
 7213              		.loc 1 2625 7
 7214 008c FB68     		ldr	r3, [r7, #12]
 7215 008e 0122     		movs	r2, #1
 7216 0090 83F84720 		strb	r2, [r3, #71]
 7217              	.L435:
2626:./Libraries/STM32H7xx_HAL_Driver/Src/stm32h7xx_hal_tim_ex.c ****     }
2627:./Libraries/STM32H7xx_HAL_Driver/Src/stm32h7xx_hal_tim_ex.c ****   }
2628:./Libraries/STM32H7xx_HAL_Driver/Src/stm32h7xx_hal_tim_ex.c ****   else
2629:./Libraries/STM32H7xx_HAL_Driver/Src/stm32h7xx_hal_tim_ex.c ****   {
2630:./Libraries/STM32H7xx_HAL_Driver/Src/stm32h7xx_hal_tim_ex.c ****     /* nothing to do */
2631:./Libraries/STM32H7xx_HAL_Driver/Src/stm32h7xx_hal_tim_ex.c ****   }
2632:./Libraries/STM32H7xx_HAL_Driver/Src/stm32h7xx_hal_tim_ex.c **** 
2633:./Libraries/STM32H7xx_HAL_Driver/Src/stm32h7xx_hal_tim_ex.c **** #if (USE_HAL_TIM_REGISTER_CALLBACKS == 1)
2634:./Libraries/STM32H7xx_HAL_Driver/Src/stm32h7xx_hal_tim_ex.c ****   htim->PWM_PulseFinishedCallback(htim);
2635:./Libraries/STM32H7xx_HAL_Driver/Src/stm32h7xx_hal_tim_ex.c **** #else
2636:./Libraries/STM32H7xx_HAL_Driver/Src/stm32h7xx_hal_tim_ex.c ****   HAL_TIM_PWM_PulseFinishedCallback(htim);
 7218              		.loc 1 2636 3
 7219 0094 F868     		ldr	r0, [r7, #12]
 7220 0096 FFF7FEFF 		bl	HAL_TIM_PWM_PulseFinishedCallback
2637:./Libraries/STM32H7xx_HAL_Driver/Src/stm32h7xx_hal_tim_ex.c **** #endif /* USE_HAL_TIM_REGISTER_CALLBACKS */
2638:./Libraries/STM32H7xx_HAL_Driver/Src/stm32h7xx_hal_tim_ex.c **** 
2639:./Libraries/STM32H7xx_HAL_Driver/Src/stm32h7xx_hal_tim_ex.c ****   htim->Channel = HAL_TIM_ACTIVE_CHANNEL_CLEARED;
 7221              		.loc 1 2639 17
 7222 009a FB68     		ldr	r3, [r7, #12]
 7223 009c 0022     		movs	r2, #0
 7224 009e 1A77     		strb	r2, [r3, #28]
2640:./Libraries/STM32H7xx_HAL_Driver/Src/stm32h7xx_hal_tim_ex.c **** }
 7225              		.loc 1 2640 1
 7226 00a0 00BF     		nop
 7227 00a2 1037     		adds	r7, r7, #16
 7228              	.LCFI235:
 7229              		.cfi_def_cfa_offset 8
 7230 00a4 BD46     		mov	sp, r7
 7231              	.LCFI236:
 7232              		.cfi_def_cfa_register 13
 7233              		@ sp needed
 7234 00a6 80BD     		pop	{r7, pc}
 7235              		.cfi_endproc
 7236              	.LFE374:
 7238              		.section	.text.TIM_DMAErrorCCxN,"ax",%progbits
 7239              		.align	1
ARM GAS  /tmp/ccxx2olO.s 			page 176


 7240              		.syntax unified
 7241              		.thumb
 7242              		.thumb_func
 7243              		.fpu fpv5-d16
 7245              	TIM_DMAErrorCCxN:
 7246              	.LFB375:
2641:./Libraries/STM32H7xx_HAL_Driver/Src/stm32h7xx_hal_tim_ex.c **** 
2642:./Libraries/STM32H7xx_HAL_Driver/Src/stm32h7xx_hal_tim_ex.c **** /**
2643:./Libraries/STM32H7xx_HAL_Driver/Src/stm32h7xx_hal_tim_ex.c ****   * @brief  TIM DMA error callback (complementary channel)
2644:./Libraries/STM32H7xx_HAL_Driver/Src/stm32h7xx_hal_tim_ex.c ****   * @param  hdma pointer to DMA handle.
2645:./Libraries/STM32H7xx_HAL_Driver/Src/stm32h7xx_hal_tim_ex.c ****   * @retval None
2646:./Libraries/STM32H7xx_HAL_Driver/Src/stm32h7xx_hal_tim_ex.c ****   */
2647:./Libraries/STM32H7xx_HAL_Driver/Src/stm32h7xx_hal_tim_ex.c **** static void TIM_DMAErrorCCxN(DMA_HandleTypeDef *hdma)
2648:./Libraries/STM32H7xx_HAL_Driver/Src/stm32h7xx_hal_tim_ex.c **** {
 7247              		.loc 1 2648 1
 7248              		.cfi_startproc
 7249              		@ args = 0, pretend = 0, frame = 16
 7250              		@ frame_needed = 1, uses_anonymous_args = 0
 7251 0000 80B5     		push	{r7, lr}
 7252              	.LCFI237:
 7253              		.cfi_def_cfa_offset 8
 7254              		.cfi_offset 7, -8
 7255              		.cfi_offset 14, -4
 7256 0002 84B0     		sub	sp, sp, #16
 7257              	.LCFI238:
 7258              		.cfi_def_cfa_offset 24
 7259 0004 00AF     		add	r7, sp, #0
 7260              	.LCFI239:
 7261              		.cfi_def_cfa_register 7
 7262 0006 7860     		str	r0, [r7, #4]
2649:./Libraries/STM32H7xx_HAL_Driver/Src/stm32h7xx_hal_tim_ex.c ****   TIM_HandleTypeDef *htim = (TIM_HandleTypeDef *)((DMA_HandleTypeDef *)hdma)->Parent;
 7263              		.loc 1 2649 22
 7264 0008 7B68     		ldr	r3, [r7, #4]
 7265 000a 9B6B     		ldr	r3, [r3, #56]
 7266 000c FB60     		str	r3, [r7, #12]
2650:./Libraries/STM32H7xx_HAL_Driver/Src/stm32h7xx_hal_tim_ex.c **** 
2651:./Libraries/STM32H7xx_HAL_Driver/Src/stm32h7xx_hal_tim_ex.c ****   if (hdma == htim->hdma[TIM_DMA_ID_CC1])
 7267              		.loc 1 2651 25
 7268 000e FB68     		ldr	r3, [r7, #12]
 7269 0010 5B6A     		ldr	r3, [r3, #36]
 7270              		.loc 1 2651 6
 7271 0012 7A68     		ldr	r2, [r7, #4]
 7272 0014 9A42     		cmp	r2, r3
 7273 0016 07D1     		bne	.L439
2652:./Libraries/STM32H7xx_HAL_Driver/Src/stm32h7xx_hal_tim_ex.c ****   {
2653:./Libraries/STM32H7xx_HAL_Driver/Src/stm32h7xx_hal_tim_ex.c ****     htim->Channel = HAL_TIM_ACTIVE_CHANNEL_1;
 7274              		.loc 1 2653 19
 7275 0018 FB68     		ldr	r3, [r7, #12]
 7276 001a 0122     		movs	r2, #1
 7277 001c 1A77     		strb	r2, [r3, #28]
2654:./Libraries/STM32H7xx_HAL_Driver/Src/stm32h7xx_hal_tim_ex.c ****     TIM_CHANNEL_N_STATE_SET(htim, TIM_CHANNEL_1, HAL_TIM_CHANNEL_STATE_READY);
 7278              		.loc 1 2654 5
 7279 001e FB68     		ldr	r3, [r7, #12]
 7280 0020 0122     		movs	r2, #1
 7281 0022 83F84420 		strb	r2, [r3, #68]
 7282 0026 18E0     		b	.L440
 7283              	.L439:
ARM GAS  /tmp/ccxx2olO.s 			page 177


2655:./Libraries/STM32H7xx_HAL_Driver/Src/stm32h7xx_hal_tim_ex.c ****   }
2656:./Libraries/STM32H7xx_HAL_Driver/Src/stm32h7xx_hal_tim_ex.c ****   else if (hdma == htim->hdma[TIM_DMA_ID_CC2])
 7284              		.loc 1 2656 30
 7285 0028 FB68     		ldr	r3, [r7, #12]
 7286 002a 9B6A     		ldr	r3, [r3, #40]
 7287              		.loc 1 2656 11
 7288 002c 7A68     		ldr	r2, [r7, #4]
 7289 002e 9A42     		cmp	r2, r3
 7290 0030 07D1     		bne	.L441
2657:./Libraries/STM32H7xx_HAL_Driver/Src/stm32h7xx_hal_tim_ex.c ****   {
2658:./Libraries/STM32H7xx_HAL_Driver/Src/stm32h7xx_hal_tim_ex.c ****     htim->Channel = HAL_TIM_ACTIVE_CHANNEL_2;
 7291              		.loc 1 2658 19
 7292 0032 FB68     		ldr	r3, [r7, #12]
 7293 0034 0222     		movs	r2, #2
 7294 0036 1A77     		strb	r2, [r3, #28]
2659:./Libraries/STM32H7xx_HAL_Driver/Src/stm32h7xx_hal_tim_ex.c ****     TIM_CHANNEL_N_STATE_SET(htim, TIM_CHANNEL_2, HAL_TIM_CHANNEL_STATE_READY);
 7295              		.loc 1 2659 5
 7296 0038 FB68     		ldr	r3, [r7, #12]
 7297 003a 0122     		movs	r2, #1
 7298 003c 83F84520 		strb	r2, [r3, #69]
 7299 0040 0BE0     		b	.L440
 7300              	.L441:
2660:./Libraries/STM32H7xx_HAL_Driver/Src/stm32h7xx_hal_tim_ex.c ****   }
2661:./Libraries/STM32H7xx_HAL_Driver/Src/stm32h7xx_hal_tim_ex.c ****   else if (hdma == htim->hdma[TIM_DMA_ID_CC3])
 7301              		.loc 1 2661 30
 7302 0042 FB68     		ldr	r3, [r7, #12]
 7303 0044 DB6A     		ldr	r3, [r3, #44]
 7304              		.loc 1 2661 11
 7305 0046 7A68     		ldr	r2, [r7, #4]
 7306 0048 9A42     		cmp	r2, r3
 7307 004a 06D1     		bne	.L440
2662:./Libraries/STM32H7xx_HAL_Driver/Src/stm32h7xx_hal_tim_ex.c ****   {
2663:./Libraries/STM32H7xx_HAL_Driver/Src/stm32h7xx_hal_tim_ex.c ****     htim->Channel = HAL_TIM_ACTIVE_CHANNEL_3;
 7308              		.loc 1 2663 19
 7309 004c FB68     		ldr	r3, [r7, #12]
 7310 004e 0422     		movs	r2, #4
 7311 0050 1A77     		strb	r2, [r3, #28]
2664:./Libraries/STM32H7xx_HAL_Driver/Src/stm32h7xx_hal_tim_ex.c ****     TIM_CHANNEL_N_STATE_SET(htim, TIM_CHANNEL_3, HAL_TIM_CHANNEL_STATE_READY);
 7312              		.loc 1 2664 5
 7313 0052 FB68     		ldr	r3, [r7, #12]
 7314 0054 0122     		movs	r2, #1
 7315 0056 83F84620 		strb	r2, [r3, #70]
 7316              	.L440:
2665:./Libraries/STM32H7xx_HAL_Driver/Src/stm32h7xx_hal_tim_ex.c ****   }
2666:./Libraries/STM32H7xx_HAL_Driver/Src/stm32h7xx_hal_tim_ex.c ****   else
2667:./Libraries/STM32H7xx_HAL_Driver/Src/stm32h7xx_hal_tim_ex.c ****   {
2668:./Libraries/STM32H7xx_HAL_Driver/Src/stm32h7xx_hal_tim_ex.c ****     /* nothing to do */
2669:./Libraries/STM32H7xx_HAL_Driver/Src/stm32h7xx_hal_tim_ex.c ****   }
2670:./Libraries/STM32H7xx_HAL_Driver/Src/stm32h7xx_hal_tim_ex.c **** 
2671:./Libraries/STM32H7xx_HAL_Driver/Src/stm32h7xx_hal_tim_ex.c **** #if (USE_HAL_TIM_REGISTER_CALLBACKS == 1)
2672:./Libraries/STM32H7xx_HAL_Driver/Src/stm32h7xx_hal_tim_ex.c ****   htim->ErrorCallback(htim);
2673:./Libraries/STM32H7xx_HAL_Driver/Src/stm32h7xx_hal_tim_ex.c **** #else
2674:./Libraries/STM32H7xx_HAL_Driver/Src/stm32h7xx_hal_tim_ex.c ****   HAL_TIM_ErrorCallback(htim);
 7317              		.loc 1 2674 3
 7318 005a F868     		ldr	r0, [r7, #12]
 7319 005c FFF7FEFF 		bl	HAL_TIM_ErrorCallback
2675:./Libraries/STM32H7xx_HAL_Driver/Src/stm32h7xx_hal_tim_ex.c **** #endif /* USE_HAL_TIM_REGISTER_CALLBACKS */
ARM GAS  /tmp/ccxx2olO.s 			page 178


2676:./Libraries/STM32H7xx_HAL_Driver/Src/stm32h7xx_hal_tim_ex.c **** 
2677:./Libraries/STM32H7xx_HAL_Driver/Src/stm32h7xx_hal_tim_ex.c ****   htim->Channel = HAL_TIM_ACTIVE_CHANNEL_CLEARED;
 7320              		.loc 1 2677 17
 7321 0060 FB68     		ldr	r3, [r7, #12]
 7322 0062 0022     		movs	r2, #0
 7323 0064 1A77     		strb	r2, [r3, #28]
2678:./Libraries/STM32H7xx_HAL_Driver/Src/stm32h7xx_hal_tim_ex.c **** }
 7324              		.loc 1 2678 1
 7325 0066 00BF     		nop
 7326 0068 1037     		adds	r7, r7, #16
 7327              	.LCFI240:
 7328              		.cfi_def_cfa_offset 8
 7329 006a BD46     		mov	sp, r7
 7330              	.LCFI241:
 7331              		.cfi_def_cfa_register 13
 7332              		@ sp needed
 7333 006c 80BD     		pop	{r7, pc}
 7334              		.cfi_endproc
 7335              	.LFE375:
 7337              		.section	.text.TIM_CCxNChannelCmd,"ax",%progbits
 7338              		.align	1
 7339              		.syntax unified
 7340              		.thumb
 7341              		.thumb_func
 7342              		.fpu fpv5-d16
 7344              	TIM_CCxNChannelCmd:
 7345              	.LFB376:
2679:./Libraries/STM32H7xx_HAL_Driver/Src/stm32h7xx_hal_tim_ex.c **** 
2680:./Libraries/STM32H7xx_HAL_Driver/Src/stm32h7xx_hal_tim_ex.c **** /**
2681:./Libraries/STM32H7xx_HAL_Driver/Src/stm32h7xx_hal_tim_ex.c ****   * @brief  Enables or disables the TIM Capture Compare Channel xN.
2682:./Libraries/STM32H7xx_HAL_Driver/Src/stm32h7xx_hal_tim_ex.c ****   * @param  TIMx to select the TIM peripheral
2683:./Libraries/STM32H7xx_HAL_Driver/Src/stm32h7xx_hal_tim_ex.c ****   * @param  Channel specifies the TIM Channel
2684:./Libraries/STM32H7xx_HAL_Driver/Src/stm32h7xx_hal_tim_ex.c ****   *          This parameter can be one of the following values:
2685:./Libraries/STM32H7xx_HAL_Driver/Src/stm32h7xx_hal_tim_ex.c ****   *            @arg TIM_CHANNEL_1: TIM Channel 1
2686:./Libraries/STM32H7xx_HAL_Driver/Src/stm32h7xx_hal_tim_ex.c ****   *            @arg TIM_CHANNEL_2: TIM Channel 2
2687:./Libraries/STM32H7xx_HAL_Driver/Src/stm32h7xx_hal_tim_ex.c ****   *            @arg TIM_CHANNEL_3: TIM Channel 3
2688:./Libraries/STM32H7xx_HAL_Driver/Src/stm32h7xx_hal_tim_ex.c ****   * @param  ChannelNState specifies the TIM Channel CCxNE bit new state.
2689:./Libraries/STM32H7xx_HAL_Driver/Src/stm32h7xx_hal_tim_ex.c ****   *          This parameter can be: TIM_CCxN_ENABLE or TIM_CCxN_Disable.
2690:./Libraries/STM32H7xx_HAL_Driver/Src/stm32h7xx_hal_tim_ex.c ****   * @retval None
2691:./Libraries/STM32H7xx_HAL_Driver/Src/stm32h7xx_hal_tim_ex.c ****   */
2692:./Libraries/STM32H7xx_HAL_Driver/Src/stm32h7xx_hal_tim_ex.c **** static void TIM_CCxNChannelCmd(TIM_TypeDef *TIMx, uint32_t Channel, uint32_t ChannelNState)
2693:./Libraries/STM32H7xx_HAL_Driver/Src/stm32h7xx_hal_tim_ex.c **** {
 7346              		.loc 1 2693 1
 7347              		.cfi_startproc
 7348              		@ args = 0, pretend = 0, frame = 24
 7349              		@ frame_needed = 1, uses_anonymous_args = 0
 7350              		@ link register save eliminated.
 7351 0000 80B4     		push	{r7}
 7352              	.LCFI242:
 7353              		.cfi_def_cfa_offset 4
 7354              		.cfi_offset 7, -4
 7355 0002 87B0     		sub	sp, sp, #28
 7356              	.LCFI243:
 7357              		.cfi_def_cfa_offset 32
 7358 0004 00AF     		add	r7, sp, #0
 7359              	.LCFI244:
 7360              		.cfi_def_cfa_register 7
ARM GAS  /tmp/ccxx2olO.s 			page 179


 7361 0006 F860     		str	r0, [r7, #12]
 7362 0008 B960     		str	r1, [r7, #8]
 7363 000a 7A60     		str	r2, [r7, #4]
2694:./Libraries/STM32H7xx_HAL_Driver/Src/stm32h7xx_hal_tim_ex.c ****   uint32_t tmp;
2695:./Libraries/STM32H7xx_HAL_Driver/Src/stm32h7xx_hal_tim_ex.c **** 
2696:./Libraries/STM32H7xx_HAL_Driver/Src/stm32h7xx_hal_tim_ex.c ****   tmp = TIM_CCER_CC1NE << (Channel & 0x1FU); /* 0x1FU = 31 bits max shift */
 7364              		.loc 1 2696 36
 7365 000c BB68     		ldr	r3, [r7, #8]
 7366 000e 03F01F03 		and	r3, r3, #31
 7367              		.loc 1 2696 7
 7368 0012 0422     		movs	r2, #4
 7369 0014 02FA03F3 		lsl	r3, r2, r3
 7370 0018 7B61     		str	r3, [r7, #20]
2697:./Libraries/STM32H7xx_HAL_Driver/Src/stm32h7xx_hal_tim_ex.c **** 
2698:./Libraries/STM32H7xx_HAL_Driver/Src/stm32h7xx_hal_tim_ex.c ****   /* Reset the CCxNE Bit */
2699:./Libraries/STM32H7xx_HAL_Driver/Src/stm32h7xx_hal_tim_ex.c ****   TIMx->CCER &=  ~tmp;
 7371              		.loc 1 2699 14
 7372 001a FB68     		ldr	r3, [r7, #12]
 7373 001c 1A6A     		ldr	r2, [r3, #32]
 7374              		.loc 1 2699 18
 7375 001e 7B69     		ldr	r3, [r7, #20]
 7376 0020 DB43     		mvns	r3, r3
 7377              		.loc 1 2699 14
 7378 0022 1A40     		ands	r2, r2, r3
 7379 0024 FB68     		ldr	r3, [r7, #12]
 7380 0026 1A62     		str	r2, [r3, #32]
2700:./Libraries/STM32H7xx_HAL_Driver/Src/stm32h7xx_hal_tim_ex.c **** 
2701:./Libraries/STM32H7xx_HAL_Driver/Src/stm32h7xx_hal_tim_ex.c ****   /* Set or reset the CCxNE Bit */
2702:./Libraries/STM32H7xx_HAL_Driver/Src/stm32h7xx_hal_tim_ex.c ****   TIMx->CCER |= (uint32_t)(ChannelNState << (Channel & 0x1FU)); /* 0x1FU = 31 bits max shift */
 7381              		.loc 1 2702 14
 7382 0028 FB68     		ldr	r3, [r7, #12]
 7383 002a 1A6A     		ldr	r2, [r3, #32]
 7384              		.loc 1 2702 54
 7385 002c BB68     		ldr	r3, [r7, #8]
 7386 002e 03F01F03 		and	r3, r3, #31
 7387              		.loc 1 2702 42
 7388 0032 7968     		ldr	r1, [r7, #4]
 7389 0034 01FA03F3 		lsl	r3, r1, r3
 7390              		.loc 1 2702 14
 7391 0038 1A43     		orrs	r2, r2, r3
 7392 003a FB68     		ldr	r3, [r7, #12]
 7393 003c 1A62     		str	r2, [r3, #32]
2703:./Libraries/STM32H7xx_HAL_Driver/Src/stm32h7xx_hal_tim_ex.c **** }
 7394              		.loc 1 2703 1
 7395 003e 00BF     		nop
 7396 0040 1C37     		adds	r7, r7, #28
 7397              	.LCFI245:
 7398              		.cfi_def_cfa_offset 4
 7399 0042 BD46     		mov	sp, r7
 7400              	.LCFI246:
 7401              		.cfi_def_cfa_register 13
 7402              		@ sp needed
 7403 0044 5DF8047B 		ldr	r7, [sp], #4
 7404              	.LCFI247:
 7405              		.cfi_restore 7
 7406              		.cfi_def_cfa_offset 0
 7407 0048 7047     		bx	lr
ARM GAS  /tmp/ccxx2olO.s 			page 180


 7408              		.cfi_endproc
 7409              	.LFE376:
 7411              		.text
 7412              	.Letext0:
 7413              		.file 2 "/usr/lib/gcc/arm-none-eabi/9.2.1/include/stdint.h"
 7414              		.file 3 "./Libraries/CMSIS/Core/Include/core_cm7.h"
 7415              		.file 4 "./Libraries/CMSIS/Device/ST/STM32H7xx/Include/system_stm32h7xx.h"
 7416              		.file 5 "./Libraries/CMSIS/Device/ST/STM32H7xx/Include/stm32h747xx.h"
 7417              		.file 6 "/usr/lib/gcc/arm-none-eabi/9.2.1/include/stddef.h"
 7418              		.file 7 "/usr/include/newlib/sys/_types.h"
 7419              		.file 8 "/usr/include/newlib/sys/reent.h"
 7420              		.file 9 "/usr/include/newlib/sys/lock.h"
 7421              		.file 10 "/usr/include/newlib/math.h"
 7422              		.file 11 "./Libraries/CMSIS/Device/ST/STM32H7xx/Include/stm32h7xx.h"
 7423              		.file 12 "./Libraries/STM32H7xx_HAL_Driver/Inc/stm32h7xx_hal_def.h"
 7424              		.file 13 "./Libraries/STM32H7xx_HAL_Driver/Inc/stm32h7xx_hal_dma.h"
 7425              		.file 14 "./Libraries/STM32H7xx_HAL_Driver/Inc/stm32h7xx_hal_flash.h"
 7426              		.file 15 "./Libraries/STM32H7xx_HAL_Driver/Inc/stm32h7xx_hal_tim.h"
 7427              		.file 16 "./Libraries/STM32H7xx_HAL_Driver/Inc/stm32h7xx_hal_tim_ex.h"
 7428              		.file 17 "./Libraries/STM32H7xx_HAL_Driver/Inc/stm32h7xx_hal_uart.h"
 7429              		.file 18 "./Libraries/STM32H7xx_HAL_Driver/Inc/stm32h7xx_hal.h"
ARM GAS  /tmp/ccxx2olO.s 			page 181


DEFINED SYMBOLS
                            *ABS*:0000000000000000 stm32h7xx_hal_tim_ex.c
     /tmp/ccxx2olO.s:17     .text.HAL_TIMEx_HallSensor_Init:0000000000000000 $t
     /tmp/ccxx2olO.s:25     .text.HAL_TIMEx_HallSensor_Init:0000000000000000 HAL_TIMEx_HallSensor_Init
     /tmp/ccxx2olO.s:377    .text.HAL_TIMEx_HallSensor_MspInit:0000000000000000 HAL_TIMEx_HallSensor_MspInit
     /tmp/ccxx2olO.s:263    .text.HAL_TIMEx_HallSensor_Init:0000000000000154 $d
     /tmp/ccxx2olO.s:269    .text.HAL_TIMEx_HallSensor_DeInit:0000000000000000 $t
     /tmp/ccxx2olO.s:276    .text.HAL_TIMEx_HallSensor_DeInit:0000000000000000 HAL_TIMEx_HallSensor_DeInit
     /tmp/ccxx2olO.s:420    .text.HAL_TIMEx_HallSensor_MspDeInit:0000000000000000 HAL_TIMEx_HallSensor_MspDeInit
     /tmp/ccxx2olO.s:370    .text.HAL_TIMEx_HallSensor_MspInit:0000000000000000 $t
     /tmp/ccxx2olO.s:413    .text.HAL_TIMEx_HallSensor_MspDeInit:0000000000000000 $t
     /tmp/ccxx2olO.s:456    .text.HAL_TIMEx_HallSensor_Start:0000000000000000 $t
     /tmp/ccxx2olO.s:463    .text.HAL_TIMEx_HallSensor_Start:0000000000000000 HAL_TIMEx_HallSensor_Start
     /tmp/ccxx2olO.s:641    .text.HAL_TIMEx_HallSensor_Start:0000000000000104 $d
     /tmp/ccxx2olO.s:652    .text.HAL_TIMEx_HallSensor_Stop:0000000000000000 $t
     /tmp/ccxx2olO.s:659    .text.HAL_TIMEx_HallSensor_Stop:0000000000000000 HAL_TIMEx_HallSensor_Stop
     /tmp/ccxx2olO.s:741    .text.HAL_TIMEx_HallSensor_Start_IT:0000000000000000 $t
     /tmp/ccxx2olO.s:748    .text.HAL_TIMEx_HallSensor_Start_IT:0000000000000000 HAL_TIMEx_HallSensor_Start_IT
     /tmp/ccxx2olO.s:934    .text.HAL_TIMEx_HallSensor_Start_IT:0000000000000114 $d
     /tmp/ccxx2olO.s:945    .text.HAL_TIMEx_HallSensor_Stop_IT:0000000000000000 $t
     /tmp/ccxx2olO.s:952    .text.HAL_TIMEx_HallSensor_Stop_IT:0000000000000000 HAL_TIMEx_HallSensor_Stop_IT
     /tmp/ccxx2olO.s:1042   .text.HAL_TIMEx_HallSensor_Start_DMA:0000000000000000 $t
     /tmp/ccxx2olO.s:1049   .text.HAL_TIMEx_HallSensor_Start_DMA:0000000000000000 HAL_TIMEx_HallSensor_Start_DMA
     /tmp/ccxx2olO.s:1281   .text.HAL_TIMEx_HallSensor_Start_DMA:0000000000000148 $d
     /tmp/ccxx2olO.s:1295   .text.HAL_TIMEx_HallSensor_Stop_DMA:0000000000000000 $t
     /tmp/ccxx2olO.s:1302   .text.HAL_TIMEx_HallSensor_Stop_DMA:0000000000000000 HAL_TIMEx_HallSensor_Stop_DMA
     /tmp/ccxx2olO.s:1389   .text.HAL_TIMEx_OCN_Start:0000000000000000 $t
     /tmp/ccxx2olO.s:1396   .text.HAL_TIMEx_OCN_Start:0000000000000000 HAL_TIMEx_OCN_Start
     /tmp/ccxx2olO.s:7344   .text.TIM_CCxNChannelCmd:0000000000000000 TIM_CCxNChannelCmd
     /tmp/ccxx2olO.s:1631   .text.HAL_TIMEx_OCN_Start:0000000000000158 $d
     /tmp/ccxx2olO.s:1642   .text.HAL_TIMEx_OCN_Stop:0000000000000000 $t
     /tmp/ccxx2olO.s:1649   .text.HAL_TIMEx_OCN_Stop:0000000000000000 HAL_TIMEx_OCN_Stop
     /tmp/ccxx2olO.s:1776   .text.HAL_TIMEx_OCN_Start_IT:0000000000000000 $t
     /tmp/ccxx2olO.s:1783   .text.HAL_TIMEx_OCN_Start_IT:0000000000000000 HAL_TIMEx_OCN_Start_IT
     /tmp/ccxx2olO.s:2078   .text.HAL_TIMEx_OCN_Start_IT:00000000000001bc $d
     /tmp/ccxx2olO.s:2089   .text.HAL_TIMEx_OCN_Stop_IT:0000000000000000 $t
     /tmp/ccxx2olO.s:2096   .text.HAL_TIMEx_OCN_Stop_IT:0000000000000000 HAL_TIMEx_OCN_Stop_IT
     /tmp/ccxx2olO.s:2297   .text.HAL_TIMEx_OCN_Start_DMA:0000000000000000 $t
     /tmp/ccxx2olO.s:2304   .text.HAL_TIMEx_OCN_Start_DMA:0000000000000000 HAL_TIMEx_OCN_Start_DMA
     /tmp/ccxx2olO.s:2789   .text.HAL_TIMEx_OCN_Start_DMA:00000000000002cc $d
     /tmp/ccxx2olO.s:7105   .text.TIM_DMADelayPulseNCplt:0000000000000000 TIM_DMADelayPulseNCplt
     /tmp/ccxx2olO.s:7245   .text.TIM_DMAErrorCCxN:0000000000000000 TIM_DMAErrorCCxN
     /tmp/ccxx2olO.s:2803   .text.HAL_TIMEx_OCN_Stop_DMA:0000000000000000 $t
     /tmp/ccxx2olO.s:2810   .text.HAL_TIMEx_OCN_Stop_DMA:0000000000000000 HAL_TIMEx_OCN_Stop_DMA
     /tmp/ccxx2olO.s:3004   .text.HAL_TIMEx_PWMN_Start:0000000000000000 $t
     /tmp/ccxx2olO.s:3011   .text.HAL_TIMEx_PWMN_Start:0000000000000000 HAL_TIMEx_PWMN_Start
     /tmp/ccxx2olO.s:3246   .text.HAL_TIMEx_PWMN_Start:0000000000000158 $d
     /tmp/ccxx2olO.s:3257   .text.HAL_TIMEx_PWMN_Stop:0000000000000000 $t
     /tmp/ccxx2olO.s:3264   .text.HAL_TIMEx_PWMN_Stop:0000000000000000 HAL_TIMEx_PWMN_Stop
     /tmp/ccxx2olO.s:3391   .text.HAL_TIMEx_PWMN_Start_IT:0000000000000000 $t
     /tmp/ccxx2olO.s:3398   .text.HAL_TIMEx_PWMN_Start_IT:0000000000000000 HAL_TIMEx_PWMN_Start_IT
     /tmp/ccxx2olO.s:3693   .text.HAL_TIMEx_PWMN_Start_IT:00000000000001bc $d
     /tmp/ccxx2olO.s:3704   .text.HAL_TIMEx_PWMN_Stop_IT:0000000000000000 $t
     /tmp/ccxx2olO.s:3711   .text.HAL_TIMEx_PWMN_Stop_IT:0000000000000000 HAL_TIMEx_PWMN_Stop_IT
     /tmp/ccxx2olO.s:3912   .text.HAL_TIMEx_PWMN_Start_DMA:0000000000000000 $t
     /tmp/ccxx2olO.s:3919   .text.HAL_TIMEx_PWMN_Start_DMA:0000000000000000 HAL_TIMEx_PWMN_Start_DMA
     /tmp/ccxx2olO.s:4404   .text.HAL_TIMEx_PWMN_Start_DMA:00000000000002cc $d
ARM GAS  /tmp/ccxx2olO.s 			page 182


     /tmp/ccxx2olO.s:4418   .text.HAL_TIMEx_PWMN_Stop_DMA:0000000000000000 $t
     /tmp/ccxx2olO.s:4425   .text.HAL_TIMEx_PWMN_Stop_DMA:0000000000000000 HAL_TIMEx_PWMN_Stop_DMA
     /tmp/ccxx2olO.s:4619   .text.HAL_TIMEx_OnePulseN_Start:0000000000000000 $t
     /tmp/ccxx2olO.s:4626   .text.HAL_TIMEx_OnePulseN_Start:0000000000000000 HAL_TIMEx_OnePulseN_Start
     /tmp/ccxx2olO.s:4750   .text.HAL_TIMEx_OnePulseN_Stop:0000000000000000 $t
     /tmp/ccxx2olO.s:4757   .text.HAL_TIMEx_OnePulseN_Stop:0000000000000000 HAL_TIMEx_OnePulseN_Stop
     /tmp/ccxx2olO.s:4885   .text.HAL_TIMEx_OnePulseN_Start_IT:0000000000000000 $t
     /tmp/ccxx2olO.s:4892   .text.HAL_TIMEx_OnePulseN_Start_IT:0000000000000000 HAL_TIMEx_OnePulseN_Start_IT
     /tmp/ccxx2olO.s:5032   .text.HAL_TIMEx_OnePulseN_Stop_IT:0000000000000000 $t
     /tmp/ccxx2olO.s:5039   .text.HAL_TIMEx_OnePulseN_Stop_IT:0000000000000000 HAL_TIMEx_OnePulseN_Stop_IT
     /tmp/ccxx2olO.s:5183   .text.HAL_TIMEx_ConfigCommutEvent:0000000000000000 $t
     /tmp/ccxx2olO.s:5190   .text.HAL_TIMEx_ConfigCommutEvent:0000000000000000 HAL_TIMEx_ConfigCommutEvent
     /tmp/ccxx2olO.s:5348   .text.HAL_TIMEx_ConfigCommutEvent:00000000000000d0 $d
     /tmp/ccxx2olO.s:5354   .text.HAL_TIMEx_ConfigCommutEvent_IT:0000000000000000 $t
     /tmp/ccxx2olO.s:5361   .text.HAL_TIMEx_ConfigCommutEvent_IT:0000000000000000 HAL_TIMEx_ConfigCommutEvent_IT
     /tmp/ccxx2olO.s:5519   .text.HAL_TIMEx_ConfigCommutEvent_IT:00000000000000d0 $d
     /tmp/ccxx2olO.s:5525   .text.HAL_TIMEx_ConfigCommutEvent_DMA:0000000000000000 $t
     /tmp/ccxx2olO.s:5532   .text.HAL_TIMEx_ConfigCommutEvent_DMA:0000000000000000 HAL_TIMEx_ConfigCommutEvent_DMA
     /tmp/ccxx2olO.s:5708   .text.HAL_TIMEx_ConfigCommutEvent_DMA:00000000000000e8 $d
     /tmp/ccxx2olO.s:7006   .text.TIMEx_DMACommutationCplt:0000000000000000 TIMEx_DMACommutationCplt
     /tmp/ccxx2olO.s:7056   .text.TIMEx_DMACommutationHalfCplt:0000000000000000 TIMEx_DMACommutationHalfCplt
     /tmp/ccxx2olO.s:5717   .text.HAL_TIMEx_MasterConfigSynchronization:0000000000000000 $t
     /tmp/ccxx2olO.s:5724   .text.HAL_TIMEx_MasterConfigSynchronization:0000000000000000 HAL_TIMEx_MasterConfigSynchronization
     /tmp/ccxx2olO.s:5904   .text.HAL_TIMEx_MasterConfigSynchronization:00000000000000f8 $d
     /tmp/ccxx2olO.s:5914   .text.HAL_TIMEx_ConfigBreakDeadTime:0000000000000000 $t
     /tmp/ccxx2olO.s:5921   .text.HAL_TIMEx_ConfigBreakDeadTime:0000000000000000 HAL_TIMEx_ConfigBreakDeadTime
     /tmp/ccxx2olO.s:6080   .text.HAL_TIMEx_ConfigBreakDeadTime:00000000000000f4 $d
     /tmp/ccxx2olO.s:6086   .text.HAL_TIMEx_ConfigBreakInput:0000000000000000 $t
     /tmp/ccxx2olO.s:6093   .text.HAL_TIMEx_ConfigBreakInput:0000000000000000 HAL_TIMEx_ConfigBreakInput
     /tmp/ccxx2olO.s:6136   .text.HAL_TIMEx_ConfigBreakInput:0000000000000034 $d
     /tmp/ccxx2olO.s:6144   .text.HAL_TIMEx_ConfigBreakInput:0000000000000054 $t
     /tmp/ccxx2olO.s:6380   .text.HAL_TIMEx_RemapConfig:0000000000000000 $t
     /tmp/ccxx2olO.s:6387   .text.HAL_TIMEx_RemapConfig:0000000000000000 HAL_TIMEx_RemapConfig
     /tmp/ccxx2olO.s:6454   .text.HAL_TIMEx_TISelection:0000000000000000 $t
     /tmp/ccxx2olO.s:6461   .text.HAL_TIMEx_TISelection:0000000000000000 HAL_TIMEx_TISelection
     /tmp/ccxx2olO.s:6504   .text.HAL_TIMEx_TISelection:0000000000000034 $d
     /tmp/ccxx2olO.s:6517   .text.HAL_TIMEx_TISelection:0000000000000068 $t
     /tmp/ccxx2olO.s:6602   .text.HAL_TIMEx_GroupChannel5:0000000000000000 $t
     /tmp/ccxx2olO.s:6609   .text.HAL_TIMEx_GroupChannel5:0000000000000000 HAL_TIMEx_GroupChannel5
     /tmp/ccxx2olO.s:6697   .text.HAL_TIMEx_CommutCallback:0000000000000000 $t
     /tmp/ccxx2olO.s:6704   .text.HAL_TIMEx_CommutCallback:0000000000000000 HAL_TIMEx_CommutCallback
     /tmp/ccxx2olO.s:6740   .text.HAL_TIMEx_CommutHalfCpltCallback:0000000000000000 $t
     /tmp/ccxx2olO.s:6747   .text.HAL_TIMEx_CommutHalfCpltCallback:0000000000000000 HAL_TIMEx_CommutHalfCpltCallback
     /tmp/ccxx2olO.s:6783   .text.HAL_TIMEx_BreakCallback:0000000000000000 $t
     /tmp/ccxx2olO.s:6790   .text.HAL_TIMEx_BreakCallback:0000000000000000 HAL_TIMEx_BreakCallback
     /tmp/ccxx2olO.s:6826   .text.HAL_TIMEx_Break2Callback:0000000000000000 $t
     /tmp/ccxx2olO.s:6833   .text.HAL_TIMEx_Break2Callback:0000000000000000 HAL_TIMEx_Break2Callback
     /tmp/ccxx2olO.s:6869   .text.HAL_TIMEx_HallSensor_GetState:0000000000000000 $t
     /tmp/ccxx2olO.s:6876   .text.HAL_TIMEx_HallSensor_GetState:0000000000000000 HAL_TIMEx_HallSensor_GetState
     /tmp/ccxx2olO.s:6916   .text.HAL_TIMEx_GetChannelNState:0000000000000000 $t
     /tmp/ccxx2olO.s:6923   .text.HAL_TIMEx_GetChannelNState:0000000000000000 HAL_TIMEx_GetChannelNState
     /tmp/ccxx2olO.s:6999   .text.TIMEx_DMACommutationCplt:0000000000000000 $t
     /tmp/ccxx2olO.s:7049   .text.TIMEx_DMACommutationHalfCplt:0000000000000000 $t
     /tmp/ccxx2olO.s:7099   .text.TIM_DMADelayPulseNCplt:0000000000000000 $t
     /tmp/ccxx2olO.s:7239   .text.TIM_DMAErrorCCxN:0000000000000000 $t
     /tmp/ccxx2olO.s:7338   .text.TIM_CCxNChannelCmd:0000000000000000 $t

ARM GAS  /tmp/ccxx2olO.s 			page 183


UNDEFINED SYMBOLS
TIM_Base_SetConfig
TIM_TI1_SetConfig
TIM_OC2_SetConfig
TIM_CCxChannelCmd
HAL_DMA_Start_IT
TIM_DMACaptureCplt
TIM_DMACaptureHalfCplt
TIM_DMAError
HAL_DMA_Abort_IT
TIM_DMADelayPulseHalfCplt
HAL_TIM_PWM_PulseFinishedCallback
HAL_TIM_ErrorCallback
