ARM GAS  /tmp/cc4Y2K9y.s 			page 1


   1              		.cpu cortex-m7
   2              		.eabi_attribute 28, 1
   3              		.eabi_attribute 20, 1
   4              		.eabi_attribute 21, 1
   5              		.eabi_attribute 23, 3
   6              		.eabi_attribute 24, 1
   7              		.eabi_attribute 25, 1
   8              		.eabi_attribute 26, 1
   9              		.eabi_attribute 30, 2
  10              		.eabi_attribute 34, 1
  11              		.eabi_attribute 18, 4
  12              		.file	"stm32h7xx_hal_spi_ex.c"
  13              		.text
  14              	.Ltext0:
  15              		.cfi_sections	.debug_frame
  16              		.section	.text.HAL_SPIEx_FlushRxFifo,"ax",%progbits
  17              		.align	1
  18              		.p2align 2,,3
  19              		.global	HAL_SPIEx_FlushRxFifo
  20              		.arch armv7e-m
  21              		.syntax unified
  22              		.thumb
  23              		.thumb_func
  24              		.fpu fpv5-d16
  26              	HAL_SPIEx_FlushRxFifo:
  27              	.LVL0:
  28              	.LFB331:
  29              		.file 1 "./Libraries/STM32H7xx_HAL_Driver/Src/stm32h7xx_hal_spi_ex.c"
   1:./Libraries/STM32H7xx_HAL_Driver/Src/stm32h7xx_hal_spi_ex.c **** /**
   2:./Libraries/STM32H7xx_HAL_Driver/Src/stm32h7xx_hal_spi_ex.c ****   ******************************************************************************
   3:./Libraries/STM32H7xx_HAL_Driver/Src/stm32h7xx_hal_spi_ex.c ****   * @file    stm32h7xx_hal_spi_ex.c
   4:./Libraries/STM32H7xx_HAL_Driver/Src/stm32h7xx_hal_spi_ex.c ****   * @author  MCD Application Team
   5:./Libraries/STM32H7xx_HAL_Driver/Src/stm32h7xx_hal_spi_ex.c ****   * @brief   Extended SPI HAL module driver.
   6:./Libraries/STM32H7xx_HAL_Driver/Src/stm32h7xx_hal_spi_ex.c ****   *          This file provides firmware functions to manage the following
   7:./Libraries/STM32H7xx_HAL_Driver/Src/stm32h7xx_hal_spi_ex.c ****   *          SPI peripheral extended functionalities :
   8:./Libraries/STM32H7xx_HAL_Driver/Src/stm32h7xx_hal_spi_ex.c ****   *           + IO operation functions
   9:./Libraries/STM32H7xx_HAL_Driver/Src/stm32h7xx_hal_spi_ex.c ****   *           + Peripheral Control functions
  10:./Libraries/STM32H7xx_HAL_Driver/Src/stm32h7xx_hal_spi_ex.c ****   *
  11:./Libraries/STM32H7xx_HAL_Driver/Src/stm32h7xx_hal_spi_ex.c ****   ******************************************************************************
  12:./Libraries/STM32H7xx_HAL_Driver/Src/stm32h7xx_hal_spi_ex.c ****   * @attention
  13:./Libraries/STM32H7xx_HAL_Driver/Src/stm32h7xx_hal_spi_ex.c ****   *
  14:./Libraries/STM32H7xx_HAL_Driver/Src/stm32h7xx_hal_spi_ex.c ****   * <h2><center>&copy; Copyright (c) 2017 STMicroelectronics.
  15:./Libraries/STM32H7xx_HAL_Driver/Src/stm32h7xx_hal_spi_ex.c ****   * All rights reserved.</center></h2>
  16:./Libraries/STM32H7xx_HAL_Driver/Src/stm32h7xx_hal_spi_ex.c ****   *
  17:./Libraries/STM32H7xx_HAL_Driver/Src/stm32h7xx_hal_spi_ex.c ****   * This software component is licensed by ST under BSD 3-Clause license,
  18:./Libraries/STM32H7xx_HAL_Driver/Src/stm32h7xx_hal_spi_ex.c ****   * the "License"; You may not use this file except in compliance with the
  19:./Libraries/STM32H7xx_HAL_Driver/Src/stm32h7xx_hal_spi_ex.c ****   * License. You may obtain a copy of the License at:
  20:./Libraries/STM32H7xx_HAL_Driver/Src/stm32h7xx_hal_spi_ex.c ****   *                        opensource.org/licenses/BSD-3-Clause
  21:./Libraries/STM32H7xx_HAL_Driver/Src/stm32h7xx_hal_spi_ex.c ****   *
  22:./Libraries/STM32H7xx_HAL_Driver/Src/stm32h7xx_hal_spi_ex.c ****   ******************************************************************************
  23:./Libraries/STM32H7xx_HAL_Driver/Src/stm32h7xx_hal_spi_ex.c ****   */
  24:./Libraries/STM32H7xx_HAL_Driver/Src/stm32h7xx_hal_spi_ex.c **** 
  25:./Libraries/STM32H7xx_HAL_Driver/Src/stm32h7xx_hal_spi_ex.c **** /* Includes ------------------------------------------------------------------*/
  26:./Libraries/STM32H7xx_HAL_Driver/Src/stm32h7xx_hal_spi_ex.c **** #include "stm32h7xx_hal.h"
  27:./Libraries/STM32H7xx_HAL_Driver/Src/stm32h7xx_hal_spi_ex.c **** 
  28:./Libraries/STM32H7xx_HAL_Driver/Src/stm32h7xx_hal_spi_ex.c **** /** @addtogroup STM32H7xx_HAL_Driver
  29:./Libraries/STM32H7xx_HAL_Driver/Src/stm32h7xx_hal_spi_ex.c ****   * @{
ARM GAS  /tmp/cc4Y2K9y.s 			page 2


  30:./Libraries/STM32H7xx_HAL_Driver/Src/stm32h7xx_hal_spi_ex.c ****   */
  31:./Libraries/STM32H7xx_HAL_Driver/Src/stm32h7xx_hal_spi_ex.c **** 
  32:./Libraries/STM32H7xx_HAL_Driver/Src/stm32h7xx_hal_spi_ex.c **** /** @defgroup SPIEx SPIEx
  33:./Libraries/STM32H7xx_HAL_Driver/Src/stm32h7xx_hal_spi_ex.c ****   * @brief SPI Extended HAL module driver
  34:./Libraries/STM32H7xx_HAL_Driver/Src/stm32h7xx_hal_spi_ex.c ****   * @{
  35:./Libraries/STM32H7xx_HAL_Driver/Src/stm32h7xx_hal_spi_ex.c ****   */
  36:./Libraries/STM32H7xx_HAL_Driver/Src/stm32h7xx_hal_spi_ex.c **** #ifdef HAL_SPI_MODULE_ENABLED
  37:./Libraries/STM32H7xx_HAL_Driver/Src/stm32h7xx_hal_spi_ex.c **** 
  38:./Libraries/STM32H7xx_HAL_Driver/Src/stm32h7xx_hal_spi_ex.c **** /* Private typedef -----------------------------------------------------------*/
  39:./Libraries/STM32H7xx_HAL_Driver/Src/stm32h7xx_hal_spi_ex.c **** /* Private defines -----------------------------------------------------------*/
  40:./Libraries/STM32H7xx_HAL_Driver/Src/stm32h7xx_hal_spi_ex.c **** /* Private macros ------------------------------------------------------------*/
  41:./Libraries/STM32H7xx_HAL_Driver/Src/stm32h7xx_hal_spi_ex.c **** /* Private variables ---------------------------------------------------------*/
  42:./Libraries/STM32H7xx_HAL_Driver/Src/stm32h7xx_hal_spi_ex.c **** /* Private function prototypes -----------------------------------------------*/
  43:./Libraries/STM32H7xx_HAL_Driver/Src/stm32h7xx_hal_spi_ex.c **** /* Exported functions --------------------------------------------------------*/
  44:./Libraries/STM32H7xx_HAL_Driver/Src/stm32h7xx_hal_spi_ex.c **** 
  45:./Libraries/STM32H7xx_HAL_Driver/Src/stm32h7xx_hal_spi_ex.c **** /** @defgroup SPIEx_Exported_Functions SPIEx Exported Functions
  46:./Libraries/STM32H7xx_HAL_Driver/Src/stm32h7xx_hal_spi_ex.c ****   * @{
  47:./Libraries/STM32H7xx_HAL_Driver/Src/stm32h7xx_hal_spi_ex.c ****   */
  48:./Libraries/STM32H7xx_HAL_Driver/Src/stm32h7xx_hal_spi_ex.c **** 
  49:./Libraries/STM32H7xx_HAL_Driver/Src/stm32h7xx_hal_spi_ex.c **** /** @defgroup SPIEx_Exported_Functions_Group1 IO operation functions
  50:./Libraries/STM32H7xx_HAL_Driver/Src/stm32h7xx_hal_spi_ex.c ****   *  @brief   Data transfers functions
  51:./Libraries/STM32H7xx_HAL_Driver/Src/stm32h7xx_hal_spi_ex.c ****   *
  52:./Libraries/STM32H7xx_HAL_Driver/Src/stm32h7xx_hal_spi_ex.c **** @verbatim
  53:./Libraries/STM32H7xx_HAL_Driver/Src/stm32h7xx_hal_spi_ex.c ****   ==============================================================================
  54:./Libraries/STM32H7xx_HAL_Driver/Src/stm32h7xx_hal_spi_ex.c ****                       ##### IO operation functions #####
  55:./Libraries/STM32H7xx_HAL_Driver/Src/stm32h7xx_hal_spi_ex.c ****  ===============================================================================
  56:./Libraries/STM32H7xx_HAL_Driver/Src/stm32h7xx_hal_spi_ex.c ****  [..]
  57:./Libraries/STM32H7xx_HAL_Driver/Src/stm32h7xx_hal_spi_ex.c ****     This subsection provides a set of extended functions to manage the SPI
  58:./Libraries/STM32H7xx_HAL_Driver/Src/stm32h7xx_hal_spi_ex.c ****     data transfers.
  59:./Libraries/STM32H7xx_HAL_Driver/Src/stm32h7xx_hal_spi_ex.c **** 
  60:./Libraries/STM32H7xx_HAL_Driver/Src/stm32h7xx_hal_spi_ex.c ****     (#) SPIEx function:
  61:./Libraries/STM32H7xx_HAL_Driver/Src/stm32h7xx_hal_spi_ex.c ****         (++) HAL_SPIEx_FlushRxFifo()
  62:./Libraries/STM32H7xx_HAL_Driver/Src/stm32h7xx_hal_spi_ex.c ****         (++) HAL_SPIEx_FlushRxFifo()
  63:./Libraries/STM32H7xx_HAL_Driver/Src/stm32h7xx_hal_spi_ex.c ****         (++) HAL_SPIEx_EnableLockConfiguration()
  64:./Libraries/STM32H7xx_HAL_Driver/Src/stm32h7xx_hal_spi_ex.c ****         (++) HAL_SPIEx_ConfigureUnderrun()
  65:./Libraries/STM32H7xx_HAL_Driver/Src/stm32h7xx_hal_spi_ex.c **** 
  66:./Libraries/STM32H7xx_HAL_Driver/Src/stm32h7xx_hal_spi_ex.c **** @endverbatim
  67:./Libraries/STM32H7xx_HAL_Driver/Src/stm32h7xx_hal_spi_ex.c ****   * @{
  68:./Libraries/STM32H7xx_HAL_Driver/Src/stm32h7xx_hal_spi_ex.c ****   */
  69:./Libraries/STM32H7xx_HAL_Driver/Src/stm32h7xx_hal_spi_ex.c **** 
  70:./Libraries/STM32H7xx_HAL_Driver/Src/stm32h7xx_hal_spi_ex.c **** /**
  71:./Libraries/STM32H7xx_HAL_Driver/Src/stm32h7xx_hal_spi_ex.c ****   * @brief Flush the RX fifo.
  72:./Libraries/STM32H7xx_HAL_Driver/Src/stm32h7xx_hal_spi_ex.c ****   * @param  hspi: pointer to a SPI_HandleTypeDef structure that contains
  73:./Libraries/STM32H7xx_HAL_Driver/Src/stm32h7xx_hal_spi_ex.c ****   *               the configuration information for the specified SPI module.
  74:./Libraries/STM32H7xx_HAL_Driver/Src/stm32h7xx_hal_spi_ex.c ****   * @retval HAL status
  75:./Libraries/STM32H7xx_HAL_Driver/Src/stm32h7xx_hal_spi_ex.c ****   */
  76:./Libraries/STM32H7xx_HAL_Driver/Src/stm32h7xx_hal_spi_ex.c **** HAL_StatusTypeDef HAL_SPIEx_FlushRxFifo(SPI_HandleTypeDef *hspi)
  77:./Libraries/STM32H7xx_HAL_Driver/Src/stm32h7xx_hal_spi_ex.c **** {
  30              		.loc 1 77 1 view -0
  31              		.cfi_startproc
  32              		@ args = 0, pretend = 0, frame = 8
  33              		@ frame_needed = 0, uses_anonymous_args = 0
  34              		@ link register save eliminated.
  78:./Libraries/STM32H7xx_HAL_Driver/Src/stm32h7xx_hal_spi_ex.c ****   uint8_t  count  = 0;
  35              		.loc 1 78 3 view .LVU1
  79:./Libraries/STM32H7xx_HAL_Driver/Src/stm32h7xx_hal_spi_ex.c ****   uint32_t itflag = hspi->Instance->SR;
  36              		.loc 1 79 3 view .LVU2
ARM GAS  /tmp/cc4Y2K9y.s 			page 3


  37              		.loc 1 79 25 is_stmt 0 view .LVU3
  38 0000 0268     		ldr	r2, [r0]
  78:./Libraries/STM32H7xx_HAL_Driver/Src/stm32h7xx_hal_spi_ex.c ****   uint8_t  count  = 0;
  39              		.loc 1 78 12 view .LVU4
  40 0002 0023     		movs	r3, #0
  41              		.loc 1 79 12 view .LVU5
  42 0004 5169     		ldr	r1, [r2, #20]
  43              	.LVL1:
  80:./Libraries/STM32H7xx_HAL_Driver/Src/stm32h7xx_hal_spi_ex.c ****   __IO uint32_t tmpreg;
  44              		.loc 1 80 3 is_stmt 1 view .LVU6
  81:./Libraries/STM32H7xx_HAL_Driver/Src/stm32h7xx_hal_spi_ex.c **** 
  82:./Libraries/STM32H7xx_HAL_Driver/Src/stm32h7xx_hal_spi_ex.c ****   while (((hspi->Instance->SR & SPI_FLAG_FRLVL) !=  SPI_RX_FIFO_0PACKET) || ((itflag & SPI_FLAG_RXW
  45              		.loc 1 82 3 view .LVU7
  77:./Libraries/STM32H7xx_HAL_Driver/Src/stm32h7xx_hal_spi_ex.c ****   uint8_t  count  = 0;
  46              		.loc 1 77 1 is_stmt 0 view .LVU8
  47 0006 70B4     		push	{r4, r5, r6}
  48              	.LCFI0:
  49              		.cfi_def_cfa_offset 12
  50              		.cfi_offset 4, -12
  51              		.cfi_offset 5, -8
  52              		.cfi_offset 6, -4
  53 0008 01F40041 		and	r1, r1, #32768
  54              	.LVL2:
  77:./Libraries/STM32H7xx_HAL_Driver/Src/stm32h7xx_hal_spi_ex.c ****   uint8_t  count  = 0;
  55              		.loc 1 77 1 view .LVU9
  56 000c 83B0     		sub	sp, sp, #12
  57              	.LCFI1:
  58              		.cfi_def_cfa_offset 24
  83:./Libraries/STM32H7xx_HAL_Driver/Src/stm32h7xx_hal_spi_ex.c ****   {
  84:./Libraries/STM32H7xx_HAL_Driver/Src/stm32h7xx_hal_spi_ex.c ****     count += (uint8_t)4UL;
  85:./Libraries/STM32H7xx_HAL_Driver/Src/stm32h7xx_hal_spi_ex.c ****     tmpreg = hspi->Instance->RXDR;
  86:./Libraries/STM32H7xx_HAL_Driver/Src/stm32h7xx_hal_spi_ex.c ****     UNUSED(tmpreg); /* To avoid GCC warning */
  87:./Libraries/STM32H7xx_HAL_Driver/Src/stm32h7xx_hal_spi_ex.c **** 
  88:./Libraries/STM32H7xx_HAL_Driver/Src/stm32h7xx_hal_spi_ex.c ****     if (IS_SPI_HIGHEND_INSTANCE(hspi->Instance))
  59              		.loc 1 88 9 view .LVU10
  60 000e 0E4D     		ldr	r5, .L13
  61 0010 0E4C     		ldr	r4, .L13+4
  62 0012 0F4E     		ldr	r6, .L13+8
  63              	.LVL3:
  64              	.L10:
  84:./Libraries/STM32H7xx_HAL_Driver/Src/stm32h7xx_hal_spi_ex.c ****     tmpreg = hspi->Instance->RXDR;
  65              		.loc 1 84 5 is_stmt 1 view .LVU11
  89:./Libraries/STM32H7xx_HAL_Driver/Src/stm32h7xx_hal_spi_ex.c ****     {
  90:./Libraries/STM32H7xx_HAL_Driver/Src/stm32h7xx_hal_spi_ex.c ****       if (count > SPI_HIGHEND_FIFO_SIZE)
  66              		.loc 1 90 7 view .LVU12
  82:./Libraries/STM32H7xx_HAL_Driver/Src/stm32h7xx_hal_spi_ex.c ****   {
  67              		.loc 1 82 9 view .LVU13
  82:./Libraries/STM32H7xx_HAL_Driver/Src/stm32h7xx_hal_spi_ex.c ****   {
  68              		.loc 1 82 26 is_stmt 0 view .LVU14
  69 0014 5069     		ldr	r0, [r2, #20]
  84:./Libraries/STM32H7xx_HAL_Driver/Src/stm32h7xx_hal_spi_ex.c ****     tmpreg = hspi->Instance->RXDR;
  70              		.loc 1 84 11 view .LVU15
  71 0016 0433     		adds	r3, r3, #4
  72              	.LVL4:
  82:./Libraries/STM32H7xx_HAL_Driver/Src/stm32h7xx_hal_spi_ex.c ****   {
  73              		.loc 1 82 31 view .LVU16
  74 0018 00F4C040 		and	r0, r0, #24576
ARM GAS  /tmp/cc4Y2K9y.s 			page 4


  84:./Libraries/STM32H7xx_HAL_Driver/Src/stm32h7xx_hal_spi_ex.c ****     tmpreg = hspi->Instance->RXDR;
  75              		.loc 1 84 11 view .LVU17
  76 001c DBB2     		uxtb	r3, r3
  77              	.LVL5:
  85:./Libraries/STM32H7xx_HAL_Driver/Src/stm32h7xx_hal_spi_ex.c ****     UNUSED(tmpreg); /* To avoid GCC warning */
  78              		.loc 1 85 5 is_stmt 1 view .LVU18
  82:./Libraries/STM32H7xx_HAL_Driver/Src/stm32h7xx_hal_spi_ex.c ****   {
  79              		.loc 1 82 74 is_stmt 0 view .LVU19
  80 001e 0843     		orrs	r0, r0, r1
  81 0020 0BD0     		beq	.L5
  85:./Libraries/STM32H7xx_HAL_Driver/Src/stm32h7xx_hal_spi_ex.c ****     UNUSED(tmpreg); /* To avoid GCC warning */
  82              		.loc 1 85 28 view .LVU20
  83 0022 106B     		ldr	r0, [r2, #48]
  88:./Libraries/STM32H7xx_HAL_Driver/Src/stm32h7xx_hal_spi_ex.c ****     {
  84              		.loc 1 88 9 view .LVU21
  85 0024 A242     		cmp	r2, r4
  86 0026 18BF     		it	ne
  87 0028 AA42     		cmpne	r2, r5
  85:./Libraries/STM32H7xx_HAL_Driver/Src/stm32h7xx_hal_spi_ex.c ****     UNUSED(tmpreg); /* To avoid GCC warning */
  88              		.loc 1 85 12 view .LVU22
  89 002a 0190     		str	r0, [sp, #4]
  86:./Libraries/STM32H7xx_HAL_Driver/Src/stm32h7xx_hal_spi_ex.c **** 
  90              		.loc 1 86 5 is_stmt 1 view .LVU23
  91 002c 0198     		ldr	r0, [sp, #4]
  88:./Libraries/STM32H7xx_HAL_Driver/Src/stm32h7xx_hal_spi_ex.c ****     {
  92              		.loc 1 88 5 view .LVU24
  88:./Libraries/STM32H7xx_HAL_Driver/Src/stm32h7xx_hal_spi_ex.c ****     {
  93              		.loc 1 88 9 is_stmt 0 view .LVU25
  94 002e 07D0     		beq	.L9
  91:./Libraries/STM32H7xx_HAL_Driver/Src/stm32h7xx_hal_spi_ex.c ****       {
  92:./Libraries/STM32H7xx_HAL_Driver/Src/stm32h7xx_hal_spi_ex.c ****         return HAL_TIMEOUT;
  93:./Libraries/STM32H7xx_HAL_Driver/Src/stm32h7xx_hal_spi_ex.c ****       }
  94:./Libraries/STM32H7xx_HAL_Driver/Src/stm32h7xx_hal_spi_ex.c ****     }
  95:./Libraries/STM32H7xx_HAL_Driver/Src/stm32h7xx_hal_spi_ex.c ****     else
  96:./Libraries/STM32H7xx_HAL_Driver/Src/stm32h7xx_hal_spi_ex.c ****     {
  97:./Libraries/STM32H7xx_HAL_Driver/Src/stm32h7xx_hal_spi_ex.c ****       if (count > SPI_LOWEND_FIFO_SIZE)
  95              		.loc 1 97 7 is_stmt 1 view .LVU26
  88:./Libraries/STM32H7xx_HAL_Driver/Src/stm32h7xx_hal_spi_ex.c ****     {
  96              		.loc 1 88 9 is_stmt 0 view .LVU27
  97 0030 B242     		cmp	r2, r6
  98 0032 05D0     		beq	.L9
  99              		.loc 1 97 10 view .LVU28
 100 0034 082B     		cmp	r3, #8
 101 0036 EDD9     		bls	.L10
 102              	.L8:
  92:./Libraries/STM32H7xx_HAL_Driver/Src/stm32h7xx_hal_spi_ex.c ****       }
 103              		.loc 1 92 16 view .LVU29
 104 0038 0320     		movs	r0, #3
 105              	.L5:
  98:./Libraries/STM32H7xx_HAL_Driver/Src/stm32h7xx_hal_spi_ex.c ****       {
  99:./Libraries/STM32H7xx_HAL_Driver/Src/stm32h7xx_hal_spi_ex.c ****         return HAL_TIMEOUT;
 100:./Libraries/STM32H7xx_HAL_Driver/Src/stm32h7xx_hal_spi_ex.c ****       }
 101:./Libraries/STM32H7xx_HAL_Driver/Src/stm32h7xx_hal_spi_ex.c ****     }
 102:./Libraries/STM32H7xx_HAL_Driver/Src/stm32h7xx_hal_spi_ex.c ****   }
 103:./Libraries/STM32H7xx_HAL_Driver/Src/stm32h7xx_hal_spi_ex.c ****   return HAL_OK;
 104:./Libraries/STM32H7xx_HAL_Driver/Src/stm32h7xx_hal_spi_ex.c **** }
 106              		.loc 1 104 1 view .LVU30
ARM GAS  /tmp/cc4Y2K9y.s 			page 5


 107 003a 03B0     		add	sp, sp, #12
 108              	.LCFI2:
 109              		.cfi_remember_state
 110              		.cfi_def_cfa_offset 12
 111              		@ sp needed
 112 003c 70BC     		pop	{r4, r5, r6}
 113              	.LCFI3:
 114              		.cfi_restore 6
 115              		.cfi_restore 5
 116              		.cfi_restore 4
 117              		.cfi_def_cfa_offset 0
 118 003e 7047     		bx	lr
 119              	.L9:
 120              	.LCFI4:
 121              		.cfi_restore_state
  90:./Libraries/STM32H7xx_HAL_Driver/Src/stm32h7xx_hal_spi_ex.c ****       {
 122              		.loc 1 90 10 view .LVU31
 123 0040 102B     		cmp	r3, #16
 124 0042 E7D9     		bls	.L10
 125 0044 F8E7     		b	.L8
 126              	.L14:
 127 0046 00BF     		.align	2
 128              	.L13:
 129 0048 00300140 		.word	1073819648
 130 004c 00380040 		.word	1073756160
 131 0050 003C0040 		.word	1073757184
 132              		.cfi_endproc
 133              	.LFE331:
 135              		.section	.text.HAL_SPIEx_EnableLockConfiguration,"ax",%progbits
 136              		.align	1
 137              		.p2align 2,,3
 138              		.global	HAL_SPIEx_EnableLockConfiguration
 139              		.syntax unified
 140              		.thumb
 141              		.thumb_func
 142              		.fpu fpv5-d16
 144              	HAL_SPIEx_EnableLockConfiguration:
 145              	.LVL6:
 146              	.LFB332:
 105:./Libraries/STM32H7xx_HAL_Driver/Src/stm32h7xx_hal_spi_ex.c **** 
 106:./Libraries/STM32H7xx_HAL_Driver/Src/stm32h7xx_hal_spi_ex.c **** 
 107:./Libraries/STM32H7xx_HAL_Driver/Src/stm32h7xx_hal_spi_ex.c **** /**
 108:./Libraries/STM32H7xx_HAL_Driver/Src/stm32h7xx_hal_spi_ex.c ****   * @brief  Enable the Lock for the AF configuration of associated IOs
 109:./Libraries/STM32H7xx_HAL_Driver/Src/stm32h7xx_hal_spi_ex.c ****   *         and write protect the Content of Configuration register 2
 110:./Libraries/STM32H7xx_HAL_Driver/Src/stm32h7xx_hal_spi_ex.c ****   *         when SPI is enabled
 111:./Libraries/STM32H7xx_HAL_Driver/Src/stm32h7xx_hal_spi_ex.c ****   * @param  hspi: pointer to a SPI_HandleTypeDef structure that contains
 112:./Libraries/STM32H7xx_HAL_Driver/Src/stm32h7xx_hal_spi_ex.c ****   *               the configuration information for SPI module.
 113:./Libraries/STM32H7xx_HAL_Driver/Src/stm32h7xx_hal_spi_ex.c ****   * @retval None
 114:./Libraries/STM32H7xx_HAL_Driver/Src/stm32h7xx_hal_spi_ex.c ****   */
 115:./Libraries/STM32H7xx_HAL_Driver/Src/stm32h7xx_hal_spi_ex.c **** HAL_StatusTypeDef HAL_SPIEx_EnableLockConfiguration(SPI_HandleTypeDef *hspi)
 116:./Libraries/STM32H7xx_HAL_Driver/Src/stm32h7xx_hal_spi_ex.c **** {
 147              		.loc 1 116 1 is_stmt 1 view -0
 148              		.cfi_startproc
 149              		@ args = 0, pretend = 0, frame = 0
 150              		@ frame_needed = 0, uses_anonymous_args = 0
 151              		@ link register save eliminated.
 117:./Libraries/STM32H7xx_HAL_Driver/Src/stm32h7xx_hal_spi_ex.c ****   HAL_StatusTypeDef errorcode = HAL_OK;
ARM GAS  /tmp/cc4Y2K9y.s 			page 6


 152              		.loc 1 117 3 view .LVU33
 118:./Libraries/STM32H7xx_HAL_Driver/Src/stm32h7xx_hal_spi_ex.c **** 
 119:./Libraries/STM32H7xx_HAL_Driver/Src/stm32h7xx_hal_spi_ex.c ****   /* Process Locked */
 120:./Libraries/STM32H7xx_HAL_Driver/Src/stm32h7xx_hal_spi_ex.c ****   __HAL_LOCK(hspi);
 153              		.loc 1 120 3 view .LVU34
 154              		.loc 1 120 3 view .LVU35
 155 0000 90F88020 		ldrb	r2, [r0, #128]	@ zero_extendqisi2
 116:./Libraries/STM32H7xx_HAL_Driver/Src/stm32h7xx_hal_spi_ex.c ****   HAL_StatusTypeDef errorcode = HAL_OK;
 156              		.loc 1 116 1 is_stmt 0 view .LVU36
 157 0004 0346     		mov	r3, r0
 158              		.loc 1 120 3 view .LVU37
 159 0006 012A     		cmp	r2, #1
 160 0008 2AD0     		beq	.L20
 161              		.loc 1 120 3 is_stmt 1 discriminator 2 view .LVU38
 162 000a 0122     		movs	r2, #1
 121:./Libraries/STM32H7xx_HAL_Driver/Src/stm32h7xx_hal_spi_ex.c **** 
 122:./Libraries/STM32H7xx_HAL_Driver/Src/stm32h7xx_hal_spi_ex.c ****   if (hspi->State != HAL_SPI_STATE_READY)
 163              		.loc 1 122 11 is_stmt 0 discriminator 2 view .LVU39
 164 000c 90F88110 		ldrb	r1, [r0, #129]	@ zero_extendqisi2
 165              		.loc 1 122 6 discriminator 2 view .LVU40
 166 0010 9142     		cmp	r1, r2
 120:./Libraries/STM32H7xx_HAL_Driver/Src/stm32h7xx_hal_spi_ex.c **** 
 167              		.loc 1 120 3 discriminator 2 view .LVU41
 168 0012 80F88020 		strb	r2, [r0, #128]
 120:./Libraries/STM32H7xx_HAL_Driver/Src/stm32h7xx_hal_spi_ex.c **** 
 169              		.loc 1 120 3 is_stmt 1 discriminator 2 view .LVU42
 170              		.loc 1 122 3 discriminator 2 view .LVU43
 171              		.loc 1 122 6 is_stmt 0 discriminator 2 view .LVU44
 172 0016 1CD1     		bne	.L21
 123:./Libraries/STM32H7xx_HAL_Driver/Src/stm32h7xx_hal_spi_ex.c ****   {
 124:./Libraries/STM32H7xx_HAL_Driver/Src/stm32h7xx_hal_spi_ex.c ****     errorcode = HAL_BUSY;
 125:./Libraries/STM32H7xx_HAL_Driver/Src/stm32h7xx_hal_spi_ex.c ****     hspi->State = HAL_SPI_STATE_READY;
 126:./Libraries/STM32H7xx_HAL_Driver/Src/stm32h7xx_hal_spi_ex.c ****     /* Process Unlocked */
 127:./Libraries/STM32H7xx_HAL_Driver/Src/stm32h7xx_hal_spi_ex.c ****     __HAL_UNLOCK(hspi);
 128:./Libraries/STM32H7xx_HAL_Driver/Src/stm32h7xx_hal_spi_ex.c ****     return errorcode;
 129:./Libraries/STM32H7xx_HAL_Driver/Src/stm32h7xx_hal_spi_ex.c ****   }
 130:./Libraries/STM32H7xx_HAL_Driver/Src/stm32h7xx_hal_spi_ex.c **** 
 131:./Libraries/STM32H7xx_HAL_Driver/Src/stm32h7xx_hal_spi_ex.c ****   /* Check if the SPI is disabled to edit IOLOCK bit */
 132:./Libraries/STM32H7xx_HAL_Driver/Src/stm32h7xx_hal_spi_ex.c ****   if ((hspi->Instance->CR1 & SPI_CR1_SPE) != SPI_CR1_SPE)
 173              		.loc 1 132 3 is_stmt 1 view .LVU45
 174              		.loc 1 132 12 is_stmt 0 view .LVU46
 175 0018 0268     		ldr	r2, [r0]
 176              		.loc 1 132 22 view .LVU47
 177 001a 1168     		ldr	r1, [r2]
 178              		.loc 1 132 6 view .LVU48
 179 001c 11F0010F 		tst	r1, #1
 133:./Libraries/STM32H7xx_HAL_Driver/Src/stm32h7xx_hal_spi_ex.c ****   {
 134:./Libraries/STM32H7xx_HAL_Driver/Src/stm32h7xx_hal_spi_ex.c ****     SET_BIT(hspi->Instance->CR1, SPI_CR1_IOLOCK);
 180              		.loc 1 134 5 view .LVU49
 181 0020 1168     		ldr	r1, [r2]
 132:./Libraries/STM32H7xx_HAL_Driver/Src/stm32h7xx_hal_spi_ex.c ****   {
 182              		.loc 1 132 6 view .LVU50
 183 0022 12D0     		beq	.L22
 135:./Libraries/STM32H7xx_HAL_Driver/Src/stm32h7xx_hal_spi_ex.c ****   }
 136:./Libraries/STM32H7xx_HAL_Driver/Src/stm32h7xx_hal_spi_ex.c ****   else
 137:./Libraries/STM32H7xx_HAL_Driver/Src/stm32h7xx_hal_spi_ex.c ****   {
 138:./Libraries/STM32H7xx_HAL_Driver/Src/stm32h7xx_hal_spi_ex.c ****     /* Disable SPI peripheral */
ARM GAS  /tmp/cc4Y2K9y.s 			page 7


 139:./Libraries/STM32H7xx_HAL_Driver/Src/stm32h7xx_hal_spi_ex.c ****     __HAL_SPI_DISABLE(hspi);
 184              		.loc 1 139 5 is_stmt 1 view .LVU51
 185 0024 21F00101 		bic	r1, r1, #1
 186 0028 1160     		str	r1, [r2]
 140:./Libraries/STM32H7xx_HAL_Driver/Src/stm32h7xx_hal_spi_ex.c **** 
 141:./Libraries/STM32H7xx_HAL_Driver/Src/stm32h7xx_hal_spi_ex.c ****     SET_BIT(hspi->Instance->CR1, SPI_CR1_IOLOCK);
 187              		.loc 1 141 5 view .LVU52
 188 002a 1168     		ldr	r1, [r2]
 189 002c 41F48031 		orr	r1, r1, #65536
 190 0030 1160     		str	r1, [r2]
 142:./Libraries/STM32H7xx_HAL_Driver/Src/stm32h7xx_hal_spi_ex.c **** 
 143:./Libraries/STM32H7xx_HAL_Driver/Src/stm32h7xx_hal_spi_ex.c ****     /* Enable SPI peripheral */
 144:./Libraries/STM32H7xx_HAL_Driver/Src/stm32h7xx_hal_spi_ex.c ****     __HAL_SPI_ENABLE(hspi);
 191              		.loc 1 144 5 view .LVU53
 192 0032 1168     		ldr	r1, [r2]
 193 0034 41F00101 		orr	r1, r1, #1
 194 0038 1160     		str	r1, [r2]
 195              	.L19:
 145:./Libraries/STM32H7xx_HAL_Driver/Src/stm32h7xx_hal_spi_ex.c ****   }
 146:./Libraries/STM32H7xx_HAL_Driver/Src/stm32h7xx_hal_spi_ex.c **** 
 147:./Libraries/STM32H7xx_HAL_Driver/Src/stm32h7xx_hal_spi_ex.c ****   hspi->State = HAL_SPI_STATE_READY;
 196              		.loc 1 147 3 view .LVU54
 148:./Libraries/STM32H7xx_HAL_Driver/Src/stm32h7xx_hal_spi_ex.c ****   /* Process Unlocked */
 149:./Libraries/STM32H7xx_HAL_Driver/Src/stm32h7xx_hal_spi_ex.c ****   __HAL_UNLOCK(hspi);
 197              		.loc 1 149 3 is_stmt 0 view .LVU55
 198 003a 0022     		movs	r2, #0
 147:./Libraries/STM32H7xx_HAL_Driver/Src/stm32h7xx_hal_spi_ex.c ****   /* Process Unlocked */
 199              		.loc 1 147 15 view .LVU56
 200 003c 0121     		movs	r1, #1
 150:./Libraries/STM32H7xx_HAL_Driver/Src/stm32h7xx_hal_spi_ex.c ****   return errorcode;
 201              		.loc 1 150 10 view .LVU57
 202 003e 1046     		mov	r0, r2
 203              	.LVL7:
 147:./Libraries/STM32H7xx_HAL_Driver/Src/stm32h7xx_hal_spi_ex.c ****   /* Process Unlocked */
 204              		.loc 1 147 15 view .LVU58
 205 0040 83F88110 		strb	r1, [r3, #129]
 149:./Libraries/STM32H7xx_HAL_Driver/Src/stm32h7xx_hal_spi_ex.c ****   return errorcode;
 206              		.loc 1 149 3 is_stmt 1 view .LVU59
 149:./Libraries/STM32H7xx_HAL_Driver/Src/stm32h7xx_hal_spi_ex.c ****   return errorcode;
 207              		.loc 1 149 3 view .LVU60
 208 0044 83F88020 		strb	r2, [r3, #128]
 149:./Libraries/STM32H7xx_HAL_Driver/Src/stm32h7xx_hal_spi_ex.c ****   return errorcode;
 209              		.loc 1 149 3 view .LVU61
 210              		.loc 1 150 3 view .LVU62
 211              		.loc 1 150 10 is_stmt 0 view .LVU63
 212 0048 7047     		bx	lr
 213              	.LVL8:
 214              	.L22:
 134:./Libraries/STM32H7xx_HAL_Driver/Src/stm32h7xx_hal_spi_ex.c ****   }
 215              		.loc 1 134 5 is_stmt 1 view .LVU64
 216 004a 41F48031 		orr	r1, r1, #65536
 217 004e 1160     		str	r1, [r2]
 218 0050 F3E7     		b	.L19
 219              	.L21:
 124:./Libraries/STM32H7xx_HAL_Driver/Src/stm32h7xx_hal_spi_ex.c ****     hspi->State = HAL_SPI_STATE_READY;
 220              		.loc 1 124 5 view .LVU65
 221              	.LVL9:
ARM GAS  /tmp/cc4Y2K9y.s 			page 8


 125:./Libraries/STM32H7xx_HAL_Driver/Src/stm32h7xx_hal_spi_ex.c ****     /* Process Unlocked */
 222              		.loc 1 125 5 view .LVU66
 127:./Libraries/STM32H7xx_HAL_Driver/Src/stm32h7xx_hal_spi_ex.c ****     return errorcode;
 223              		.loc 1 127 5 is_stmt 0 view .LVU67
 224 0052 0021     		movs	r1, #0
 125:./Libraries/STM32H7xx_HAL_Driver/Src/stm32h7xx_hal_spi_ex.c ****     /* Process Unlocked */
 225              		.loc 1 125 17 view .LVU68
 226 0054 80F88120 		strb	r2, [r0, #129]
 127:./Libraries/STM32H7xx_HAL_Driver/Src/stm32h7xx_hal_spi_ex.c ****     return errorcode;
 227              		.loc 1 127 5 is_stmt 1 view .LVU69
 127:./Libraries/STM32H7xx_HAL_Driver/Src/stm32h7xx_hal_spi_ex.c ****     return errorcode;
 228              		.loc 1 127 5 view .LVU70
 128:./Libraries/STM32H7xx_HAL_Driver/Src/stm32h7xx_hal_spi_ex.c ****   }
 229              		.loc 1 128 12 is_stmt 0 view .LVU71
 230 0058 0220     		movs	r0, #2
 231              	.LVL10:
 127:./Libraries/STM32H7xx_HAL_Driver/Src/stm32h7xx_hal_spi_ex.c ****     return errorcode;
 232              		.loc 1 127 5 view .LVU72
 233 005a 83F88010 		strb	r1, [r3, #128]
 127:./Libraries/STM32H7xx_HAL_Driver/Src/stm32h7xx_hal_spi_ex.c ****     return errorcode;
 234              		.loc 1 127 5 is_stmt 1 view .LVU73
 128:./Libraries/STM32H7xx_HAL_Driver/Src/stm32h7xx_hal_spi_ex.c ****   }
 235              		.loc 1 128 5 view .LVU74
 128:./Libraries/STM32H7xx_HAL_Driver/Src/stm32h7xx_hal_spi_ex.c ****   }
 236              		.loc 1 128 12 is_stmt 0 view .LVU75
 237 005e 7047     		bx	lr
 238              	.LVL11:
 239              	.L20:
 120:./Libraries/STM32H7xx_HAL_Driver/Src/stm32h7xx_hal_spi_ex.c **** 
 240              		.loc 1 120 3 view .LVU76
 241 0060 0220     		movs	r0, #2
 242              	.LVL12:
 151:./Libraries/STM32H7xx_HAL_Driver/Src/stm32h7xx_hal_spi_ex.c **** }
 243              		.loc 1 151 1 view .LVU77
 244 0062 7047     		bx	lr
 245              		.cfi_endproc
 246              	.LFE332:
 248              		.section	.text.HAL_SPIEx_ConfigureUnderrun,"ax",%progbits
 249              		.align	1
 250              		.p2align 2,,3
 251              		.global	HAL_SPIEx_ConfigureUnderrun
 252              		.syntax unified
 253              		.thumb
 254              		.thumb_func
 255              		.fpu fpv5-d16
 257              	HAL_SPIEx_ConfigureUnderrun:
 258              	.LVL13:
 259              	.LFB333:
 152:./Libraries/STM32H7xx_HAL_Driver/Src/stm32h7xx_hal_spi_ex.c **** 
 153:./Libraries/STM32H7xx_HAL_Driver/Src/stm32h7xx_hal_spi_ex.c **** /**
 154:./Libraries/STM32H7xx_HAL_Driver/Src/stm32h7xx_hal_spi_ex.c ****   * @brief  Configure the UNDERRUN condition and behavior of slave transmitter.
 155:./Libraries/STM32H7xx_HAL_Driver/Src/stm32h7xx_hal_spi_ex.c ****   * @param  hspi: pointer to a SPI_HandleTypeDef structure that contains
 156:./Libraries/STM32H7xx_HAL_Driver/Src/stm32h7xx_hal_spi_ex.c ****   *               the configuration information for SPI module.
 157:./Libraries/STM32H7xx_HAL_Driver/Src/stm32h7xx_hal_spi_ex.c ****   * @param  UnderrunDetection : Detection of underrun condition at slave transmitter
 158:./Libraries/STM32H7xx_HAL_Driver/Src/stm32h7xx_hal_spi_ex.c ****   *                             This parameter can be a value of @ref SPI_Underrun_Detection.
 159:./Libraries/STM32H7xx_HAL_Driver/Src/stm32h7xx_hal_spi_ex.c ****   * @param  UnderrunBehaviour : Behavior of slave transmitter at underrun condition
 160:./Libraries/STM32H7xx_HAL_Driver/Src/stm32h7xx_hal_spi_ex.c ****   *                             This parameter can be a value of @ref SPI_Underrun_Behaviour.
ARM GAS  /tmp/cc4Y2K9y.s 			page 9


 161:./Libraries/STM32H7xx_HAL_Driver/Src/stm32h7xx_hal_spi_ex.c ****   * @retval None
 162:./Libraries/STM32H7xx_HAL_Driver/Src/stm32h7xx_hal_spi_ex.c ****   */
 163:./Libraries/STM32H7xx_HAL_Driver/Src/stm32h7xx_hal_spi_ex.c **** HAL_StatusTypeDef HAL_SPIEx_ConfigureUnderrun(SPI_HandleTypeDef *hspi, uint32_t UnderrunDetection, 
 164:./Libraries/STM32H7xx_HAL_Driver/Src/stm32h7xx_hal_spi_ex.c **** {
 260              		.loc 1 164 1 is_stmt 1 view -0
 261              		.cfi_startproc
 262              		@ args = 0, pretend = 0, frame = 0
 263              		@ frame_needed = 0, uses_anonymous_args = 0
 264              		@ link register save eliminated.
 165:./Libraries/STM32H7xx_HAL_Driver/Src/stm32h7xx_hal_spi_ex.c ****   HAL_StatusTypeDef errorcode = HAL_OK;
 265              		.loc 1 165 3 view .LVU79
 166:./Libraries/STM32H7xx_HAL_Driver/Src/stm32h7xx_hal_spi_ex.c **** 
 167:./Libraries/STM32H7xx_HAL_Driver/Src/stm32h7xx_hal_spi_ex.c ****   /* Process Locked */
 168:./Libraries/STM32H7xx_HAL_Driver/Src/stm32h7xx_hal_spi_ex.c ****   __HAL_LOCK(hspi);
 266              		.loc 1 168 3 view .LVU80
 267              		.loc 1 168 3 view .LVU81
 164:./Libraries/STM32H7xx_HAL_Driver/Src/stm32h7xx_hal_spi_ex.c ****   HAL_StatusTypeDef errorcode = HAL_OK;
 268              		.loc 1 164 1 is_stmt 0 view .LVU82
 269 0000 0346     		mov	r3, r0
 270              		.loc 1 168 3 view .LVU83
 271 0002 90F88000 		ldrb	r0, [r0, #128]	@ zero_extendqisi2
 272              	.LVL14:
 273              		.loc 1 168 3 view .LVU84
 274 0006 0128     		cmp	r0, #1
 275 0008 3ED0     		beq	.L29
 276              		.loc 1 168 3 is_stmt 1 discriminator 2 view .LVU85
 164:./Libraries/STM32H7xx_HAL_Driver/Src/stm32h7xx_hal_spi_ex.c ****   HAL_StatusTypeDef errorcode = HAL_OK;
 277              		.loc 1 164 1 is_stmt 0 discriminator 2 view .LVU86
 278 000a 10B4     		push	{r4}
 279              	.LCFI5:
 280              		.cfi_def_cfa_offset 4
 281              		.cfi_offset 4, -4
 282              		.loc 1 168 3 discriminator 2 view .LVU87
 283 000c 0124     		movs	r4, #1
 169:./Libraries/STM32H7xx_HAL_Driver/Src/stm32h7xx_hal_spi_ex.c **** 
 170:./Libraries/STM32H7xx_HAL_Driver/Src/stm32h7xx_hal_spi_ex.c ****   /* Check State and Insure that Underrun configuration is managed only by Salve */
 171:./Libraries/STM32H7xx_HAL_Driver/Src/stm32h7xx_hal_spi_ex.c ****   if ((hspi->State != HAL_SPI_STATE_READY) || (hspi->Init.Mode != SPI_MODE_SLAVE))
 284              		.loc 1 171 12 discriminator 2 view .LVU88
 285 000e 93F88100 		ldrb	r0, [r3, #129]	@ zero_extendqisi2
 286              		.loc 1 171 6 discriminator 2 view .LVU89
 287 0012 A042     		cmp	r0, r4
 168:./Libraries/STM32H7xx_HAL_Driver/Src/stm32h7xx_hal_spi_ex.c **** 
 288              		.loc 1 168 3 discriminator 2 view .LVU90
 289 0014 83F88040 		strb	r4, [r3, #128]
 168:./Libraries/STM32H7xx_HAL_Driver/Src/stm32h7xx_hal_spi_ex.c **** 
 290              		.loc 1 168 3 is_stmt 1 discriminator 2 view .LVU91
 291              		.loc 1 171 3 discriminator 2 view .LVU92
 292              		.loc 1 171 6 is_stmt 0 discriminator 2 view .LVU93
 293 0018 19D1     		bne	.L25
 294              		.loc 1 171 44 discriminator 1 view .LVU94
 295 001a 5868     		ldr	r0, [r3, #4]
 296 001c B8B9     		cbnz	r0, .L25
 172:./Libraries/STM32H7xx_HAL_Driver/Src/stm32h7xx_hal_spi_ex.c ****   {
 173:./Libraries/STM32H7xx_HAL_Driver/Src/stm32h7xx_hal_spi_ex.c ****     errorcode = HAL_BUSY;
 174:./Libraries/STM32H7xx_HAL_Driver/Src/stm32h7xx_hal_spi_ex.c ****     hspi->State = HAL_SPI_STATE_READY;
 175:./Libraries/STM32H7xx_HAL_Driver/Src/stm32h7xx_hal_spi_ex.c ****     /* Process Unlocked */
 176:./Libraries/STM32H7xx_HAL_Driver/Src/stm32h7xx_hal_spi_ex.c ****     __HAL_UNLOCK(hspi);
ARM GAS  /tmp/cc4Y2K9y.s 			page 10


 177:./Libraries/STM32H7xx_HAL_Driver/Src/stm32h7xx_hal_spi_ex.c ****     return errorcode;
 178:./Libraries/STM32H7xx_HAL_Driver/Src/stm32h7xx_hal_spi_ex.c ****   }
 179:./Libraries/STM32H7xx_HAL_Driver/Src/stm32h7xx_hal_spi_ex.c **** 
 180:./Libraries/STM32H7xx_HAL_Driver/Src/stm32h7xx_hal_spi_ex.c ****   /* Check the parameters */
 181:./Libraries/STM32H7xx_HAL_Driver/Src/stm32h7xx_hal_spi_ex.c ****   assert_param(IS_SPI_UNDERRUN_DETECTION(UnderrunDetection));
 297              		.loc 1 181 3 is_stmt 1 view .LVU95
 182:./Libraries/STM32H7xx_HAL_Driver/Src/stm32h7xx_hal_spi_ex.c ****   assert_param(IS_SPI_UNDERRUN_BEHAVIOUR(UnderrunBehaviour));
 298              		.loc 1 182 3 view .LVU96
 183:./Libraries/STM32H7xx_HAL_Driver/Src/stm32h7xx_hal_spi_ex.c **** 
 184:./Libraries/STM32H7xx_HAL_Driver/Src/stm32h7xx_hal_spi_ex.c ****   /* Check if the SPI is disabled to edit CFG1 register */
 185:./Libraries/STM32H7xx_HAL_Driver/Src/stm32h7xx_hal_spi_ex.c ****   if ((hspi->Instance->CR1 & SPI_CR1_SPE) != SPI_CR1_SPE)
 299              		.loc 1 185 3 view .LVU97
 300              		.loc 1 185 12 is_stmt 0 view .LVU98
 301 001e 1868     		ldr	r0, [r3]
 302              		.loc 1 185 22 view .LVU99
 303 0020 0468     		ldr	r4, [r0]
 304              		.loc 1 185 6 view .LVU100
 305 0022 E407     		lsls	r4, r4, #31
 306 0024 1DD4     		bmi	.L27
 186:./Libraries/STM32H7xx_HAL_Driver/Src/stm32h7xx_hal_spi_ex.c ****   {
 187:./Libraries/STM32H7xx_HAL_Driver/Src/stm32h7xx_hal_spi_ex.c ****     /* Configure Underrun fields */
 188:./Libraries/STM32H7xx_HAL_Driver/Src/stm32h7xx_hal_spi_ex.c ****     MODIFY_REG(hspi->Instance->CFG1, SPI_CFG1_UDRDET, UnderrunDetection);
 307              		.loc 1 188 5 is_stmt 1 view .LVU101
 308 0026 8468     		ldr	r4, [r0, #8]
 309 0028 24F4C054 		bic	r4, r4, #6144
 310 002c 2143     		orrs	r1, r1, r4
 311              	.LVL15:
 312              		.loc 1 188 5 is_stmt 0 view .LVU102
 313 002e 8160     		str	r1, [r0, #8]
 189:./Libraries/STM32H7xx_HAL_Driver/Src/stm32h7xx_hal_spi_ex.c ****     MODIFY_REG(hspi->Instance->CFG1, SPI_CFG1_UDRCFG, UnderrunBehaviour);
 314              		.loc 1 189 5 is_stmt 1 view .LVU103
 315 0030 8168     		ldr	r1, [r0, #8]
 316 0032 21F4C061 		bic	r1, r1, #1536
 317 0036 0A43     		orrs	r2, r2, r1
 318              	.LVL16:
 319              		.loc 1 189 5 is_stmt 0 view .LVU104
 320 0038 8260     		str	r2, [r0, #8]
 321              	.L28:
 190:./Libraries/STM32H7xx_HAL_Driver/Src/stm32h7xx_hal_spi_ex.c ****   }
 191:./Libraries/STM32H7xx_HAL_Driver/Src/stm32h7xx_hal_spi_ex.c ****   else
 192:./Libraries/STM32H7xx_HAL_Driver/Src/stm32h7xx_hal_spi_ex.c ****   {
 193:./Libraries/STM32H7xx_HAL_Driver/Src/stm32h7xx_hal_spi_ex.c ****     /* Disable SPI peripheral */
 194:./Libraries/STM32H7xx_HAL_Driver/Src/stm32h7xx_hal_spi_ex.c ****     __HAL_SPI_DISABLE(hspi);
 195:./Libraries/STM32H7xx_HAL_Driver/Src/stm32h7xx_hal_spi_ex.c **** 
 196:./Libraries/STM32H7xx_HAL_Driver/Src/stm32h7xx_hal_spi_ex.c ****     /* Configure Underrun fields */
 197:./Libraries/STM32H7xx_HAL_Driver/Src/stm32h7xx_hal_spi_ex.c ****     MODIFY_REG(hspi->Instance->CFG1, SPI_CFG1_UDRDET, UnderrunDetection);
 198:./Libraries/STM32H7xx_HAL_Driver/Src/stm32h7xx_hal_spi_ex.c ****     MODIFY_REG(hspi->Instance->CFG1, SPI_CFG1_UDRCFG, UnderrunBehaviour);
 199:./Libraries/STM32H7xx_HAL_Driver/Src/stm32h7xx_hal_spi_ex.c **** 
 200:./Libraries/STM32H7xx_HAL_Driver/Src/stm32h7xx_hal_spi_ex.c ****     /* Enable SPI peripheral */
 201:./Libraries/STM32H7xx_HAL_Driver/Src/stm32h7xx_hal_spi_ex.c ****     __HAL_SPI_ENABLE(hspi);
 202:./Libraries/STM32H7xx_HAL_Driver/Src/stm32h7xx_hal_spi_ex.c ****   }
 203:./Libraries/STM32H7xx_HAL_Driver/Src/stm32h7xx_hal_spi_ex.c **** 
 204:./Libraries/STM32H7xx_HAL_Driver/Src/stm32h7xx_hal_spi_ex.c **** 
 205:./Libraries/STM32H7xx_HAL_Driver/Src/stm32h7xx_hal_spi_ex.c ****   hspi->State = HAL_SPI_STATE_READY;
 322              		.loc 1 205 3 is_stmt 1 view .LVU105
 206:./Libraries/STM32H7xx_HAL_Driver/Src/stm32h7xx_hal_spi_ex.c ****   /* Process Unlocked */
 207:./Libraries/STM32H7xx_HAL_Driver/Src/stm32h7xx_hal_spi_ex.c ****   __HAL_UNLOCK(hspi);
ARM GAS  /tmp/cc4Y2K9y.s 			page 11


 323              		.loc 1 207 3 is_stmt 0 view .LVU106
 324 003a 0022     		movs	r2, #0
 205:./Libraries/STM32H7xx_HAL_Driver/Src/stm32h7xx_hal_spi_ex.c ****   /* Process Unlocked */
 325              		.loc 1 205 15 view .LVU107
 326 003c 0121     		movs	r1, #1
 327              		.loc 1 207 3 view .LVU108
 328 003e 83F88020 		strb	r2, [r3, #128]
 208:./Libraries/STM32H7xx_HAL_Driver/Src/stm32h7xx_hal_spi_ex.c ****   return errorcode;
 329              		.loc 1 208 10 view .LVU109
 330 0042 1046     		mov	r0, r2
 205:./Libraries/STM32H7xx_HAL_Driver/Src/stm32h7xx_hal_spi_ex.c ****   /* Process Unlocked */
 331              		.loc 1 205 15 view .LVU110
 332 0044 83F88110 		strb	r1, [r3, #129]
 207:./Libraries/STM32H7xx_HAL_Driver/Src/stm32h7xx_hal_spi_ex.c ****   return errorcode;
 333              		.loc 1 207 3 is_stmt 1 view .LVU111
 207:./Libraries/STM32H7xx_HAL_Driver/Src/stm32h7xx_hal_spi_ex.c ****   return errorcode;
 334              		.loc 1 207 3 view .LVU112
 207:./Libraries/STM32H7xx_HAL_Driver/Src/stm32h7xx_hal_spi_ex.c ****   return errorcode;
 335              		.loc 1 207 3 view .LVU113
 336              		.loc 1 208 3 view .LVU114
 209:./Libraries/STM32H7xx_HAL_Driver/Src/stm32h7xx_hal_spi_ex.c **** }
 337              		.loc 1 209 1 is_stmt 0 view .LVU115
 338 0048 5DF8044B 		ldr	r4, [sp], #4
 339              	.LCFI6:
 340              		.cfi_remember_state
 341              		.cfi_restore 4
 342              		.cfi_def_cfa_offset 0
 343 004c 7047     		bx	lr
 344              	.LVL17:
 345              	.L25:
 346              	.LCFI7:
 347              		.cfi_restore_state
 173:./Libraries/STM32H7xx_HAL_Driver/Src/stm32h7xx_hal_spi_ex.c ****     hspi->State = HAL_SPI_STATE_READY;
 348              		.loc 1 173 5 is_stmt 1 view .LVU116
 174:./Libraries/STM32H7xx_HAL_Driver/Src/stm32h7xx_hal_spi_ex.c ****     /* Process Unlocked */
 349              		.loc 1 174 5 view .LVU117
 174:./Libraries/STM32H7xx_HAL_Driver/Src/stm32h7xx_hal_spi_ex.c ****     /* Process Unlocked */
 350              		.loc 1 174 17 is_stmt 0 view .LVU118
 351 004e 0121     		movs	r1, #1
 352              	.LVL18:
 176:./Libraries/STM32H7xx_HAL_Driver/Src/stm32h7xx_hal_spi_ex.c ****     return errorcode;
 353              		.loc 1 176 5 view .LVU119
 354 0050 0022     		movs	r2, #0
 355              	.LVL19:
 177:./Libraries/STM32H7xx_HAL_Driver/Src/stm32h7xx_hal_spi_ex.c ****   }
 356              		.loc 1 177 12 view .LVU120
 357 0052 0220     		movs	r0, #2
 174:./Libraries/STM32H7xx_HAL_Driver/Src/stm32h7xx_hal_spi_ex.c ****     /* Process Unlocked */
 358              		.loc 1 174 17 view .LVU121
 359 0054 83F88110 		strb	r1, [r3, #129]
 176:./Libraries/STM32H7xx_HAL_Driver/Src/stm32h7xx_hal_spi_ex.c ****     return errorcode;
 360              		.loc 1 176 5 is_stmt 1 view .LVU122
 176:./Libraries/STM32H7xx_HAL_Driver/Src/stm32h7xx_hal_spi_ex.c ****     return errorcode;
 361              		.loc 1 176 5 view .LVU123
 362 0058 83F88020 		strb	r2, [r3, #128]
 176:./Libraries/STM32H7xx_HAL_Driver/Src/stm32h7xx_hal_spi_ex.c ****     return errorcode;
 363              		.loc 1 176 5 view .LVU124
ARM GAS  /tmp/cc4Y2K9y.s 			page 12


 177:./Libraries/STM32H7xx_HAL_Driver/Src/stm32h7xx_hal_spi_ex.c ****   }
 364              		.loc 1 177 5 view .LVU125
 365              		.loc 1 209 1 is_stmt 0 view .LVU126
 366 005c 5DF8044B 		ldr	r4, [sp], #4
 367              	.LCFI8:
 368              		.cfi_remember_state
 369              		.cfi_restore 4
 370              		.cfi_def_cfa_offset 0
 371 0060 7047     		bx	lr
 372              	.LVL20:
 373              	.L27:
 374              	.LCFI9:
 375              		.cfi_restore_state
 194:./Libraries/STM32H7xx_HAL_Driver/Src/stm32h7xx_hal_spi_ex.c **** 
 376              		.loc 1 194 5 is_stmt 1 view .LVU127
 377 0062 0468     		ldr	r4, [r0]
 378 0064 24F00104 		bic	r4, r4, #1
 379 0068 0460     		str	r4, [r0]
 197:./Libraries/STM32H7xx_HAL_Driver/Src/stm32h7xx_hal_spi_ex.c ****     MODIFY_REG(hspi->Instance->CFG1, SPI_CFG1_UDRCFG, UnderrunBehaviour);
 380              		.loc 1 197 5 view .LVU128
 381 006a 8468     		ldr	r4, [r0, #8]
 382 006c 24F4C054 		bic	r4, r4, #6144
 383 0070 2143     		orrs	r1, r1, r4
 384              	.LVL21:
 197:./Libraries/STM32H7xx_HAL_Driver/Src/stm32h7xx_hal_spi_ex.c ****     MODIFY_REG(hspi->Instance->CFG1, SPI_CFG1_UDRCFG, UnderrunBehaviour);
 385              		.loc 1 197 5 is_stmt 0 view .LVU129
 386 0072 8160     		str	r1, [r0, #8]
 198:./Libraries/STM32H7xx_HAL_Driver/Src/stm32h7xx_hal_spi_ex.c **** 
 387              		.loc 1 198 5 is_stmt 1 view .LVU130
 388 0074 8168     		ldr	r1, [r0, #8]
 389 0076 21F4C061 		bic	r1, r1, #1536
 390 007a 0A43     		orrs	r2, r2, r1
 391              	.LVL22:
 198:./Libraries/STM32H7xx_HAL_Driver/Src/stm32h7xx_hal_spi_ex.c **** 
 392              		.loc 1 198 5 is_stmt 0 view .LVU131
 393 007c 8260     		str	r2, [r0, #8]
 201:./Libraries/STM32H7xx_HAL_Driver/Src/stm32h7xx_hal_spi_ex.c ****   }
 394              		.loc 1 201 5 is_stmt 1 view .LVU132
 395 007e 0268     		ldr	r2, [r0]
 396 0080 42F00102 		orr	r2, r2, #1
 397 0084 0260     		str	r2, [r0]
 398 0086 D8E7     		b	.L28
 399              	.LVL23:
 400              	.L29:
 401              	.LCFI10:
 402              		.cfi_def_cfa_offset 0
 403              		.cfi_restore 4
 168:./Libraries/STM32H7xx_HAL_Driver/Src/stm32h7xx_hal_spi_ex.c **** 
 404              		.loc 1 168 3 is_stmt 0 view .LVU133
 405 0088 0220     		movs	r0, #2
 406              		.loc 1 209 1 view .LVU134
 407 008a 7047     		bx	lr
 408              		.cfi_endproc
 409              	.LFE333:
 411              		.text
 412              	.Letext0:
 413              		.file 2 "/usr/lib/gcc/arm-none-eabi/9.2.1/include/stdint.h"
ARM GAS  /tmp/cc4Y2K9y.s 			page 13


 414              		.file 3 "./Libraries/CMSIS/Core/Include/core_cm7.h"
 415              		.file 4 "./Libraries/CMSIS/Device/ST/STM32H7xx/Include/system_stm32h7xx.h"
 416              		.file 5 "./Libraries/CMSIS/Device/ST/STM32H7xx/Include/stm32h747xx.h"
 417              		.file 6 "/usr/lib/gcc/arm-none-eabi/9.2.1/include/stddef.h"
 418              		.file 7 "/usr/include/newlib/sys/_types.h"
 419              		.file 8 "/usr/include/newlib/sys/reent.h"
 420              		.file 9 "/usr/include/newlib/sys/lock.h"
 421              		.file 10 "/usr/include/newlib/math.h"
 422              		.file 11 "./Libraries/STM32H7xx_HAL_Driver/Inc/stm32h7xx_hal_def.h"
 423              		.file 12 "./Libraries/STM32H7xx_HAL_Driver/Inc/stm32h7xx_hal_dma.h"
 424              		.file 13 "./Libraries/STM32H7xx_HAL_Driver/Inc/stm32h7xx_hal_flash.h"
 425              		.file 14 "./Libraries/STM32H7xx_HAL_Driver/Inc/stm32h7xx_hal_spi.h"
 426              		.file 15 "./Libraries/STM32H7xx_HAL_Driver/Inc/stm32h7xx_hal_uart.h"
 427              		.file 16 "./Libraries/STM32H7xx_HAL_Driver/Inc/stm32h7xx_hal.h"
ARM GAS  /tmp/cc4Y2K9y.s 			page 14


DEFINED SYMBOLS
                            *ABS*:0000000000000000 stm32h7xx_hal_spi_ex.c
     /tmp/cc4Y2K9y.s:17     .text.HAL_SPIEx_FlushRxFifo:0000000000000000 $t
     /tmp/cc4Y2K9y.s:26     .text.HAL_SPIEx_FlushRxFifo:0000000000000000 HAL_SPIEx_FlushRxFifo
     /tmp/cc4Y2K9y.s:129    .text.HAL_SPIEx_FlushRxFifo:0000000000000048 $d
     /tmp/cc4Y2K9y.s:136    .text.HAL_SPIEx_EnableLockConfiguration:0000000000000000 $t
     /tmp/cc4Y2K9y.s:144    .text.HAL_SPIEx_EnableLockConfiguration:0000000000000000 HAL_SPIEx_EnableLockConfiguration
     /tmp/cc4Y2K9y.s:249    .text.HAL_SPIEx_ConfigureUnderrun:0000000000000000 $t
     /tmp/cc4Y2K9y.s:257    .text.HAL_SPIEx_ConfigureUnderrun:0000000000000000 HAL_SPIEx_ConfigureUnderrun

NO UNDEFINED SYMBOLS
