ARM GAS  /tmp/cc5RRSLv.s 			page 1


   1              		.cpu cortex-m7
   2              		.eabi_attribute 28, 1
   3              		.eabi_attribute 20, 1
   4              		.eabi_attribute 21, 1
   5              		.eabi_attribute 23, 3
   6              		.eabi_attribute 24, 1
   7              		.eabi_attribute 25, 1
   8              		.eabi_attribute 26, 1
   9              		.eabi_attribute 30, 2
  10              		.eabi_attribute 34, 1
  11              		.eabi_attribute 18, 4
  12              		.file	"stm32h7xx_hal_nand.c"
  13              		.text
  14              	.Ltext0:
  15              		.cfi_sections	.debug_frame
  16              		.section	.text.HAL_NAND_MspInit,"ax",%progbits
  17              		.align	1
  18              		.p2align 2,,3
  19              		.weak	HAL_NAND_MspInit
  20              		.arch armv7e-m
  21              		.syntax unified
  22              		.thumb
  23              		.thumb_func
  24              		.fpu fpv5-d16
  26              	HAL_NAND_MspInit:
  27              	.LVL0:
  28              	.LFB333:
  29              		.file 1 "./Libraries/STM32H7xx_HAL_Driver/Src/stm32h7xx_hal_nand.c"
   1:./Libraries/STM32H7xx_HAL_Driver/Src/stm32h7xx_hal_nand.c **** /**
   2:./Libraries/STM32H7xx_HAL_Driver/Src/stm32h7xx_hal_nand.c ****   ******************************************************************************
   3:./Libraries/STM32H7xx_HAL_Driver/Src/stm32h7xx_hal_nand.c ****   * @file    stm32h7xx_hal_nand.c
   4:./Libraries/STM32H7xx_HAL_Driver/Src/stm32h7xx_hal_nand.c ****   * @author  MCD Application Team
   5:./Libraries/STM32H7xx_HAL_Driver/Src/stm32h7xx_hal_nand.c ****   * @brief   NAND HAL module driver.
   6:./Libraries/STM32H7xx_HAL_Driver/Src/stm32h7xx_hal_nand.c ****   *          This file provides a generic firmware to drive NAND memories mounted
   7:./Libraries/STM32H7xx_HAL_Driver/Src/stm32h7xx_hal_nand.c ****   *          as external device.
   8:./Libraries/STM32H7xx_HAL_Driver/Src/stm32h7xx_hal_nand.c ****   *
   9:./Libraries/STM32H7xx_HAL_Driver/Src/stm32h7xx_hal_nand.c ****   @verbatim
  10:./Libraries/STM32H7xx_HAL_Driver/Src/stm32h7xx_hal_nand.c ****   ==============================================================================
  11:./Libraries/STM32H7xx_HAL_Driver/Src/stm32h7xx_hal_nand.c ****                          ##### How to use this driver #####
  12:./Libraries/STM32H7xx_HAL_Driver/Src/stm32h7xx_hal_nand.c ****   ==============================================================================
  13:./Libraries/STM32H7xx_HAL_Driver/Src/stm32h7xx_hal_nand.c ****     [..]
  14:./Libraries/STM32H7xx_HAL_Driver/Src/stm32h7xx_hal_nand.c ****       This driver is a generic layered driver which contains a set of APIs used to
  15:./Libraries/STM32H7xx_HAL_Driver/Src/stm32h7xx_hal_nand.c ****       control NAND flash memories. It uses the FMC layer functions to interface
  16:./Libraries/STM32H7xx_HAL_Driver/Src/stm32h7xx_hal_nand.c ****       with NAND devices. This driver is used as follows:
  17:./Libraries/STM32H7xx_HAL_Driver/Src/stm32h7xx_hal_nand.c **** 
  18:./Libraries/STM32H7xx_HAL_Driver/Src/stm32h7xx_hal_nand.c ****       (+) NAND flash memory configuration sequence using the function HAL_NAND_Init()
  19:./Libraries/STM32H7xx_HAL_Driver/Src/stm32h7xx_hal_nand.c ****           with control and timing parameters for both common and attribute spaces.
  20:./Libraries/STM32H7xx_HAL_Driver/Src/stm32h7xx_hal_nand.c **** 
  21:./Libraries/STM32H7xx_HAL_Driver/Src/stm32h7xx_hal_nand.c ****       (+) Read NAND flash memory maker and device IDs using the function
  22:./Libraries/STM32H7xx_HAL_Driver/Src/stm32h7xx_hal_nand.c ****           HAL_NAND_Read_ID(). The read information is stored in the NAND_ID_TypeDef
  23:./Libraries/STM32H7xx_HAL_Driver/Src/stm32h7xx_hal_nand.c ****           structure declared by the function caller.
  24:./Libraries/STM32H7xx_HAL_Driver/Src/stm32h7xx_hal_nand.c **** 
  25:./Libraries/STM32H7xx_HAL_Driver/Src/stm32h7xx_hal_nand.c ****       (+) Access NAND flash memory by read/write operations using the functions
  26:./Libraries/STM32H7xx_HAL_Driver/Src/stm32h7xx_hal_nand.c ****           HAL_NAND_Read_Page_8b()/HAL_NAND_Read_SpareArea_8b(),
  27:./Libraries/STM32H7xx_HAL_Driver/Src/stm32h7xx_hal_nand.c ****           HAL_NAND_Write_Page_8b()/HAL_NAND_Write_SpareArea_8b(),
  28:./Libraries/STM32H7xx_HAL_Driver/Src/stm32h7xx_hal_nand.c ****           HAL_NAND_Read_Page_16b()/HAL_NAND_Read_SpareArea_16b(),
  29:./Libraries/STM32H7xx_HAL_Driver/Src/stm32h7xx_hal_nand.c ****           HAL_NAND_Write_Page_16b()/HAL_NAND_Write_SpareArea_16b()
ARM GAS  /tmp/cc5RRSLv.s 			page 2


  30:./Libraries/STM32H7xx_HAL_Driver/Src/stm32h7xx_hal_nand.c ****           to read/write page(s)/spare area(s). These functions use specific device
  31:./Libraries/STM32H7xx_HAL_Driver/Src/stm32h7xx_hal_nand.c ****           information (Block, page size..) predefined by the user in the NAND_DeviceConfigTypeDef
  32:./Libraries/STM32H7xx_HAL_Driver/Src/stm32h7xx_hal_nand.c ****           structure. The read/write address information is contained by the Nand_Address_Typedef
  33:./Libraries/STM32H7xx_HAL_Driver/Src/stm32h7xx_hal_nand.c ****           structure passed as parameter.
  34:./Libraries/STM32H7xx_HAL_Driver/Src/stm32h7xx_hal_nand.c **** 
  35:./Libraries/STM32H7xx_HAL_Driver/Src/stm32h7xx_hal_nand.c ****       (+) Perform NAND flash Reset chip operation using the function HAL_NAND_Reset().
  36:./Libraries/STM32H7xx_HAL_Driver/Src/stm32h7xx_hal_nand.c **** 
  37:./Libraries/STM32H7xx_HAL_Driver/Src/stm32h7xx_hal_nand.c ****       (+) Perform NAND flash erase block operation using the function HAL_NAND_Erase_Block().
  38:./Libraries/STM32H7xx_HAL_Driver/Src/stm32h7xx_hal_nand.c ****           The erase block address information is contained in the Nand_Address_Typedef
  39:./Libraries/STM32H7xx_HAL_Driver/Src/stm32h7xx_hal_nand.c ****           structure passed as parameter.
  40:./Libraries/STM32H7xx_HAL_Driver/Src/stm32h7xx_hal_nand.c **** 
  41:./Libraries/STM32H7xx_HAL_Driver/Src/stm32h7xx_hal_nand.c ****       (+) Read the NAND flash status operation using the function HAL_NAND_Read_Status().
  42:./Libraries/STM32H7xx_HAL_Driver/Src/stm32h7xx_hal_nand.c **** 
  43:./Libraries/STM32H7xx_HAL_Driver/Src/stm32h7xx_hal_nand.c ****       (+) You can also control the NAND device by calling the control APIs HAL_NAND_ECC_Enable()/
  44:./Libraries/STM32H7xx_HAL_Driver/Src/stm32h7xx_hal_nand.c ****           HAL_NAND_ECC_Disable() to respectively enable/disable the ECC code correction
  45:./Libraries/STM32H7xx_HAL_Driver/Src/stm32h7xx_hal_nand.c ****           feature or the function HAL_NAND_GetECC() to get the ECC correction code.
  46:./Libraries/STM32H7xx_HAL_Driver/Src/stm32h7xx_hal_nand.c **** 
  47:./Libraries/STM32H7xx_HAL_Driver/Src/stm32h7xx_hal_nand.c ****       (+) You can monitor the NAND device HAL state by calling the function
  48:./Libraries/STM32H7xx_HAL_Driver/Src/stm32h7xx_hal_nand.c ****           HAL_NAND_GetState()
  49:./Libraries/STM32H7xx_HAL_Driver/Src/stm32h7xx_hal_nand.c **** 
  50:./Libraries/STM32H7xx_HAL_Driver/Src/stm32h7xx_hal_nand.c ****     [..]
  51:./Libraries/STM32H7xx_HAL_Driver/Src/stm32h7xx_hal_nand.c ****       (@) This driver is a set of generic APIs which handle standard NAND flash operations.
  52:./Libraries/STM32H7xx_HAL_Driver/Src/stm32h7xx_hal_nand.c ****           If a NAND flash device contains different operations and/or implementations,
  53:./Libraries/STM32H7xx_HAL_Driver/Src/stm32h7xx_hal_nand.c ****           it should be implemented separately.
  54:./Libraries/STM32H7xx_HAL_Driver/Src/stm32h7xx_hal_nand.c **** 
  55:./Libraries/STM32H7xx_HAL_Driver/Src/stm32h7xx_hal_nand.c ****     *** Callback registration ***
  56:./Libraries/STM32H7xx_HAL_Driver/Src/stm32h7xx_hal_nand.c ****     =============================================
  57:./Libraries/STM32H7xx_HAL_Driver/Src/stm32h7xx_hal_nand.c ****     [..]
  58:./Libraries/STM32H7xx_HAL_Driver/Src/stm32h7xx_hal_nand.c ****       The compilation define  USE_HAL_NAND_REGISTER_CALLBACKS when set to 1
  59:./Libraries/STM32H7xx_HAL_Driver/Src/stm32h7xx_hal_nand.c ****       allows the user to configure dynamically the driver callbacks.
  60:./Libraries/STM32H7xx_HAL_Driver/Src/stm32h7xx_hal_nand.c **** 
  61:./Libraries/STM32H7xx_HAL_Driver/Src/stm32h7xx_hal_nand.c ****       Use Functions @ref HAL_NAND_RegisterCallback() to register a user callback,
  62:./Libraries/STM32H7xx_HAL_Driver/Src/stm32h7xx_hal_nand.c ****       it allows to register following callbacks:
  63:./Libraries/STM32H7xx_HAL_Driver/Src/stm32h7xx_hal_nand.c ****         (+) MspInitCallback    : NAND MspInit.
  64:./Libraries/STM32H7xx_HAL_Driver/Src/stm32h7xx_hal_nand.c ****         (+) MspDeInitCallback  : NAND MspDeInit.
  65:./Libraries/STM32H7xx_HAL_Driver/Src/stm32h7xx_hal_nand.c ****       This function takes as parameters the HAL peripheral handle, the Callback ID
  66:./Libraries/STM32H7xx_HAL_Driver/Src/stm32h7xx_hal_nand.c ****       and a pointer to the user callback function.
  67:./Libraries/STM32H7xx_HAL_Driver/Src/stm32h7xx_hal_nand.c **** 
  68:./Libraries/STM32H7xx_HAL_Driver/Src/stm32h7xx_hal_nand.c ****       Use function @ref HAL_NAND_UnRegisterCallback() to reset a callback to the default
  69:./Libraries/STM32H7xx_HAL_Driver/Src/stm32h7xx_hal_nand.c ****       weak (surcharged) function. It allows to reset following callbacks:
  70:./Libraries/STM32H7xx_HAL_Driver/Src/stm32h7xx_hal_nand.c ****         (+) MspInitCallback    : NAND MspInit.
  71:./Libraries/STM32H7xx_HAL_Driver/Src/stm32h7xx_hal_nand.c ****         (+) MspDeInitCallback  : NAND MspDeInit.
  72:./Libraries/STM32H7xx_HAL_Driver/Src/stm32h7xx_hal_nand.c ****       This function) takes as parameters the HAL peripheral handle and the Callback ID.
  73:./Libraries/STM32H7xx_HAL_Driver/Src/stm32h7xx_hal_nand.c **** 
  74:./Libraries/STM32H7xx_HAL_Driver/Src/stm32h7xx_hal_nand.c ****       By default, after the @ref HAL_NAND_Init and if the state is HAL_NAND_STATE_RESET
  75:./Libraries/STM32H7xx_HAL_Driver/Src/stm32h7xx_hal_nand.c ****       all callbacks are reset to the corresponding legacy weak (surcharged) functions.
  76:./Libraries/STM32H7xx_HAL_Driver/Src/stm32h7xx_hal_nand.c ****       Exception done for MspInit and MspDeInit callbacks that are respectively
  77:./Libraries/STM32H7xx_HAL_Driver/Src/stm32h7xx_hal_nand.c ****       reset to the legacy weak (surcharged) functions in the @ref HAL_NAND_Init
  78:./Libraries/STM32H7xx_HAL_Driver/Src/stm32h7xx_hal_nand.c ****       and @ref  HAL_NAND_DeInit only when these callbacks are null (not registered beforehand).
  79:./Libraries/STM32H7xx_HAL_Driver/Src/stm32h7xx_hal_nand.c ****       If not, MspInit or MspDeInit are not null, the @ref HAL_NAND_Init and @ref HAL_NAND_DeInit
  80:./Libraries/STM32H7xx_HAL_Driver/Src/stm32h7xx_hal_nand.c ****       keep and use the user MspInit/MspDeInit callbacks (registered beforehand)
  81:./Libraries/STM32H7xx_HAL_Driver/Src/stm32h7xx_hal_nand.c **** 
  82:./Libraries/STM32H7xx_HAL_Driver/Src/stm32h7xx_hal_nand.c ****       Callbacks can be registered/unregistered in READY state only.
  83:./Libraries/STM32H7xx_HAL_Driver/Src/stm32h7xx_hal_nand.c ****       Exception done for MspInit/MspDeInit callbacks that can be registered/unregistered
  84:./Libraries/STM32H7xx_HAL_Driver/Src/stm32h7xx_hal_nand.c ****       in READY or RESET state, thus registered (user) MspInit/DeInit callbacks can be used
  85:./Libraries/STM32H7xx_HAL_Driver/Src/stm32h7xx_hal_nand.c ****       during the Init/DeInit.
  86:./Libraries/STM32H7xx_HAL_Driver/Src/stm32h7xx_hal_nand.c ****       In that case first register the MspInit/MspDeInit user callbacks
ARM GAS  /tmp/cc5RRSLv.s 			page 3


  87:./Libraries/STM32H7xx_HAL_Driver/Src/stm32h7xx_hal_nand.c ****       using @ref HAL_NAND_RegisterCallback before calling @ref HAL_NAND_DeInit
  88:./Libraries/STM32H7xx_HAL_Driver/Src/stm32h7xx_hal_nand.c ****       or @ref HAL_NAND_Init function.
  89:./Libraries/STM32H7xx_HAL_Driver/Src/stm32h7xx_hal_nand.c **** 
  90:./Libraries/STM32H7xx_HAL_Driver/Src/stm32h7xx_hal_nand.c ****       When The compilation define USE_HAL_NAND_REGISTER_CALLBACKS is set to 0 or
  91:./Libraries/STM32H7xx_HAL_Driver/Src/stm32h7xx_hal_nand.c ****       not defined, the callback registering feature is not available
  92:./Libraries/STM32H7xx_HAL_Driver/Src/stm32h7xx_hal_nand.c ****       and weak (surcharged) callbacks are used.
  93:./Libraries/STM32H7xx_HAL_Driver/Src/stm32h7xx_hal_nand.c **** 
  94:./Libraries/STM32H7xx_HAL_Driver/Src/stm32h7xx_hal_nand.c ****   @endverbatim
  95:./Libraries/STM32H7xx_HAL_Driver/Src/stm32h7xx_hal_nand.c ****   ******************************************************************************
  96:./Libraries/STM32H7xx_HAL_Driver/Src/stm32h7xx_hal_nand.c ****   * @attention
  97:./Libraries/STM32H7xx_HAL_Driver/Src/stm32h7xx_hal_nand.c ****   *
  98:./Libraries/STM32H7xx_HAL_Driver/Src/stm32h7xx_hal_nand.c ****   * <h2><center>&copy; Copyright (c) 2017 STMicroelectronics.
  99:./Libraries/STM32H7xx_HAL_Driver/Src/stm32h7xx_hal_nand.c ****   * All rights reserved.</center></h2>
 100:./Libraries/STM32H7xx_HAL_Driver/Src/stm32h7xx_hal_nand.c ****   *
 101:./Libraries/STM32H7xx_HAL_Driver/Src/stm32h7xx_hal_nand.c ****   * This software component is licensed by ST under BSD 3-Clause license,
 102:./Libraries/STM32H7xx_HAL_Driver/Src/stm32h7xx_hal_nand.c ****   * the "License"; You may not use this file except in compliance with the
 103:./Libraries/STM32H7xx_HAL_Driver/Src/stm32h7xx_hal_nand.c ****   * License. You may obtain a copy of the License at:
 104:./Libraries/STM32H7xx_HAL_Driver/Src/stm32h7xx_hal_nand.c ****   *                       opensource.org/licenses/BSD-3-Clause
 105:./Libraries/STM32H7xx_HAL_Driver/Src/stm32h7xx_hal_nand.c ****   *
 106:./Libraries/STM32H7xx_HAL_Driver/Src/stm32h7xx_hal_nand.c ****   ******************************************************************************
 107:./Libraries/STM32H7xx_HAL_Driver/Src/stm32h7xx_hal_nand.c ****   */
 108:./Libraries/STM32H7xx_HAL_Driver/Src/stm32h7xx_hal_nand.c **** 
 109:./Libraries/STM32H7xx_HAL_Driver/Src/stm32h7xx_hal_nand.c **** /* Includes ------------------------------------------------------------------*/
 110:./Libraries/STM32H7xx_HAL_Driver/Src/stm32h7xx_hal_nand.c **** #include "stm32h7xx_hal.h"
 111:./Libraries/STM32H7xx_HAL_Driver/Src/stm32h7xx_hal_nand.c **** 
 112:./Libraries/STM32H7xx_HAL_Driver/Src/stm32h7xx_hal_nand.c **** 
 113:./Libraries/STM32H7xx_HAL_Driver/Src/stm32h7xx_hal_nand.c **** /** @addtogroup STM32H7xx_HAL_Driver
 114:./Libraries/STM32H7xx_HAL_Driver/Src/stm32h7xx_hal_nand.c ****   * @{
 115:./Libraries/STM32H7xx_HAL_Driver/Src/stm32h7xx_hal_nand.c ****   */
 116:./Libraries/STM32H7xx_HAL_Driver/Src/stm32h7xx_hal_nand.c **** 
 117:./Libraries/STM32H7xx_HAL_Driver/Src/stm32h7xx_hal_nand.c **** #ifdef HAL_NAND_MODULE_ENABLED
 118:./Libraries/STM32H7xx_HAL_Driver/Src/stm32h7xx_hal_nand.c **** 
 119:./Libraries/STM32H7xx_HAL_Driver/Src/stm32h7xx_hal_nand.c **** /** @defgroup NAND NAND
 120:./Libraries/STM32H7xx_HAL_Driver/Src/stm32h7xx_hal_nand.c ****   * @brief NAND HAL module driver
 121:./Libraries/STM32H7xx_HAL_Driver/Src/stm32h7xx_hal_nand.c ****   * @{
 122:./Libraries/STM32H7xx_HAL_Driver/Src/stm32h7xx_hal_nand.c ****   */
 123:./Libraries/STM32H7xx_HAL_Driver/Src/stm32h7xx_hal_nand.c **** 
 124:./Libraries/STM32H7xx_HAL_Driver/Src/stm32h7xx_hal_nand.c **** /* Private typedef -----------------------------------------------------------*/
 125:./Libraries/STM32H7xx_HAL_Driver/Src/stm32h7xx_hal_nand.c **** /* Private Constants ------------------------------------------------------------*/
 126:./Libraries/STM32H7xx_HAL_Driver/Src/stm32h7xx_hal_nand.c **** /* Private macro -------------------------------------------------------------*/
 127:./Libraries/STM32H7xx_HAL_Driver/Src/stm32h7xx_hal_nand.c **** /* Private variables ---------------------------------------------------------*/
 128:./Libraries/STM32H7xx_HAL_Driver/Src/stm32h7xx_hal_nand.c **** /* Private function prototypes -----------------------------------------------*/
 129:./Libraries/STM32H7xx_HAL_Driver/Src/stm32h7xx_hal_nand.c **** /* Exported functions ---------------------------------------------------------*/
 130:./Libraries/STM32H7xx_HAL_Driver/Src/stm32h7xx_hal_nand.c **** 
 131:./Libraries/STM32H7xx_HAL_Driver/Src/stm32h7xx_hal_nand.c **** /** @defgroup NAND_Exported_Functions NAND Exported Functions
 132:./Libraries/STM32H7xx_HAL_Driver/Src/stm32h7xx_hal_nand.c ****   * @{
 133:./Libraries/STM32H7xx_HAL_Driver/Src/stm32h7xx_hal_nand.c ****   */
 134:./Libraries/STM32H7xx_HAL_Driver/Src/stm32h7xx_hal_nand.c **** 
 135:./Libraries/STM32H7xx_HAL_Driver/Src/stm32h7xx_hal_nand.c **** /** @defgroup NAND_Exported_Functions_Group1 Initialization and de-initialization functions
 136:./Libraries/STM32H7xx_HAL_Driver/Src/stm32h7xx_hal_nand.c ****   * @brief    Initialization and Configuration functions
 137:./Libraries/STM32H7xx_HAL_Driver/Src/stm32h7xx_hal_nand.c ****   *
 138:./Libraries/STM32H7xx_HAL_Driver/Src/stm32h7xx_hal_nand.c ****   @verbatim
 139:./Libraries/STM32H7xx_HAL_Driver/Src/stm32h7xx_hal_nand.c ****   ==============================================================================
 140:./Libraries/STM32H7xx_HAL_Driver/Src/stm32h7xx_hal_nand.c ****             ##### NAND Initialization and de-initialization functions #####
 141:./Libraries/STM32H7xx_HAL_Driver/Src/stm32h7xx_hal_nand.c ****   ==============================================================================
 142:./Libraries/STM32H7xx_HAL_Driver/Src/stm32h7xx_hal_nand.c ****   [..]
 143:./Libraries/STM32H7xx_HAL_Driver/Src/stm32h7xx_hal_nand.c ****     This section provides functions allowing to initialize/de-initialize
ARM GAS  /tmp/cc5RRSLv.s 			page 4


 144:./Libraries/STM32H7xx_HAL_Driver/Src/stm32h7xx_hal_nand.c ****     the NAND memory
 145:./Libraries/STM32H7xx_HAL_Driver/Src/stm32h7xx_hal_nand.c **** 
 146:./Libraries/STM32H7xx_HAL_Driver/Src/stm32h7xx_hal_nand.c **** @endverbatim
 147:./Libraries/STM32H7xx_HAL_Driver/Src/stm32h7xx_hal_nand.c ****   * @{
 148:./Libraries/STM32H7xx_HAL_Driver/Src/stm32h7xx_hal_nand.c ****   */
 149:./Libraries/STM32H7xx_HAL_Driver/Src/stm32h7xx_hal_nand.c **** 
 150:./Libraries/STM32H7xx_HAL_Driver/Src/stm32h7xx_hal_nand.c **** /**
 151:./Libraries/STM32H7xx_HAL_Driver/Src/stm32h7xx_hal_nand.c ****   * @brief  Perform NAND memory Initialization sequence
 152:./Libraries/STM32H7xx_HAL_Driver/Src/stm32h7xx_hal_nand.c ****   * @param  hnand pointer to a NAND_HandleTypeDef structure that contains
 153:./Libraries/STM32H7xx_HAL_Driver/Src/stm32h7xx_hal_nand.c ****   *                the configuration information for NAND module.
 154:./Libraries/STM32H7xx_HAL_Driver/Src/stm32h7xx_hal_nand.c ****   * @param  ComSpace_Timing pointer to Common space timing structure
 155:./Libraries/STM32H7xx_HAL_Driver/Src/stm32h7xx_hal_nand.c ****   * @param  AttSpace_Timing pointer to Attribute space timing structure
 156:./Libraries/STM32H7xx_HAL_Driver/Src/stm32h7xx_hal_nand.c ****   * @retval HAL status
 157:./Libraries/STM32H7xx_HAL_Driver/Src/stm32h7xx_hal_nand.c ****   */
 158:./Libraries/STM32H7xx_HAL_Driver/Src/stm32h7xx_hal_nand.c **** HAL_StatusTypeDef  HAL_NAND_Init(NAND_HandleTypeDef *hnand, FMC_NAND_PCC_TimingTypeDef *ComSpace_Ti
 159:./Libraries/STM32H7xx_HAL_Driver/Src/stm32h7xx_hal_nand.c ****                                  FMC_NAND_PCC_TimingTypeDef *AttSpace_Timing)
 160:./Libraries/STM32H7xx_HAL_Driver/Src/stm32h7xx_hal_nand.c **** {
 161:./Libraries/STM32H7xx_HAL_Driver/Src/stm32h7xx_hal_nand.c ****   /* Check the NAND handle state */
 162:./Libraries/STM32H7xx_HAL_Driver/Src/stm32h7xx_hal_nand.c ****   if (hnand == NULL)
 163:./Libraries/STM32H7xx_HAL_Driver/Src/stm32h7xx_hal_nand.c ****   {
 164:./Libraries/STM32H7xx_HAL_Driver/Src/stm32h7xx_hal_nand.c ****     return HAL_ERROR;
 165:./Libraries/STM32H7xx_HAL_Driver/Src/stm32h7xx_hal_nand.c ****   }
 166:./Libraries/STM32H7xx_HAL_Driver/Src/stm32h7xx_hal_nand.c **** 
 167:./Libraries/STM32H7xx_HAL_Driver/Src/stm32h7xx_hal_nand.c ****   if (hnand->State == HAL_NAND_STATE_RESET)
 168:./Libraries/STM32H7xx_HAL_Driver/Src/stm32h7xx_hal_nand.c ****   {
 169:./Libraries/STM32H7xx_HAL_Driver/Src/stm32h7xx_hal_nand.c ****     /* Allocate lock resource and initialize it */
 170:./Libraries/STM32H7xx_HAL_Driver/Src/stm32h7xx_hal_nand.c ****     hnand->Lock = HAL_UNLOCKED;
 171:./Libraries/STM32H7xx_HAL_Driver/Src/stm32h7xx_hal_nand.c **** 
 172:./Libraries/STM32H7xx_HAL_Driver/Src/stm32h7xx_hal_nand.c **** #if (USE_HAL_NAND_REGISTER_CALLBACKS == 1)
 173:./Libraries/STM32H7xx_HAL_Driver/Src/stm32h7xx_hal_nand.c ****     if (hnand->MspInitCallback == NULL)
 174:./Libraries/STM32H7xx_HAL_Driver/Src/stm32h7xx_hal_nand.c ****     {
 175:./Libraries/STM32H7xx_HAL_Driver/Src/stm32h7xx_hal_nand.c ****       hnand->MspInitCallback = HAL_NAND_MspInit;
 176:./Libraries/STM32H7xx_HAL_Driver/Src/stm32h7xx_hal_nand.c ****     }
 177:./Libraries/STM32H7xx_HAL_Driver/Src/stm32h7xx_hal_nand.c ****     hnand->ItCallback = HAL_NAND_ITCallback;
 178:./Libraries/STM32H7xx_HAL_Driver/Src/stm32h7xx_hal_nand.c **** 
 179:./Libraries/STM32H7xx_HAL_Driver/Src/stm32h7xx_hal_nand.c ****     /* Init the low level hardware */
 180:./Libraries/STM32H7xx_HAL_Driver/Src/stm32h7xx_hal_nand.c ****     hnand->MspInitCallback(hnand);
 181:./Libraries/STM32H7xx_HAL_Driver/Src/stm32h7xx_hal_nand.c **** #else
 182:./Libraries/STM32H7xx_HAL_Driver/Src/stm32h7xx_hal_nand.c ****     /* Initialize the low level hardware (MSP) */
 183:./Libraries/STM32H7xx_HAL_Driver/Src/stm32h7xx_hal_nand.c ****     HAL_NAND_MspInit(hnand);
 184:./Libraries/STM32H7xx_HAL_Driver/Src/stm32h7xx_hal_nand.c **** #endif /* (USE_HAL_NAND_REGISTER_CALLBACKS) */
 185:./Libraries/STM32H7xx_HAL_Driver/Src/stm32h7xx_hal_nand.c ****   }
 186:./Libraries/STM32H7xx_HAL_Driver/Src/stm32h7xx_hal_nand.c **** 
 187:./Libraries/STM32H7xx_HAL_Driver/Src/stm32h7xx_hal_nand.c ****   /* Initialize NAND control Interface */
 188:./Libraries/STM32H7xx_HAL_Driver/Src/stm32h7xx_hal_nand.c ****   (void)FMC_NAND_Init(hnand->Instance, &(hnand->Init));
 189:./Libraries/STM32H7xx_HAL_Driver/Src/stm32h7xx_hal_nand.c **** 
 190:./Libraries/STM32H7xx_HAL_Driver/Src/stm32h7xx_hal_nand.c ****   /* Initialize NAND common space timing Interface */
 191:./Libraries/STM32H7xx_HAL_Driver/Src/stm32h7xx_hal_nand.c ****   (void)FMC_NAND_CommonSpace_Timing_Init(hnand->Instance, ComSpace_Timing, hnand->Init.NandBank);
 192:./Libraries/STM32H7xx_HAL_Driver/Src/stm32h7xx_hal_nand.c **** 
 193:./Libraries/STM32H7xx_HAL_Driver/Src/stm32h7xx_hal_nand.c ****   /* Initialize NAND attribute space timing Interface */
 194:./Libraries/STM32H7xx_HAL_Driver/Src/stm32h7xx_hal_nand.c ****   (void)FMC_NAND_AttributeSpace_Timing_Init(hnand->Instance, AttSpace_Timing, hnand->Init.NandBank)
 195:./Libraries/STM32H7xx_HAL_Driver/Src/stm32h7xx_hal_nand.c **** 
 196:./Libraries/STM32H7xx_HAL_Driver/Src/stm32h7xx_hal_nand.c ****   /* Enable the NAND device */
 197:./Libraries/STM32H7xx_HAL_Driver/Src/stm32h7xx_hal_nand.c ****   __FMC_NAND_ENABLE(hnand->Instance);
 198:./Libraries/STM32H7xx_HAL_Driver/Src/stm32h7xx_hal_nand.c **** 
 199:./Libraries/STM32H7xx_HAL_Driver/Src/stm32h7xx_hal_nand.c ****   /* Enable FMC Peripheral */
 200:./Libraries/STM32H7xx_HAL_Driver/Src/stm32h7xx_hal_nand.c ****   __FMC_ENABLE();
ARM GAS  /tmp/cc5RRSLv.s 			page 5


 201:./Libraries/STM32H7xx_HAL_Driver/Src/stm32h7xx_hal_nand.c ****   /* Update the NAND controller state */
 202:./Libraries/STM32H7xx_HAL_Driver/Src/stm32h7xx_hal_nand.c ****   hnand->State = HAL_NAND_STATE_READY;
 203:./Libraries/STM32H7xx_HAL_Driver/Src/stm32h7xx_hal_nand.c **** 
 204:./Libraries/STM32H7xx_HAL_Driver/Src/stm32h7xx_hal_nand.c ****   return HAL_OK;
 205:./Libraries/STM32H7xx_HAL_Driver/Src/stm32h7xx_hal_nand.c **** }
 206:./Libraries/STM32H7xx_HAL_Driver/Src/stm32h7xx_hal_nand.c **** 
 207:./Libraries/STM32H7xx_HAL_Driver/Src/stm32h7xx_hal_nand.c **** /**
 208:./Libraries/STM32H7xx_HAL_Driver/Src/stm32h7xx_hal_nand.c ****   * @brief  Perform NAND memory De-Initialization sequence
 209:./Libraries/STM32H7xx_HAL_Driver/Src/stm32h7xx_hal_nand.c ****   * @param  hnand pointer to a NAND_HandleTypeDef structure that contains
 210:./Libraries/STM32H7xx_HAL_Driver/Src/stm32h7xx_hal_nand.c ****   *                the configuration information for NAND module.
 211:./Libraries/STM32H7xx_HAL_Driver/Src/stm32h7xx_hal_nand.c ****   * @retval HAL status
 212:./Libraries/STM32H7xx_HAL_Driver/Src/stm32h7xx_hal_nand.c ****   */
 213:./Libraries/STM32H7xx_HAL_Driver/Src/stm32h7xx_hal_nand.c **** HAL_StatusTypeDef HAL_NAND_DeInit(NAND_HandleTypeDef *hnand)
 214:./Libraries/STM32H7xx_HAL_Driver/Src/stm32h7xx_hal_nand.c **** {
 215:./Libraries/STM32H7xx_HAL_Driver/Src/stm32h7xx_hal_nand.c **** #if (USE_HAL_NAND_REGISTER_CALLBACKS == 1)
 216:./Libraries/STM32H7xx_HAL_Driver/Src/stm32h7xx_hal_nand.c ****   if (hnand->MspDeInitCallback == NULL)
 217:./Libraries/STM32H7xx_HAL_Driver/Src/stm32h7xx_hal_nand.c ****   {
 218:./Libraries/STM32H7xx_HAL_Driver/Src/stm32h7xx_hal_nand.c ****     hnand->MspDeInitCallback = HAL_NAND_MspDeInit;
 219:./Libraries/STM32H7xx_HAL_Driver/Src/stm32h7xx_hal_nand.c ****   }
 220:./Libraries/STM32H7xx_HAL_Driver/Src/stm32h7xx_hal_nand.c **** 
 221:./Libraries/STM32H7xx_HAL_Driver/Src/stm32h7xx_hal_nand.c ****   /* DeInit the low level hardware */
 222:./Libraries/STM32H7xx_HAL_Driver/Src/stm32h7xx_hal_nand.c ****   hnand->MspDeInitCallback(hnand);
 223:./Libraries/STM32H7xx_HAL_Driver/Src/stm32h7xx_hal_nand.c **** #else
 224:./Libraries/STM32H7xx_HAL_Driver/Src/stm32h7xx_hal_nand.c ****   /* Initialize the low level hardware (MSP) */
 225:./Libraries/STM32H7xx_HAL_Driver/Src/stm32h7xx_hal_nand.c ****   HAL_NAND_MspDeInit(hnand);
 226:./Libraries/STM32H7xx_HAL_Driver/Src/stm32h7xx_hal_nand.c **** #endif /* (USE_HAL_NAND_REGISTER_CALLBACKS) */
 227:./Libraries/STM32H7xx_HAL_Driver/Src/stm32h7xx_hal_nand.c **** 
 228:./Libraries/STM32H7xx_HAL_Driver/Src/stm32h7xx_hal_nand.c ****   /* Configure the NAND registers with their reset values */
 229:./Libraries/STM32H7xx_HAL_Driver/Src/stm32h7xx_hal_nand.c ****   (void)FMC_NAND_DeInit(hnand->Instance, hnand->Init.NandBank);
 230:./Libraries/STM32H7xx_HAL_Driver/Src/stm32h7xx_hal_nand.c **** 
 231:./Libraries/STM32H7xx_HAL_Driver/Src/stm32h7xx_hal_nand.c ****   /* Reset the NAND controller state */
 232:./Libraries/STM32H7xx_HAL_Driver/Src/stm32h7xx_hal_nand.c ****   hnand->State = HAL_NAND_STATE_RESET;
 233:./Libraries/STM32H7xx_HAL_Driver/Src/stm32h7xx_hal_nand.c **** 
 234:./Libraries/STM32H7xx_HAL_Driver/Src/stm32h7xx_hal_nand.c ****   /* Release Lock */
 235:./Libraries/STM32H7xx_HAL_Driver/Src/stm32h7xx_hal_nand.c ****   __HAL_UNLOCK(hnand);
 236:./Libraries/STM32H7xx_HAL_Driver/Src/stm32h7xx_hal_nand.c **** 
 237:./Libraries/STM32H7xx_HAL_Driver/Src/stm32h7xx_hal_nand.c ****   return HAL_OK;
 238:./Libraries/STM32H7xx_HAL_Driver/Src/stm32h7xx_hal_nand.c **** }
 239:./Libraries/STM32H7xx_HAL_Driver/Src/stm32h7xx_hal_nand.c **** 
 240:./Libraries/STM32H7xx_HAL_Driver/Src/stm32h7xx_hal_nand.c **** /**
 241:./Libraries/STM32H7xx_HAL_Driver/Src/stm32h7xx_hal_nand.c ****   * @brief  NAND MSP Init
 242:./Libraries/STM32H7xx_HAL_Driver/Src/stm32h7xx_hal_nand.c ****   * @param  hnand pointer to a NAND_HandleTypeDef structure that contains
 243:./Libraries/STM32H7xx_HAL_Driver/Src/stm32h7xx_hal_nand.c ****   *                the configuration information for NAND module.
 244:./Libraries/STM32H7xx_HAL_Driver/Src/stm32h7xx_hal_nand.c ****   * @retval None
 245:./Libraries/STM32H7xx_HAL_Driver/Src/stm32h7xx_hal_nand.c ****   */
 246:./Libraries/STM32H7xx_HAL_Driver/Src/stm32h7xx_hal_nand.c **** __weak void HAL_NAND_MspInit(NAND_HandleTypeDef *hnand)
 247:./Libraries/STM32H7xx_HAL_Driver/Src/stm32h7xx_hal_nand.c **** {
  30              		.loc 1 247 1 view -0
  31              		.cfi_startproc
  32              		@ args = 0, pretend = 0, frame = 0
  33              		@ frame_needed = 0, uses_anonymous_args = 0
  34              		@ link register save eliminated.
 248:./Libraries/STM32H7xx_HAL_Driver/Src/stm32h7xx_hal_nand.c ****   /* Prevent unused argument(s) compilation warning */
 249:./Libraries/STM32H7xx_HAL_Driver/Src/stm32h7xx_hal_nand.c ****   UNUSED(hnand);
  35              		.loc 1 249 3 view .LVU1
 250:./Libraries/STM32H7xx_HAL_Driver/Src/stm32h7xx_hal_nand.c **** 
 251:./Libraries/STM32H7xx_HAL_Driver/Src/stm32h7xx_hal_nand.c ****   /* NOTE : This function Should not be modified, when the callback is needed,
ARM GAS  /tmp/cc5RRSLv.s 			page 6


 252:./Libraries/STM32H7xx_HAL_Driver/Src/stm32h7xx_hal_nand.c ****             the HAL_NAND_MspInit could be implemented in the user file
 253:./Libraries/STM32H7xx_HAL_Driver/Src/stm32h7xx_hal_nand.c ****    */
 254:./Libraries/STM32H7xx_HAL_Driver/Src/stm32h7xx_hal_nand.c **** }
  36              		.loc 1 254 1 is_stmt 0 view .LVU2
  37 0000 7047     		bx	lr
  38              		.cfi_endproc
  39              	.LFE333:
  41 0002 00BF     		.section	.text.HAL_NAND_Init,"ax",%progbits
  42              		.align	1
  43              		.p2align 2,,3
  44              		.global	HAL_NAND_Init
  45              		.syntax unified
  46              		.thumb
  47              		.thumb_func
  48              		.fpu fpv5-d16
  50              	HAL_NAND_Init:
  51              	.LVL1:
  52              	.LFB331:
 160:./Libraries/STM32H7xx_HAL_Driver/Src/stm32h7xx_hal_nand.c ****   /* Check the NAND handle state */
  53              		.loc 1 160 1 is_stmt 1 view -0
  54              		.cfi_startproc
  55              		@ args = 0, pretend = 0, frame = 0
  56              		@ frame_needed = 0, uses_anonymous_args = 0
 162:./Libraries/STM32H7xx_HAL_Driver/Src/stm32h7xx_hal_nand.c ****   {
  57              		.loc 1 162 3 view .LVU4
 162:./Libraries/STM32H7xx_HAL_Driver/Src/stm32h7xx_hal_nand.c ****   {
  58              		.loc 1 162 6 is_stmt 0 view .LVU5
  59 0000 58B3     		cbz	r0, .L6
 167:./Libraries/STM32H7xx_HAL_Driver/Src/stm32h7xx_hal_nand.c ****   {
  60              		.loc 1 167 3 is_stmt 1 view .LVU6
 160:./Libraries/STM32H7xx_HAL_Driver/Src/stm32h7xx_hal_nand.c ****   /* Check the NAND handle state */
  61              		.loc 1 160 1 is_stmt 0 view .LVU7
  62 0002 70B5     		push	{r4, r5, r6, lr}
  63              	.LCFI0:
  64              		.cfi_def_cfa_offset 16
  65              		.cfi_offset 4, -16
  66              		.cfi_offset 5, -12
  67              		.cfi_offset 6, -8
  68              		.cfi_offset 14, -4
 167:./Libraries/STM32H7xx_HAL_Driver/Src/stm32h7xx_hal_nand.c ****   {
  69              		.loc 1 167 12 view .LVU8
  70 0004 90F82130 		ldrb	r3, [r0, #33]	@ zero_extendqisi2
  71 0008 1546     		mov	r5, r2
  72 000a 0E46     		mov	r6, r1
  73 000c 0446     		mov	r4, r0
 167:./Libraries/STM32H7xx_HAL_Driver/Src/stm32h7xx_hal_nand.c ****   {
  74              		.loc 1 167 6 view .LVU9
  75 000e 03F0FF02 		and	r2, r3, #255
  76              	.LVL2:
 167:./Libraries/STM32H7xx_HAL_Driver/Src/stm32h7xx_hal_nand.c ****   {
  77              		.loc 1 167 6 view .LVU10
  78 0012 EBB1     		cbz	r3, .L11
  79              	.LVL3:
  80              	.L5:
 188:./Libraries/STM32H7xx_HAL_Driver/Src/stm32h7xx_hal_nand.c **** 
  81              		.loc 1 188 3 is_stmt 1 view .LVU11
 188:./Libraries/STM32H7xx_HAL_Driver/Src/stm32h7xx_hal_nand.c **** 
ARM GAS  /tmp/cc5RRSLv.s 			page 7


  82              		.loc 1 188 9 is_stmt 0 view .LVU12
  83 0014 2146     		mov	r1, r4
  84 0016 51F8040B 		ldr	r0, [r1], #4
  85 001a FFF7FEFF 		bl	FMC_NAND_Init
  86              	.LVL4:
 191:./Libraries/STM32H7xx_HAL_Driver/Src/stm32h7xx_hal_nand.c **** 
  87              		.loc 1 191 3 is_stmt 1 view .LVU13
 191:./Libraries/STM32H7xx_HAL_Driver/Src/stm32h7xx_hal_nand.c **** 
  88              		.loc 1 191 9 is_stmt 0 view .LVU14
  89 001e 3146     		mov	r1, r6
  90 0020 D4E90002 		ldrd	r0, r2, [r4]
  91 0024 FFF7FEFF 		bl	FMC_NAND_CommonSpace_Timing_Init
  92              	.LVL5:
 194:./Libraries/STM32H7xx_HAL_Driver/Src/stm32h7xx_hal_nand.c **** 
  93              		.loc 1 194 3 is_stmt 1 view .LVU15
 194:./Libraries/STM32H7xx_HAL_Driver/Src/stm32h7xx_hal_nand.c **** 
  94              		.loc 1 194 9 is_stmt 0 view .LVU16
  95 0028 2946     		mov	r1, r5
 202:./Libraries/STM32H7xx_HAL_Driver/Src/stm32h7xx_hal_nand.c **** 
  96              		.loc 1 202 16 view .LVU17
  97 002a 0125     		movs	r5, #1
  98              	.LVL6:
 194:./Libraries/STM32H7xx_HAL_Driver/Src/stm32h7xx_hal_nand.c **** 
  99              		.loc 1 194 9 view .LVU18
 100 002c D4E90002 		ldrd	r0, r2, [r4]
 101 0030 FFF7FEFF 		bl	FMC_NAND_AttributeSpace_Timing_Init
 102              	.LVL7:
 197:./Libraries/STM32H7xx_HAL_Driver/Src/stm32h7xx_hal_nand.c **** 
 103              		.loc 1 197 3 is_stmt 1 view .LVU19
 104 0034 2168     		ldr	r1, [r4]
 200:./Libraries/STM32H7xx_HAL_Driver/Src/stm32h7xx_hal_nand.c ****   /* Update the NAND controller state */
 105              		.loc 1 200 3 is_stmt 0 view .LVU20
 106 0036 0A4A     		ldr	r2, .L12
 204:./Libraries/STM32H7xx_HAL_Driver/Src/stm32h7xx_hal_nand.c **** }
 107              		.loc 1 204 10 view .LVU21
 108 0038 0020     		movs	r0, #0
 197:./Libraries/STM32H7xx_HAL_Driver/Src/stm32h7xx_hal_nand.c **** 
 109              		.loc 1 197 3 view .LVU22
 110 003a 0B68     		ldr	r3, [r1]
 111 003c 43F00403 		orr	r3, r3, #4
 112 0040 0B60     		str	r3, [r1]
 200:./Libraries/STM32H7xx_HAL_Driver/Src/stm32h7xx_hal_nand.c ****   /* Update the NAND controller state */
 113              		.loc 1 200 3 is_stmt 1 view .LVU23
 114 0042 1368     		ldr	r3, [r2]
 115 0044 43F00043 		orr	r3, r3, #-2147483648
 116 0048 1360     		str	r3, [r2]
 202:./Libraries/STM32H7xx_HAL_Driver/Src/stm32h7xx_hal_nand.c **** 
 117              		.loc 1 202 3 view .LVU24
 202:./Libraries/STM32H7xx_HAL_Driver/Src/stm32h7xx_hal_nand.c **** 
 118              		.loc 1 202 16 is_stmt 0 view .LVU25
 119 004a 84F82150 		strb	r5, [r4, #33]
 204:./Libraries/STM32H7xx_HAL_Driver/Src/stm32h7xx_hal_nand.c **** }
 120              		.loc 1 204 3 is_stmt 1 view .LVU26
 205:./Libraries/STM32H7xx_HAL_Driver/Src/stm32h7xx_hal_nand.c **** 
 121              		.loc 1 205 1 is_stmt 0 view .LVU27
 122 004e 70BD     		pop	{r4, r5, r6, pc}
 123              	.LVL8:
ARM GAS  /tmp/cc5RRSLv.s 			page 8


 124              	.L11:
 170:./Libraries/STM32H7xx_HAL_Driver/Src/stm32h7xx_hal_nand.c **** 
 125              		.loc 1 170 5 is_stmt 1 view .LVU28
 170:./Libraries/STM32H7xx_HAL_Driver/Src/stm32h7xx_hal_nand.c **** 
 126              		.loc 1 170 17 is_stmt 0 view .LVU29
 127 0050 80F82020 		strb	r2, [r0, #32]
 183:./Libraries/STM32H7xx_HAL_Driver/Src/stm32h7xx_hal_nand.c **** #endif /* (USE_HAL_NAND_REGISTER_CALLBACKS) */
 128              		.loc 1 183 5 is_stmt 1 view .LVU30
 129 0054 FFF7FEFF 		bl	HAL_NAND_MspInit
 130              	.LVL9:
 183:./Libraries/STM32H7xx_HAL_Driver/Src/stm32h7xx_hal_nand.c **** #endif /* (USE_HAL_NAND_REGISTER_CALLBACKS) */
 131              		.loc 1 183 5 is_stmt 0 view .LVU31
 132 0058 DCE7     		b	.L5
 133              	.LVL10:
 134              	.L6:
 135              	.LCFI1:
 136              		.cfi_def_cfa_offset 0
 137              		.cfi_restore 4
 138              		.cfi_restore 5
 139              		.cfi_restore 6
 140              		.cfi_restore 14
 164:./Libraries/STM32H7xx_HAL_Driver/Src/stm32h7xx_hal_nand.c ****   }
 141              		.loc 1 164 12 view .LVU32
 142 005a 0120     		movs	r0, #1
 143              	.LVL11:
 205:./Libraries/STM32H7xx_HAL_Driver/Src/stm32h7xx_hal_nand.c **** 
 144              		.loc 1 205 1 view .LVU33
 145 005c 7047     		bx	lr
 146              	.L13:
 147 005e 00BF     		.align	2
 148              	.L12:
 149 0060 00400052 		.word	1375748096
 150              		.cfi_endproc
 151              	.LFE331:
 153              		.section	.text.HAL_NAND_MspDeInit,"ax",%progbits
 154              		.align	1
 155              		.p2align 2,,3
 156              		.weak	HAL_NAND_MspDeInit
 157              		.syntax unified
 158              		.thumb
 159              		.thumb_func
 160              		.fpu fpv5-d16
 162              	HAL_NAND_MspDeInit:
 163              	.LFB356:
 164              		.cfi_startproc
 165              		@ args = 0, pretend = 0, frame = 0
 166              		@ frame_needed = 0, uses_anonymous_args = 0
 167              		@ link register save eliminated.
 168 0000 7047     		bx	lr
 169              		.cfi_endproc
 170              	.LFE356:
 172 0002 00BF     		.section	.text.HAL_NAND_DeInit,"ax",%progbits
 173              		.align	1
 174              		.p2align 2,,3
 175              		.global	HAL_NAND_DeInit
 176              		.syntax unified
 177              		.thumb
ARM GAS  /tmp/cc5RRSLv.s 			page 9


 178              		.thumb_func
 179              		.fpu fpv5-d16
 181              	HAL_NAND_DeInit:
 182              	.LVL12:
 183              	.LFB332:
 214:./Libraries/STM32H7xx_HAL_Driver/Src/stm32h7xx_hal_nand.c **** #if (USE_HAL_NAND_REGISTER_CALLBACKS == 1)
 184              		.loc 1 214 1 is_stmt 1 view -0
 185              		.cfi_startproc
 186              		@ args = 0, pretend = 0, frame = 0
 187              		@ frame_needed = 0, uses_anonymous_args = 0
 225:./Libraries/STM32H7xx_HAL_Driver/Src/stm32h7xx_hal_nand.c **** #endif /* (USE_HAL_NAND_REGISTER_CALLBACKS) */
 188              		.loc 1 225 3 view .LVU35
 214:./Libraries/STM32H7xx_HAL_Driver/Src/stm32h7xx_hal_nand.c **** #if (USE_HAL_NAND_REGISTER_CALLBACKS == 1)
 189              		.loc 1 214 1 is_stmt 0 view .LVU36
 190 0000 10B5     		push	{r4, lr}
 191              	.LCFI2:
 192              		.cfi_def_cfa_offset 8
 193              		.cfi_offset 4, -8
 194              		.cfi_offset 14, -4
 214:./Libraries/STM32H7xx_HAL_Driver/Src/stm32h7xx_hal_nand.c **** #if (USE_HAL_NAND_REGISTER_CALLBACKS == 1)
 195              		.loc 1 214 1 view .LVU37
 196 0002 0446     		mov	r4, r0
 225:./Libraries/STM32H7xx_HAL_Driver/Src/stm32h7xx_hal_nand.c **** #endif /* (USE_HAL_NAND_REGISTER_CALLBACKS) */
 197              		.loc 1 225 3 view .LVU38
 198 0004 FFF7FEFF 		bl	HAL_NAND_MspDeInit
 199              	.LVL13:
 229:./Libraries/STM32H7xx_HAL_Driver/Src/stm32h7xx_hal_nand.c **** 
 200              		.loc 1 229 3 is_stmt 1 view .LVU39
 229:./Libraries/STM32H7xx_HAL_Driver/Src/stm32h7xx_hal_nand.c **** 
 201              		.loc 1 229 9 is_stmt 0 view .LVU40
 202 0008 D4E90001 		ldrd	r0, r1, [r4]
 203 000c FFF7FEFF 		bl	FMC_NAND_DeInit
 204              	.LVL14:
 232:./Libraries/STM32H7xx_HAL_Driver/Src/stm32h7xx_hal_nand.c **** 
 205              		.loc 1 232 3 is_stmt 1 view .LVU41
 232:./Libraries/STM32H7xx_HAL_Driver/Src/stm32h7xx_hal_nand.c **** 
 206              		.loc 1 232 16 is_stmt 0 view .LVU42
 207 0010 0020     		movs	r0, #0
 208 0012 84F82100 		strb	r0, [r4, #33]
 235:./Libraries/STM32H7xx_HAL_Driver/Src/stm32h7xx_hal_nand.c **** 
 209              		.loc 1 235 3 is_stmt 1 view .LVU43
 235:./Libraries/STM32H7xx_HAL_Driver/Src/stm32h7xx_hal_nand.c **** 
 210              		.loc 1 235 3 view .LVU44
 211 0016 84F82000 		strb	r0, [r4, #32]
 235:./Libraries/STM32H7xx_HAL_Driver/Src/stm32h7xx_hal_nand.c **** 
 212              		.loc 1 235 3 view .LVU45
 237:./Libraries/STM32H7xx_HAL_Driver/Src/stm32h7xx_hal_nand.c **** }
 213              		.loc 1 237 3 view .LVU46
 238:./Libraries/STM32H7xx_HAL_Driver/Src/stm32h7xx_hal_nand.c **** 
 214              		.loc 1 238 1 is_stmt 0 view .LVU47
 215 001a 10BD     		pop	{r4, pc}
 238:./Libraries/STM32H7xx_HAL_Driver/Src/stm32h7xx_hal_nand.c **** 
 216              		.loc 1 238 1 view .LVU48
 217              		.cfi_endproc
 218              	.LFE332:
 220              		.section	.text.HAL_NAND_ITCallback,"ax",%progbits
 221              		.align	1
ARM GAS  /tmp/cc5RRSLv.s 			page 10


 222              		.p2align 2,,3
 223              		.weak	HAL_NAND_ITCallback
 224              		.syntax unified
 225              		.thumb
 226              		.thumb_func
 227              		.fpu fpv5-d16
 229              	HAL_NAND_ITCallback:
 230              	.LFB358:
 231              		.cfi_startproc
 232              		@ args = 0, pretend = 0, frame = 0
 233              		@ frame_needed = 0, uses_anonymous_args = 0
 234              		@ link register save eliminated.
 235 0000 7047     		bx	lr
 236              		.cfi_endproc
 237              	.LFE358:
 239 0002 00BF     		.section	.text.HAL_NAND_IRQHandler,"ax",%progbits
 240              		.align	1
 241              		.p2align 2,,3
 242              		.global	HAL_NAND_IRQHandler
 243              		.syntax unified
 244              		.thumb
 245              		.thumb_func
 246              		.fpu fpv5-d16
 248              	HAL_NAND_IRQHandler:
 249              	.LVL15:
 250              	.LFB335:
 255:./Libraries/STM32H7xx_HAL_Driver/Src/stm32h7xx_hal_nand.c **** 
 256:./Libraries/STM32H7xx_HAL_Driver/Src/stm32h7xx_hal_nand.c **** /**
 257:./Libraries/STM32H7xx_HAL_Driver/Src/stm32h7xx_hal_nand.c ****   * @brief  NAND MSP DeInit
 258:./Libraries/STM32H7xx_HAL_Driver/Src/stm32h7xx_hal_nand.c ****   * @param  hnand pointer to a NAND_HandleTypeDef structure that contains
 259:./Libraries/STM32H7xx_HAL_Driver/Src/stm32h7xx_hal_nand.c ****   *                the configuration information for NAND module.
 260:./Libraries/STM32H7xx_HAL_Driver/Src/stm32h7xx_hal_nand.c ****   * @retval None
 261:./Libraries/STM32H7xx_HAL_Driver/Src/stm32h7xx_hal_nand.c ****   */
 262:./Libraries/STM32H7xx_HAL_Driver/Src/stm32h7xx_hal_nand.c **** __weak void HAL_NAND_MspDeInit(NAND_HandleTypeDef *hnand)
 263:./Libraries/STM32H7xx_HAL_Driver/Src/stm32h7xx_hal_nand.c **** {
 264:./Libraries/STM32H7xx_HAL_Driver/Src/stm32h7xx_hal_nand.c ****   /* Prevent unused argument(s) compilation warning */
 265:./Libraries/STM32H7xx_HAL_Driver/Src/stm32h7xx_hal_nand.c ****   UNUSED(hnand);
 266:./Libraries/STM32H7xx_HAL_Driver/Src/stm32h7xx_hal_nand.c **** 
 267:./Libraries/STM32H7xx_HAL_Driver/Src/stm32h7xx_hal_nand.c ****   /* NOTE : This function Should not be modified, when the callback is needed,
 268:./Libraries/STM32H7xx_HAL_Driver/Src/stm32h7xx_hal_nand.c ****             the HAL_NAND_MspDeInit could be implemented in the user file
 269:./Libraries/STM32H7xx_HAL_Driver/Src/stm32h7xx_hal_nand.c ****    */
 270:./Libraries/STM32H7xx_HAL_Driver/Src/stm32h7xx_hal_nand.c **** }
 271:./Libraries/STM32H7xx_HAL_Driver/Src/stm32h7xx_hal_nand.c **** 
 272:./Libraries/STM32H7xx_HAL_Driver/Src/stm32h7xx_hal_nand.c **** 
 273:./Libraries/STM32H7xx_HAL_Driver/Src/stm32h7xx_hal_nand.c **** /**
 274:./Libraries/STM32H7xx_HAL_Driver/Src/stm32h7xx_hal_nand.c ****   * @brief  This function handles NAND device interrupt request.
 275:./Libraries/STM32H7xx_HAL_Driver/Src/stm32h7xx_hal_nand.c ****   * @param  hnand pointer to a NAND_HandleTypeDef structure that contains
 276:./Libraries/STM32H7xx_HAL_Driver/Src/stm32h7xx_hal_nand.c ****   *                the configuration information for NAND module.
 277:./Libraries/STM32H7xx_HAL_Driver/Src/stm32h7xx_hal_nand.c ****   * @retval HAL status
 278:./Libraries/STM32H7xx_HAL_Driver/Src/stm32h7xx_hal_nand.c ****   */
 279:./Libraries/STM32H7xx_HAL_Driver/Src/stm32h7xx_hal_nand.c **** void HAL_NAND_IRQHandler(NAND_HandleTypeDef *hnand)
 280:./Libraries/STM32H7xx_HAL_Driver/Src/stm32h7xx_hal_nand.c **** {
 251              		.loc 1 280 1 is_stmt 1 view -0
 252              		.cfi_startproc
 253              		@ args = 0, pretend = 0, frame = 0
 254              		@ frame_needed = 0, uses_anonymous_args = 0
 281:./Libraries/STM32H7xx_HAL_Driver/Src/stm32h7xx_hal_nand.c ****   /* Check NAND interrupt Rising edge flag */
ARM GAS  /tmp/cc5RRSLv.s 			page 11


 282:./Libraries/STM32H7xx_HAL_Driver/Src/stm32h7xx_hal_nand.c ****   if (__FMC_NAND_GET_FLAG(hnand->Instance, hnand->Init.NandBank, FMC_FLAG_RISING_EDGE))
 255              		.loc 1 282 3 view .LVU50
 256              		.loc 1 282 7 is_stmt 0 view .LVU51
 257 0000 0368     		ldr	r3, [r0]
 258 0002 5A68     		ldr	r2, [r3, #4]
 259              		.loc 1 282 6 view .LVU52
 260 0004 D207     		lsls	r2, r2, #31
 280:./Libraries/STM32H7xx_HAL_Driver/Src/stm32h7xx_hal_nand.c ****   /* Check NAND interrupt Rising edge flag */
 261              		.loc 1 280 1 view .LVU53
 262 0006 10B5     		push	{r4, lr}
 263              	.LCFI3:
 264              		.cfi_def_cfa_offset 8
 265              		.cfi_offset 4, -8
 266              		.cfi_offset 14, -4
 280:./Libraries/STM32H7xx_HAL_Driver/Src/stm32h7xx_hal_nand.c ****   /* Check NAND interrupt Rising edge flag */
 267              		.loc 1 280 1 view .LVU54
 268 0008 0446     		mov	r4, r0
 269              		.loc 1 282 6 view .LVU55
 270 000a 24D4     		bmi	.L36
 271              	.LVL16:
 272              	.L19:
 283:./Libraries/STM32H7xx_HAL_Driver/Src/stm32h7xx_hal_nand.c ****   {
 284:./Libraries/STM32H7xx_HAL_Driver/Src/stm32h7xx_hal_nand.c ****     /* NAND interrupt callback*/
 285:./Libraries/STM32H7xx_HAL_Driver/Src/stm32h7xx_hal_nand.c **** #if (USE_HAL_NAND_REGISTER_CALLBACKS == 1)
 286:./Libraries/STM32H7xx_HAL_Driver/Src/stm32h7xx_hal_nand.c ****     hnand->ItCallback(hnand);
 287:./Libraries/STM32H7xx_HAL_Driver/Src/stm32h7xx_hal_nand.c **** #else
 288:./Libraries/STM32H7xx_HAL_Driver/Src/stm32h7xx_hal_nand.c ****     HAL_NAND_ITCallback(hnand);
 289:./Libraries/STM32H7xx_HAL_Driver/Src/stm32h7xx_hal_nand.c **** #endif /* (USE_HAL_NAND_REGISTER_CALLBACKS) */
 290:./Libraries/STM32H7xx_HAL_Driver/Src/stm32h7xx_hal_nand.c **** 
 291:./Libraries/STM32H7xx_HAL_Driver/Src/stm32h7xx_hal_nand.c ****     /* Clear NAND interrupt Rising edge pending bit */
 292:./Libraries/STM32H7xx_HAL_Driver/Src/stm32h7xx_hal_nand.c ****     __FMC_NAND_CLEAR_FLAG(hnand->Instance, FMC_FLAG_RISING_EDGE);
 293:./Libraries/STM32H7xx_HAL_Driver/Src/stm32h7xx_hal_nand.c ****   }
 294:./Libraries/STM32H7xx_HAL_Driver/Src/stm32h7xx_hal_nand.c **** 
 295:./Libraries/STM32H7xx_HAL_Driver/Src/stm32h7xx_hal_nand.c ****   /* Check NAND interrupt Level flag */
 296:./Libraries/STM32H7xx_HAL_Driver/Src/stm32h7xx_hal_nand.c ****   if (__FMC_NAND_GET_FLAG(hnand->Instance, hnand->Init.NandBank, FMC_FLAG_LEVEL))
 273              		.loc 1 296 3 is_stmt 1 view .LVU56
 274              		.loc 1 296 7 is_stmt 0 view .LVU57
 275 000c 5A68     		ldr	r2, [r3, #4]
 276              		.loc 1 296 6 view .LVU58
 277 000e 9107     		lsls	r1, r2, #30
 278 0010 18D4     		bmi	.L37
 279              	.L20:
 297:./Libraries/STM32H7xx_HAL_Driver/Src/stm32h7xx_hal_nand.c ****   {
 298:./Libraries/STM32H7xx_HAL_Driver/Src/stm32h7xx_hal_nand.c ****     /* NAND interrupt callback*/
 299:./Libraries/STM32H7xx_HAL_Driver/Src/stm32h7xx_hal_nand.c **** #if (USE_HAL_NAND_REGISTER_CALLBACKS == 1)
 300:./Libraries/STM32H7xx_HAL_Driver/Src/stm32h7xx_hal_nand.c ****     hnand->ItCallback(hnand);
 301:./Libraries/STM32H7xx_HAL_Driver/Src/stm32h7xx_hal_nand.c **** #else
 302:./Libraries/STM32H7xx_HAL_Driver/Src/stm32h7xx_hal_nand.c ****     HAL_NAND_ITCallback(hnand);
 303:./Libraries/STM32H7xx_HAL_Driver/Src/stm32h7xx_hal_nand.c **** #endif /* (USE_HAL_NAND_REGISTER_CALLBACKS) */
 304:./Libraries/STM32H7xx_HAL_Driver/Src/stm32h7xx_hal_nand.c **** 
 305:./Libraries/STM32H7xx_HAL_Driver/Src/stm32h7xx_hal_nand.c ****     /* Clear NAND interrupt Level pending bit */
 306:./Libraries/STM32H7xx_HAL_Driver/Src/stm32h7xx_hal_nand.c ****     __FMC_NAND_CLEAR_FLAG(hnand->Instance, FMC_FLAG_LEVEL);
 307:./Libraries/STM32H7xx_HAL_Driver/Src/stm32h7xx_hal_nand.c ****   }
 308:./Libraries/STM32H7xx_HAL_Driver/Src/stm32h7xx_hal_nand.c **** 
 309:./Libraries/STM32H7xx_HAL_Driver/Src/stm32h7xx_hal_nand.c ****   /* Check NAND interrupt Falling edge flag */
 310:./Libraries/STM32H7xx_HAL_Driver/Src/stm32h7xx_hal_nand.c ****   if (__FMC_NAND_GET_FLAG(hnand->Instance, hnand->Init.NandBank, FMC_FLAG_FALLING_EDGE))
 280              		.loc 1 310 3 is_stmt 1 view .LVU59
ARM GAS  /tmp/cc5RRSLv.s 			page 12


 281              		.loc 1 310 7 is_stmt 0 view .LVU60
 282 0012 5A68     		ldr	r2, [r3, #4]
 283              		.loc 1 310 6 view .LVU61
 284 0014 5207     		lsls	r2, r2, #29
 285 0016 0CD4     		bmi	.L38
 286              	.L21:
 311:./Libraries/STM32H7xx_HAL_Driver/Src/stm32h7xx_hal_nand.c ****   {
 312:./Libraries/STM32H7xx_HAL_Driver/Src/stm32h7xx_hal_nand.c ****     /* NAND interrupt callback*/
 313:./Libraries/STM32H7xx_HAL_Driver/Src/stm32h7xx_hal_nand.c **** #if (USE_HAL_NAND_REGISTER_CALLBACKS == 1)
 314:./Libraries/STM32H7xx_HAL_Driver/Src/stm32h7xx_hal_nand.c ****     hnand->ItCallback(hnand);
 315:./Libraries/STM32H7xx_HAL_Driver/Src/stm32h7xx_hal_nand.c **** #else
 316:./Libraries/STM32H7xx_HAL_Driver/Src/stm32h7xx_hal_nand.c ****     HAL_NAND_ITCallback(hnand);
 317:./Libraries/STM32H7xx_HAL_Driver/Src/stm32h7xx_hal_nand.c **** #endif /* (USE_HAL_NAND_REGISTER_CALLBACKS) */
 318:./Libraries/STM32H7xx_HAL_Driver/Src/stm32h7xx_hal_nand.c **** 
 319:./Libraries/STM32H7xx_HAL_Driver/Src/stm32h7xx_hal_nand.c ****     /* Clear NAND interrupt Falling edge pending bit */
 320:./Libraries/STM32H7xx_HAL_Driver/Src/stm32h7xx_hal_nand.c ****     __FMC_NAND_CLEAR_FLAG(hnand->Instance, FMC_FLAG_FALLING_EDGE);
 321:./Libraries/STM32H7xx_HAL_Driver/Src/stm32h7xx_hal_nand.c ****   }
 322:./Libraries/STM32H7xx_HAL_Driver/Src/stm32h7xx_hal_nand.c **** 
 323:./Libraries/STM32H7xx_HAL_Driver/Src/stm32h7xx_hal_nand.c ****   /* Check NAND interrupt FIFO empty flag */
 324:./Libraries/STM32H7xx_HAL_Driver/Src/stm32h7xx_hal_nand.c ****   if (__FMC_NAND_GET_FLAG(hnand->Instance, hnand->Init.NandBank, FMC_FLAG_FEMPT))
 287              		.loc 1 324 3 is_stmt 1 view .LVU62
 288              		.loc 1 324 7 is_stmt 0 view .LVU63
 289 0018 5B68     		ldr	r3, [r3, #4]
 290              		.loc 1 324 6 view .LVU64
 291 001a 5B06     		lsls	r3, r3, #25
 292 001c 00D4     		bmi	.L39
 325:./Libraries/STM32H7xx_HAL_Driver/Src/stm32h7xx_hal_nand.c ****   {
 326:./Libraries/STM32H7xx_HAL_Driver/Src/stm32h7xx_hal_nand.c ****     /* NAND interrupt callback*/
 327:./Libraries/STM32H7xx_HAL_Driver/Src/stm32h7xx_hal_nand.c **** #if (USE_HAL_NAND_REGISTER_CALLBACKS == 1)
 328:./Libraries/STM32H7xx_HAL_Driver/Src/stm32h7xx_hal_nand.c ****     hnand->ItCallback(hnand);
 329:./Libraries/STM32H7xx_HAL_Driver/Src/stm32h7xx_hal_nand.c **** #else
 330:./Libraries/STM32H7xx_HAL_Driver/Src/stm32h7xx_hal_nand.c ****     HAL_NAND_ITCallback(hnand);
 331:./Libraries/STM32H7xx_HAL_Driver/Src/stm32h7xx_hal_nand.c **** #endif /* (USE_HAL_NAND_REGISTER_CALLBACKS) */
 332:./Libraries/STM32H7xx_HAL_Driver/Src/stm32h7xx_hal_nand.c **** 
 333:./Libraries/STM32H7xx_HAL_Driver/Src/stm32h7xx_hal_nand.c ****     /* Clear NAND interrupt FIFO empty pending bit */
 334:./Libraries/STM32H7xx_HAL_Driver/Src/stm32h7xx_hal_nand.c ****     __FMC_NAND_CLEAR_FLAG(hnand->Instance, FMC_FLAG_FEMPT);
 335:./Libraries/STM32H7xx_HAL_Driver/Src/stm32h7xx_hal_nand.c ****   }
 336:./Libraries/STM32H7xx_HAL_Driver/Src/stm32h7xx_hal_nand.c **** 
 337:./Libraries/STM32H7xx_HAL_Driver/Src/stm32h7xx_hal_nand.c **** }
 293              		.loc 1 337 1 view .LVU65
 294 001e 10BD     		pop	{r4, pc}
 295              	.LVL17:
 296              	.L39:
 330:./Libraries/STM32H7xx_HAL_Driver/Src/stm32h7xx_hal_nand.c **** #endif /* (USE_HAL_NAND_REGISTER_CALLBACKS) */
 297              		.loc 1 330 5 is_stmt 1 view .LVU66
 298 0020 2046     		mov	r0, r4
 299 0022 FFF7FEFF 		bl	HAL_NAND_ITCallback
 300              	.LVL18:
 334:./Libraries/STM32H7xx_HAL_Driver/Src/stm32h7xx_hal_nand.c ****   }
 301              		.loc 1 334 5 view .LVU67
 302 0026 2268     		ldr	r2, [r4]
 303 0028 5368     		ldr	r3, [r2, #4]
 304 002a 23F04003 		bic	r3, r3, #64
 305 002e 5360     		str	r3, [r2, #4]
 306              		.loc 1 337 1 is_stmt 0 view .LVU68
 307 0030 10BD     		pop	{r4, pc}
 308              	.LVL19:
ARM GAS  /tmp/cc5RRSLv.s 			page 13


 309              	.L38:
 316:./Libraries/STM32H7xx_HAL_Driver/Src/stm32h7xx_hal_nand.c **** #endif /* (USE_HAL_NAND_REGISTER_CALLBACKS) */
 310              		.loc 1 316 5 is_stmt 1 view .LVU69
 311 0032 2046     		mov	r0, r4
 312 0034 FFF7FEFF 		bl	HAL_NAND_ITCallback
 313              	.LVL20:
 320:./Libraries/STM32H7xx_HAL_Driver/Src/stm32h7xx_hal_nand.c ****   }
 314              		.loc 1 320 5 view .LVU70
 315 0038 2368     		ldr	r3, [r4]
 316 003a 5A68     		ldr	r2, [r3, #4]
 317 003c 22F00402 		bic	r2, r2, #4
 318 0040 5A60     		str	r2, [r3, #4]
 319 0042 E9E7     		b	.L21
 320              	.L37:
 302:./Libraries/STM32H7xx_HAL_Driver/Src/stm32h7xx_hal_nand.c **** #endif /* (USE_HAL_NAND_REGISTER_CALLBACKS) */
 321              		.loc 1 302 5 view .LVU71
 322 0044 2046     		mov	r0, r4
 323 0046 FFF7FEFF 		bl	HAL_NAND_ITCallback
 324              	.LVL21:
 306:./Libraries/STM32H7xx_HAL_Driver/Src/stm32h7xx_hal_nand.c ****   }
 325              		.loc 1 306 5 view .LVU72
 326 004a 2368     		ldr	r3, [r4]
 327 004c 5A68     		ldr	r2, [r3, #4]
 328 004e 22F00202 		bic	r2, r2, #2
 329 0052 5A60     		str	r2, [r3, #4]
 330 0054 DDE7     		b	.L20
 331              	.LVL22:
 332              	.L36:
 288:./Libraries/STM32H7xx_HAL_Driver/Src/stm32h7xx_hal_nand.c **** #endif /* (USE_HAL_NAND_REGISTER_CALLBACKS) */
 333              		.loc 1 288 5 view .LVU73
 334 0056 FFF7FEFF 		bl	HAL_NAND_ITCallback
 335              	.LVL23:
 292:./Libraries/STM32H7xx_HAL_Driver/Src/stm32h7xx_hal_nand.c ****   }
 336              		.loc 1 292 5 view .LVU74
 337 005a 2368     		ldr	r3, [r4]
 338 005c 5A68     		ldr	r2, [r3, #4]
 339 005e 22F00102 		bic	r2, r2, #1
 340 0062 5A60     		str	r2, [r3, #4]
 341 0064 D2E7     		b	.L19
 342              		.cfi_endproc
 343              	.LFE335:
 345 0066 00BF     		.section	.text.HAL_NAND_Read_ID,"ax",%progbits
 346              		.align	1
 347              		.p2align 2,,3
 348              		.global	HAL_NAND_Read_ID
 349              		.syntax unified
 350              		.thumb
 351              		.thumb_func
 352              		.fpu fpv5-d16
 354              	HAL_NAND_Read_ID:
 355              	.LVL24:
 356              	.LFB337:
 338:./Libraries/STM32H7xx_HAL_Driver/Src/stm32h7xx_hal_nand.c **** 
 339:./Libraries/STM32H7xx_HAL_Driver/Src/stm32h7xx_hal_nand.c **** /**
 340:./Libraries/STM32H7xx_HAL_Driver/Src/stm32h7xx_hal_nand.c ****   * @brief  NAND interrupt feature callback
 341:./Libraries/STM32H7xx_HAL_Driver/Src/stm32h7xx_hal_nand.c ****   * @param  hnand pointer to a NAND_HandleTypeDef structure that contains
 342:./Libraries/STM32H7xx_HAL_Driver/Src/stm32h7xx_hal_nand.c ****   *                the configuration information for NAND module.
ARM GAS  /tmp/cc5RRSLv.s 			page 14


 343:./Libraries/STM32H7xx_HAL_Driver/Src/stm32h7xx_hal_nand.c ****   * @retval None
 344:./Libraries/STM32H7xx_HAL_Driver/Src/stm32h7xx_hal_nand.c ****   */
 345:./Libraries/STM32H7xx_HAL_Driver/Src/stm32h7xx_hal_nand.c **** __weak void HAL_NAND_ITCallback(NAND_HandleTypeDef *hnand)
 346:./Libraries/STM32H7xx_HAL_Driver/Src/stm32h7xx_hal_nand.c **** {
 347:./Libraries/STM32H7xx_HAL_Driver/Src/stm32h7xx_hal_nand.c ****   /* Prevent unused argument(s) compilation warning */
 348:./Libraries/STM32H7xx_HAL_Driver/Src/stm32h7xx_hal_nand.c ****   UNUSED(hnand);
 349:./Libraries/STM32H7xx_HAL_Driver/Src/stm32h7xx_hal_nand.c **** 
 350:./Libraries/STM32H7xx_HAL_Driver/Src/stm32h7xx_hal_nand.c ****   /* NOTE : This function Should not be modified, when the callback is needed,
 351:./Libraries/STM32H7xx_HAL_Driver/Src/stm32h7xx_hal_nand.c ****             the HAL_NAND_ITCallback could be implemented in the user file
 352:./Libraries/STM32H7xx_HAL_Driver/Src/stm32h7xx_hal_nand.c ****    */
 353:./Libraries/STM32H7xx_HAL_Driver/Src/stm32h7xx_hal_nand.c **** }
 354:./Libraries/STM32H7xx_HAL_Driver/Src/stm32h7xx_hal_nand.c **** 
 355:./Libraries/STM32H7xx_HAL_Driver/Src/stm32h7xx_hal_nand.c **** /**
 356:./Libraries/STM32H7xx_HAL_Driver/Src/stm32h7xx_hal_nand.c ****   * @}
 357:./Libraries/STM32H7xx_HAL_Driver/Src/stm32h7xx_hal_nand.c ****   */
 358:./Libraries/STM32H7xx_HAL_Driver/Src/stm32h7xx_hal_nand.c **** 
 359:./Libraries/STM32H7xx_HAL_Driver/Src/stm32h7xx_hal_nand.c **** /** @defgroup NAND_Exported_Functions_Group2 Input and Output functions
 360:./Libraries/STM32H7xx_HAL_Driver/Src/stm32h7xx_hal_nand.c ****   * @brief    Input Output and memory control functions
 361:./Libraries/STM32H7xx_HAL_Driver/Src/stm32h7xx_hal_nand.c ****   *
 362:./Libraries/STM32H7xx_HAL_Driver/Src/stm32h7xx_hal_nand.c ****   @verbatim
 363:./Libraries/STM32H7xx_HAL_Driver/Src/stm32h7xx_hal_nand.c ****   ==============================================================================
 364:./Libraries/STM32H7xx_HAL_Driver/Src/stm32h7xx_hal_nand.c ****                     ##### NAND Input and Output functions #####
 365:./Libraries/STM32H7xx_HAL_Driver/Src/stm32h7xx_hal_nand.c ****   ==============================================================================
 366:./Libraries/STM32H7xx_HAL_Driver/Src/stm32h7xx_hal_nand.c ****   [..]
 367:./Libraries/STM32H7xx_HAL_Driver/Src/stm32h7xx_hal_nand.c ****     This section provides functions allowing to use and control the NAND
 368:./Libraries/STM32H7xx_HAL_Driver/Src/stm32h7xx_hal_nand.c ****     memory
 369:./Libraries/STM32H7xx_HAL_Driver/Src/stm32h7xx_hal_nand.c **** 
 370:./Libraries/STM32H7xx_HAL_Driver/Src/stm32h7xx_hal_nand.c **** @endverbatim
 371:./Libraries/STM32H7xx_HAL_Driver/Src/stm32h7xx_hal_nand.c ****   * @{
 372:./Libraries/STM32H7xx_HAL_Driver/Src/stm32h7xx_hal_nand.c ****   */
 373:./Libraries/STM32H7xx_HAL_Driver/Src/stm32h7xx_hal_nand.c **** 
 374:./Libraries/STM32H7xx_HAL_Driver/Src/stm32h7xx_hal_nand.c **** /**
 375:./Libraries/STM32H7xx_HAL_Driver/Src/stm32h7xx_hal_nand.c ****   * @brief  Read the NAND memory electronic signature
 376:./Libraries/STM32H7xx_HAL_Driver/Src/stm32h7xx_hal_nand.c ****   * @param  hnand pointer to a NAND_HandleTypeDef structure that contains
 377:./Libraries/STM32H7xx_HAL_Driver/Src/stm32h7xx_hal_nand.c ****   *                the configuration information for NAND module.
 378:./Libraries/STM32H7xx_HAL_Driver/Src/stm32h7xx_hal_nand.c ****   * @param  pNAND_ID NAND ID structure
 379:./Libraries/STM32H7xx_HAL_Driver/Src/stm32h7xx_hal_nand.c ****   * @retval HAL status
 380:./Libraries/STM32H7xx_HAL_Driver/Src/stm32h7xx_hal_nand.c ****   */
 381:./Libraries/STM32H7xx_HAL_Driver/Src/stm32h7xx_hal_nand.c **** HAL_StatusTypeDef HAL_NAND_Read_ID(NAND_HandleTypeDef *hnand, NAND_IDTypeDef *pNAND_ID)
 382:./Libraries/STM32H7xx_HAL_Driver/Src/stm32h7xx_hal_nand.c **** {
 357              		.loc 1 382 1 view -0
 358              		.cfi_startproc
 359              		@ args = 0, pretend = 0, frame = 8
 360              		@ frame_needed = 0, uses_anonymous_args = 0
 361              		@ link register save eliminated.
 383:./Libraries/STM32H7xx_HAL_Driver/Src/stm32h7xx_hal_nand.c ****   __IO uint32_t data = 0;
 362              		.loc 1 383 3 view .LVU76
 382:./Libraries/STM32H7xx_HAL_Driver/Src/stm32h7xx_hal_nand.c ****   __IO uint32_t data = 0;
 363              		.loc 1 382 1 is_stmt 0 view .LVU77
 364 0000 30B4     		push	{r4, r5}
 365              	.LCFI4:
 366              		.cfi_def_cfa_offset 8
 367              		.cfi_offset 4, -8
 368              		.cfi_offset 5, -4
 369              		.loc 1 383 17 view .LVU78
 370 0002 0023     		movs	r3, #0
 382:./Libraries/STM32H7xx_HAL_Driver/Src/stm32h7xx_hal_nand.c ****   __IO uint32_t data = 0;
ARM GAS  /tmp/cc5RRSLv.s 			page 15


 371              		.loc 1 382 1 view .LVU79
 372 0004 82B0     		sub	sp, sp, #8
 373              	.LCFI5:
 374              		.cfi_def_cfa_offset 16
 375              		.loc 1 383 17 view .LVU80
 376 0006 0093     		str	r3, [sp]
 384:./Libraries/STM32H7xx_HAL_Driver/Src/stm32h7xx_hal_nand.c ****   __IO uint32_t data1 = 0;
 377              		.loc 1 384 3 is_stmt 1 view .LVU81
 378              		.loc 1 384 17 is_stmt 0 view .LVU82
 379 0008 0193     		str	r3, [sp, #4]
 385:./Libraries/STM32H7xx_HAL_Driver/Src/stm32h7xx_hal_nand.c ****   uint32_t deviceaddress;
 380              		.loc 1 385 3 is_stmt 1 view .LVU83
 386:./Libraries/STM32H7xx_HAL_Driver/Src/stm32h7xx_hal_nand.c **** 
 387:./Libraries/STM32H7xx_HAL_Driver/Src/stm32h7xx_hal_nand.c ****   /* Check the NAND controller state */
 388:./Libraries/STM32H7xx_HAL_Driver/Src/stm32h7xx_hal_nand.c ****   if (hnand->State == HAL_NAND_STATE_BUSY)
 381              		.loc 1 388 3 view .LVU84
 382              		.loc 1 388 12 is_stmt 0 view .LVU85
 383 000a 90F82120 		ldrb	r2, [r0, #33]	@ zero_extendqisi2
 384              		.loc 1 388 6 view .LVU86
 385 000e 022A     		cmp	r2, #2
 386              		.loc 1 388 12 view .LVU87
 387 0010 D4B2     		uxtb	r4, r2
 388              		.loc 1 388 6 view .LVU88
 389 0012 31D0     		beq	.L41
 389:./Libraries/STM32H7xx_HAL_Driver/Src/stm32h7xx_hal_nand.c ****   {
 390:./Libraries/STM32H7xx_HAL_Driver/Src/stm32h7xx_hal_nand.c ****     return HAL_BUSY;
 391:./Libraries/STM32H7xx_HAL_Driver/Src/stm32h7xx_hal_nand.c ****   }
 392:./Libraries/STM32H7xx_HAL_Driver/Src/stm32h7xx_hal_nand.c ****   else if (hnand->State == HAL_NAND_STATE_READY)
 390              		.loc 1 392 8 is_stmt 1 view .LVU89
 391              		.loc 1 392 17 is_stmt 0 view .LVU90
 392 0014 90F82120 		ldrb	r2, [r0, #33]	@ zero_extendqisi2
 393              		.loc 1 392 11 view .LVU91
 394 0018 012A     		cmp	r2, #1
 395              		.loc 1 392 17 view .LVU92
 396 001a D4B2     		uxtb	r4, r2
 397              		.loc 1 392 11 view .LVU93
 398 001c 30D1     		bne	.L44
 393:./Libraries/STM32H7xx_HAL_Driver/Src/stm32h7xx_hal_nand.c ****   {
 394:./Libraries/STM32H7xx_HAL_Driver/Src/stm32h7xx_hal_nand.c ****     /* Process Locked */
 395:./Libraries/STM32H7xx_HAL_Driver/Src/stm32h7xx_hal_nand.c ****     __HAL_LOCK(hnand);
 399              		.loc 1 395 5 is_stmt 1 view .LVU94
 400              		.loc 1 395 5 view .LVU95
 401 001e 90F82020 		ldrb	r2, [r0, #32]	@ zero_extendqisi2
 402 0022 012A     		cmp	r2, #1
 403 0024 41D0     		beq	.L45
 404              		.loc 1 395 5 discriminator 2 view .LVU96
 405 0026 80F82040 		strb	r4, [r0, #32]
 406              		.loc 1 395 5 discriminator 2 view .LVU97
 396:./Libraries/STM32H7xx_HAL_Driver/Src/stm32h7xx_hal_nand.c **** 
 397:./Libraries/STM32H7xx_HAL_Driver/Src/stm32h7xx_hal_nand.c ****     /* Update the NAND controller state */
 398:./Libraries/STM32H7xx_HAL_Driver/Src/stm32h7xx_hal_nand.c ****     hnand->State = HAL_NAND_STATE_BUSY;
 407              		.loc 1 398 5 discriminator 2 view .LVU98
 408              		.loc 1 398 18 is_stmt 0 discriminator 2 view .LVU99
 409 002a 0225     		movs	r5, #2
 399:./Libraries/STM32H7xx_HAL_Driver/Src/stm32h7xx_hal_nand.c **** 
 400:./Libraries/STM32H7xx_HAL_Driver/Src/stm32h7xx_hal_nand.c ****     /* Identify the device address */
 401:./Libraries/STM32H7xx_HAL_Driver/Src/stm32h7xx_hal_nand.c ****     deviceaddress = NAND_DEVICE;
ARM GAS  /tmp/cc5RRSLv.s 			page 16


 402:./Libraries/STM32H7xx_HAL_Driver/Src/stm32h7xx_hal_nand.c **** 
 403:./Libraries/STM32H7xx_HAL_Driver/Src/stm32h7xx_hal_nand.c ****     /* Send Read ID command sequence */
 404:./Libraries/STM32H7xx_HAL_Driver/Src/stm32h7xx_hal_nand.c ****     *(__IO uint8_t *)((uint32_t)(deviceaddress | CMD_AREA))  = NAND_CMD_READID;
 410              		.loc 1 404 62 discriminator 2 view .LVU100
 411 002c 204A     		ldr	r2, .L51
 412 002e 9024     		movs	r4, #144
 398:./Libraries/STM32H7xx_HAL_Driver/Src/stm32h7xx_hal_nand.c **** 
 413              		.loc 1 398 18 discriminator 2 view .LVU101
 414 0030 80F82150 		strb	r5, [r0, #33]
 401:./Libraries/STM32H7xx_HAL_Driver/Src/stm32h7xx_hal_nand.c **** 
 415              		.loc 1 401 5 is_stmt 1 discriminator 2 view .LVU102
 416              	.LVL25:
 417              		.loc 1 404 5 discriminator 2 view .LVU103
 418              		.loc 1 404 62 is_stmt 0 discriminator 2 view .LVU104
 419 0034 1470     		strb	r4, [r2]
 405:./Libraries/STM32H7xx_HAL_Driver/Src/stm32h7xx_hal_nand.c ****     __DSB();
 420              		.loc 1 405 5 is_stmt 1 discriminator 2 view .LVU105
 421              	.LBB680:
 422              	.LBI680:
 423              		.file 2 "./Libraries/CMSIS/Core/Include/cmsis_gcc.h"
   1:./Libraries/CMSIS/Core/Include/cmsis_gcc.h **** /**************************************************************************//**
   2:./Libraries/CMSIS/Core/Include/cmsis_gcc.h ****  * @file     cmsis_gcc.h
   3:./Libraries/CMSIS/Core/Include/cmsis_gcc.h ****  * @brief    CMSIS compiler GCC header file
   4:./Libraries/CMSIS/Core/Include/cmsis_gcc.h ****  * @version  V5.2.0
   5:./Libraries/CMSIS/Core/Include/cmsis_gcc.h ****  * @date     08. May 2019
   6:./Libraries/CMSIS/Core/Include/cmsis_gcc.h ****  ******************************************************************************/
   7:./Libraries/CMSIS/Core/Include/cmsis_gcc.h **** /*
   8:./Libraries/CMSIS/Core/Include/cmsis_gcc.h ****  * Copyright (c) 2009-2019 Arm Limited. All rights reserved.
   9:./Libraries/CMSIS/Core/Include/cmsis_gcc.h ****  *
  10:./Libraries/CMSIS/Core/Include/cmsis_gcc.h ****  * SPDX-License-Identifier: Apache-2.0
  11:./Libraries/CMSIS/Core/Include/cmsis_gcc.h ****  *
  12:./Libraries/CMSIS/Core/Include/cmsis_gcc.h ****  * Licensed under the Apache License, Version 2.0 (the License); you may
  13:./Libraries/CMSIS/Core/Include/cmsis_gcc.h ****  * not use this file except in compliance with the License.
  14:./Libraries/CMSIS/Core/Include/cmsis_gcc.h ****  * You may obtain a copy of the License at
  15:./Libraries/CMSIS/Core/Include/cmsis_gcc.h ****  *
  16:./Libraries/CMSIS/Core/Include/cmsis_gcc.h ****  * www.apache.org/licenses/LICENSE-2.0
  17:./Libraries/CMSIS/Core/Include/cmsis_gcc.h ****  *
  18:./Libraries/CMSIS/Core/Include/cmsis_gcc.h ****  * Unless required by applicable law or agreed to in writing, software
  19:./Libraries/CMSIS/Core/Include/cmsis_gcc.h ****  * distributed under the License is distributed on an AS IS BASIS, WITHOUT
  20:./Libraries/CMSIS/Core/Include/cmsis_gcc.h ****  * WARRANTIES OR CONDITIONS OF ANY KIND, either express or implied.
  21:./Libraries/CMSIS/Core/Include/cmsis_gcc.h ****  * See the License for the specific language governing permissions and
  22:./Libraries/CMSIS/Core/Include/cmsis_gcc.h ****  * limitations under the License.
  23:./Libraries/CMSIS/Core/Include/cmsis_gcc.h ****  */
  24:./Libraries/CMSIS/Core/Include/cmsis_gcc.h **** 
  25:./Libraries/CMSIS/Core/Include/cmsis_gcc.h **** #ifndef __CMSIS_GCC_H
  26:./Libraries/CMSIS/Core/Include/cmsis_gcc.h **** #define __CMSIS_GCC_H
  27:./Libraries/CMSIS/Core/Include/cmsis_gcc.h **** 
  28:./Libraries/CMSIS/Core/Include/cmsis_gcc.h **** /* ignore some GCC warnings */
  29:./Libraries/CMSIS/Core/Include/cmsis_gcc.h **** #pragma GCC diagnostic push
  30:./Libraries/CMSIS/Core/Include/cmsis_gcc.h **** #pragma GCC diagnostic ignored "-Wsign-conversion"
  31:./Libraries/CMSIS/Core/Include/cmsis_gcc.h **** #pragma GCC diagnostic ignored "-Wconversion"
  32:./Libraries/CMSIS/Core/Include/cmsis_gcc.h **** #pragma GCC diagnostic ignored "-Wunused-parameter"
  33:./Libraries/CMSIS/Core/Include/cmsis_gcc.h **** 
  34:./Libraries/CMSIS/Core/Include/cmsis_gcc.h **** /* Fallback for __has_builtin */
  35:./Libraries/CMSIS/Core/Include/cmsis_gcc.h **** #ifndef __has_builtin
  36:./Libraries/CMSIS/Core/Include/cmsis_gcc.h ****   #define __has_builtin(x) (0)
  37:./Libraries/CMSIS/Core/Include/cmsis_gcc.h **** #endif
ARM GAS  /tmp/cc5RRSLv.s 			page 17


  38:./Libraries/CMSIS/Core/Include/cmsis_gcc.h **** 
  39:./Libraries/CMSIS/Core/Include/cmsis_gcc.h **** /* CMSIS compiler specific defines */
  40:./Libraries/CMSIS/Core/Include/cmsis_gcc.h **** #ifndef   __ASM
  41:./Libraries/CMSIS/Core/Include/cmsis_gcc.h ****   #define __ASM                                  __asm
  42:./Libraries/CMSIS/Core/Include/cmsis_gcc.h **** #endif
  43:./Libraries/CMSIS/Core/Include/cmsis_gcc.h **** #ifndef   __INLINE
  44:./Libraries/CMSIS/Core/Include/cmsis_gcc.h ****   #define __INLINE                               inline
  45:./Libraries/CMSIS/Core/Include/cmsis_gcc.h **** #endif
  46:./Libraries/CMSIS/Core/Include/cmsis_gcc.h **** #ifndef   __STATIC_INLINE
  47:./Libraries/CMSIS/Core/Include/cmsis_gcc.h ****   #define __STATIC_INLINE                        static inline
  48:./Libraries/CMSIS/Core/Include/cmsis_gcc.h **** #endif
  49:./Libraries/CMSIS/Core/Include/cmsis_gcc.h **** #ifndef   __STATIC_FORCEINLINE                 
  50:./Libraries/CMSIS/Core/Include/cmsis_gcc.h ****   #define __STATIC_FORCEINLINE                   __attribute__((always_inline)) static inline
  51:./Libraries/CMSIS/Core/Include/cmsis_gcc.h **** #endif                                           
  52:./Libraries/CMSIS/Core/Include/cmsis_gcc.h **** #ifndef   __NO_RETURN
  53:./Libraries/CMSIS/Core/Include/cmsis_gcc.h ****   #define __NO_RETURN                            __attribute__((__noreturn__))
  54:./Libraries/CMSIS/Core/Include/cmsis_gcc.h **** #endif
  55:./Libraries/CMSIS/Core/Include/cmsis_gcc.h **** #ifndef   __USED
  56:./Libraries/CMSIS/Core/Include/cmsis_gcc.h ****   #define __USED                                 __attribute__((used))
  57:./Libraries/CMSIS/Core/Include/cmsis_gcc.h **** #endif
  58:./Libraries/CMSIS/Core/Include/cmsis_gcc.h **** #ifndef   __WEAK
  59:./Libraries/CMSIS/Core/Include/cmsis_gcc.h ****   #define __WEAK                                 __attribute__((weak))
  60:./Libraries/CMSIS/Core/Include/cmsis_gcc.h **** #endif
  61:./Libraries/CMSIS/Core/Include/cmsis_gcc.h **** #ifndef   __PACKED
  62:./Libraries/CMSIS/Core/Include/cmsis_gcc.h ****   #define __PACKED                               __attribute__((packed, aligned(1)))
  63:./Libraries/CMSIS/Core/Include/cmsis_gcc.h **** #endif
  64:./Libraries/CMSIS/Core/Include/cmsis_gcc.h **** #ifndef   __PACKED_STRUCT
  65:./Libraries/CMSIS/Core/Include/cmsis_gcc.h ****   #define __PACKED_STRUCT                        struct __attribute__((packed, aligned(1)))
  66:./Libraries/CMSIS/Core/Include/cmsis_gcc.h **** #endif
  67:./Libraries/CMSIS/Core/Include/cmsis_gcc.h **** #ifndef   __PACKED_UNION
  68:./Libraries/CMSIS/Core/Include/cmsis_gcc.h ****   #define __PACKED_UNION                         union __attribute__((packed, aligned(1)))
  69:./Libraries/CMSIS/Core/Include/cmsis_gcc.h **** #endif
  70:./Libraries/CMSIS/Core/Include/cmsis_gcc.h **** #ifndef   __UNALIGNED_UINT32        /* deprecated */
  71:./Libraries/CMSIS/Core/Include/cmsis_gcc.h ****   #pragma GCC diagnostic push
  72:./Libraries/CMSIS/Core/Include/cmsis_gcc.h ****   #pragma GCC diagnostic ignored "-Wpacked"
  73:./Libraries/CMSIS/Core/Include/cmsis_gcc.h ****   #pragma GCC diagnostic ignored "-Wattributes"
  74:./Libraries/CMSIS/Core/Include/cmsis_gcc.h ****   struct __attribute__((packed)) T_UINT32 { uint32_t v; };
  75:./Libraries/CMSIS/Core/Include/cmsis_gcc.h ****   #pragma GCC diagnostic pop
  76:./Libraries/CMSIS/Core/Include/cmsis_gcc.h ****   #define __UNALIGNED_UINT32(x)                  (((struct T_UINT32 *)(x))->v)
  77:./Libraries/CMSIS/Core/Include/cmsis_gcc.h **** #endif
  78:./Libraries/CMSIS/Core/Include/cmsis_gcc.h **** #ifndef   __UNALIGNED_UINT16_WRITE
  79:./Libraries/CMSIS/Core/Include/cmsis_gcc.h ****   #pragma GCC diagnostic push
  80:./Libraries/CMSIS/Core/Include/cmsis_gcc.h ****   #pragma GCC diagnostic ignored "-Wpacked"
  81:./Libraries/CMSIS/Core/Include/cmsis_gcc.h ****   #pragma GCC diagnostic ignored "-Wattributes"
  82:./Libraries/CMSIS/Core/Include/cmsis_gcc.h ****   __PACKED_STRUCT T_UINT16_WRITE { uint16_t v; };
  83:./Libraries/CMSIS/Core/Include/cmsis_gcc.h ****   #pragma GCC diagnostic pop
  84:./Libraries/CMSIS/Core/Include/cmsis_gcc.h ****   #define __UNALIGNED_UINT16_WRITE(addr, val)    (void)((((struct T_UINT16_WRITE *)(void *)(addr))-
  85:./Libraries/CMSIS/Core/Include/cmsis_gcc.h **** #endif
  86:./Libraries/CMSIS/Core/Include/cmsis_gcc.h **** #ifndef   __UNALIGNED_UINT16_READ
  87:./Libraries/CMSIS/Core/Include/cmsis_gcc.h ****   #pragma GCC diagnostic push
  88:./Libraries/CMSIS/Core/Include/cmsis_gcc.h ****   #pragma GCC diagnostic ignored "-Wpacked"
  89:./Libraries/CMSIS/Core/Include/cmsis_gcc.h ****   #pragma GCC diagnostic ignored "-Wattributes"
  90:./Libraries/CMSIS/Core/Include/cmsis_gcc.h ****   __PACKED_STRUCT T_UINT16_READ { uint16_t v; };
  91:./Libraries/CMSIS/Core/Include/cmsis_gcc.h ****   #pragma GCC diagnostic pop
  92:./Libraries/CMSIS/Core/Include/cmsis_gcc.h ****   #define __UNALIGNED_UINT16_READ(addr)          (((const struct T_UINT16_READ *)(const void *)(add
  93:./Libraries/CMSIS/Core/Include/cmsis_gcc.h **** #endif
  94:./Libraries/CMSIS/Core/Include/cmsis_gcc.h **** #ifndef   __UNALIGNED_UINT32_WRITE
ARM GAS  /tmp/cc5RRSLv.s 			page 18


  95:./Libraries/CMSIS/Core/Include/cmsis_gcc.h ****   #pragma GCC diagnostic push
  96:./Libraries/CMSIS/Core/Include/cmsis_gcc.h ****   #pragma GCC diagnostic ignored "-Wpacked"
  97:./Libraries/CMSIS/Core/Include/cmsis_gcc.h ****   #pragma GCC diagnostic ignored "-Wattributes"
  98:./Libraries/CMSIS/Core/Include/cmsis_gcc.h ****   __PACKED_STRUCT T_UINT32_WRITE { uint32_t v; };
  99:./Libraries/CMSIS/Core/Include/cmsis_gcc.h ****   #pragma GCC diagnostic pop
 100:./Libraries/CMSIS/Core/Include/cmsis_gcc.h ****   #define __UNALIGNED_UINT32_WRITE(addr, val)    (void)((((struct T_UINT32_WRITE *)(void *)(addr))-
 101:./Libraries/CMSIS/Core/Include/cmsis_gcc.h **** #endif
 102:./Libraries/CMSIS/Core/Include/cmsis_gcc.h **** #ifndef   __UNALIGNED_UINT32_READ
 103:./Libraries/CMSIS/Core/Include/cmsis_gcc.h ****   #pragma GCC diagnostic push
 104:./Libraries/CMSIS/Core/Include/cmsis_gcc.h ****   #pragma GCC diagnostic ignored "-Wpacked"
 105:./Libraries/CMSIS/Core/Include/cmsis_gcc.h ****   #pragma GCC diagnostic ignored "-Wattributes"
 106:./Libraries/CMSIS/Core/Include/cmsis_gcc.h ****   __PACKED_STRUCT T_UINT32_READ { uint32_t v; };
 107:./Libraries/CMSIS/Core/Include/cmsis_gcc.h ****   #pragma GCC diagnostic pop
 108:./Libraries/CMSIS/Core/Include/cmsis_gcc.h ****   #define __UNALIGNED_UINT32_READ(addr)          (((const struct T_UINT32_READ *)(const void *)(add
 109:./Libraries/CMSIS/Core/Include/cmsis_gcc.h **** #endif
 110:./Libraries/CMSIS/Core/Include/cmsis_gcc.h **** #ifndef   __ALIGNED
 111:./Libraries/CMSIS/Core/Include/cmsis_gcc.h ****   #define __ALIGNED(x)                           __attribute__((aligned(x)))
 112:./Libraries/CMSIS/Core/Include/cmsis_gcc.h **** #endif
 113:./Libraries/CMSIS/Core/Include/cmsis_gcc.h **** #ifndef   __RESTRICT
 114:./Libraries/CMSIS/Core/Include/cmsis_gcc.h ****   #define __RESTRICT                             __restrict
 115:./Libraries/CMSIS/Core/Include/cmsis_gcc.h **** #endif
 116:./Libraries/CMSIS/Core/Include/cmsis_gcc.h **** #ifndef   __COMPILER_BARRIER
 117:./Libraries/CMSIS/Core/Include/cmsis_gcc.h ****   #define __COMPILER_BARRIER()                   __ASM volatile("":::"memory")
 118:./Libraries/CMSIS/Core/Include/cmsis_gcc.h **** #endif
 119:./Libraries/CMSIS/Core/Include/cmsis_gcc.h **** 
 120:./Libraries/CMSIS/Core/Include/cmsis_gcc.h **** /* #########################  Startup and Lowlevel Init  ######################## */
 121:./Libraries/CMSIS/Core/Include/cmsis_gcc.h **** 
 122:./Libraries/CMSIS/Core/Include/cmsis_gcc.h **** #ifndef __PROGRAM_START
 123:./Libraries/CMSIS/Core/Include/cmsis_gcc.h **** 
 124:./Libraries/CMSIS/Core/Include/cmsis_gcc.h **** /**
 125:./Libraries/CMSIS/Core/Include/cmsis_gcc.h ****   \brief   Initializes data and bss sections
 126:./Libraries/CMSIS/Core/Include/cmsis_gcc.h ****   \details This default implementations initialized all data and additional bss
 127:./Libraries/CMSIS/Core/Include/cmsis_gcc.h ****            sections relying on .copy.table and .zero.table specified properly
 128:./Libraries/CMSIS/Core/Include/cmsis_gcc.h ****            in the used linker script.
 129:./Libraries/CMSIS/Core/Include/cmsis_gcc.h ****   
 130:./Libraries/CMSIS/Core/Include/cmsis_gcc.h ****  */
 131:./Libraries/CMSIS/Core/Include/cmsis_gcc.h **** __STATIC_FORCEINLINE __NO_RETURN void __cmsis_start(void)
 132:./Libraries/CMSIS/Core/Include/cmsis_gcc.h **** {
 133:./Libraries/CMSIS/Core/Include/cmsis_gcc.h ****   extern void _start(void) __NO_RETURN;
 134:./Libraries/CMSIS/Core/Include/cmsis_gcc.h ****   
 135:./Libraries/CMSIS/Core/Include/cmsis_gcc.h ****   typedef struct {
 136:./Libraries/CMSIS/Core/Include/cmsis_gcc.h ****     uint32_t const* src;
 137:./Libraries/CMSIS/Core/Include/cmsis_gcc.h ****     uint32_t* dest;
 138:./Libraries/CMSIS/Core/Include/cmsis_gcc.h ****     uint32_t  wlen;
 139:./Libraries/CMSIS/Core/Include/cmsis_gcc.h ****   } __copy_table_t;
 140:./Libraries/CMSIS/Core/Include/cmsis_gcc.h ****   
 141:./Libraries/CMSIS/Core/Include/cmsis_gcc.h ****   typedef struct {
 142:./Libraries/CMSIS/Core/Include/cmsis_gcc.h ****     uint32_t* dest;
 143:./Libraries/CMSIS/Core/Include/cmsis_gcc.h ****     uint32_t  wlen;
 144:./Libraries/CMSIS/Core/Include/cmsis_gcc.h ****   } __zero_table_t;
 145:./Libraries/CMSIS/Core/Include/cmsis_gcc.h ****   
 146:./Libraries/CMSIS/Core/Include/cmsis_gcc.h ****   extern const __copy_table_t __copy_table_start__;
 147:./Libraries/CMSIS/Core/Include/cmsis_gcc.h ****   extern const __copy_table_t __copy_table_end__;
 148:./Libraries/CMSIS/Core/Include/cmsis_gcc.h ****   extern const __zero_table_t __zero_table_start__;
 149:./Libraries/CMSIS/Core/Include/cmsis_gcc.h ****   extern const __zero_table_t __zero_table_end__;
 150:./Libraries/CMSIS/Core/Include/cmsis_gcc.h **** 
 151:./Libraries/CMSIS/Core/Include/cmsis_gcc.h ****   for (__copy_table_t const* pTable = &__copy_table_start__; pTable < &__copy_table_end__; ++pTable
ARM GAS  /tmp/cc5RRSLv.s 			page 19


 152:./Libraries/CMSIS/Core/Include/cmsis_gcc.h ****     for(uint32_t i=0u; i<pTable->wlen; ++i) {
 153:./Libraries/CMSIS/Core/Include/cmsis_gcc.h ****       pTable->dest[i] = pTable->src[i];
 154:./Libraries/CMSIS/Core/Include/cmsis_gcc.h ****     }
 155:./Libraries/CMSIS/Core/Include/cmsis_gcc.h ****   }
 156:./Libraries/CMSIS/Core/Include/cmsis_gcc.h ****  
 157:./Libraries/CMSIS/Core/Include/cmsis_gcc.h ****   for (__zero_table_t const* pTable = &__zero_table_start__; pTable < &__zero_table_end__; ++pTable
 158:./Libraries/CMSIS/Core/Include/cmsis_gcc.h ****     for(uint32_t i=0u; i<pTable->wlen; ++i) {
 159:./Libraries/CMSIS/Core/Include/cmsis_gcc.h ****       pTable->dest[i] = 0u;
 160:./Libraries/CMSIS/Core/Include/cmsis_gcc.h ****     }
 161:./Libraries/CMSIS/Core/Include/cmsis_gcc.h ****   }
 162:./Libraries/CMSIS/Core/Include/cmsis_gcc.h ****  
 163:./Libraries/CMSIS/Core/Include/cmsis_gcc.h ****   _start();
 164:./Libraries/CMSIS/Core/Include/cmsis_gcc.h **** }
 165:./Libraries/CMSIS/Core/Include/cmsis_gcc.h ****   
 166:./Libraries/CMSIS/Core/Include/cmsis_gcc.h **** #define __PROGRAM_START           __cmsis_start
 167:./Libraries/CMSIS/Core/Include/cmsis_gcc.h **** #endif
 168:./Libraries/CMSIS/Core/Include/cmsis_gcc.h **** 
 169:./Libraries/CMSIS/Core/Include/cmsis_gcc.h **** #ifndef __INITIAL_SP
 170:./Libraries/CMSIS/Core/Include/cmsis_gcc.h **** #define __INITIAL_SP              __StackTop
 171:./Libraries/CMSIS/Core/Include/cmsis_gcc.h **** #endif
 172:./Libraries/CMSIS/Core/Include/cmsis_gcc.h **** 
 173:./Libraries/CMSIS/Core/Include/cmsis_gcc.h **** #ifndef __STACK_LIMIT
 174:./Libraries/CMSIS/Core/Include/cmsis_gcc.h **** #define __STACK_LIMIT             __StackLimit
 175:./Libraries/CMSIS/Core/Include/cmsis_gcc.h **** #endif
 176:./Libraries/CMSIS/Core/Include/cmsis_gcc.h **** 
 177:./Libraries/CMSIS/Core/Include/cmsis_gcc.h **** #ifndef __VECTOR_TABLE
 178:./Libraries/CMSIS/Core/Include/cmsis_gcc.h **** #define __VECTOR_TABLE            __Vectors
 179:./Libraries/CMSIS/Core/Include/cmsis_gcc.h **** #endif
 180:./Libraries/CMSIS/Core/Include/cmsis_gcc.h **** 
 181:./Libraries/CMSIS/Core/Include/cmsis_gcc.h **** #ifndef __VECTOR_TABLE_ATTRIBUTE
 182:./Libraries/CMSIS/Core/Include/cmsis_gcc.h **** #define __VECTOR_TABLE_ATTRIBUTE  __attribute((used, section(".vectors")))
 183:./Libraries/CMSIS/Core/Include/cmsis_gcc.h **** #endif
 184:./Libraries/CMSIS/Core/Include/cmsis_gcc.h **** 
 185:./Libraries/CMSIS/Core/Include/cmsis_gcc.h **** /* ###########################  Core Function Access  ########################### */
 186:./Libraries/CMSIS/Core/Include/cmsis_gcc.h **** /** \ingroup  CMSIS_Core_FunctionInterface
 187:./Libraries/CMSIS/Core/Include/cmsis_gcc.h ****     \defgroup CMSIS_Core_RegAccFunctions CMSIS Core Register Access Functions
 188:./Libraries/CMSIS/Core/Include/cmsis_gcc.h ****   @{
 189:./Libraries/CMSIS/Core/Include/cmsis_gcc.h ****  */
 190:./Libraries/CMSIS/Core/Include/cmsis_gcc.h **** 
 191:./Libraries/CMSIS/Core/Include/cmsis_gcc.h **** /**
 192:./Libraries/CMSIS/Core/Include/cmsis_gcc.h ****   \brief   Enable IRQ Interrupts
 193:./Libraries/CMSIS/Core/Include/cmsis_gcc.h ****   \details Enables IRQ interrupts by clearing the I-bit in the CPSR.
 194:./Libraries/CMSIS/Core/Include/cmsis_gcc.h ****            Can only be executed in Privileged modes.
 195:./Libraries/CMSIS/Core/Include/cmsis_gcc.h ****  */
 196:./Libraries/CMSIS/Core/Include/cmsis_gcc.h **** __STATIC_FORCEINLINE void __enable_irq(void)
 197:./Libraries/CMSIS/Core/Include/cmsis_gcc.h **** {
 198:./Libraries/CMSIS/Core/Include/cmsis_gcc.h ****   __ASM volatile ("cpsie i" : : : "memory");
 199:./Libraries/CMSIS/Core/Include/cmsis_gcc.h **** }
 200:./Libraries/CMSIS/Core/Include/cmsis_gcc.h **** 
 201:./Libraries/CMSIS/Core/Include/cmsis_gcc.h **** 
 202:./Libraries/CMSIS/Core/Include/cmsis_gcc.h **** /**
 203:./Libraries/CMSIS/Core/Include/cmsis_gcc.h ****   \brief   Disable IRQ Interrupts
 204:./Libraries/CMSIS/Core/Include/cmsis_gcc.h ****   \details Disables IRQ interrupts by setting the I-bit in the CPSR.
 205:./Libraries/CMSIS/Core/Include/cmsis_gcc.h ****            Can only be executed in Privileged modes.
 206:./Libraries/CMSIS/Core/Include/cmsis_gcc.h ****  */
 207:./Libraries/CMSIS/Core/Include/cmsis_gcc.h **** __STATIC_FORCEINLINE void __disable_irq(void)
 208:./Libraries/CMSIS/Core/Include/cmsis_gcc.h **** {
ARM GAS  /tmp/cc5RRSLv.s 			page 20


 209:./Libraries/CMSIS/Core/Include/cmsis_gcc.h ****   __ASM volatile ("cpsid i" : : : "memory");
 210:./Libraries/CMSIS/Core/Include/cmsis_gcc.h **** }
 211:./Libraries/CMSIS/Core/Include/cmsis_gcc.h **** 
 212:./Libraries/CMSIS/Core/Include/cmsis_gcc.h **** 
 213:./Libraries/CMSIS/Core/Include/cmsis_gcc.h **** /**
 214:./Libraries/CMSIS/Core/Include/cmsis_gcc.h ****   \brief   Get Control Register
 215:./Libraries/CMSIS/Core/Include/cmsis_gcc.h ****   \details Returns the content of the Control Register.
 216:./Libraries/CMSIS/Core/Include/cmsis_gcc.h ****   \return               Control Register value
 217:./Libraries/CMSIS/Core/Include/cmsis_gcc.h ****  */
 218:./Libraries/CMSIS/Core/Include/cmsis_gcc.h **** __STATIC_FORCEINLINE uint32_t __get_CONTROL(void)
 219:./Libraries/CMSIS/Core/Include/cmsis_gcc.h **** {
 220:./Libraries/CMSIS/Core/Include/cmsis_gcc.h ****   uint32_t result;
 221:./Libraries/CMSIS/Core/Include/cmsis_gcc.h **** 
 222:./Libraries/CMSIS/Core/Include/cmsis_gcc.h ****   __ASM volatile ("MRS %0, control" : "=r" (result) );
 223:./Libraries/CMSIS/Core/Include/cmsis_gcc.h ****   return(result);
 224:./Libraries/CMSIS/Core/Include/cmsis_gcc.h **** }
 225:./Libraries/CMSIS/Core/Include/cmsis_gcc.h **** 
 226:./Libraries/CMSIS/Core/Include/cmsis_gcc.h **** 
 227:./Libraries/CMSIS/Core/Include/cmsis_gcc.h **** #if (defined (__ARM_FEATURE_CMSE ) && (__ARM_FEATURE_CMSE == 3))
 228:./Libraries/CMSIS/Core/Include/cmsis_gcc.h **** /**
 229:./Libraries/CMSIS/Core/Include/cmsis_gcc.h ****   \brief   Get Control Register (non-secure)
 230:./Libraries/CMSIS/Core/Include/cmsis_gcc.h ****   \details Returns the content of the non-secure Control Register when in secure mode.
 231:./Libraries/CMSIS/Core/Include/cmsis_gcc.h ****   \return               non-secure Control Register value
 232:./Libraries/CMSIS/Core/Include/cmsis_gcc.h ****  */
 233:./Libraries/CMSIS/Core/Include/cmsis_gcc.h **** __STATIC_FORCEINLINE uint32_t __TZ_get_CONTROL_NS(void)
 234:./Libraries/CMSIS/Core/Include/cmsis_gcc.h **** {
 235:./Libraries/CMSIS/Core/Include/cmsis_gcc.h ****   uint32_t result;
 236:./Libraries/CMSIS/Core/Include/cmsis_gcc.h **** 
 237:./Libraries/CMSIS/Core/Include/cmsis_gcc.h ****   __ASM volatile ("MRS %0, control_ns" : "=r" (result) );
 238:./Libraries/CMSIS/Core/Include/cmsis_gcc.h ****   return(result);
 239:./Libraries/CMSIS/Core/Include/cmsis_gcc.h **** }
 240:./Libraries/CMSIS/Core/Include/cmsis_gcc.h **** #endif
 241:./Libraries/CMSIS/Core/Include/cmsis_gcc.h **** 
 242:./Libraries/CMSIS/Core/Include/cmsis_gcc.h **** 
 243:./Libraries/CMSIS/Core/Include/cmsis_gcc.h **** /**
 244:./Libraries/CMSIS/Core/Include/cmsis_gcc.h ****   \brief   Set Control Register
 245:./Libraries/CMSIS/Core/Include/cmsis_gcc.h ****   \details Writes the given value to the Control Register.
 246:./Libraries/CMSIS/Core/Include/cmsis_gcc.h ****   \param [in]    control  Control Register value to set
 247:./Libraries/CMSIS/Core/Include/cmsis_gcc.h ****  */
 248:./Libraries/CMSIS/Core/Include/cmsis_gcc.h **** __STATIC_FORCEINLINE void __set_CONTROL(uint32_t control)
 249:./Libraries/CMSIS/Core/Include/cmsis_gcc.h **** {
 250:./Libraries/CMSIS/Core/Include/cmsis_gcc.h ****   __ASM volatile ("MSR control, %0" : : "r" (control) : "memory");
 251:./Libraries/CMSIS/Core/Include/cmsis_gcc.h **** }
 252:./Libraries/CMSIS/Core/Include/cmsis_gcc.h **** 
 253:./Libraries/CMSIS/Core/Include/cmsis_gcc.h **** 
 254:./Libraries/CMSIS/Core/Include/cmsis_gcc.h **** #if (defined (__ARM_FEATURE_CMSE ) && (__ARM_FEATURE_CMSE == 3))
 255:./Libraries/CMSIS/Core/Include/cmsis_gcc.h **** /**
 256:./Libraries/CMSIS/Core/Include/cmsis_gcc.h ****   \brief   Set Control Register (non-secure)
 257:./Libraries/CMSIS/Core/Include/cmsis_gcc.h ****   \details Writes the given value to the non-secure Control Register when in secure state.
 258:./Libraries/CMSIS/Core/Include/cmsis_gcc.h ****   \param [in]    control  Control Register value to set
 259:./Libraries/CMSIS/Core/Include/cmsis_gcc.h ****  */
 260:./Libraries/CMSIS/Core/Include/cmsis_gcc.h **** __STATIC_FORCEINLINE void __TZ_set_CONTROL_NS(uint32_t control)
 261:./Libraries/CMSIS/Core/Include/cmsis_gcc.h **** {
 262:./Libraries/CMSIS/Core/Include/cmsis_gcc.h ****   __ASM volatile ("MSR control_ns, %0" : : "r" (control) : "memory");
 263:./Libraries/CMSIS/Core/Include/cmsis_gcc.h **** }
 264:./Libraries/CMSIS/Core/Include/cmsis_gcc.h **** #endif
 265:./Libraries/CMSIS/Core/Include/cmsis_gcc.h **** 
ARM GAS  /tmp/cc5RRSLv.s 			page 21


 266:./Libraries/CMSIS/Core/Include/cmsis_gcc.h **** 
 267:./Libraries/CMSIS/Core/Include/cmsis_gcc.h **** /**
 268:./Libraries/CMSIS/Core/Include/cmsis_gcc.h ****   \brief   Get IPSR Register
 269:./Libraries/CMSIS/Core/Include/cmsis_gcc.h ****   \details Returns the content of the IPSR Register.
 270:./Libraries/CMSIS/Core/Include/cmsis_gcc.h ****   \return               IPSR Register value
 271:./Libraries/CMSIS/Core/Include/cmsis_gcc.h ****  */
 272:./Libraries/CMSIS/Core/Include/cmsis_gcc.h **** __STATIC_FORCEINLINE uint32_t __get_IPSR(void)
 273:./Libraries/CMSIS/Core/Include/cmsis_gcc.h **** {
 274:./Libraries/CMSIS/Core/Include/cmsis_gcc.h ****   uint32_t result;
 275:./Libraries/CMSIS/Core/Include/cmsis_gcc.h **** 
 276:./Libraries/CMSIS/Core/Include/cmsis_gcc.h ****   __ASM volatile ("MRS %0, ipsr" : "=r" (result) );
 277:./Libraries/CMSIS/Core/Include/cmsis_gcc.h ****   return(result);
 278:./Libraries/CMSIS/Core/Include/cmsis_gcc.h **** }
 279:./Libraries/CMSIS/Core/Include/cmsis_gcc.h **** 
 280:./Libraries/CMSIS/Core/Include/cmsis_gcc.h **** 
 281:./Libraries/CMSIS/Core/Include/cmsis_gcc.h **** /**
 282:./Libraries/CMSIS/Core/Include/cmsis_gcc.h ****   \brief   Get APSR Register
 283:./Libraries/CMSIS/Core/Include/cmsis_gcc.h ****   \details Returns the content of the APSR Register.
 284:./Libraries/CMSIS/Core/Include/cmsis_gcc.h ****   \return               APSR Register value
 285:./Libraries/CMSIS/Core/Include/cmsis_gcc.h ****  */
 286:./Libraries/CMSIS/Core/Include/cmsis_gcc.h **** __STATIC_FORCEINLINE uint32_t __get_APSR(void)
 287:./Libraries/CMSIS/Core/Include/cmsis_gcc.h **** {
 288:./Libraries/CMSIS/Core/Include/cmsis_gcc.h ****   uint32_t result;
 289:./Libraries/CMSIS/Core/Include/cmsis_gcc.h **** 
 290:./Libraries/CMSIS/Core/Include/cmsis_gcc.h ****   __ASM volatile ("MRS %0, apsr" : "=r" (result) );
 291:./Libraries/CMSIS/Core/Include/cmsis_gcc.h ****   return(result);
 292:./Libraries/CMSIS/Core/Include/cmsis_gcc.h **** }
 293:./Libraries/CMSIS/Core/Include/cmsis_gcc.h **** 
 294:./Libraries/CMSIS/Core/Include/cmsis_gcc.h **** 
 295:./Libraries/CMSIS/Core/Include/cmsis_gcc.h **** /**
 296:./Libraries/CMSIS/Core/Include/cmsis_gcc.h ****   \brief   Get xPSR Register
 297:./Libraries/CMSIS/Core/Include/cmsis_gcc.h ****   \details Returns the content of the xPSR Register.
 298:./Libraries/CMSIS/Core/Include/cmsis_gcc.h ****   \return               xPSR Register value
 299:./Libraries/CMSIS/Core/Include/cmsis_gcc.h ****  */
 300:./Libraries/CMSIS/Core/Include/cmsis_gcc.h **** __STATIC_FORCEINLINE uint32_t __get_xPSR(void)
 301:./Libraries/CMSIS/Core/Include/cmsis_gcc.h **** {
 302:./Libraries/CMSIS/Core/Include/cmsis_gcc.h ****   uint32_t result;
 303:./Libraries/CMSIS/Core/Include/cmsis_gcc.h **** 
 304:./Libraries/CMSIS/Core/Include/cmsis_gcc.h ****   __ASM volatile ("MRS %0, xpsr" : "=r" (result) );
 305:./Libraries/CMSIS/Core/Include/cmsis_gcc.h ****   return(result);
 306:./Libraries/CMSIS/Core/Include/cmsis_gcc.h **** }
 307:./Libraries/CMSIS/Core/Include/cmsis_gcc.h **** 
 308:./Libraries/CMSIS/Core/Include/cmsis_gcc.h **** 
 309:./Libraries/CMSIS/Core/Include/cmsis_gcc.h **** /**
 310:./Libraries/CMSIS/Core/Include/cmsis_gcc.h ****   \brief   Get Process Stack Pointer
 311:./Libraries/CMSIS/Core/Include/cmsis_gcc.h ****   \details Returns the current value of the Process Stack Pointer (PSP).
 312:./Libraries/CMSIS/Core/Include/cmsis_gcc.h ****   \return               PSP Register value
 313:./Libraries/CMSIS/Core/Include/cmsis_gcc.h ****  */
 314:./Libraries/CMSIS/Core/Include/cmsis_gcc.h **** __STATIC_FORCEINLINE uint32_t __get_PSP(void)
 315:./Libraries/CMSIS/Core/Include/cmsis_gcc.h **** {
 316:./Libraries/CMSIS/Core/Include/cmsis_gcc.h ****   uint32_t result;
 317:./Libraries/CMSIS/Core/Include/cmsis_gcc.h **** 
 318:./Libraries/CMSIS/Core/Include/cmsis_gcc.h ****   __ASM volatile ("MRS %0, psp"  : "=r" (result) );
 319:./Libraries/CMSIS/Core/Include/cmsis_gcc.h ****   return(result);
 320:./Libraries/CMSIS/Core/Include/cmsis_gcc.h **** }
 321:./Libraries/CMSIS/Core/Include/cmsis_gcc.h **** 
 322:./Libraries/CMSIS/Core/Include/cmsis_gcc.h **** 
ARM GAS  /tmp/cc5RRSLv.s 			page 22


 323:./Libraries/CMSIS/Core/Include/cmsis_gcc.h **** #if (defined (__ARM_FEATURE_CMSE ) && (__ARM_FEATURE_CMSE == 3))
 324:./Libraries/CMSIS/Core/Include/cmsis_gcc.h **** /**
 325:./Libraries/CMSIS/Core/Include/cmsis_gcc.h ****   \brief   Get Process Stack Pointer (non-secure)
 326:./Libraries/CMSIS/Core/Include/cmsis_gcc.h ****   \details Returns the current value of the non-secure Process Stack Pointer (PSP) when in secure s
 327:./Libraries/CMSIS/Core/Include/cmsis_gcc.h ****   \return               PSP Register value
 328:./Libraries/CMSIS/Core/Include/cmsis_gcc.h ****  */
 329:./Libraries/CMSIS/Core/Include/cmsis_gcc.h **** __STATIC_FORCEINLINE uint32_t __TZ_get_PSP_NS(void)
 330:./Libraries/CMSIS/Core/Include/cmsis_gcc.h **** {
 331:./Libraries/CMSIS/Core/Include/cmsis_gcc.h ****   uint32_t result;
 332:./Libraries/CMSIS/Core/Include/cmsis_gcc.h **** 
 333:./Libraries/CMSIS/Core/Include/cmsis_gcc.h ****   __ASM volatile ("MRS %0, psp_ns"  : "=r" (result) );
 334:./Libraries/CMSIS/Core/Include/cmsis_gcc.h ****   return(result);
 335:./Libraries/CMSIS/Core/Include/cmsis_gcc.h **** }
 336:./Libraries/CMSIS/Core/Include/cmsis_gcc.h **** #endif
 337:./Libraries/CMSIS/Core/Include/cmsis_gcc.h **** 
 338:./Libraries/CMSIS/Core/Include/cmsis_gcc.h **** 
 339:./Libraries/CMSIS/Core/Include/cmsis_gcc.h **** /**
 340:./Libraries/CMSIS/Core/Include/cmsis_gcc.h ****   \brief   Set Process Stack Pointer
 341:./Libraries/CMSIS/Core/Include/cmsis_gcc.h ****   \details Assigns the given value to the Process Stack Pointer (PSP).
 342:./Libraries/CMSIS/Core/Include/cmsis_gcc.h ****   \param [in]    topOfProcStack  Process Stack Pointer value to set
 343:./Libraries/CMSIS/Core/Include/cmsis_gcc.h ****  */
 344:./Libraries/CMSIS/Core/Include/cmsis_gcc.h **** __STATIC_FORCEINLINE void __set_PSP(uint32_t topOfProcStack)
 345:./Libraries/CMSIS/Core/Include/cmsis_gcc.h **** {
 346:./Libraries/CMSIS/Core/Include/cmsis_gcc.h ****   __ASM volatile ("MSR psp, %0" : : "r" (topOfProcStack) : );
 347:./Libraries/CMSIS/Core/Include/cmsis_gcc.h **** }
 348:./Libraries/CMSIS/Core/Include/cmsis_gcc.h **** 
 349:./Libraries/CMSIS/Core/Include/cmsis_gcc.h **** 
 350:./Libraries/CMSIS/Core/Include/cmsis_gcc.h **** #if (defined (__ARM_FEATURE_CMSE ) && (__ARM_FEATURE_CMSE == 3))
 351:./Libraries/CMSIS/Core/Include/cmsis_gcc.h **** /**
 352:./Libraries/CMSIS/Core/Include/cmsis_gcc.h ****   \brief   Set Process Stack Pointer (non-secure)
 353:./Libraries/CMSIS/Core/Include/cmsis_gcc.h ****   \details Assigns the given value to the non-secure Process Stack Pointer (PSP) when in secure sta
 354:./Libraries/CMSIS/Core/Include/cmsis_gcc.h ****   \param [in]    topOfProcStack  Process Stack Pointer value to set
 355:./Libraries/CMSIS/Core/Include/cmsis_gcc.h ****  */
 356:./Libraries/CMSIS/Core/Include/cmsis_gcc.h **** __STATIC_FORCEINLINE void __TZ_set_PSP_NS(uint32_t topOfProcStack)
 357:./Libraries/CMSIS/Core/Include/cmsis_gcc.h **** {
 358:./Libraries/CMSIS/Core/Include/cmsis_gcc.h ****   __ASM volatile ("MSR psp_ns, %0" : : "r" (topOfProcStack) : );
 359:./Libraries/CMSIS/Core/Include/cmsis_gcc.h **** }
 360:./Libraries/CMSIS/Core/Include/cmsis_gcc.h **** #endif
 361:./Libraries/CMSIS/Core/Include/cmsis_gcc.h **** 
 362:./Libraries/CMSIS/Core/Include/cmsis_gcc.h **** 
 363:./Libraries/CMSIS/Core/Include/cmsis_gcc.h **** /**
 364:./Libraries/CMSIS/Core/Include/cmsis_gcc.h ****   \brief   Get Main Stack Pointer
 365:./Libraries/CMSIS/Core/Include/cmsis_gcc.h ****   \details Returns the current value of the Main Stack Pointer (MSP).
 366:./Libraries/CMSIS/Core/Include/cmsis_gcc.h ****   \return               MSP Register value
 367:./Libraries/CMSIS/Core/Include/cmsis_gcc.h ****  */
 368:./Libraries/CMSIS/Core/Include/cmsis_gcc.h **** __STATIC_FORCEINLINE uint32_t __get_MSP(void)
 369:./Libraries/CMSIS/Core/Include/cmsis_gcc.h **** {
 370:./Libraries/CMSIS/Core/Include/cmsis_gcc.h ****   uint32_t result;
 371:./Libraries/CMSIS/Core/Include/cmsis_gcc.h **** 
 372:./Libraries/CMSIS/Core/Include/cmsis_gcc.h ****   __ASM volatile ("MRS %0, msp" : "=r" (result) );
 373:./Libraries/CMSIS/Core/Include/cmsis_gcc.h ****   return(result);
 374:./Libraries/CMSIS/Core/Include/cmsis_gcc.h **** }
 375:./Libraries/CMSIS/Core/Include/cmsis_gcc.h **** 
 376:./Libraries/CMSIS/Core/Include/cmsis_gcc.h **** 
 377:./Libraries/CMSIS/Core/Include/cmsis_gcc.h **** #if (defined (__ARM_FEATURE_CMSE ) && (__ARM_FEATURE_CMSE == 3))
 378:./Libraries/CMSIS/Core/Include/cmsis_gcc.h **** /**
 379:./Libraries/CMSIS/Core/Include/cmsis_gcc.h ****   \brief   Get Main Stack Pointer (non-secure)
ARM GAS  /tmp/cc5RRSLv.s 			page 23


 380:./Libraries/CMSIS/Core/Include/cmsis_gcc.h ****   \details Returns the current value of the non-secure Main Stack Pointer (MSP) when in secure stat
 381:./Libraries/CMSIS/Core/Include/cmsis_gcc.h ****   \return               MSP Register value
 382:./Libraries/CMSIS/Core/Include/cmsis_gcc.h ****  */
 383:./Libraries/CMSIS/Core/Include/cmsis_gcc.h **** __STATIC_FORCEINLINE uint32_t __TZ_get_MSP_NS(void)
 384:./Libraries/CMSIS/Core/Include/cmsis_gcc.h **** {
 385:./Libraries/CMSIS/Core/Include/cmsis_gcc.h ****   uint32_t result;
 386:./Libraries/CMSIS/Core/Include/cmsis_gcc.h **** 
 387:./Libraries/CMSIS/Core/Include/cmsis_gcc.h ****   __ASM volatile ("MRS %0, msp_ns" : "=r" (result) );
 388:./Libraries/CMSIS/Core/Include/cmsis_gcc.h ****   return(result);
 389:./Libraries/CMSIS/Core/Include/cmsis_gcc.h **** }
 390:./Libraries/CMSIS/Core/Include/cmsis_gcc.h **** #endif
 391:./Libraries/CMSIS/Core/Include/cmsis_gcc.h **** 
 392:./Libraries/CMSIS/Core/Include/cmsis_gcc.h **** 
 393:./Libraries/CMSIS/Core/Include/cmsis_gcc.h **** /**
 394:./Libraries/CMSIS/Core/Include/cmsis_gcc.h ****   \brief   Set Main Stack Pointer
 395:./Libraries/CMSIS/Core/Include/cmsis_gcc.h ****   \details Assigns the given value to the Main Stack Pointer (MSP).
 396:./Libraries/CMSIS/Core/Include/cmsis_gcc.h ****   \param [in]    topOfMainStack  Main Stack Pointer value to set
 397:./Libraries/CMSIS/Core/Include/cmsis_gcc.h ****  */
 398:./Libraries/CMSIS/Core/Include/cmsis_gcc.h **** __STATIC_FORCEINLINE void __set_MSP(uint32_t topOfMainStack)
 399:./Libraries/CMSIS/Core/Include/cmsis_gcc.h **** {
 400:./Libraries/CMSIS/Core/Include/cmsis_gcc.h ****   __ASM volatile ("MSR msp, %0" : : "r" (topOfMainStack) : );
 401:./Libraries/CMSIS/Core/Include/cmsis_gcc.h **** }
 402:./Libraries/CMSIS/Core/Include/cmsis_gcc.h **** 
 403:./Libraries/CMSIS/Core/Include/cmsis_gcc.h **** 
 404:./Libraries/CMSIS/Core/Include/cmsis_gcc.h **** #if (defined (__ARM_FEATURE_CMSE ) && (__ARM_FEATURE_CMSE == 3))
 405:./Libraries/CMSIS/Core/Include/cmsis_gcc.h **** /**
 406:./Libraries/CMSIS/Core/Include/cmsis_gcc.h ****   \brief   Set Main Stack Pointer (non-secure)
 407:./Libraries/CMSIS/Core/Include/cmsis_gcc.h ****   \details Assigns the given value to the non-secure Main Stack Pointer (MSP) when in secure state.
 408:./Libraries/CMSIS/Core/Include/cmsis_gcc.h ****   \param [in]    topOfMainStack  Main Stack Pointer value to set
 409:./Libraries/CMSIS/Core/Include/cmsis_gcc.h ****  */
 410:./Libraries/CMSIS/Core/Include/cmsis_gcc.h **** __STATIC_FORCEINLINE void __TZ_set_MSP_NS(uint32_t topOfMainStack)
 411:./Libraries/CMSIS/Core/Include/cmsis_gcc.h **** {
 412:./Libraries/CMSIS/Core/Include/cmsis_gcc.h ****   __ASM volatile ("MSR msp_ns, %0" : : "r" (topOfMainStack) : );
 413:./Libraries/CMSIS/Core/Include/cmsis_gcc.h **** }
 414:./Libraries/CMSIS/Core/Include/cmsis_gcc.h **** #endif
 415:./Libraries/CMSIS/Core/Include/cmsis_gcc.h **** 
 416:./Libraries/CMSIS/Core/Include/cmsis_gcc.h **** 
 417:./Libraries/CMSIS/Core/Include/cmsis_gcc.h **** #if (defined (__ARM_FEATURE_CMSE ) && (__ARM_FEATURE_CMSE == 3))
 418:./Libraries/CMSIS/Core/Include/cmsis_gcc.h **** /**
 419:./Libraries/CMSIS/Core/Include/cmsis_gcc.h ****   \brief   Get Stack Pointer (non-secure)
 420:./Libraries/CMSIS/Core/Include/cmsis_gcc.h ****   \details Returns the current value of the non-secure Stack Pointer (SP) when in secure state.
 421:./Libraries/CMSIS/Core/Include/cmsis_gcc.h ****   \return               SP Register value
 422:./Libraries/CMSIS/Core/Include/cmsis_gcc.h ****  */
 423:./Libraries/CMSIS/Core/Include/cmsis_gcc.h **** __STATIC_FORCEINLINE uint32_t __TZ_get_SP_NS(void)
 424:./Libraries/CMSIS/Core/Include/cmsis_gcc.h **** {
 425:./Libraries/CMSIS/Core/Include/cmsis_gcc.h ****   uint32_t result;
 426:./Libraries/CMSIS/Core/Include/cmsis_gcc.h **** 
 427:./Libraries/CMSIS/Core/Include/cmsis_gcc.h ****   __ASM volatile ("MRS %0, sp_ns" : "=r" (result) );
 428:./Libraries/CMSIS/Core/Include/cmsis_gcc.h ****   return(result);
 429:./Libraries/CMSIS/Core/Include/cmsis_gcc.h **** }
 430:./Libraries/CMSIS/Core/Include/cmsis_gcc.h **** 
 431:./Libraries/CMSIS/Core/Include/cmsis_gcc.h **** 
 432:./Libraries/CMSIS/Core/Include/cmsis_gcc.h **** /**
 433:./Libraries/CMSIS/Core/Include/cmsis_gcc.h ****   \brief   Set Stack Pointer (non-secure)
 434:./Libraries/CMSIS/Core/Include/cmsis_gcc.h ****   \details Assigns the given value to the non-secure Stack Pointer (SP) when in secure state.
 435:./Libraries/CMSIS/Core/Include/cmsis_gcc.h ****   \param [in]    topOfStack  Stack Pointer value to set
 436:./Libraries/CMSIS/Core/Include/cmsis_gcc.h ****  */
ARM GAS  /tmp/cc5RRSLv.s 			page 24


 437:./Libraries/CMSIS/Core/Include/cmsis_gcc.h **** __STATIC_FORCEINLINE void __TZ_set_SP_NS(uint32_t topOfStack)
 438:./Libraries/CMSIS/Core/Include/cmsis_gcc.h **** {
 439:./Libraries/CMSIS/Core/Include/cmsis_gcc.h ****   __ASM volatile ("MSR sp_ns, %0" : : "r" (topOfStack) : );
 440:./Libraries/CMSIS/Core/Include/cmsis_gcc.h **** }
 441:./Libraries/CMSIS/Core/Include/cmsis_gcc.h **** #endif
 442:./Libraries/CMSIS/Core/Include/cmsis_gcc.h **** 
 443:./Libraries/CMSIS/Core/Include/cmsis_gcc.h **** 
 444:./Libraries/CMSIS/Core/Include/cmsis_gcc.h **** /**
 445:./Libraries/CMSIS/Core/Include/cmsis_gcc.h ****   \brief   Get Priority Mask
 446:./Libraries/CMSIS/Core/Include/cmsis_gcc.h ****   \details Returns the current state of the priority mask bit from the Priority Mask Register.
 447:./Libraries/CMSIS/Core/Include/cmsis_gcc.h ****   \return               Priority Mask value
 448:./Libraries/CMSIS/Core/Include/cmsis_gcc.h ****  */
 449:./Libraries/CMSIS/Core/Include/cmsis_gcc.h **** __STATIC_FORCEINLINE uint32_t __get_PRIMASK(void)
 450:./Libraries/CMSIS/Core/Include/cmsis_gcc.h **** {
 451:./Libraries/CMSIS/Core/Include/cmsis_gcc.h ****   uint32_t result;
 452:./Libraries/CMSIS/Core/Include/cmsis_gcc.h **** 
 453:./Libraries/CMSIS/Core/Include/cmsis_gcc.h ****   __ASM volatile ("MRS %0, primask" : "=r" (result) :: "memory");
 454:./Libraries/CMSIS/Core/Include/cmsis_gcc.h ****   return(result);
 455:./Libraries/CMSIS/Core/Include/cmsis_gcc.h **** }
 456:./Libraries/CMSIS/Core/Include/cmsis_gcc.h **** 
 457:./Libraries/CMSIS/Core/Include/cmsis_gcc.h **** 
 458:./Libraries/CMSIS/Core/Include/cmsis_gcc.h **** #if (defined (__ARM_FEATURE_CMSE ) && (__ARM_FEATURE_CMSE == 3))
 459:./Libraries/CMSIS/Core/Include/cmsis_gcc.h **** /**
 460:./Libraries/CMSIS/Core/Include/cmsis_gcc.h ****   \brief   Get Priority Mask (non-secure)
 461:./Libraries/CMSIS/Core/Include/cmsis_gcc.h ****   \details Returns the current state of the non-secure priority mask bit from the Priority Mask Reg
 462:./Libraries/CMSIS/Core/Include/cmsis_gcc.h ****   \return               Priority Mask value
 463:./Libraries/CMSIS/Core/Include/cmsis_gcc.h ****  */
 464:./Libraries/CMSIS/Core/Include/cmsis_gcc.h **** __STATIC_FORCEINLINE uint32_t __TZ_get_PRIMASK_NS(void)
 465:./Libraries/CMSIS/Core/Include/cmsis_gcc.h **** {
 466:./Libraries/CMSIS/Core/Include/cmsis_gcc.h ****   uint32_t result;
 467:./Libraries/CMSIS/Core/Include/cmsis_gcc.h **** 
 468:./Libraries/CMSIS/Core/Include/cmsis_gcc.h ****   __ASM volatile ("MRS %0, primask_ns" : "=r" (result) :: "memory");
 469:./Libraries/CMSIS/Core/Include/cmsis_gcc.h ****   return(result);
 470:./Libraries/CMSIS/Core/Include/cmsis_gcc.h **** }
 471:./Libraries/CMSIS/Core/Include/cmsis_gcc.h **** #endif
 472:./Libraries/CMSIS/Core/Include/cmsis_gcc.h **** 
 473:./Libraries/CMSIS/Core/Include/cmsis_gcc.h **** 
 474:./Libraries/CMSIS/Core/Include/cmsis_gcc.h **** /**
 475:./Libraries/CMSIS/Core/Include/cmsis_gcc.h ****   \brief   Set Priority Mask
 476:./Libraries/CMSIS/Core/Include/cmsis_gcc.h ****   \details Assigns the given value to the Priority Mask Register.
 477:./Libraries/CMSIS/Core/Include/cmsis_gcc.h ****   \param [in]    priMask  Priority Mask
 478:./Libraries/CMSIS/Core/Include/cmsis_gcc.h ****  */
 479:./Libraries/CMSIS/Core/Include/cmsis_gcc.h **** __STATIC_FORCEINLINE void __set_PRIMASK(uint32_t priMask)
 480:./Libraries/CMSIS/Core/Include/cmsis_gcc.h **** {
 481:./Libraries/CMSIS/Core/Include/cmsis_gcc.h ****   __ASM volatile ("MSR primask, %0" : : "r" (priMask) : "memory");
 482:./Libraries/CMSIS/Core/Include/cmsis_gcc.h **** }
 483:./Libraries/CMSIS/Core/Include/cmsis_gcc.h **** 
 484:./Libraries/CMSIS/Core/Include/cmsis_gcc.h **** 
 485:./Libraries/CMSIS/Core/Include/cmsis_gcc.h **** #if (defined (__ARM_FEATURE_CMSE ) && (__ARM_FEATURE_CMSE == 3))
 486:./Libraries/CMSIS/Core/Include/cmsis_gcc.h **** /**
 487:./Libraries/CMSIS/Core/Include/cmsis_gcc.h ****   \brief   Set Priority Mask (non-secure)
 488:./Libraries/CMSIS/Core/Include/cmsis_gcc.h ****   \details Assigns the given value to the non-secure Priority Mask Register when in secure state.
 489:./Libraries/CMSIS/Core/Include/cmsis_gcc.h ****   \param [in]    priMask  Priority Mask
 490:./Libraries/CMSIS/Core/Include/cmsis_gcc.h ****  */
 491:./Libraries/CMSIS/Core/Include/cmsis_gcc.h **** __STATIC_FORCEINLINE void __TZ_set_PRIMASK_NS(uint32_t priMask)
 492:./Libraries/CMSIS/Core/Include/cmsis_gcc.h **** {
 493:./Libraries/CMSIS/Core/Include/cmsis_gcc.h ****   __ASM volatile ("MSR primask_ns, %0" : : "r" (priMask) : "memory");
ARM GAS  /tmp/cc5RRSLv.s 			page 25


 494:./Libraries/CMSIS/Core/Include/cmsis_gcc.h **** }
 495:./Libraries/CMSIS/Core/Include/cmsis_gcc.h **** #endif
 496:./Libraries/CMSIS/Core/Include/cmsis_gcc.h **** 
 497:./Libraries/CMSIS/Core/Include/cmsis_gcc.h **** 
 498:./Libraries/CMSIS/Core/Include/cmsis_gcc.h **** #if ((defined (__ARM_ARCH_7M__      ) && (__ARM_ARCH_7M__      == 1)) || \
 499:./Libraries/CMSIS/Core/Include/cmsis_gcc.h ****      (defined (__ARM_ARCH_7EM__     ) && (__ARM_ARCH_7EM__     == 1)) || \
 500:./Libraries/CMSIS/Core/Include/cmsis_gcc.h ****      (defined (__ARM_ARCH_8M_MAIN__ ) && (__ARM_ARCH_8M_MAIN__ == 1))    )
 501:./Libraries/CMSIS/Core/Include/cmsis_gcc.h **** /**
 502:./Libraries/CMSIS/Core/Include/cmsis_gcc.h ****   \brief   Enable FIQ
 503:./Libraries/CMSIS/Core/Include/cmsis_gcc.h ****   \details Enables FIQ interrupts by clearing the F-bit in the CPSR.
 504:./Libraries/CMSIS/Core/Include/cmsis_gcc.h ****            Can only be executed in Privileged modes.
 505:./Libraries/CMSIS/Core/Include/cmsis_gcc.h ****  */
 506:./Libraries/CMSIS/Core/Include/cmsis_gcc.h **** __STATIC_FORCEINLINE void __enable_fault_irq(void)
 507:./Libraries/CMSIS/Core/Include/cmsis_gcc.h **** {
 508:./Libraries/CMSIS/Core/Include/cmsis_gcc.h ****   __ASM volatile ("cpsie f" : : : "memory");
 509:./Libraries/CMSIS/Core/Include/cmsis_gcc.h **** }
 510:./Libraries/CMSIS/Core/Include/cmsis_gcc.h **** 
 511:./Libraries/CMSIS/Core/Include/cmsis_gcc.h **** 
 512:./Libraries/CMSIS/Core/Include/cmsis_gcc.h **** /**
 513:./Libraries/CMSIS/Core/Include/cmsis_gcc.h ****   \brief   Disable FIQ
 514:./Libraries/CMSIS/Core/Include/cmsis_gcc.h ****   \details Disables FIQ interrupts by setting the F-bit in the CPSR.
 515:./Libraries/CMSIS/Core/Include/cmsis_gcc.h ****            Can only be executed in Privileged modes.
 516:./Libraries/CMSIS/Core/Include/cmsis_gcc.h ****  */
 517:./Libraries/CMSIS/Core/Include/cmsis_gcc.h **** __STATIC_FORCEINLINE void __disable_fault_irq(void)
 518:./Libraries/CMSIS/Core/Include/cmsis_gcc.h **** {
 519:./Libraries/CMSIS/Core/Include/cmsis_gcc.h ****   __ASM volatile ("cpsid f" : : : "memory");
 520:./Libraries/CMSIS/Core/Include/cmsis_gcc.h **** }
 521:./Libraries/CMSIS/Core/Include/cmsis_gcc.h **** 
 522:./Libraries/CMSIS/Core/Include/cmsis_gcc.h **** 
 523:./Libraries/CMSIS/Core/Include/cmsis_gcc.h **** /**
 524:./Libraries/CMSIS/Core/Include/cmsis_gcc.h ****   \brief   Get Base Priority
 525:./Libraries/CMSIS/Core/Include/cmsis_gcc.h ****   \details Returns the current value of the Base Priority register.
 526:./Libraries/CMSIS/Core/Include/cmsis_gcc.h ****   \return               Base Priority register value
 527:./Libraries/CMSIS/Core/Include/cmsis_gcc.h ****  */
 528:./Libraries/CMSIS/Core/Include/cmsis_gcc.h **** __STATIC_FORCEINLINE uint32_t __get_BASEPRI(void)
 529:./Libraries/CMSIS/Core/Include/cmsis_gcc.h **** {
 530:./Libraries/CMSIS/Core/Include/cmsis_gcc.h ****   uint32_t result;
 531:./Libraries/CMSIS/Core/Include/cmsis_gcc.h **** 
 532:./Libraries/CMSIS/Core/Include/cmsis_gcc.h ****   __ASM volatile ("MRS %0, basepri" : "=r" (result) );
 533:./Libraries/CMSIS/Core/Include/cmsis_gcc.h ****   return(result);
 534:./Libraries/CMSIS/Core/Include/cmsis_gcc.h **** }
 535:./Libraries/CMSIS/Core/Include/cmsis_gcc.h **** 
 536:./Libraries/CMSIS/Core/Include/cmsis_gcc.h **** 
 537:./Libraries/CMSIS/Core/Include/cmsis_gcc.h **** #if (defined (__ARM_FEATURE_CMSE ) && (__ARM_FEATURE_CMSE == 3))
 538:./Libraries/CMSIS/Core/Include/cmsis_gcc.h **** /**
 539:./Libraries/CMSIS/Core/Include/cmsis_gcc.h ****   \brief   Get Base Priority (non-secure)
 540:./Libraries/CMSIS/Core/Include/cmsis_gcc.h ****   \details Returns the current value of the non-secure Base Priority register when in secure state.
 541:./Libraries/CMSIS/Core/Include/cmsis_gcc.h ****   \return               Base Priority register value
 542:./Libraries/CMSIS/Core/Include/cmsis_gcc.h ****  */
 543:./Libraries/CMSIS/Core/Include/cmsis_gcc.h **** __STATIC_FORCEINLINE uint32_t __TZ_get_BASEPRI_NS(void)
 544:./Libraries/CMSIS/Core/Include/cmsis_gcc.h **** {
 545:./Libraries/CMSIS/Core/Include/cmsis_gcc.h ****   uint32_t result;
 546:./Libraries/CMSIS/Core/Include/cmsis_gcc.h **** 
 547:./Libraries/CMSIS/Core/Include/cmsis_gcc.h ****   __ASM volatile ("MRS %0, basepri_ns" : "=r" (result) );
 548:./Libraries/CMSIS/Core/Include/cmsis_gcc.h ****   return(result);
 549:./Libraries/CMSIS/Core/Include/cmsis_gcc.h **** }
 550:./Libraries/CMSIS/Core/Include/cmsis_gcc.h **** #endif
ARM GAS  /tmp/cc5RRSLv.s 			page 26


 551:./Libraries/CMSIS/Core/Include/cmsis_gcc.h **** 
 552:./Libraries/CMSIS/Core/Include/cmsis_gcc.h **** 
 553:./Libraries/CMSIS/Core/Include/cmsis_gcc.h **** /**
 554:./Libraries/CMSIS/Core/Include/cmsis_gcc.h ****   \brief   Set Base Priority
 555:./Libraries/CMSIS/Core/Include/cmsis_gcc.h ****   \details Assigns the given value to the Base Priority register.
 556:./Libraries/CMSIS/Core/Include/cmsis_gcc.h ****   \param [in]    basePri  Base Priority value to set
 557:./Libraries/CMSIS/Core/Include/cmsis_gcc.h ****  */
 558:./Libraries/CMSIS/Core/Include/cmsis_gcc.h **** __STATIC_FORCEINLINE void __set_BASEPRI(uint32_t basePri)
 559:./Libraries/CMSIS/Core/Include/cmsis_gcc.h **** {
 560:./Libraries/CMSIS/Core/Include/cmsis_gcc.h ****   __ASM volatile ("MSR basepri, %0" : : "r" (basePri) : "memory");
 561:./Libraries/CMSIS/Core/Include/cmsis_gcc.h **** }
 562:./Libraries/CMSIS/Core/Include/cmsis_gcc.h **** 
 563:./Libraries/CMSIS/Core/Include/cmsis_gcc.h **** 
 564:./Libraries/CMSIS/Core/Include/cmsis_gcc.h **** #if (defined (__ARM_FEATURE_CMSE ) && (__ARM_FEATURE_CMSE == 3))
 565:./Libraries/CMSIS/Core/Include/cmsis_gcc.h **** /**
 566:./Libraries/CMSIS/Core/Include/cmsis_gcc.h ****   \brief   Set Base Priority (non-secure)
 567:./Libraries/CMSIS/Core/Include/cmsis_gcc.h ****   \details Assigns the given value to the non-secure Base Priority register when in secure state.
 568:./Libraries/CMSIS/Core/Include/cmsis_gcc.h ****   \param [in]    basePri  Base Priority value to set
 569:./Libraries/CMSIS/Core/Include/cmsis_gcc.h ****  */
 570:./Libraries/CMSIS/Core/Include/cmsis_gcc.h **** __STATIC_FORCEINLINE void __TZ_set_BASEPRI_NS(uint32_t basePri)
 571:./Libraries/CMSIS/Core/Include/cmsis_gcc.h **** {
 572:./Libraries/CMSIS/Core/Include/cmsis_gcc.h ****   __ASM volatile ("MSR basepri_ns, %0" : : "r" (basePri) : "memory");
 573:./Libraries/CMSIS/Core/Include/cmsis_gcc.h **** }
 574:./Libraries/CMSIS/Core/Include/cmsis_gcc.h **** #endif
 575:./Libraries/CMSIS/Core/Include/cmsis_gcc.h **** 
 576:./Libraries/CMSIS/Core/Include/cmsis_gcc.h **** 
 577:./Libraries/CMSIS/Core/Include/cmsis_gcc.h **** /**
 578:./Libraries/CMSIS/Core/Include/cmsis_gcc.h ****   \brief   Set Base Priority with condition
 579:./Libraries/CMSIS/Core/Include/cmsis_gcc.h ****   \details Assigns the given value to the Base Priority register only if BASEPRI masking is disable
 580:./Libraries/CMSIS/Core/Include/cmsis_gcc.h ****            or the new value increases the BASEPRI priority level.
 581:./Libraries/CMSIS/Core/Include/cmsis_gcc.h ****   \param [in]    basePri  Base Priority value to set
 582:./Libraries/CMSIS/Core/Include/cmsis_gcc.h ****  */
 583:./Libraries/CMSIS/Core/Include/cmsis_gcc.h **** __STATIC_FORCEINLINE void __set_BASEPRI_MAX(uint32_t basePri)
 584:./Libraries/CMSIS/Core/Include/cmsis_gcc.h **** {
 585:./Libraries/CMSIS/Core/Include/cmsis_gcc.h ****   __ASM volatile ("MSR basepri_max, %0" : : "r" (basePri) : "memory");
 586:./Libraries/CMSIS/Core/Include/cmsis_gcc.h **** }
 587:./Libraries/CMSIS/Core/Include/cmsis_gcc.h **** 
 588:./Libraries/CMSIS/Core/Include/cmsis_gcc.h **** 
 589:./Libraries/CMSIS/Core/Include/cmsis_gcc.h **** /**
 590:./Libraries/CMSIS/Core/Include/cmsis_gcc.h ****   \brief   Get Fault Mask
 591:./Libraries/CMSIS/Core/Include/cmsis_gcc.h ****   \details Returns the current value of the Fault Mask register.
 592:./Libraries/CMSIS/Core/Include/cmsis_gcc.h ****   \return               Fault Mask register value
 593:./Libraries/CMSIS/Core/Include/cmsis_gcc.h ****  */
 594:./Libraries/CMSIS/Core/Include/cmsis_gcc.h **** __STATIC_FORCEINLINE uint32_t __get_FAULTMASK(void)
 595:./Libraries/CMSIS/Core/Include/cmsis_gcc.h **** {
 596:./Libraries/CMSIS/Core/Include/cmsis_gcc.h ****   uint32_t result;
 597:./Libraries/CMSIS/Core/Include/cmsis_gcc.h **** 
 598:./Libraries/CMSIS/Core/Include/cmsis_gcc.h ****   __ASM volatile ("MRS %0, faultmask" : "=r" (result) );
 599:./Libraries/CMSIS/Core/Include/cmsis_gcc.h ****   return(result);
 600:./Libraries/CMSIS/Core/Include/cmsis_gcc.h **** }
 601:./Libraries/CMSIS/Core/Include/cmsis_gcc.h **** 
 602:./Libraries/CMSIS/Core/Include/cmsis_gcc.h **** 
 603:./Libraries/CMSIS/Core/Include/cmsis_gcc.h **** #if (defined (__ARM_FEATURE_CMSE ) && (__ARM_FEATURE_CMSE == 3))
 604:./Libraries/CMSIS/Core/Include/cmsis_gcc.h **** /**
 605:./Libraries/CMSIS/Core/Include/cmsis_gcc.h ****   \brief   Get Fault Mask (non-secure)
 606:./Libraries/CMSIS/Core/Include/cmsis_gcc.h ****   \details Returns the current value of the non-secure Fault Mask register when in secure state.
 607:./Libraries/CMSIS/Core/Include/cmsis_gcc.h ****   \return               Fault Mask register value
ARM GAS  /tmp/cc5RRSLv.s 			page 27


 608:./Libraries/CMSIS/Core/Include/cmsis_gcc.h ****  */
 609:./Libraries/CMSIS/Core/Include/cmsis_gcc.h **** __STATIC_FORCEINLINE uint32_t __TZ_get_FAULTMASK_NS(void)
 610:./Libraries/CMSIS/Core/Include/cmsis_gcc.h **** {
 611:./Libraries/CMSIS/Core/Include/cmsis_gcc.h ****   uint32_t result;
 612:./Libraries/CMSIS/Core/Include/cmsis_gcc.h **** 
 613:./Libraries/CMSIS/Core/Include/cmsis_gcc.h ****   __ASM volatile ("MRS %0, faultmask_ns" : "=r" (result) );
 614:./Libraries/CMSIS/Core/Include/cmsis_gcc.h ****   return(result);
 615:./Libraries/CMSIS/Core/Include/cmsis_gcc.h **** }
 616:./Libraries/CMSIS/Core/Include/cmsis_gcc.h **** #endif
 617:./Libraries/CMSIS/Core/Include/cmsis_gcc.h **** 
 618:./Libraries/CMSIS/Core/Include/cmsis_gcc.h **** 
 619:./Libraries/CMSIS/Core/Include/cmsis_gcc.h **** /**
 620:./Libraries/CMSIS/Core/Include/cmsis_gcc.h ****   \brief   Set Fault Mask
 621:./Libraries/CMSIS/Core/Include/cmsis_gcc.h ****   \details Assigns the given value to the Fault Mask register.
 622:./Libraries/CMSIS/Core/Include/cmsis_gcc.h ****   \param [in]    faultMask  Fault Mask value to set
 623:./Libraries/CMSIS/Core/Include/cmsis_gcc.h ****  */
 624:./Libraries/CMSIS/Core/Include/cmsis_gcc.h **** __STATIC_FORCEINLINE void __set_FAULTMASK(uint32_t faultMask)
 625:./Libraries/CMSIS/Core/Include/cmsis_gcc.h **** {
 626:./Libraries/CMSIS/Core/Include/cmsis_gcc.h ****   __ASM volatile ("MSR faultmask, %0" : : "r" (faultMask) : "memory");
 627:./Libraries/CMSIS/Core/Include/cmsis_gcc.h **** }
 628:./Libraries/CMSIS/Core/Include/cmsis_gcc.h **** 
 629:./Libraries/CMSIS/Core/Include/cmsis_gcc.h **** 
 630:./Libraries/CMSIS/Core/Include/cmsis_gcc.h **** #if (defined (__ARM_FEATURE_CMSE ) && (__ARM_FEATURE_CMSE == 3))
 631:./Libraries/CMSIS/Core/Include/cmsis_gcc.h **** /**
 632:./Libraries/CMSIS/Core/Include/cmsis_gcc.h ****   \brief   Set Fault Mask (non-secure)
 633:./Libraries/CMSIS/Core/Include/cmsis_gcc.h ****   \details Assigns the given value to the non-secure Fault Mask register when in secure state.
 634:./Libraries/CMSIS/Core/Include/cmsis_gcc.h ****   \param [in]    faultMask  Fault Mask value to set
 635:./Libraries/CMSIS/Core/Include/cmsis_gcc.h ****  */
 636:./Libraries/CMSIS/Core/Include/cmsis_gcc.h **** __STATIC_FORCEINLINE void __TZ_set_FAULTMASK_NS(uint32_t faultMask)
 637:./Libraries/CMSIS/Core/Include/cmsis_gcc.h **** {
 638:./Libraries/CMSIS/Core/Include/cmsis_gcc.h ****   __ASM volatile ("MSR faultmask_ns, %0" : : "r" (faultMask) : "memory");
 639:./Libraries/CMSIS/Core/Include/cmsis_gcc.h **** }
 640:./Libraries/CMSIS/Core/Include/cmsis_gcc.h **** #endif
 641:./Libraries/CMSIS/Core/Include/cmsis_gcc.h **** 
 642:./Libraries/CMSIS/Core/Include/cmsis_gcc.h **** #endif /* ((defined (__ARM_ARCH_7M__      ) && (__ARM_ARCH_7M__      == 1)) || \
 643:./Libraries/CMSIS/Core/Include/cmsis_gcc.h ****            (defined (__ARM_ARCH_7EM__     ) && (__ARM_ARCH_7EM__     == 1)) || \
 644:./Libraries/CMSIS/Core/Include/cmsis_gcc.h ****            (defined (__ARM_ARCH_8M_MAIN__ ) && (__ARM_ARCH_8M_MAIN__ == 1))    ) */
 645:./Libraries/CMSIS/Core/Include/cmsis_gcc.h **** 
 646:./Libraries/CMSIS/Core/Include/cmsis_gcc.h **** 
 647:./Libraries/CMSIS/Core/Include/cmsis_gcc.h **** #if ((defined (__ARM_ARCH_8M_MAIN__ ) && (__ARM_ARCH_8M_MAIN__ == 1)) || \
 648:./Libraries/CMSIS/Core/Include/cmsis_gcc.h ****      (defined (__ARM_ARCH_8M_BASE__ ) && (__ARM_ARCH_8M_BASE__ == 1))    )
 649:./Libraries/CMSIS/Core/Include/cmsis_gcc.h **** 
 650:./Libraries/CMSIS/Core/Include/cmsis_gcc.h **** /**
 651:./Libraries/CMSIS/Core/Include/cmsis_gcc.h ****   \brief   Get Process Stack Pointer Limit
 652:./Libraries/CMSIS/Core/Include/cmsis_gcc.h ****   Devices without ARMv8-M Main Extensions (i.e. Cortex-M23) lack the non-secure
 653:./Libraries/CMSIS/Core/Include/cmsis_gcc.h ****   Stack Pointer Limit register hence zero is returned always in non-secure
 654:./Libraries/CMSIS/Core/Include/cmsis_gcc.h ****   mode.
 655:./Libraries/CMSIS/Core/Include/cmsis_gcc.h ****   
 656:./Libraries/CMSIS/Core/Include/cmsis_gcc.h ****   \details Returns the current value of the Process Stack Pointer Limit (PSPLIM).
 657:./Libraries/CMSIS/Core/Include/cmsis_gcc.h ****   \return               PSPLIM Register value
 658:./Libraries/CMSIS/Core/Include/cmsis_gcc.h ****  */
 659:./Libraries/CMSIS/Core/Include/cmsis_gcc.h **** __STATIC_FORCEINLINE uint32_t __get_PSPLIM(void)
 660:./Libraries/CMSIS/Core/Include/cmsis_gcc.h **** {
 661:./Libraries/CMSIS/Core/Include/cmsis_gcc.h **** #if (!(defined (__ARM_ARCH_8M_MAIN__ ) && (__ARM_ARCH_8M_MAIN__ == 1)) && \
 662:./Libraries/CMSIS/Core/Include/cmsis_gcc.h ****     (!defined (__ARM_FEATURE_CMSE) || (__ARM_FEATURE_CMSE < 3)))
 663:./Libraries/CMSIS/Core/Include/cmsis_gcc.h ****     // without main extensions, the non-secure PSPLIM is RAZ/WI
 664:./Libraries/CMSIS/Core/Include/cmsis_gcc.h ****   return 0U;
ARM GAS  /tmp/cc5RRSLv.s 			page 28


 665:./Libraries/CMSIS/Core/Include/cmsis_gcc.h **** #else
 666:./Libraries/CMSIS/Core/Include/cmsis_gcc.h ****   uint32_t result;
 667:./Libraries/CMSIS/Core/Include/cmsis_gcc.h ****   __ASM volatile ("MRS %0, psplim"  : "=r" (result) );
 668:./Libraries/CMSIS/Core/Include/cmsis_gcc.h ****   return result;
 669:./Libraries/CMSIS/Core/Include/cmsis_gcc.h **** #endif
 670:./Libraries/CMSIS/Core/Include/cmsis_gcc.h **** }
 671:./Libraries/CMSIS/Core/Include/cmsis_gcc.h **** 
 672:./Libraries/CMSIS/Core/Include/cmsis_gcc.h **** #if (defined (__ARM_FEATURE_CMSE) && (__ARM_FEATURE_CMSE == 3))
 673:./Libraries/CMSIS/Core/Include/cmsis_gcc.h **** /**
 674:./Libraries/CMSIS/Core/Include/cmsis_gcc.h ****   \brief   Get Process Stack Pointer Limit (non-secure)
 675:./Libraries/CMSIS/Core/Include/cmsis_gcc.h ****   Devices without ARMv8-M Main Extensions (i.e. Cortex-M23) lack the non-secure
 676:./Libraries/CMSIS/Core/Include/cmsis_gcc.h ****   Stack Pointer Limit register hence zero is returned always.
 677:./Libraries/CMSIS/Core/Include/cmsis_gcc.h **** 
 678:./Libraries/CMSIS/Core/Include/cmsis_gcc.h ****   \details Returns the current value of the non-secure Process Stack Pointer Limit (PSPLIM) when in
 679:./Libraries/CMSIS/Core/Include/cmsis_gcc.h ****   \return               PSPLIM Register value
 680:./Libraries/CMSIS/Core/Include/cmsis_gcc.h ****  */
 681:./Libraries/CMSIS/Core/Include/cmsis_gcc.h **** __STATIC_FORCEINLINE uint32_t __TZ_get_PSPLIM_NS(void)
 682:./Libraries/CMSIS/Core/Include/cmsis_gcc.h **** {
 683:./Libraries/CMSIS/Core/Include/cmsis_gcc.h **** #if (!(defined (__ARM_ARCH_8M_MAIN__ ) && (__ARM_ARCH_8M_MAIN__ == 1)))
 684:./Libraries/CMSIS/Core/Include/cmsis_gcc.h ****   // without main extensions, the non-secure PSPLIM is RAZ/WI
 685:./Libraries/CMSIS/Core/Include/cmsis_gcc.h ****   return 0U;
 686:./Libraries/CMSIS/Core/Include/cmsis_gcc.h **** #else
 687:./Libraries/CMSIS/Core/Include/cmsis_gcc.h ****   uint32_t result;
 688:./Libraries/CMSIS/Core/Include/cmsis_gcc.h ****   __ASM volatile ("MRS %0, psplim_ns"  : "=r" (result) );
 689:./Libraries/CMSIS/Core/Include/cmsis_gcc.h ****   return result;
 690:./Libraries/CMSIS/Core/Include/cmsis_gcc.h **** #endif
 691:./Libraries/CMSIS/Core/Include/cmsis_gcc.h **** }
 692:./Libraries/CMSIS/Core/Include/cmsis_gcc.h **** #endif
 693:./Libraries/CMSIS/Core/Include/cmsis_gcc.h **** 
 694:./Libraries/CMSIS/Core/Include/cmsis_gcc.h **** 
 695:./Libraries/CMSIS/Core/Include/cmsis_gcc.h **** /**
 696:./Libraries/CMSIS/Core/Include/cmsis_gcc.h ****   \brief   Set Process Stack Pointer Limit
 697:./Libraries/CMSIS/Core/Include/cmsis_gcc.h ****   Devices without ARMv8-M Main Extensions (i.e. Cortex-M23) lack the non-secure
 698:./Libraries/CMSIS/Core/Include/cmsis_gcc.h ****   Stack Pointer Limit register hence the write is silently ignored in non-secure
 699:./Libraries/CMSIS/Core/Include/cmsis_gcc.h ****   mode.
 700:./Libraries/CMSIS/Core/Include/cmsis_gcc.h ****   
 701:./Libraries/CMSIS/Core/Include/cmsis_gcc.h ****   \details Assigns the given value to the Process Stack Pointer Limit (PSPLIM).
 702:./Libraries/CMSIS/Core/Include/cmsis_gcc.h ****   \param [in]    ProcStackPtrLimit  Process Stack Pointer Limit value to set
 703:./Libraries/CMSIS/Core/Include/cmsis_gcc.h ****  */
 704:./Libraries/CMSIS/Core/Include/cmsis_gcc.h **** __STATIC_FORCEINLINE void __set_PSPLIM(uint32_t ProcStackPtrLimit)
 705:./Libraries/CMSIS/Core/Include/cmsis_gcc.h **** {
 706:./Libraries/CMSIS/Core/Include/cmsis_gcc.h **** #if (!(defined (__ARM_ARCH_8M_MAIN__ ) && (__ARM_ARCH_8M_MAIN__ == 1)) && \
 707:./Libraries/CMSIS/Core/Include/cmsis_gcc.h ****     (!defined (__ARM_FEATURE_CMSE) || (__ARM_FEATURE_CMSE < 3)))
 708:./Libraries/CMSIS/Core/Include/cmsis_gcc.h ****   // without main extensions, the non-secure PSPLIM is RAZ/WI
 709:./Libraries/CMSIS/Core/Include/cmsis_gcc.h ****   (void)ProcStackPtrLimit;
 710:./Libraries/CMSIS/Core/Include/cmsis_gcc.h **** #else
 711:./Libraries/CMSIS/Core/Include/cmsis_gcc.h ****   __ASM volatile ("MSR psplim, %0" : : "r" (ProcStackPtrLimit));
 712:./Libraries/CMSIS/Core/Include/cmsis_gcc.h **** #endif
 713:./Libraries/CMSIS/Core/Include/cmsis_gcc.h **** }
 714:./Libraries/CMSIS/Core/Include/cmsis_gcc.h **** 
 715:./Libraries/CMSIS/Core/Include/cmsis_gcc.h **** 
 716:./Libraries/CMSIS/Core/Include/cmsis_gcc.h **** #if (defined (__ARM_FEATURE_CMSE  ) && (__ARM_FEATURE_CMSE   == 3))
 717:./Libraries/CMSIS/Core/Include/cmsis_gcc.h **** /**
 718:./Libraries/CMSIS/Core/Include/cmsis_gcc.h ****   \brief   Set Process Stack Pointer (non-secure)
 719:./Libraries/CMSIS/Core/Include/cmsis_gcc.h ****   Devices without ARMv8-M Main Extensions (i.e. Cortex-M23) lack the non-secure
 720:./Libraries/CMSIS/Core/Include/cmsis_gcc.h ****   Stack Pointer Limit register hence the write is silently ignored.
 721:./Libraries/CMSIS/Core/Include/cmsis_gcc.h **** 
ARM GAS  /tmp/cc5RRSLv.s 			page 29


 722:./Libraries/CMSIS/Core/Include/cmsis_gcc.h ****   \details Assigns the given value to the non-secure Process Stack Pointer Limit (PSPLIM) when in s
 723:./Libraries/CMSIS/Core/Include/cmsis_gcc.h ****   \param [in]    ProcStackPtrLimit  Process Stack Pointer Limit value to set
 724:./Libraries/CMSIS/Core/Include/cmsis_gcc.h ****  */
 725:./Libraries/CMSIS/Core/Include/cmsis_gcc.h **** __STATIC_FORCEINLINE void __TZ_set_PSPLIM_NS(uint32_t ProcStackPtrLimit)
 726:./Libraries/CMSIS/Core/Include/cmsis_gcc.h **** {
 727:./Libraries/CMSIS/Core/Include/cmsis_gcc.h **** #if (!(defined (__ARM_ARCH_8M_MAIN__ ) && (__ARM_ARCH_8M_MAIN__ == 1)))
 728:./Libraries/CMSIS/Core/Include/cmsis_gcc.h ****   // without main extensions, the non-secure PSPLIM is RAZ/WI
 729:./Libraries/CMSIS/Core/Include/cmsis_gcc.h ****   (void)ProcStackPtrLimit;
 730:./Libraries/CMSIS/Core/Include/cmsis_gcc.h **** #else
 731:./Libraries/CMSIS/Core/Include/cmsis_gcc.h ****   __ASM volatile ("MSR psplim_ns, %0\n" : : "r" (ProcStackPtrLimit));
 732:./Libraries/CMSIS/Core/Include/cmsis_gcc.h **** #endif
 733:./Libraries/CMSIS/Core/Include/cmsis_gcc.h **** }
 734:./Libraries/CMSIS/Core/Include/cmsis_gcc.h **** #endif
 735:./Libraries/CMSIS/Core/Include/cmsis_gcc.h **** 
 736:./Libraries/CMSIS/Core/Include/cmsis_gcc.h **** 
 737:./Libraries/CMSIS/Core/Include/cmsis_gcc.h **** /**
 738:./Libraries/CMSIS/Core/Include/cmsis_gcc.h ****   \brief   Get Main Stack Pointer Limit
 739:./Libraries/CMSIS/Core/Include/cmsis_gcc.h ****   Devices without ARMv8-M Main Extensions (i.e. Cortex-M23) lack the non-secure
 740:./Libraries/CMSIS/Core/Include/cmsis_gcc.h ****   Stack Pointer Limit register hence zero is returned always in non-secure
 741:./Libraries/CMSIS/Core/Include/cmsis_gcc.h ****   mode.
 742:./Libraries/CMSIS/Core/Include/cmsis_gcc.h **** 
 743:./Libraries/CMSIS/Core/Include/cmsis_gcc.h ****   \details Returns the current value of the Main Stack Pointer Limit (MSPLIM).
 744:./Libraries/CMSIS/Core/Include/cmsis_gcc.h ****   \return               MSPLIM Register value
 745:./Libraries/CMSIS/Core/Include/cmsis_gcc.h ****  */
 746:./Libraries/CMSIS/Core/Include/cmsis_gcc.h **** __STATIC_FORCEINLINE uint32_t __get_MSPLIM(void)
 747:./Libraries/CMSIS/Core/Include/cmsis_gcc.h **** {
 748:./Libraries/CMSIS/Core/Include/cmsis_gcc.h **** #if (!(defined (__ARM_ARCH_8M_MAIN__ ) && (__ARM_ARCH_8M_MAIN__ == 1)) && \
 749:./Libraries/CMSIS/Core/Include/cmsis_gcc.h ****     (!defined (__ARM_FEATURE_CMSE) || (__ARM_FEATURE_CMSE < 3)))
 750:./Libraries/CMSIS/Core/Include/cmsis_gcc.h ****   // without main extensions, the non-secure MSPLIM is RAZ/WI
 751:./Libraries/CMSIS/Core/Include/cmsis_gcc.h ****   return 0U;
 752:./Libraries/CMSIS/Core/Include/cmsis_gcc.h **** #else
 753:./Libraries/CMSIS/Core/Include/cmsis_gcc.h ****   uint32_t result;
 754:./Libraries/CMSIS/Core/Include/cmsis_gcc.h ****   __ASM volatile ("MRS %0, msplim" : "=r" (result) );
 755:./Libraries/CMSIS/Core/Include/cmsis_gcc.h ****   return result;
 756:./Libraries/CMSIS/Core/Include/cmsis_gcc.h **** #endif
 757:./Libraries/CMSIS/Core/Include/cmsis_gcc.h **** }
 758:./Libraries/CMSIS/Core/Include/cmsis_gcc.h **** 
 759:./Libraries/CMSIS/Core/Include/cmsis_gcc.h **** 
 760:./Libraries/CMSIS/Core/Include/cmsis_gcc.h **** #if (defined (__ARM_FEATURE_CMSE  ) && (__ARM_FEATURE_CMSE   == 3))
 761:./Libraries/CMSIS/Core/Include/cmsis_gcc.h **** /**
 762:./Libraries/CMSIS/Core/Include/cmsis_gcc.h ****   \brief   Get Main Stack Pointer Limit (non-secure)
 763:./Libraries/CMSIS/Core/Include/cmsis_gcc.h ****   Devices without ARMv8-M Main Extensions (i.e. Cortex-M23) lack the non-secure
 764:./Libraries/CMSIS/Core/Include/cmsis_gcc.h ****   Stack Pointer Limit register hence zero is returned always.
 765:./Libraries/CMSIS/Core/Include/cmsis_gcc.h **** 
 766:./Libraries/CMSIS/Core/Include/cmsis_gcc.h ****   \details Returns the current value of the non-secure Main Stack Pointer Limit(MSPLIM) when in sec
 767:./Libraries/CMSIS/Core/Include/cmsis_gcc.h ****   \return               MSPLIM Register value
 768:./Libraries/CMSIS/Core/Include/cmsis_gcc.h ****  */
 769:./Libraries/CMSIS/Core/Include/cmsis_gcc.h **** __STATIC_FORCEINLINE uint32_t __TZ_get_MSPLIM_NS(void)
 770:./Libraries/CMSIS/Core/Include/cmsis_gcc.h **** {
 771:./Libraries/CMSIS/Core/Include/cmsis_gcc.h **** #if (!(defined (__ARM_ARCH_8M_MAIN__ ) && (__ARM_ARCH_8M_MAIN__ == 1)))
 772:./Libraries/CMSIS/Core/Include/cmsis_gcc.h ****   // without main extensions, the non-secure MSPLIM is RAZ/WI
 773:./Libraries/CMSIS/Core/Include/cmsis_gcc.h ****   return 0U;
 774:./Libraries/CMSIS/Core/Include/cmsis_gcc.h **** #else
 775:./Libraries/CMSIS/Core/Include/cmsis_gcc.h ****   uint32_t result;
 776:./Libraries/CMSIS/Core/Include/cmsis_gcc.h ****   __ASM volatile ("MRS %0, msplim_ns" : "=r" (result) );
 777:./Libraries/CMSIS/Core/Include/cmsis_gcc.h ****   return result;
 778:./Libraries/CMSIS/Core/Include/cmsis_gcc.h **** #endif
ARM GAS  /tmp/cc5RRSLv.s 			page 30


 779:./Libraries/CMSIS/Core/Include/cmsis_gcc.h **** }
 780:./Libraries/CMSIS/Core/Include/cmsis_gcc.h **** #endif
 781:./Libraries/CMSIS/Core/Include/cmsis_gcc.h **** 
 782:./Libraries/CMSIS/Core/Include/cmsis_gcc.h **** 
 783:./Libraries/CMSIS/Core/Include/cmsis_gcc.h **** /**
 784:./Libraries/CMSIS/Core/Include/cmsis_gcc.h ****   \brief   Set Main Stack Pointer Limit
 785:./Libraries/CMSIS/Core/Include/cmsis_gcc.h ****   Devices without ARMv8-M Main Extensions (i.e. Cortex-M23) lack the non-secure
 786:./Libraries/CMSIS/Core/Include/cmsis_gcc.h ****   Stack Pointer Limit register hence the write is silently ignored in non-secure
 787:./Libraries/CMSIS/Core/Include/cmsis_gcc.h ****   mode.
 788:./Libraries/CMSIS/Core/Include/cmsis_gcc.h **** 
 789:./Libraries/CMSIS/Core/Include/cmsis_gcc.h ****   \details Assigns the given value to the Main Stack Pointer Limit (MSPLIM).
 790:./Libraries/CMSIS/Core/Include/cmsis_gcc.h ****   \param [in]    MainStackPtrLimit  Main Stack Pointer Limit value to set
 791:./Libraries/CMSIS/Core/Include/cmsis_gcc.h ****  */
 792:./Libraries/CMSIS/Core/Include/cmsis_gcc.h **** __STATIC_FORCEINLINE void __set_MSPLIM(uint32_t MainStackPtrLimit)
 793:./Libraries/CMSIS/Core/Include/cmsis_gcc.h **** {
 794:./Libraries/CMSIS/Core/Include/cmsis_gcc.h **** #if (!(defined (__ARM_ARCH_8M_MAIN__ ) && (__ARM_ARCH_8M_MAIN__ == 1)) && \
 795:./Libraries/CMSIS/Core/Include/cmsis_gcc.h ****     (!defined (__ARM_FEATURE_CMSE) || (__ARM_FEATURE_CMSE < 3)))
 796:./Libraries/CMSIS/Core/Include/cmsis_gcc.h ****   // without main extensions, the non-secure MSPLIM is RAZ/WI
 797:./Libraries/CMSIS/Core/Include/cmsis_gcc.h ****   (void)MainStackPtrLimit;
 798:./Libraries/CMSIS/Core/Include/cmsis_gcc.h **** #else
 799:./Libraries/CMSIS/Core/Include/cmsis_gcc.h ****   __ASM volatile ("MSR msplim, %0" : : "r" (MainStackPtrLimit));
 800:./Libraries/CMSIS/Core/Include/cmsis_gcc.h **** #endif
 801:./Libraries/CMSIS/Core/Include/cmsis_gcc.h **** }
 802:./Libraries/CMSIS/Core/Include/cmsis_gcc.h **** 
 803:./Libraries/CMSIS/Core/Include/cmsis_gcc.h **** 
 804:./Libraries/CMSIS/Core/Include/cmsis_gcc.h **** #if (defined (__ARM_FEATURE_CMSE  ) && (__ARM_FEATURE_CMSE   == 3))
 805:./Libraries/CMSIS/Core/Include/cmsis_gcc.h **** /**
 806:./Libraries/CMSIS/Core/Include/cmsis_gcc.h ****   \brief   Set Main Stack Pointer Limit (non-secure)
 807:./Libraries/CMSIS/Core/Include/cmsis_gcc.h ****   Devices without ARMv8-M Main Extensions (i.e. Cortex-M23) lack the non-secure
 808:./Libraries/CMSIS/Core/Include/cmsis_gcc.h ****   Stack Pointer Limit register hence the write is silently ignored.
 809:./Libraries/CMSIS/Core/Include/cmsis_gcc.h **** 
 810:./Libraries/CMSIS/Core/Include/cmsis_gcc.h ****   \details Assigns the given value to the non-secure Main Stack Pointer Limit (MSPLIM) when in secu
 811:./Libraries/CMSIS/Core/Include/cmsis_gcc.h ****   \param [in]    MainStackPtrLimit  Main Stack Pointer value to set
 812:./Libraries/CMSIS/Core/Include/cmsis_gcc.h ****  */
 813:./Libraries/CMSIS/Core/Include/cmsis_gcc.h **** __STATIC_FORCEINLINE void __TZ_set_MSPLIM_NS(uint32_t MainStackPtrLimit)
 814:./Libraries/CMSIS/Core/Include/cmsis_gcc.h **** {
 815:./Libraries/CMSIS/Core/Include/cmsis_gcc.h **** #if (!(defined (__ARM_ARCH_8M_MAIN__ ) && (__ARM_ARCH_8M_MAIN__ == 1)))
 816:./Libraries/CMSIS/Core/Include/cmsis_gcc.h ****   // without main extensions, the non-secure MSPLIM is RAZ/WI
 817:./Libraries/CMSIS/Core/Include/cmsis_gcc.h ****   (void)MainStackPtrLimit;
 818:./Libraries/CMSIS/Core/Include/cmsis_gcc.h **** #else
 819:./Libraries/CMSIS/Core/Include/cmsis_gcc.h ****   __ASM volatile ("MSR msplim_ns, %0" : : "r" (MainStackPtrLimit));
 820:./Libraries/CMSIS/Core/Include/cmsis_gcc.h **** #endif
 821:./Libraries/CMSIS/Core/Include/cmsis_gcc.h **** }
 822:./Libraries/CMSIS/Core/Include/cmsis_gcc.h **** #endif
 823:./Libraries/CMSIS/Core/Include/cmsis_gcc.h **** 
 824:./Libraries/CMSIS/Core/Include/cmsis_gcc.h **** #endif /* ((defined (__ARM_ARCH_8M_MAIN__ ) && (__ARM_ARCH_8M_MAIN__ == 1)) || \
 825:./Libraries/CMSIS/Core/Include/cmsis_gcc.h ****            (defined (__ARM_ARCH_8M_BASE__ ) && (__ARM_ARCH_8M_BASE__ == 1))    ) */
 826:./Libraries/CMSIS/Core/Include/cmsis_gcc.h **** 
 827:./Libraries/CMSIS/Core/Include/cmsis_gcc.h **** 
 828:./Libraries/CMSIS/Core/Include/cmsis_gcc.h **** /**
 829:./Libraries/CMSIS/Core/Include/cmsis_gcc.h ****   \brief   Get FPSCR
 830:./Libraries/CMSIS/Core/Include/cmsis_gcc.h ****   \details Returns the current value of the Floating Point Status/Control register.
 831:./Libraries/CMSIS/Core/Include/cmsis_gcc.h ****   \return               Floating Point Status/Control register value
 832:./Libraries/CMSIS/Core/Include/cmsis_gcc.h ****  */
 833:./Libraries/CMSIS/Core/Include/cmsis_gcc.h **** __STATIC_FORCEINLINE uint32_t __get_FPSCR(void)
 834:./Libraries/CMSIS/Core/Include/cmsis_gcc.h **** {
 835:./Libraries/CMSIS/Core/Include/cmsis_gcc.h **** #if ((defined (__FPU_PRESENT) && (__FPU_PRESENT == 1U)) && \
ARM GAS  /tmp/cc5RRSLv.s 			page 31


 836:./Libraries/CMSIS/Core/Include/cmsis_gcc.h ****      (defined (__FPU_USED   ) && (__FPU_USED    == 1U))     )
 837:./Libraries/CMSIS/Core/Include/cmsis_gcc.h **** #if __has_builtin(__builtin_arm_get_fpscr) 
 838:./Libraries/CMSIS/Core/Include/cmsis_gcc.h **** // Re-enable using built-in when GCC has been fixed
 839:./Libraries/CMSIS/Core/Include/cmsis_gcc.h **** // || (__GNUC__ > 7) || (__GNUC__ == 7 && __GNUC_MINOR__ >= 2)
 840:./Libraries/CMSIS/Core/Include/cmsis_gcc.h ****   /* see https://gcc.gnu.org/ml/gcc-patches/2017-04/msg00443.html */
 841:./Libraries/CMSIS/Core/Include/cmsis_gcc.h ****   return __builtin_arm_get_fpscr();
 842:./Libraries/CMSIS/Core/Include/cmsis_gcc.h **** #else
 843:./Libraries/CMSIS/Core/Include/cmsis_gcc.h ****   uint32_t result;
 844:./Libraries/CMSIS/Core/Include/cmsis_gcc.h **** 
 845:./Libraries/CMSIS/Core/Include/cmsis_gcc.h ****   __ASM volatile ("VMRS %0, fpscr" : "=r" (result) );
 846:./Libraries/CMSIS/Core/Include/cmsis_gcc.h ****   return(result);
 847:./Libraries/CMSIS/Core/Include/cmsis_gcc.h **** #endif
 848:./Libraries/CMSIS/Core/Include/cmsis_gcc.h **** #else
 849:./Libraries/CMSIS/Core/Include/cmsis_gcc.h ****   return(0U);
 850:./Libraries/CMSIS/Core/Include/cmsis_gcc.h **** #endif
 851:./Libraries/CMSIS/Core/Include/cmsis_gcc.h **** }
 852:./Libraries/CMSIS/Core/Include/cmsis_gcc.h **** 
 853:./Libraries/CMSIS/Core/Include/cmsis_gcc.h **** 
 854:./Libraries/CMSIS/Core/Include/cmsis_gcc.h **** /**
 855:./Libraries/CMSIS/Core/Include/cmsis_gcc.h ****   \brief   Set FPSCR
 856:./Libraries/CMSIS/Core/Include/cmsis_gcc.h ****   \details Assigns the given value to the Floating Point Status/Control register.
 857:./Libraries/CMSIS/Core/Include/cmsis_gcc.h ****   \param [in]    fpscr  Floating Point Status/Control value to set
 858:./Libraries/CMSIS/Core/Include/cmsis_gcc.h ****  */
 859:./Libraries/CMSIS/Core/Include/cmsis_gcc.h **** __STATIC_FORCEINLINE void __set_FPSCR(uint32_t fpscr)
 860:./Libraries/CMSIS/Core/Include/cmsis_gcc.h **** {
 861:./Libraries/CMSIS/Core/Include/cmsis_gcc.h **** #if ((defined (__FPU_PRESENT) && (__FPU_PRESENT == 1U)) && \
 862:./Libraries/CMSIS/Core/Include/cmsis_gcc.h ****      (defined (__FPU_USED   ) && (__FPU_USED    == 1U))     )
 863:./Libraries/CMSIS/Core/Include/cmsis_gcc.h **** #if __has_builtin(__builtin_arm_set_fpscr)
 864:./Libraries/CMSIS/Core/Include/cmsis_gcc.h **** // Re-enable using built-in when GCC has been fixed
 865:./Libraries/CMSIS/Core/Include/cmsis_gcc.h **** // || (__GNUC__ > 7) || (__GNUC__ == 7 && __GNUC_MINOR__ >= 2)
 866:./Libraries/CMSIS/Core/Include/cmsis_gcc.h ****   /* see https://gcc.gnu.org/ml/gcc-patches/2017-04/msg00443.html */
 867:./Libraries/CMSIS/Core/Include/cmsis_gcc.h ****   __builtin_arm_set_fpscr(fpscr);
 868:./Libraries/CMSIS/Core/Include/cmsis_gcc.h **** #else
 869:./Libraries/CMSIS/Core/Include/cmsis_gcc.h ****   __ASM volatile ("VMSR fpscr, %0" : : "r" (fpscr) : "vfpcc", "memory");
 870:./Libraries/CMSIS/Core/Include/cmsis_gcc.h **** #endif
 871:./Libraries/CMSIS/Core/Include/cmsis_gcc.h **** #else
 872:./Libraries/CMSIS/Core/Include/cmsis_gcc.h ****   (void)fpscr;
 873:./Libraries/CMSIS/Core/Include/cmsis_gcc.h **** #endif
 874:./Libraries/CMSIS/Core/Include/cmsis_gcc.h **** }
 875:./Libraries/CMSIS/Core/Include/cmsis_gcc.h **** 
 876:./Libraries/CMSIS/Core/Include/cmsis_gcc.h **** 
 877:./Libraries/CMSIS/Core/Include/cmsis_gcc.h **** /*@} end of CMSIS_Core_RegAccFunctions */
 878:./Libraries/CMSIS/Core/Include/cmsis_gcc.h **** 
 879:./Libraries/CMSIS/Core/Include/cmsis_gcc.h **** 
 880:./Libraries/CMSIS/Core/Include/cmsis_gcc.h **** /* ##########################  Core Instruction Access  ######################### */
 881:./Libraries/CMSIS/Core/Include/cmsis_gcc.h **** /** \defgroup CMSIS_Core_InstructionInterface CMSIS Core Instruction Interface
 882:./Libraries/CMSIS/Core/Include/cmsis_gcc.h ****   Access to dedicated instructions
 883:./Libraries/CMSIS/Core/Include/cmsis_gcc.h ****   @{
 884:./Libraries/CMSIS/Core/Include/cmsis_gcc.h **** */
 885:./Libraries/CMSIS/Core/Include/cmsis_gcc.h **** 
 886:./Libraries/CMSIS/Core/Include/cmsis_gcc.h **** /* Define macros for porting to both thumb1 and thumb2.
 887:./Libraries/CMSIS/Core/Include/cmsis_gcc.h ****  * For thumb1, use low register (r0-r7), specified by constraint "l"
 888:./Libraries/CMSIS/Core/Include/cmsis_gcc.h ****  * Otherwise, use general registers, specified by constraint "r" */
 889:./Libraries/CMSIS/Core/Include/cmsis_gcc.h **** #if defined (__thumb__) && !defined (__thumb2__)
 890:./Libraries/CMSIS/Core/Include/cmsis_gcc.h **** #define __CMSIS_GCC_OUT_REG(r) "=l" (r)
 891:./Libraries/CMSIS/Core/Include/cmsis_gcc.h **** #define __CMSIS_GCC_RW_REG(r) "+l" (r)
 892:./Libraries/CMSIS/Core/Include/cmsis_gcc.h **** #define __CMSIS_GCC_USE_REG(r) "l" (r)
ARM GAS  /tmp/cc5RRSLv.s 			page 32


 893:./Libraries/CMSIS/Core/Include/cmsis_gcc.h **** #else
 894:./Libraries/CMSIS/Core/Include/cmsis_gcc.h **** #define __CMSIS_GCC_OUT_REG(r) "=r" (r)
 895:./Libraries/CMSIS/Core/Include/cmsis_gcc.h **** #define __CMSIS_GCC_RW_REG(r) "+r" (r)
 896:./Libraries/CMSIS/Core/Include/cmsis_gcc.h **** #define __CMSIS_GCC_USE_REG(r) "r" (r)
 897:./Libraries/CMSIS/Core/Include/cmsis_gcc.h **** #endif
 898:./Libraries/CMSIS/Core/Include/cmsis_gcc.h **** 
 899:./Libraries/CMSIS/Core/Include/cmsis_gcc.h **** /**
 900:./Libraries/CMSIS/Core/Include/cmsis_gcc.h ****   \brief   No Operation
 901:./Libraries/CMSIS/Core/Include/cmsis_gcc.h ****   \details No Operation does nothing. This instruction can be used for code alignment purposes.
 902:./Libraries/CMSIS/Core/Include/cmsis_gcc.h ****  */
 903:./Libraries/CMSIS/Core/Include/cmsis_gcc.h **** #define __NOP()                             __ASM volatile ("nop")
 904:./Libraries/CMSIS/Core/Include/cmsis_gcc.h **** 
 905:./Libraries/CMSIS/Core/Include/cmsis_gcc.h **** /**
 906:./Libraries/CMSIS/Core/Include/cmsis_gcc.h ****   \brief   Wait For Interrupt
 907:./Libraries/CMSIS/Core/Include/cmsis_gcc.h ****   \details Wait For Interrupt is a hint instruction that suspends execution until one of a number o
 908:./Libraries/CMSIS/Core/Include/cmsis_gcc.h ****  */
 909:./Libraries/CMSIS/Core/Include/cmsis_gcc.h **** #define __WFI()                             __ASM volatile ("wfi")
 910:./Libraries/CMSIS/Core/Include/cmsis_gcc.h **** 
 911:./Libraries/CMSIS/Core/Include/cmsis_gcc.h **** 
 912:./Libraries/CMSIS/Core/Include/cmsis_gcc.h **** /**
 913:./Libraries/CMSIS/Core/Include/cmsis_gcc.h ****   \brief   Wait For Event
 914:./Libraries/CMSIS/Core/Include/cmsis_gcc.h ****   \details Wait For Event is a hint instruction that permits the processor to enter
 915:./Libraries/CMSIS/Core/Include/cmsis_gcc.h ****            a low-power state until one of a number of events occurs.
 916:./Libraries/CMSIS/Core/Include/cmsis_gcc.h ****  */
 917:./Libraries/CMSIS/Core/Include/cmsis_gcc.h **** #define __WFE()                             __ASM volatile ("wfe")
 918:./Libraries/CMSIS/Core/Include/cmsis_gcc.h **** 
 919:./Libraries/CMSIS/Core/Include/cmsis_gcc.h **** 
 920:./Libraries/CMSIS/Core/Include/cmsis_gcc.h **** /**
 921:./Libraries/CMSIS/Core/Include/cmsis_gcc.h ****   \brief   Send Event
 922:./Libraries/CMSIS/Core/Include/cmsis_gcc.h ****   \details Send Event is a hint instruction. It causes an event to be signaled to the CPU.
 923:./Libraries/CMSIS/Core/Include/cmsis_gcc.h ****  */
 924:./Libraries/CMSIS/Core/Include/cmsis_gcc.h **** #define __SEV()                             __ASM volatile ("sev")
 925:./Libraries/CMSIS/Core/Include/cmsis_gcc.h **** 
 926:./Libraries/CMSIS/Core/Include/cmsis_gcc.h **** 
 927:./Libraries/CMSIS/Core/Include/cmsis_gcc.h **** /**
 928:./Libraries/CMSIS/Core/Include/cmsis_gcc.h ****   \brief   Instruction Synchronization Barrier
 929:./Libraries/CMSIS/Core/Include/cmsis_gcc.h ****   \details Instruction Synchronization Barrier flushes the pipeline in the processor,
 930:./Libraries/CMSIS/Core/Include/cmsis_gcc.h ****            so that all instructions following the ISB are fetched from cache or memory,
 931:./Libraries/CMSIS/Core/Include/cmsis_gcc.h ****            after the instruction has been completed.
 932:./Libraries/CMSIS/Core/Include/cmsis_gcc.h ****  */
 933:./Libraries/CMSIS/Core/Include/cmsis_gcc.h **** __STATIC_FORCEINLINE void __ISB(void)
 934:./Libraries/CMSIS/Core/Include/cmsis_gcc.h **** {
 935:./Libraries/CMSIS/Core/Include/cmsis_gcc.h ****   __ASM volatile ("isb 0xF":::"memory");
 936:./Libraries/CMSIS/Core/Include/cmsis_gcc.h **** }
 937:./Libraries/CMSIS/Core/Include/cmsis_gcc.h **** 
 938:./Libraries/CMSIS/Core/Include/cmsis_gcc.h **** 
 939:./Libraries/CMSIS/Core/Include/cmsis_gcc.h **** /**
 940:./Libraries/CMSIS/Core/Include/cmsis_gcc.h ****   \brief   Data Synchronization Barrier
 941:./Libraries/CMSIS/Core/Include/cmsis_gcc.h ****   \details Acts as a special kind of Data Memory Barrier.
 942:./Libraries/CMSIS/Core/Include/cmsis_gcc.h ****            It completes when all explicit memory accesses before this instruction complete.
 943:./Libraries/CMSIS/Core/Include/cmsis_gcc.h ****  */
 944:./Libraries/CMSIS/Core/Include/cmsis_gcc.h **** __STATIC_FORCEINLINE void __DSB(void)
 424              		.loc 2 944 27 discriminator 2 view .LVU106
 425              	.LBB681:
 945:./Libraries/CMSIS/Core/Include/cmsis_gcc.h **** {
 946:./Libraries/CMSIS/Core/Include/cmsis_gcc.h ****   __ASM volatile ("dsb 0xF":::"memory");
 426              		.loc 2 946 3 discriminator 2 view .LVU107
ARM GAS  /tmp/cc5RRSLv.s 			page 33


 427              		.syntax unified
 428              	@ 946 "./Libraries/CMSIS/Core/Include/cmsis_gcc.h" 1
 429 0036 BFF34F8F 		dsb 0xF
 430              	@ 0 "" 2
 431              		.thumb
 432              		.syntax unified
 433              	.LBE681:
 434              	.LBE680:
 406:./Libraries/STM32H7xx_HAL_Driver/Src/stm32h7xx_hal_nand.c ****     *(__IO uint8_t *)((uint32_t)(deviceaddress | ADDR_AREA)) = 0x00;
 435              		.loc 1 406 5 discriminator 2 view .LVU108
 436              		.loc 1 406 62 is_stmt 0 discriminator 2 view .LVU109
 437 003a 02F58032 		add	r2, r2, #65536
 438 003e 1370     		strb	r3, [r2]
 407:./Libraries/STM32H7xx_HAL_Driver/Src/stm32h7xx_hal_nand.c ****     __DSB();
 439              		.loc 1 407 5 is_stmt 1 discriminator 2 view .LVU110
 440              	.LBB682:
 441              	.LBI682:
 944:./Libraries/CMSIS/Core/Include/cmsis_gcc.h **** {
 442              		.loc 2 944 27 discriminator 2 view .LVU111
 443              	.LBB683:
 444              		.loc 2 946 3 discriminator 2 view .LVU112
 445              		.syntax unified
 446              	@ 946 "./Libraries/CMSIS/Core/Include/cmsis_gcc.h" 1
 447 0040 BFF34F8F 		dsb 0xF
 448              	@ 0 "" 2
 449              		.thumb
 450              		.syntax unified
 451              	.LBE683:
 452              	.LBE682:
 408:./Libraries/STM32H7xx_HAL_Driver/Src/stm32h7xx_hal_nand.c **** 
 409:./Libraries/STM32H7xx_HAL_Driver/Src/stm32h7xx_hal_nand.c ****     /* Read the electronic signature from NAND flash */
 410:./Libraries/STM32H7xx_HAL_Driver/Src/stm32h7xx_hal_nand.c ****     if (hnand->Init.MemoryDataWidth == FMC_NAND_MEM_BUS_WIDTH_8)
 453              		.loc 1 410 5 discriminator 2 view .LVU113
 454              		.loc 1 410 8 is_stmt 0 discriminator 2 view .LVU114
 455 0044 C368     		ldr	r3, [r0, #12]
 456 0046 03B3     		cbz	r3, .L50
 411:./Libraries/STM32H7xx_HAL_Driver/Src/stm32h7xx_hal_nand.c ****     {
 412:./Libraries/STM32H7xx_HAL_Driver/Src/stm32h7xx_hal_nand.c ****       data = *(__IO uint32_t *)deviceaddress;
 413:./Libraries/STM32H7xx_HAL_Driver/Src/stm32h7xx_hal_nand.c **** 
 414:./Libraries/STM32H7xx_HAL_Driver/Src/stm32h7xx_hal_nand.c ****       /* Return the data read */
 415:./Libraries/STM32H7xx_HAL_Driver/Src/stm32h7xx_hal_nand.c ****       pNAND_ID->Maker_Id   = ADDR_1ST_CYCLE(data);
 416:./Libraries/STM32H7xx_HAL_Driver/Src/stm32h7xx_hal_nand.c ****       pNAND_ID->Device_Id  = ADDR_2ND_CYCLE(data);
 417:./Libraries/STM32H7xx_HAL_Driver/Src/stm32h7xx_hal_nand.c ****       pNAND_ID->Third_Id   = ADDR_3RD_CYCLE(data);
 418:./Libraries/STM32H7xx_HAL_Driver/Src/stm32h7xx_hal_nand.c ****       pNAND_ID->Fourth_Id  = ADDR_4TH_CYCLE(data);
 419:./Libraries/STM32H7xx_HAL_Driver/Src/stm32h7xx_hal_nand.c ****     }
 420:./Libraries/STM32H7xx_HAL_Driver/Src/stm32h7xx_hal_nand.c ****     else
 421:./Libraries/STM32H7xx_HAL_Driver/Src/stm32h7xx_hal_nand.c ****     {
 422:./Libraries/STM32H7xx_HAL_Driver/Src/stm32h7xx_hal_nand.c ****       data = *(__IO uint32_t *)deviceaddress;
 457              		.loc 1 422 7 is_stmt 1 view .LVU115
 458              		.loc 1 422 14 is_stmt 0 view .LVU116
 459 0048 4FF00042 		mov	r2, #-2147483648
 423:./Libraries/STM32H7xx_HAL_Driver/Src/stm32h7xx_hal_nand.c ****       data1 = *((__IO uint32_t *)deviceaddress + 4);
 460              		.loc 1 423 15 view .LVU117
 461 004c 194B     		ldr	r3, .L51+4
 422:./Libraries/STM32H7xx_HAL_Driver/Src/stm32h7xx_hal_nand.c ****       data1 = *((__IO uint32_t *)deviceaddress + 4);
 462              		.loc 1 422 14 view .LVU118
 463 004e 1268     		ldr	r2, [r2]
ARM GAS  /tmp/cc5RRSLv.s 			page 34


 422:./Libraries/STM32H7xx_HAL_Driver/Src/stm32h7xx_hal_nand.c ****       data1 = *((__IO uint32_t *)deviceaddress + 4);
 464              		.loc 1 422 12 view .LVU119
 465 0050 0092     		str	r2, [sp]
 466              		.loc 1 423 7 is_stmt 1 view .LVU120
 467              		.loc 1 423 15 is_stmt 0 view .LVU121
 468 0052 1B68     		ldr	r3, [r3]
 469              		.loc 1 423 13 view .LVU122
 470 0054 0193     		str	r3, [sp, #4]
 424:./Libraries/STM32H7xx_HAL_Driver/Src/stm32h7xx_hal_nand.c **** 
 425:./Libraries/STM32H7xx_HAL_Driver/Src/stm32h7xx_hal_nand.c ****       /* Return the data read */
 426:./Libraries/STM32H7xx_HAL_Driver/Src/stm32h7xx_hal_nand.c ****       pNAND_ID->Maker_Id   = ADDR_1ST_CYCLE(data);
 471              		.loc 1 426 7 is_stmt 1 view .LVU123
 472              		.loc 1 426 30 is_stmt 0 view .LVU124
 473 0056 009D     		ldr	r5, [sp]
 427:./Libraries/STM32H7xx_HAL_Driver/Src/stm32h7xx_hal_nand.c ****       pNAND_ID->Device_Id  = ADDR_3RD_CYCLE(data);
 474              		.loc 1 427 30 view .LVU125
 475 0058 009A     		ldr	r2, [sp]
 428:./Libraries/STM32H7xx_HAL_Driver/Src/stm32h7xx_hal_nand.c ****       pNAND_ID->Third_Id   = ADDR_1ST_CYCLE(data1);
 476              		.loc 1 428 30 view .LVU126
 477 005a 019C     		ldr	r4, [sp, #4]
 429:./Libraries/STM32H7xx_HAL_Driver/Src/stm32h7xx_hal_nand.c ****       pNAND_ID->Fourth_Id  = ADDR_3RD_CYCLE(data1);
 478              		.loc 1 429 30 view .LVU127
 479 005c 019B     		ldr	r3, [sp, #4]
 427:./Libraries/STM32H7xx_HAL_Driver/Src/stm32h7xx_hal_nand.c ****       pNAND_ID->Device_Id  = ADDR_3RD_CYCLE(data);
 480              		.loc 1 427 30 view .LVU128
 481 005e 120C     		lsrs	r2, r2, #16
 426:./Libraries/STM32H7xx_HAL_Driver/Src/stm32h7xx_hal_nand.c ****       pNAND_ID->Device_Id  = ADDR_3RD_CYCLE(data);
 482              		.loc 1 426 30 view .LVU129
 483 0060 0D70     		strb	r5, [r1]
 427:./Libraries/STM32H7xx_HAL_Driver/Src/stm32h7xx_hal_nand.c ****       pNAND_ID->Third_Id   = ADDR_1ST_CYCLE(data1);
 484              		.loc 1 427 7 is_stmt 1 view .LVU130
 485              		.loc 1 429 30 is_stmt 0 view .LVU131
 486 0062 1B0C     		lsrs	r3, r3, #16
 427:./Libraries/STM32H7xx_HAL_Driver/Src/stm32h7xx_hal_nand.c ****       pNAND_ID->Third_Id   = ADDR_1ST_CYCLE(data1);
 487              		.loc 1 427 30 view .LVU132
 488 0064 4A70     		strb	r2, [r1, #1]
 428:./Libraries/STM32H7xx_HAL_Driver/Src/stm32h7xx_hal_nand.c ****       pNAND_ID->Fourth_Id  = ADDR_3RD_CYCLE(data1);
 489              		.loc 1 428 7 is_stmt 1 view .LVU133
 428:./Libraries/STM32H7xx_HAL_Driver/Src/stm32h7xx_hal_nand.c ****       pNAND_ID->Fourth_Id  = ADDR_3RD_CYCLE(data1);
 490              		.loc 1 428 30 is_stmt 0 view .LVU134
 491 0066 8C70     		strb	r4, [r1, #2]
 492              		.loc 1 429 7 is_stmt 1 view .LVU135
 493              		.loc 1 429 30 is_stmt 0 view .LVU136
 494 0068 CB70     		strb	r3, [r1, #3]
 495              	.L43:
 430:./Libraries/STM32H7xx_HAL_Driver/Src/stm32h7xx_hal_nand.c ****     }
 431:./Libraries/STM32H7xx_HAL_Driver/Src/stm32h7xx_hal_nand.c **** 
 432:./Libraries/STM32H7xx_HAL_Driver/Src/stm32h7xx_hal_nand.c ****     /* Update the NAND controller state */
 433:./Libraries/STM32H7xx_HAL_Driver/Src/stm32h7xx_hal_nand.c ****     hnand->State = HAL_NAND_STATE_READY;
 496              		.loc 1 433 5 is_stmt 1 view .LVU137
 434:./Libraries/STM32H7xx_HAL_Driver/Src/stm32h7xx_hal_nand.c **** 
 435:./Libraries/STM32H7xx_HAL_Driver/Src/stm32h7xx_hal_nand.c ****     /* Process unlocked */
 436:./Libraries/STM32H7xx_HAL_Driver/Src/stm32h7xx_hal_nand.c ****     __HAL_UNLOCK(hnand);
 497              		.loc 1 436 5 is_stmt 0 view .LVU138
 498 006a 0023     		movs	r3, #0
 433:./Libraries/STM32H7xx_HAL_Driver/Src/stm32h7xx_hal_nand.c **** 
 499              		.loc 1 433 18 view .LVU139
ARM GAS  /tmp/cc5RRSLv.s 			page 35


 500 006c 0122     		movs	r2, #1
 437:./Libraries/STM32H7xx_HAL_Driver/Src/stm32h7xx_hal_nand.c ****   }
 438:./Libraries/STM32H7xx_HAL_Driver/Src/stm32h7xx_hal_nand.c ****   else
 439:./Libraries/STM32H7xx_HAL_Driver/Src/stm32h7xx_hal_nand.c ****   {
 440:./Libraries/STM32H7xx_HAL_Driver/Src/stm32h7xx_hal_nand.c ****     return HAL_ERROR;
 441:./Libraries/STM32H7xx_HAL_Driver/Src/stm32h7xx_hal_nand.c ****   }
 442:./Libraries/STM32H7xx_HAL_Driver/Src/stm32h7xx_hal_nand.c **** 
 443:./Libraries/STM32H7xx_HAL_Driver/Src/stm32h7xx_hal_nand.c ****   return HAL_OK;
 501              		.loc 1 443 10 view .LVU140
 502 006e 1C46     		mov	r4, r3
 433:./Libraries/STM32H7xx_HAL_Driver/Src/stm32h7xx_hal_nand.c **** 
 503              		.loc 1 433 18 view .LVU141
 504 0070 80F82120 		strb	r2, [r0, #33]
 436:./Libraries/STM32H7xx_HAL_Driver/Src/stm32h7xx_hal_nand.c ****   }
 505              		.loc 1 436 5 is_stmt 1 view .LVU142
 436:./Libraries/STM32H7xx_HAL_Driver/Src/stm32h7xx_hal_nand.c ****   }
 506              		.loc 1 436 5 view .LVU143
 507 0074 80F82030 		strb	r3, [r0, #32]
 436:./Libraries/STM32H7xx_HAL_Driver/Src/stm32h7xx_hal_nand.c ****   }
 508              		.loc 1 436 5 view .LVU144
 509              		.loc 1 443 3 view .LVU145
 510              	.LVL26:
 511              	.L41:
 444:./Libraries/STM32H7xx_HAL_Driver/Src/stm32h7xx_hal_nand.c **** }
 512              		.loc 1 444 1 is_stmt 0 view .LVU146
 513 0078 2046     		mov	r0, r4
 514              	.LVL27:
 515              		.loc 1 444 1 view .LVU147
 516 007a 02B0     		add	sp, sp, #8
 517              	.LCFI6:
 518              		.cfi_remember_state
 519              		.cfi_def_cfa_offset 8
 520              		@ sp needed
 521 007c 30BC     		pop	{r4, r5}
 522              	.LCFI7:
 523              		.cfi_restore 5
 524              		.cfi_restore 4
 525              		.cfi_def_cfa_offset 0
 526 007e 7047     		bx	lr
 527              	.LVL28:
 528              	.L44:
 529              	.LCFI8:
 530              		.cfi_restore_state
 440:./Libraries/STM32H7xx_HAL_Driver/Src/stm32h7xx_hal_nand.c ****   }
 531              		.loc 1 440 12 view .LVU148
 532 0080 0124     		movs	r4, #1
 533              		.loc 1 444 1 view .LVU149
 534 0082 2046     		mov	r0, r4
 535              	.LVL29:
 536              		.loc 1 444 1 view .LVU150
 537 0084 02B0     		add	sp, sp, #8
 538              	.LCFI9:
 539              		.cfi_remember_state
 540              		.cfi_def_cfa_offset 8
 541              		@ sp needed
 542 0086 30BC     		pop	{r4, r5}
 543              	.LCFI10:
ARM GAS  /tmp/cc5RRSLv.s 			page 36


 544              		.cfi_restore 5
 545              		.cfi_restore 4
 546              		.cfi_def_cfa_offset 0
 547 0088 7047     		bx	lr
 548              	.LVL30:
 549              	.L50:
 550              	.LCFI11:
 551              		.cfi_restore_state
 412:./Libraries/STM32H7xx_HAL_Driver/Src/stm32h7xx_hal_nand.c **** 
 552              		.loc 1 412 7 is_stmt 1 view .LVU151
 412:./Libraries/STM32H7xx_HAL_Driver/Src/stm32h7xx_hal_nand.c **** 
 553              		.loc 1 412 14 is_stmt 0 view .LVU152
 554 008a 4FF00043 		mov	r3, #-2147483648
 555 008e 1B68     		ldr	r3, [r3]
 412:./Libraries/STM32H7xx_HAL_Driver/Src/stm32h7xx_hal_nand.c **** 
 556              		.loc 1 412 12 view .LVU153
 557 0090 0093     		str	r3, [sp]
 415:./Libraries/STM32H7xx_HAL_Driver/Src/stm32h7xx_hal_nand.c ****       pNAND_ID->Device_Id  = ADDR_2ND_CYCLE(data);
 558              		.loc 1 415 7 is_stmt 1 view .LVU154
 415:./Libraries/STM32H7xx_HAL_Driver/Src/stm32h7xx_hal_nand.c ****       pNAND_ID->Device_Id  = ADDR_2ND_CYCLE(data);
 559              		.loc 1 415 30 is_stmt 0 view .LVU155
 560 0092 009D     		ldr	r5, [sp]
 416:./Libraries/STM32H7xx_HAL_Driver/Src/stm32h7xx_hal_nand.c ****       pNAND_ID->Third_Id   = ADDR_3RD_CYCLE(data);
 561              		.loc 1 416 30 view .LVU156
 562 0094 009C     		ldr	r4, [sp]
 417:./Libraries/STM32H7xx_HAL_Driver/Src/stm32h7xx_hal_nand.c ****       pNAND_ID->Fourth_Id  = ADDR_4TH_CYCLE(data);
 563              		.loc 1 417 30 view .LVU157
 564 0096 009A     		ldr	r2, [sp]
 418:./Libraries/STM32H7xx_HAL_Driver/Src/stm32h7xx_hal_nand.c ****     }
 565              		.loc 1 418 30 view .LVU158
 566 0098 009B     		ldr	r3, [sp]
 416:./Libraries/STM32H7xx_HAL_Driver/Src/stm32h7xx_hal_nand.c ****       pNAND_ID->Third_Id   = ADDR_3RD_CYCLE(data);
 567              		.loc 1 416 30 view .LVU159
 568 009a 240A     		lsrs	r4, r4, #8
 417:./Libraries/STM32H7xx_HAL_Driver/Src/stm32h7xx_hal_nand.c ****       pNAND_ID->Fourth_Id  = ADDR_4TH_CYCLE(data);
 569              		.loc 1 417 30 view .LVU160
 570 009c 120C     		lsrs	r2, r2, #16
 415:./Libraries/STM32H7xx_HAL_Driver/Src/stm32h7xx_hal_nand.c ****       pNAND_ID->Device_Id  = ADDR_2ND_CYCLE(data);
 571              		.loc 1 415 30 view .LVU161
 572 009e 0D70     		strb	r5, [r1]
 416:./Libraries/STM32H7xx_HAL_Driver/Src/stm32h7xx_hal_nand.c ****       pNAND_ID->Third_Id   = ADDR_3RD_CYCLE(data);
 573              		.loc 1 416 7 is_stmt 1 view .LVU162
 418:./Libraries/STM32H7xx_HAL_Driver/Src/stm32h7xx_hal_nand.c ****     }
 574              		.loc 1 418 30 is_stmt 0 view .LVU163
 575 00a0 1B0E     		lsrs	r3, r3, #24
 416:./Libraries/STM32H7xx_HAL_Driver/Src/stm32h7xx_hal_nand.c ****       pNAND_ID->Third_Id   = ADDR_3RD_CYCLE(data);
 576              		.loc 1 416 30 view .LVU164
 577 00a2 4C70     		strb	r4, [r1, #1]
 417:./Libraries/STM32H7xx_HAL_Driver/Src/stm32h7xx_hal_nand.c ****       pNAND_ID->Fourth_Id  = ADDR_4TH_CYCLE(data);
 578              		.loc 1 417 7 is_stmt 1 view .LVU165
 417:./Libraries/STM32H7xx_HAL_Driver/Src/stm32h7xx_hal_nand.c ****       pNAND_ID->Fourth_Id  = ADDR_4TH_CYCLE(data);
 579              		.loc 1 417 30 is_stmt 0 view .LVU166
 580 00a4 8A70     		strb	r2, [r1, #2]
 418:./Libraries/STM32H7xx_HAL_Driver/Src/stm32h7xx_hal_nand.c ****     }
 581              		.loc 1 418 7 is_stmt 1 view .LVU167
 418:./Libraries/STM32H7xx_HAL_Driver/Src/stm32h7xx_hal_nand.c ****     }
 582              		.loc 1 418 30 is_stmt 0 view .LVU168
ARM GAS  /tmp/cc5RRSLv.s 			page 37


 583 00a6 CB70     		strb	r3, [r1, #3]
 584 00a8 DFE7     		b	.L43
 585              	.LVL31:
 586              	.L45:
 390:./Libraries/STM32H7xx_HAL_Driver/Src/stm32h7xx_hal_nand.c ****   }
 587              		.loc 1 390 12 view .LVU169
 588 00aa 0224     		movs	r4, #2
 589 00ac E4E7     		b	.L41
 590              	.L52:
 591 00ae 00BF     		.align	2
 592              	.L51:
 593 00b0 00000180 		.word	-2147418112
 594 00b4 10000080 		.word	-2147483632
 595              		.cfi_endproc
 596              	.LFE337:
 598              		.section	.text.HAL_NAND_Reset,"ax",%progbits
 599              		.align	1
 600              		.p2align 2,,3
 601              		.global	HAL_NAND_Reset
 602              		.syntax unified
 603              		.thumb
 604              		.thumb_func
 605              		.fpu fpv5-d16
 607              	HAL_NAND_Reset:
 608              	.LVL32:
 609              	.LFB338:
 445:./Libraries/STM32H7xx_HAL_Driver/Src/stm32h7xx_hal_nand.c **** 
 446:./Libraries/STM32H7xx_HAL_Driver/Src/stm32h7xx_hal_nand.c **** /**
 447:./Libraries/STM32H7xx_HAL_Driver/Src/stm32h7xx_hal_nand.c ****   * @brief  NAND memory reset
 448:./Libraries/STM32H7xx_HAL_Driver/Src/stm32h7xx_hal_nand.c ****   * @param  hnand pointer to a NAND_HandleTypeDef structure that contains
 449:./Libraries/STM32H7xx_HAL_Driver/Src/stm32h7xx_hal_nand.c ****   *                the configuration information for NAND module.
 450:./Libraries/STM32H7xx_HAL_Driver/Src/stm32h7xx_hal_nand.c ****   * @retval HAL status
 451:./Libraries/STM32H7xx_HAL_Driver/Src/stm32h7xx_hal_nand.c ****   */
 452:./Libraries/STM32H7xx_HAL_Driver/Src/stm32h7xx_hal_nand.c **** HAL_StatusTypeDef HAL_NAND_Reset(NAND_HandleTypeDef *hnand)
 453:./Libraries/STM32H7xx_HAL_Driver/Src/stm32h7xx_hal_nand.c **** {
 610              		.loc 1 453 1 is_stmt 1 view -0
 611              		.cfi_startproc
 612              		@ args = 0, pretend = 0, frame = 0
 613              		@ frame_needed = 0, uses_anonymous_args = 0
 614              		@ link register save eliminated.
 454:./Libraries/STM32H7xx_HAL_Driver/Src/stm32h7xx_hal_nand.c ****   uint32_t deviceaddress;
 615              		.loc 1 454 3 view .LVU171
 455:./Libraries/STM32H7xx_HAL_Driver/Src/stm32h7xx_hal_nand.c **** 
 456:./Libraries/STM32H7xx_HAL_Driver/Src/stm32h7xx_hal_nand.c ****   /* Check the NAND controller state */
 457:./Libraries/STM32H7xx_HAL_Driver/Src/stm32h7xx_hal_nand.c ****   if (hnand->State == HAL_NAND_STATE_BUSY)
 616              		.loc 1 457 3 view .LVU172
 617              		.loc 1 457 12 is_stmt 0 view .LVU173
 618 0000 90F82130 		ldrb	r3, [r0, #33]	@ zero_extendqisi2
 619              		.loc 1 457 6 view .LVU174
 620 0004 022B     		cmp	r3, #2
 621              		.loc 1 457 12 view .LVU175
 622 0006 DAB2     		uxtb	r2, r3
 623              		.loc 1 457 6 view .LVU176
 624 0008 18D0     		beq	.L61
 458:./Libraries/STM32H7xx_HAL_Driver/Src/stm32h7xx_hal_nand.c ****   {
 459:./Libraries/STM32H7xx_HAL_Driver/Src/stm32h7xx_hal_nand.c ****     return HAL_BUSY;
 460:./Libraries/STM32H7xx_HAL_Driver/Src/stm32h7xx_hal_nand.c ****   }
ARM GAS  /tmp/cc5RRSLv.s 			page 38


 461:./Libraries/STM32H7xx_HAL_Driver/Src/stm32h7xx_hal_nand.c ****   else if (hnand->State == HAL_NAND_STATE_READY)
 625              		.loc 1 461 8 is_stmt 1 view .LVU177
 626              		.loc 1 461 17 is_stmt 0 view .LVU178
 627 000a 90F82130 		ldrb	r3, [r0, #33]	@ zero_extendqisi2
 628              		.loc 1 461 11 view .LVU179
 629 000e 012B     		cmp	r3, #1
 630              		.loc 1 461 17 view .LVU180
 631 0010 D9B2     		uxtb	r1, r3
 632              		.loc 1 461 11 view .LVU181
 633 0012 12D1     		bne	.L55
 462:./Libraries/STM32H7xx_HAL_Driver/Src/stm32h7xx_hal_nand.c ****   {
 463:./Libraries/STM32H7xx_HAL_Driver/Src/stm32h7xx_hal_nand.c ****     /* Process Locked */
 464:./Libraries/STM32H7xx_HAL_Driver/Src/stm32h7xx_hal_nand.c ****     __HAL_LOCK(hnand);
 634              		.loc 1 464 5 is_stmt 1 view .LVU182
 635              		.loc 1 464 5 view .LVU183
 636 0014 90F82030 		ldrb	r3, [r0, #32]	@ zero_extendqisi2
 637 0018 012B     		cmp	r3, #1
 638 001a 11D0     		beq	.L56
 639              		.loc 1 464 5 discriminator 2 view .LVU184
 640              		.loc 1 464 5 discriminator 2 view .LVU185
 465:./Libraries/STM32H7xx_HAL_Driver/Src/stm32h7xx_hal_nand.c **** 
 466:./Libraries/STM32H7xx_HAL_Driver/Src/stm32h7xx_hal_nand.c ****     /* Update the NAND controller state */
 467:./Libraries/STM32H7xx_HAL_Driver/Src/stm32h7xx_hal_nand.c ****     hnand->State = HAL_NAND_STATE_BUSY;
 641              		.loc 1 467 5 discriminator 2 view .LVU186
 468:./Libraries/STM32H7xx_HAL_Driver/Src/stm32h7xx_hal_nand.c **** 
 469:./Libraries/STM32H7xx_HAL_Driver/Src/stm32h7xx_hal_nand.c ****     /* Identify the device address */
 470:./Libraries/STM32H7xx_HAL_Driver/Src/stm32h7xx_hal_nand.c ****     deviceaddress = NAND_DEVICE;
 471:./Libraries/STM32H7xx_HAL_Driver/Src/stm32h7xx_hal_nand.c **** 
 472:./Libraries/STM32H7xx_HAL_Driver/Src/stm32h7xx_hal_nand.c ****     /* Send NAND reset command */
 473:./Libraries/STM32H7xx_HAL_Driver/Src/stm32h7xx_hal_nand.c ****     *(__IO uint8_t *)((uint32_t)(deviceaddress | CMD_AREA)) = 0xFF;
 474:./Libraries/STM32H7xx_HAL_Driver/Src/stm32h7xx_hal_nand.c **** 
 475:./Libraries/STM32H7xx_HAL_Driver/Src/stm32h7xx_hal_nand.c ****     /* Update the NAND controller state */
 476:./Libraries/STM32H7xx_HAL_Driver/Src/stm32h7xx_hal_nand.c ****     hnand->State = HAL_NAND_STATE_READY;
 477:./Libraries/STM32H7xx_HAL_Driver/Src/stm32h7xx_hal_nand.c **** 
 478:./Libraries/STM32H7xx_HAL_Driver/Src/stm32h7xx_hal_nand.c ****     /* Process unlocked */
 479:./Libraries/STM32H7xx_HAL_Driver/Src/stm32h7xx_hal_nand.c ****     __HAL_UNLOCK(hnand);
 642              		.loc 1 479 5 is_stmt 0 discriminator 2 view .LVU187
 643 001c 0023     		movs	r3, #0
 473:./Libraries/STM32H7xx_HAL_Driver/Src/stm32h7xx_hal_nand.c **** 
 644              		.loc 1 473 61 discriminator 2 view .LVU188
 645 001e 094A     		ldr	r2, .L64
 453:./Libraries/STM32H7xx_HAL_Driver/Src/stm32h7xx_hal_nand.c ****   uint32_t deviceaddress;
 646              		.loc 1 453 1 discriminator 2 view .LVU189
 647 0020 30B4     		push	{r4, r5}
 648              	.LCFI12:
 649              		.cfi_def_cfa_offset 8
 650              		.cfi_offset 4, -8
 651              		.cfi_offset 5, -4
 467:./Libraries/STM32H7xx_HAL_Driver/Src/stm32h7xx_hal_nand.c **** 
 652              		.loc 1 467 18 discriminator 2 view .LVU190
 653 0022 0225     		movs	r5, #2
 473:./Libraries/STM32H7xx_HAL_Driver/Src/stm32h7xx_hal_nand.c **** 
 654              		.loc 1 473 61 discriminator 2 view .LVU191
 655 0024 FF24     		movs	r4, #255
 467:./Libraries/STM32H7xx_HAL_Driver/Src/stm32h7xx_hal_nand.c **** 
 656              		.loc 1 467 18 discriminator 2 view .LVU192
 657 0026 80F82150 		strb	r5, [r0, #33]
ARM GAS  /tmp/cc5RRSLv.s 			page 39


 470:./Libraries/STM32H7xx_HAL_Driver/Src/stm32h7xx_hal_nand.c **** 
 658              		.loc 1 470 5 is_stmt 1 discriminator 2 view .LVU193
 659              	.LVL33:
 473:./Libraries/STM32H7xx_HAL_Driver/Src/stm32h7xx_hal_nand.c **** 
 660              		.loc 1 473 5 discriminator 2 view .LVU194
 473:./Libraries/STM32H7xx_HAL_Driver/Src/stm32h7xx_hal_nand.c **** 
 661              		.loc 1 473 61 is_stmt 0 discriminator 2 view .LVU195
 662 002a 1470     		strb	r4, [r2]
 476:./Libraries/STM32H7xx_HAL_Driver/Src/stm32h7xx_hal_nand.c **** 
 663              		.loc 1 476 5 is_stmt 1 discriminator 2 view .LVU196
 476:./Libraries/STM32H7xx_HAL_Driver/Src/stm32h7xx_hal_nand.c **** 
 664              		.loc 1 476 18 is_stmt 0 discriminator 2 view .LVU197
 665 002c 80F82110 		strb	r1, [r0, #33]
 666              		.loc 1 479 5 is_stmt 1 discriminator 2 view .LVU198
 667              		.loc 1 479 5 discriminator 2 view .LVU199
 668 0030 80F82030 		strb	r3, [r0, #32]
 669              		.loc 1 479 5 discriminator 2 view .LVU200
 480:./Libraries/STM32H7xx_HAL_Driver/Src/stm32h7xx_hal_nand.c ****   }
 481:./Libraries/STM32H7xx_HAL_Driver/Src/stm32h7xx_hal_nand.c ****   else
 482:./Libraries/STM32H7xx_HAL_Driver/Src/stm32h7xx_hal_nand.c ****   {
 483:./Libraries/STM32H7xx_HAL_Driver/Src/stm32h7xx_hal_nand.c ****     return HAL_ERROR;
 484:./Libraries/STM32H7xx_HAL_Driver/Src/stm32h7xx_hal_nand.c ****   }
 485:./Libraries/STM32H7xx_HAL_Driver/Src/stm32h7xx_hal_nand.c **** 
 486:./Libraries/STM32H7xx_HAL_Driver/Src/stm32h7xx_hal_nand.c ****   return HAL_OK;
 670              		.loc 1 486 3 discriminator 2 view .LVU201
 487:./Libraries/STM32H7xx_HAL_Driver/Src/stm32h7xx_hal_nand.c **** 
 488:./Libraries/STM32H7xx_HAL_Driver/Src/stm32h7xx_hal_nand.c **** }
 671              		.loc 1 488 1 is_stmt 0 discriminator 2 view .LVU202
 672 0034 1846     		mov	r0, r3
 673              	.LVL34:
 674              		.loc 1 488 1 discriminator 2 view .LVU203
 675 0036 30BC     		pop	{r4, r5}
 676              	.LCFI13:
 677              		.cfi_restore 5
 678              		.cfi_restore 4
 679              		.cfi_def_cfa_offset 0
 680 0038 7047     		bx	lr
 681              	.LVL35:
 682              	.L55:
 483:./Libraries/STM32H7xx_HAL_Driver/Src/stm32h7xx_hal_nand.c ****   }
 683              		.loc 1 483 12 view .LVU204
 684 003a 0122     		movs	r2, #1
 685              	.L61:
 686              		.loc 1 488 1 view .LVU205
 687 003c 1046     		mov	r0, r2
 688              	.LVL36:
 689              		.loc 1 488 1 view .LVU206
 690 003e 7047     		bx	lr
 691              	.LVL37:
 692              	.L56:
 459:./Libraries/STM32H7xx_HAL_Driver/Src/stm32h7xx_hal_nand.c ****   }
 693              		.loc 1 459 12 view .LVU207
 694 0040 0222     		movs	r2, #2
 695 0042 FBE7     		b	.L61
 696              	.L65:
 697              		.align	2
 698              	.L64:
ARM GAS  /tmp/cc5RRSLv.s 			page 40


 699 0044 00000180 		.word	-2147418112
 700              		.cfi_endproc
 701              	.LFE338:
 703              		.section	.text.HAL_NAND_ConfigDevice,"ax",%progbits
 704              		.align	1
 705              		.p2align 2,,3
 706              		.global	HAL_NAND_ConfigDevice
 707              		.syntax unified
 708              		.thumb
 709              		.thumb_func
 710              		.fpu fpv5-d16
 712              	HAL_NAND_ConfigDevice:
 713              	.LVL38:
 714              	.LFB339:
 489:./Libraries/STM32H7xx_HAL_Driver/Src/stm32h7xx_hal_nand.c **** 
 490:./Libraries/STM32H7xx_HAL_Driver/Src/stm32h7xx_hal_nand.c **** /**
 491:./Libraries/STM32H7xx_HAL_Driver/Src/stm32h7xx_hal_nand.c ****   * @brief  Configure the device: Enter the physical parameters of the device
 492:./Libraries/STM32H7xx_HAL_Driver/Src/stm32h7xx_hal_nand.c ****   * @param  hnand pointer to a NAND_HandleTypeDef structure that contains
 493:./Libraries/STM32H7xx_HAL_Driver/Src/stm32h7xx_hal_nand.c ****   *                the configuration information for NAND module.
 494:./Libraries/STM32H7xx_HAL_Driver/Src/stm32h7xx_hal_nand.c ****   * @param  pDeviceConfig  pointer to NAND_DeviceConfigTypeDef structure
 495:./Libraries/STM32H7xx_HAL_Driver/Src/stm32h7xx_hal_nand.c ****   * @retval HAL status
 496:./Libraries/STM32H7xx_HAL_Driver/Src/stm32h7xx_hal_nand.c ****   */
 497:./Libraries/STM32H7xx_HAL_Driver/Src/stm32h7xx_hal_nand.c **** HAL_StatusTypeDef  HAL_NAND_ConfigDevice(NAND_HandleTypeDef *hnand, NAND_DeviceConfigTypeDef *pDevi
 498:./Libraries/STM32H7xx_HAL_Driver/Src/stm32h7xx_hal_nand.c **** {
 715              		.loc 1 498 1 is_stmt 1 view -0
 716              		.cfi_startproc
 717              		@ args = 0, pretend = 0, frame = 0
 718              		@ frame_needed = 0, uses_anonymous_args = 0
 719              		@ link register save eliminated.
 499:./Libraries/STM32H7xx_HAL_Driver/Src/stm32h7xx_hal_nand.c ****   hnand->Config.PageSize           = pDeviceConfig->PageSize;
 720              		.loc 1 499 3 view .LVU209
 498:./Libraries/STM32H7xx_HAL_Driver/Src/stm32h7xx_hal_nand.c ****   hnand->Config.PageSize           = pDeviceConfig->PageSize;
 721              		.loc 1 498 1 is_stmt 0 view .LVU210
 722 0000 30B4     		push	{r4, r5}
 723              	.LCFI14:
 724              		.cfi_def_cfa_offset 8
 725              		.cfi_offset 4, -8
 726              		.cfi_offset 5, -4
 498:./Libraries/STM32H7xx_HAL_Driver/Src/stm32h7xx_hal_nand.c ****   hnand->Config.PageSize           = pDeviceConfig->PageSize;
 727              		.loc 1 498 1 view .LVU211
 728 0002 0346     		mov	r3, r0
 500:./Libraries/STM32H7xx_HAL_Driver/Src/stm32h7xx_hal_nand.c ****   hnand->Config.SpareAreaSize      = pDeviceConfig->SpareAreaSize;
 501:./Libraries/STM32H7xx_HAL_Driver/Src/stm32h7xx_hal_nand.c ****   hnand->Config.BlockSize          = pDeviceConfig->BlockSize;
 729              		.loc 1 501 51 view .LVU212
 730 0004 8A68     		ldr	r2, [r1, #8]
 502:./Libraries/STM32H7xx_HAL_Driver/Src/stm32h7xx_hal_nand.c ****   hnand->Config.BlockNbr           = pDeviceConfig->BlockNbr;
 503:./Libraries/STM32H7xx_HAL_Driver/Src/stm32h7xx_hal_nand.c ****   hnand->Config.PlaneSize          = pDeviceConfig->PlaneSize;
 504:./Libraries/STM32H7xx_HAL_Driver/Src/stm32h7xx_hal_nand.c ****   hnand->Config.PlaneNbr           = pDeviceConfig->PlaneNbr;
 505:./Libraries/STM32H7xx_HAL_Driver/Src/stm32h7xx_hal_nand.c ****   hnand->Config.ExtraCommandEnable = pDeviceConfig->ExtraCommandEnable;
 506:./Libraries/STM32H7xx_HAL_Driver/Src/stm32h7xx_hal_nand.c **** 
 507:./Libraries/STM32H7xx_HAL_Driver/Src/stm32h7xx_hal_nand.c ****   return HAL_OK;
 508:./Libraries/STM32H7xx_HAL_Driver/Src/stm32h7xx_hal_nand.c **** }
 731              		.loc 1 508 1 view .LVU213
 732 0006 0020     		movs	r0, #0
 733              	.LVL39:
 500:./Libraries/STM32H7xx_HAL_Driver/Src/stm32h7xx_hal_nand.c ****   hnand->Config.SpareAreaSize      = pDeviceConfig->SpareAreaSize;
 734              		.loc 1 500 51 view .LVU214
ARM GAS  /tmp/cc5RRSLv.s 			page 41


 735 0008 D1E90054 		ldrd	r5, r4, [r1]
 499:./Libraries/STM32H7xx_HAL_Driver/Src/stm32h7xx_hal_nand.c ****   hnand->Config.SpareAreaSize      = pDeviceConfig->SpareAreaSize;
 736              		.loc 1 499 36 view .LVU215
 737 000c 5D62     		str	r5, [r3, #36]
 500:./Libraries/STM32H7xx_HAL_Driver/Src/stm32h7xx_hal_nand.c ****   hnand->Config.SpareAreaSize      = pDeviceConfig->SpareAreaSize;
 738              		.loc 1 500 3 is_stmt 1 view .LVU216
 502:./Libraries/STM32H7xx_HAL_Driver/Src/stm32h7xx_hal_nand.c ****   hnand->Config.BlockNbr           = pDeviceConfig->BlockNbr;
 739              		.loc 1 502 51 is_stmt 0 view .LVU217
 740 000e CD68     		ldr	r5, [r1, #12]
 500:./Libraries/STM32H7xx_HAL_Driver/Src/stm32h7xx_hal_nand.c ****   hnand->Config.SpareAreaSize      = pDeviceConfig->SpareAreaSize;
 741              		.loc 1 500 36 view .LVU218
 742 0010 9C62     		str	r4, [r3, #40]
 501:./Libraries/STM32H7xx_HAL_Driver/Src/stm32h7xx_hal_nand.c ****   hnand->Config.BlockNbr           = pDeviceConfig->BlockNbr;
 743              		.loc 1 501 3 is_stmt 1 view .LVU219
 503:./Libraries/STM32H7xx_HAL_Driver/Src/stm32h7xx_hal_nand.c ****   hnand->Config.PlaneNbr           = pDeviceConfig->PlaneNbr;
 744              		.loc 1 503 51 is_stmt 0 view .LVU220
 745 0012 4C69     		ldr	r4, [r1, #20]
 501:./Libraries/STM32H7xx_HAL_Driver/Src/stm32h7xx_hal_nand.c ****   hnand->Config.BlockNbr           = pDeviceConfig->BlockNbr;
 746              		.loc 1 501 36 view .LVU221
 747 0014 DA62     		str	r2, [r3, #44]
 502:./Libraries/STM32H7xx_HAL_Driver/Src/stm32h7xx_hal_nand.c ****   hnand->Config.PlaneSize          = pDeviceConfig->PlaneSize;
 748              		.loc 1 502 3 is_stmt 1 view .LVU222
 504:./Libraries/STM32H7xx_HAL_Driver/Src/stm32h7xx_hal_nand.c ****   hnand->Config.ExtraCommandEnable = pDeviceConfig->ExtraCommandEnable;
 749              		.loc 1 504 51 is_stmt 0 view .LVU223
 750 0016 0A69     		ldr	r2, [r1, #16]
 502:./Libraries/STM32H7xx_HAL_Driver/Src/stm32h7xx_hal_nand.c ****   hnand->Config.PlaneSize          = pDeviceConfig->PlaneSize;
 751              		.loc 1 502 36 view .LVU224
 752 0018 1D63     		str	r5, [r3, #48]
 503:./Libraries/STM32H7xx_HAL_Driver/Src/stm32h7xx_hal_nand.c ****   hnand->Config.PlaneNbr           = pDeviceConfig->PlaneNbr;
 753              		.loc 1 503 3 is_stmt 1 view .LVU225
 504:./Libraries/STM32H7xx_HAL_Driver/Src/stm32h7xx_hal_nand.c ****   hnand->Config.ExtraCommandEnable = pDeviceConfig->ExtraCommandEnable;
 754              		.loc 1 504 36 is_stmt 0 view .LVU226
 755 001a C3E90D24 		strd	r2, r4, [r3, #52]
 505:./Libraries/STM32H7xx_HAL_Driver/Src/stm32h7xx_hal_nand.c **** 
 756              		.loc 1 505 3 is_stmt 1 view .LVU227
 505:./Libraries/STM32H7xx_HAL_Driver/Src/stm32h7xx_hal_nand.c **** 
 757              		.loc 1 505 51 is_stmt 0 view .LVU228
 758 001e 0A7E     		ldrb	r2, [r1, #24]	@ zero_extendqisi2
 505:./Libraries/STM32H7xx_HAL_Driver/Src/stm32h7xx_hal_nand.c **** 
 759              		.loc 1 505 36 view .LVU229
 760 0020 83F83C20 		strb	r2, [r3, #60]
 507:./Libraries/STM32H7xx_HAL_Driver/Src/stm32h7xx_hal_nand.c **** }
 761              		.loc 1 507 3 is_stmt 1 view .LVU230
 762              		.loc 1 508 1 is_stmt 0 view .LVU231
 763 0024 30BC     		pop	{r4, r5}
 764              	.LCFI15:
 765              		.cfi_restore 5
 766              		.cfi_restore 4
 767              		.cfi_def_cfa_offset 0
 768 0026 7047     		bx	lr
 769              		.cfi_endproc
 770              	.LFE339:
 772              		.section	.text.HAL_NAND_Read_Page_8b,"ax",%progbits
 773              		.align	1
 774              		.p2align 2,,3
 775              		.global	HAL_NAND_Read_Page_8b
 776              		.syntax unified
ARM GAS  /tmp/cc5RRSLv.s 			page 42


 777              		.thumb
 778              		.thumb_func
 779              		.fpu fpv5-d16
 781              	HAL_NAND_Read_Page_8b:
 782              	.LVL40:
 783              	.LFB340:
 509:./Libraries/STM32H7xx_HAL_Driver/Src/stm32h7xx_hal_nand.c **** 
 510:./Libraries/STM32H7xx_HAL_Driver/Src/stm32h7xx_hal_nand.c **** /**
 511:./Libraries/STM32H7xx_HAL_Driver/Src/stm32h7xx_hal_nand.c ****   * @brief  Read Page(s) from NAND memory block (8-bits addressing)
 512:./Libraries/STM32H7xx_HAL_Driver/Src/stm32h7xx_hal_nand.c ****   * @param  hnand pointer to a NAND_HandleTypeDef structure that contains
 513:./Libraries/STM32H7xx_HAL_Driver/Src/stm32h7xx_hal_nand.c ****   *                the configuration information for NAND module.
 514:./Libraries/STM32H7xx_HAL_Driver/Src/stm32h7xx_hal_nand.c ****   * @param  pAddress  pointer to NAND address structure
 515:./Libraries/STM32H7xx_HAL_Driver/Src/stm32h7xx_hal_nand.c ****   * @param  pBuffer  pointer to destination read buffer
 516:./Libraries/STM32H7xx_HAL_Driver/Src/stm32h7xx_hal_nand.c ****   * @param  NumPageToRead  number of pages to read from block
 517:./Libraries/STM32H7xx_HAL_Driver/Src/stm32h7xx_hal_nand.c ****   * @retval HAL status
 518:./Libraries/STM32H7xx_HAL_Driver/Src/stm32h7xx_hal_nand.c ****   */
 519:./Libraries/STM32H7xx_HAL_Driver/Src/stm32h7xx_hal_nand.c **** HAL_StatusTypeDef HAL_NAND_Read_Page_8b(NAND_HandleTypeDef *hnand, NAND_AddressTypeDef *pAddress, u
 520:./Libraries/STM32H7xx_HAL_Driver/Src/stm32h7xx_hal_nand.c ****                                         uint32_t NumPageToRead)
 521:./Libraries/STM32H7xx_HAL_Driver/Src/stm32h7xx_hal_nand.c **** {
 784              		.loc 1 521 1 is_stmt 1 view -0
 785              		.cfi_startproc
 786              		@ args = 0, pretend = 0, frame = 8
 787              		@ frame_needed = 0, uses_anonymous_args = 0
 788              		.loc 1 521 1 is_stmt 0 view .LVU233
 789 0000 2DE9F04F 		push	{r4, r5, r6, r7, r8, r9, r10, fp, lr}
 790              	.LCFI16:
 791              		.cfi_def_cfa_offset 36
 792              		.cfi_offset 4, -36
 793              		.cfi_offset 5, -32
 794              		.cfi_offset 6, -28
 795              		.cfi_offset 7, -24
 796              		.cfi_offset 8, -20
 797              		.cfi_offset 9, -16
 798              		.cfi_offset 10, -12
 799              		.cfi_offset 11, -8
 800              		.cfi_offset 14, -4
 801 0004 1546     		mov	r5, r2
 522:./Libraries/STM32H7xx_HAL_Driver/Src/stm32h7xx_hal_nand.c ****   uint32_t index;
 802              		.loc 1 522 3 is_stmt 1 view .LVU234
 523:./Libraries/STM32H7xx_HAL_Driver/Src/stm32h7xx_hal_nand.c ****   uint32_t tickstart;
 803              		.loc 1 523 3 view .LVU235
 524:./Libraries/STM32H7xx_HAL_Driver/Src/stm32h7xx_hal_nand.c ****   uint32_t deviceaddress;
 804              		.loc 1 524 3 view .LVU236
 525:./Libraries/STM32H7xx_HAL_Driver/Src/stm32h7xx_hal_nand.c ****   uint32_t numpagesread = 0U;
 805              		.loc 1 525 3 view .LVU237
 806              	.LVL41:
 526:./Libraries/STM32H7xx_HAL_Driver/Src/stm32h7xx_hal_nand.c ****   uint32_t nandaddress;
 807              		.loc 1 526 3 view .LVU238
 527:./Libraries/STM32H7xx_HAL_Driver/Src/stm32h7xx_hal_nand.c ****   uint32_t nbpages = NumPageToRead;
 808              		.loc 1 527 3 view .LVU239
 528:./Libraries/STM32H7xx_HAL_Driver/Src/stm32h7xx_hal_nand.c ****   uint8_t *buff = pBuffer;
 809              		.loc 1 528 3 view .LVU240
 529:./Libraries/STM32H7xx_HAL_Driver/Src/stm32h7xx_hal_nand.c **** 
 530:./Libraries/STM32H7xx_HAL_Driver/Src/stm32h7xx_hal_nand.c ****   /* Check the NAND controller state */
 531:./Libraries/STM32H7xx_HAL_Driver/Src/stm32h7xx_hal_nand.c ****   if (hnand->State == HAL_NAND_STATE_BUSY)
 810              		.loc 1 531 3 view .LVU241
 811              		.loc 1 531 12 is_stmt 0 view .LVU242
ARM GAS  /tmp/cc5RRSLv.s 			page 43


 812 0006 90F82120 		ldrb	r2, [r0, #33]	@ zero_extendqisi2
 813              	.LVL42:
 521:./Libraries/STM32H7xx_HAL_Driver/Src/stm32h7xx_hal_nand.c ****   uint32_t index;
 814              		.loc 1 521 1 view .LVU243
 815 000a 0446     		mov	r4, r0
 816 000c 83B0     		sub	sp, sp, #12
 817              	.LCFI17:
 818              		.cfi_def_cfa_offset 48
 819              		.loc 1 531 6 view .LVU244
 820 000e 022A     		cmp	r2, #2
 821              		.loc 1 531 12 view .LVU245
 822 0010 D0B2     		uxtb	r0, r2
 823              	.LVL43:
 824              		.loc 1 531 6 view .LVU246
 825 0012 66D0     		beq	.L69
 532:./Libraries/STM32H7xx_HAL_Driver/Src/stm32h7xx_hal_nand.c ****   {
 533:./Libraries/STM32H7xx_HAL_Driver/Src/stm32h7xx_hal_nand.c ****     return HAL_BUSY;
 534:./Libraries/STM32H7xx_HAL_Driver/Src/stm32h7xx_hal_nand.c ****   }
 535:./Libraries/STM32H7xx_HAL_Driver/Src/stm32h7xx_hal_nand.c ****   else if (hnand->State == HAL_NAND_STATE_READY)
 826              		.loc 1 535 8 is_stmt 1 view .LVU247
 827              		.loc 1 535 17 is_stmt 0 view .LVU248
 828 0014 94F82120 		ldrb	r2, [r4, #33]	@ zero_extendqisi2
 829              		.loc 1 535 11 view .LVU249
 830 0018 012A     		cmp	r2, #1
 831              		.loc 1 535 17 view .LVU250
 832 001a D0B2     		uxtb	r0, r2
 833              		.loc 1 535 11 view .LVU251
 834 001c 64D1     		bne	.L82
 536:./Libraries/STM32H7xx_HAL_Driver/Src/stm32h7xx_hal_nand.c ****   {
 537:./Libraries/STM32H7xx_HAL_Driver/Src/stm32h7xx_hal_nand.c ****     /* Process Locked */
 538:./Libraries/STM32H7xx_HAL_Driver/Src/stm32h7xx_hal_nand.c ****     __HAL_LOCK(hnand);
 835              		.loc 1 538 5 is_stmt 1 view .LVU252
 836              		.loc 1 538 5 view .LVU253
 837 001e 94F82020 		ldrb	r2, [r4, #32]	@ zero_extendqisi2
 838 0022 012A     		cmp	r2, #1
 839 0024 00F0A480 		beq	.L83
 840              		.loc 1 538 5 discriminator 2 view .LVU254
 539:./Libraries/STM32H7xx_HAL_Driver/Src/stm32h7xx_hal_nand.c **** 
 540:./Libraries/STM32H7xx_HAL_Driver/Src/stm32h7xx_hal_nand.c ****     /* Update the NAND controller state */
 541:./Libraries/STM32H7xx_HAL_Driver/Src/stm32h7xx_hal_nand.c ****     hnand->State = HAL_NAND_STATE_BUSY;
 841              		.loc 1 541 18 is_stmt 0 discriminator 2 view .LVU255
 842 0028 0222     		movs	r2, #2
 538:./Libraries/STM32H7xx_HAL_Driver/Src/stm32h7xx_hal_nand.c **** 
 843              		.loc 1 538 5 discriminator 2 view .LVU256
 844 002a 84F82000 		strb	r0, [r4, #32]
 538:./Libraries/STM32H7xx_HAL_Driver/Src/stm32h7xx_hal_nand.c **** 
 845              		.loc 1 538 5 is_stmt 1 discriminator 2 view .LVU257
 846              		.loc 1 541 5 discriminator 2 view .LVU258
 542:./Libraries/STM32H7xx_HAL_Driver/Src/stm32h7xx_hal_nand.c **** 
 543:./Libraries/STM32H7xx_HAL_Driver/Src/stm32h7xx_hal_nand.c ****     /* Identify the device address */
 544:./Libraries/STM32H7xx_HAL_Driver/Src/stm32h7xx_hal_nand.c ****     deviceaddress = NAND_DEVICE;
 545:./Libraries/STM32H7xx_HAL_Driver/Src/stm32h7xx_hal_nand.c **** 
 546:./Libraries/STM32H7xx_HAL_Driver/Src/stm32h7xx_hal_nand.c ****     /* NAND raw address calculation */
 547:./Libraries/STM32H7xx_HAL_Driver/Src/stm32h7xx_hal_nand.c ****     nandaddress = ARRAY_ADDRESS(pAddress, hnand);
 847              		.loc 1 547 19 is_stmt 0 discriminator 2 view .LVU259
 848 002e A06B     		ldr	r0, [r4, #56]
 541:./Libraries/STM32H7xx_HAL_Driver/Src/stm32h7xx_hal_nand.c **** 
ARM GAS  /tmp/cc5RRSLv.s 			page 44


 849              		.loc 1 541 18 discriminator 2 view .LVU260
 850 0030 84F82120 		strb	r2, [r4, #33]
 544:./Libraries/STM32H7xx_HAL_Driver/Src/stm32h7xx_hal_nand.c **** 
 851              		.loc 1 544 5 is_stmt 1 discriminator 2 view .LVU261
 852              	.LVL44:
 853              		.loc 1 547 5 discriminator 2 view .LVU262
 854              		.loc 1 547 19 is_stmt 0 discriminator 2 view .LVU263
 855 0034 8A88     		ldrh	r2, [r1, #4]
 856 0036 4E88     		ldrh	r6, [r1, #2]
 857 0038 0988     		ldrh	r1, [r1]
 858              	.LVL45:
 859              		.loc 1 547 19 discriminator 2 view .LVU264
 860 003a 00FB0626 		mla	r6, r0, r6, r2
 861 003e E26A     		ldr	r2, [r4, #44]
 862              		.loc 1 547 17 discriminator 2 view .LVU265
 863 0040 02FB0616 		mla	r6, r2, r6, r1
 864              	.LVL46:
 548:./Libraries/STM32H7xx_HAL_Driver/Src/stm32h7xx_hal_nand.c **** 
 549:./Libraries/STM32H7xx_HAL_Driver/Src/stm32h7xx_hal_nand.c ****     /* Page(s) read loop */
 550:./Libraries/STM32H7xx_HAL_Driver/Src/stm32h7xx_hal_nand.c ****     while ((nbpages != 0U) && (nandaddress < ((hnand->Config.BlockSize) * (hnand->Config.BlockNbr))
 865              		.loc 1 550 5 is_stmt 1 discriminator 2 view .LVU266
 866              		.loc 1 550 11 discriminator 2 view .LVU267
 867 0044 002B     		cmp	r3, #0
 868 0046 45D0     		beq	.L70
 869 0048 03EB060A 		add	r10, r3, r6
 870              		.loc 1 550 73 is_stmt 0 view .LVU268
 871 004c 236B     		ldr	r3, [r4, #48]
 872              	.LVL47:
 551:./Libraries/STM32H7xx_HAL_Driver/Src/stm32h7xx_hal_nand.c ****     {
 552:./Libraries/STM32H7xx_HAL_Driver/Src/stm32h7xx_hal_nand.c ****       /* Send read page command sequence */
 553:./Libraries/STM32H7xx_HAL_Driver/Src/stm32h7xx_hal_nand.c ****       *(__IO uint8_t *)((uint32_t)(deviceaddress | CMD_AREA)) = NAND_CMD_AREA_A;
 873              		.loc 1 553 63 view .LVU269
 874 004e DFF82891 		ldr	r9, .L103+4
 875 0052 4FF00008 		mov	r8, #0
 550:./Libraries/STM32H7xx_HAL_Driver/Src/stm32h7xx_hal_nand.c ****     {
 876              		.loc 1 550 73 view .LVU270
 877 0056 03FB02F3 		mul	r3, r3, r2
 554:./Libraries/STM32H7xx_HAL_Driver/Src/stm32h7xx_hal_nand.c ****       __DSB();
 555:./Libraries/STM32H7xx_HAL_Driver/Src/stm32h7xx_hal_nand.c **** 
 556:./Libraries/STM32H7xx_HAL_Driver/Src/stm32h7xx_hal_nand.c ****       /* Cards with page size <= 512 bytes */
 557:./Libraries/STM32H7xx_HAL_Driver/Src/stm32h7xx_hal_nand.c ****       if ((hnand->Config.PageSize) <= 512U)
 558:./Libraries/STM32H7xx_HAL_Driver/Src/stm32h7xx_hal_nand.c ****       {
 559:./Libraries/STM32H7xx_HAL_Driver/Src/stm32h7xx_hal_nand.c ****         if (((hnand->Config.BlockSize) * (hnand->Config.BlockNbr)) <= 65535U)
 560:./Libraries/STM32H7xx_HAL_Driver/Src/stm32h7xx_hal_nand.c ****         {
 561:./Libraries/STM32H7xx_HAL_Driver/Src/stm32h7xx_hal_nand.c ****           *(__IO uint8_t *)((uint32_t)(deviceaddress | ADDR_AREA)) = 0x00U;
 562:./Libraries/STM32H7xx_HAL_Driver/Src/stm32h7xx_hal_nand.c ****           __DSB();
 563:./Libraries/STM32H7xx_HAL_Driver/Src/stm32h7xx_hal_nand.c ****           *(__IO uint8_t *)((uint32_t)(deviceaddress | ADDR_AREA)) = ADDR_1ST_CYCLE(nandaddress);
 564:./Libraries/STM32H7xx_HAL_Driver/Src/stm32h7xx_hal_nand.c ****           __DSB();
 565:./Libraries/STM32H7xx_HAL_Driver/Src/stm32h7xx_hal_nand.c ****           *(__IO uint8_t *)((uint32_t)(deviceaddress | ADDR_AREA)) = ADDR_2ND_CYCLE(nandaddress);
 566:./Libraries/STM32H7xx_HAL_Driver/Src/stm32h7xx_hal_nand.c ****           __DSB();
 567:./Libraries/STM32H7xx_HAL_Driver/Src/stm32h7xx_hal_nand.c ****         }
 568:./Libraries/STM32H7xx_HAL_Driver/Src/stm32h7xx_hal_nand.c ****         else /* ((hnand->Config.BlockSize)*(hnand->Config.BlockNbr)) > 65535 */
 569:./Libraries/STM32H7xx_HAL_Driver/Src/stm32h7xx_hal_nand.c ****         {
 570:./Libraries/STM32H7xx_HAL_Driver/Src/stm32h7xx_hal_nand.c ****           *(__IO uint8_t *)((uint32_t)(deviceaddress | ADDR_AREA)) = 0x00U;
 571:./Libraries/STM32H7xx_HAL_Driver/Src/stm32h7xx_hal_nand.c ****           __DSB();
 572:./Libraries/STM32H7xx_HAL_Driver/Src/stm32h7xx_hal_nand.c ****           *(__IO uint8_t *)((uint32_t)(deviceaddress | ADDR_AREA)) = ADDR_1ST_CYCLE(nandaddress);
 573:./Libraries/STM32H7xx_HAL_Driver/Src/stm32h7xx_hal_nand.c ****           __DSB();
ARM GAS  /tmp/cc5RRSLv.s 			page 45


 574:./Libraries/STM32H7xx_HAL_Driver/Src/stm32h7xx_hal_nand.c ****           *(__IO uint8_t *)((uint32_t)(deviceaddress | ADDR_AREA)) = ADDR_2ND_CYCLE(nandaddress);
 575:./Libraries/STM32H7xx_HAL_Driver/Src/stm32h7xx_hal_nand.c ****           __DSB();
 576:./Libraries/STM32H7xx_HAL_Driver/Src/stm32h7xx_hal_nand.c ****           *(__IO uint8_t *)((uint32_t)(deviceaddress | ADDR_AREA)) = ADDR_3RD_CYCLE(nandaddress);
 577:./Libraries/STM32H7xx_HAL_Driver/Src/stm32h7xx_hal_nand.c ****           __DSB();
 578:./Libraries/STM32H7xx_HAL_Driver/Src/stm32h7xx_hal_nand.c ****         }
 579:./Libraries/STM32H7xx_HAL_Driver/Src/stm32h7xx_hal_nand.c ****       }
 580:./Libraries/STM32H7xx_HAL_Driver/Src/stm32h7xx_hal_nand.c ****       else /* (hnand->Config.PageSize) > 512 */
 581:./Libraries/STM32H7xx_HAL_Driver/Src/stm32h7xx_hal_nand.c ****       {
 582:./Libraries/STM32H7xx_HAL_Driver/Src/stm32h7xx_hal_nand.c ****         if (((hnand->Config.BlockSize) * (hnand->Config.BlockNbr)) <= 65535U)
 583:./Libraries/STM32H7xx_HAL_Driver/Src/stm32h7xx_hal_nand.c ****         {
 584:./Libraries/STM32H7xx_HAL_Driver/Src/stm32h7xx_hal_nand.c ****           *(__IO uint8_t *)((uint32_t)(deviceaddress | ADDR_AREA)) = 0x00U;
 585:./Libraries/STM32H7xx_HAL_Driver/Src/stm32h7xx_hal_nand.c ****           __DSB();
 586:./Libraries/STM32H7xx_HAL_Driver/Src/stm32h7xx_hal_nand.c ****           *(__IO uint8_t *)((uint32_t)(deviceaddress | ADDR_AREA)) = 0x00U;
 587:./Libraries/STM32H7xx_HAL_Driver/Src/stm32h7xx_hal_nand.c ****           __DSB();
 588:./Libraries/STM32H7xx_HAL_Driver/Src/stm32h7xx_hal_nand.c ****           *(__IO uint8_t *)((uint32_t)(deviceaddress | ADDR_AREA)) = ADDR_1ST_CYCLE(nandaddress);
 589:./Libraries/STM32H7xx_HAL_Driver/Src/stm32h7xx_hal_nand.c ****           __DSB();
 590:./Libraries/STM32H7xx_HAL_Driver/Src/stm32h7xx_hal_nand.c ****           *(__IO uint8_t *)((uint32_t)(deviceaddress | ADDR_AREA)) = ADDR_2ND_CYCLE(nandaddress);
 591:./Libraries/STM32H7xx_HAL_Driver/Src/stm32h7xx_hal_nand.c ****           __DSB();
 592:./Libraries/STM32H7xx_HAL_Driver/Src/stm32h7xx_hal_nand.c ****         }
 593:./Libraries/STM32H7xx_HAL_Driver/Src/stm32h7xx_hal_nand.c ****         else /* ((hnand->Config.BlockSize)*(hnand->Config.BlockNbr)) > 65535 */
 594:./Libraries/STM32H7xx_HAL_Driver/Src/stm32h7xx_hal_nand.c ****         {
 595:./Libraries/STM32H7xx_HAL_Driver/Src/stm32h7xx_hal_nand.c ****           *(__IO uint8_t *)((uint32_t)(deviceaddress | ADDR_AREA)) = 0x00U;
 878              		.loc 1 595 68 view .LVU271
 879 005a 464F     		ldr	r7, .L103
 550:./Libraries/STM32H7xx_HAL_Driver/Src/stm32h7xx_hal_nand.c ****     {
 880              		.loc 1 550 28 view .LVU272
 881 005c B342     		cmp	r3, r6
 882 005e 39D9     		bls	.L70
 883              	.LVL48:
 884              	.L81:
 553:./Libraries/STM32H7xx_HAL_Driver/Src/stm32h7xx_hal_nand.c ****       __DSB();
 885              		.loc 1 553 7 is_stmt 1 view .LVU273
 553:./Libraries/STM32H7xx_HAL_Driver/Src/stm32h7xx_hal_nand.c ****       __DSB();
 886              		.loc 1 553 63 is_stmt 0 view .LVU274
 887 0060 89F80080 		strb	r8, [r9]
 554:./Libraries/STM32H7xx_HAL_Driver/Src/stm32h7xx_hal_nand.c ****       __DSB();
 888              		.loc 1 554 7 is_stmt 1 view .LVU275
 889              	.LBB684:
 890              	.LBI684:
 944:./Libraries/CMSIS/Core/Include/cmsis_gcc.h **** {
 891              		.loc 2 944 27 view .LVU276
 892              	.LBB685:
 893              		.loc 2 946 3 view .LVU277
 894              		.syntax unified
 895              	@ 946 "./Libraries/CMSIS/Core/Include/cmsis_gcc.h" 1
 896 0064 BFF34F8F 		dsb 0xF
 897              	@ 0 "" 2
 898              		.thumb
 899              		.syntax unified
 900              	.LBE685:
 901              	.LBE684:
 557:./Libraries/STM32H7xx_HAL_Driver/Src/stm32h7xx_hal_nand.c ****       {
 902              		.loc 1 557 7 view .LVU278
 557:./Libraries/STM32H7xx_HAL_Driver/Src/stm32h7xx_hal_nand.c ****       {
 903              		.loc 1 557 10 is_stmt 0 view .LVU279
 904 0068 636A     		ldr	r3, [r4, #36]
 559:./Libraries/STM32H7xx_HAL_Driver/Src/stm32h7xx_hal_nand.c ****         {
ARM GAS  /tmp/cc5RRSLv.s 			page 46


 905              		.loc 1 559 40 view .LVU280
 906 006a E26A     		ldr	r2, [r4, #44]
 557:./Libraries/STM32H7xx_HAL_Driver/Src/stm32h7xx_hal_nand.c ****       {
 907              		.loc 1 557 10 view .LVU281
 908 006c B3F5007F 		cmp	r3, #512
 559:./Libraries/STM32H7xx_HAL_Driver/Src/stm32h7xx_hal_nand.c ****         {
 909              		.loc 1 559 40 view .LVU282
 910 0070 236B     		ldr	r3, [r4, #48]
 561:./Libraries/STM32H7xx_HAL_Driver/Src/stm32h7xx_hal_nand.c ****           __DSB();
 911              		.loc 1 561 68 view .LVU283
 912 0072 87F80080 		strb	r8, [r7]
 559:./Libraries/STM32H7xx_HAL_Driver/Src/stm32h7xx_hal_nand.c ****         {
 913              		.loc 1 559 40 view .LVU284
 914 0076 03FB02F3 		mul	r3, r3, r2
 557:./Libraries/STM32H7xx_HAL_Driver/Src/stm32h7xx_hal_nand.c ****       {
 915              		.loc 1 557 10 view .LVU285
 916 007a 4ED8     		bhi	.L72
 559:./Libraries/STM32H7xx_HAL_Driver/Src/stm32h7xx_hal_nand.c ****         {
 917              		.loc 1 559 9 is_stmt 1 view .LVU286
 559:./Libraries/STM32H7xx_HAL_Driver/Src/stm32h7xx_hal_nand.c ****         {
 918              		.loc 1 559 12 is_stmt 0 view .LVU287
 919 007c B3F5803F 		cmp	r3, #65536
 920 0080 3AD2     		bcs	.L100
 921              	.L99:
 587:./Libraries/STM32H7xx_HAL_Driver/Src/stm32h7xx_hal_nand.c ****           *(__IO uint8_t *)((uint32_t)(deviceaddress | ADDR_AREA)) = ADDR_1ST_CYCLE(nandaddress);
 922              		.loc 1 587 11 is_stmt 1 view .LVU288
 923              	.LBB686:
 924              	.LBI686:
 944:./Libraries/CMSIS/Core/Include/cmsis_gcc.h **** {
 925              		.loc 2 944 27 view .LVU289
 926              	.LBB687:
 927              		.loc 2 946 3 view .LVU290
 928              		.syntax unified
 929              	@ 946 "./Libraries/CMSIS/Core/Include/cmsis_gcc.h" 1
 930 0082 BFF34F8F 		dsb 0xF
 931              	@ 0 "" 2
 932              		.thumb
 933              		.syntax unified
 934              	.LBE687:
 935              	.LBE686:
 588:./Libraries/STM32H7xx_HAL_Driver/Src/stm32h7xx_hal_nand.c ****           __DSB();
 936              		.loc 1 588 11 view .LVU291
 937 0086 F3B2     		uxtb	r3, r6
 588:./Libraries/STM32H7xx_HAL_Driver/Src/stm32h7xx_hal_nand.c ****           __DSB();
 938              		.loc 1 588 68 is_stmt 0 view .LVU292
 939 0088 3B70     		strb	r3, [r7]
 589:./Libraries/STM32H7xx_HAL_Driver/Src/stm32h7xx_hal_nand.c ****           *(__IO uint8_t *)((uint32_t)(deviceaddress | ADDR_AREA)) = ADDR_2ND_CYCLE(nandaddress);
 940              		.loc 1 589 11 is_stmt 1 view .LVU293
 941              	.LBB688:
 942              	.LBI688:
 944:./Libraries/CMSIS/Core/Include/cmsis_gcc.h **** {
 943              		.loc 2 944 27 view .LVU294
 944              	.LBB689:
 945              		.loc 2 946 3 view .LVU295
 946              		.syntax unified
 947              	@ 946 "./Libraries/CMSIS/Core/Include/cmsis_gcc.h" 1
 948 008a BFF34F8F 		dsb 0xF
ARM GAS  /tmp/cc5RRSLv.s 			page 47


 949              	@ 0 "" 2
 950              		.thumb
 951              		.syntax unified
 952              	.LBE689:
 953              	.LBE688:
 590:./Libraries/STM32H7xx_HAL_Driver/Src/stm32h7xx_hal_nand.c ****           __DSB();
 954              		.loc 1 590 11 view .LVU296
 590:./Libraries/STM32H7xx_HAL_Driver/Src/stm32h7xx_hal_nand.c ****           __DSB();
 955              		.loc 1 590 70 is_stmt 0 view .LVU297
 956 008e C6F30723 		ubfx	r3, r6, #8, #8
 590:./Libraries/STM32H7xx_HAL_Driver/Src/stm32h7xx_hal_nand.c ****           __DSB();
 957              		.loc 1 590 68 view .LVU298
 958 0092 3B70     		strb	r3, [r7]
 591:./Libraries/STM32H7xx_HAL_Driver/Src/stm32h7xx_hal_nand.c ****         }
 959              		.loc 1 591 11 is_stmt 1 view .LVU299
 960              	.LBB690:
 961              	.LBI690:
 944:./Libraries/CMSIS/Core/Include/cmsis_gcc.h **** {
 962              		.loc 2 944 27 view .LVU300
 963              	.LBB691:
 964              		.loc 2 946 3 view .LVU301
 965              		.syntax unified
 966              	@ 946 "./Libraries/CMSIS/Core/Include/cmsis_gcc.h" 1
 967 0094 BFF34F8F 		dsb 0xF
 968              	@ 0 "" 2
 969              		.thumb
 970              		.syntax unified
 971              	.L74:
 972              		.loc 2 946 3 is_stmt 0 view .LVU302
 973              	.LBE691:
 974              	.LBE690:
 596:./Libraries/STM32H7xx_HAL_Driver/Src/stm32h7xx_hal_nand.c ****           __DSB();
 597:./Libraries/STM32H7xx_HAL_Driver/Src/stm32h7xx_hal_nand.c ****           *(__IO uint8_t *)((uint32_t)(deviceaddress | ADDR_AREA)) = 0x00U;
 598:./Libraries/STM32H7xx_HAL_Driver/Src/stm32h7xx_hal_nand.c ****           __DSB();
 599:./Libraries/STM32H7xx_HAL_Driver/Src/stm32h7xx_hal_nand.c ****           *(__IO uint8_t *)((uint32_t)(deviceaddress | ADDR_AREA)) = ADDR_1ST_CYCLE(nandaddress);
 600:./Libraries/STM32H7xx_HAL_Driver/Src/stm32h7xx_hal_nand.c ****           __DSB();
 601:./Libraries/STM32H7xx_HAL_Driver/Src/stm32h7xx_hal_nand.c ****           *(__IO uint8_t *)((uint32_t)(deviceaddress | ADDR_AREA)) = ADDR_2ND_CYCLE(nandaddress);
 602:./Libraries/STM32H7xx_HAL_Driver/Src/stm32h7xx_hal_nand.c ****           __DSB();
 603:./Libraries/STM32H7xx_HAL_Driver/Src/stm32h7xx_hal_nand.c ****           *(__IO uint8_t *)((uint32_t)(deviceaddress | ADDR_AREA)) = ADDR_3RD_CYCLE(nandaddress);
 604:./Libraries/STM32H7xx_HAL_Driver/Src/stm32h7xx_hal_nand.c ****           __DSB();
 605:./Libraries/STM32H7xx_HAL_Driver/Src/stm32h7xx_hal_nand.c ****         }
 606:./Libraries/STM32H7xx_HAL_Driver/Src/stm32h7xx_hal_nand.c ****       }
 607:./Libraries/STM32H7xx_HAL_Driver/Src/stm32h7xx_hal_nand.c **** 
 608:./Libraries/STM32H7xx_HAL_Driver/Src/stm32h7xx_hal_nand.c ****       *(__IO uint8_t *)((uint32_t)(deviceaddress | CMD_AREA))  = NAND_CMD_AREA_TRUE1;
 975              		.loc 1 608 7 is_stmt 1 view .LVU303
 976              		.loc 1 608 64 is_stmt 0 view .LVU304
 977 0098 3023     		movs	r3, #48
 978 009a 89F80030 		strb	r3, [r9]
 609:./Libraries/STM32H7xx_HAL_Driver/Src/stm32h7xx_hal_nand.c ****       __DSB();
 979              		.loc 1 609 7 is_stmt 1 view .LVU305
 980              	.LBB692:
 981              	.LBI692:
 944:./Libraries/CMSIS/Core/Include/cmsis_gcc.h **** {
 982              		.loc 2 944 27 view .LVU306
 983              	.LBB693:
 984              		.loc 2 946 3 view .LVU307
 985              		.syntax unified
ARM GAS  /tmp/cc5RRSLv.s 			page 48


 986              	@ 946 "./Libraries/CMSIS/Core/Include/cmsis_gcc.h" 1
 987 009e BFF34F8F 		dsb 0xF
 988              	@ 0 "" 2
 989              		.thumb
 990              		.syntax unified
 991              	.LBE693:
 992              	.LBE692:
 610:./Libraries/STM32H7xx_HAL_Driver/Src/stm32h7xx_hal_nand.c **** 
 611:./Libraries/STM32H7xx_HAL_Driver/Src/stm32h7xx_hal_nand.c **** 
 612:./Libraries/STM32H7xx_HAL_Driver/Src/stm32h7xx_hal_nand.c ****       if (hnand->Config.ExtraCommandEnable == ENABLE)
 993              		.loc 1 612 7 view .LVU308
 994              		.loc 1 612 10 is_stmt 0 view .LVU309
 995 00a2 94F83C30 		ldrb	r3, [r4, #60]	@ zero_extendqisi2
 996 00a6 012B     		cmp	r3, #1
 997 00a8 3FD0     		beq	.L101
 998              	.L76:
 999              	.LVL49:
 613:./Libraries/STM32H7xx_HAL_Driver/Src/stm32h7xx_hal_nand.c ****       {
 614:./Libraries/STM32H7xx_HAL_Driver/Src/stm32h7xx_hal_nand.c ****         /* Get tick */
 615:./Libraries/STM32H7xx_HAL_Driver/Src/stm32h7xx_hal_nand.c ****         tickstart = HAL_GetTick();
 616:./Libraries/STM32H7xx_HAL_Driver/Src/stm32h7xx_hal_nand.c **** 
 617:./Libraries/STM32H7xx_HAL_Driver/Src/stm32h7xx_hal_nand.c ****         /* Read status until NAND is ready */
 618:./Libraries/STM32H7xx_HAL_Driver/Src/stm32h7xx_hal_nand.c ****         while (HAL_NAND_Read_Status(hnand) != NAND_READY)
 619:./Libraries/STM32H7xx_HAL_Driver/Src/stm32h7xx_hal_nand.c ****         {
 620:./Libraries/STM32H7xx_HAL_Driver/Src/stm32h7xx_hal_nand.c ****           if ((HAL_GetTick() - tickstart) > NAND_WRITE_TIMEOUT)
 621:./Libraries/STM32H7xx_HAL_Driver/Src/stm32h7xx_hal_nand.c ****           {
 622:./Libraries/STM32H7xx_HAL_Driver/Src/stm32h7xx_hal_nand.c ****             /* Update the NAND controller state */
 623:./Libraries/STM32H7xx_HAL_Driver/Src/stm32h7xx_hal_nand.c ****             hnand->State = HAL_NAND_STATE_ERROR;
 624:./Libraries/STM32H7xx_HAL_Driver/Src/stm32h7xx_hal_nand.c **** 
 625:./Libraries/STM32H7xx_HAL_Driver/Src/stm32h7xx_hal_nand.c ****             /* Process unlocked */
 626:./Libraries/STM32H7xx_HAL_Driver/Src/stm32h7xx_hal_nand.c ****             __HAL_UNLOCK(hnand);
 627:./Libraries/STM32H7xx_HAL_Driver/Src/stm32h7xx_hal_nand.c **** 
 628:./Libraries/STM32H7xx_HAL_Driver/Src/stm32h7xx_hal_nand.c ****             return HAL_TIMEOUT;
 629:./Libraries/STM32H7xx_HAL_Driver/Src/stm32h7xx_hal_nand.c ****           }
 630:./Libraries/STM32H7xx_HAL_Driver/Src/stm32h7xx_hal_nand.c ****         }
 631:./Libraries/STM32H7xx_HAL_Driver/Src/stm32h7xx_hal_nand.c **** 
 632:./Libraries/STM32H7xx_HAL_Driver/Src/stm32h7xx_hal_nand.c ****         /* Go back to read mode */
 633:./Libraries/STM32H7xx_HAL_Driver/Src/stm32h7xx_hal_nand.c ****         *(__IO uint8_t *)((uint32_t)(deviceaddress | CMD_AREA)) = ((uint8_t)0x00);
 634:./Libraries/STM32H7xx_HAL_Driver/Src/stm32h7xx_hal_nand.c ****         __DSB();
 635:./Libraries/STM32H7xx_HAL_Driver/Src/stm32h7xx_hal_nand.c ****       }
 636:./Libraries/STM32H7xx_HAL_Driver/Src/stm32h7xx_hal_nand.c **** 
 637:./Libraries/STM32H7xx_HAL_Driver/Src/stm32h7xx_hal_nand.c ****       /* Get Data into Buffer */
 638:./Libraries/STM32H7xx_HAL_Driver/Src/stm32h7xx_hal_nand.c ****       for (index = 0U; index < hnand->Config.PageSize; index++)
 1000              		.loc 1 638 24 is_stmt 1 discriminator 1 view .LVU310
 1001              		.loc 1 638 7 is_stmt 0 discriminator 1 view .LVU311
 1002 00aa 636A     		ldr	r3, [r4, #36]
 1003 00ac 4BB1     		cbz	r3, .L79
 1004              		.loc 1 638 7 view .LVU312
 1005 00ae 0022     		movs	r2, #0
 639:./Libraries/STM32H7xx_HAL_Driver/Src/stm32h7xx_hal_nand.c ****       {
 640:./Libraries/STM32H7xx_HAL_Driver/Src/stm32h7xx_hal_nand.c ****         *buff = *(uint8_t *)deviceaddress;
 1006              		.loc 1 640 17 view .LVU313
 1007 00b0 4FF00041 		mov	r1, #-2147483648
 1008              	.LVL50:
 1009              	.L80:
 1010              		.loc 1 640 9 is_stmt 1 discriminator 3 view .LVU314
 1011              		.loc 1 640 17 is_stmt 0 discriminator 3 view .LVU315
ARM GAS  /tmp/cc5RRSLv.s 			page 49


 1012 00b4 0B78     		ldrb	r3, [r1]	@ zero_extendqisi2
 638:./Libraries/STM32H7xx_HAL_Driver/Src/stm32h7xx_hal_nand.c ****       {
 1013              		.loc 1 638 61 discriminator 3 view .LVU316
 1014 00b6 0132     		adds	r2, r2, #1
 1015              	.LVL51:
 1016              		.loc 1 640 15 discriminator 3 view .LVU317
 1017 00b8 05F8013B 		strb	r3, [r5], #1
 1018              	.LVL52:
 641:./Libraries/STM32H7xx_HAL_Driver/Src/stm32h7xx_hal_nand.c ****         buff++;
 1019              		.loc 1 641 9 is_stmt 1 discriminator 3 view .LVU318
 638:./Libraries/STM32H7xx_HAL_Driver/Src/stm32h7xx_hal_nand.c ****       {
 1020              		.loc 1 638 56 discriminator 3 view .LVU319
 638:./Libraries/STM32H7xx_HAL_Driver/Src/stm32h7xx_hal_nand.c ****       {
 1021              		.loc 1 638 24 discriminator 3 view .LVU320
 638:./Libraries/STM32H7xx_HAL_Driver/Src/stm32h7xx_hal_nand.c ****       {
 1022              		.loc 1 638 7 is_stmt 0 discriminator 3 view .LVU321
 1023 00bc 636A     		ldr	r3, [r4, #36]
 1024 00be 9342     		cmp	r3, r2
 1025 00c0 F8D8     		bhi	.L80
 1026              	.LVL53:
 1027              	.L79:
 642:./Libraries/STM32H7xx_HAL_Driver/Src/stm32h7xx_hal_nand.c ****       }
 643:./Libraries/STM32H7xx_HAL_Driver/Src/stm32h7xx_hal_nand.c **** 
 644:./Libraries/STM32H7xx_HAL_Driver/Src/stm32h7xx_hal_nand.c ****       /* Increment read pages number */
 645:./Libraries/STM32H7xx_HAL_Driver/Src/stm32h7xx_hal_nand.c ****       numpagesread++;
 1028              		.loc 1 645 7 is_stmt 1 view .LVU322
 646:./Libraries/STM32H7xx_HAL_Driver/Src/stm32h7xx_hal_nand.c **** 
 647:./Libraries/STM32H7xx_HAL_Driver/Src/stm32h7xx_hal_nand.c ****       /* Decrement pages to read */
 648:./Libraries/STM32H7xx_HAL_Driver/Src/stm32h7xx_hal_nand.c ****       nbpages--;
 1029              		.loc 1 648 7 view .LVU323
 649:./Libraries/STM32H7xx_HAL_Driver/Src/stm32h7xx_hal_nand.c **** 
 650:./Libraries/STM32H7xx_HAL_Driver/Src/stm32h7xx_hal_nand.c ****       /* Increment the NAND address */
 651:./Libraries/STM32H7xx_HAL_Driver/Src/stm32h7xx_hal_nand.c ****       nandaddress = (uint32_t)(nandaddress + 1U);
 1030              		.loc 1 651 7 view .LVU324
 1031              		.loc 1 651 19 is_stmt 0 view .LVU325
 1032 00c2 0136     		adds	r6, r6, #1
 1033              	.LVL54:
 550:./Libraries/STM32H7xx_HAL_Driver/Src/stm32h7xx_hal_nand.c ****     {
 1034              		.loc 1 550 11 is_stmt 1 view .LVU326
 1035 00c4 B245     		cmp	r10, r6
 1036 00c6 05D0     		beq	.L70
 550:./Libraries/STM32H7xx_HAL_Driver/Src/stm32h7xx_hal_nand.c ****     {
 1037              		.loc 1 550 11 is_stmt 0 view .LVU327
 1038 00c8 E26A     		ldr	r2, [r4, #44]
 1039              	.LVL55:
 550:./Libraries/STM32H7xx_HAL_Driver/Src/stm32h7xx_hal_nand.c ****     {
 1040              		.loc 1 550 73 view .LVU328
 1041 00ca 236B     		ldr	r3, [r4, #48]
 1042 00cc 03FB02F3 		mul	r3, r3, r2
 550:./Libraries/STM32H7xx_HAL_Driver/Src/stm32h7xx_hal_nand.c ****     {
 1043              		.loc 1 550 28 view .LVU329
 1044 00d0 B342     		cmp	r3, r6
 1045 00d2 C5D8     		bhi	.L81
 1046              	.LVL56:
 1047              	.L70:
 652:./Libraries/STM32H7xx_HAL_Driver/Src/stm32h7xx_hal_nand.c ****     }
 653:./Libraries/STM32H7xx_HAL_Driver/Src/stm32h7xx_hal_nand.c **** 
ARM GAS  /tmp/cc5RRSLv.s 			page 50


 654:./Libraries/STM32H7xx_HAL_Driver/Src/stm32h7xx_hal_nand.c ****     /* Update the NAND controller state */
 655:./Libraries/STM32H7xx_HAL_Driver/Src/stm32h7xx_hal_nand.c ****     hnand->State = HAL_NAND_STATE_READY;
 1048              		.loc 1 655 5 is_stmt 1 view .LVU330
 656:./Libraries/STM32H7xx_HAL_Driver/Src/stm32h7xx_hal_nand.c **** 
 657:./Libraries/STM32H7xx_HAL_Driver/Src/stm32h7xx_hal_nand.c ****     /* Process unlocked */
 658:./Libraries/STM32H7xx_HAL_Driver/Src/stm32h7xx_hal_nand.c ****     __HAL_UNLOCK(hnand);
 1049              		.loc 1 658 5 is_stmt 0 view .LVU331
 1050 00d4 0023     		movs	r3, #0
 655:./Libraries/STM32H7xx_HAL_Driver/Src/stm32h7xx_hal_nand.c **** 
 1051              		.loc 1 655 18 view .LVU332
 1052 00d6 0122     		movs	r2, #1
 659:./Libraries/STM32H7xx_HAL_Driver/Src/stm32h7xx_hal_nand.c ****   }
 660:./Libraries/STM32H7xx_HAL_Driver/Src/stm32h7xx_hal_nand.c ****   else
 661:./Libraries/STM32H7xx_HAL_Driver/Src/stm32h7xx_hal_nand.c ****   {
 662:./Libraries/STM32H7xx_HAL_Driver/Src/stm32h7xx_hal_nand.c ****     return HAL_ERROR;
 663:./Libraries/STM32H7xx_HAL_Driver/Src/stm32h7xx_hal_nand.c ****   }
 664:./Libraries/STM32H7xx_HAL_Driver/Src/stm32h7xx_hal_nand.c **** 
 665:./Libraries/STM32H7xx_HAL_Driver/Src/stm32h7xx_hal_nand.c ****   return HAL_OK;
 1053              		.loc 1 665 10 view .LVU333
 1054 00d8 1846     		mov	r0, r3
 655:./Libraries/STM32H7xx_HAL_Driver/Src/stm32h7xx_hal_nand.c **** 
 1055              		.loc 1 655 18 view .LVU334
 1056 00da 84F82120 		strb	r2, [r4, #33]
 658:./Libraries/STM32H7xx_HAL_Driver/Src/stm32h7xx_hal_nand.c ****   }
 1057              		.loc 1 658 5 is_stmt 1 view .LVU335
 658:./Libraries/STM32H7xx_HAL_Driver/Src/stm32h7xx_hal_nand.c ****   }
 1058              		.loc 1 658 5 view .LVU336
 1059 00de 84F82030 		strb	r3, [r4, #32]
 658:./Libraries/STM32H7xx_HAL_Driver/Src/stm32h7xx_hal_nand.c ****   }
 1060              		.loc 1 658 5 view .LVU337
 1061              		.loc 1 665 3 view .LVU338
 1062              	.LVL57:
 1063              	.L69:
 666:./Libraries/STM32H7xx_HAL_Driver/Src/stm32h7xx_hal_nand.c **** }
 1064              		.loc 1 666 1 is_stmt 0 view .LVU339
 1065 00e2 03B0     		add	sp, sp, #12
 1066              	.LCFI18:
 1067              		.cfi_remember_state
 1068              		.cfi_def_cfa_offset 36
 1069              		@ sp needed
 1070 00e4 BDE8F08F 		pop	{r4, r5, r6, r7, r8, r9, r10, fp, pc}
 1071              	.LVL58:
 1072              	.L82:
 1073              	.LCFI19:
 1074              		.cfi_restore_state
 662:./Libraries/STM32H7xx_HAL_Driver/Src/stm32h7xx_hal_nand.c ****   }
 1075              		.loc 1 662 12 view .LVU340
 1076 00e8 0120     		movs	r0, #1
 1077              		.loc 1 666 1 view .LVU341
 1078 00ea 03B0     		add	sp, sp, #12
 1079              	.LCFI20:
 1080              		.cfi_remember_state
 1081              		.cfi_def_cfa_offset 36
 1082              		@ sp needed
 1083 00ec BDE8F08F 		pop	{r4, r5, r6, r7, r8, r9, r10, fp, pc}
 1084              	.LVL59:
 1085              	.L75:
ARM GAS  /tmp/cc5RRSLv.s 			page 51


 1086              	.LCFI21:
 1087              		.cfi_restore_state
 595:./Libraries/STM32H7xx_HAL_Driver/Src/stm32h7xx_hal_nand.c ****           __DSB();
 1088              		.loc 1 595 11 is_stmt 1 view .LVU342
 596:./Libraries/STM32H7xx_HAL_Driver/Src/stm32h7xx_hal_nand.c ****           *(__IO uint8_t *)((uint32_t)(deviceaddress | ADDR_AREA)) = 0x00U;
 1089              		.loc 1 596 11 view .LVU343
 1090              	.LBB694:
 1091              	.LBI694:
 944:./Libraries/CMSIS/Core/Include/cmsis_gcc.h **** {
 1092              		.loc 2 944 27 view .LVU344
 1093              	.LBB695:
 1094              		.loc 2 946 3 view .LVU345
 1095              		.syntax unified
 1096              	@ 946 "./Libraries/CMSIS/Core/Include/cmsis_gcc.h" 1
 1097 00f0 BFF34F8F 		dsb 0xF
 1098              	@ 0 "" 2
 1099              		.thumb
 1100              		.syntax unified
 1101              	.LBE695:
 1102              	.LBE694:
 597:./Libraries/STM32H7xx_HAL_Driver/Src/stm32h7xx_hal_nand.c ****           __DSB();
 1103              		.loc 1 597 11 view .LVU346
 597:./Libraries/STM32H7xx_HAL_Driver/Src/stm32h7xx_hal_nand.c ****           __DSB();
 1104              		.loc 1 597 68 is_stmt 0 view .LVU347
 1105 00f4 87F80080 		strb	r8, [r7]
 1106              	.L100:
 598:./Libraries/STM32H7xx_HAL_Driver/Src/stm32h7xx_hal_nand.c ****           *(__IO uint8_t *)((uint32_t)(deviceaddress | ADDR_AREA)) = ADDR_1ST_CYCLE(nandaddress);
 1107              		.loc 1 598 11 is_stmt 1 view .LVU348
 1108              	.LBB696:
 1109              	.LBI696:
 944:./Libraries/CMSIS/Core/Include/cmsis_gcc.h **** {
 1110              		.loc 2 944 27 view .LVU349
 1111              	.LBB697:
 1112              		.loc 2 946 3 view .LVU350
 1113              		.syntax unified
 1114              	@ 946 "./Libraries/CMSIS/Core/Include/cmsis_gcc.h" 1
 1115 00f8 BFF34F8F 		dsb 0xF
 1116              	@ 0 "" 2
 1117              		.thumb
 1118              		.syntax unified
 1119              	.LBE697:
 1120              	.LBE696:
 599:./Libraries/STM32H7xx_HAL_Driver/Src/stm32h7xx_hal_nand.c ****           __DSB();
 1121              		.loc 1 599 11 view .LVU351
 1122 00fc F3B2     		uxtb	r3, r6
 599:./Libraries/STM32H7xx_HAL_Driver/Src/stm32h7xx_hal_nand.c ****           __DSB();
 1123              		.loc 1 599 68 is_stmt 0 view .LVU352
 1124 00fe 3B70     		strb	r3, [r7]
 600:./Libraries/STM32H7xx_HAL_Driver/Src/stm32h7xx_hal_nand.c ****           *(__IO uint8_t *)((uint32_t)(deviceaddress | ADDR_AREA)) = ADDR_2ND_CYCLE(nandaddress);
 1125              		.loc 1 600 11 is_stmt 1 view .LVU353
 1126              	.LBB698:
 1127              	.LBI698:
 944:./Libraries/CMSIS/Core/Include/cmsis_gcc.h **** {
 1128              		.loc 2 944 27 view .LVU354
 1129              	.LBB699:
 1130              		.loc 2 946 3 view .LVU355
 1131              		.syntax unified
ARM GAS  /tmp/cc5RRSLv.s 			page 52


 1132              	@ 946 "./Libraries/CMSIS/Core/Include/cmsis_gcc.h" 1
 1133 0100 BFF34F8F 		dsb 0xF
 1134              	@ 0 "" 2
 1135              		.thumb
 1136              		.syntax unified
 1137              	.LBE699:
 1138              	.LBE698:
 601:./Libraries/STM32H7xx_HAL_Driver/Src/stm32h7xx_hal_nand.c ****           __DSB();
 1139              		.loc 1 601 11 view .LVU356
 601:./Libraries/STM32H7xx_HAL_Driver/Src/stm32h7xx_hal_nand.c ****           __DSB();
 1140              		.loc 1 601 70 is_stmt 0 view .LVU357
 1141 0104 C6F30723 		ubfx	r3, r6, #8, #8
 601:./Libraries/STM32H7xx_HAL_Driver/Src/stm32h7xx_hal_nand.c ****           __DSB();
 1142              		.loc 1 601 68 view .LVU358
 1143 0108 3B70     		strb	r3, [r7]
 602:./Libraries/STM32H7xx_HAL_Driver/Src/stm32h7xx_hal_nand.c ****           *(__IO uint8_t *)((uint32_t)(deviceaddress | ADDR_AREA)) = ADDR_3RD_CYCLE(nandaddress);
 1144              		.loc 1 602 11 is_stmt 1 view .LVU359
 1145              	.LBB700:
 1146              	.LBI700:
 944:./Libraries/CMSIS/Core/Include/cmsis_gcc.h **** {
 1147              		.loc 2 944 27 view .LVU360
 1148              	.LBB701:
 1149              		.loc 2 946 3 view .LVU361
 1150              		.syntax unified
 1151              	@ 946 "./Libraries/CMSIS/Core/Include/cmsis_gcc.h" 1
 1152 010a BFF34F8F 		dsb 0xF
 1153              	@ 0 "" 2
 1154              		.thumb
 1155              		.syntax unified
 1156              	.LBE701:
 1157              	.LBE700:
 603:./Libraries/STM32H7xx_HAL_Driver/Src/stm32h7xx_hal_nand.c ****           __DSB();
 1158              		.loc 1 603 11 view .LVU362
 603:./Libraries/STM32H7xx_HAL_Driver/Src/stm32h7xx_hal_nand.c ****           __DSB();
 1159              		.loc 1 603 70 is_stmt 0 view .LVU363
 1160 010e C6F30743 		ubfx	r3, r6, #16, #8
 603:./Libraries/STM32H7xx_HAL_Driver/Src/stm32h7xx_hal_nand.c ****           __DSB();
 1161              		.loc 1 603 68 view .LVU364
 1162 0112 3B70     		strb	r3, [r7]
 604:./Libraries/STM32H7xx_HAL_Driver/Src/stm32h7xx_hal_nand.c ****         }
 1163              		.loc 1 604 11 is_stmt 1 view .LVU365
 1164              	.LBB702:
 1165              	.LBI702:
 944:./Libraries/CMSIS/Core/Include/cmsis_gcc.h **** {
 1166              		.loc 2 944 27 view .LVU366
 1167              	.LBB703:
 1168              		.loc 2 946 3 view .LVU367
 1169              		.syntax unified
 1170              	@ 946 "./Libraries/CMSIS/Core/Include/cmsis_gcc.h" 1
 1171 0114 BFF34F8F 		dsb 0xF
 1172              	@ 0 "" 2
 947:./Libraries/CMSIS/Core/Include/cmsis_gcc.h **** }
 1173              		.loc 2 947 1 is_stmt 0 view .LVU368
 1174              		.thumb
 1175              		.syntax unified
 1176 0118 BEE7     		b	.L74
 1177              	.L72:
ARM GAS  /tmp/cc5RRSLv.s 			page 53


 1178              		.loc 2 947 1 view .LVU369
 1179              	.LBE703:
 1180              	.LBE702:
 582:./Libraries/STM32H7xx_HAL_Driver/Src/stm32h7xx_hal_nand.c ****         {
 1181              		.loc 1 582 9 is_stmt 1 view .LVU370
 582:./Libraries/STM32H7xx_HAL_Driver/Src/stm32h7xx_hal_nand.c ****         {
 1182              		.loc 1 582 12 is_stmt 0 view .LVU371
 1183 011a B3F5803F 		cmp	r3, #65536
 1184 011e E7D2     		bcs	.L75
 584:./Libraries/STM32H7xx_HAL_Driver/Src/stm32h7xx_hal_nand.c ****           __DSB();
 1185              		.loc 1 584 11 is_stmt 1 view .LVU372
 585:./Libraries/STM32H7xx_HAL_Driver/Src/stm32h7xx_hal_nand.c ****           *(__IO uint8_t *)((uint32_t)(deviceaddress | ADDR_AREA)) = 0x00U;
 1186              		.loc 1 585 11 view .LVU373
 1187              	.LBB704:
 1188              	.LBI704:
 944:./Libraries/CMSIS/Core/Include/cmsis_gcc.h **** {
 1189              		.loc 2 944 27 view .LVU374
 1190              	.LBB705:
 946:./Libraries/CMSIS/Core/Include/cmsis_gcc.h **** }
 1191              		.loc 2 946 3 view .LVU375
 1192              		.syntax unified
 1193              	@ 946 "./Libraries/CMSIS/Core/Include/cmsis_gcc.h" 1
 1194 0120 BFF34F8F 		dsb 0xF
 1195              	@ 0 "" 2
 1196              		.thumb
 1197              		.syntax unified
 1198              	.LBE705:
 1199              	.LBE704:
 586:./Libraries/STM32H7xx_HAL_Driver/Src/stm32h7xx_hal_nand.c ****           __DSB();
 1200              		.loc 1 586 11 view .LVU376
 586:./Libraries/STM32H7xx_HAL_Driver/Src/stm32h7xx_hal_nand.c ****           __DSB();
 1201              		.loc 1 586 68 is_stmt 0 view .LVU377
 1202 0124 87F80080 		strb	r8, [r7]
 1203 0128 ABE7     		b	.L99
 1204              	.L101:
 615:./Libraries/STM32H7xx_HAL_Driver/Src/stm32h7xx_hal_nand.c **** 
 1205              		.loc 1 615 9 is_stmt 1 view .LVU378
 1206              	.LBB706:
 1207              	.LBB707:
 667:./Libraries/STM32H7xx_HAL_Driver/Src/stm32h7xx_hal_nand.c **** 
 668:./Libraries/STM32H7xx_HAL_Driver/Src/stm32h7xx_hal_nand.c **** /**
 669:./Libraries/STM32H7xx_HAL_Driver/Src/stm32h7xx_hal_nand.c ****   * @brief  Read Page(s) from NAND memory block (16-bits addressing)
 670:./Libraries/STM32H7xx_HAL_Driver/Src/stm32h7xx_hal_nand.c ****   * @param  hnand pointer to a NAND_HandleTypeDef structure that contains
 671:./Libraries/STM32H7xx_HAL_Driver/Src/stm32h7xx_hal_nand.c ****   *                the configuration information for NAND module.
 672:./Libraries/STM32H7xx_HAL_Driver/Src/stm32h7xx_hal_nand.c ****   * @param  pAddress  pointer to NAND address structure
 673:./Libraries/STM32H7xx_HAL_Driver/Src/stm32h7xx_hal_nand.c ****   * @param  pBuffer  pointer to destination read buffer. pBuffer should be 16bits aligned
 674:./Libraries/STM32H7xx_HAL_Driver/Src/stm32h7xx_hal_nand.c ****   * @param  NumPageToRead  number of pages to read from block
 675:./Libraries/STM32H7xx_HAL_Driver/Src/stm32h7xx_hal_nand.c ****   * @retval HAL status
 676:./Libraries/STM32H7xx_HAL_Driver/Src/stm32h7xx_hal_nand.c ****   */
 677:./Libraries/STM32H7xx_HAL_Driver/Src/stm32h7xx_hal_nand.c **** HAL_StatusTypeDef HAL_NAND_Read_Page_16b(NAND_HandleTypeDef *hnand, NAND_AddressTypeDef *pAddress, 
 678:./Libraries/STM32H7xx_HAL_Driver/Src/stm32h7xx_hal_nand.c ****                                          uint32_t NumPageToRead)
 679:./Libraries/STM32H7xx_HAL_Driver/Src/stm32h7xx_hal_nand.c **** {
 680:./Libraries/STM32H7xx_HAL_Driver/Src/stm32h7xx_hal_nand.c ****   uint32_t index;
 681:./Libraries/STM32H7xx_HAL_Driver/Src/stm32h7xx_hal_nand.c ****   uint32_t tickstart;
 682:./Libraries/STM32H7xx_HAL_Driver/Src/stm32h7xx_hal_nand.c ****   uint32_t deviceaddress;
 683:./Libraries/STM32H7xx_HAL_Driver/Src/stm32h7xx_hal_nand.c ****   uint32_t numpagesread = 0U;
 684:./Libraries/STM32H7xx_HAL_Driver/Src/stm32h7xx_hal_nand.c ****   uint32_t nandaddress;
ARM GAS  /tmp/cc5RRSLv.s 			page 54


 685:./Libraries/STM32H7xx_HAL_Driver/Src/stm32h7xx_hal_nand.c ****   uint32_t nbpages = NumPageToRead;
 686:./Libraries/STM32H7xx_HAL_Driver/Src/stm32h7xx_hal_nand.c ****   uint16_t *buff = pBuffer;
 687:./Libraries/STM32H7xx_HAL_Driver/Src/stm32h7xx_hal_nand.c **** 
 688:./Libraries/STM32H7xx_HAL_Driver/Src/stm32h7xx_hal_nand.c ****   /* Check the NAND controller state */
 689:./Libraries/STM32H7xx_HAL_Driver/Src/stm32h7xx_hal_nand.c ****   if (hnand->State == HAL_NAND_STATE_BUSY)
 690:./Libraries/STM32H7xx_HAL_Driver/Src/stm32h7xx_hal_nand.c ****   {
 691:./Libraries/STM32H7xx_HAL_Driver/Src/stm32h7xx_hal_nand.c ****     return HAL_BUSY;
 692:./Libraries/STM32H7xx_HAL_Driver/Src/stm32h7xx_hal_nand.c ****   }
 693:./Libraries/STM32H7xx_HAL_Driver/Src/stm32h7xx_hal_nand.c ****   else if (hnand->State == HAL_NAND_STATE_READY)
 694:./Libraries/STM32H7xx_HAL_Driver/Src/stm32h7xx_hal_nand.c ****   {
 695:./Libraries/STM32H7xx_HAL_Driver/Src/stm32h7xx_hal_nand.c ****     /* Process Locked */
 696:./Libraries/STM32H7xx_HAL_Driver/Src/stm32h7xx_hal_nand.c ****     __HAL_LOCK(hnand);
 697:./Libraries/STM32H7xx_HAL_Driver/Src/stm32h7xx_hal_nand.c **** 
 698:./Libraries/STM32H7xx_HAL_Driver/Src/stm32h7xx_hal_nand.c ****     /* Update the NAND controller state */
 699:./Libraries/STM32H7xx_HAL_Driver/Src/stm32h7xx_hal_nand.c ****     hnand->State = HAL_NAND_STATE_BUSY;
 700:./Libraries/STM32H7xx_HAL_Driver/Src/stm32h7xx_hal_nand.c **** 
 701:./Libraries/STM32H7xx_HAL_Driver/Src/stm32h7xx_hal_nand.c ****     /* Identify the device address */
 702:./Libraries/STM32H7xx_HAL_Driver/Src/stm32h7xx_hal_nand.c ****     deviceaddress = NAND_DEVICE;
 703:./Libraries/STM32H7xx_HAL_Driver/Src/stm32h7xx_hal_nand.c **** 
 704:./Libraries/STM32H7xx_HAL_Driver/Src/stm32h7xx_hal_nand.c ****     /* NAND raw address calculation */
 705:./Libraries/STM32H7xx_HAL_Driver/Src/stm32h7xx_hal_nand.c ****     nandaddress = ARRAY_ADDRESS(pAddress, hnand);
 706:./Libraries/STM32H7xx_HAL_Driver/Src/stm32h7xx_hal_nand.c **** 
 707:./Libraries/STM32H7xx_HAL_Driver/Src/stm32h7xx_hal_nand.c ****     /* Page(s) read loop */
 708:./Libraries/STM32H7xx_HAL_Driver/Src/stm32h7xx_hal_nand.c ****     while ((nbpages != 0U) && (nandaddress < ((hnand->Config.BlockSize) * (hnand->Config.BlockNbr))
 709:./Libraries/STM32H7xx_HAL_Driver/Src/stm32h7xx_hal_nand.c ****     {
 710:./Libraries/STM32H7xx_HAL_Driver/Src/stm32h7xx_hal_nand.c ****       /* Send read page command sequence */
 711:./Libraries/STM32H7xx_HAL_Driver/Src/stm32h7xx_hal_nand.c ****       *(__IO uint8_t *)((uint32_t)(deviceaddress | CMD_AREA)) = NAND_CMD_AREA_A;
 712:./Libraries/STM32H7xx_HAL_Driver/Src/stm32h7xx_hal_nand.c ****       __DSB();
 713:./Libraries/STM32H7xx_HAL_Driver/Src/stm32h7xx_hal_nand.c **** 
 714:./Libraries/STM32H7xx_HAL_Driver/Src/stm32h7xx_hal_nand.c ****       /* Cards with page size <= 512 bytes */
 715:./Libraries/STM32H7xx_HAL_Driver/Src/stm32h7xx_hal_nand.c ****       if ((hnand->Config.PageSize) <= 512U)
 716:./Libraries/STM32H7xx_HAL_Driver/Src/stm32h7xx_hal_nand.c ****       {
 717:./Libraries/STM32H7xx_HAL_Driver/Src/stm32h7xx_hal_nand.c ****         if (((hnand->Config.BlockSize) * (hnand->Config.BlockNbr)) <= 65535U)
 718:./Libraries/STM32H7xx_HAL_Driver/Src/stm32h7xx_hal_nand.c ****         {
 719:./Libraries/STM32H7xx_HAL_Driver/Src/stm32h7xx_hal_nand.c ****           *(__IO uint8_t *)((uint32_t)(deviceaddress | ADDR_AREA)) = 0x00U;
 720:./Libraries/STM32H7xx_HAL_Driver/Src/stm32h7xx_hal_nand.c ****           __DSB();
 721:./Libraries/STM32H7xx_HAL_Driver/Src/stm32h7xx_hal_nand.c ****           *(__IO uint8_t *)((uint32_t)(deviceaddress | ADDR_AREA)) = ADDR_1ST_CYCLE(nandaddress);
 722:./Libraries/STM32H7xx_HAL_Driver/Src/stm32h7xx_hal_nand.c ****           __DSB();
 723:./Libraries/STM32H7xx_HAL_Driver/Src/stm32h7xx_hal_nand.c ****           *(__IO uint8_t *)((uint32_t)(deviceaddress | ADDR_AREA)) = ADDR_2ND_CYCLE(nandaddress);
 724:./Libraries/STM32H7xx_HAL_Driver/Src/stm32h7xx_hal_nand.c ****           __DSB();
 725:./Libraries/STM32H7xx_HAL_Driver/Src/stm32h7xx_hal_nand.c ****         }
 726:./Libraries/STM32H7xx_HAL_Driver/Src/stm32h7xx_hal_nand.c ****         else /* ((hnand->Config.BlockSize)*(hnand->Config.BlockNbr)) > 65535 */
 727:./Libraries/STM32H7xx_HAL_Driver/Src/stm32h7xx_hal_nand.c ****         {
 728:./Libraries/STM32H7xx_HAL_Driver/Src/stm32h7xx_hal_nand.c ****           *(__IO uint8_t *)((uint32_t)(deviceaddress | ADDR_AREA)) = 0x00U;
 729:./Libraries/STM32H7xx_HAL_Driver/Src/stm32h7xx_hal_nand.c ****           __DSB();
 730:./Libraries/STM32H7xx_HAL_Driver/Src/stm32h7xx_hal_nand.c ****           *(__IO uint8_t *)((uint32_t)(deviceaddress | ADDR_AREA)) = ADDR_1ST_CYCLE(nandaddress);
 731:./Libraries/STM32H7xx_HAL_Driver/Src/stm32h7xx_hal_nand.c ****           __DSB();
 732:./Libraries/STM32H7xx_HAL_Driver/Src/stm32h7xx_hal_nand.c ****           *(__IO uint8_t *)((uint32_t)(deviceaddress | ADDR_AREA)) = ADDR_2ND_CYCLE(nandaddress);
 733:./Libraries/STM32H7xx_HAL_Driver/Src/stm32h7xx_hal_nand.c ****           __DSB();
 734:./Libraries/STM32H7xx_HAL_Driver/Src/stm32h7xx_hal_nand.c ****           *(__IO uint8_t *)((uint32_t)(deviceaddress | ADDR_AREA)) = ADDR_3RD_CYCLE(nandaddress);
 735:./Libraries/STM32H7xx_HAL_Driver/Src/stm32h7xx_hal_nand.c ****           __DSB();
 736:./Libraries/STM32H7xx_HAL_Driver/Src/stm32h7xx_hal_nand.c ****         }
 737:./Libraries/STM32H7xx_HAL_Driver/Src/stm32h7xx_hal_nand.c ****       }
 738:./Libraries/STM32H7xx_HAL_Driver/Src/stm32h7xx_hal_nand.c ****       else /* (hnand->Config.PageSize) > 512 */
 739:./Libraries/STM32H7xx_HAL_Driver/Src/stm32h7xx_hal_nand.c ****       {
 740:./Libraries/STM32H7xx_HAL_Driver/Src/stm32h7xx_hal_nand.c ****         if (((hnand->Config.BlockSize) * (hnand->Config.BlockNbr)) <= 65535U)
 741:./Libraries/STM32H7xx_HAL_Driver/Src/stm32h7xx_hal_nand.c ****         {
ARM GAS  /tmp/cc5RRSLv.s 			page 55


 742:./Libraries/STM32H7xx_HAL_Driver/Src/stm32h7xx_hal_nand.c ****           *(__IO uint8_t *)((uint32_t)(deviceaddress | ADDR_AREA)) = 0x00U;
 743:./Libraries/STM32H7xx_HAL_Driver/Src/stm32h7xx_hal_nand.c ****           __DSB();
 744:./Libraries/STM32H7xx_HAL_Driver/Src/stm32h7xx_hal_nand.c ****           *(__IO uint8_t *)((uint32_t)(deviceaddress | ADDR_AREA)) = 0x00U;
 745:./Libraries/STM32H7xx_HAL_Driver/Src/stm32h7xx_hal_nand.c ****           __DSB();
 746:./Libraries/STM32H7xx_HAL_Driver/Src/stm32h7xx_hal_nand.c ****           *(__IO uint8_t *)((uint32_t)(deviceaddress | ADDR_AREA)) = ADDR_1ST_CYCLE(nandaddress);
 747:./Libraries/STM32H7xx_HAL_Driver/Src/stm32h7xx_hal_nand.c ****           __DSB();
 748:./Libraries/STM32H7xx_HAL_Driver/Src/stm32h7xx_hal_nand.c ****           *(__IO uint8_t *)((uint32_t)(deviceaddress | ADDR_AREA)) = ADDR_2ND_CYCLE(nandaddress);
 749:./Libraries/STM32H7xx_HAL_Driver/Src/stm32h7xx_hal_nand.c ****           __DSB();
 750:./Libraries/STM32H7xx_HAL_Driver/Src/stm32h7xx_hal_nand.c ****         }
 751:./Libraries/STM32H7xx_HAL_Driver/Src/stm32h7xx_hal_nand.c ****         else /* ((hnand->Config.BlockSize)*(hnand->Config.BlockNbr)) > 65535 */
 752:./Libraries/STM32H7xx_HAL_Driver/Src/stm32h7xx_hal_nand.c ****         {
 753:./Libraries/STM32H7xx_HAL_Driver/Src/stm32h7xx_hal_nand.c ****           *(__IO uint8_t *)((uint32_t)(deviceaddress | ADDR_AREA)) = 0x00U;
 754:./Libraries/STM32H7xx_HAL_Driver/Src/stm32h7xx_hal_nand.c ****           __DSB();
 755:./Libraries/STM32H7xx_HAL_Driver/Src/stm32h7xx_hal_nand.c ****           *(__IO uint8_t *)((uint32_t)(deviceaddress | ADDR_AREA)) = 0x00U;
 756:./Libraries/STM32H7xx_HAL_Driver/Src/stm32h7xx_hal_nand.c ****           __DSB();
 757:./Libraries/STM32H7xx_HAL_Driver/Src/stm32h7xx_hal_nand.c ****           *(__IO uint8_t *)((uint32_t)(deviceaddress | ADDR_AREA)) = ADDR_1ST_CYCLE(nandaddress);
 758:./Libraries/STM32H7xx_HAL_Driver/Src/stm32h7xx_hal_nand.c ****           __DSB();
 759:./Libraries/STM32H7xx_HAL_Driver/Src/stm32h7xx_hal_nand.c ****           *(__IO uint8_t *)((uint32_t)(deviceaddress | ADDR_AREA)) = ADDR_2ND_CYCLE(nandaddress);
 760:./Libraries/STM32H7xx_HAL_Driver/Src/stm32h7xx_hal_nand.c ****           __DSB();
 761:./Libraries/STM32H7xx_HAL_Driver/Src/stm32h7xx_hal_nand.c ****           *(__IO uint8_t *)((uint32_t)(deviceaddress | ADDR_AREA)) = ADDR_3RD_CYCLE(nandaddress);
 762:./Libraries/STM32H7xx_HAL_Driver/Src/stm32h7xx_hal_nand.c ****           __DSB();
 763:./Libraries/STM32H7xx_HAL_Driver/Src/stm32h7xx_hal_nand.c ****         }
 764:./Libraries/STM32H7xx_HAL_Driver/Src/stm32h7xx_hal_nand.c ****       }
 765:./Libraries/STM32H7xx_HAL_Driver/Src/stm32h7xx_hal_nand.c **** 
 766:./Libraries/STM32H7xx_HAL_Driver/Src/stm32h7xx_hal_nand.c ****       *(__IO uint8_t *)((uint32_t)(deviceaddress | CMD_AREA))  = NAND_CMD_AREA_TRUE1;
 767:./Libraries/STM32H7xx_HAL_Driver/Src/stm32h7xx_hal_nand.c ****       __DSB();
 768:./Libraries/STM32H7xx_HAL_Driver/Src/stm32h7xx_hal_nand.c **** 
 769:./Libraries/STM32H7xx_HAL_Driver/Src/stm32h7xx_hal_nand.c ****       if (hnand->Config.ExtraCommandEnable == ENABLE)
 770:./Libraries/STM32H7xx_HAL_Driver/Src/stm32h7xx_hal_nand.c ****       {
 771:./Libraries/STM32H7xx_HAL_Driver/Src/stm32h7xx_hal_nand.c ****         /* Get tick */
 772:./Libraries/STM32H7xx_HAL_Driver/Src/stm32h7xx_hal_nand.c ****         tickstart = HAL_GetTick();
 773:./Libraries/STM32H7xx_HAL_Driver/Src/stm32h7xx_hal_nand.c **** 
 774:./Libraries/STM32H7xx_HAL_Driver/Src/stm32h7xx_hal_nand.c ****         /* Read status until NAND is ready */
 775:./Libraries/STM32H7xx_HAL_Driver/Src/stm32h7xx_hal_nand.c ****         while (HAL_NAND_Read_Status(hnand) != NAND_READY)
 776:./Libraries/STM32H7xx_HAL_Driver/Src/stm32h7xx_hal_nand.c ****         {
 777:./Libraries/STM32H7xx_HAL_Driver/Src/stm32h7xx_hal_nand.c ****           if ((HAL_GetTick() - tickstart) > NAND_WRITE_TIMEOUT)
 778:./Libraries/STM32H7xx_HAL_Driver/Src/stm32h7xx_hal_nand.c ****           {
 779:./Libraries/STM32H7xx_HAL_Driver/Src/stm32h7xx_hal_nand.c ****             /* Update the NAND controller state */
 780:./Libraries/STM32H7xx_HAL_Driver/Src/stm32h7xx_hal_nand.c ****             hnand->State = HAL_NAND_STATE_ERROR;
 781:./Libraries/STM32H7xx_HAL_Driver/Src/stm32h7xx_hal_nand.c **** 
 782:./Libraries/STM32H7xx_HAL_Driver/Src/stm32h7xx_hal_nand.c ****             /* Process unlocked */
 783:./Libraries/STM32H7xx_HAL_Driver/Src/stm32h7xx_hal_nand.c ****             __HAL_UNLOCK(hnand);
 784:./Libraries/STM32H7xx_HAL_Driver/Src/stm32h7xx_hal_nand.c **** 
 785:./Libraries/STM32H7xx_HAL_Driver/Src/stm32h7xx_hal_nand.c ****             return HAL_TIMEOUT;
 786:./Libraries/STM32H7xx_HAL_Driver/Src/stm32h7xx_hal_nand.c ****           }
 787:./Libraries/STM32H7xx_HAL_Driver/Src/stm32h7xx_hal_nand.c ****         }
 788:./Libraries/STM32H7xx_HAL_Driver/Src/stm32h7xx_hal_nand.c **** 
 789:./Libraries/STM32H7xx_HAL_Driver/Src/stm32h7xx_hal_nand.c ****         /* Go back to read mode */
 790:./Libraries/STM32H7xx_HAL_Driver/Src/stm32h7xx_hal_nand.c ****         *(__IO uint8_t *)((uint32_t)(deviceaddress | CMD_AREA)) = ((uint8_t)0x00);
 791:./Libraries/STM32H7xx_HAL_Driver/Src/stm32h7xx_hal_nand.c ****         __DSB();
 792:./Libraries/STM32H7xx_HAL_Driver/Src/stm32h7xx_hal_nand.c ****       }
 793:./Libraries/STM32H7xx_HAL_Driver/Src/stm32h7xx_hal_nand.c **** 
 794:./Libraries/STM32H7xx_HAL_Driver/Src/stm32h7xx_hal_nand.c ****       /* Calculate PageSize */
 795:./Libraries/STM32H7xx_HAL_Driver/Src/stm32h7xx_hal_nand.c ****       if (hnand->Init.MemoryDataWidth == FMC_NAND_MEM_BUS_WIDTH_8)
 796:./Libraries/STM32H7xx_HAL_Driver/Src/stm32h7xx_hal_nand.c ****       {
 797:./Libraries/STM32H7xx_HAL_Driver/Src/stm32h7xx_hal_nand.c ****         hnand->Config.PageSize = hnand->Config.PageSize / 2U;
 798:./Libraries/STM32H7xx_HAL_Driver/Src/stm32h7xx_hal_nand.c ****       }
ARM GAS  /tmp/cc5RRSLv.s 			page 56


 799:./Libraries/STM32H7xx_HAL_Driver/Src/stm32h7xx_hal_nand.c ****       else
 800:./Libraries/STM32H7xx_HAL_Driver/Src/stm32h7xx_hal_nand.c ****       {
 801:./Libraries/STM32H7xx_HAL_Driver/Src/stm32h7xx_hal_nand.c ****         /* Do nothing */
 802:./Libraries/STM32H7xx_HAL_Driver/Src/stm32h7xx_hal_nand.c ****         /* Keep the same PageSize for FMC_NAND_MEM_BUS_WIDTH_16*/
 803:./Libraries/STM32H7xx_HAL_Driver/Src/stm32h7xx_hal_nand.c ****       }
 804:./Libraries/STM32H7xx_HAL_Driver/Src/stm32h7xx_hal_nand.c **** 
 805:./Libraries/STM32H7xx_HAL_Driver/Src/stm32h7xx_hal_nand.c ****       /* Get Data into Buffer */
 806:./Libraries/STM32H7xx_HAL_Driver/Src/stm32h7xx_hal_nand.c ****       for (index = 0U; index < hnand->Config.PageSize; index++)
 807:./Libraries/STM32H7xx_HAL_Driver/Src/stm32h7xx_hal_nand.c ****       {
 808:./Libraries/STM32H7xx_HAL_Driver/Src/stm32h7xx_hal_nand.c ****         *buff = *(uint16_t *)deviceaddress;
 809:./Libraries/STM32H7xx_HAL_Driver/Src/stm32h7xx_hal_nand.c ****         buff++;
 810:./Libraries/STM32H7xx_HAL_Driver/Src/stm32h7xx_hal_nand.c ****       }
 811:./Libraries/STM32H7xx_HAL_Driver/Src/stm32h7xx_hal_nand.c **** 
 812:./Libraries/STM32H7xx_HAL_Driver/Src/stm32h7xx_hal_nand.c ****       /* Increment read pages number */
 813:./Libraries/STM32H7xx_HAL_Driver/Src/stm32h7xx_hal_nand.c ****       numpagesread++;
 814:./Libraries/STM32H7xx_HAL_Driver/Src/stm32h7xx_hal_nand.c **** 
 815:./Libraries/STM32H7xx_HAL_Driver/Src/stm32h7xx_hal_nand.c ****       /* Decrement pages to read */
 816:./Libraries/STM32H7xx_HAL_Driver/Src/stm32h7xx_hal_nand.c ****       nbpages--;
 817:./Libraries/STM32H7xx_HAL_Driver/Src/stm32h7xx_hal_nand.c **** 
 818:./Libraries/STM32H7xx_HAL_Driver/Src/stm32h7xx_hal_nand.c ****       /* Increment the NAND address */
 819:./Libraries/STM32H7xx_HAL_Driver/Src/stm32h7xx_hal_nand.c ****       nandaddress = (uint32_t)(nandaddress + 1U);
 820:./Libraries/STM32H7xx_HAL_Driver/Src/stm32h7xx_hal_nand.c ****     }
 821:./Libraries/STM32H7xx_HAL_Driver/Src/stm32h7xx_hal_nand.c **** 
 822:./Libraries/STM32H7xx_HAL_Driver/Src/stm32h7xx_hal_nand.c ****     /* Update the NAND controller state */
 823:./Libraries/STM32H7xx_HAL_Driver/Src/stm32h7xx_hal_nand.c ****     hnand->State = HAL_NAND_STATE_READY;
 824:./Libraries/STM32H7xx_HAL_Driver/Src/stm32h7xx_hal_nand.c **** 
 825:./Libraries/STM32H7xx_HAL_Driver/Src/stm32h7xx_hal_nand.c ****     /* Process unlocked */
 826:./Libraries/STM32H7xx_HAL_Driver/Src/stm32h7xx_hal_nand.c ****     __HAL_UNLOCK(hnand);
 827:./Libraries/STM32H7xx_HAL_Driver/Src/stm32h7xx_hal_nand.c ****   }
 828:./Libraries/STM32H7xx_HAL_Driver/Src/stm32h7xx_hal_nand.c ****   else
 829:./Libraries/STM32H7xx_HAL_Driver/Src/stm32h7xx_hal_nand.c ****   {
 830:./Libraries/STM32H7xx_HAL_Driver/Src/stm32h7xx_hal_nand.c ****     return HAL_ERROR;
 831:./Libraries/STM32H7xx_HAL_Driver/Src/stm32h7xx_hal_nand.c ****   }
 832:./Libraries/STM32H7xx_HAL_Driver/Src/stm32h7xx_hal_nand.c **** 
 833:./Libraries/STM32H7xx_HAL_Driver/Src/stm32h7xx_hal_nand.c ****   return HAL_OK;
 834:./Libraries/STM32H7xx_HAL_Driver/Src/stm32h7xx_hal_nand.c **** }
 835:./Libraries/STM32H7xx_HAL_Driver/Src/stm32h7xx_hal_nand.c **** 
 836:./Libraries/STM32H7xx_HAL_Driver/Src/stm32h7xx_hal_nand.c **** /**
 837:./Libraries/STM32H7xx_HAL_Driver/Src/stm32h7xx_hal_nand.c ****   * @brief  Write Page(s) to NAND memory block (8-bits addressing)
 838:./Libraries/STM32H7xx_HAL_Driver/Src/stm32h7xx_hal_nand.c ****   * @param  hnand pointer to a NAND_HandleTypeDef structure that contains
 839:./Libraries/STM32H7xx_HAL_Driver/Src/stm32h7xx_hal_nand.c ****   *                the configuration information for NAND module.
 840:./Libraries/STM32H7xx_HAL_Driver/Src/stm32h7xx_hal_nand.c ****   * @param  pAddress  pointer to NAND address structure
 841:./Libraries/STM32H7xx_HAL_Driver/Src/stm32h7xx_hal_nand.c ****   * @param  pBuffer  pointer to source buffer to write
 842:./Libraries/STM32H7xx_HAL_Driver/Src/stm32h7xx_hal_nand.c ****   * @param  NumPageToWrite   number of pages to write to block
 843:./Libraries/STM32H7xx_HAL_Driver/Src/stm32h7xx_hal_nand.c ****   * @retval HAL status
 844:./Libraries/STM32H7xx_HAL_Driver/Src/stm32h7xx_hal_nand.c ****   */
 845:./Libraries/STM32H7xx_HAL_Driver/Src/stm32h7xx_hal_nand.c **** HAL_StatusTypeDef HAL_NAND_Write_Page_8b(NAND_HandleTypeDef *hnand, NAND_AddressTypeDef *pAddress, 
 846:./Libraries/STM32H7xx_HAL_Driver/Src/stm32h7xx_hal_nand.c ****                                          uint32_t NumPageToWrite)
 847:./Libraries/STM32H7xx_HAL_Driver/Src/stm32h7xx_hal_nand.c **** {
 848:./Libraries/STM32H7xx_HAL_Driver/Src/stm32h7xx_hal_nand.c ****   uint32_t index;
 849:./Libraries/STM32H7xx_HAL_Driver/Src/stm32h7xx_hal_nand.c ****   uint32_t tickstart;
 850:./Libraries/STM32H7xx_HAL_Driver/Src/stm32h7xx_hal_nand.c ****   uint32_t deviceaddress;
 851:./Libraries/STM32H7xx_HAL_Driver/Src/stm32h7xx_hal_nand.c ****   uint32_t numpageswritten = 0U;
 852:./Libraries/STM32H7xx_HAL_Driver/Src/stm32h7xx_hal_nand.c ****   uint32_t nandaddress;
 853:./Libraries/STM32H7xx_HAL_Driver/Src/stm32h7xx_hal_nand.c ****   uint32_t nbpages = NumPageToWrite;
 854:./Libraries/STM32H7xx_HAL_Driver/Src/stm32h7xx_hal_nand.c ****   uint8_t *buff = pBuffer;
 855:./Libraries/STM32H7xx_HAL_Driver/Src/stm32h7xx_hal_nand.c **** 
ARM GAS  /tmp/cc5RRSLv.s 			page 57


 856:./Libraries/STM32H7xx_HAL_Driver/Src/stm32h7xx_hal_nand.c ****   /* Check the NAND controller state */
 857:./Libraries/STM32H7xx_HAL_Driver/Src/stm32h7xx_hal_nand.c ****   if (hnand->State == HAL_NAND_STATE_BUSY)
 858:./Libraries/STM32H7xx_HAL_Driver/Src/stm32h7xx_hal_nand.c ****   {
 859:./Libraries/STM32H7xx_HAL_Driver/Src/stm32h7xx_hal_nand.c ****     return HAL_BUSY;
 860:./Libraries/STM32H7xx_HAL_Driver/Src/stm32h7xx_hal_nand.c ****   }
 861:./Libraries/STM32H7xx_HAL_Driver/Src/stm32h7xx_hal_nand.c ****   else if (hnand->State == HAL_NAND_STATE_READY)
 862:./Libraries/STM32H7xx_HAL_Driver/Src/stm32h7xx_hal_nand.c ****   {
 863:./Libraries/STM32H7xx_HAL_Driver/Src/stm32h7xx_hal_nand.c ****     /* Process Locked */
 864:./Libraries/STM32H7xx_HAL_Driver/Src/stm32h7xx_hal_nand.c ****     __HAL_LOCK(hnand);
 865:./Libraries/STM32H7xx_HAL_Driver/Src/stm32h7xx_hal_nand.c **** 
 866:./Libraries/STM32H7xx_HAL_Driver/Src/stm32h7xx_hal_nand.c ****     /* Update the NAND controller state */
 867:./Libraries/STM32H7xx_HAL_Driver/Src/stm32h7xx_hal_nand.c ****     hnand->State = HAL_NAND_STATE_BUSY;
 868:./Libraries/STM32H7xx_HAL_Driver/Src/stm32h7xx_hal_nand.c **** 
 869:./Libraries/STM32H7xx_HAL_Driver/Src/stm32h7xx_hal_nand.c ****     /* Identify the device address */
 870:./Libraries/STM32H7xx_HAL_Driver/Src/stm32h7xx_hal_nand.c ****     deviceaddress = NAND_DEVICE;
 871:./Libraries/STM32H7xx_HAL_Driver/Src/stm32h7xx_hal_nand.c **** 
 872:./Libraries/STM32H7xx_HAL_Driver/Src/stm32h7xx_hal_nand.c ****     /* NAND raw address calculation */
 873:./Libraries/STM32H7xx_HAL_Driver/Src/stm32h7xx_hal_nand.c ****     nandaddress = ARRAY_ADDRESS(pAddress, hnand);
 874:./Libraries/STM32H7xx_HAL_Driver/Src/stm32h7xx_hal_nand.c **** 
 875:./Libraries/STM32H7xx_HAL_Driver/Src/stm32h7xx_hal_nand.c ****     /* Page(s) write loop */
 876:./Libraries/STM32H7xx_HAL_Driver/Src/stm32h7xx_hal_nand.c ****     while ((nbpages != 0U) && (nandaddress < ((hnand->Config.BlockSize) * (hnand->Config.BlockNbr))
 877:./Libraries/STM32H7xx_HAL_Driver/Src/stm32h7xx_hal_nand.c ****     {
 878:./Libraries/STM32H7xx_HAL_Driver/Src/stm32h7xx_hal_nand.c ****       /* Send write page command sequence */
 879:./Libraries/STM32H7xx_HAL_Driver/Src/stm32h7xx_hal_nand.c ****       *(__IO uint8_t *)((uint32_t)(deviceaddress | CMD_AREA)) = NAND_CMD_AREA_A;
 880:./Libraries/STM32H7xx_HAL_Driver/Src/stm32h7xx_hal_nand.c ****       __DSB();
 881:./Libraries/STM32H7xx_HAL_Driver/Src/stm32h7xx_hal_nand.c ****       *(__IO uint8_t *)((uint32_t)(deviceaddress | CMD_AREA)) = NAND_CMD_WRITE0;
 882:./Libraries/STM32H7xx_HAL_Driver/Src/stm32h7xx_hal_nand.c ****       __DSB();
 883:./Libraries/STM32H7xx_HAL_Driver/Src/stm32h7xx_hal_nand.c **** 
 884:./Libraries/STM32H7xx_HAL_Driver/Src/stm32h7xx_hal_nand.c ****       /* Cards with page size <= 512 bytes */
 885:./Libraries/STM32H7xx_HAL_Driver/Src/stm32h7xx_hal_nand.c ****       if ((hnand->Config.PageSize) <= 512U)
 886:./Libraries/STM32H7xx_HAL_Driver/Src/stm32h7xx_hal_nand.c ****       {
 887:./Libraries/STM32H7xx_HAL_Driver/Src/stm32h7xx_hal_nand.c ****         if (((hnand->Config.BlockSize) * (hnand->Config.BlockNbr)) <= 65535U)
 888:./Libraries/STM32H7xx_HAL_Driver/Src/stm32h7xx_hal_nand.c ****         {
 889:./Libraries/STM32H7xx_HAL_Driver/Src/stm32h7xx_hal_nand.c ****           *(__IO uint8_t *)((uint32_t)(deviceaddress | ADDR_AREA)) = 0x00U;
 890:./Libraries/STM32H7xx_HAL_Driver/Src/stm32h7xx_hal_nand.c ****           __DSB();
 891:./Libraries/STM32H7xx_HAL_Driver/Src/stm32h7xx_hal_nand.c ****           *(__IO uint8_t *)((uint32_t)(deviceaddress | ADDR_AREA)) = ADDR_1ST_CYCLE(nandaddress);
 892:./Libraries/STM32H7xx_HAL_Driver/Src/stm32h7xx_hal_nand.c ****           __DSB();
 893:./Libraries/STM32H7xx_HAL_Driver/Src/stm32h7xx_hal_nand.c ****           *(__IO uint8_t *)((uint32_t)(deviceaddress | ADDR_AREA)) = ADDR_2ND_CYCLE(nandaddress);
 894:./Libraries/STM32H7xx_HAL_Driver/Src/stm32h7xx_hal_nand.c ****           __DSB();
 895:./Libraries/STM32H7xx_HAL_Driver/Src/stm32h7xx_hal_nand.c ****         }
 896:./Libraries/STM32H7xx_HAL_Driver/Src/stm32h7xx_hal_nand.c ****         else /* ((hnand->Config.BlockSize)*(hnand->Config.BlockNbr)) > 65535 */
 897:./Libraries/STM32H7xx_HAL_Driver/Src/stm32h7xx_hal_nand.c ****         {
 898:./Libraries/STM32H7xx_HAL_Driver/Src/stm32h7xx_hal_nand.c ****           *(__IO uint8_t *)((uint32_t)(deviceaddress | ADDR_AREA)) = 0x00U;
 899:./Libraries/STM32H7xx_HAL_Driver/Src/stm32h7xx_hal_nand.c ****           __DSB();
 900:./Libraries/STM32H7xx_HAL_Driver/Src/stm32h7xx_hal_nand.c ****           *(__IO uint8_t *)((uint32_t)(deviceaddress | ADDR_AREA)) = ADDR_1ST_CYCLE(nandaddress);
 901:./Libraries/STM32H7xx_HAL_Driver/Src/stm32h7xx_hal_nand.c ****           __DSB();
 902:./Libraries/STM32H7xx_HAL_Driver/Src/stm32h7xx_hal_nand.c ****           *(__IO uint8_t *)((uint32_t)(deviceaddress | ADDR_AREA)) = ADDR_2ND_CYCLE(nandaddress);
 903:./Libraries/STM32H7xx_HAL_Driver/Src/stm32h7xx_hal_nand.c ****           __DSB();
 904:./Libraries/STM32H7xx_HAL_Driver/Src/stm32h7xx_hal_nand.c ****           *(__IO uint8_t *)((uint32_t)(deviceaddress | ADDR_AREA)) = ADDR_3RD_CYCLE(nandaddress);
 905:./Libraries/STM32H7xx_HAL_Driver/Src/stm32h7xx_hal_nand.c ****           __DSB();
 906:./Libraries/STM32H7xx_HAL_Driver/Src/stm32h7xx_hal_nand.c ****         }
 907:./Libraries/STM32H7xx_HAL_Driver/Src/stm32h7xx_hal_nand.c ****       }
 908:./Libraries/STM32H7xx_HAL_Driver/Src/stm32h7xx_hal_nand.c ****       else /* (hnand->Config.PageSize) > 512 */
 909:./Libraries/STM32H7xx_HAL_Driver/Src/stm32h7xx_hal_nand.c ****       {
 910:./Libraries/STM32H7xx_HAL_Driver/Src/stm32h7xx_hal_nand.c ****         if (((hnand->Config.BlockSize) * (hnand->Config.BlockNbr)) <= 65535U)
 911:./Libraries/STM32H7xx_HAL_Driver/Src/stm32h7xx_hal_nand.c ****         {
 912:./Libraries/STM32H7xx_HAL_Driver/Src/stm32h7xx_hal_nand.c ****           *(__IO uint8_t *)((uint32_t)(deviceaddress | ADDR_AREA)) = 0x00U;
ARM GAS  /tmp/cc5RRSLv.s 			page 58


 913:./Libraries/STM32H7xx_HAL_Driver/Src/stm32h7xx_hal_nand.c ****           __DSB();
 914:./Libraries/STM32H7xx_HAL_Driver/Src/stm32h7xx_hal_nand.c ****           *(__IO uint8_t *)((uint32_t)(deviceaddress | ADDR_AREA)) = 0x00U;
 915:./Libraries/STM32H7xx_HAL_Driver/Src/stm32h7xx_hal_nand.c ****           __DSB();
 916:./Libraries/STM32H7xx_HAL_Driver/Src/stm32h7xx_hal_nand.c ****           *(__IO uint8_t *)((uint32_t)(deviceaddress | ADDR_AREA)) = ADDR_1ST_CYCLE(nandaddress);
 917:./Libraries/STM32H7xx_HAL_Driver/Src/stm32h7xx_hal_nand.c ****           __DSB();
 918:./Libraries/STM32H7xx_HAL_Driver/Src/stm32h7xx_hal_nand.c ****           *(__IO uint8_t *)((uint32_t)(deviceaddress | ADDR_AREA)) = ADDR_2ND_CYCLE(nandaddress);
 919:./Libraries/STM32H7xx_HAL_Driver/Src/stm32h7xx_hal_nand.c ****           __DSB();
 920:./Libraries/STM32H7xx_HAL_Driver/Src/stm32h7xx_hal_nand.c ****         }
 921:./Libraries/STM32H7xx_HAL_Driver/Src/stm32h7xx_hal_nand.c ****         else /* ((hnand->Config.BlockSize)*(hnand->Config.BlockNbr)) > 65535 */
 922:./Libraries/STM32H7xx_HAL_Driver/Src/stm32h7xx_hal_nand.c ****         {
 923:./Libraries/STM32H7xx_HAL_Driver/Src/stm32h7xx_hal_nand.c ****           *(__IO uint8_t *)((uint32_t)(deviceaddress | ADDR_AREA)) = 0x00U;
 924:./Libraries/STM32H7xx_HAL_Driver/Src/stm32h7xx_hal_nand.c ****           __DSB();
 925:./Libraries/STM32H7xx_HAL_Driver/Src/stm32h7xx_hal_nand.c ****           *(__IO uint8_t *)((uint32_t)(deviceaddress | ADDR_AREA)) = 0x00U;
 926:./Libraries/STM32H7xx_HAL_Driver/Src/stm32h7xx_hal_nand.c ****           __DSB();
 927:./Libraries/STM32H7xx_HAL_Driver/Src/stm32h7xx_hal_nand.c ****           *(__IO uint8_t *)((uint32_t)(deviceaddress | ADDR_AREA)) = ADDR_1ST_CYCLE(nandaddress);
 928:./Libraries/STM32H7xx_HAL_Driver/Src/stm32h7xx_hal_nand.c ****           __DSB();
 929:./Libraries/STM32H7xx_HAL_Driver/Src/stm32h7xx_hal_nand.c ****           *(__IO uint8_t *)((uint32_t)(deviceaddress | ADDR_AREA)) = ADDR_2ND_CYCLE(nandaddress);
 930:./Libraries/STM32H7xx_HAL_Driver/Src/stm32h7xx_hal_nand.c ****           __DSB();
 931:./Libraries/STM32H7xx_HAL_Driver/Src/stm32h7xx_hal_nand.c ****           *(__IO uint8_t *)((uint32_t)(deviceaddress | ADDR_AREA)) = ADDR_3RD_CYCLE(nandaddress);
 932:./Libraries/STM32H7xx_HAL_Driver/Src/stm32h7xx_hal_nand.c ****           __DSB();
 933:./Libraries/STM32H7xx_HAL_Driver/Src/stm32h7xx_hal_nand.c ****         }
 934:./Libraries/STM32H7xx_HAL_Driver/Src/stm32h7xx_hal_nand.c ****       }
 935:./Libraries/STM32H7xx_HAL_Driver/Src/stm32h7xx_hal_nand.c **** 
 936:./Libraries/STM32H7xx_HAL_Driver/Src/stm32h7xx_hal_nand.c ****       /* Write data to memory */
 937:./Libraries/STM32H7xx_HAL_Driver/Src/stm32h7xx_hal_nand.c ****       for (index = 0U; index < hnand->Config.PageSize; index++)
 938:./Libraries/STM32H7xx_HAL_Driver/Src/stm32h7xx_hal_nand.c ****       {
 939:./Libraries/STM32H7xx_HAL_Driver/Src/stm32h7xx_hal_nand.c ****         *(__IO uint8_t *)deviceaddress = *buff;
 940:./Libraries/STM32H7xx_HAL_Driver/Src/stm32h7xx_hal_nand.c ****         buff++;
 941:./Libraries/STM32H7xx_HAL_Driver/Src/stm32h7xx_hal_nand.c ****         __DSB();
 942:./Libraries/STM32H7xx_HAL_Driver/Src/stm32h7xx_hal_nand.c ****       }
 943:./Libraries/STM32H7xx_HAL_Driver/Src/stm32h7xx_hal_nand.c **** 
 944:./Libraries/STM32H7xx_HAL_Driver/Src/stm32h7xx_hal_nand.c ****       *(__IO uint8_t *)((uint32_t)(deviceaddress | CMD_AREA)) = NAND_CMD_WRITE_TRUE1;
 945:./Libraries/STM32H7xx_HAL_Driver/Src/stm32h7xx_hal_nand.c ****       __DSB();
 946:./Libraries/STM32H7xx_HAL_Driver/Src/stm32h7xx_hal_nand.c **** 
 947:./Libraries/STM32H7xx_HAL_Driver/Src/stm32h7xx_hal_nand.c ****       /* Get tick */
 948:./Libraries/STM32H7xx_HAL_Driver/Src/stm32h7xx_hal_nand.c ****       tickstart = HAL_GetTick();
 949:./Libraries/STM32H7xx_HAL_Driver/Src/stm32h7xx_hal_nand.c **** 
 950:./Libraries/STM32H7xx_HAL_Driver/Src/stm32h7xx_hal_nand.c ****       /* Read status until NAND is ready */
 951:./Libraries/STM32H7xx_HAL_Driver/Src/stm32h7xx_hal_nand.c ****       while (HAL_NAND_Read_Status(hnand) != NAND_READY)
 952:./Libraries/STM32H7xx_HAL_Driver/Src/stm32h7xx_hal_nand.c ****       {
 953:./Libraries/STM32H7xx_HAL_Driver/Src/stm32h7xx_hal_nand.c ****         if ((HAL_GetTick() - tickstart) > NAND_WRITE_TIMEOUT)
 954:./Libraries/STM32H7xx_HAL_Driver/Src/stm32h7xx_hal_nand.c ****         {
 955:./Libraries/STM32H7xx_HAL_Driver/Src/stm32h7xx_hal_nand.c ****           /* Update the NAND controller state */
 956:./Libraries/STM32H7xx_HAL_Driver/Src/stm32h7xx_hal_nand.c ****           hnand->State = HAL_NAND_STATE_ERROR;
 957:./Libraries/STM32H7xx_HAL_Driver/Src/stm32h7xx_hal_nand.c **** 
 958:./Libraries/STM32H7xx_HAL_Driver/Src/stm32h7xx_hal_nand.c ****           /* Process unlocked */
 959:./Libraries/STM32H7xx_HAL_Driver/Src/stm32h7xx_hal_nand.c ****           __HAL_UNLOCK(hnand);
 960:./Libraries/STM32H7xx_HAL_Driver/Src/stm32h7xx_hal_nand.c **** 
 961:./Libraries/STM32H7xx_HAL_Driver/Src/stm32h7xx_hal_nand.c ****           return HAL_TIMEOUT;
 962:./Libraries/STM32H7xx_HAL_Driver/Src/stm32h7xx_hal_nand.c ****         }
 963:./Libraries/STM32H7xx_HAL_Driver/Src/stm32h7xx_hal_nand.c ****       }
 964:./Libraries/STM32H7xx_HAL_Driver/Src/stm32h7xx_hal_nand.c **** 
 965:./Libraries/STM32H7xx_HAL_Driver/Src/stm32h7xx_hal_nand.c ****       /* Increment written pages number */
 966:./Libraries/STM32H7xx_HAL_Driver/Src/stm32h7xx_hal_nand.c ****       numpageswritten++;
 967:./Libraries/STM32H7xx_HAL_Driver/Src/stm32h7xx_hal_nand.c **** 
 968:./Libraries/STM32H7xx_HAL_Driver/Src/stm32h7xx_hal_nand.c ****       /* Decrement pages to write */
 969:./Libraries/STM32H7xx_HAL_Driver/Src/stm32h7xx_hal_nand.c ****       nbpages--;
ARM GAS  /tmp/cc5RRSLv.s 			page 59


 970:./Libraries/STM32H7xx_HAL_Driver/Src/stm32h7xx_hal_nand.c **** 
 971:./Libraries/STM32H7xx_HAL_Driver/Src/stm32h7xx_hal_nand.c ****       /* Increment the NAND address */
 972:./Libraries/STM32H7xx_HAL_Driver/Src/stm32h7xx_hal_nand.c ****       nandaddress = (uint32_t)(nandaddress + 1U);
 973:./Libraries/STM32H7xx_HAL_Driver/Src/stm32h7xx_hal_nand.c ****     }
 974:./Libraries/STM32H7xx_HAL_Driver/Src/stm32h7xx_hal_nand.c **** 
 975:./Libraries/STM32H7xx_HAL_Driver/Src/stm32h7xx_hal_nand.c ****     /* Update the NAND controller state */
 976:./Libraries/STM32H7xx_HAL_Driver/Src/stm32h7xx_hal_nand.c ****     hnand->State = HAL_NAND_STATE_READY;
 977:./Libraries/STM32H7xx_HAL_Driver/Src/stm32h7xx_hal_nand.c **** 
 978:./Libraries/STM32H7xx_HAL_Driver/Src/stm32h7xx_hal_nand.c ****     /* Process unlocked */
 979:./Libraries/STM32H7xx_HAL_Driver/Src/stm32h7xx_hal_nand.c ****     __HAL_UNLOCK(hnand);
 980:./Libraries/STM32H7xx_HAL_Driver/Src/stm32h7xx_hal_nand.c ****   }
 981:./Libraries/STM32H7xx_HAL_Driver/Src/stm32h7xx_hal_nand.c ****   else
 982:./Libraries/STM32H7xx_HAL_Driver/Src/stm32h7xx_hal_nand.c ****   {
 983:./Libraries/STM32H7xx_HAL_Driver/Src/stm32h7xx_hal_nand.c ****     return HAL_ERROR;
 984:./Libraries/STM32H7xx_HAL_Driver/Src/stm32h7xx_hal_nand.c ****   }
 985:./Libraries/STM32H7xx_HAL_Driver/Src/stm32h7xx_hal_nand.c **** 
 986:./Libraries/STM32H7xx_HAL_Driver/Src/stm32h7xx_hal_nand.c ****   return HAL_OK;
 987:./Libraries/STM32H7xx_HAL_Driver/Src/stm32h7xx_hal_nand.c **** }
 988:./Libraries/STM32H7xx_HAL_Driver/Src/stm32h7xx_hal_nand.c **** 
 989:./Libraries/STM32H7xx_HAL_Driver/Src/stm32h7xx_hal_nand.c **** /**
 990:./Libraries/STM32H7xx_HAL_Driver/Src/stm32h7xx_hal_nand.c ****   * @brief  Write Page(s) to NAND memory block (16-bits addressing)
 991:./Libraries/STM32H7xx_HAL_Driver/Src/stm32h7xx_hal_nand.c ****   * @param  hnand pointer to a NAND_HandleTypeDef structure that contains
 992:./Libraries/STM32H7xx_HAL_Driver/Src/stm32h7xx_hal_nand.c ****   *                the configuration information for NAND module.
 993:./Libraries/STM32H7xx_HAL_Driver/Src/stm32h7xx_hal_nand.c ****   * @param  pAddress  pointer to NAND address structure
 994:./Libraries/STM32H7xx_HAL_Driver/Src/stm32h7xx_hal_nand.c ****   * @param  pBuffer  pointer to source buffer to write. pBuffer should be 16bits aligned
 995:./Libraries/STM32H7xx_HAL_Driver/Src/stm32h7xx_hal_nand.c ****   * @param  NumPageToWrite   number of pages to write to block
 996:./Libraries/STM32H7xx_HAL_Driver/Src/stm32h7xx_hal_nand.c ****   * @retval HAL status
 997:./Libraries/STM32H7xx_HAL_Driver/Src/stm32h7xx_hal_nand.c ****   */
 998:./Libraries/STM32H7xx_HAL_Driver/Src/stm32h7xx_hal_nand.c **** HAL_StatusTypeDef HAL_NAND_Write_Page_16b(NAND_HandleTypeDef *hnand, NAND_AddressTypeDef *pAddress,
 999:./Libraries/STM32H7xx_HAL_Driver/Src/stm32h7xx_hal_nand.c ****                                           uint32_t NumPageToWrite)
1000:./Libraries/STM32H7xx_HAL_Driver/Src/stm32h7xx_hal_nand.c **** {
1001:./Libraries/STM32H7xx_HAL_Driver/Src/stm32h7xx_hal_nand.c ****   uint32_t index;
1002:./Libraries/STM32H7xx_HAL_Driver/Src/stm32h7xx_hal_nand.c ****   uint32_t tickstart;
1003:./Libraries/STM32H7xx_HAL_Driver/Src/stm32h7xx_hal_nand.c ****   uint32_t deviceaddress;
1004:./Libraries/STM32H7xx_HAL_Driver/Src/stm32h7xx_hal_nand.c ****   uint32_t numpageswritten = 0U;
1005:./Libraries/STM32H7xx_HAL_Driver/Src/stm32h7xx_hal_nand.c ****   uint32_t nandaddress;
1006:./Libraries/STM32H7xx_HAL_Driver/Src/stm32h7xx_hal_nand.c ****   uint32_t nbpages = NumPageToWrite;
1007:./Libraries/STM32H7xx_HAL_Driver/Src/stm32h7xx_hal_nand.c ****   uint16_t *buff = pBuffer;
1008:./Libraries/STM32H7xx_HAL_Driver/Src/stm32h7xx_hal_nand.c **** 
1009:./Libraries/STM32H7xx_HAL_Driver/Src/stm32h7xx_hal_nand.c ****   /* Check the NAND controller state */
1010:./Libraries/STM32H7xx_HAL_Driver/Src/stm32h7xx_hal_nand.c ****   if (hnand->State == HAL_NAND_STATE_BUSY)
1011:./Libraries/STM32H7xx_HAL_Driver/Src/stm32h7xx_hal_nand.c ****   {
1012:./Libraries/STM32H7xx_HAL_Driver/Src/stm32h7xx_hal_nand.c ****     return HAL_BUSY;
1013:./Libraries/STM32H7xx_HAL_Driver/Src/stm32h7xx_hal_nand.c ****   }
1014:./Libraries/STM32H7xx_HAL_Driver/Src/stm32h7xx_hal_nand.c ****   else if (hnand->State == HAL_NAND_STATE_READY)
1015:./Libraries/STM32H7xx_HAL_Driver/Src/stm32h7xx_hal_nand.c ****   {
1016:./Libraries/STM32H7xx_HAL_Driver/Src/stm32h7xx_hal_nand.c ****     /* Process Locked */
1017:./Libraries/STM32H7xx_HAL_Driver/Src/stm32h7xx_hal_nand.c ****     __HAL_LOCK(hnand);
1018:./Libraries/STM32H7xx_HAL_Driver/Src/stm32h7xx_hal_nand.c **** 
1019:./Libraries/STM32H7xx_HAL_Driver/Src/stm32h7xx_hal_nand.c ****     /* Update the NAND controller state */
1020:./Libraries/STM32H7xx_HAL_Driver/Src/stm32h7xx_hal_nand.c ****     hnand->State = HAL_NAND_STATE_BUSY;
1021:./Libraries/STM32H7xx_HAL_Driver/Src/stm32h7xx_hal_nand.c **** 
1022:./Libraries/STM32H7xx_HAL_Driver/Src/stm32h7xx_hal_nand.c ****     /* Identify the device address */
1023:./Libraries/STM32H7xx_HAL_Driver/Src/stm32h7xx_hal_nand.c ****     deviceaddress = NAND_DEVICE;
1024:./Libraries/STM32H7xx_HAL_Driver/Src/stm32h7xx_hal_nand.c **** 
1025:./Libraries/STM32H7xx_HAL_Driver/Src/stm32h7xx_hal_nand.c ****     /* NAND raw address calculation */
1026:./Libraries/STM32H7xx_HAL_Driver/Src/stm32h7xx_hal_nand.c ****     nandaddress = ARRAY_ADDRESS(pAddress, hnand);
ARM GAS  /tmp/cc5RRSLv.s 			page 60


1027:./Libraries/STM32H7xx_HAL_Driver/Src/stm32h7xx_hal_nand.c **** 
1028:./Libraries/STM32H7xx_HAL_Driver/Src/stm32h7xx_hal_nand.c ****     /* Page(s) write loop */
1029:./Libraries/STM32H7xx_HAL_Driver/Src/stm32h7xx_hal_nand.c ****     while ((nbpages != 0U) && (nandaddress < ((hnand->Config.BlockSize) * (hnand->Config.BlockNbr))
1030:./Libraries/STM32H7xx_HAL_Driver/Src/stm32h7xx_hal_nand.c ****     {
1031:./Libraries/STM32H7xx_HAL_Driver/Src/stm32h7xx_hal_nand.c ****       /* Send write page command sequence */
1032:./Libraries/STM32H7xx_HAL_Driver/Src/stm32h7xx_hal_nand.c ****       *(__IO uint8_t *)((uint32_t)(deviceaddress | CMD_AREA)) = NAND_CMD_AREA_A;
1033:./Libraries/STM32H7xx_HAL_Driver/Src/stm32h7xx_hal_nand.c ****       __DSB();
1034:./Libraries/STM32H7xx_HAL_Driver/Src/stm32h7xx_hal_nand.c ****       *(__IO uint8_t *)((uint32_t)(deviceaddress | CMD_AREA)) = NAND_CMD_WRITE0;
1035:./Libraries/STM32H7xx_HAL_Driver/Src/stm32h7xx_hal_nand.c ****       __DSB();
1036:./Libraries/STM32H7xx_HAL_Driver/Src/stm32h7xx_hal_nand.c **** 
1037:./Libraries/STM32H7xx_HAL_Driver/Src/stm32h7xx_hal_nand.c ****       /* Cards with page size <= 512 bytes */
1038:./Libraries/STM32H7xx_HAL_Driver/Src/stm32h7xx_hal_nand.c ****       if ((hnand->Config.PageSize) <= 512U)
1039:./Libraries/STM32H7xx_HAL_Driver/Src/stm32h7xx_hal_nand.c ****       {
1040:./Libraries/STM32H7xx_HAL_Driver/Src/stm32h7xx_hal_nand.c ****         if (((hnand->Config.BlockSize) * (hnand->Config.BlockNbr)) <= 65535U)
1041:./Libraries/STM32H7xx_HAL_Driver/Src/stm32h7xx_hal_nand.c ****         {
1042:./Libraries/STM32H7xx_HAL_Driver/Src/stm32h7xx_hal_nand.c ****           *(__IO uint8_t *)((uint32_t)(deviceaddress | ADDR_AREA)) = 0x00U;
1043:./Libraries/STM32H7xx_HAL_Driver/Src/stm32h7xx_hal_nand.c ****           __DSB();
1044:./Libraries/STM32H7xx_HAL_Driver/Src/stm32h7xx_hal_nand.c ****           *(__IO uint8_t *)((uint32_t)(deviceaddress | ADDR_AREA)) = ADDR_1ST_CYCLE(nandaddress);
1045:./Libraries/STM32H7xx_HAL_Driver/Src/stm32h7xx_hal_nand.c ****           __DSB();
1046:./Libraries/STM32H7xx_HAL_Driver/Src/stm32h7xx_hal_nand.c ****           *(__IO uint8_t *)((uint32_t)(deviceaddress | ADDR_AREA)) = ADDR_2ND_CYCLE(nandaddress);
1047:./Libraries/STM32H7xx_HAL_Driver/Src/stm32h7xx_hal_nand.c ****           __DSB();
1048:./Libraries/STM32H7xx_HAL_Driver/Src/stm32h7xx_hal_nand.c ****         }
1049:./Libraries/STM32H7xx_HAL_Driver/Src/stm32h7xx_hal_nand.c ****         else /* ((hnand->Config.BlockSize)*(hnand->Config.BlockNbr)) > 65535 */
1050:./Libraries/STM32H7xx_HAL_Driver/Src/stm32h7xx_hal_nand.c ****         {
1051:./Libraries/STM32H7xx_HAL_Driver/Src/stm32h7xx_hal_nand.c ****           *(__IO uint8_t *)((uint32_t)(deviceaddress | ADDR_AREA)) = 0x00U;
1052:./Libraries/STM32H7xx_HAL_Driver/Src/stm32h7xx_hal_nand.c ****           __DSB();
1053:./Libraries/STM32H7xx_HAL_Driver/Src/stm32h7xx_hal_nand.c ****           *(__IO uint8_t *)((uint32_t)(deviceaddress | ADDR_AREA)) = ADDR_1ST_CYCLE(nandaddress);
1054:./Libraries/STM32H7xx_HAL_Driver/Src/stm32h7xx_hal_nand.c ****           __DSB();
1055:./Libraries/STM32H7xx_HAL_Driver/Src/stm32h7xx_hal_nand.c ****           *(__IO uint8_t *)((uint32_t)(deviceaddress | ADDR_AREA)) = ADDR_2ND_CYCLE(nandaddress);
1056:./Libraries/STM32H7xx_HAL_Driver/Src/stm32h7xx_hal_nand.c ****           __DSB();
1057:./Libraries/STM32H7xx_HAL_Driver/Src/stm32h7xx_hal_nand.c ****           *(__IO uint8_t *)((uint32_t)(deviceaddress | ADDR_AREA)) = ADDR_3RD_CYCLE(nandaddress);
1058:./Libraries/STM32H7xx_HAL_Driver/Src/stm32h7xx_hal_nand.c ****           __DSB();
1059:./Libraries/STM32H7xx_HAL_Driver/Src/stm32h7xx_hal_nand.c ****         }
1060:./Libraries/STM32H7xx_HAL_Driver/Src/stm32h7xx_hal_nand.c ****       }
1061:./Libraries/STM32H7xx_HAL_Driver/Src/stm32h7xx_hal_nand.c ****       else /* (hnand->Config.PageSize) > 512 */
1062:./Libraries/STM32H7xx_HAL_Driver/Src/stm32h7xx_hal_nand.c ****       {
1063:./Libraries/STM32H7xx_HAL_Driver/Src/stm32h7xx_hal_nand.c ****         if (((hnand->Config.BlockSize) * (hnand->Config.BlockNbr)) <= 65535U)
1064:./Libraries/STM32H7xx_HAL_Driver/Src/stm32h7xx_hal_nand.c ****         {
1065:./Libraries/STM32H7xx_HAL_Driver/Src/stm32h7xx_hal_nand.c ****           *(__IO uint8_t *)((uint32_t)(deviceaddress | ADDR_AREA)) = 0x00U;
1066:./Libraries/STM32H7xx_HAL_Driver/Src/stm32h7xx_hal_nand.c ****           __DSB();
1067:./Libraries/STM32H7xx_HAL_Driver/Src/stm32h7xx_hal_nand.c ****           *(__IO uint8_t *)((uint32_t)(deviceaddress | ADDR_AREA)) = 0x00U;
1068:./Libraries/STM32H7xx_HAL_Driver/Src/stm32h7xx_hal_nand.c ****           __DSB();
1069:./Libraries/STM32H7xx_HAL_Driver/Src/stm32h7xx_hal_nand.c ****           *(__IO uint8_t *)((uint32_t)(deviceaddress | ADDR_AREA)) = ADDR_1ST_CYCLE(nandaddress);
1070:./Libraries/STM32H7xx_HAL_Driver/Src/stm32h7xx_hal_nand.c ****           __DSB();
1071:./Libraries/STM32H7xx_HAL_Driver/Src/stm32h7xx_hal_nand.c ****           *(__IO uint8_t *)((uint32_t)(deviceaddress | ADDR_AREA)) = ADDR_2ND_CYCLE(nandaddress);
1072:./Libraries/STM32H7xx_HAL_Driver/Src/stm32h7xx_hal_nand.c ****           __DSB();
1073:./Libraries/STM32H7xx_HAL_Driver/Src/stm32h7xx_hal_nand.c ****         }
1074:./Libraries/STM32H7xx_HAL_Driver/Src/stm32h7xx_hal_nand.c ****         else /* ((hnand->Config.BlockSize)*(hnand->Config.BlockNbr)) > 65535 */
1075:./Libraries/STM32H7xx_HAL_Driver/Src/stm32h7xx_hal_nand.c ****         {
1076:./Libraries/STM32H7xx_HAL_Driver/Src/stm32h7xx_hal_nand.c ****           *(__IO uint8_t *)((uint32_t)(deviceaddress | ADDR_AREA)) = 0x00U;
1077:./Libraries/STM32H7xx_HAL_Driver/Src/stm32h7xx_hal_nand.c ****           __DSB();
1078:./Libraries/STM32H7xx_HAL_Driver/Src/stm32h7xx_hal_nand.c ****           *(__IO uint8_t *)((uint32_t)(deviceaddress | ADDR_AREA)) = 0x00U;
1079:./Libraries/STM32H7xx_HAL_Driver/Src/stm32h7xx_hal_nand.c ****           __DSB();
1080:./Libraries/STM32H7xx_HAL_Driver/Src/stm32h7xx_hal_nand.c ****           *(__IO uint8_t *)((uint32_t)(deviceaddress | ADDR_AREA)) = ADDR_1ST_CYCLE(nandaddress);
1081:./Libraries/STM32H7xx_HAL_Driver/Src/stm32h7xx_hal_nand.c ****           __DSB();
1082:./Libraries/STM32H7xx_HAL_Driver/Src/stm32h7xx_hal_nand.c ****           *(__IO uint8_t *)((uint32_t)(deviceaddress | ADDR_AREA)) = ADDR_2ND_CYCLE(nandaddress);
1083:./Libraries/STM32H7xx_HAL_Driver/Src/stm32h7xx_hal_nand.c ****           __DSB();
ARM GAS  /tmp/cc5RRSLv.s 			page 61


1084:./Libraries/STM32H7xx_HAL_Driver/Src/stm32h7xx_hal_nand.c ****           *(__IO uint8_t *)((uint32_t)(deviceaddress | ADDR_AREA)) = ADDR_3RD_CYCLE(nandaddress);
1085:./Libraries/STM32H7xx_HAL_Driver/Src/stm32h7xx_hal_nand.c ****           __DSB();
1086:./Libraries/STM32H7xx_HAL_Driver/Src/stm32h7xx_hal_nand.c ****         }
1087:./Libraries/STM32H7xx_HAL_Driver/Src/stm32h7xx_hal_nand.c ****       }
1088:./Libraries/STM32H7xx_HAL_Driver/Src/stm32h7xx_hal_nand.c **** 
1089:./Libraries/STM32H7xx_HAL_Driver/Src/stm32h7xx_hal_nand.c ****       /* Calculate PageSize */
1090:./Libraries/STM32H7xx_HAL_Driver/Src/stm32h7xx_hal_nand.c ****       if (hnand->Init.MemoryDataWidth == FMC_NAND_MEM_BUS_WIDTH_8)
1091:./Libraries/STM32H7xx_HAL_Driver/Src/stm32h7xx_hal_nand.c ****       {
1092:./Libraries/STM32H7xx_HAL_Driver/Src/stm32h7xx_hal_nand.c ****         hnand->Config.PageSize = hnand->Config.PageSize / 2U;
1093:./Libraries/STM32H7xx_HAL_Driver/Src/stm32h7xx_hal_nand.c ****       }
1094:./Libraries/STM32H7xx_HAL_Driver/Src/stm32h7xx_hal_nand.c ****       else
1095:./Libraries/STM32H7xx_HAL_Driver/Src/stm32h7xx_hal_nand.c ****       {
1096:./Libraries/STM32H7xx_HAL_Driver/Src/stm32h7xx_hal_nand.c ****         /* Do nothing */
1097:./Libraries/STM32H7xx_HAL_Driver/Src/stm32h7xx_hal_nand.c ****         /* Keep the same PageSize for FMC_NAND_MEM_BUS_WIDTH_16*/
1098:./Libraries/STM32H7xx_HAL_Driver/Src/stm32h7xx_hal_nand.c ****       }
1099:./Libraries/STM32H7xx_HAL_Driver/Src/stm32h7xx_hal_nand.c **** 
1100:./Libraries/STM32H7xx_HAL_Driver/Src/stm32h7xx_hal_nand.c ****       /* Write data to memory */
1101:./Libraries/STM32H7xx_HAL_Driver/Src/stm32h7xx_hal_nand.c ****       for (index = 0U; index < hnand->Config.PageSize; index++)
1102:./Libraries/STM32H7xx_HAL_Driver/Src/stm32h7xx_hal_nand.c ****       {
1103:./Libraries/STM32H7xx_HAL_Driver/Src/stm32h7xx_hal_nand.c ****         *(__IO uint16_t *)deviceaddress = *buff;
1104:./Libraries/STM32H7xx_HAL_Driver/Src/stm32h7xx_hal_nand.c ****         buff++;
1105:./Libraries/STM32H7xx_HAL_Driver/Src/stm32h7xx_hal_nand.c ****         __DSB();
1106:./Libraries/STM32H7xx_HAL_Driver/Src/stm32h7xx_hal_nand.c ****       }
1107:./Libraries/STM32H7xx_HAL_Driver/Src/stm32h7xx_hal_nand.c **** 
1108:./Libraries/STM32H7xx_HAL_Driver/Src/stm32h7xx_hal_nand.c ****       *(__IO uint8_t *)((uint32_t)(deviceaddress | CMD_AREA)) = NAND_CMD_WRITE_TRUE1;
1109:./Libraries/STM32H7xx_HAL_Driver/Src/stm32h7xx_hal_nand.c ****       __DSB();
1110:./Libraries/STM32H7xx_HAL_Driver/Src/stm32h7xx_hal_nand.c **** 
1111:./Libraries/STM32H7xx_HAL_Driver/Src/stm32h7xx_hal_nand.c ****       /* Get tick */
1112:./Libraries/STM32H7xx_HAL_Driver/Src/stm32h7xx_hal_nand.c ****       tickstart = HAL_GetTick();
1113:./Libraries/STM32H7xx_HAL_Driver/Src/stm32h7xx_hal_nand.c **** 
1114:./Libraries/STM32H7xx_HAL_Driver/Src/stm32h7xx_hal_nand.c ****       /* Read status until NAND is ready */
1115:./Libraries/STM32H7xx_HAL_Driver/Src/stm32h7xx_hal_nand.c ****       while (HAL_NAND_Read_Status(hnand) != NAND_READY)
1116:./Libraries/STM32H7xx_HAL_Driver/Src/stm32h7xx_hal_nand.c ****       {
1117:./Libraries/STM32H7xx_HAL_Driver/Src/stm32h7xx_hal_nand.c ****         if ((HAL_GetTick() - tickstart) > NAND_WRITE_TIMEOUT)
1118:./Libraries/STM32H7xx_HAL_Driver/Src/stm32h7xx_hal_nand.c ****         {
1119:./Libraries/STM32H7xx_HAL_Driver/Src/stm32h7xx_hal_nand.c ****           /* Update the NAND controller state */
1120:./Libraries/STM32H7xx_HAL_Driver/Src/stm32h7xx_hal_nand.c ****           hnand->State = HAL_NAND_STATE_ERROR;
1121:./Libraries/STM32H7xx_HAL_Driver/Src/stm32h7xx_hal_nand.c **** 
1122:./Libraries/STM32H7xx_HAL_Driver/Src/stm32h7xx_hal_nand.c ****           /* Process unlocked */
1123:./Libraries/STM32H7xx_HAL_Driver/Src/stm32h7xx_hal_nand.c ****           __HAL_UNLOCK(hnand);
1124:./Libraries/STM32H7xx_HAL_Driver/Src/stm32h7xx_hal_nand.c **** 
1125:./Libraries/STM32H7xx_HAL_Driver/Src/stm32h7xx_hal_nand.c ****           return HAL_TIMEOUT;
1126:./Libraries/STM32H7xx_HAL_Driver/Src/stm32h7xx_hal_nand.c ****         }
1127:./Libraries/STM32H7xx_HAL_Driver/Src/stm32h7xx_hal_nand.c ****       }
1128:./Libraries/STM32H7xx_HAL_Driver/Src/stm32h7xx_hal_nand.c **** 
1129:./Libraries/STM32H7xx_HAL_Driver/Src/stm32h7xx_hal_nand.c ****       /* Increment written pages number */
1130:./Libraries/STM32H7xx_HAL_Driver/Src/stm32h7xx_hal_nand.c ****       numpageswritten++;
1131:./Libraries/STM32H7xx_HAL_Driver/Src/stm32h7xx_hal_nand.c **** 
1132:./Libraries/STM32H7xx_HAL_Driver/Src/stm32h7xx_hal_nand.c ****       /* Decrement pages to write */
1133:./Libraries/STM32H7xx_HAL_Driver/Src/stm32h7xx_hal_nand.c ****       nbpages--;
1134:./Libraries/STM32H7xx_HAL_Driver/Src/stm32h7xx_hal_nand.c **** 
1135:./Libraries/STM32H7xx_HAL_Driver/Src/stm32h7xx_hal_nand.c ****       /* Increment the NAND address */
1136:./Libraries/STM32H7xx_HAL_Driver/Src/stm32h7xx_hal_nand.c ****       nandaddress = (uint32_t)(nandaddress + 1U);
1137:./Libraries/STM32H7xx_HAL_Driver/Src/stm32h7xx_hal_nand.c ****     }
1138:./Libraries/STM32H7xx_HAL_Driver/Src/stm32h7xx_hal_nand.c **** 
1139:./Libraries/STM32H7xx_HAL_Driver/Src/stm32h7xx_hal_nand.c ****     /* Update the NAND controller state */
1140:./Libraries/STM32H7xx_HAL_Driver/Src/stm32h7xx_hal_nand.c ****     hnand->State = HAL_NAND_STATE_READY;
ARM GAS  /tmp/cc5RRSLv.s 			page 62


1141:./Libraries/STM32H7xx_HAL_Driver/Src/stm32h7xx_hal_nand.c **** 
1142:./Libraries/STM32H7xx_HAL_Driver/Src/stm32h7xx_hal_nand.c ****     /* Process unlocked */
1143:./Libraries/STM32H7xx_HAL_Driver/Src/stm32h7xx_hal_nand.c ****     __HAL_UNLOCK(hnand);
1144:./Libraries/STM32H7xx_HAL_Driver/Src/stm32h7xx_hal_nand.c ****   }
1145:./Libraries/STM32H7xx_HAL_Driver/Src/stm32h7xx_hal_nand.c ****   else
1146:./Libraries/STM32H7xx_HAL_Driver/Src/stm32h7xx_hal_nand.c ****   {
1147:./Libraries/STM32H7xx_HAL_Driver/Src/stm32h7xx_hal_nand.c ****     return HAL_ERROR;
1148:./Libraries/STM32H7xx_HAL_Driver/Src/stm32h7xx_hal_nand.c ****   }
1149:./Libraries/STM32H7xx_HAL_Driver/Src/stm32h7xx_hal_nand.c **** 
1150:./Libraries/STM32H7xx_HAL_Driver/Src/stm32h7xx_hal_nand.c ****   return HAL_OK;
1151:./Libraries/STM32H7xx_HAL_Driver/Src/stm32h7xx_hal_nand.c **** }
1152:./Libraries/STM32H7xx_HAL_Driver/Src/stm32h7xx_hal_nand.c **** 
1153:./Libraries/STM32H7xx_HAL_Driver/Src/stm32h7xx_hal_nand.c **** /**
1154:./Libraries/STM32H7xx_HAL_Driver/Src/stm32h7xx_hal_nand.c ****   * @brief  Read Spare area(s) from NAND memory (8-bits addressing)
1155:./Libraries/STM32H7xx_HAL_Driver/Src/stm32h7xx_hal_nand.c ****   * @param  hnand pointer to a NAND_HandleTypeDef structure that contains
1156:./Libraries/STM32H7xx_HAL_Driver/Src/stm32h7xx_hal_nand.c ****   *                the configuration information for NAND module.
1157:./Libraries/STM32H7xx_HAL_Driver/Src/stm32h7xx_hal_nand.c ****   * @param  pAddress  pointer to NAND address structure
1158:./Libraries/STM32H7xx_HAL_Driver/Src/stm32h7xx_hal_nand.c ****   * @param  pBuffer pointer to source buffer to write
1159:./Libraries/STM32H7xx_HAL_Driver/Src/stm32h7xx_hal_nand.c ****   * @param  NumSpareAreaToRead Number of spare area to read
1160:./Libraries/STM32H7xx_HAL_Driver/Src/stm32h7xx_hal_nand.c ****   * @retval HAL status
1161:./Libraries/STM32H7xx_HAL_Driver/Src/stm32h7xx_hal_nand.c ****   */
1162:./Libraries/STM32H7xx_HAL_Driver/Src/stm32h7xx_hal_nand.c **** HAL_StatusTypeDef HAL_NAND_Read_SpareArea_8b(NAND_HandleTypeDef *hnand, NAND_AddressTypeDef *pAddre
1163:./Libraries/STM32H7xx_HAL_Driver/Src/stm32h7xx_hal_nand.c ****                                              uint32_t NumSpareAreaToRead)
1164:./Libraries/STM32H7xx_HAL_Driver/Src/stm32h7xx_hal_nand.c **** {
1165:./Libraries/STM32H7xx_HAL_Driver/Src/stm32h7xx_hal_nand.c ****   uint32_t index;
1166:./Libraries/STM32H7xx_HAL_Driver/Src/stm32h7xx_hal_nand.c ****   uint32_t tickstart;
1167:./Libraries/STM32H7xx_HAL_Driver/Src/stm32h7xx_hal_nand.c ****   uint32_t deviceaddress;
1168:./Libraries/STM32H7xx_HAL_Driver/Src/stm32h7xx_hal_nand.c ****   uint32_t numsparearearead = 0U;
1169:./Libraries/STM32H7xx_HAL_Driver/Src/stm32h7xx_hal_nand.c ****   uint32_t nandaddress;
1170:./Libraries/STM32H7xx_HAL_Driver/Src/stm32h7xx_hal_nand.c ****   uint32_t columnaddress;
1171:./Libraries/STM32H7xx_HAL_Driver/Src/stm32h7xx_hal_nand.c ****   uint32_t nbspare = NumSpareAreaToRead;
1172:./Libraries/STM32H7xx_HAL_Driver/Src/stm32h7xx_hal_nand.c ****   uint8_t *buff = pBuffer;
1173:./Libraries/STM32H7xx_HAL_Driver/Src/stm32h7xx_hal_nand.c **** 
1174:./Libraries/STM32H7xx_HAL_Driver/Src/stm32h7xx_hal_nand.c ****   /* Check the NAND controller state */
1175:./Libraries/STM32H7xx_HAL_Driver/Src/stm32h7xx_hal_nand.c ****   if (hnand->State == HAL_NAND_STATE_BUSY)
1176:./Libraries/STM32H7xx_HAL_Driver/Src/stm32h7xx_hal_nand.c ****   {
1177:./Libraries/STM32H7xx_HAL_Driver/Src/stm32h7xx_hal_nand.c ****     return HAL_BUSY;
1178:./Libraries/STM32H7xx_HAL_Driver/Src/stm32h7xx_hal_nand.c ****   }
1179:./Libraries/STM32H7xx_HAL_Driver/Src/stm32h7xx_hal_nand.c ****   else if (hnand->State == HAL_NAND_STATE_READY)
1180:./Libraries/STM32H7xx_HAL_Driver/Src/stm32h7xx_hal_nand.c ****   {
1181:./Libraries/STM32H7xx_HAL_Driver/Src/stm32h7xx_hal_nand.c ****     /* Process Locked */
1182:./Libraries/STM32H7xx_HAL_Driver/Src/stm32h7xx_hal_nand.c ****     __HAL_LOCK(hnand);
1183:./Libraries/STM32H7xx_HAL_Driver/Src/stm32h7xx_hal_nand.c **** 
1184:./Libraries/STM32H7xx_HAL_Driver/Src/stm32h7xx_hal_nand.c ****     /* Update the NAND controller state */
1185:./Libraries/STM32H7xx_HAL_Driver/Src/stm32h7xx_hal_nand.c ****     hnand->State = HAL_NAND_STATE_BUSY;
1186:./Libraries/STM32H7xx_HAL_Driver/Src/stm32h7xx_hal_nand.c **** 
1187:./Libraries/STM32H7xx_HAL_Driver/Src/stm32h7xx_hal_nand.c ****     /* Identify the device address */
1188:./Libraries/STM32H7xx_HAL_Driver/Src/stm32h7xx_hal_nand.c ****     deviceaddress = NAND_DEVICE;
1189:./Libraries/STM32H7xx_HAL_Driver/Src/stm32h7xx_hal_nand.c **** 
1190:./Libraries/STM32H7xx_HAL_Driver/Src/stm32h7xx_hal_nand.c ****     /* NAND raw address calculation */
1191:./Libraries/STM32H7xx_HAL_Driver/Src/stm32h7xx_hal_nand.c ****     nandaddress = ARRAY_ADDRESS(pAddress, hnand);
1192:./Libraries/STM32H7xx_HAL_Driver/Src/stm32h7xx_hal_nand.c **** 
1193:./Libraries/STM32H7xx_HAL_Driver/Src/stm32h7xx_hal_nand.c ****     /* Column in page address */
1194:./Libraries/STM32H7xx_HAL_Driver/Src/stm32h7xx_hal_nand.c ****     columnaddress = COLUMN_ADDRESS(hnand);
1195:./Libraries/STM32H7xx_HAL_Driver/Src/stm32h7xx_hal_nand.c **** 
1196:./Libraries/STM32H7xx_HAL_Driver/Src/stm32h7xx_hal_nand.c ****     /* Spare area(s) read loop */
1197:./Libraries/STM32H7xx_HAL_Driver/Src/stm32h7xx_hal_nand.c ****     while ((nbspare != 0U) && (nandaddress < ((hnand->Config.BlockSize) * (hnand->Config.BlockNbr))
ARM GAS  /tmp/cc5RRSLv.s 			page 63


1198:./Libraries/STM32H7xx_HAL_Driver/Src/stm32h7xx_hal_nand.c ****     {
1199:./Libraries/STM32H7xx_HAL_Driver/Src/stm32h7xx_hal_nand.c ****       /* Cards with page size <= 512 bytes */
1200:./Libraries/STM32H7xx_HAL_Driver/Src/stm32h7xx_hal_nand.c ****       if ((hnand->Config.PageSize) <= 512U)
1201:./Libraries/STM32H7xx_HAL_Driver/Src/stm32h7xx_hal_nand.c ****       {
1202:./Libraries/STM32H7xx_HAL_Driver/Src/stm32h7xx_hal_nand.c ****         /* Send read spare area command sequence */
1203:./Libraries/STM32H7xx_HAL_Driver/Src/stm32h7xx_hal_nand.c ****         *(__IO uint8_t *)((uint32_t)(deviceaddress | CMD_AREA)) = NAND_CMD_AREA_C;
1204:./Libraries/STM32H7xx_HAL_Driver/Src/stm32h7xx_hal_nand.c ****         __DSB();
1205:./Libraries/STM32H7xx_HAL_Driver/Src/stm32h7xx_hal_nand.c **** 
1206:./Libraries/STM32H7xx_HAL_Driver/Src/stm32h7xx_hal_nand.c ****         if (((hnand->Config.BlockSize) * (hnand->Config.BlockNbr)) <= 65535U)
1207:./Libraries/STM32H7xx_HAL_Driver/Src/stm32h7xx_hal_nand.c ****         {
1208:./Libraries/STM32H7xx_HAL_Driver/Src/stm32h7xx_hal_nand.c ****           *(__IO uint8_t *)((uint32_t)(deviceaddress | ADDR_AREA)) = 0x00U;
1209:./Libraries/STM32H7xx_HAL_Driver/Src/stm32h7xx_hal_nand.c ****           __DSB();
1210:./Libraries/STM32H7xx_HAL_Driver/Src/stm32h7xx_hal_nand.c ****           *(__IO uint8_t *)((uint32_t)(deviceaddress | ADDR_AREA)) = ADDR_1ST_CYCLE(nandaddress);
1211:./Libraries/STM32H7xx_HAL_Driver/Src/stm32h7xx_hal_nand.c ****           __DSB();
1212:./Libraries/STM32H7xx_HAL_Driver/Src/stm32h7xx_hal_nand.c ****           *(__IO uint8_t *)((uint32_t)(deviceaddress | ADDR_AREA)) = ADDR_2ND_CYCLE(nandaddress);
1213:./Libraries/STM32H7xx_HAL_Driver/Src/stm32h7xx_hal_nand.c ****           __DSB();
1214:./Libraries/STM32H7xx_HAL_Driver/Src/stm32h7xx_hal_nand.c ****         }
1215:./Libraries/STM32H7xx_HAL_Driver/Src/stm32h7xx_hal_nand.c ****         else /* ((hnand->Config.BlockSize)*(hnand->Config.BlockNbr)) > 65535 */
1216:./Libraries/STM32H7xx_HAL_Driver/Src/stm32h7xx_hal_nand.c ****         {
1217:./Libraries/STM32H7xx_HAL_Driver/Src/stm32h7xx_hal_nand.c ****           *(__IO uint8_t *)((uint32_t)(deviceaddress | ADDR_AREA)) = 0x00U;
1218:./Libraries/STM32H7xx_HAL_Driver/Src/stm32h7xx_hal_nand.c ****           __DSB();
1219:./Libraries/STM32H7xx_HAL_Driver/Src/stm32h7xx_hal_nand.c ****           *(__IO uint8_t *)((uint32_t)(deviceaddress | ADDR_AREA)) = ADDR_1ST_CYCLE(nandaddress);
1220:./Libraries/STM32H7xx_HAL_Driver/Src/stm32h7xx_hal_nand.c ****           __DSB();
1221:./Libraries/STM32H7xx_HAL_Driver/Src/stm32h7xx_hal_nand.c ****           *(__IO uint8_t *)((uint32_t)(deviceaddress | ADDR_AREA)) = ADDR_2ND_CYCLE(nandaddress);
1222:./Libraries/STM32H7xx_HAL_Driver/Src/stm32h7xx_hal_nand.c ****           __DSB();
1223:./Libraries/STM32H7xx_HAL_Driver/Src/stm32h7xx_hal_nand.c ****           *(__IO uint8_t *)((uint32_t)(deviceaddress | ADDR_AREA)) = ADDR_3RD_CYCLE(nandaddress);
1224:./Libraries/STM32H7xx_HAL_Driver/Src/stm32h7xx_hal_nand.c ****           __DSB();
1225:./Libraries/STM32H7xx_HAL_Driver/Src/stm32h7xx_hal_nand.c ****         }
1226:./Libraries/STM32H7xx_HAL_Driver/Src/stm32h7xx_hal_nand.c ****       }
1227:./Libraries/STM32H7xx_HAL_Driver/Src/stm32h7xx_hal_nand.c ****       else /* (hnand->Config.PageSize) > 512 */
1228:./Libraries/STM32H7xx_HAL_Driver/Src/stm32h7xx_hal_nand.c ****       {
1229:./Libraries/STM32H7xx_HAL_Driver/Src/stm32h7xx_hal_nand.c ****         /* Send read spare area command sequence */
1230:./Libraries/STM32H7xx_HAL_Driver/Src/stm32h7xx_hal_nand.c ****         *(__IO uint8_t *)((uint32_t)(deviceaddress | CMD_AREA)) = NAND_CMD_AREA_A;
1231:./Libraries/STM32H7xx_HAL_Driver/Src/stm32h7xx_hal_nand.c ****         __DSB();
1232:./Libraries/STM32H7xx_HAL_Driver/Src/stm32h7xx_hal_nand.c **** 
1233:./Libraries/STM32H7xx_HAL_Driver/Src/stm32h7xx_hal_nand.c ****         if (((hnand->Config.BlockSize) * (hnand->Config.BlockNbr)) <= 65535U)
1234:./Libraries/STM32H7xx_HAL_Driver/Src/stm32h7xx_hal_nand.c ****         {
1235:./Libraries/STM32H7xx_HAL_Driver/Src/stm32h7xx_hal_nand.c ****           *(__IO uint8_t *)((uint32_t)(deviceaddress | ADDR_AREA)) = COLUMN_1ST_CYCLE(columnaddress
1236:./Libraries/STM32H7xx_HAL_Driver/Src/stm32h7xx_hal_nand.c ****           __DSB();
1237:./Libraries/STM32H7xx_HAL_Driver/Src/stm32h7xx_hal_nand.c ****           *(__IO uint8_t *)((uint32_t)(deviceaddress | ADDR_AREA)) = COLUMN_2ND_CYCLE(columnaddress
1238:./Libraries/STM32H7xx_HAL_Driver/Src/stm32h7xx_hal_nand.c ****           __DSB();
1239:./Libraries/STM32H7xx_HAL_Driver/Src/stm32h7xx_hal_nand.c ****           *(__IO uint8_t *)((uint32_t)(deviceaddress | ADDR_AREA)) = ADDR_1ST_CYCLE(nandaddress);
1240:./Libraries/STM32H7xx_HAL_Driver/Src/stm32h7xx_hal_nand.c ****           __DSB();
1241:./Libraries/STM32H7xx_HAL_Driver/Src/stm32h7xx_hal_nand.c ****           *(__IO uint8_t *)((uint32_t)(deviceaddress | ADDR_AREA)) = ADDR_2ND_CYCLE(nandaddress);
1242:./Libraries/STM32H7xx_HAL_Driver/Src/stm32h7xx_hal_nand.c ****           __DSB();
1243:./Libraries/STM32H7xx_HAL_Driver/Src/stm32h7xx_hal_nand.c ****         }
1244:./Libraries/STM32H7xx_HAL_Driver/Src/stm32h7xx_hal_nand.c ****         else /* ((hnand->Config.BlockSize)*(hnand->Config.BlockNbr)) > 65535 */
1245:./Libraries/STM32H7xx_HAL_Driver/Src/stm32h7xx_hal_nand.c ****         {
1246:./Libraries/STM32H7xx_HAL_Driver/Src/stm32h7xx_hal_nand.c ****           *(__IO uint8_t *)((uint32_t)(deviceaddress | ADDR_AREA)) = COLUMN_1ST_CYCLE(columnaddress
1247:./Libraries/STM32H7xx_HAL_Driver/Src/stm32h7xx_hal_nand.c ****           __DSB();
1248:./Libraries/STM32H7xx_HAL_Driver/Src/stm32h7xx_hal_nand.c ****           *(__IO uint8_t *)((uint32_t)(deviceaddress | ADDR_AREA)) = COLUMN_2ND_CYCLE(columnaddress
1249:./Libraries/STM32H7xx_HAL_Driver/Src/stm32h7xx_hal_nand.c ****           __DSB();
1250:./Libraries/STM32H7xx_HAL_Driver/Src/stm32h7xx_hal_nand.c ****           *(__IO uint8_t *)((uint32_t)(deviceaddress | ADDR_AREA)) = ADDR_1ST_CYCLE(nandaddress);
1251:./Libraries/STM32H7xx_HAL_Driver/Src/stm32h7xx_hal_nand.c ****           __DSB();
1252:./Libraries/STM32H7xx_HAL_Driver/Src/stm32h7xx_hal_nand.c ****           *(__IO uint8_t *)((uint32_t)(deviceaddress | ADDR_AREA)) = ADDR_2ND_CYCLE(nandaddress);
1253:./Libraries/STM32H7xx_HAL_Driver/Src/stm32h7xx_hal_nand.c ****           __DSB();
1254:./Libraries/STM32H7xx_HAL_Driver/Src/stm32h7xx_hal_nand.c ****           *(__IO uint8_t *)((uint32_t)(deviceaddress | ADDR_AREA)) = ADDR_3RD_CYCLE(nandaddress);
ARM GAS  /tmp/cc5RRSLv.s 			page 64


1255:./Libraries/STM32H7xx_HAL_Driver/Src/stm32h7xx_hal_nand.c ****           __DSB();
1256:./Libraries/STM32H7xx_HAL_Driver/Src/stm32h7xx_hal_nand.c ****         }
1257:./Libraries/STM32H7xx_HAL_Driver/Src/stm32h7xx_hal_nand.c ****       }
1258:./Libraries/STM32H7xx_HAL_Driver/Src/stm32h7xx_hal_nand.c **** 
1259:./Libraries/STM32H7xx_HAL_Driver/Src/stm32h7xx_hal_nand.c ****       *(__IO uint8_t *)((uint32_t)(deviceaddress | CMD_AREA)) = NAND_CMD_AREA_TRUE1;
1260:./Libraries/STM32H7xx_HAL_Driver/Src/stm32h7xx_hal_nand.c ****       __DSB();
1261:./Libraries/STM32H7xx_HAL_Driver/Src/stm32h7xx_hal_nand.c **** 
1262:./Libraries/STM32H7xx_HAL_Driver/Src/stm32h7xx_hal_nand.c ****       if (hnand->Config.ExtraCommandEnable == ENABLE)
1263:./Libraries/STM32H7xx_HAL_Driver/Src/stm32h7xx_hal_nand.c ****       {
1264:./Libraries/STM32H7xx_HAL_Driver/Src/stm32h7xx_hal_nand.c ****         /* Get tick */
1265:./Libraries/STM32H7xx_HAL_Driver/Src/stm32h7xx_hal_nand.c ****         tickstart = HAL_GetTick();
1266:./Libraries/STM32H7xx_HAL_Driver/Src/stm32h7xx_hal_nand.c **** 
1267:./Libraries/STM32H7xx_HAL_Driver/Src/stm32h7xx_hal_nand.c ****         /* Read status until NAND is ready */
1268:./Libraries/STM32H7xx_HAL_Driver/Src/stm32h7xx_hal_nand.c ****         while (HAL_NAND_Read_Status(hnand) != NAND_READY)
1269:./Libraries/STM32H7xx_HAL_Driver/Src/stm32h7xx_hal_nand.c ****         {
1270:./Libraries/STM32H7xx_HAL_Driver/Src/stm32h7xx_hal_nand.c ****           if ((HAL_GetTick() - tickstart) > NAND_WRITE_TIMEOUT)
1271:./Libraries/STM32H7xx_HAL_Driver/Src/stm32h7xx_hal_nand.c ****           {
1272:./Libraries/STM32H7xx_HAL_Driver/Src/stm32h7xx_hal_nand.c ****             /* Update the NAND controller state */
1273:./Libraries/STM32H7xx_HAL_Driver/Src/stm32h7xx_hal_nand.c ****             hnand->State = HAL_NAND_STATE_ERROR;
1274:./Libraries/STM32H7xx_HAL_Driver/Src/stm32h7xx_hal_nand.c **** 
1275:./Libraries/STM32H7xx_HAL_Driver/Src/stm32h7xx_hal_nand.c ****             /* Process unlocked */
1276:./Libraries/STM32H7xx_HAL_Driver/Src/stm32h7xx_hal_nand.c ****             __HAL_UNLOCK(hnand);
1277:./Libraries/STM32H7xx_HAL_Driver/Src/stm32h7xx_hal_nand.c **** 
1278:./Libraries/STM32H7xx_HAL_Driver/Src/stm32h7xx_hal_nand.c ****             return HAL_TIMEOUT;
1279:./Libraries/STM32H7xx_HAL_Driver/Src/stm32h7xx_hal_nand.c ****           }
1280:./Libraries/STM32H7xx_HAL_Driver/Src/stm32h7xx_hal_nand.c ****         }
1281:./Libraries/STM32H7xx_HAL_Driver/Src/stm32h7xx_hal_nand.c **** 
1282:./Libraries/STM32H7xx_HAL_Driver/Src/stm32h7xx_hal_nand.c ****         /* Go back to read mode */
1283:./Libraries/STM32H7xx_HAL_Driver/Src/stm32h7xx_hal_nand.c ****         *(__IO uint8_t *)((uint32_t)(deviceaddress | CMD_AREA)) = ((uint8_t)0x00);
1284:./Libraries/STM32H7xx_HAL_Driver/Src/stm32h7xx_hal_nand.c ****         __DSB();
1285:./Libraries/STM32H7xx_HAL_Driver/Src/stm32h7xx_hal_nand.c ****       }
1286:./Libraries/STM32H7xx_HAL_Driver/Src/stm32h7xx_hal_nand.c **** 
1287:./Libraries/STM32H7xx_HAL_Driver/Src/stm32h7xx_hal_nand.c ****       /* Get Data into Buffer */
1288:./Libraries/STM32H7xx_HAL_Driver/Src/stm32h7xx_hal_nand.c ****       for (index = 0U; index < hnand->Config.SpareAreaSize; index++)
1289:./Libraries/STM32H7xx_HAL_Driver/Src/stm32h7xx_hal_nand.c ****       {
1290:./Libraries/STM32H7xx_HAL_Driver/Src/stm32h7xx_hal_nand.c ****         *buff = *(uint8_t *)deviceaddress;
1291:./Libraries/STM32H7xx_HAL_Driver/Src/stm32h7xx_hal_nand.c ****         buff++;
1292:./Libraries/STM32H7xx_HAL_Driver/Src/stm32h7xx_hal_nand.c ****       }
1293:./Libraries/STM32H7xx_HAL_Driver/Src/stm32h7xx_hal_nand.c **** 
1294:./Libraries/STM32H7xx_HAL_Driver/Src/stm32h7xx_hal_nand.c ****       /* Increment read spare areas number */
1295:./Libraries/STM32H7xx_HAL_Driver/Src/stm32h7xx_hal_nand.c ****       numsparearearead++;
1296:./Libraries/STM32H7xx_HAL_Driver/Src/stm32h7xx_hal_nand.c **** 
1297:./Libraries/STM32H7xx_HAL_Driver/Src/stm32h7xx_hal_nand.c ****       /* Decrement spare areas to read */
1298:./Libraries/STM32H7xx_HAL_Driver/Src/stm32h7xx_hal_nand.c ****       nbspare--;
1299:./Libraries/STM32H7xx_HAL_Driver/Src/stm32h7xx_hal_nand.c **** 
1300:./Libraries/STM32H7xx_HAL_Driver/Src/stm32h7xx_hal_nand.c ****       /* Increment the NAND address */
1301:./Libraries/STM32H7xx_HAL_Driver/Src/stm32h7xx_hal_nand.c ****       nandaddress = (uint32_t)(nandaddress + 1U);
1302:./Libraries/STM32H7xx_HAL_Driver/Src/stm32h7xx_hal_nand.c ****     }
1303:./Libraries/STM32H7xx_HAL_Driver/Src/stm32h7xx_hal_nand.c **** 
1304:./Libraries/STM32H7xx_HAL_Driver/Src/stm32h7xx_hal_nand.c ****     /* Update the NAND controller state */
1305:./Libraries/STM32H7xx_HAL_Driver/Src/stm32h7xx_hal_nand.c ****     hnand->State = HAL_NAND_STATE_READY;
1306:./Libraries/STM32H7xx_HAL_Driver/Src/stm32h7xx_hal_nand.c **** 
1307:./Libraries/STM32H7xx_HAL_Driver/Src/stm32h7xx_hal_nand.c ****     /* Process unlocked */
1308:./Libraries/STM32H7xx_HAL_Driver/Src/stm32h7xx_hal_nand.c ****     __HAL_UNLOCK(hnand);
1309:./Libraries/STM32H7xx_HAL_Driver/Src/stm32h7xx_hal_nand.c ****   }
1310:./Libraries/STM32H7xx_HAL_Driver/Src/stm32h7xx_hal_nand.c ****   else
1311:./Libraries/STM32H7xx_HAL_Driver/Src/stm32h7xx_hal_nand.c ****   {
ARM GAS  /tmp/cc5RRSLv.s 			page 65


1312:./Libraries/STM32H7xx_HAL_Driver/Src/stm32h7xx_hal_nand.c ****     return HAL_ERROR;
1313:./Libraries/STM32H7xx_HAL_Driver/Src/stm32h7xx_hal_nand.c ****   }
1314:./Libraries/STM32H7xx_HAL_Driver/Src/stm32h7xx_hal_nand.c **** 
1315:./Libraries/STM32H7xx_HAL_Driver/Src/stm32h7xx_hal_nand.c ****   return HAL_OK;
1316:./Libraries/STM32H7xx_HAL_Driver/Src/stm32h7xx_hal_nand.c **** }
1317:./Libraries/STM32H7xx_HAL_Driver/Src/stm32h7xx_hal_nand.c **** 
1318:./Libraries/STM32H7xx_HAL_Driver/Src/stm32h7xx_hal_nand.c **** /**
1319:./Libraries/STM32H7xx_HAL_Driver/Src/stm32h7xx_hal_nand.c ****   * @brief  Read Spare area(s) from NAND memory (16-bits addressing)
1320:./Libraries/STM32H7xx_HAL_Driver/Src/stm32h7xx_hal_nand.c ****   * @param  hnand pointer to a NAND_HandleTypeDef structure that contains
1321:./Libraries/STM32H7xx_HAL_Driver/Src/stm32h7xx_hal_nand.c ****   *                the configuration information for NAND module.
1322:./Libraries/STM32H7xx_HAL_Driver/Src/stm32h7xx_hal_nand.c ****   * @param  pAddress  pointer to NAND address structure
1323:./Libraries/STM32H7xx_HAL_Driver/Src/stm32h7xx_hal_nand.c ****   * @param  pBuffer pointer to source buffer to write. pBuffer should be 16bits aligned.
1324:./Libraries/STM32H7xx_HAL_Driver/Src/stm32h7xx_hal_nand.c ****   * @param  NumSpareAreaToRead Number of spare area to read
1325:./Libraries/STM32H7xx_HAL_Driver/Src/stm32h7xx_hal_nand.c ****   * @retval HAL status
1326:./Libraries/STM32H7xx_HAL_Driver/Src/stm32h7xx_hal_nand.c ****   */
1327:./Libraries/STM32H7xx_HAL_Driver/Src/stm32h7xx_hal_nand.c **** HAL_StatusTypeDef HAL_NAND_Read_SpareArea_16b(NAND_HandleTypeDef *hnand, NAND_AddressTypeDef *pAddr
1328:./Libraries/STM32H7xx_HAL_Driver/Src/stm32h7xx_hal_nand.c ****                                               uint16_t *pBuffer, uint32_t NumSpareAreaToRead)
1329:./Libraries/STM32H7xx_HAL_Driver/Src/stm32h7xx_hal_nand.c **** {
1330:./Libraries/STM32H7xx_HAL_Driver/Src/stm32h7xx_hal_nand.c ****   uint32_t index;
1331:./Libraries/STM32H7xx_HAL_Driver/Src/stm32h7xx_hal_nand.c ****   uint32_t tickstart;
1332:./Libraries/STM32H7xx_HAL_Driver/Src/stm32h7xx_hal_nand.c ****   uint32_t deviceaddress;
1333:./Libraries/STM32H7xx_HAL_Driver/Src/stm32h7xx_hal_nand.c ****   uint32_t numsparearearead = 0U;
1334:./Libraries/STM32H7xx_HAL_Driver/Src/stm32h7xx_hal_nand.c ****   uint32_t nandaddress;
1335:./Libraries/STM32H7xx_HAL_Driver/Src/stm32h7xx_hal_nand.c ****   uint32_t columnaddress;
1336:./Libraries/STM32H7xx_HAL_Driver/Src/stm32h7xx_hal_nand.c ****   uint32_t nbspare = NumSpareAreaToRead;
1337:./Libraries/STM32H7xx_HAL_Driver/Src/stm32h7xx_hal_nand.c ****   uint16_t *buff = pBuffer;
1338:./Libraries/STM32H7xx_HAL_Driver/Src/stm32h7xx_hal_nand.c **** 
1339:./Libraries/STM32H7xx_HAL_Driver/Src/stm32h7xx_hal_nand.c ****   /* Check the NAND controller state */
1340:./Libraries/STM32H7xx_HAL_Driver/Src/stm32h7xx_hal_nand.c ****   if (hnand->State == HAL_NAND_STATE_BUSY)
1341:./Libraries/STM32H7xx_HAL_Driver/Src/stm32h7xx_hal_nand.c ****   {
1342:./Libraries/STM32H7xx_HAL_Driver/Src/stm32h7xx_hal_nand.c ****     return HAL_BUSY;
1343:./Libraries/STM32H7xx_HAL_Driver/Src/stm32h7xx_hal_nand.c ****   }
1344:./Libraries/STM32H7xx_HAL_Driver/Src/stm32h7xx_hal_nand.c ****   else if (hnand->State == HAL_NAND_STATE_READY)
1345:./Libraries/STM32H7xx_HAL_Driver/Src/stm32h7xx_hal_nand.c ****   {
1346:./Libraries/STM32H7xx_HAL_Driver/Src/stm32h7xx_hal_nand.c ****     /* Process Locked */
1347:./Libraries/STM32H7xx_HAL_Driver/Src/stm32h7xx_hal_nand.c ****     __HAL_LOCK(hnand);
1348:./Libraries/STM32H7xx_HAL_Driver/Src/stm32h7xx_hal_nand.c **** 
1349:./Libraries/STM32H7xx_HAL_Driver/Src/stm32h7xx_hal_nand.c ****     /* Update the NAND controller state */
1350:./Libraries/STM32H7xx_HAL_Driver/Src/stm32h7xx_hal_nand.c ****     hnand->State = HAL_NAND_STATE_BUSY;
1351:./Libraries/STM32H7xx_HAL_Driver/Src/stm32h7xx_hal_nand.c **** 
1352:./Libraries/STM32H7xx_HAL_Driver/Src/stm32h7xx_hal_nand.c ****     /* Identify the device address */
1353:./Libraries/STM32H7xx_HAL_Driver/Src/stm32h7xx_hal_nand.c ****     deviceaddress = NAND_DEVICE;
1354:./Libraries/STM32H7xx_HAL_Driver/Src/stm32h7xx_hal_nand.c **** 
1355:./Libraries/STM32H7xx_HAL_Driver/Src/stm32h7xx_hal_nand.c ****     /* NAND raw address calculation */
1356:./Libraries/STM32H7xx_HAL_Driver/Src/stm32h7xx_hal_nand.c ****     nandaddress = ARRAY_ADDRESS(pAddress, hnand);
1357:./Libraries/STM32H7xx_HAL_Driver/Src/stm32h7xx_hal_nand.c **** 
1358:./Libraries/STM32H7xx_HAL_Driver/Src/stm32h7xx_hal_nand.c ****     /* Column in page address */
1359:./Libraries/STM32H7xx_HAL_Driver/Src/stm32h7xx_hal_nand.c ****     columnaddress = (uint32_t)(COLUMN_ADDRESS(hnand));
1360:./Libraries/STM32H7xx_HAL_Driver/Src/stm32h7xx_hal_nand.c **** 
1361:./Libraries/STM32H7xx_HAL_Driver/Src/stm32h7xx_hal_nand.c ****     /* Spare area(s) read loop */
1362:./Libraries/STM32H7xx_HAL_Driver/Src/stm32h7xx_hal_nand.c ****     while ((nbspare != 0U) && (nandaddress < ((hnand->Config.BlockSize) * (hnand->Config.BlockNbr))
1363:./Libraries/STM32H7xx_HAL_Driver/Src/stm32h7xx_hal_nand.c ****     {
1364:./Libraries/STM32H7xx_HAL_Driver/Src/stm32h7xx_hal_nand.c ****       /* Cards with page size <= 512 bytes */
1365:./Libraries/STM32H7xx_HAL_Driver/Src/stm32h7xx_hal_nand.c ****       if ((hnand->Config.PageSize) <= 512U)
1366:./Libraries/STM32H7xx_HAL_Driver/Src/stm32h7xx_hal_nand.c ****       {
1367:./Libraries/STM32H7xx_HAL_Driver/Src/stm32h7xx_hal_nand.c ****         /* Send read spare area command sequence */
1368:./Libraries/STM32H7xx_HAL_Driver/Src/stm32h7xx_hal_nand.c ****         *(__IO uint8_t *)((uint32_t)(deviceaddress | CMD_AREA)) = NAND_CMD_AREA_C;
ARM GAS  /tmp/cc5RRSLv.s 			page 66


1369:./Libraries/STM32H7xx_HAL_Driver/Src/stm32h7xx_hal_nand.c ****         __DSB();
1370:./Libraries/STM32H7xx_HAL_Driver/Src/stm32h7xx_hal_nand.c **** 
1371:./Libraries/STM32H7xx_HAL_Driver/Src/stm32h7xx_hal_nand.c ****         if (((hnand->Config.BlockSize) * (hnand->Config.BlockNbr)) <= 65535U)
1372:./Libraries/STM32H7xx_HAL_Driver/Src/stm32h7xx_hal_nand.c ****         {
1373:./Libraries/STM32H7xx_HAL_Driver/Src/stm32h7xx_hal_nand.c ****           *(__IO uint8_t *)((uint32_t)(deviceaddress | ADDR_AREA)) = 0x00U;
1374:./Libraries/STM32H7xx_HAL_Driver/Src/stm32h7xx_hal_nand.c ****           __DSB();
1375:./Libraries/STM32H7xx_HAL_Driver/Src/stm32h7xx_hal_nand.c ****           *(__IO uint8_t *)((uint32_t)(deviceaddress | ADDR_AREA)) = ADDR_1ST_CYCLE(nandaddress);
1376:./Libraries/STM32H7xx_HAL_Driver/Src/stm32h7xx_hal_nand.c ****           __DSB();
1377:./Libraries/STM32H7xx_HAL_Driver/Src/stm32h7xx_hal_nand.c ****           *(__IO uint8_t *)((uint32_t)(deviceaddress | ADDR_AREA)) = ADDR_2ND_CYCLE(nandaddress);
1378:./Libraries/STM32H7xx_HAL_Driver/Src/stm32h7xx_hal_nand.c ****           __DSB();
1379:./Libraries/STM32H7xx_HAL_Driver/Src/stm32h7xx_hal_nand.c ****         }
1380:./Libraries/STM32H7xx_HAL_Driver/Src/stm32h7xx_hal_nand.c ****         else /* ((hnand->Config.BlockSize)*(hnand->Config.BlockNbr)) > 65535 */
1381:./Libraries/STM32H7xx_HAL_Driver/Src/stm32h7xx_hal_nand.c ****         {
1382:./Libraries/STM32H7xx_HAL_Driver/Src/stm32h7xx_hal_nand.c ****           *(__IO uint8_t *)((uint32_t)(deviceaddress | ADDR_AREA)) = 0x00U;
1383:./Libraries/STM32H7xx_HAL_Driver/Src/stm32h7xx_hal_nand.c ****           __DSB();
1384:./Libraries/STM32H7xx_HAL_Driver/Src/stm32h7xx_hal_nand.c ****           *(__IO uint8_t *)((uint32_t)(deviceaddress | ADDR_AREA)) = ADDR_1ST_CYCLE(nandaddress);
1385:./Libraries/STM32H7xx_HAL_Driver/Src/stm32h7xx_hal_nand.c ****           __DSB();
1386:./Libraries/STM32H7xx_HAL_Driver/Src/stm32h7xx_hal_nand.c ****           *(__IO uint8_t *)((uint32_t)(deviceaddress | ADDR_AREA)) = ADDR_2ND_CYCLE(nandaddress);
1387:./Libraries/STM32H7xx_HAL_Driver/Src/stm32h7xx_hal_nand.c ****           __DSB();
1388:./Libraries/STM32H7xx_HAL_Driver/Src/stm32h7xx_hal_nand.c ****           *(__IO uint8_t *)((uint32_t)(deviceaddress | ADDR_AREA)) = ADDR_3RD_CYCLE(nandaddress);
1389:./Libraries/STM32H7xx_HAL_Driver/Src/stm32h7xx_hal_nand.c ****           __DSB();
1390:./Libraries/STM32H7xx_HAL_Driver/Src/stm32h7xx_hal_nand.c ****         }
1391:./Libraries/STM32H7xx_HAL_Driver/Src/stm32h7xx_hal_nand.c ****       }
1392:./Libraries/STM32H7xx_HAL_Driver/Src/stm32h7xx_hal_nand.c ****       else /* (hnand->Config.PageSize) > 512 */
1393:./Libraries/STM32H7xx_HAL_Driver/Src/stm32h7xx_hal_nand.c ****       {
1394:./Libraries/STM32H7xx_HAL_Driver/Src/stm32h7xx_hal_nand.c ****         /* Send read spare area command sequence */
1395:./Libraries/STM32H7xx_HAL_Driver/Src/stm32h7xx_hal_nand.c ****         *(__IO uint8_t *)((uint32_t)(deviceaddress | CMD_AREA)) = NAND_CMD_AREA_A;
1396:./Libraries/STM32H7xx_HAL_Driver/Src/stm32h7xx_hal_nand.c ****         __DSB();
1397:./Libraries/STM32H7xx_HAL_Driver/Src/stm32h7xx_hal_nand.c **** 
1398:./Libraries/STM32H7xx_HAL_Driver/Src/stm32h7xx_hal_nand.c ****         if (((hnand->Config.BlockSize) * (hnand->Config.BlockNbr)) <= 65535U)
1399:./Libraries/STM32H7xx_HAL_Driver/Src/stm32h7xx_hal_nand.c ****         {
1400:./Libraries/STM32H7xx_HAL_Driver/Src/stm32h7xx_hal_nand.c ****           *(__IO uint8_t *)((uint32_t)(deviceaddress | ADDR_AREA)) = COLUMN_1ST_CYCLE(columnaddress
1401:./Libraries/STM32H7xx_HAL_Driver/Src/stm32h7xx_hal_nand.c ****           __DSB();
1402:./Libraries/STM32H7xx_HAL_Driver/Src/stm32h7xx_hal_nand.c ****           *(__IO uint8_t *)((uint32_t)(deviceaddress | ADDR_AREA)) = COLUMN_2ND_CYCLE(columnaddress
1403:./Libraries/STM32H7xx_HAL_Driver/Src/stm32h7xx_hal_nand.c ****           __DSB();
1404:./Libraries/STM32H7xx_HAL_Driver/Src/stm32h7xx_hal_nand.c ****           *(__IO uint8_t *)((uint32_t)(deviceaddress | ADDR_AREA)) = ADDR_1ST_CYCLE(nandaddress);
1405:./Libraries/STM32H7xx_HAL_Driver/Src/stm32h7xx_hal_nand.c ****           __DSB();
1406:./Libraries/STM32H7xx_HAL_Driver/Src/stm32h7xx_hal_nand.c ****           *(__IO uint8_t *)((uint32_t)(deviceaddress | ADDR_AREA)) = ADDR_2ND_CYCLE(nandaddress);
1407:./Libraries/STM32H7xx_HAL_Driver/Src/stm32h7xx_hal_nand.c ****           __DSB();
1408:./Libraries/STM32H7xx_HAL_Driver/Src/stm32h7xx_hal_nand.c ****         }
1409:./Libraries/STM32H7xx_HAL_Driver/Src/stm32h7xx_hal_nand.c ****         else /* ((hnand->Config.BlockSize)*(hnand->Config.BlockNbr)) > 65535 */
1410:./Libraries/STM32H7xx_HAL_Driver/Src/stm32h7xx_hal_nand.c ****         {
1411:./Libraries/STM32H7xx_HAL_Driver/Src/stm32h7xx_hal_nand.c ****           *(__IO uint8_t *)((uint32_t)(deviceaddress | ADDR_AREA)) = COLUMN_1ST_CYCLE(columnaddress
1412:./Libraries/STM32H7xx_HAL_Driver/Src/stm32h7xx_hal_nand.c ****           __DSB();
1413:./Libraries/STM32H7xx_HAL_Driver/Src/stm32h7xx_hal_nand.c ****           *(__IO uint8_t *)((uint32_t)(deviceaddress | ADDR_AREA)) = COLUMN_2ND_CYCLE(columnaddress
1414:./Libraries/STM32H7xx_HAL_Driver/Src/stm32h7xx_hal_nand.c ****           __DSB();
1415:./Libraries/STM32H7xx_HAL_Driver/Src/stm32h7xx_hal_nand.c ****           *(__IO uint8_t *)((uint32_t)(deviceaddress | ADDR_AREA)) = ADDR_1ST_CYCLE(nandaddress);
1416:./Libraries/STM32H7xx_HAL_Driver/Src/stm32h7xx_hal_nand.c ****           __DSB();
1417:./Libraries/STM32H7xx_HAL_Driver/Src/stm32h7xx_hal_nand.c ****           *(__IO uint8_t *)((uint32_t)(deviceaddress | ADDR_AREA)) = ADDR_2ND_CYCLE(nandaddress);
1418:./Libraries/STM32H7xx_HAL_Driver/Src/stm32h7xx_hal_nand.c ****           __DSB();
1419:./Libraries/STM32H7xx_HAL_Driver/Src/stm32h7xx_hal_nand.c ****           *(__IO uint8_t *)((uint32_t)(deviceaddress | ADDR_AREA)) = ADDR_3RD_CYCLE(nandaddress);
1420:./Libraries/STM32H7xx_HAL_Driver/Src/stm32h7xx_hal_nand.c ****           __DSB();
1421:./Libraries/STM32H7xx_HAL_Driver/Src/stm32h7xx_hal_nand.c ****         }
1422:./Libraries/STM32H7xx_HAL_Driver/Src/stm32h7xx_hal_nand.c ****       }
1423:./Libraries/STM32H7xx_HAL_Driver/Src/stm32h7xx_hal_nand.c **** 
1424:./Libraries/STM32H7xx_HAL_Driver/Src/stm32h7xx_hal_nand.c ****       *(__IO uint8_t *)((uint32_t)(deviceaddress | CMD_AREA)) = NAND_CMD_AREA_TRUE1;
1425:./Libraries/STM32H7xx_HAL_Driver/Src/stm32h7xx_hal_nand.c ****       __DSB();
ARM GAS  /tmp/cc5RRSLv.s 			page 67


1426:./Libraries/STM32H7xx_HAL_Driver/Src/stm32h7xx_hal_nand.c **** 
1427:./Libraries/STM32H7xx_HAL_Driver/Src/stm32h7xx_hal_nand.c ****       if (hnand->Config.ExtraCommandEnable == ENABLE)
1428:./Libraries/STM32H7xx_HAL_Driver/Src/stm32h7xx_hal_nand.c ****       {
1429:./Libraries/STM32H7xx_HAL_Driver/Src/stm32h7xx_hal_nand.c ****         /* Get tick */
1430:./Libraries/STM32H7xx_HAL_Driver/Src/stm32h7xx_hal_nand.c ****         tickstart = HAL_GetTick();
1431:./Libraries/STM32H7xx_HAL_Driver/Src/stm32h7xx_hal_nand.c **** 
1432:./Libraries/STM32H7xx_HAL_Driver/Src/stm32h7xx_hal_nand.c ****         /* Read status until NAND is ready */
1433:./Libraries/STM32H7xx_HAL_Driver/Src/stm32h7xx_hal_nand.c ****         while (HAL_NAND_Read_Status(hnand) != NAND_READY)
1434:./Libraries/STM32H7xx_HAL_Driver/Src/stm32h7xx_hal_nand.c ****         {
1435:./Libraries/STM32H7xx_HAL_Driver/Src/stm32h7xx_hal_nand.c ****           if ((HAL_GetTick() - tickstart) > NAND_WRITE_TIMEOUT)
1436:./Libraries/STM32H7xx_HAL_Driver/Src/stm32h7xx_hal_nand.c ****           {
1437:./Libraries/STM32H7xx_HAL_Driver/Src/stm32h7xx_hal_nand.c ****             /* Update the NAND controller state */
1438:./Libraries/STM32H7xx_HAL_Driver/Src/stm32h7xx_hal_nand.c ****             hnand->State = HAL_NAND_STATE_ERROR;
1439:./Libraries/STM32H7xx_HAL_Driver/Src/stm32h7xx_hal_nand.c **** 
1440:./Libraries/STM32H7xx_HAL_Driver/Src/stm32h7xx_hal_nand.c ****             /* Process unlocked */
1441:./Libraries/STM32H7xx_HAL_Driver/Src/stm32h7xx_hal_nand.c ****             __HAL_UNLOCK(hnand);
1442:./Libraries/STM32H7xx_HAL_Driver/Src/stm32h7xx_hal_nand.c **** 
1443:./Libraries/STM32H7xx_HAL_Driver/Src/stm32h7xx_hal_nand.c ****             return HAL_TIMEOUT;
1444:./Libraries/STM32H7xx_HAL_Driver/Src/stm32h7xx_hal_nand.c ****           }
1445:./Libraries/STM32H7xx_HAL_Driver/Src/stm32h7xx_hal_nand.c ****         }
1446:./Libraries/STM32H7xx_HAL_Driver/Src/stm32h7xx_hal_nand.c **** 
1447:./Libraries/STM32H7xx_HAL_Driver/Src/stm32h7xx_hal_nand.c ****         /* Go back to read mode */
1448:./Libraries/STM32H7xx_HAL_Driver/Src/stm32h7xx_hal_nand.c ****         *(__IO uint8_t *)((uint32_t)(deviceaddress | CMD_AREA)) = ((uint8_t)0x00);
1449:./Libraries/STM32H7xx_HAL_Driver/Src/stm32h7xx_hal_nand.c ****         __DSB();
1450:./Libraries/STM32H7xx_HAL_Driver/Src/stm32h7xx_hal_nand.c ****       }
1451:./Libraries/STM32H7xx_HAL_Driver/Src/stm32h7xx_hal_nand.c **** 
1452:./Libraries/STM32H7xx_HAL_Driver/Src/stm32h7xx_hal_nand.c ****       /* Get Data into Buffer */
1453:./Libraries/STM32H7xx_HAL_Driver/Src/stm32h7xx_hal_nand.c ****       for (index = 0U; index < hnand->Config.SpareAreaSize; index++)
1454:./Libraries/STM32H7xx_HAL_Driver/Src/stm32h7xx_hal_nand.c ****       {
1455:./Libraries/STM32H7xx_HAL_Driver/Src/stm32h7xx_hal_nand.c ****         *buff = *(uint16_t *)deviceaddress;
1456:./Libraries/STM32H7xx_HAL_Driver/Src/stm32h7xx_hal_nand.c ****         buff++;
1457:./Libraries/STM32H7xx_HAL_Driver/Src/stm32h7xx_hal_nand.c ****       }
1458:./Libraries/STM32H7xx_HAL_Driver/Src/stm32h7xx_hal_nand.c **** 
1459:./Libraries/STM32H7xx_HAL_Driver/Src/stm32h7xx_hal_nand.c ****       /* Increment read spare areas number */
1460:./Libraries/STM32H7xx_HAL_Driver/Src/stm32h7xx_hal_nand.c ****       numsparearearead++;
1461:./Libraries/STM32H7xx_HAL_Driver/Src/stm32h7xx_hal_nand.c **** 
1462:./Libraries/STM32H7xx_HAL_Driver/Src/stm32h7xx_hal_nand.c ****       /* Decrement spare areas to read */
1463:./Libraries/STM32H7xx_HAL_Driver/Src/stm32h7xx_hal_nand.c ****       nbspare--;
1464:./Libraries/STM32H7xx_HAL_Driver/Src/stm32h7xx_hal_nand.c **** 
1465:./Libraries/STM32H7xx_HAL_Driver/Src/stm32h7xx_hal_nand.c ****       /* Increment the NAND address */
1466:./Libraries/STM32H7xx_HAL_Driver/Src/stm32h7xx_hal_nand.c ****       nandaddress = (uint32_t)(nandaddress + 1U);
1467:./Libraries/STM32H7xx_HAL_Driver/Src/stm32h7xx_hal_nand.c ****     }
1468:./Libraries/STM32H7xx_HAL_Driver/Src/stm32h7xx_hal_nand.c **** 
1469:./Libraries/STM32H7xx_HAL_Driver/Src/stm32h7xx_hal_nand.c ****     /* Update the NAND controller state */
1470:./Libraries/STM32H7xx_HAL_Driver/Src/stm32h7xx_hal_nand.c ****     hnand->State = HAL_NAND_STATE_READY;
1471:./Libraries/STM32H7xx_HAL_Driver/Src/stm32h7xx_hal_nand.c **** 
1472:./Libraries/STM32H7xx_HAL_Driver/Src/stm32h7xx_hal_nand.c ****     /* Process unlocked */
1473:./Libraries/STM32H7xx_HAL_Driver/Src/stm32h7xx_hal_nand.c ****     __HAL_UNLOCK(hnand);
1474:./Libraries/STM32H7xx_HAL_Driver/Src/stm32h7xx_hal_nand.c ****   }
1475:./Libraries/STM32H7xx_HAL_Driver/Src/stm32h7xx_hal_nand.c ****   else
1476:./Libraries/STM32H7xx_HAL_Driver/Src/stm32h7xx_hal_nand.c ****   {
1477:./Libraries/STM32H7xx_HAL_Driver/Src/stm32h7xx_hal_nand.c ****     return HAL_ERROR;
1478:./Libraries/STM32H7xx_HAL_Driver/Src/stm32h7xx_hal_nand.c ****   }
1479:./Libraries/STM32H7xx_HAL_Driver/Src/stm32h7xx_hal_nand.c **** 
1480:./Libraries/STM32H7xx_HAL_Driver/Src/stm32h7xx_hal_nand.c ****   return HAL_OK;
1481:./Libraries/STM32H7xx_HAL_Driver/Src/stm32h7xx_hal_nand.c **** }
1482:./Libraries/STM32H7xx_HAL_Driver/Src/stm32h7xx_hal_nand.c **** 
ARM GAS  /tmp/cc5RRSLv.s 			page 68


1483:./Libraries/STM32H7xx_HAL_Driver/Src/stm32h7xx_hal_nand.c **** /**
1484:./Libraries/STM32H7xx_HAL_Driver/Src/stm32h7xx_hal_nand.c ****   * @brief  Write Spare area(s) to NAND memory (8-bits addressing)
1485:./Libraries/STM32H7xx_HAL_Driver/Src/stm32h7xx_hal_nand.c ****   * @param  hnand pointer to a NAND_HandleTypeDef structure that contains
1486:./Libraries/STM32H7xx_HAL_Driver/Src/stm32h7xx_hal_nand.c ****   *                the configuration information for NAND module.
1487:./Libraries/STM32H7xx_HAL_Driver/Src/stm32h7xx_hal_nand.c ****   * @param  pAddress  pointer to NAND address structure
1488:./Libraries/STM32H7xx_HAL_Driver/Src/stm32h7xx_hal_nand.c ****   * @param  pBuffer  pointer to source buffer to write
1489:./Libraries/STM32H7xx_HAL_Driver/Src/stm32h7xx_hal_nand.c ****   * @param  NumSpareAreaTowrite   number of spare areas to write to block
1490:./Libraries/STM32H7xx_HAL_Driver/Src/stm32h7xx_hal_nand.c ****   * @retval HAL status
1491:./Libraries/STM32H7xx_HAL_Driver/Src/stm32h7xx_hal_nand.c ****   */
1492:./Libraries/STM32H7xx_HAL_Driver/Src/stm32h7xx_hal_nand.c **** HAL_StatusTypeDef HAL_NAND_Write_SpareArea_8b(NAND_HandleTypeDef *hnand, NAND_AddressTypeDef *pAddr
1493:./Libraries/STM32H7xx_HAL_Driver/Src/stm32h7xx_hal_nand.c ****                                               uint8_t *pBuffer, uint32_t NumSpareAreaTowrite)
1494:./Libraries/STM32H7xx_HAL_Driver/Src/stm32h7xx_hal_nand.c **** {
1495:./Libraries/STM32H7xx_HAL_Driver/Src/stm32h7xx_hal_nand.c ****   uint32_t index;
1496:./Libraries/STM32H7xx_HAL_Driver/Src/stm32h7xx_hal_nand.c ****   uint32_t tickstart;
1497:./Libraries/STM32H7xx_HAL_Driver/Src/stm32h7xx_hal_nand.c ****   uint32_t deviceaddress;
1498:./Libraries/STM32H7xx_HAL_Driver/Src/stm32h7xx_hal_nand.c ****   uint32_t numspareareawritten = 0U;
1499:./Libraries/STM32H7xx_HAL_Driver/Src/stm32h7xx_hal_nand.c ****   uint32_t nandaddress;
1500:./Libraries/STM32H7xx_HAL_Driver/Src/stm32h7xx_hal_nand.c ****   uint32_t columnaddress;
1501:./Libraries/STM32H7xx_HAL_Driver/Src/stm32h7xx_hal_nand.c ****   uint32_t nbspare = NumSpareAreaTowrite;
1502:./Libraries/STM32H7xx_HAL_Driver/Src/stm32h7xx_hal_nand.c ****   uint8_t *buff = pBuffer;
1503:./Libraries/STM32H7xx_HAL_Driver/Src/stm32h7xx_hal_nand.c **** 
1504:./Libraries/STM32H7xx_HAL_Driver/Src/stm32h7xx_hal_nand.c ****   /* Check the NAND controller state */
1505:./Libraries/STM32H7xx_HAL_Driver/Src/stm32h7xx_hal_nand.c ****   if (hnand->State == HAL_NAND_STATE_BUSY)
1506:./Libraries/STM32H7xx_HAL_Driver/Src/stm32h7xx_hal_nand.c ****   {
1507:./Libraries/STM32H7xx_HAL_Driver/Src/stm32h7xx_hal_nand.c ****     return HAL_BUSY;
1508:./Libraries/STM32H7xx_HAL_Driver/Src/stm32h7xx_hal_nand.c ****   }
1509:./Libraries/STM32H7xx_HAL_Driver/Src/stm32h7xx_hal_nand.c ****   else if (hnand->State == HAL_NAND_STATE_READY)
1510:./Libraries/STM32H7xx_HAL_Driver/Src/stm32h7xx_hal_nand.c ****   {
1511:./Libraries/STM32H7xx_HAL_Driver/Src/stm32h7xx_hal_nand.c ****     /* Process Locked */
1512:./Libraries/STM32H7xx_HAL_Driver/Src/stm32h7xx_hal_nand.c ****     __HAL_LOCK(hnand);
1513:./Libraries/STM32H7xx_HAL_Driver/Src/stm32h7xx_hal_nand.c **** 
1514:./Libraries/STM32H7xx_HAL_Driver/Src/stm32h7xx_hal_nand.c ****     /* Update the NAND controller state */
1515:./Libraries/STM32H7xx_HAL_Driver/Src/stm32h7xx_hal_nand.c ****     hnand->State = HAL_NAND_STATE_BUSY;
1516:./Libraries/STM32H7xx_HAL_Driver/Src/stm32h7xx_hal_nand.c **** 
1517:./Libraries/STM32H7xx_HAL_Driver/Src/stm32h7xx_hal_nand.c ****     /* Identify the device address */
1518:./Libraries/STM32H7xx_HAL_Driver/Src/stm32h7xx_hal_nand.c ****     deviceaddress = NAND_DEVICE;
1519:./Libraries/STM32H7xx_HAL_Driver/Src/stm32h7xx_hal_nand.c **** 
1520:./Libraries/STM32H7xx_HAL_Driver/Src/stm32h7xx_hal_nand.c ****     /* Page address calculation */
1521:./Libraries/STM32H7xx_HAL_Driver/Src/stm32h7xx_hal_nand.c ****     nandaddress = ARRAY_ADDRESS(pAddress, hnand);
1522:./Libraries/STM32H7xx_HAL_Driver/Src/stm32h7xx_hal_nand.c **** 
1523:./Libraries/STM32H7xx_HAL_Driver/Src/stm32h7xx_hal_nand.c ****     /* Column in page address */
1524:./Libraries/STM32H7xx_HAL_Driver/Src/stm32h7xx_hal_nand.c ****     columnaddress = COLUMN_ADDRESS(hnand);
1525:./Libraries/STM32H7xx_HAL_Driver/Src/stm32h7xx_hal_nand.c **** 
1526:./Libraries/STM32H7xx_HAL_Driver/Src/stm32h7xx_hal_nand.c ****     /* Spare area(s) write loop */
1527:./Libraries/STM32H7xx_HAL_Driver/Src/stm32h7xx_hal_nand.c ****     while ((nbspare != 0U) && (nandaddress < ((hnand->Config.BlockSize) * (hnand->Config.BlockNbr))
1528:./Libraries/STM32H7xx_HAL_Driver/Src/stm32h7xx_hal_nand.c ****     {
1529:./Libraries/STM32H7xx_HAL_Driver/Src/stm32h7xx_hal_nand.c ****       /* Cards with page size <= 512 bytes */
1530:./Libraries/STM32H7xx_HAL_Driver/Src/stm32h7xx_hal_nand.c ****       if ((hnand->Config.PageSize) <= 512U)
1531:./Libraries/STM32H7xx_HAL_Driver/Src/stm32h7xx_hal_nand.c ****       {
1532:./Libraries/STM32H7xx_HAL_Driver/Src/stm32h7xx_hal_nand.c ****         /* Send write Spare area command sequence */
1533:./Libraries/STM32H7xx_HAL_Driver/Src/stm32h7xx_hal_nand.c ****         *(__IO uint8_t *)((uint32_t)(deviceaddress | CMD_AREA)) = NAND_CMD_AREA_C;
1534:./Libraries/STM32H7xx_HAL_Driver/Src/stm32h7xx_hal_nand.c ****         __DSB();
1535:./Libraries/STM32H7xx_HAL_Driver/Src/stm32h7xx_hal_nand.c ****         *(__IO uint8_t *)((uint32_t)(deviceaddress | CMD_AREA)) = NAND_CMD_WRITE0;
1536:./Libraries/STM32H7xx_HAL_Driver/Src/stm32h7xx_hal_nand.c ****         __DSB();
1537:./Libraries/STM32H7xx_HAL_Driver/Src/stm32h7xx_hal_nand.c **** 
1538:./Libraries/STM32H7xx_HAL_Driver/Src/stm32h7xx_hal_nand.c ****         if (((hnand->Config.BlockSize) * (hnand->Config.BlockNbr)) <= 65535U)
1539:./Libraries/STM32H7xx_HAL_Driver/Src/stm32h7xx_hal_nand.c ****         {
ARM GAS  /tmp/cc5RRSLv.s 			page 69


1540:./Libraries/STM32H7xx_HAL_Driver/Src/stm32h7xx_hal_nand.c ****           *(__IO uint8_t *)((uint32_t)(deviceaddress | ADDR_AREA)) = 0x00U;
1541:./Libraries/STM32H7xx_HAL_Driver/Src/stm32h7xx_hal_nand.c ****           __DSB();
1542:./Libraries/STM32H7xx_HAL_Driver/Src/stm32h7xx_hal_nand.c ****           *(__IO uint8_t *)((uint32_t)(deviceaddress | ADDR_AREA)) = ADDR_1ST_CYCLE(nandaddress);
1543:./Libraries/STM32H7xx_HAL_Driver/Src/stm32h7xx_hal_nand.c ****           __DSB();
1544:./Libraries/STM32H7xx_HAL_Driver/Src/stm32h7xx_hal_nand.c ****           *(__IO uint8_t *)((uint32_t)(deviceaddress | ADDR_AREA)) = ADDR_2ND_CYCLE(nandaddress);
1545:./Libraries/STM32H7xx_HAL_Driver/Src/stm32h7xx_hal_nand.c ****           __DSB();
1546:./Libraries/STM32H7xx_HAL_Driver/Src/stm32h7xx_hal_nand.c ****         }
1547:./Libraries/STM32H7xx_HAL_Driver/Src/stm32h7xx_hal_nand.c ****         else /* ((hnand->Config.BlockSize)*(hnand->Config.BlockNbr)) > 65535 */
1548:./Libraries/STM32H7xx_HAL_Driver/Src/stm32h7xx_hal_nand.c ****         {
1549:./Libraries/STM32H7xx_HAL_Driver/Src/stm32h7xx_hal_nand.c ****           *(__IO uint8_t *)((uint32_t)(deviceaddress | ADDR_AREA)) = 0x00U;
1550:./Libraries/STM32H7xx_HAL_Driver/Src/stm32h7xx_hal_nand.c ****           __DSB();
1551:./Libraries/STM32H7xx_HAL_Driver/Src/stm32h7xx_hal_nand.c ****           *(__IO uint8_t *)((uint32_t)(deviceaddress | ADDR_AREA)) = ADDR_1ST_CYCLE(nandaddress);
1552:./Libraries/STM32H7xx_HAL_Driver/Src/stm32h7xx_hal_nand.c ****           __DSB();
1553:./Libraries/STM32H7xx_HAL_Driver/Src/stm32h7xx_hal_nand.c ****           *(__IO uint8_t *)((uint32_t)(deviceaddress | ADDR_AREA)) = ADDR_2ND_CYCLE(nandaddress);
1554:./Libraries/STM32H7xx_HAL_Driver/Src/stm32h7xx_hal_nand.c ****           __DSB();
1555:./Libraries/STM32H7xx_HAL_Driver/Src/stm32h7xx_hal_nand.c ****           *(__IO uint8_t *)((uint32_t)(deviceaddress | ADDR_AREA)) = ADDR_3RD_CYCLE(nandaddress);
1556:./Libraries/STM32H7xx_HAL_Driver/Src/stm32h7xx_hal_nand.c ****           __DSB();
1557:./Libraries/STM32H7xx_HAL_Driver/Src/stm32h7xx_hal_nand.c ****         }
1558:./Libraries/STM32H7xx_HAL_Driver/Src/stm32h7xx_hal_nand.c ****       }
1559:./Libraries/STM32H7xx_HAL_Driver/Src/stm32h7xx_hal_nand.c ****       else /* (hnand->Config.PageSize) > 512 */
1560:./Libraries/STM32H7xx_HAL_Driver/Src/stm32h7xx_hal_nand.c ****       {
1561:./Libraries/STM32H7xx_HAL_Driver/Src/stm32h7xx_hal_nand.c ****         /* Send write Spare area command sequence */
1562:./Libraries/STM32H7xx_HAL_Driver/Src/stm32h7xx_hal_nand.c ****         *(__IO uint8_t *)((uint32_t)(deviceaddress | CMD_AREA)) = NAND_CMD_AREA_A;
1563:./Libraries/STM32H7xx_HAL_Driver/Src/stm32h7xx_hal_nand.c ****         __DSB();
1564:./Libraries/STM32H7xx_HAL_Driver/Src/stm32h7xx_hal_nand.c ****         *(__IO uint8_t *)((uint32_t)(deviceaddress | CMD_AREA)) = NAND_CMD_WRITE0;
1565:./Libraries/STM32H7xx_HAL_Driver/Src/stm32h7xx_hal_nand.c ****         __DSB();
1566:./Libraries/STM32H7xx_HAL_Driver/Src/stm32h7xx_hal_nand.c **** 
1567:./Libraries/STM32H7xx_HAL_Driver/Src/stm32h7xx_hal_nand.c ****         if (((hnand->Config.BlockSize) * (hnand->Config.BlockNbr)) <= 65535U)
1568:./Libraries/STM32H7xx_HAL_Driver/Src/stm32h7xx_hal_nand.c ****         {
1569:./Libraries/STM32H7xx_HAL_Driver/Src/stm32h7xx_hal_nand.c ****           *(__IO uint8_t *)((uint32_t)(deviceaddress | ADDR_AREA)) = COLUMN_1ST_CYCLE(columnaddress
1570:./Libraries/STM32H7xx_HAL_Driver/Src/stm32h7xx_hal_nand.c ****           __DSB();
1571:./Libraries/STM32H7xx_HAL_Driver/Src/stm32h7xx_hal_nand.c ****           *(__IO uint8_t *)((uint32_t)(deviceaddress | ADDR_AREA)) = COLUMN_2ND_CYCLE(columnaddress
1572:./Libraries/STM32H7xx_HAL_Driver/Src/stm32h7xx_hal_nand.c ****           __DSB();
1573:./Libraries/STM32H7xx_HAL_Driver/Src/stm32h7xx_hal_nand.c ****           *(__IO uint8_t *)((uint32_t)(deviceaddress | ADDR_AREA)) = ADDR_1ST_CYCLE(nandaddress);
1574:./Libraries/STM32H7xx_HAL_Driver/Src/stm32h7xx_hal_nand.c ****           __DSB();
1575:./Libraries/STM32H7xx_HAL_Driver/Src/stm32h7xx_hal_nand.c ****           *(__IO uint8_t *)((uint32_t)(deviceaddress | ADDR_AREA)) = ADDR_2ND_CYCLE(nandaddress);
1576:./Libraries/STM32H7xx_HAL_Driver/Src/stm32h7xx_hal_nand.c ****           __DSB();
1577:./Libraries/STM32H7xx_HAL_Driver/Src/stm32h7xx_hal_nand.c ****         }
1578:./Libraries/STM32H7xx_HAL_Driver/Src/stm32h7xx_hal_nand.c ****         else /* ((hnand->Config.BlockSize)*(hnand->Config.BlockNbr)) > 65535 */
1579:./Libraries/STM32H7xx_HAL_Driver/Src/stm32h7xx_hal_nand.c ****         {
1580:./Libraries/STM32H7xx_HAL_Driver/Src/stm32h7xx_hal_nand.c ****           *(__IO uint8_t *)((uint32_t)(deviceaddress | ADDR_AREA)) = COLUMN_1ST_CYCLE(columnaddress
1581:./Libraries/STM32H7xx_HAL_Driver/Src/stm32h7xx_hal_nand.c ****           __DSB();
1582:./Libraries/STM32H7xx_HAL_Driver/Src/stm32h7xx_hal_nand.c ****           *(__IO uint8_t *)((uint32_t)(deviceaddress | ADDR_AREA)) = COLUMN_2ND_CYCLE(columnaddress
1583:./Libraries/STM32H7xx_HAL_Driver/Src/stm32h7xx_hal_nand.c ****           __DSB();
1584:./Libraries/STM32H7xx_HAL_Driver/Src/stm32h7xx_hal_nand.c ****           *(__IO uint8_t *)((uint32_t)(deviceaddress | ADDR_AREA)) = ADDR_1ST_CYCLE(nandaddress);
1585:./Libraries/STM32H7xx_HAL_Driver/Src/stm32h7xx_hal_nand.c ****           __DSB();
1586:./Libraries/STM32H7xx_HAL_Driver/Src/stm32h7xx_hal_nand.c ****           *(__IO uint8_t *)((uint32_t)(deviceaddress | ADDR_AREA)) = ADDR_2ND_CYCLE(nandaddress);
1587:./Libraries/STM32H7xx_HAL_Driver/Src/stm32h7xx_hal_nand.c ****           __DSB();
1588:./Libraries/STM32H7xx_HAL_Driver/Src/stm32h7xx_hal_nand.c ****           *(__IO uint8_t *)((uint32_t)(deviceaddress | ADDR_AREA)) = ADDR_3RD_CYCLE(nandaddress);
1589:./Libraries/STM32H7xx_HAL_Driver/Src/stm32h7xx_hal_nand.c ****           __DSB();
1590:./Libraries/STM32H7xx_HAL_Driver/Src/stm32h7xx_hal_nand.c ****         }
1591:./Libraries/STM32H7xx_HAL_Driver/Src/stm32h7xx_hal_nand.c ****       }
1592:./Libraries/STM32H7xx_HAL_Driver/Src/stm32h7xx_hal_nand.c **** 
1593:./Libraries/STM32H7xx_HAL_Driver/Src/stm32h7xx_hal_nand.c ****       /* Write data to memory */
1594:./Libraries/STM32H7xx_HAL_Driver/Src/stm32h7xx_hal_nand.c ****       for (index = 0U; index < hnand->Config.SpareAreaSize; index++)
1595:./Libraries/STM32H7xx_HAL_Driver/Src/stm32h7xx_hal_nand.c ****       {
1596:./Libraries/STM32H7xx_HAL_Driver/Src/stm32h7xx_hal_nand.c ****         *(__IO uint8_t *)deviceaddress = *buff;
ARM GAS  /tmp/cc5RRSLv.s 			page 70


1597:./Libraries/STM32H7xx_HAL_Driver/Src/stm32h7xx_hal_nand.c ****         buff++;
1598:./Libraries/STM32H7xx_HAL_Driver/Src/stm32h7xx_hal_nand.c ****         __DSB();
1599:./Libraries/STM32H7xx_HAL_Driver/Src/stm32h7xx_hal_nand.c ****       }
1600:./Libraries/STM32H7xx_HAL_Driver/Src/stm32h7xx_hal_nand.c **** 
1601:./Libraries/STM32H7xx_HAL_Driver/Src/stm32h7xx_hal_nand.c ****       *(__IO uint8_t *)((uint32_t)(deviceaddress | CMD_AREA)) = NAND_CMD_WRITE_TRUE1;
1602:./Libraries/STM32H7xx_HAL_Driver/Src/stm32h7xx_hal_nand.c ****       __DSB();
1603:./Libraries/STM32H7xx_HAL_Driver/Src/stm32h7xx_hal_nand.c **** 
1604:./Libraries/STM32H7xx_HAL_Driver/Src/stm32h7xx_hal_nand.c ****       /* Get tick */
1605:./Libraries/STM32H7xx_HAL_Driver/Src/stm32h7xx_hal_nand.c ****       tickstart = HAL_GetTick();
1606:./Libraries/STM32H7xx_HAL_Driver/Src/stm32h7xx_hal_nand.c **** 
1607:./Libraries/STM32H7xx_HAL_Driver/Src/stm32h7xx_hal_nand.c ****       /* Read status until NAND is ready */
1608:./Libraries/STM32H7xx_HAL_Driver/Src/stm32h7xx_hal_nand.c ****       while (HAL_NAND_Read_Status(hnand) != NAND_READY)
1609:./Libraries/STM32H7xx_HAL_Driver/Src/stm32h7xx_hal_nand.c ****       {
1610:./Libraries/STM32H7xx_HAL_Driver/Src/stm32h7xx_hal_nand.c ****         if ((HAL_GetTick() - tickstart) > NAND_WRITE_TIMEOUT)
1611:./Libraries/STM32H7xx_HAL_Driver/Src/stm32h7xx_hal_nand.c ****         {
1612:./Libraries/STM32H7xx_HAL_Driver/Src/stm32h7xx_hal_nand.c ****           /* Update the NAND controller state */
1613:./Libraries/STM32H7xx_HAL_Driver/Src/stm32h7xx_hal_nand.c ****           hnand->State = HAL_NAND_STATE_ERROR;
1614:./Libraries/STM32H7xx_HAL_Driver/Src/stm32h7xx_hal_nand.c **** 
1615:./Libraries/STM32H7xx_HAL_Driver/Src/stm32h7xx_hal_nand.c ****           /* Process unlocked */
1616:./Libraries/STM32H7xx_HAL_Driver/Src/stm32h7xx_hal_nand.c ****           __HAL_UNLOCK(hnand);
1617:./Libraries/STM32H7xx_HAL_Driver/Src/stm32h7xx_hal_nand.c **** 
1618:./Libraries/STM32H7xx_HAL_Driver/Src/stm32h7xx_hal_nand.c ****           return HAL_TIMEOUT;
1619:./Libraries/STM32H7xx_HAL_Driver/Src/stm32h7xx_hal_nand.c ****         }
1620:./Libraries/STM32H7xx_HAL_Driver/Src/stm32h7xx_hal_nand.c ****       }
1621:./Libraries/STM32H7xx_HAL_Driver/Src/stm32h7xx_hal_nand.c **** 
1622:./Libraries/STM32H7xx_HAL_Driver/Src/stm32h7xx_hal_nand.c ****       /* Increment written spare areas number */
1623:./Libraries/STM32H7xx_HAL_Driver/Src/stm32h7xx_hal_nand.c ****       numspareareawritten++;
1624:./Libraries/STM32H7xx_HAL_Driver/Src/stm32h7xx_hal_nand.c **** 
1625:./Libraries/STM32H7xx_HAL_Driver/Src/stm32h7xx_hal_nand.c ****       /* Decrement spare areas to write */
1626:./Libraries/STM32H7xx_HAL_Driver/Src/stm32h7xx_hal_nand.c ****       nbspare--;
1627:./Libraries/STM32H7xx_HAL_Driver/Src/stm32h7xx_hal_nand.c **** 
1628:./Libraries/STM32H7xx_HAL_Driver/Src/stm32h7xx_hal_nand.c ****       /* Increment the NAND address */
1629:./Libraries/STM32H7xx_HAL_Driver/Src/stm32h7xx_hal_nand.c ****       nandaddress = (uint32_t)(nandaddress + 1U);
1630:./Libraries/STM32H7xx_HAL_Driver/Src/stm32h7xx_hal_nand.c ****     }
1631:./Libraries/STM32H7xx_HAL_Driver/Src/stm32h7xx_hal_nand.c **** 
1632:./Libraries/STM32H7xx_HAL_Driver/Src/stm32h7xx_hal_nand.c ****     /* Update the NAND controller state */
1633:./Libraries/STM32H7xx_HAL_Driver/Src/stm32h7xx_hal_nand.c ****     hnand->State = HAL_NAND_STATE_READY;
1634:./Libraries/STM32H7xx_HAL_Driver/Src/stm32h7xx_hal_nand.c **** 
1635:./Libraries/STM32H7xx_HAL_Driver/Src/stm32h7xx_hal_nand.c ****     /* Process unlocked */
1636:./Libraries/STM32H7xx_HAL_Driver/Src/stm32h7xx_hal_nand.c ****     __HAL_UNLOCK(hnand);
1637:./Libraries/STM32H7xx_HAL_Driver/Src/stm32h7xx_hal_nand.c ****   }
1638:./Libraries/STM32H7xx_HAL_Driver/Src/stm32h7xx_hal_nand.c ****   else
1639:./Libraries/STM32H7xx_HAL_Driver/Src/stm32h7xx_hal_nand.c ****   {
1640:./Libraries/STM32H7xx_HAL_Driver/Src/stm32h7xx_hal_nand.c ****     return HAL_ERROR;
1641:./Libraries/STM32H7xx_HAL_Driver/Src/stm32h7xx_hal_nand.c ****   }
1642:./Libraries/STM32H7xx_HAL_Driver/Src/stm32h7xx_hal_nand.c **** 
1643:./Libraries/STM32H7xx_HAL_Driver/Src/stm32h7xx_hal_nand.c ****   return HAL_OK;
1644:./Libraries/STM32H7xx_HAL_Driver/Src/stm32h7xx_hal_nand.c **** }
1645:./Libraries/STM32H7xx_HAL_Driver/Src/stm32h7xx_hal_nand.c **** 
1646:./Libraries/STM32H7xx_HAL_Driver/Src/stm32h7xx_hal_nand.c **** /**
1647:./Libraries/STM32H7xx_HAL_Driver/Src/stm32h7xx_hal_nand.c ****   * @brief  Write Spare area(s) to NAND memory (16-bits addressing)
1648:./Libraries/STM32H7xx_HAL_Driver/Src/stm32h7xx_hal_nand.c ****   * @param  hnand pointer to a NAND_HandleTypeDef structure that contains
1649:./Libraries/STM32H7xx_HAL_Driver/Src/stm32h7xx_hal_nand.c ****   *                the configuration information for NAND module.
1650:./Libraries/STM32H7xx_HAL_Driver/Src/stm32h7xx_hal_nand.c ****   * @param  pAddress  pointer to NAND address structure
1651:./Libraries/STM32H7xx_HAL_Driver/Src/stm32h7xx_hal_nand.c ****   * @param  pBuffer  pointer to source buffer to write. pBuffer should be 16bits aligned.
1652:./Libraries/STM32H7xx_HAL_Driver/Src/stm32h7xx_hal_nand.c ****   * @param  NumSpareAreaTowrite   number of spare areas to write to block
1653:./Libraries/STM32H7xx_HAL_Driver/Src/stm32h7xx_hal_nand.c ****   * @retval HAL status
ARM GAS  /tmp/cc5RRSLv.s 			page 71


1654:./Libraries/STM32H7xx_HAL_Driver/Src/stm32h7xx_hal_nand.c ****   */
1655:./Libraries/STM32H7xx_HAL_Driver/Src/stm32h7xx_hal_nand.c **** HAL_StatusTypeDef HAL_NAND_Write_SpareArea_16b(NAND_HandleTypeDef *hnand, NAND_AddressTypeDef *pAdd
1656:./Libraries/STM32H7xx_HAL_Driver/Src/stm32h7xx_hal_nand.c ****                                                uint16_t *pBuffer, uint32_t NumSpareAreaTowrite)
1657:./Libraries/STM32H7xx_HAL_Driver/Src/stm32h7xx_hal_nand.c **** {
1658:./Libraries/STM32H7xx_HAL_Driver/Src/stm32h7xx_hal_nand.c ****   uint32_t index;
1659:./Libraries/STM32H7xx_HAL_Driver/Src/stm32h7xx_hal_nand.c ****   uint32_t tickstart;
1660:./Libraries/STM32H7xx_HAL_Driver/Src/stm32h7xx_hal_nand.c ****   uint32_t deviceaddress;
1661:./Libraries/STM32H7xx_HAL_Driver/Src/stm32h7xx_hal_nand.c ****   uint32_t numspareareawritten = 0U;
1662:./Libraries/STM32H7xx_HAL_Driver/Src/stm32h7xx_hal_nand.c ****   uint32_t nandaddress;
1663:./Libraries/STM32H7xx_HAL_Driver/Src/stm32h7xx_hal_nand.c ****   uint32_t columnaddress;
1664:./Libraries/STM32H7xx_HAL_Driver/Src/stm32h7xx_hal_nand.c ****   uint32_t nbspare = NumSpareAreaTowrite;
1665:./Libraries/STM32H7xx_HAL_Driver/Src/stm32h7xx_hal_nand.c ****   uint16_t *buff = pBuffer;
1666:./Libraries/STM32H7xx_HAL_Driver/Src/stm32h7xx_hal_nand.c **** 
1667:./Libraries/STM32H7xx_HAL_Driver/Src/stm32h7xx_hal_nand.c ****   /* Check the NAND controller state */
1668:./Libraries/STM32H7xx_HAL_Driver/Src/stm32h7xx_hal_nand.c ****   if (hnand->State == HAL_NAND_STATE_BUSY)
1669:./Libraries/STM32H7xx_HAL_Driver/Src/stm32h7xx_hal_nand.c ****   {
1670:./Libraries/STM32H7xx_HAL_Driver/Src/stm32h7xx_hal_nand.c ****     return HAL_BUSY;
1671:./Libraries/STM32H7xx_HAL_Driver/Src/stm32h7xx_hal_nand.c ****   }
1672:./Libraries/STM32H7xx_HAL_Driver/Src/stm32h7xx_hal_nand.c ****   else if (hnand->State == HAL_NAND_STATE_READY)
1673:./Libraries/STM32H7xx_HAL_Driver/Src/stm32h7xx_hal_nand.c ****   {
1674:./Libraries/STM32H7xx_HAL_Driver/Src/stm32h7xx_hal_nand.c ****     /* Process Locked */
1675:./Libraries/STM32H7xx_HAL_Driver/Src/stm32h7xx_hal_nand.c ****     __HAL_LOCK(hnand);
1676:./Libraries/STM32H7xx_HAL_Driver/Src/stm32h7xx_hal_nand.c **** 
1677:./Libraries/STM32H7xx_HAL_Driver/Src/stm32h7xx_hal_nand.c ****     /* Update the NAND controller state */
1678:./Libraries/STM32H7xx_HAL_Driver/Src/stm32h7xx_hal_nand.c ****     hnand->State = HAL_NAND_STATE_BUSY;
1679:./Libraries/STM32H7xx_HAL_Driver/Src/stm32h7xx_hal_nand.c **** 
1680:./Libraries/STM32H7xx_HAL_Driver/Src/stm32h7xx_hal_nand.c ****     /* Identify the device address */
1681:./Libraries/STM32H7xx_HAL_Driver/Src/stm32h7xx_hal_nand.c ****     deviceaddress = NAND_DEVICE;
1682:./Libraries/STM32H7xx_HAL_Driver/Src/stm32h7xx_hal_nand.c **** 
1683:./Libraries/STM32H7xx_HAL_Driver/Src/stm32h7xx_hal_nand.c ****     /* NAND raw address calculation */
1684:./Libraries/STM32H7xx_HAL_Driver/Src/stm32h7xx_hal_nand.c ****     nandaddress = ARRAY_ADDRESS(pAddress, hnand);
1685:./Libraries/STM32H7xx_HAL_Driver/Src/stm32h7xx_hal_nand.c **** 
1686:./Libraries/STM32H7xx_HAL_Driver/Src/stm32h7xx_hal_nand.c ****     /* Column in page address */
1687:./Libraries/STM32H7xx_HAL_Driver/Src/stm32h7xx_hal_nand.c ****     columnaddress = (uint32_t)(COLUMN_ADDRESS(hnand));
1688:./Libraries/STM32H7xx_HAL_Driver/Src/stm32h7xx_hal_nand.c **** 
1689:./Libraries/STM32H7xx_HAL_Driver/Src/stm32h7xx_hal_nand.c ****     /* Spare area(s) write loop */
1690:./Libraries/STM32H7xx_HAL_Driver/Src/stm32h7xx_hal_nand.c ****     while ((nbspare != 0U) && (nandaddress < ((hnand->Config.BlockSize) * (hnand->Config.BlockNbr))
1691:./Libraries/STM32H7xx_HAL_Driver/Src/stm32h7xx_hal_nand.c ****     {
1692:./Libraries/STM32H7xx_HAL_Driver/Src/stm32h7xx_hal_nand.c ****       /* Cards with page size <= 512 bytes */
1693:./Libraries/STM32H7xx_HAL_Driver/Src/stm32h7xx_hal_nand.c ****       if ((hnand->Config.PageSize) <= 512U)
1694:./Libraries/STM32H7xx_HAL_Driver/Src/stm32h7xx_hal_nand.c ****       {
1695:./Libraries/STM32H7xx_HAL_Driver/Src/stm32h7xx_hal_nand.c ****         /* Send write Spare area command sequence */
1696:./Libraries/STM32H7xx_HAL_Driver/Src/stm32h7xx_hal_nand.c ****         *(__IO uint8_t *)((uint32_t)(deviceaddress | CMD_AREA)) = NAND_CMD_AREA_C;
1697:./Libraries/STM32H7xx_HAL_Driver/Src/stm32h7xx_hal_nand.c ****         __DSB();
1698:./Libraries/STM32H7xx_HAL_Driver/Src/stm32h7xx_hal_nand.c ****         *(__IO uint8_t *)((uint32_t)(deviceaddress | CMD_AREA)) = NAND_CMD_WRITE0;
1699:./Libraries/STM32H7xx_HAL_Driver/Src/stm32h7xx_hal_nand.c ****         __DSB();
1700:./Libraries/STM32H7xx_HAL_Driver/Src/stm32h7xx_hal_nand.c **** 
1701:./Libraries/STM32H7xx_HAL_Driver/Src/stm32h7xx_hal_nand.c ****         if (((hnand->Config.BlockSize) * (hnand->Config.BlockNbr)) <= 65535U)
1702:./Libraries/STM32H7xx_HAL_Driver/Src/stm32h7xx_hal_nand.c ****         {
1703:./Libraries/STM32H7xx_HAL_Driver/Src/stm32h7xx_hal_nand.c ****           *(__IO uint8_t *)((uint32_t)(deviceaddress | ADDR_AREA)) = 0x00U;
1704:./Libraries/STM32H7xx_HAL_Driver/Src/stm32h7xx_hal_nand.c ****           __DSB();
1705:./Libraries/STM32H7xx_HAL_Driver/Src/stm32h7xx_hal_nand.c ****           *(__IO uint8_t *)((uint32_t)(deviceaddress | ADDR_AREA)) = ADDR_1ST_CYCLE(nandaddress);
1706:./Libraries/STM32H7xx_HAL_Driver/Src/stm32h7xx_hal_nand.c ****           __DSB();
1707:./Libraries/STM32H7xx_HAL_Driver/Src/stm32h7xx_hal_nand.c ****           *(__IO uint8_t *)((uint32_t)(deviceaddress | ADDR_AREA)) = ADDR_2ND_CYCLE(nandaddress);
1708:./Libraries/STM32H7xx_HAL_Driver/Src/stm32h7xx_hal_nand.c ****           __DSB();
1709:./Libraries/STM32H7xx_HAL_Driver/Src/stm32h7xx_hal_nand.c ****         }
1710:./Libraries/STM32H7xx_HAL_Driver/Src/stm32h7xx_hal_nand.c ****         else /* ((hnand->Config.BlockSize)*(hnand->Config.BlockNbr)) > 65535 */
ARM GAS  /tmp/cc5RRSLv.s 			page 72


1711:./Libraries/STM32H7xx_HAL_Driver/Src/stm32h7xx_hal_nand.c ****         {
1712:./Libraries/STM32H7xx_HAL_Driver/Src/stm32h7xx_hal_nand.c ****           *(__IO uint8_t *)((uint32_t)(deviceaddress | ADDR_AREA)) = 0x00U;
1713:./Libraries/STM32H7xx_HAL_Driver/Src/stm32h7xx_hal_nand.c ****           __DSB();
1714:./Libraries/STM32H7xx_HAL_Driver/Src/stm32h7xx_hal_nand.c ****           *(__IO uint8_t *)((uint32_t)(deviceaddress | ADDR_AREA)) = ADDR_1ST_CYCLE(nandaddress);
1715:./Libraries/STM32H7xx_HAL_Driver/Src/stm32h7xx_hal_nand.c ****           __DSB();
1716:./Libraries/STM32H7xx_HAL_Driver/Src/stm32h7xx_hal_nand.c ****           *(__IO uint8_t *)((uint32_t)(deviceaddress | ADDR_AREA)) = ADDR_2ND_CYCLE(nandaddress);
1717:./Libraries/STM32H7xx_HAL_Driver/Src/stm32h7xx_hal_nand.c ****           __DSB();
1718:./Libraries/STM32H7xx_HAL_Driver/Src/stm32h7xx_hal_nand.c ****           *(__IO uint8_t *)((uint32_t)(deviceaddress | ADDR_AREA)) = ADDR_3RD_CYCLE(nandaddress);
1719:./Libraries/STM32H7xx_HAL_Driver/Src/stm32h7xx_hal_nand.c ****           __DSB();
1720:./Libraries/STM32H7xx_HAL_Driver/Src/stm32h7xx_hal_nand.c ****         }
1721:./Libraries/STM32H7xx_HAL_Driver/Src/stm32h7xx_hal_nand.c ****       }
1722:./Libraries/STM32H7xx_HAL_Driver/Src/stm32h7xx_hal_nand.c ****       else /* (hnand->Config.PageSize) > 512 */
1723:./Libraries/STM32H7xx_HAL_Driver/Src/stm32h7xx_hal_nand.c ****       {
1724:./Libraries/STM32H7xx_HAL_Driver/Src/stm32h7xx_hal_nand.c ****         /* Send write Spare area command sequence */
1725:./Libraries/STM32H7xx_HAL_Driver/Src/stm32h7xx_hal_nand.c ****         *(__IO uint8_t *)((uint32_t)(deviceaddress | CMD_AREA)) = NAND_CMD_AREA_A;
1726:./Libraries/STM32H7xx_HAL_Driver/Src/stm32h7xx_hal_nand.c ****         __DSB();
1727:./Libraries/STM32H7xx_HAL_Driver/Src/stm32h7xx_hal_nand.c ****         *(__IO uint8_t *)((uint32_t)(deviceaddress | CMD_AREA)) = NAND_CMD_WRITE0;
1728:./Libraries/STM32H7xx_HAL_Driver/Src/stm32h7xx_hal_nand.c ****         __DSB();
1729:./Libraries/STM32H7xx_HAL_Driver/Src/stm32h7xx_hal_nand.c **** 
1730:./Libraries/STM32H7xx_HAL_Driver/Src/stm32h7xx_hal_nand.c ****         if (((hnand->Config.BlockSize) * (hnand->Config.BlockNbr)) <= 65535U)
1731:./Libraries/STM32H7xx_HAL_Driver/Src/stm32h7xx_hal_nand.c ****         {
1732:./Libraries/STM32H7xx_HAL_Driver/Src/stm32h7xx_hal_nand.c ****           *(__IO uint8_t *)((uint32_t)(deviceaddress | ADDR_AREA)) = COLUMN_1ST_CYCLE(columnaddress
1733:./Libraries/STM32H7xx_HAL_Driver/Src/stm32h7xx_hal_nand.c ****           __DSB();
1734:./Libraries/STM32H7xx_HAL_Driver/Src/stm32h7xx_hal_nand.c ****           *(__IO uint8_t *)((uint32_t)(deviceaddress | ADDR_AREA)) = COLUMN_2ND_CYCLE(columnaddress
1735:./Libraries/STM32H7xx_HAL_Driver/Src/stm32h7xx_hal_nand.c ****           __DSB();
1736:./Libraries/STM32H7xx_HAL_Driver/Src/stm32h7xx_hal_nand.c ****           *(__IO uint8_t *)((uint32_t)(deviceaddress | ADDR_AREA)) = ADDR_1ST_CYCLE(nandaddress);
1737:./Libraries/STM32H7xx_HAL_Driver/Src/stm32h7xx_hal_nand.c ****           __DSB();
1738:./Libraries/STM32H7xx_HAL_Driver/Src/stm32h7xx_hal_nand.c ****           *(__IO uint8_t *)((uint32_t)(deviceaddress | ADDR_AREA)) = ADDR_2ND_CYCLE(nandaddress);
1739:./Libraries/STM32H7xx_HAL_Driver/Src/stm32h7xx_hal_nand.c ****           __DSB();
1740:./Libraries/STM32H7xx_HAL_Driver/Src/stm32h7xx_hal_nand.c ****         }
1741:./Libraries/STM32H7xx_HAL_Driver/Src/stm32h7xx_hal_nand.c ****         else /* ((hnand->Config.BlockSize)*(hnand->Config.BlockNbr)) > 65535 */
1742:./Libraries/STM32H7xx_HAL_Driver/Src/stm32h7xx_hal_nand.c ****         {
1743:./Libraries/STM32H7xx_HAL_Driver/Src/stm32h7xx_hal_nand.c ****           *(__IO uint8_t *)((uint32_t)(deviceaddress | ADDR_AREA)) = COLUMN_1ST_CYCLE(columnaddress
1744:./Libraries/STM32H7xx_HAL_Driver/Src/stm32h7xx_hal_nand.c ****           __DSB();
1745:./Libraries/STM32H7xx_HAL_Driver/Src/stm32h7xx_hal_nand.c ****           *(__IO uint8_t *)((uint32_t)(deviceaddress | ADDR_AREA)) = COLUMN_2ND_CYCLE(columnaddress
1746:./Libraries/STM32H7xx_HAL_Driver/Src/stm32h7xx_hal_nand.c ****           __DSB();
1747:./Libraries/STM32H7xx_HAL_Driver/Src/stm32h7xx_hal_nand.c ****           *(__IO uint8_t *)((uint32_t)(deviceaddress | ADDR_AREA)) = ADDR_1ST_CYCLE(nandaddress);
1748:./Libraries/STM32H7xx_HAL_Driver/Src/stm32h7xx_hal_nand.c ****           __DSB();
1749:./Libraries/STM32H7xx_HAL_Driver/Src/stm32h7xx_hal_nand.c ****           *(__IO uint8_t *)((uint32_t)(deviceaddress | ADDR_AREA)) = ADDR_2ND_CYCLE(nandaddress);
1750:./Libraries/STM32H7xx_HAL_Driver/Src/stm32h7xx_hal_nand.c ****           __DSB();
1751:./Libraries/STM32H7xx_HAL_Driver/Src/stm32h7xx_hal_nand.c ****           *(__IO uint8_t *)((uint32_t)(deviceaddress | ADDR_AREA)) = ADDR_3RD_CYCLE(nandaddress);
1752:./Libraries/STM32H7xx_HAL_Driver/Src/stm32h7xx_hal_nand.c ****           __DSB();
1753:./Libraries/STM32H7xx_HAL_Driver/Src/stm32h7xx_hal_nand.c ****         }
1754:./Libraries/STM32H7xx_HAL_Driver/Src/stm32h7xx_hal_nand.c ****       }
1755:./Libraries/STM32H7xx_HAL_Driver/Src/stm32h7xx_hal_nand.c **** 
1756:./Libraries/STM32H7xx_HAL_Driver/Src/stm32h7xx_hal_nand.c ****       /* Write data to memory */
1757:./Libraries/STM32H7xx_HAL_Driver/Src/stm32h7xx_hal_nand.c ****       for (index = 0U; index < hnand->Config.SpareAreaSize; index++)
1758:./Libraries/STM32H7xx_HAL_Driver/Src/stm32h7xx_hal_nand.c ****       {
1759:./Libraries/STM32H7xx_HAL_Driver/Src/stm32h7xx_hal_nand.c ****         *(__IO uint16_t *)deviceaddress = *buff;
1760:./Libraries/STM32H7xx_HAL_Driver/Src/stm32h7xx_hal_nand.c ****         buff++;
1761:./Libraries/STM32H7xx_HAL_Driver/Src/stm32h7xx_hal_nand.c ****         __DSB();
1762:./Libraries/STM32H7xx_HAL_Driver/Src/stm32h7xx_hal_nand.c ****       }
1763:./Libraries/STM32H7xx_HAL_Driver/Src/stm32h7xx_hal_nand.c **** 
1764:./Libraries/STM32H7xx_HAL_Driver/Src/stm32h7xx_hal_nand.c ****       *(__IO uint8_t *)((uint32_t)(deviceaddress | CMD_AREA)) = NAND_CMD_WRITE_TRUE1;
1765:./Libraries/STM32H7xx_HAL_Driver/Src/stm32h7xx_hal_nand.c ****       __DSB();
1766:./Libraries/STM32H7xx_HAL_Driver/Src/stm32h7xx_hal_nand.c **** 
1767:./Libraries/STM32H7xx_HAL_Driver/Src/stm32h7xx_hal_nand.c ****       /* Get tick */
ARM GAS  /tmp/cc5RRSLv.s 			page 73


1768:./Libraries/STM32H7xx_HAL_Driver/Src/stm32h7xx_hal_nand.c ****       tickstart = HAL_GetTick();
1769:./Libraries/STM32H7xx_HAL_Driver/Src/stm32h7xx_hal_nand.c **** 
1770:./Libraries/STM32H7xx_HAL_Driver/Src/stm32h7xx_hal_nand.c ****       /* Read status until NAND is ready */
1771:./Libraries/STM32H7xx_HAL_Driver/Src/stm32h7xx_hal_nand.c ****       while (HAL_NAND_Read_Status(hnand) != NAND_READY)
1772:./Libraries/STM32H7xx_HAL_Driver/Src/stm32h7xx_hal_nand.c ****       {
1773:./Libraries/STM32H7xx_HAL_Driver/Src/stm32h7xx_hal_nand.c ****         if ((HAL_GetTick() - tickstart) > NAND_WRITE_TIMEOUT)
1774:./Libraries/STM32H7xx_HAL_Driver/Src/stm32h7xx_hal_nand.c ****         {
1775:./Libraries/STM32H7xx_HAL_Driver/Src/stm32h7xx_hal_nand.c ****           /* Update the NAND controller state */
1776:./Libraries/STM32H7xx_HAL_Driver/Src/stm32h7xx_hal_nand.c ****           hnand->State = HAL_NAND_STATE_ERROR;
1777:./Libraries/STM32H7xx_HAL_Driver/Src/stm32h7xx_hal_nand.c **** 
1778:./Libraries/STM32H7xx_HAL_Driver/Src/stm32h7xx_hal_nand.c ****           /* Process unlocked */
1779:./Libraries/STM32H7xx_HAL_Driver/Src/stm32h7xx_hal_nand.c ****           __HAL_UNLOCK(hnand);
1780:./Libraries/STM32H7xx_HAL_Driver/Src/stm32h7xx_hal_nand.c **** 
1781:./Libraries/STM32H7xx_HAL_Driver/Src/stm32h7xx_hal_nand.c ****           return HAL_TIMEOUT;
1782:./Libraries/STM32H7xx_HAL_Driver/Src/stm32h7xx_hal_nand.c ****         }
1783:./Libraries/STM32H7xx_HAL_Driver/Src/stm32h7xx_hal_nand.c ****       }
1784:./Libraries/STM32H7xx_HAL_Driver/Src/stm32h7xx_hal_nand.c **** 
1785:./Libraries/STM32H7xx_HAL_Driver/Src/stm32h7xx_hal_nand.c ****       /* Increment written spare areas number */
1786:./Libraries/STM32H7xx_HAL_Driver/Src/stm32h7xx_hal_nand.c ****       numspareareawritten++;
1787:./Libraries/STM32H7xx_HAL_Driver/Src/stm32h7xx_hal_nand.c **** 
1788:./Libraries/STM32H7xx_HAL_Driver/Src/stm32h7xx_hal_nand.c ****       /* Decrement spare areas to write */
1789:./Libraries/STM32H7xx_HAL_Driver/Src/stm32h7xx_hal_nand.c ****       nbspare--;
1790:./Libraries/STM32H7xx_HAL_Driver/Src/stm32h7xx_hal_nand.c **** 
1791:./Libraries/STM32H7xx_HAL_Driver/Src/stm32h7xx_hal_nand.c ****       /* Increment the NAND address */
1792:./Libraries/STM32H7xx_HAL_Driver/Src/stm32h7xx_hal_nand.c ****       nandaddress = (uint32_t)(nandaddress + 1U);
1793:./Libraries/STM32H7xx_HAL_Driver/Src/stm32h7xx_hal_nand.c ****     }
1794:./Libraries/STM32H7xx_HAL_Driver/Src/stm32h7xx_hal_nand.c **** 
1795:./Libraries/STM32H7xx_HAL_Driver/Src/stm32h7xx_hal_nand.c ****     /* Update the NAND controller state */
1796:./Libraries/STM32H7xx_HAL_Driver/Src/stm32h7xx_hal_nand.c ****     hnand->State = HAL_NAND_STATE_READY;
1797:./Libraries/STM32H7xx_HAL_Driver/Src/stm32h7xx_hal_nand.c **** 
1798:./Libraries/STM32H7xx_HAL_Driver/Src/stm32h7xx_hal_nand.c ****     /* Process unlocked */
1799:./Libraries/STM32H7xx_HAL_Driver/Src/stm32h7xx_hal_nand.c ****     __HAL_UNLOCK(hnand);
1800:./Libraries/STM32H7xx_HAL_Driver/Src/stm32h7xx_hal_nand.c ****   }
1801:./Libraries/STM32H7xx_HAL_Driver/Src/stm32h7xx_hal_nand.c ****   else
1802:./Libraries/STM32H7xx_HAL_Driver/Src/stm32h7xx_hal_nand.c ****   {
1803:./Libraries/STM32H7xx_HAL_Driver/Src/stm32h7xx_hal_nand.c ****     return HAL_ERROR;
1804:./Libraries/STM32H7xx_HAL_Driver/Src/stm32h7xx_hal_nand.c ****   }
1805:./Libraries/STM32H7xx_HAL_Driver/Src/stm32h7xx_hal_nand.c **** 
1806:./Libraries/STM32H7xx_HAL_Driver/Src/stm32h7xx_hal_nand.c ****   return HAL_OK;
1807:./Libraries/STM32H7xx_HAL_Driver/Src/stm32h7xx_hal_nand.c **** }
1808:./Libraries/STM32H7xx_HAL_Driver/Src/stm32h7xx_hal_nand.c **** 
1809:./Libraries/STM32H7xx_HAL_Driver/Src/stm32h7xx_hal_nand.c **** /**
1810:./Libraries/STM32H7xx_HAL_Driver/Src/stm32h7xx_hal_nand.c ****   * @brief  NAND memory Block erase
1811:./Libraries/STM32H7xx_HAL_Driver/Src/stm32h7xx_hal_nand.c ****   * @param  hnand pointer to a NAND_HandleTypeDef structure that contains
1812:./Libraries/STM32H7xx_HAL_Driver/Src/stm32h7xx_hal_nand.c ****   *                the configuration information for NAND module.
1813:./Libraries/STM32H7xx_HAL_Driver/Src/stm32h7xx_hal_nand.c ****   * @param  pAddress  pointer to NAND address structure
1814:./Libraries/STM32H7xx_HAL_Driver/Src/stm32h7xx_hal_nand.c ****   * @retval HAL status
1815:./Libraries/STM32H7xx_HAL_Driver/Src/stm32h7xx_hal_nand.c ****   */
1816:./Libraries/STM32H7xx_HAL_Driver/Src/stm32h7xx_hal_nand.c **** HAL_StatusTypeDef HAL_NAND_Erase_Block(NAND_HandleTypeDef *hnand, NAND_AddressTypeDef *pAddress)
1817:./Libraries/STM32H7xx_HAL_Driver/Src/stm32h7xx_hal_nand.c **** {
1818:./Libraries/STM32H7xx_HAL_Driver/Src/stm32h7xx_hal_nand.c ****   uint32_t deviceaddress;
1819:./Libraries/STM32H7xx_HAL_Driver/Src/stm32h7xx_hal_nand.c **** 
1820:./Libraries/STM32H7xx_HAL_Driver/Src/stm32h7xx_hal_nand.c ****   /* Check the NAND controller state */
1821:./Libraries/STM32H7xx_HAL_Driver/Src/stm32h7xx_hal_nand.c ****   if (hnand->State == HAL_NAND_STATE_BUSY)
1822:./Libraries/STM32H7xx_HAL_Driver/Src/stm32h7xx_hal_nand.c ****   {
1823:./Libraries/STM32H7xx_HAL_Driver/Src/stm32h7xx_hal_nand.c ****     return HAL_BUSY;
1824:./Libraries/STM32H7xx_HAL_Driver/Src/stm32h7xx_hal_nand.c ****   }
ARM GAS  /tmp/cc5RRSLv.s 			page 74


1825:./Libraries/STM32H7xx_HAL_Driver/Src/stm32h7xx_hal_nand.c ****   else if (hnand->State == HAL_NAND_STATE_READY)
1826:./Libraries/STM32H7xx_HAL_Driver/Src/stm32h7xx_hal_nand.c ****   {
1827:./Libraries/STM32H7xx_HAL_Driver/Src/stm32h7xx_hal_nand.c ****     /* Process Locked */
1828:./Libraries/STM32H7xx_HAL_Driver/Src/stm32h7xx_hal_nand.c ****     __HAL_LOCK(hnand);
1829:./Libraries/STM32H7xx_HAL_Driver/Src/stm32h7xx_hal_nand.c **** 
1830:./Libraries/STM32H7xx_HAL_Driver/Src/stm32h7xx_hal_nand.c ****     /* Update the NAND controller state */
1831:./Libraries/STM32H7xx_HAL_Driver/Src/stm32h7xx_hal_nand.c ****     hnand->State = HAL_NAND_STATE_BUSY;
1832:./Libraries/STM32H7xx_HAL_Driver/Src/stm32h7xx_hal_nand.c **** 
1833:./Libraries/STM32H7xx_HAL_Driver/Src/stm32h7xx_hal_nand.c ****     /* Identify the device address */
1834:./Libraries/STM32H7xx_HAL_Driver/Src/stm32h7xx_hal_nand.c ****     deviceaddress = NAND_DEVICE;
1835:./Libraries/STM32H7xx_HAL_Driver/Src/stm32h7xx_hal_nand.c **** 
1836:./Libraries/STM32H7xx_HAL_Driver/Src/stm32h7xx_hal_nand.c ****     /* Send Erase block command sequence */
1837:./Libraries/STM32H7xx_HAL_Driver/Src/stm32h7xx_hal_nand.c ****     *(__IO uint8_t *)((uint32_t)(deviceaddress | CMD_AREA)) = NAND_CMD_ERASE0;
1838:./Libraries/STM32H7xx_HAL_Driver/Src/stm32h7xx_hal_nand.c ****     __DSB();
1839:./Libraries/STM32H7xx_HAL_Driver/Src/stm32h7xx_hal_nand.c ****     *(__IO uint8_t *)((uint32_t)(deviceaddress | ADDR_AREA)) = ADDR_1ST_CYCLE(ARRAY_ADDRESS(pAddres
1840:./Libraries/STM32H7xx_HAL_Driver/Src/stm32h7xx_hal_nand.c ****     __DSB();
1841:./Libraries/STM32H7xx_HAL_Driver/Src/stm32h7xx_hal_nand.c ****     *(__IO uint8_t *)((uint32_t)(deviceaddress | ADDR_AREA)) = ADDR_2ND_CYCLE(ARRAY_ADDRESS(pAddres
1842:./Libraries/STM32H7xx_HAL_Driver/Src/stm32h7xx_hal_nand.c ****     __DSB();
1843:./Libraries/STM32H7xx_HAL_Driver/Src/stm32h7xx_hal_nand.c ****     *(__IO uint8_t *)((uint32_t)(deviceaddress | ADDR_AREA)) = ADDR_3RD_CYCLE(ARRAY_ADDRESS(pAddres
1844:./Libraries/STM32H7xx_HAL_Driver/Src/stm32h7xx_hal_nand.c ****     __DSB();
1845:./Libraries/STM32H7xx_HAL_Driver/Src/stm32h7xx_hal_nand.c **** 
1846:./Libraries/STM32H7xx_HAL_Driver/Src/stm32h7xx_hal_nand.c ****     *(__IO uint8_t *)((uint32_t)(deviceaddress | CMD_AREA)) = NAND_CMD_ERASE1;
1847:./Libraries/STM32H7xx_HAL_Driver/Src/stm32h7xx_hal_nand.c ****     __DSB();
1848:./Libraries/STM32H7xx_HAL_Driver/Src/stm32h7xx_hal_nand.c **** 
1849:./Libraries/STM32H7xx_HAL_Driver/Src/stm32h7xx_hal_nand.c ****     /* Update the NAND controller state */
1850:./Libraries/STM32H7xx_HAL_Driver/Src/stm32h7xx_hal_nand.c ****     hnand->State = HAL_NAND_STATE_READY;
1851:./Libraries/STM32H7xx_HAL_Driver/Src/stm32h7xx_hal_nand.c **** 
1852:./Libraries/STM32H7xx_HAL_Driver/Src/stm32h7xx_hal_nand.c ****     /* Process unlocked */
1853:./Libraries/STM32H7xx_HAL_Driver/Src/stm32h7xx_hal_nand.c ****     __HAL_UNLOCK(hnand);
1854:./Libraries/STM32H7xx_HAL_Driver/Src/stm32h7xx_hal_nand.c ****   }
1855:./Libraries/STM32H7xx_HAL_Driver/Src/stm32h7xx_hal_nand.c ****   else
1856:./Libraries/STM32H7xx_HAL_Driver/Src/stm32h7xx_hal_nand.c ****   {
1857:./Libraries/STM32H7xx_HAL_Driver/Src/stm32h7xx_hal_nand.c ****     return HAL_ERROR;
1858:./Libraries/STM32H7xx_HAL_Driver/Src/stm32h7xx_hal_nand.c ****   }
1859:./Libraries/STM32H7xx_HAL_Driver/Src/stm32h7xx_hal_nand.c **** 
1860:./Libraries/STM32H7xx_HAL_Driver/Src/stm32h7xx_hal_nand.c ****   return HAL_OK;
1861:./Libraries/STM32H7xx_HAL_Driver/Src/stm32h7xx_hal_nand.c **** }
1862:./Libraries/STM32H7xx_HAL_Driver/Src/stm32h7xx_hal_nand.c **** 
1863:./Libraries/STM32H7xx_HAL_Driver/Src/stm32h7xx_hal_nand.c **** /**
1864:./Libraries/STM32H7xx_HAL_Driver/Src/stm32h7xx_hal_nand.c ****   * @brief  Increment the NAND memory address
1865:./Libraries/STM32H7xx_HAL_Driver/Src/stm32h7xx_hal_nand.c ****   * @param  hnand pointer to a NAND_HandleTypeDef structure that contains
1866:./Libraries/STM32H7xx_HAL_Driver/Src/stm32h7xx_hal_nand.c ****   *                the configuration information for NAND module.
1867:./Libraries/STM32H7xx_HAL_Driver/Src/stm32h7xx_hal_nand.c ****   * @param pAddress pointer to NAND address structure
1868:./Libraries/STM32H7xx_HAL_Driver/Src/stm32h7xx_hal_nand.c ****   * @retval The new status of the increment address operation. It can be:
1869:./Libraries/STM32H7xx_HAL_Driver/Src/stm32h7xx_hal_nand.c ****   *           - NAND_VALID_ADDRESS: When the new address is valid address
1870:./Libraries/STM32H7xx_HAL_Driver/Src/stm32h7xx_hal_nand.c ****   *           - NAND_INVALID_ADDRESS: When the new address is invalid address
1871:./Libraries/STM32H7xx_HAL_Driver/Src/stm32h7xx_hal_nand.c ****   */
1872:./Libraries/STM32H7xx_HAL_Driver/Src/stm32h7xx_hal_nand.c **** uint32_t HAL_NAND_Address_Inc(NAND_HandleTypeDef *hnand, NAND_AddressTypeDef *pAddress)
1873:./Libraries/STM32H7xx_HAL_Driver/Src/stm32h7xx_hal_nand.c **** {
1874:./Libraries/STM32H7xx_HAL_Driver/Src/stm32h7xx_hal_nand.c ****   uint32_t status = NAND_VALID_ADDRESS;
1875:./Libraries/STM32H7xx_HAL_Driver/Src/stm32h7xx_hal_nand.c **** 
1876:./Libraries/STM32H7xx_HAL_Driver/Src/stm32h7xx_hal_nand.c ****   /* Increment page address */
1877:./Libraries/STM32H7xx_HAL_Driver/Src/stm32h7xx_hal_nand.c ****   pAddress->Page++;
1878:./Libraries/STM32H7xx_HAL_Driver/Src/stm32h7xx_hal_nand.c **** 
1879:./Libraries/STM32H7xx_HAL_Driver/Src/stm32h7xx_hal_nand.c ****   /* Check NAND address is valid */
1880:./Libraries/STM32H7xx_HAL_Driver/Src/stm32h7xx_hal_nand.c ****   if (pAddress->Page == hnand->Config.BlockSize)
1881:./Libraries/STM32H7xx_HAL_Driver/Src/stm32h7xx_hal_nand.c ****   {
ARM GAS  /tmp/cc5RRSLv.s 			page 75


1882:./Libraries/STM32H7xx_HAL_Driver/Src/stm32h7xx_hal_nand.c ****     pAddress->Page = 0;
1883:./Libraries/STM32H7xx_HAL_Driver/Src/stm32h7xx_hal_nand.c ****     pAddress->Block++;
1884:./Libraries/STM32H7xx_HAL_Driver/Src/stm32h7xx_hal_nand.c **** 
1885:./Libraries/STM32H7xx_HAL_Driver/Src/stm32h7xx_hal_nand.c ****     if (pAddress->Block == hnand->Config.PlaneSize)
1886:./Libraries/STM32H7xx_HAL_Driver/Src/stm32h7xx_hal_nand.c ****     {
1887:./Libraries/STM32H7xx_HAL_Driver/Src/stm32h7xx_hal_nand.c ****       pAddress->Block = 0;
1888:./Libraries/STM32H7xx_HAL_Driver/Src/stm32h7xx_hal_nand.c ****       pAddress->Plane++;
1889:./Libraries/STM32H7xx_HAL_Driver/Src/stm32h7xx_hal_nand.c **** 
1890:./Libraries/STM32H7xx_HAL_Driver/Src/stm32h7xx_hal_nand.c ****       if (pAddress->Plane == (hnand->Config.PlaneNbr))
1891:./Libraries/STM32H7xx_HAL_Driver/Src/stm32h7xx_hal_nand.c ****       {
1892:./Libraries/STM32H7xx_HAL_Driver/Src/stm32h7xx_hal_nand.c ****         status = NAND_INVALID_ADDRESS;
1893:./Libraries/STM32H7xx_HAL_Driver/Src/stm32h7xx_hal_nand.c ****       }
1894:./Libraries/STM32H7xx_HAL_Driver/Src/stm32h7xx_hal_nand.c ****     }
1895:./Libraries/STM32H7xx_HAL_Driver/Src/stm32h7xx_hal_nand.c ****   }
1896:./Libraries/STM32H7xx_HAL_Driver/Src/stm32h7xx_hal_nand.c **** 
1897:./Libraries/STM32H7xx_HAL_Driver/Src/stm32h7xx_hal_nand.c ****   return (status);
1898:./Libraries/STM32H7xx_HAL_Driver/Src/stm32h7xx_hal_nand.c **** }
1899:./Libraries/STM32H7xx_HAL_Driver/Src/stm32h7xx_hal_nand.c **** 
1900:./Libraries/STM32H7xx_HAL_Driver/Src/stm32h7xx_hal_nand.c **** #if (USE_HAL_NAND_REGISTER_CALLBACKS == 1)
1901:./Libraries/STM32H7xx_HAL_Driver/Src/stm32h7xx_hal_nand.c **** /**
1902:./Libraries/STM32H7xx_HAL_Driver/Src/stm32h7xx_hal_nand.c ****   * @brief  Register a User NAND Callback
1903:./Libraries/STM32H7xx_HAL_Driver/Src/stm32h7xx_hal_nand.c ****   *         To be used instead of the weak (surcharged) predefined callback
1904:./Libraries/STM32H7xx_HAL_Driver/Src/stm32h7xx_hal_nand.c ****   * @param hnand : NAND handle
1905:./Libraries/STM32H7xx_HAL_Driver/Src/stm32h7xx_hal_nand.c ****   * @param CallbackId : ID of the callback to be registered
1906:./Libraries/STM32H7xx_HAL_Driver/Src/stm32h7xx_hal_nand.c ****   *        This parameter can be one of the following values:
1907:./Libraries/STM32H7xx_HAL_Driver/Src/stm32h7xx_hal_nand.c ****   *          @arg @ref HAL_NAND_MSP_INIT_CB_ID       NAND MspInit callback ID
1908:./Libraries/STM32H7xx_HAL_Driver/Src/stm32h7xx_hal_nand.c ****   *          @arg @ref HAL_NAND_MSP_DEINIT_CB_ID     NAND MspDeInit callback ID
1909:./Libraries/STM32H7xx_HAL_Driver/Src/stm32h7xx_hal_nand.c ****   *          @arg @ref HAL_NAND_IT_CB_ID             NAND IT callback ID
1910:./Libraries/STM32H7xx_HAL_Driver/Src/stm32h7xx_hal_nand.c ****   * @param pCallback : pointer to the Callback function
1911:./Libraries/STM32H7xx_HAL_Driver/Src/stm32h7xx_hal_nand.c ****   * @retval status
1912:./Libraries/STM32H7xx_HAL_Driver/Src/stm32h7xx_hal_nand.c ****   */
1913:./Libraries/STM32H7xx_HAL_Driver/Src/stm32h7xx_hal_nand.c **** HAL_StatusTypeDef HAL_NAND_RegisterCallback(NAND_HandleTypeDef *hnand, HAL_NAND_CallbackIDTypeDef C
1914:./Libraries/STM32H7xx_HAL_Driver/Src/stm32h7xx_hal_nand.c ****                                             pNAND_CallbackTypeDef pCallback)
1915:./Libraries/STM32H7xx_HAL_Driver/Src/stm32h7xx_hal_nand.c **** {
1916:./Libraries/STM32H7xx_HAL_Driver/Src/stm32h7xx_hal_nand.c ****   HAL_StatusTypeDef status = HAL_OK;
1917:./Libraries/STM32H7xx_HAL_Driver/Src/stm32h7xx_hal_nand.c **** 
1918:./Libraries/STM32H7xx_HAL_Driver/Src/stm32h7xx_hal_nand.c ****   if (pCallback == NULL)
1919:./Libraries/STM32H7xx_HAL_Driver/Src/stm32h7xx_hal_nand.c ****   {
1920:./Libraries/STM32H7xx_HAL_Driver/Src/stm32h7xx_hal_nand.c ****     return HAL_ERROR;
1921:./Libraries/STM32H7xx_HAL_Driver/Src/stm32h7xx_hal_nand.c ****   }
1922:./Libraries/STM32H7xx_HAL_Driver/Src/stm32h7xx_hal_nand.c **** 
1923:./Libraries/STM32H7xx_HAL_Driver/Src/stm32h7xx_hal_nand.c ****   /* Process locked */
1924:./Libraries/STM32H7xx_HAL_Driver/Src/stm32h7xx_hal_nand.c ****   __HAL_LOCK(hnand);
1925:./Libraries/STM32H7xx_HAL_Driver/Src/stm32h7xx_hal_nand.c **** 
1926:./Libraries/STM32H7xx_HAL_Driver/Src/stm32h7xx_hal_nand.c ****   if (hnand->State == HAL_NAND_STATE_READY)
1927:./Libraries/STM32H7xx_HAL_Driver/Src/stm32h7xx_hal_nand.c ****   {
1928:./Libraries/STM32H7xx_HAL_Driver/Src/stm32h7xx_hal_nand.c ****     switch (CallbackId)
1929:./Libraries/STM32H7xx_HAL_Driver/Src/stm32h7xx_hal_nand.c ****     {
1930:./Libraries/STM32H7xx_HAL_Driver/Src/stm32h7xx_hal_nand.c ****       case HAL_NAND_MSP_INIT_CB_ID :
1931:./Libraries/STM32H7xx_HAL_Driver/Src/stm32h7xx_hal_nand.c ****         hnand->MspInitCallback = pCallback;
1932:./Libraries/STM32H7xx_HAL_Driver/Src/stm32h7xx_hal_nand.c ****         break;
1933:./Libraries/STM32H7xx_HAL_Driver/Src/stm32h7xx_hal_nand.c ****       case HAL_NAND_MSP_DEINIT_CB_ID :
1934:./Libraries/STM32H7xx_HAL_Driver/Src/stm32h7xx_hal_nand.c ****         hnand->MspDeInitCallback = pCallback;
1935:./Libraries/STM32H7xx_HAL_Driver/Src/stm32h7xx_hal_nand.c ****         break;
1936:./Libraries/STM32H7xx_HAL_Driver/Src/stm32h7xx_hal_nand.c ****       case HAL_NAND_IT_CB_ID :
1937:./Libraries/STM32H7xx_HAL_Driver/Src/stm32h7xx_hal_nand.c ****         hnand->ItCallback = pCallback;
1938:./Libraries/STM32H7xx_HAL_Driver/Src/stm32h7xx_hal_nand.c ****         break;
ARM GAS  /tmp/cc5RRSLv.s 			page 76


1939:./Libraries/STM32H7xx_HAL_Driver/Src/stm32h7xx_hal_nand.c ****       default :
1940:./Libraries/STM32H7xx_HAL_Driver/Src/stm32h7xx_hal_nand.c ****         /* update return status */
1941:./Libraries/STM32H7xx_HAL_Driver/Src/stm32h7xx_hal_nand.c ****         status =  HAL_ERROR;
1942:./Libraries/STM32H7xx_HAL_Driver/Src/stm32h7xx_hal_nand.c ****         break;
1943:./Libraries/STM32H7xx_HAL_Driver/Src/stm32h7xx_hal_nand.c ****     }
1944:./Libraries/STM32H7xx_HAL_Driver/Src/stm32h7xx_hal_nand.c ****   }
1945:./Libraries/STM32H7xx_HAL_Driver/Src/stm32h7xx_hal_nand.c ****   else if (hnand->State == HAL_NAND_STATE_RESET)
1946:./Libraries/STM32H7xx_HAL_Driver/Src/stm32h7xx_hal_nand.c ****   {
1947:./Libraries/STM32H7xx_HAL_Driver/Src/stm32h7xx_hal_nand.c ****     switch (CallbackId)
1948:./Libraries/STM32H7xx_HAL_Driver/Src/stm32h7xx_hal_nand.c ****     {
1949:./Libraries/STM32H7xx_HAL_Driver/Src/stm32h7xx_hal_nand.c ****       case HAL_NAND_MSP_INIT_CB_ID :
1950:./Libraries/STM32H7xx_HAL_Driver/Src/stm32h7xx_hal_nand.c ****         hnand->MspInitCallback = pCallback;
1951:./Libraries/STM32H7xx_HAL_Driver/Src/stm32h7xx_hal_nand.c ****         break;
1952:./Libraries/STM32H7xx_HAL_Driver/Src/stm32h7xx_hal_nand.c ****       case HAL_NAND_MSP_DEINIT_CB_ID :
1953:./Libraries/STM32H7xx_HAL_Driver/Src/stm32h7xx_hal_nand.c ****         hnand->MspDeInitCallback = pCallback;
1954:./Libraries/STM32H7xx_HAL_Driver/Src/stm32h7xx_hal_nand.c ****         break;
1955:./Libraries/STM32H7xx_HAL_Driver/Src/stm32h7xx_hal_nand.c ****       default :
1956:./Libraries/STM32H7xx_HAL_Driver/Src/stm32h7xx_hal_nand.c ****         /* update return status */
1957:./Libraries/STM32H7xx_HAL_Driver/Src/stm32h7xx_hal_nand.c ****         status =  HAL_ERROR;
1958:./Libraries/STM32H7xx_HAL_Driver/Src/stm32h7xx_hal_nand.c ****         break;
1959:./Libraries/STM32H7xx_HAL_Driver/Src/stm32h7xx_hal_nand.c ****     }
1960:./Libraries/STM32H7xx_HAL_Driver/Src/stm32h7xx_hal_nand.c ****   }
1961:./Libraries/STM32H7xx_HAL_Driver/Src/stm32h7xx_hal_nand.c ****   else
1962:./Libraries/STM32H7xx_HAL_Driver/Src/stm32h7xx_hal_nand.c ****   {
1963:./Libraries/STM32H7xx_HAL_Driver/Src/stm32h7xx_hal_nand.c ****     /* update return status */
1964:./Libraries/STM32H7xx_HAL_Driver/Src/stm32h7xx_hal_nand.c ****     status =  HAL_ERROR;
1965:./Libraries/STM32H7xx_HAL_Driver/Src/stm32h7xx_hal_nand.c ****   }
1966:./Libraries/STM32H7xx_HAL_Driver/Src/stm32h7xx_hal_nand.c **** 
1967:./Libraries/STM32H7xx_HAL_Driver/Src/stm32h7xx_hal_nand.c ****   /* Release Lock */
1968:./Libraries/STM32H7xx_HAL_Driver/Src/stm32h7xx_hal_nand.c ****   __HAL_UNLOCK(hnand);
1969:./Libraries/STM32H7xx_HAL_Driver/Src/stm32h7xx_hal_nand.c ****   return status;
1970:./Libraries/STM32H7xx_HAL_Driver/Src/stm32h7xx_hal_nand.c **** }
1971:./Libraries/STM32H7xx_HAL_Driver/Src/stm32h7xx_hal_nand.c **** 
1972:./Libraries/STM32H7xx_HAL_Driver/Src/stm32h7xx_hal_nand.c **** /**
1973:./Libraries/STM32H7xx_HAL_Driver/Src/stm32h7xx_hal_nand.c ****   * @brief  Unregister a User NAND Callback
1974:./Libraries/STM32H7xx_HAL_Driver/Src/stm32h7xx_hal_nand.c ****   *         NAND Callback is redirected to the weak (surcharged) predefined callback
1975:./Libraries/STM32H7xx_HAL_Driver/Src/stm32h7xx_hal_nand.c ****   * @param hnand : NAND handle
1976:./Libraries/STM32H7xx_HAL_Driver/Src/stm32h7xx_hal_nand.c ****   * @param CallbackId : ID of the callback to be unregistered
1977:./Libraries/STM32H7xx_HAL_Driver/Src/stm32h7xx_hal_nand.c ****   *        This parameter can be one of the following values:
1978:./Libraries/STM32H7xx_HAL_Driver/Src/stm32h7xx_hal_nand.c ****   *          @arg @ref HAL_NAND_MSP_INIT_CB_ID       NAND MspInit callback ID
1979:./Libraries/STM32H7xx_HAL_Driver/Src/stm32h7xx_hal_nand.c ****   *          @arg @ref HAL_NAND_MSP_DEINIT_CB_ID     NAND MspDeInit callback ID
1980:./Libraries/STM32H7xx_HAL_Driver/Src/stm32h7xx_hal_nand.c ****   *          @arg @ref HAL_NAND_IT_CB_ID             NAND IT callback ID
1981:./Libraries/STM32H7xx_HAL_Driver/Src/stm32h7xx_hal_nand.c ****   * @retval status
1982:./Libraries/STM32H7xx_HAL_Driver/Src/stm32h7xx_hal_nand.c ****   */
1983:./Libraries/STM32H7xx_HAL_Driver/Src/stm32h7xx_hal_nand.c **** HAL_StatusTypeDef HAL_NAND_UnRegisterCallback(NAND_HandleTypeDef *hnand, HAL_NAND_CallbackIDTypeDef
1984:./Libraries/STM32H7xx_HAL_Driver/Src/stm32h7xx_hal_nand.c **** {
1985:./Libraries/STM32H7xx_HAL_Driver/Src/stm32h7xx_hal_nand.c ****   HAL_StatusTypeDef status = HAL_OK;
1986:./Libraries/STM32H7xx_HAL_Driver/Src/stm32h7xx_hal_nand.c **** 
1987:./Libraries/STM32H7xx_HAL_Driver/Src/stm32h7xx_hal_nand.c ****   /* Process locked */
1988:./Libraries/STM32H7xx_HAL_Driver/Src/stm32h7xx_hal_nand.c ****   __HAL_LOCK(hnand);
1989:./Libraries/STM32H7xx_HAL_Driver/Src/stm32h7xx_hal_nand.c **** 
1990:./Libraries/STM32H7xx_HAL_Driver/Src/stm32h7xx_hal_nand.c ****   if (hnand->State == HAL_NAND_STATE_READY)
1991:./Libraries/STM32H7xx_HAL_Driver/Src/stm32h7xx_hal_nand.c ****   {
1992:./Libraries/STM32H7xx_HAL_Driver/Src/stm32h7xx_hal_nand.c ****     switch (CallbackId)
1993:./Libraries/STM32H7xx_HAL_Driver/Src/stm32h7xx_hal_nand.c ****     {
1994:./Libraries/STM32H7xx_HAL_Driver/Src/stm32h7xx_hal_nand.c ****       case HAL_NAND_MSP_INIT_CB_ID :
1995:./Libraries/STM32H7xx_HAL_Driver/Src/stm32h7xx_hal_nand.c ****         hnand->MspInitCallback = HAL_NAND_MspInit;
ARM GAS  /tmp/cc5RRSLv.s 			page 77


1996:./Libraries/STM32H7xx_HAL_Driver/Src/stm32h7xx_hal_nand.c ****         break;
1997:./Libraries/STM32H7xx_HAL_Driver/Src/stm32h7xx_hal_nand.c ****       case HAL_NAND_MSP_DEINIT_CB_ID :
1998:./Libraries/STM32H7xx_HAL_Driver/Src/stm32h7xx_hal_nand.c ****         hnand->MspDeInitCallback = HAL_NAND_MspDeInit;
1999:./Libraries/STM32H7xx_HAL_Driver/Src/stm32h7xx_hal_nand.c ****         break;
2000:./Libraries/STM32H7xx_HAL_Driver/Src/stm32h7xx_hal_nand.c ****       case HAL_NAND_IT_CB_ID :
2001:./Libraries/STM32H7xx_HAL_Driver/Src/stm32h7xx_hal_nand.c ****         hnand->ItCallback = HAL_NAND_ITCallback;
2002:./Libraries/STM32H7xx_HAL_Driver/Src/stm32h7xx_hal_nand.c ****         break;
2003:./Libraries/STM32H7xx_HAL_Driver/Src/stm32h7xx_hal_nand.c ****       default :
2004:./Libraries/STM32H7xx_HAL_Driver/Src/stm32h7xx_hal_nand.c ****         /* update return status */
2005:./Libraries/STM32H7xx_HAL_Driver/Src/stm32h7xx_hal_nand.c ****         status =  HAL_ERROR;
2006:./Libraries/STM32H7xx_HAL_Driver/Src/stm32h7xx_hal_nand.c ****         break;
2007:./Libraries/STM32H7xx_HAL_Driver/Src/stm32h7xx_hal_nand.c ****     }
2008:./Libraries/STM32H7xx_HAL_Driver/Src/stm32h7xx_hal_nand.c ****   }
2009:./Libraries/STM32H7xx_HAL_Driver/Src/stm32h7xx_hal_nand.c ****   else if (hnand->State == HAL_NAND_STATE_RESET)
2010:./Libraries/STM32H7xx_HAL_Driver/Src/stm32h7xx_hal_nand.c ****   {
2011:./Libraries/STM32H7xx_HAL_Driver/Src/stm32h7xx_hal_nand.c ****     switch (CallbackId)
2012:./Libraries/STM32H7xx_HAL_Driver/Src/stm32h7xx_hal_nand.c ****     {
2013:./Libraries/STM32H7xx_HAL_Driver/Src/stm32h7xx_hal_nand.c ****       case HAL_NAND_MSP_INIT_CB_ID :
2014:./Libraries/STM32H7xx_HAL_Driver/Src/stm32h7xx_hal_nand.c ****         hnand->MspInitCallback = HAL_NAND_MspInit;
2015:./Libraries/STM32H7xx_HAL_Driver/Src/stm32h7xx_hal_nand.c ****         break;
2016:./Libraries/STM32H7xx_HAL_Driver/Src/stm32h7xx_hal_nand.c ****       case HAL_NAND_MSP_DEINIT_CB_ID :
2017:./Libraries/STM32H7xx_HAL_Driver/Src/stm32h7xx_hal_nand.c ****         hnand->MspDeInitCallback = HAL_NAND_MspDeInit;
2018:./Libraries/STM32H7xx_HAL_Driver/Src/stm32h7xx_hal_nand.c ****         break;
2019:./Libraries/STM32H7xx_HAL_Driver/Src/stm32h7xx_hal_nand.c ****       default :
2020:./Libraries/STM32H7xx_HAL_Driver/Src/stm32h7xx_hal_nand.c ****         /* update return status */
2021:./Libraries/STM32H7xx_HAL_Driver/Src/stm32h7xx_hal_nand.c ****         status =  HAL_ERROR;
2022:./Libraries/STM32H7xx_HAL_Driver/Src/stm32h7xx_hal_nand.c ****         break;
2023:./Libraries/STM32H7xx_HAL_Driver/Src/stm32h7xx_hal_nand.c ****     }
2024:./Libraries/STM32H7xx_HAL_Driver/Src/stm32h7xx_hal_nand.c ****   }
2025:./Libraries/STM32H7xx_HAL_Driver/Src/stm32h7xx_hal_nand.c ****   else
2026:./Libraries/STM32H7xx_HAL_Driver/Src/stm32h7xx_hal_nand.c ****   {
2027:./Libraries/STM32H7xx_HAL_Driver/Src/stm32h7xx_hal_nand.c ****     /* update return status */
2028:./Libraries/STM32H7xx_HAL_Driver/Src/stm32h7xx_hal_nand.c ****     status =  HAL_ERROR;
2029:./Libraries/STM32H7xx_HAL_Driver/Src/stm32h7xx_hal_nand.c ****   }
2030:./Libraries/STM32H7xx_HAL_Driver/Src/stm32h7xx_hal_nand.c **** 
2031:./Libraries/STM32H7xx_HAL_Driver/Src/stm32h7xx_hal_nand.c ****   /* Release Lock */
2032:./Libraries/STM32H7xx_HAL_Driver/Src/stm32h7xx_hal_nand.c ****   __HAL_UNLOCK(hnand);
2033:./Libraries/STM32H7xx_HAL_Driver/Src/stm32h7xx_hal_nand.c ****   return status;
2034:./Libraries/STM32H7xx_HAL_Driver/Src/stm32h7xx_hal_nand.c **** }
2035:./Libraries/STM32H7xx_HAL_Driver/Src/stm32h7xx_hal_nand.c **** #endif /* USE_HAL_NAND_REGISTER_CALLBACKS */
2036:./Libraries/STM32H7xx_HAL_Driver/Src/stm32h7xx_hal_nand.c **** 
2037:./Libraries/STM32H7xx_HAL_Driver/Src/stm32h7xx_hal_nand.c **** /**
2038:./Libraries/STM32H7xx_HAL_Driver/Src/stm32h7xx_hal_nand.c ****   * @}
2039:./Libraries/STM32H7xx_HAL_Driver/Src/stm32h7xx_hal_nand.c ****   */
2040:./Libraries/STM32H7xx_HAL_Driver/Src/stm32h7xx_hal_nand.c **** 
2041:./Libraries/STM32H7xx_HAL_Driver/Src/stm32h7xx_hal_nand.c **** /** @defgroup NAND_Exported_Functions_Group3 Peripheral Control functions
2042:./Libraries/STM32H7xx_HAL_Driver/Src/stm32h7xx_hal_nand.c ****   *  @brief   management functions
2043:./Libraries/STM32H7xx_HAL_Driver/Src/stm32h7xx_hal_nand.c ****   *
2044:./Libraries/STM32H7xx_HAL_Driver/Src/stm32h7xx_hal_nand.c **** @verbatim
2045:./Libraries/STM32H7xx_HAL_Driver/Src/stm32h7xx_hal_nand.c ****   ==============================================================================
2046:./Libraries/STM32H7xx_HAL_Driver/Src/stm32h7xx_hal_nand.c ****                          ##### NAND Control functions #####
2047:./Libraries/STM32H7xx_HAL_Driver/Src/stm32h7xx_hal_nand.c ****   ==============================================================================
2048:./Libraries/STM32H7xx_HAL_Driver/Src/stm32h7xx_hal_nand.c ****   [..]
2049:./Libraries/STM32H7xx_HAL_Driver/Src/stm32h7xx_hal_nand.c ****     This subsection provides a set of functions allowing to control dynamically
2050:./Libraries/STM32H7xx_HAL_Driver/Src/stm32h7xx_hal_nand.c ****     the NAND interface.
2051:./Libraries/STM32H7xx_HAL_Driver/Src/stm32h7xx_hal_nand.c **** 
2052:./Libraries/STM32H7xx_HAL_Driver/Src/stm32h7xx_hal_nand.c **** @endverbatim
ARM GAS  /tmp/cc5RRSLv.s 			page 78


2053:./Libraries/STM32H7xx_HAL_Driver/Src/stm32h7xx_hal_nand.c ****   * @{
2054:./Libraries/STM32H7xx_HAL_Driver/Src/stm32h7xx_hal_nand.c ****   */
2055:./Libraries/STM32H7xx_HAL_Driver/Src/stm32h7xx_hal_nand.c **** 
2056:./Libraries/STM32H7xx_HAL_Driver/Src/stm32h7xx_hal_nand.c **** 
2057:./Libraries/STM32H7xx_HAL_Driver/Src/stm32h7xx_hal_nand.c **** /**
2058:./Libraries/STM32H7xx_HAL_Driver/Src/stm32h7xx_hal_nand.c ****   * @brief  Enables dynamically NAND ECC feature.
2059:./Libraries/STM32H7xx_HAL_Driver/Src/stm32h7xx_hal_nand.c ****   * @param  hnand pointer to a NAND_HandleTypeDef structure that contains
2060:./Libraries/STM32H7xx_HAL_Driver/Src/stm32h7xx_hal_nand.c ****   *                the configuration information for NAND module.
2061:./Libraries/STM32H7xx_HAL_Driver/Src/stm32h7xx_hal_nand.c ****   * @retval HAL status
2062:./Libraries/STM32H7xx_HAL_Driver/Src/stm32h7xx_hal_nand.c ****   */
2063:./Libraries/STM32H7xx_HAL_Driver/Src/stm32h7xx_hal_nand.c **** HAL_StatusTypeDef  HAL_NAND_ECC_Enable(NAND_HandleTypeDef *hnand)
2064:./Libraries/STM32H7xx_HAL_Driver/Src/stm32h7xx_hal_nand.c **** {
2065:./Libraries/STM32H7xx_HAL_Driver/Src/stm32h7xx_hal_nand.c ****   /* Check the NAND controller state */
2066:./Libraries/STM32H7xx_HAL_Driver/Src/stm32h7xx_hal_nand.c ****   if (hnand->State == HAL_NAND_STATE_BUSY)
2067:./Libraries/STM32H7xx_HAL_Driver/Src/stm32h7xx_hal_nand.c ****   {
2068:./Libraries/STM32H7xx_HAL_Driver/Src/stm32h7xx_hal_nand.c ****     return HAL_BUSY;
2069:./Libraries/STM32H7xx_HAL_Driver/Src/stm32h7xx_hal_nand.c ****   }
2070:./Libraries/STM32H7xx_HAL_Driver/Src/stm32h7xx_hal_nand.c ****   else if (hnand->State == HAL_NAND_STATE_READY)
2071:./Libraries/STM32H7xx_HAL_Driver/Src/stm32h7xx_hal_nand.c ****   {
2072:./Libraries/STM32H7xx_HAL_Driver/Src/stm32h7xx_hal_nand.c ****     /* Update the NAND state */
2073:./Libraries/STM32H7xx_HAL_Driver/Src/stm32h7xx_hal_nand.c ****     hnand->State = HAL_NAND_STATE_BUSY;
2074:./Libraries/STM32H7xx_HAL_Driver/Src/stm32h7xx_hal_nand.c **** 
2075:./Libraries/STM32H7xx_HAL_Driver/Src/stm32h7xx_hal_nand.c ****     /* Enable ECC feature */
2076:./Libraries/STM32H7xx_HAL_Driver/Src/stm32h7xx_hal_nand.c ****     (void)FMC_NAND_ECC_Enable(hnand->Instance, hnand->Init.NandBank);
2077:./Libraries/STM32H7xx_HAL_Driver/Src/stm32h7xx_hal_nand.c **** 
2078:./Libraries/STM32H7xx_HAL_Driver/Src/stm32h7xx_hal_nand.c ****     /* Update the NAND state */
2079:./Libraries/STM32H7xx_HAL_Driver/Src/stm32h7xx_hal_nand.c ****     hnand->State = HAL_NAND_STATE_READY;
2080:./Libraries/STM32H7xx_HAL_Driver/Src/stm32h7xx_hal_nand.c ****   }
2081:./Libraries/STM32H7xx_HAL_Driver/Src/stm32h7xx_hal_nand.c ****   else
2082:./Libraries/STM32H7xx_HAL_Driver/Src/stm32h7xx_hal_nand.c ****   {
2083:./Libraries/STM32H7xx_HAL_Driver/Src/stm32h7xx_hal_nand.c ****     return HAL_ERROR;
2084:./Libraries/STM32H7xx_HAL_Driver/Src/stm32h7xx_hal_nand.c ****   }
2085:./Libraries/STM32H7xx_HAL_Driver/Src/stm32h7xx_hal_nand.c **** 
2086:./Libraries/STM32H7xx_HAL_Driver/Src/stm32h7xx_hal_nand.c ****   return HAL_OK;
2087:./Libraries/STM32H7xx_HAL_Driver/Src/stm32h7xx_hal_nand.c **** }
2088:./Libraries/STM32H7xx_HAL_Driver/Src/stm32h7xx_hal_nand.c **** 
2089:./Libraries/STM32H7xx_HAL_Driver/Src/stm32h7xx_hal_nand.c **** /**
2090:./Libraries/STM32H7xx_HAL_Driver/Src/stm32h7xx_hal_nand.c ****   * @brief  Disables dynamically FMC_NAND ECC feature.
2091:./Libraries/STM32H7xx_HAL_Driver/Src/stm32h7xx_hal_nand.c ****   * @param  hnand pointer to a NAND_HandleTypeDef structure that contains
2092:./Libraries/STM32H7xx_HAL_Driver/Src/stm32h7xx_hal_nand.c ****   *                the configuration information for NAND module.
2093:./Libraries/STM32H7xx_HAL_Driver/Src/stm32h7xx_hal_nand.c ****   * @retval HAL status
2094:./Libraries/STM32H7xx_HAL_Driver/Src/stm32h7xx_hal_nand.c ****   */
2095:./Libraries/STM32H7xx_HAL_Driver/Src/stm32h7xx_hal_nand.c **** HAL_StatusTypeDef  HAL_NAND_ECC_Disable(NAND_HandleTypeDef *hnand)
2096:./Libraries/STM32H7xx_HAL_Driver/Src/stm32h7xx_hal_nand.c **** {
2097:./Libraries/STM32H7xx_HAL_Driver/Src/stm32h7xx_hal_nand.c ****   /* Check the NAND controller state */
2098:./Libraries/STM32H7xx_HAL_Driver/Src/stm32h7xx_hal_nand.c ****   if (hnand->State == HAL_NAND_STATE_BUSY)
2099:./Libraries/STM32H7xx_HAL_Driver/Src/stm32h7xx_hal_nand.c ****   {
2100:./Libraries/STM32H7xx_HAL_Driver/Src/stm32h7xx_hal_nand.c ****     return HAL_BUSY;
2101:./Libraries/STM32H7xx_HAL_Driver/Src/stm32h7xx_hal_nand.c ****   }
2102:./Libraries/STM32H7xx_HAL_Driver/Src/stm32h7xx_hal_nand.c ****   else if (hnand->State == HAL_NAND_STATE_READY)
2103:./Libraries/STM32H7xx_HAL_Driver/Src/stm32h7xx_hal_nand.c ****   {
2104:./Libraries/STM32H7xx_HAL_Driver/Src/stm32h7xx_hal_nand.c ****     /* Update the NAND state */
2105:./Libraries/STM32H7xx_HAL_Driver/Src/stm32h7xx_hal_nand.c ****     hnand->State = HAL_NAND_STATE_BUSY;
2106:./Libraries/STM32H7xx_HAL_Driver/Src/stm32h7xx_hal_nand.c **** 
2107:./Libraries/STM32H7xx_HAL_Driver/Src/stm32h7xx_hal_nand.c ****     /* Disable ECC feature */
2108:./Libraries/STM32H7xx_HAL_Driver/Src/stm32h7xx_hal_nand.c ****     (void)FMC_NAND_ECC_Disable(hnand->Instance, hnand->Init.NandBank);
2109:./Libraries/STM32H7xx_HAL_Driver/Src/stm32h7xx_hal_nand.c **** 
ARM GAS  /tmp/cc5RRSLv.s 			page 79


2110:./Libraries/STM32H7xx_HAL_Driver/Src/stm32h7xx_hal_nand.c ****     /* Update the NAND state */
2111:./Libraries/STM32H7xx_HAL_Driver/Src/stm32h7xx_hal_nand.c ****     hnand->State = HAL_NAND_STATE_READY;
2112:./Libraries/STM32H7xx_HAL_Driver/Src/stm32h7xx_hal_nand.c ****   }
2113:./Libraries/STM32H7xx_HAL_Driver/Src/stm32h7xx_hal_nand.c ****   else
2114:./Libraries/STM32H7xx_HAL_Driver/Src/stm32h7xx_hal_nand.c ****   {
2115:./Libraries/STM32H7xx_HAL_Driver/Src/stm32h7xx_hal_nand.c ****     return HAL_ERROR;
2116:./Libraries/STM32H7xx_HAL_Driver/Src/stm32h7xx_hal_nand.c ****   }
2117:./Libraries/STM32H7xx_HAL_Driver/Src/stm32h7xx_hal_nand.c **** 
2118:./Libraries/STM32H7xx_HAL_Driver/Src/stm32h7xx_hal_nand.c ****   return HAL_OK;
2119:./Libraries/STM32H7xx_HAL_Driver/Src/stm32h7xx_hal_nand.c **** }
2120:./Libraries/STM32H7xx_HAL_Driver/Src/stm32h7xx_hal_nand.c **** 
2121:./Libraries/STM32H7xx_HAL_Driver/Src/stm32h7xx_hal_nand.c **** /**
2122:./Libraries/STM32H7xx_HAL_Driver/Src/stm32h7xx_hal_nand.c ****   * @brief  Disables dynamically NAND ECC feature.
2123:./Libraries/STM32H7xx_HAL_Driver/Src/stm32h7xx_hal_nand.c ****   * @param  hnand pointer to a NAND_HandleTypeDef structure that contains
2124:./Libraries/STM32H7xx_HAL_Driver/Src/stm32h7xx_hal_nand.c ****   *                the configuration information for NAND module.
2125:./Libraries/STM32H7xx_HAL_Driver/Src/stm32h7xx_hal_nand.c ****   * @param  ECCval pointer to ECC value
2126:./Libraries/STM32H7xx_HAL_Driver/Src/stm32h7xx_hal_nand.c ****   * @param  Timeout maximum timeout to wait
2127:./Libraries/STM32H7xx_HAL_Driver/Src/stm32h7xx_hal_nand.c ****   * @retval HAL status
2128:./Libraries/STM32H7xx_HAL_Driver/Src/stm32h7xx_hal_nand.c ****   */
2129:./Libraries/STM32H7xx_HAL_Driver/Src/stm32h7xx_hal_nand.c **** HAL_StatusTypeDef  HAL_NAND_GetECC(NAND_HandleTypeDef *hnand, uint32_t *ECCval, uint32_t Timeout)
2130:./Libraries/STM32H7xx_HAL_Driver/Src/stm32h7xx_hal_nand.c **** {
2131:./Libraries/STM32H7xx_HAL_Driver/Src/stm32h7xx_hal_nand.c ****   HAL_StatusTypeDef status;
2132:./Libraries/STM32H7xx_HAL_Driver/Src/stm32h7xx_hal_nand.c **** 
2133:./Libraries/STM32H7xx_HAL_Driver/Src/stm32h7xx_hal_nand.c ****   /* Check the NAND controller state */
2134:./Libraries/STM32H7xx_HAL_Driver/Src/stm32h7xx_hal_nand.c ****   if (hnand->State == HAL_NAND_STATE_BUSY)
2135:./Libraries/STM32H7xx_HAL_Driver/Src/stm32h7xx_hal_nand.c ****   {
2136:./Libraries/STM32H7xx_HAL_Driver/Src/stm32h7xx_hal_nand.c ****     return HAL_BUSY;
2137:./Libraries/STM32H7xx_HAL_Driver/Src/stm32h7xx_hal_nand.c ****   }
2138:./Libraries/STM32H7xx_HAL_Driver/Src/stm32h7xx_hal_nand.c ****   else if (hnand->State == HAL_NAND_STATE_READY)
2139:./Libraries/STM32H7xx_HAL_Driver/Src/stm32h7xx_hal_nand.c ****   {
2140:./Libraries/STM32H7xx_HAL_Driver/Src/stm32h7xx_hal_nand.c ****     /* Update the NAND state */
2141:./Libraries/STM32H7xx_HAL_Driver/Src/stm32h7xx_hal_nand.c ****     hnand->State = HAL_NAND_STATE_BUSY;
2142:./Libraries/STM32H7xx_HAL_Driver/Src/stm32h7xx_hal_nand.c **** 
2143:./Libraries/STM32H7xx_HAL_Driver/Src/stm32h7xx_hal_nand.c ****     /* Get NAND ECC value */
2144:./Libraries/STM32H7xx_HAL_Driver/Src/stm32h7xx_hal_nand.c ****     status = FMC_NAND_GetECC(hnand->Instance, ECCval, hnand->Init.NandBank, Timeout);
2145:./Libraries/STM32H7xx_HAL_Driver/Src/stm32h7xx_hal_nand.c **** 
2146:./Libraries/STM32H7xx_HAL_Driver/Src/stm32h7xx_hal_nand.c ****     /* Update the NAND state */
2147:./Libraries/STM32H7xx_HAL_Driver/Src/stm32h7xx_hal_nand.c ****     hnand->State = HAL_NAND_STATE_READY;
2148:./Libraries/STM32H7xx_HAL_Driver/Src/stm32h7xx_hal_nand.c ****   }
2149:./Libraries/STM32H7xx_HAL_Driver/Src/stm32h7xx_hal_nand.c ****   else
2150:./Libraries/STM32H7xx_HAL_Driver/Src/stm32h7xx_hal_nand.c ****   {
2151:./Libraries/STM32H7xx_HAL_Driver/Src/stm32h7xx_hal_nand.c ****     return HAL_ERROR;
2152:./Libraries/STM32H7xx_HAL_Driver/Src/stm32h7xx_hal_nand.c ****   }
2153:./Libraries/STM32H7xx_HAL_Driver/Src/stm32h7xx_hal_nand.c **** 
2154:./Libraries/STM32H7xx_HAL_Driver/Src/stm32h7xx_hal_nand.c ****   return status;
2155:./Libraries/STM32H7xx_HAL_Driver/Src/stm32h7xx_hal_nand.c **** }
2156:./Libraries/STM32H7xx_HAL_Driver/Src/stm32h7xx_hal_nand.c **** 
2157:./Libraries/STM32H7xx_HAL_Driver/Src/stm32h7xx_hal_nand.c **** /**
2158:./Libraries/STM32H7xx_HAL_Driver/Src/stm32h7xx_hal_nand.c ****   * @}
2159:./Libraries/STM32H7xx_HAL_Driver/Src/stm32h7xx_hal_nand.c ****   */
2160:./Libraries/STM32H7xx_HAL_Driver/Src/stm32h7xx_hal_nand.c **** 
2161:./Libraries/STM32H7xx_HAL_Driver/Src/stm32h7xx_hal_nand.c **** 
2162:./Libraries/STM32H7xx_HAL_Driver/Src/stm32h7xx_hal_nand.c **** /** @defgroup NAND_Exported_Functions_Group4 Peripheral State functions
2163:./Libraries/STM32H7xx_HAL_Driver/Src/stm32h7xx_hal_nand.c ****   *  @brief   Peripheral State functions
2164:./Libraries/STM32H7xx_HAL_Driver/Src/stm32h7xx_hal_nand.c ****   *
2165:./Libraries/STM32H7xx_HAL_Driver/Src/stm32h7xx_hal_nand.c **** @verbatim
2166:./Libraries/STM32H7xx_HAL_Driver/Src/stm32h7xx_hal_nand.c ****   ==============================================================================
ARM GAS  /tmp/cc5RRSLv.s 			page 80


2167:./Libraries/STM32H7xx_HAL_Driver/Src/stm32h7xx_hal_nand.c ****                          ##### NAND State functions #####
2168:./Libraries/STM32H7xx_HAL_Driver/Src/stm32h7xx_hal_nand.c ****   ==============================================================================
2169:./Libraries/STM32H7xx_HAL_Driver/Src/stm32h7xx_hal_nand.c ****   [..]
2170:./Libraries/STM32H7xx_HAL_Driver/Src/stm32h7xx_hal_nand.c ****     This subsection permits to get in run-time the status of the NAND controller
2171:./Libraries/STM32H7xx_HAL_Driver/Src/stm32h7xx_hal_nand.c ****     and the data flow.
2172:./Libraries/STM32H7xx_HAL_Driver/Src/stm32h7xx_hal_nand.c **** 
2173:./Libraries/STM32H7xx_HAL_Driver/Src/stm32h7xx_hal_nand.c **** @endverbatim
2174:./Libraries/STM32H7xx_HAL_Driver/Src/stm32h7xx_hal_nand.c ****   * @{
2175:./Libraries/STM32H7xx_HAL_Driver/Src/stm32h7xx_hal_nand.c ****   */
2176:./Libraries/STM32H7xx_HAL_Driver/Src/stm32h7xx_hal_nand.c **** 
2177:./Libraries/STM32H7xx_HAL_Driver/Src/stm32h7xx_hal_nand.c **** /**
2178:./Libraries/STM32H7xx_HAL_Driver/Src/stm32h7xx_hal_nand.c ****   * @brief  return the NAND state
2179:./Libraries/STM32H7xx_HAL_Driver/Src/stm32h7xx_hal_nand.c ****   * @param  hnand pointer to a NAND_HandleTypeDef structure that contains
2180:./Libraries/STM32H7xx_HAL_Driver/Src/stm32h7xx_hal_nand.c ****   *                the configuration information for NAND module.
2181:./Libraries/STM32H7xx_HAL_Driver/Src/stm32h7xx_hal_nand.c ****   * @retval HAL state
2182:./Libraries/STM32H7xx_HAL_Driver/Src/stm32h7xx_hal_nand.c ****   */
2183:./Libraries/STM32H7xx_HAL_Driver/Src/stm32h7xx_hal_nand.c **** HAL_NAND_StateTypeDef HAL_NAND_GetState(NAND_HandleTypeDef *hnand)
2184:./Libraries/STM32H7xx_HAL_Driver/Src/stm32h7xx_hal_nand.c **** {
2185:./Libraries/STM32H7xx_HAL_Driver/Src/stm32h7xx_hal_nand.c ****   return hnand->State;
2186:./Libraries/STM32H7xx_HAL_Driver/Src/stm32h7xx_hal_nand.c **** }
2187:./Libraries/STM32H7xx_HAL_Driver/Src/stm32h7xx_hal_nand.c **** 
2188:./Libraries/STM32H7xx_HAL_Driver/Src/stm32h7xx_hal_nand.c **** /**
2189:./Libraries/STM32H7xx_HAL_Driver/Src/stm32h7xx_hal_nand.c ****   * @brief  NAND memory read status
2190:./Libraries/STM32H7xx_HAL_Driver/Src/stm32h7xx_hal_nand.c ****   * @param  hnand pointer to a NAND_HandleTypeDef structure that contains
2191:./Libraries/STM32H7xx_HAL_Driver/Src/stm32h7xx_hal_nand.c ****   *                the configuration information for NAND module.
2192:./Libraries/STM32H7xx_HAL_Driver/Src/stm32h7xx_hal_nand.c ****   * @retval NAND status
2193:./Libraries/STM32H7xx_HAL_Driver/Src/stm32h7xx_hal_nand.c ****   */
2194:./Libraries/STM32H7xx_HAL_Driver/Src/stm32h7xx_hal_nand.c **** uint32_t HAL_NAND_Read_Status(NAND_HandleTypeDef *hnand)
2195:./Libraries/STM32H7xx_HAL_Driver/Src/stm32h7xx_hal_nand.c **** {
2196:./Libraries/STM32H7xx_HAL_Driver/Src/stm32h7xx_hal_nand.c ****   uint32_t data;
2197:./Libraries/STM32H7xx_HAL_Driver/Src/stm32h7xx_hal_nand.c ****   uint32_t deviceaddress;
2198:./Libraries/STM32H7xx_HAL_Driver/Src/stm32h7xx_hal_nand.c ****   UNUSED(hnand);
2199:./Libraries/STM32H7xx_HAL_Driver/Src/stm32h7xx_hal_nand.c **** 
2200:./Libraries/STM32H7xx_HAL_Driver/Src/stm32h7xx_hal_nand.c ****   /* Identify the device address */
2201:./Libraries/STM32H7xx_HAL_Driver/Src/stm32h7xx_hal_nand.c ****   deviceaddress = NAND_DEVICE;
2202:./Libraries/STM32H7xx_HAL_Driver/Src/stm32h7xx_hal_nand.c **** 
2203:./Libraries/STM32H7xx_HAL_Driver/Src/stm32h7xx_hal_nand.c ****   /* Send Read status operation command */
2204:./Libraries/STM32H7xx_HAL_Driver/Src/stm32h7xx_hal_nand.c ****   *(__IO uint8_t *)((uint32_t)(deviceaddress | CMD_AREA)) = NAND_CMD_STATUS;
 1208              		.loc 1 2204 59 is_stmt 0 view .LVU379
 1209 012a 4FF0700B 		mov	fp, #112
 1210              	.LBE707:
 1211              	.LBE706:
 615:./Libraries/STM32H7xx_HAL_Driver/Src/stm32h7xx_hal_nand.c **** 
 1212              		.loc 1 615 21 view .LVU380
 1213 012e FFF7FEFF 		bl	HAL_GetTick
 1214              	.LVL60:
 1215 0132 0190     		str	r0, [sp, #4]
 1216              	.LVL61:
 618:./Libraries/STM32H7xx_HAL_Driver/Src/stm32h7xx_hal_nand.c ****         {
 1217              		.loc 1 618 9 is_stmt 1 view .LVU381
 1218              	.L77:
 620:./Libraries/STM32H7xx_HAL_Driver/Src/stm32h7xx_hal_nand.c ****           {
 1219              		.loc 1 620 11 view .LVU382
 618:./Libraries/STM32H7xx_HAL_Driver/Src/stm32h7xx_hal_nand.c ****         {
 1220              		.loc 1 618 15 view .LVU383
 1221              	.LBB709:
 1222              	.LBI706:
ARM GAS  /tmp/cc5RRSLv.s 			page 81


2194:./Libraries/STM32H7xx_HAL_Driver/Src/stm32h7xx_hal_nand.c **** {
 1223              		.loc 1 2194 10 view .LVU384
 1224              	.LBB708:
2196:./Libraries/STM32H7xx_HAL_Driver/Src/stm32h7xx_hal_nand.c ****   uint32_t deviceaddress;
 1225              		.loc 1 2196 3 view .LVU385
2197:./Libraries/STM32H7xx_HAL_Driver/Src/stm32h7xx_hal_nand.c ****   UNUSED(hnand);
 1226              		.loc 1 2197 3 view .LVU386
2198:./Libraries/STM32H7xx_HAL_Driver/Src/stm32h7xx_hal_nand.c **** 
 1227              		.loc 1 2198 3 view .LVU387
2201:./Libraries/STM32H7xx_HAL_Driver/Src/stm32h7xx_hal_nand.c **** 
 1228              		.loc 1 2201 3 view .LVU388
 1229              		.loc 1 2204 3 view .LVU389
2205:./Libraries/STM32H7xx_HAL_Driver/Src/stm32h7xx_hal_nand.c **** 
2206:./Libraries/STM32H7xx_HAL_Driver/Src/stm32h7xx_hal_nand.c ****   /* Read status register data */
2207:./Libraries/STM32H7xx_HAL_Driver/Src/stm32h7xx_hal_nand.c ****   data = *(__IO uint8_t *)deviceaddress;
2208:./Libraries/STM32H7xx_HAL_Driver/Src/stm32h7xx_hal_nand.c **** 
2209:./Libraries/STM32H7xx_HAL_Driver/Src/stm32h7xx_hal_nand.c ****   /* Return the status */
2210:./Libraries/STM32H7xx_HAL_Driver/Src/stm32h7xx_hal_nand.c ****   if ((data & NAND_ERROR) == NAND_ERROR)
2211:./Libraries/STM32H7xx_HAL_Driver/Src/stm32h7xx_hal_nand.c ****   {
2212:./Libraries/STM32H7xx_HAL_Driver/Src/stm32h7xx_hal_nand.c ****     return NAND_ERROR;
2213:./Libraries/STM32H7xx_HAL_Driver/Src/stm32h7xx_hal_nand.c ****   }
2214:./Libraries/STM32H7xx_HAL_Driver/Src/stm32h7xx_hal_nand.c ****   else if ((data & NAND_READY) == NAND_READY)
 1230              		.loc 1 2214 8 view .LVU390
2207:./Libraries/STM32H7xx_HAL_Driver/Src/stm32h7xx_hal_nand.c **** 
 1231              		.loc 1 2207 10 is_stmt 0 view .LVU391
 1232 0134 4FF00043 		mov	r3, #-2147483648
2204:./Libraries/STM32H7xx_HAL_Driver/Src/stm32h7xx_hal_nand.c **** 
 1233              		.loc 1 2204 59 view .LVU392
 1234 0138 89F800B0 		strb	fp, [r9]
2207:./Libraries/STM32H7xx_HAL_Driver/Src/stm32h7xx_hal_nand.c **** 
 1235              		.loc 1 2207 3 is_stmt 1 view .LVU393
2207:./Libraries/STM32H7xx_HAL_Driver/Src/stm32h7xx_hal_nand.c **** 
 1236              		.loc 1 2207 10 is_stmt 0 view .LVU394
 1237 013c 1B78     		ldrb	r3, [r3]	@ zero_extendqisi2
 1238 013e DAB2     		uxtb	r2, r3
 1239              	.LVL62:
2210:./Libraries/STM32H7xx_HAL_Driver/Src/stm32h7xx_hal_nand.c ****   {
 1240              		.loc 1 2210 3 is_stmt 1 view .LVU395
2210:./Libraries/STM32H7xx_HAL_Driver/Src/stm32h7xx_hal_nand.c ****   {
 1241              		.loc 1 2210 6 is_stmt 0 view .LVU396
 1242 0140 13F00103 		ands	r3, r3, #1
 1243 0144 01D1     		bne	.L78
 1244              		.loc 1 2214 11 view .LVU397
 1245 0146 5206     		lsls	r2, r2, #25
 1246              	.LVL63:
 1247              		.loc 1 2214 11 view .LVU398
 1248 0148 0DD4     		bmi	.L102
 1249              	.L78:
 1250              	.LBE708:
 1251              	.LBE709:
 620:./Libraries/STM32H7xx_HAL_Driver/Src/stm32h7xx_hal_nand.c ****           {
 1252              		.loc 1 620 16 view .LVU399
 1253 014a FFF7FEFF 		bl	HAL_GetTick
 1254              	.LVL64:
 620:./Libraries/STM32H7xx_HAL_Driver/Src/stm32h7xx_hal_nand.c ****           {
 1255              		.loc 1 620 30 view .LVU400
 1256 014e 019B     		ldr	r3, [sp, #4]
ARM GAS  /tmp/cc5RRSLv.s 			page 82


 1257 0150 C01A     		subs	r0, r0, r3
 620:./Libraries/STM32H7xx_HAL_Driver/Src/stm32h7xx_hal_nand.c ****           {
 1258              		.loc 1 620 14 view .LVU401
 1259 0152 B0F1807F 		cmp	r0, #16777216
 1260 0156 EDD9     		bls	.L77
 623:./Libraries/STM32H7xx_HAL_Driver/Src/stm32h7xx_hal_nand.c **** 
 1261              		.loc 1 623 13 is_stmt 1 view .LVU402
 623:./Libraries/STM32H7xx_HAL_Driver/Src/stm32h7xx_hal_nand.c **** 
 1262              		.loc 1 623 26 is_stmt 0 view .LVU403
 1263 0158 0320     		movs	r0, #3
 626:./Libraries/STM32H7xx_HAL_Driver/Src/stm32h7xx_hal_nand.c **** 
 1264              		.loc 1 626 13 view .LVU404
 1265 015a 0023     		movs	r3, #0
 623:./Libraries/STM32H7xx_HAL_Driver/Src/stm32h7xx_hal_nand.c **** 
 1266              		.loc 1 623 26 view .LVU405
 1267 015c 84F82100 		strb	r0, [r4, #33]
 626:./Libraries/STM32H7xx_HAL_Driver/Src/stm32h7xx_hal_nand.c **** 
 1268              		.loc 1 626 13 is_stmt 1 view .LVU406
 626:./Libraries/STM32H7xx_HAL_Driver/Src/stm32h7xx_hal_nand.c **** 
 1269              		.loc 1 626 13 view .LVU407
 1270 0160 84F82030 		strb	r3, [r4, #32]
 626:./Libraries/STM32H7xx_HAL_Driver/Src/stm32h7xx_hal_nand.c **** 
 1271              		.loc 1 626 13 view .LVU408
 628:./Libraries/STM32H7xx_HAL_Driver/Src/stm32h7xx_hal_nand.c ****           }
 1272              		.loc 1 628 13 view .LVU409
 628:./Libraries/STM32H7xx_HAL_Driver/Src/stm32h7xx_hal_nand.c ****           }
 1273              		.loc 1 628 20 is_stmt 0 view .LVU410
 1274 0164 BDE7     		b	.L69
 1275              	.L102:
 633:./Libraries/STM32H7xx_HAL_Driver/Src/stm32h7xx_hal_nand.c ****         __DSB();
 1276              		.loc 1 633 9 is_stmt 1 view .LVU411
 633:./Libraries/STM32H7xx_HAL_Driver/Src/stm32h7xx_hal_nand.c ****         __DSB();
 1277              		.loc 1 633 65 is_stmt 0 view .LVU412
 1278 0166 89F80030 		strb	r3, [r9]
 634:./Libraries/STM32H7xx_HAL_Driver/Src/stm32h7xx_hal_nand.c ****       }
 1279              		.loc 1 634 9 is_stmt 1 view .LVU413
 1280              	.LBB710:
 1281              	.LBI710:
 944:./Libraries/CMSIS/Core/Include/cmsis_gcc.h **** {
 1282              		.loc 2 944 27 view .LVU414
 1283              	.LBB711:
 946:./Libraries/CMSIS/Core/Include/cmsis_gcc.h **** }
 1284              		.loc 2 946 3 view .LVU415
 1285              		.syntax unified
 1286              	@ 946 "./Libraries/CMSIS/Core/Include/cmsis_gcc.h" 1
 1287 016a BFF34F8F 		dsb 0xF
 1288              	@ 0 "" 2
 1289              		.loc 2 947 1 is_stmt 0 view .LVU416
 1290              		.thumb
 1291              		.syntax unified
 1292 016e 9CE7     		b	.L76
 1293              	.LVL65:
 1294              	.L83:
 1295              		.loc 2 947 1 view .LVU417
 1296              	.LBE711:
 1297              	.LBE710:
 533:./Libraries/STM32H7xx_HAL_Driver/Src/stm32h7xx_hal_nand.c ****   }
ARM GAS  /tmp/cc5RRSLv.s 			page 83


 1298              		.loc 1 533 12 view .LVU418
 1299 0170 0220     		movs	r0, #2
 1300 0172 B6E7     		b	.L69
 1301              	.L104:
 1302              		.align	2
 1303              	.L103:
 1304 0174 00000280 		.word	-2147352576
 1305 0178 00000180 		.word	-2147418112
 1306              		.cfi_endproc
 1307              	.LFE340:
 1309              		.section	.text.HAL_NAND_Read_Page_16b,"ax",%progbits
 1310              		.align	1
 1311              		.p2align 2,,3
 1312              		.global	HAL_NAND_Read_Page_16b
 1313              		.syntax unified
 1314              		.thumb
 1315              		.thumb_func
 1316              		.fpu fpv5-d16
 1318              	HAL_NAND_Read_Page_16b:
 1319              	.LVL66:
 1320              	.LFB341:
 679:./Libraries/STM32H7xx_HAL_Driver/Src/stm32h7xx_hal_nand.c ****   uint32_t index;
 1321              		.loc 1 679 1 is_stmt 1 view -0
 1322              		.cfi_startproc
 1323              		@ args = 0, pretend = 0, frame = 8
 1324              		@ frame_needed = 0, uses_anonymous_args = 0
 679:./Libraries/STM32H7xx_HAL_Driver/Src/stm32h7xx_hal_nand.c ****   uint32_t index;
 1325              		.loc 1 679 1 is_stmt 0 view .LVU420
 1326 0000 2DE9F04F 		push	{r4, r5, r6, r7, r8, r9, r10, fp, lr}
 1327              	.LCFI22:
 1328              		.cfi_def_cfa_offset 36
 1329              		.cfi_offset 4, -36
 1330              		.cfi_offset 5, -32
 1331              		.cfi_offset 6, -28
 1332              		.cfi_offset 7, -24
 1333              		.cfi_offset 8, -20
 1334              		.cfi_offset 9, -16
 1335              		.cfi_offset 10, -12
 1336              		.cfi_offset 11, -8
 1337              		.cfi_offset 14, -4
 1338 0004 1746     		mov	r7, r2
 680:./Libraries/STM32H7xx_HAL_Driver/Src/stm32h7xx_hal_nand.c ****   uint32_t tickstart;
 1339              		.loc 1 680 3 is_stmt 1 view .LVU421
 681:./Libraries/STM32H7xx_HAL_Driver/Src/stm32h7xx_hal_nand.c ****   uint32_t deviceaddress;
 1340              		.loc 1 681 3 view .LVU422
 682:./Libraries/STM32H7xx_HAL_Driver/Src/stm32h7xx_hal_nand.c ****   uint32_t numpagesread = 0U;
 1341              		.loc 1 682 3 view .LVU423
 683:./Libraries/STM32H7xx_HAL_Driver/Src/stm32h7xx_hal_nand.c ****   uint32_t nandaddress;
 1342              		.loc 1 683 3 view .LVU424
 1343              	.LVL67:
 684:./Libraries/STM32H7xx_HAL_Driver/Src/stm32h7xx_hal_nand.c ****   uint32_t nbpages = NumPageToRead;
 1344              		.loc 1 684 3 view .LVU425
 685:./Libraries/STM32H7xx_HAL_Driver/Src/stm32h7xx_hal_nand.c ****   uint16_t *buff = pBuffer;
 1345              		.loc 1 685 3 view .LVU426
 686:./Libraries/STM32H7xx_HAL_Driver/Src/stm32h7xx_hal_nand.c **** 
 1346              		.loc 1 686 3 view .LVU427
 689:./Libraries/STM32H7xx_HAL_Driver/Src/stm32h7xx_hal_nand.c ****   {
ARM GAS  /tmp/cc5RRSLv.s 			page 84


 1347              		.loc 1 689 3 view .LVU428
 689:./Libraries/STM32H7xx_HAL_Driver/Src/stm32h7xx_hal_nand.c ****   {
 1348              		.loc 1 689 12 is_stmt 0 view .LVU429
 1349 0006 90F82120 		ldrb	r2, [r0, #33]	@ zero_extendqisi2
 1350              	.LVL68:
 679:./Libraries/STM32H7xx_HAL_Driver/Src/stm32h7xx_hal_nand.c ****   uint32_t index;
 1351              		.loc 1 679 1 view .LVU430
 1352 000a 0446     		mov	r4, r0
 1353 000c 83B0     		sub	sp, sp, #12
 1354              	.LCFI23:
 1355              		.cfi_def_cfa_offset 48
 689:./Libraries/STM32H7xx_HAL_Driver/Src/stm32h7xx_hal_nand.c ****   {
 1356              		.loc 1 689 6 view .LVU431
 1357 000e 022A     		cmp	r2, #2
 689:./Libraries/STM32H7xx_HAL_Driver/Src/stm32h7xx_hal_nand.c ****   {
 1358              		.loc 1 689 12 view .LVU432
 1359 0010 D0B2     		uxtb	r0, r2
 1360              	.LVL69:
 689:./Libraries/STM32H7xx_HAL_Driver/Src/stm32h7xx_hal_nand.c ****   {
 1361              		.loc 1 689 6 view .LVU433
 1362 0012 6DD0     		beq	.L106
 693:./Libraries/STM32H7xx_HAL_Driver/Src/stm32h7xx_hal_nand.c ****   {
 1363              		.loc 1 693 8 is_stmt 1 view .LVU434
 693:./Libraries/STM32H7xx_HAL_Driver/Src/stm32h7xx_hal_nand.c ****   {
 1364              		.loc 1 693 17 is_stmt 0 view .LVU435
 1365 0014 94F82120 		ldrb	r2, [r4, #33]	@ zero_extendqisi2
 693:./Libraries/STM32H7xx_HAL_Driver/Src/stm32h7xx_hal_nand.c ****   {
 1366              		.loc 1 693 11 view .LVU436
 1367 0018 012A     		cmp	r2, #1
 693:./Libraries/STM32H7xx_HAL_Driver/Src/stm32h7xx_hal_nand.c ****   {
 1368              		.loc 1 693 17 view .LVU437
 1369 001a D0B2     		uxtb	r0, r2
 693:./Libraries/STM32H7xx_HAL_Driver/Src/stm32h7xx_hal_nand.c ****   {
 1370              		.loc 1 693 11 view .LVU438
 1371 001c 6BD1     		bne	.L121
 696:./Libraries/STM32H7xx_HAL_Driver/Src/stm32h7xx_hal_nand.c **** 
 1372              		.loc 1 696 5 is_stmt 1 view .LVU439
 696:./Libraries/STM32H7xx_HAL_Driver/Src/stm32h7xx_hal_nand.c **** 
 1373              		.loc 1 696 5 view .LVU440
 1374 001e 94F82020 		ldrb	r2, [r4, #32]	@ zero_extendqisi2
 1375 0022 012A     		cmp	r2, #1
 1376 0024 00F0AB80 		beq	.L122
 696:./Libraries/STM32H7xx_HAL_Driver/Src/stm32h7xx_hal_nand.c **** 
 1377              		.loc 1 696 5 discriminator 2 view .LVU441
 699:./Libraries/STM32H7xx_HAL_Driver/Src/stm32h7xx_hal_nand.c **** 
 1378              		.loc 1 699 18 is_stmt 0 discriminator 2 view .LVU442
 1379 0028 0222     		movs	r2, #2
 696:./Libraries/STM32H7xx_HAL_Driver/Src/stm32h7xx_hal_nand.c **** 
 1380              		.loc 1 696 5 discriminator 2 view .LVU443
 1381 002a 84F82000 		strb	r0, [r4, #32]
 696:./Libraries/STM32H7xx_HAL_Driver/Src/stm32h7xx_hal_nand.c **** 
 1382              		.loc 1 696 5 is_stmt 1 discriminator 2 view .LVU444
 699:./Libraries/STM32H7xx_HAL_Driver/Src/stm32h7xx_hal_nand.c **** 
 1383              		.loc 1 699 5 discriminator 2 view .LVU445
 705:./Libraries/STM32H7xx_HAL_Driver/Src/stm32h7xx_hal_nand.c **** 
 1384              		.loc 1 705 19 is_stmt 0 discriminator 2 view .LVU446
 1385 002e A06B     		ldr	r0, [r4, #56]
ARM GAS  /tmp/cc5RRSLv.s 			page 85


 699:./Libraries/STM32H7xx_HAL_Driver/Src/stm32h7xx_hal_nand.c **** 
 1386              		.loc 1 699 18 discriminator 2 view .LVU447
 1387 0030 84F82120 		strb	r2, [r4, #33]
 702:./Libraries/STM32H7xx_HAL_Driver/Src/stm32h7xx_hal_nand.c **** 
 1388              		.loc 1 702 5 is_stmt 1 discriminator 2 view .LVU448
 1389              	.LVL70:
 705:./Libraries/STM32H7xx_HAL_Driver/Src/stm32h7xx_hal_nand.c **** 
 1390              		.loc 1 705 5 discriminator 2 view .LVU449
 705:./Libraries/STM32H7xx_HAL_Driver/Src/stm32h7xx_hal_nand.c **** 
 1391              		.loc 1 705 19 is_stmt 0 discriminator 2 view .LVU450
 1392 0034 8A88     		ldrh	r2, [r1, #4]
 1393 0036 4D88     		ldrh	r5, [r1, #2]
 1394 0038 0988     		ldrh	r1, [r1]
 1395              	.LVL71:
 705:./Libraries/STM32H7xx_HAL_Driver/Src/stm32h7xx_hal_nand.c **** 
 1396              		.loc 1 705 19 discriminator 2 view .LVU451
 1397 003a 00FB0525 		mla	r5, r0, r5, r2
 1398 003e E26A     		ldr	r2, [r4, #44]
 705:./Libraries/STM32H7xx_HAL_Driver/Src/stm32h7xx_hal_nand.c **** 
 1399              		.loc 1 705 17 discriminator 2 view .LVU452
 1400 0040 02FB0515 		mla	r5, r2, r5, r1
 1401              	.LVL72:
 708:./Libraries/STM32H7xx_HAL_Driver/Src/stm32h7xx_hal_nand.c ****     {
 1402              		.loc 1 708 5 is_stmt 1 discriminator 2 view .LVU453
 708:./Libraries/STM32H7xx_HAL_Driver/Src/stm32h7xx_hal_nand.c ****     {
 1403              		.loc 1 708 11 discriminator 2 view .LVU454
 1404 0044 002B     		cmp	r3, #0
 1405 0046 4CD0     		beq	.L107
 1406 0048 03EB050A 		add	r10, r3, r5
 708:./Libraries/STM32H7xx_HAL_Driver/Src/stm32h7xx_hal_nand.c ****     {
 1407              		.loc 1 708 73 is_stmt 0 view .LVU455
 1408 004c 236B     		ldr	r3, [r4, #48]
 1409              	.LVL73:
 711:./Libraries/STM32H7xx_HAL_Driver/Src/stm32h7xx_hal_nand.c ****       __DSB();
 1410              		.loc 1 711 63 view .LVU456
 1411 004e DFF83891 		ldr	r9, .L142+4
 1412 0052 4FF00008 		mov	r8, #0
 708:./Libraries/STM32H7xx_HAL_Driver/Src/stm32h7xx_hal_nand.c ****     {
 1413              		.loc 1 708 73 view .LVU457
 1414 0056 03FB02F3 		mul	r3, r3, r2
 753:./Libraries/STM32H7xx_HAL_Driver/Src/stm32h7xx_hal_nand.c ****           __DSB();
 1415              		.loc 1 753 68 view .LVU458
 1416 005a 4A4E     		ldr	r6, .L142
 708:./Libraries/STM32H7xx_HAL_Driver/Src/stm32h7xx_hal_nand.c ****     {
 1417              		.loc 1 708 28 view .LVU459
 1418 005c AB42     		cmp	r3, r5
 1419 005e 40D9     		bls	.L107
 1420              	.LVL74:
 1421              	.L120:
 711:./Libraries/STM32H7xx_HAL_Driver/Src/stm32h7xx_hal_nand.c ****       __DSB();
 1422              		.loc 1 711 7 is_stmt 1 view .LVU460
 711:./Libraries/STM32H7xx_HAL_Driver/Src/stm32h7xx_hal_nand.c ****       __DSB();
 1423              		.loc 1 711 63 is_stmt 0 view .LVU461
 1424 0060 89F80080 		strb	r8, [r9]
 712:./Libraries/STM32H7xx_HAL_Driver/Src/stm32h7xx_hal_nand.c **** 
 1425              		.loc 1 712 7 is_stmt 1 view .LVU462
 1426              	.LBB712:
ARM GAS  /tmp/cc5RRSLv.s 			page 86


 1427              	.LBI712:
 944:./Libraries/CMSIS/Core/Include/cmsis_gcc.h **** {
 1428              		.loc 2 944 27 view .LVU463
 1429              	.LBB713:
 946:./Libraries/CMSIS/Core/Include/cmsis_gcc.h **** }
 1430              		.loc 2 946 3 view .LVU464
 1431              		.syntax unified
 1432              	@ 946 "./Libraries/CMSIS/Core/Include/cmsis_gcc.h" 1
 1433 0064 BFF34F8F 		dsb 0xF
 1434              	@ 0 "" 2
 1435              		.thumb
 1436              		.syntax unified
 1437              	.LBE713:
 1438              	.LBE712:
 715:./Libraries/STM32H7xx_HAL_Driver/Src/stm32h7xx_hal_nand.c ****       {
 1439              		.loc 1 715 7 view .LVU465
 715:./Libraries/STM32H7xx_HAL_Driver/Src/stm32h7xx_hal_nand.c ****       {
 1440              		.loc 1 715 10 is_stmt 0 view .LVU466
 1441 0068 636A     		ldr	r3, [r4, #36]
 717:./Libraries/STM32H7xx_HAL_Driver/Src/stm32h7xx_hal_nand.c ****         {
 1442              		.loc 1 717 40 view .LVU467
 1443 006a E26A     		ldr	r2, [r4, #44]
 715:./Libraries/STM32H7xx_HAL_Driver/Src/stm32h7xx_hal_nand.c ****       {
 1444              		.loc 1 715 10 view .LVU468
 1445 006c B3F5007F 		cmp	r3, #512
 717:./Libraries/STM32H7xx_HAL_Driver/Src/stm32h7xx_hal_nand.c ****         {
 1446              		.loc 1 717 40 view .LVU469
 1447 0070 236B     		ldr	r3, [r4, #48]
 719:./Libraries/STM32H7xx_HAL_Driver/Src/stm32h7xx_hal_nand.c ****           __DSB();
 1448              		.loc 1 719 68 view .LVU470
 1449 0072 86F80080 		strb	r8, [r6]
 717:./Libraries/STM32H7xx_HAL_Driver/Src/stm32h7xx_hal_nand.c ****         {
 1450              		.loc 1 717 40 view .LVU471
 1451 0076 03FB02F3 		mul	r3, r3, r2
 715:./Libraries/STM32H7xx_HAL_Driver/Src/stm32h7xx_hal_nand.c ****       {
 1452              		.loc 1 715 10 view .LVU472
 1453 007a 55D8     		bhi	.L109
 717:./Libraries/STM32H7xx_HAL_Driver/Src/stm32h7xx_hal_nand.c ****         {
 1454              		.loc 1 717 9 is_stmt 1 view .LVU473
 717:./Libraries/STM32H7xx_HAL_Driver/Src/stm32h7xx_hal_nand.c ****         {
 1455              		.loc 1 717 12 is_stmt 0 view .LVU474
 1456 007c B3F5803F 		cmp	r3, #65536
 1457 0080 41D2     		bcs	.L139
 1458              	.L138:
 745:./Libraries/STM32H7xx_HAL_Driver/Src/stm32h7xx_hal_nand.c ****           *(__IO uint8_t *)((uint32_t)(deviceaddress | ADDR_AREA)) = ADDR_1ST_CYCLE(nandaddress);
 1459              		.loc 1 745 11 is_stmt 1 view .LVU475
 1460              	.LBB714:
 1461              	.LBI714:
 944:./Libraries/CMSIS/Core/Include/cmsis_gcc.h **** {
 1462              		.loc 2 944 27 view .LVU476
 1463              	.LBB715:
 946:./Libraries/CMSIS/Core/Include/cmsis_gcc.h **** }
 1464              		.loc 2 946 3 view .LVU477
 1465              		.syntax unified
 1466              	@ 946 "./Libraries/CMSIS/Core/Include/cmsis_gcc.h" 1
 1467 0082 BFF34F8F 		dsb 0xF
 1468              	@ 0 "" 2
ARM GAS  /tmp/cc5RRSLv.s 			page 87


 1469              		.thumb
 1470              		.syntax unified
 1471              	.LBE715:
 1472              	.LBE714:
 746:./Libraries/STM32H7xx_HAL_Driver/Src/stm32h7xx_hal_nand.c ****           __DSB();
 1473              		.loc 1 746 11 view .LVU478
 1474 0086 EBB2     		uxtb	r3, r5
 746:./Libraries/STM32H7xx_HAL_Driver/Src/stm32h7xx_hal_nand.c ****           __DSB();
 1475              		.loc 1 746 68 is_stmt 0 view .LVU479
 1476 0088 3370     		strb	r3, [r6]
 747:./Libraries/STM32H7xx_HAL_Driver/Src/stm32h7xx_hal_nand.c ****           *(__IO uint8_t *)((uint32_t)(deviceaddress | ADDR_AREA)) = ADDR_2ND_CYCLE(nandaddress);
 1477              		.loc 1 747 11 is_stmt 1 view .LVU480
 1478              	.LBB716:
 1479              	.LBI716:
 944:./Libraries/CMSIS/Core/Include/cmsis_gcc.h **** {
 1480              		.loc 2 944 27 view .LVU481
 1481              	.LBB717:
 946:./Libraries/CMSIS/Core/Include/cmsis_gcc.h **** }
 1482              		.loc 2 946 3 view .LVU482
 1483              		.syntax unified
 1484              	@ 946 "./Libraries/CMSIS/Core/Include/cmsis_gcc.h" 1
 1485 008a BFF34F8F 		dsb 0xF
 1486              	@ 0 "" 2
 1487              		.thumb
 1488              		.syntax unified
 1489              	.LBE717:
 1490              	.LBE716:
 748:./Libraries/STM32H7xx_HAL_Driver/Src/stm32h7xx_hal_nand.c ****           __DSB();
 1491              		.loc 1 748 11 view .LVU483
 748:./Libraries/STM32H7xx_HAL_Driver/Src/stm32h7xx_hal_nand.c ****           __DSB();
 1492              		.loc 1 748 70 is_stmt 0 view .LVU484
 1493 008e C5F30723 		ubfx	r3, r5, #8, #8
 748:./Libraries/STM32H7xx_HAL_Driver/Src/stm32h7xx_hal_nand.c ****           __DSB();
 1494              		.loc 1 748 68 view .LVU485
 1495 0092 3370     		strb	r3, [r6]
 749:./Libraries/STM32H7xx_HAL_Driver/Src/stm32h7xx_hal_nand.c ****         }
 1496              		.loc 1 749 11 is_stmt 1 view .LVU486
 1497              	.LBB718:
 1498              	.LBI718:
 944:./Libraries/CMSIS/Core/Include/cmsis_gcc.h **** {
 1499              		.loc 2 944 27 view .LVU487
 1500              	.LBB719:
 946:./Libraries/CMSIS/Core/Include/cmsis_gcc.h **** }
 1501              		.loc 2 946 3 view .LVU488
 1502              		.syntax unified
 1503              	@ 946 "./Libraries/CMSIS/Core/Include/cmsis_gcc.h" 1
 1504 0094 BFF34F8F 		dsb 0xF
 1505              	@ 0 "" 2
 1506              		.thumb
 1507              		.syntax unified
 1508              	.L111:
 946:./Libraries/CMSIS/Core/Include/cmsis_gcc.h **** }
 1509              		.loc 2 946 3 is_stmt 0 view .LVU489
 1510              	.LBE719:
 1511              	.LBE718:
 766:./Libraries/STM32H7xx_HAL_Driver/Src/stm32h7xx_hal_nand.c ****       __DSB();
 1512              		.loc 1 766 7 is_stmt 1 view .LVU490
ARM GAS  /tmp/cc5RRSLv.s 			page 88


 766:./Libraries/STM32H7xx_HAL_Driver/Src/stm32h7xx_hal_nand.c ****       __DSB();
 1513              		.loc 1 766 64 is_stmt 0 view .LVU491
 1514 0098 3023     		movs	r3, #48
 1515 009a 89F80030 		strb	r3, [r9]
 767:./Libraries/STM32H7xx_HAL_Driver/Src/stm32h7xx_hal_nand.c **** 
 1516              		.loc 1 767 7 is_stmt 1 view .LVU492
 1517              	.LBB720:
 1518              	.LBI720:
 944:./Libraries/CMSIS/Core/Include/cmsis_gcc.h **** {
 1519              		.loc 2 944 27 view .LVU493
 1520              	.LBB721:
 946:./Libraries/CMSIS/Core/Include/cmsis_gcc.h **** }
 1521              		.loc 2 946 3 view .LVU494
 1522              		.syntax unified
 1523              	@ 946 "./Libraries/CMSIS/Core/Include/cmsis_gcc.h" 1
 1524 009e BFF34F8F 		dsb 0xF
 1525              	@ 0 "" 2
 1526              		.thumb
 1527              		.syntax unified
 1528              	.LBE721:
 1529              	.LBE720:
 769:./Libraries/STM32H7xx_HAL_Driver/Src/stm32h7xx_hal_nand.c ****       {
 1530              		.loc 1 769 7 view .LVU495
 769:./Libraries/STM32H7xx_HAL_Driver/Src/stm32h7xx_hal_nand.c ****       {
 1531              		.loc 1 769 10 is_stmt 0 view .LVU496
 1532 00a2 94F83C30 		ldrb	r3, [r4, #60]	@ zero_extendqisi2
 1533 00a6 012B     		cmp	r3, #1
 1534 00a8 46D0     		beq	.L140
 1535              	.L113:
 795:./Libraries/STM32H7xx_HAL_Driver/Src/stm32h7xx_hal_nand.c ****       {
 1536              		.loc 1 795 7 is_stmt 1 view .LVU497
 795:./Libraries/STM32H7xx_HAL_Driver/Src/stm32h7xx_hal_nand.c ****       {
 1537              		.loc 1 795 10 is_stmt 0 view .LVU498
 1538 00aa E368     		ldr	r3, [r4, #12]
 797:./Libraries/STM32H7xx_HAL_Driver/Src/stm32h7xx_hal_nand.c ****       }
 1539              		.loc 1 797 57 view .LVU499
 1540 00ac 606A     		ldr	r0, [r4, #36]
 795:./Libraries/STM32H7xx_HAL_Driver/Src/stm32h7xx_hal_nand.c ****       {
 1541              		.loc 1 795 10 view .LVU500
 1542 00ae 0BB9     		cbnz	r3, .L117
 797:./Libraries/STM32H7xx_HAL_Driver/Src/stm32h7xx_hal_nand.c ****       }
 1543              		.loc 1 797 9 is_stmt 1 view .LVU501
 797:./Libraries/STM32H7xx_HAL_Driver/Src/stm32h7xx_hal_nand.c ****       }
 1544              		.loc 1 797 57 is_stmt 0 view .LVU502
 1545 00b0 4008     		lsrs	r0, r0, #1
 797:./Libraries/STM32H7xx_HAL_Driver/Src/stm32h7xx_hal_nand.c ****       }
 1546              		.loc 1 797 32 view .LVU503
 1547 00b2 6062     		str	r0, [r4, #36]
 1548              	.L117:
 1549              	.LVL75:
 806:./Libraries/STM32H7xx_HAL_Driver/Src/stm32h7xx_hal_nand.c ****       {
 1550              		.loc 1 806 24 is_stmt 1 discriminator 1 view .LVU504
 806:./Libraries/STM32H7xx_HAL_Driver/Src/stm32h7xx_hal_nand.c ****       {
 1551              		.loc 1 806 7 is_stmt 0 discriminator 1 view .LVU505
 1552 00b4 60B1     		cbz	r0, .L118
 806:./Libraries/STM32H7xx_HAL_Driver/Src/stm32h7xx_hal_nand.c ****       {
 1553              		.loc 1 806 7 view .LVU506
ARM GAS  /tmp/cc5RRSLv.s 			page 89


 1554 00b6 3A46     		mov	r2, r7
 1555 00b8 0023     		movs	r3, #0
 808:./Libraries/STM32H7xx_HAL_Driver/Src/stm32h7xx_hal_nand.c ****         buff++;
 1556              		.loc 1 808 17 view .LVU507
 1557 00ba 4FF0004C 		mov	ip, #-2147483648
 1558              	.LVL76:
 1559              	.L119:
 808:./Libraries/STM32H7xx_HAL_Driver/Src/stm32h7xx_hal_nand.c ****         buff++;
 1560              		.loc 1 808 9 is_stmt 1 discriminator 3 view .LVU508
 806:./Libraries/STM32H7xx_HAL_Driver/Src/stm32h7xx_hal_nand.c ****       {
 1561              		.loc 1 806 61 is_stmt 0 discriminator 3 view .LVU509
 1562 00be 0133     		adds	r3, r3, #1
 1563              	.LVL77:
 808:./Libraries/STM32H7xx_HAL_Driver/Src/stm32h7xx_hal_nand.c ****         buff++;
 1564              		.loc 1 808 17 discriminator 3 view .LVU510
 1565 00c0 BCF80010 		ldrh	r1, [ip]
 806:./Libraries/STM32H7xx_HAL_Driver/Src/stm32h7xx_hal_nand.c ****       {
 1566              		.loc 1 806 7 discriminator 3 view .LVU511
 1567 00c4 9842     		cmp	r0, r3
 808:./Libraries/STM32H7xx_HAL_Driver/Src/stm32h7xx_hal_nand.c ****         buff++;
 1568              		.loc 1 808 15 discriminator 3 view .LVU512
 1569 00c6 22F8021B 		strh	r1, [r2], #2	@ movhi
 1570              	.LVL78:
 809:./Libraries/STM32H7xx_HAL_Driver/Src/stm32h7xx_hal_nand.c ****       }
 1571              		.loc 1 809 9 is_stmt 1 discriminator 3 view .LVU513
 806:./Libraries/STM32H7xx_HAL_Driver/Src/stm32h7xx_hal_nand.c ****       {
 1572              		.loc 1 806 56 discriminator 3 view .LVU514
 806:./Libraries/STM32H7xx_HAL_Driver/Src/stm32h7xx_hal_nand.c ****       {
 1573              		.loc 1 806 24 discriminator 3 view .LVU515
 806:./Libraries/STM32H7xx_HAL_Driver/Src/stm32h7xx_hal_nand.c ****       {
 1574              		.loc 1 806 7 is_stmt 0 discriminator 3 view .LVU516
 1575 00ca F8D1     		bne	.L119
 1576 00cc 07EB4007 		add	r7, r7, r0, lsl #1
 1577              	.LVL79:
 1578              	.L118:
 813:./Libraries/STM32H7xx_HAL_Driver/Src/stm32h7xx_hal_nand.c **** 
 1579              		.loc 1 813 7 is_stmt 1 view .LVU517
 816:./Libraries/STM32H7xx_HAL_Driver/Src/stm32h7xx_hal_nand.c **** 
 1580              		.loc 1 816 7 view .LVU518
 819:./Libraries/STM32H7xx_HAL_Driver/Src/stm32h7xx_hal_nand.c ****     }
 1581              		.loc 1 819 7 view .LVU519
 819:./Libraries/STM32H7xx_HAL_Driver/Src/stm32h7xx_hal_nand.c ****     }
 1582              		.loc 1 819 19 is_stmt 0 view .LVU520
 1583 00d0 0135     		adds	r5, r5, #1
 1584              	.LVL80:
 708:./Libraries/STM32H7xx_HAL_Driver/Src/stm32h7xx_hal_nand.c ****     {
 1585              		.loc 1 708 11 is_stmt 1 view .LVU521
 1586 00d2 AA45     		cmp	r10, r5
 1587 00d4 05D0     		beq	.L107
 1588 00d6 E26A     		ldr	r2, [r4, #44]
 1589              	.LVL81:
 708:./Libraries/STM32H7xx_HAL_Driver/Src/stm32h7xx_hal_nand.c ****     {
 1590              		.loc 1 708 73 is_stmt 0 view .LVU522
 1591 00d8 236B     		ldr	r3, [r4, #48]
 1592 00da 03FB02F3 		mul	r3, r3, r2
 708:./Libraries/STM32H7xx_HAL_Driver/Src/stm32h7xx_hal_nand.c ****     {
 1593              		.loc 1 708 28 view .LVU523
ARM GAS  /tmp/cc5RRSLv.s 			page 90


 1594 00de AB42     		cmp	r3, r5
 1595 00e0 BED8     		bhi	.L120
 1596              	.LVL82:
 1597              	.L107:
 823:./Libraries/STM32H7xx_HAL_Driver/Src/stm32h7xx_hal_nand.c **** 
 1598              		.loc 1 823 5 is_stmt 1 view .LVU524
 826:./Libraries/STM32H7xx_HAL_Driver/Src/stm32h7xx_hal_nand.c ****   }
 1599              		.loc 1 826 5 is_stmt 0 view .LVU525
 1600 00e2 0023     		movs	r3, #0
 823:./Libraries/STM32H7xx_HAL_Driver/Src/stm32h7xx_hal_nand.c **** 
 1601              		.loc 1 823 18 view .LVU526
 1602 00e4 0122     		movs	r2, #1
 833:./Libraries/STM32H7xx_HAL_Driver/Src/stm32h7xx_hal_nand.c **** }
 1603              		.loc 1 833 10 view .LVU527
 1604 00e6 1846     		mov	r0, r3
 823:./Libraries/STM32H7xx_HAL_Driver/Src/stm32h7xx_hal_nand.c **** 
 1605              		.loc 1 823 18 view .LVU528
 1606 00e8 84F82120 		strb	r2, [r4, #33]
 826:./Libraries/STM32H7xx_HAL_Driver/Src/stm32h7xx_hal_nand.c ****   }
 1607              		.loc 1 826 5 is_stmt 1 view .LVU529
 826:./Libraries/STM32H7xx_HAL_Driver/Src/stm32h7xx_hal_nand.c ****   }
 1608              		.loc 1 826 5 view .LVU530
 1609 00ec 84F82030 		strb	r3, [r4, #32]
 826:./Libraries/STM32H7xx_HAL_Driver/Src/stm32h7xx_hal_nand.c ****   }
 1610              		.loc 1 826 5 view .LVU531
 833:./Libraries/STM32H7xx_HAL_Driver/Src/stm32h7xx_hal_nand.c **** }
 1611              		.loc 1 833 3 view .LVU532
 1612              	.LVL83:
 1613              	.L106:
 834:./Libraries/STM32H7xx_HAL_Driver/Src/stm32h7xx_hal_nand.c **** 
 1614              		.loc 1 834 1 is_stmt 0 view .LVU533
 1615 00f0 03B0     		add	sp, sp, #12
 1616              	.LCFI24:
 1617              		.cfi_remember_state
 1618              		.cfi_def_cfa_offset 36
 1619              		@ sp needed
 1620 00f2 BDE8F08F 		pop	{r4, r5, r6, r7, r8, r9, r10, fp, pc}
 1621              	.LVL84:
 1622              	.L121:
 1623              	.LCFI25:
 1624              		.cfi_restore_state
 830:./Libraries/STM32H7xx_HAL_Driver/Src/stm32h7xx_hal_nand.c ****   }
 1625              		.loc 1 830 12 view .LVU534
 1626 00f6 0120     		movs	r0, #1
 834:./Libraries/STM32H7xx_HAL_Driver/Src/stm32h7xx_hal_nand.c **** 
 1627              		.loc 1 834 1 view .LVU535
 1628 00f8 03B0     		add	sp, sp, #12
 1629              	.LCFI26:
 1630              		.cfi_remember_state
 1631              		.cfi_def_cfa_offset 36
 1632              		@ sp needed
 1633 00fa BDE8F08F 		pop	{r4, r5, r6, r7, r8, r9, r10, fp, pc}
 1634              	.LVL85:
 1635              	.L112:
 1636              	.LCFI27:
 1637              		.cfi_restore_state
 753:./Libraries/STM32H7xx_HAL_Driver/Src/stm32h7xx_hal_nand.c ****           __DSB();
ARM GAS  /tmp/cc5RRSLv.s 			page 91


 1638              		.loc 1 753 11 is_stmt 1 view .LVU536
 754:./Libraries/STM32H7xx_HAL_Driver/Src/stm32h7xx_hal_nand.c ****           *(__IO uint8_t *)((uint32_t)(deviceaddress | ADDR_AREA)) = 0x00U;
 1639              		.loc 1 754 11 view .LVU537
 1640              	.LBB722:
 1641              	.LBI722:
 944:./Libraries/CMSIS/Core/Include/cmsis_gcc.h **** {
 1642              		.loc 2 944 27 view .LVU538
 1643              	.LBB723:
 946:./Libraries/CMSIS/Core/Include/cmsis_gcc.h **** }
 1644              		.loc 2 946 3 view .LVU539
 1645              		.syntax unified
 1646              	@ 946 "./Libraries/CMSIS/Core/Include/cmsis_gcc.h" 1
 1647 00fe BFF34F8F 		dsb 0xF
 1648              	@ 0 "" 2
 1649              		.thumb
 1650              		.syntax unified
 1651              	.LBE723:
 1652              	.LBE722:
 755:./Libraries/STM32H7xx_HAL_Driver/Src/stm32h7xx_hal_nand.c ****           __DSB();
 1653              		.loc 1 755 11 view .LVU540
 755:./Libraries/STM32H7xx_HAL_Driver/Src/stm32h7xx_hal_nand.c ****           __DSB();
 1654              		.loc 1 755 68 is_stmt 0 view .LVU541
 1655 0102 86F80080 		strb	r8, [r6]
 1656              	.L139:
 756:./Libraries/STM32H7xx_HAL_Driver/Src/stm32h7xx_hal_nand.c ****           *(__IO uint8_t *)((uint32_t)(deviceaddress | ADDR_AREA)) = ADDR_1ST_CYCLE(nandaddress);
 1657              		.loc 1 756 11 is_stmt 1 view .LVU542
 1658              	.LBB724:
 1659              	.LBI724:
 944:./Libraries/CMSIS/Core/Include/cmsis_gcc.h **** {
 1660              		.loc 2 944 27 view .LVU543
 1661              	.LBB725:
 946:./Libraries/CMSIS/Core/Include/cmsis_gcc.h **** }
 1662              		.loc 2 946 3 view .LVU544
 1663              		.syntax unified
 1664              	@ 946 "./Libraries/CMSIS/Core/Include/cmsis_gcc.h" 1
 1665 0106 BFF34F8F 		dsb 0xF
 1666              	@ 0 "" 2
 1667              		.thumb
 1668              		.syntax unified
 1669              	.LBE725:
 1670              	.LBE724:
 757:./Libraries/STM32H7xx_HAL_Driver/Src/stm32h7xx_hal_nand.c ****           __DSB();
 1671              		.loc 1 757 11 view .LVU545
 1672 010a EBB2     		uxtb	r3, r5
 757:./Libraries/STM32H7xx_HAL_Driver/Src/stm32h7xx_hal_nand.c ****           __DSB();
 1673              		.loc 1 757 68 is_stmt 0 view .LVU546
 1674 010c 3370     		strb	r3, [r6]
 758:./Libraries/STM32H7xx_HAL_Driver/Src/stm32h7xx_hal_nand.c ****           *(__IO uint8_t *)((uint32_t)(deviceaddress | ADDR_AREA)) = ADDR_2ND_CYCLE(nandaddress);
 1675              		.loc 1 758 11 is_stmt 1 view .LVU547
 1676              	.LBB726:
 1677              	.LBI726:
 944:./Libraries/CMSIS/Core/Include/cmsis_gcc.h **** {
 1678              		.loc 2 944 27 view .LVU548
 1679              	.LBB727:
 946:./Libraries/CMSIS/Core/Include/cmsis_gcc.h **** }
 1680              		.loc 2 946 3 view .LVU549
 1681              		.syntax unified
ARM GAS  /tmp/cc5RRSLv.s 			page 92


 1682              	@ 946 "./Libraries/CMSIS/Core/Include/cmsis_gcc.h" 1
 1683 010e BFF34F8F 		dsb 0xF
 1684              	@ 0 "" 2
 1685              		.thumb
 1686              		.syntax unified
 1687              	.LBE727:
 1688              	.LBE726:
 759:./Libraries/STM32H7xx_HAL_Driver/Src/stm32h7xx_hal_nand.c ****           __DSB();
 1689              		.loc 1 759 11 view .LVU550
 759:./Libraries/STM32H7xx_HAL_Driver/Src/stm32h7xx_hal_nand.c ****           __DSB();
 1690              		.loc 1 759 70 is_stmt 0 view .LVU551
 1691 0112 C5F30723 		ubfx	r3, r5, #8, #8
 759:./Libraries/STM32H7xx_HAL_Driver/Src/stm32h7xx_hal_nand.c ****           __DSB();
 1692              		.loc 1 759 68 view .LVU552
 1693 0116 3370     		strb	r3, [r6]
 760:./Libraries/STM32H7xx_HAL_Driver/Src/stm32h7xx_hal_nand.c ****           *(__IO uint8_t *)((uint32_t)(deviceaddress | ADDR_AREA)) = ADDR_3RD_CYCLE(nandaddress);
 1694              		.loc 1 760 11 is_stmt 1 view .LVU553
 1695              	.LBB728:
 1696              	.LBI728:
 944:./Libraries/CMSIS/Core/Include/cmsis_gcc.h **** {
 1697              		.loc 2 944 27 view .LVU554
 1698              	.LBB729:
 946:./Libraries/CMSIS/Core/Include/cmsis_gcc.h **** }
 1699              		.loc 2 946 3 view .LVU555
 1700              		.syntax unified
 1701              	@ 946 "./Libraries/CMSIS/Core/Include/cmsis_gcc.h" 1
 1702 0118 BFF34F8F 		dsb 0xF
 1703              	@ 0 "" 2
 1704              		.thumb
 1705              		.syntax unified
 1706              	.LBE729:
 1707              	.LBE728:
 761:./Libraries/STM32H7xx_HAL_Driver/Src/stm32h7xx_hal_nand.c ****           __DSB();
 1708              		.loc 1 761 11 view .LVU556
 761:./Libraries/STM32H7xx_HAL_Driver/Src/stm32h7xx_hal_nand.c ****           __DSB();
 1709              		.loc 1 761 70 is_stmt 0 view .LVU557
 1710 011c C5F30743 		ubfx	r3, r5, #16, #8
 761:./Libraries/STM32H7xx_HAL_Driver/Src/stm32h7xx_hal_nand.c ****           __DSB();
 1711              		.loc 1 761 68 view .LVU558
 1712 0120 3370     		strb	r3, [r6]
 762:./Libraries/STM32H7xx_HAL_Driver/Src/stm32h7xx_hal_nand.c ****         }
 1713              		.loc 1 762 11 is_stmt 1 view .LVU559
 1714              	.LBB730:
 1715              	.LBI730:
 944:./Libraries/CMSIS/Core/Include/cmsis_gcc.h **** {
 1716              		.loc 2 944 27 view .LVU560
 1717              	.LBB731:
 946:./Libraries/CMSIS/Core/Include/cmsis_gcc.h **** }
 1718              		.loc 2 946 3 view .LVU561
 1719              		.syntax unified
 1720              	@ 946 "./Libraries/CMSIS/Core/Include/cmsis_gcc.h" 1
 1721 0122 BFF34F8F 		dsb 0xF
 1722              	@ 0 "" 2
 1723              		.loc 2 947 1 is_stmt 0 view .LVU562
 1724              		.thumb
 1725              		.syntax unified
 1726 0126 B7E7     		b	.L111
ARM GAS  /tmp/cc5RRSLv.s 			page 93


 1727              	.L109:
 1728              		.loc 2 947 1 view .LVU563
 1729              	.LBE731:
 1730              	.LBE730:
 740:./Libraries/STM32H7xx_HAL_Driver/Src/stm32h7xx_hal_nand.c ****         {
 1731              		.loc 1 740 9 is_stmt 1 view .LVU564
 740:./Libraries/STM32H7xx_HAL_Driver/Src/stm32h7xx_hal_nand.c ****         {
 1732              		.loc 1 740 12 is_stmt 0 view .LVU565
 1733 0128 B3F5803F 		cmp	r3, #65536
 1734 012c E7D2     		bcs	.L112
 742:./Libraries/STM32H7xx_HAL_Driver/Src/stm32h7xx_hal_nand.c ****           __DSB();
 1735              		.loc 1 742 11 is_stmt 1 view .LVU566
 743:./Libraries/STM32H7xx_HAL_Driver/Src/stm32h7xx_hal_nand.c ****           *(__IO uint8_t *)((uint32_t)(deviceaddress | ADDR_AREA)) = 0x00U;
 1736              		.loc 1 743 11 view .LVU567
 1737              	.LBB732:
 1738              	.LBI732:
 944:./Libraries/CMSIS/Core/Include/cmsis_gcc.h **** {
 1739              		.loc 2 944 27 view .LVU568
 1740              	.LBB733:
 946:./Libraries/CMSIS/Core/Include/cmsis_gcc.h **** }
 1741              		.loc 2 946 3 view .LVU569
 1742              		.syntax unified
 1743              	@ 946 "./Libraries/CMSIS/Core/Include/cmsis_gcc.h" 1
 1744 012e BFF34F8F 		dsb 0xF
 1745              	@ 0 "" 2
 1746              		.thumb
 1747              		.syntax unified
 1748              	.LBE733:
 1749              	.LBE732:
 744:./Libraries/STM32H7xx_HAL_Driver/Src/stm32h7xx_hal_nand.c ****           __DSB();
 1750              		.loc 1 744 11 view .LVU570
 744:./Libraries/STM32H7xx_HAL_Driver/Src/stm32h7xx_hal_nand.c ****           __DSB();
 1751              		.loc 1 744 68 is_stmt 0 view .LVU571
 1752 0132 86F80080 		strb	r8, [r6]
 1753 0136 A4E7     		b	.L138
 1754              	.L140:
 772:./Libraries/STM32H7xx_HAL_Driver/Src/stm32h7xx_hal_nand.c **** 
 1755              		.loc 1 772 9 is_stmt 1 view .LVU572
 1756              	.LBB734:
 1757              	.LBB735:
2204:./Libraries/STM32H7xx_HAL_Driver/Src/stm32h7xx_hal_nand.c **** 
 1758              		.loc 1 2204 59 is_stmt 0 view .LVU573
 1759 0138 4FF0700B 		mov	fp, #112
 1760              	.LBE735:
 1761              	.LBE734:
 772:./Libraries/STM32H7xx_HAL_Driver/Src/stm32h7xx_hal_nand.c **** 
 1762              		.loc 1 772 21 view .LVU574
 1763 013c FFF7FEFF 		bl	HAL_GetTick
 1764              	.LVL86:
 1765 0140 0190     		str	r0, [sp, #4]
 1766              	.LVL87:
 775:./Libraries/STM32H7xx_HAL_Driver/Src/stm32h7xx_hal_nand.c ****         {
 1767              		.loc 1 775 9 is_stmt 1 view .LVU575
 1768              	.L114:
 777:./Libraries/STM32H7xx_HAL_Driver/Src/stm32h7xx_hal_nand.c ****           {
 1769              		.loc 1 777 11 view .LVU576
 775:./Libraries/STM32H7xx_HAL_Driver/Src/stm32h7xx_hal_nand.c ****         {
ARM GAS  /tmp/cc5RRSLv.s 			page 94


 1770              		.loc 1 775 15 view .LVU577
 1771              	.LBB737:
 1772              	.LBI734:
2194:./Libraries/STM32H7xx_HAL_Driver/Src/stm32h7xx_hal_nand.c **** {
 1773              		.loc 1 2194 10 view .LVU578
 1774              	.LBB736:
2196:./Libraries/STM32H7xx_HAL_Driver/Src/stm32h7xx_hal_nand.c ****   uint32_t deviceaddress;
 1775              		.loc 1 2196 3 view .LVU579
2197:./Libraries/STM32H7xx_HAL_Driver/Src/stm32h7xx_hal_nand.c ****   UNUSED(hnand);
 1776              		.loc 1 2197 3 view .LVU580
2198:./Libraries/STM32H7xx_HAL_Driver/Src/stm32h7xx_hal_nand.c **** 
 1777              		.loc 1 2198 3 view .LVU581
2201:./Libraries/STM32H7xx_HAL_Driver/Src/stm32h7xx_hal_nand.c **** 
 1778              		.loc 1 2201 3 view .LVU582
2204:./Libraries/STM32H7xx_HAL_Driver/Src/stm32h7xx_hal_nand.c **** 
 1779              		.loc 1 2204 3 view .LVU583
 1780              		.loc 1 2214 8 view .LVU584
2207:./Libraries/STM32H7xx_HAL_Driver/Src/stm32h7xx_hal_nand.c **** 
 1781              		.loc 1 2207 10 is_stmt 0 view .LVU585
 1782 0142 4FF00043 		mov	r3, #-2147483648
2204:./Libraries/STM32H7xx_HAL_Driver/Src/stm32h7xx_hal_nand.c **** 
 1783              		.loc 1 2204 59 view .LVU586
 1784 0146 89F800B0 		strb	fp, [r9]
2207:./Libraries/STM32H7xx_HAL_Driver/Src/stm32h7xx_hal_nand.c **** 
 1785              		.loc 1 2207 3 is_stmt 1 view .LVU587
2207:./Libraries/STM32H7xx_HAL_Driver/Src/stm32h7xx_hal_nand.c **** 
 1786              		.loc 1 2207 10 is_stmt 0 view .LVU588
 1787 014a 1B78     		ldrb	r3, [r3]	@ zero_extendqisi2
 1788 014c DAB2     		uxtb	r2, r3
 1789              	.LVL88:
2210:./Libraries/STM32H7xx_HAL_Driver/Src/stm32h7xx_hal_nand.c ****   {
 1790              		.loc 1 2210 3 is_stmt 1 view .LVU589
2210:./Libraries/STM32H7xx_HAL_Driver/Src/stm32h7xx_hal_nand.c ****   {
 1791              		.loc 1 2210 6 is_stmt 0 view .LVU590
 1792 014e 13F00103 		ands	r3, r3, #1
 1793 0152 01D1     		bne	.L115
 1794              		.loc 1 2214 11 view .LVU591
 1795 0154 5206     		lsls	r2, r2, #25
 1796              	.LVL89:
 1797              		.loc 1 2214 11 view .LVU592
 1798 0156 0DD4     		bmi	.L141
 1799              	.L115:
 1800              	.LBE736:
 1801              	.LBE737:
 777:./Libraries/STM32H7xx_HAL_Driver/Src/stm32h7xx_hal_nand.c ****           {
 1802              		.loc 1 777 16 view .LVU593
 1803 0158 FFF7FEFF 		bl	HAL_GetTick
 1804              	.LVL90:
 777:./Libraries/STM32H7xx_HAL_Driver/Src/stm32h7xx_hal_nand.c ****           {
 1805              		.loc 1 777 30 view .LVU594
 1806 015c 019B     		ldr	r3, [sp, #4]
 1807 015e C01A     		subs	r0, r0, r3
 777:./Libraries/STM32H7xx_HAL_Driver/Src/stm32h7xx_hal_nand.c ****           {
 1808              		.loc 1 777 14 view .LVU595
 1809 0160 B0F1807F 		cmp	r0, #16777216
 1810 0164 EDD9     		bls	.L114
 780:./Libraries/STM32H7xx_HAL_Driver/Src/stm32h7xx_hal_nand.c **** 
ARM GAS  /tmp/cc5RRSLv.s 			page 95


 1811              		.loc 1 780 13 is_stmt 1 view .LVU596
 780:./Libraries/STM32H7xx_HAL_Driver/Src/stm32h7xx_hal_nand.c **** 
 1812              		.loc 1 780 26 is_stmt 0 view .LVU597
 1813 0166 0320     		movs	r0, #3
 783:./Libraries/STM32H7xx_HAL_Driver/Src/stm32h7xx_hal_nand.c **** 
 1814              		.loc 1 783 13 view .LVU598
 1815 0168 0023     		movs	r3, #0
 780:./Libraries/STM32H7xx_HAL_Driver/Src/stm32h7xx_hal_nand.c **** 
 1816              		.loc 1 780 26 view .LVU599
 1817 016a 84F82100 		strb	r0, [r4, #33]
 783:./Libraries/STM32H7xx_HAL_Driver/Src/stm32h7xx_hal_nand.c **** 
 1818              		.loc 1 783 13 is_stmt 1 view .LVU600
 783:./Libraries/STM32H7xx_HAL_Driver/Src/stm32h7xx_hal_nand.c **** 
 1819              		.loc 1 783 13 view .LVU601
 1820 016e 84F82030 		strb	r3, [r4, #32]
 783:./Libraries/STM32H7xx_HAL_Driver/Src/stm32h7xx_hal_nand.c **** 
 1821              		.loc 1 783 13 view .LVU602
 785:./Libraries/STM32H7xx_HAL_Driver/Src/stm32h7xx_hal_nand.c ****           }
 1822              		.loc 1 785 13 view .LVU603
 785:./Libraries/STM32H7xx_HAL_Driver/Src/stm32h7xx_hal_nand.c ****           }
 1823              		.loc 1 785 20 is_stmt 0 view .LVU604
 1824 0172 BDE7     		b	.L106
 1825              	.L141:
 790:./Libraries/STM32H7xx_HAL_Driver/Src/stm32h7xx_hal_nand.c ****         __DSB();
 1826              		.loc 1 790 9 is_stmt 1 view .LVU605
 790:./Libraries/STM32H7xx_HAL_Driver/Src/stm32h7xx_hal_nand.c ****         __DSB();
 1827              		.loc 1 790 65 is_stmt 0 view .LVU606
 1828 0174 89F80030 		strb	r3, [r9]
 791:./Libraries/STM32H7xx_HAL_Driver/Src/stm32h7xx_hal_nand.c ****       }
 1829              		.loc 1 791 9 is_stmt 1 view .LVU607
 1830              	.LBB738:
 1831              	.LBI738:
 944:./Libraries/CMSIS/Core/Include/cmsis_gcc.h **** {
 1832              		.loc 2 944 27 view .LVU608
 1833              	.LBB739:
 946:./Libraries/CMSIS/Core/Include/cmsis_gcc.h **** }
 1834              		.loc 2 946 3 view .LVU609
 1835              		.syntax unified
 1836              	@ 946 "./Libraries/CMSIS/Core/Include/cmsis_gcc.h" 1
 1837 0178 BFF34F8F 		dsb 0xF
 1838              	@ 0 "" 2
 1839              		.loc 2 947 1 is_stmt 0 view .LVU610
 1840              		.thumb
 1841              		.syntax unified
 1842 017c 95E7     		b	.L113
 1843              	.LVL91:
 1844              	.L122:
 1845              		.loc 2 947 1 view .LVU611
 1846              	.LBE739:
 1847              	.LBE738:
 691:./Libraries/STM32H7xx_HAL_Driver/Src/stm32h7xx_hal_nand.c ****   }
 1848              		.loc 1 691 12 view .LVU612
 1849 017e 0220     		movs	r0, #2
 1850 0180 B6E7     		b	.L106
 1851              	.L143:
 1852 0182 00BF     		.align	2
 1853              	.L142:
ARM GAS  /tmp/cc5RRSLv.s 			page 96


 1854 0184 00000280 		.word	-2147352576
 1855 0188 00000180 		.word	-2147418112
 1856              		.cfi_endproc
 1857              	.LFE341:
 1859              		.section	.text.HAL_NAND_Write_Page_8b,"ax",%progbits
 1860              		.align	1
 1861              		.p2align 2,,3
 1862              		.global	HAL_NAND_Write_Page_8b
 1863              		.syntax unified
 1864              		.thumb
 1865              		.thumb_func
 1866              		.fpu fpv5-d16
 1868              	HAL_NAND_Write_Page_8b:
 1869              	.LVL92:
 1870              	.LFB342:
 847:./Libraries/STM32H7xx_HAL_Driver/Src/stm32h7xx_hal_nand.c ****   uint32_t index;
 1871              		.loc 1 847 1 is_stmt 1 view -0
 1872              		.cfi_startproc
 1873              		@ args = 0, pretend = 0, frame = 8
 1874              		@ frame_needed = 0, uses_anonymous_args = 0
 847:./Libraries/STM32H7xx_HAL_Driver/Src/stm32h7xx_hal_nand.c ****   uint32_t index;
 1875              		.loc 1 847 1 is_stmt 0 view .LVU614
 1876 0000 2DE9F04F 		push	{r4, r5, r6, r7, r8, r9, r10, fp, lr}
 1877              	.LCFI28:
 1878              		.cfi_def_cfa_offset 36
 1879              		.cfi_offset 4, -36
 1880              		.cfi_offset 5, -32
 1881              		.cfi_offset 6, -28
 1882              		.cfi_offset 7, -24
 1883              		.cfi_offset 8, -20
 1884              		.cfi_offset 9, -16
 1885              		.cfi_offset 10, -12
 1886              		.cfi_offset 11, -8
 1887              		.cfi_offset 14, -4
 857:./Libraries/STM32H7xx_HAL_Driver/Src/stm32h7xx_hal_nand.c ****   {
 1888              		.loc 1 857 12 view .LVU615
 1889 0004 90F82140 		ldrb	r4, [r0, #33]	@ zero_extendqisi2
 847:./Libraries/STM32H7xx_HAL_Driver/Src/stm32h7xx_hal_nand.c ****   uint32_t index;
 1890              		.loc 1 847 1 view .LVU616
 1891 0008 8146     		mov	r9, r0
 848:./Libraries/STM32H7xx_HAL_Driver/Src/stm32h7xx_hal_nand.c ****   uint32_t tickstart;
 1892              		.loc 1 848 3 is_stmt 1 view .LVU617
 849:./Libraries/STM32H7xx_HAL_Driver/Src/stm32h7xx_hal_nand.c ****   uint32_t deviceaddress;
 1893              		.loc 1 849 3 view .LVU618
 850:./Libraries/STM32H7xx_HAL_Driver/Src/stm32h7xx_hal_nand.c ****   uint32_t numpageswritten = 0U;
 1894              		.loc 1 850 3 view .LVU619
 851:./Libraries/STM32H7xx_HAL_Driver/Src/stm32h7xx_hal_nand.c ****   uint32_t nandaddress;
 1895              		.loc 1 851 3 view .LVU620
 1896              	.LVL93:
 852:./Libraries/STM32H7xx_HAL_Driver/Src/stm32h7xx_hal_nand.c ****   uint32_t nbpages = NumPageToWrite;
 1897              		.loc 1 852 3 view .LVU621
 853:./Libraries/STM32H7xx_HAL_Driver/Src/stm32h7xx_hal_nand.c ****   uint8_t *buff = pBuffer;
 1898              		.loc 1 853 3 view .LVU622
 854:./Libraries/STM32H7xx_HAL_Driver/Src/stm32h7xx_hal_nand.c **** 
 1899              		.loc 1 854 3 view .LVU623
 857:./Libraries/STM32H7xx_HAL_Driver/Src/stm32h7xx_hal_nand.c ****   {
 1900              		.loc 1 857 3 view .LVU624
ARM GAS  /tmp/cc5RRSLv.s 			page 97


 847:./Libraries/STM32H7xx_HAL_Driver/Src/stm32h7xx_hal_nand.c ****   uint32_t index;
 1901              		.loc 1 847 1 is_stmt 0 view .LVU625
 1902 000a 83B0     		sub	sp, sp, #12
 1903              	.LCFI29:
 1904              		.cfi_def_cfa_offset 48
 857:./Libraries/STM32H7xx_HAL_Driver/Src/stm32h7xx_hal_nand.c ****   {
 1905              		.loc 1 857 6 view .LVU626
 1906 000c 022C     		cmp	r4, #2
 857:./Libraries/STM32H7xx_HAL_Driver/Src/stm32h7xx_hal_nand.c ****   {
 1907              		.loc 1 857 12 view .LVU627
 1908 000e E0B2     		uxtb	r0, r4
 1909              	.LVL94:
 857:./Libraries/STM32H7xx_HAL_Driver/Src/stm32h7xx_hal_nand.c ****   {
 1910              		.loc 1 857 6 view .LVU628
 1911 0010 7ED0     		beq	.L145
 861:./Libraries/STM32H7xx_HAL_Driver/Src/stm32h7xx_hal_nand.c ****   {
 1912              		.loc 1 861 8 is_stmt 1 view .LVU629
 861:./Libraries/STM32H7xx_HAL_Driver/Src/stm32h7xx_hal_nand.c ****   {
 1913              		.loc 1 861 17 is_stmt 0 view .LVU630
 1914 0012 99F82100 		ldrb	r0, [r9, #33]	@ zero_extendqisi2
 861:./Libraries/STM32H7xx_HAL_Driver/Src/stm32h7xx_hal_nand.c ****   {
 1915              		.loc 1 861 11 view .LVU631
 1916 0016 0128     		cmp	r0, #1
 861:./Libraries/STM32H7xx_HAL_Driver/Src/stm32h7xx_hal_nand.c ****   {
 1917              		.loc 1 861 17 view .LVU632
 1918 0018 C4B2     		uxtb	r4, r0
 861:./Libraries/STM32H7xx_HAL_Driver/Src/stm32h7xx_hal_nand.c ****   {
 1919              		.loc 1 861 11 view .LVU633
 1920 001a 7CD1     		bne	.L157
 864:./Libraries/STM32H7xx_HAL_Driver/Src/stm32h7xx_hal_nand.c **** 
 1921              		.loc 1 864 5 is_stmt 1 view .LVU634
 864:./Libraries/STM32H7xx_HAL_Driver/Src/stm32h7xx_hal_nand.c **** 
 1922              		.loc 1 864 5 view .LVU635
 1923 001c 99F82000 		ldrb	r0, [r9, #32]	@ zero_extendqisi2
 1924 0020 0128     		cmp	r0, #1
 1925 0022 00F0B480 		beq	.L158
 864:./Libraries/STM32H7xx_HAL_Driver/Src/stm32h7xx_hal_nand.c **** 
 1926              		.loc 1 864 5 discriminator 2 view .LVU636
 867:./Libraries/STM32H7xx_HAL_Driver/Src/stm32h7xx_hal_nand.c **** 
 1927              		.loc 1 867 18 is_stmt 0 discriminator 2 view .LVU637
 1928 0026 0220     		movs	r0, #2
 864:./Libraries/STM32H7xx_HAL_Driver/Src/stm32h7xx_hal_nand.c **** 
 1929              		.loc 1 864 5 discriminator 2 view .LVU638
 1930 0028 89F82040 		strb	r4, [r9, #32]
 864:./Libraries/STM32H7xx_HAL_Driver/Src/stm32h7xx_hal_nand.c **** 
 1931              		.loc 1 864 5 is_stmt 1 discriminator 2 view .LVU639
 867:./Libraries/STM32H7xx_HAL_Driver/Src/stm32h7xx_hal_nand.c **** 
 1932              		.loc 1 867 5 discriminator 2 view .LVU640
 873:./Libraries/STM32H7xx_HAL_Driver/Src/stm32h7xx_hal_nand.c **** 
 1933              		.loc 1 873 19 is_stmt 0 discriminator 2 view .LVU641
 1934 002c D9F83860 		ldr	r6, [r9, #56]
 867:./Libraries/STM32H7xx_HAL_Driver/Src/stm32h7xx_hal_nand.c **** 
 1935              		.loc 1 867 18 discriminator 2 view .LVU642
 1936 0030 89F82100 		strb	r0, [r9, #33]
 870:./Libraries/STM32H7xx_HAL_Driver/Src/stm32h7xx_hal_nand.c **** 
 1937              		.loc 1 870 5 is_stmt 1 discriminator 2 view .LVU643
 1938              	.LVL95:
ARM GAS  /tmp/cc5RRSLv.s 			page 98


 873:./Libraries/STM32H7xx_HAL_Driver/Src/stm32h7xx_hal_nand.c **** 
 1939              		.loc 1 873 5 discriminator 2 view .LVU644
 873:./Libraries/STM32H7xx_HAL_Driver/Src/stm32h7xx_hal_nand.c **** 
 1940              		.loc 1 873 19 is_stmt 0 discriminator 2 view .LVU645
 1941 0034 8888     		ldrh	r0, [r1, #4]
 1942 0036 4C88     		ldrh	r4, [r1, #2]
 1943 0038 0D88     		ldrh	r5, [r1]
 1944 003a 06FB0404 		mla	r4, r6, r4, r0
 1945 003e D9F82C00 		ldr	r0, [r9, #44]
 873:./Libraries/STM32H7xx_HAL_Driver/Src/stm32h7xx_hal_nand.c **** 
 1946              		.loc 1 873 17 discriminator 2 view .LVU646
 1947 0042 00FB0454 		mla	r4, r0, r4, r5
 1948              	.LVL96:
 876:./Libraries/STM32H7xx_HAL_Driver/Src/stm32h7xx_hal_nand.c ****     {
 1949              		.loc 1 876 5 is_stmt 1 discriminator 2 view .LVU647
 876:./Libraries/STM32H7xx_HAL_Driver/Src/stm32h7xx_hal_nand.c ****     {
 1950              		.loc 1 876 11 discriminator 2 view .LVU648
 1951 0046 002B     		cmp	r3, #0
 1952 0048 00F09780 		beq	.L146
 1953 004c 2344     		add	r3, r3, r4
 1954              	.LVL97:
 876:./Libraries/STM32H7xx_HAL_Driver/Src/stm32h7xx_hal_nand.c ****     {
 1955              		.loc 1 876 11 is_stmt 0 discriminator 2 view .LVU649
 1956 004e 9246     		mov	r10, r2
 879:./Libraries/STM32H7xx_HAL_Driver/Src/stm32h7xx_hal_nand.c ****       __DSB();
 1957              		.loc 1 879 63 view .LVU650
 1958 0050 504D     		ldr	r5, .L175
 923:./Libraries/STM32H7xx_HAL_Driver/Src/stm32h7xx_hal_nand.c ****           __DSB();
 1959              		.loc 1 923 68 view .LVU651
 1960 0052 DFF84481 		ldr	r8, .L175+4
 1961 0056 0193     		str	r3, [sp, #4]
 1962              	.LVL98:
 1963              	.L147:
 876:./Libraries/STM32H7xx_HAL_Driver/Src/stm32h7xx_hal_nand.c ****     {
 1964              		.loc 1 876 73 discriminator 1 view .LVU652
 1965 0058 D9F83030 		ldr	r3, [r9, #48]
 1966 005c 03FB00F3 		mul	r3, r3, r0
 876:./Libraries/STM32H7xx_HAL_Driver/Src/stm32h7xx_hal_nand.c ****     {
 1967              		.loc 1 876 28 discriminator 1 view .LVU653
 1968 0060 A342     		cmp	r3, r4
 1969 0062 40F28A80 		bls	.L146
 879:./Libraries/STM32H7xx_HAL_Driver/Src/stm32h7xx_hal_nand.c ****       __DSB();
 1970              		.loc 1 879 7 is_stmt 1 view .LVU654
 879:./Libraries/STM32H7xx_HAL_Driver/Src/stm32h7xx_hal_nand.c ****       __DSB();
 1971              		.loc 1 879 63 is_stmt 0 view .LVU655
 1972 0066 4FF00002 		mov	r2, #0
 1973 006a 2A70     		strb	r2, [r5]
 880:./Libraries/STM32H7xx_HAL_Driver/Src/stm32h7xx_hal_nand.c ****       *(__IO uint8_t *)((uint32_t)(deviceaddress | CMD_AREA)) = NAND_CMD_WRITE0;
 1974              		.loc 1 880 7 is_stmt 1 view .LVU656
 1975              	.LBB740:
 1976              	.LBI740:
 944:./Libraries/CMSIS/Core/Include/cmsis_gcc.h **** {
 1977              		.loc 2 944 27 view .LVU657
 1978              	.LBB741:
 946:./Libraries/CMSIS/Core/Include/cmsis_gcc.h **** }
 1979              		.loc 2 946 3 view .LVU658
 1980              		.syntax unified
ARM GAS  /tmp/cc5RRSLv.s 			page 99


 1981              	@ 946 "./Libraries/CMSIS/Core/Include/cmsis_gcc.h" 1
 1982 006c BFF34F8F 		dsb 0xF
 1983              	@ 0 "" 2
 1984              		.thumb
 1985              		.syntax unified
 1986              	.LBE741:
 1987              	.LBE740:
 881:./Libraries/STM32H7xx_HAL_Driver/Src/stm32h7xx_hal_nand.c ****       __DSB();
 1988              		.loc 1 881 7 view .LVU659
 881:./Libraries/STM32H7xx_HAL_Driver/Src/stm32h7xx_hal_nand.c ****       __DSB();
 1989              		.loc 1 881 63 is_stmt 0 view .LVU660
 1990 0070 8023     		movs	r3, #128
 1991 0072 2B70     		strb	r3, [r5]
 882:./Libraries/STM32H7xx_HAL_Driver/Src/stm32h7xx_hal_nand.c **** 
 1992              		.loc 1 882 7 is_stmt 1 view .LVU661
 1993              	.LBB742:
 1994              	.LBI742:
 944:./Libraries/CMSIS/Core/Include/cmsis_gcc.h **** {
 1995              		.loc 2 944 27 view .LVU662
 1996              	.LBB743:
 946:./Libraries/CMSIS/Core/Include/cmsis_gcc.h **** }
 1997              		.loc 2 946 3 view .LVU663
 1998              		.syntax unified
 1999              	@ 946 "./Libraries/CMSIS/Core/Include/cmsis_gcc.h" 1
 2000 0074 BFF34F8F 		dsb 0xF
 2001              	@ 0 "" 2
 2002              		.thumb
 2003              		.syntax unified
 2004              	.LBE743:
 2005              	.LBE742:
 885:./Libraries/STM32H7xx_HAL_Driver/Src/stm32h7xx_hal_nand.c ****       {
 2006              		.loc 1 885 7 view .LVU664
 885:./Libraries/STM32H7xx_HAL_Driver/Src/stm32h7xx_hal_nand.c ****       {
 2007              		.loc 1 885 10 is_stmt 0 view .LVU665
 2008 0078 D9F82430 		ldr	r3, [r9, #36]
 887:./Libraries/STM32H7xx_HAL_Driver/Src/stm32h7xx_hal_nand.c ****         {
 2009              		.loc 1 887 40 view .LVU666
 2010 007c D9F82C00 		ldr	r0, [r9, #44]
 885:./Libraries/STM32H7xx_HAL_Driver/Src/stm32h7xx_hal_nand.c ****       {
 2011              		.loc 1 885 10 view .LVU667
 2012 0080 B3F5007F 		cmp	r3, #512
 887:./Libraries/STM32H7xx_HAL_Driver/Src/stm32h7xx_hal_nand.c ****         {
 2013              		.loc 1 887 40 view .LVU668
 2014 0084 D9F83030 		ldr	r3, [r9, #48]
 2015 0088 03FB00F3 		mul	r3, r3, r0
 885:./Libraries/STM32H7xx_HAL_Driver/Src/stm32h7xx_hal_nand.c ****       {
 2016              		.loc 1 885 10 view .LVU669
 2017 008c 4ED8     		bhi	.L148
 887:./Libraries/STM32H7xx_HAL_Driver/Src/stm32h7xx_hal_nand.c ****         {
 2018              		.loc 1 887 9 is_stmt 1 view .LVU670
 887:./Libraries/STM32H7xx_HAL_Driver/Src/stm32h7xx_hal_nand.c ****         {
 2019              		.loc 1 887 12 is_stmt 0 view .LVU671
 2020 008e B3F5803F 		cmp	r3, #65536
 2021 0092 57D2     		bcs	.L149
 889:./Libraries/STM32H7xx_HAL_Driver/Src/stm32h7xx_hal_nand.c ****           __DSB();
 2022              		.loc 1 889 11 is_stmt 1 view .LVU672
 889:./Libraries/STM32H7xx_HAL_Driver/Src/stm32h7xx_hal_nand.c ****           __DSB();
ARM GAS  /tmp/cc5RRSLv.s 			page 100


 2023              		.loc 1 889 68 is_stmt 0 view .LVU673
 2024 0094 88F80020 		strb	r2, [r8]
 890:./Libraries/STM32H7xx_HAL_Driver/Src/stm32h7xx_hal_nand.c ****           *(__IO uint8_t *)((uint32_t)(deviceaddress | ADDR_AREA)) = ADDR_1ST_CYCLE(nandaddress);
 2025              		.loc 1 890 11 is_stmt 1 view .LVU674
 2026              	.LBB744:
 2027              	.LBI744:
 944:./Libraries/CMSIS/Core/Include/cmsis_gcc.h **** {
 2028              		.loc 2 944 27 view .LVU675
 2029              	.LBB745:
 946:./Libraries/CMSIS/Core/Include/cmsis_gcc.h **** }
 2030              		.loc 2 946 3 view .LVU676
 2031              	.L172:
 2032              	.LBE745:
 2033              	.LBE744:
 915:./Libraries/STM32H7xx_HAL_Driver/Src/stm32h7xx_hal_nand.c ****           *(__IO uint8_t *)((uint32_t)(deviceaddress | ADDR_AREA)) = ADDR_1ST_CYCLE(nandaddress);
 2034              		.loc 1 915 11 view .LVU677
 2035              	.LBB746:
 2036              	.LBI746:
 944:./Libraries/CMSIS/Core/Include/cmsis_gcc.h **** {
 2037              		.loc 2 944 27 view .LVU678
 2038              	.LBB747:
 946:./Libraries/CMSIS/Core/Include/cmsis_gcc.h **** }
 2039              		.loc 2 946 3 view .LVU679
 2040              		.syntax unified
 2041              	@ 946 "./Libraries/CMSIS/Core/Include/cmsis_gcc.h" 1
 2042 0098 BFF34F8F 		dsb 0xF
 2043              	@ 0 "" 2
 2044              		.thumb
 2045              		.syntax unified
 2046              	.LBE747:
 2047              	.LBE746:
 916:./Libraries/STM32H7xx_HAL_Driver/Src/stm32h7xx_hal_nand.c ****           __DSB();
 2048              		.loc 1 916 11 view .LVU680
 2049 009c E3B2     		uxtb	r3, r4
 916:./Libraries/STM32H7xx_HAL_Driver/Src/stm32h7xx_hal_nand.c ****           __DSB();
 2050              		.loc 1 916 68 is_stmt 0 view .LVU681
 2051 009e 88F80030 		strb	r3, [r8]
 917:./Libraries/STM32H7xx_HAL_Driver/Src/stm32h7xx_hal_nand.c ****           *(__IO uint8_t *)((uint32_t)(deviceaddress | ADDR_AREA)) = ADDR_2ND_CYCLE(nandaddress);
 2052              		.loc 1 917 11 is_stmt 1 view .LVU682
 2053              	.LBB748:
 2054              	.LBI748:
 944:./Libraries/CMSIS/Core/Include/cmsis_gcc.h **** {
 2055              		.loc 2 944 27 view .LVU683
 2056              	.LBB749:
 946:./Libraries/CMSIS/Core/Include/cmsis_gcc.h **** }
 2057              		.loc 2 946 3 view .LVU684
 2058              		.syntax unified
 2059              	@ 946 "./Libraries/CMSIS/Core/Include/cmsis_gcc.h" 1
 2060 00a2 BFF34F8F 		dsb 0xF
 2061              	@ 0 "" 2
 2062              		.thumb
 2063              		.syntax unified
 2064              	.LBE749:
 2065              	.LBE748:
 918:./Libraries/STM32H7xx_HAL_Driver/Src/stm32h7xx_hal_nand.c ****           __DSB();
 2066              		.loc 1 918 11 view .LVU685
 918:./Libraries/STM32H7xx_HAL_Driver/Src/stm32h7xx_hal_nand.c ****           __DSB();
ARM GAS  /tmp/cc5RRSLv.s 			page 101


 2067              		.loc 1 918 70 is_stmt 0 view .LVU686
 2068 00a6 C4F30723 		ubfx	r3, r4, #8, #8
 918:./Libraries/STM32H7xx_HAL_Driver/Src/stm32h7xx_hal_nand.c ****           __DSB();
 2069              		.loc 1 918 68 view .LVU687
 2070 00aa 88F80030 		strb	r3, [r8]
 919:./Libraries/STM32H7xx_HAL_Driver/Src/stm32h7xx_hal_nand.c ****         }
 2071              		.loc 1 919 11 is_stmt 1 view .LVU688
 2072              	.LBB750:
 2073              	.LBI750:
 944:./Libraries/CMSIS/Core/Include/cmsis_gcc.h **** {
 2074              		.loc 2 944 27 view .LVU689
 2075              	.LBB751:
 946:./Libraries/CMSIS/Core/Include/cmsis_gcc.h **** }
 2076              		.loc 2 946 3 view .LVU690
 2077              		.syntax unified
 2078              	@ 946 "./Libraries/CMSIS/Core/Include/cmsis_gcc.h" 1
 2079 00ae BFF34F8F 		dsb 0xF
 2080              	@ 0 "" 2
 2081              		.thumb
 2082              		.syntax unified
 2083              	.L150:
 2084              	.LVL99:
 946:./Libraries/CMSIS/Core/Include/cmsis_gcc.h **** }
 2085              		.loc 2 946 3 is_stmt 0 view .LVU691
 2086              	.LBE751:
 2087              	.LBE750:
 937:./Libraries/STM32H7xx_HAL_Driver/Src/stm32h7xx_hal_nand.c ****       {
 2088              		.loc 1 937 24 is_stmt 1 discriminator 1 view .LVU692
 937:./Libraries/STM32H7xx_HAL_Driver/Src/stm32h7xx_hal_nand.c ****       {
 2089              		.loc 1 937 7 is_stmt 0 discriminator 1 view .LVU693
 2090 00b2 D9F82430 		ldr	r3, [r9, #36]
 2091 00b6 63B1     		cbz	r3, .L153
 937:./Libraries/STM32H7xx_HAL_Driver/Src/stm32h7xx_hal_nand.c ****       {
 2092              		.loc 1 937 7 view .LVU694
 2093 00b8 0023     		movs	r3, #0
 939:./Libraries/STM32H7xx_HAL_Driver/Src/stm32h7xx_hal_nand.c ****         buff++;
 2094              		.loc 1 939 40 view .LVU695
 2095 00ba 4FF00046 		mov	r6, #-2147483648
 2096              	.LVL100:
 2097              	.L152:
 939:./Libraries/STM32H7xx_HAL_Driver/Src/stm32h7xx_hal_nand.c ****         buff++;
 2098              		.loc 1 939 9 is_stmt 1 discriminator 3 view .LVU696
 939:./Libraries/STM32H7xx_HAL_Driver/Src/stm32h7xx_hal_nand.c ****         buff++;
 2099              		.loc 1 939 42 is_stmt 0 discriminator 3 view .LVU697
 2100 00be 1AF8010B 		ldrb	r0, [r10], #1	@ zero_extendqisi2
 2101              	.LVL101:
 939:./Libraries/STM32H7xx_HAL_Driver/Src/stm32h7xx_hal_nand.c ****         buff++;
 2102              		.loc 1 939 40 discriminator 3 view .LVU698
 2103 00c2 3070     		strb	r0, [r6]
 940:./Libraries/STM32H7xx_HAL_Driver/Src/stm32h7xx_hal_nand.c ****         __DSB();
 2104              		.loc 1 940 9 is_stmt 1 discriminator 3 view .LVU699
 2105              	.LVL102:
 941:./Libraries/STM32H7xx_HAL_Driver/Src/stm32h7xx_hal_nand.c ****       }
 2106              		.loc 1 941 9 discriminator 3 view .LVU700
 2107              	.LBB752:
 2108              	.LBI752:
 944:./Libraries/CMSIS/Core/Include/cmsis_gcc.h **** {
ARM GAS  /tmp/cc5RRSLv.s 			page 102


 2109              		.loc 2 944 27 discriminator 3 view .LVU701
 2110              	.LBB753:
 946:./Libraries/CMSIS/Core/Include/cmsis_gcc.h **** }
 2111              		.loc 2 946 3 discriminator 3 view .LVU702
 2112              		.syntax unified
 2113              	@ 946 "./Libraries/CMSIS/Core/Include/cmsis_gcc.h" 1
 2114 00c4 BFF34F8F 		dsb 0xF
 2115              	@ 0 "" 2
 2116              		.thumb
 2117              		.syntax unified
 2118              	.LBE753:
 2119              	.LBE752:
 937:./Libraries/STM32H7xx_HAL_Driver/Src/stm32h7xx_hal_nand.c ****       {
 2120              		.loc 1 937 56 discriminator 3 view .LVU703
 937:./Libraries/STM32H7xx_HAL_Driver/Src/stm32h7xx_hal_nand.c ****       {
 2121              		.loc 1 937 61 is_stmt 0 discriminator 3 view .LVU704
 2122 00c8 0133     		adds	r3, r3, #1
 2123              	.LVL103:
 937:./Libraries/STM32H7xx_HAL_Driver/Src/stm32h7xx_hal_nand.c ****       {
 2124              		.loc 1 937 24 is_stmt 1 discriminator 3 view .LVU705
 937:./Libraries/STM32H7xx_HAL_Driver/Src/stm32h7xx_hal_nand.c ****       {
 2125              		.loc 1 937 7 is_stmt 0 discriminator 3 view .LVU706
 2126 00ca D9F82400 		ldr	r0, [r9, #36]
 2127 00ce 9842     		cmp	r0, r3
 2128 00d0 F5D8     		bhi	.L152
 2129              	.LVL104:
 2130              	.L153:
 944:./Libraries/STM32H7xx_HAL_Driver/Src/stm32h7xx_hal_nand.c ****       __DSB();
 2131              		.loc 1 944 7 is_stmt 1 view .LVU707
 944:./Libraries/STM32H7xx_HAL_Driver/Src/stm32h7xx_hal_nand.c ****       __DSB();
 2132              		.loc 1 944 63 is_stmt 0 view .LVU708
 2133 00d2 1023     		movs	r3, #16
 2134 00d4 2B70     		strb	r3, [r5]
 945:./Libraries/STM32H7xx_HAL_Driver/Src/stm32h7xx_hal_nand.c **** 
 2135              		.loc 1 945 7 is_stmt 1 view .LVU709
 2136              	.LBB754:
 2137              	.LBI754:
 944:./Libraries/CMSIS/Core/Include/cmsis_gcc.h **** {
 2138              		.loc 2 944 27 view .LVU710
 2139              	.LBB755:
 946:./Libraries/CMSIS/Core/Include/cmsis_gcc.h **** }
 2140              		.loc 2 946 3 view .LVU711
 2141              		.syntax unified
 2142              	@ 946 "./Libraries/CMSIS/Core/Include/cmsis_gcc.h" 1
 2143 00d6 BFF34F8F 		dsb 0xF
 2144              	@ 0 "" 2
 2145              		.thumb
 2146              		.syntax unified
 2147              	.LBE755:
 2148              	.LBE754:
 948:./Libraries/STM32H7xx_HAL_Driver/Src/stm32h7xx_hal_nand.c **** 
 2149              		.loc 1 948 7 view .LVU712
 948:./Libraries/STM32H7xx_HAL_Driver/Src/stm32h7xx_hal_nand.c **** 
 2150              		.loc 1 948 19 is_stmt 0 view .LVU713
 2151 00da FFF7FEFF 		bl	HAL_GetTick
 2152              	.LVL105:
 2153              	.LBB756:
ARM GAS  /tmp/cc5RRSLv.s 			page 103


 2154              	.LBB757:
2204:./Libraries/STM32H7xx_HAL_Driver/Src/stm32h7xx_hal_nand.c **** 
 2155              		.loc 1 2204 59 view .LVU714
 2156 00de 4FF0700B 		mov	fp, #112
2207:./Libraries/STM32H7xx_HAL_Driver/Src/stm32h7xx_hal_nand.c **** 
 2157              		.loc 1 2207 10 view .LVU715
 2158 00e2 4FF00047 		mov	r7, #-2147483648
 2159              	.LBE757:
 2160              	.LBE756:
 948:./Libraries/STM32H7xx_HAL_Driver/Src/stm32h7xx_hal_nand.c **** 
 2161              		.loc 1 948 19 view .LVU716
 2162 00e6 0646     		mov	r6, r0
 2163              	.LVL106:
 951:./Libraries/STM32H7xx_HAL_Driver/Src/stm32h7xx_hal_nand.c ****       {
 2164              		.loc 1 951 7 is_stmt 1 view .LVU717
 2165              	.L154:
 953:./Libraries/STM32H7xx_HAL_Driver/Src/stm32h7xx_hal_nand.c ****         {
 2166              		.loc 1 953 9 view .LVU718
 951:./Libraries/STM32H7xx_HAL_Driver/Src/stm32h7xx_hal_nand.c ****       {
 2167              		.loc 1 951 13 view .LVU719
 2168              	.LBB759:
 2169              	.LBI756:
2194:./Libraries/STM32H7xx_HAL_Driver/Src/stm32h7xx_hal_nand.c **** {
 2170              		.loc 1 2194 10 view .LVU720
 2171              	.LBB758:
2196:./Libraries/STM32H7xx_HAL_Driver/Src/stm32h7xx_hal_nand.c ****   uint32_t deviceaddress;
 2172              		.loc 1 2196 3 view .LVU721
2197:./Libraries/STM32H7xx_HAL_Driver/Src/stm32h7xx_hal_nand.c ****   UNUSED(hnand);
 2173              		.loc 1 2197 3 view .LVU722
2198:./Libraries/STM32H7xx_HAL_Driver/Src/stm32h7xx_hal_nand.c **** 
 2174              		.loc 1 2198 3 view .LVU723
2201:./Libraries/STM32H7xx_HAL_Driver/Src/stm32h7xx_hal_nand.c **** 
 2175              		.loc 1 2201 3 view .LVU724
2204:./Libraries/STM32H7xx_HAL_Driver/Src/stm32h7xx_hal_nand.c **** 
 2176              		.loc 1 2204 3 view .LVU725
 2177              		.loc 1 2214 8 view .LVU726
2204:./Libraries/STM32H7xx_HAL_Driver/Src/stm32h7xx_hal_nand.c **** 
 2178              		.loc 1 2204 59 is_stmt 0 view .LVU727
 2179 00e8 85F800B0 		strb	fp, [r5]
2207:./Libraries/STM32H7xx_HAL_Driver/Src/stm32h7xx_hal_nand.c **** 
 2180              		.loc 1 2207 3 is_stmt 1 view .LVU728
2207:./Libraries/STM32H7xx_HAL_Driver/Src/stm32h7xx_hal_nand.c **** 
 2181              		.loc 1 2207 10 is_stmt 0 view .LVU729
 2182 00ec 3B78     		ldrb	r3, [r7]	@ zero_extendqisi2
2210:./Libraries/STM32H7xx_HAL_Driver/Src/stm32h7xx_hal_nand.c ****   {
 2183              		.loc 1 2210 6 view .LVU730
 2184 00ee DA07     		lsls	r2, r3, #31
2207:./Libraries/STM32H7xx_HAL_Driver/Src/stm32h7xx_hal_nand.c **** 
 2185              		.loc 1 2207 10 view .LVU731
 2186 00f0 D8B2     		uxtb	r0, r3
 2187              	.LVL107:
2210:./Libraries/STM32H7xx_HAL_Driver/Src/stm32h7xx_hal_nand.c ****   {
 2188              		.loc 1 2210 3 is_stmt 1 view .LVU732
2210:./Libraries/STM32H7xx_HAL_Driver/Src/stm32h7xx_hal_nand.c ****   {
 2189              		.loc 1 2210 6 is_stmt 0 view .LVU733
 2190 00f2 01D4     		bmi	.L155
 2191              		.loc 1 2214 11 view .LVU734
ARM GAS  /tmp/cc5RRSLv.s 			page 104


 2192 00f4 4306     		lsls	r3, r0, #25
 2193 00f6 12D4     		bmi	.L174
 2194              	.L155:
 2195              	.LBE758:
 2196              	.LBE759:
 953:./Libraries/STM32H7xx_HAL_Driver/Src/stm32h7xx_hal_nand.c ****         {
 2197              		.loc 1 953 14 view .LVU735
 2198 00f8 FFF7FEFF 		bl	HAL_GetTick
 2199              	.LVL108:
 953:./Libraries/STM32H7xx_HAL_Driver/Src/stm32h7xx_hal_nand.c ****         {
 2200              		.loc 1 953 28 view .LVU736
 2201 00fc 801B     		subs	r0, r0, r6
 953:./Libraries/STM32H7xx_HAL_Driver/Src/stm32h7xx_hal_nand.c ****         {
 2202              		.loc 1 953 12 view .LVU737
 2203 00fe B0F1807F 		cmp	r0, #16777216
 2204 0102 F1D9     		bls	.L154
 956:./Libraries/STM32H7xx_HAL_Driver/Src/stm32h7xx_hal_nand.c **** 
 2205              		.loc 1 956 11 is_stmt 1 view .LVU738
 956:./Libraries/STM32H7xx_HAL_Driver/Src/stm32h7xx_hal_nand.c **** 
 2206              		.loc 1 956 24 is_stmt 0 view .LVU739
 2207 0104 0320     		movs	r0, #3
 959:./Libraries/STM32H7xx_HAL_Driver/Src/stm32h7xx_hal_nand.c **** 
 2208              		.loc 1 959 11 view .LVU740
 2209 0106 0023     		movs	r3, #0
 956:./Libraries/STM32H7xx_HAL_Driver/Src/stm32h7xx_hal_nand.c **** 
 2210              		.loc 1 956 24 view .LVU741
 2211 0108 89F82100 		strb	r0, [r9, #33]
 959:./Libraries/STM32H7xx_HAL_Driver/Src/stm32h7xx_hal_nand.c **** 
 2212              		.loc 1 959 11 is_stmt 1 view .LVU742
 959:./Libraries/STM32H7xx_HAL_Driver/Src/stm32h7xx_hal_nand.c **** 
 2213              		.loc 1 959 11 view .LVU743
 2214 010c 89F82030 		strb	r3, [r9, #32]
 959:./Libraries/STM32H7xx_HAL_Driver/Src/stm32h7xx_hal_nand.c **** 
 2215              		.loc 1 959 11 view .LVU744
 961:./Libraries/STM32H7xx_HAL_Driver/Src/stm32h7xx_hal_nand.c ****         }
 2216              		.loc 1 961 11 view .LVU745
 2217              	.LVL109:
 2218              	.L145:
 987:./Libraries/STM32H7xx_HAL_Driver/Src/stm32h7xx_hal_nand.c **** 
 2219              		.loc 1 987 1 is_stmt 0 view .LVU746
 2220 0110 03B0     		add	sp, sp, #12
 2221              	.LCFI30:
 2222              		.cfi_remember_state
 2223              		.cfi_def_cfa_offset 36
 2224              		@ sp needed
 2225 0112 BDE8F08F 		pop	{r4, r5, r6, r7, r8, r9, r10, fp, pc}
 2226              	.LVL110:
 2227              	.L157:
 2228              	.LCFI31:
 2229              		.cfi_restore_state
 983:./Libraries/STM32H7xx_HAL_Driver/Src/stm32h7xx_hal_nand.c ****   }
 2230              		.loc 1 983 12 view .LVU747
 2231 0116 0120     		movs	r0, #1
 987:./Libraries/STM32H7xx_HAL_Driver/Src/stm32h7xx_hal_nand.c **** 
 2232              		.loc 1 987 1 view .LVU748
 2233 0118 03B0     		add	sp, sp, #12
 2234              	.LCFI32:
ARM GAS  /tmp/cc5RRSLv.s 			page 105


 2235              		.cfi_remember_state
 2236              		.cfi_def_cfa_offset 36
 2237              		@ sp needed
 2238 011a BDE8F08F 		pop	{r4, r5, r6, r7, r8, r9, r10, fp, pc}
 2239              	.LVL111:
 2240              	.L174:
 2241              	.LCFI33:
 2242              		.cfi_restore_state
 966:./Libraries/STM32H7xx_HAL_Driver/Src/stm32h7xx_hal_nand.c **** 
 2243              		.loc 1 966 7 is_stmt 1 view .LVU749
 969:./Libraries/STM32H7xx_HAL_Driver/Src/stm32h7xx_hal_nand.c **** 
 2244              		.loc 1 969 7 view .LVU750
 972:./Libraries/STM32H7xx_HAL_Driver/Src/stm32h7xx_hal_nand.c ****     }
 2245              		.loc 1 972 7 view .LVU751
 972:./Libraries/STM32H7xx_HAL_Driver/Src/stm32h7xx_hal_nand.c ****     }
 2246              		.loc 1 972 19 is_stmt 0 view .LVU752
 2247 011e 0134     		adds	r4, r4, #1
 2248              	.LVL112:
 876:./Libraries/STM32H7xx_HAL_Driver/Src/stm32h7xx_hal_nand.c ****     {
 2249              		.loc 1 876 11 is_stmt 1 view .LVU753
 2250 0120 019B     		ldr	r3, [sp, #4]
 2251 0122 A342     		cmp	r3, r4
 2252 0124 29D0     		beq	.L146
 876:./Libraries/STM32H7xx_HAL_Driver/Src/stm32h7xx_hal_nand.c ****     {
 2253              		.loc 1 876 11 is_stmt 0 view .LVU754
 2254 0126 D9F82C00 		ldr	r0, [r9, #44]
 2255              	.LVL113:
 876:./Libraries/STM32H7xx_HAL_Driver/Src/stm32h7xx_hal_nand.c ****     {
 2256              		.loc 1 876 11 view .LVU755
 2257 012a 95E7     		b	.L147
 2258              	.LVL114:
 2259              	.L148:
 910:./Libraries/STM32H7xx_HAL_Driver/Src/stm32h7xx_hal_nand.c ****         {
 2260              		.loc 1 910 9 is_stmt 1 view .LVU756
 910:./Libraries/STM32H7xx_HAL_Driver/Src/stm32h7xx_hal_nand.c ****         {
 2261              		.loc 1 910 12 is_stmt 0 view .LVU757
 2262 012c B3F5803F 		cmp	r3, #65536
 912:./Libraries/STM32H7xx_HAL_Driver/Src/stm32h7xx_hal_nand.c ****           __DSB();
 2263              		.loc 1 912 68 view .LVU758
 2264 0130 4FF00003 		mov	r3, #0
 2265 0134 88F80030 		strb	r3, [r8]
 910:./Libraries/STM32H7xx_HAL_Driver/Src/stm32h7xx_hal_nand.c ****         {
 2266              		.loc 1 910 12 view .LVU759
 2267 0138 1CD2     		bcs	.L151
 912:./Libraries/STM32H7xx_HAL_Driver/Src/stm32h7xx_hal_nand.c ****           __DSB();
 2268              		.loc 1 912 11 is_stmt 1 view .LVU760
 913:./Libraries/STM32H7xx_HAL_Driver/Src/stm32h7xx_hal_nand.c ****           *(__IO uint8_t *)((uint32_t)(deviceaddress | ADDR_AREA)) = 0x00U;
 2269              		.loc 1 913 11 view .LVU761
 2270              	.LBB760:
 2271              	.LBI760:
 944:./Libraries/CMSIS/Core/Include/cmsis_gcc.h **** {
 2272              		.loc 2 944 27 view .LVU762
 2273              	.LBB761:
 946:./Libraries/CMSIS/Core/Include/cmsis_gcc.h **** }
 2274              		.loc 2 946 3 view .LVU763
 2275              		.syntax unified
 2276              	@ 946 "./Libraries/CMSIS/Core/Include/cmsis_gcc.h" 1
ARM GAS  /tmp/cc5RRSLv.s 			page 106


 2277 013a BFF34F8F 		dsb 0xF
 2278              	@ 0 "" 2
 2279              		.thumb
 2280              		.syntax unified
 2281              	.LBE761:
 2282              	.LBE760:
 914:./Libraries/STM32H7xx_HAL_Driver/Src/stm32h7xx_hal_nand.c ****           __DSB();
 2283              		.loc 1 914 11 view .LVU764
 914:./Libraries/STM32H7xx_HAL_Driver/Src/stm32h7xx_hal_nand.c ****           __DSB();
 2284              		.loc 1 914 68 is_stmt 0 view .LVU765
 2285 013e 88F80030 		strb	r3, [r8]
 2286 0142 A9E7     		b	.L172
 2287              	.L149:
 898:./Libraries/STM32H7xx_HAL_Driver/Src/stm32h7xx_hal_nand.c ****           __DSB();
 2288              		.loc 1 898 11 is_stmt 1 view .LVU766
 898:./Libraries/STM32H7xx_HAL_Driver/Src/stm32h7xx_hal_nand.c ****           __DSB();
 2289              		.loc 1 898 68 is_stmt 0 view .LVU767
 2290 0144 4FF00003 		mov	r3, #0
 2291              	.L173:
 925:./Libraries/STM32H7xx_HAL_Driver/Src/stm32h7xx_hal_nand.c ****           __DSB();
 2292              		.loc 1 925 11 is_stmt 1 view .LVU768
 925:./Libraries/STM32H7xx_HAL_Driver/Src/stm32h7xx_hal_nand.c ****           __DSB();
 2293              		.loc 1 925 68 is_stmt 0 view .LVU769
 2294 0148 88F80030 		strb	r3, [r8]
 926:./Libraries/STM32H7xx_HAL_Driver/Src/stm32h7xx_hal_nand.c ****           *(__IO uint8_t *)((uint32_t)(deviceaddress | ADDR_AREA)) = ADDR_1ST_CYCLE(nandaddress);
 2295              		.loc 1 926 11 is_stmt 1 view .LVU770
 2296              	.LBB762:
 2297              	.LBI762:
 944:./Libraries/CMSIS/Core/Include/cmsis_gcc.h **** {
 2298              		.loc 2 944 27 view .LVU771
 2299              	.LBB763:
 946:./Libraries/CMSIS/Core/Include/cmsis_gcc.h **** }
 2300              		.loc 2 946 3 view .LVU772
 2301              		.syntax unified
 2302              	@ 946 "./Libraries/CMSIS/Core/Include/cmsis_gcc.h" 1
 2303 014c BFF34F8F 		dsb 0xF
 2304              	@ 0 "" 2
 2305              		.thumb
 2306              		.syntax unified
 2307              	.LBE763:
 2308              	.LBE762:
 927:./Libraries/STM32H7xx_HAL_Driver/Src/stm32h7xx_hal_nand.c ****           __DSB();
 2309              		.loc 1 927 11 view .LVU773
 2310 0150 E3B2     		uxtb	r3, r4
 927:./Libraries/STM32H7xx_HAL_Driver/Src/stm32h7xx_hal_nand.c ****           __DSB();
 2311              		.loc 1 927 68 is_stmt 0 view .LVU774
 2312 0152 88F80030 		strb	r3, [r8]
 928:./Libraries/STM32H7xx_HAL_Driver/Src/stm32h7xx_hal_nand.c ****           *(__IO uint8_t *)((uint32_t)(deviceaddress | ADDR_AREA)) = ADDR_2ND_CYCLE(nandaddress);
 2313              		.loc 1 928 11 is_stmt 1 view .LVU775
 2314              	.LBB764:
 2315              	.LBI764:
 944:./Libraries/CMSIS/Core/Include/cmsis_gcc.h **** {
 2316              		.loc 2 944 27 view .LVU776
 2317              	.LBB765:
 946:./Libraries/CMSIS/Core/Include/cmsis_gcc.h **** }
 2318              		.loc 2 946 3 view .LVU777
 2319              		.syntax unified
ARM GAS  /tmp/cc5RRSLv.s 			page 107


 2320              	@ 946 "./Libraries/CMSIS/Core/Include/cmsis_gcc.h" 1
 2321 0156 BFF34F8F 		dsb 0xF
 2322              	@ 0 "" 2
 2323              		.thumb
 2324              		.syntax unified
 2325              	.LBE765:
 2326              	.LBE764:
 929:./Libraries/STM32H7xx_HAL_Driver/Src/stm32h7xx_hal_nand.c ****           __DSB();
 2327              		.loc 1 929 11 view .LVU778
 929:./Libraries/STM32H7xx_HAL_Driver/Src/stm32h7xx_hal_nand.c ****           __DSB();
 2328              		.loc 1 929 70 is_stmt 0 view .LVU779
 2329 015a C4F30723 		ubfx	r3, r4, #8, #8
 929:./Libraries/STM32H7xx_HAL_Driver/Src/stm32h7xx_hal_nand.c ****           __DSB();
 2330              		.loc 1 929 68 view .LVU780
 2331 015e 88F80030 		strb	r3, [r8]
 930:./Libraries/STM32H7xx_HAL_Driver/Src/stm32h7xx_hal_nand.c ****           *(__IO uint8_t *)((uint32_t)(deviceaddress | ADDR_AREA)) = ADDR_3RD_CYCLE(nandaddress);
 2332              		.loc 1 930 11 is_stmt 1 view .LVU781
 2333              	.LBB766:
 2334              	.LBI766:
 944:./Libraries/CMSIS/Core/Include/cmsis_gcc.h **** {
 2335              		.loc 2 944 27 view .LVU782
 2336              	.LBB767:
 946:./Libraries/CMSIS/Core/Include/cmsis_gcc.h **** }
 2337              		.loc 2 946 3 view .LVU783
 2338              		.syntax unified
 2339              	@ 946 "./Libraries/CMSIS/Core/Include/cmsis_gcc.h" 1
 2340 0162 BFF34F8F 		dsb 0xF
 2341              	@ 0 "" 2
 2342              		.thumb
 2343              		.syntax unified
 2344              	.LBE767:
 2345              	.LBE766:
 931:./Libraries/STM32H7xx_HAL_Driver/Src/stm32h7xx_hal_nand.c ****           __DSB();
 2346              		.loc 1 931 11 view .LVU784
 931:./Libraries/STM32H7xx_HAL_Driver/Src/stm32h7xx_hal_nand.c ****           __DSB();
 2347              		.loc 1 931 70 is_stmt 0 view .LVU785
 2348 0166 C4F30743 		ubfx	r3, r4, #16, #8
 931:./Libraries/STM32H7xx_HAL_Driver/Src/stm32h7xx_hal_nand.c ****           __DSB();
 2349              		.loc 1 931 68 view .LVU786
 2350 016a 88F80030 		strb	r3, [r8]
 932:./Libraries/STM32H7xx_HAL_Driver/Src/stm32h7xx_hal_nand.c ****         }
 2351              		.loc 1 932 11 is_stmt 1 view .LVU787
 2352              	.LBB768:
 2353              	.LBI768:
 944:./Libraries/CMSIS/Core/Include/cmsis_gcc.h **** {
 2354              		.loc 2 944 27 view .LVU788
 2355              	.LBB769:
 946:./Libraries/CMSIS/Core/Include/cmsis_gcc.h **** }
 2356              		.loc 2 946 3 view .LVU789
 2357              		.syntax unified
 2358              	@ 946 "./Libraries/CMSIS/Core/Include/cmsis_gcc.h" 1
 2359 016e BFF34F8F 		dsb 0xF
 2360              	@ 0 "" 2
 2361              		.loc 2 947 1 is_stmt 0 view .LVU790
 2362              		.thumb
 2363              		.syntax unified
 2364 0172 9EE7     		b	.L150
ARM GAS  /tmp/cc5RRSLv.s 			page 108


 2365              	.L151:
 2366              		.loc 2 947 1 view .LVU791
 2367              	.LBE769:
 2368              	.LBE768:
 923:./Libraries/STM32H7xx_HAL_Driver/Src/stm32h7xx_hal_nand.c ****           __DSB();
 2369              		.loc 1 923 11 is_stmt 1 view .LVU792
 924:./Libraries/STM32H7xx_HAL_Driver/Src/stm32h7xx_hal_nand.c ****           *(__IO uint8_t *)((uint32_t)(deviceaddress | ADDR_AREA)) = 0x00U;
 2370              		.loc 1 924 11 view .LVU793
 2371              	.LBB770:
 2372              	.LBI770:
 944:./Libraries/CMSIS/Core/Include/cmsis_gcc.h **** {
 2373              		.loc 2 944 27 view .LVU794
 2374              	.LBB771:
 946:./Libraries/CMSIS/Core/Include/cmsis_gcc.h **** }
 2375              		.loc 2 946 3 view .LVU795
 2376              		.syntax unified
 2377              	@ 946 "./Libraries/CMSIS/Core/Include/cmsis_gcc.h" 1
 2378 0174 BFF34F8F 		dsb 0xF
 2379              	@ 0 "" 2
 2380              		.thumb
 2381              		.syntax unified
 2382 0178 E6E7     		b	.L173
 2383              	.LVL115:
 2384              	.L146:
 946:./Libraries/CMSIS/Core/Include/cmsis_gcc.h **** }
 2385              		.loc 2 946 3 is_stmt 0 view .LVU796
 2386              	.LBE771:
 2387              	.LBE770:
 976:./Libraries/STM32H7xx_HAL_Driver/Src/stm32h7xx_hal_nand.c **** 
 2388              		.loc 1 976 5 is_stmt 1 view .LVU797
 979:./Libraries/STM32H7xx_HAL_Driver/Src/stm32h7xx_hal_nand.c ****   }
 2389              		.loc 1 979 5 is_stmt 0 view .LVU798
 2390 017a 0023     		movs	r3, #0
 976:./Libraries/STM32H7xx_HAL_Driver/Src/stm32h7xx_hal_nand.c **** 
 2391              		.loc 1 976 18 view .LVU799
 2392 017c 0121     		movs	r1, #1
 986:./Libraries/STM32H7xx_HAL_Driver/Src/stm32h7xx_hal_nand.c **** }
 2393              		.loc 1 986 10 view .LVU800
 2394 017e 1846     		mov	r0, r3
 976:./Libraries/STM32H7xx_HAL_Driver/Src/stm32h7xx_hal_nand.c **** 
 2395              		.loc 1 976 18 view .LVU801
 2396 0180 89F82110 		strb	r1, [r9, #33]
 979:./Libraries/STM32H7xx_HAL_Driver/Src/stm32h7xx_hal_nand.c ****   }
 2397              		.loc 1 979 5 is_stmt 1 view .LVU802
 979:./Libraries/STM32H7xx_HAL_Driver/Src/stm32h7xx_hal_nand.c ****   }
 2398              		.loc 1 979 5 view .LVU803
 2399 0184 89F82030 		strb	r3, [r9, #32]
 979:./Libraries/STM32H7xx_HAL_Driver/Src/stm32h7xx_hal_nand.c ****   }
 2400              		.loc 1 979 5 view .LVU804
 986:./Libraries/STM32H7xx_HAL_Driver/Src/stm32h7xx_hal_nand.c **** }
 2401              		.loc 1 986 3 view .LVU805
 987:./Libraries/STM32H7xx_HAL_Driver/Src/stm32h7xx_hal_nand.c **** 
 2402              		.loc 1 987 1 is_stmt 0 view .LVU806
 2403 0188 03B0     		add	sp, sp, #12
 2404              	.LCFI34:
 2405              		.cfi_remember_state
 2406              		.cfi_def_cfa_offset 36
ARM GAS  /tmp/cc5RRSLv.s 			page 109


 2407              		@ sp needed
 2408 018a BDE8F08F 		pop	{r4, r5, r6, r7, r8, r9, r10, fp, pc}
 2409              	.LVL116:
 2410              	.L158:
 2411              	.LCFI35:
 2412              		.cfi_restore_state
 859:./Libraries/STM32H7xx_HAL_Driver/Src/stm32h7xx_hal_nand.c ****   }
 2413              		.loc 1 859 12 view .LVU807
 2414 018e 0220     		movs	r0, #2
 2415 0190 BEE7     		b	.L145
 2416              	.L176:
 2417 0192 00BF     		.align	2
 2418              	.L175:
 2419 0194 00000180 		.word	-2147418112
 2420 0198 00000280 		.word	-2147352576
 2421              		.cfi_endproc
 2422              	.LFE342:
 2424              		.section	.text.HAL_NAND_Write_Page_16b,"ax",%progbits
 2425              		.align	1
 2426              		.p2align 2,,3
 2427              		.global	HAL_NAND_Write_Page_16b
 2428              		.syntax unified
 2429              		.thumb
 2430              		.thumb_func
 2431              		.fpu fpv5-d16
 2433              	HAL_NAND_Write_Page_16b:
 2434              	.LVL117:
 2435              	.LFB343:
1000:./Libraries/STM32H7xx_HAL_Driver/Src/stm32h7xx_hal_nand.c ****   uint32_t index;
 2436              		.loc 1 1000 1 is_stmt 1 view -0
 2437              		.cfi_startproc
 2438              		@ args = 0, pretend = 0, frame = 8
 2439              		@ frame_needed = 0, uses_anonymous_args = 0
1000:./Libraries/STM32H7xx_HAL_Driver/Src/stm32h7xx_hal_nand.c ****   uint32_t index;
 2440              		.loc 1 1000 1 is_stmt 0 view .LVU809
 2441 0000 2DE9F04F 		push	{r4, r5, r6, r7, r8, r9, r10, fp, lr}
 2442              	.LCFI36:
 2443              		.cfi_def_cfa_offset 36
 2444              		.cfi_offset 4, -36
 2445              		.cfi_offset 5, -32
 2446              		.cfi_offset 6, -28
 2447              		.cfi_offset 7, -24
 2448              		.cfi_offset 8, -20
 2449              		.cfi_offset 9, -16
 2450              		.cfi_offset 10, -12
 2451              		.cfi_offset 11, -8
 2452              		.cfi_offset 14, -4
1010:./Libraries/STM32H7xx_HAL_Driver/Src/stm32h7xx_hal_nand.c ****   {
 2453              		.loc 1 1010 12 view .LVU810
 2454 0004 90F82140 		ldrb	r4, [r0, #33]	@ zero_extendqisi2
1000:./Libraries/STM32H7xx_HAL_Driver/Src/stm32h7xx_hal_nand.c ****   uint32_t index;
 2455              		.loc 1 1000 1 view .LVU811
 2456 0008 8146     		mov	r9, r0
1001:./Libraries/STM32H7xx_HAL_Driver/Src/stm32h7xx_hal_nand.c ****   uint32_t tickstart;
 2457              		.loc 1 1001 3 is_stmt 1 view .LVU812
1002:./Libraries/STM32H7xx_HAL_Driver/Src/stm32h7xx_hal_nand.c ****   uint32_t deviceaddress;
 2458              		.loc 1 1002 3 view .LVU813
ARM GAS  /tmp/cc5RRSLv.s 			page 110


1003:./Libraries/STM32H7xx_HAL_Driver/Src/stm32h7xx_hal_nand.c ****   uint32_t numpageswritten = 0U;
 2459              		.loc 1 1003 3 view .LVU814
1004:./Libraries/STM32H7xx_HAL_Driver/Src/stm32h7xx_hal_nand.c ****   uint32_t nandaddress;
 2460              		.loc 1 1004 3 view .LVU815
 2461              	.LVL118:
1005:./Libraries/STM32H7xx_HAL_Driver/Src/stm32h7xx_hal_nand.c ****   uint32_t nbpages = NumPageToWrite;
 2462              		.loc 1 1005 3 view .LVU816
1006:./Libraries/STM32H7xx_HAL_Driver/Src/stm32h7xx_hal_nand.c ****   uint16_t *buff = pBuffer;
 2463              		.loc 1 1006 3 view .LVU817
1007:./Libraries/STM32H7xx_HAL_Driver/Src/stm32h7xx_hal_nand.c **** 
 2464              		.loc 1 1007 3 view .LVU818
1010:./Libraries/STM32H7xx_HAL_Driver/Src/stm32h7xx_hal_nand.c ****   {
 2465              		.loc 1 1010 3 view .LVU819
1000:./Libraries/STM32H7xx_HAL_Driver/Src/stm32h7xx_hal_nand.c ****   uint32_t index;
 2466              		.loc 1 1000 1 is_stmt 0 view .LVU820
 2467 000a 83B0     		sub	sp, sp, #12
 2468              	.LCFI37:
 2469              		.cfi_def_cfa_offset 48
1010:./Libraries/STM32H7xx_HAL_Driver/Src/stm32h7xx_hal_nand.c ****   {
 2470              		.loc 1 1010 6 view .LVU821
 2471 000c 022C     		cmp	r4, #2
1010:./Libraries/STM32H7xx_HAL_Driver/Src/stm32h7xx_hal_nand.c ****   {
 2472              		.loc 1 1010 12 view .LVU822
 2473 000e E0B2     		uxtb	r0, r4
 2474              	.LVL119:
1010:./Libraries/STM32H7xx_HAL_Driver/Src/stm32h7xx_hal_nand.c ****   {
 2475              		.loc 1 1010 6 view .LVU823
 2476 0010 00F08480 		beq	.L178
1014:./Libraries/STM32H7xx_HAL_Driver/Src/stm32h7xx_hal_nand.c ****   {
 2477              		.loc 1 1014 8 is_stmt 1 view .LVU824
1014:./Libraries/STM32H7xx_HAL_Driver/Src/stm32h7xx_hal_nand.c ****   {
 2478              		.loc 1 1014 17 is_stmt 0 view .LVU825
 2479 0014 99F82100 		ldrb	r0, [r9, #33]	@ zero_extendqisi2
1014:./Libraries/STM32H7xx_HAL_Driver/Src/stm32h7xx_hal_nand.c ****   {
 2480              		.loc 1 1014 11 view .LVU826
 2481 0018 0128     		cmp	r0, #1
1014:./Libraries/STM32H7xx_HAL_Driver/Src/stm32h7xx_hal_nand.c ****   {
 2482              		.loc 1 1014 17 view .LVU827
 2483 001a C4B2     		uxtb	r4, r0
1014:./Libraries/STM32H7xx_HAL_Driver/Src/stm32h7xx_hal_nand.c ****   {
 2484              		.loc 1 1014 11 view .LVU828
 2485 001c 40F08180 		bne	.L192
1017:./Libraries/STM32H7xx_HAL_Driver/Src/stm32h7xx_hal_nand.c **** 
 2486              		.loc 1 1017 5 is_stmt 1 view .LVU829
1017:./Libraries/STM32H7xx_HAL_Driver/Src/stm32h7xx_hal_nand.c **** 
 2487              		.loc 1 1017 5 view .LVU830
 2488 0020 99F82000 		ldrb	r0, [r9, #32]	@ zero_extendqisi2
 2489 0024 0128     		cmp	r0, #1
 2490 0026 00F0BE80 		beq	.L193
1017:./Libraries/STM32H7xx_HAL_Driver/Src/stm32h7xx_hal_nand.c **** 
 2491              		.loc 1 1017 5 discriminator 2 view .LVU831
1020:./Libraries/STM32H7xx_HAL_Driver/Src/stm32h7xx_hal_nand.c **** 
 2492              		.loc 1 1020 18 is_stmt 0 discriminator 2 view .LVU832
 2493 002a 0220     		movs	r0, #2
1017:./Libraries/STM32H7xx_HAL_Driver/Src/stm32h7xx_hal_nand.c **** 
 2494              		.loc 1 1017 5 discriminator 2 view .LVU833
 2495 002c 89F82040 		strb	r4, [r9, #32]
ARM GAS  /tmp/cc5RRSLv.s 			page 111


1017:./Libraries/STM32H7xx_HAL_Driver/Src/stm32h7xx_hal_nand.c **** 
 2496              		.loc 1 1017 5 is_stmt 1 discriminator 2 view .LVU834
1020:./Libraries/STM32H7xx_HAL_Driver/Src/stm32h7xx_hal_nand.c **** 
 2497              		.loc 1 1020 5 discriminator 2 view .LVU835
1026:./Libraries/STM32H7xx_HAL_Driver/Src/stm32h7xx_hal_nand.c **** 
 2498              		.loc 1 1026 19 is_stmt 0 discriminator 2 view .LVU836
 2499 0030 D9F83860 		ldr	r6, [r9, #56]
1020:./Libraries/STM32H7xx_HAL_Driver/Src/stm32h7xx_hal_nand.c **** 
 2500              		.loc 1 1020 18 discriminator 2 view .LVU837
 2501 0034 89F82100 		strb	r0, [r9, #33]
1023:./Libraries/STM32H7xx_HAL_Driver/Src/stm32h7xx_hal_nand.c **** 
 2502              		.loc 1 1023 5 is_stmt 1 discriminator 2 view .LVU838
 2503              	.LVL120:
1026:./Libraries/STM32H7xx_HAL_Driver/Src/stm32h7xx_hal_nand.c **** 
 2504              		.loc 1 1026 5 discriminator 2 view .LVU839
1026:./Libraries/STM32H7xx_HAL_Driver/Src/stm32h7xx_hal_nand.c **** 
 2505              		.loc 1 1026 19 is_stmt 0 discriminator 2 view .LVU840
 2506 0038 8888     		ldrh	r0, [r1, #4]
 2507 003a 4C88     		ldrh	r4, [r1, #2]
 2508 003c 0D88     		ldrh	r5, [r1]
 2509 003e 06FB0404 		mla	r4, r6, r4, r0
 2510 0042 D9F82C00 		ldr	r0, [r9, #44]
1026:./Libraries/STM32H7xx_HAL_Driver/Src/stm32h7xx_hal_nand.c **** 
 2511              		.loc 1 1026 17 discriminator 2 view .LVU841
 2512 0046 00FB0454 		mla	r4, r0, r4, r5
 2513              	.LVL121:
1029:./Libraries/STM32H7xx_HAL_Driver/Src/stm32h7xx_hal_nand.c ****     {
 2514              		.loc 1 1029 5 is_stmt 1 discriminator 2 view .LVU842
1029:./Libraries/STM32H7xx_HAL_Driver/Src/stm32h7xx_hal_nand.c ****     {
 2515              		.loc 1 1029 11 discriminator 2 view .LVU843
 2516 004a 002B     		cmp	r3, #0
 2517 004c 00F0A180 		beq	.L179
 2518 0050 2344     		add	r3, r3, r4
 2519              	.LVL122:
1029:./Libraries/STM32H7xx_HAL_Driver/Src/stm32h7xx_hal_nand.c ****     {
 2520              		.loc 1 1029 11 is_stmt 0 discriminator 2 view .LVU844
 2521 0052 9246     		mov	r10, r2
1032:./Libraries/STM32H7xx_HAL_Driver/Src/stm32h7xx_hal_nand.c ****       __DSB();
 2522              		.loc 1 1032 63 view .LVU845
 2523 0054 554D     		ldr	r5, .L212
1076:./Libraries/STM32H7xx_HAL_Driver/Src/stm32h7xx_hal_nand.c ****           __DSB();
 2524              		.loc 1 1076 68 view .LVU846
 2525 0056 DFF85881 		ldr	r8, .L212+4
 2526 005a 0193     		str	r3, [sp, #4]
 2527              	.LVL123:
 2528              	.L180:
1029:./Libraries/STM32H7xx_HAL_Driver/Src/stm32h7xx_hal_nand.c ****     {
 2529              		.loc 1 1029 73 discriminator 1 view .LVU847
 2530 005c D9F83030 		ldr	r3, [r9, #48]
 2531 0060 03FB00F3 		mul	r3, r3, r0
1029:./Libraries/STM32H7xx_HAL_Driver/Src/stm32h7xx_hal_nand.c ****     {
 2532              		.loc 1 1029 28 discriminator 1 view .LVU848
 2533 0064 A342     		cmp	r3, r4
 2534 0066 40F29480 		bls	.L179
1032:./Libraries/STM32H7xx_HAL_Driver/Src/stm32h7xx_hal_nand.c ****       __DSB();
 2535              		.loc 1 1032 7 is_stmt 1 view .LVU849
1032:./Libraries/STM32H7xx_HAL_Driver/Src/stm32h7xx_hal_nand.c ****       __DSB();
ARM GAS  /tmp/cc5RRSLv.s 			page 112


 2536              		.loc 1 1032 63 is_stmt 0 view .LVU850
 2537 006a 4FF00002 		mov	r2, #0
 2538 006e 2A70     		strb	r2, [r5]
1033:./Libraries/STM32H7xx_HAL_Driver/Src/stm32h7xx_hal_nand.c ****       *(__IO uint8_t *)((uint32_t)(deviceaddress | CMD_AREA)) = NAND_CMD_WRITE0;
 2539              		.loc 1 1033 7 is_stmt 1 view .LVU851
 2540              	.LBB772:
 2541              	.LBI772:
 944:./Libraries/CMSIS/Core/Include/cmsis_gcc.h **** {
 2542              		.loc 2 944 27 view .LVU852
 2543              	.LBB773:
 946:./Libraries/CMSIS/Core/Include/cmsis_gcc.h **** }
 2544              		.loc 2 946 3 view .LVU853
 2545              		.syntax unified
 2546              	@ 946 "./Libraries/CMSIS/Core/Include/cmsis_gcc.h" 1
 2547 0070 BFF34F8F 		dsb 0xF
 2548              	@ 0 "" 2
 2549              		.thumb
 2550              		.syntax unified
 2551              	.LBE773:
 2552              	.LBE772:
1034:./Libraries/STM32H7xx_HAL_Driver/Src/stm32h7xx_hal_nand.c ****       __DSB();
 2553              		.loc 1 1034 7 view .LVU854
1034:./Libraries/STM32H7xx_HAL_Driver/Src/stm32h7xx_hal_nand.c ****       __DSB();
 2554              		.loc 1 1034 63 is_stmt 0 view .LVU855
 2555 0074 8023     		movs	r3, #128
 2556 0076 2B70     		strb	r3, [r5]
1035:./Libraries/STM32H7xx_HAL_Driver/Src/stm32h7xx_hal_nand.c **** 
 2557              		.loc 1 1035 7 is_stmt 1 view .LVU856
 2558              	.LBB774:
 2559              	.LBI774:
 944:./Libraries/CMSIS/Core/Include/cmsis_gcc.h **** {
 2560              		.loc 2 944 27 view .LVU857
 2561              	.LBB775:
 946:./Libraries/CMSIS/Core/Include/cmsis_gcc.h **** }
 2562              		.loc 2 946 3 view .LVU858
 2563              		.syntax unified
 2564              	@ 946 "./Libraries/CMSIS/Core/Include/cmsis_gcc.h" 1
 2565 0078 BFF34F8F 		dsb 0xF
 2566              	@ 0 "" 2
 2567              		.thumb
 2568              		.syntax unified
 2569              	.LBE775:
 2570              	.LBE774:
1038:./Libraries/STM32H7xx_HAL_Driver/Src/stm32h7xx_hal_nand.c ****       {
 2571              		.loc 1 1038 7 view .LVU859
1038:./Libraries/STM32H7xx_HAL_Driver/Src/stm32h7xx_hal_nand.c ****       {
 2572              		.loc 1 1038 10 is_stmt 0 view .LVU860
 2573 007c D9F82430 		ldr	r3, [r9, #36]
1040:./Libraries/STM32H7xx_HAL_Driver/Src/stm32h7xx_hal_nand.c ****         {
 2574              		.loc 1 1040 40 view .LVU861
 2575 0080 D9F82C00 		ldr	r0, [r9, #44]
1038:./Libraries/STM32H7xx_HAL_Driver/Src/stm32h7xx_hal_nand.c ****       {
 2576              		.loc 1 1038 10 view .LVU862
 2577 0084 B3F5007F 		cmp	r3, #512
1040:./Libraries/STM32H7xx_HAL_Driver/Src/stm32h7xx_hal_nand.c ****         {
 2578              		.loc 1 1040 40 view .LVU863
 2579 0088 D9F83030 		ldr	r3, [r9, #48]
ARM GAS  /tmp/cc5RRSLv.s 			page 113


 2580 008c 03FB00F3 		mul	r3, r3, r0
1038:./Libraries/STM32H7xx_HAL_Driver/Src/stm32h7xx_hal_nand.c ****       {
 2581              		.loc 1 1038 10 view .LVU864
 2582 0090 58D8     		bhi	.L181
1040:./Libraries/STM32H7xx_HAL_Driver/Src/stm32h7xx_hal_nand.c ****         {
 2583              		.loc 1 1040 9 is_stmt 1 view .LVU865
1040:./Libraries/STM32H7xx_HAL_Driver/Src/stm32h7xx_hal_nand.c ****         {
 2584              		.loc 1 1040 12 is_stmt 0 view .LVU866
 2585 0092 B3F5803F 		cmp	r3, #65536
 2586 0096 61D2     		bcs	.L182
1042:./Libraries/STM32H7xx_HAL_Driver/Src/stm32h7xx_hal_nand.c ****           __DSB();
 2587              		.loc 1 1042 11 is_stmt 1 view .LVU867
1042:./Libraries/STM32H7xx_HAL_Driver/Src/stm32h7xx_hal_nand.c ****           __DSB();
 2588              		.loc 1 1042 68 is_stmt 0 view .LVU868
 2589 0098 88F80020 		strb	r2, [r8]
1043:./Libraries/STM32H7xx_HAL_Driver/Src/stm32h7xx_hal_nand.c ****           *(__IO uint8_t *)((uint32_t)(deviceaddress | ADDR_AREA)) = ADDR_1ST_CYCLE(nandaddress);
 2590              		.loc 1 1043 11 is_stmt 1 view .LVU869
 2591              	.LBB776:
 2592              	.LBI776:
 944:./Libraries/CMSIS/Core/Include/cmsis_gcc.h **** {
 2593              		.loc 2 944 27 view .LVU870
 2594              	.LBB777:
 946:./Libraries/CMSIS/Core/Include/cmsis_gcc.h **** }
 2595              		.loc 2 946 3 view .LVU871
 2596              	.L209:
 2597              	.LBE777:
 2598              	.LBE776:
1068:./Libraries/STM32H7xx_HAL_Driver/Src/stm32h7xx_hal_nand.c ****           *(__IO uint8_t *)((uint32_t)(deviceaddress | ADDR_AREA)) = ADDR_1ST_CYCLE(nandaddress);
 2599              		.loc 1 1068 11 view .LVU872
 2600              	.LBB778:
 2601              	.LBI778:
 944:./Libraries/CMSIS/Core/Include/cmsis_gcc.h **** {
 2602              		.loc 2 944 27 view .LVU873
 2603              	.LBB779:
 946:./Libraries/CMSIS/Core/Include/cmsis_gcc.h **** }
 2604              		.loc 2 946 3 view .LVU874
 2605              		.syntax unified
 2606              	@ 946 "./Libraries/CMSIS/Core/Include/cmsis_gcc.h" 1
 2607 009c BFF34F8F 		dsb 0xF
 2608              	@ 0 "" 2
 2609              		.thumb
 2610              		.syntax unified
 2611              	.LBE779:
 2612              	.LBE778:
1069:./Libraries/STM32H7xx_HAL_Driver/Src/stm32h7xx_hal_nand.c ****           __DSB();
 2613              		.loc 1 1069 11 view .LVU875
 2614 00a0 E3B2     		uxtb	r3, r4
1069:./Libraries/STM32H7xx_HAL_Driver/Src/stm32h7xx_hal_nand.c ****           __DSB();
 2615              		.loc 1 1069 68 is_stmt 0 view .LVU876
 2616 00a2 88F80030 		strb	r3, [r8]
1070:./Libraries/STM32H7xx_HAL_Driver/Src/stm32h7xx_hal_nand.c ****           *(__IO uint8_t *)((uint32_t)(deviceaddress | ADDR_AREA)) = ADDR_2ND_CYCLE(nandaddress);
 2617              		.loc 1 1070 11 is_stmt 1 view .LVU877
 2618              	.LBB780:
 2619              	.LBI780:
 944:./Libraries/CMSIS/Core/Include/cmsis_gcc.h **** {
 2620              		.loc 2 944 27 view .LVU878
 2621              	.LBB781:
ARM GAS  /tmp/cc5RRSLv.s 			page 114


 946:./Libraries/CMSIS/Core/Include/cmsis_gcc.h **** }
 2622              		.loc 2 946 3 view .LVU879
 2623              		.syntax unified
 2624              	@ 946 "./Libraries/CMSIS/Core/Include/cmsis_gcc.h" 1
 2625 00a6 BFF34F8F 		dsb 0xF
 2626              	@ 0 "" 2
 2627              		.thumb
 2628              		.syntax unified
 2629              	.LBE781:
 2630              	.LBE780:
1071:./Libraries/STM32H7xx_HAL_Driver/Src/stm32h7xx_hal_nand.c ****           __DSB();
 2631              		.loc 1 1071 11 view .LVU880
1071:./Libraries/STM32H7xx_HAL_Driver/Src/stm32h7xx_hal_nand.c ****           __DSB();
 2632              		.loc 1 1071 70 is_stmt 0 view .LVU881
 2633 00aa C4F30723 		ubfx	r3, r4, #8, #8
1071:./Libraries/STM32H7xx_HAL_Driver/Src/stm32h7xx_hal_nand.c ****           __DSB();
 2634              		.loc 1 1071 68 view .LVU882
 2635 00ae 88F80030 		strb	r3, [r8]
1072:./Libraries/STM32H7xx_HAL_Driver/Src/stm32h7xx_hal_nand.c ****         }
 2636              		.loc 1 1072 11 is_stmt 1 view .LVU883
 2637              	.LBB782:
 2638              	.LBI782:
 944:./Libraries/CMSIS/Core/Include/cmsis_gcc.h **** {
 2639              		.loc 2 944 27 view .LVU884
 2640              	.LBB783:
 946:./Libraries/CMSIS/Core/Include/cmsis_gcc.h **** }
 2641              		.loc 2 946 3 view .LVU885
 2642              		.syntax unified
 2643              	@ 946 "./Libraries/CMSIS/Core/Include/cmsis_gcc.h" 1
 2644 00b2 BFF34F8F 		dsb 0xF
 2645              	@ 0 "" 2
 2646              		.thumb
 2647              		.syntax unified
 2648              	.L183:
 946:./Libraries/CMSIS/Core/Include/cmsis_gcc.h **** }
 2649              		.loc 2 946 3 is_stmt 0 view .LVU886
 2650              	.LBE783:
 2651              	.LBE782:
1090:./Libraries/STM32H7xx_HAL_Driver/Src/stm32h7xx_hal_nand.c ****       {
 2652              		.loc 1 1090 7 is_stmt 1 view .LVU887
1090:./Libraries/STM32H7xx_HAL_Driver/Src/stm32h7xx_hal_nand.c ****       {
 2653              		.loc 1 1090 10 is_stmt 0 view .LVU888
 2654 00b6 D9F80C30 		ldr	r3, [r9, #12]
 2655 00ba 002B     		cmp	r3, #0
 2656 00bc 3CD0     		beq	.L185
 2657 00be D9F82430 		ldr	r3, [r9, #36]
 2658              	.L186:
 2659              	.LVL124:
1101:./Libraries/STM32H7xx_HAL_Driver/Src/stm32h7xx_hal_nand.c ****       {
 2660              		.loc 1 1101 24 is_stmt 1 discriminator 1 view .LVU889
1101:./Libraries/STM32H7xx_HAL_Driver/Src/stm32h7xx_hal_nand.c ****       {
 2661              		.loc 1 1101 7 is_stmt 0 discriminator 1 view .LVU890
 2662 00c2 63B1     		cbz	r3, .L187
1101:./Libraries/STM32H7xx_HAL_Driver/Src/stm32h7xx_hal_nand.c ****       {
 2663              		.loc 1 1101 7 view .LVU891
 2664 00c4 0023     		movs	r3, #0
1103:./Libraries/STM32H7xx_HAL_Driver/Src/stm32h7xx_hal_nand.c ****         buff++;
ARM GAS  /tmp/cc5RRSLv.s 			page 115


 2665              		.loc 1 1103 41 view .LVU892
 2666 00c6 4FF00046 		mov	r6, #-2147483648
 2667              	.LVL125:
 2668              	.L188:
1103:./Libraries/STM32H7xx_HAL_Driver/Src/stm32h7xx_hal_nand.c ****         buff++;
 2669              		.loc 1 1103 9 is_stmt 1 discriminator 3 view .LVU893
1103:./Libraries/STM32H7xx_HAL_Driver/Src/stm32h7xx_hal_nand.c ****         buff++;
 2670              		.loc 1 1103 43 is_stmt 0 discriminator 3 view .LVU894
 2671 00ca 3AF8020B 		ldrh	r0, [r10], #2
 2672              	.LVL126:
1103:./Libraries/STM32H7xx_HAL_Driver/Src/stm32h7xx_hal_nand.c ****         buff++;
 2673              		.loc 1 1103 41 discriminator 3 view .LVU895
 2674 00ce 3080     		strh	r0, [r6]	@ movhi
1104:./Libraries/STM32H7xx_HAL_Driver/Src/stm32h7xx_hal_nand.c ****         __DSB();
 2675              		.loc 1 1104 9 is_stmt 1 discriminator 3 view .LVU896
 2676              	.LVL127:
1105:./Libraries/STM32H7xx_HAL_Driver/Src/stm32h7xx_hal_nand.c ****       }
 2677              		.loc 1 1105 9 discriminator 3 view .LVU897
 2678              	.LBB784:
 2679              	.LBI784:
 944:./Libraries/CMSIS/Core/Include/cmsis_gcc.h **** {
 2680              		.loc 2 944 27 discriminator 3 view .LVU898
 2681              	.LBB785:
 946:./Libraries/CMSIS/Core/Include/cmsis_gcc.h **** }
 2682              		.loc 2 946 3 discriminator 3 view .LVU899
 2683              		.syntax unified
 2684              	@ 946 "./Libraries/CMSIS/Core/Include/cmsis_gcc.h" 1
 2685 00d0 BFF34F8F 		dsb 0xF
 2686              	@ 0 "" 2
 2687              		.thumb
 2688              		.syntax unified
 2689              	.LBE785:
 2690              	.LBE784:
1101:./Libraries/STM32H7xx_HAL_Driver/Src/stm32h7xx_hal_nand.c ****       {
 2691              		.loc 1 1101 56 discriminator 3 view .LVU900
1101:./Libraries/STM32H7xx_HAL_Driver/Src/stm32h7xx_hal_nand.c ****       {
 2692              		.loc 1 1101 61 is_stmt 0 discriminator 3 view .LVU901
 2693 00d4 0133     		adds	r3, r3, #1
 2694              	.LVL128:
1101:./Libraries/STM32H7xx_HAL_Driver/Src/stm32h7xx_hal_nand.c ****       {
 2695              		.loc 1 1101 24 is_stmt 1 discriminator 3 view .LVU902
1101:./Libraries/STM32H7xx_HAL_Driver/Src/stm32h7xx_hal_nand.c ****       {
 2696              		.loc 1 1101 7 is_stmt 0 discriminator 3 view .LVU903
 2697 00d6 D9F82400 		ldr	r0, [r9, #36]
 2698 00da 9842     		cmp	r0, r3
 2699 00dc F5D8     		bhi	.L188
 2700              	.LVL129:
 2701              	.L187:
1108:./Libraries/STM32H7xx_HAL_Driver/Src/stm32h7xx_hal_nand.c ****       __DSB();
 2702              		.loc 1 1108 7 is_stmt 1 view .LVU904
1108:./Libraries/STM32H7xx_HAL_Driver/Src/stm32h7xx_hal_nand.c ****       __DSB();
 2703              		.loc 1 1108 63 is_stmt 0 view .LVU905
 2704 00de 1023     		movs	r3, #16
 2705 00e0 2B70     		strb	r3, [r5]
1109:./Libraries/STM32H7xx_HAL_Driver/Src/stm32h7xx_hal_nand.c **** 
 2706              		.loc 1 1109 7 is_stmt 1 view .LVU906
 2707              	.LBB786:
ARM GAS  /tmp/cc5RRSLv.s 			page 116


 2708              	.LBI786:
 944:./Libraries/CMSIS/Core/Include/cmsis_gcc.h **** {
 2709              		.loc 2 944 27 view .LVU907
 2710              	.LBB787:
 946:./Libraries/CMSIS/Core/Include/cmsis_gcc.h **** }
 2711              		.loc 2 946 3 view .LVU908
 2712              		.syntax unified
 2713              	@ 946 "./Libraries/CMSIS/Core/Include/cmsis_gcc.h" 1
 2714 00e2 BFF34F8F 		dsb 0xF
 2715              	@ 0 "" 2
 2716              		.thumb
 2717              		.syntax unified
 2718              	.LBE787:
 2719              	.LBE786:
1112:./Libraries/STM32H7xx_HAL_Driver/Src/stm32h7xx_hal_nand.c **** 
 2720              		.loc 1 1112 7 view .LVU909
1112:./Libraries/STM32H7xx_HAL_Driver/Src/stm32h7xx_hal_nand.c **** 
 2721              		.loc 1 1112 19 is_stmt 0 view .LVU910
 2722 00e6 FFF7FEFF 		bl	HAL_GetTick
 2723              	.LVL130:
 2724              	.LBB788:
 2725              	.LBB789:
2204:./Libraries/STM32H7xx_HAL_Driver/Src/stm32h7xx_hal_nand.c **** 
 2726              		.loc 1 2204 59 view .LVU911
 2727 00ea 4FF0700B 		mov	fp, #112
2207:./Libraries/STM32H7xx_HAL_Driver/Src/stm32h7xx_hal_nand.c **** 
 2728              		.loc 1 2207 10 view .LVU912
 2729 00ee 4FF00047 		mov	r7, #-2147483648
 2730              	.LBE789:
 2731              	.LBE788:
1112:./Libraries/STM32H7xx_HAL_Driver/Src/stm32h7xx_hal_nand.c **** 
 2732              		.loc 1 1112 19 view .LVU913
 2733 00f2 0646     		mov	r6, r0
 2734              	.LVL131:
1115:./Libraries/STM32H7xx_HAL_Driver/Src/stm32h7xx_hal_nand.c ****       {
 2735              		.loc 1 1115 7 is_stmt 1 view .LVU914
 2736              	.L189:
1117:./Libraries/STM32H7xx_HAL_Driver/Src/stm32h7xx_hal_nand.c ****         {
 2737              		.loc 1 1117 9 view .LVU915
1115:./Libraries/STM32H7xx_HAL_Driver/Src/stm32h7xx_hal_nand.c ****       {
 2738              		.loc 1 1115 13 view .LVU916
 2739              	.LBB791:
 2740              	.LBI788:
2194:./Libraries/STM32H7xx_HAL_Driver/Src/stm32h7xx_hal_nand.c **** {
 2741              		.loc 1 2194 10 view .LVU917
 2742              	.LBB790:
2196:./Libraries/STM32H7xx_HAL_Driver/Src/stm32h7xx_hal_nand.c ****   uint32_t deviceaddress;
 2743              		.loc 1 2196 3 view .LVU918
2197:./Libraries/STM32H7xx_HAL_Driver/Src/stm32h7xx_hal_nand.c ****   UNUSED(hnand);
 2744              		.loc 1 2197 3 view .LVU919
2198:./Libraries/STM32H7xx_HAL_Driver/Src/stm32h7xx_hal_nand.c **** 
 2745              		.loc 1 2198 3 view .LVU920
2201:./Libraries/STM32H7xx_HAL_Driver/Src/stm32h7xx_hal_nand.c **** 
 2746              		.loc 1 2201 3 view .LVU921
2204:./Libraries/STM32H7xx_HAL_Driver/Src/stm32h7xx_hal_nand.c **** 
 2747              		.loc 1 2204 3 view .LVU922
 2748              		.loc 1 2214 8 view .LVU923
ARM GAS  /tmp/cc5RRSLv.s 			page 117


2204:./Libraries/STM32H7xx_HAL_Driver/Src/stm32h7xx_hal_nand.c **** 
 2749              		.loc 1 2204 59 is_stmt 0 view .LVU924
 2750 00f4 85F800B0 		strb	fp, [r5]
2207:./Libraries/STM32H7xx_HAL_Driver/Src/stm32h7xx_hal_nand.c **** 
 2751              		.loc 1 2207 3 is_stmt 1 view .LVU925
2207:./Libraries/STM32H7xx_HAL_Driver/Src/stm32h7xx_hal_nand.c **** 
 2752              		.loc 1 2207 10 is_stmt 0 view .LVU926
 2753 00f8 3B78     		ldrb	r3, [r7]	@ zero_extendqisi2
2210:./Libraries/STM32H7xx_HAL_Driver/Src/stm32h7xx_hal_nand.c ****   {
 2754              		.loc 1 2210 6 view .LVU927
 2755 00fa DA07     		lsls	r2, r3, #31
2207:./Libraries/STM32H7xx_HAL_Driver/Src/stm32h7xx_hal_nand.c **** 
 2756              		.loc 1 2207 10 view .LVU928
 2757 00fc D8B2     		uxtb	r0, r3
 2758              	.LVL132:
2210:./Libraries/STM32H7xx_HAL_Driver/Src/stm32h7xx_hal_nand.c ****   {
 2759              		.loc 1 2210 3 is_stmt 1 view .LVU929
2210:./Libraries/STM32H7xx_HAL_Driver/Src/stm32h7xx_hal_nand.c ****   {
 2760              		.loc 1 2210 6 is_stmt 0 view .LVU930
 2761 00fe 01D4     		bmi	.L190
 2762              		.loc 1 2214 11 view .LVU931
 2763 0100 4306     		lsls	r3, r0, #25
 2764 0102 12D4     		bmi	.L211
 2765              	.L190:
 2766              	.LBE790:
 2767              	.LBE791:
1117:./Libraries/STM32H7xx_HAL_Driver/Src/stm32h7xx_hal_nand.c ****         {
 2768              		.loc 1 1117 14 view .LVU932
 2769 0104 FFF7FEFF 		bl	HAL_GetTick
 2770              	.LVL133:
1117:./Libraries/STM32H7xx_HAL_Driver/Src/stm32h7xx_hal_nand.c ****         {
 2771              		.loc 1 1117 28 view .LVU933
 2772 0108 801B     		subs	r0, r0, r6
1117:./Libraries/STM32H7xx_HAL_Driver/Src/stm32h7xx_hal_nand.c ****         {
 2773              		.loc 1 1117 12 view .LVU934
 2774 010a B0F1807F 		cmp	r0, #16777216
 2775 010e F1D9     		bls	.L189
1120:./Libraries/STM32H7xx_HAL_Driver/Src/stm32h7xx_hal_nand.c **** 
 2776              		.loc 1 1120 11 is_stmt 1 view .LVU935
1120:./Libraries/STM32H7xx_HAL_Driver/Src/stm32h7xx_hal_nand.c **** 
 2777              		.loc 1 1120 24 is_stmt 0 view .LVU936
 2778 0110 0320     		movs	r0, #3
1123:./Libraries/STM32H7xx_HAL_Driver/Src/stm32h7xx_hal_nand.c **** 
 2779              		.loc 1 1123 11 view .LVU937
 2780 0112 0023     		movs	r3, #0
1120:./Libraries/STM32H7xx_HAL_Driver/Src/stm32h7xx_hal_nand.c **** 
 2781              		.loc 1 1120 24 view .LVU938
 2782 0114 89F82100 		strb	r0, [r9, #33]
1123:./Libraries/STM32H7xx_HAL_Driver/Src/stm32h7xx_hal_nand.c **** 
 2783              		.loc 1 1123 11 is_stmt 1 view .LVU939
1123:./Libraries/STM32H7xx_HAL_Driver/Src/stm32h7xx_hal_nand.c **** 
 2784              		.loc 1 1123 11 view .LVU940
 2785 0118 89F82030 		strb	r3, [r9, #32]
1123:./Libraries/STM32H7xx_HAL_Driver/Src/stm32h7xx_hal_nand.c **** 
 2786              		.loc 1 1123 11 view .LVU941
1125:./Libraries/STM32H7xx_HAL_Driver/Src/stm32h7xx_hal_nand.c ****         }
 2787              		.loc 1 1125 11 view .LVU942
ARM GAS  /tmp/cc5RRSLv.s 			page 118


 2788              	.LVL134:
 2789              	.L178:
1151:./Libraries/STM32H7xx_HAL_Driver/Src/stm32h7xx_hal_nand.c **** 
 2790              		.loc 1 1151 1 is_stmt 0 view .LVU943
 2791 011c 03B0     		add	sp, sp, #12
 2792              	.LCFI38:
 2793              		.cfi_remember_state
 2794              		.cfi_def_cfa_offset 36
 2795              		@ sp needed
 2796 011e BDE8F08F 		pop	{r4, r5, r6, r7, r8, r9, r10, fp, pc}
 2797              	.LVL135:
 2798              	.L192:
 2799              	.LCFI39:
 2800              		.cfi_restore_state
1147:./Libraries/STM32H7xx_HAL_Driver/Src/stm32h7xx_hal_nand.c ****   }
 2801              		.loc 1 1147 12 view .LVU944
 2802 0122 0120     		movs	r0, #1
1151:./Libraries/STM32H7xx_HAL_Driver/Src/stm32h7xx_hal_nand.c **** 
 2803              		.loc 1 1151 1 view .LVU945
 2804 0124 03B0     		add	sp, sp, #12
 2805              	.LCFI40:
 2806              		.cfi_remember_state
 2807              		.cfi_def_cfa_offset 36
 2808              		@ sp needed
 2809 0126 BDE8F08F 		pop	{r4, r5, r6, r7, r8, r9, r10, fp, pc}
 2810              	.LVL136:
 2811              	.L211:
 2812              	.LCFI41:
 2813              		.cfi_restore_state
1130:./Libraries/STM32H7xx_HAL_Driver/Src/stm32h7xx_hal_nand.c **** 
 2814              		.loc 1 1130 7 is_stmt 1 view .LVU946
1133:./Libraries/STM32H7xx_HAL_Driver/Src/stm32h7xx_hal_nand.c **** 
 2815              		.loc 1 1133 7 view .LVU947
1136:./Libraries/STM32H7xx_HAL_Driver/Src/stm32h7xx_hal_nand.c ****     }
 2816              		.loc 1 1136 7 view .LVU948
1136:./Libraries/STM32H7xx_HAL_Driver/Src/stm32h7xx_hal_nand.c ****     }
 2817              		.loc 1 1136 19 is_stmt 0 view .LVU949
 2818 012a 0134     		adds	r4, r4, #1
 2819              	.LVL137:
1029:./Libraries/STM32H7xx_HAL_Driver/Src/stm32h7xx_hal_nand.c ****     {
 2820              		.loc 1 1029 11 is_stmt 1 view .LVU950
 2821 012c 019B     		ldr	r3, [sp, #4]
 2822 012e A342     		cmp	r3, r4
 2823 0130 2FD0     		beq	.L179
1029:./Libraries/STM32H7xx_HAL_Driver/Src/stm32h7xx_hal_nand.c ****     {
 2824              		.loc 1 1029 11 is_stmt 0 view .LVU951
 2825 0132 D9F82C00 		ldr	r0, [r9, #44]
 2826              	.LVL138:
1029:./Libraries/STM32H7xx_HAL_Driver/Src/stm32h7xx_hal_nand.c ****     {
 2827              		.loc 1 1029 11 view .LVU952
 2828 0136 91E7     		b	.L180
 2829              	.LVL139:
 2830              	.L185:
1092:./Libraries/STM32H7xx_HAL_Driver/Src/stm32h7xx_hal_nand.c ****       }
 2831              		.loc 1 1092 9 is_stmt 1 view .LVU953
1092:./Libraries/STM32H7xx_HAL_Driver/Src/stm32h7xx_hal_nand.c ****       }
 2832              		.loc 1 1092 57 is_stmt 0 view .LVU954
ARM GAS  /tmp/cc5RRSLv.s 			page 119


 2833 0138 D9F82430 		ldr	r3, [r9, #36]
 2834 013c 5B08     		lsrs	r3, r3, #1
1092:./Libraries/STM32H7xx_HAL_Driver/Src/stm32h7xx_hal_nand.c ****       }
 2835              		.loc 1 1092 32 view .LVU955
 2836 013e C9F82430 		str	r3, [r9, #36]
 2837 0142 BEE7     		b	.L186
 2838              	.L181:
1063:./Libraries/STM32H7xx_HAL_Driver/Src/stm32h7xx_hal_nand.c ****         {
 2839              		.loc 1 1063 9 is_stmt 1 view .LVU956
1063:./Libraries/STM32H7xx_HAL_Driver/Src/stm32h7xx_hal_nand.c ****         {
 2840              		.loc 1 1063 12 is_stmt 0 view .LVU957
 2841 0144 B3F5803F 		cmp	r3, #65536
1065:./Libraries/STM32H7xx_HAL_Driver/Src/stm32h7xx_hal_nand.c ****           __DSB();
 2842              		.loc 1 1065 68 view .LVU958
 2843 0148 4FF00003 		mov	r3, #0
 2844 014c 88F80030 		strb	r3, [r8]
1063:./Libraries/STM32H7xx_HAL_Driver/Src/stm32h7xx_hal_nand.c ****         {
 2845              		.loc 1 1063 12 view .LVU959
 2846 0150 1CD2     		bcs	.L184
1065:./Libraries/STM32H7xx_HAL_Driver/Src/stm32h7xx_hal_nand.c ****           __DSB();
 2847              		.loc 1 1065 11 is_stmt 1 view .LVU960
1066:./Libraries/STM32H7xx_HAL_Driver/Src/stm32h7xx_hal_nand.c ****           *(__IO uint8_t *)((uint32_t)(deviceaddress | ADDR_AREA)) = 0x00U;
 2848              		.loc 1 1066 11 view .LVU961
 2849              	.LBB792:
 2850              	.LBI792:
 944:./Libraries/CMSIS/Core/Include/cmsis_gcc.h **** {
 2851              		.loc 2 944 27 view .LVU962
 2852              	.LBB793:
 946:./Libraries/CMSIS/Core/Include/cmsis_gcc.h **** }
 2853              		.loc 2 946 3 view .LVU963
 2854              		.syntax unified
 2855              	@ 946 "./Libraries/CMSIS/Core/Include/cmsis_gcc.h" 1
 2856 0152 BFF34F8F 		dsb 0xF
 2857              	@ 0 "" 2
 2858              		.thumb
 2859              		.syntax unified
 2860              	.LBE793:
 2861              	.LBE792:
1067:./Libraries/STM32H7xx_HAL_Driver/Src/stm32h7xx_hal_nand.c ****           __DSB();
 2862              		.loc 1 1067 11 view .LVU964
1067:./Libraries/STM32H7xx_HAL_Driver/Src/stm32h7xx_hal_nand.c ****           __DSB();
 2863              		.loc 1 1067 68 is_stmt 0 view .LVU965
 2864 0156 88F80030 		strb	r3, [r8]
 2865 015a 9FE7     		b	.L209
 2866              	.L182:
1051:./Libraries/STM32H7xx_HAL_Driver/Src/stm32h7xx_hal_nand.c ****           __DSB();
 2867              		.loc 1 1051 11 is_stmt 1 view .LVU966
1051:./Libraries/STM32H7xx_HAL_Driver/Src/stm32h7xx_hal_nand.c ****           __DSB();
 2868              		.loc 1 1051 68 is_stmt 0 view .LVU967
 2869 015c 4FF00003 		mov	r3, #0
 2870              	.L210:
1078:./Libraries/STM32H7xx_HAL_Driver/Src/stm32h7xx_hal_nand.c ****           __DSB();
 2871              		.loc 1 1078 11 is_stmt 1 view .LVU968
1078:./Libraries/STM32H7xx_HAL_Driver/Src/stm32h7xx_hal_nand.c ****           __DSB();
 2872              		.loc 1 1078 68 is_stmt 0 view .LVU969
 2873 0160 88F80030 		strb	r3, [r8]
1079:./Libraries/STM32H7xx_HAL_Driver/Src/stm32h7xx_hal_nand.c ****           *(__IO uint8_t *)((uint32_t)(deviceaddress | ADDR_AREA)) = ADDR_1ST_CYCLE(nandaddress);
ARM GAS  /tmp/cc5RRSLv.s 			page 120


 2874              		.loc 1 1079 11 is_stmt 1 view .LVU970
 2875              	.LBB794:
 2876              	.LBI794:
 944:./Libraries/CMSIS/Core/Include/cmsis_gcc.h **** {
 2877              		.loc 2 944 27 view .LVU971
 2878              	.LBB795:
 946:./Libraries/CMSIS/Core/Include/cmsis_gcc.h **** }
 2879              		.loc 2 946 3 view .LVU972
 2880              		.syntax unified
 2881              	@ 946 "./Libraries/CMSIS/Core/Include/cmsis_gcc.h" 1
 2882 0164 BFF34F8F 		dsb 0xF
 2883              	@ 0 "" 2
 2884              		.thumb
 2885              		.syntax unified
 2886              	.LBE795:
 2887              	.LBE794:
1080:./Libraries/STM32H7xx_HAL_Driver/Src/stm32h7xx_hal_nand.c ****           __DSB();
 2888              		.loc 1 1080 11 view .LVU973
 2889 0168 E3B2     		uxtb	r3, r4
1080:./Libraries/STM32H7xx_HAL_Driver/Src/stm32h7xx_hal_nand.c ****           __DSB();
 2890              		.loc 1 1080 68 is_stmt 0 view .LVU974
 2891 016a 88F80030 		strb	r3, [r8]
1081:./Libraries/STM32H7xx_HAL_Driver/Src/stm32h7xx_hal_nand.c ****           *(__IO uint8_t *)((uint32_t)(deviceaddress | ADDR_AREA)) = ADDR_2ND_CYCLE(nandaddress);
 2892              		.loc 1 1081 11 is_stmt 1 view .LVU975
 2893              	.LBB796:
 2894              	.LBI796:
 944:./Libraries/CMSIS/Core/Include/cmsis_gcc.h **** {
 2895              		.loc 2 944 27 view .LVU976
 2896              	.LBB797:
 946:./Libraries/CMSIS/Core/Include/cmsis_gcc.h **** }
 2897              		.loc 2 946 3 view .LVU977
 2898              		.syntax unified
 2899              	@ 946 "./Libraries/CMSIS/Core/Include/cmsis_gcc.h" 1
 2900 016e BFF34F8F 		dsb 0xF
 2901              	@ 0 "" 2
 2902              		.thumb
 2903              		.syntax unified
 2904              	.LBE797:
 2905              	.LBE796:
1082:./Libraries/STM32H7xx_HAL_Driver/Src/stm32h7xx_hal_nand.c ****           __DSB();
 2906              		.loc 1 1082 11 view .LVU978
1082:./Libraries/STM32H7xx_HAL_Driver/Src/stm32h7xx_hal_nand.c ****           __DSB();
 2907              		.loc 1 1082 70 is_stmt 0 view .LVU979
 2908 0172 C4F30723 		ubfx	r3, r4, #8, #8
1082:./Libraries/STM32H7xx_HAL_Driver/Src/stm32h7xx_hal_nand.c ****           __DSB();
 2909              		.loc 1 1082 68 view .LVU980
 2910 0176 88F80030 		strb	r3, [r8]
1083:./Libraries/STM32H7xx_HAL_Driver/Src/stm32h7xx_hal_nand.c ****           *(__IO uint8_t *)((uint32_t)(deviceaddress | ADDR_AREA)) = ADDR_3RD_CYCLE(nandaddress);
 2911              		.loc 1 1083 11 is_stmt 1 view .LVU981
 2912              	.LBB798:
 2913              	.LBI798:
 944:./Libraries/CMSIS/Core/Include/cmsis_gcc.h **** {
 2914              		.loc 2 944 27 view .LVU982
 2915              	.LBB799:
 946:./Libraries/CMSIS/Core/Include/cmsis_gcc.h **** }
 2916              		.loc 2 946 3 view .LVU983
 2917              		.syntax unified
ARM GAS  /tmp/cc5RRSLv.s 			page 121


 2918              	@ 946 "./Libraries/CMSIS/Core/Include/cmsis_gcc.h" 1
 2919 017a BFF34F8F 		dsb 0xF
 2920              	@ 0 "" 2
 2921              		.thumb
 2922              		.syntax unified
 2923              	.LBE799:
 2924              	.LBE798:
1084:./Libraries/STM32H7xx_HAL_Driver/Src/stm32h7xx_hal_nand.c ****           __DSB();
 2925              		.loc 1 1084 11 view .LVU984
1084:./Libraries/STM32H7xx_HAL_Driver/Src/stm32h7xx_hal_nand.c ****           __DSB();
 2926              		.loc 1 1084 70 is_stmt 0 view .LVU985
 2927 017e C4F30743 		ubfx	r3, r4, #16, #8
1084:./Libraries/STM32H7xx_HAL_Driver/Src/stm32h7xx_hal_nand.c ****           __DSB();
 2928              		.loc 1 1084 68 view .LVU986
 2929 0182 88F80030 		strb	r3, [r8]
1085:./Libraries/STM32H7xx_HAL_Driver/Src/stm32h7xx_hal_nand.c ****         }
 2930              		.loc 1 1085 11 is_stmt 1 view .LVU987
 2931              	.LBB800:
 2932              	.LBI800:
 944:./Libraries/CMSIS/Core/Include/cmsis_gcc.h **** {
 2933              		.loc 2 944 27 view .LVU988
 2934              	.LBB801:
 946:./Libraries/CMSIS/Core/Include/cmsis_gcc.h **** }
 2935              		.loc 2 946 3 view .LVU989
 2936              		.syntax unified
 2937              	@ 946 "./Libraries/CMSIS/Core/Include/cmsis_gcc.h" 1
 2938 0186 BFF34F8F 		dsb 0xF
 2939              	@ 0 "" 2
 2940              		.loc 2 947 1 is_stmt 0 view .LVU990
 2941              		.thumb
 2942              		.syntax unified
 2943 018a 94E7     		b	.L183
 2944              	.L184:
 2945              		.loc 2 947 1 view .LVU991
 2946              	.LBE801:
 2947              	.LBE800:
1076:./Libraries/STM32H7xx_HAL_Driver/Src/stm32h7xx_hal_nand.c ****           __DSB();
 2948              		.loc 1 1076 11 is_stmt 1 view .LVU992
1077:./Libraries/STM32H7xx_HAL_Driver/Src/stm32h7xx_hal_nand.c ****           *(__IO uint8_t *)((uint32_t)(deviceaddress | ADDR_AREA)) = 0x00U;
 2949              		.loc 1 1077 11 view .LVU993
 2950              	.LBB802:
 2951              	.LBI802:
 944:./Libraries/CMSIS/Core/Include/cmsis_gcc.h **** {
 2952              		.loc 2 944 27 view .LVU994
 2953              	.LBB803:
 946:./Libraries/CMSIS/Core/Include/cmsis_gcc.h **** }
 2954              		.loc 2 946 3 view .LVU995
 2955              		.syntax unified
 2956              	@ 946 "./Libraries/CMSIS/Core/Include/cmsis_gcc.h" 1
 2957 018c BFF34F8F 		dsb 0xF
 2958              	@ 0 "" 2
 2959              		.thumb
 2960              		.syntax unified
 2961 0190 E6E7     		b	.L210
 2962              	.LVL140:
 2963              	.L179:
 946:./Libraries/CMSIS/Core/Include/cmsis_gcc.h **** }
ARM GAS  /tmp/cc5RRSLv.s 			page 122


 2964              		.loc 2 946 3 is_stmt 0 view .LVU996
 2965              	.LBE803:
 2966              	.LBE802:
1140:./Libraries/STM32H7xx_HAL_Driver/Src/stm32h7xx_hal_nand.c **** 
 2967              		.loc 1 1140 5 is_stmt 1 view .LVU997
1143:./Libraries/STM32H7xx_HAL_Driver/Src/stm32h7xx_hal_nand.c ****   }
 2968              		.loc 1 1143 5 is_stmt 0 view .LVU998
 2969 0192 0023     		movs	r3, #0
1140:./Libraries/STM32H7xx_HAL_Driver/Src/stm32h7xx_hal_nand.c **** 
 2970              		.loc 1 1140 18 view .LVU999
 2971 0194 0121     		movs	r1, #1
1150:./Libraries/STM32H7xx_HAL_Driver/Src/stm32h7xx_hal_nand.c **** }
 2972              		.loc 1 1150 10 view .LVU1000
 2973 0196 1846     		mov	r0, r3
1140:./Libraries/STM32H7xx_HAL_Driver/Src/stm32h7xx_hal_nand.c **** 
 2974              		.loc 1 1140 18 view .LVU1001
 2975 0198 89F82110 		strb	r1, [r9, #33]
1143:./Libraries/STM32H7xx_HAL_Driver/Src/stm32h7xx_hal_nand.c ****   }
 2976              		.loc 1 1143 5 is_stmt 1 view .LVU1002
1143:./Libraries/STM32H7xx_HAL_Driver/Src/stm32h7xx_hal_nand.c ****   }
 2977              		.loc 1 1143 5 view .LVU1003
 2978 019c 89F82030 		strb	r3, [r9, #32]
1143:./Libraries/STM32H7xx_HAL_Driver/Src/stm32h7xx_hal_nand.c ****   }
 2979              		.loc 1 1143 5 view .LVU1004
1150:./Libraries/STM32H7xx_HAL_Driver/Src/stm32h7xx_hal_nand.c **** }
 2980              		.loc 1 1150 3 view .LVU1005
1151:./Libraries/STM32H7xx_HAL_Driver/Src/stm32h7xx_hal_nand.c **** 
 2981              		.loc 1 1151 1 is_stmt 0 view .LVU1006
 2982 01a0 03B0     		add	sp, sp, #12
 2983              	.LCFI42:
 2984              		.cfi_remember_state
 2985              		.cfi_def_cfa_offset 36
 2986              		@ sp needed
 2987 01a2 BDE8F08F 		pop	{r4, r5, r6, r7, r8, r9, r10, fp, pc}
 2988              	.LVL141:
 2989              	.L193:
 2990              	.LCFI43:
 2991              		.cfi_restore_state
1012:./Libraries/STM32H7xx_HAL_Driver/Src/stm32h7xx_hal_nand.c ****   }
 2992              		.loc 1 1012 12 view .LVU1007
 2993 01a6 0220     		movs	r0, #2
 2994 01a8 B8E7     		b	.L178
 2995              	.L213:
 2996 01aa 00BF     		.align	2
 2997              	.L212:
 2998 01ac 00000180 		.word	-2147418112
 2999 01b0 00000280 		.word	-2147352576
 3000              		.cfi_endproc
 3001              	.LFE343:
 3003              		.section	.text.HAL_NAND_Read_SpareArea_8b,"ax",%progbits
 3004              		.align	1
 3005              		.p2align 2,,3
 3006              		.global	HAL_NAND_Read_SpareArea_8b
 3007              		.syntax unified
 3008              		.thumb
 3009              		.thumb_func
 3010              		.fpu fpv5-d16
ARM GAS  /tmp/cc5RRSLv.s 			page 123


 3012              	HAL_NAND_Read_SpareArea_8b:
 3013              	.LVL142:
 3014              	.LFB344:
1164:./Libraries/STM32H7xx_HAL_Driver/Src/stm32h7xx_hal_nand.c ****   uint32_t index;
 3015              		.loc 1 1164 1 is_stmt 1 view -0
 3016              		.cfi_startproc
 3017              		@ args = 0, pretend = 0, frame = 24
 3018              		@ frame_needed = 0, uses_anonymous_args = 0
1164:./Libraries/STM32H7xx_HAL_Driver/Src/stm32h7xx_hal_nand.c ****   uint32_t index;
 3019              		.loc 1 1164 1 is_stmt 0 view .LVU1009
 3020 0000 2DE9F04F 		push	{r4, r5, r6, r7, r8, r9, r10, fp, lr}
 3021              	.LCFI44:
 3022              		.cfi_def_cfa_offset 36
 3023              		.cfi_offset 4, -36
 3024              		.cfi_offset 5, -32
 3025              		.cfi_offset 6, -28
 3026              		.cfi_offset 7, -24
 3027              		.cfi_offset 8, -20
 3028              		.cfi_offset 9, -16
 3029              		.cfi_offset 10, -12
 3030              		.cfi_offset 11, -8
 3031              		.cfi_offset 14, -4
 3032 0004 1546     		mov	r5, r2
1165:./Libraries/STM32H7xx_HAL_Driver/Src/stm32h7xx_hal_nand.c ****   uint32_t tickstart;
 3033              		.loc 1 1165 3 is_stmt 1 view .LVU1010
1166:./Libraries/STM32H7xx_HAL_Driver/Src/stm32h7xx_hal_nand.c ****   uint32_t deviceaddress;
 3034              		.loc 1 1166 3 view .LVU1011
1167:./Libraries/STM32H7xx_HAL_Driver/Src/stm32h7xx_hal_nand.c ****   uint32_t numsparearearead = 0U;
 3035              		.loc 1 1167 3 view .LVU1012
1168:./Libraries/STM32H7xx_HAL_Driver/Src/stm32h7xx_hal_nand.c ****   uint32_t nandaddress;
 3036              		.loc 1 1168 3 view .LVU1013
 3037              	.LVL143:
1169:./Libraries/STM32H7xx_HAL_Driver/Src/stm32h7xx_hal_nand.c ****   uint32_t columnaddress;
 3038              		.loc 1 1169 3 view .LVU1014
1170:./Libraries/STM32H7xx_HAL_Driver/Src/stm32h7xx_hal_nand.c ****   uint32_t nbspare = NumSpareAreaToRead;
 3039              		.loc 1 1170 3 view .LVU1015
1171:./Libraries/STM32H7xx_HAL_Driver/Src/stm32h7xx_hal_nand.c ****   uint8_t *buff = pBuffer;
 3040              		.loc 1 1171 3 view .LVU1016
1172:./Libraries/STM32H7xx_HAL_Driver/Src/stm32h7xx_hal_nand.c **** 
 3041              		.loc 1 1172 3 view .LVU1017
1175:./Libraries/STM32H7xx_HAL_Driver/Src/stm32h7xx_hal_nand.c ****   {
 3042              		.loc 1 1175 3 view .LVU1018
1175:./Libraries/STM32H7xx_HAL_Driver/Src/stm32h7xx_hal_nand.c ****   {
 3043              		.loc 1 1175 12 is_stmt 0 view .LVU1019
 3044 0006 90F82120 		ldrb	r2, [r0, #33]	@ zero_extendqisi2
 3045              	.LVL144:
1164:./Libraries/STM32H7xx_HAL_Driver/Src/stm32h7xx_hal_nand.c ****   uint32_t index;
 3046              		.loc 1 1164 1 view .LVU1020
 3047 000a 0446     		mov	r4, r0
 3048 000c 87B0     		sub	sp, sp, #28
 3049              	.LCFI45:
 3050              		.cfi_def_cfa_offset 64
1175:./Libraries/STM32H7xx_HAL_Driver/Src/stm32h7xx_hal_nand.c ****   {
 3051              		.loc 1 1175 6 view .LVU1021
 3052 000e 022A     		cmp	r2, #2
1175:./Libraries/STM32H7xx_HAL_Driver/Src/stm32h7xx_hal_nand.c ****   {
 3053              		.loc 1 1175 12 view .LVU1022
ARM GAS  /tmp/cc5RRSLv.s 			page 124


 3054 0010 D0B2     		uxtb	r0, r2
 3055              	.LVL145:
1175:./Libraries/STM32H7xx_HAL_Driver/Src/stm32h7xx_hal_nand.c ****   {
 3056              		.loc 1 1175 6 view .LVU1023
 3057 0012 74D0     		beq	.L215
1179:./Libraries/STM32H7xx_HAL_Driver/Src/stm32h7xx_hal_nand.c ****   {
 3058              		.loc 1 1179 8 is_stmt 1 view .LVU1024
1179:./Libraries/STM32H7xx_HAL_Driver/Src/stm32h7xx_hal_nand.c ****   {
 3059              		.loc 1 1179 17 is_stmt 0 view .LVU1025
 3060 0014 94F82120 		ldrb	r2, [r4, #33]	@ zero_extendqisi2
1179:./Libraries/STM32H7xx_HAL_Driver/Src/stm32h7xx_hal_nand.c ****   {
 3061              		.loc 1 1179 11 view .LVU1026
 3062 0018 012A     		cmp	r2, #1
1179:./Libraries/STM32H7xx_HAL_Driver/Src/stm32h7xx_hal_nand.c ****   {
 3063              		.loc 1 1179 17 view .LVU1027
 3064 001a D0B2     		uxtb	r0, r2
1179:./Libraries/STM32H7xx_HAL_Driver/Src/stm32h7xx_hal_nand.c ****   {
 3065              		.loc 1 1179 11 view .LVU1028
 3066 001c 72D1     		bne	.L229
1182:./Libraries/STM32H7xx_HAL_Driver/Src/stm32h7xx_hal_nand.c **** 
 3067              		.loc 1 1182 5 is_stmt 1 view .LVU1029
1182:./Libraries/STM32H7xx_HAL_Driver/Src/stm32h7xx_hal_nand.c **** 
 3068              		.loc 1 1182 5 view .LVU1030
 3069 001e 94F82020 		ldrb	r2, [r4, #32]	@ zero_extendqisi2
 3070 0022 012A     		cmp	r2, #1
 3071 0024 00F0C480 		beq	.L230
1182:./Libraries/STM32H7xx_HAL_Driver/Src/stm32h7xx_hal_nand.c **** 
 3072              		.loc 1 1182 5 discriminator 2 view .LVU1031
1185:./Libraries/STM32H7xx_HAL_Driver/Src/stm32h7xx_hal_nand.c **** 
 3073              		.loc 1 1185 18 is_stmt 0 discriminator 2 view .LVU1032
 3074 0028 0222     		movs	r2, #2
1182:./Libraries/STM32H7xx_HAL_Driver/Src/stm32h7xx_hal_nand.c **** 
 3075              		.loc 1 1182 5 discriminator 2 view .LVU1033
 3076 002a 84F82000 		strb	r0, [r4, #32]
1182:./Libraries/STM32H7xx_HAL_Driver/Src/stm32h7xx_hal_nand.c **** 
 3077              		.loc 1 1182 5 is_stmt 1 discriminator 2 view .LVU1034
1185:./Libraries/STM32H7xx_HAL_Driver/Src/stm32h7xx_hal_nand.c **** 
 3078              		.loc 1 1185 5 discriminator 2 view .LVU1035
1191:./Libraries/STM32H7xx_HAL_Driver/Src/stm32h7xx_hal_nand.c **** 
 3079              		.loc 1 1191 19 is_stmt 0 discriminator 2 view .LVU1036
 3080 002e A76B     		ldr	r7, [r4, #56]
1185:./Libraries/STM32H7xx_HAL_Driver/Src/stm32h7xx_hal_nand.c **** 
 3081              		.loc 1 1185 18 discriminator 2 view .LVU1037
 3082 0030 84F82120 		strb	r2, [r4, #33]
1188:./Libraries/STM32H7xx_HAL_Driver/Src/stm32h7xx_hal_nand.c **** 
 3083              		.loc 1 1188 5 is_stmt 1 discriminator 2 view .LVU1038
 3084              	.LVL146:
1191:./Libraries/STM32H7xx_HAL_Driver/Src/stm32h7xx_hal_nand.c **** 
 3085              		.loc 1 1191 5 discriminator 2 view .LVU1039
1191:./Libraries/STM32H7xx_HAL_Driver/Src/stm32h7xx_hal_nand.c **** 
 3086              		.loc 1 1191 19 is_stmt 0 discriminator 2 view .LVU1040
 3087 0034 8A88     		ldrh	r2, [r1, #4]
 3088 0036 4E88     		ldrh	r6, [r1, #2]
 3089 0038 0888     		ldrh	r0, [r1]
 3090 003a 07FB0626 		mla	r6, r7, r6, r2
 3091 003e E26A     		ldr	r2, [r4, #44]
1194:./Libraries/STM32H7xx_HAL_Driver/Src/stm32h7xx_hal_nand.c **** 
ARM GAS  /tmp/cc5RRSLv.s 			page 125


 3092              		.loc 1 1194 19 discriminator 2 view .LVU1041
 3093 0040 D4F824B0 		ldr	fp, [r4, #36]
1191:./Libraries/STM32H7xx_HAL_Driver/Src/stm32h7xx_hal_nand.c **** 
 3094              		.loc 1 1191 17 discriminator 2 view .LVU1042
 3095 0044 02FB0606 		mla	r6, r2, r6, r0
 3096              	.LVL147:
1194:./Libraries/STM32H7xx_HAL_Driver/Src/stm32h7xx_hal_nand.c **** 
 3097              		.loc 1 1194 5 is_stmt 1 discriminator 2 view .LVU1043
1197:./Libraries/STM32H7xx_HAL_Driver/Src/stm32h7xx_hal_nand.c ****     {
 3098              		.loc 1 1197 5 discriminator 2 view .LVU1044
1197:./Libraries/STM32H7xx_HAL_Driver/Src/stm32h7xx_hal_nand.c ****     {
 3099              		.loc 1 1197 11 discriminator 2 view .LVU1045
 3100 0048 002B     		cmp	r3, #0
 3101 004a 51D0     		beq	.L227
 3102 004c 03EB0609 		add	r9, r3, r6
1248:./Libraries/STM32H7xx_HAL_Driver/Src/stm32h7xx_hal_nand.c ****           __DSB();
 3103              		.loc 1 1248 70 is_stmt 0 view .LVU1046
 3104 0050 CBF30723 		ubfx	r3, fp, #8, #8
 3105              	.LVL148:
1248:./Libraries/STM32H7xx_HAL_Driver/Src/stm32h7xx_hal_nand.c ****           __DSB();
 3106              		.loc 1 1248 70 view .LVU1047
 3107 0054 CDF808B0 		str	fp, [sp, #8]
 3108 0058 B346     		mov	fp, r6
 3109              	.LVL149:
1248:./Libraries/STM32H7xx_HAL_Driver/Src/stm32h7xx_hal_nand.c ****           __DSB();
 3110              		.loc 1 1248 70 view .LVU1048
 3111 005a 0193     		str	r3, [sp, #4]
 3112 005c 2346     		mov	r3, r4
 3113 005e 1446     		mov	r4, r2
 3114              	.LVL150:
1230:./Libraries/STM32H7xx_HAL_Driver/Src/stm32h7xx_hal_nand.c ****         __DSB();
 3115              		.loc 1 1230 65 view .LVU1049
 3116 0060 DFF85481 		ldr	r8, .L248+4
1197:./Libraries/STM32H7xx_HAL_Driver/Src/stm32h7xx_hal_nand.c ****     {
 3117              		.loc 1 1197 73 view .LVU1050
 3118 0064 186B     		ldr	r0, [r3, #48]
1230:./Libraries/STM32H7xx_HAL_Driver/Src/stm32h7xx_hal_nand.c ****         __DSB();
 3119              		.loc 1 1230 65 view .LVU1051
 3120 0066 4FF0000A 		mov	r10, #0
1246:./Libraries/STM32H7xx_HAL_Driver/Src/stm32h7xx_hal_nand.c ****           __DSB();
 3121              		.loc 1 1246 68 view .LVU1052
 3122 006a 524F     		ldr	r7, .L248
1197:./Libraries/STM32H7xx_HAL_Driver/Src/stm32h7xx_hal_nand.c ****     {
 3123              		.loc 1 1197 73 view .LVU1053
 3124 006c 00FB04F0 		mul	r0, r0, r4
1197:./Libraries/STM32H7xx_HAL_Driver/Src/stm32h7xx_hal_nand.c ****     {
 3125              		.loc 1 1197 28 view .LVU1054
 3126 0070 5845     		cmp	r0, fp
 3127 0072 3CD9     		bls	.L242
 3128              	.LVL151:
 3129              	.L228:
1200:./Libraries/STM32H7xx_HAL_Driver/Src/stm32h7xx_hal_nand.c ****       {
 3130              		.loc 1 1200 7 is_stmt 1 view .LVU1055
1200:./Libraries/STM32H7xx_HAL_Driver/Src/stm32h7xx_hal_nand.c ****       {
 3131              		.loc 1 1200 10 is_stmt 0 view .LVU1056
 3132 0074 586A     		ldr	r0, [r3, #36]
 3133 0076 B0F5007F 		cmp	r0, #512
ARM GAS  /tmp/cc5RRSLv.s 			page 126


 3134 007a 5DD8     		bhi	.L218
1203:./Libraries/STM32H7xx_HAL_Driver/Src/stm32h7xx_hal_nand.c ****         __DSB();
 3135              		.loc 1 1203 9 is_stmt 1 view .LVU1057
1203:./Libraries/STM32H7xx_HAL_Driver/Src/stm32h7xx_hal_nand.c ****         __DSB();
 3136              		.loc 1 1203 65 is_stmt 0 view .LVU1058
 3137 007c 5020     		movs	r0, #80
 3138 007e 88F80000 		strb	r0, [r8]
1204:./Libraries/STM32H7xx_HAL_Driver/Src/stm32h7xx_hal_nand.c **** 
 3139              		.loc 1 1204 9 is_stmt 1 view .LVU1059
 3140              	.LBB804:
 3141              	.LBI804:
 944:./Libraries/CMSIS/Core/Include/cmsis_gcc.h **** {
 3142              		.loc 2 944 27 view .LVU1060
 3143              	.LBB805:
 946:./Libraries/CMSIS/Core/Include/cmsis_gcc.h **** }
 3144              		.loc 2 946 3 view .LVU1061
 3145              		.syntax unified
 3146              	@ 946 "./Libraries/CMSIS/Core/Include/cmsis_gcc.h" 1
 3147 0082 BFF34F8F 		dsb 0xF
 3148              	@ 0 "" 2
 3149              		.thumb
 3150              		.syntax unified
 3151              	.LBE805:
 3152              	.LBE804:
1206:./Libraries/STM32H7xx_HAL_Driver/Src/stm32h7xx_hal_nand.c ****         {
 3153              		.loc 1 1206 9 view .LVU1062
1206:./Libraries/STM32H7xx_HAL_Driver/Src/stm32h7xx_hal_nand.c ****         {
 3154              		.loc 1 1206 40 is_stmt 0 view .LVU1063
 3155 0086 D3E90B40 		ldrd	r4, r0, [r3, #44]
1208:./Libraries/STM32H7xx_HAL_Driver/Src/stm32h7xx_hal_nand.c ****           __DSB();
 3156              		.loc 1 1208 68 view .LVU1064
 3157 008a 87F800A0 		strb	r10, [r7]
1206:./Libraries/STM32H7xx_HAL_Driver/Src/stm32h7xx_hal_nand.c ****         {
 3158              		.loc 1 1206 40 view .LVU1065
 3159 008e 00FB04F0 		mul	r0, r0, r4
1206:./Libraries/STM32H7xx_HAL_Driver/Src/stm32h7xx_hal_nand.c ****         {
 3160              		.loc 1 1206 12 view .LVU1066
 3161 0092 B0F5803F 		cmp	r0, #65536
 3162 0096 3DD2     		bcs	.L245
 3163              	.L244:
1238:./Libraries/STM32H7xx_HAL_Driver/Src/stm32h7xx_hal_nand.c ****           *(__IO uint8_t *)((uint32_t)(deviceaddress | ADDR_AREA)) = ADDR_1ST_CYCLE(nandaddress);
 3164              		.loc 1 1238 11 is_stmt 1 view .LVU1067
 3165              	.LBB806:
 3166              	.LBI806:
 944:./Libraries/CMSIS/Core/Include/cmsis_gcc.h **** {
 3167              		.loc 2 944 27 view .LVU1068
 3168              	.LBB807:
 946:./Libraries/CMSIS/Core/Include/cmsis_gcc.h **** }
 3169              		.loc 2 946 3 view .LVU1069
 3170              		.syntax unified
 3171              	@ 946 "./Libraries/CMSIS/Core/Include/cmsis_gcc.h" 1
 3172 0098 BFF34F8F 		dsb 0xF
 3173              	@ 0 "" 2
 3174              		.thumb
 3175              		.syntax unified
 3176              	.LBE807:
 3177              	.LBE806:
ARM GAS  /tmp/cc5RRSLv.s 			page 127


1239:./Libraries/STM32H7xx_HAL_Driver/Src/stm32h7xx_hal_nand.c ****           __DSB();
 3178              		.loc 1 1239 11 view .LVU1070
 3179 009c 5FFA8BF0 		uxtb	r0, fp
1239:./Libraries/STM32H7xx_HAL_Driver/Src/stm32h7xx_hal_nand.c ****           __DSB();
 3180              		.loc 1 1239 68 is_stmt 0 view .LVU1071
 3181 00a0 3870     		strb	r0, [r7]
1240:./Libraries/STM32H7xx_HAL_Driver/Src/stm32h7xx_hal_nand.c ****           *(__IO uint8_t *)((uint32_t)(deviceaddress | ADDR_AREA)) = ADDR_2ND_CYCLE(nandaddress);
 3182              		.loc 1 1240 11 is_stmt 1 view .LVU1072
 3183              	.LBB808:
 3184              	.LBI808:
 944:./Libraries/CMSIS/Core/Include/cmsis_gcc.h **** {
 3185              		.loc 2 944 27 view .LVU1073
 3186              	.LBB809:
 946:./Libraries/CMSIS/Core/Include/cmsis_gcc.h **** }
 3187              		.loc 2 946 3 view .LVU1074
 3188              		.syntax unified
 3189              	@ 946 "./Libraries/CMSIS/Core/Include/cmsis_gcc.h" 1
 3190 00a2 BFF34F8F 		dsb 0xF
 3191              	@ 0 "" 2
 3192              		.thumb
 3193              		.syntax unified
 3194              	.LBE809:
 3195              	.LBE808:
1241:./Libraries/STM32H7xx_HAL_Driver/Src/stm32h7xx_hal_nand.c ****           __DSB();
 3196              		.loc 1 1241 11 view .LVU1075
1241:./Libraries/STM32H7xx_HAL_Driver/Src/stm32h7xx_hal_nand.c ****           __DSB();
 3197              		.loc 1 1241 70 is_stmt 0 view .LVU1076
 3198 00a6 CBF30720 		ubfx	r0, fp, #8, #8
1241:./Libraries/STM32H7xx_HAL_Driver/Src/stm32h7xx_hal_nand.c ****           __DSB();
 3199              		.loc 1 1241 68 view .LVU1077
 3200 00aa 3870     		strb	r0, [r7]
1242:./Libraries/STM32H7xx_HAL_Driver/Src/stm32h7xx_hal_nand.c ****         }
 3201              		.loc 1 1242 11 is_stmt 1 view .LVU1078
 3202              	.LBB810:
 3203              	.LBI810:
 944:./Libraries/CMSIS/Core/Include/cmsis_gcc.h **** {
 3204              		.loc 2 944 27 view .LVU1079
 3205              	.LBB811:
 946:./Libraries/CMSIS/Core/Include/cmsis_gcc.h **** }
 3206              		.loc 2 946 3 view .LVU1080
 3207              		.syntax unified
 3208              	@ 946 "./Libraries/CMSIS/Core/Include/cmsis_gcc.h" 1
 3209 00ac BFF34F8F 		dsb 0xF
 3210              	@ 0 "" 2
 3211              		.thumb
 3212              		.syntax unified
 3213              	.L220:
 946:./Libraries/CMSIS/Core/Include/cmsis_gcc.h **** }
 3214              		.loc 2 946 3 is_stmt 0 view .LVU1081
 3215              	.LBE811:
 3216              	.LBE810:
1259:./Libraries/STM32H7xx_HAL_Driver/Src/stm32h7xx_hal_nand.c ****       __DSB();
 3217              		.loc 1 1259 7 is_stmt 1 view .LVU1082
1259:./Libraries/STM32H7xx_HAL_Driver/Src/stm32h7xx_hal_nand.c ****       __DSB();
 3218              		.loc 1 1259 63 is_stmt 0 view .LVU1083
 3219 00b0 3020     		movs	r0, #48
 3220 00b2 88F80000 		strb	r0, [r8]
ARM GAS  /tmp/cc5RRSLv.s 			page 128


1260:./Libraries/STM32H7xx_HAL_Driver/Src/stm32h7xx_hal_nand.c **** 
 3221              		.loc 1 1260 7 is_stmt 1 view .LVU1084
 3222              	.LBB812:
 3223              	.LBI812:
 944:./Libraries/CMSIS/Core/Include/cmsis_gcc.h **** {
 3224              		.loc 2 944 27 view .LVU1085
 3225              	.LBB813:
 946:./Libraries/CMSIS/Core/Include/cmsis_gcc.h **** }
 3226              		.loc 2 946 3 view .LVU1086
 3227              		.syntax unified
 3228              	@ 946 "./Libraries/CMSIS/Core/Include/cmsis_gcc.h" 1
 3229 00b6 BFF34F8F 		dsb 0xF
 3230              	@ 0 "" 2
 3231              		.thumb
 3232              		.syntax unified
 3233              	.LBE813:
 3234              	.LBE812:
1262:./Libraries/STM32H7xx_HAL_Driver/Src/stm32h7xx_hal_nand.c ****       {
 3235              		.loc 1 1262 7 view .LVU1087
1262:./Libraries/STM32H7xx_HAL_Driver/Src/stm32h7xx_hal_nand.c ****       {
 3236              		.loc 1 1262 10 is_stmt 0 view .LVU1088
 3237 00ba 93F83C00 		ldrb	r0, [r3, #60]	@ zero_extendqisi2
 3238 00be 0128     		cmp	r0, #1
 3239 00c0 4DD0     		beq	.L246
 3240              	.LVL152:
 3241              	.L222:
1288:./Libraries/STM32H7xx_HAL_Driver/Src/stm32h7xx_hal_nand.c ****       {
 3242              		.loc 1 1288 24 is_stmt 1 discriminator 1 view .LVU1089
1288:./Libraries/STM32H7xx_HAL_Driver/Src/stm32h7xx_hal_nand.c ****       {
 3243              		.loc 1 1288 7 is_stmt 0 discriminator 1 view .LVU1090
 3244 00c2 986A     		ldr	r0, [r3, #40]
 3245 00c4 48B1     		cbz	r0, .L225
1288:./Libraries/STM32H7xx_HAL_Driver/Src/stm32h7xx_hal_nand.c ****       {
 3246              		.loc 1 1288 7 view .LVU1091
 3247 00c6 0024     		movs	r4, #0
1290:./Libraries/STM32H7xx_HAL_Driver/Src/stm32h7xx_hal_nand.c ****         buff++;
 3248              		.loc 1 1290 17 view .LVU1092
 3249 00c8 4FF00046 		mov	r6, #-2147483648
 3250              	.LVL153:
 3251              	.L226:
1290:./Libraries/STM32H7xx_HAL_Driver/Src/stm32h7xx_hal_nand.c ****         buff++;
 3252              		.loc 1 1290 9 is_stmt 1 discriminator 3 view .LVU1093
1290:./Libraries/STM32H7xx_HAL_Driver/Src/stm32h7xx_hal_nand.c ****         buff++;
 3253              		.loc 1 1290 17 is_stmt 0 discriminator 3 view .LVU1094
 3254 00cc 3278     		ldrb	r2, [r6]	@ zero_extendqisi2
1288:./Libraries/STM32H7xx_HAL_Driver/Src/stm32h7xx_hal_nand.c ****       {
 3255              		.loc 1 1288 66 discriminator 3 view .LVU1095
 3256 00ce 0134     		adds	r4, r4, #1
 3257              	.LVL154:
1290:./Libraries/STM32H7xx_HAL_Driver/Src/stm32h7xx_hal_nand.c ****         buff++;
 3258              		.loc 1 1290 15 discriminator 3 view .LVU1096
 3259 00d0 05F8012B 		strb	r2, [r5], #1
 3260              	.LVL155:
1291:./Libraries/STM32H7xx_HAL_Driver/Src/stm32h7xx_hal_nand.c ****       }
 3261              		.loc 1 1291 9 is_stmt 1 discriminator 3 view .LVU1097
1288:./Libraries/STM32H7xx_HAL_Driver/Src/stm32h7xx_hal_nand.c ****       {
 3262              		.loc 1 1288 61 discriminator 3 view .LVU1098
ARM GAS  /tmp/cc5RRSLv.s 			page 129


1288:./Libraries/STM32H7xx_HAL_Driver/Src/stm32h7xx_hal_nand.c ****       {
 3263              		.loc 1 1288 24 discriminator 3 view .LVU1099
1288:./Libraries/STM32H7xx_HAL_Driver/Src/stm32h7xx_hal_nand.c ****       {
 3264              		.loc 1 1288 7 is_stmt 0 discriminator 3 view .LVU1100
 3265 00d4 9A6A     		ldr	r2, [r3, #40]
 3266 00d6 A242     		cmp	r2, r4
 3267 00d8 F8D8     		bhi	.L226
 3268              	.LVL156:
 3269              	.L225:
1295:./Libraries/STM32H7xx_HAL_Driver/Src/stm32h7xx_hal_nand.c **** 
 3270              		.loc 1 1295 7 is_stmt 1 view .LVU1101
1298:./Libraries/STM32H7xx_HAL_Driver/Src/stm32h7xx_hal_nand.c **** 
 3271              		.loc 1 1298 7 view .LVU1102
1301:./Libraries/STM32H7xx_HAL_Driver/Src/stm32h7xx_hal_nand.c ****     }
 3272              		.loc 1 1301 7 view .LVU1103
1301:./Libraries/STM32H7xx_HAL_Driver/Src/stm32h7xx_hal_nand.c ****     }
 3273              		.loc 1 1301 19 is_stmt 0 view .LVU1104
 3274 00da 0BF1010B 		add	fp, fp, #1
 3275              	.LVL157:
1197:./Libraries/STM32H7xx_HAL_Driver/Src/stm32h7xx_hal_nand.c ****     {
 3276              		.loc 1 1197 11 is_stmt 1 view .LVU1105
 3277 00de D945     		cmp	r9, fp
 3278 00e0 05D0     		beq	.L242
1197:./Libraries/STM32H7xx_HAL_Driver/Src/stm32h7xx_hal_nand.c ****     {
 3279              		.loc 1 1197 11 is_stmt 0 view .LVU1106
 3280 00e2 DC6A     		ldr	r4, [r3, #44]
 3281              	.LVL158:
1197:./Libraries/STM32H7xx_HAL_Driver/Src/stm32h7xx_hal_nand.c ****     {
 3282              		.loc 1 1197 73 view .LVU1107
 3283 00e4 186B     		ldr	r0, [r3, #48]
 3284 00e6 00FB04F0 		mul	r0, r0, r4
1197:./Libraries/STM32H7xx_HAL_Driver/Src/stm32h7xx_hal_nand.c ****     {
 3285              		.loc 1 1197 28 view .LVU1108
 3286 00ea 5845     		cmp	r0, fp
 3287 00ec C2D8     		bhi	.L228
 3288              	.LVL159:
 3289              	.L242:
1197:./Libraries/STM32H7xx_HAL_Driver/Src/stm32h7xx_hal_nand.c ****     {
 3290              		.loc 1 1197 28 view .LVU1109
 3291 00ee 1C46     		mov	r4, r3
 3292              	.LVL160:
 3293              	.L227:
1305:./Libraries/STM32H7xx_HAL_Driver/Src/stm32h7xx_hal_nand.c **** 
 3294              		.loc 1 1305 5 is_stmt 1 view .LVU1110
1308:./Libraries/STM32H7xx_HAL_Driver/Src/stm32h7xx_hal_nand.c ****   }
 3295              		.loc 1 1308 5 is_stmt 0 view .LVU1111
 3296 00f0 0023     		movs	r3, #0
1305:./Libraries/STM32H7xx_HAL_Driver/Src/stm32h7xx_hal_nand.c **** 
 3297              		.loc 1 1305 18 view .LVU1112
 3298 00f2 0122     		movs	r2, #1
1315:./Libraries/STM32H7xx_HAL_Driver/Src/stm32h7xx_hal_nand.c **** }
 3299              		.loc 1 1315 10 view .LVU1113
 3300 00f4 1846     		mov	r0, r3
1305:./Libraries/STM32H7xx_HAL_Driver/Src/stm32h7xx_hal_nand.c **** 
 3301              		.loc 1 1305 18 view .LVU1114
 3302 00f6 84F82120 		strb	r2, [r4, #33]
1308:./Libraries/STM32H7xx_HAL_Driver/Src/stm32h7xx_hal_nand.c ****   }
ARM GAS  /tmp/cc5RRSLv.s 			page 130


 3303              		.loc 1 1308 5 is_stmt 1 view .LVU1115
1308:./Libraries/STM32H7xx_HAL_Driver/Src/stm32h7xx_hal_nand.c ****   }
 3304              		.loc 1 1308 5 view .LVU1116
 3305 00fa 84F82030 		strb	r3, [r4, #32]
1308:./Libraries/STM32H7xx_HAL_Driver/Src/stm32h7xx_hal_nand.c ****   }
 3306              		.loc 1 1308 5 view .LVU1117
1315:./Libraries/STM32H7xx_HAL_Driver/Src/stm32h7xx_hal_nand.c **** }
 3307              		.loc 1 1315 3 view .LVU1118
 3308              	.LVL161:
 3309              	.L215:
1316:./Libraries/STM32H7xx_HAL_Driver/Src/stm32h7xx_hal_nand.c **** 
 3310              		.loc 1 1316 1 is_stmt 0 view .LVU1119
 3311 00fe 07B0     		add	sp, sp, #28
 3312              	.LCFI46:
 3313              		.cfi_remember_state
 3314              		.cfi_def_cfa_offset 36
 3315              		@ sp needed
 3316 0100 BDE8F08F 		pop	{r4, r5, r6, r7, r8, r9, r10, fp, pc}
 3317              	.LVL162:
 3318              	.L229:
 3319              	.LCFI47:
 3320              		.cfi_restore_state
1312:./Libraries/STM32H7xx_HAL_Driver/Src/stm32h7xx_hal_nand.c ****   }
 3321              		.loc 1 1312 12 view .LVU1120
 3322 0104 0120     		movs	r0, #1
1316:./Libraries/STM32H7xx_HAL_Driver/Src/stm32h7xx_hal_nand.c **** 
 3323              		.loc 1 1316 1 view .LVU1121
 3324 0106 07B0     		add	sp, sp, #28
 3325              	.LCFI48:
 3326              		.cfi_remember_state
 3327              		.cfi_def_cfa_offset 36
 3328              		@ sp needed
 3329 0108 BDE8F08F 		pop	{r4, r5, r6, r7, r8, r9, r10, fp, pc}
 3330              	.LVL163:
 3331              	.L221:
 3332              	.LCFI49:
 3333              		.cfi_restore_state
1246:./Libraries/STM32H7xx_HAL_Driver/Src/stm32h7xx_hal_nand.c ****           __DSB();
 3334              		.loc 1 1246 11 is_stmt 1 view .LVU1122
1247:./Libraries/STM32H7xx_HAL_Driver/Src/stm32h7xx_hal_nand.c ****           *(__IO uint8_t *)((uint32_t)(deviceaddress | ADDR_AREA)) = COLUMN_2ND_CYCLE(columnaddress
 3335              		.loc 1 1247 11 view .LVU1123
 3336              	.LBB814:
 3337              	.LBI814:
 944:./Libraries/CMSIS/Core/Include/cmsis_gcc.h **** {
 3338              		.loc 2 944 27 view .LVU1124
 3339              	.LBB815:
 946:./Libraries/CMSIS/Core/Include/cmsis_gcc.h **** }
 3340              		.loc 2 946 3 view .LVU1125
 3341              		.syntax unified
 3342              	@ 946 "./Libraries/CMSIS/Core/Include/cmsis_gcc.h" 1
 3343 010c BFF34F8F 		dsb 0xF
 3344              	@ 0 "" 2
 3345              		.thumb
 3346              		.syntax unified
 3347              	.LBE815:
 3348              	.LBE814:
1248:./Libraries/STM32H7xx_HAL_Driver/Src/stm32h7xx_hal_nand.c ****           __DSB();
ARM GAS  /tmp/cc5RRSLv.s 			page 131


 3349              		.loc 1 1248 11 view .LVU1126
1248:./Libraries/STM32H7xx_HAL_Driver/Src/stm32h7xx_hal_nand.c ****           __DSB();
 3350              		.loc 1 1248 68 is_stmt 0 view .LVU1127
 3351 0110 019A     		ldr	r2, [sp, #4]
 3352 0112 3A70     		strb	r2, [r7]
 3353              	.L245:
1249:./Libraries/STM32H7xx_HAL_Driver/Src/stm32h7xx_hal_nand.c ****           *(__IO uint8_t *)((uint32_t)(deviceaddress | ADDR_AREA)) = ADDR_1ST_CYCLE(nandaddress);
 3354              		.loc 1 1249 11 is_stmt 1 view .LVU1128
 3355              	.LBB816:
 3356              	.LBI816:
 944:./Libraries/CMSIS/Core/Include/cmsis_gcc.h **** {
 3357              		.loc 2 944 27 view .LVU1129
 3358              	.LBB817:
 946:./Libraries/CMSIS/Core/Include/cmsis_gcc.h **** }
 3359              		.loc 2 946 3 view .LVU1130
 3360              		.syntax unified
 3361              	@ 946 "./Libraries/CMSIS/Core/Include/cmsis_gcc.h" 1
 3362 0114 BFF34F8F 		dsb 0xF
 3363              	@ 0 "" 2
 3364              		.thumb
 3365              		.syntax unified
 3366              	.LBE817:
 3367              	.LBE816:
1250:./Libraries/STM32H7xx_HAL_Driver/Src/stm32h7xx_hal_nand.c ****           __DSB();
 3368              		.loc 1 1250 11 view .LVU1131
 3369 0118 5FFA8BF0 		uxtb	r0, fp
1250:./Libraries/STM32H7xx_HAL_Driver/Src/stm32h7xx_hal_nand.c ****           __DSB();
 3370              		.loc 1 1250 68 is_stmt 0 view .LVU1132
 3371 011c 3870     		strb	r0, [r7]
1251:./Libraries/STM32H7xx_HAL_Driver/Src/stm32h7xx_hal_nand.c ****           *(__IO uint8_t *)((uint32_t)(deviceaddress | ADDR_AREA)) = ADDR_2ND_CYCLE(nandaddress);
 3372              		.loc 1 1251 11 is_stmt 1 view .LVU1133
 3373              	.LBB818:
 3374              	.LBI818:
 944:./Libraries/CMSIS/Core/Include/cmsis_gcc.h **** {
 3375              		.loc 2 944 27 view .LVU1134
 3376              	.LBB819:
 946:./Libraries/CMSIS/Core/Include/cmsis_gcc.h **** }
 3377              		.loc 2 946 3 view .LVU1135
 3378              		.syntax unified
 3379              	@ 946 "./Libraries/CMSIS/Core/Include/cmsis_gcc.h" 1
 3380 011e BFF34F8F 		dsb 0xF
 3381              	@ 0 "" 2
 3382              		.thumb
 3383              		.syntax unified
 3384              	.LBE819:
 3385              	.LBE818:
1252:./Libraries/STM32H7xx_HAL_Driver/Src/stm32h7xx_hal_nand.c ****           __DSB();
 3386              		.loc 1 1252 11 view .LVU1136
1252:./Libraries/STM32H7xx_HAL_Driver/Src/stm32h7xx_hal_nand.c ****           __DSB();
 3387              		.loc 1 1252 70 is_stmt 0 view .LVU1137
 3388 0122 CBF30720 		ubfx	r0, fp, #8, #8
1252:./Libraries/STM32H7xx_HAL_Driver/Src/stm32h7xx_hal_nand.c ****           __DSB();
 3389              		.loc 1 1252 68 view .LVU1138
 3390 0126 3870     		strb	r0, [r7]
1253:./Libraries/STM32H7xx_HAL_Driver/Src/stm32h7xx_hal_nand.c ****           *(__IO uint8_t *)((uint32_t)(deviceaddress | ADDR_AREA)) = ADDR_3RD_CYCLE(nandaddress);
 3391              		.loc 1 1253 11 is_stmt 1 view .LVU1139
 3392              	.LBB820:
ARM GAS  /tmp/cc5RRSLv.s 			page 132


 3393              	.LBI820:
 944:./Libraries/CMSIS/Core/Include/cmsis_gcc.h **** {
 3394              		.loc 2 944 27 view .LVU1140
 3395              	.LBB821:
 946:./Libraries/CMSIS/Core/Include/cmsis_gcc.h **** }
 3396              		.loc 2 946 3 view .LVU1141
 3397              		.syntax unified
 3398              	@ 946 "./Libraries/CMSIS/Core/Include/cmsis_gcc.h" 1
 3399 0128 BFF34F8F 		dsb 0xF
 3400              	@ 0 "" 2
 3401              		.thumb
 3402              		.syntax unified
 3403              	.LBE821:
 3404              	.LBE820:
1254:./Libraries/STM32H7xx_HAL_Driver/Src/stm32h7xx_hal_nand.c ****           __DSB();
 3405              		.loc 1 1254 11 view .LVU1142
1254:./Libraries/STM32H7xx_HAL_Driver/Src/stm32h7xx_hal_nand.c ****           __DSB();
 3406              		.loc 1 1254 70 is_stmt 0 view .LVU1143
 3407 012c CBF30740 		ubfx	r0, fp, #16, #8
1254:./Libraries/STM32H7xx_HAL_Driver/Src/stm32h7xx_hal_nand.c ****           __DSB();
 3408              		.loc 1 1254 68 view .LVU1144
 3409 0130 3870     		strb	r0, [r7]
1255:./Libraries/STM32H7xx_HAL_Driver/Src/stm32h7xx_hal_nand.c ****         }
 3410              		.loc 1 1255 11 is_stmt 1 view .LVU1145
 3411              	.LBB822:
 3412              	.LBI822:
 944:./Libraries/CMSIS/Core/Include/cmsis_gcc.h **** {
 3413              		.loc 2 944 27 view .LVU1146
 3414              	.LBB823:
 946:./Libraries/CMSIS/Core/Include/cmsis_gcc.h **** }
 3415              		.loc 2 946 3 view .LVU1147
 3416              		.syntax unified
 3417              	@ 946 "./Libraries/CMSIS/Core/Include/cmsis_gcc.h" 1
 3418 0132 BFF34F8F 		dsb 0xF
 3419              	@ 0 "" 2
 3420              		.loc 2 947 1 is_stmt 0 view .LVU1148
 3421              		.thumb
 3422              		.syntax unified
 3423 0136 BBE7     		b	.L220
 3424              	.L218:
 3425              		.loc 2 947 1 view .LVU1149
 3426              	.LBE823:
 3427              	.LBE822:
1230:./Libraries/STM32H7xx_HAL_Driver/Src/stm32h7xx_hal_nand.c ****         __DSB();
 3428              		.loc 1 1230 9 is_stmt 1 view .LVU1150
1230:./Libraries/STM32H7xx_HAL_Driver/Src/stm32h7xx_hal_nand.c ****         __DSB();
 3429              		.loc 1 1230 65 is_stmt 0 view .LVU1151
 3430 0138 88F800A0 		strb	r10, [r8]
1231:./Libraries/STM32H7xx_HAL_Driver/Src/stm32h7xx_hal_nand.c **** 
 3431              		.loc 1 1231 9 is_stmt 1 view .LVU1152
 3432              	.LBB824:
 3433              	.LBI824:
 944:./Libraries/CMSIS/Core/Include/cmsis_gcc.h **** {
 3434              		.loc 2 944 27 view .LVU1153
 3435              	.LBB825:
 946:./Libraries/CMSIS/Core/Include/cmsis_gcc.h **** }
 3436              		.loc 2 946 3 view .LVU1154
ARM GAS  /tmp/cc5RRSLv.s 			page 133


 3437              		.syntax unified
 3438              	@ 946 "./Libraries/CMSIS/Core/Include/cmsis_gcc.h" 1
 3439 013c BFF34F8F 		dsb 0xF
 3440              	@ 0 "" 2
 3441              		.thumb
 3442              		.syntax unified
 3443              	.LBE825:
 3444              	.LBE824:
1233:./Libraries/STM32H7xx_HAL_Driver/Src/stm32h7xx_hal_nand.c ****         {
 3445              		.loc 1 1233 9 view .LVU1155
1233:./Libraries/STM32H7xx_HAL_Driver/Src/stm32h7xx_hal_nand.c ****         {
 3446              		.loc 1 1233 40 is_stmt 0 view .LVU1156
 3447 0140 D3E90B40 		ldrd	r4, r0, [r3, #44]
 3448 0144 00FB04F0 		mul	r0, r0, r4
1233:./Libraries/STM32H7xx_HAL_Driver/Src/stm32h7xx_hal_nand.c ****         {
 3449              		.loc 1 1233 12 view .LVU1157
 3450 0148 B0F5803F 		cmp	r0, #65536
1235:./Libraries/STM32H7xx_HAL_Driver/Src/stm32h7xx_hal_nand.c ****           __DSB();
 3451              		.loc 1 1235 70 view .LVU1158
 3452 014c 9DF80800 		ldrb	r0, [sp, #8]	@ zero_extendqisi2
1235:./Libraries/STM32H7xx_HAL_Driver/Src/stm32h7xx_hal_nand.c ****           __DSB();
 3453              		.loc 1 1235 68 view .LVU1159
 3454 0150 3870     		strb	r0, [r7]
1233:./Libraries/STM32H7xx_HAL_Driver/Src/stm32h7xx_hal_nand.c ****         {
 3455              		.loc 1 1233 12 view .LVU1160
 3456 0152 DBD2     		bcs	.L221
1235:./Libraries/STM32H7xx_HAL_Driver/Src/stm32h7xx_hal_nand.c ****           __DSB();
 3457              		.loc 1 1235 11 is_stmt 1 view .LVU1161
1236:./Libraries/STM32H7xx_HAL_Driver/Src/stm32h7xx_hal_nand.c ****           *(__IO uint8_t *)((uint32_t)(deviceaddress | ADDR_AREA)) = COLUMN_2ND_CYCLE(columnaddress
 3458              		.loc 1 1236 11 view .LVU1162
 3459              	.LBB826:
 3460              	.LBI826:
 944:./Libraries/CMSIS/Core/Include/cmsis_gcc.h **** {
 3461              		.loc 2 944 27 view .LVU1163
 3462              	.LBB827:
 946:./Libraries/CMSIS/Core/Include/cmsis_gcc.h **** }
 3463              		.loc 2 946 3 view .LVU1164
 3464              		.syntax unified
 3465              	@ 946 "./Libraries/CMSIS/Core/Include/cmsis_gcc.h" 1
 3466 0154 BFF34F8F 		dsb 0xF
 3467              	@ 0 "" 2
 3468              		.thumb
 3469              		.syntax unified
 3470              	.LBE827:
 3471              	.LBE826:
1237:./Libraries/STM32H7xx_HAL_Driver/Src/stm32h7xx_hal_nand.c ****           __DSB();
 3472              		.loc 1 1237 11 view .LVU1165
1237:./Libraries/STM32H7xx_HAL_Driver/Src/stm32h7xx_hal_nand.c ****           __DSB();
 3473              		.loc 1 1237 68 is_stmt 0 view .LVU1166
 3474 0158 019A     		ldr	r2, [sp, #4]
 3475 015a 3A70     		strb	r2, [r7]
 3476 015c 9CE7     		b	.L244
 3477              	.L246:
1265:./Libraries/STM32H7xx_HAL_Driver/Src/stm32h7xx_hal_nand.c **** 
 3478              		.loc 1 1265 9 is_stmt 1 view .LVU1167
 3479 015e 0493     		str	r3, [sp, #16]
1265:./Libraries/STM32H7xx_HAL_Driver/Src/stm32h7xx_hal_nand.c **** 
ARM GAS  /tmp/cc5RRSLv.s 			page 134


 3480              		.loc 1 1265 21 is_stmt 0 view .LVU1168
 3481 0160 FFF7FEFF 		bl	HAL_GetTick
 3482              	.LVL164:
 3483 0164 049B     		ldr	r3, [sp, #16]
 3484              	.LBB828:
 3485              	.LBB829:
2204:./Libraries/STM32H7xx_HAL_Driver/Src/stm32h7xx_hal_nand.c **** 
 3486              		.loc 1 2204 59 view .LVU1169
 3487 0166 4FF07004 		mov	r4, #112
 3488 016a 0595     		str	r5, [sp, #20]
2207:./Libraries/STM32H7xx_HAL_Driver/Src/stm32h7xx_hal_nand.c **** 
 3489              		.loc 1 2207 10 view .LVU1170
 3490 016c 4FF00046 		mov	r6, #-2147483648
 3491 0170 1D46     		mov	r5, r3
 3492              	.LVL165:
2207:./Libraries/STM32H7xx_HAL_Driver/Src/stm32h7xx_hal_nand.c **** 
 3493              		.loc 1 2207 10 view .LVU1171
 3494              	.LBE829:
 3495              	.LBE828:
1265:./Libraries/STM32H7xx_HAL_Driver/Src/stm32h7xx_hal_nand.c **** 
 3496              		.loc 1 1265 21 view .LVU1172
 3497 0172 0390     		str	r0, [sp, #12]
 3498              	.LVL166:
1268:./Libraries/STM32H7xx_HAL_Driver/Src/stm32h7xx_hal_nand.c ****         {
 3499              		.loc 1 1268 9 is_stmt 1 view .LVU1173
 3500              	.L223:
1270:./Libraries/STM32H7xx_HAL_Driver/Src/stm32h7xx_hal_nand.c ****           {
 3501              		.loc 1 1270 11 view .LVU1174
1268:./Libraries/STM32H7xx_HAL_Driver/Src/stm32h7xx_hal_nand.c ****         {
 3502              		.loc 1 1268 15 view .LVU1175
 3503              	.LBB831:
 3504              	.LBI828:
2194:./Libraries/STM32H7xx_HAL_Driver/Src/stm32h7xx_hal_nand.c **** {
 3505              		.loc 1 2194 10 view .LVU1176
 3506              	.LBB830:
2196:./Libraries/STM32H7xx_HAL_Driver/Src/stm32h7xx_hal_nand.c ****   uint32_t deviceaddress;
 3507              		.loc 1 2196 3 view .LVU1177
2197:./Libraries/STM32H7xx_HAL_Driver/Src/stm32h7xx_hal_nand.c ****   UNUSED(hnand);
 3508              		.loc 1 2197 3 view .LVU1178
2198:./Libraries/STM32H7xx_HAL_Driver/Src/stm32h7xx_hal_nand.c **** 
 3509              		.loc 1 2198 3 view .LVU1179
2201:./Libraries/STM32H7xx_HAL_Driver/Src/stm32h7xx_hal_nand.c **** 
 3510              		.loc 1 2201 3 view .LVU1180
2204:./Libraries/STM32H7xx_HAL_Driver/Src/stm32h7xx_hal_nand.c **** 
 3511              		.loc 1 2204 3 view .LVU1181
 3512              		.loc 1 2214 8 view .LVU1182
2204:./Libraries/STM32H7xx_HAL_Driver/Src/stm32h7xx_hal_nand.c **** 
 3513              		.loc 1 2204 59 is_stmt 0 view .LVU1183
 3514 0174 88F80040 		strb	r4, [r8]
2207:./Libraries/STM32H7xx_HAL_Driver/Src/stm32h7xx_hal_nand.c **** 
 3515              		.loc 1 2207 3 is_stmt 1 view .LVU1184
2207:./Libraries/STM32H7xx_HAL_Driver/Src/stm32h7xx_hal_nand.c **** 
 3516              		.loc 1 2207 10 is_stmt 0 view .LVU1185
 3517 0178 3378     		ldrb	r3, [r6]	@ zero_extendqisi2
2210:./Libraries/STM32H7xx_HAL_Driver/Src/stm32h7xx_hal_nand.c ****   {
 3518              		.loc 1 2210 6 view .LVU1186
 3519 017a 13F00100 		ands	r0, r3, #1
ARM GAS  /tmp/cc5RRSLv.s 			page 135


2207:./Libraries/STM32H7xx_HAL_Driver/Src/stm32h7xx_hal_nand.c **** 
 3520              		.loc 1 2207 10 view .LVU1187
 3521 017e DAB2     		uxtb	r2, r3
 3522              	.LVL167:
2210:./Libraries/STM32H7xx_HAL_Driver/Src/stm32h7xx_hal_nand.c ****   {
 3523              		.loc 1 2210 3 is_stmt 1 view .LVU1188
2210:./Libraries/STM32H7xx_HAL_Driver/Src/stm32h7xx_hal_nand.c ****   {
 3524              		.loc 1 2210 6 is_stmt 0 view .LVU1189
 3525 0180 01D1     		bne	.L224
 3526              		.loc 1 2214 11 view .LVU1190
 3527 0182 5306     		lsls	r3, r2, #25
 3528 0184 0DD4     		bmi	.L247
 3529              	.L224:
 3530              	.LBE830:
 3531              	.LBE831:
1270:./Libraries/STM32H7xx_HAL_Driver/Src/stm32h7xx_hal_nand.c ****           {
 3532              		.loc 1 1270 16 view .LVU1191
 3533 0186 FFF7FEFF 		bl	HAL_GetTick
 3534              	.LVL168:
1270:./Libraries/STM32H7xx_HAL_Driver/Src/stm32h7xx_hal_nand.c ****           {
 3535              		.loc 1 1270 30 view .LVU1192
 3536 018a 039B     		ldr	r3, [sp, #12]
 3537 018c C01A     		subs	r0, r0, r3
1270:./Libraries/STM32H7xx_HAL_Driver/Src/stm32h7xx_hal_nand.c ****           {
 3538              		.loc 1 1270 14 view .LVU1193
 3539 018e B0F1807F 		cmp	r0, #16777216
 3540 0192 EFD9     		bls	.L223
1273:./Libraries/STM32H7xx_HAL_Driver/Src/stm32h7xx_hal_nand.c **** 
 3541              		.loc 1 1273 13 is_stmt 1 view .LVU1194
1273:./Libraries/STM32H7xx_HAL_Driver/Src/stm32h7xx_hal_nand.c **** 
 3542              		.loc 1 1273 26 is_stmt 0 view .LVU1195
 3543 0194 0320     		movs	r0, #3
1276:./Libraries/STM32H7xx_HAL_Driver/Src/stm32h7xx_hal_nand.c **** 
 3544              		.loc 1 1276 13 view .LVU1196
 3545 0196 0023     		movs	r3, #0
1273:./Libraries/STM32H7xx_HAL_Driver/Src/stm32h7xx_hal_nand.c **** 
 3546              		.loc 1 1273 26 view .LVU1197
 3547 0198 85F82100 		strb	r0, [r5, #33]
1276:./Libraries/STM32H7xx_HAL_Driver/Src/stm32h7xx_hal_nand.c **** 
 3548              		.loc 1 1276 13 is_stmt 1 view .LVU1198
1276:./Libraries/STM32H7xx_HAL_Driver/Src/stm32h7xx_hal_nand.c **** 
 3549              		.loc 1 1276 13 view .LVU1199
 3550 019c 85F82030 		strb	r3, [r5, #32]
1276:./Libraries/STM32H7xx_HAL_Driver/Src/stm32h7xx_hal_nand.c **** 
 3551              		.loc 1 1276 13 view .LVU1200
1278:./Libraries/STM32H7xx_HAL_Driver/Src/stm32h7xx_hal_nand.c ****           }
 3552              		.loc 1 1278 13 view .LVU1201
1278:./Libraries/STM32H7xx_HAL_Driver/Src/stm32h7xx_hal_nand.c ****           }
 3553              		.loc 1 1278 20 is_stmt 0 view .LVU1202
 3554 01a0 ADE7     		b	.L215
 3555              	.LVL169:
 3556              	.L247:
1278:./Libraries/STM32H7xx_HAL_Driver/Src/stm32h7xx_hal_nand.c ****           }
 3557              		.loc 1 1278 20 view .LVU1203
 3558 01a2 2B46     		mov	r3, r5
 3559 01a4 059D     		ldr	r5, [sp, #20]
1283:./Libraries/STM32H7xx_HAL_Driver/Src/stm32h7xx_hal_nand.c ****         __DSB();
ARM GAS  /tmp/cc5RRSLv.s 			page 136


 3560              		.loc 1 1283 9 is_stmt 1 view .LVU1204
1283:./Libraries/STM32H7xx_HAL_Driver/Src/stm32h7xx_hal_nand.c ****         __DSB();
 3561              		.loc 1 1283 65 is_stmt 0 view .LVU1205
 3562 01a6 88F80000 		strb	r0, [r8]
1284:./Libraries/STM32H7xx_HAL_Driver/Src/stm32h7xx_hal_nand.c ****       }
 3563              		.loc 1 1284 9 is_stmt 1 view .LVU1206
 3564              	.LBB832:
 3565              	.LBI832:
 944:./Libraries/CMSIS/Core/Include/cmsis_gcc.h **** {
 3566              		.loc 2 944 27 view .LVU1207
 3567              	.LBB833:
 946:./Libraries/CMSIS/Core/Include/cmsis_gcc.h **** }
 3568              		.loc 2 946 3 view .LVU1208
 3569              		.syntax unified
 3570              	@ 946 "./Libraries/CMSIS/Core/Include/cmsis_gcc.h" 1
 3571 01aa BFF34F8F 		dsb 0xF
 3572              	@ 0 "" 2
 3573              		.loc 2 947 1 is_stmt 0 view .LVU1209
 3574              		.thumb
 3575              		.syntax unified
 3576 01ae 88E7     		b	.L222
 3577              	.LVL170:
 3578              	.L230:
 3579              		.loc 2 947 1 view .LVU1210
 3580              	.LBE833:
 3581              	.LBE832:
1177:./Libraries/STM32H7xx_HAL_Driver/Src/stm32h7xx_hal_nand.c ****   }
 3582              		.loc 1 1177 12 view .LVU1211
 3583 01b0 0220     		movs	r0, #2
 3584 01b2 A4E7     		b	.L215
 3585              	.L249:
 3586              		.align	2
 3587              	.L248:
 3588 01b4 00000280 		.word	-2147352576
 3589 01b8 00000180 		.word	-2147418112
 3590              		.cfi_endproc
 3591              	.LFE344:
 3593              		.section	.text.HAL_NAND_Read_SpareArea_16b,"ax",%progbits
 3594              		.align	1
 3595              		.p2align 2,,3
 3596              		.global	HAL_NAND_Read_SpareArea_16b
 3597              		.syntax unified
 3598              		.thumb
 3599              		.thumb_func
 3600              		.fpu fpv5-d16
 3602              	HAL_NAND_Read_SpareArea_16b:
 3603              	.LVL171:
 3604              	.LFB345:
1329:./Libraries/STM32H7xx_HAL_Driver/Src/stm32h7xx_hal_nand.c ****   uint32_t index;
 3605              		.loc 1 1329 1 is_stmt 1 view -0
 3606              		.cfi_startproc
 3607              		@ args = 0, pretend = 0, frame = 16
 3608              		@ frame_needed = 0, uses_anonymous_args = 0
1329:./Libraries/STM32H7xx_HAL_Driver/Src/stm32h7xx_hal_nand.c ****   uint32_t index;
 3609              		.loc 1 1329 1 is_stmt 0 view .LVU1213
 3610 0000 2DE9F04F 		push	{r4, r5, r6, r7, r8, r9, r10, fp, lr}
 3611              	.LCFI50:
ARM GAS  /tmp/cc5RRSLv.s 			page 137


 3612              		.cfi_def_cfa_offset 36
 3613              		.cfi_offset 4, -36
 3614              		.cfi_offset 5, -32
 3615              		.cfi_offset 6, -28
 3616              		.cfi_offset 7, -24
 3617              		.cfi_offset 8, -20
 3618              		.cfi_offset 9, -16
 3619              		.cfi_offset 10, -12
 3620              		.cfi_offset 11, -8
 3621              		.cfi_offset 14, -4
 3622 0004 1746     		mov	r7, r2
1330:./Libraries/STM32H7xx_HAL_Driver/Src/stm32h7xx_hal_nand.c ****   uint32_t tickstart;
 3623              		.loc 1 1330 3 is_stmt 1 view .LVU1214
1331:./Libraries/STM32H7xx_HAL_Driver/Src/stm32h7xx_hal_nand.c ****   uint32_t deviceaddress;
 3624              		.loc 1 1331 3 view .LVU1215
1332:./Libraries/STM32H7xx_HAL_Driver/Src/stm32h7xx_hal_nand.c ****   uint32_t numsparearearead = 0U;
 3625              		.loc 1 1332 3 view .LVU1216
1333:./Libraries/STM32H7xx_HAL_Driver/Src/stm32h7xx_hal_nand.c ****   uint32_t nandaddress;
 3626              		.loc 1 1333 3 view .LVU1217
 3627              	.LVL172:
1334:./Libraries/STM32H7xx_HAL_Driver/Src/stm32h7xx_hal_nand.c ****   uint32_t columnaddress;
 3628              		.loc 1 1334 3 view .LVU1218
1335:./Libraries/STM32H7xx_HAL_Driver/Src/stm32h7xx_hal_nand.c ****   uint32_t nbspare = NumSpareAreaToRead;
 3629              		.loc 1 1335 3 view .LVU1219
1336:./Libraries/STM32H7xx_HAL_Driver/Src/stm32h7xx_hal_nand.c ****   uint16_t *buff = pBuffer;
 3630              		.loc 1 1336 3 view .LVU1220
1337:./Libraries/STM32H7xx_HAL_Driver/Src/stm32h7xx_hal_nand.c **** 
 3631              		.loc 1 1337 3 view .LVU1221
1340:./Libraries/STM32H7xx_HAL_Driver/Src/stm32h7xx_hal_nand.c ****   {
 3632              		.loc 1 1340 3 view .LVU1222
1340:./Libraries/STM32H7xx_HAL_Driver/Src/stm32h7xx_hal_nand.c ****   {
 3633              		.loc 1 1340 12 is_stmt 0 view .LVU1223
 3634 0006 90F82120 		ldrb	r2, [r0, #33]	@ zero_extendqisi2
 3635              	.LVL173:
1329:./Libraries/STM32H7xx_HAL_Driver/Src/stm32h7xx_hal_nand.c ****   uint32_t index;
 3636              		.loc 1 1329 1 view .LVU1224
 3637 000a 0446     		mov	r4, r0
 3638 000c 85B0     		sub	sp, sp, #20
 3639              	.LCFI51:
 3640              		.cfi_def_cfa_offset 56
1340:./Libraries/STM32H7xx_HAL_Driver/Src/stm32h7xx_hal_nand.c ****   {
 3641              		.loc 1 1340 6 view .LVU1225
 3642 000e 022A     		cmp	r2, #2
1340:./Libraries/STM32H7xx_HAL_Driver/Src/stm32h7xx_hal_nand.c ****   {
 3643              		.loc 1 1340 12 view .LVU1226
 3644 0010 D0B2     		uxtb	r0, r2
 3645              	.LVL174:
1340:./Libraries/STM32H7xx_HAL_Driver/Src/stm32h7xx_hal_nand.c ****   {
 3646              		.loc 1 1340 6 view .LVU1227
 3647 0012 76D0     		beq	.L251
1344:./Libraries/STM32H7xx_HAL_Driver/Src/stm32h7xx_hal_nand.c ****   {
 3648              		.loc 1 1344 8 is_stmt 1 view .LVU1228
1344:./Libraries/STM32H7xx_HAL_Driver/Src/stm32h7xx_hal_nand.c ****   {
 3649              		.loc 1 1344 17 is_stmt 0 view .LVU1229
 3650 0014 94F82120 		ldrb	r2, [r4, #33]	@ zero_extendqisi2
1344:./Libraries/STM32H7xx_HAL_Driver/Src/stm32h7xx_hal_nand.c ****   {
 3651              		.loc 1 1344 11 view .LVU1230
ARM GAS  /tmp/cc5RRSLv.s 			page 138


 3652 0018 012A     		cmp	r2, #1
1344:./Libraries/STM32H7xx_HAL_Driver/Src/stm32h7xx_hal_nand.c ****   {
 3653              		.loc 1 1344 17 view .LVU1231
 3654 001a D0B2     		uxtb	r0, r2
1344:./Libraries/STM32H7xx_HAL_Driver/Src/stm32h7xx_hal_nand.c ****   {
 3655              		.loc 1 1344 11 view .LVU1232
 3656 001c 74D1     		bne	.L265
1347:./Libraries/STM32H7xx_HAL_Driver/Src/stm32h7xx_hal_nand.c **** 
 3657              		.loc 1 1347 5 is_stmt 1 view .LVU1233
1347:./Libraries/STM32H7xx_HAL_Driver/Src/stm32h7xx_hal_nand.c **** 
 3658              		.loc 1 1347 5 view .LVU1234
 3659 001e 94F82020 		ldrb	r2, [r4, #32]	@ zero_extendqisi2
 3660 0022 012A     		cmp	r2, #1
 3661 0024 00F0C280 		beq	.L266
1347:./Libraries/STM32H7xx_HAL_Driver/Src/stm32h7xx_hal_nand.c **** 
 3662              		.loc 1 1347 5 discriminator 2 view .LVU1235
1350:./Libraries/STM32H7xx_HAL_Driver/Src/stm32h7xx_hal_nand.c **** 
 3663              		.loc 1 1350 18 is_stmt 0 discriminator 2 view .LVU1236
 3664 0028 0222     		movs	r2, #2
1347:./Libraries/STM32H7xx_HAL_Driver/Src/stm32h7xx_hal_nand.c **** 
 3665              		.loc 1 1347 5 discriminator 2 view .LVU1237
 3666 002a 84F82000 		strb	r0, [r4, #32]
1347:./Libraries/STM32H7xx_HAL_Driver/Src/stm32h7xx_hal_nand.c **** 
 3667              		.loc 1 1347 5 is_stmt 1 discriminator 2 view .LVU1238
1350:./Libraries/STM32H7xx_HAL_Driver/Src/stm32h7xx_hal_nand.c **** 
 3668              		.loc 1 1350 5 discriminator 2 view .LVU1239
1356:./Libraries/STM32H7xx_HAL_Driver/Src/stm32h7xx_hal_nand.c **** 
 3669              		.loc 1 1356 19 is_stmt 0 discriminator 2 view .LVU1240
 3670 002e A66B     		ldr	r6, [r4, #56]
1350:./Libraries/STM32H7xx_HAL_Driver/Src/stm32h7xx_hal_nand.c **** 
 3671              		.loc 1 1350 18 discriminator 2 view .LVU1241
 3672 0030 84F82120 		strb	r2, [r4, #33]
1353:./Libraries/STM32H7xx_HAL_Driver/Src/stm32h7xx_hal_nand.c **** 
 3673              		.loc 1 1353 5 is_stmt 1 discriminator 2 view .LVU1242
 3674              	.LVL175:
1356:./Libraries/STM32H7xx_HAL_Driver/Src/stm32h7xx_hal_nand.c **** 
 3675              		.loc 1 1356 5 discriminator 2 view .LVU1243
1356:./Libraries/STM32H7xx_HAL_Driver/Src/stm32h7xx_hal_nand.c **** 
 3676              		.loc 1 1356 19 is_stmt 0 discriminator 2 view .LVU1244
 3677 0034 8A88     		ldrh	r2, [r1, #4]
 3678 0036 4D88     		ldrh	r5, [r1, #2]
 3679 0038 0888     		ldrh	r0, [r1]
 3680 003a 06FB0525 		mla	r5, r6, r5, r2
 3681 003e E26A     		ldr	r2, [r4, #44]
1359:./Libraries/STM32H7xx_HAL_Driver/Src/stm32h7xx_hal_nand.c **** 
 3682              		.loc 1 1359 19 discriminator 2 view .LVU1245
 3683 0040 D4F824B0 		ldr	fp, [r4, #36]
1356:./Libraries/STM32H7xx_HAL_Driver/Src/stm32h7xx_hal_nand.c **** 
 3684              		.loc 1 1356 17 discriminator 2 view .LVU1246
 3685 0044 02FB0505 		mla	r5, r2, r5, r0
 3686              	.LVL176:
1359:./Libraries/STM32H7xx_HAL_Driver/Src/stm32h7xx_hal_nand.c **** 
 3687              		.loc 1 1359 5 is_stmt 1 discriminator 2 view .LVU1247
1362:./Libraries/STM32H7xx_HAL_Driver/Src/stm32h7xx_hal_nand.c ****     {
 3688              		.loc 1 1362 5 discriminator 2 view .LVU1248
1362:./Libraries/STM32H7xx_HAL_Driver/Src/stm32h7xx_hal_nand.c ****     {
 3689              		.loc 1 1362 11 discriminator 2 view .LVU1249
ARM GAS  /tmp/cc5RRSLv.s 			page 139


 3690 0048 002B     		cmp	r3, #0
 3691 004a 53D0     		beq	.L263
 3692 004c 03EB0509 		add	r9, r3, r5
1362:./Libraries/STM32H7xx_HAL_Driver/Src/stm32h7xx_hal_nand.c ****     {
 3693              		.loc 1 1362 73 is_stmt 0 view .LVU1250
 3694 0050 206B     		ldr	r0, [r4, #48]
1413:./Libraries/STM32H7xx_HAL_Driver/Src/stm32h7xx_hal_nand.c ****           __DSB();
 3695              		.loc 1 1413 70 view .LVU1251
 3696 0052 CBF30723 		ubfx	r3, fp, #8, #8
 3697              	.LVL177:
1413:./Libraries/STM32H7xx_HAL_Driver/Src/stm32h7xx_hal_nand.c ****           __DSB();
 3698              		.loc 1 1413 70 view .LVU1252
 3699 0056 CDF804B0 		str	fp, [sp, #4]
 3700 005a AB46     		mov	fp, r5
 3701              	.LVL178:
1413:./Libraries/STM32H7xx_HAL_Driver/Src/stm32h7xx_hal_nand.c ****           __DSB();
 3702              		.loc 1 1413 70 view .LVU1253
 3703 005c 1546     		mov	r5, r2
 3704              	.LVL179:
1395:./Libraries/STM32H7xx_HAL_Driver/Src/stm32h7xx_hal_nand.c ****         __DSB();
 3705              		.loc 1 1395 65 view .LVU1254
 3706 005e DFF85481 		ldr	r8, .L284+4
 3707 0062 4FF0000A 		mov	r10, #0
1362:./Libraries/STM32H7xx_HAL_Driver/Src/stm32h7xx_hal_nand.c ****     {
 3708              		.loc 1 1362 73 view .LVU1255
 3709 0066 00FB05F0 		mul	r0, r0, r5
1411:./Libraries/STM32H7xx_HAL_Driver/Src/stm32h7xx_hal_nand.c ****           __DSB();
 3710              		.loc 1 1411 68 view .LVU1256
 3711 006a 514E     		ldr	r6, .L284
 3712 006c 3946     		mov	r1, r7
 3713              	.LVL180:
1413:./Libraries/STM32H7xx_HAL_Driver/Src/stm32h7xx_hal_nand.c ****           __DSB();
 3714              		.loc 1 1413 70 view .LVU1257
 3715 006e 0093     		str	r3, [sp]
1362:./Libraries/STM32H7xx_HAL_Driver/Src/stm32h7xx_hal_nand.c ****     {
 3716              		.loc 1 1362 28 view .LVU1258
 3717 0070 5845     		cmp	r0, fp
 3718 0072 3FD9     		bls	.L263
 3719              	.LVL181:
 3720              	.L264:
1365:./Libraries/STM32H7xx_HAL_Driver/Src/stm32h7xx_hal_nand.c ****       {
 3721              		.loc 1 1365 7 is_stmt 1 view .LVU1259
1365:./Libraries/STM32H7xx_HAL_Driver/Src/stm32h7xx_hal_nand.c ****       {
 3722              		.loc 1 1365 10 is_stmt 0 view .LVU1260
 3723 0074 606A     		ldr	r0, [r4, #36]
 3724 0076 B0F5007F 		cmp	r0, #512
 3725 007a 5FD8     		bhi	.L254
1368:./Libraries/STM32H7xx_HAL_Driver/Src/stm32h7xx_hal_nand.c ****         __DSB();
 3726              		.loc 1 1368 9 is_stmt 1 view .LVU1261
1368:./Libraries/STM32H7xx_HAL_Driver/Src/stm32h7xx_hal_nand.c ****         __DSB();
 3727              		.loc 1 1368 65 is_stmt 0 view .LVU1262
 3728 007c 5020     		movs	r0, #80
 3729 007e 88F80000 		strb	r0, [r8]
1369:./Libraries/STM32H7xx_HAL_Driver/Src/stm32h7xx_hal_nand.c **** 
 3730              		.loc 1 1369 9 is_stmt 1 view .LVU1263
 3731              	.LBB834:
 3732              	.LBI834:
ARM GAS  /tmp/cc5RRSLv.s 			page 140


 944:./Libraries/CMSIS/Core/Include/cmsis_gcc.h **** {
 3733              		.loc 2 944 27 view .LVU1264
 3734              	.LBB835:
 946:./Libraries/CMSIS/Core/Include/cmsis_gcc.h **** }
 3735              		.loc 2 946 3 view .LVU1265
 3736              		.syntax unified
 3737              	@ 946 "./Libraries/CMSIS/Core/Include/cmsis_gcc.h" 1
 3738 0082 BFF34F8F 		dsb 0xF
 3739              	@ 0 "" 2
 3740              		.thumb
 3741              		.syntax unified
 3742              	.LBE835:
 3743              	.LBE834:
1371:./Libraries/STM32H7xx_HAL_Driver/Src/stm32h7xx_hal_nand.c ****         {
 3744              		.loc 1 1371 9 view .LVU1266
1371:./Libraries/STM32H7xx_HAL_Driver/Src/stm32h7xx_hal_nand.c ****         {
 3745              		.loc 1 1371 40 is_stmt 0 view .LVU1267
 3746 0086 D4E90B50 		ldrd	r5, r0, [r4, #44]
1373:./Libraries/STM32H7xx_HAL_Driver/Src/stm32h7xx_hal_nand.c ****           __DSB();
 3747              		.loc 1 1373 68 view .LVU1268
 3748 008a 86F800A0 		strb	r10, [r6]
1371:./Libraries/STM32H7xx_HAL_Driver/Src/stm32h7xx_hal_nand.c ****         {
 3749              		.loc 1 1371 40 view .LVU1269
 3750 008e 00FB05F0 		mul	r0, r0, r5
1371:./Libraries/STM32H7xx_HAL_Driver/Src/stm32h7xx_hal_nand.c ****         {
 3751              		.loc 1 1371 12 view .LVU1270
 3752 0092 B0F5803F 		cmp	r0, #65536
 3753 0096 3FD2     		bcs	.L281
 3754              	.L280:
1403:./Libraries/STM32H7xx_HAL_Driver/Src/stm32h7xx_hal_nand.c ****           *(__IO uint8_t *)((uint32_t)(deviceaddress | ADDR_AREA)) = ADDR_1ST_CYCLE(nandaddress);
 3755              		.loc 1 1403 11 is_stmt 1 view .LVU1271
 3756              	.LBB836:
 3757              	.LBI836:
 944:./Libraries/CMSIS/Core/Include/cmsis_gcc.h **** {
 3758              		.loc 2 944 27 view .LVU1272
 3759              	.LBB837:
 946:./Libraries/CMSIS/Core/Include/cmsis_gcc.h **** }
 3760              		.loc 2 946 3 view .LVU1273
 3761              		.syntax unified
 3762              	@ 946 "./Libraries/CMSIS/Core/Include/cmsis_gcc.h" 1
 3763 0098 BFF34F8F 		dsb 0xF
 3764              	@ 0 "" 2
 3765              		.thumb
 3766              		.syntax unified
 3767              	.LBE837:
 3768              	.LBE836:
1404:./Libraries/STM32H7xx_HAL_Driver/Src/stm32h7xx_hal_nand.c ****           __DSB();
 3769              		.loc 1 1404 11 view .LVU1274
 3770 009c 5FFA8BF0 		uxtb	r0, fp
1404:./Libraries/STM32H7xx_HAL_Driver/Src/stm32h7xx_hal_nand.c ****           __DSB();
 3771              		.loc 1 1404 68 is_stmt 0 view .LVU1275
 3772 00a0 3070     		strb	r0, [r6]
1405:./Libraries/STM32H7xx_HAL_Driver/Src/stm32h7xx_hal_nand.c ****           *(__IO uint8_t *)((uint32_t)(deviceaddress | ADDR_AREA)) = ADDR_2ND_CYCLE(nandaddress);
 3773              		.loc 1 1405 11 is_stmt 1 view .LVU1276
 3774              	.LBB838:
 3775              	.LBI838:
 944:./Libraries/CMSIS/Core/Include/cmsis_gcc.h **** {
ARM GAS  /tmp/cc5RRSLv.s 			page 141


 3776              		.loc 2 944 27 view .LVU1277
 3777              	.LBB839:
 946:./Libraries/CMSIS/Core/Include/cmsis_gcc.h **** }
 3778              		.loc 2 946 3 view .LVU1278
 3779              		.syntax unified
 3780              	@ 946 "./Libraries/CMSIS/Core/Include/cmsis_gcc.h" 1
 3781 00a2 BFF34F8F 		dsb 0xF
 3782              	@ 0 "" 2
 3783              		.thumb
 3784              		.syntax unified
 3785              	.LBE839:
 3786              	.LBE838:
1406:./Libraries/STM32H7xx_HAL_Driver/Src/stm32h7xx_hal_nand.c ****           __DSB();
 3787              		.loc 1 1406 11 view .LVU1279
1406:./Libraries/STM32H7xx_HAL_Driver/Src/stm32h7xx_hal_nand.c ****           __DSB();
 3788              		.loc 1 1406 70 is_stmt 0 view .LVU1280
 3789 00a6 CBF30720 		ubfx	r0, fp, #8, #8
1406:./Libraries/STM32H7xx_HAL_Driver/Src/stm32h7xx_hal_nand.c ****           __DSB();
 3790              		.loc 1 1406 68 view .LVU1281
 3791 00aa 3070     		strb	r0, [r6]
1407:./Libraries/STM32H7xx_HAL_Driver/Src/stm32h7xx_hal_nand.c ****         }
 3792              		.loc 1 1407 11 is_stmt 1 view .LVU1282
 3793              	.LBB840:
 3794              	.LBI840:
 944:./Libraries/CMSIS/Core/Include/cmsis_gcc.h **** {
 3795              		.loc 2 944 27 view .LVU1283
 3796              	.LBB841:
 946:./Libraries/CMSIS/Core/Include/cmsis_gcc.h **** }
 3797              		.loc 2 946 3 view .LVU1284
 3798              		.syntax unified
 3799              	@ 946 "./Libraries/CMSIS/Core/Include/cmsis_gcc.h" 1
 3800 00ac BFF34F8F 		dsb 0xF
 3801              	@ 0 "" 2
 3802              		.thumb
 3803              		.syntax unified
 3804              	.L256:
 946:./Libraries/CMSIS/Core/Include/cmsis_gcc.h **** }
 3805              		.loc 2 946 3 is_stmt 0 view .LVU1285
 3806              	.LBE841:
 3807              	.LBE840:
1424:./Libraries/STM32H7xx_HAL_Driver/Src/stm32h7xx_hal_nand.c ****       __DSB();
 3808              		.loc 1 1424 7 is_stmt 1 view .LVU1286
1424:./Libraries/STM32H7xx_HAL_Driver/Src/stm32h7xx_hal_nand.c ****       __DSB();
 3809              		.loc 1 1424 63 is_stmt 0 view .LVU1287
 3810 00b0 3020     		movs	r0, #48
 3811 00b2 88F80000 		strb	r0, [r8]
1425:./Libraries/STM32H7xx_HAL_Driver/Src/stm32h7xx_hal_nand.c **** 
 3812              		.loc 1 1425 7 is_stmt 1 view .LVU1288
 3813              	.LBB842:
 3814              	.LBI842:
 944:./Libraries/CMSIS/Core/Include/cmsis_gcc.h **** {
 3815              		.loc 2 944 27 view .LVU1289
 3816              	.LBB843:
 946:./Libraries/CMSIS/Core/Include/cmsis_gcc.h **** }
 3817              		.loc 2 946 3 view .LVU1290
 3818              		.syntax unified
 3819              	@ 946 "./Libraries/CMSIS/Core/Include/cmsis_gcc.h" 1
ARM GAS  /tmp/cc5RRSLv.s 			page 142


 3820 00b6 BFF34F8F 		dsb 0xF
 3821              	@ 0 "" 2
 3822              		.thumb
 3823              		.syntax unified
 3824              	.LBE843:
 3825              	.LBE842:
1427:./Libraries/STM32H7xx_HAL_Driver/Src/stm32h7xx_hal_nand.c ****       {
 3826              		.loc 1 1427 7 view .LVU1291
1427:./Libraries/STM32H7xx_HAL_Driver/Src/stm32h7xx_hal_nand.c ****       {
 3827              		.loc 1 1427 10 is_stmt 0 view .LVU1292
 3828 00ba 94F83C00 		ldrb	r0, [r4, #60]	@ zero_extendqisi2
 3829 00be 0128     		cmp	r0, #1
 3830 00c0 4FD0     		beq	.L282
 3831              	.LVL182:
 3832              	.L258:
1453:./Libraries/STM32H7xx_HAL_Driver/Src/stm32h7xx_hal_nand.c ****       {
 3833              		.loc 1 1453 24 is_stmt 1 discriminator 1 view .LVU1293
1453:./Libraries/STM32H7xx_HAL_Driver/Src/stm32h7xx_hal_nand.c ****       {
 3834              		.loc 1 1453 45 is_stmt 0 discriminator 1 view .LVU1294
 3835 00c2 A36A     		ldr	r3, [r4, #40]
1453:./Libraries/STM32H7xx_HAL_Driver/Src/stm32h7xx_hal_nand.c ****       {
 3836              		.loc 1 1453 7 discriminator 1 view .LVU1295
 3837 00c4 63B1     		cbz	r3, .L261
1453:./Libraries/STM32H7xx_HAL_Driver/Src/stm32h7xx_hal_nand.c ****       {
 3838              		.loc 1 1453 7 view .LVU1296
 3839 00c6 0D46     		mov	r5, r1
 3840 00c8 0020     		movs	r0, #0
1455:./Libraries/STM32H7xx_HAL_Driver/Src/stm32h7xx_hal_nand.c ****         buff++;
 3841              		.loc 1 1455 17 view .LVU1297
 3842 00ca 4FF0004E 		mov	lr, #-2147483648
 3843              	.LVL183:
 3844              	.L262:
1455:./Libraries/STM32H7xx_HAL_Driver/Src/stm32h7xx_hal_nand.c ****         buff++;
 3845              		.loc 1 1455 9 is_stmt 1 discriminator 3 view .LVU1298
1453:./Libraries/STM32H7xx_HAL_Driver/Src/stm32h7xx_hal_nand.c ****       {
 3846              		.loc 1 1453 66 is_stmt 0 discriminator 3 view .LVU1299
 3847 00ce 0130     		adds	r0, r0, #1
 3848              	.LVL184:
1455:./Libraries/STM32H7xx_HAL_Driver/Src/stm32h7xx_hal_nand.c ****         buff++;
 3849              		.loc 1 1455 17 discriminator 3 view .LVU1300
 3850 00d0 BEF80020 		ldrh	r2, [lr]
1453:./Libraries/STM32H7xx_HAL_Driver/Src/stm32h7xx_hal_nand.c ****       {
 3851              		.loc 1 1453 7 discriminator 3 view .LVU1301
 3852 00d4 9842     		cmp	r0, r3
1455:./Libraries/STM32H7xx_HAL_Driver/Src/stm32h7xx_hal_nand.c ****         buff++;
 3853              		.loc 1 1455 15 discriminator 3 view .LVU1302
 3854 00d6 25F8022B 		strh	r2, [r5], #2	@ movhi
 3855              	.LVL185:
1456:./Libraries/STM32H7xx_HAL_Driver/Src/stm32h7xx_hal_nand.c ****       }
 3856              		.loc 1 1456 9 is_stmt 1 discriminator 3 view .LVU1303
1453:./Libraries/STM32H7xx_HAL_Driver/Src/stm32h7xx_hal_nand.c ****       {
 3857              		.loc 1 1453 61 discriminator 3 view .LVU1304
1453:./Libraries/STM32H7xx_HAL_Driver/Src/stm32h7xx_hal_nand.c ****       {
 3858              		.loc 1 1453 24 discriminator 3 view .LVU1305
1453:./Libraries/STM32H7xx_HAL_Driver/Src/stm32h7xx_hal_nand.c ****       {
 3859              		.loc 1 1453 7 is_stmt 0 discriminator 3 view .LVU1306
 3860 00da F8D1     		bne	.L262
ARM GAS  /tmp/cc5RRSLv.s 			page 143


 3861 00dc 01EB4001 		add	r1, r1, r0, lsl #1
 3862              	.LVL186:
 3863              	.L261:
1460:./Libraries/STM32H7xx_HAL_Driver/Src/stm32h7xx_hal_nand.c **** 
 3864              		.loc 1 1460 7 is_stmt 1 view .LVU1307
1463:./Libraries/STM32H7xx_HAL_Driver/Src/stm32h7xx_hal_nand.c **** 
 3865              		.loc 1 1463 7 view .LVU1308
1466:./Libraries/STM32H7xx_HAL_Driver/Src/stm32h7xx_hal_nand.c ****     }
 3866              		.loc 1 1466 7 view .LVU1309
1466:./Libraries/STM32H7xx_HAL_Driver/Src/stm32h7xx_hal_nand.c ****     }
 3867              		.loc 1 1466 19 is_stmt 0 view .LVU1310
 3868 00e0 0BF1010B 		add	fp, fp, #1
 3869              	.LVL187:
1362:./Libraries/STM32H7xx_HAL_Driver/Src/stm32h7xx_hal_nand.c ****     {
 3870              		.loc 1 1362 11 is_stmt 1 view .LVU1311
 3871 00e4 D945     		cmp	r9, fp
 3872 00e6 05D0     		beq	.L263
 3873 00e8 E56A     		ldr	r5, [r4, #44]
 3874              	.LVL188:
1362:./Libraries/STM32H7xx_HAL_Driver/Src/stm32h7xx_hal_nand.c ****     {
 3875              		.loc 1 1362 73 is_stmt 0 view .LVU1312
 3876 00ea 206B     		ldr	r0, [r4, #48]
 3877 00ec 00FB05F0 		mul	r0, r0, r5
1362:./Libraries/STM32H7xx_HAL_Driver/Src/stm32h7xx_hal_nand.c ****     {
 3878              		.loc 1 1362 28 view .LVU1313
 3879 00f0 5845     		cmp	r0, fp
 3880 00f2 BFD8     		bhi	.L264
 3881              	.LVL189:
 3882              	.L263:
1470:./Libraries/STM32H7xx_HAL_Driver/Src/stm32h7xx_hal_nand.c **** 
 3883              		.loc 1 1470 5 is_stmt 1 view .LVU1314
1473:./Libraries/STM32H7xx_HAL_Driver/Src/stm32h7xx_hal_nand.c ****   }
 3884              		.loc 1 1473 5 is_stmt 0 view .LVU1315
 3885 00f4 0023     		movs	r3, #0
1470:./Libraries/STM32H7xx_HAL_Driver/Src/stm32h7xx_hal_nand.c **** 
 3886              		.loc 1 1470 18 view .LVU1316
 3887 00f6 0122     		movs	r2, #1
1480:./Libraries/STM32H7xx_HAL_Driver/Src/stm32h7xx_hal_nand.c **** }
 3888              		.loc 1 1480 10 view .LVU1317
 3889 00f8 1846     		mov	r0, r3
1470:./Libraries/STM32H7xx_HAL_Driver/Src/stm32h7xx_hal_nand.c **** 
 3890              		.loc 1 1470 18 view .LVU1318
 3891 00fa 84F82120 		strb	r2, [r4, #33]
1473:./Libraries/STM32H7xx_HAL_Driver/Src/stm32h7xx_hal_nand.c ****   }
 3892              		.loc 1 1473 5 is_stmt 1 view .LVU1319
1473:./Libraries/STM32H7xx_HAL_Driver/Src/stm32h7xx_hal_nand.c ****   }
 3893              		.loc 1 1473 5 view .LVU1320
 3894 00fe 84F82030 		strb	r3, [r4, #32]
1473:./Libraries/STM32H7xx_HAL_Driver/Src/stm32h7xx_hal_nand.c ****   }
 3895              		.loc 1 1473 5 view .LVU1321
1480:./Libraries/STM32H7xx_HAL_Driver/Src/stm32h7xx_hal_nand.c **** }
 3896              		.loc 1 1480 3 view .LVU1322
 3897              	.LVL190:
 3898              	.L251:
1481:./Libraries/STM32H7xx_HAL_Driver/Src/stm32h7xx_hal_nand.c **** 
 3899              		.loc 1 1481 1 is_stmt 0 view .LVU1323
 3900 0102 05B0     		add	sp, sp, #20
ARM GAS  /tmp/cc5RRSLv.s 			page 144


 3901              	.LCFI52:
 3902              		.cfi_remember_state
 3903              		.cfi_def_cfa_offset 36
 3904              		@ sp needed
 3905 0104 BDE8F08F 		pop	{r4, r5, r6, r7, r8, r9, r10, fp, pc}
 3906              	.LVL191:
 3907              	.L265:
 3908              	.LCFI53:
 3909              		.cfi_restore_state
1477:./Libraries/STM32H7xx_HAL_Driver/Src/stm32h7xx_hal_nand.c ****   }
 3910              		.loc 1 1477 12 view .LVU1324
 3911 0108 0120     		movs	r0, #1
1481:./Libraries/STM32H7xx_HAL_Driver/Src/stm32h7xx_hal_nand.c **** 
 3912              		.loc 1 1481 1 view .LVU1325
 3913 010a 05B0     		add	sp, sp, #20
 3914              	.LCFI54:
 3915              		.cfi_remember_state
 3916              		.cfi_def_cfa_offset 36
 3917              		@ sp needed
 3918 010c BDE8F08F 		pop	{r4, r5, r6, r7, r8, r9, r10, fp, pc}
 3919              	.LVL192:
 3920              	.L257:
 3921              	.LCFI55:
 3922              		.cfi_restore_state
1411:./Libraries/STM32H7xx_HAL_Driver/Src/stm32h7xx_hal_nand.c ****           __DSB();
 3923              		.loc 1 1411 11 is_stmt 1 view .LVU1326
1412:./Libraries/STM32H7xx_HAL_Driver/Src/stm32h7xx_hal_nand.c ****           *(__IO uint8_t *)((uint32_t)(deviceaddress | ADDR_AREA)) = COLUMN_2ND_CYCLE(columnaddress
 3924              		.loc 1 1412 11 view .LVU1327
 3925              	.LBB844:
 3926              	.LBI844:
 944:./Libraries/CMSIS/Core/Include/cmsis_gcc.h **** {
 3927              		.loc 2 944 27 view .LVU1328
 3928              	.LBB845:
 946:./Libraries/CMSIS/Core/Include/cmsis_gcc.h **** }
 3929              		.loc 2 946 3 view .LVU1329
 3930              		.syntax unified
 3931              	@ 946 "./Libraries/CMSIS/Core/Include/cmsis_gcc.h" 1
 3932 0110 BFF34F8F 		dsb 0xF
 3933              	@ 0 "" 2
 3934              		.thumb
 3935              		.syntax unified
 3936              	.LBE845:
 3937              	.LBE844:
1413:./Libraries/STM32H7xx_HAL_Driver/Src/stm32h7xx_hal_nand.c ****           __DSB();
 3938              		.loc 1 1413 11 view .LVU1330
1413:./Libraries/STM32H7xx_HAL_Driver/Src/stm32h7xx_hal_nand.c ****           __DSB();
 3939              		.loc 1 1413 68 is_stmt 0 view .LVU1331
 3940 0114 009B     		ldr	r3, [sp]
 3941 0116 3370     		strb	r3, [r6]
 3942              	.L281:
1414:./Libraries/STM32H7xx_HAL_Driver/Src/stm32h7xx_hal_nand.c ****           *(__IO uint8_t *)((uint32_t)(deviceaddress | ADDR_AREA)) = ADDR_1ST_CYCLE(nandaddress);
 3943              		.loc 1 1414 11 is_stmt 1 view .LVU1332
 3944              	.LBB846:
 3945              	.LBI846:
 944:./Libraries/CMSIS/Core/Include/cmsis_gcc.h **** {
 3946              		.loc 2 944 27 view .LVU1333
 3947              	.LBB847:
ARM GAS  /tmp/cc5RRSLv.s 			page 145


 946:./Libraries/CMSIS/Core/Include/cmsis_gcc.h **** }
 3948              		.loc 2 946 3 view .LVU1334
 3949              		.syntax unified
 3950              	@ 946 "./Libraries/CMSIS/Core/Include/cmsis_gcc.h" 1
 3951 0118 BFF34F8F 		dsb 0xF
 3952              	@ 0 "" 2
 3953              		.thumb
 3954              		.syntax unified
 3955              	.LBE847:
 3956              	.LBE846:
1415:./Libraries/STM32H7xx_HAL_Driver/Src/stm32h7xx_hal_nand.c ****           __DSB();
 3957              		.loc 1 1415 11 view .LVU1335
 3958 011c 5FFA8BF0 		uxtb	r0, fp
1415:./Libraries/STM32H7xx_HAL_Driver/Src/stm32h7xx_hal_nand.c ****           __DSB();
 3959              		.loc 1 1415 68 is_stmt 0 view .LVU1336
 3960 0120 3070     		strb	r0, [r6]
1416:./Libraries/STM32H7xx_HAL_Driver/Src/stm32h7xx_hal_nand.c ****           *(__IO uint8_t *)((uint32_t)(deviceaddress | ADDR_AREA)) = ADDR_2ND_CYCLE(nandaddress);
 3961              		.loc 1 1416 11 is_stmt 1 view .LVU1337
 3962              	.LBB848:
 3963              	.LBI848:
 944:./Libraries/CMSIS/Core/Include/cmsis_gcc.h **** {
 3964              		.loc 2 944 27 view .LVU1338
 3965              	.LBB849:
 946:./Libraries/CMSIS/Core/Include/cmsis_gcc.h **** }
 3966              		.loc 2 946 3 view .LVU1339
 3967              		.syntax unified
 3968              	@ 946 "./Libraries/CMSIS/Core/Include/cmsis_gcc.h" 1
 3969 0122 BFF34F8F 		dsb 0xF
 3970              	@ 0 "" 2
 3971              		.thumb
 3972              		.syntax unified
 3973              	.LBE849:
 3974              	.LBE848:
1417:./Libraries/STM32H7xx_HAL_Driver/Src/stm32h7xx_hal_nand.c ****           __DSB();
 3975              		.loc 1 1417 11 view .LVU1340
1417:./Libraries/STM32H7xx_HAL_Driver/Src/stm32h7xx_hal_nand.c ****           __DSB();
 3976              		.loc 1 1417 70 is_stmt 0 view .LVU1341
 3977 0126 CBF30720 		ubfx	r0, fp, #8, #8
1417:./Libraries/STM32H7xx_HAL_Driver/Src/stm32h7xx_hal_nand.c ****           __DSB();
 3978              		.loc 1 1417 68 view .LVU1342
 3979 012a 3070     		strb	r0, [r6]
1418:./Libraries/STM32H7xx_HAL_Driver/Src/stm32h7xx_hal_nand.c ****           *(__IO uint8_t *)((uint32_t)(deviceaddress | ADDR_AREA)) = ADDR_3RD_CYCLE(nandaddress);
 3980              		.loc 1 1418 11 is_stmt 1 view .LVU1343
 3981              	.LBB850:
 3982              	.LBI850:
 944:./Libraries/CMSIS/Core/Include/cmsis_gcc.h **** {
 3983              		.loc 2 944 27 view .LVU1344
 3984              	.LBB851:
 946:./Libraries/CMSIS/Core/Include/cmsis_gcc.h **** }
 3985              		.loc 2 946 3 view .LVU1345
 3986              		.syntax unified
 3987              	@ 946 "./Libraries/CMSIS/Core/Include/cmsis_gcc.h" 1
 3988 012c BFF34F8F 		dsb 0xF
 3989              	@ 0 "" 2
 3990              		.thumb
 3991              		.syntax unified
 3992              	.LBE851:
ARM GAS  /tmp/cc5RRSLv.s 			page 146


 3993              	.LBE850:
1419:./Libraries/STM32H7xx_HAL_Driver/Src/stm32h7xx_hal_nand.c ****           __DSB();
 3994              		.loc 1 1419 11 view .LVU1346
1419:./Libraries/STM32H7xx_HAL_Driver/Src/stm32h7xx_hal_nand.c ****           __DSB();
 3995              		.loc 1 1419 70 is_stmt 0 view .LVU1347
 3996 0130 CBF30740 		ubfx	r0, fp, #16, #8
1419:./Libraries/STM32H7xx_HAL_Driver/Src/stm32h7xx_hal_nand.c ****           __DSB();
 3997              		.loc 1 1419 68 view .LVU1348
 3998 0134 3070     		strb	r0, [r6]
1420:./Libraries/STM32H7xx_HAL_Driver/Src/stm32h7xx_hal_nand.c ****         }
 3999              		.loc 1 1420 11 is_stmt 1 view .LVU1349
 4000              	.LBB852:
 4001              	.LBI852:
 944:./Libraries/CMSIS/Core/Include/cmsis_gcc.h **** {
 4002              		.loc 2 944 27 view .LVU1350
 4003              	.LBB853:
 946:./Libraries/CMSIS/Core/Include/cmsis_gcc.h **** }
 4004              		.loc 2 946 3 view .LVU1351
 4005              		.syntax unified
 4006              	@ 946 "./Libraries/CMSIS/Core/Include/cmsis_gcc.h" 1
 4007 0136 BFF34F8F 		dsb 0xF
 4008              	@ 0 "" 2
 4009              		.loc 2 947 1 is_stmt 0 view .LVU1352
 4010              		.thumb
 4011              		.syntax unified
 4012 013a B9E7     		b	.L256
 4013              	.L254:
 4014              		.loc 2 947 1 view .LVU1353
 4015              	.LBE853:
 4016              	.LBE852:
1395:./Libraries/STM32H7xx_HAL_Driver/Src/stm32h7xx_hal_nand.c ****         __DSB();
 4017              		.loc 1 1395 9 is_stmt 1 view .LVU1354
1395:./Libraries/STM32H7xx_HAL_Driver/Src/stm32h7xx_hal_nand.c ****         __DSB();
 4018              		.loc 1 1395 65 is_stmt 0 view .LVU1355
 4019 013c 88F800A0 		strb	r10, [r8]
1396:./Libraries/STM32H7xx_HAL_Driver/Src/stm32h7xx_hal_nand.c **** 
 4020              		.loc 1 1396 9 is_stmt 1 view .LVU1356
 4021              	.LBB854:
 4022              	.LBI854:
 944:./Libraries/CMSIS/Core/Include/cmsis_gcc.h **** {
 4023              		.loc 2 944 27 view .LVU1357
 4024              	.LBB855:
 946:./Libraries/CMSIS/Core/Include/cmsis_gcc.h **** }
 4025              		.loc 2 946 3 view .LVU1358
 4026              		.syntax unified
 4027              	@ 946 "./Libraries/CMSIS/Core/Include/cmsis_gcc.h" 1
 4028 0140 BFF34F8F 		dsb 0xF
 4029              	@ 0 "" 2
 4030              		.thumb
 4031              		.syntax unified
 4032              	.LBE855:
 4033              	.LBE854:
1398:./Libraries/STM32H7xx_HAL_Driver/Src/stm32h7xx_hal_nand.c ****         {
 4034              		.loc 1 1398 9 view .LVU1359
1398:./Libraries/STM32H7xx_HAL_Driver/Src/stm32h7xx_hal_nand.c ****         {
 4035              		.loc 1 1398 40 is_stmt 0 view .LVU1360
 4036 0144 D4E90B50 		ldrd	r5, r0, [r4, #44]
ARM GAS  /tmp/cc5RRSLv.s 			page 147


 4037 0148 00FB05F0 		mul	r0, r0, r5
1398:./Libraries/STM32H7xx_HAL_Driver/Src/stm32h7xx_hal_nand.c ****         {
 4038              		.loc 1 1398 12 view .LVU1361
 4039 014c B0F5803F 		cmp	r0, #65536
1400:./Libraries/STM32H7xx_HAL_Driver/Src/stm32h7xx_hal_nand.c ****           __DSB();
 4040              		.loc 1 1400 70 view .LVU1362
 4041 0150 9DF80400 		ldrb	r0, [sp, #4]	@ zero_extendqisi2
1400:./Libraries/STM32H7xx_HAL_Driver/Src/stm32h7xx_hal_nand.c ****           __DSB();
 4042              		.loc 1 1400 68 view .LVU1363
 4043 0154 3070     		strb	r0, [r6]
1398:./Libraries/STM32H7xx_HAL_Driver/Src/stm32h7xx_hal_nand.c ****         {
 4044              		.loc 1 1398 12 view .LVU1364
 4045 0156 DBD2     		bcs	.L257
1400:./Libraries/STM32H7xx_HAL_Driver/Src/stm32h7xx_hal_nand.c ****           __DSB();
 4046              		.loc 1 1400 11 is_stmt 1 view .LVU1365
1401:./Libraries/STM32H7xx_HAL_Driver/Src/stm32h7xx_hal_nand.c ****           *(__IO uint8_t *)((uint32_t)(deviceaddress | ADDR_AREA)) = COLUMN_2ND_CYCLE(columnaddress
 4047              		.loc 1 1401 11 view .LVU1366
 4048              	.LBB856:
 4049              	.LBI856:
 944:./Libraries/CMSIS/Core/Include/cmsis_gcc.h **** {
 4050              		.loc 2 944 27 view .LVU1367
 4051              	.LBB857:
 946:./Libraries/CMSIS/Core/Include/cmsis_gcc.h **** }
 4052              		.loc 2 946 3 view .LVU1368
 4053              		.syntax unified
 4054              	@ 946 "./Libraries/CMSIS/Core/Include/cmsis_gcc.h" 1
 4055 0158 BFF34F8F 		dsb 0xF
 4056              	@ 0 "" 2
 4057              		.thumb
 4058              		.syntax unified
 4059              	.LBE857:
 4060              	.LBE856:
1402:./Libraries/STM32H7xx_HAL_Driver/Src/stm32h7xx_hal_nand.c ****           __DSB();
 4061              		.loc 1 1402 11 view .LVU1369
1402:./Libraries/STM32H7xx_HAL_Driver/Src/stm32h7xx_hal_nand.c ****           __DSB();
 4062              		.loc 1 1402 68 is_stmt 0 view .LVU1370
 4063 015c 009B     		ldr	r3, [sp]
 4064 015e 3370     		strb	r3, [r6]
 4065 0160 9AE7     		b	.L280
 4066              	.L282:
1430:./Libraries/STM32H7xx_HAL_Driver/Src/stm32h7xx_hal_nand.c **** 
 4067              		.loc 1 1430 9 is_stmt 1 view .LVU1371
 4068              	.LBB858:
 4069              	.LBB859:
2204:./Libraries/STM32H7xx_HAL_Driver/Src/stm32h7xx_hal_nand.c **** 
 4070              		.loc 1 2204 59 is_stmt 0 view .LVU1372
 4071 0162 4FF07005 		mov	r5, #112
2207:./Libraries/STM32H7xx_HAL_Driver/Src/stm32h7xx_hal_nand.c **** 
 4072              		.loc 1 2207 10 view .LVU1373
 4073 0166 4FF00047 		mov	r7, #-2147483648
 4074 016a 0391     		str	r1, [sp, #12]
 4075              	.LBE859:
 4076              	.LBE858:
1430:./Libraries/STM32H7xx_HAL_Driver/Src/stm32h7xx_hal_nand.c **** 
 4077              		.loc 1 1430 21 view .LVU1374
 4078 016c FFF7FEFF 		bl	HAL_GetTick
 4079              	.LVL193:
ARM GAS  /tmp/cc5RRSLv.s 			page 148


1430:./Libraries/STM32H7xx_HAL_Driver/Src/stm32h7xx_hal_nand.c **** 
 4080              		.loc 1 1430 21 view .LVU1375
 4081 0170 0290     		str	r0, [sp, #8]
 4082              	.LVL194:
1433:./Libraries/STM32H7xx_HAL_Driver/Src/stm32h7xx_hal_nand.c ****         {
 4083              		.loc 1 1433 9 is_stmt 1 view .LVU1376
 4084              	.L259:
1435:./Libraries/STM32H7xx_HAL_Driver/Src/stm32h7xx_hal_nand.c ****           {
 4085              		.loc 1 1435 11 view .LVU1377
1433:./Libraries/STM32H7xx_HAL_Driver/Src/stm32h7xx_hal_nand.c ****         {
 4086              		.loc 1 1433 15 view .LVU1378
 4087              	.LBB861:
 4088              	.LBI858:
2194:./Libraries/STM32H7xx_HAL_Driver/Src/stm32h7xx_hal_nand.c **** {
 4089              		.loc 1 2194 10 view .LVU1379
 4090              	.LBB860:
2196:./Libraries/STM32H7xx_HAL_Driver/Src/stm32h7xx_hal_nand.c ****   uint32_t deviceaddress;
 4091              		.loc 1 2196 3 view .LVU1380
2197:./Libraries/STM32H7xx_HAL_Driver/Src/stm32h7xx_hal_nand.c ****   UNUSED(hnand);
 4092              		.loc 1 2197 3 view .LVU1381
2198:./Libraries/STM32H7xx_HAL_Driver/Src/stm32h7xx_hal_nand.c **** 
 4093              		.loc 1 2198 3 view .LVU1382
2201:./Libraries/STM32H7xx_HAL_Driver/Src/stm32h7xx_hal_nand.c **** 
 4094              		.loc 1 2201 3 view .LVU1383
2204:./Libraries/STM32H7xx_HAL_Driver/Src/stm32h7xx_hal_nand.c **** 
 4095              		.loc 1 2204 3 view .LVU1384
 4096              		.loc 1 2214 8 view .LVU1385
2204:./Libraries/STM32H7xx_HAL_Driver/Src/stm32h7xx_hal_nand.c **** 
 4097              		.loc 1 2204 59 is_stmt 0 view .LVU1386
 4098 0172 88F80050 		strb	r5, [r8]
2207:./Libraries/STM32H7xx_HAL_Driver/Src/stm32h7xx_hal_nand.c **** 
 4099              		.loc 1 2207 3 is_stmt 1 view .LVU1387
2207:./Libraries/STM32H7xx_HAL_Driver/Src/stm32h7xx_hal_nand.c **** 
 4100              		.loc 1 2207 10 is_stmt 0 view .LVU1388
 4101 0176 3B78     		ldrb	r3, [r7]	@ zero_extendqisi2
2210:./Libraries/STM32H7xx_HAL_Driver/Src/stm32h7xx_hal_nand.c ****   {
 4102              		.loc 1 2210 6 view .LVU1389
 4103 0178 13F00100 		ands	r0, r3, #1
2207:./Libraries/STM32H7xx_HAL_Driver/Src/stm32h7xx_hal_nand.c **** 
 4104              		.loc 1 2207 10 view .LVU1390
 4105 017c DAB2     		uxtb	r2, r3
 4106              	.LVL195:
2210:./Libraries/STM32H7xx_HAL_Driver/Src/stm32h7xx_hal_nand.c ****   {
 4107              		.loc 1 2210 3 is_stmt 1 view .LVU1391
2210:./Libraries/STM32H7xx_HAL_Driver/Src/stm32h7xx_hal_nand.c ****   {
 4108              		.loc 1 2210 6 is_stmt 0 view .LVU1392
 4109 017e 01D1     		bne	.L260
 4110              		.loc 1 2214 11 view .LVU1393
 4111 0180 5306     		lsls	r3, r2, #25
 4112 0182 0DD4     		bmi	.L283
 4113              	.L260:
 4114              	.LBE860:
 4115              	.LBE861:
1435:./Libraries/STM32H7xx_HAL_Driver/Src/stm32h7xx_hal_nand.c ****           {
 4116              		.loc 1 1435 16 view .LVU1394
 4117 0184 FFF7FEFF 		bl	HAL_GetTick
 4118              	.LVL196:
ARM GAS  /tmp/cc5RRSLv.s 			page 149


1435:./Libraries/STM32H7xx_HAL_Driver/Src/stm32h7xx_hal_nand.c ****           {
 4119              		.loc 1 1435 30 view .LVU1395
 4120 0188 029B     		ldr	r3, [sp, #8]
 4121 018a C01A     		subs	r0, r0, r3
1435:./Libraries/STM32H7xx_HAL_Driver/Src/stm32h7xx_hal_nand.c ****           {
 4122              		.loc 1 1435 14 view .LVU1396
 4123 018c B0F1807F 		cmp	r0, #16777216
 4124 0190 EFD9     		bls	.L259
1438:./Libraries/STM32H7xx_HAL_Driver/Src/stm32h7xx_hal_nand.c **** 
 4125              		.loc 1 1438 13 is_stmt 1 view .LVU1397
1438:./Libraries/STM32H7xx_HAL_Driver/Src/stm32h7xx_hal_nand.c **** 
 4126              		.loc 1 1438 26 is_stmt 0 view .LVU1398
 4127 0192 0320     		movs	r0, #3
1441:./Libraries/STM32H7xx_HAL_Driver/Src/stm32h7xx_hal_nand.c **** 
 4128              		.loc 1 1441 13 view .LVU1399
 4129 0194 0023     		movs	r3, #0
1438:./Libraries/STM32H7xx_HAL_Driver/Src/stm32h7xx_hal_nand.c **** 
 4130              		.loc 1 1438 26 view .LVU1400
 4131 0196 84F82100 		strb	r0, [r4, #33]
1441:./Libraries/STM32H7xx_HAL_Driver/Src/stm32h7xx_hal_nand.c **** 
 4132              		.loc 1 1441 13 is_stmt 1 view .LVU1401
1441:./Libraries/STM32H7xx_HAL_Driver/Src/stm32h7xx_hal_nand.c **** 
 4133              		.loc 1 1441 13 view .LVU1402
 4134 019a 84F82030 		strb	r3, [r4, #32]
1441:./Libraries/STM32H7xx_HAL_Driver/Src/stm32h7xx_hal_nand.c **** 
 4135              		.loc 1 1441 13 view .LVU1403
1443:./Libraries/STM32H7xx_HAL_Driver/Src/stm32h7xx_hal_nand.c ****           }
 4136              		.loc 1 1443 13 view .LVU1404
1443:./Libraries/STM32H7xx_HAL_Driver/Src/stm32h7xx_hal_nand.c ****           }
 4137              		.loc 1 1443 20 is_stmt 0 view .LVU1405
 4138 019e B0E7     		b	.L251
 4139              	.LVL197:
 4140              	.L283:
1443:./Libraries/STM32H7xx_HAL_Driver/Src/stm32h7xx_hal_nand.c ****           }
 4141              		.loc 1 1443 20 view .LVU1406
 4142 01a0 0399     		ldr	r1, [sp, #12]
1448:./Libraries/STM32H7xx_HAL_Driver/Src/stm32h7xx_hal_nand.c ****         __DSB();
 4143              		.loc 1 1448 9 is_stmt 1 view .LVU1407
1448:./Libraries/STM32H7xx_HAL_Driver/Src/stm32h7xx_hal_nand.c ****         __DSB();
 4144              		.loc 1 1448 65 is_stmt 0 view .LVU1408
 4145 01a2 88F80000 		strb	r0, [r8]
1449:./Libraries/STM32H7xx_HAL_Driver/Src/stm32h7xx_hal_nand.c ****       }
 4146              		.loc 1 1449 9 is_stmt 1 view .LVU1409
 4147              	.LBB862:
 4148              	.LBI862:
 944:./Libraries/CMSIS/Core/Include/cmsis_gcc.h **** {
 4149              		.loc 2 944 27 view .LVU1410
 4150              	.LBB863:
 946:./Libraries/CMSIS/Core/Include/cmsis_gcc.h **** }
 4151              		.loc 2 946 3 view .LVU1411
 4152              		.syntax unified
 4153              	@ 946 "./Libraries/CMSIS/Core/Include/cmsis_gcc.h" 1
 4154 01a6 BFF34F8F 		dsb 0xF
 4155              	@ 0 "" 2
 4156              		.loc 2 947 1 is_stmt 0 view .LVU1412
 4157              		.thumb
 4158              		.syntax unified
ARM GAS  /tmp/cc5RRSLv.s 			page 150


 4159 01aa 8AE7     		b	.L258
 4160              	.LVL198:
 4161              	.L266:
 4162              		.loc 2 947 1 view .LVU1413
 4163              	.LBE863:
 4164              	.LBE862:
1342:./Libraries/STM32H7xx_HAL_Driver/Src/stm32h7xx_hal_nand.c ****   }
 4165              		.loc 1 1342 12 view .LVU1414
 4166 01ac 0220     		movs	r0, #2
 4167 01ae A8E7     		b	.L251
 4168              	.L285:
 4169              		.align	2
 4170              	.L284:
 4171 01b0 00000280 		.word	-2147352576
 4172 01b4 00000180 		.word	-2147418112
 4173              		.cfi_endproc
 4174              	.LFE345:
 4176              		.section	.text.HAL_NAND_Write_SpareArea_8b,"ax",%progbits
 4177              		.align	1
 4178              		.p2align 2,,3
 4179              		.global	HAL_NAND_Write_SpareArea_8b
 4180              		.syntax unified
 4181              		.thumb
 4182              		.thumb_func
 4183              		.fpu fpv5-d16
 4185              	HAL_NAND_Write_SpareArea_8b:
 4186              	.LVL199:
 4187              	.LFB346:
1494:./Libraries/STM32H7xx_HAL_Driver/Src/stm32h7xx_hal_nand.c ****   uint32_t index;
 4188              		.loc 1 1494 1 is_stmt 1 view -0
 4189              		.cfi_startproc
 4190              		@ args = 0, pretend = 0, frame = 16
 4191              		@ frame_needed = 0, uses_anonymous_args = 0
1494:./Libraries/STM32H7xx_HAL_Driver/Src/stm32h7xx_hal_nand.c ****   uint32_t index;
 4192              		.loc 1 1494 1 is_stmt 0 view .LVU1416
 4193 0000 2DE9F04F 		push	{r4, r5, r6, r7, r8, r9, r10, fp, lr}
 4194              	.LCFI56:
 4195              		.cfi_def_cfa_offset 36
 4196              		.cfi_offset 4, -36
 4197              		.cfi_offset 5, -32
 4198              		.cfi_offset 6, -28
 4199              		.cfi_offset 7, -24
 4200              		.cfi_offset 8, -20
 4201              		.cfi_offset 9, -16
 4202              		.cfi_offset 10, -12
 4203              		.cfi_offset 11, -8
 4204              		.cfi_offset 14, -4
1505:./Libraries/STM32H7xx_HAL_Driver/Src/stm32h7xx_hal_nand.c ****   {
 4205              		.loc 1 1505 12 view .LVU1417
 4206 0004 90F82140 		ldrb	r4, [r0, #33]	@ zero_extendqisi2
1494:./Libraries/STM32H7xx_HAL_Driver/Src/stm32h7xx_hal_nand.c ****   uint32_t index;
 4207              		.loc 1 1494 1 view .LVU1418
 4208 0008 8246     		mov	r10, r0
1495:./Libraries/STM32H7xx_HAL_Driver/Src/stm32h7xx_hal_nand.c ****   uint32_t tickstart;
 4209              		.loc 1 1495 3 is_stmt 1 view .LVU1419
1496:./Libraries/STM32H7xx_HAL_Driver/Src/stm32h7xx_hal_nand.c ****   uint32_t deviceaddress;
 4210              		.loc 1 1496 3 view .LVU1420
ARM GAS  /tmp/cc5RRSLv.s 			page 151


1497:./Libraries/STM32H7xx_HAL_Driver/Src/stm32h7xx_hal_nand.c ****   uint32_t numspareareawritten = 0U;
 4211              		.loc 1 1497 3 view .LVU1421
1498:./Libraries/STM32H7xx_HAL_Driver/Src/stm32h7xx_hal_nand.c ****   uint32_t nandaddress;
 4212              		.loc 1 1498 3 view .LVU1422
 4213              	.LVL200:
1499:./Libraries/STM32H7xx_HAL_Driver/Src/stm32h7xx_hal_nand.c ****   uint32_t columnaddress;
 4214              		.loc 1 1499 3 view .LVU1423
1500:./Libraries/STM32H7xx_HAL_Driver/Src/stm32h7xx_hal_nand.c ****   uint32_t nbspare = NumSpareAreaTowrite;
 4215              		.loc 1 1500 3 view .LVU1424
1501:./Libraries/STM32H7xx_HAL_Driver/Src/stm32h7xx_hal_nand.c ****   uint8_t *buff = pBuffer;
 4216              		.loc 1 1501 3 view .LVU1425
1502:./Libraries/STM32H7xx_HAL_Driver/Src/stm32h7xx_hal_nand.c **** 
 4217              		.loc 1 1502 3 view .LVU1426
1505:./Libraries/STM32H7xx_HAL_Driver/Src/stm32h7xx_hal_nand.c ****   {
 4218              		.loc 1 1505 3 view .LVU1427
1494:./Libraries/STM32H7xx_HAL_Driver/Src/stm32h7xx_hal_nand.c ****   uint32_t index;
 4219              		.loc 1 1494 1 is_stmt 0 view .LVU1428
 4220 000a 85B0     		sub	sp, sp, #20
 4221              	.LCFI57:
 4222              		.cfi_def_cfa_offset 56
1505:./Libraries/STM32H7xx_HAL_Driver/Src/stm32h7xx_hal_nand.c ****   {
 4223              		.loc 1 1505 6 view .LVU1429
 4224 000c 022C     		cmp	r4, #2
1505:./Libraries/STM32H7xx_HAL_Driver/Src/stm32h7xx_hal_nand.c ****   {
 4225              		.loc 1 1505 12 view .LVU1430
 4226 000e E0B2     		uxtb	r0, r4
 4227              	.LVL201:
1505:./Libraries/STM32H7xx_HAL_Driver/Src/stm32h7xx_hal_nand.c ****   {
 4228              		.loc 1 1505 6 view .LVU1431
 4229 0010 00F08680 		beq	.L287
1509:./Libraries/STM32H7xx_HAL_Driver/Src/stm32h7xx_hal_nand.c ****   {
 4230              		.loc 1 1509 8 is_stmt 1 view .LVU1432
1509:./Libraries/STM32H7xx_HAL_Driver/Src/stm32h7xx_hal_nand.c ****   {
 4231              		.loc 1 1509 17 is_stmt 0 view .LVU1433
 4232 0014 9AF82100 		ldrb	r0, [r10, #33]	@ zero_extendqisi2
1509:./Libraries/STM32H7xx_HAL_Driver/Src/stm32h7xx_hal_nand.c ****   {
 4233              		.loc 1 1509 11 view .LVU1434
 4234 0018 0128     		cmp	r0, #1
1509:./Libraries/STM32H7xx_HAL_Driver/Src/stm32h7xx_hal_nand.c ****   {
 4235              		.loc 1 1509 17 view .LVU1435
 4236 001a C4B2     		uxtb	r4, r0
1509:./Libraries/STM32H7xx_HAL_Driver/Src/stm32h7xx_hal_nand.c ****   {
 4237              		.loc 1 1509 11 view .LVU1436
 4238 001c 40F08380 		bne	.L300
1512:./Libraries/STM32H7xx_HAL_Driver/Src/stm32h7xx_hal_nand.c **** 
 4239              		.loc 1 1512 5 is_stmt 1 view .LVU1437
1512:./Libraries/STM32H7xx_HAL_Driver/Src/stm32h7xx_hal_nand.c **** 
 4240              		.loc 1 1512 5 view .LVU1438
 4241 0020 9AF82000 		ldrb	r0, [r10, #32]	@ zero_extendqisi2
 4242 0024 0128     		cmp	r0, #1
 4243 0026 00F0C680 		beq	.L301
1512:./Libraries/STM32H7xx_HAL_Driver/Src/stm32h7xx_hal_nand.c **** 
 4244              		.loc 1 1512 5 discriminator 2 view .LVU1439
1515:./Libraries/STM32H7xx_HAL_Driver/Src/stm32h7xx_hal_nand.c **** 
 4245              		.loc 1 1515 18 is_stmt 0 discriminator 2 view .LVU1440
 4246 002a 0220     		movs	r0, #2
1512:./Libraries/STM32H7xx_HAL_Driver/Src/stm32h7xx_hal_nand.c **** 
ARM GAS  /tmp/cc5RRSLv.s 			page 152


 4247              		.loc 1 1512 5 discriminator 2 view .LVU1441
 4248 002c 8AF82040 		strb	r4, [r10, #32]
1512:./Libraries/STM32H7xx_HAL_Driver/Src/stm32h7xx_hal_nand.c **** 
 4249              		.loc 1 1512 5 is_stmt 1 discriminator 2 view .LVU1442
1515:./Libraries/STM32H7xx_HAL_Driver/Src/stm32h7xx_hal_nand.c **** 
 4250              		.loc 1 1515 5 discriminator 2 view .LVU1443
1521:./Libraries/STM32H7xx_HAL_Driver/Src/stm32h7xx_hal_nand.c **** 
 4251              		.loc 1 1521 19 is_stmt 0 discriminator 2 view .LVU1444
 4252 0030 DAF83860 		ldr	r6, [r10, #56]
 4253 0034 9346     		mov	fp, r2
1515:./Libraries/STM32H7xx_HAL_Driver/Src/stm32h7xx_hal_nand.c **** 
 4254              		.loc 1 1515 18 discriminator 2 view .LVU1445
 4255 0036 8AF82100 		strb	r0, [r10, #33]
1518:./Libraries/STM32H7xx_HAL_Driver/Src/stm32h7xx_hal_nand.c **** 
 4256              		.loc 1 1518 5 is_stmt 1 discriminator 2 view .LVU1446
 4257              	.LVL202:
1521:./Libraries/STM32H7xx_HAL_Driver/Src/stm32h7xx_hal_nand.c **** 
 4258              		.loc 1 1521 5 discriminator 2 view .LVU1447
1521:./Libraries/STM32H7xx_HAL_Driver/Src/stm32h7xx_hal_nand.c **** 
 4259              		.loc 1 1521 19 is_stmt 0 discriminator 2 view .LVU1448
 4260 003a 8888     		ldrh	r0, [r1, #4]
 4261 003c 4C88     		ldrh	r4, [r1, #2]
 4262 003e 0D88     		ldrh	r5, [r1]
 4263 0040 06FB0404 		mla	r4, r6, r4, r0
1524:./Libraries/STM32H7xx_HAL_Driver/Src/stm32h7xx_hal_nand.c **** 
 4264              		.loc 1 1524 19 discriminator 2 view .LVU1449
 4265 0044 DAF82420 		ldr	r2, [r10, #36]
 4266              	.LVL203:
1521:./Libraries/STM32H7xx_HAL_Driver/Src/stm32h7xx_hal_nand.c **** 
 4267              		.loc 1 1521 19 discriminator 2 view .LVU1450
 4268 0048 DAF82C00 		ldr	r0, [r10, #44]
1524:./Libraries/STM32H7xx_HAL_Driver/Src/stm32h7xx_hal_nand.c **** 
 4269              		.loc 1 1524 19 discriminator 2 view .LVU1451
 4270 004c 0292     		str	r2, [sp, #8]
1521:./Libraries/STM32H7xx_HAL_Driver/Src/stm32h7xx_hal_nand.c **** 
 4271              		.loc 1 1521 17 discriminator 2 view .LVU1452
 4272 004e 00FB0454 		mla	r4, r0, r4, r5
 4273              	.LVL204:
1524:./Libraries/STM32H7xx_HAL_Driver/Src/stm32h7xx_hal_nand.c **** 
 4274              		.loc 1 1524 5 is_stmt 1 discriminator 2 view .LVU1453
1527:./Libraries/STM32H7xx_HAL_Driver/Src/stm32h7xx_hal_nand.c ****     {
 4275              		.loc 1 1527 5 discriminator 2 view .LVU1454
1527:./Libraries/STM32H7xx_HAL_Driver/Src/stm32h7xx_hal_nand.c ****     {
 4276              		.loc 1 1527 11 discriminator 2 view .LVU1455
 4277 0052 002B     		cmp	r3, #0
 4278 0054 00F0A580 		beq	.L298
 4279 0058 2344     		add	r3, r3, r4
 4280              	.LVL205:
1562:./Libraries/STM32H7xx_HAL_Driver/Src/stm32h7xx_hal_nand.c ****         __DSB();
 4281              		.loc 1 1562 65 is_stmt 0 view .LVU1456
 4282 005a 584D     		ldr	r5, .L316
1580:./Libraries/STM32H7xx_HAL_Driver/Src/stm32h7xx_hal_nand.c ****           __DSB();
 4283              		.loc 1 1580 68 view .LVU1457
 4284 005c DFF86091 		ldr	r9, .L316+4
 4285 0060 0193     		str	r3, [sp, #4]
1582:./Libraries/STM32H7xx_HAL_Driver/Src/stm32h7xx_hal_nand.c ****           __DSB();
 4286              		.loc 1 1582 70 view .LVU1458
ARM GAS  /tmp/cc5RRSLv.s 			page 153


 4287 0062 029B     		ldr	r3, [sp, #8]
 4288 0064 C3F30723 		ubfx	r3, r3, #8, #8
 4289 0068 0393     		str	r3, [sp, #12]
 4290              	.LVL206:
 4291              	.L289:
1527:./Libraries/STM32H7xx_HAL_Driver/Src/stm32h7xx_hal_nand.c ****     {
 4292              		.loc 1 1527 73 discriminator 1 view .LVU1459
 4293 006a DAF83030 		ldr	r3, [r10, #48]
 4294 006e 03FB00F3 		mul	r3, r3, r0
1527:./Libraries/STM32H7xx_HAL_Driver/Src/stm32h7xx_hal_nand.c ****     {
 4295              		.loc 1 1527 28 discriminator 1 view .LVU1460
 4296 0072 A342     		cmp	r3, r4
 4297 0074 40F29580 		bls	.L298
1530:./Libraries/STM32H7xx_HAL_Driver/Src/stm32h7xx_hal_nand.c ****       {
 4298              		.loc 1 1530 7 is_stmt 1 view .LVU1461
1530:./Libraries/STM32H7xx_HAL_Driver/Src/stm32h7xx_hal_nand.c ****       {
 4299              		.loc 1 1530 10 is_stmt 0 view .LVU1462
 4300 0078 DAF82430 		ldr	r3, [r10, #36]
 4301 007c B3F5007F 		cmp	r3, #512
 4302 0080 75D8     		bhi	.L290
1533:./Libraries/STM32H7xx_HAL_Driver/Src/stm32h7xx_hal_nand.c ****         __DSB();
 4303              		.loc 1 1533 9 is_stmt 1 view .LVU1463
1533:./Libraries/STM32H7xx_HAL_Driver/Src/stm32h7xx_hal_nand.c ****         __DSB();
 4304              		.loc 1 1533 65 is_stmt 0 view .LVU1464
 4305 0082 5023     		movs	r3, #80
 4306 0084 2B70     		strb	r3, [r5]
1534:./Libraries/STM32H7xx_HAL_Driver/Src/stm32h7xx_hal_nand.c ****         *(__IO uint8_t *)((uint32_t)(deviceaddress | CMD_AREA)) = NAND_CMD_WRITE0;
 4307              		.loc 1 1534 9 is_stmt 1 view .LVU1465
 4308              	.LBB864:
 4309              	.LBI864:
 944:./Libraries/CMSIS/Core/Include/cmsis_gcc.h **** {
 4310              		.loc 2 944 27 view .LVU1466
 4311              	.LBB865:
 946:./Libraries/CMSIS/Core/Include/cmsis_gcc.h **** }
 4312              		.loc 2 946 3 view .LVU1467
 4313              		.syntax unified
 4314              	@ 946 "./Libraries/CMSIS/Core/Include/cmsis_gcc.h" 1
 4315 0086 BFF34F8F 		dsb 0xF
 4316              	@ 0 "" 2
 4317              		.thumb
 4318              		.syntax unified
 4319              	.LBE865:
 4320              	.LBE864:
1535:./Libraries/STM32H7xx_HAL_Driver/Src/stm32h7xx_hal_nand.c ****         __DSB();
 4321              		.loc 1 1535 9 view .LVU1468
1535:./Libraries/STM32H7xx_HAL_Driver/Src/stm32h7xx_hal_nand.c ****         __DSB();
 4322              		.loc 1 1535 65 is_stmt 0 view .LVU1469
 4323 008a 8023     		movs	r3, #128
 4324 008c 2B70     		strb	r3, [r5]
1536:./Libraries/STM32H7xx_HAL_Driver/Src/stm32h7xx_hal_nand.c **** 
 4325              		.loc 1 1536 9 is_stmt 1 view .LVU1470
 4326              	.LBB866:
 4327              	.LBI866:
 944:./Libraries/CMSIS/Core/Include/cmsis_gcc.h **** {
 4328              		.loc 2 944 27 view .LVU1471
 4329              	.LBB867:
 946:./Libraries/CMSIS/Core/Include/cmsis_gcc.h **** }
ARM GAS  /tmp/cc5RRSLv.s 			page 154


 4330              		.loc 2 946 3 view .LVU1472
 4331              		.syntax unified
 4332              	@ 946 "./Libraries/CMSIS/Core/Include/cmsis_gcc.h" 1
 4333 008e BFF34F8F 		dsb 0xF
 4334              	@ 0 "" 2
 4335              		.thumb
 4336              		.syntax unified
 4337              	.LBE867:
 4338              	.LBE866:
1538:./Libraries/STM32H7xx_HAL_Driver/Src/stm32h7xx_hal_nand.c ****         {
 4339              		.loc 1 1538 9 view .LVU1473
1538:./Libraries/STM32H7xx_HAL_Driver/Src/stm32h7xx_hal_nand.c ****         {
 4340              		.loc 1 1538 40 is_stmt 0 view .LVU1474
 4341 0092 DAE90B03 		ldrd	r0, r3, [r10, #44]
 4342 0096 03FB00F3 		mul	r3, r3, r0
1538:./Libraries/STM32H7xx_HAL_Driver/Src/stm32h7xx_hal_nand.c ****         {
 4343              		.loc 1 1538 12 view .LVU1475
 4344 009a B3F5803F 		cmp	r3, #65536
1540:./Libraries/STM32H7xx_HAL_Driver/Src/stm32h7xx_hal_nand.c ****           __DSB();
 4345              		.loc 1 1540 68 view .LVU1476
 4346 009e 4FF00003 		mov	r3, #0
 4347 00a2 89F80030 		strb	r3, [r9]
1538:./Libraries/STM32H7xx_HAL_Driver/Src/stm32h7xx_hal_nand.c ****         {
 4348              		.loc 1 1538 12 view .LVU1477
 4349 00a6 4ED2     		bcs	.L314
 4350              	.L313:
1572:./Libraries/STM32H7xx_HAL_Driver/Src/stm32h7xx_hal_nand.c ****           *(__IO uint8_t *)((uint32_t)(deviceaddress | ADDR_AREA)) = ADDR_1ST_CYCLE(nandaddress);
 4351              		.loc 1 1572 11 is_stmt 1 view .LVU1478
 4352              	.LBB868:
 4353              	.LBI868:
 944:./Libraries/CMSIS/Core/Include/cmsis_gcc.h **** {
 4354              		.loc 2 944 27 view .LVU1479
 4355              	.LBB869:
 946:./Libraries/CMSIS/Core/Include/cmsis_gcc.h **** }
 4356              		.loc 2 946 3 view .LVU1480
 4357              		.syntax unified
 4358              	@ 946 "./Libraries/CMSIS/Core/Include/cmsis_gcc.h" 1
 4359 00a8 BFF34F8F 		dsb 0xF
 4360              	@ 0 "" 2
 4361              		.thumb
 4362              		.syntax unified
 4363              	.LBE869:
 4364              	.LBE868:
1573:./Libraries/STM32H7xx_HAL_Driver/Src/stm32h7xx_hal_nand.c ****           __DSB();
 4365              		.loc 1 1573 11 view .LVU1481
 4366 00ac E3B2     		uxtb	r3, r4
1573:./Libraries/STM32H7xx_HAL_Driver/Src/stm32h7xx_hal_nand.c ****           __DSB();
 4367              		.loc 1 1573 68 is_stmt 0 view .LVU1482
 4368 00ae 89F80030 		strb	r3, [r9]
1574:./Libraries/STM32H7xx_HAL_Driver/Src/stm32h7xx_hal_nand.c ****           *(__IO uint8_t *)((uint32_t)(deviceaddress | ADDR_AREA)) = ADDR_2ND_CYCLE(nandaddress);
 4369              		.loc 1 1574 11 is_stmt 1 view .LVU1483
 4370              	.LBB870:
 4371              	.LBI870:
 944:./Libraries/CMSIS/Core/Include/cmsis_gcc.h **** {
 4372              		.loc 2 944 27 view .LVU1484
 4373              	.LBB871:
 946:./Libraries/CMSIS/Core/Include/cmsis_gcc.h **** }
ARM GAS  /tmp/cc5RRSLv.s 			page 155


 4374              		.loc 2 946 3 view .LVU1485
 4375              		.syntax unified
 4376              	@ 946 "./Libraries/CMSIS/Core/Include/cmsis_gcc.h" 1
 4377 00b2 BFF34F8F 		dsb 0xF
 4378              	@ 0 "" 2
 4379              		.thumb
 4380              		.syntax unified
 4381              	.LBE871:
 4382              	.LBE870:
1575:./Libraries/STM32H7xx_HAL_Driver/Src/stm32h7xx_hal_nand.c ****           __DSB();
 4383              		.loc 1 1575 11 view .LVU1486
1575:./Libraries/STM32H7xx_HAL_Driver/Src/stm32h7xx_hal_nand.c ****           __DSB();
 4384              		.loc 1 1575 70 is_stmt 0 view .LVU1487
 4385 00b6 C4F30723 		ubfx	r3, r4, #8, #8
1575:./Libraries/STM32H7xx_HAL_Driver/Src/stm32h7xx_hal_nand.c ****           __DSB();
 4386              		.loc 1 1575 68 view .LVU1488
 4387 00ba 89F80030 		strb	r3, [r9]
1576:./Libraries/STM32H7xx_HAL_Driver/Src/stm32h7xx_hal_nand.c ****         }
 4388              		.loc 1 1576 11 is_stmt 1 view .LVU1489
 4389              	.LBB872:
 4390              	.LBI872:
 944:./Libraries/CMSIS/Core/Include/cmsis_gcc.h **** {
 4391              		.loc 2 944 27 view .LVU1490
 4392              	.LBB873:
 946:./Libraries/CMSIS/Core/Include/cmsis_gcc.h **** }
 4393              		.loc 2 946 3 view .LVU1491
 4394              		.syntax unified
 4395              	@ 946 "./Libraries/CMSIS/Core/Include/cmsis_gcc.h" 1
 4396 00be BFF34F8F 		dsb 0xF
 4397              	@ 0 "" 2
 4398              		.thumb
 4399              		.syntax unified
 4400              	.L292:
 4401              	.LVL207:
 946:./Libraries/CMSIS/Core/Include/cmsis_gcc.h **** }
 4402              		.loc 2 946 3 is_stmt 0 view .LVU1492
 4403              	.LBE873:
 4404              	.LBE872:
1594:./Libraries/STM32H7xx_HAL_Driver/Src/stm32h7xx_hal_nand.c ****       {
 4405              		.loc 1 1594 24 is_stmt 1 discriminator 1 view .LVU1493
1594:./Libraries/STM32H7xx_HAL_Driver/Src/stm32h7xx_hal_nand.c ****       {
 4406              		.loc 1 1594 7 is_stmt 0 discriminator 1 view .LVU1494
 4407 00c2 DAF82830 		ldr	r3, [r10, #40]
 4408 00c6 63B1     		cbz	r3, .L295
1594:./Libraries/STM32H7xx_HAL_Driver/Src/stm32h7xx_hal_nand.c ****       {
 4409              		.loc 1 1594 7 view .LVU1495
 4410 00c8 0023     		movs	r3, #0
1596:./Libraries/STM32H7xx_HAL_Driver/Src/stm32h7xx_hal_nand.c ****         buff++;
 4411              		.loc 1 1596 40 view .LVU1496
 4412 00ca 4FF00046 		mov	r6, #-2147483648
 4413              	.LVL208:
 4414              	.L294:
1596:./Libraries/STM32H7xx_HAL_Driver/Src/stm32h7xx_hal_nand.c ****         buff++;
 4415              		.loc 1 1596 9 is_stmt 1 discriminator 3 view .LVU1497
1596:./Libraries/STM32H7xx_HAL_Driver/Src/stm32h7xx_hal_nand.c ****         buff++;
 4416              		.loc 1 1596 42 is_stmt 0 discriminator 3 view .LVU1498
 4417 00ce 1BF8012B 		ldrb	r2, [fp], #1	@ zero_extendqisi2
ARM GAS  /tmp/cc5RRSLv.s 			page 156


 4418              	.LVL209:
1596:./Libraries/STM32H7xx_HAL_Driver/Src/stm32h7xx_hal_nand.c ****         buff++;
 4419              		.loc 1 1596 40 discriminator 3 view .LVU1499
 4420 00d2 3270     		strb	r2, [r6]
1597:./Libraries/STM32H7xx_HAL_Driver/Src/stm32h7xx_hal_nand.c ****         __DSB();
 4421              		.loc 1 1597 9 is_stmt 1 discriminator 3 view .LVU1500
 4422              	.LVL210:
1598:./Libraries/STM32H7xx_HAL_Driver/Src/stm32h7xx_hal_nand.c ****       }
 4423              		.loc 1 1598 9 discriminator 3 view .LVU1501
 4424              	.LBB874:
 4425              	.LBI874:
 944:./Libraries/CMSIS/Core/Include/cmsis_gcc.h **** {
 4426              		.loc 2 944 27 discriminator 3 view .LVU1502
 4427              	.LBB875:
 946:./Libraries/CMSIS/Core/Include/cmsis_gcc.h **** }
 4428              		.loc 2 946 3 discriminator 3 view .LVU1503
 4429              		.syntax unified
 4430              	@ 946 "./Libraries/CMSIS/Core/Include/cmsis_gcc.h" 1
 4431 00d4 BFF34F8F 		dsb 0xF
 4432              	@ 0 "" 2
 4433              		.thumb
 4434              		.syntax unified
 4435              	.LBE875:
 4436              	.LBE874:
1594:./Libraries/STM32H7xx_HAL_Driver/Src/stm32h7xx_hal_nand.c ****       {
 4437              		.loc 1 1594 61 discriminator 3 view .LVU1504
1594:./Libraries/STM32H7xx_HAL_Driver/Src/stm32h7xx_hal_nand.c ****       {
 4438              		.loc 1 1594 66 is_stmt 0 discriminator 3 view .LVU1505
 4439 00d8 0133     		adds	r3, r3, #1
 4440              	.LVL211:
1594:./Libraries/STM32H7xx_HAL_Driver/Src/stm32h7xx_hal_nand.c ****       {
 4441              		.loc 1 1594 24 is_stmt 1 discriminator 3 view .LVU1506
1594:./Libraries/STM32H7xx_HAL_Driver/Src/stm32h7xx_hal_nand.c ****       {
 4442              		.loc 1 1594 7 is_stmt 0 discriminator 3 view .LVU1507
 4443 00da DAF82820 		ldr	r2, [r10, #40]
 4444 00de 9A42     		cmp	r2, r3
 4445 00e0 F5D8     		bhi	.L294
 4446              	.LVL212:
 4447              	.L295:
1601:./Libraries/STM32H7xx_HAL_Driver/Src/stm32h7xx_hal_nand.c ****       __DSB();
 4448              		.loc 1 1601 7 is_stmt 1 view .LVU1508
1601:./Libraries/STM32H7xx_HAL_Driver/Src/stm32h7xx_hal_nand.c ****       __DSB();
 4449              		.loc 1 1601 63 is_stmt 0 view .LVU1509
 4450 00e2 1023     		movs	r3, #16
 4451 00e4 2B70     		strb	r3, [r5]
1602:./Libraries/STM32H7xx_HAL_Driver/Src/stm32h7xx_hal_nand.c **** 
 4452              		.loc 1 1602 7 is_stmt 1 view .LVU1510
 4453              	.LBB876:
 4454              	.LBI876:
 944:./Libraries/CMSIS/Core/Include/cmsis_gcc.h **** {
 4455              		.loc 2 944 27 view .LVU1511
 4456              	.LBB877:
 946:./Libraries/CMSIS/Core/Include/cmsis_gcc.h **** }
 4457              		.loc 2 946 3 view .LVU1512
 4458              		.syntax unified
 4459              	@ 946 "./Libraries/CMSIS/Core/Include/cmsis_gcc.h" 1
 4460 00e6 BFF34F8F 		dsb 0xF
ARM GAS  /tmp/cc5RRSLv.s 			page 157


 4461              	@ 0 "" 2
 4462              		.thumb
 4463              		.syntax unified
 4464              	.LBE877:
 4465              	.LBE876:
1605:./Libraries/STM32H7xx_HAL_Driver/Src/stm32h7xx_hal_nand.c **** 
 4466              		.loc 1 1605 7 view .LVU1513
1605:./Libraries/STM32H7xx_HAL_Driver/Src/stm32h7xx_hal_nand.c **** 
 4467              		.loc 1 1605 19 is_stmt 0 view .LVU1514
 4468 00ea FFF7FEFF 		bl	HAL_GetTick
 4469              	.LVL213:
 4470              	.LBB878:
 4471              	.LBB879:
2204:./Libraries/STM32H7xx_HAL_Driver/Src/stm32h7xx_hal_nand.c **** 
 4472              		.loc 1 2204 59 view .LVU1515
 4473 00ee 4FF07008 		mov	r8, #112
2207:./Libraries/STM32H7xx_HAL_Driver/Src/stm32h7xx_hal_nand.c **** 
 4474              		.loc 1 2207 10 view .LVU1516
 4475 00f2 4FF00047 		mov	r7, #-2147483648
 4476              	.LBE879:
 4477              	.LBE878:
1605:./Libraries/STM32H7xx_HAL_Driver/Src/stm32h7xx_hal_nand.c **** 
 4478              		.loc 1 1605 19 view .LVU1517
 4479 00f6 0646     		mov	r6, r0
 4480              	.LVL214:
1608:./Libraries/STM32H7xx_HAL_Driver/Src/stm32h7xx_hal_nand.c ****       {
 4481              		.loc 1 1608 7 is_stmt 1 view .LVU1518
 4482              	.L296:
1610:./Libraries/STM32H7xx_HAL_Driver/Src/stm32h7xx_hal_nand.c ****         {
 4483              		.loc 1 1610 9 view .LVU1519
1608:./Libraries/STM32H7xx_HAL_Driver/Src/stm32h7xx_hal_nand.c ****       {
 4484              		.loc 1 1608 13 view .LVU1520
 4485              	.LBB881:
 4486              	.LBI878:
2194:./Libraries/STM32H7xx_HAL_Driver/Src/stm32h7xx_hal_nand.c **** {
 4487              		.loc 1 2194 10 view .LVU1521
 4488              	.LBB880:
2196:./Libraries/STM32H7xx_HAL_Driver/Src/stm32h7xx_hal_nand.c ****   uint32_t deviceaddress;
 4489              		.loc 1 2196 3 view .LVU1522
2197:./Libraries/STM32H7xx_HAL_Driver/Src/stm32h7xx_hal_nand.c ****   UNUSED(hnand);
 4490              		.loc 1 2197 3 view .LVU1523
2198:./Libraries/STM32H7xx_HAL_Driver/Src/stm32h7xx_hal_nand.c **** 
 4491              		.loc 1 2198 3 view .LVU1524
2201:./Libraries/STM32H7xx_HAL_Driver/Src/stm32h7xx_hal_nand.c **** 
 4492              		.loc 1 2201 3 view .LVU1525
2204:./Libraries/STM32H7xx_HAL_Driver/Src/stm32h7xx_hal_nand.c **** 
 4493              		.loc 1 2204 3 view .LVU1526
 4494              		.loc 1 2214 8 view .LVU1527
2204:./Libraries/STM32H7xx_HAL_Driver/Src/stm32h7xx_hal_nand.c **** 
 4495              		.loc 1 2204 59 is_stmt 0 view .LVU1528
 4496 00f8 85F80080 		strb	r8, [r5]
2207:./Libraries/STM32H7xx_HAL_Driver/Src/stm32h7xx_hal_nand.c **** 
 4497              		.loc 1 2207 3 is_stmt 1 view .LVU1529
2207:./Libraries/STM32H7xx_HAL_Driver/Src/stm32h7xx_hal_nand.c **** 
 4498              		.loc 1 2207 10 is_stmt 0 view .LVU1530
 4499 00fc 3B78     		ldrb	r3, [r7]	@ zero_extendqisi2
2210:./Libraries/STM32H7xx_HAL_Driver/Src/stm32h7xx_hal_nand.c ****   {
ARM GAS  /tmp/cc5RRSLv.s 			page 158


 4500              		.loc 1 2210 6 view .LVU1531
 4501 00fe D907     		lsls	r1, r3, #31
2207:./Libraries/STM32H7xx_HAL_Driver/Src/stm32h7xx_hal_nand.c **** 
 4502              		.loc 1 2207 10 view .LVU1532
 4503 0100 DAB2     		uxtb	r2, r3
 4504              	.LVL215:
2210:./Libraries/STM32H7xx_HAL_Driver/Src/stm32h7xx_hal_nand.c ****   {
 4505              		.loc 1 2210 3 is_stmt 1 view .LVU1533
2210:./Libraries/STM32H7xx_HAL_Driver/Src/stm32h7xx_hal_nand.c ****   {
 4506              		.loc 1 2210 6 is_stmt 0 view .LVU1534
 4507 0102 01D4     		bmi	.L297
 4508              		.loc 1 2214 11 view .LVU1535
 4509 0104 5306     		lsls	r3, r2, #25
 4510 0106 12D4     		bmi	.L315
 4511              	.L297:
 4512              	.LBE880:
 4513              	.LBE881:
1610:./Libraries/STM32H7xx_HAL_Driver/Src/stm32h7xx_hal_nand.c ****         {
 4514              		.loc 1 1610 14 view .LVU1536
 4515 0108 FFF7FEFF 		bl	HAL_GetTick
 4516              	.LVL216:
1610:./Libraries/STM32H7xx_HAL_Driver/Src/stm32h7xx_hal_nand.c ****         {
 4517              		.loc 1 1610 28 view .LVU1537
 4518 010c 801B     		subs	r0, r0, r6
1610:./Libraries/STM32H7xx_HAL_Driver/Src/stm32h7xx_hal_nand.c ****         {
 4519              		.loc 1 1610 12 view .LVU1538
 4520 010e B0F1807F 		cmp	r0, #16777216
 4521 0112 F1D9     		bls	.L296
1613:./Libraries/STM32H7xx_HAL_Driver/Src/stm32h7xx_hal_nand.c **** 
 4522              		.loc 1 1613 11 is_stmt 1 view .LVU1539
1613:./Libraries/STM32H7xx_HAL_Driver/Src/stm32h7xx_hal_nand.c **** 
 4523              		.loc 1 1613 24 is_stmt 0 view .LVU1540
 4524 0114 0320     		movs	r0, #3
1616:./Libraries/STM32H7xx_HAL_Driver/Src/stm32h7xx_hal_nand.c **** 
 4525              		.loc 1 1616 11 view .LVU1541
 4526 0116 0023     		movs	r3, #0
1613:./Libraries/STM32H7xx_HAL_Driver/Src/stm32h7xx_hal_nand.c **** 
 4527              		.loc 1 1613 24 view .LVU1542
 4528 0118 8AF82100 		strb	r0, [r10, #33]
1616:./Libraries/STM32H7xx_HAL_Driver/Src/stm32h7xx_hal_nand.c **** 
 4529              		.loc 1 1616 11 is_stmt 1 view .LVU1543
1616:./Libraries/STM32H7xx_HAL_Driver/Src/stm32h7xx_hal_nand.c **** 
 4530              		.loc 1 1616 11 view .LVU1544
 4531 011c 8AF82030 		strb	r3, [r10, #32]
1616:./Libraries/STM32H7xx_HAL_Driver/Src/stm32h7xx_hal_nand.c **** 
 4532              		.loc 1 1616 11 view .LVU1545
1618:./Libraries/STM32H7xx_HAL_Driver/Src/stm32h7xx_hal_nand.c ****         }
 4533              		.loc 1 1618 11 view .LVU1546
 4534              	.LVL217:
 4535              	.L287:
1644:./Libraries/STM32H7xx_HAL_Driver/Src/stm32h7xx_hal_nand.c **** 
 4536              		.loc 1 1644 1 is_stmt 0 view .LVU1547
 4537 0120 05B0     		add	sp, sp, #20
 4538              	.LCFI58:
 4539              		.cfi_remember_state
 4540              		.cfi_def_cfa_offset 36
 4541              		@ sp needed
ARM GAS  /tmp/cc5RRSLv.s 			page 159


 4542 0122 BDE8F08F 		pop	{r4, r5, r6, r7, r8, r9, r10, fp, pc}
 4543              	.LVL218:
 4544              	.L300:
 4545              	.LCFI59:
 4546              		.cfi_restore_state
1640:./Libraries/STM32H7xx_HAL_Driver/Src/stm32h7xx_hal_nand.c ****   }
 4547              		.loc 1 1640 12 view .LVU1548
 4548 0126 0120     		movs	r0, #1
1644:./Libraries/STM32H7xx_HAL_Driver/Src/stm32h7xx_hal_nand.c **** 
 4549              		.loc 1 1644 1 view .LVU1549
 4550 0128 05B0     		add	sp, sp, #20
 4551              	.LCFI60:
 4552              		.cfi_remember_state
 4553              		.cfi_def_cfa_offset 36
 4554              		@ sp needed
 4555 012a BDE8F08F 		pop	{r4, r5, r6, r7, r8, r9, r10, fp, pc}
 4556              	.LVL219:
 4557              	.L315:
 4558              	.LCFI61:
 4559              		.cfi_restore_state
1623:./Libraries/STM32H7xx_HAL_Driver/Src/stm32h7xx_hal_nand.c **** 
 4560              		.loc 1 1623 7 is_stmt 1 view .LVU1550
1626:./Libraries/STM32H7xx_HAL_Driver/Src/stm32h7xx_hal_nand.c **** 
 4561              		.loc 1 1626 7 view .LVU1551
1629:./Libraries/STM32H7xx_HAL_Driver/Src/stm32h7xx_hal_nand.c ****     }
 4562              		.loc 1 1629 7 view .LVU1552
1629:./Libraries/STM32H7xx_HAL_Driver/Src/stm32h7xx_hal_nand.c ****     }
 4563              		.loc 1 1629 19 is_stmt 0 view .LVU1553
 4564 012e 0134     		adds	r4, r4, #1
 4565              	.LVL220:
1527:./Libraries/STM32H7xx_HAL_Driver/Src/stm32h7xx_hal_nand.c ****     {
 4566              		.loc 1 1527 11 is_stmt 1 view .LVU1554
 4567 0130 019B     		ldr	r3, [sp, #4]
 4568 0132 A342     		cmp	r3, r4
 4569 0134 35D0     		beq	.L298
 4570 0136 DAF82C00 		ldr	r0, [r10, #44]
 4571 013a 96E7     		b	.L289
 4572              	.LVL221:
 4573              	.L293:
1580:./Libraries/STM32H7xx_HAL_Driver/Src/stm32h7xx_hal_nand.c ****           __DSB();
 4574              		.loc 1 1580 11 view .LVU1555
1581:./Libraries/STM32H7xx_HAL_Driver/Src/stm32h7xx_hal_nand.c ****           *(__IO uint8_t *)((uint32_t)(deviceaddress | ADDR_AREA)) = COLUMN_2ND_CYCLE(columnaddress
 4575              		.loc 1 1581 11 view .LVU1556
 4576              	.LBB882:
 4577              	.LBI882:
 944:./Libraries/CMSIS/Core/Include/cmsis_gcc.h **** {
 4578              		.loc 2 944 27 view .LVU1557
 4579              	.LBB883:
 946:./Libraries/CMSIS/Core/Include/cmsis_gcc.h **** }
 4580              		.loc 2 946 3 view .LVU1558
 4581              		.syntax unified
 4582              	@ 946 "./Libraries/CMSIS/Core/Include/cmsis_gcc.h" 1
 4583 013c BFF34F8F 		dsb 0xF
 4584              	@ 0 "" 2
 4585              		.thumb
 4586              		.syntax unified
 4587              	.LBE883:
ARM GAS  /tmp/cc5RRSLv.s 			page 160


 4588              	.LBE882:
1582:./Libraries/STM32H7xx_HAL_Driver/Src/stm32h7xx_hal_nand.c ****           __DSB();
 4589              		.loc 1 1582 11 view .LVU1559
1582:./Libraries/STM32H7xx_HAL_Driver/Src/stm32h7xx_hal_nand.c ****           __DSB();
 4590              		.loc 1 1582 68 is_stmt 0 view .LVU1560
 4591 0140 039B     		ldr	r3, [sp, #12]
 4592 0142 89F80030 		strb	r3, [r9]
 4593              	.L314:
1583:./Libraries/STM32H7xx_HAL_Driver/Src/stm32h7xx_hal_nand.c ****           *(__IO uint8_t *)((uint32_t)(deviceaddress | ADDR_AREA)) = ADDR_1ST_CYCLE(nandaddress);
 4594              		.loc 1 1583 11 is_stmt 1 view .LVU1561
 4595              	.LBB884:
 4596              	.LBI884:
 944:./Libraries/CMSIS/Core/Include/cmsis_gcc.h **** {
 4597              		.loc 2 944 27 view .LVU1562
 4598              	.LBB885:
 946:./Libraries/CMSIS/Core/Include/cmsis_gcc.h **** }
 4599              		.loc 2 946 3 view .LVU1563
 4600              		.syntax unified
 4601              	@ 946 "./Libraries/CMSIS/Core/Include/cmsis_gcc.h" 1
 4602 0146 BFF34F8F 		dsb 0xF
 4603              	@ 0 "" 2
 4604              		.thumb
 4605              		.syntax unified
 4606              	.LBE885:
 4607              	.LBE884:
1584:./Libraries/STM32H7xx_HAL_Driver/Src/stm32h7xx_hal_nand.c ****           __DSB();
 4608              		.loc 1 1584 11 view .LVU1564
 4609 014a E3B2     		uxtb	r3, r4
1584:./Libraries/STM32H7xx_HAL_Driver/Src/stm32h7xx_hal_nand.c ****           __DSB();
 4610              		.loc 1 1584 68 is_stmt 0 view .LVU1565
 4611 014c 89F80030 		strb	r3, [r9]
1585:./Libraries/STM32H7xx_HAL_Driver/Src/stm32h7xx_hal_nand.c ****           *(__IO uint8_t *)((uint32_t)(deviceaddress | ADDR_AREA)) = ADDR_2ND_CYCLE(nandaddress);
 4612              		.loc 1 1585 11 is_stmt 1 view .LVU1566
 4613              	.LBB886:
 4614              	.LBI886:
 944:./Libraries/CMSIS/Core/Include/cmsis_gcc.h **** {
 4615              		.loc 2 944 27 view .LVU1567
 4616              	.LBB887:
 946:./Libraries/CMSIS/Core/Include/cmsis_gcc.h **** }
 4617              		.loc 2 946 3 view .LVU1568
 4618              		.syntax unified
 4619              	@ 946 "./Libraries/CMSIS/Core/Include/cmsis_gcc.h" 1
 4620 0150 BFF34F8F 		dsb 0xF
 4621              	@ 0 "" 2
 4622              		.thumb
 4623              		.syntax unified
 4624              	.LBE887:
 4625              	.LBE886:
1586:./Libraries/STM32H7xx_HAL_Driver/Src/stm32h7xx_hal_nand.c ****           __DSB();
 4626              		.loc 1 1586 11 view .LVU1569
1586:./Libraries/STM32H7xx_HAL_Driver/Src/stm32h7xx_hal_nand.c ****           __DSB();
 4627              		.loc 1 1586 70 is_stmt 0 view .LVU1570
 4628 0154 C4F30723 		ubfx	r3, r4, #8, #8
1586:./Libraries/STM32H7xx_HAL_Driver/Src/stm32h7xx_hal_nand.c ****           __DSB();
 4629              		.loc 1 1586 68 view .LVU1571
 4630 0158 89F80030 		strb	r3, [r9]
1587:./Libraries/STM32H7xx_HAL_Driver/Src/stm32h7xx_hal_nand.c ****           *(__IO uint8_t *)((uint32_t)(deviceaddress | ADDR_AREA)) = ADDR_3RD_CYCLE(nandaddress);
ARM GAS  /tmp/cc5RRSLv.s 			page 161


 4631              		.loc 1 1587 11 is_stmt 1 view .LVU1572
 4632              	.LBB888:
 4633              	.LBI888:
 944:./Libraries/CMSIS/Core/Include/cmsis_gcc.h **** {
 4634              		.loc 2 944 27 view .LVU1573
 4635              	.LBB889:
 946:./Libraries/CMSIS/Core/Include/cmsis_gcc.h **** }
 4636              		.loc 2 946 3 view .LVU1574
 4637              		.syntax unified
 4638              	@ 946 "./Libraries/CMSIS/Core/Include/cmsis_gcc.h" 1
 4639 015c BFF34F8F 		dsb 0xF
 4640              	@ 0 "" 2
 4641              		.thumb
 4642              		.syntax unified
 4643              	.LBE889:
 4644              	.LBE888:
1588:./Libraries/STM32H7xx_HAL_Driver/Src/stm32h7xx_hal_nand.c ****           __DSB();
 4645              		.loc 1 1588 11 view .LVU1575
1588:./Libraries/STM32H7xx_HAL_Driver/Src/stm32h7xx_hal_nand.c ****           __DSB();
 4646              		.loc 1 1588 70 is_stmt 0 view .LVU1576
 4647 0160 C4F30743 		ubfx	r3, r4, #16, #8
1588:./Libraries/STM32H7xx_HAL_Driver/Src/stm32h7xx_hal_nand.c ****           __DSB();
 4648              		.loc 1 1588 68 view .LVU1577
 4649 0164 89F80030 		strb	r3, [r9]
1589:./Libraries/STM32H7xx_HAL_Driver/Src/stm32h7xx_hal_nand.c ****         }
 4650              		.loc 1 1589 11 is_stmt 1 view .LVU1578
 4651              	.LBB890:
 4652              	.LBI890:
 944:./Libraries/CMSIS/Core/Include/cmsis_gcc.h **** {
 4653              		.loc 2 944 27 view .LVU1579
 4654              	.LBB891:
 946:./Libraries/CMSIS/Core/Include/cmsis_gcc.h **** }
 4655              		.loc 2 946 3 view .LVU1580
 4656              		.syntax unified
 4657              	@ 946 "./Libraries/CMSIS/Core/Include/cmsis_gcc.h" 1
 4658 0168 BFF34F8F 		dsb 0xF
 4659              	@ 0 "" 2
 4660              		.loc 2 947 1 is_stmt 0 view .LVU1581
 4661              		.thumb
 4662              		.syntax unified
 4663 016c A9E7     		b	.L292
 4664              	.L290:
 4665              		.loc 2 947 1 view .LVU1582
 4666              	.LBE891:
 4667              	.LBE890:
1562:./Libraries/STM32H7xx_HAL_Driver/Src/stm32h7xx_hal_nand.c ****         __DSB();
 4668              		.loc 1 1562 9 is_stmt 1 view .LVU1583
1562:./Libraries/STM32H7xx_HAL_Driver/Src/stm32h7xx_hal_nand.c ****         __DSB();
 4669              		.loc 1 1562 65 is_stmt 0 view .LVU1584
 4670 016e 4FF00003 		mov	r3, #0
 4671 0172 2B70     		strb	r3, [r5]
1563:./Libraries/STM32H7xx_HAL_Driver/Src/stm32h7xx_hal_nand.c ****         *(__IO uint8_t *)((uint32_t)(deviceaddress | CMD_AREA)) = NAND_CMD_WRITE0;
 4672              		.loc 1 1563 9 is_stmt 1 view .LVU1585
 4673              	.LBB892:
 4674              	.LBI892:
 944:./Libraries/CMSIS/Core/Include/cmsis_gcc.h **** {
 4675              		.loc 2 944 27 view .LVU1586
ARM GAS  /tmp/cc5RRSLv.s 			page 162


 4676              	.LBB893:
 946:./Libraries/CMSIS/Core/Include/cmsis_gcc.h **** }
 4677              		.loc 2 946 3 view .LVU1587
 4678              		.syntax unified
 4679              	@ 946 "./Libraries/CMSIS/Core/Include/cmsis_gcc.h" 1
 4680 0174 BFF34F8F 		dsb 0xF
 4681              	@ 0 "" 2
 4682              		.thumb
 4683              		.syntax unified
 4684              	.LBE893:
 4685              	.LBE892:
1564:./Libraries/STM32H7xx_HAL_Driver/Src/stm32h7xx_hal_nand.c ****         __DSB();
 4686              		.loc 1 1564 9 view .LVU1588
1564:./Libraries/STM32H7xx_HAL_Driver/Src/stm32h7xx_hal_nand.c ****         __DSB();
 4687              		.loc 1 1564 65 is_stmt 0 view .LVU1589
 4688 0178 8023     		movs	r3, #128
 4689 017a 2B70     		strb	r3, [r5]
1565:./Libraries/STM32H7xx_HAL_Driver/Src/stm32h7xx_hal_nand.c **** 
 4690              		.loc 1 1565 9 is_stmt 1 view .LVU1590
 4691              	.LBB894:
 4692              	.LBI894:
 944:./Libraries/CMSIS/Core/Include/cmsis_gcc.h **** {
 4693              		.loc 2 944 27 view .LVU1591
 4694              	.LBB895:
 946:./Libraries/CMSIS/Core/Include/cmsis_gcc.h **** }
 4695              		.loc 2 946 3 view .LVU1592
 4696              		.syntax unified
 4697              	@ 946 "./Libraries/CMSIS/Core/Include/cmsis_gcc.h" 1
 4698 017c BFF34F8F 		dsb 0xF
 4699              	@ 0 "" 2
 4700              		.thumb
 4701              		.syntax unified
 4702              	.LBE895:
 4703              	.LBE894:
1567:./Libraries/STM32H7xx_HAL_Driver/Src/stm32h7xx_hal_nand.c ****         {
 4704              		.loc 1 1567 9 view .LVU1593
1567:./Libraries/STM32H7xx_HAL_Driver/Src/stm32h7xx_hal_nand.c ****         {
 4705              		.loc 1 1567 40 is_stmt 0 view .LVU1594
 4706 0180 DAE90B03 		ldrd	r0, r3, [r10, #44]
 4707 0184 03FB00F3 		mul	r3, r3, r0
1567:./Libraries/STM32H7xx_HAL_Driver/Src/stm32h7xx_hal_nand.c ****         {
 4708              		.loc 1 1567 12 view .LVU1595
 4709 0188 B3F5803F 		cmp	r3, #65536
1569:./Libraries/STM32H7xx_HAL_Driver/Src/stm32h7xx_hal_nand.c ****           __DSB();
 4710              		.loc 1 1569 70 view .LVU1596
 4711 018c 9DF80830 		ldrb	r3, [sp, #8]	@ zero_extendqisi2
1569:./Libraries/STM32H7xx_HAL_Driver/Src/stm32h7xx_hal_nand.c ****           __DSB();
 4712              		.loc 1 1569 68 view .LVU1597
 4713 0190 89F80030 		strb	r3, [r9]
1567:./Libraries/STM32H7xx_HAL_Driver/Src/stm32h7xx_hal_nand.c ****         {
 4714              		.loc 1 1567 12 view .LVU1598
 4715 0194 D2D2     		bcs	.L293
1569:./Libraries/STM32H7xx_HAL_Driver/Src/stm32h7xx_hal_nand.c ****           __DSB();
 4716              		.loc 1 1569 11 is_stmt 1 view .LVU1599
1570:./Libraries/STM32H7xx_HAL_Driver/Src/stm32h7xx_hal_nand.c ****           *(__IO uint8_t *)((uint32_t)(deviceaddress | ADDR_AREA)) = COLUMN_2ND_CYCLE(columnaddress
 4717              		.loc 1 1570 11 view .LVU1600
 4718              	.LBB896:
ARM GAS  /tmp/cc5RRSLv.s 			page 163


 4719              	.LBI896:
 944:./Libraries/CMSIS/Core/Include/cmsis_gcc.h **** {
 4720              		.loc 2 944 27 view .LVU1601
 4721              	.LBB897:
 946:./Libraries/CMSIS/Core/Include/cmsis_gcc.h **** }
 4722              		.loc 2 946 3 view .LVU1602
 4723              		.syntax unified
 4724              	@ 946 "./Libraries/CMSIS/Core/Include/cmsis_gcc.h" 1
 4725 0196 BFF34F8F 		dsb 0xF
 4726              	@ 0 "" 2
 4727              		.thumb
 4728              		.syntax unified
 4729              	.LBE897:
 4730              	.LBE896:
1571:./Libraries/STM32H7xx_HAL_Driver/Src/stm32h7xx_hal_nand.c ****           __DSB();
 4731              		.loc 1 1571 11 view .LVU1603
1571:./Libraries/STM32H7xx_HAL_Driver/Src/stm32h7xx_hal_nand.c ****           __DSB();
 4732              		.loc 1 1571 68 is_stmt 0 view .LVU1604
 4733 019a 039B     		ldr	r3, [sp, #12]
 4734 019c 89F80030 		strb	r3, [r9]
 4735 01a0 82E7     		b	.L313
 4736              	.LVL222:
 4737              	.L298:
1633:./Libraries/STM32H7xx_HAL_Driver/Src/stm32h7xx_hal_nand.c **** 
 4738              		.loc 1 1633 5 is_stmt 1 view .LVU1605
1636:./Libraries/STM32H7xx_HAL_Driver/Src/stm32h7xx_hal_nand.c ****   }
 4739              		.loc 1 1636 5 is_stmt 0 view .LVU1606
 4740 01a2 0023     		movs	r3, #0
1633:./Libraries/STM32H7xx_HAL_Driver/Src/stm32h7xx_hal_nand.c **** 
 4741              		.loc 1 1633 18 view .LVU1607
 4742 01a4 0121     		movs	r1, #1
1643:./Libraries/STM32H7xx_HAL_Driver/Src/stm32h7xx_hal_nand.c **** }
 4743              		.loc 1 1643 10 view .LVU1608
 4744 01a6 1846     		mov	r0, r3
1633:./Libraries/STM32H7xx_HAL_Driver/Src/stm32h7xx_hal_nand.c **** 
 4745              		.loc 1 1633 18 view .LVU1609
 4746 01a8 8AF82110 		strb	r1, [r10, #33]
1636:./Libraries/STM32H7xx_HAL_Driver/Src/stm32h7xx_hal_nand.c ****   }
 4747              		.loc 1 1636 5 is_stmt 1 view .LVU1610
1636:./Libraries/STM32H7xx_HAL_Driver/Src/stm32h7xx_hal_nand.c ****   }
 4748              		.loc 1 1636 5 view .LVU1611
 4749 01ac 8AF82030 		strb	r3, [r10, #32]
1636:./Libraries/STM32H7xx_HAL_Driver/Src/stm32h7xx_hal_nand.c ****   }
 4750              		.loc 1 1636 5 view .LVU1612
1643:./Libraries/STM32H7xx_HAL_Driver/Src/stm32h7xx_hal_nand.c **** }
 4751              		.loc 1 1643 3 view .LVU1613
1644:./Libraries/STM32H7xx_HAL_Driver/Src/stm32h7xx_hal_nand.c **** 
 4752              		.loc 1 1644 1 is_stmt 0 view .LVU1614
 4753 01b0 05B0     		add	sp, sp, #20
 4754              	.LCFI62:
 4755              		.cfi_remember_state
 4756              		.cfi_def_cfa_offset 36
 4757              		@ sp needed
 4758 01b2 BDE8F08F 		pop	{r4, r5, r6, r7, r8, r9, r10, fp, pc}
 4759              	.LVL223:
 4760              	.L301:
 4761              	.LCFI63:
ARM GAS  /tmp/cc5RRSLv.s 			page 164


 4762              		.cfi_restore_state
1507:./Libraries/STM32H7xx_HAL_Driver/Src/stm32h7xx_hal_nand.c ****   }
 4763              		.loc 1 1507 12 view .LVU1615
 4764 01b6 0220     		movs	r0, #2
 4765 01b8 B2E7     		b	.L287
 4766              	.L317:
 4767 01ba 00BF     		.align	2
 4768              	.L316:
 4769 01bc 00000180 		.word	-2147418112
 4770 01c0 00000280 		.word	-2147352576
 4771              		.cfi_endproc
 4772              	.LFE346:
 4774              		.section	.text.HAL_NAND_Write_SpareArea_16b,"ax",%progbits
 4775              		.align	1
 4776              		.p2align 2,,3
 4777              		.global	HAL_NAND_Write_SpareArea_16b
 4778              		.syntax unified
 4779              		.thumb
 4780              		.thumb_func
 4781              		.fpu fpv5-d16
 4783              	HAL_NAND_Write_SpareArea_16b:
 4784              	.LVL224:
 4785              	.LFB347:
1657:./Libraries/STM32H7xx_HAL_Driver/Src/stm32h7xx_hal_nand.c ****   uint32_t index;
 4786              		.loc 1 1657 1 is_stmt 1 view -0
 4787              		.cfi_startproc
 4788              		@ args = 0, pretend = 0, frame = 16
 4789              		@ frame_needed = 0, uses_anonymous_args = 0
1657:./Libraries/STM32H7xx_HAL_Driver/Src/stm32h7xx_hal_nand.c ****   uint32_t index;
 4790              		.loc 1 1657 1 is_stmt 0 view .LVU1617
 4791 0000 2DE9F04F 		push	{r4, r5, r6, r7, r8, r9, r10, fp, lr}
 4792              	.LCFI64:
 4793              		.cfi_def_cfa_offset 36
 4794              		.cfi_offset 4, -36
 4795              		.cfi_offset 5, -32
 4796              		.cfi_offset 6, -28
 4797              		.cfi_offset 7, -24
 4798              		.cfi_offset 8, -20
 4799              		.cfi_offset 9, -16
 4800              		.cfi_offset 10, -12
 4801              		.cfi_offset 11, -8
 4802              		.cfi_offset 14, -4
1668:./Libraries/STM32H7xx_HAL_Driver/Src/stm32h7xx_hal_nand.c ****   {
 4803              		.loc 1 1668 12 view .LVU1618
 4804 0004 90F82140 		ldrb	r4, [r0, #33]	@ zero_extendqisi2
1657:./Libraries/STM32H7xx_HAL_Driver/Src/stm32h7xx_hal_nand.c ****   uint32_t index;
 4805              		.loc 1 1657 1 view .LVU1619
 4806 0008 8246     		mov	r10, r0
1658:./Libraries/STM32H7xx_HAL_Driver/Src/stm32h7xx_hal_nand.c ****   uint32_t tickstart;
 4807              		.loc 1 1658 3 is_stmt 1 view .LVU1620
1659:./Libraries/STM32H7xx_HAL_Driver/Src/stm32h7xx_hal_nand.c ****   uint32_t deviceaddress;
 4808              		.loc 1 1659 3 view .LVU1621
1660:./Libraries/STM32H7xx_HAL_Driver/Src/stm32h7xx_hal_nand.c ****   uint32_t numspareareawritten = 0U;
 4809              		.loc 1 1660 3 view .LVU1622
1661:./Libraries/STM32H7xx_HAL_Driver/Src/stm32h7xx_hal_nand.c ****   uint32_t nandaddress;
 4810              		.loc 1 1661 3 view .LVU1623
 4811              	.LVL225:
ARM GAS  /tmp/cc5RRSLv.s 			page 165


1662:./Libraries/STM32H7xx_HAL_Driver/Src/stm32h7xx_hal_nand.c ****   uint32_t columnaddress;
 4812              		.loc 1 1662 3 view .LVU1624
1663:./Libraries/STM32H7xx_HAL_Driver/Src/stm32h7xx_hal_nand.c ****   uint32_t nbspare = NumSpareAreaTowrite;
 4813              		.loc 1 1663 3 view .LVU1625
1664:./Libraries/STM32H7xx_HAL_Driver/Src/stm32h7xx_hal_nand.c ****   uint16_t *buff = pBuffer;
 4814              		.loc 1 1664 3 view .LVU1626
1665:./Libraries/STM32H7xx_HAL_Driver/Src/stm32h7xx_hal_nand.c **** 
 4815              		.loc 1 1665 3 view .LVU1627
1668:./Libraries/STM32H7xx_HAL_Driver/Src/stm32h7xx_hal_nand.c ****   {
 4816              		.loc 1 1668 3 view .LVU1628
1657:./Libraries/STM32H7xx_HAL_Driver/Src/stm32h7xx_hal_nand.c ****   uint32_t index;
 4817              		.loc 1 1657 1 is_stmt 0 view .LVU1629
 4818 000a 85B0     		sub	sp, sp, #20
 4819              	.LCFI65:
 4820              		.cfi_def_cfa_offset 56
1668:./Libraries/STM32H7xx_HAL_Driver/Src/stm32h7xx_hal_nand.c ****   {
 4821              		.loc 1 1668 6 view .LVU1630
 4822 000c 022C     		cmp	r4, #2
1668:./Libraries/STM32H7xx_HAL_Driver/Src/stm32h7xx_hal_nand.c ****   {
 4823              		.loc 1 1668 12 view .LVU1631
 4824 000e E0B2     		uxtb	r0, r4
 4825              	.LVL226:
1668:./Libraries/STM32H7xx_HAL_Driver/Src/stm32h7xx_hal_nand.c ****   {
 4826              		.loc 1 1668 6 view .LVU1632
 4827 0010 00F08680 		beq	.L319
1672:./Libraries/STM32H7xx_HAL_Driver/Src/stm32h7xx_hal_nand.c ****   {
 4828              		.loc 1 1672 8 is_stmt 1 view .LVU1633
1672:./Libraries/STM32H7xx_HAL_Driver/Src/stm32h7xx_hal_nand.c ****   {
 4829              		.loc 1 1672 17 is_stmt 0 view .LVU1634
 4830 0014 9AF82100 		ldrb	r0, [r10, #33]	@ zero_extendqisi2
1672:./Libraries/STM32H7xx_HAL_Driver/Src/stm32h7xx_hal_nand.c ****   {
 4831              		.loc 1 1672 11 view .LVU1635
 4832 0018 0128     		cmp	r0, #1
1672:./Libraries/STM32H7xx_HAL_Driver/Src/stm32h7xx_hal_nand.c ****   {
 4833              		.loc 1 1672 17 view .LVU1636
 4834 001a C4B2     		uxtb	r4, r0
1672:./Libraries/STM32H7xx_HAL_Driver/Src/stm32h7xx_hal_nand.c ****   {
 4835              		.loc 1 1672 11 view .LVU1637
 4836 001c 40F08380 		bne	.L332
1675:./Libraries/STM32H7xx_HAL_Driver/Src/stm32h7xx_hal_nand.c **** 
 4837              		.loc 1 1675 5 is_stmt 1 view .LVU1638
1675:./Libraries/STM32H7xx_HAL_Driver/Src/stm32h7xx_hal_nand.c **** 
 4838              		.loc 1 1675 5 view .LVU1639
 4839 0020 9AF82000 		ldrb	r0, [r10, #32]	@ zero_extendqisi2
 4840 0024 0128     		cmp	r0, #1
 4841 0026 00F0C680 		beq	.L333
1675:./Libraries/STM32H7xx_HAL_Driver/Src/stm32h7xx_hal_nand.c **** 
 4842              		.loc 1 1675 5 discriminator 2 view .LVU1640
1678:./Libraries/STM32H7xx_HAL_Driver/Src/stm32h7xx_hal_nand.c **** 
 4843              		.loc 1 1678 18 is_stmt 0 discriminator 2 view .LVU1641
 4844 002a 0220     		movs	r0, #2
1675:./Libraries/STM32H7xx_HAL_Driver/Src/stm32h7xx_hal_nand.c **** 
 4845              		.loc 1 1675 5 discriminator 2 view .LVU1642
 4846 002c 8AF82040 		strb	r4, [r10, #32]
1675:./Libraries/STM32H7xx_HAL_Driver/Src/stm32h7xx_hal_nand.c **** 
 4847              		.loc 1 1675 5 is_stmt 1 discriminator 2 view .LVU1643
1678:./Libraries/STM32H7xx_HAL_Driver/Src/stm32h7xx_hal_nand.c **** 
ARM GAS  /tmp/cc5RRSLv.s 			page 166


 4848              		.loc 1 1678 5 discriminator 2 view .LVU1644
1684:./Libraries/STM32H7xx_HAL_Driver/Src/stm32h7xx_hal_nand.c **** 
 4849              		.loc 1 1684 19 is_stmt 0 discriminator 2 view .LVU1645
 4850 0030 DAF83860 		ldr	r6, [r10, #56]
 4851 0034 9346     		mov	fp, r2
1678:./Libraries/STM32H7xx_HAL_Driver/Src/stm32h7xx_hal_nand.c **** 
 4852              		.loc 1 1678 18 discriminator 2 view .LVU1646
 4853 0036 8AF82100 		strb	r0, [r10, #33]
1681:./Libraries/STM32H7xx_HAL_Driver/Src/stm32h7xx_hal_nand.c **** 
 4854              		.loc 1 1681 5 is_stmt 1 discriminator 2 view .LVU1647
 4855              	.LVL227:
1684:./Libraries/STM32H7xx_HAL_Driver/Src/stm32h7xx_hal_nand.c **** 
 4856              		.loc 1 1684 5 discriminator 2 view .LVU1648
1684:./Libraries/STM32H7xx_HAL_Driver/Src/stm32h7xx_hal_nand.c **** 
 4857              		.loc 1 1684 19 is_stmt 0 discriminator 2 view .LVU1649
 4858 003a 8888     		ldrh	r0, [r1, #4]
 4859 003c 4C88     		ldrh	r4, [r1, #2]
 4860 003e 0D88     		ldrh	r5, [r1]
 4861 0040 06FB0404 		mla	r4, r6, r4, r0
1687:./Libraries/STM32H7xx_HAL_Driver/Src/stm32h7xx_hal_nand.c **** 
 4862              		.loc 1 1687 19 discriminator 2 view .LVU1650
 4863 0044 DAF82420 		ldr	r2, [r10, #36]
 4864              	.LVL228:
1684:./Libraries/STM32H7xx_HAL_Driver/Src/stm32h7xx_hal_nand.c **** 
 4865              		.loc 1 1684 19 discriminator 2 view .LVU1651
 4866 0048 DAF82C00 		ldr	r0, [r10, #44]
1687:./Libraries/STM32H7xx_HAL_Driver/Src/stm32h7xx_hal_nand.c **** 
 4867              		.loc 1 1687 19 discriminator 2 view .LVU1652
 4868 004c 0292     		str	r2, [sp, #8]
1684:./Libraries/STM32H7xx_HAL_Driver/Src/stm32h7xx_hal_nand.c **** 
 4869              		.loc 1 1684 17 discriminator 2 view .LVU1653
 4870 004e 00FB0454 		mla	r4, r0, r4, r5
 4871              	.LVL229:
1687:./Libraries/STM32H7xx_HAL_Driver/Src/stm32h7xx_hal_nand.c **** 
 4872              		.loc 1 1687 5 is_stmt 1 discriminator 2 view .LVU1654
1690:./Libraries/STM32H7xx_HAL_Driver/Src/stm32h7xx_hal_nand.c ****     {
 4873              		.loc 1 1690 5 discriminator 2 view .LVU1655
1690:./Libraries/STM32H7xx_HAL_Driver/Src/stm32h7xx_hal_nand.c ****     {
 4874              		.loc 1 1690 11 discriminator 2 view .LVU1656
 4875 0052 002B     		cmp	r3, #0
 4876 0054 00F0A580 		beq	.L330
 4877 0058 2344     		add	r3, r3, r4
 4878              	.LVL230:
1725:./Libraries/STM32H7xx_HAL_Driver/Src/stm32h7xx_hal_nand.c ****         __DSB();
 4879              		.loc 1 1725 65 is_stmt 0 view .LVU1657
 4880 005a 584D     		ldr	r5, .L348
1743:./Libraries/STM32H7xx_HAL_Driver/Src/stm32h7xx_hal_nand.c ****           __DSB();
 4881              		.loc 1 1743 68 view .LVU1658
 4882 005c DFF86091 		ldr	r9, .L348+4
 4883 0060 0193     		str	r3, [sp, #4]
1745:./Libraries/STM32H7xx_HAL_Driver/Src/stm32h7xx_hal_nand.c ****           __DSB();
 4884              		.loc 1 1745 70 view .LVU1659
 4885 0062 029B     		ldr	r3, [sp, #8]
 4886 0064 C3F30723 		ubfx	r3, r3, #8, #8
 4887 0068 0393     		str	r3, [sp, #12]
 4888              	.LVL231:
 4889              	.L321:
ARM GAS  /tmp/cc5RRSLv.s 			page 167


1690:./Libraries/STM32H7xx_HAL_Driver/Src/stm32h7xx_hal_nand.c ****     {
 4890              		.loc 1 1690 73 discriminator 1 view .LVU1660
 4891 006a DAF83030 		ldr	r3, [r10, #48]
 4892 006e 03FB00F3 		mul	r3, r3, r0
1690:./Libraries/STM32H7xx_HAL_Driver/Src/stm32h7xx_hal_nand.c ****     {
 4893              		.loc 1 1690 28 discriminator 1 view .LVU1661
 4894 0072 A342     		cmp	r3, r4
 4895 0074 40F29580 		bls	.L330
1693:./Libraries/STM32H7xx_HAL_Driver/Src/stm32h7xx_hal_nand.c ****       {
 4896              		.loc 1 1693 7 is_stmt 1 view .LVU1662
1693:./Libraries/STM32H7xx_HAL_Driver/Src/stm32h7xx_hal_nand.c ****       {
 4897              		.loc 1 1693 10 is_stmt 0 view .LVU1663
 4898 0078 DAF82430 		ldr	r3, [r10, #36]
 4899 007c B3F5007F 		cmp	r3, #512
 4900 0080 75D8     		bhi	.L322
1696:./Libraries/STM32H7xx_HAL_Driver/Src/stm32h7xx_hal_nand.c ****         __DSB();
 4901              		.loc 1 1696 9 is_stmt 1 view .LVU1664
1696:./Libraries/STM32H7xx_HAL_Driver/Src/stm32h7xx_hal_nand.c ****         __DSB();
 4902              		.loc 1 1696 65 is_stmt 0 view .LVU1665
 4903 0082 5023     		movs	r3, #80
 4904 0084 2B70     		strb	r3, [r5]
1697:./Libraries/STM32H7xx_HAL_Driver/Src/stm32h7xx_hal_nand.c ****         *(__IO uint8_t *)((uint32_t)(deviceaddress | CMD_AREA)) = NAND_CMD_WRITE0;
 4905              		.loc 1 1697 9 is_stmt 1 view .LVU1666
 4906              	.LBB898:
 4907              	.LBI898:
 944:./Libraries/CMSIS/Core/Include/cmsis_gcc.h **** {
 4908              		.loc 2 944 27 view .LVU1667
 4909              	.LBB899:
 946:./Libraries/CMSIS/Core/Include/cmsis_gcc.h **** }
 4910              		.loc 2 946 3 view .LVU1668
 4911              		.syntax unified
 4912              	@ 946 "./Libraries/CMSIS/Core/Include/cmsis_gcc.h" 1
 4913 0086 BFF34F8F 		dsb 0xF
 4914              	@ 0 "" 2
 4915              		.thumb
 4916              		.syntax unified
 4917              	.LBE899:
 4918              	.LBE898:
1698:./Libraries/STM32H7xx_HAL_Driver/Src/stm32h7xx_hal_nand.c ****         __DSB();
 4919              		.loc 1 1698 9 view .LVU1669
1698:./Libraries/STM32H7xx_HAL_Driver/Src/stm32h7xx_hal_nand.c ****         __DSB();
 4920              		.loc 1 1698 65 is_stmt 0 view .LVU1670
 4921 008a 8023     		movs	r3, #128
 4922 008c 2B70     		strb	r3, [r5]
1699:./Libraries/STM32H7xx_HAL_Driver/Src/stm32h7xx_hal_nand.c **** 
 4923              		.loc 1 1699 9 is_stmt 1 view .LVU1671
 4924              	.LBB900:
 4925              	.LBI900:
 944:./Libraries/CMSIS/Core/Include/cmsis_gcc.h **** {
 4926              		.loc 2 944 27 view .LVU1672
 4927              	.LBB901:
 946:./Libraries/CMSIS/Core/Include/cmsis_gcc.h **** }
 4928              		.loc 2 946 3 view .LVU1673
 4929              		.syntax unified
 4930              	@ 946 "./Libraries/CMSIS/Core/Include/cmsis_gcc.h" 1
 4931 008e BFF34F8F 		dsb 0xF
 4932              	@ 0 "" 2
ARM GAS  /tmp/cc5RRSLv.s 			page 168


 4933              		.thumb
 4934              		.syntax unified
 4935              	.LBE901:
 4936              	.LBE900:
1701:./Libraries/STM32H7xx_HAL_Driver/Src/stm32h7xx_hal_nand.c ****         {
 4937              		.loc 1 1701 9 view .LVU1674
1701:./Libraries/STM32H7xx_HAL_Driver/Src/stm32h7xx_hal_nand.c ****         {
 4938              		.loc 1 1701 40 is_stmt 0 view .LVU1675
 4939 0092 DAE90B03 		ldrd	r0, r3, [r10, #44]
 4940 0096 03FB00F3 		mul	r3, r3, r0
1701:./Libraries/STM32H7xx_HAL_Driver/Src/stm32h7xx_hal_nand.c ****         {
 4941              		.loc 1 1701 12 view .LVU1676
 4942 009a B3F5803F 		cmp	r3, #65536
1703:./Libraries/STM32H7xx_HAL_Driver/Src/stm32h7xx_hal_nand.c ****           __DSB();
 4943              		.loc 1 1703 68 view .LVU1677
 4944 009e 4FF00003 		mov	r3, #0
 4945 00a2 89F80030 		strb	r3, [r9]
1701:./Libraries/STM32H7xx_HAL_Driver/Src/stm32h7xx_hal_nand.c ****         {
 4946              		.loc 1 1701 12 view .LVU1678
 4947 00a6 4ED2     		bcs	.L346
 4948              	.L345:
1735:./Libraries/STM32H7xx_HAL_Driver/Src/stm32h7xx_hal_nand.c ****           *(__IO uint8_t *)((uint32_t)(deviceaddress | ADDR_AREA)) = ADDR_1ST_CYCLE(nandaddress);
 4949              		.loc 1 1735 11 is_stmt 1 view .LVU1679
 4950              	.LBB902:
 4951              	.LBI902:
 944:./Libraries/CMSIS/Core/Include/cmsis_gcc.h **** {
 4952              		.loc 2 944 27 view .LVU1680
 4953              	.LBB903:
 946:./Libraries/CMSIS/Core/Include/cmsis_gcc.h **** }
 4954              		.loc 2 946 3 view .LVU1681
 4955              		.syntax unified
 4956              	@ 946 "./Libraries/CMSIS/Core/Include/cmsis_gcc.h" 1
 4957 00a8 BFF34F8F 		dsb 0xF
 4958              	@ 0 "" 2
 4959              		.thumb
 4960              		.syntax unified
 4961              	.LBE903:
 4962              	.LBE902:
1736:./Libraries/STM32H7xx_HAL_Driver/Src/stm32h7xx_hal_nand.c ****           __DSB();
 4963              		.loc 1 1736 11 view .LVU1682
 4964 00ac E3B2     		uxtb	r3, r4
1736:./Libraries/STM32H7xx_HAL_Driver/Src/stm32h7xx_hal_nand.c ****           __DSB();
 4965              		.loc 1 1736 68 is_stmt 0 view .LVU1683
 4966 00ae 89F80030 		strb	r3, [r9]
1737:./Libraries/STM32H7xx_HAL_Driver/Src/stm32h7xx_hal_nand.c ****           *(__IO uint8_t *)((uint32_t)(deviceaddress | ADDR_AREA)) = ADDR_2ND_CYCLE(nandaddress);
 4967              		.loc 1 1737 11 is_stmt 1 view .LVU1684
 4968              	.LBB904:
 4969              	.LBI904:
 944:./Libraries/CMSIS/Core/Include/cmsis_gcc.h **** {
 4970              		.loc 2 944 27 view .LVU1685
 4971              	.LBB905:
 946:./Libraries/CMSIS/Core/Include/cmsis_gcc.h **** }
 4972              		.loc 2 946 3 view .LVU1686
 4973              		.syntax unified
 4974              	@ 946 "./Libraries/CMSIS/Core/Include/cmsis_gcc.h" 1
 4975 00b2 BFF34F8F 		dsb 0xF
 4976              	@ 0 "" 2
ARM GAS  /tmp/cc5RRSLv.s 			page 169


 4977              		.thumb
 4978              		.syntax unified
 4979              	.LBE905:
 4980              	.LBE904:
1738:./Libraries/STM32H7xx_HAL_Driver/Src/stm32h7xx_hal_nand.c ****           __DSB();
 4981              		.loc 1 1738 11 view .LVU1687
1738:./Libraries/STM32H7xx_HAL_Driver/Src/stm32h7xx_hal_nand.c ****           __DSB();
 4982              		.loc 1 1738 70 is_stmt 0 view .LVU1688
 4983 00b6 C4F30723 		ubfx	r3, r4, #8, #8
1738:./Libraries/STM32H7xx_HAL_Driver/Src/stm32h7xx_hal_nand.c ****           __DSB();
 4984              		.loc 1 1738 68 view .LVU1689
 4985 00ba 89F80030 		strb	r3, [r9]
1739:./Libraries/STM32H7xx_HAL_Driver/Src/stm32h7xx_hal_nand.c ****         }
 4986              		.loc 1 1739 11 is_stmt 1 view .LVU1690
 4987              	.LBB906:
 4988              	.LBI906:
 944:./Libraries/CMSIS/Core/Include/cmsis_gcc.h **** {
 4989              		.loc 2 944 27 view .LVU1691
 4990              	.LBB907:
 946:./Libraries/CMSIS/Core/Include/cmsis_gcc.h **** }
 4991              		.loc 2 946 3 view .LVU1692
 4992              		.syntax unified
 4993              	@ 946 "./Libraries/CMSIS/Core/Include/cmsis_gcc.h" 1
 4994 00be BFF34F8F 		dsb 0xF
 4995              	@ 0 "" 2
 4996              		.thumb
 4997              		.syntax unified
 4998              	.L324:
 4999              	.LVL232:
 946:./Libraries/CMSIS/Core/Include/cmsis_gcc.h **** }
 5000              		.loc 2 946 3 is_stmt 0 view .LVU1693
 5001              	.LBE907:
 5002              	.LBE906:
1757:./Libraries/STM32H7xx_HAL_Driver/Src/stm32h7xx_hal_nand.c ****       {
 5003              		.loc 1 1757 24 is_stmt 1 discriminator 1 view .LVU1694
1757:./Libraries/STM32H7xx_HAL_Driver/Src/stm32h7xx_hal_nand.c ****       {
 5004              		.loc 1 1757 7 is_stmt 0 discriminator 1 view .LVU1695
 5005 00c2 DAF82830 		ldr	r3, [r10, #40]
 5006 00c6 63B1     		cbz	r3, .L327
1757:./Libraries/STM32H7xx_HAL_Driver/Src/stm32h7xx_hal_nand.c ****       {
 5007              		.loc 1 1757 7 view .LVU1696
 5008 00c8 0023     		movs	r3, #0
1759:./Libraries/STM32H7xx_HAL_Driver/Src/stm32h7xx_hal_nand.c ****         buff++;
 5009              		.loc 1 1759 41 view .LVU1697
 5010 00ca 4FF00046 		mov	r6, #-2147483648
 5011              	.LVL233:
 5012              	.L326:
1759:./Libraries/STM32H7xx_HAL_Driver/Src/stm32h7xx_hal_nand.c ****         buff++;
 5013              		.loc 1 1759 9 is_stmt 1 discriminator 3 view .LVU1698
1759:./Libraries/STM32H7xx_HAL_Driver/Src/stm32h7xx_hal_nand.c ****         buff++;
 5014              		.loc 1 1759 43 is_stmt 0 discriminator 3 view .LVU1699
 5015 00ce 3BF8022B 		ldrh	r2, [fp], #2
 5016              	.LVL234:
1759:./Libraries/STM32H7xx_HAL_Driver/Src/stm32h7xx_hal_nand.c ****         buff++;
 5017              		.loc 1 1759 41 discriminator 3 view .LVU1700
 5018 00d2 3280     		strh	r2, [r6]	@ movhi
1760:./Libraries/STM32H7xx_HAL_Driver/Src/stm32h7xx_hal_nand.c ****         __DSB();
ARM GAS  /tmp/cc5RRSLv.s 			page 170


 5019              		.loc 1 1760 9 is_stmt 1 discriminator 3 view .LVU1701
 5020              	.LVL235:
1761:./Libraries/STM32H7xx_HAL_Driver/Src/stm32h7xx_hal_nand.c ****       }
 5021              		.loc 1 1761 9 discriminator 3 view .LVU1702
 5022              	.LBB908:
 5023              	.LBI908:
 944:./Libraries/CMSIS/Core/Include/cmsis_gcc.h **** {
 5024              		.loc 2 944 27 discriminator 3 view .LVU1703
 5025              	.LBB909:
 946:./Libraries/CMSIS/Core/Include/cmsis_gcc.h **** }
 5026              		.loc 2 946 3 discriminator 3 view .LVU1704
 5027              		.syntax unified
 5028              	@ 946 "./Libraries/CMSIS/Core/Include/cmsis_gcc.h" 1
 5029 00d4 BFF34F8F 		dsb 0xF
 5030              	@ 0 "" 2
 5031              		.thumb
 5032              		.syntax unified
 5033              	.LBE909:
 5034              	.LBE908:
1757:./Libraries/STM32H7xx_HAL_Driver/Src/stm32h7xx_hal_nand.c ****       {
 5035              		.loc 1 1757 61 discriminator 3 view .LVU1705
1757:./Libraries/STM32H7xx_HAL_Driver/Src/stm32h7xx_hal_nand.c ****       {
 5036              		.loc 1 1757 66 is_stmt 0 discriminator 3 view .LVU1706
 5037 00d8 0133     		adds	r3, r3, #1
 5038              	.LVL236:
1757:./Libraries/STM32H7xx_HAL_Driver/Src/stm32h7xx_hal_nand.c ****       {
 5039              		.loc 1 1757 24 is_stmt 1 discriminator 3 view .LVU1707
1757:./Libraries/STM32H7xx_HAL_Driver/Src/stm32h7xx_hal_nand.c ****       {
 5040              		.loc 1 1757 7 is_stmt 0 discriminator 3 view .LVU1708
 5041 00da DAF82820 		ldr	r2, [r10, #40]
 5042 00de 9A42     		cmp	r2, r3
 5043 00e0 F5D8     		bhi	.L326
 5044              	.LVL237:
 5045              	.L327:
1764:./Libraries/STM32H7xx_HAL_Driver/Src/stm32h7xx_hal_nand.c ****       __DSB();
 5046              		.loc 1 1764 7 is_stmt 1 view .LVU1709
1764:./Libraries/STM32H7xx_HAL_Driver/Src/stm32h7xx_hal_nand.c ****       __DSB();
 5047              		.loc 1 1764 63 is_stmt 0 view .LVU1710
 5048 00e2 1023     		movs	r3, #16
 5049 00e4 2B70     		strb	r3, [r5]
1765:./Libraries/STM32H7xx_HAL_Driver/Src/stm32h7xx_hal_nand.c **** 
 5050              		.loc 1 1765 7 is_stmt 1 view .LVU1711
 5051              	.LBB910:
 5052              	.LBI910:
 944:./Libraries/CMSIS/Core/Include/cmsis_gcc.h **** {
 5053              		.loc 2 944 27 view .LVU1712
 5054              	.LBB911:
 946:./Libraries/CMSIS/Core/Include/cmsis_gcc.h **** }
 5055              		.loc 2 946 3 view .LVU1713
 5056              		.syntax unified
 5057              	@ 946 "./Libraries/CMSIS/Core/Include/cmsis_gcc.h" 1
 5058 00e6 BFF34F8F 		dsb 0xF
 5059              	@ 0 "" 2
 5060              		.thumb
 5061              		.syntax unified
 5062              	.LBE911:
 5063              	.LBE910:
ARM GAS  /tmp/cc5RRSLv.s 			page 171


1768:./Libraries/STM32H7xx_HAL_Driver/Src/stm32h7xx_hal_nand.c **** 
 5064              		.loc 1 1768 7 view .LVU1714
1768:./Libraries/STM32H7xx_HAL_Driver/Src/stm32h7xx_hal_nand.c **** 
 5065              		.loc 1 1768 19 is_stmt 0 view .LVU1715
 5066 00ea FFF7FEFF 		bl	HAL_GetTick
 5067              	.LVL238:
 5068              	.LBB912:
 5069              	.LBB913:
2204:./Libraries/STM32H7xx_HAL_Driver/Src/stm32h7xx_hal_nand.c **** 
 5070              		.loc 1 2204 59 view .LVU1716
 5071 00ee 4FF07008 		mov	r8, #112
2207:./Libraries/STM32H7xx_HAL_Driver/Src/stm32h7xx_hal_nand.c **** 
 5072              		.loc 1 2207 10 view .LVU1717
 5073 00f2 4FF00047 		mov	r7, #-2147483648
 5074              	.LBE913:
 5075              	.LBE912:
1768:./Libraries/STM32H7xx_HAL_Driver/Src/stm32h7xx_hal_nand.c **** 
 5076              		.loc 1 1768 19 view .LVU1718
 5077 00f6 0646     		mov	r6, r0
 5078              	.LVL239:
1771:./Libraries/STM32H7xx_HAL_Driver/Src/stm32h7xx_hal_nand.c ****       {
 5079              		.loc 1 1771 7 is_stmt 1 view .LVU1719
 5080              	.L328:
1773:./Libraries/STM32H7xx_HAL_Driver/Src/stm32h7xx_hal_nand.c ****         {
 5081              		.loc 1 1773 9 view .LVU1720
1771:./Libraries/STM32H7xx_HAL_Driver/Src/stm32h7xx_hal_nand.c ****       {
 5082              		.loc 1 1771 13 view .LVU1721
 5083              	.LBB915:
 5084              	.LBI912:
2194:./Libraries/STM32H7xx_HAL_Driver/Src/stm32h7xx_hal_nand.c **** {
 5085              		.loc 1 2194 10 view .LVU1722
 5086              	.LBB914:
2196:./Libraries/STM32H7xx_HAL_Driver/Src/stm32h7xx_hal_nand.c ****   uint32_t deviceaddress;
 5087              		.loc 1 2196 3 view .LVU1723
2197:./Libraries/STM32H7xx_HAL_Driver/Src/stm32h7xx_hal_nand.c ****   UNUSED(hnand);
 5088              		.loc 1 2197 3 view .LVU1724
2198:./Libraries/STM32H7xx_HAL_Driver/Src/stm32h7xx_hal_nand.c **** 
 5089              		.loc 1 2198 3 view .LVU1725
2201:./Libraries/STM32H7xx_HAL_Driver/Src/stm32h7xx_hal_nand.c **** 
 5090              		.loc 1 2201 3 view .LVU1726
2204:./Libraries/STM32H7xx_HAL_Driver/Src/stm32h7xx_hal_nand.c **** 
 5091              		.loc 1 2204 3 view .LVU1727
 5092              		.loc 1 2214 8 view .LVU1728
2204:./Libraries/STM32H7xx_HAL_Driver/Src/stm32h7xx_hal_nand.c **** 
 5093              		.loc 1 2204 59 is_stmt 0 view .LVU1729
 5094 00f8 85F80080 		strb	r8, [r5]
2207:./Libraries/STM32H7xx_HAL_Driver/Src/stm32h7xx_hal_nand.c **** 
 5095              		.loc 1 2207 3 is_stmt 1 view .LVU1730
2207:./Libraries/STM32H7xx_HAL_Driver/Src/stm32h7xx_hal_nand.c **** 
 5096              		.loc 1 2207 10 is_stmt 0 view .LVU1731
 5097 00fc 3B78     		ldrb	r3, [r7]	@ zero_extendqisi2
2210:./Libraries/STM32H7xx_HAL_Driver/Src/stm32h7xx_hal_nand.c ****   {
 5098              		.loc 1 2210 6 view .LVU1732
 5099 00fe D907     		lsls	r1, r3, #31
2207:./Libraries/STM32H7xx_HAL_Driver/Src/stm32h7xx_hal_nand.c **** 
 5100              		.loc 1 2207 10 view .LVU1733
 5101 0100 DAB2     		uxtb	r2, r3
ARM GAS  /tmp/cc5RRSLv.s 			page 172


 5102              	.LVL240:
2210:./Libraries/STM32H7xx_HAL_Driver/Src/stm32h7xx_hal_nand.c ****   {
 5103              		.loc 1 2210 3 is_stmt 1 view .LVU1734
2210:./Libraries/STM32H7xx_HAL_Driver/Src/stm32h7xx_hal_nand.c ****   {
 5104              		.loc 1 2210 6 is_stmt 0 view .LVU1735
 5105 0102 01D4     		bmi	.L329
 5106              		.loc 1 2214 11 view .LVU1736
 5107 0104 5306     		lsls	r3, r2, #25
 5108 0106 12D4     		bmi	.L347
 5109              	.L329:
 5110              	.LBE914:
 5111              	.LBE915:
1773:./Libraries/STM32H7xx_HAL_Driver/Src/stm32h7xx_hal_nand.c ****         {
 5112              		.loc 1 1773 14 view .LVU1737
 5113 0108 FFF7FEFF 		bl	HAL_GetTick
 5114              	.LVL241:
1773:./Libraries/STM32H7xx_HAL_Driver/Src/stm32h7xx_hal_nand.c ****         {
 5115              		.loc 1 1773 28 view .LVU1738
 5116 010c 801B     		subs	r0, r0, r6
1773:./Libraries/STM32H7xx_HAL_Driver/Src/stm32h7xx_hal_nand.c ****         {
 5117              		.loc 1 1773 12 view .LVU1739
 5118 010e B0F1807F 		cmp	r0, #16777216
 5119 0112 F1D9     		bls	.L328
1776:./Libraries/STM32H7xx_HAL_Driver/Src/stm32h7xx_hal_nand.c **** 
 5120              		.loc 1 1776 11 is_stmt 1 view .LVU1740
1776:./Libraries/STM32H7xx_HAL_Driver/Src/stm32h7xx_hal_nand.c **** 
 5121              		.loc 1 1776 24 is_stmt 0 view .LVU1741
 5122 0114 0320     		movs	r0, #3
1779:./Libraries/STM32H7xx_HAL_Driver/Src/stm32h7xx_hal_nand.c **** 
 5123              		.loc 1 1779 11 view .LVU1742
 5124 0116 0023     		movs	r3, #0
1776:./Libraries/STM32H7xx_HAL_Driver/Src/stm32h7xx_hal_nand.c **** 
 5125              		.loc 1 1776 24 view .LVU1743
 5126 0118 8AF82100 		strb	r0, [r10, #33]
1779:./Libraries/STM32H7xx_HAL_Driver/Src/stm32h7xx_hal_nand.c **** 
 5127              		.loc 1 1779 11 is_stmt 1 view .LVU1744
1779:./Libraries/STM32H7xx_HAL_Driver/Src/stm32h7xx_hal_nand.c **** 
 5128              		.loc 1 1779 11 view .LVU1745
 5129 011c 8AF82030 		strb	r3, [r10, #32]
1779:./Libraries/STM32H7xx_HAL_Driver/Src/stm32h7xx_hal_nand.c **** 
 5130              		.loc 1 1779 11 view .LVU1746
1781:./Libraries/STM32H7xx_HAL_Driver/Src/stm32h7xx_hal_nand.c ****         }
 5131              		.loc 1 1781 11 view .LVU1747
 5132              	.LVL242:
 5133              	.L319:
1807:./Libraries/STM32H7xx_HAL_Driver/Src/stm32h7xx_hal_nand.c **** 
 5134              		.loc 1 1807 1 is_stmt 0 view .LVU1748
 5135 0120 05B0     		add	sp, sp, #20
 5136              	.LCFI66:
 5137              		.cfi_remember_state
 5138              		.cfi_def_cfa_offset 36
 5139              		@ sp needed
 5140 0122 BDE8F08F 		pop	{r4, r5, r6, r7, r8, r9, r10, fp, pc}
 5141              	.LVL243:
 5142              	.L332:
 5143              	.LCFI67:
 5144              		.cfi_restore_state
ARM GAS  /tmp/cc5RRSLv.s 			page 173


1803:./Libraries/STM32H7xx_HAL_Driver/Src/stm32h7xx_hal_nand.c ****   }
 5145              		.loc 1 1803 12 view .LVU1749
 5146 0126 0120     		movs	r0, #1
1807:./Libraries/STM32H7xx_HAL_Driver/Src/stm32h7xx_hal_nand.c **** 
 5147              		.loc 1 1807 1 view .LVU1750
 5148 0128 05B0     		add	sp, sp, #20
 5149              	.LCFI68:
 5150              		.cfi_remember_state
 5151              		.cfi_def_cfa_offset 36
 5152              		@ sp needed
 5153 012a BDE8F08F 		pop	{r4, r5, r6, r7, r8, r9, r10, fp, pc}
 5154              	.LVL244:
 5155              	.L347:
 5156              	.LCFI69:
 5157              		.cfi_restore_state
1786:./Libraries/STM32H7xx_HAL_Driver/Src/stm32h7xx_hal_nand.c **** 
 5158              		.loc 1 1786 7 is_stmt 1 view .LVU1751
1789:./Libraries/STM32H7xx_HAL_Driver/Src/stm32h7xx_hal_nand.c **** 
 5159              		.loc 1 1789 7 view .LVU1752
1792:./Libraries/STM32H7xx_HAL_Driver/Src/stm32h7xx_hal_nand.c ****     }
 5160              		.loc 1 1792 7 view .LVU1753
1792:./Libraries/STM32H7xx_HAL_Driver/Src/stm32h7xx_hal_nand.c ****     }
 5161              		.loc 1 1792 19 is_stmt 0 view .LVU1754
 5162 012e 0134     		adds	r4, r4, #1
 5163              	.LVL245:
1690:./Libraries/STM32H7xx_HAL_Driver/Src/stm32h7xx_hal_nand.c ****     {
 5164              		.loc 1 1690 11 is_stmt 1 view .LVU1755
 5165 0130 019B     		ldr	r3, [sp, #4]
 5166 0132 A342     		cmp	r3, r4
 5167 0134 35D0     		beq	.L330
 5168 0136 DAF82C00 		ldr	r0, [r10, #44]
 5169 013a 96E7     		b	.L321
 5170              	.LVL246:
 5171              	.L325:
1743:./Libraries/STM32H7xx_HAL_Driver/Src/stm32h7xx_hal_nand.c ****           __DSB();
 5172              		.loc 1 1743 11 view .LVU1756
1744:./Libraries/STM32H7xx_HAL_Driver/Src/stm32h7xx_hal_nand.c ****           *(__IO uint8_t *)((uint32_t)(deviceaddress | ADDR_AREA)) = COLUMN_2ND_CYCLE(columnaddress
 5173              		.loc 1 1744 11 view .LVU1757
 5174              	.LBB916:
 5175              	.LBI916:
 944:./Libraries/CMSIS/Core/Include/cmsis_gcc.h **** {
 5176              		.loc 2 944 27 view .LVU1758
 5177              	.LBB917:
 946:./Libraries/CMSIS/Core/Include/cmsis_gcc.h **** }
 5178              		.loc 2 946 3 view .LVU1759
 5179              		.syntax unified
 5180              	@ 946 "./Libraries/CMSIS/Core/Include/cmsis_gcc.h" 1
 5181 013c BFF34F8F 		dsb 0xF
 5182              	@ 0 "" 2
 5183              		.thumb
 5184              		.syntax unified
 5185              	.LBE917:
 5186              	.LBE916:
1745:./Libraries/STM32H7xx_HAL_Driver/Src/stm32h7xx_hal_nand.c ****           __DSB();
 5187              		.loc 1 1745 11 view .LVU1760
1745:./Libraries/STM32H7xx_HAL_Driver/Src/stm32h7xx_hal_nand.c ****           __DSB();
 5188              		.loc 1 1745 68 is_stmt 0 view .LVU1761
ARM GAS  /tmp/cc5RRSLv.s 			page 174


 5189 0140 039B     		ldr	r3, [sp, #12]
 5190 0142 89F80030 		strb	r3, [r9]
 5191              	.L346:
1746:./Libraries/STM32H7xx_HAL_Driver/Src/stm32h7xx_hal_nand.c ****           *(__IO uint8_t *)((uint32_t)(deviceaddress | ADDR_AREA)) = ADDR_1ST_CYCLE(nandaddress);
 5192              		.loc 1 1746 11 is_stmt 1 view .LVU1762
 5193              	.LBB918:
 5194              	.LBI918:
 944:./Libraries/CMSIS/Core/Include/cmsis_gcc.h **** {
 5195              		.loc 2 944 27 view .LVU1763
 5196              	.LBB919:
 946:./Libraries/CMSIS/Core/Include/cmsis_gcc.h **** }
 5197              		.loc 2 946 3 view .LVU1764
 5198              		.syntax unified
 5199              	@ 946 "./Libraries/CMSIS/Core/Include/cmsis_gcc.h" 1
 5200 0146 BFF34F8F 		dsb 0xF
 5201              	@ 0 "" 2
 5202              		.thumb
 5203              		.syntax unified
 5204              	.LBE919:
 5205              	.LBE918:
1747:./Libraries/STM32H7xx_HAL_Driver/Src/stm32h7xx_hal_nand.c ****           __DSB();
 5206              		.loc 1 1747 11 view .LVU1765
 5207 014a E3B2     		uxtb	r3, r4
1747:./Libraries/STM32H7xx_HAL_Driver/Src/stm32h7xx_hal_nand.c ****           __DSB();
 5208              		.loc 1 1747 68 is_stmt 0 view .LVU1766
 5209 014c 89F80030 		strb	r3, [r9]
1748:./Libraries/STM32H7xx_HAL_Driver/Src/stm32h7xx_hal_nand.c ****           *(__IO uint8_t *)((uint32_t)(deviceaddress | ADDR_AREA)) = ADDR_2ND_CYCLE(nandaddress);
 5210              		.loc 1 1748 11 is_stmt 1 view .LVU1767
 5211              	.LBB920:
 5212              	.LBI920:
 944:./Libraries/CMSIS/Core/Include/cmsis_gcc.h **** {
 5213              		.loc 2 944 27 view .LVU1768
 5214              	.LBB921:
 946:./Libraries/CMSIS/Core/Include/cmsis_gcc.h **** }
 5215              		.loc 2 946 3 view .LVU1769
 5216              		.syntax unified
 5217              	@ 946 "./Libraries/CMSIS/Core/Include/cmsis_gcc.h" 1
 5218 0150 BFF34F8F 		dsb 0xF
 5219              	@ 0 "" 2
 5220              		.thumb
 5221              		.syntax unified
 5222              	.LBE921:
 5223              	.LBE920:
1749:./Libraries/STM32H7xx_HAL_Driver/Src/stm32h7xx_hal_nand.c ****           __DSB();
 5224              		.loc 1 1749 11 view .LVU1770
1749:./Libraries/STM32H7xx_HAL_Driver/Src/stm32h7xx_hal_nand.c ****           __DSB();
 5225              		.loc 1 1749 70 is_stmt 0 view .LVU1771
 5226 0154 C4F30723 		ubfx	r3, r4, #8, #8
1749:./Libraries/STM32H7xx_HAL_Driver/Src/stm32h7xx_hal_nand.c ****           __DSB();
 5227              		.loc 1 1749 68 view .LVU1772
 5228 0158 89F80030 		strb	r3, [r9]
1750:./Libraries/STM32H7xx_HAL_Driver/Src/stm32h7xx_hal_nand.c ****           *(__IO uint8_t *)((uint32_t)(deviceaddress | ADDR_AREA)) = ADDR_3RD_CYCLE(nandaddress);
 5229              		.loc 1 1750 11 is_stmt 1 view .LVU1773
 5230              	.LBB922:
 5231              	.LBI922:
 944:./Libraries/CMSIS/Core/Include/cmsis_gcc.h **** {
 5232              		.loc 2 944 27 view .LVU1774
ARM GAS  /tmp/cc5RRSLv.s 			page 175


 5233              	.LBB923:
 946:./Libraries/CMSIS/Core/Include/cmsis_gcc.h **** }
 5234              		.loc 2 946 3 view .LVU1775
 5235              		.syntax unified
 5236              	@ 946 "./Libraries/CMSIS/Core/Include/cmsis_gcc.h" 1
 5237 015c BFF34F8F 		dsb 0xF
 5238              	@ 0 "" 2
 5239              		.thumb
 5240              		.syntax unified
 5241              	.LBE923:
 5242              	.LBE922:
1751:./Libraries/STM32H7xx_HAL_Driver/Src/stm32h7xx_hal_nand.c ****           __DSB();
 5243              		.loc 1 1751 11 view .LVU1776
1751:./Libraries/STM32H7xx_HAL_Driver/Src/stm32h7xx_hal_nand.c ****           __DSB();
 5244              		.loc 1 1751 70 is_stmt 0 view .LVU1777
 5245 0160 C4F30743 		ubfx	r3, r4, #16, #8
1751:./Libraries/STM32H7xx_HAL_Driver/Src/stm32h7xx_hal_nand.c ****           __DSB();
 5246              		.loc 1 1751 68 view .LVU1778
 5247 0164 89F80030 		strb	r3, [r9]
1752:./Libraries/STM32H7xx_HAL_Driver/Src/stm32h7xx_hal_nand.c ****         }
 5248              		.loc 1 1752 11 is_stmt 1 view .LVU1779
 5249              	.LBB924:
 5250              	.LBI924:
 944:./Libraries/CMSIS/Core/Include/cmsis_gcc.h **** {
 5251              		.loc 2 944 27 view .LVU1780
 5252              	.LBB925:
 946:./Libraries/CMSIS/Core/Include/cmsis_gcc.h **** }
 5253              		.loc 2 946 3 view .LVU1781
 5254              		.syntax unified
 5255              	@ 946 "./Libraries/CMSIS/Core/Include/cmsis_gcc.h" 1
 5256 0168 BFF34F8F 		dsb 0xF
 5257              	@ 0 "" 2
 5258              		.loc 2 947 1 is_stmt 0 view .LVU1782
 5259              		.thumb
 5260              		.syntax unified
 5261 016c A9E7     		b	.L324
 5262              	.L322:
 5263              		.loc 2 947 1 view .LVU1783
 5264              	.LBE925:
 5265              	.LBE924:
1725:./Libraries/STM32H7xx_HAL_Driver/Src/stm32h7xx_hal_nand.c ****         __DSB();
 5266              		.loc 1 1725 9 is_stmt 1 view .LVU1784
1725:./Libraries/STM32H7xx_HAL_Driver/Src/stm32h7xx_hal_nand.c ****         __DSB();
 5267              		.loc 1 1725 65 is_stmt 0 view .LVU1785
 5268 016e 4FF00003 		mov	r3, #0
 5269 0172 2B70     		strb	r3, [r5]
1726:./Libraries/STM32H7xx_HAL_Driver/Src/stm32h7xx_hal_nand.c ****         *(__IO uint8_t *)((uint32_t)(deviceaddress | CMD_AREA)) = NAND_CMD_WRITE0;
 5270              		.loc 1 1726 9 is_stmt 1 view .LVU1786
 5271              	.LBB926:
 5272              	.LBI926:
 944:./Libraries/CMSIS/Core/Include/cmsis_gcc.h **** {
 5273              		.loc 2 944 27 view .LVU1787
 5274              	.LBB927:
 946:./Libraries/CMSIS/Core/Include/cmsis_gcc.h **** }
 5275              		.loc 2 946 3 view .LVU1788
 5276              		.syntax unified
 5277              	@ 946 "./Libraries/CMSIS/Core/Include/cmsis_gcc.h" 1
ARM GAS  /tmp/cc5RRSLv.s 			page 176


 5278 0174 BFF34F8F 		dsb 0xF
 5279              	@ 0 "" 2
 5280              		.thumb
 5281              		.syntax unified
 5282              	.LBE927:
 5283              	.LBE926:
1727:./Libraries/STM32H7xx_HAL_Driver/Src/stm32h7xx_hal_nand.c ****         __DSB();
 5284              		.loc 1 1727 9 view .LVU1789
1727:./Libraries/STM32H7xx_HAL_Driver/Src/stm32h7xx_hal_nand.c ****         __DSB();
 5285              		.loc 1 1727 65 is_stmt 0 view .LVU1790
 5286 0178 8023     		movs	r3, #128
 5287 017a 2B70     		strb	r3, [r5]
1728:./Libraries/STM32H7xx_HAL_Driver/Src/stm32h7xx_hal_nand.c **** 
 5288              		.loc 1 1728 9 is_stmt 1 view .LVU1791
 5289              	.LBB928:
 5290              	.LBI928:
 944:./Libraries/CMSIS/Core/Include/cmsis_gcc.h **** {
 5291              		.loc 2 944 27 view .LVU1792
 5292              	.LBB929:
 946:./Libraries/CMSIS/Core/Include/cmsis_gcc.h **** }
 5293              		.loc 2 946 3 view .LVU1793
 5294              		.syntax unified
 5295              	@ 946 "./Libraries/CMSIS/Core/Include/cmsis_gcc.h" 1
 5296 017c BFF34F8F 		dsb 0xF
 5297              	@ 0 "" 2
 5298              		.thumb
 5299              		.syntax unified
 5300              	.LBE929:
 5301              	.LBE928:
1730:./Libraries/STM32H7xx_HAL_Driver/Src/stm32h7xx_hal_nand.c ****         {
 5302              		.loc 1 1730 9 view .LVU1794
1730:./Libraries/STM32H7xx_HAL_Driver/Src/stm32h7xx_hal_nand.c ****         {
 5303              		.loc 1 1730 40 is_stmt 0 view .LVU1795
 5304 0180 DAE90B03 		ldrd	r0, r3, [r10, #44]
 5305 0184 03FB00F3 		mul	r3, r3, r0
1730:./Libraries/STM32H7xx_HAL_Driver/Src/stm32h7xx_hal_nand.c ****         {
 5306              		.loc 1 1730 12 view .LVU1796
 5307 0188 B3F5803F 		cmp	r3, #65536
1732:./Libraries/STM32H7xx_HAL_Driver/Src/stm32h7xx_hal_nand.c ****           __DSB();
 5308              		.loc 1 1732 70 view .LVU1797
 5309 018c 9DF80830 		ldrb	r3, [sp, #8]	@ zero_extendqisi2
1732:./Libraries/STM32H7xx_HAL_Driver/Src/stm32h7xx_hal_nand.c ****           __DSB();
 5310              		.loc 1 1732 68 view .LVU1798
 5311 0190 89F80030 		strb	r3, [r9]
1730:./Libraries/STM32H7xx_HAL_Driver/Src/stm32h7xx_hal_nand.c ****         {
 5312              		.loc 1 1730 12 view .LVU1799
 5313 0194 D2D2     		bcs	.L325
1732:./Libraries/STM32H7xx_HAL_Driver/Src/stm32h7xx_hal_nand.c ****           __DSB();
 5314              		.loc 1 1732 11 is_stmt 1 view .LVU1800
1733:./Libraries/STM32H7xx_HAL_Driver/Src/stm32h7xx_hal_nand.c ****           *(__IO uint8_t *)((uint32_t)(deviceaddress | ADDR_AREA)) = COLUMN_2ND_CYCLE(columnaddress
 5315              		.loc 1 1733 11 view .LVU1801
 5316              	.LBB930:
 5317              	.LBI930:
 944:./Libraries/CMSIS/Core/Include/cmsis_gcc.h **** {
 5318              		.loc 2 944 27 view .LVU1802
 5319              	.LBB931:
 946:./Libraries/CMSIS/Core/Include/cmsis_gcc.h **** }
ARM GAS  /tmp/cc5RRSLv.s 			page 177


 5320              		.loc 2 946 3 view .LVU1803
 5321              		.syntax unified
 5322              	@ 946 "./Libraries/CMSIS/Core/Include/cmsis_gcc.h" 1
 5323 0196 BFF34F8F 		dsb 0xF
 5324              	@ 0 "" 2
 5325              		.thumb
 5326              		.syntax unified
 5327              	.LBE931:
 5328              	.LBE930:
1734:./Libraries/STM32H7xx_HAL_Driver/Src/stm32h7xx_hal_nand.c ****           __DSB();
 5329              		.loc 1 1734 11 view .LVU1804
1734:./Libraries/STM32H7xx_HAL_Driver/Src/stm32h7xx_hal_nand.c ****           __DSB();
 5330              		.loc 1 1734 68 is_stmt 0 view .LVU1805
 5331 019a 039B     		ldr	r3, [sp, #12]
 5332 019c 89F80030 		strb	r3, [r9]
 5333 01a0 82E7     		b	.L345
 5334              	.LVL247:
 5335              	.L330:
1796:./Libraries/STM32H7xx_HAL_Driver/Src/stm32h7xx_hal_nand.c **** 
 5336              		.loc 1 1796 5 is_stmt 1 view .LVU1806
1799:./Libraries/STM32H7xx_HAL_Driver/Src/stm32h7xx_hal_nand.c ****   }
 5337              		.loc 1 1799 5 is_stmt 0 view .LVU1807
 5338 01a2 0023     		movs	r3, #0
1796:./Libraries/STM32H7xx_HAL_Driver/Src/stm32h7xx_hal_nand.c **** 
 5339              		.loc 1 1796 18 view .LVU1808
 5340 01a4 0121     		movs	r1, #1
1806:./Libraries/STM32H7xx_HAL_Driver/Src/stm32h7xx_hal_nand.c **** }
 5341              		.loc 1 1806 10 view .LVU1809
 5342 01a6 1846     		mov	r0, r3
1796:./Libraries/STM32H7xx_HAL_Driver/Src/stm32h7xx_hal_nand.c **** 
 5343              		.loc 1 1796 18 view .LVU1810
 5344 01a8 8AF82110 		strb	r1, [r10, #33]
1799:./Libraries/STM32H7xx_HAL_Driver/Src/stm32h7xx_hal_nand.c ****   }
 5345              		.loc 1 1799 5 is_stmt 1 view .LVU1811
1799:./Libraries/STM32H7xx_HAL_Driver/Src/stm32h7xx_hal_nand.c ****   }
 5346              		.loc 1 1799 5 view .LVU1812
 5347 01ac 8AF82030 		strb	r3, [r10, #32]
1799:./Libraries/STM32H7xx_HAL_Driver/Src/stm32h7xx_hal_nand.c ****   }
 5348              		.loc 1 1799 5 view .LVU1813
1806:./Libraries/STM32H7xx_HAL_Driver/Src/stm32h7xx_hal_nand.c **** }
 5349              		.loc 1 1806 3 view .LVU1814
1807:./Libraries/STM32H7xx_HAL_Driver/Src/stm32h7xx_hal_nand.c **** 
 5350              		.loc 1 1807 1 is_stmt 0 view .LVU1815
 5351 01b0 05B0     		add	sp, sp, #20
 5352              	.LCFI70:
 5353              		.cfi_remember_state
 5354              		.cfi_def_cfa_offset 36
 5355              		@ sp needed
 5356 01b2 BDE8F08F 		pop	{r4, r5, r6, r7, r8, r9, r10, fp, pc}
 5357              	.LVL248:
 5358              	.L333:
 5359              	.LCFI71:
 5360              		.cfi_restore_state
1670:./Libraries/STM32H7xx_HAL_Driver/Src/stm32h7xx_hal_nand.c ****   }
 5361              		.loc 1 1670 12 view .LVU1816
 5362 01b6 0220     		movs	r0, #2
 5363 01b8 B2E7     		b	.L319
ARM GAS  /tmp/cc5RRSLv.s 			page 178


 5364              	.L349:
 5365 01ba 00BF     		.align	2
 5366              	.L348:
 5367 01bc 00000180 		.word	-2147418112
 5368 01c0 00000280 		.word	-2147352576
 5369              		.cfi_endproc
 5370              	.LFE347:
 5372              		.section	.text.HAL_NAND_Erase_Block,"ax",%progbits
 5373              		.align	1
 5374              		.p2align 2,,3
 5375              		.global	HAL_NAND_Erase_Block
 5376              		.syntax unified
 5377              		.thumb
 5378              		.thumb_func
 5379              		.fpu fpv5-d16
 5381              	HAL_NAND_Erase_Block:
 5382              	.LVL249:
 5383              	.LFB348:
1817:./Libraries/STM32H7xx_HAL_Driver/Src/stm32h7xx_hal_nand.c ****   uint32_t deviceaddress;
 5384              		.loc 1 1817 1 is_stmt 1 view -0
 5385              		.cfi_startproc
 5386              		@ args = 0, pretend = 0, frame = 0
 5387              		@ frame_needed = 0, uses_anonymous_args = 0
 5388              		@ link register save eliminated.
1818:./Libraries/STM32H7xx_HAL_Driver/Src/stm32h7xx_hal_nand.c **** 
 5389              		.loc 1 1818 3 view .LVU1818
1821:./Libraries/STM32H7xx_HAL_Driver/Src/stm32h7xx_hal_nand.c ****   {
 5390              		.loc 1 1821 3 view .LVU1819
1821:./Libraries/STM32H7xx_HAL_Driver/Src/stm32h7xx_hal_nand.c ****   {
 5391              		.loc 1 1821 12 is_stmt 0 view .LVU1820
 5392 0000 90F82120 		ldrb	r2, [r0, #33]	@ zero_extendqisi2
1821:./Libraries/STM32H7xx_HAL_Driver/Src/stm32h7xx_hal_nand.c ****   {
 5393              		.loc 1 1821 6 view .LVU1821
 5394 0004 022A     		cmp	r2, #2
1821:./Libraries/STM32H7xx_HAL_Driver/Src/stm32h7xx_hal_nand.c ****   {
 5395              		.loc 1 1821 12 view .LVU1822
 5396 0006 D3B2     		uxtb	r3, r2
1821:./Libraries/STM32H7xx_HAL_Driver/Src/stm32h7xx_hal_nand.c ****   {
 5397              		.loc 1 1821 6 view .LVU1823
 5398 0008 4BD0     		beq	.L358
1825:./Libraries/STM32H7xx_HAL_Driver/Src/stm32h7xx_hal_nand.c ****   {
 5399              		.loc 1 1825 8 is_stmt 1 view .LVU1824
1825:./Libraries/STM32H7xx_HAL_Driver/Src/stm32h7xx_hal_nand.c ****   {
 5400              		.loc 1 1825 17 is_stmt 0 view .LVU1825
 5401 000a 90F82130 		ldrb	r3, [r0, #33]	@ zero_extendqisi2
1825:./Libraries/STM32H7xx_HAL_Driver/Src/stm32h7xx_hal_nand.c ****   {
 5402              		.loc 1 1825 11 view .LVU1826
 5403 000e 012B     		cmp	r3, #1
1825:./Libraries/STM32H7xx_HAL_Driver/Src/stm32h7xx_hal_nand.c ****   {
 5404              		.loc 1 1825 17 view .LVU1827
 5405 0010 DAB2     		uxtb	r2, r3
1825:./Libraries/STM32H7xx_HAL_Driver/Src/stm32h7xx_hal_nand.c ****   {
 5406              		.loc 1 1825 11 view .LVU1828
 5407 0012 45D1     		bne	.L352
1828:./Libraries/STM32H7xx_HAL_Driver/Src/stm32h7xx_hal_nand.c **** 
 5408              		.loc 1 1828 5 is_stmt 1 view .LVU1829
1828:./Libraries/STM32H7xx_HAL_Driver/Src/stm32h7xx_hal_nand.c **** 
ARM GAS  /tmp/cc5RRSLv.s 			page 179


 5409              		.loc 1 1828 5 view .LVU1830
 5410 0014 90F82030 		ldrb	r3, [r0, #32]	@ zero_extendqisi2
 5411 0018 012B     		cmp	r3, #1
 5412 001a 44D0     		beq	.L353
1828:./Libraries/STM32H7xx_HAL_Driver/Src/stm32h7xx_hal_nand.c **** 
 5413              		.loc 1 1828 5 discriminator 2 view .LVU1831
1837:./Libraries/STM32H7xx_HAL_Driver/Src/stm32h7xx_hal_nand.c ****     __DSB();
 5414              		.loc 1 1837 61 is_stmt 0 discriminator 2 view .LVU1832
 5415 001c 6023     		movs	r3, #96
1817:./Libraries/STM32H7xx_HAL_Driver/Src/stm32h7xx_hal_nand.c ****   uint32_t deviceaddress;
 5416              		.loc 1 1817 1 discriminator 2 view .LVU1833
 5417 001e F0B4     		push	{r4, r5, r6, r7}
 5418              	.LCFI72:
 5419              		.cfi_def_cfa_offset 16
 5420              		.cfi_offset 4, -16
 5421              		.cfi_offset 5, -12
 5422              		.cfi_offset 6, -8
 5423              		.cfi_offset 7, -4
1831:./Libraries/STM32H7xx_HAL_Driver/Src/stm32h7xx_hal_nand.c **** 
 5424              		.loc 1 1831 18 discriminator 2 view .LVU1834
 5425 0020 0224     		movs	r4, #2
1837:./Libraries/STM32H7xx_HAL_Driver/Src/stm32h7xx_hal_nand.c ****     __DSB();
 5426              		.loc 1 1837 61 discriminator 2 view .LVU1835
 5427 0022 224D     		ldr	r5, .L361
1828:./Libraries/STM32H7xx_HAL_Driver/Src/stm32h7xx_hal_nand.c **** 
 5428              		.loc 1 1828 5 discriminator 2 view .LVU1836
 5429 0024 80F82020 		strb	r2, [r0, #32]
1828:./Libraries/STM32H7xx_HAL_Driver/Src/stm32h7xx_hal_nand.c **** 
 5430              		.loc 1 1828 5 is_stmt 1 discriminator 2 view .LVU1837
1831:./Libraries/STM32H7xx_HAL_Driver/Src/stm32h7xx_hal_nand.c **** 
 5431              		.loc 1 1831 5 discriminator 2 view .LVU1838
1831:./Libraries/STM32H7xx_HAL_Driver/Src/stm32h7xx_hal_nand.c **** 
 5432              		.loc 1 1831 18 is_stmt 0 discriminator 2 view .LVU1839
 5433 0028 80F82140 		strb	r4, [r0, #33]
1834:./Libraries/STM32H7xx_HAL_Driver/Src/stm32h7xx_hal_nand.c **** 
 5434              		.loc 1 1834 5 is_stmt 1 discriminator 2 view .LVU1840
 5435              	.LVL250:
1837:./Libraries/STM32H7xx_HAL_Driver/Src/stm32h7xx_hal_nand.c ****     __DSB();
 5436              		.loc 1 1837 5 discriminator 2 view .LVU1841
1837:./Libraries/STM32H7xx_HAL_Driver/Src/stm32h7xx_hal_nand.c ****     __DSB();
 5437              		.loc 1 1837 61 is_stmt 0 discriminator 2 view .LVU1842
 5438 002c 2B70     		strb	r3, [r5]
1838:./Libraries/STM32H7xx_HAL_Driver/Src/stm32h7xx_hal_nand.c ****     *(__IO uint8_t *)((uint32_t)(deviceaddress | ADDR_AREA)) = ADDR_1ST_CYCLE(ARRAY_ADDRESS(pAddres
 5439              		.loc 1 1838 5 is_stmt 1 discriminator 2 view .LVU1843
 5440              	.LBB932:
 5441              	.LBI932:
 944:./Libraries/CMSIS/Core/Include/cmsis_gcc.h **** {
 5442              		.loc 2 944 27 discriminator 2 view .LVU1844
 5443              	.LBB933:
 946:./Libraries/CMSIS/Core/Include/cmsis_gcc.h **** }
 5444              		.loc 2 946 3 discriminator 2 view .LVU1845
 5445              		.syntax unified
 5446              	@ 946 "./Libraries/CMSIS/Core/Include/cmsis_gcc.h" 1
 5447 002e BFF34F8F 		dsb 0xF
 5448              	@ 0 "" 2
 5449              		.thumb
 5450              		.syntax unified
ARM GAS  /tmp/cc5RRSLv.s 			page 180


 5451              	.LBE933:
 5452              	.LBE932:
1839:./Libraries/STM32H7xx_HAL_Driver/Src/stm32h7xx_hal_nand.c ****     __DSB();
 5453              		.loc 1 1839 5 discriminator 2 view .LVU1846
1839:./Libraries/STM32H7xx_HAL_Driver/Src/stm32h7xx_hal_nand.c ****     __DSB();
 5454              		.loc 1 1839 64 is_stmt 0 discriminator 2 view .LVU1847
 5455 0032 876B     		ldr	r7, [r0, #56]
 5456 0034 8C88     		ldrh	r4, [r1, #4]
 5457 0036 4B88     		ldrh	r3, [r1, #2]
 5458 0038 C66A     		ldr	r6, [r0, #44]
 5459 003a 07FB0343 		mla	r3, r7, r3, r4
 5460 003e 0F78     		ldrb	r7, [r1]	@ zero_extendqisi2
1839:./Libraries/STM32H7xx_HAL_Driver/Src/stm32h7xx_hal_nand.c ****     __DSB();
 5461              		.loc 1 1839 62 discriminator 2 view .LVU1848
 5462 0040 1B4C     		ldr	r4, .L361+4
1839:./Libraries/STM32H7xx_HAL_Driver/Src/stm32h7xx_hal_nand.c ****     __DSB();
 5463              		.loc 1 1839 64 discriminator 2 view .LVU1849
 5464 0042 13FB0673 		smlabb	r3, r3, r6, r7
 5465 0046 DBB2     		uxtb	r3, r3
1839:./Libraries/STM32H7xx_HAL_Driver/Src/stm32h7xx_hal_nand.c ****     __DSB();
 5466              		.loc 1 1839 62 discriminator 2 view .LVU1850
 5467 0048 2370     		strb	r3, [r4]
1840:./Libraries/STM32H7xx_HAL_Driver/Src/stm32h7xx_hal_nand.c ****     *(__IO uint8_t *)((uint32_t)(deviceaddress | ADDR_AREA)) = ADDR_2ND_CYCLE(ARRAY_ADDRESS(pAddres
 5468              		.loc 1 1840 5 is_stmt 1 discriminator 2 view .LVU1851
 5469              	.LBB934:
 5470              	.LBI934:
 944:./Libraries/CMSIS/Core/Include/cmsis_gcc.h **** {
 5471              		.loc 2 944 27 discriminator 2 view .LVU1852
 5472              	.LBB935:
 946:./Libraries/CMSIS/Core/Include/cmsis_gcc.h **** }
 5473              		.loc 2 946 3 discriminator 2 view .LVU1853
 5474              		.syntax unified
 5475              	@ 946 "./Libraries/CMSIS/Core/Include/cmsis_gcc.h" 1
 5476 004a BFF34F8F 		dsb 0xF
 5477              	@ 0 "" 2
 5478              		.thumb
 5479              		.syntax unified
 5480              	.LBE935:
 5481              	.LBE934:
1841:./Libraries/STM32H7xx_HAL_Driver/Src/stm32h7xx_hal_nand.c ****     __DSB();
 5482              		.loc 1 1841 5 discriminator 2 view .LVU1854
1841:./Libraries/STM32H7xx_HAL_Driver/Src/stm32h7xx_hal_nand.c ****     __DSB();
 5483              		.loc 1 1841 64 is_stmt 0 discriminator 2 view .LVU1855
 5484 004e 876B     		ldr	r7, [r0, #56]
 5485 0050 4B88     		ldrh	r3, [r1, #2]
 5486 0052 B1F804C0 		ldrh	ip, [r1, #4]
 5487 0056 C66A     		ldr	r6, [r0, #44]
 5488 0058 07FB03C3 		mla	r3, r7, r3, ip
 5489 005c 0F88     		ldrh	r7, [r1]
 5490 005e 06FB0373 		mla	r3, r6, r3, r7
 5491 0062 C3F30723 		ubfx	r3, r3, #8, #8
1841:./Libraries/STM32H7xx_HAL_Driver/Src/stm32h7xx_hal_nand.c ****     __DSB();
 5492              		.loc 1 1841 62 discriminator 2 view .LVU1856
 5493 0066 2370     		strb	r3, [r4]
1842:./Libraries/STM32H7xx_HAL_Driver/Src/stm32h7xx_hal_nand.c ****     *(__IO uint8_t *)((uint32_t)(deviceaddress | ADDR_AREA)) = ADDR_3RD_CYCLE(ARRAY_ADDRESS(pAddres
 5494              		.loc 1 1842 5 is_stmt 1 discriminator 2 view .LVU1857
 5495              	.LBB936:
ARM GAS  /tmp/cc5RRSLv.s 			page 181


 5496              	.LBI936:
 944:./Libraries/CMSIS/Core/Include/cmsis_gcc.h **** {
 5497              		.loc 2 944 27 discriminator 2 view .LVU1858
 5498              	.LBB937:
 946:./Libraries/CMSIS/Core/Include/cmsis_gcc.h **** }
 5499              		.loc 2 946 3 discriminator 2 view .LVU1859
 5500              		.syntax unified
 5501              	@ 946 "./Libraries/CMSIS/Core/Include/cmsis_gcc.h" 1
 5502 0068 BFF34F8F 		dsb 0xF
 5503              	@ 0 "" 2
 5504              		.thumb
 5505              		.syntax unified
 5506              	.LBE937:
 5507              	.LBE936:
1843:./Libraries/STM32H7xx_HAL_Driver/Src/stm32h7xx_hal_nand.c ****     __DSB();
 5508              		.loc 1 1843 5 discriminator 2 view .LVU1860
1843:./Libraries/STM32H7xx_HAL_Driver/Src/stm32h7xx_hal_nand.c ****     __DSB();
 5509              		.loc 1 1843 64 is_stmt 0 discriminator 2 view .LVU1861
 5510 006c 4B88     		ldrh	r3, [r1, #2]
 5511 006e 866B     		ldr	r6, [r0, #56]
 5512 0070 8F88     		ldrh	r7, [r1, #4]
 5513 0072 0988     		ldrh	r1, [r1]
 5514              	.LVL251:
1843:./Libraries/STM32H7xx_HAL_Driver/Src/stm32h7xx_hal_nand.c ****     __DSB();
 5515              		.loc 1 1843 64 discriminator 2 view .LVU1862
 5516 0074 06FB0373 		mla	r3, r6, r3, r7
 5517 0078 C66A     		ldr	r6, [r0, #44]
 5518 007a 06FB0313 		mla	r3, r6, r3, r1
 5519 007e C3F30743 		ubfx	r3, r3, #16, #8
1843:./Libraries/STM32H7xx_HAL_Driver/Src/stm32h7xx_hal_nand.c ****     __DSB();
 5520              		.loc 1 1843 62 discriminator 2 view .LVU1863
 5521 0082 2370     		strb	r3, [r4]
1844:./Libraries/STM32H7xx_HAL_Driver/Src/stm32h7xx_hal_nand.c **** 
 5522              		.loc 1 1844 5 is_stmt 1 discriminator 2 view .LVU1864
 5523              	.LBB938:
 5524              	.LBI938:
 944:./Libraries/CMSIS/Core/Include/cmsis_gcc.h **** {
 5525              		.loc 2 944 27 discriminator 2 view .LVU1865
 5526              	.LBB939:
 946:./Libraries/CMSIS/Core/Include/cmsis_gcc.h **** }
 5527              		.loc 2 946 3 discriminator 2 view .LVU1866
 5528              		.syntax unified
 5529              	@ 946 "./Libraries/CMSIS/Core/Include/cmsis_gcc.h" 1
 5530 0084 BFF34F8F 		dsb 0xF
 5531              	@ 0 "" 2
 5532              		.thumb
 5533              		.syntax unified
 5534              	.LBE939:
 5535              	.LBE938:
1846:./Libraries/STM32H7xx_HAL_Driver/Src/stm32h7xx_hal_nand.c ****     __DSB();
 5536              		.loc 1 1846 5 discriminator 2 view .LVU1867
1846:./Libraries/STM32H7xx_HAL_Driver/Src/stm32h7xx_hal_nand.c ****     __DSB();
 5537              		.loc 1 1846 61 is_stmt 0 discriminator 2 view .LVU1868
 5538 0088 D023     		movs	r3, #208
 5539 008a 2B70     		strb	r3, [r5]
1847:./Libraries/STM32H7xx_HAL_Driver/Src/stm32h7xx_hal_nand.c **** 
 5540              		.loc 1 1847 5 is_stmt 1 discriminator 2 view .LVU1869
ARM GAS  /tmp/cc5RRSLv.s 			page 182


 5541              	.LBB940:
 5542              	.LBI940:
 944:./Libraries/CMSIS/Core/Include/cmsis_gcc.h **** {
 5543              		.loc 2 944 27 discriminator 2 view .LVU1870
 5544              	.LBB941:
 946:./Libraries/CMSIS/Core/Include/cmsis_gcc.h **** }
 5545              		.loc 2 946 3 discriminator 2 view .LVU1871
 5546              		.syntax unified
 5547              	@ 946 "./Libraries/CMSIS/Core/Include/cmsis_gcc.h" 1
 5548 008c BFF34F8F 		dsb 0xF
 5549              	@ 0 "" 2
 5550              		.thumb
 5551              		.syntax unified
 5552              	.LBE941:
 5553              	.LBE940:
1850:./Libraries/STM32H7xx_HAL_Driver/Src/stm32h7xx_hal_nand.c **** 
 5554              		.loc 1 1850 5 discriminator 2 view .LVU1872
1853:./Libraries/STM32H7xx_HAL_Driver/Src/stm32h7xx_hal_nand.c ****   }
 5555              		.loc 1 1853 5 is_stmt 0 discriminator 2 view .LVU1873
 5556 0090 0023     		movs	r3, #0
1850:./Libraries/STM32H7xx_HAL_Driver/Src/stm32h7xx_hal_nand.c **** 
 5557              		.loc 1 1850 18 discriminator 2 view .LVU1874
 5558 0092 80F82120 		strb	r2, [r0, #33]
1853:./Libraries/STM32H7xx_HAL_Driver/Src/stm32h7xx_hal_nand.c ****   }
 5559              		.loc 1 1853 5 is_stmt 1 discriminator 2 view .LVU1875
1853:./Libraries/STM32H7xx_HAL_Driver/Src/stm32h7xx_hal_nand.c ****   }
 5560              		.loc 1 1853 5 discriminator 2 view .LVU1876
 5561 0096 80F82030 		strb	r3, [r0, #32]
1853:./Libraries/STM32H7xx_HAL_Driver/Src/stm32h7xx_hal_nand.c ****   }
 5562              		.loc 1 1853 5 discriminator 2 view .LVU1877
1860:./Libraries/STM32H7xx_HAL_Driver/Src/stm32h7xx_hal_nand.c **** }
 5563              		.loc 1 1860 3 discriminator 2 view .LVU1878
1861:./Libraries/STM32H7xx_HAL_Driver/Src/stm32h7xx_hal_nand.c **** 
 5564              		.loc 1 1861 1 is_stmt 0 discriminator 2 view .LVU1879
 5565 009a 1846     		mov	r0, r3
 5566              	.LVL252:
1861:./Libraries/STM32H7xx_HAL_Driver/Src/stm32h7xx_hal_nand.c **** 
 5567              		.loc 1 1861 1 discriminator 2 view .LVU1880
 5568 009c F0BC     		pop	{r4, r5, r6, r7}
 5569              	.LCFI73:
 5570              		.cfi_restore 7
 5571              		.cfi_restore 6
 5572              		.cfi_restore 5
 5573              		.cfi_restore 4
 5574              		.cfi_def_cfa_offset 0
 5575 009e 7047     		bx	lr
 5576              	.LVL253:
 5577              	.L352:
1857:./Libraries/STM32H7xx_HAL_Driver/Src/stm32h7xx_hal_nand.c ****   }
 5578              		.loc 1 1857 12 view .LVU1881
 5579 00a0 0123     		movs	r3, #1
 5580              	.L358:
1861:./Libraries/STM32H7xx_HAL_Driver/Src/stm32h7xx_hal_nand.c **** 
 5581              		.loc 1 1861 1 view .LVU1882
 5582 00a2 1846     		mov	r0, r3
 5583              	.LVL254:
1861:./Libraries/STM32H7xx_HAL_Driver/Src/stm32h7xx_hal_nand.c **** 
ARM GAS  /tmp/cc5RRSLv.s 			page 183


 5584              		.loc 1 1861 1 view .LVU1883
 5585 00a4 7047     		bx	lr
 5586              	.LVL255:
 5587              	.L353:
1823:./Libraries/STM32H7xx_HAL_Driver/Src/stm32h7xx_hal_nand.c ****   }
 5588              		.loc 1 1823 12 view .LVU1884
 5589 00a6 0223     		movs	r3, #2
 5590 00a8 FBE7     		b	.L358
 5591              	.L362:
 5592 00aa 00BF     		.align	2
 5593              	.L361:
 5594 00ac 00000180 		.word	-2147418112
 5595 00b0 00000280 		.word	-2147352576
 5596              		.cfi_endproc
 5597              	.LFE348:
 5599              		.section	.text.HAL_NAND_Address_Inc,"ax",%progbits
 5600              		.align	1
 5601              		.p2align 2,,3
 5602              		.global	HAL_NAND_Address_Inc
 5603              		.syntax unified
 5604              		.thumb
 5605              		.thumb_func
 5606              		.fpu fpv5-d16
 5608              	HAL_NAND_Address_Inc:
 5609              	.LVL256:
 5610              	.LFB349:
1873:./Libraries/STM32H7xx_HAL_Driver/Src/stm32h7xx_hal_nand.c ****   uint32_t status = NAND_VALID_ADDRESS;
 5611              		.loc 1 1873 1 is_stmt 1 view -0
 5612              		.cfi_startproc
 5613              		@ args = 0, pretend = 0, frame = 0
 5614              		@ frame_needed = 0, uses_anonymous_args = 0
 5615              		@ link register save eliminated.
1874:./Libraries/STM32H7xx_HAL_Driver/Src/stm32h7xx_hal_nand.c **** 
 5616              		.loc 1 1874 3 view .LVU1886
1877:./Libraries/STM32H7xx_HAL_Driver/Src/stm32h7xx_hal_nand.c **** 
 5617              		.loc 1 1877 3 view .LVU1887
1877:./Libraries/STM32H7xx_HAL_Driver/Src/stm32h7xx_hal_nand.c **** 
 5618              		.loc 1 1877 17 is_stmt 0 view .LVU1888
 5619 0000 0B88     		ldrh	r3, [r1]
1880:./Libraries/STM32H7xx_HAL_Driver/Src/stm32h7xx_hal_nand.c ****   {
 5620              		.loc 1 1880 6 view .LVU1889
 5621 0002 C26A     		ldr	r2, [r0, #44]
1877:./Libraries/STM32H7xx_HAL_Driver/Src/stm32h7xx_hal_nand.c **** 
 5622              		.loc 1 1877 17 view .LVU1890
 5623 0004 0133     		adds	r3, r3, #1
 5624 0006 9BB2     		uxth	r3, r3
1880:./Libraries/STM32H7xx_HAL_Driver/Src/stm32h7xx_hal_nand.c ****   {
 5625              		.loc 1 1880 6 view .LVU1891
 5626 0008 9342     		cmp	r3, r2
1877:./Libraries/STM32H7xx_HAL_Driver/Src/stm32h7xx_hal_nand.c **** 
 5627              		.loc 1 1877 17 view .LVU1892
 5628 000a 0B80     		strh	r3, [r1]	@ movhi
1880:./Libraries/STM32H7xx_HAL_Driver/Src/stm32h7xx_hal_nand.c ****   {
 5629              		.loc 1 1880 3 is_stmt 1 view .LVU1893
1880:./Libraries/STM32H7xx_HAL_Driver/Src/stm32h7xx_hal_nand.c ****   {
 5630              		.loc 1 1880 6 is_stmt 0 view .LVU1894
 5631 000c 02D0     		beq	.L364
ARM GAS  /tmp/cc5RRSLv.s 			page 184


1874:./Libraries/STM32H7xx_HAL_Driver/Src/stm32h7xx_hal_nand.c **** 
 5632              		.loc 1 1874 12 view .LVU1895
 5633 000e 4FF48070 		mov	r0, #256
 5634              	.LVL257:
1898:./Libraries/STM32H7xx_HAL_Driver/Src/stm32h7xx_hal_nand.c **** 
 5635              		.loc 1 1898 1 view .LVU1896
 5636 0012 7047     		bx	lr
 5637              	.LVL258:
 5638              	.L364:
1882:./Libraries/STM32H7xx_HAL_Driver/Src/stm32h7xx_hal_nand.c ****     pAddress->Block++;
 5639              		.loc 1 1882 5 is_stmt 1 view .LVU1897
1883:./Libraries/STM32H7xx_HAL_Driver/Src/stm32h7xx_hal_nand.c **** 
 5640              		.loc 1 1883 20 is_stmt 0 view .LVU1898
 5641 0014 8B88     		ldrh	r3, [r1, #4]
1882:./Libraries/STM32H7xx_HAL_Driver/Src/stm32h7xx_hal_nand.c ****     pAddress->Block++;
 5642              		.loc 1 1882 20 view .LVU1899
 5643 0016 0022     		movs	r2, #0
1883:./Libraries/STM32H7xx_HAL_Driver/Src/stm32h7xx_hal_nand.c **** 
 5644              		.loc 1 1883 20 view .LVU1900
 5645 0018 0133     		adds	r3, r3, #1
1873:./Libraries/STM32H7xx_HAL_Driver/Src/stm32h7xx_hal_nand.c ****   uint32_t status = NAND_VALID_ADDRESS;
 5646              		.loc 1 1873 1 view .LVU1901
 5647 001a 10B4     		push	{r4}
 5648              	.LCFI74:
 5649              		.cfi_def_cfa_offset 4
 5650              		.cfi_offset 4, -4
1883:./Libraries/STM32H7xx_HAL_Driver/Src/stm32h7xx_hal_nand.c **** 
 5651              		.loc 1 1883 20 view .LVU1902
 5652 001c 9BB2     		uxth	r3, r3
1885:./Libraries/STM32H7xx_HAL_Driver/Src/stm32h7xx_hal_nand.c ****     {
 5653              		.loc 1 1885 8 view .LVU1903
 5654 001e 846B     		ldr	r4, [r0, #56]
1882:./Libraries/STM32H7xx_HAL_Driver/Src/stm32h7xx_hal_nand.c ****     pAddress->Block++;
 5655              		.loc 1 1882 20 view .LVU1904
 5656 0020 0A80     		strh	r2, [r1]	@ movhi
1883:./Libraries/STM32H7xx_HAL_Driver/Src/stm32h7xx_hal_nand.c **** 
 5657              		.loc 1 1883 5 is_stmt 1 view .LVU1905
1885:./Libraries/STM32H7xx_HAL_Driver/Src/stm32h7xx_hal_nand.c ****     {
 5658              		.loc 1 1885 8 is_stmt 0 view .LVU1906
 5659 0022 A342     		cmp	r3, r4
1883:./Libraries/STM32H7xx_HAL_Driver/Src/stm32h7xx_hal_nand.c **** 
 5660              		.loc 1 1883 20 view .LVU1907
 5661 0024 8B80     		strh	r3, [r1, #4]	@ movhi
1885:./Libraries/STM32H7xx_HAL_Driver/Src/stm32h7xx_hal_nand.c ****     {
 5662              		.loc 1 1885 5 is_stmt 1 view .LVU1908
1885:./Libraries/STM32H7xx_HAL_Driver/Src/stm32h7xx_hal_nand.c ****     {
 5663              		.loc 1 1885 8 is_stmt 0 view .LVU1909
 5664 0026 04D0     		beq	.L370
 5665              	.LVL259:
 5666              	.L366:
1874:./Libraries/STM32H7xx_HAL_Driver/Src/stm32h7xx_hal_nand.c **** 
 5667              		.loc 1 1874 12 view .LVU1910
 5668 0028 4FF48070 		mov	r0, #256
 5669              	.LVL260:
 5670              	.L363:
1898:./Libraries/STM32H7xx_HAL_Driver/Src/stm32h7xx_hal_nand.c **** 
 5671              		.loc 1 1898 1 view .LVU1911
ARM GAS  /tmp/cc5RRSLv.s 			page 185


 5672 002c 5DF8044B 		ldr	r4, [sp], #4
 5673              	.LCFI75:
 5674              		.cfi_remember_state
 5675              		.cfi_restore 4
 5676              		.cfi_def_cfa_offset 0
 5677 0030 7047     		bx	lr
 5678              	.LVL261:
 5679              	.L370:
 5680              	.LCFI76:
 5681              		.cfi_restore_state
1887:./Libraries/STM32H7xx_HAL_Driver/Src/stm32h7xx_hal_nand.c ****       pAddress->Plane++;
 5682              		.loc 1 1887 7 is_stmt 1 view .LVU1912
1888:./Libraries/STM32H7xx_HAL_Driver/Src/stm32h7xx_hal_nand.c **** 
 5683              		.loc 1 1888 22 is_stmt 0 view .LVU1913
 5684 0032 4B88     		ldrh	r3, [r1, #2]
1890:./Libraries/STM32H7xx_HAL_Driver/Src/stm32h7xx_hal_nand.c ****       {
 5685              		.loc 1 1890 10 view .LVU1914
 5686 0034 406B     		ldr	r0, [r0, #52]
 5687              	.LVL262:
1888:./Libraries/STM32H7xx_HAL_Driver/Src/stm32h7xx_hal_nand.c **** 
 5688              		.loc 1 1888 22 view .LVU1915
 5689 0036 0133     		adds	r3, r3, #1
1887:./Libraries/STM32H7xx_HAL_Driver/Src/stm32h7xx_hal_nand.c ****       pAddress->Plane++;
 5690              		.loc 1 1887 23 view .LVU1916
 5691 0038 8A80     		strh	r2, [r1, #4]	@ movhi
1888:./Libraries/STM32H7xx_HAL_Driver/Src/stm32h7xx_hal_nand.c **** 
 5692              		.loc 1 1888 7 is_stmt 1 view .LVU1917
1888:./Libraries/STM32H7xx_HAL_Driver/Src/stm32h7xx_hal_nand.c **** 
 5693              		.loc 1 1888 22 is_stmt 0 view .LVU1918
 5694 003a 9BB2     		uxth	r3, r3
1890:./Libraries/STM32H7xx_HAL_Driver/Src/stm32h7xx_hal_nand.c ****       {
 5695              		.loc 1 1890 10 view .LVU1919
 5696 003c 8342     		cmp	r3, r0
1888:./Libraries/STM32H7xx_HAL_Driver/Src/stm32h7xx_hal_nand.c **** 
 5697              		.loc 1 1888 22 view .LVU1920
 5698 003e 4B80     		strh	r3, [r1, #2]	@ movhi
1890:./Libraries/STM32H7xx_HAL_Driver/Src/stm32h7xx_hal_nand.c ****       {
 5699              		.loc 1 1890 7 is_stmt 1 view .LVU1921
1890:./Libraries/STM32H7xx_HAL_Driver/Src/stm32h7xx_hal_nand.c ****       {
 5700              		.loc 1 1890 10 is_stmt 0 view .LVU1922
 5701 0040 F2D1     		bne	.L366
1892:./Libraries/STM32H7xx_HAL_Driver/Src/stm32h7xx_hal_nand.c ****       }
 5702              		.loc 1 1892 16 view .LVU1923
 5703 0042 4FF40070 		mov	r0, #512
 5704              	.LVL263:
1897:./Libraries/STM32H7xx_HAL_Driver/Src/stm32h7xx_hal_nand.c **** }
 5705              		.loc 1 1897 3 is_stmt 1 view .LVU1924
1897:./Libraries/STM32H7xx_HAL_Driver/Src/stm32h7xx_hal_nand.c **** }
 5706              		.loc 1 1897 10 is_stmt 0 view .LVU1925
 5707 0046 F1E7     		b	.L363
 5708              		.cfi_endproc
 5709              	.LFE349:
 5711              		.section	.text.HAL_NAND_ECC_Enable,"ax",%progbits
 5712              		.align	1
 5713              		.p2align 2,,3
 5714              		.global	HAL_NAND_ECC_Enable
 5715              		.syntax unified
ARM GAS  /tmp/cc5RRSLv.s 			page 186


 5716              		.thumb
 5717              		.thumb_func
 5718              		.fpu fpv5-d16
 5720              	HAL_NAND_ECC_Enable:
 5721              	.LVL264:
 5722              	.LFB350:
2064:./Libraries/STM32H7xx_HAL_Driver/Src/stm32h7xx_hal_nand.c ****   /* Check the NAND controller state */
 5723              		.loc 1 2064 1 is_stmt 1 view -0
 5724              		.cfi_startproc
 5725              		@ args = 0, pretend = 0, frame = 0
 5726              		@ frame_needed = 0, uses_anonymous_args = 0
2066:./Libraries/STM32H7xx_HAL_Driver/Src/stm32h7xx_hal_nand.c ****   {
 5727              		.loc 1 2066 3 view .LVU1927
2064:./Libraries/STM32H7xx_HAL_Driver/Src/stm32h7xx_hal_nand.c ****   /* Check the NAND controller state */
 5728              		.loc 1 2064 1 is_stmt 0 view .LVU1928
 5729 0000 38B5     		push	{r3, r4, r5, lr}
 5730              	.LCFI77:
 5731              		.cfi_def_cfa_offset 16
 5732              		.cfi_offset 3, -16
 5733              		.cfi_offset 4, -12
 5734              		.cfi_offset 5, -8
 5735              		.cfi_offset 14, -4
2066:./Libraries/STM32H7xx_HAL_Driver/Src/stm32h7xx_hal_nand.c ****   {
 5736              		.loc 1 2066 12 view .LVU1929
 5737 0002 90F82130 		ldrb	r3, [r0, #33]	@ zero_extendqisi2
2064:./Libraries/STM32H7xx_HAL_Driver/Src/stm32h7xx_hal_nand.c ****   /* Check the NAND controller state */
 5738              		.loc 1 2064 1 view .LVU1930
 5739 0006 0446     		mov	r4, r0
2066:./Libraries/STM32H7xx_HAL_Driver/Src/stm32h7xx_hal_nand.c ****   {
 5740              		.loc 1 2066 6 view .LVU1931
 5741 0008 022B     		cmp	r3, #2
2066:./Libraries/STM32H7xx_HAL_Driver/Src/stm32h7xx_hal_nand.c ****   {
 5742              		.loc 1 2066 12 view .LVU1932
 5743 000a D8B2     		uxtb	r0, r3
 5744              	.LVL265:
2066:./Libraries/STM32H7xx_HAL_Driver/Src/stm32h7xx_hal_nand.c ****   {
 5745              		.loc 1 2066 6 view .LVU1933
 5746 000c 05D0     		beq	.L372
2070:./Libraries/STM32H7xx_HAL_Driver/Src/stm32h7xx_hal_nand.c ****   {
 5747              		.loc 1 2070 8 is_stmt 1 view .LVU1934
2070:./Libraries/STM32H7xx_HAL_Driver/Src/stm32h7xx_hal_nand.c ****   {
 5748              		.loc 1 2070 17 is_stmt 0 view .LVU1935
 5749 000e 94F82130 		ldrb	r3, [r4, #33]	@ zero_extendqisi2
2070:./Libraries/STM32H7xx_HAL_Driver/Src/stm32h7xx_hal_nand.c ****   {
 5750              		.loc 1 2070 11 view .LVU1936
 5751 0012 012B     		cmp	r3, #1
2070:./Libraries/STM32H7xx_HAL_Driver/Src/stm32h7xx_hal_nand.c ****   {
 5752              		.loc 1 2070 17 view .LVU1937
 5753 0014 DDB2     		uxtb	r5, r3
2070:./Libraries/STM32H7xx_HAL_Driver/Src/stm32h7xx_hal_nand.c ****   {
 5754              		.loc 1 2070 11 view .LVU1938
 5755 0016 01D0     		beq	.L378
2083:./Libraries/STM32H7xx_HAL_Driver/Src/stm32h7xx_hal_nand.c ****   }
 5756              		.loc 1 2083 12 view .LVU1939
 5757 0018 0120     		movs	r0, #1
 5758              	.L372:
2087:./Libraries/STM32H7xx_HAL_Driver/Src/stm32h7xx_hal_nand.c **** 
ARM GAS  /tmp/cc5RRSLv.s 			page 187


 5759              		.loc 1 2087 1 view .LVU1940
 5760 001a 38BD     		pop	{r3, r4, r5, pc}
 5761              	.LVL266:
 5762              	.L378:
2073:./Libraries/STM32H7xx_HAL_Driver/Src/stm32h7xx_hal_nand.c **** 
 5763              		.loc 1 2073 5 is_stmt 1 view .LVU1941
2073:./Libraries/STM32H7xx_HAL_Driver/Src/stm32h7xx_hal_nand.c **** 
 5764              		.loc 1 2073 18 is_stmt 0 view .LVU1942
 5765 001c 0223     		movs	r3, #2
2076:./Libraries/STM32H7xx_HAL_Driver/Src/stm32h7xx_hal_nand.c **** 
 5766              		.loc 1 2076 11 view .LVU1943
 5767 001e D4E90001 		ldrd	r0, r1, [r4]
2073:./Libraries/STM32H7xx_HAL_Driver/Src/stm32h7xx_hal_nand.c **** 
 5768              		.loc 1 2073 18 view .LVU1944
 5769 0022 84F82130 		strb	r3, [r4, #33]
2076:./Libraries/STM32H7xx_HAL_Driver/Src/stm32h7xx_hal_nand.c **** 
 5770              		.loc 1 2076 5 is_stmt 1 view .LVU1945
2076:./Libraries/STM32H7xx_HAL_Driver/Src/stm32h7xx_hal_nand.c **** 
 5771              		.loc 1 2076 11 is_stmt 0 view .LVU1946
 5772 0026 FFF7FEFF 		bl	FMC_NAND_ECC_Enable
 5773              	.LVL267:
2079:./Libraries/STM32H7xx_HAL_Driver/Src/stm32h7xx_hal_nand.c ****   }
 5774              		.loc 1 2079 5 is_stmt 1 view .LVU1947
2086:./Libraries/STM32H7xx_HAL_Driver/Src/stm32h7xx_hal_nand.c **** }
 5775              		.loc 1 2086 10 is_stmt 0 view .LVU1948
 5776 002a 0020     		movs	r0, #0
2079:./Libraries/STM32H7xx_HAL_Driver/Src/stm32h7xx_hal_nand.c ****   }
 5777              		.loc 1 2079 18 view .LVU1949
 5778 002c 84F82150 		strb	r5, [r4, #33]
2086:./Libraries/STM32H7xx_HAL_Driver/Src/stm32h7xx_hal_nand.c **** }
 5779              		.loc 1 2086 3 is_stmt 1 view .LVU1950
2087:./Libraries/STM32H7xx_HAL_Driver/Src/stm32h7xx_hal_nand.c **** 
 5780              		.loc 1 2087 1 is_stmt 0 view .LVU1951
 5781 0030 38BD     		pop	{r3, r4, r5, pc}
2087:./Libraries/STM32H7xx_HAL_Driver/Src/stm32h7xx_hal_nand.c **** 
 5782              		.loc 1 2087 1 view .LVU1952
 5783              		.cfi_endproc
 5784              	.LFE350:
 5786 0032 00BF     		.section	.text.HAL_NAND_ECC_Disable,"ax",%progbits
 5787              		.align	1
 5788              		.p2align 2,,3
 5789              		.global	HAL_NAND_ECC_Disable
 5790              		.syntax unified
 5791              		.thumb
 5792              		.thumb_func
 5793              		.fpu fpv5-d16
 5795              	HAL_NAND_ECC_Disable:
 5796              	.LVL268:
 5797              	.LFB351:
2096:./Libraries/STM32H7xx_HAL_Driver/Src/stm32h7xx_hal_nand.c ****   /* Check the NAND controller state */
 5798              		.loc 1 2096 1 is_stmt 1 view -0
 5799              		.cfi_startproc
 5800              		@ args = 0, pretend = 0, frame = 0
 5801              		@ frame_needed = 0, uses_anonymous_args = 0
2098:./Libraries/STM32H7xx_HAL_Driver/Src/stm32h7xx_hal_nand.c ****   {
 5802              		.loc 1 2098 3 view .LVU1954
2096:./Libraries/STM32H7xx_HAL_Driver/Src/stm32h7xx_hal_nand.c ****   /* Check the NAND controller state */
ARM GAS  /tmp/cc5RRSLv.s 			page 188


 5803              		.loc 1 2096 1 is_stmt 0 view .LVU1955
 5804 0000 38B5     		push	{r3, r4, r5, lr}
 5805              	.LCFI78:
 5806              		.cfi_def_cfa_offset 16
 5807              		.cfi_offset 3, -16
 5808              		.cfi_offset 4, -12
 5809              		.cfi_offset 5, -8
 5810              		.cfi_offset 14, -4
2098:./Libraries/STM32H7xx_HAL_Driver/Src/stm32h7xx_hal_nand.c ****   {
 5811              		.loc 1 2098 12 view .LVU1956
 5812 0002 90F82130 		ldrb	r3, [r0, #33]	@ zero_extendqisi2
2096:./Libraries/STM32H7xx_HAL_Driver/Src/stm32h7xx_hal_nand.c ****   /* Check the NAND controller state */
 5813              		.loc 1 2096 1 view .LVU1957
 5814 0006 0446     		mov	r4, r0
2098:./Libraries/STM32H7xx_HAL_Driver/Src/stm32h7xx_hal_nand.c ****   {
 5815              		.loc 1 2098 6 view .LVU1958
 5816 0008 022B     		cmp	r3, #2
2098:./Libraries/STM32H7xx_HAL_Driver/Src/stm32h7xx_hal_nand.c ****   {
 5817              		.loc 1 2098 12 view .LVU1959
 5818 000a D8B2     		uxtb	r0, r3
 5819              	.LVL269:
2098:./Libraries/STM32H7xx_HAL_Driver/Src/stm32h7xx_hal_nand.c ****   {
 5820              		.loc 1 2098 6 view .LVU1960
 5821 000c 05D0     		beq	.L380
2102:./Libraries/STM32H7xx_HAL_Driver/Src/stm32h7xx_hal_nand.c ****   {
 5822              		.loc 1 2102 8 is_stmt 1 view .LVU1961
2102:./Libraries/STM32H7xx_HAL_Driver/Src/stm32h7xx_hal_nand.c ****   {
 5823              		.loc 1 2102 17 is_stmt 0 view .LVU1962
 5824 000e 94F82130 		ldrb	r3, [r4, #33]	@ zero_extendqisi2
2102:./Libraries/STM32H7xx_HAL_Driver/Src/stm32h7xx_hal_nand.c ****   {
 5825              		.loc 1 2102 11 view .LVU1963
 5826 0012 012B     		cmp	r3, #1
2102:./Libraries/STM32H7xx_HAL_Driver/Src/stm32h7xx_hal_nand.c ****   {
 5827              		.loc 1 2102 17 view .LVU1964
 5828 0014 DDB2     		uxtb	r5, r3
2102:./Libraries/STM32H7xx_HAL_Driver/Src/stm32h7xx_hal_nand.c ****   {
 5829              		.loc 1 2102 11 view .LVU1965
 5830 0016 01D0     		beq	.L386
2115:./Libraries/STM32H7xx_HAL_Driver/Src/stm32h7xx_hal_nand.c ****   }
 5831              		.loc 1 2115 12 view .LVU1966
 5832 0018 0120     		movs	r0, #1
 5833              	.L380:
2119:./Libraries/STM32H7xx_HAL_Driver/Src/stm32h7xx_hal_nand.c **** 
 5834              		.loc 1 2119 1 view .LVU1967
 5835 001a 38BD     		pop	{r3, r4, r5, pc}
 5836              	.LVL270:
 5837              	.L386:
2105:./Libraries/STM32H7xx_HAL_Driver/Src/stm32h7xx_hal_nand.c **** 
 5838              		.loc 1 2105 5 is_stmt 1 view .LVU1968
2105:./Libraries/STM32H7xx_HAL_Driver/Src/stm32h7xx_hal_nand.c **** 
 5839              		.loc 1 2105 18 is_stmt 0 view .LVU1969
 5840 001c 0223     		movs	r3, #2
2108:./Libraries/STM32H7xx_HAL_Driver/Src/stm32h7xx_hal_nand.c **** 
 5841              		.loc 1 2108 11 view .LVU1970
 5842 001e D4E90001 		ldrd	r0, r1, [r4]
2105:./Libraries/STM32H7xx_HAL_Driver/Src/stm32h7xx_hal_nand.c **** 
 5843              		.loc 1 2105 18 view .LVU1971
ARM GAS  /tmp/cc5RRSLv.s 			page 189


 5844 0022 84F82130 		strb	r3, [r4, #33]
2108:./Libraries/STM32H7xx_HAL_Driver/Src/stm32h7xx_hal_nand.c **** 
 5845              		.loc 1 2108 5 is_stmt 1 view .LVU1972
2108:./Libraries/STM32H7xx_HAL_Driver/Src/stm32h7xx_hal_nand.c **** 
 5846              		.loc 1 2108 11 is_stmt 0 view .LVU1973
 5847 0026 FFF7FEFF 		bl	FMC_NAND_ECC_Disable
 5848              	.LVL271:
2111:./Libraries/STM32H7xx_HAL_Driver/Src/stm32h7xx_hal_nand.c ****   }
 5849              		.loc 1 2111 5 is_stmt 1 view .LVU1974
2118:./Libraries/STM32H7xx_HAL_Driver/Src/stm32h7xx_hal_nand.c **** }
 5850              		.loc 1 2118 10 is_stmt 0 view .LVU1975
 5851 002a 0020     		movs	r0, #0
2111:./Libraries/STM32H7xx_HAL_Driver/Src/stm32h7xx_hal_nand.c ****   }
 5852              		.loc 1 2111 18 view .LVU1976
 5853 002c 84F82150 		strb	r5, [r4, #33]
2118:./Libraries/STM32H7xx_HAL_Driver/Src/stm32h7xx_hal_nand.c **** }
 5854              		.loc 1 2118 3 is_stmt 1 view .LVU1977
2119:./Libraries/STM32H7xx_HAL_Driver/Src/stm32h7xx_hal_nand.c **** 
 5855              		.loc 1 2119 1 is_stmt 0 view .LVU1978
 5856 0030 38BD     		pop	{r3, r4, r5, pc}
2119:./Libraries/STM32H7xx_HAL_Driver/Src/stm32h7xx_hal_nand.c **** 
 5857              		.loc 1 2119 1 view .LVU1979
 5858              		.cfi_endproc
 5859              	.LFE351:
 5861 0032 00BF     		.section	.text.HAL_NAND_GetECC,"ax",%progbits
 5862              		.align	1
 5863              		.p2align 2,,3
 5864              		.global	HAL_NAND_GetECC
 5865              		.syntax unified
 5866              		.thumb
 5867              		.thumb_func
 5868              		.fpu fpv5-d16
 5870              	HAL_NAND_GetECC:
 5871              	.LVL272:
 5872              	.LFB352:
2130:./Libraries/STM32H7xx_HAL_Driver/Src/stm32h7xx_hal_nand.c ****   HAL_StatusTypeDef status;
 5873              		.loc 1 2130 1 is_stmt 1 view -0
 5874              		.cfi_startproc
 5875              		@ args = 0, pretend = 0, frame = 0
 5876              		@ frame_needed = 0, uses_anonymous_args = 0
2131:./Libraries/STM32H7xx_HAL_Driver/Src/stm32h7xx_hal_nand.c **** 
 5877              		.loc 1 2131 3 view .LVU1981
2134:./Libraries/STM32H7xx_HAL_Driver/Src/stm32h7xx_hal_nand.c ****   {
 5878              		.loc 1 2134 3 view .LVU1982
2130:./Libraries/STM32H7xx_HAL_Driver/Src/stm32h7xx_hal_nand.c ****   HAL_StatusTypeDef status;
 5879              		.loc 1 2130 1 is_stmt 0 view .LVU1983
 5880 0000 38B5     		push	{r3, r4, r5, lr}
 5881              	.LCFI79:
 5882              		.cfi_def_cfa_offset 16
 5883              		.cfi_offset 3, -16
 5884              		.cfi_offset 4, -12
 5885              		.cfi_offset 5, -8
 5886              		.cfi_offset 14, -4
2134:./Libraries/STM32H7xx_HAL_Driver/Src/stm32h7xx_hal_nand.c ****   {
 5887              		.loc 1 2134 12 view .LVU1984
 5888 0002 90F82130 		ldrb	r3, [r0, #33]	@ zero_extendqisi2
2130:./Libraries/STM32H7xx_HAL_Driver/Src/stm32h7xx_hal_nand.c ****   HAL_StatusTypeDef status;
ARM GAS  /tmp/cc5RRSLv.s 			page 190


 5889              		.loc 1 2130 1 view .LVU1985
 5890 0006 0446     		mov	r4, r0
2134:./Libraries/STM32H7xx_HAL_Driver/Src/stm32h7xx_hal_nand.c ****   {
 5891              		.loc 1 2134 6 view .LVU1986
 5892 0008 022B     		cmp	r3, #2
2134:./Libraries/STM32H7xx_HAL_Driver/Src/stm32h7xx_hal_nand.c ****   {
 5893              		.loc 1 2134 12 view .LVU1987
 5894 000a D8B2     		uxtb	r0, r3
 5895              	.LVL273:
2134:./Libraries/STM32H7xx_HAL_Driver/Src/stm32h7xx_hal_nand.c ****   {
 5896              		.loc 1 2134 6 view .LVU1988
 5897 000c 05D0     		beq	.L388
2138:./Libraries/STM32H7xx_HAL_Driver/Src/stm32h7xx_hal_nand.c ****   {
 5898              		.loc 1 2138 8 is_stmt 1 view .LVU1989
2138:./Libraries/STM32H7xx_HAL_Driver/Src/stm32h7xx_hal_nand.c ****   {
 5899              		.loc 1 2138 17 is_stmt 0 view .LVU1990
 5900 000e 94F82130 		ldrb	r3, [r4, #33]	@ zero_extendqisi2
2138:./Libraries/STM32H7xx_HAL_Driver/Src/stm32h7xx_hal_nand.c ****   {
 5901              		.loc 1 2138 11 view .LVU1991
 5902 0012 012B     		cmp	r3, #1
2138:./Libraries/STM32H7xx_HAL_Driver/Src/stm32h7xx_hal_nand.c ****   {
 5903              		.loc 1 2138 17 view .LVU1992
 5904 0014 DDB2     		uxtb	r5, r3
2138:./Libraries/STM32H7xx_HAL_Driver/Src/stm32h7xx_hal_nand.c ****   {
 5905              		.loc 1 2138 11 view .LVU1993
 5906 0016 01D0     		beq	.L394
2151:./Libraries/STM32H7xx_HAL_Driver/Src/stm32h7xx_hal_nand.c ****   }
 5907              		.loc 1 2151 12 view .LVU1994
 5908 0018 0120     		movs	r0, #1
 5909              	.L388:
2155:./Libraries/STM32H7xx_HAL_Driver/Src/stm32h7xx_hal_nand.c **** 
 5910              		.loc 1 2155 1 view .LVU1995
 5911 001a 38BD     		pop	{r3, r4, r5, pc}
 5912              	.LVL274:
 5913              	.L394:
2141:./Libraries/STM32H7xx_HAL_Driver/Src/stm32h7xx_hal_nand.c **** 
 5914              		.loc 1 2141 5 is_stmt 1 view .LVU1996
2141:./Libraries/STM32H7xx_HAL_Driver/Src/stm32h7xx_hal_nand.c **** 
 5915              		.loc 1 2141 18 is_stmt 0 view .LVU1997
 5916 001c 0220     		movs	r0, #2
2144:./Libraries/STM32H7xx_HAL_Driver/Src/stm32h7xx_hal_nand.c **** 
 5917              		.loc 1 2144 14 view .LVU1998
 5918 001e 1346     		mov	r3, r2
 5919 0020 6268     		ldr	r2, [r4, #4]
 5920              	.LVL275:
2141:./Libraries/STM32H7xx_HAL_Driver/Src/stm32h7xx_hal_nand.c **** 
 5921              		.loc 1 2141 18 view .LVU1999
 5922 0022 84F82100 		strb	r0, [r4, #33]
2144:./Libraries/STM32H7xx_HAL_Driver/Src/stm32h7xx_hal_nand.c **** 
 5923              		.loc 1 2144 5 is_stmt 1 view .LVU2000
2144:./Libraries/STM32H7xx_HAL_Driver/Src/stm32h7xx_hal_nand.c **** 
 5924              		.loc 1 2144 14 is_stmt 0 view .LVU2001
 5925 0026 2068     		ldr	r0, [r4]
 5926 0028 FFF7FEFF 		bl	FMC_NAND_GetECC
 5927              	.LVL276:
2147:./Libraries/STM32H7xx_HAL_Driver/Src/stm32h7xx_hal_nand.c ****   }
 5928              		.loc 1 2147 18 view .LVU2002
ARM GAS  /tmp/cc5RRSLv.s 			page 191


 5929 002c 84F82150 		strb	r5, [r4, #33]
 5930              	.LVL277:
2147:./Libraries/STM32H7xx_HAL_Driver/Src/stm32h7xx_hal_nand.c ****   }
 5931              		.loc 1 2147 5 is_stmt 1 view .LVU2003
2154:./Libraries/STM32H7xx_HAL_Driver/Src/stm32h7xx_hal_nand.c **** }
 5932              		.loc 1 2154 3 view .LVU2004
2155:./Libraries/STM32H7xx_HAL_Driver/Src/stm32h7xx_hal_nand.c **** 
 5933              		.loc 1 2155 1 is_stmt 0 view .LVU2005
 5934 0030 38BD     		pop	{r3, r4, r5, pc}
2155:./Libraries/STM32H7xx_HAL_Driver/Src/stm32h7xx_hal_nand.c **** 
 5935              		.loc 1 2155 1 view .LVU2006
 5936              		.cfi_endproc
 5937              	.LFE352:
 5939 0032 00BF     		.section	.text.HAL_NAND_GetState,"ax",%progbits
 5940              		.align	1
 5941              		.p2align 2,,3
 5942              		.global	HAL_NAND_GetState
 5943              		.syntax unified
 5944              		.thumb
 5945              		.thumb_func
 5946              		.fpu fpv5-d16
 5948              	HAL_NAND_GetState:
 5949              	.LVL278:
 5950              	.LFB353:
2184:./Libraries/STM32H7xx_HAL_Driver/Src/stm32h7xx_hal_nand.c ****   return hnand->State;
 5951              		.loc 1 2184 1 is_stmt 1 view -0
 5952              		.cfi_startproc
 5953              		@ args = 0, pretend = 0, frame = 0
 5954              		@ frame_needed = 0, uses_anonymous_args = 0
 5955              		@ link register save eliminated.
2185:./Libraries/STM32H7xx_HAL_Driver/Src/stm32h7xx_hal_nand.c **** }
 5956              		.loc 1 2185 3 view .LVU2008
2185:./Libraries/STM32H7xx_HAL_Driver/Src/stm32h7xx_hal_nand.c **** }
 5957              		.loc 1 2185 15 is_stmt 0 view .LVU2009
 5958 0000 90F82100 		ldrb	r0, [r0, #33]	@ zero_extendqisi2
 5959              	.LVL279:
2186:./Libraries/STM32H7xx_HAL_Driver/Src/stm32h7xx_hal_nand.c **** 
 5960              		.loc 1 2186 1 view .LVU2010
 5961 0004 7047     		bx	lr
 5962              		.cfi_endproc
 5963              	.LFE353:
 5965 0006 00BF     		.section	.text.HAL_NAND_Read_Status,"ax",%progbits
 5966              		.align	1
 5967              		.p2align 2,,3
 5968              		.global	HAL_NAND_Read_Status
 5969              		.syntax unified
 5970              		.thumb
 5971              		.thumb_func
 5972              		.fpu fpv5-d16
 5974              	HAL_NAND_Read_Status:
 5975              	.LVL280:
 5976              	.LFB354:
2195:./Libraries/STM32H7xx_HAL_Driver/Src/stm32h7xx_hal_nand.c ****   uint32_t data;
 5977              		.loc 1 2195 1 is_stmt 1 view -0
 5978              		.cfi_startproc
 5979              		@ args = 0, pretend = 0, frame = 0
 5980              		@ frame_needed = 0, uses_anonymous_args = 0
ARM GAS  /tmp/cc5RRSLv.s 			page 192


 5981              		@ link register save eliminated.
2196:./Libraries/STM32H7xx_HAL_Driver/Src/stm32h7xx_hal_nand.c ****   uint32_t deviceaddress;
 5982              		.loc 1 2196 3 view .LVU2012
2197:./Libraries/STM32H7xx_HAL_Driver/Src/stm32h7xx_hal_nand.c ****   UNUSED(hnand);
 5983              		.loc 1 2197 3 view .LVU2013
2198:./Libraries/STM32H7xx_HAL_Driver/Src/stm32h7xx_hal_nand.c **** 
 5984              		.loc 1 2198 3 view .LVU2014
2201:./Libraries/STM32H7xx_HAL_Driver/Src/stm32h7xx_hal_nand.c **** 
 5985              		.loc 1 2201 3 view .LVU2015
2204:./Libraries/STM32H7xx_HAL_Driver/Src/stm32h7xx_hal_nand.c **** 
 5986              		.loc 1 2204 3 view .LVU2016
2204:./Libraries/STM32H7xx_HAL_Driver/Src/stm32h7xx_hal_nand.c **** 
 5987              		.loc 1 2204 59 is_stmt 0 view .LVU2017
 5988 0000 064A     		ldr	r2, .L400
 5989 0002 7021     		movs	r1, #112
2207:./Libraries/STM32H7xx_HAL_Driver/Src/stm32h7xx_hal_nand.c **** 
 5990              		.loc 1 2207 10 view .LVU2018
 5991 0004 4FF00043 		mov	r3, #-2147483648
2204:./Libraries/STM32H7xx_HAL_Driver/Src/stm32h7xx_hal_nand.c **** 
 5992              		.loc 1 2204 59 view .LVU2019
 5993 0008 1170     		strb	r1, [r2]
2207:./Libraries/STM32H7xx_HAL_Driver/Src/stm32h7xx_hal_nand.c **** 
 5994              		.loc 1 2207 3 is_stmt 1 view .LVU2020
2207:./Libraries/STM32H7xx_HAL_Driver/Src/stm32h7xx_hal_nand.c **** 
 5995              		.loc 1 2207 10 is_stmt 0 view .LVU2021
 5996 000a 1B78     		ldrb	r3, [r3]	@ zero_extendqisi2
 5997 000c D8B2     		uxtb	r0, r3
 5998              	.LVL281:
2210:./Libraries/STM32H7xx_HAL_Driver/Src/stm32h7xx_hal_nand.c ****   {
 5999              		.loc 1 2210 3 is_stmt 1 view .LVU2022
 6000              		.loc 1 2214 8 view .LVU2023
2210:./Libraries/STM32H7xx_HAL_Driver/Src/stm32h7xx_hal_nand.c ****   {
 6001              		.loc 1 2210 6 is_stmt 0 view .LVU2024
 6002 000e DB07     		lsls	r3, r3, #31
2215:./Libraries/STM32H7xx_HAL_Driver/Src/stm32h7xx_hal_nand.c ****   {
2216:./Libraries/STM32H7xx_HAL_Driver/Src/stm32h7xx_hal_nand.c ****     return NAND_READY;
2217:./Libraries/STM32H7xx_HAL_Driver/Src/stm32h7xx_hal_nand.c ****   }
2218:./Libraries/STM32H7xx_HAL_Driver/Src/stm32h7xx_hal_nand.c ****   else
2219:./Libraries/STM32H7xx_HAL_Driver/Src/stm32h7xx_hal_nand.c ****   {
2220:./Libraries/STM32H7xx_HAL_Driver/Src/stm32h7xx_hal_nand.c ****     return NAND_BUSY;
 6003              		.loc 1 2220 12 view .LVU2025
 6004 0010 54BF     		ite	pl
 6005 0012 00F04000 		andpl	r0, r0, #64
 6006              	.LVL282:
2212:./Libraries/STM32H7xx_HAL_Driver/Src/stm32h7xx_hal_nand.c ****   }
 6007              		.loc 1 2212 12 view .LVU2026
 6008 0016 0120     		movmi	r0, #1
2221:./Libraries/STM32H7xx_HAL_Driver/Src/stm32h7xx_hal_nand.c ****   }
2222:./Libraries/STM32H7xx_HAL_Driver/Src/stm32h7xx_hal_nand.c **** }
 6009              		.loc 1 2222 1 view .LVU2027
 6010 0018 7047     		bx	lr
 6011              	.L401:
 6012 001a 00BF     		.align	2
 6013              	.L400:
 6014 001c 00000180 		.word	-2147418112
 6015              		.cfi_endproc
 6016              	.LFE354:
ARM GAS  /tmp/cc5RRSLv.s 			page 193


 6018              		.text
 6019              	.Letext0:
 6020              		.file 3 "/usr/lib/gcc/arm-none-eabi/9.2.1/include/stdint.h"
 6021              		.file 4 "./Libraries/CMSIS/Core/Include/core_cm7.h"
 6022              		.file 5 "./Libraries/CMSIS/Device/ST/STM32H7xx/Include/system_stm32h7xx.h"
 6023              		.file 6 "./Libraries/CMSIS/Device/ST/STM32H7xx/Include/stm32h747xx.h"
 6024              		.file 7 "./Libraries/CMSIS/Device/ST/STM32H7xx/Include/stm32h7xx.h"
 6025              		.file 8 "/usr/lib/gcc/arm-none-eabi/9.2.1/include/stddef.h"
 6026              		.file 9 "/usr/include/newlib/sys/_types.h"
 6027              		.file 10 "/usr/include/newlib/sys/reent.h"
 6028              		.file 11 "/usr/include/newlib/sys/lock.h"
 6029              		.file 12 "/usr/include/newlib/math.h"
 6030              		.file 13 "./Libraries/STM32H7xx_HAL_Driver/Inc/stm32h7xx_hal_def.h"
 6031              		.file 14 "./Libraries/STM32H7xx_HAL_Driver/Inc/stm32h7xx_hal_flash.h"
 6032              		.file 15 "./Libraries/STM32H7xx_HAL_Driver/Inc/stm32h7xx_ll_fmc.h"
 6033              		.file 16 "./Libraries/STM32H7xx_HAL_Driver/Inc/stm32h7xx_hal_nand.h"
 6034              		.file 17 "./Libraries/STM32H7xx_HAL_Driver/Inc/stm32h7xx_hal_uart.h"
 6035              		.file 18 "./Libraries/STM32H7xx_HAL_Driver/Inc/stm32h7xx_hal.h"
ARM GAS  /tmp/cc5RRSLv.s 			page 194


DEFINED SYMBOLS
                            *ABS*:0000000000000000 stm32h7xx_hal_nand.c
     /tmp/cc5RRSLv.s:17     .text.HAL_NAND_MspInit:0000000000000000 $t
     /tmp/cc5RRSLv.s:26     .text.HAL_NAND_MspInit:0000000000000000 HAL_NAND_MspInit
     /tmp/cc5RRSLv.s:42     .text.HAL_NAND_Init:0000000000000000 $t
     /tmp/cc5RRSLv.s:50     .text.HAL_NAND_Init:0000000000000000 HAL_NAND_Init
     /tmp/cc5RRSLv.s:149    .text.HAL_NAND_Init:0000000000000060 $d
     /tmp/cc5RRSLv.s:154    .text.HAL_NAND_MspDeInit:0000000000000000 $t
     /tmp/cc5RRSLv.s:162    .text.HAL_NAND_MspDeInit:0000000000000000 HAL_NAND_MspDeInit
     /tmp/cc5RRSLv.s:173    .text.HAL_NAND_DeInit:0000000000000000 $t
     /tmp/cc5RRSLv.s:181    .text.HAL_NAND_DeInit:0000000000000000 HAL_NAND_DeInit
     /tmp/cc5RRSLv.s:221    .text.HAL_NAND_ITCallback:0000000000000000 $t
     /tmp/cc5RRSLv.s:229    .text.HAL_NAND_ITCallback:0000000000000000 HAL_NAND_ITCallback
     /tmp/cc5RRSLv.s:240    .text.HAL_NAND_IRQHandler:0000000000000000 $t
     /tmp/cc5RRSLv.s:248    .text.HAL_NAND_IRQHandler:0000000000000000 HAL_NAND_IRQHandler
     /tmp/cc5RRSLv.s:346    .text.HAL_NAND_Read_ID:0000000000000000 $t
     /tmp/cc5RRSLv.s:354    .text.HAL_NAND_Read_ID:0000000000000000 HAL_NAND_Read_ID
     /tmp/cc5RRSLv.s:593    .text.HAL_NAND_Read_ID:00000000000000b0 $d
     /tmp/cc5RRSLv.s:599    .text.HAL_NAND_Reset:0000000000000000 $t
     /tmp/cc5RRSLv.s:607    .text.HAL_NAND_Reset:0000000000000000 HAL_NAND_Reset
     /tmp/cc5RRSLv.s:699    .text.HAL_NAND_Reset:0000000000000044 $d
     /tmp/cc5RRSLv.s:704    .text.HAL_NAND_ConfigDevice:0000000000000000 $t
     /tmp/cc5RRSLv.s:712    .text.HAL_NAND_ConfigDevice:0000000000000000 HAL_NAND_ConfigDevice
     /tmp/cc5RRSLv.s:773    .text.HAL_NAND_Read_Page_8b:0000000000000000 $t
     /tmp/cc5RRSLv.s:781    .text.HAL_NAND_Read_Page_8b:0000000000000000 HAL_NAND_Read_Page_8b
     /tmp/cc5RRSLv.s:1304   .text.HAL_NAND_Read_Page_8b:0000000000000174 $d
     /tmp/cc5RRSLv.s:1310   .text.HAL_NAND_Read_Page_16b:0000000000000000 $t
     /tmp/cc5RRSLv.s:1318   .text.HAL_NAND_Read_Page_16b:0000000000000000 HAL_NAND_Read_Page_16b
     /tmp/cc5RRSLv.s:1854   .text.HAL_NAND_Read_Page_16b:0000000000000184 $d
     /tmp/cc5RRSLv.s:1860   .text.HAL_NAND_Write_Page_8b:0000000000000000 $t
     /tmp/cc5RRSLv.s:1868   .text.HAL_NAND_Write_Page_8b:0000000000000000 HAL_NAND_Write_Page_8b
     /tmp/cc5RRSLv.s:2419   .text.HAL_NAND_Write_Page_8b:0000000000000194 $d
     /tmp/cc5RRSLv.s:2425   .text.HAL_NAND_Write_Page_16b:0000000000000000 $t
     /tmp/cc5RRSLv.s:2433   .text.HAL_NAND_Write_Page_16b:0000000000000000 HAL_NAND_Write_Page_16b
     /tmp/cc5RRSLv.s:2998   .text.HAL_NAND_Write_Page_16b:00000000000001ac $d
     /tmp/cc5RRSLv.s:3004   .text.HAL_NAND_Read_SpareArea_8b:0000000000000000 $t
     /tmp/cc5RRSLv.s:3012   .text.HAL_NAND_Read_SpareArea_8b:0000000000000000 HAL_NAND_Read_SpareArea_8b
     /tmp/cc5RRSLv.s:3588   .text.HAL_NAND_Read_SpareArea_8b:00000000000001b4 $d
     /tmp/cc5RRSLv.s:3594   .text.HAL_NAND_Read_SpareArea_16b:0000000000000000 $t
     /tmp/cc5RRSLv.s:3602   .text.HAL_NAND_Read_SpareArea_16b:0000000000000000 HAL_NAND_Read_SpareArea_16b
     /tmp/cc5RRSLv.s:4171   .text.HAL_NAND_Read_SpareArea_16b:00000000000001b0 $d
     /tmp/cc5RRSLv.s:4177   .text.HAL_NAND_Write_SpareArea_8b:0000000000000000 $t
     /tmp/cc5RRSLv.s:4185   .text.HAL_NAND_Write_SpareArea_8b:0000000000000000 HAL_NAND_Write_SpareArea_8b
     /tmp/cc5RRSLv.s:4769   .text.HAL_NAND_Write_SpareArea_8b:00000000000001bc $d
     /tmp/cc5RRSLv.s:4775   .text.HAL_NAND_Write_SpareArea_16b:0000000000000000 $t
     /tmp/cc5RRSLv.s:4783   .text.HAL_NAND_Write_SpareArea_16b:0000000000000000 HAL_NAND_Write_SpareArea_16b
     /tmp/cc5RRSLv.s:5367   .text.HAL_NAND_Write_SpareArea_16b:00000000000001bc $d
     /tmp/cc5RRSLv.s:5373   .text.HAL_NAND_Erase_Block:0000000000000000 $t
     /tmp/cc5RRSLv.s:5381   .text.HAL_NAND_Erase_Block:0000000000000000 HAL_NAND_Erase_Block
     /tmp/cc5RRSLv.s:5594   .text.HAL_NAND_Erase_Block:00000000000000ac $d
     /tmp/cc5RRSLv.s:5600   .text.HAL_NAND_Address_Inc:0000000000000000 $t
     /tmp/cc5RRSLv.s:5608   .text.HAL_NAND_Address_Inc:0000000000000000 HAL_NAND_Address_Inc
     /tmp/cc5RRSLv.s:5712   .text.HAL_NAND_ECC_Enable:0000000000000000 $t
     /tmp/cc5RRSLv.s:5720   .text.HAL_NAND_ECC_Enable:0000000000000000 HAL_NAND_ECC_Enable
     /tmp/cc5RRSLv.s:5787   .text.HAL_NAND_ECC_Disable:0000000000000000 $t
     /tmp/cc5RRSLv.s:5795   .text.HAL_NAND_ECC_Disable:0000000000000000 HAL_NAND_ECC_Disable
     /tmp/cc5RRSLv.s:5862   .text.HAL_NAND_GetECC:0000000000000000 $t
ARM GAS  /tmp/cc5RRSLv.s 			page 195


     /tmp/cc5RRSLv.s:5870   .text.HAL_NAND_GetECC:0000000000000000 HAL_NAND_GetECC
     /tmp/cc5RRSLv.s:5940   .text.HAL_NAND_GetState:0000000000000000 $t
     /tmp/cc5RRSLv.s:5948   .text.HAL_NAND_GetState:0000000000000000 HAL_NAND_GetState
     /tmp/cc5RRSLv.s:5966   .text.HAL_NAND_Read_Status:0000000000000000 $t
     /tmp/cc5RRSLv.s:5974   .text.HAL_NAND_Read_Status:0000000000000000 HAL_NAND_Read_Status
     /tmp/cc5RRSLv.s:6014   .text.HAL_NAND_Read_Status:000000000000001c $d

UNDEFINED SYMBOLS
FMC_NAND_Init
FMC_NAND_CommonSpace_Timing_Init
FMC_NAND_AttributeSpace_Timing_Init
FMC_NAND_DeInit
HAL_GetTick
FMC_NAND_ECC_Enable
FMC_NAND_ECC_Disable
FMC_NAND_GetECC
