ARM GAS  /tmp/ccrPBmkK.s 			page 1


   1              		.cpu cortex-m7
   2              		.eabi_attribute 28, 1
   3              		.eabi_attribute 20, 1
   4              		.eabi_attribute 21, 1
   5              		.eabi_attribute 23, 3
   6              		.eabi_attribute 24, 1
   7              		.eabi_attribute 25, 1
   8              		.eabi_attribute 26, 1
   9              		.eabi_attribute 30, 6
  10              		.eabi_attribute 34, 1
  11              		.eabi_attribute 18, 4
  12              		.file	"stm32h7xx_ll_delayblock.c"
  13              		.text
  14              	.Ltext0:
  15              		.cfi_sections	.debug_frame
  16              		.section	.text.DelayBlock_Enable,"ax",%progbits
  17              		.align	1
  18              		.global	DelayBlock_Enable
  19              		.arch armv7e-m
  20              		.syntax unified
  21              		.thumb
  22              		.thumb_func
  23              		.fpu fpv5-d16
  25              	DelayBlock_Enable:
  26              	.LFB331:
  27              		.file 1 "./Libraries/STM32H7xx_HAL_Driver/Src/stm32h7xx_ll_delayblock.c"
   1:./Libraries/STM32H7xx_HAL_Driver/Src/stm32h7xx_ll_delayblock.c **** /**
   2:./Libraries/STM32H7xx_HAL_Driver/Src/stm32h7xx_ll_delayblock.c ****   ******************************************************************************
   3:./Libraries/STM32H7xx_HAL_Driver/Src/stm32h7xx_ll_delayblock.c ****   * @file    stm32h7xx_ll_delayblock.c
   4:./Libraries/STM32H7xx_HAL_Driver/Src/stm32h7xx_ll_delayblock.c ****   * @author  MCD Application Team
   5:./Libraries/STM32H7xx_HAL_Driver/Src/stm32h7xx_ll_delayblock.c ****   * @brief   DelayBlock Low Layer HAL module driver.
   6:./Libraries/STM32H7xx_HAL_Driver/Src/stm32h7xx_ll_delayblock.c ****   *    
   7:./Libraries/STM32H7xx_HAL_Driver/Src/stm32h7xx_ll_delayblock.c ****   *          This file provides firmware functions to manage the following 
   8:./Libraries/STM32H7xx_HAL_Driver/Src/stm32h7xx_ll_delayblock.c ****   *          functionalities of the Delay Block peripheral:
   9:./Libraries/STM32H7xx_HAL_Driver/Src/stm32h7xx_ll_delayblock.c ****   *           + input clock frequency range 25MHz to 208MHz
  10:./Libraries/STM32H7xx_HAL_Driver/Src/stm32h7xx_ll_delayblock.c ****   *           + up to 12 oversampling phases
  11:./Libraries/STM32H7xx_HAL_Driver/Src/stm32h7xx_ll_delayblock.c ****   *         
  12:./Libraries/STM32H7xx_HAL_Driver/Src/stm32h7xx_ll_delayblock.c ****   @verbatim
  13:./Libraries/STM32H7xx_HAL_Driver/Src/stm32h7xx_ll_delayblock.c ****   ==============================================================================
  14:./Libraries/STM32H7xx_HAL_Driver/Src/stm32h7xx_ll_delayblock.c ****                        ##### DelayBlock peripheral features #####
  15:./Libraries/STM32H7xx_HAL_Driver/Src/stm32h7xx_ll_delayblock.c ****   ==============================================================================        
  16:./Libraries/STM32H7xx_HAL_Driver/Src/stm32h7xx_ll_delayblock.c ****     [..] The Delay block is used to generate an Output clock which is de-phased from the Input
  17:./Libraries/STM32H7xx_HAL_Driver/Src/stm32h7xx_ll_delayblock.c ****           clock. The phase of the Output clock is programmed by FW. The Output clock is then used
  18:./Libraries/STM32H7xx_HAL_Driver/Src/stm32h7xx_ll_delayblock.c ****           to clock the receive data in i.e. a SDMMC or QSPI interface.
  19:./Libraries/STM32H7xx_HAL_Driver/Src/stm32h7xx_ll_delayblock.c ****          The delay is Voltage and Temperature dependent, which may require FW to do re-tuning
  20:./Libraries/STM32H7xx_HAL_Driver/Src/stm32h7xx_ll_delayblock.c ****           and recenter the Output clock phase to the receive data.
  21:./Libraries/STM32H7xx_HAL_Driver/Src/stm32h7xx_ll_delayblock.c ****     
  22:./Libraries/STM32H7xx_HAL_Driver/Src/stm32h7xx_ll_delayblock.c ****     [..] The Delay Block features include the following:
  23:./Libraries/STM32H7xx_HAL_Driver/Src/stm32h7xx_ll_delayblock.c ****          (+) Input clock frequency range 25MHz to 208MHz.
  24:./Libraries/STM32H7xx_HAL_Driver/Src/stm32h7xx_ll_delayblock.c ****          (+) Up to 12 oversampling phases.
  25:./Libraries/STM32H7xx_HAL_Driver/Src/stm32h7xx_ll_delayblock.c ****          
  26:./Libraries/STM32H7xx_HAL_Driver/Src/stm32h7xx_ll_delayblock.c ****                            ##### How to use this driver #####
  27:./Libraries/STM32H7xx_HAL_Driver/Src/stm32h7xx_ll_delayblock.c ****   ==============================================================================
  28:./Libraries/STM32H7xx_HAL_Driver/Src/stm32h7xx_ll_delayblock.c ****     [..]
  29:./Libraries/STM32H7xx_HAL_Driver/Src/stm32h7xx_ll_delayblock.c ****       This driver is a considered as a driver of service for external devices drivers
  30:./Libraries/STM32H7xx_HAL_Driver/Src/stm32h7xx_ll_delayblock.c ****       that interfaces with the DELAY peripheral.
  31:./Libraries/STM32H7xx_HAL_Driver/Src/stm32h7xx_ll_delayblock.c ****       The DelayBlock_Enable() function, enables the DelayBlock instance, configure the delay line l
ARM GAS  /tmp/ccrPBmkK.s 			page 2


  32:./Libraries/STM32H7xx_HAL_Driver/Src/stm32h7xx_ll_delayblock.c ****       and configure the Output clock phase.
  33:./Libraries/STM32H7xx_HAL_Driver/Src/stm32h7xx_ll_delayblock.c ****       The DelayBlock_Disable() function, disables the DelayBlock instance by setting DEN flag to 0.
  34:./Libraries/STM32H7xx_HAL_Driver/Src/stm32h7xx_ll_delayblock.c ****       
  35:./Libraries/STM32H7xx_HAL_Driver/Src/stm32h7xx_ll_delayblock.c ****   
  36:./Libraries/STM32H7xx_HAL_Driver/Src/stm32h7xx_ll_delayblock.c ****   @endverbatim
  37:./Libraries/STM32H7xx_HAL_Driver/Src/stm32h7xx_ll_delayblock.c ****   ******************************************************************************
  38:./Libraries/STM32H7xx_HAL_Driver/Src/stm32h7xx_ll_delayblock.c ****   * @attention
  39:./Libraries/STM32H7xx_HAL_Driver/Src/stm32h7xx_ll_delayblock.c ****   *
  40:./Libraries/STM32H7xx_HAL_Driver/Src/stm32h7xx_ll_delayblock.c ****   * <h2><center>&copy; Copyright (c) 2017 STMicroelectronics.
  41:./Libraries/STM32H7xx_HAL_Driver/Src/stm32h7xx_ll_delayblock.c ****   * All rights reserved.</center></h2>
  42:./Libraries/STM32H7xx_HAL_Driver/Src/stm32h7xx_ll_delayblock.c ****   *
  43:./Libraries/STM32H7xx_HAL_Driver/Src/stm32h7xx_ll_delayblock.c ****   * This software component is licensed by ST under BSD 3-Clause license,
  44:./Libraries/STM32H7xx_HAL_Driver/Src/stm32h7xx_ll_delayblock.c ****   * the "License"; You may not use this file except in compliance with the
  45:./Libraries/STM32H7xx_HAL_Driver/Src/stm32h7xx_ll_delayblock.c ****   * License. You may obtain a copy of the License at:
  46:./Libraries/STM32H7xx_HAL_Driver/Src/stm32h7xx_ll_delayblock.c ****   *                        opensource.org/licenses/BSD-3-Clause
  47:./Libraries/STM32H7xx_HAL_Driver/Src/stm32h7xx_ll_delayblock.c ****   *
  48:./Libraries/STM32H7xx_HAL_Driver/Src/stm32h7xx_ll_delayblock.c ****   ******************************************************************************
  49:./Libraries/STM32H7xx_HAL_Driver/Src/stm32h7xx_ll_delayblock.c ****   */ 
  50:./Libraries/STM32H7xx_HAL_Driver/Src/stm32h7xx_ll_delayblock.c **** 
  51:./Libraries/STM32H7xx_HAL_Driver/Src/stm32h7xx_ll_delayblock.c **** /* Includes ------------------------------------------------------------------*/
  52:./Libraries/STM32H7xx_HAL_Driver/Src/stm32h7xx_ll_delayblock.c **** #include "stm32h7xx_hal.h"
  53:./Libraries/STM32H7xx_HAL_Driver/Src/stm32h7xx_ll_delayblock.c **** 
  54:./Libraries/STM32H7xx_HAL_Driver/Src/stm32h7xx_ll_delayblock.c **** /** @addtogroup STM32H7xx_HAL_Driver
  55:./Libraries/STM32H7xx_HAL_Driver/Src/stm32h7xx_ll_delayblock.c ****   * @{
  56:./Libraries/STM32H7xx_HAL_Driver/Src/stm32h7xx_ll_delayblock.c ****   */
  57:./Libraries/STM32H7xx_HAL_Driver/Src/stm32h7xx_ll_delayblock.c **** 
  58:./Libraries/STM32H7xx_HAL_Driver/Src/stm32h7xx_ll_delayblock.c **** /** @defgroup DELAYBLOCK_LL DELAYBLOCK_LL
  59:./Libraries/STM32H7xx_HAL_Driver/Src/stm32h7xx_ll_delayblock.c ****   * @brief Low layer module for Delay Block
  60:./Libraries/STM32H7xx_HAL_Driver/Src/stm32h7xx_ll_delayblock.c ****   * @{
  61:./Libraries/STM32H7xx_HAL_Driver/Src/stm32h7xx_ll_delayblock.c ****   */
  62:./Libraries/STM32H7xx_HAL_Driver/Src/stm32h7xx_ll_delayblock.c **** 
  63:./Libraries/STM32H7xx_HAL_Driver/Src/stm32h7xx_ll_delayblock.c **** #if defined(HAL_SD_MODULE_ENABLED) || defined(HAL_QSPI_MODULE_ENABLED)
  64:./Libraries/STM32H7xx_HAL_Driver/Src/stm32h7xx_ll_delayblock.c **** 
  65:./Libraries/STM32H7xx_HAL_Driver/Src/stm32h7xx_ll_delayblock.c **** /* Private typedef -----------------------------------------------------------*/
  66:./Libraries/STM32H7xx_HAL_Driver/Src/stm32h7xx_ll_delayblock.c **** /* Private define ------------------------------------------------------------*/
  67:./Libraries/STM32H7xx_HAL_Driver/Src/stm32h7xx_ll_delayblock.c **** #define DLYB_TIMEOUT 0xFFU
  68:./Libraries/STM32H7xx_HAL_Driver/Src/stm32h7xx_ll_delayblock.c **** /* Private macro -------------------------------------------------------------*/
  69:./Libraries/STM32H7xx_HAL_Driver/Src/stm32h7xx_ll_delayblock.c **** /* Private variables ---------------------------------------------------------*/
  70:./Libraries/STM32H7xx_HAL_Driver/Src/stm32h7xx_ll_delayblock.c **** /* Private function prototypes -----------------------------------------------*/
  71:./Libraries/STM32H7xx_HAL_Driver/Src/stm32h7xx_ll_delayblock.c **** /* Exported functions --------------------------------------------------------*/
  72:./Libraries/STM32H7xx_HAL_Driver/Src/stm32h7xx_ll_delayblock.c **** 
  73:./Libraries/STM32H7xx_HAL_Driver/Src/stm32h7xx_ll_delayblock.c **** /** @defgroup DelayBlock_LL_Exported_Functions Delay Block Low Layer Exported Functions
  74:./Libraries/STM32H7xx_HAL_Driver/Src/stm32h7xx_ll_delayblock.c ****   * @{
  75:./Libraries/STM32H7xx_HAL_Driver/Src/stm32h7xx_ll_delayblock.c ****   */
  76:./Libraries/STM32H7xx_HAL_Driver/Src/stm32h7xx_ll_delayblock.c **** 
  77:./Libraries/STM32H7xx_HAL_Driver/Src/stm32h7xx_ll_delayblock.c **** /** @defgroup HAL_DELAY_LL_Group1 Initialization de-initialization functions 
  78:./Libraries/STM32H7xx_HAL_Driver/Src/stm32h7xx_ll_delayblock.c ****  *  @brief    Initialization and Configuration functions 
  79:./Libraries/STM32H7xx_HAL_Driver/Src/stm32h7xx_ll_delayblock.c ****  *
  80:./Libraries/STM32H7xx_HAL_Driver/Src/stm32h7xx_ll_delayblock.c **** @verbatim    
  81:./Libraries/STM32H7xx_HAL_Driver/Src/stm32h7xx_ll_delayblock.c ****  ===============================================================================
  82:./Libraries/STM32H7xx_HAL_Driver/Src/stm32h7xx_ll_delayblock.c ****               ##### Initialization and de-initialization functions #####
  83:./Libraries/STM32H7xx_HAL_Driver/Src/stm32h7xx_ll_delayblock.c ****  ===============================================================================
  84:./Libraries/STM32H7xx_HAL_Driver/Src/stm32h7xx_ll_delayblock.c ****     [..]  This section provides functions allowing to:
  85:./Libraries/STM32H7xx_HAL_Driver/Src/stm32h7xx_ll_delayblock.c ****  
  86:./Libraries/STM32H7xx_HAL_Driver/Src/stm32h7xx_ll_delayblock.c **** @endverbatim
  87:./Libraries/STM32H7xx_HAL_Driver/Src/stm32h7xx_ll_delayblock.c ****   * @{
  88:./Libraries/STM32H7xx_HAL_Driver/Src/stm32h7xx_ll_delayblock.c ****   */
ARM GAS  /tmp/ccrPBmkK.s 			page 3


  89:./Libraries/STM32H7xx_HAL_Driver/Src/stm32h7xx_ll_delayblock.c **** 
  90:./Libraries/STM32H7xx_HAL_Driver/Src/stm32h7xx_ll_delayblock.c **** 
  91:./Libraries/STM32H7xx_HAL_Driver/Src/stm32h7xx_ll_delayblock.c **** /**
  92:./Libraries/STM32H7xx_HAL_Driver/Src/stm32h7xx_ll_delayblock.c ****   * @brief  Enable the Delay Block instance.
  93:./Libraries/STM32H7xx_HAL_Driver/Src/stm32h7xx_ll_delayblock.c ****   * @param  DLYBx: Pointer to DLYB instance.
  94:./Libraries/STM32H7xx_HAL_Driver/Src/stm32h7xx_ll_delayblock.c ****   * @retval HAL status
  95:./Libraries/STM32H7xx_HAL_Driver/Src/stm32h7xx_ll_delayblock.c ****   */
  96:./Libraries/STM32H7xx_HAL_Driver/Src/stm32h7xx_ll_delayblock.c **** HAL_StatusTypeDef DelayBlock_Enable(DLYB_TypeDef *DLYBx)
  97:./Libraries/STM32H7xx_HAL_Driver/Src/stm32h7xx_ll_delayblock.c **** {
  28              		.loc 1 97 1
  29              		.cfi_startproc
  30              		@ args = 0, pretend = 0, frame = 40
  31              		@ frame_needed = 1, uses_anonymous_args = 0
  32 0000 80B5     		push	{r7, lr}
  33              	.LCFI0:
  34              		.cfi_def_cfa_offset 8
  35              		.cfi_offset 7, -8
  36              		.cfi_offset 14, -4
  37 0002 8AB0     		sub	sp, sp, #40
  38              	.LCFI1:
  39              		.cfi_def_cfa_offset 48
  40 0004 00AF     		add	r7, sp, #0
  41              	.LCFI2:
  42              		.cfi_def_cfa_register 7
  43 0006 7860     		str	r0, [r7, #4]
  98:./Libraries/STM32H7xx_HAL_Driver/Src/stm32h7xx_ll_delayblock.c ****   uint32_t unit = 0U;
  44              		.loc 1 98 12
  45 0008 0023     		movs	r3, #0
  46 000a 7B62     		str	r3, [r7, #36]
  99:./Libraries/STM32H7xx_HAL_Driver/Src/stm32h7xx_ll_delayblock.c ****   uint32_t sel = 0U;
  47              		.loc 1 99 12
  48 000c 0023     		movs	r3, #0
  49 000e 3B62     		str	r3, [r7, #32]
 100:./Libraries/STM32H7xx_HAL_Driver/Src/stm32h7xx_ll_delayblock.c ****   uint32_t sel_current;
 101:./Libraries/STM32H7xx_HAL_Driver/Src/stm32h7xx_ll_delayblock.c ****   uint32_t unit_current;
 102:./Libraries/STM32H7xx_HAL_Driver/Src/stm32h7xx_ll_delayblock.c ****   uint32_t tuning;
 103:./Libraries/STM32H7xx_HAL_Driver/Src/stm32h7xx_ll_delayblock.c ****   uint32_t lng_mask;
 104:./Libraries/STM32H7xx_HAL_Driver/Src/stm32h7xx_ll_delayblock.c ****   uint32_t tickstart;
 105:./Libraries/STM32H7xx_HAL_Driver/Src/stm32h7xx_ll_delayblock.c **** 
 106:./Libraries/STM32H7xx_HAL_Driver/Src/stm32h7xx_ll_delayblock.c ****   DLYBx->CR = DLYB_CR_DEN | DLYB_CR_SEN;
  50              		.loc 1 106 13
  51 0010 7B68     		ldr	r3, [r7, #4]
  52 0012 0322     		movs	r2, #3
  53 0014 1A60     		str	r2, [r3]
 107:./Libraries/STM32H7xx_HAL_Driver/Src/stm32h7xx_ll_delayblock.c **** 
 108:./Libraries/STM32H7xx_HAL_Driver/Src/stm32h7xx_ll_delayblock.c ****   for (sel_current = 0U; sel_current < DLYB_MAX_SELECT; sel_current++)
  54              		.loc 1 108 20
  55 0016 0023     		movs	r3, #0
  56 0018 FB61     		str	r3, [r7, #28]
  57              		.loc 1 108 3
  58 001a 47E0     		b	.L2
  59              	.L12:
 109:./Libraries/STM32H7xx_HAL_Driver/Src/stm32h7xx_ll_delayblock.c ****   {
 110:./Libraries/STM32H7xx_HAL_Driver/Src/stm32h7xx_ll_delayblock.c ****     /* lng_mask is the mask bit for the LNG field to check the output of the UNITx*/
 111:./Libraries/STM32H7xx_HAL_Driver/Src/stm32h7xx_ll_delayblock.c ****     lng_mask = DLYB_CFGR_LNG_0 << sel_current;
  60              		.loc 1 111 14
  61 001c 4FF48032 		mov	r2, #65536
ARM GAS  /tmp/ccrPBmkK.s 			page 4


  62 0020 FB69     		ldr	r3, [r7, #28]
  63 0022 02FA03F3 		lsl	r3, r2, r3
  64 0026 3B61     		str	r3, [r7, #16]
 112:./Libraries/STM32H7xx_HAL_Driver/Src/stm32h7xx_ll_delayblock.c ****     tuning = 0U;
  65              		.loc 1 112 12
  66 0028 0023     		movs	r3, #0
  67 002a 7B61     		str	r3, [r7, #20]
 113:./Libraries/STM32H7xx_HAL_Driver/Src/stm32h7xx_ll_delayblock.c ****     for (unit_current = 0U; unit_current < DLYB_MAX_UNIT; unit_current++)
  68              		.loc 1 113 23
  69 002c 0023     		movs	r3, #0
  70 002e BB61     		str	r3, [r7, #24]
  71              		.loc 1 113 5
  72 0030 34E0     		b	.L3
  73              	.L11:
 114:./Libraries/STM32H7xx_HAL_Driver/Src/stm32h7xx_ll_delayblock.c ****     {
 115:./Libraries/STM32H7xx_HAL_Driver/Src/stm32h7xx_ll_delayblock.c ****       /* Set the Delay of the UNIT(s)*/
 116:./Libraries/STM32H7xx_HAL_Driver/Src/stm32h7xx_ll_delayblock.c ****       DLYBx->CFGR = DLYB_MAX_SELECT | (unit_current << DLYB_CFGR_UNIT_Pos);
  74              		.loc 1 116 53
  75 0032 BB69     		ldr	r3, [r7, #24]
  76 0034 1B02     		lsls	r3, r3, #8
  77              		.loc 1 116 37
  78 0036 43F00C02 		orr	r2, r3, #12
  79              		.loc 1 116 19
  80 003a 7B68     		ldr	r3, [r7, #4]
  81 003c 5A60     		str	r2, [r3, #4]
 117:./Libraries/STM32H7xx_HAL_Driver/Src/stm32h7xx_ll_delayblock.c **** 
 118:./Libraries/STM32H7xx_HAL_Driver/Src/stm32h7xx_ll_delayblock.c ****       /* Waiting for a LNG valid value */
 119:./Libraries/STM32H7xx_HAL_Driver/Src/stm32h7xx_ll_delayblock.c ****       tickstart =  HAL_GetTick();
  82              		.loc 1 119 20
  83 003e FFF7FEFF 		bl	HAL_GetTick
  84 0042 F860     		str	r0, [r7, #12]
 120:./Libraries/STM32H7xx_HAL_Driver/Src/stm32h7xx_ll_delayblock.c ****       while ((DLYBx->CFGR & DLYB_CFGR_LNGF) == 0U)
  85              		.loc 1 120 13
  86 0044 08E0     		b	.L4
  87              	.L6:
 121:./Libraries/STM32H7xx_HAL_Driver/Src/stm32h7xx_ll_delayblock.c ****       {
 122:./Libraries/STM32H7xx_HAL_Driver/Src/stm32h7xx_ll_delayblock.c ****         if((HAL_GetTick() - tickstart) >=  DLYB_TIMEOUT)
  88              		.loc 1 122 13
  89 0046 FFF7FEFF 		bl	HAL_GetTick
  90 004a 0246     		mov	r2, r0
  91              		.loc 1 122 27
  92 004c FB68     		ldr	r3, [r7, #12]
  93 004e D31A     		subs	r3, r2, r3
  94              		.loc 1 122 11
  95 0050 FE2B     		cmp	r3, #254
  96 0052 01D9     		bls	.L4
 123:./Libraries/STM32H7xx_HAL_Driver/Src/stm32h7xx_ll_delayblock.c ****         {
 124:./Libraries/STM32H7xx_HAL_Driver/Src/stm32h7xx_ll_delayblock.c ****           return HAL_TIMEOUT;
  97              		.loc 1 124 18
  98 0054 0323     		movs	r3, #3
  99 0056 3CE0     		b	.L5
 100              	.L4:
 120:./Libraries/STM32H7xx_HAL_Driver/Src/stm32h7xx_ll_delayblock.c ****       {
 101              		.loc 1 120 20
 102 0058 7B68     		ldr	r3, [r7, #4]
 103 005a 5B68     		ldr	r3, [r3, #4]
 120:./Libraries/STM32H7xx_HAL_Driver/Src/stm32h7xx_ll_delayblock.c ****       {
ARM GAS  /tmp/ccrPBmkK.s 			page 5


 104              		.loc 1 120 13
 105 005c 002B     		cmp	r3, #0
 106 005e F2DA     		bge	.L6
 125:./Libraries/STM32H7xx_HAL_Driver/Src/stm32h7xx_ll_delayblock.c ****         }
 126:./Libraries/STM32H7xx_HAL_Driver/Src/stm32h7xx_ll_delayblock.c ****       }
 127:./Libraries/STM32H7xx_HAL_Driver/Src/stm32h7xx_ll_delayblock.c ****       if (tuning == 0U)
 107              		.loc 1 127 10
 108 0060 7B69     		ldr	r3, [r7, #20]
 109 0062 002B     		cmp	r3, #0
 110 0064 08D1     		bne	.L7
 128:./Libraries/STM32H7xx_HAL_Driver/Src/stm32h7xx_ll_delayblock.c ****       {
 129:./Libraries/STM32H7xx_HAL_Driver/Src/stm32h7xx_ll_delayblock.c ****         if ((DLYBx->CFGR & lng_mask) != 0U)
 111              		.loc 1 129 19
 112 0066 7B68     		ldr	r3, [r7, #4]
 113 0068 5A68     		ldr	r2, [r3, #4]
 114              		.loc 1 129 26
 115 006a 3B69     		ldr	r3, [r7, #16]
 116 006c 1340     		ands	r3, r3, r2
 117              		.loc 1 129 12
 118 006e 002B     		cmp	r3, #0
 119 0070 11D0     		beq	.L8
 130:./Libraries/STM32H7xx_HAL_Driver/Src/stm32h7xx_ll_delayblock.c ****         {
 131:./Libraries/STM32H7xx_HAL_Driver/Src/stm32h7xx_ll_delayblock.c ****           /* 1/2 period HIGH is detected */
 132:./Libraries/STM32H7xx_HAL_Driver/Src/stm32h7xx_ll_delayblock.c ****           tuning = 1U;
 120              		.loc 1 132 18
 121 0072 0123     		movs	r3, #1
 122 0074 7B61     		str	r3, [r7, #20]
 123 0076 0EE0     		b	.L8
 124              	.L7:
 133:./Libraries/STM32H7xx_HAL_Driver/Src/stm32h7xx_ll_delayblock.c ****         }
 134:./Libraries/STM32H7xx_HAL_Driver/Src/stm32h7xx_ll_delayblock.c ****       }
 135:./Libraries/STM32H7xx_HAL_Driver/Src/stm32h7xx_ll_delayblock.c ****       else
 136:./Libraries/STM32H7xx_HAL_Driver/Src/stm32h7xx_ll_delayblock.c ****       {
 137:./Libraries/STM32H7xx_HAL_Driver/Src/stm32h7xx_ll_delayblock.c ****         /* 1/2 period LOW detected after the HIGH 1/2 period => FULL PERIOD passed*/
 138:./Libraries/STM32H7xx_HAL_Driver/Src/stm32h7xx_ll_delayblock.c ****         if((DLYBx->CFGR & lng_mask ) == 0U)
 125              		.loc 1 138 18
 126 0078 7B68     		ldr	r3, [r7, #4]
 127 007a 5A68     		ldr	r2, [r3, #4]
 128              		.loc 1 138 25
 129 007c 3B69     		ldr	r3, [r7, #16]
 130 007e 1340     		ands	r3, r3, r2
 131              		.loc 1 138 11
 132 0080 002B     		cmp	r3, #0
 133 0082 08D1     		bne	.L8
 139:./Libraries/STM32H7xx_HAL_Driver/Src/stm32h7xx_ll_delayblock.c ****         {
 140:./Libraries/STM32H7xx_HAL_Driver/Src/stm32h7xx_ll_delayblock.c ****           /* Save the first result */
 141:./Libraries/STM32H7xx_HAL_Driver/Src/stm32h7xx_ll_delayblock.c ****           if( unit == 0U )
 134              		.loc 1 141 13
 135 0084 7B6A     		ldr	r3, [r7, #36]
 136 0086 002B     		cmp	r3, #0
 137 0088 0CD1     		bne	.L13
 142:./Libraries/STM32H7xx_HAL_Driver/Src/stm32h7xx_ll_delayblock.c ****           {
 143:./Libraries/STM32H7xx_HAL_Driver/Src/stm32h7xx_ll_delayblock.c ****             unit = unit_current;
 138              		.loc 1 143 18
 139 008a BB69     		ldr	r3, [r7, #24]
 140 008c 7B62     		str	r3, [r7, #36]
 144:./Libraries/STM32H7xx_HAL_Driver/Src/stm32h7xx_ll_delayblock.c ****             sel  = sel_current + 1U;
ARM GAS  /tmp/ccrPBmkK.s 			page 6


 141              		.loc 1 144 18
 142 008e FB69     		ldr	r3, [r7, #28]
 143 0090 0133     		adds	r3, r3, #1
 144 0092 3B62     		str	r3, [r7, #32]
 145:./Libraries/STM32H7xx_HAL_Driver/Src/stm32h7xx_ll_delayblock.c ****           }
 146:./Libraries/STM32H7xx_HAL_Driver/Src/stm32h7xx_ll_delayblock.c ****           break;
 145              		.loc 1 146 11
 146 0094 06E0     		b	.L13
 147              	.L8:
 113:./Libraries/STM32H7xx_HAL_Driver/Src/stm32h7xx_ll_delayblock.c ****     {
 148              		.loc 1 113 71 discriminator 2
 149 0096 BB69     		ldr	r3, [r7, #24]
 150 0098 0133     		adds	r3, r3, #1
 151 009a BB61     		str	r3, [r7, #24]
 152              	.L3:
 113:./Libraries/STM32H7xx_HAL_Driver/Src/stm32h7xx_ll_delayblock.c ****     {
 153              		.loc 1 113 5 discriminator 1
 154 009c BB69     		ldr	r3, [r7, #24]
 155 009e 7F2B     		cmp	r3, #127
 156 00a0 C7D9     		bls	.L11
 157 00a2 00E0     		b	.L10
 158              	.L13:
 159              		.loc 1 146 11
 160 00a4 00BF     		nop
 161              	.L10:
 108:./Libraries/STM32H7xx_HAL_Driver/Src/stm32h7xx_ll_delayblock.c ****   {
 162              		.loc 1 108 68 discriminator 2
 163 00a6 FB69     		ldr	r3, [r7, #28]
 164 00a8 0133     		adds	r3, r3, #1
 165 00aa FB61     		str	r3, [r7, #28]
 166              	.L2:
 108:./Libraries/STM32H7xx_HAL_Driver/Src/stm32h7xx_ll_delayblock.c ****   {
 167              		.loc 1 108 3 discriminator 1
 168 00ac FB69     		ldr	r3, [r7, #28]
 169 00ae 0B2B     		cmp	r3, #11
 170 00b0 B4D9     		bls	.L12
 147:./Libraries/STM32H7xx_HAL_Driver/Src/stm32h7xx_ll_delayblock.c ****         }
 148:./Libraries/STM32H7xx_HAL_Driver/Src/stm32h7xx_ll_delayblock.c ****       }
 149:./Libraries/STM32H7xx_HAL_Driver/Src/stm32h7xx_ll_delayblock.c ****     }
 150:./Libraries/STM32H7xx_HAL_Driver/Src/stm32h7xx_ll_delayblock.c ****   }
 151:./Libraries/STM32H7xx_HAL_Driver/Src/stm32h7xx_ll_delayblock.c **** 
 152:./Libraries/STM32H7xx_HAL_Driver/Src/stm32h7xx_ll_delayblock.c ****   /* Apply the Tuning settings */
 153:./Libraries/STM32H7xx_HAL_Driver/Src/stm32h7xx_ll_delayblock.c ****   DLYBx->CR   = 0U;
 171              		.loc 1 153 15
 172 00b2 7B68     		ldr	r3, [r7, #4]
 173 00b4 0022     		movs	r2, #0
 174 00b6 1A60     		str	r2, [r3]
 154:./Libraries/STM32H7xx_HAL_Driver/Src/stm32h7xx_ll_delayblock.c ****   DLYBx->CR   = DLYB_CR_DEN | DLYB_CR_SEN;
 175              		.loc 1 154 15
 176 00b8 7B68     		ldr	r3, [r7, #4]
 177 00ba 0322     		movs	r2, #3
 178 00bc 1A60     		str	r2, [r3]
 155:./Libraries/STM32H7xx_HAL_Driver/Src/stm32h7xx_ll_delayblock.c ****   DLYBx->CFGR = sel | (unit << DLYB_CFGR_UNIT_Pos);
 179              		.loc 1 155 29
 180 00be 7B6A     		ldr	r3, [r7, #36]
 181 00c0 1A02     		lsls	r2, r3, #8
 182              		.loc 1 155 21
ARM GAS  /tmp/ccrPBmkK.s 			page 7


 183 00c2 3B6A     		ldr	r3, [r7, #32]
 184 00c4 1A43     		orrs	r2, r2, r3
 185              		.loc 1 155 15
 186 00c6 7B68     		ldr	r3, [r7, #4]
 187 00c8 5A60     		str	r2, [r3, #4]
 156:./Libraries/STM32H7xx_HAL_Driver/Src/stm32h7xx_ll_delayblock.c ****   DLYBx->CR   = DLYB_CR_DEN;
 188              		.loc 1 156 15
 189 00ca 7B68     		ldr	r3, [r7, #4]
 190 00cc 0122     		movs	r2, #1
 191 00ce 1A60     		str	r2, [r3]
 157:./Libraries/STM32H7xx_HAL_Driver/Src/stm32h7xx_ll_delayblock.c **** 
 158:./Libraries/STM32H7xx_HAL_Driver/Src/stm32h7xx_ll_delayblock.c ****   return HAL_OK;
 192              		.loc 1 158 10
 193 00d0 0023     		movs	r3, #0
 194              	.L5:
 159:./Libraries/STM32H7xx_HAL_Driver/Src/stm32h7xx_ll_delayblock.c **** }
 195              		.loc 1 159 1
 196 00d2 1846     		mov	r0, r3
 197 00d4 2837     		adds	r7, r7, #40
 198              	.LCFI3:
 199              		.cfi_def_cfa_offset 8
 200 00d6 BD46     		mov	sp, r7
 201              	.LCFI4:
 202              		.cfi_def_cfa_register 13
 203              		@ sp needed
 204 00d8 80BD     		pop	{r7, pc}
 205              		.cfi_endproc
 206              	.LFE331:
 208              		.section	.text.DelayBlock_Disable,"ax",%progbits
 209              		.align	1
 210              		.global	DelayBlock_Disable
 211              		.syntax unified
 212              		.thumb
 213              		.thumb_func
 214              		.fpu fpv5-d16
 216              	DelayBlock_Disable:
 217              	.LFB332:
 160:./Libraries/STM32H7xx_HAL_Driver/Src/stm32h7xx_ll_delayblock.c **** 
 161:./Libraries/STM32H7xx_HAL_Driver/Src/stm32h7xx_ll_delayblock.c **** /**
 162:./Libraries/STM32H7xx_HAL_Driver/Src/stm32h7xx_ll_delayblock.c ****   * @brief  Disable the Delay Block instance.
 163:./Libraries/STM32H7xx_HAL_Driver/Src/stm32h7xx_ll_delayblock.c ****   * @param  DLYBx: Pointer to DLYB instance.
 164:./Libraries/STM32H7xx_HAL_Driver/Src/stm32h7xx_ll_delayblock.c ****   * @retval HAL status
 165:./Libraries/STM32H7xx_HAL_Driver/Src/stm32h7xx_ll_delayblock.c ****   */
 166:./Libraries/STM32H7xx_HAL_Driver/Src/stm32h7xx_ll_delayblock.c **** HAL_StatusTypeDef DelayBlock_Disable(DLYB_TypeDef *DLYBx)
 167:./Libraries/STM32H7xx_HAL_Driver/Src/stm32h7xx_ll_delayblock.c **** {
 218              		.loc 1 167 1
 219              		.cfi_startproc
 220              		@ args = 0, pretend = 0, frame = 8
 221              		@ frame_needed = 1, uses_anonymous_args = 0
 222              		@ link register save eliminated.
 223 0000 80B4     		push	{r7}
 224              	.LCFI5:
 225              		.cfi_def_cfa_offset 4
 226              		.cfi_offset 7, -4
 227 0002 83B0     		sub	sp, sp, #12
 228              	.LCFI6:
 229              		.cfi_def_cfa_offset 16
ARM GAS  /tmp/ccrPBmkK.s 			page 8


 230 0004 00AF     		add	r7, sp, #0
 231              	.LCFI7:
 232              		.cfi_def_cfa_register 7
 233 0006 7860     		str	r0, [r7, #4]
 168:./Libraries/STM32H7xx_HAL_Driver/Src/stm32h7xx_ll_delayblock.c ****   /* Disable DLYB */
 169:./Libraries/STM32H7xx_HAL_Driver/Src/stm32h7xx_ll_delayblock.c ****   DLYBx->CR = 0U;
 234              		.loc 1 169 13
 235 0008 7B68     		ldr	r3, [r7, #4]
 236 000a 0022     		movs	r2, #0
 237 000c 1A60     		str	r2, [r3]
 170:./Libraries/STM32H7xx_HAL_Driver/Src/stm32h7xx_ll_delayblock.c ****   return HAL_OK;
 238              		.loc 1 170 10
 239 000e 0023     		movs	r3, #0
 171:./Libraries/STM32H7xx_HAL_Driver/Src/stm32h7xx_ll_delayblock.c **** }
 240              		.loc 1 171 1
 241 0010 1846     		mov	r0, r3
 242 0012 0C37     		adds	r7, r7, #12
 243              	.LCFI8:
 244              		.cfi_def_cfa_offset 4
 245 0014 BD46     		mov	sp, r7
 246              	.LCFI9:
 247              		.cfi_def_cfa_register 13
 248              		@ sp needed
 249 0016 5DF8047B 		ldr	r7, [sp], #4
 250              	.LCFI10:
 251              		.cfi_restore 7
 252              		.cfi_def_cfa_offset 0
 253 001a 7047     		bx	lr
 254              		.cfi_endproc
 255              	.LFE332:
 257              		.section	.text.DelayBlock_Configure,"ax",%progbits
 258              		.align	1
 259              		.global	DelayBlock_Configure
 260              		.syntax unified
 261              		.thumb
 262              		.thumb_func
 263              		.fpu fpv5-d16
 265              	DelayBlock_Configure:
 266              	.LFB333:
 172:./Libraries/STM32H7xx_HAL_Driver/Src/stm32h7xx_ll_delayblock.c **** 
 173:./Libraries/STM32H7xx_HAL_Driver/Src/stm32h7xx_ll_delayblock.c **** /**
 174:./Libraries/STM32H7xx_HAL_Driver/Src/stm32h7xx_ll_delayblock.c ****   * @brief  Configure the Delay Block instance.
 175:./Libraries/STM32H7xx_HAL_Driver/Src/stm32h7xx_ll_delayblock.c ****   * @param  DLYBx: Pointer to DLYB instance.
 176:./Libraries/STM32H7xx_HAL_Driver/Src/stm32h7xx_ll_delayblock.c ****   * @param  PhaseSel: Phase selection [0..11].
 177:./Libraries/STM32H7xx_HAL_Driver/Src/stm32h7xx_ll_delayblock.c ****   * @param  Units: Delay units[0..127].
 178:./Libraries/STM32H7xx_HAL_Driver/Src/stm32h7xx_ll_delayblock.c ****   * @retval HAL status
 179:./Libraries/STM32H7xx_HAL_Driver/Src/stm32h7xx_ll_delayblock.c ****   */
 180:./Libraries/STM32H7xx_HAL_Driver/Src/stm32h7xx_ll_delayblock.c **** HAL_StatusTypeDef DelayBlock_Configure(DLYB_TypeDef *DLYBx,uint32_t PhaseSel, uint32_t Units )
 181:./Libraries/STM32H7xx_HAL_Driver/Src/stm32h7xx_ll_delayblock.c **** {
 267              		.loc 1 181 1
 268              		.cfi_startproc
 269              		@ args = 0, pretend = 0, frame = 16
 270              		@ frame_needed = 1, uses_anonymous_args = 0
 271              		@ link register save eliminated.
 272 0000 80B4     		push	{r7}
 273              	.LCFI11:
 274              		.cfi_def_cfa_offset 4
ARM GAS  /tmp/ccrPBmkK.s 			page 9


 275              		.cfi_offset 7, -4
 276 0002 85B0     		sub	sp, sp, #20
 277              	.LCFI12:
 278              		.cfi_def_cfa_offset 24
 279 0004 00AF     		add	r7, sp, #0
 280              	.LCFI13:
 281              		.cfi_def_cfa_register 7
 282 0006 F860     		str	r0, [r7, #12]
 283 0008 B960     		str	r1, [r7, #8]
 284 000a 7A60     		str	r2, [r7, #4]
 182:./Libraries/STM32H7xx_HAL_Driver/Src/stm32h7xx_ll_delayblock.c ****   /* Apply the delay settings */
 183:./Libraries/STM32H7xx_HAL_Driver/Src/stm32h7xx_ll_delayblock.c **** 
 184:./Libraries/STM32H7xx_HAL_Driver/Src/stm32h7xx_ll_delayblock.c ****   DLYBx->CR   = 0U;
 285              		.loc 1 184 15
 286 000c FB68     		ldr	r3, [r7, #12]
 287 000e 0022     		movs	r2, #0
 288 0010 1A60     		str	r2, [r3]
 185:./Libraries/STM32H7xx_HAL_Driver/Src/stm32h7xx_ll_delayblock.c ****   DLYBx->CR   = DLYB_CR_DEN | DLYB_CR_SEN;
 289              		.loc 1 185 15
 290 0012 FB68     		ldr	r3, [r7, #12]
 291 0014 0322     		movs	r2, #3
 292 0016 1A60     		str	r2, [r3]
 186:./Libraries/STM32H7xx_HAL_Driver/Src/stm32h7xx_ll_delayblock.c ****   DLYBx->CFGR = PhaseSel | (Units << DLYB_CFGR_UNIT_Pos);
 293              		.loc 1 186 35
 294 0018 7B68     		ldr	r3, [r7, #4]
 295 001a 1A02     		lsls	r2, r3, #8
 296              		.loc 1 186 26
 297 001c BB68     		ldr	r3, [r7, #8]
 298 001e 1A43     		orrs	r2, r2, r3
 299              		.loc 1 186 15
 300 0020 FB68     		ldr	r3, [r7, #12]
 301 0022 5A60     		str	r2, [r3, #4]
 187:./Libraries/STM32H7xx_HAL_Driver/Src/stm32h7xx_ll_delayblock.c ****   DLYBx->CR   = DLYB_CR_DEN;
 302              		.loc 1 187 15
 303 0024 FB68     		ldr	r3, [r7, #12]
 304 0026 0122     		movs	r2, #1
 305 0028 1A60     		str	r2, [r3]
 188:./Libraries/STM32H7xx_HAL_Driver/Src/stm32h7xx_ll_delayblock.c **** 
 189:./Libraries/STM32H7xx_HAL_Driver/Src/stm32h7xx_ll_delayblock.c ****   return HAL_OK;
 306              		.loc 1 189 10
 307 002a 0023     		movs	r3, #0
 190:./Libraries/STM32H7xx_HAL_Driver/Src/stm32h7xx_ll_delayblock.c **** }
 308              		.loc 1 190 1
 309 002c 1846     		mov	r0, r3
 310 002e 1437     		adds	r7, r7, #20
 311              	.LCFI14:
 312              		.cfi_def_cfa_offset 4
 313 0030 BD46     		mov	sp, r7
 314              	.LCFI15:
 315              		.cfi_def_cfa_register 13
 316              		@ sp needed
 317 0032 5DF8047B 		ldr	r7, [sp], #4
 318              	.LCFI16:
 319              		.cfi_restore 7
 320              		.cfi_def_cfa_offset 0
 321 0036 7047     		bx	lr
 322              		.cfi_endproc
ARM GAS  /tmp/ccrPBmkK.s 			page 10


 323              	.LFE333:
 325              		.text
 326              	.Letext0:
 327              		.file 2 "/usr/lib/gcc/arm-none-eabi/9.2.1/include/stdint.h"
 328              		.file 3 "./Libraries/CMSIS/Core/Include/core_cm7.h"
 329              		.file 4 "./Libraries/CMSIS/Device/ST/STM32H7xx/Include/system_stm32h7xx.h"
 330              		.file 5 "./Libraries/CMSIS/Device/ST/STM32H7xx/Include/stm32h747xx.h"
 331              		.file 6 "/usr/lib/gcc/arm-none-eabi/9.2.1/include/stddef.h"
 332              		.file 7 "/usr/include/newlib/sys/_types.h"
 333              		.file 8 "/usr/include/newlib/sys/reent.h"
 334              		.file 9 "/usr/include/newlib/sys/lock.h"
 335              		.file 10 "/usr/include/newlib/math.h"
 336              		.file 11 "./Libraries/STM32H7xx_HAL_Driver/Inc/stm32h7xx_hal_def.h"
 337              		.file 12 "./Libraries/STM32H7xx_HAL_Driver/Inc/stm32h7xx_hal_flash.h"
 338              		.file 13 "./Libraries/STM32H7xx_HAL_Driver/Inc/stm32h7xx_hal_uart.h"
 339              		.file 14 "./Libraries/STM32H7xx_HAL_Driver/Inc/stm32h7xx_hal.h"
ARM GAS  /tmp/ccrPBmkK.s 			page 11


DEFINED SYMBOLS
                            *ABS*:0000000000000000 stm32h7xx_ll_delayblock.c
     /tmp/ccrPBmkK.s:17     .text.DelayBlock_Enable:0000000000000000 $t
     /tmp/ccrPBmkK.s:25     .text.DelayBlock_Enable:0000000000000000 DelayBlock_Enable
     /tmp/ccrPBmkK.s:209    .text.DelayBlock_Disable:0000000000000000 $t
     /tmp/ccrPBmkK.s:216    .text.DelayBlock_Disable:0000000000000000 DelayBlock_Disable
     /tmp/ccrPBmkK.s:258    .text.DelayBlock_Configure:0000000000000000 $t
     /tmp/ccrPBmkK.s:265    .text.DelayBlock_Configure:0000000000000000 DelayBlock_Configure

UNDEFINED SYMBOLS
HAL_GetTick
