ARM GAS  /tmp/ccupsUKS.s 			page 1


   1              		.cpu cortex-m7
   2              		.eabi_attribute 28, 1
   3              		.eabi_attribute 20, 1
   4              		.eabi_attribute 21, 1
   5              		.eabi_attribute 23, 3
   6              		.eabi_attribute 24, 1
   7              		.eabi_attribute 25, 1
   8              		.eabi_attribute 26, 1
   9              		.eabi_attribute 30, 6
  10              		.eabi_attribute 34, 1
  11              		.eabi_attribute 18, 4
  12              		.file	"stm32h7xx_hal_sd_ex.c"
  13              		.text
  14              	.Ltext0:
  15              		.cfi_sections	.debug_frame
  16              		.section	.text.HAL_SDEx_ConfigDMAMultiBuffer,"ax",%progbits
  17              		.align	1
  18              		.global	HAL_SDEx_ConfigDMAMultiBuffer
  19              		.arch armv7e-m
  20              		.syntax unified
  21              		.thumb
  22              		.thumb_func
  23              		.fpu fpv5-d16
  25              	HAL_SDEx_ConfigDMAMultiBuffer:
  26              	.LFB331:
  27              		.file 1 "./Libraries/STM32H7xx_HAL_Driver/Src/stm32h7xx_hal_sd_ex.c"
   1:./Libraries/STM32H7xx_HAL_Driver/Src/stm32h7xx_hal_sd_ex.c **** /**
   2:./Libraries/STM32H7xx_HAL_Driver/Src/stm32h7xx_hal_sd_ex.c ****   ******************************************************************************
   3:./Libraries/STM32H7xx_HAL_Driver/Src/stm32h7xx_hal_sd_ex.c ****   * @file    stm32h7xx_hal_sd_ex.c
   4:./Libraries/STM32H7xx_HAL_Driver/Src/stm32h7xx_hal_sd_ex.c ****   * @author  MCD Application Team
   5:./Libraries/STM32H7xx_HAL_Driver/Src/stm32h7xx_hal_sd_ex.c ****   * @brief   SD card Extended HAL module driver.
   6:./Libraries/STM32H7xx_HAL_Driver/Src/stm32h7xx_hal_sd_ex.c ****   *          This file provides firmware functions to manage the following
   7:./Libraries/STM32H7xx_HAL_Driver/Src/stm32h7xx_hal_sd_ex.c ****   *          functionalities of the Secure Digital (SD) peripheral:
   8:./Libraries/STM32H7xx_HAL_Driver/Src/stm32h7xx_hal_sd_ex.c ****   *           + Extended features functions
   9:./Libraries/STM32H7xx_HAL_Driver/Src/stm32h7xx_hal_sd_ex.c ****   *
  10:./Libraries/STM32H7xx_HAL_Driver/Src/stm32h7xx_hal_sd_ex.c ****   @verbatim
  11:./Libraries/STM32H7xx_HAL_Driver/Src/stm32h7xx_hal_sd_ex.c ****   ==============================================================================
  12:./Libraries/STM32H7xx_HAL_Driver/Src/stm32h7xx_hal_sd_ex.c ****                         ##### How to use this driver #####
  13:./Libraries/STM32H7xx_HAL_Driver/Src/stm32h7xx_hal_sd_ex.c ****   ==============================================================================
  14:./Libraries/STM32H7xx_HAL_Driver/Src/stm32h7xx_hal_sd_ex.c ****   [..]
  15:./Libraries/STM32H7xx_HAL_Driver/Src/stm32h7xx_hal_sd_ex.c ****    The SD Extension HAL driver can be used as follows:
  16:./Libraries/STM32H7xx_HAL_Driver/Src/stm32h7xx_hal_sd_ex.c ****    (+) Configure Buffer0 and Buffer1 start address and Buffer size using HAL_SDEx_ConfigDMAMultiBuf
  17:./Libraries/STM32H7xx_HAL_Driver/Src/stm32h7xx_hal_sd_ex.c ****    (+) Start Read and Write for multibuffer mode using HAL_SDEx_ReadBlocksDMAMultiBuffer()
  18:./Libraries/STM32H7xx_HAL_Driver/Src/stm32h7xx_hal_sd_ex.c ****        and HAL_SDEx_WriteBlocksDMAMultiBuffer() functions.
  19:./Libraries/STM32H7xx_HAL_Driver/Src/stm32h7xx_hal_sd_ex.c **** 
  20:./Libraries/STM32H7xx_HAL_Driver/Src/stm32h7xx_hal_sd_ex.c ****   @endverbatim
  21:./Libraries/STM32H7xx_HAL_Driver/Src/stm32h7xx_hal_sd_ex.c ****   ******************************************************************************
  22:./Libraries/STM32H7xx_HAL_Driver/Src/stm32h7xx_hal_sd_ex.c ****   * @attention
  23:./Libraries/STM32H7xx_HAL_Driver/Src/stm32h7xx_hal_sd_ex.c ****   *
  24:./Libraries/STM32H7xx_HAL_Driver/Src/stm32h7xx_hal_sd_ex.c ****   * <h2><center>&copy; Copyright (c) 2017 STMicroelectronics.
  25:./Libraries/STM32H7xx_HAL_Driver/Src/stm32h7xx_hal_sd_ex.c ****   * All rights reserved.</center></h2>
  26:./Libraries/STM32H7xx_HAL_Driver/Src/stm32h7xx_hal_sd_ex.c ****   *
  27:./Libraries/STM32H7xx_HAL_Driver/Src/stm32h7xx_hal_sd_ex.c ****   * This software component is licensed by ST under BSD 3-Clause license,
  28:./Libraries/STM32H7xx_HAL_Driver/Src/stm32h7xx_hal_sd_ex.c ****   * the "License"; You may not use this file except in compliance with the
  29:./Libraries/STM32H7xx_HAL_Driver/Src/stm32h7xx_hal_sd_ex.c ****   * License. You may obtain a copy of the License at:
  30:./Libraries/STM32H7xx_HAL_Driver/Src/stm32h7xx_hal_sd_ex.c ****   *                       opensource.org/licenses/BSD-3-Clause
  31:./Libraries/STM32H7xx_HAL_Driver/Src/stm32h7xx_hal_sd_ex.c ****   *
ARM GAS  /tmp/ccupsUKS.s 			page 2


  32:./Libraries/STM32H7xx_HAL_Driver/Src/stm32h7xx_hal_sd_ex.c ****   ******************************************************************************
  33:./Libraries/STM32H7xx_HAL_Driver/Src/stm32h7xx_hal_sd_ex.c ****   */
  34:./Libraries/STM32H7xx_HAL_Driver/Src/stm32h7xx_hal_sd_ex.c **** 
  35:./Libraries/STM32H7xx_HAL_Driver/Src/stm32h7xx_hal_sd_ex.c **** /* Includes ------------------------------------------------------------------*/
  36:./Libraries/STM32H7xx_HAL_Driver/Src/stm32h7xx_hal_sd_ex.c **** #include "stm32h7xx_hal.h"
  37:./Libraries/STM32H7xx_HAL_Driver/Src/stm32h7xx_hal_sd_ex.c **** 
  38:./Libraries/STM32H7xx_HAL_Driver/Src/stm32h7xx_hal_sd_ex.c **** /** @addtogroup STM32H7xx_HAL_Driver
  39:./Libraries/STM32H7xx_HAL_Driver/Src/stm32h7xx_hal_sd_ex.c ****   * @{
  40:./Libraries/STM32H7xx_HAL_Driver/Src/stm32h7xx_hal_sd_ex.c ****   */
  41:./Libraries/STM32H7xx_HAL_Driver/Src/stm32h7xx_hal_sd_ex.c **** 
  42:./Libraries/STM32H7xx_HAL_Driver/Src/stm32h7xx_hal_sd_ex.c **** /** @defgroup SDEx SDEx
  43:./Libraries/STM32H7xx_HAL_Driver/Src/stm32h7xx_hal_sd_ex.c ****   * @brief SD Extended HAL module driver
  44:./Libraries/STM32H7xx_HAL_Driver/Src/stm32h7xx_hal_sd_ex.c ****   * @{
  45:./Libraries/STM32H7xx_HAL_Driver/Src/stm32h7xx_hal_sd_ex.c ****   */
  46:./Libraries/STM32H7xx_HAL_Driver/Src/stm32h7xx_hal_sd_ex.c **** 
  47:./Libraries/STM32H7xx_HAL_Driver/Src/stm32h7xx_hal_sd_ex.c **** #ifdef HAL_SD_MODULE_ENABLED
  48:./Libraries/STM32H7xx_HAL_Driver/Src/stm32h7xx_hal_sd_ex.c **** 
  49:./Libraries/STM32H7xx_HAL_Driver/Src/stm32h7xx_hal_sd_ex.c **** /* Private typedef -----------------------------------------------------------*/
  50:./Libraries/STM32H7xx_HAL_Driver/Src/stm32h7xx_hal_sd_ex.c **** /* Private define ------------------------------------------------------------*/
  51:./Libraries/STM32H7xx_HAL_Driver/Src/stm32h7xx_hal_sd_ex.c **** /* Private macro -------------------------------------------------------------*/
  52:./Libraries/STM32H7xx_HAL_Driver/Src/stm32h7xx_hal_sd_ex.c **** /* Private variables ---------------------------------------------------------*/
  53:./Libraries/STM32H7xx_HAL_Driver/Src/stm32h7xx_hal_sd_ex.c **** /* Private function prototypes -----------------------------------------------*/
  54:./Libraries/STM32H7xx_HAL_Driver/Src/stm32h7xx_hal_sd_ex.c **** /* Private functions ---------------------------------------------------------*/
  55:./Libraries/STM32H7xx_HAL_Driver/Src/stm32h7xx_hal_sd_ex.c **** /* Exported functions --------------------------------------------------------*/
  56:./Libraries/STM32H7xx_HAL_Driver/Src/stm32h7xx_hal_sd_ex.c **** /** @addtogroup SDEx_Exported_Functions
  57:./Libraries/STM32H7xx_HAL_Driver/Src/stm32h7xx_hal_sd_ex.c ****   * @{
  58:./Libraries/STM32H7xx_HAL_Driver/Src/stm32h7xx_hal_sd_ex.c ****   */
  59:./Libraries/STM32H7xx_HAL_Driver/Src/stm32h7xx_hal_sd_ex.c **** 
  60:./Libraries/STM32H7xx_HAL_Driver/Src/stm32h7xx_hal_sd_ex.c **** /** @addtogroup SDEx_Exported_Functions_Group1
  61:./Libraries/STM32H7xx_HAL_Driver/Src/stm32h7xx_hal_sd_ex.c ****   *  @brief   Multibuffer functions
  62:./Libraries/STM32H7xx_HAL_Driver/Src/stm32h7xx_hal_sd_ex.c ****   *
  63:./Libraries/STM32H7xx_HAL_Driver/Src/stm32h7xx_hal_sd_ex.c **** @verbatim
  64:./Libraries/STM32H7xx_HAL_Driver/Src/stm32h7xx_hal_sd_ex.c ****   ==============================================================================
  65:./Libraries/STM32H7xx_HAL_Driver/Src/stm32h7xx_hal_sd_ex.c ****           ##### Multibuffer functions #####
  66:./Libraries/STM32H7xx_HAL_Driver/Src/stm32h7xx_hal_sd_ex.c ****   ==============================================================================
  67:./Libraries/STM32H7xx_HAL_Driver/Src/stm32h7xx_hal_sd_ex.c ****   [..]
  68:./Libraries/STM32H7xx_HAL_Driver/Src/stm32h7xx_hal_sd_ex.c ****     This section provides functions allowing to configure the multibuffer mode and start read and w
  69:./Libraries/STM32H7xx_HAL_Driver/Src/stm32h7xx_hal_sd_ex.c ****     multibuffer mode for SD HAL driver.
  70:./Libraries/STM32H7xx_HAL_Driver/Src/stm32h7xx_hal_sd_ex.c **** 
  71:./Libraries/STM32H7xx_HAL_Driver/Src/stm32h7xx_hal_sd_ex.c **** @endverbatim
  72:./Libraries/STM32H7xx_HAL_Driver/Src/stm32h7xx_hal_sd_ex.c ****   * @{
  73:./Libraries/STM32H7xx_HAL_Driver/Src/stm32h7xx_hal_sd_ex.c ****   */
  74:./Libraries/STM32H7xx_HAL_Driver/Src/stm32h7xx_hal_sd_ex.c **** 
  75:./Libraries/STM32H7xx_HAL_Driver/Src/stm32h7xx_hal_sd_ex.c **** /**
  76:./Libraries/STM32H7xx_HAL_Driver/Src/stm32h7xx_hal_sd_ex.c ****   * @brief  Configure DMA Dual Buffer mode. The Data transfer is managed by an Internal DMA.
  77:./Libraries/STM32H7xx_HAL_Driver/Src/stm32h7xx_hal_sd_ex.c ****   * @param  hsd: SD handle
  78:./Libraries/STM32H7xx_HAL_Driver/Src/stm32h7xx_hal_sd_ex.c ****   * @param  pDataBuffer0: Pointer to the buffer0 that will contain/receive the transferred data
  79:./Libraries/STM32H7xx_HAL_Driver/Src/stm32h7xx_hal_sd_ex.c ****   * @param  pDataBuffer1: Pointer to the buffer1 that will contain/receive the transferred data
  80:./Libraries/STM32H7xx_HAL_Driver/Src/stm32h7xx_hal_sd_ex.c ****   * @param  BufferSize: Size of Buffer0 in Blocks. Buffer0 and Buffer1 must have the same size.
  81:./Libraries/STM32H7xx_HAL_Driver/Src/stm32h7xx_hal_sd_ex.c ****   * @retval HAL status
  82:./Libraries/STM32H7xx_HAL_Driver/Src/stm32h7xx_hal_sd_ex.c ****   */
  83:./Libraries/STM32H7xx_HAL_Driver/Src/stm32h7xx_hal_sd_ex.c **** HAL_StatusTypeDef HAL_SDEx_ConfigDMAMultiBuffer(SD_HandleTypeDef *hsd, uint32_t *pDataBuffer0, uint
  84:./Libraries/STM32H7xx_HAL_Driver/Src/stm32h7xx_hal_sd_ex.c ****                                                 uint32_t BufferSize)
  85:./Libraries/STM32H7xx_HAL_Driver/Src/stm32h7xx_hal_sd_ex.c **** {
  28              		.loc 1 85 1
  29              		.cfi_startproc
  30              		@ args = 0, pretend = 0, frame = 16
ARM GAS  /tmp/ccupsUKS.s 			page 3


  31              		@ frame_needed = 1, uses_anonymous_args = 0
  32              		@ link register save eliminated.
  33 0000 80B4     		push	{r7}
  34              	.LCFI0:
  35              		.cfi_def_cfa_offset 4
  36              		.cfi_offset 7, -4
  37 0002 85B0     		sub	sp, sp, #20
  38              	.LCFI1:
  39              		.cfi_def_cfa_offset 24
  40 0004 00AF     		add	r7, sp, #0
  41              	.LCFI2:
  42              		.cfi_def_cfa_register 7
  43 0006 F860     		str	r0, [r7, #12]
  44 0008 B960     		str	r1, [r7, #8]
  45 000a 7A60     		str	r2, [r7, #4]
  46 000c 3B60     		str	r3, [r7]
  86:./Libraries/STM32H7xx_HAL_Driver/Src/stm32h7xx_hal_sd_ex.c ****   if (hsd->State == HAL_SD_STATE_READY)
  47              		.loc 1 86 10
  48 000e FB68     		ldr	r3, [r7, #12]
  49 0010 93F83430 		ldrb	r3, [r3, #52]
  50 0014 DBB2     		uxtb	r3, r3
  51              		.loc 1 86 6
  52 0016 012B     		cmp	r3, #1
  53 0018 0ED1     		bne	.L2
  87:./Libraries/STM32H7xx_HAL_Driver/Src/stm32h7xx_hal_sd_ex.c ****   {
  88:./Libraries/STM32H7xx_HAL_Driver/Src/stm32h7xx_hal_sd_ex.c ****     hsd->Instance->IDMABASE0 = (uint32_t) pDataBuffer0;
  54              		.loc 1 88 8
  55 001a FB68     		ldr	r3, [r7, #12]
  56 001c 1B68     		ldr	r3, [r3]
  57              		.loc 1 88 32
  58 001e BA68     		ldr	r2, [r7, #8]
  59              		.loc 1 88 30
  60 0020 9A65     		str	r2, [r3, #88]
  89:./Libraries/STM32H7xx_HAL_Driver/Src/stm32h7xx_hal_sd_ex.c ****     hsd->Instance->IDMABASE1 = (uint32_t) pDataBuffer1;
  61              		.loc 1 89 8
  62 0022 FB68     		ldr	r3, [r7, #12]
  63 0024 1B68     		ldr	r3, [r3]
  64              		.loc 1 89 32
  65 0026 7A68     		ldr	r2, [r7, #4]
  66              		.loc 1 89 30
  67 0028 DA65     		str	r2, [r3, #92]
  90:./Libraries/STM32H7xx_HAL_Driver/Src/stm32h7xx_hal_sd_ex.c ****     hsd->Instance->IDMABSIZE = (uint32_t)(BLOCKSIZE * BufferSize);
  68              		.loc 1 90 8
  69 002a FB68     		ldr	r3, [r7, #12]
  70 002c 1B68     		ldr	r3, [r3]
  71              		.loc 1 90 32
  72 002e 3A68     		ldr	r2, [r7]
  73 0030 5202     		lsls	r2, r2, #9
  74              		.loc 1 90 30
  75 0032 5A65     		str	r2, [r3, #84]
  91:./Libraries/STM32H7xx_HAL_Driver/Src/stm32h7xx_hal_sd_ex.c **** 
  92:./Libraries/STM32H7xx_HAL_Driver/Src/stm32h7xx_hal_sd_ex.c ****     return HAL_OK;
  76              		.loc 1 92 12
  77 0034 0023     		movs	r3, #0
  78 0036 00E0     		b	.L3
  79              	.L2:
  93:./Libraries/STM32H7xx_HAL_Driver/Src/stm32h7xx_hal_sd_ex.c ****   }
ARM GAS  /tmp/ccupsUKS.s 			page 4


  94:./Libraries/STM32H7xx_HAL_Driver/Src/stm32h7xx_hal_sd_ex.c ****   else
  95:./Libraries/STM32H7xx_HAL_Driver/Src/stm32h7xx_hal_sd_ex.c ****   {
  96:./Libraries/STM32H7xx_HAL_Driver/Src/stm32h7xx_hal_sd_ex.c ****     return HAL_BUSY;
  80              		.loc 1 96 12
  81 0038 0223     		movs	r3, #2
  82              	.L3:
  97:./Libraries/STM32H7xx_HAL_Driver/Src/stm32h7xx_hal_sd_ex.c ****   }
  98:./Libraries/STM32H7xx_HAL_Driver/Src/stm32h7xx_hal_sd_ex.c **** }
  83              		.loc 1 98 1
  84 003a 1846     		mov	r0, r3
  85 003c 1437     		adds	r7, r7, #20
  86              	.LCFI3:
  87              		.cfi_def_cfa_offset 4
  88 003e BD46     		mov	sp, r7
  89              	.LCFI4:
  90              		.cfi_def_cfa_register 13
  91              		@ sp needed
  92 0040 5DF8047B 		ldr	r7, [sp], #4
  93              	.LCFI5:
  94              		.cfi_restore 7
  95              		.cfi_def_cfa_offset 0
  96 0044 7047     		bx	lr
  97              		.cfi_endproc
  98              	.LFE331:
 100              		.section	.text.HAL_SDEx_ReadBlocksDMAMultiBuffer,"ax",%progbits
 101              		.align	1
 102              		.global	HAL_SDEx_ReadBlocksDMAMultiBuffer
 103              		.syntax unified
 104              		.thumb
 105              		.thumb_func
 106              		.fpu fpv5-d16
 108              	HAL_SDEx_ReadBlocksDMAMultiBuffer:
 109              	.LFB332:
  99:./Libraries/STM32H7xx_HAL_Driver/Src/stm32h7xx_hal_sd_ex.c **** 
 100:./Libraries/STM32H7xx_HAL_Driver/Src/stm32h7xx_hal_sd_ex.c **** /**
 101:./Libraries/STM32H7xx_HAL_Driver/Src/stm32h7xx_hal_sd_ex.c ****   * @brief  Reads block(s) from a specified address in a card. The received Data will be stored in 
 102:./Libraries/STM32H7xx_HAL_Driver/Src/stm32h7xx_hal_sd_ex.c ****   *         Buffer0, Buffer1 and BufferSize need to be configured by function HAL_SDEx_ConfigDMAMul
 103:./Libraries/STM32H7xx_HAL_Driver/Src/stm32h7xx_hal_sd_ex.c ****   *         call this function.
 104:./Libraries/STM32H7xx_HAL_Driver/Src/stm32h7xx_hal_sd_ex.c ****   * @param  hsd: SD handle
 105:./Libraries/STM32H7xx_HAL_Driver/Src/stm32h7xx_hal_sd_ex.c ****   * @param  BlockAdd: Block Address from where data is to be read
 106:./Libraries/STM32H7xx_HAL_Driver/Src/stm32h7xx_hal_sd_ex.c ****   * @param  NumberOfBlocks: Total number of blocks to read
 107:./Libraries/STM32H7xx_HAL_Driver/Src/stm32h7xx_hal_sd_ex.c ****   * @retval HAL status
 108:./Libraries/STM32H7xx_HAL_Driver/Src/stm32h7xx_hal_sd_ex.c ****   */
 109:./Libraries/STM32H7xx_HAL_Driver/Src/stm32h7xx_hal_sd_ex.c **** HAL_StatusTypeDef HAL_SDEx_ReadBlocksDMAMultiBuffer(SD_HandleTypeDef *hsd, uint32_t BlockAdd, uint3
 110:./Libraries/STM32H7xx_HAL_Driver/Src/stm32h7xx_hal_sd_ex.c **** {
 110              		.loc 1 110 1
 111              		.cfi_startproc
 112              		@ args = 0, pretend = 0, frame = 56
 113              		@ frame_needed = 1, uses_anonymous_args = 0
 114 0000 80B5     		push	{r7, lr}
 115              	.LCFI6:
 116              		.cfi_def_cfa_offset 8
 117              		.cfi_offset 7, -8
 118              		.cfi_offset 14, -4
 119 0002 8EB0     		sub	sp, sp, #56
 120              	.LCFI7:
 121              		.cfi_def_cfa_offset 64
ARM GAS  /tmp/ccupsUKS.s 			page 5


 122 0004 00AF     		add	r7, sp, #0
 123              	.LCFI8:
 124              		.cfi_def_cfa_register 7
 125 0006 F860     		str	r0, [r7, #12]
 126 0008 B960     		str	r1, [r7, #8]
 127 000a 7A60     		str	r2, [r7, #4]
 111:./Libraries/STM32H7xx_HAL_Driver/Src/stm32h7xx_hal_sd_ex.c ****   SDMMC_DataInitTypeDef config;
 112:./Libraries/STM32H7xx_HAL_Driver/Src/stm32h7xx_hal_sd_ex.c ****   uint32_t errorstate;
 113:./Libraries/STM32H7xx_HAL_Driver/Src/stm32h7xx_hal_sd_ex.c ****   uint32_t DmaBase0_reg;
 114:./Libraries/STM32H7xx_HAL_Driver/Src/stm32h7xx_hal_sd_ex.c ****   uint32_t DmaBase1_reg;
 115:./Libraries/STM32H7xx_HAL_Driver/Src/stm32h7xx_hal_sd_ex.c ****   uint32_t add = BlockAdd;
 128              		.loc 1 115 12
 129 000c BB68     		ldr	r3, [r7, #8]
 130 000e 7B63     		str	r3, [r7, #52]
 116:./Libraries/STM32H7xx_HAL_Driver/Src/stm32h7xx_hal_sd_ex.c **** 
 117:./Libraries/STM32H7xx_HAL_Driver/Src/stm32h7xx_hal_sd_ex.c ****   if (hsd->State == HAL_SD_STATE_READY)
 131              		.loc 1 117 10
 132 0010 FB68     		ldr	r3, [r7, #12]
 133 0012 93F83430 		ldrb	r3, [r3, #52]
 134 0016 DBB2     		uxtb	r3, r3
 135              		.loc 1 117 6
 136 0018 012B     		cmp	r3, #1
 137 001a 40F08B80 		bne	.L5
 118:./Libraries/STM32H7xx_HAL_Driver/Src/stm32h7xx_hal_sd_ex.c ****   {
 119:./Libraries/STM32H7xx_HAL_Driver/Src/stm32h7xx_hal_sd_ex.c ****     if ((add + NumberOfBlocks) > (hsd->SdCard.LogBlockNbr))
 138              		.loc 1 119 14
 139 001e 7A6B     		ldr	r2, [r7, #52]
 140 0020 7B68     		ldr	r3, [r7, #4]
 141 0022 1A44     		add	r2, r2, r3
 142              		.loc 1 119 46
 143 0024 FB68     		ldr	r3, [r7, #12]
 144 0026 5B6D     		ldr	r3, [r3, #84]
 145              		.loc 1 119 8
 146 0028 9A42     		cmp	r2, r3
 147 002a 07D9     		bls	.L6
 120:./Libraries/STM32H7xx_HAL_Driver/Src/stm32h7xx_hal_sd_ex.c ****     {
 121:./Libraries/STM32H7xx_HAL_Driver/Src/stm32h7xx_hal_sd_ex.c ****       hsd->ErrorCode |= HAL_SD_ERROR_ADDR_OUT_OF_RANGE;
 148              		.loc 1 121 22
 149 002c FB68     		ldr	r3, [r7, #12]
 150 002e 9B6B     		ldr	r3, [r3, #56]
 151 0030 43F00072 		orr	r2, r3, #33554432
 152 0034 FB68     		ldr	r3, [r7, #12]
 153 0036 9A63     		str	r2, [r3, #56]
 122:./Libraries/STM32H7xx_HAL_Driver/Src/stm32h7xx_hal_sd_ex.c ****       return HAL_ERROR;
 154              		.loc 1 122 14
 155 0038 0123     		movs	r3, #1
 156 003a 7CE0     		b	.L12
 157              	.L6:
 123:./Libraries/STM32H7xx_HAL_Driver/Src/stm32h7xx_hal_sd_ex.c ****     }
 124:./Libraries/STM32H7xx_HAL_Driver/Src/stm32h7xx_hal_sd_ex.c **** 
 125:./Libraries/STM32H7xx_HAL_Driver/Src/stm32h7xx_hal_sd_ex.c ****     DmaBase0_reg = hsd->Instance->IDMABASE0;
 158              		.loc 1 125 23
 159 003c FB68     		ldr	r3, [r7, #12]
 160 003e 1B68     		ldr	r3, [r3]
 161              		.loc 1 125 18
 162 0040 9B6D     		ldr	r3, [r3, #88]
 163 0042 3B63     		str	r3, [r7, #48]
ARM GAS  /tmp/ccupsUKS.s 			page 6


 126:./Libraries/STM32H7xx_HAL_Driver/Src/stm32h7xx_hal_sd_ex.c ****     DmaBase1_reg = hsd->Instance->IDMABASE1;
 164              		.loc 1 126 23
 165 0044 FB68     		ldr	r3, [r7, #12]
 166 0046 1B68     		ldr	r3, [r3]
 167              		.loc 1 126 18
 168 0048 DB6D     		ldr	r3, [r3, #92]
 169 004a FB62     		str	r3, [r7, #44]
 127:./Libraries/STM32H7xx_HAL_Driver/Src/stm32h7xx_hal_sd_ex.c **** 
 128:./Libraries/STM32H7xx_HAL_Driver/Src/stm32h7xx_hal_sd_ex.c ****     if ((hsd->Instance->IDMABSIZE == 0U) || (DmaBase0_reg == 0U) || (DmaBase1_reg == 0U))
 170              		.loc 1 128 13
 171 004c FB68     		ldr	r3, [r7, #12]
 172 004e 1B68     		ldr	r3, [r3]
 173              		.loc 1 128 23
 174 0050 5B6D     		ldr	r3, [r3, #84]
 175              		.loc 1 128 8
 176 0052 002B     		cmp	r3, #0
 177 0054 05D0     		beq	.L8
 178              		.loc 1 128 42 discriminator 1
 179 0056 3B6B     		ldr	r3, [r7, #48]
 180 0058 002B     		cmp	r3, #0
 181 005a 02D0     		beq	.L8
 182              		.loc 1 128 66 discriminator 2
 183 005c FB6A     		ldr	r3, [r7, #44]
 184 005e 002B     		cmp	r3, #0
 185 0060 05D1     		bne	.L9
 186              	.L8:
 129:./Libraries/STM32H7xx_HAL_Driver/Src/stm32h7xx_hal_sd_ex.c ****     {
 130:./Libraries/STM32H7xx_HAL_Driver/Src/stm32h7xx_hal_sd_ex.c ****       hsd->ErrorCode = HAL_SD_ERROR_ADDR_OUT_OF_RANGE;
 187              		.loc 1 130 22
 188 0062 FB68     		ldr	r3, [r7, #12]
 189 0064 4FF00072 		mov	r2, #33554432
 190 0068 9A63     		str	r2, [r3, #56]
 131:./Libraries/STM32H7xx_HAL_Driver/Src/stm32h7xx_hal_sd_ex.c ****       return HAL_ERROR;
 191              		.loc 1 131 14
 192 006a 0123     		movs	r3, #1
 193 006c 63E0     		b	.L12
 194              	.L9:
 132:./Libraries/STM32H7xx_HAL_Driver/Src/stm32h7xx_hal_sd_ex.c ****     }
 133:./Libraries/STM32H7xx_HAL_Driver/Src/stm32h7xx_hal_sd_ex.c **** 
 134:./Libraries/STM32H7xx_HAL_Driver/Src/stm32h7xx_hal_sd_ex.c ****     /* Initialize data control register */
 135:./Libraries/STM32H7xx_HAL_Driver/Src/stm32h7xx_hal_sd_ex.c ****     hsd->Instance->DCTRL = 0;
 195              		.loc 1 135 8
 196 006e FB68     		ldr	r3, [r7, #12]
 197 0070 1B68     		ldr	r3, [r3]
 198              		.loc 1 135 26
 199 0072 0022     		movs	r2, #0
 200 0074 DA62     		str	r2, [r3, #44]
 136:./Libraries/STM32H7xx_HAL_Driver/Src/stm32h7xx_hal_sd_ex.c ****     /* Clear old Flags*/
 137:./Libraries/STM32H7xx_HAL_Driver/Src/stm32h7xx_hal_sd_ex.c ****     __HAL_SD_CLEAR_FLAG(hsd, SDMMC_STATIC_DATA_FLAGS);
 201              		.loc 1 137 5
 202 0076 FB68     		ldr	r3, [r7, #12]
 203 0078 1B68     		ldr	r3, [r3]
 204 007a 314A     		ldr	r2, .L13
 205 007c 9A63     		str	r2, [r3, #56]
 138:./Libraries/STM32H7xx_HAL_Driver/Src/stm32h7xx_hal_sd_ex.c **** 
 139:./Libraries/STM32H7xx_HAL_Driver/Src/stm32h7xx_hal_sd_ex.c ****     hsd->ErrorCode = HAL_SD_ERROR_NONE;
 206              		.loc 1 139 20
ARM GAS  /tmp/ccupsUKS.s 			page 7


 207 007e FB68     		ldr	r3, [r7, #12]
 208 0080 0022     		movs	r2, #0
 209 0082 9A63     		str	r2, [r3, #56]
 140:./Libraries/STM32H7xx_HAL_Driver/Src/stm32h7xx_hal_sd_ex.c ****     hsd->State = HAL_SD_STATE_BUSY;
 210              		.loc 1 140 16
 211 0084 FB68     		ldr	r3, [r7, #12]
 212 0086 0322     		movs	r2, #3
 213 0088 83F83420 		strb	r2, [r3, #52]
 141:./Libraries/STM32H7xx_HAL_Driver/Src/stm32h7xx_hal_sd_ex.c **** 
 142:./Libraries/STM32H7xx_HAL_Driver/Src/stm32h7xx_hal_sd_ex.c ****     if (hsd->SdCard.CardType != CARD_SDHC_SDXC)
 214              		.loc 1 142 20
 215 008c FB68     		ldr	r3, [r7, #12]
 216 008e DB6B     		ldr	r3, [r3, #60]
 217              		.loc 1 142 8
 218 0090 012B     		cmp	r3, #1
 219 0092 02D0     		beq	.L10
 143:./Libraries/STM32H7xx_HAL_Driver/Src/stm32h7xx_hal_sd_ex.c ****     {
 144:./Libraries/STM32H7xx_HAL_Driver/Src/stm32h7xx_hal_sd_ex.c ****       add *= 512U;
 220              		.loc 1 144 11
 221 0094 7B6B     		ldr	r3, [r7, #52]
 222 0096 5B02     		lsls	r3, r3, #9
 223 0098 7B63     		str	r3, [r7, #52]
 224              	.L10:
 145:./Libraries/STM32H7xx_HAL_Driver/Src/stm32h7xx_hal_sd_ex.c ****     }
 146:./Libraries/STM32H7xx_HAL_Driver/Src/stm32h7xx_hal_sd_ex.c **** 
 147:./Libraries/STM32H7xx_HAL_Driver/Src/stm32h7xx_hal_sd_ex.c ****     /* Configure the SD DPSM (Data Path State Machine) */
 148:./Libraries/STM32H7xx_HAL_Driver/Src/stm32h7xx_hal_sd_ex.c ****     config.DataTimeOut   = SDMMC_DATATIMEOUT;
 225              		.loc 1 148 26
 226 009a 4FF0FF33 		mov	r3, #-1
 227 009e 3B61     		str	r3, [r7, #16]
 149:./Libraries/STM32H7xx_HAL_Driver/Src/stm32h7xx_hal_sd_ex.c ****     config.DataLength    = BLOCKSIZE * NumberOfBlocks;
 228              		.loc 1 149 38
 229 00a0 7B68     		ldr	r3, [r7, #4]
 230 00a2 5B02     		lsls	r3, r3, #9
 231              		.loc 1 149 26
 232 00a4 7B61     		str	r3, [r7, #20]
 150:./Libraries/STM32H7xx_HAL_Driver/Src/stm32h7xx_hal_sd_ex.c ****     config.DataBlockSize = SDMMC_DATABLOCK_SIZE_512B;
 233              		.loc 1 150 26
 234 00a6 9023     		movs	r3, #144
 235 00a8 BB61     		str	r3, [r7, #24]
 151:./Libraries/STM32H7xx_HAL_Driver/Src/stm32h7xx_hal_sd_ex.c ****     config.TransferDir   = SDMMC_TRANSFER_DIR_TO_SDMMC;
 236              		.loc 1 151 26
 237 00aa 0223     		movs	r3, #2
 238 00ac FB61     		str	r3, [r7, #28]
 152:./Libraries/STM32H7xx_HAL_Driver/Src/stm32h7xx_hal_sd_ex.c ****     config.TransferMode  = SDMMC_TRANSFER_MODE_BLOCK;
 239              		.loc 1 152 26
 240 00ae 0023     		movs	r3, #0
 241 00b0 3B62     		str	r3, [r7, #32]
 153:./Libraries/STM32H7xx_HAL_Driver/Src/stm32h7xx_hal_sd_ex.c ****     config.DPSM          = SDMMC_DPSM_DISABLE;
 242              		.loc 1 153 26
 243 00b2 0023     		movs	r3, #0
 244 00b4 7B62     		str	r3, [r7, #36]
 154:./Libraries/STM32H7xx_HAL_Driver/Src/stm32h7xx_hal_sd_ex.c ****     (void)SDMMC_ConfigData(hsd->Instance, &config);
 245              		.loc 1 154 11
 246 00b6 FB68     		ldr	r3, [r7, #12]
 247 00b8 1B68     		ldr	r3, [r3]
 248 00ba 07F11002 		add	r2, r7, #16
ARM GAS  /tmp/ccupsUKS.s 			page 8


 249 00be 1146     		mov	r1, r2
 250 00c0 1846     		mov	r0, r3
 251 00c2 FFF7FEFF 		bl	SDMMC_ConfigData
 155:./Libraries/STM32H7xx_HAL_Driver/Src/stm32h7xx_hal_sd_ex.c **** 
 156:./Libraries/STM32H7xx_HAL_Driver/Src/stm32h7xx_hal_sd_ex.c ****     hsd->Instance->DCTRL |= SDMMC_DCTRL_FIFORST;
 252              		.loc 1 156 8
 253 00c6 FB68     		ldr	r3, [r7, #12]
 254 00c8 1B68     		ldr	r3, [r3]
 255              		.loc 1 156 26
 256 00ca DA6A     		ldr	r2, [r3, #44]
 257              		.loc 1 156 8
 258 00cc FB68     		ldr	r3, [r7, #12]
 259 00ce 1B68     		ldr	r3, [r3]
 260              		.loc 1 156 26
 261 00d0 42F40052 		orr	r2, r2, #8192
 262 00d4 DA62     		str	r2, [r3, #44]
 157:./Libraries/STM32H7xx_HAL_Driver/Src/stm32h7xx_hal_sd_ex.c **** 
 158:./Libraries/STM32H7xx_HAL_Driver/Src/stm32h7xx_hal_sd_ex.c ****     __SDMMC_CMDTRANS_ENABLE(hsd->Instance);
 263              		.loc 1 158 5
 264 00d6 FB68     		ldr	r3, [r7, #12]
 265 00d8 1B68     		ldr	r3, [r3]
 266 00da DA68     		ldr	r2, [r3, #12]
 267 00dc FB68     		ldr	r3, [r7, #12]
 268 00de 1B68     		ldr	r3, [r3]
 269 00e0 42F04002 		orr	r2, r2, #64
 270 00e4 DA60     		str	r2, [r3, #12]
 159:./Libraries/STM32H7xx_HAL_Driver/Src/stm32h7xx_hal_sd_ex.c **** 
 160:./Libraries/STM32H7xx_HAL_Driver/Src/stm32h7xx_hal_sd_ex.c ****     hsd->Instance->IDMACTRL = SDMMC_ENABLE_IDMA_DOUBLE_BUFF0;
 271              		.loc 1 160 8
 272 00e6 FB68     		ldr	r3, [r7, #12]
 273 00e8 1B68     		ldr	r3, [r3]
 274              		.loc 1 160 29
 275 00ea 0322     		movs	r2, #3
 276 00ec 1A65     		str	r2, [r3, #80]
 161:./Libraries/STM32H7xx_HAL_Driver/Src/stm32h7xx_hal_sd_ex.c **** 
 162:./Libraries/STM32H7xx_HAL_Driver/Src/stm32h7xx_hal_sd_ex.c ****     /* Read Blocks in DMA mode */
 163:./Libraries/STM32H7xx_HAL_Driver/Src/stm32h7xx_hal_sd_ex.c ****     hsd->Context = (SD_CONTEXT_READ_MULTIPLE_BLOCK | SD_CONTEXT_DMA);
 277              		.loc 1 163 18
 278 00ee FB68     		ldr	r3, [r7, #12]
 279 00f0 8222     		movs	r2, #130
 280 00f2 1A63     		str	r2, [r3, #48]
 164:./Libraries/STM32H7xx_HAL_Driver/Src/stm32h7xx_hal_sd_ex.c **** 
 165:./Libraries/STM32H7xx_HAL_Driver/Src/stm32h7xx_hal_sd_ex.c ****     /* Read Multi Block command */
 166:./Libraries/STM32H7xx_HAL_Driver/Src/stm32h7xx_hal_sd_ex.c ****     errorstate = SDMMC_CmdReadMultiBlock(hsd->Instance, add);
 281              		.loc 1 166 18
 282 00f4 FB68     		ldr	r3, [r7, #12]
 283 00f6 1B68     		ldr	r3, [r3]
 284 00f8 796B     		ldr	r1, [r7, #52]
 285 00fa 1846     		mov	r0, r3
 286 00fc FFF7FEFF 		bl	SDMMC_CmdReadMultiBlock
 287 0100 B862     		str	r0, [r7, #40]
 167:./Libraries/STM32H7xx_HAL_Driver/Src/stm32h7xx_hal_sd_ex.c ****     if (errorstate != HAL_SD_ERROR_NONE)
 288              		.loc 1 167 8
 289 0102 BB6A     		ldr	r3, [r7, #40]
 290 0104 002B     		cmp	r3, #0
 291 0106 0BD0     		beq	.L11
 168:./Libraries/STM32H7xx_HAL_Driver/Src/stm32h7xx_hal_sd_ex.c ****     {
ARM GAS  /tmp/ccupsUKS.s 			page 9


 169:./Libraries/STM32H7xx_HAL_Driver/Src/stm32h7xx_hal_sd_ex.c ****       hsd->State = HAL_SD_STATE_READY;
 292              		.loc 1 169 18
 293 0108 FB68     		ldr	r3, [r7, #12]
 294 010a 0122     		movs	r2, #1
 295 010c 83F83420 		strb	r2, [r3, #52]
 170:./Libraries/STM32H7xx_HAL_Driver/Src/stm32h7xx_hal_sd_ex.c ****       hsd->ErrorCode |= errorstate;
 296              		.loc 1 170 22
 297 0110 FB68     		ldr	r3, [r7, #12]
 298 0112 9A6B     		ldr	r2, [r3, #56]
 299 0114 BB6A     		ldr	r3, [r7, #40]
 300 0116 1A43     		orrs	r2, r2, r3
 301 0118 FB68     		ldr	r3, [r7, #12]
 302 011a 9A63     		str	r2, [r3, #56]
 171:./Libraries/STM32H7xx_HAL_Driver/Src/stm32h7xx_hal_sd_ex.c ****       return HAL_ERROR;
 303              		.loc 1 171 14
 304 011c 0123     		movs	r3, #1
 305 011e 0AE0     		b	.L12
 306              	.L11:
 172:./Libraries/STM32H7xx_HAL_Driver/Src/stm32h7xx_hal_sd_ex.c ****     }
 173:./Libraries/STM32H7xx_HAL_Driver/Src/stm32h7xx_hal_sd_ex.c **** 
 174:./Libraries/STM32H7xx_HAL_Driver/Src/stm32h7xx_hal_sd_ex.c ****     __HAL_SD_ENABLE_IT(hsd, (SDMMC_IT_DCRCFAIL | SDMMC_IT_DTIMEOUT | SDMMC_IT_RXOVERR | SDMMC_IT_DA
 307              		.loc 1 174 5
 308 0120 FB68     		ldr	r3, [r7, #12]
 309 0122 1B68     		ldr	r3, [r3]
 310 0124 D96B     		ldr	r1, [r3, #60]
 311 0126 FB68     		ldr	r3, [r7, #12]
 312 0128 1A68     		ldr	r2, [r3]
 313 012a 064B     		ldr	r3, .L13+4
 314 012c 0B43     		orrs	r3, r3, r1
 315 012e D363     		str	r3, [r2, #60]
 175:./Libraries/STM32H7xx_HAL_Driver/Src/stm32h7xx_hal_sd_ex.c ****                              SDMMC_IT_IDMABTC));
 176:./Libraries/STM32H7xx_HAL_Driver/Src/stm32h7xx_hal_sd_ex.c **** 
 177:./Libraries/STM32H7xx_HAL_Driver/Src/stm32h7xx_hal_sd_ex.c ****     return HAL_OK;
 316              		.loc 1 177 12
 317 0130 0023     		movs	r3, #0
 318 0132 00E0     		b	.L12
 319              	.L5:
 178:./Libraries/STM32H7xx_HAL_Driver/Src/stm32h7xx_hal_sd_ex.c ****   }
 179:./Libraries/STM32H7xx_HAL_Driver/Src/stm32h7xx_hal_sd_ex.c ****   else
 180:./Libraries/STM32H7xx_HAL_Driver/Src/stm32h7xx_hal_sd_ex.c ****   {
 181:./Libraries/STM32H7xx_HAL_Driver/Src/stm32h7xx_hal_sd_ex.c ****     return HAL_BUSY;
 320              		.loc 1 181 12
 321 0134 0223     		movs	r3, #2
 322              	.L12:
 182:./Libraries/STM32H7xx_HAL_Driver/Src/stm32h7xx_hal_sd_ex.c ****   }
 183:./Libraries/STM32H7xx_HAL_Driver/Src/stm32h7xx_hal_sd_ex.c **** 
 184:./Libraries/STM32H7xx_HAL_Driver/Src/stm32h7xx_hal_sd_ex.c **** }
 323              		.loc 1 184 1 discriminator 1
 324 0136 1846     		mov	r0, r3
 325 0138 3837     		adds	r7, r7, #56
 326              	.LCFI9:
 327              		.cfi_def_cfa_offset 8
 328 013a BD46     		mov	sp, r7
 329              	.LCFI10:
 330              		.cfi_def_cfa_register 13
 331              		@ sp needed
 332 013c 80BD     		pop	{r7, pc}
ARM GAS  /tmp/ccupsUKS.s 			page 10


 333              	.L14:
 334 013e 00BF     		.align	2
 335              	.L13:
 336 0140 3A0F0018 		.word	402657082
 337 0144 2A010010 		.word	268435754
 338              		.cfi_endproc
 339              	.LFE332:
 341              		.section	.text.HAL_SDEx_WriteBlocksDMAMultiBuffer,"ax",%progbits
 342              		.align	1
 343              		.global	HAL_SDEx_WriteBlocksDMAMultiBuffer
 344              		.syntax unified
 345              		.thumb
 346              		.thumb_func
 347              		.fpu fpv5-d16
 349              	HAL_SDEx_WriteBlocksDMAMultiBuffer:
 350              	.LFB333:
 185:./Libraries/STM32H7xx_HAL_Driver/Src/stm32h7xx_hal_sd_ex.c **** 
 186:./Libraries/STM32H7xx_HAL_Driver/Src/stm32h7xx_hal_sd_ex.c **** /**
 187:./Libraries/STM32H7xx_HAL_Driver/Src/stm32h7xx_hal_sd_ex.c ****   * @brief  Write block(s) to a specified address in a card. The transferred Data are stored in Buf
 188:./Libraries/STM32H7xx_HAL_Driver/Src/stm32h7xx_hal_sd_ex.c ****   *         Buffer0, Buffer1 and BufferSize need to be configured by function HAL_SDEx_ConfigDMAMul
 189:./Libraries/STM32H7xx_HAL_Driver/Src/stm32h7xx_hal_sd_ex.c ****   *   call this function.
 190:./Libraries/STM32H7xx_HAL_Driver/Src/stm32h7xx_hal_sd_ex.c ****   * @param  hsd: SD handle
 191:./Libraries/STM32H7xx_HAL_Driver/Src/stm32h7xx_hal_sd_ex.c ****   * @param  BlockAdd: Block Address from where data is to be read
 192:./Libraries/STM32H7xx_HAL_Driver/Src/stm32h7xx_hal_sd_ex.c ****   * @param  NumberOfBlocks: Total number of blocks to read
 193:./Libraries/STM32H7xx_HAL_Driver/Src/stm32h7xx_hal_sd_ex.c ****   * @retval HAL status
 194:./Libraries/STM32H7xx_HAL_Driver/Src/stm32h7xx_hal_sd_ex.c ****   */
 195:./Libraries/STM32H7xx_HAL_Driver/Src/stm32h7xx_hal_sd_ex.c **** HAL_StatusTypeDef HAL_SDEx_WriteBlocksDMAMultiBuffer(SD_HandleTypeDef *hsd, uint32_t BlockAdd, uint
 196:./Libraries/STM32H7xx_HAL_Driver/Src/stm32h7xx_hal_sd_ex.c **** {
 351              		.loc 1 196 1
 352              		.cfi_startproc
 353              		@ args = 0, pretend = 0, frame = 56
 354              		@ frame_needed = 1, uses_anonymous_args = 0
 355 0000 80B5     		push	{r7, lr}
 356              	.LCFI11:
 357              		.cfi_def_cfa_offset 8
 358              		.cfi_offset 7, -8
 359              		.cfi_offset 14, -4
 360 0002 8EB0     		sub	sp, sp, #56
 361              	.LCFI12:
 362              		.cfi_def_cfa_offset 64
 363 0004 00AF     		add	r7, sp, #0
 364              	.LCFI13:
 365              		.cfi_def_cfa_register 7
 366 0006 F860     		str	r0, [r7, #12]
 367 0008 B960     		str	r1, [r7, #8]
 368 000a 7A60     		str	r2, [r7, #4]
 197:./Libraries/STM32H7xx_HAL_Driver/Src/stm32h7xx_hal_sd_ex.c ****   SDMMC_DataInitTypeDef config;
 198:./Libraries/STM32H7xx_HAL_Driver/Src/stm32h7xx_hal_sd_ex.c ****   uint32_t errorstate;
 199:./Libraries/STM32H7xx_HAL_Driver/Src/stm32h7xx_hal_sd_ex.c ****   uint32_t DmaBase0_reg;
 200:./Libraries/STM32H7xx_HAL_Driver/Src/stm32h7xx_hal_sd_ex.c ****   uint32_t DmaBase1_reg;
 201:./Libraries/STM32H7xx_HAL_Driver/Src/stm32h7xx_hal_sd_ex.c ****   uint32_t add = BlockAdd;
 369              		.loc 1 201 12
 370 000c BB68     		ldr	r3, [r7, #8]
 371 000e 7B63     		str	r3, [r7, #52]
 202:./Libraries/STM32H7xx_HAL_Driver/Src/stm32h7xx_hal_sd_ex.c **** 
 203:./Libraries/STM32H7xx_HAL_Driver/Src/stm32h7xx_hal_sd_ex.c ****   if (hsd->State == HAL_SD_STATE_READY)
 372              		.loc 1 203 10
ARM GAS  /tmp/ccupsUKS.s 			page 11


 373 0010 FB68     		ldr	r3, [r7, #12]
 374 0012 93F83430 		ldrb	r3, [r3, #52]
 375 0016 DBB2     		uxtb	r3, r3
 376              		.loc 1 203 6
 377 0018 012B     		cmp	r3, #1
 378 001a 7ED1     		bne	.L16
 204:./Libraries/STM32H7xx_HAL_Driver/Src/stm32h7xx_hal_sd_ex.c ****   {
 205:./Libraries/STM32H7xx_HAL_Driver/Src/stm32h7xx_hal_sd_ex.c ****     if ((add + NumberOfBlocks) > (hsd->SdCard.LogBlockNbr))
 379              		.loc 1 205 14
 380 001c 7A6B     		ldr	r2, [r7, #52]
 381 001e 7B68     		ldr	r3, [r7, #4]
 382 0020 1A44     		add	r2, r2, r3
 383              		.loc 1 205 46
 384 0022 FB68     		ldr	r3, [r7, #12]
 385 0024 5B6D     		ldr	r3, [r3, #84]
 386              		.loc 1 205 8
 387 0026 9A42     		cmp	r2, r3
 388 0028 07D9     		bls	.L17
 206:./Libraries/STM32H7xx_HAL_Driver/Src/stm32h7xx_hal_sd_ex.c ****     {
 207:./Libraries/STM32H7xx_HAL_Driver/Src/stm32h7xx_hal_sd_ex.c ****       hsd->ErrorCode |= HAL_SD_ERROR_ADDR_OUT_OF_RANGE;
 389              		.loc 1 207 22
 390 002a FB68     		ldr	r3, [r7, #12]
 391 002c 9B6B     		ldr	r3, [r3, #56]
 392 002e 43F00072 		orr	r2, r3, #33554432
 393 0032 FB68     		ldr	r3, [r7, #12]
 394 0034 9A63     		str	r2, [r3, #56]
 208:./Libraries/STM32H7xx_HAL_Driver/Src/stm32h7xx_hal_sd_ex.c ****       return HAL_ERROR;
 395              		.loc 1 208 14
 396 0036 0123     		movs	r3, #1
 397 0038 70E0     		b	.L23
 398              	.L17:
 209:./Libraries/STM32H7xx_HAL_Driver/Src/stm32h7xx_hal_sd_ex.c ****     }
 210:./Libraries/STM32H7xx_HAL_Driver/Src/stm32h7xx_hal_sd_ex.c **** 
 211:./Libraries/STM32H7xx_HAL_Driver/Src/stm32h7xx_hal_sd_ex.c ****     DmaBase0_reg = hsd->Instance->IDMABASE0;
 399              		.loc 1 211 23
 400 003a FB68     		ldr	r3, [r7, #12]
 401 003c 1B68     		ldr	r3, [r3]
 402              		.loc 1 211 18
 403 003e 9B6D     		ldr	r3, [r3, #88]
 404 0040 3B63     		str	r3, [r7, #48]
 212:./Libraries/STM32H7xx_HAL_Driver/Src/stm32h7xx_hal_sd_ex.c ****     DmaBase1_reg = hsd->Instance->IDMABASE1;
 405              		.loc 1 212 23
 406 0042 FB68     		ldr	r3, [r7, #12]
 407 0044 1B68     		ldr	r3, [r3]
 408              		.loc 1 212 18
 409 0046 DB6D     		ldr	r3, [r3, #92]
 410 0048 FB62     		str	r3, [r7, #44]
 213:./Libraries/STM32H7xx_HAL_Driver/Src/stm32h7xx_hal_sd_ex.c ****     if ((hsd->Instance->IDMABSIZE == 0U) || (DmaBase0_reg == 0U) || (DmaBase1_reg == 0U))
 411              		.loc 1 213 13
 412 004a FB68     		ldr	r3, [r7, #12]
 413 004c 1B68     		ldr	r3, [r3]
 414              		.loc 1 213 23
 415 004e 5B6D     		ldr	r3, [r3, #84]
 416              		.loc 1 213 8
 417 0050 002B     		cmp	r3, #0
 418 0052 05D0     		beq	.L19
 419              		.loc 1 213 42 discriminator 1
ARM GAS  /tmp/ccupsUKS.s 			page 12


 420 0054 3B6B     		ldr	r3, [r7, #48]
 421 0056 002B     		cmp	r3, #0
 422 0058 02D0     		beq	.L19
 423              		.loc 1 213 66 discriminator 2
 424 005a FB6A     		ldr	r3, [r7, #44]
 425 005c 002B     		cmp	r3, #0
 426 005e 05D1     		bne	.L20
 427              	.L19:
 214:./Libraries/STM32H7xx_HAL_Driver/Src/stm32h7xx_hal_sd_ex.c ****     {
 215:./Libraries/STM32H7xx_HAL_Driver/Src/stm32h7xx_hal_sd_ex.c ****       hsd->ErrorCode = HAL_SD_ERROR_ADDR_OUT_OF_RANGE;
 428              		.loc 1 215 22
 429 0060 FB68     		ldr	r3, [r7, #12]
 430 0062 4FF00072 		mov	r2, #33554432
 431 0066 9A63     		str	r2, [r3, #56]
 216:./Libraries/STM32H7xx_HAL_Driver/Src/stm32h7xx_hal_sd_ex.c ****       return HAL_ERROR;
 432              		.loc 1 216 14
 433 0068 0123     		movs	r3, #1
 434 006a 57E0     		b	.L23
 435              	.L20:
 217:./Libraries/STM32H7xx_HAL_Driver/Src/stm32h7xx_hal_sd_ex.c ****     }
 218:./Libraries/STM32H7xx_HAL_Driver/Src/stm32h7xx_hal_sd_ex.c **** 
 219:./Libraries/STM32H7xx_HAL_Driver/Src/stm32h7xx_hal_sd_ex.c ****     /* Initialize data control register */
 220:./Libraries/STM32H7xx_HAL_Driver/Src/stm32h7xx_hal_sd_ex.c ****     hsd->Instance->DCTRL = 0;
 436              		.loc 1 220 8
 437 006c FB68     		ldr	r3, [r7, #12]
 438 006e 1B68     		ldr	r3, [r3]
 439              		.loc 1 220 26
 440 0070 0022     		movs	r2, #0
 441 0072 DA62     		str	r2, [r3, #44]
 221:./Libraries/STM32H7xx_HAL_Driver/Src/stm32h7xx_hal_sd_ex.c **** 
 222:./Libraries/STM32H7xx_HAL_Driver/Src/stm32h7xx_hal_sd_ex.c ****     hsd->ErrorCode = HAL_SD_ERROR_NONE;
 442              		.loc 1 222 20
 443 0074 FB68     		ldr	r3, [r7, #12]
 444 0076 0022     		movs	r2, #0
 445 0078 9A63     		str	r2, [r3, #56]
 223:./Libraries/STM32H7xx_HAL_Driver/Src/stm32h7xx_hal_sd_ex.c **** 
 224:./Libraries/STM32H7xx_HAL_Driver/Src/stm32h7xx_hal_sd_ex.c ****     hsd->State = HAL_SD_STATE_BUSY;
 446              		.loc 1 224 16
 447 007a FB68     		ldr	r3, [r7, #12]
 448 007c 0322     		movs	r2, #3
 449 007e 83F83420 		strb	r2, [r3, #52]
 225:./Libraries/STM32H7xx_HAL_Driver/Src/stm32h7xx_hal_sd_ex.c **** 
 226:./Libraries/STM32H7xx_HAL_Driver/Src/stm32h7xx_hal_sd_ex.c ****     if (hsd->SdCard.CardType != CARD_SDHC_SDXC)
 450              		.loc 1 226 20
 451 0082 FB68     		ldr	r3, [r7, #12]
 452 0084 DB6B     		ldr	r3, [r3, #60]
 453              		.loc 1 226 8
 454 0086 012B     		cmp	r3, #1
 455 0088 02D0     		beq	.L21
 227:./Libraries/STM32H7xx_HAL_Driver/Src/stm32h7xx_hal_sd_ex.c ****     {
 228:./Libraries/STM32H7xx_HAL_Driver/Src/stm32h7xx_hal_sd_ex.c ****       add *= 512U;
 456              		.loc 1 228 11
 457 008a 7B6B     		ldr	r3, [r7, #52]
 458 008c 5B02     		lsls	r3, r3, #9
 459 008e 7B63     		str	r3, [r7, #52]
 460              	.L21:
 229:./Libraries/STM32H7xx_HAL_Driver/Src/stm32h7xx_hal_sd_ex.c ****     }
ARM GAS  /tmp/ccupsUKS.s 			page 13


 230:./Libraries/STM32H7xx_HAL_Driver/Src/stm32h7xx_hal_sd_ex.c **** 
 231:./Libraries/STM32H7xx_HAL_Driver/Src/stm32h7xx_hal_sd_ex.c ****     /* Configure the SD DPSM (Data Path State Machine) */
 232:./Libraries/STM32H7xx_HAL_Driver/Src/stm32h7xx_hal_sd_ex.c ****     config.DataTimeOut   = SDMMC_DATATIMEOUT;
 461              		.loc 1 232 26
 462 0090 4FF0FF33 		mov	r3, #-1
 463 0094 3B61     		str	r3, [r7, #16]
 233:./Libraries/STM32H7xx_HAL_Driver/Src/stm32h7xx_hal_sd_ex.c ****     config.DataLength    = BLOCKSIZE * NumberOfBlocks;
 464              		.loc 1 233 38
 465 0096 7B68     		ldr	r3, [r7, #4]
 466 0098 5B02     		lsls	r3, r3, #9
 467              		.loc 1 233 26
 468 009a 7B61     		str	r3, [r7, #20]
 234:./Libraries/STM32H7xx_HAL_Driver/Src/stm32h7xx_hal_sd_ex.c ****     config.DataBlockSize = SDMMC_DATABLOCK_SIZE_512B;
 469              		.loc 1 234 26
 470 009c 9023     		movs	r3, #144
 471 009e BB61     		str	r3, [r7, #24]
 235:./Libraries/STM32H7xx_HAL_Driver/Src/stm32h7xx_hal_sd_ex.c ****     config.TransferDir   = SDMMC_TRANSFER_DIR_TO_CARD;
 472              		.loc 1 235 26
 473 00a0 0023     		movs	r3, #0
 474 00a2 FB61     		str	r3, [r7, #28]
 236:./Libraries/STM32H7xx_HAL_Driver/Src/stm32h7xx_hal_sd_ex.c ****     config.TransferMode  = SDMMC_TRANSFER_MODE_BLOCK;
 475              		.loc 1 236 26
 476 00a4 0023     		movs	r3, #0
 477 00a6 3B62     		str	r3, [r7, #32]
 237:./Libraries/STM32H7xx_HAL_Driver/Src/stm32h7xx_hal_sd_ex.c ****     config.DPSM          = SDMMC_DPSM_DISABLE;
 478              		.loc 1 237 26
 479 00a8 0023     		movs	r3, #0
 480 00aa 7B62     		str	r3, [r7, #36]
 238:./Libraries/STM32H7xx_HAL_Driver/Src/stm32h7xx_hal_sd_ex.c ****     (void)SDMMC_ConfigData(hsd->Instance, &config);
 481              		.loc 1 238 11
 482 00ac FB68     		ldr	r3, [r7, #12]
 483 00ae 1B68     		ldr	r3, [r3]
 484 00b0 07F11002 		add	r2, r7, #16
 485 00b4 1146     		mov	r1, r2
 486 00b6 1846     		mov	r0, r3
 487 00b8 FFF7FEFF 		bl	SDMMC_ConfigData
 239:./Libraries/STM32H7xx_HAL_Driver/Src/stm32h7xx_hal_sd_ex.c **** 
 240:./Libraries/STM32H7xx_HAL_Driver/Src/stm32h7xx_hal_sd_ex.c ****     __SDMMC_CMDTRANS_ENABLE(hsd->Instance);
 488              		.loc 1 240 5
 489 00bc FB68     		ldr	r3, [r7, #12]
 490 00be 1B68     		ldr	r3, [r3]
 491 00c0 DA68     		ldr	r2, [r3, #12]
 492 00c2 FB68     		ldr	r3, [r7, #12]
 493 00c4 1B68     		ldr	r3, [r3]
 494 00c6 42F04002 		orr	r2, r2, #64
 495 00ca DA60     		str	r2, [r3, #12]
 241:./Libraries/STM32H7xx_HAL_Driver/Src/stm32h7xx_hal_sd_ex.c **** 
 242:./Libraries/STM32H7xx_HAL_Driver/Src/stm32h7xx_hal_sd_ex.c ****     hsd->Instance->IDMACTRL = SDMMC_ENABLE_IDMA_DOUBLE_BUFF0;
 496              		.loc 1 242 8
 497 00cc FB68     		ldr	r3, [r7, #12]
 498 00ce 1B68     		ldr	r3, [r3]
 499              		.loc 1 242 29
 500 00d0 0322     		movs	r2, #3
 501 00d2 1A65     		str	r2, [r3, #80]
 243:./Libraries/STM32H7xx_HAL_Driver/Src/stm32h7xx_hal_sd_ex.c **** 
 244:./Libraries/STM32H7xx_HAL_Driver/Src/stm32h7xx_hal_sd_ex.c ****     /* Write Blocks in DMA mode */
 245:./Libraries/STM32H7xx_HAL_Driver/Src/stm32h7xx_hal_sd_ex.c ****     hsd->Context = (SD_CONTEXT_WRITE_MULTIPLE_BLOCK | SD_CONTEXT_DMA);
ARM GAS  /tmp/ccupsUKS.s 			page 14


 502              		.loc 1 245 18
 503 00d4 FB68     		ldr	r3, [r7, #12]
 504 00d6 A022     		movs	r2, #160
 505 00d8 1A63     		str	r2, [r3, #48]
 246:./Libraries/STM32H7xx_HAL_Driver/Src/stm32h7xx_hal_sd_ex.c **** 
 247:./Libraries/STM32H7xx_HAL_Driver/Src/stm32h7xx_hal_sd_ex.c ****     /* Write Multi Block command */
 248:./Libraries/STM32H7xx_HAL_Driver/Src/stm32h7xx_hal_sd_ex.c ****     errorstate = SDMMC_CmdWriteMultiBlock(hsd->Instance, add);
 506              		.loc 1 248 18
 507 00da FB68     		ldr	r3, [r7, #12]
 508 00dc 1B68     		ldr	r3, [r3]
 509 00de 796B     		ldr	r1, [r7, #52]
 510 00e0 1846     		mov	r0, r3
 511 00e2 FFF7FEFF 		bl	SDMMC_CmdWriteMultiBlock
 512 00e6 B862     		str	r0, [r7, #40]
 249:./Libraries/STM32H7xx_HAL_Driver/Src/stm32h7xx_hal_sd_ex.c ****     if (errorstate != HAL_SD_ERROR_NONE)
 513              		.loc 1 249 8
 514 00e8 BB6A     		ldr	r3, [r7, #40]
 515 00ea 002B     		cmp	r3, #0
 516 00ec 0BD0     		beq	.L22
 250:./Libraries/STM32H7xx_HAL_Driver/Src/stm32h7xx_hal_sd_ex.c ****     {
 251:./Libraries/STM32H7xx_HAL_Driver/Src/stm32h7xx_hal_sd_ex.c ****       hsd->State = HAL_SD_STATE_READY;
 517              		.loc 1 251 18
 518 00ee FB68     		ldr	r3, [r7, #12]
 519 00f0 0122     		movs	r2, #1
 520 00f2 83F83420 		strb	r2, [r3, #52]
 252:./Libraries/STM32H7xx_HAL_Driver/Src/stm32h7xx_hal_sd_ex.c ****       hsd->ErrorCode |= errorstate;
 521              		.loc 1 252 22
 522 00f6 FB68     		ldr	r3, [r7, #12]
 523 00f8 9A6B     		ldr	r2, [r3, #56]
 524 00fa BB6A     		ldr	r3, [r7, #40]
 525 00fc 1A43     		orrs	r2, r2, r3
 526 00fe FB68     		ldr	r3, [r7, #12]
 527 0100 9A63     		str	r2, [r3, #56]
 253:./Libraries/STM32H7xx_HAL_Driver/Src/stm32h7xx_hal_sd_ex.c ****       return HAL_ERROR;
 528              		.loc 1 253 14
 529 0102 0123     		movs	r3, #1
 530 0104 0AE0     		b	.L23
 531              	.L22:
 254:./Libraries/STM32H7xx_HAL_Driver/Src/stm32h7xx_hal_sd_ex.c ****     }
 255:./Libraries/STM32H7xx_HAL_Driver/Src/stm32h7xx_hal_sd_ex.c **** 
 256:./Libraries/STM32H7xx_HAL_Driver/Src/stm32h7xx_hal_sd_ex.c ****     __HAL_SD_ENABLE_IT(hsd, (SDMMC_IT_DCRCFAIL | SDMMC_IT_DTIMEOUT | SDMMC_IT_TXUNDERR | SDMMC_IT_D
 532              		.loc 1 256 5
 533 0106 FB68     		ldr	r3, [r7, #12]
 534 0108 1B68     		ldr	r3, [r3]
 535 010a D96B     		ldr	r1, [r3, #60]
 536 010c FB68     		ldr	r3, [r7, #12]
 537 010e 1A68     		ldr	r2, [r3]
 538 0110 044B     		ldr	r3, .L24
 539 0112 0B43     		orrs	r3, r3, r1
 540 0114 D363     		str	r3, [r2, #60]
 257:./Libraries/STM32H7xx_HAL_Driver/Src/stm32h7xx_hal_sd_ex.c ****                              SDMMC_IT_IDMABTC));
 258:./Libraries/STM32H7xx_HAL_Driver/Src/stm32h7xx_hal_sd_ex.c **** 
 259:./Libraries/STM32H7xx_HAL_Driver/Src/stm32h7xx_hal_sd_ex.c ****     return HAL_OK;
 541              		.loc 1 259 12
 542 0116 0023     		movs	r3, #0
 543 0118 00E0     		b	.L23
 544              	.L16:
ARM GAS  /tmp/ccupsUKS.s 			page 15


 260:./Libraries/STM32H7xx_HAL_Driver/Src/stm32h7xx_hal_sd_ex.c ****   }
 261:./Libraries/STM32H7xx_HAL_Driver/Src/stm32h7xx_hal_sd_ex.c ****   else
 262:./Libraries/STM32H7xx_HAL_Driver/Src/stm32h7xx_hal_sd_ex.c ****   {
 263:./Libraries/STM32H7xx_HAL_Driver/Src/stm32h7xx_hal_sd_ex.c ****     return HAL_BUSY;
 545              		.loc 1 263 12
 546 011a 0223     		movs	r3, #2
 547              	.L23:
 264:./Libraries/STM32H7xx_HAL_Driver/Src/stm32h7xx_hal_sd_ex.c ****   }
 265:./Libraries/STM32H7xx_HAL_Driver/Src/stm32h7xx_hal_sd_ex.c **** }
 548              		.loc 1 265 1 discriminator 1
 549 011c 1846     		mov	r0, r3
 550 011e 3837     		adds	r7, r7, #56
 551              	.LCFI14:
 552              		.cfi_def_cfa_offset 8
 553 0120 BD46     		mov	sp, r7
 554              	.LCFI15:
 555              		.cfi_def_cfa_register 13
 556              		@ sp needed
 557 0122 80BD     		pop	{r7, pc}
 558              	.L25:
 559              		.align	2
 560              	.L24:
 561 0124 1A010010 		.word	268435738
 562              		.cfi_endproc
 563              	.LFE333:
 565              		.section	.text.HAL_SDEx_ChangeDMABuffer,"ax",%progbits
 566              		.align	1
 567              		.global	HAL_SDEx_ChangeDMABuffer
 568              		.syntax unified
 569              		.thumb
 570              		.thumb_func
 571              		.fpu fpv5-d16
 573              	HAL_SDEx_ChangeDMABuffer:
 574              	.LFB334:
 266:./Libraries/STM32H7xx_HAL_Driver/Src/stm32h7xx_hal_sd_ex.c **** 
 267:./Libraries/STM32H7xx_HAL_Driver/Src/stm32h7xx_hal_sd_ex.c **** 
 268:./Libraries/STM32H7xx_HAL_Driver/Src/stm32h7xx_hal_sd_ex.c **** /**
 269:./Libraries/STM32H7xx_HAL_Driver/Src/stm32h7xx_hal_sd_ex.c ****   * @brief  Change the DMA Buffer0 or Buffer1 address on the fly.
 270:./Libraries/STM32H7xx_HAL_Driver/Src/stm32h7xx_hal_sd_ex.c ****   * @param  hsd:           pointer to a SD_HandleTypeDef structure.
 271:./Libraries/STM32H7xx_HAL_Driver/Src/stm32h7xx_hal_sd_ex.c ****   * @param  Buffer:        the buffer to be changed, This parameter can be one of
 272:./Libraries/STM32H7xx_HAL_Driver/Src/stm32h7xx_hal_sd_ex.c ****   *                        the following values: SD_DMA_BUFFER0 or SD_DMA_BUFFER1
 273:./Libraries/STM32H7xx_HAL_Driver/Src/stm32h7xx_hal_sd_ex.c ****   * @param  pDataBuffer:   The new address
 274:./Libraries/STM32H7xx_HAL_Driver/Src/stm32h7xx_hal_sd_ex.c ****   * @note   The BUFFER0 address can be changed only when the current transfer use
 275:./Libraries/STM32H7xx_HAL_Driver/Src/stm32h7xx_hal_sd_ex.c ****   *         BUFFER1 and the BUFFER1 address can be changed only when the current
 276:./Libraries/STM32H7xx_HAL_Driver/Src/stm32h7xx_hal_sd_ex.c ****   *         transfer use BUFFER0.
 277:./Libraries/STM32H7xx_HAL_Driver/Src/stm32h7xx_hal_sd_ex.c ****   * @retval HAL status
 278:./Libraries/STM32H7xx_HAL_Driver/Src/stm32h7xx_hal_sd_ex.c ****   */
 279:./Libraries/STM32H7xx_HAL_Driver/Src/stm32h7xx_hal_sd_ex.c **** HAL_StatusTypeDef HAL_SDEx_ChangeDMABuffer(SD_HandleTypeDef *hsd, HAL_SDEx_DMABuffer_MemoryTypeDef 
 280:./Libraries/STM32H7xx_HAL_Driver/Src/stm32h7xx_hal_sd_ex.c ****                                            uint32_t *pDataBuffer)
 281:./Libraries/STM32H7xx_HAL_Driver/Src/stm32h7xx_hal_sd_ex.c **** {
 575              		.loc 1 281 1
 576              		.cfi_startproc
 577              		@ args = 0, pretend = 0, frame = 16
 578              		@ frame_needed = 1, uses_anonymous_args = 0
 579              		@ link register save eliminated.
 580 0000 80B4     		push	{r7}
 581              	.LCFI16:
ARM GAS  /tmp/ccupsUKS.s 			page 16


 582              		.cfi_def_cfa_offset 4
 583              		.cfi_offset 7, -4
 584 0002 85B0     		sub	sp, sp, #20
 585              	.LCFI17:
 586              		.cfi_def_cfa_offset 24
 587 0004 00AF     		add	r7, sp, #0
 588              	.LCFI18:
 589              		.cfi_def_cfa_register 7
 590 0006 F860     		str	r0, [r7, #12]
 591 0008 0B46     		mov	r3, r1
 592 000a 7A60     		str	r2, [r7, #4]
 593 000c FB72     		strb	r3, [r7, #11]
 282:./Libraries/STM32H7xx_HAL_Driver/Src/stm32h7xx_hal_sd_ex.c ****   if (Buffer == SD_DMA_BUFFER0)
 594              		.loc 1 282 6
 595 000e FB7A     		ldrb	r3, [r7, #11]	@ zero_extendqisi2
 596 0010 002B     		cmp	r3, #0
 597 0012 04D1     		bne	.L27
 283:./Libraries/STM32H7xx_HAL_Driver/Src/stm32h7xx_hal_sd_ex.c ****   {
 284:./Libraries/STM32H7xx_HAL_Driver/Src/stm32h7xx_hal_sd_ex.c ****     /* change the buffer0 address */
 285:./Libraries/STM32H7xx_HAL_Driver/Src/stm32h7xx_hal_sd_ex.c ****     hsd->Instance->IDMABASE0 = (uint32_t)pDataBuffer;
 598              		.loc 1 285 8
 599 0014 FB68     		ldr	r3, [r7, #12]
 600 0016 1B68     		ldr	r3, [r3]
 601              		.loc 1 285 32
 602 0018 7A68     		ldr	r2, [r7, #4]
 603              		.loc 1 285 30
 604 001a 9A65     		str	r2, [r3, #88]
 605 001c 03E0     		b	.L28
 606              	.L27:
 286:./Libraries/STM32H7xx_HAL_Driver/Src/stm32h7xx_hal_sd_ex.c ****   }
 287:./Libraries/STM32H7xx_HAL_Driver/Src/stm32h7xx_hal_sd_ex.c ****   else
 288:./Libraries/STM32H7xx_HAL_Driver/Src/stm32h7xx_hal_sd_ex.c ****   {
 289:./Libraries/STM32H7xx_HAL_Driver/Src/stm32h7xx_hal_sd_ex.c ****     /* change the memory1 address */
 290:./Libraries/STM32H7xx_HAL_Driver/Src/stm32h7xx_hal_sd_ex.c ****     hsd->Instance->IDMABASE1 = (uint32_t)pDataBuffer;
 607              		.loc 1 290 8
 608 001e FB68     		ldr	r3, [r7, #12]
 609 0020 1B68     		ldr	r3, [r3]
 610              		.loc 1 290 32
 611 0022 7A68     		ldr	r2, [r7, #4]
 612              		.loc 1 290 30
 613 0024 DA65     		str	r2, [r3, #92]
 614              	.L28:
 291:./Libraries/STM32H7xx_HAL_Driver/Src/stm32h7xx_hal_sd_ex.c ****   }
 292:./Libraries/STM32H7xx_HAL_Driver/Src/stm32h7xx_hal_sd_ex.c **** 
 293:./Libraries/STM32H7xx_HAL_Driver/Src/stm32h7xx_hal_sd_ex.c ****   return HAL_OK;
 615              		.loc 1 293 10
 616 0026 0023     		movs	r3, #0
 294:./Libraries/STM32H7xx_HAL_Driver/Src/stm32h7xx_hal_sd_ex.c **** }
 617              		.loc 1 294 1
 618 0028 1846     		mov	r0, r3
 619 002a 1437     		adds	r7, r7, #20
 620              	.LCFI19:
 621              		.cfi_def_cfa_offset 4
 622 002c BD46     		mov	sp, r7
 623              	.LCFI20:
 624              		.cfi_def_cfa_register 13
 625              		@ sp needed
ARM GAS  /tmp/ccupsUKS.s 			page 17


 626 002e 5DF8047B 		ldr	r7, [sp], #4
 627              	.LCFI21:
 628              		.cfi_restore 7
 629              		.cfi_def_cfa_offset 0
 630 0032 7047     		bx	lr
 631              		.cfi_endproc
 632              	.LFE334:
 634              		.text
 635              	.Letext0:
 636              		.file 2 "/usr/lib/gcc/arm-none-eabi/9.2.1/include/stdint.h"
 637              		.file 3 "./Libraries/CMSIS/Core/Include/core_cm7.h"
 638              		.file 4 "./Libraries/CMSIS/Device/ST/STM32H7xx/Include/system_stm32h7xx.h"
 639              		.file 5 "./Libraries/CMSIS/Device/ST/STM32H7xx/Include/stm32h747xx.h"
 640              		.file 6 "/usr/lib/gcc/arm-none-eabi/9.2.1/include/stddef.h"
 641              		.file 7 "/usr/include/newlib/sys/_types.h"
 642              		.file 8 "/usr/include/newlib/sys/reent.h"
 643              		.file 9 "/usr/include/newlib/sys/lock.h"
 644              		.file 10 "/usr/include/newlib/math.h"
 645              		.file 11 "./Libraries/STM32H7xx_HAL_Driver/Inc/stm32h7xx_hal_def.h"
 646              		.file 12 "./Libraries/STM32H7xx_HAL_Driver/Inc/stm32h7xx_hal_flash.h"
 647              		.file 13 "./Libraries/STM32H7xx_HAL_Driver/Inc/stm32h7xx_ll_sdmmc.h"
 648              		.file 14 "./Libraries/STM32H7xx_HAL_Driver/Inc/stm32h7xx_hal_sd.h"
 649              		.file 15 "./Libraries/STM32H7xx_HAL_Driver/Inc/stm32h7xx_hal_sd_ex.h"
 650              		.file 16 "./Libraries/STM32H7xx_HAL_Driver/Inc/stm32h7xx_hal_uart.h"
 651              		.file 17 "./Libraries/STM32H7xx_HAL_Driver/Inc/stm32h7xx_hal.h"
ARM GAS  /tmp/ccupsUKS.s 			page 18

