ARM GAS  /tmp/ccHzGhIf.s 			page 1


   1              		.cpu cortex-m7
   2              		.eabi_attribute 28, 1
   3              		.eabi_attribute 20, 1
   4              		.eabi_attribute 21, 1
   5              		.eabi_attribute 23, 3
   6              		.eabi_attribute 24, 1
   7              		.eabi_attribute 25, 1
   8              		.eabi_attribute 26, 1
   9              		.eabi_attribute 30, 2
  10              		.eabi_attribute 34, 1
  11              		.eabi_attribute 18, 4
  12              		.file	"stm32h7xx_hal.c"
  13              		.text
  14              	.Ltext0:
  15              		.cfi_sections	.debug_frame
  16              		.section	.text.HAL_MspInit,"ax",%progbits
  17              		.align	1
  18              		.p2align 2,,3
  19              		.weak	HAL_MspInit
  20              		.arch armv7e-m
  21              		.syntax unified
  22              		.thumb
  23              		.thumb_func
  24              		.fpu fpv5-d16
  26              	HAL_MspInit:
  27              	.LFB333:
  28              		.file 1 "./Libraries/STM32H7xx_HAL_Driver/Src/stm32h7xx_hal.c"
   1:./Libraries/STM32H7xx_HAL_Driver/Src/stm32h7xx_hal.c **** /**
   2:./Libraries/STM32H7xx_HAL_Driver/Src/stm32h7xx_hal.c ****   ******************************************************************************
   3:./Libraries/STM32H7xx_HAL_Driver/Src/stm32h7xx_hal.c ****   * @file    stm32h7xx_hal.c
   4:./Libraries/STM32H7xx_HAL_Driver/Src/stm32h7xx_hal.c ****   * @author  MCD Application Team
   5:./Libraries/STM32H7xx_HAL_Driver/Src/stm32h7xx_hal.c ****   * @brief   HAL module driver.
   6:./Libraries/STM32H7xx_HAL_Driver/Src/stm32h7xx_hal.c ****   *          This is the common part of the HAL initialization
   7:./Libraries/STM32H7xx_HAL_Driver/Src/stm32h7xx_hal.c ****   *
   8:./Libraries/STM32H7xx_HAL_Driver/Src/stm32h7xx_hal.c ****   @verbatim
   9:./Libraries/STM32H7xx_HAL_Driver/Src/stm32h7xx_hal.c ****   ==============================================================================
  10:./Libraries/STM32H7xx_HAL_Driver/Src/stm32h7xx_hal.c ****                      ##### How to use this driver #####
  11:./Libraries/STM32H7xx_HAL_Driver/Src/stm32h7xx_hal.c ****   ==============================================================================
  12:./Libraries/STM32H7xx_HAL_Driver/Src/stm32h7xx_hal.c ****     [..]
  13:./Libraries/STM32H7xx_HAL_Driver/Src/stm32h7xx_hal.c ****     The common HAL driver contains a set of generic and common APIs that can be
  14:./Libraries/STM32H7xx_HAL_Driver/Src/stm32h7xx_hal.c ****     used by the PPP peripheral drivers and the user to start using the HAL.
  15:./Libraries/STM32H7xx_HAL_Driver/Src/stm32h7xx_hal.c ****     [..]
  16:./Libraries/STM32H7xx_HAL_Driver/Src/stm32h7xx_hal.c ****     The HAL contains two APIs' categories:
  17:./Libraries/STM32H7xx_HAL_Driver/Src/stm32h7xx_hal.c ****          (+) Common HAL APIs
  18:./Libraries/STM32H7xx_HAL_Driver/Src/stm32h7xx_hal.c ****          (+) Services HAL APIs
  19:./Libraries/STM32H7xx_HAL_Driver/Src/stm32h7xx_hal.c **** 
  20:./Libraries/STM32H7xx_HAL_Driver/Src/stm32h7xx_hal.c ****   @endverbatim
  21:./Libraries/STM32H7xx_HAL_Driver/Src/stm32h7xx_hal.c ****   ******************************************************************************
  22:./Libraries/STM32H7xx_HAL_Driver/Src/stm32h7xx_hal.c ****   * @attention
  23:./Libraries/STM32H7xx_HAL_Driver/Src/stm32h7xx_hal.c ****   *
  24:./Libraries/STM32H7xx_HAL_Driver/Src/stm32h7xx_hal.c ****   * <h2><center>&copy; Copyright (c) 2017 STMicroelectronics.
  25:./Libraries/STM32H7xx_HAL_Driver/Src/stm32h7xx_hal.c ****   * All rights reserved.</center></h2>
  26:./Libraries/STM32H7xx_HAL_Driver/Src/stm32h7xx_hal.c ****   *
  27:./Libraries/STM32H7xx_HAL_Driver/Src/stm32h7xx_hal.c ****   * This software component is licensed by ST under BSD 3-Clause license,
  28:./Libraries/STM32H7xx_HAL_Driver/Src/stm32h7xx_hal.c ****   * the "License"; You may not use this file except in compliance with the
  29:./Libraries/STM32H7xx_HAL_Driver/Src/stm32h7xx_hal.c ****   * License. You may obtain a copy of the License at:
  30:./Libraries/STM32H7xx_HAL_Driver/Src/stm32h7xx_hal.c ****   *                        opensource.org/licenses/BSD-3-Clause
ARM GAS  /tmp/ccHzGhIf.s 			page 2


  31:./Libraries/STM32H7xx_HAL_Driver/Src/stm32h7xx_hal.c ****   *
  32:./Libraries/STM32H7xx_HAL_Driver/Src/stm32h7xx_hal.c ****   ******************************************************************************
  33:./Libraries/STM32H7xx_HAL_Driver/Src/stm32h7xx_hal.c ****   */
  34:./Libraries/STM32H7xx_HAL_Driver/Src/stm32h7xx_hal.c **** 
  35:./Libraries/STM32H7xx_HAL_Driver/Src/stm32h7xx_hal.c **** /* Includes ------------------------------------------------------------------*/
  36:./Libraries/STM32H7xx_HAL_Driver/Src/stm32h7xx_hal.c **** #include "stm32h7xx_hal.h"
  37:./Libraries/STM32H7xx_HAL_Driver/Src/stm32h7xx_hal.c **** 
  38:./Libraries/STM32H7xx_HAL_Driver/Src/stm32h7xx_hal.c **** /** @addtogroup STM32H7xx_HAL_Driver
  39:./Libraries/STM32H7xx_HAL_Driver/Src/stm32h7xx_hal.c ****   * @{
  40:./Libraries/STM32H7xx_HAL_Driver/Src/stm32h7xx_hal.c ****   */
  41:./Libraries/STM32H7xx_HAL_Driver/Src/stm32h7xx_hal.c **** 
  42:./Libraries/STM32H7xx_HAL_Driver/Src/stm32h7xx_hal.c **** /** @defgroup HAL  HAL
  43:./Libraries/STM32H7xx_HAL_Driver/Src/stm32h7xx_hal.c ****   * @brief HAL module driver.
  44:./Libraries/STM32H7xx_HAL_Driver/Src/stm32h7xx_hal.c ****   * @{
  45:./Libraries/STM32H7xx_HAL_Driver/Src/stm32h7xx_hal.c ****   */
  46:./Libraries/STM32H7xx_HAL_Driver/Src/stm32h7xx_hal.c **** 
  47:./Libraries/STM32H7xx_HAL_Driver/Src/stm32h7xx_hal.c **** /* Private typedef -----------------------------------------------------------*/
  48:./Libraries/STM32H7xx_HAL_Driver/Src/stm32h7xx_hal.c **** /* Private define ------------------------------------------------------------*/
  49:./Libraries/STM32H7xx_HAL_Driver/Src/stm32h7xx_hal.c **** /**
  50:./Libraries/STM32H7xx_HAL_Driver/Src/stm32h7xx_hal.c ****  * @brief STM32H7xx HAL Driver version number V1.10.0
  51:./Libraries/STM32H7xx_HAL_Driver/Src/stm32h7xx_hal.c ****    */
  52:./Libraries/STM32H7xx_HAL_Driver/Src/stm32h7xx_hal.c **** #define __STM32H7xx_HAL_VERSION_MAIN   (0x01UL) /*!< [31:24] main version */
  53:./Libraries/STM32H7xx_HAL_Driver/Src/stm32h7xx_hal.c **** #define __STM32H7xx_HAL_VERSION_SUB1   (0x0AUL) /*!< [23:16] sub1 version */
  54:./Libraries/STM32H7xx_HAL_Driver/Src/stm32h7xx_hal.c **** #define __STM32H7xx_HAL_VERSION_SUB2   (0x00UL) /*!< [15:8]  sub2 version */
  55:./Libraries/STM32H7xx_HAL_Driver/Src/stm32h7xx_hal.c **** #define __STM32H7xx_HAL_VERSION_RC     (0x00UL) /*!< [7:0]  release candidate */
  56:./Libraries/STM32H7xx_HAL_Driver/Src/stm32h7xx_hal.c **** #define __STM32H7xx_HAL_VERSION         ((__STM32H7xx_HAL_VERSION_MAIN << 24)\
  57:./Libraries/STM32H7xx_HAL_Driver/Src/stm32h7xx_hal.c ****                                         |(__STM32H7xx_HAL_VERSION_SUB1 << 16)\
  58:./Libraries/STM32H7xx_HAL_Driver/Src/stm32h7xx_hal.c ****                                         |(__STM32H7xx_HAL_VERSION_SUB2 << 8 )\
  59:./Libraries/STM32H7xx_HAL_Driver/Src/stm32h7xx_hal.c ****                                         |(__STM32H7xx_HAL_VERSION_RC))
  60:./Libraries/STM32H7xx_HAL_Driver/Src/stm32h7xx_hal.c **** 
  61:./Libraries/STM32H7xx_HAL_Driver/Src/stm32h7xx_hal.c **** #define IDCODE_DEVID_MASK    ((uint32_t)0x00000FFF)
  62:./Libraries/STM32H7xx_HAL_Driver/Src/stm32h7xx_hal.c **** #define VREFBUF_TIMEOUT_VALUE     (uint32_t)10   /* 10 ms  */
  63:./Libraries/STM32H7xx_HAL_Driver/Src/stm32h7xx_hal.c **** 
  64:./Libraries/STM32H7xx_HAL_Driver/Src/stm32h7xx_hal.c **** /* Private macro -------------------------------------------------------------*/
  65:./Libraries/STM32H7xx_HAL_Driver/Src/stm32h7xx_hal.c **** /* Private variables ---------------------------------------------------------*/
  66:./Libraries/STM32H7xx_HAL_Driver/Src/stm32h7xx_hal.c **** /* Exported variables --------------------------------------------------------*/
  67:./Libraries/STM32H7xx_HAL_Driver/Src/stm32h7xx_hal.c **** 
  68:./Libraries/STM32H7xx_HAL_Driver/Src/stm32h7xx_hal.c **** /** @defgroup HAL_Exported_Variables HAL Exported Variables
  69:./Libraries/STM32H7xx_HAL_Driver/Src/stm32h7xx_hal.c ****   * @{
  70:./Libraries/STM32H7xx_HAL_Driver/Src/stm32h7xx_hal.c ****   */
  71:./Libraries/STM32H7xx_HAL_Driver/Src/stm32h7xx_hal.c **** __IO uint32_t uwTick;
  72:./Libraries/STM32H7xx_HAL_Driver/Src/stm32h7xx_hal.c **** uint32_t uwTickPrio   = (1UL << __NVIC_PRIO_BITS); /* Invalid PRIO */
  73:./Libraries/STM32H7xx_HAL_Driver/Src/stm32h7xx_hal.c **** HAL_TickFreqTypeDef uwTickFreq = HAL_TICK_FREQ_DEFAULT;  /* 1KHz */
  74:./Libraries/STM32H7xx_HAL_Driver/Src/stm32h7xx_hal.c **** /**
  75:./Libraries/STM32H7xx_HAL_Driver/Src/stm32h7xx_hal.c ****   * @}
  76:./Libraries/STM32H7xx_HAL_Driver/Src/stm32h7xx_hal.c ****   */
  77:./Libraries/STM32H7xx_HAL_Driver/Src/stm32h7xx_hal.c **** 
  78:./Libraries/STM32H7xx_HAL_Driver/Src/stm32h7xx_hal.c **** /* Private function prototypes -----------------------------------------------*/
  79:./Libraries/STM32H7xx_HAL_Driver/Src/stm32h7xx_hal.c **** /* Private functions ---------------------------------------------------------*/
  80:./Libraries/STM32H7xx_HAL_Driver/Src/stm32h7xx_hal.c **** 
  81:./Libraries/STM32H7xx_HAL_Driver/Src/stm32h7xx_hal.c **** /** @defgroup HAL_Private_Functions  HAL Private Functions
  82:./Libraries/STM32H7xx_HAL_Driver/Src/stm32h7xx_hal.c ****   * @{
  83:./Libraries/STM32H7xx_HAL_Driver/Src/stm32h7xx_hal.c ****   */
  84:./Libraries/STM32H7xx_HAL_Driver/Src/stm32h7xx_hal.c **** 
  85:./Libraries/STM32H7xx_HAL_Driver/Src/stm32h7xx_hal.c **** /** @defgroup HAL_Group1 Initialization and de-initialization Functions
  86:./Libraries/STM32H7xx_HAL_Driver/Src/stm32h7xx_hal.c ****  *  @brief    Initialization and de-initialization functions
  87:./Libraries/STM32H7xx_HAL_Driver/Src/stm32h7xx_hal.c ****  *
ARM GAS  /tmp/ccHzGhIf.s 			page 3


  88:./Libraries/STM32H7xx_HAL_Driver/Src/stm32h7xx_hal.c **** @verbatim
  89:./Libraries/STM32H7xx_HAL_Driver/Src/stm32h7xx_hal.c ****  ===============================================================================
  90:./Libraries/STM32H7xx_HAL_Driver/Src/stm32h7xx_hal.c ****               ##### Initialization and de-initialization functions #####
  91:./Libraries/STM32H7xx_HAL_Driver/Src/stm32h7xx_hal.c ****  ===============================================================================
  92:./Libraries/STM32H7xx_HAL_Driver/Src/stm32h7xx_hal.c ****     [..]  This section provides functions allowing to:
  93:./Libraries/STM32H7xx_HAL_Driver/Src/stm32h7xx_hal.c ****       (+) Initializes the Flash interface the NVIC allocation and initial clock
  94:./Libraries/STM32H7xx_HAL_Driver/Src/stm32h7xx_hal.c ****           configuration. It initializes the systick also when timeout is needed
  95:./Libraries/STM32H7xx_HAL_Driver/Src/stm32h7xx_hal.c ****           and the backup domain when enabled.
  96:./Libraries/STM32H7xx_HAL_Driver/Src/stm32h7xx_hal.c ****       (+) De-Initializes common part of the HAL.
  97:./Libraries/STM32H7xx_HAL_Driver/Src/stm32h7xx_hal.c ****       (+) Configure The time base source to have 1ms time base with a dedicated
  98:./Libraries/STM32H7xx_HAL_Driver/Src/stm32h7xx_hal.c ****           Tick interrupt priority.
  99:./Libraries/STM32H7xx_HAL_Driver/Src/stm32h7xx_hal.c ****         (++) SysTick timer is used by default as source of time base, but user
 100:./Libraries/STM32H7xx_HAL_Driver/Src/stm32h7xx_hal.c ****              can eventually implement his proper time base source (a general purpose
 101:./Libraries/STM32H7xx_HAL_Driver/Src/stm32h7xx_hal.c ****              timer for example or other time source), keeping in mind that Time base
 102:./Libraries/STM32H7xx_HAL_Driver/Src/stm32h7xx_hal.c ****              duration should be kept 1ms since PPP_TIMEOUT_VALUEs are defined and
 103:./Libraries/STM32H7xx_HAL_Driver/Src/stm32h7xx_hal.c ****              handled in milliseconds basis.
 104:./Libraries/STM32H7xx_HAL_Driver/Src/stm32h7xx_hal.c ****         (++) Time base configuration function (HAL_InitTick ()) is called automatically
 105:./Libraries/STM32H7xx_HAL_Driver/Src/stm32h7xx_hal.c ****              at the beginning of the program after reset by HAL_Init() or at any time
 106:./Libraries/STM32H7xx_HAL_Driver/Src/stm32h7xx_hal.c ****              when clock is configured, by HAL_RCC_ClockConfig().
 107:./Libraries/STM32H7xx_HAL_Driver/Src/stm32h7xx_hal.c ****         (++) Source of time base is configured  to generate interrupts at regular
 108:./Libraries/STM32H7xx_HAL_Driver/Src/stm32h7xx_hal.c ****              time intervals. Care must be taken if HAL_Delay() is called from a
 109:./Libraries/STM32H7xx_HAL_Driver/Src/stm32h7xx_hal.c ****              peripheral ISR process, the Tick interrupt line must have higher priority
 110:./Libraries/STM32H7xx_HAL_Driver/Src/stm32h7xx_hal.c ****             (numerically lower) than the peripheral interrupt. Otherwise the caller
 111:./Libraries/STM32H7xx_HAL_Driver/Src/stm32h7xx_hal.c ****             ISR process will be blocked.
 112:./Libraries/STM32H7xx_HAL_Driver/Src/stm32h7xx_hal.c ****        (++) functions affecting time base configurations are declared as __weak
 113:./Libraries/STM32H7xx_HAL_Driver/Src/stm32h7xx_hal.c ****              to make  override possible  in case of other  implementations in user file.
 114:./Libraries/STM32H7xx_HAL_Driver/Src/stm32h7xx_hal.c **** @endverbatim
 115:./Libraries/STM32H7xx_HAL_Driver/Src/stm32h7xx_hal.c ****   * @{
 116:./Libraries/STM32H7xx_HAL_Driver/Src/stm32h7xx_hal.c ****   */
 117:./Libraries/STM32H7xx_HAL_Driver/Src/stm32h7xx_hal.c **** 
 118:./Libraries/STM32H7xx_HAL_Driver/Src/stm32h7xx_hal.c **** /**
 119:./Libraries/STM32H7xx_HAL_Driver/Src/stm32h7xx_hal.c ****   * @brief  This function is used to initialize the HAL Library; it must be the first
 120:./Libraries/STM32H7xx_HAL_Driver/Src/stm32h7xx_hal.c ****   *         instruction to be executed in the main program (before to call any other
 121:./Libraries/STM32H7xx_HAL_Driver/Src/stm32h7xx_hal.c ****   *         HAL function), it performs the following:
 122:./Libraries/STM32H7xx_HAL_Driver/Src/stm32h7xx_hal.c ****   *           Configures the SysTick to generate an interrupt each 1 millisecond,
 123:./Libraries/STM32H7xx_HAL_Driver/Src/stm32h7xx_hal.c ****   *           which is clocked by the HSI (at this stage, the clock is not yet
 124:./Libraries/STM32H7xx_HAL_Driver/Src/stm32h7xx_hal.c ****   *           configured and thus the system is running from the internal HSI at 16 MHz).
 125:./Libraries/STM32H7xx_HAL_Driver/Src/stm32h7xx_hal.c ****   *           Set NVIC Group Priority to 4.
 126:./Libraries/STM32H7xx_HAL_Driver/Src/stm32h7xx_hal.c ****   *           Calls the HAL_MspInit() callback function defined in user file
 127:./Libraries/STM32H7xx_HAL_Driver/Src/stm32h7xx_hal.c ****   *           "stm32h7xx_hal_msp.c" to do the global low level hardware initialization
 128:./Libraries/STM32H7xx_HAL_Driver/Src/stm32h7xx_hal.c ****   *
 129:./Libraries/STM32H7xx_HAL_Driver/Src/stm32h7xx_hal.c ****   * @note   SysTick is used as time base for the HAL_Delay() function, the application
 130:./Libraries/STM32H7xx_HAL_Driver/Src/stm32h7xx_hal.c ****   *         need to ensure that the SysTick time base is always set to 1 millisecond
 131:./Libraries/STM32H7xx_HAL_Driver/Src/stm32h7xx_hal.c ****   *         to have correct HAL operation.
 132:./Libraries/STM32H7xx_HAL_Driver/Src/stm32h7xx_hal.c ****   * @retval HAL status
 133:./Libraries/STM32H7xx_HAL_Driver/Src/stm32h7xx_hal.c ****   */
 134:./Libraries/STM32H7xx_HAL_Driver/Src/stm32h7xx_hal.c **** HAL_StatusTypeDef HAL_Init(void)
 135:./Libraries/STM32H7xx_HAL_Driver/Src/stm32h7xx_hal.c **** {
 136:./Libraries/STM32H7xx_HAL_Driver/Src/stm32h7xx_hal.c **** 
 137:./Libraries/STM32H7xx_HAL_Driver/Src/stm32h7xx_hal.c **** uint32_t common_system_clock;
 138:./Libraries/STM32H7xx_HAL_Driver/Src/stm32h7xx_hal.c **** 
 139:./Libraries/STM32H7xx_HAL_Driver/Src/stm32h7xx_hal.c **** #if defined(DUAL_CORE) && defined(CORE_CM4)
 140:./Libraries/STM32H7xx_HAL_Driver/Src/stm32h7xx_hal.c ****    /* Configure Cortex-M4 Instruction cache through ART accelerator */
 141:./Libraries/STM32H7xx_HAL_Driver/Src/stm32h7xx_hal.c ****    __HAL_RCC_ART_CLK_ENABLE();                   /* Enable the Cortex-M4 ART Clock */
 142:./Libraries/STM32H7xx_HAL_Driver/Src/stm32h7xx_hal.c ****    __HAL_ART_CONFIG_BASE_ADDRESS(0x08100000UL);  /* Configure the Cortex-M4 ART Base address to the
 143:./Libraries/STM32H7xx_HAL_Driver/Src/stm32h7xx_hal.c ****    __HAL_ART_ENABLE();                           /* Enable the Cortex-M4 ART */
 144:./Libraries/STM32H7xx_HAL_Driver/Src/stm32h7xx_hal.c **** #endif /* DUAL_CORE &&  CORE_CM4 */
ARM GAS  /tmp/ccHzGhIf.s 			page 4


 145:./Libraries/STM32H7xx_HAL_Driver/Src/stm32h7xx_hal.c **** 
 146:./Libraries/STM32H7xx_HAL_Driver/Src/stm32h7xx_hal.c ****   /* Set Interrupt Group Priority */
 147:./Libraries/STM32H7xx_HAL_Driver/Src/stm32h7xx_hal.c ****   HAL_NVIC_SetPriorityGrouping(NVIC_PRIORITYGROUP_4);
 148:./Libraries/STM32H7xx_HAL_Driver/Src/stm32h7xx_hal.c **** 
 149:./Libraries/STM32H7xx_HAL_Driver/Src/stm32h7xx_hal.c ****   /* Update the SystemCoreClock global variable */
 150:./Libraries/STM32H7xx_HAL_Driver/Src/stm32h7xx_hal.c **** #if defined(RCC_D1CFGR_D1CPRE)
 151:./Libraries/STM32H7xx_HAL_Driver/Src/stm32h7xx_hal.c ****   common_system_clock = HAL_RCC_GetSysClockFreq() >> ((D1CorePrescTable[(RCC->D1CFGR & RCC_D1CFGR_D
 152:./Libraries/STM32H7xx_HAL_Driver/Src/stm32h7xx_hal.c **** #else
 153:./Libraries/STM32H7xx_HAL_Driver/Src/stm32h7xx_hal.c ****   common_system_clock = HAL_RCC_GetSysClockFreq() >> ((D1CorePrescTable[(RCC->CDCFGR1 & RCC_CDCFGR1
 154:./Libraries/STM32H7xx_HAL_Driver/Src/stm32h7xx_hal.c **** #endif
 155:./Libraries/STM32H7xx_HAL_Driver/Src/stm32h7xx_hal.c **** 
 156:./Libraries/STM32H7xx_HAL_Driver/Src/stm32h7xx_hal.c ****   /* Update the SystemD2Clock global variable */
 157:./Libraries/STM32H7xx_HAL_Driver/Src/stm32h7xx_hal.c **** #if defined(RCC_D1CFGR_HPRE)
 158:./Libraries/STM32H7xx_HAL_Driver/Src/stm32h7xx_hal.c ****   SystemD2Clock = (common_system_clock >> ((D1CorePrescTable[(RCC->D1CFGR & RCC_D1CFGR_HPRE)>> RCC_
 159:./Libraries/STM32H7xx_HAL_Driver/Src/stm32h7xx_hal.c **** #else
 160:./Libraries/STM32H7xx_HAL_Driver/Src/stm32h7xx_hal.c ****   SystemD2Clock = (common_system_clock >> ((D1CorePrescTable[(RCC->CDCFGR1 & RCC_CDCFGR1_HPRE)>> RC
 161:./Libraries/STM32H7xx_HAL_Driver/Src/stm32h7xx_hal.c **** #endif
 162:./Libraries/STM32H7xx_HAL_Driver/Src/stm32h7xx_hal.c **** 
 163:./Libraries/STM32H7xx_HAL_Driver/Src/stm32h7xx_hal.c **** #if defined(DUAL_CORE) && defined(CORE_CM4)
 164:./Libraries/STM32H7xx_HAL_Driver/Src/stm32h7xx_hal.c ****   SystemCoreClock = SystemD2Clock;
 165:./Libraries/STM32H7xx_HAL_Driver/Src/stm32h7xx_hal.c **** #else
 166:./Libraries/STM32H7xx_HAL_Driver/Src/stm32h7xx_hal.c ****   SystemCoreClock = common_system_clock;
 167:./Libraries/STM32H7xx_HAL_Driver/Src/stm32h7xx_hal.c **** #endif /* DUAL_CORE && CORE_CM4 */
 168:./Libraries/STM32H7xx_HAL_Driver/Src/stm32h7xx_hal.c **** 
 169:./Libraries/STM32H7xx_HAL_Driver/Src/stm32h7xx_hal.c ****   /* Use systick as time base source and configure 1ms tick (default clock after Reset is HSI) */
 170:./Libraries/STM32H7xx_HAL_Driver/Src/stm32h7xx_hal.c ****   if(HAL_InitTick(TICK_INT_PRIORITY) != HAL_OK)
 171:./Libraries/STM32H7xx_HAL_Driver/Src/stm32h7xx_hal.c ****   {
 172:./Libraries/STM32H7xx_HAL_Driver/Src/stm32h7xx_hal.c ****     return HAL_ERROR;
 173:./Libraries/STM32H7xx_HAL_Driver/Src/stm32h7xx_hal.c ****   }
 174:./Libraries/STM32H7xx_HAL_Driver/Src/stm32h7xx_hal.c **** 
 175:./Libraries/STM32H7xx_HAL_Driver/Src/stm32h7xx_hal.c ****   /* Init the low level hardware */
 176:./Libraries/STM32H7xx_HAL_Driver/Src/stm32h7xx_hal.c ****   HAL_MspInit();
 177:./Libraries/STM32H7xx_HAL_Driver/Src/stm32h7xx_hal.c **** 
 178:./Libraries/STM32H7xx_HAL_Driver/Src/stm32h7xx_hal.c ****   /* Return function status */
 179:./Libraries/STM32H7xx_HAL_Driver/Src/stm32h7xx_hal.c ****   return HAL_OK;
 180:./Libraries/STM32H7xx_HAL_Driver/Src/stm32h7xx_hal.c **** }
 181:./Libraries/STM32H7xx_HAL_Driver/Src/stm32h7xx_hal.c **** 
 182:./Libraries/STM32H7xx_HAL_Driver/Src/stm32h7xx_hal.c **** /**
 183:./Libraries/STM32H7xx_HAL_Driver/Src/stm32h7xx_hal.c ****   * @brief  This function de-Initializes common part of the HAL and stops the systick.
 184:./Libraries/STM32H7xx_HAL_Driver/Src/stm32h7xx_hal.c ****   *         This function is optional.
 185:./Libraries/STM32H7xx_HAL_Driver/Src/stm32h7xx_hal.c ****   * @retval HAL status
 186:./Libraries/STM32H7xx_HAL_Driver/Src/stm32h7xx_hal.c ****   */
 187:./Libraries/STM32H7xx_HAL_Driver/Src/stm32h7xx_hal.c **** HAL_StatusTypeDef HAL_DeInit(void)
 188:./Libraries/STM32H7xx_HAL_Driver/Src/stm32h7xx_hal.c **** {
 189:./Libraries/STM32H7xx_HAL_Driver/Src/stm32h7xx_hal.c ****   /* Reset of all peripherals */
 190:./Libraries/STM32H7xx_HAL_Driver/Src/stm32h7xx_hal.c ****   __HAL_RCC_AHB3_FORCE_RESET();
 191:./Libraries/STM32H7xx_HAL_Driver/Src/stm32h7xx_hal.c ****   __HAL_RCC_AHB3_RELEASE_RESET();
 192:./Libraries/STM32H7xx_HAL_Driver/Src/stm32h7xx_hal.c **** 
 193:./Libraries/STM32H7xx_HAL_Driver/Src/stm32h7xx_hal.c ****   __HAL_RCC_AHB1_FORCE_RESET();
 194:./Libraries/STM32H7xx_HAL_Driver/Src/stm32h7xx_hal.c ****   __HAL_RCC_AHB1_RELEASE_RESET();
 195:./Libraries/STM32H7xx_HAL_Driver/Src/stm32h7xx_hal.c **** 
 196:./Libraries/STM32H7xx_HAL_Driver/Src/stm32h7xx_hal.c ****   __HAL_RCC_AHB2_FORCE_RESET();
 197:./Libraries/STM32H7xx_HAL_Driver/Src/stm32h7xx_hal.c ****   __HAL_RCC_AHB2_RELEASE_RESET();
 198:./Libraries/STM32H7xx_HAL_Driver/Src/stm32h7xx_hal.c **** 
 199:./Libraries/STM32H7xx_HAL_Driver/Src/stm32h7xx_hal.c ****   __HAL_RCC_AHB4_FORCE_RESET();
 200:./Libraries/STM32H7xx_HAL_Driver/Src/stm32h7xx_hal.c ****  __HAL_RCC_AHB4_RELEASE_RESET();
 201:./Libraries/STM32H7xx_HAL_Driver/Src/stm32h7xx_hal.c **** 
ARM GAS  /tmp/ccHzGhIf.s 			page 5


 202:./Libraries/STM32H7xx_HAL_Driver/Src/stm32h7xx_hal.c ****   __HAL_RCC_APB3_FORCE_RESET();
 203:./Libraries/STM32H7xx_HAL_Driver/Src/stm32h7xx_hal.c ****   __HAL_RCC_APB3_RELEASE_RESET();
 204:./Libraries/STM32H7xx_HAL_Driver/Src/stm32h7xx_hal.c **** 
 205:./Libraries/STM32H7xx_HAL_Driver/Src/stm32h7xx_hal.c ****   __HAL_RCC_APB1L_FORCE_RESET();
 206:./Libraries/STM32H7xx_HAL_Driver/Src/stm32h7xx_hal.c ****   __HAL_RCC_APB1L_RELEASE_RESET();
 207:./Libraries/STM32H7xx_HAL_Driver/Src/stm32h7xx_hal.c **** 
 208:./Libraries/STM32H7xx_HAL_Driver/Src/stm32h7xx_hal.c ****   __HAL_RCC_APB1H_FORCE_RESET();
 209:./Libraries/STM32H7xx_HAL_Driver/Src/stm32h7xx_hal.c ****   __HAL_RCC_APB1H_RELEASE_RESET();
 210:./Libraries/STM32H7xx_HAL_Driver/Src/stm32h7xx_hal.c **** 
 211:./Libraries/STM32H7xx_HAL_Driver/Src/stm32h7xx_hal.c ****    __HAL_RCC_APB2_FORCE_RESET();
 212:./Libraries/STM32H7xx_HAL_Driver/Src/stm32h7xx_hal.c ****    __HAL_RCC_APB2_RELEASE_RESET();
 213:./Libraries/STM32H7xx_HAL_Driver/Src/stm32h7xx_hal.c **** 
 214:./Libraries/STM32H7xx_HAL_Driver/Src/stm32h7xx_hal.c ****   __HAL_RCC_APB4_FORCE_RESET();
 215:./Libraries/STM32H7xx_HAL_Driver/Src/stm32h7xx_hal.c ****   __HAL_RCC_APB4_RELEASE_RESET();
 216:./Libraries/STM32H7xx_HAL_Driver/Src/stm32h7xx_hal.c **** 
 217:./Libraries/STM32H7xx_HAL_Driver/Src/stm32h7xx_hal.c ****   /* De-Init the low level hardware */
 218:./Libraries/STM32H7xx_HAL_Driver/Src/stm32h7xx_hal.c ****   HAL_MspDeInit();
 219:./Libraries/STM32H7xx_HAL_Driver/Src/stm32h7xx_hal.c **** 
 220:./Libraries/STM32H7xx_HAL_Driver/Src/stm32h7xx_hal.c ****   /* Return function status */
 221:./Libraries/STM32H7xx_HAL_Driver/Src/stm32h7xx_hal.c ****   return HAL_OK;
 222:./Libraries/STM32H7xx_HAL_Driver/Src/stm32h7xx_hal.c **** }
 223:./Libraries/STM32H7xx_HAL_Driver/Src/stm32h7xx_hal.c **** 
 224:./Libraries/STM32H7xx_HAL_Driver/Src/stm32h7xx_hal.c **** /**
 225:./Libraries/STM32H7xx_HAL_Driver/Src/stm32h7xx_hal.c ****   * @brief  Initializes the MSP.
 226:./Libraries/STM32H7xx_HAL_Driver/Src/stm32h7xx_hal.c ****   * @retval None
 227:./Libraries/STM32H7xx_HAL_Driver/Src/stm32h7xx_hal.c ****   */
 228:./Libraries/STM32H7xx_HAL_Driver/Src/stm32h7xx_hal.c **** __weak void HAL_MspInit(void)
 229:./Libraries/STM32H7xx_HAL_Driver/Src/stm32h7xx_hal.c **** {
  29              		.loc 1 229 1 view -0
  30              		.cfi_startproc
  31              		@ args = 0, pretend = 0, frame = 0
  32              		@ frame_needed = 0, uses_anonymous_args = 0
  33              		@ link register save eliminated.
 230:./Libraries/STM32H7xx_HAL_Driver/Src/stm32h7xx_hal.c ****   /* NOTE : This function Should not be modified, when the callback is needed,
 231:./Libraries/STM32H7xx_HAL_Driver/Src/stm32h7xx_hal.c ****             the HAL_MspInit could be implemented in the user file
 232:./Libraries/STM32H7xx_HAL_Driver/Src/stm32h7xx_hal.c ****    */
 233:./Libraries/STM32H7xx_HAL_Driver/Src/stm32h7xx_hal.c **** }
  34              		.loc 1 233 1 view .LVU1
  35 0000 7047     		bx	lr
  36              		.cfi_endproc
  37              	.LFE333:
  39 0002 00BF     		.section	.text.HAL_MspDeInit,"ax",%progbits
  40              		.align	1
  41              		.p2align 2,,3
  42              		.weak	HAL_MspDeInit
  43              		.syntax unified
  44              		.thumb
  45              		.thumb_func
  46              		.fpu fpv5-d16
  48              	HAL_MspDeInit:
  49              	.LFB394:
  50              		.cfi_startproc
  51              		@ args = 0, pretend = 0, frame = 0
  52              		@ frame_needed = 0, uses_anonymous_args = 0
  53              		@ link register save eliminated.
  54 0000 7047     		bx	lr
  55              		.cfi_endproc
ARM GAS  /tmp/ccHzGhIf.s 			page 6


  56              	.LFE394:
  58 0002 00BF     		.section	.text.HAL_DeInit,"ax",%progbits
  59              		.align	1
  60              		.p2align 2,,3
  61              		.global	HAL_DeInit
  62              		.syntax unified
  63              		.thumb
  64              		.thumb_func
  65              		.fpu fpv5-d16
  67              	HAL_DeInit:
  68              	.LFB332:
 188:./Libraries/STM32H7xx_HAL_Driver/Src/stm32h7xx_hal.c ****   /* Reset of all peripherals */
  69              		.loc 1 188 1 view -0
  70              		.cfi_startproc
  71              		@ args = 0, pretend = 0, frame = 0
  72              		@ frame_needed = 0, uses_anonymous_args = 0
 190:./Libraries/STM32H7xx_HAL_Driver/Src/stm32h7xx_hal.c ****   __HAL_RCC_AHB3_RELEASE_RESET();
  73              		.loc 1 190 3 view .LVU3
  74 0000 194B     		ldr	r3, .L6
 196:./Libraries/STM32H7xx_HAL_Driver/Src/stm32h7xx_hal.c ****   __HAL_RCC_AHB2_RELEASE_RESET();
  75              		.loc 1 196 3 is_stmt 0 view .LVU4
  76 0002 40F27121 		movw	r1, #625
 190:./Libraries/STM32H7xx_HAL_Driver/Src/stm32h7xx_hal.c ****   __HAL_RCC_AHB3_RELEASE_RESET();
  77              		.loc 1 190 3 view .LVU5
  78 0006 194A     		ldr	r2, .L6+4
 208:./Libraries/STM32H7xx_HAL_Driver/Src/stm32h7xx_hal.c ****   __HAL_RCC_APB1H_RELEASE_RESET();
  79              		.loc 1 208 3 view .LVU6
  80 0008 4FF49B70 		mov	r0, #310
 188:./Libraries/STM32H7xx_HAL_Driver/Src/stm32h7xx_hal.c ****   /* Reset of all peripherals */
  81              		.loc 1 188 1 view .LVU7
  82 000c 70B5     		push	{r4, r5, r6, lr}
  83              	.LCFI0:
  84              		.cfi_def_cfa_offset 16
  85              		.cfi_offset 4, -16
  86              		.cfi_offset 5, -12
  87              		.cfi_offset 6, -8
  88              		.cfi_offset 14, -4
 190:./Libraries/STM32H7xx_HAL_Driver/Src/stm32h7xx_hal.c ****   __HAL_RCC_AHB3_RELEASE_RESET();
  89              		.loc 1 190 3 view .LVU8
  90 000e DA67     		str	r2, [r3, #124]
 191:./Libraries/STM32H7xx_HAL_Driver/Src/stm32h7xx_hal.c **** 
  91              		.loc 1 191 3 is_stmt 1 view .LVU9
  92 0010 0024     		movs	r4, #0
 193:./Libraries/STM32H7xx_HAL_Driver/Src/stm32h7xx_hal.c ****   __HAL_RCC_AHB1_RELEASE_RESET();
  93              		.loc 1 193 3 is_stmt 0 view .LVU10
  94 0012 174D     		ldr	r5, .L6+8
 202:./Libraries/STM32H7xx_HAL_Driver/Src/stm32h7xx_hal.c ****   __HAL_RCC_APB3_RELEASE_RESET();
  95              		.loc 1 202 3 view .LVU11
  96 0014 1826     		movs	r6, #24
 199:./Libraries/STM32H7xx_HAL_Driver/Src/stm32h7xx_hal.c ****  __HAL_RCC_AHB4_RELEASE_RESET();
  97              		.loc 1 199 3 view .LVU12
  98 0016 174A     		ldr	r2, .L6+12
 191:./Libraries/STM32H7xx_HAL_Driver/Src/stm32h7xx_hal.c **** 
  99              		.loc 1 191 3 view .LVU13
 100 0018 DC67     		str	r4, [r3, #124]
 193:./Libraries/STM32H7xx_HAL_Driver/Src/stm32h7xx_hal.c ****   __HAL_RCC_AHB1_RELEASE_RESET();
 101              		.loc 1 193 3 is_stmt 1 view .LVU14
ARM GAS  /tmp/ccHzGhIf.s 			page 7


 102 001a C3F88050 		str	r5, [r3, #128]
 194:./Libraries/STM32H7xx_HAL_Driver/Src/stm32h7xx_hal.c **** 
 103              		.loc 1 194 3 view .LVU15
 104 001e C3F88040 		str	r4, [r3, #128]
 196:./Libraries/STM32H7xx_HAL_Driver/Src/stm32h7xx_hal.c ****   __HAL_RCC_AHB2_RELEASE_RESET();
 105              		.loc 1 196 3 view .LVU16
 205:./Libraries/STM32H7xx_HAL_Driver/Src/stm32h7xx_hal.c ****   __HAL_RCC_APB1L_RELEASE_RESET();
 106              		.loc 1 205 3 is_stmt 0 view .LVU17
 107 0022 154D     		ldr	r5, .L6+16
 196:./Libraries/STM32H7xx_HAL_Driver/Src/stm32h7xx_hal.c ****   __HAL_RCC_AHB2_RELEASE_RESET();
 108              		.loc 1 196 3 view .LVU18
 109 0024 C3F88410 		str	r1, [r3, #132]
 197:./Libraries/STM32H7xx_HAL_Driver/Src/stm32h7xx_hal.c **** 
 110              		.loc 1 197 3 is_stmt 1 view .LVU19
 111 0028 C3F88440 		str	r4, [r3, #132]
 199:./Libraries/STM32H7xx_HAL_Driver/Src/stm32h7xx_hal.c ****  __HAL_RCC_AHB4_RELEASE_RESET();
 112              		.loc 1 199 3 view .LVU20
 211:./Libraries/STM32H7xx_HAL_Driver/Src/stm32h7xx_hal.c ****    __HAL_RCC_APB2_RELEASE_RESET();
 113              		.loc 1 211 4 is_stmt 0 view .LVU21
 114 002c 1349     		ldr	r1, .L6+20
 199:./Libraries/STM32H7xx_HAL_Driver/Src/stm32h7xx_hal.c ****  __HAL_RCC_AHB4_RELEASE_RESET();
 115              		.loc 1 199 3 view .LVU22
 116 002e C3F88820 		str	r2, [r3, #136]
 200:./Libraries/STM32H7xx_HAL_Driver/Src/stm32h7xx_hal.c **** 
 117              		.loc 1 200 2 is_stmt 1 view .LVU23
 214:./Libraries/STM32H7xx_HAL_Driver/Src/stm32h7xx_hal.c ****   __HAL_RCC_APB4_RELEASE_RESET();
 118              		.loc 1 214 3 is_stmt 0 view .LVU24
 119 0032 134A     		ldr	r2, .L6+24
 200:./Libraries/STM32H7xx_HAL_Driver/Src/stm32h7xx_hal.c **** 
 120              		.loc 1 200 2 view .LVU25
 121 0034 C3F88840 		str	r4, [r3, #136]
 202:./Libraries/STM32H7xx_HAL_Driver/Src/stm32h7xx_hal.c ****   __HAL_RCC_APB3_RELEASE_RESET();
 122              		.loc 1 202 3 is_stmt 1 view .LVU26
 123 0038 C3F88C60 		str	r6, [r3, #140]
 203:./Libraries/STM32H7xx_HAL_Driver/Src/stm32h7xx_hal.c **** 
 124              		.loc 1 203 3 view .LVU27
 125 003c C3F88C40 		str	r4, [r3, #140]
 205:./Libraries/STM32H7xx_HAL_Driver/Src/stm32h7xx_hal.c ****   __HAL_RCC_APB1L_RELEASE_RESET();
 126              		.loc 1 205 3 view .LVU28
 127 0040 C3F89050 		str	r5, [r3, #144]
 206:./Libraries/STM32H7xx_HAL_Driver/Src/stm32h7xx_hal.c **** 
 128              		.loc 1 206 3 view .LVU29
 129 0044 C3F89040 		str	r4, [r3, #144]
 208:./Libraries/STM32H7xx_HAL_Driver/Src/stm32h7xx_hal.c ****   __HAL_RCC_APB1H_RELEASE_RESET();
 130              		.loc 1 208 3 view .LVU30
 131 0048 C3F89400 		str	r0, [r3, #148]
 209:./Libraries/STM32H7xx_HAL_Driver/Src/stm32h7xx_hal.c **** 
 132              		.loc 1 209 3 view .LVU31
 133 004c C3F89440 		str	r4, [r3, #148]
 211:./Libraries/STM32H7xx_HAL_Driver/Src/stm32h7xx_hal.c ****    __HAL_RCC_APB2_RELEASE_RESET();
 134              		.loc 1 211 4 view .LVU32
 135 0050 C3F89810 		str	r1, [r3, #152]
 212:./Libraries/STM32H7xx_HAL_Driver/Src/stm32h7xx_hal.c **** 
 136              		.loc 1 212 4 view .LVU33
 137 0054 C3F89840 		str	r4, [r3, #152]
 214:./Libraries/STM32H7xx_HAL_Driver/Src/stm32h7xx_hal.c ****   __HAL_RCC_APB4_RELEASE_RESET();
 138              		.loc 1 214 3 view .LVU34
ARM GAS  /tmp/ccHzGhIf.s 			page 8


 139 0058 C3F89C20 		str	r2, [r3, #156]
 215:./Libraries/STM32H7xx_HAL_Driver/Src/stm32h7xx_hal.c **** 
 140              		.loc 1 215 3 view .LVU35
 141 005c C3F89C40 		str	r4, [r3, #156]
 218:./Libraries/STM32H7xx_HAL_Driver/Src/stm32h7xx_hal.c **** 
 142              		.loc 1 218 3 view .LVU36
 143 0060 FFF7FEFF 		bl	HAL_MspDeInit
 144              	.LVL0:
 221:./Libraries/STM32H7xx_HAL_Driver/Src/stm32h7xx_hal.c **** }
 145              		.loc 1 221 3 view .LVU37
 222:./Libraries/STM32H7xx_HAL_Driver/Src/stm32h7xx_hal.c **** 
 146              		.loc 1 222 1 is_stmt 0 view .LVU38
 147 0064 2046     		mov	r0, r4
 148 0066 70BD     		pop	{r4, r5, r6, pc}
 149              	.L7:
 150              		.align	2
 151              	.L6:
 152 0068 00440258 		.word	1476543488
 153 006c 31500100 		.word	86065
 154 0070 23C0000A 		.word	167821347
 155 0074 FF072803 		.word	52955135
 156 0078 FFC3FFE8 		.word	-385891329
 157 007c 3330D731 		.word	836186163
 158 0080 AADE2000 		.word	2154154
 159              		.cfi_endproc
 160              	.LFE332:
 162              		.section	.text.HAL_InitTick,"ax",%progbits
 163              		.align	1
 164              		.p2align 2,,3
 165              		.weak	HAL_InitTick
 166              		.syntax unified
 167              		.thumb
 168              		.thumb_func
 169              		.fpu fpv5-d16
 171              	HAL_InitTick:
 172              	.LVL1:
 173              	.LFB335:
 234:./Libraries/STM32H7xx_HAL_Driver/Src/stm32h7xx_hal.c **** 
 235:./Libraries/STM32H7xx_HAL_Driver/Src/stm32h7xx_hal.c **** /**
 236:./Libraries/STM32H7xx_HAL_Driver/Src/stm32h7xx_hal.c ****   * @brief  DeInitializes the MSP.
 237:./Libraries/STM32H7xx_HAL_Driver/Src/stm32h7xx_hal.c ****   * @retval None
 238:./Libraries/STM32H7xx_HAL_Driver/Src/stm32h7xx_hal.c ****   */
 239:./Libraries/STM32H7xx_HAL_Driver/Src/stm32h7xx_hal.c **** __weak void HAL_MspDeInit(void)
 240:./Libraries/STM32H7xx_HAL_Driver/Src/stm32h7xx_hal.c **** {
 241:./Libraries/STM32H7xx_HAL_Driver/Src/stm32h7xx_hal.c ****   /* NOTE : This function Should not be modified, when the callback is needed,
 242:./Libraries/STM32H7xx_HAL_Driver/Src/stm32h7xx_hal.c ****             the HAL_MspDeInit could be implemented in the user file
 243:./Libraries/STM32H7xx_HAL_Driver/Src/stm32h7xx_hal.c ****    */
 244:./Libraries/STM32H7xx_HAL_Driver/Src/stm32h7xx_hal.c **** }
 245:./Libraries/STM32H7xx_HAL_Driver/Src/stm32h7xx_hal.c **** 
 246:./Libraries/STM32H7xx_HAL_Driver/Src/stm32h7xx_hal.c **** /**
 247:./Libraries/STM32H7xx_HAL_Driver/Src/stm32h7xx_hal.c ****   * @brief This function configures the source of the time base.
 248:./Libraries/STM32H7xx_HAL_Driver/Src/stm32h7xx_hal.c ****   *        The time source is configured  to have 1ms time base with a dedicated
 249:./Libraries/STM32H7xx_HAL_Driver/Src/stm32h7xx_hal.c ****   *        Tick interrupt priority.
 250:./Libraries/STM32H7xx_HAL_Driver/Src/stm32h7xx_hal.c ****   * @note This function is called  automatically at the beginning of program after
 251:./Libraries/STM32H7xx_HAL_Driver/Src/stm32h7xx_hal.c ****   *       reset by HAL_Init() or at any time when clock is reconfigured  by HAL_RCC_ClockConfig().
 252:./Libraries/STM32H7xx_HAL_Driver/Src/stm32h7xx_hal.c ****   * @note In the default implementation, SysTick timer is the source of time base.
 253:./Libraries/STM32H7xx_HAL_Driver/Src/stm32h7xx_hal.c ****   *       It is used to generate interrupts at regular time intervals.
ARM GAS  /tmp/ccHzGhIf.s 			page 9


 254:./Libraries/STM32H7xx_HAL_Driver/Src/stm32h7xx_hal.c ****   *       Care must be taken if HAL_Delay() is called from a peripheral ISR process,
 255:./Libraries/STM32H7xx_HAL_Driver/Src/stm32h7xx_hal.c ****   *       The the SysTick interrupt must have higher priority (numerically lower)
 256:./Libraries/STM32H7xx_HAL_Driver/Src/stm32h7xx_hal.c ****   *       than the peripheral interrupt. Otherwise the caller ISR process will be blocked.
 257:./Libraries/STM32H7xx_HAL_Driver/Src/stm32h7xx_hal.c ****   *       The function is declared as __weak  to be overwritten  in case of other
 258:./Libraries/STM32H7xx_HAL_Driver/Src/stm32h7xx_hal.c ****   *       implementation  in user file.
 259:./Libraries/STM32H7xx_HAL_Driver/Src/stm32h7xx_hal.c ****   * @param TickPriority: Tick interrupt priority.
 260:./Libraries/STM32H7xx_HAL_Driver/Src/stm32h7xx_hal.c ****   * @retval HAL status
 261:./Libraries/STM32H7xx_HAL_Driver/Src/stm32h7xx_hal.c ****   */
 262:./Libraries/STM32H7xx_HAL_Driver/Src/stm32h7xx_hal.c **** __weak HAL_StatusTypeDef HAL_InitTick(uint32_t TickPriority)
 263:./Libraries/STM32H7xx_HAL_Driver/Src/stm32h7xx_hal.c **** {
 174              		.loc 1 263 1 is_stmt 1 view -0
 175              		.cfi_startproc
 176              		@ args = 0, pretend = 0, frame = 0
 177              		@ frame_needed = 0, uses_anonymous_args = 0
 264:./Libraries/STM32H7xx_HAL_Driver/Src/stm32h7xx_hal.c ****   /* Check uwTickFreq for MisraC 2012 (even if uwTickFreq is a enum type that don't take the value 
 265:./Libraries/STM32H7xx_HAL_Driver/Src/stm32h7xx_hal.c ****   if((uint32_t)uwTickFreq == 0UL)
 178              		.loc 1 265 3 view .LVU40
 179              		.loc 1 265 27 is_stmt 0 view .LVU41
 180 0000 0F4B     		ldr	r3, .L22
 181 0002 1B78     		ldrb	r3, [r3]	@ zero_extendqisi2
 182              		.loc 1 265 5 view .LVU42
 183 0004 0BB9     		cbnz	r3, .L9
 266:./Libraries/STM32H7xx_HAL_Driver/Src/stm32h7xx_hal.c ****   {
 267:./Libraries/STM32H7xx_HAL_Driver/Src/stm32h7xx_hal.c ****     return HAL_ERROR;
 184              		.loc 1 267 12 view .LVU43
 185 0006 0120     		movs	r0, #1
 186              	.LVL2:
 268:./Libraries/STM32H7xx_HAL_Driver/Src/stm32h7xx_hal.c ****   }
 269:./Libraries/STM32H7xx_HAL_Driver/Src/stm32h7xx_hal.c **** 
 270:./Libraries/STM32H7xx_HAL_Driver/Src/stm32h7xx_hal.c ****     /* Configure the SysTick to have interrupt in 1ms time basis*/
 271:./Libraries/STM32H7xx_HAL_Driver/Src/stm32h7xx_hal.c ****     if (HAL_SYSTICK_Config(SystemCoreClock / (1000UL / (uint32_t)uwTickFreq)) > 0U)
 272:./Libraries/STM32H7xx_HAL_Driver/Src/stm32h7xx_hal.c ****     {
 273:./Libraries/STM32H7xx_HAL_Driver/Src/stm32h7xx_hal.c ****       return HAL_ERROR;
 274:./Libraries/STM32H7xx_HAL_Driver/Src/stm32h7xx_hal.c ****     }
 275:./Libraries/STM32H7xx_HAL_Driver/Src/stm32h7xx_hal.c **** 
 276:./Libraries/STM32H7xx_HAL_Driver/Src/stm32h7xx_hal.c ****   /* Configure the SysTick IRQ priority */
 277:./Libraries/STM32H7xx_HAL_Driver/Src/stm32h7xx_hal.c ****   if (TickPriority < (1UL << __NVIC_PRIO_BITS))
 278:./Libraries/STM32H7xx_HAL_Driver/Src/stm32h7xx_hal.c ****   {
 279:./Libraries/STM32H7xx_HAL_Driver/Src/stm32h7xx_hal.c ****     HAL_NVIC_SetPriority(SysTick_IRQn, TickPriority, 0U);
 280:./Libraries/STM32H7xx_HAL_Driver/Src/stm32h7xx_hal.c ****     uwTickPrio = TickPriority;
 281:./Libraries/STM32H7xx_HAL_Driver/Src/stm32h7xx_hal.c ****   }
 282:./Libraries/STM32H7xx_HAL_Driver/Src/stm32h7xx_hal.c ****   else
 283:./Libraries/STM32H7xx_HAL_Driver/Src/stm32h7xx_hal.c ****   {
 284:./Libraries/STM32H7xx_HAL_Driver/Src/stm32h7xx_hal.c ****     return HAL_ERROR;
 285:./Libraries/STM32H7xx_HAL_Driver/Src/stm32h7xx_hal.c ****   }
 286:./Libraries/STM32H7xx_HAL_Driver/Src/stm32h7xx_hal.c **** 
 287:./Libraries/STM32H7xx_HAL_Driver/Src/stm32h7xx_hal.c ****   /* Return function status */
 288:./Libraries/STM32H7xx_HAL_Driver/Src/stm32h7xx_hal.c ****   return HAL_OK;
 289:./Libraries/STM32H7xx_HAL_Driver/Src/stm32h7xx_hal.c **** }
 187              		.loc 1 289 1 view .LVU44
 188 0008 7047     		bx	lr
 189              	.LVL3:
 190              	.L9:
 271:./Libraries/STM32H7xx_HAL_Driver/Src/stm32h7xx_hal.c ****     {
 191              		.loc 1 271 5 is_stmt 1 view .LVU45
 263:./Libraries/STM32H7xx_HAL_Driver/Src/stm32h7xx_hal.c ****   /* Check uwTickFreq for MisraC 2012 (even if uwTickFreq is a enum type that don't take the value 
 192              		.loc 1 263 1 is_stmt 0 view .LVU46
ARM GAS  /tmp/ccHzGhIf.s 			page 10


 193 000a 10B5     		push	{r4, lr}
 194              	.LCFI1:
 195              		.cfi_def_cfa_offset 8
 196              		.cfi_offset 4, -8
 197              		.cfi_offset 14, -4
 198 000c 0446     		mov	r4, r0
 271:./Libraries/STM32H7xx_HAL_Driver/Src/stm32h7xx_hal.c ****     {
 199              		.loc 1 271 54 view .LVU47
 200 000e 4FF47A70 		mov	r0, #1000
 201              	.LVL4:
 271:./Libraries/STM32H7xx_HAL_Driver/Src/stm32h7xx_hal.c ****     {
 202              		.loc 1 271 9 view .LVU48
 203 0012 0C4A     		ldr	r2, .L22+4
 271:./Libraries/STM32H7xx_HAL_Driver/Src/stm32h7xx_hal.c ****     {
 204              		.loc 1 271 54 view .LVU49
 205 0014 B0FBF3F3 		udiv	r3, r0, r3
 271:./Libraries/STM32H7xx_HAL_Driver/Src/stm32h7xx_hal.c ****     {
 206              		.loc 1 271 9 view .LVU50
 207 0018 1068     		ldr	r0, [r2]
 208 001a B0FBF3F0 		udiv	r0, r0, r3
 209 001e FFF7FEFF 		bl	HAL_SYSTICK_Config
 210              	.LVL5:
 277:./Libraries/STM32H7xx_HAL_Driver/Src/stm32h7xx_hal.c ****   {
 211              		.loc 1 277 3 is_stmt 1 view .LVU51
 277:./Libraries/STM32H7xx_HAL_Driver/Src/stm32h7xx_hal.c ****   {
 212              		.loc 1 277 6 is_stmt 0 view .LVU52
 213 0022 0F2C     		cmp	r4, #15
 214 0024 00D8     		bhi	.L11
 277:./Libraries/STM32H7xx_HAL_Driver/Src/stm32h7xx_hal.c ****   {
 215              		.loc 1 277 6 view .LVU53
 216 0026 08B1     		cbz	r0, .L21
 217              	.L11:
 267:./Libraries/STM32H7xx_HAL_Driver/Src/stm32h7xx_hal.c ****   }
 218              		.loc 1 267 12 view .LVU54
 219 0028 0120     		movs	r0, #1
 220              		.loc 1 289 1 view .LVU55
 221 002a 10BD     		pop	{r4, pc}
 222              	.LVL6:
 223              	.L21:
 224              	.LBB4:
 225              	.LBI4:
 262:./Libraries/STM32H7xx_HAL_Driver/Src/stm32h7xx_hal.c **** {
 226              		.loc 1 262 26 is_stmt 1 view .LVU56
 227              	.LBB5:
 279:./Libraries/STM32H7xx_HAL_Driver/Src/stm32h7xx_hal.c ****     uwTickPrio = TickPriority;
 228              		.loc 1 279 5 view .LVU57
 229 002c 0022     		movs	r2, #0
 230 002e 2146     		mov	r1, r4
 231 0030 4FF0FF30 		mov	r0, #-1
 232 0034 FFF7FEFF 		bl	HAL_NVIC_SetPriority
 233              	.LVL7:
 280:./Libraries/STM32H7xx_HAL_Driver/Src/stm32h7xx_hal.c ****   }
 234              		.loc 1 280 5 view .LVU58
 280:./Libraries/STM32H7xx_HAL_Driver/Src/stm32h7xx_hal.c ****   }
 235              		.loc 1 280 16 is_stmt 0 view .LVU59
 236 0038 034B     		ldr	r3, .L22+8
 237 003a 0020     		movs	r0, #0
ARM GAS  /tmp/ccHzGhIf.s 			page 11


 238 003c 1C60     		str	r4, [r3]
 288:./Libraries/STM32H7xx_HAL_Driver/Src/stm32h7xx_hal.c **** }
 239              		.loc 1 288 3 is_stmt 1 view .LVU60
 240              	.LVL8:
 288:./Libraries/STM32H7xx_HAL_Driver/Src/stm32h7xx_hal.c **** }
 241              		.loc 1 288 3 is_stmt 0 view .LVU61
 242              	.LBE5:
 243              	.LBE4:
 244              		.loc 1 289 1 view .LVU62
 245 003e 10BD     		pop	{r4, pc}
 246              	.LVL9:
 247              	.L23:
 248              		.loc 1 289 1 view .LVU63
 249              		.align	2
 250              	.L22:
 251 0040 00000000 		.word	.LANCHOR0
 252 0044 00000000 		.word	SystemCoreClock
 253 0048 00000000 		.word	.LANCHOR1
 254              		.cfi_endproc
 255              	.LFE335:
 257              		.section	.text.HAL_Init,"ax",%progbits
 258              		.align	1
 259              		.p2align 2,,3
 260              		.global	HAL_Init
 261              		.syntax unified
 262              		.thumb
 263              		.thumb_func
 264              		.fpu fpv5-d16
 266              	HAL_Init:
 267              	.LFB331:
 135:./Libraries/STM32H7xx_HAL_Driver/Src/stm32h7xx_hal.c **** 
 268              		.loc 1 135 1 is_stmt 1 view -0
 269              		.cfi_startproc
 270              		@ args = 0, pretend = 0, frame = 0
 271              		@ frame_needed = 0, uses_anonymous_args = 0
 137:./Libraries/STM32H7xx_HAL_Driver/Src/stm32h7xx_hal.c **** 
 272              		.loc 1 137 1 view .LVU65
 147:./Libraries/STM32H7xx_HAL_Driver/Src/stm32h7xx_hal.c **** 
 273              		.loc 1 147 3 view .LVU66
 135:./Libraries/STM32H7xx_HAL_Driver/Src/stm32h7xx_hal.c **** 
 274              		.loc 1 135 1 is_stmt 0 view .LVU67
 275 0000 38B5     		push	{r3, r4, r5, lr}
 276              	.LCFI2:
 277              		.cfi_def_cfa_offset 16
 278              		.cfi_offset 3, -16
 279              		.cfi_offset 4, -12
 280              		.cfi_offset 5, -8
 281              		.cfi_offset 14, -4
 147:./Libraries/STM32H7xx_HAL_Driver/Src/stm32h7xx_hal.c **** 
 282              		.loc 1 147 3 view .LVU68
 283 0002 0320     		movs	r0, #3
 151:./Libraries/STM32H7xx_HAL_Driver/Src/stm32h7xx_hal.c **** #else
 284              		.loc 1 151 72 view .LVU69
 285 0004 124C     		ldr	r4, .L29
 147:./Libraries/STM32H7xx_HAL_Driver/Src/stm32h7xx_hal.c **** 
 286              		.loc 1 147 3 view .LVU70
 287 0006 FFF7FEFF 		bl	HAL_NVIC_SetPriorityGrouping
ARM GAS  /tmp/ccHzGhIf.s 			page 12


 288              	.LVL10:
 151:./Libraries/STM32H7xx_HAL_Driver/Src/stm32h7xx_hal.c **** #else
 289              		.loc 1 151 3 is_stmt 1 view .LVU71
 158:./Libraries/STM32H7xx_HAL_Driver/Src/stm32h7xx_hal.c **** #else
 290              		.loc 1 158 17 is_stmt 0 view .LVU72
 291 000a 124D     		ldr	r5, .L29+4
 151:./Libraries/STM32H7xx_HAL_Driver/Src/stm32h7xx_hal.c **** #else
 292              		.loc 1 151 25 view .LVU73
 293 000c FFF7FEFF 		bl	HAL_RCC_GetSysClockFreq
 294              	.LVL11:
 151:./Libraries/STM32H7xx_HAL_Driver/Src/stm32h7xx_hal.c **** #else
 295              		.loc 1 151 77 view .LVU74
 296 0010 114B     		ldr	r3, .L29+8
 151:./Libraries/STM32H7xx_HAL_Driver/Src/stm32h7xx_hal.c **** #else
 297              		.loc 1 151 25 view .LVU75
 298 0012 0246     		mov	r2, r0
 170:./Libraries/STM32H7xx_HAL_Driver/Src/stm32h7xx_hal.c ****   {
 299              		.loc 1 170 6 view .LVU76
 300 0014 0020     		movs	r0, #0
 151:./Libraries/STM32H7xx_HAL_Driver/Src/stm32h7xx_hal.c **** #else
 301              		.loc 1 151 77 view .LVU77
 302 0016 9969     		ldr	r1, [r3, #24]
 158:./Libraries/STM32H7xx_HAL_Driver/Src/stm32h7xx_hal.c **** #else
 303              		.loc 1 158 66 view .LVU78
 304 0018 9B69     		ldr	r3, [r3, #24]
 151:./Libraries/STM32H7xx_HAL_Driver/Src/stm32h7xx_hal.c **** #else
 305              		.loc 1 151 106 view .LVU79
 306 001a C1F30321 		ubfx	r1, r1, #8, #4
 158:./Libraries/STM32H7xx_HAL_Driver/Src/stm32h7xx_hal.c **** #else
 307              		.loc 1 158 93 view .LVU80
 308 001e 03F00F03 		and	r3, r3, #15
 151:./Libraries/STM32H7xx_HAL_Driver/Src/stm32h7xx_hal.c **** #else
 309              		.loc 1 151 133 view .LVU81
 310 0022 615C     		ldrb	r1, [r4, r1]	@ zero_extendqisi2
 158:./Libraries/STM32H7xx_HAL_Driver/Src/stm32h7xx_hal.c **** #else
 311              		.loc 1 158 118 view .LVU82
 312 0024 E35C     		ldrb	r3, [r4, r3]	@ zero_extendqisi2
 151:./Libraries/STM32H7xx_HAL_Driver/Src/stm32h7xx_hal.c **** #else
 313              		.loc 1 151 133 view .LVU83
 314 0026 01F01F01 		and	r1, r1, #31
 166:./Libraries/STM32H7xx_HAL_Driver/Src/stm32h7xx_hal.c **** #endif /* DUAL_CORE && CORE_CM4 */
 315              		.loc 1 166 19 view .LVU84
 316 002a 0C4C     		ldr	r4, .L29+12
 158:./Libraries/STM32H7xx_HAL_Driver/Src/stm32h7xx_hal.c **** #else
 317              		.loc 1 158 118 view .LVU85
 318 002c 03F01F03 		and	r3, r3, #31
 151:./Libraries/STM32H7xx_HAL_Driver/Src/stm32h7xx_hal.c **** #else
 319              		.loc 1 151 23 view .LVU86
 320 0030 CA40     		lsrs	r2, r2, r1
 321              	.LVL12:
 158:./Libraries/STM32H7xx_HAL_Driver/Src/stm32h7xx_hal.c **** #else
 322              		.loc 1 158 3 is_stmt 1 view .LVU87
 158:./Libraries/STM32H7xx_HAL_Driver/Src/stm32h7xx_hal.c **** #else
 323              		.loc 1 158 40 is_stmt 0 view .LVU88
 324 0032 22FA03F3 		lsr	r3, r2, r3
 166:./Libraries/STM32H7xx_HAL_Driver/Src/stm32h7xx_hal.c **** #endif /* DUAL_CORE && CORE_CM4 */
 325              		.loc 1 166 19 view .LVU89
ARM GAS  /tmp/ccHzGhIf.s 			page 13


 326 0036 2260     		str	r2, [r4]
 158:./Libraries/STM32H7xx_HAL_Driver/Src/stm32h7xx_hal.c **** #else
 327              		.loc 1 158 17 view .LVU90
 328 0038 2B60     		str	r3, [r5]
 166:./Libraries/STM32H7xx_HAL_Driver/Src/stm32h7xx_hal.c **** #endif /* DUAL_CORE && CORE_CM4 */
 329              		.loc 1 166 3 is_stmt 1 view .LVU91
 170:./Libraries/STM32H7xx_HAL_Driver/Src/stm32h7xx_hal.c ****   {
 330              		.loc 1 170 3 view .LVU92
 170:./Libraries/STM32H7xx_HAL_Driver/Src/stm32h7xx_hal.c ****   {
 331              		.loc 1 170 6 is_stmt 0 view .LVU93
 332 003a FFF7FEFF 		bl	HAL_InitTick
 333              	.LVL13:
 170:./Libraries/STM32H7xx_HAL_Driver/Src/stm32h7xx_hal.c ****   {
 334              		.loc 1 170 5 view .LVU94
 335 003e 10B1     		cbz	r0, .L28
 172:./Libraries/STM32H7xx_HAL_Driver/Src/stm32h7xx_hal.c ****   }
 336              		.loc 1 172 12 view .LVU95
 337 0040 0124     		movs	r4, #1
 180:./Libraries/STM32H7xx_HAL_Driver/Src/stm32h7xx_hal.c **** 
 338              		.loc 1 180 1 view .LVU96
 339 0042 2046     		mov	r0, r4
 340 0044 38BD     		pop	{r3, r4, r5, pc}
 341              	.L28:
 342 0046 0446     		mov	r4, r0
 176:./Libraries/STM32H7xx_HAL_Driver/Src/stm32h7xx_hal.c **** 
 343              		.loc 1 176 3 is_stmt 1 view .LVU97
 344 0048 FFF7FEFF 		bl	HAL_MspInit
 345              	.LVL14:
 179:./Libraries/STM32H7xx_HAL_Driver/Src/stm32h7xx_hal.c **** }
 346              		.loc 1 179 3 view .LVU98
 180:./Libraries/STM32H7xx_HAL_Driver/Src/stm32h7xx_hal.c **** 
 347              		.loc 1 180 1 is_stmt 0 view .LVU99
 348 004c 2046     		mov	r0, r4
 349 004e 38BD     		pop	{r3, r4, r5, pc}
 350              	.L30:
 351              		.align	2
 352              	.L29:
 353 0050 00000000 		.word	D1CorePrescTable
 354 0054 00000000 		.word	SystemD2Clock
 355 0058 00440258 		.word	1476543488
 356 005c 00000000 		.word	SystemCoreClock
 357              		.cfi_endproc
 358              	.LFE331:
 360              		.section	.text.HAL_IncTick,"ax",%progbits
 361              		.align	1
 362              		.p2align 2,,3
 363              		.weak	HAL_IncTick
 364              		.syntax unified
 365              		.thumb
 366              		.thumb_func
 367              		.fpu fpv5-d16
 369              	HAL_IncTick:
 370              	.LFB336:
 290:./Libraries/STM32H7xx_HAL_Driver/Src/stm32h7xx_hal.c **** 
 291:./Libraries/STM32H7xx_HAL_Driver/Src/stm32h7xx_hal.c **** /**
 292:./Libraries/STM32H7xx_HAL_Driver/Src/stm32h7xx_hal.c ****   * @}
 293:./Libraries/STM32H7xx_HAL_Driver/Src/stm32h7xx_hal.c ****   */
ARM GAS  /tmp/ccHzGhIf.s 			page 14


 294:./Libraries/STM32H7xx_HAL_Driver/Src/stm32h7xx_hal.c **** 
 295:./Libraries/STM32H7xx_HAL_Driver/Src/stm32h7xx_hal.c **** /** @defgroup HAL_Group2 HAL Control functions
 296:./Libraries/STM32H7xx_HAL_Driver/Src/stm32h7xx_hal.c ****  *  @brief    HAL Control functions
 297:./Libraries/STM32H7xx_HAL_Driver/Src/stm32h7xx_hal.c ****  *
 298:./Libraries/STM32H7xx_HAL_Driver/Src/stm32h7xx_hal.c **** @verbatim
 299:./Libraries/STM32H7xx_HAL_Driver/Src/stm32h7xx_hal.c ****  ===============================================================================
 300:./Libraries/STM32H7xx_HAL_Driver/Src/stm32h7xx_hal.c ****                       ##### HAL Control functions #####
 301:./Libraries/STM32H7xx_HAL_Driver/Src/stm32h7xx_hal.c ****  ===============================================================================
 302:./Libraries/STM32H7xx_HAL_Driver/Src/stm32h7xx_hal.c ****     [..]  This section provides functions allowing to:
 303:./Libraries/STM32H7xx_HAL_Driver/Src/stm32h7xx_hal.c ****       (+) Provide a tick value in millisecond
 304:./Libraries/STM32H7xx_HAL_Driver/Src/stm32h7xx_hal.c ****       (+) Provide a blocking delay in millisecond
 305:./Libraries/STM32H7xx_HAL_Driver/Src/stm32h7xx_hal.c ****       (+) Suspend the time base source interrupt
 306:./Libraries/STM32H7xx_HAL_Driver/Src/stm32h7xx_hal.c ****       (+) Resume the time base source interrupt
 307:./Libraries/STM32H7xx_HAL_Driver/Src/stm32h7xx_hal.c ****       (+) Get the HAL API driver version
 308:./Libraries/STM32H7xx_HAL_Driver/Src/stm32h7xx_hal.c ****       (+) Get the device identifier
 309:./Libraries/STM32H7xx_HAL_Driver/Src/stm32h7xx_hal.c ****       (+) Get the device revision identifier
 310:./Libraries/STM32H7xx_HAL_Driver/Src/stm32h7xx_hal.c ****       (+) Enable/Disable Debug module during SLEEP mode
 311:./Libraries/STM32H7xx_HAL_Driver/Src/stm32h7xx_hal.c ****       (+) Enable/Disable Debug module during STOP mode
 312:./Libraries/STM32H7xx_HAL_Driver/Src/stm32h7xx_hal.c ****       (+) Enable/Disable Debug module during STANDBY mode
 313:./Libraries/STM32H7xx_HAL_Driver/Src/stm32h7xx_hal.c **** 
 314:./Libraries/STM32H7xx_HAL_Driver/Src/stm32h7xx_hal.c **** @endverbatim
 315:./Libraries/STM32H7xx_HAL_Driver/Src/stm32h7xx_hal.c ****   * @{
 316:./Libraries/STM32H7xx_HAL_Driver/Src/stm32h7xx_hal.c ****   */
 317:./Libraries/STM32H7xx_HAL_Driver/Src/stm32h7xx_hal.c **** 
 318:./Libraries/STM32H7xx_HAL_Driver/Src/stm32h7xx_hal.c **** /**
 319:./Libraries/STM32H7xx_HAL_Driver/Src/stm32h7xx_hal.c ****   * @brief This function is called to increment  a global variable "uwTick"
 320:./Libraries/STM32H7xx_HAL_Driver/Src/stm32h7xx_hal.c ****   *        used as application time base.
 321:./Libraries/STM32H7xx_HAL_Driver/Src/stm32h7xx_hal.c ****   * @note In the default implementation, this variable is incremented each 1ms
 322:./Libraries/STM32H7xx_HAL_Driver/Src/stm32h7xx_hal.c ****   *       in Systick ISR.
 323:./Libraries/STM32H7xx_HAL_Driver/Src/stm32h7xx_hal.c ****  * @note This function is declared as __weak to be overwritten in case of other
 324:./Libraries/STM32H7xx_HAL_Driver/Src/stm32h7xx_hal.c ****   *      implementations in user file.
 325:./Libraries/STM32H7xx_HAL_Driver/Src/stm32h7xx_hal.c ****   * @retval None
 326:./Libraries/STM32H7xx_HAL_Driver/Src/stm32h7xx_hal.c ****   */
 327:./Libraries/STM32H7xx_HAL_Driver/Src/stm32h7xx_hal.c **** __weak void HAL_IncTick(void)
 328:./Libraries/STM32H7xx_HAL_Driver/Src/stm32h7xx_hal.c **** {
 371              		.loc 1 328 1 is_stmt 1 view -0
 372              		.cfi_startproc
 373              		@ args = 0, pretend = 0, frame = 0
 374              		@ frame_needed = 0, uses_anonymous_args = 0
 375              		@ link register save eliminated.
 329:./Libraries/STM32H7xx_HAL_Driver/Src/stm32h7xx_hal.c ****   uwTick += (uint32_t)uwTickFreq;
 376              		.loc 1 329 3 view .LVU101
 377              		.loc 1 329 10 is_stmt 0 view .LVU102
 378 0000 034A     		ldr	r2, .L32
 379              		.loc 1 329 13 view .LVU103
 380 0002 044B     		ldr	r3, .L32+4
 381              		.loc 1 329 10 view .LVU104
 382 0004 1168     		ldr	r1, [r2]
 383              		.loc 1 329 13 view .LVU105
 384 0006 1B78     		ldrb	r3, [r3]	@ zero_extendqisi2
 385              		.loc 1 329 10 view .LVU106
 386 0008 0B44     		add	r3, r3, r1
 387 000a 1360     		str	r3, [r2]
 330:./Libraries/STM32H7xx_HAL_Driver/Src/stm32h7xx_hal.c **** }
 388              		.loc 1 330 1 view .LVU107
 389 000c 7047     		bx	lr
 390              	.L33:
ARM GAS  /tmp/ccHzGhIf.s 			page 15


 391 000e 00BF     		.align	2
 392              	.L32:
 393 0010 00000000 		.word	uwTick
 394 0014 00000000 		.word	.LANCHOR0
 395              		.cfi_endproc
 396              	.LFE336:
 398              		.section	.text.HAL_GetTick,"ax",%progbits
 399              		.align	1
 400              		.p2align 2,,3
 401              		.weak	HAL_GetTick
 402              		.syntax unified
 403              		.thumb
 404              		.thumb_func
 405              		.fpu fpv5-d16
 407              	HAL_GetTick:
 408              	.LFB337:
 331:./Libraries/STM32H7xx_HAL_Driver/Src/stm32h7xx_hal.c **** 
 332:./Libraries/STM32H7xx_HAL_Driver/Src/stm32h7xx_hal.c **** /**
 333:./Libraries/STM32H7xx_HAL_Driver/Src/stm32h7xx_hal.c ****   * @brief Provides a tick value in millisecond.
 334:./Libraries/STM32H7xx_HAL_Driver/Src/stm32h7xx_hal.c ****   * @note This function is declared as __weak to be overwritten in case of other
 335:./Libraries/STM32H7xx_HAL_Driver/Src/stm32h7xx_hal.c ****   *       implementations in user file.
 336:./Libraries/STM32H7xx_HAL_Driver/Src/stm32h7xx_hal.c ****   * @retval tick value
 337:./Libraries/STM32H7xx_HAL_Driver/Src/stm32h7xx_hal.c ****   */
 338:./Libraries/STM32H7xx_HAL_Driver/Src/stm32h7xx_hal.c **** __weak uint32_t HAL_GetTick(void)
 339:./Libraries/STM32H7xx_HAL_Driver/Src/stm32h7xx_hal.c **** {
 409              		.loc 1 339 1 is_stmt 1 view -0
 410              		.cfi_startproc
 411              		@ args = 0, pretend = 0, frame = 0
 412              		@ frame_needed = 0, uses_anonymous_args = 0
 413              		@ link register save eliminated.
 340:./Libraries/STM32H7xx_HAL_Driver/Src/stm32h7xx_hal.c ****   return uwTick;
 414              		.loc 1 340 3 view .LVU109
 415              		.loc 1 340 10 is_stmt 0 view .LVU110
 416 0000 014B     		ldr	r3, .L35
 417 0002 1868     		ldr	r0, [r3]
 341:./Libraries/STM32H7xx_HAL_Driver/Src/stm32h7xx_hal.c **** }
 418              		.loc 1 341 1 view .LVU111
 419 0004 7047     		bx	lr
 420              	.L36:
 421 0006 00BF     		.align	2
 422              	.L35:
 423 0008 00000000 		.word	uwTick
 424              		.cfi_endproc
 425              	.LFE337:
 427              		.section	.text.HAL_GetTickPrio,"ax",%progbits
 428              		.align	1
 429              		.p2align 2,,3
 430              		.global	HAL_GetTickPrio
 431              		.syntax unified
 432              		.thumb
 433              		.thumb_func
 434              		.fpu fpv5-d16
 436              	HAL_GetTickPrio:
 437              	.LFB338:
 342:./Libraries/STM32H7xx_HAL_Driver/Src/stm32h7xx_hal.c **** 
 343:./Libraries/STM32H7xx_HAL_Driver/Src/stm32h7xx_hal.c **** /**
 344:./Libraries/STM32H7xx_HAL_Driver/Src/stm32h7xx_hal.c ****   * @brief This function returns a tick priority.
ARM GAS  /tmp/ccHzGhIf.s 			page 16


 345:./Libraries/STM32H7xx_HAL_Driver/Src/stm32h7xx_hal.c ****   * @retval tick priority
 346:./Libraries/STM32H7xx_HAL_Driver/Src/stm32h7xx_hal.c ****   */
 347:./Libraries/STM32H7xx_HAL_Driver/Src/stm32h7xx_hal.c **** uint32_t HAL_GetTickPrio(void)
 348:./Libraries/STM32H7xx_HAL_Driver/Src/stm32h7xx_hal.c **** {
 438              		.loc 1 348 1 is_stmt 1 view -0
 439              		.cfi_startproc
 440              		@ args = 0, pretend = 0, frame = 0
 441              		@ frame_needed = 0, uses_anonymous_args = 0
 442              		@ link register save eliminated.
 349:./Libraries/STM32H7xx_HAL_Driver/Src/stm32h7xx_hal.c ****   return uwTickPrio;
 443              		.loc 1 349 3 view .LVU113
 444              		.loc 1 349 10 is_stmt 0 view .LVU114
 445 0000 014B     		ldr	r3, .L38
 350:./Libraries/STM32H7xx_HAL_Driver/Src/stm32h7xx_hal.c **** }
 446              		.loc 1 350 1 view .LVU115
 447 0002 1868     		ldr	r0, [r3]
 448 0004 7047     		bx	lr
 449              	.L39:
 450 0006 00BF     		.align	2
 451              	.L38:
 452 0008 00000000 		.word	.LANCHOR1
 453              		.cfi_endproc
 454              	.LFE338:
 456              		.section	.text.HAL_SetTickFreq,"ax",%progbits
 457              		.align	1
 458              		.p2align 2,,3
 459              		.global	HAL_SetTickFreq
 460              		.syntax unified
 461              		.thumb
 462              		.thumb_func
 463              		.fpu fpv5-d16
 465              	HAL_SetTickFreq:
 466              	.LVL15:
 467              	.LFB339:
 351:./Libraries/STM32H7xx_HAL_Driver/Src/stm32h7xx_hal.c **** 
 352:./Libraries/STM32H7xx_HAL_Driver/Src/stm32h7xx_hal.c **** /**
 353:./Libraries/STM32H7xx_HAL_Driver/Src/stm32h7xx_hal.c ****   * @brief Set new tick Freq.
 354:./Libraries/STM32H7xx_HAL_Driver/Src/stm32h7xx_hal.c ****   * @retval Status
 355:./Libraries/STM32H7xx_HAL_Driver/Src/stm32h7xx_hal.c ****   */
 356:./Libraries/STM32H7xx_HAL_Driver/Src/stm32h7xx_hal.c **** HAL_StatusTypeDef HAL_SetTickFreq(HAL_TickFreqTypeDef Freq)
 357:./Libraries/STM32H7xx_HAL_Driver/Src/stm32h7xx_hal.c **** {
 468              		.loc 1 357 1 is_stmt 1 view -0
 469              		.cfi_startproc
 470              		@ args = 0, pretend = 0, frame = 0
 471              		@ frame_needed = 0, uses_anonymous_args = 0
 358:./Libraries/STM32H7xx_HAL_Driver/Src/stm32h7xx_hal.c ****   HAL_StatusTypeDef status  = HAL_OK;
 472              		.loc 1 358 3 view .LVU117
 359:./Libraries/STM32H7xx_HAL_Driver/Src/stm32h7xx_hal.c ****   HAL_TickFreqTypeDef prevTickFreq;
 473              		.loc 1 359 3 view .LVU118
 360:./Libraries/STM32H7xx_HAL_Driver/Src/stm32h7xx_hal.c **** 
 361:./Libraries/STM32H7xx_HAL_Driver/Src/stm32h7xx_hal.c ****   assert_param(IS_TICKFREQ(Freq));
 474              		.loc 1 361 3 view .LVU119
 362:./Libraries/STM32H7xx_HAL_Driver/Src/stm32h7xx_hal.c **** 
 363:./Libraries/STM32H7xx_HAL_Driver/Src/stm32h7xx_hal.c ****   if (uwTickFreq != Freq)
 475              		.loc 1 363 3 view .LVU120
 357:./Libraries/STM32H7xx_HAL_Driver/Src/stm32h7xx_hal.c ****   HAL_StatusTypeDef status  = HAL_OK;
 476              		.loc 1 357 1 is_stmt 0 view .LVU121
ARM GAS  /tmp/ccHzGhIf.s 			page 17


 477 0000 38B5     		push	{r3, r4, r5, lr}
 478              	.LCFI3:
 479              		.cfi_def_cfa_offset 16
 480              		.cfi_offset 3, -16
 481              		.cfi_offset 4, -12
 482              		.cfi_offset 5, -8
 483              		.cfi_offset 14, -4
 484              		.loc 1 363 18 view .LVU122
 485 0002 074C     		ldr	r4, .L48
 486 0004 2578     		ldrb	r5, [r4]	@ zero_extendqisi2
 487              		.loc 1 363 6 view .LVU123
 488 0006 8542     		cmp	r5, r0
 489 0008 01D1     		bne	.L47
 358:./Libraries/STM32H7xx_HAL_Driver/Src/stm32h7xx_hal.c ****   HAL_TickFreqTypeDef prevTickFreq;
 490              		.loc 1 358 21 view .LVU124
 491 000a 0020     		movs	r0, #0
 492              	.LVL16:
 493              	.L41:
 364:./Libraries/STM32H7xx_HAL_Driver/Src/stm32h7xx_hal.c ****   {
 365:./Libraries/STM32H7xx_HAL_Driver/Src/stm32h7xx_hal.c **** 
 366:./Libraries/STM32H7xx_HAL_Driver/Src/stm32h7xx_hal.c ****     /* Back up uwTickFreq frequency */
 367:./Libraries/STM32H7xx_HAL_Driver/Src/stm32h7xx_hal.c ****     prevTickFreq = uwTickFreq;
 368:./Libraries/STM32H7xx_HAL_Driver/Src/stm32h7xx_hal.c **** 
 369:./Libraries/STM32H7xx_HAL_Driver/Src/stm32h7xx_hal.c ****     /* Update uwTickFreq global variable used by HAL_InitTick() */
 370:./Libraries/STM32H7xx_HAL_Driver/Src/stm32h7xx_hal.c ****     uwTickFreq = Freq;
 371:./Libraries/STM32H7xx_HAL_Driver/Src/stm32h7xx_hal.c **** 
 372:./Libraries/STM32H7xx_HAL_Driver/Src/stm32h7xx_hal.c ****     /* Apply the new tick Freq  */
 373:./Libraries/STM32H7xx_HAL_Driver/Src/stm32h7xx_hal.c ****     status = HAL_InitTick(uwTickPrio);
 374:./Libraries/STM32H7xx_HAL_Driver/Src/stm32h7xx_hal.c ****     if (status != HAL_OK)
 375:./Libraries/STM32H7xx_HAL_Driver/Src/stm32h7xx_hal.c ****     {
 376:./Libraries/STM32H7xx_HAL_Driver/Src/stm32h7xx_hal.c ****       /* Restore previous tick frequency */
 377:./Libraries/STM32H7xx_HAL_Driver/Src/stm32h7xx_hal.c ****       uwTickFreq = prevTickFreq;
 378:./Libraries/STM32H7xx_HAL_Driver/Src/stm32h7xx_hal.c ****     }
 379:./Libraries/STM32H7xx_HAL_Driver/Src/stm32h7xx_hal.c ****   }
 380:./Libraries/STM32H7xx_HAL_Driver/Src/stm32h7xx_hal.c **** 
 381:./Libraries/STM32H7xx_HAL_Driver/Src/stm32h7xx_hal.c ****   return status;
 494              		.loc 1 381 3 is_stmt 1 view .LVU125
 382:./Libraries/STM32H7xx_HAL_Driver/Src/stm32h7xx_hal.c **** }
 495              		.loc 1 382 1 is_stmt 0 view .LVU126
 496 000c 38BD     		pop	{r3, r4, r5, pc}
 497              	.LVL17:
 498              	.L47:
 367:./Libraries/STM32H7xx_HAL_Driver/Src/stm32h7xx_hal.c **** 
 499              		.loc 1 367 5 is_stmt 1 view .LVU127
 370:./Libraries/STM32H7xx_HAL_Driver/Src/stm32h7xx_hal.c **** 
 500              		.loc 1 370 5 view .LVU128
 373:./Libraries/STM32H7xx_HAL_Driver/Src/stm32h7xx_hal.c ****     if (status != HAL_OK)
 501              		.loc 1 373 14 is_stmt 0 view .LVU129
 502 000e 054B     		ldr	r3, .L48+4
 370:./Libraries/STM32H7xx_HAL_Driver/Src/stm32h7xx_hal.c **** 
 503              		.loc 1 370 16 view .LVU130
 504 0010 2070     		strb	r0, [r4]
 373:./Libraries/STM32H7xx_HAL_Driver/Src/stm32h7xx_hal.c ****     if (status != HAL_OK)
 505              		.loc 1 373 5 is_stmt 1 view .LVU131
 373:./Libraries/STM32H7xx_HAL_Driver/Src/stm32h7xx_hal.c ****     if (status != HAL_OK)
 506              		.loc 1 373 14 is_stmt 0 view .LVU132
 507 0012 1868     		ldr	r0, [r3]
ARM GAS  /tmp/ccHzGhIf.s 			page 18


 508              	.LVL18:
 373:./Libraries/STM32H7xx_HAL_Driver/Src/stm32h7xx_hal.c ****     if (status != HAL_OK)
 509              		.loc 1 373 14 view .LVU133
 510 0014 FFF7FEFF 		bl	HAL_InitTick
 511              	.LVL19:
 374:./Libraries/STM32H7xx_HAL_Driver/Src/stm32h7xx_hal.c ****     {
 512              		.loc 1 374 5 is_stmt 1 view .LVU134
 374:./Libraries/STM32H7xx_HAL_Driver/Src/stm32h7xx_hal.c ****     {
 513              		.loc 1 374 8 is_stmt 0 view .LVU135
 514 0018 0028     		cmp	r0, #0
 515 001a F7D0     		beq	.L41
 377:./Libraries/STM32H7xx_HAL_Driver/Src/stm32h7xx_hal.c ****     }
 516              		.loc 1 377 7 is_stmt 1 view .LVU136
 377:./Libraries/STM32H7xx_HAL_Driver/Src/stm32h7xx_hal.c ****     }
 517              		.loc 1 377 18 is_stmt 0 view .LVU137
 518 001c 2570     		strb	r5, [r4]
 381:./Libraries/STM32H7xx_HAL_Driver/Src/stm32h7xx_hal.c **** }
 519              		.loc 1 381 3 is_stmt 1 view .LVU138
 520              		.loc 1 382 1 is_stmt 0 view .LVU139
 521 001e 38BD     		pop	{r3, r4, r5, pc}
 522              	.LVL20:
 523              	.L49:
 524              		.loc 1 382 1 view .LVU140
 525              		.align	2
 526              	.L48:
 527 0020 00000000 		.word	.LANCHOR0
 528 0024 00000000 		.word	.LANCHOR1
 529              		.cfi_endproc
 530              	.LFE339:
 532              		.section	.text.HAL_GetTickFreq,"ax",%progbits
 533              		.align	1
 534              		.p2align 2,,3
 535              		.global	HAL_GetTickFreq
 536              		.syntax unified
 537              		.thumb
 538              		.thumb_func
 539              		.fpu fpv5-d16
 541              	HAL_GetTickFreq:
 542              	.LFB340:
 383:./Libraries/STM32H7xx_HAL_Driver/Src/stm32h7xx_hal.c **** 
 384:./Libraries/STM32H7xx_HAL_Driver/Src/stm32h7xx_hal.c **** /**
 385:./Libraries/STM32H7xx_HAL_Driver/Src/stm32h7xx_hal.c ****   * @brief Return tick frequency.
 386:./Libraries/STM32H7xx_HAL_Driver/Src/stm32h7xx_hal.c ****   * @retval tick period in Hz
 387:./Libraries/STM32H7xx_HAL_Driver/Src/stm32h7xx_hal.c ****   */
 388:./Libraries/STM32H7xx_HAL_Driver/Src/stm32h7xx_hal.c **** HAL_TickFreqTypeDef HAL_GetTickFreq(void)
 389:./Libraries/STM32H7xx_HAL_Driver/Src/stm32h7xx_hal.c **** {
 543              		.loc 1 389 1 is_stmt 1 view -0
 544              		.cfi_startproc
 545              		@ args = 0, pretend = 0, frame = 0
 546              		@ frame_needed = 0, uses_anonymous_args = 0
 547              		@ link register save eliminated.
 390:./Libraries/STM32H7xx_HAL_Driver/Src/stm32h7xx_hal.c ****   return uwTickFreq;
 548              		.loc 1 390 3 view .LVU142
 549              		.loc 1 390 10 is_stmt 0 view .LVU143
 550 0000 014B     		ldr	r3, .L51
 391:./Libraries/STM32H7xx_HAL_Driver/Src/stm32h7xx_hal.c **** }
 551              		.loc 1 391 1 view .LVU144
ARM GAS  /tmp/ccHzGhIf.s 			page 19


 552 0002 1878     		ldrb	r0, [r3]	@ zero_extendqisi2
 553 0004 7047     		bx	lr
 554              	.L52:
 555 0006 00BF     		.align	2
 556              	.L51:
 557 0008 00000000 		.word	.LANCHOR0
 558              		.cfi_endproc
 559              	.LFE340:
 561              		.section	.text.HAL_Delay,"ax",%progbits
 562              		.align	1
 563              		.p2align 2,,3
 564              		.weak	HAL_Delay
 565              		.syntax unified
 566              		.thumb
 567              		.thumb_func
 568              		.fpu fpv5-d16
 570              	HAL_Delay:
 571              	.LVL21:
 572              	.LFB341:
 392:./Libraries/STM32H7xx_HAL_Driver/Src/stm32h7xx_hal.c **** 
 393:./Libraries/STM32H7xx_HAL_Driver/Src/stm32h7xx_hal.c **** /**
 394:./Libraries/STM32H7xx_HAL_Driver/Src/stm32h7xx_hal.c ****   * @brief This function provides minimum delay (in milliseconds) based
 395:./Libraries/STM32H7xx_HAL_Driver/Src/stm32h7xx_hal.c ****   *        on variable incremented.
 396:./Libraries/STM32H7xx_HAL_Driver/Src/stm32h7xx_hal.c ****   * @note In the default implementation , SysTick timer is the source of time base.
 397:./Libraries/STM32H7xx_HAL_Driver/Src/stm32h7xx_hal.c ****   *       It is used to generate interrupts at regular time intervals where uwTick
 398:./Libraries/STM32H7xx_HAL_Driver/Src/stm32h7xx_hal.c ****   *       is incremented.
 399:./Libraries/STM32H7xx_HAL_Driver/Src/stm32h7xx_hal.c ****   * @note This function is declared as __weak to be overwritten in case of other
 400:./Libraries/STM32H7xx_HAL_Driver/Src/stm32h7xx_hal.c ****   *       implementations in user file.
 401:./Libraries/STM32H7xx_HAL_Driver/Src/stm32h7xx_hal.c ****   * @param Delay  specifies the delay time length, in milliseconds.
 402:./Libraries/STM32H7xx_HAL_Driver/Src/stm32h7xx_hal.c ****   * @retval None
 403:./Libraries/STM32H7xx_HAL_Driver/Src/stm32h7xx_hal.c ****   */
 404:./Libraries/STM32H7xx_HAL_Driver/Src/stm32h7xx_hal.c **** __weak void HAL_Delay(uint32_t Delay)
 405:./Libraries/STM32H7xx_HAL_Driver/Src/stm32h7xx_hal.c **** {
 573              		.loc 1 405 1 is_stmt 1 view -0
 574              		.cfi_startproc
 575              		@ args = 0, pretend = 0, frame = 0
 576              		@ frame_needed = 0, uses_anonymous_args = 0
 406:./Libraries/STM32H7xx_HAL_Driver/Src/stm32h7xx_hal.c ****   uint32_t tickstart = HAL_GetTick();
 577              		.loc 1 406 3 view .LVU146
 405:./Libraries/STM32H7xx_HAL_Driver/Src/stm32h7xx_hal.c ****   uint32_t tickstart = HAL_GetTick();
 578              		.loc 1 405 1 is_stmt 0 view .LVU147
 579 0000 38B5     		push	{r3, r4, r5, lr}
 580              	.LCFI4:
 581              		.cfi_def_cfa_offset 16
 582              		.cfi_offset 3, -16
 583              		.cfi_offset 4, -12
 584              		.cfi_offset 5, -8
 585              		.cfi_offset 14, -4
 405:./Libraries/STM32H7xx_HAL_Driver/Src/stm32h7xx_hal.c ****   uint32_t tickstart = HAL_GetTick();
 586              		.loc 1 405 1 view .LVU148
 587 0002 0446     		mov	r4, r0
 588              		.loc 1 406 24 view .LVU149
 589 0004 FFF7FEFF 		bl	HAL_GetTick
 590              	.LVL22:
 591              		.loc 1 406 24 view .LVU150
 592 0008 0546     		mov	r5, r0
 593              	.LVL23:
ARM GAS  /tmp/ccHzGhIf.s 			page 20


 407:./Libraries/STM32H7xx_HAL_Driver/Src/stm32h7xx_hal.c ****   uint32_t wait = Delay;
 594              		.loc 1 407 3 is_stmt 1 view .LVU151
 408:./Libraries/STM32H7xx_HAL_Driver/Src/stm32h7xx_hal.c **** 
 409:./Libraries/STM32H7xx_HAL_Driver/Src/stm32h7xx_hal.c ****   /* Add a freq to guarantee minimum wait */
 410:./Libraries/STM32H7xx_HAL_Driver/Src/stm32h7xx_hal.c ****   if (wait < HAL_MAX_DELAY)
 595              		.loc 1 410 3 view .LVU152
 596              		.loc 1 410 6 is_stmt 0 view .LVU153
 597 000a 631C     		adds	r3, r4, #1
 598 000c 02D0     		beq	.L55
 411:./Libraries/STM32H7xx_HAL_Driver/Src/stm32h7xx_hal.c ****   {
 412:./Libraries/STM32H7xx_HAL_Driver/Src/stm32h7xx_hal.c ****     wait += (uint32_t)(uwTickFreq);
 599              		.loc 1 412 5 is_stmt 1 view .LVU154
 600              		.loc 1 412 13 is_stmt 0 view .LVU155
 601 000e 044B     		ldr	r3, .L61
 602 0010 1B78     		ldrb	r3, [r3]	@ zero_extendqisi2
 603              		.loc 1 412 10 view .LVU156
 604 0012 1C44     		add	r4, r4, r3
 605              	.LVL24:
 606              	.L55:
 413:./Libraries/STM32H7xx_HAL_Driver/Src/stm32h7xx_hal.c ****   }
 414:./Libraries/STM32H7xx_HAL_Driver/Src/stm32h7xx_hal.c **** 
 415:./Libraries/STM32H7xx_HAL_Driver/Src/stm32h7xx_hal.c ****   while ((HAL_GetTick() - tickstart) < wait)
 416:./Libraries/STM32H7xx_HAL_Driver/Src/stm32h7xx_hal.c ****   {
 417:./Libraries/STM32H7xx_HAL_Driver/Src/stm32h7xx_hal.c ****   }
 607              		.loc 1 417 3 is_stmt 1 discriminator 1 view .LVU157
 415:./Libraries/STM32H7xx_HAL_Driver/Src/stm32h7xx_hal.c ****   {
 608              		.loc 1 415 9 discriminator 1 view .LVU158
 415:./Libraries/STM32H7xx_HAL_Driver/Src/stm32h7xx_hal.c ****   {
 609              		.loc 1 415 11 is_stmt 0 discriminator 1 view .LVU159
 610 0014 FFF7FEFF 		bl	HAL_GetTick
 611              	.LVL25:
 415:./Libraries/STM32H7xx_HAL_Driver/Src/stm32h7xx_hal.c ****   {
 612              		.loc 1 415 25 discriminator 1 view .LVU160
 613 0018 431B     		subs	r3, r0, r5
 415:./Libraries/STM32H7xx_HAL_Driver/Src/stm32h7xx_hal.c ****   {
 614              		.loc 1 415 9 discriminator 1 view .LVU161
 615 001a A342     		cmp	r3, r4
 616 001c FAD3     		bcc	.L55
 418:./Libraries/STM32H7xx_HAL_Driver/Src/stm32h7xx_hal.c **** }
 617              		.loc 1 418 1 view .LVU162
 618 001e 38BD     		pop	{r3, r4, r5, pc}
 619              	.LVL26:
 620              	.L62:
 621              		.loc 1 418 1 view .LVU163
 622              		.align	2
 623              	.L61:
 624 0020 00000000 		.word	.LANCHOR0
 625              		.cfi_endproc
 626              	.LFE341:
 628              		.section	.text.HAL_SuspendTick,"ax",%progbits
 629              		.align	1
 630              		.p2align 2,,3
 631              		.weak	HAL_SuspendTick
 632              		.syntax unified
 633              		.thumb
 634              		.thumb_func
 635              		.fpu fpv5-d16
ARM GAS  /tmp/ccHzGhIf.s 			page 21


 637              	HAL_SuspendTick:
 638              	.LFB342:
 419:./Libraries/STM32H7xx_HAL_Driver/Src/stm32h7xx_hal.c **** 
 420:./Libraries/STM32H7xx_HAL_Driver/Src/stm32h7xx_hal.c **** /**
 421:./Libraries/STM32H7xx_HAL_Driver/Src/stm32h7xx_hal.c ****   * @brief Suspend Tick increment.
 422:./Libraries/STM32H7xx_HAL_Driver/Src/stm32h7xx_hal.c ****   * @note In the default implementation , SysTick timer is the source of time base. It is
 423:./Libraries/STM32H7xx_HAL_Driver/Src/stm32h7xx_hal.c ****   *       used to generate interrupts at regular time intervals. Once HAL_SuspendTick()
 424:./Libraries/STM32H7xx_HAL_Driver/Src/stm32h7xx_hal.c ****   *       is called, the the SysTick interrupt will be disabled and so Tick increment
 425:./Libraries/STM32H7xx_HAL_Driver/Src/stm32h7xx_hal.c ****   *       is suspended.
 426:./Libraries/STM32H7xx_HAL_Driver/Src/stm32h7xx_hal.c ****   * @note This function is declared as __weak to be overwritten in case of other
 427:./Libraries/STM32H7xx_HAL_Driver/Src/stm32h7xx_hal.c ****   *       implementations in user file.
 428:./Libraries/STM32H7xx_HAL_Driver/Src/stm32h7xx_hal.c ****   * @retval None
 429:./Libraries/STM32H7xx_HAL_Driver/Src/stm32h7xx_hal.c ****   */
 430:./Libraries/STM32H7xx_HAL_Driver/Src/stm32h7xx_hal.c **** __weak void HAL_SuspendTick(void)
 431:./Libraries/STM32H7xx_HAL_Driver/Src/stm32h7xx_hal.c **** {
 639              		.loc 1 431 1 is_stmt 1 view -0
 640              		.cfi_startproc
 641              		@ args = 0, pretend = 0, frame = 0
 642              		@ frame_needed = 0, uses_anonymous_args = 0
 643              		@ link register save eliminated.
 432:./Libraries/STM32H7xx_HAL_Driver/Src/stm32h7xx_hal.c ****   /* Disable SysTick Interrupt */
 433:./Libraries/STM32H7xx_HAL_Driver/Src/stm32h7xx_hal.c ****   SysTick->CTRL &= ~SysTick_CTRL_TICKINT_Msk;
 644              		.loc 1 433 3 view .LVU165
 645              		.loc 1 433 17 is_stmt 0 view .LVU166
 646 0000 024A     		ldr	r2, .L64
 647 0002 1368     		ldr	r3, [r2]
 648 0004 23F00203 		bic	r3, r3, #2
 649 0008 1360     		str	r3, [r2]
 434:./Libraries/STM32H7xx_HAL_Driver/Src/stm32h7xx_hal.c **** }
 650              		.loc 1 434 1 view .LVU167
 651 000a 7047     		bx	lr
 652              	.L65:
 653              		.align	2
 654              	.L64:
 655 000c 10E000E0 		.word	-536813552
 656              		.cfi_endproc
 657              	.LFE342:
 659              		.section	.text.HAL_ResumeTick,"ax",%progbits
 660              		.align	1
 661              		.p2align 2,,3
 662              		.weak	HAL_ResumeTick
 663              		.syntax unified
 664              		.thumb
 665              		.thumb_func
 666              		.fpu fpv5-d16
 668              	HAL_ResumeTick:
 669              	.LFB343:
 435:./Libraries/STM32H7xx_HAL_Driver/Src/stm32h7xx_hal.c **** 
 436:./Libraries/STM32H7xx_HAL_Driver/Src/stm32h7xx_hal.c **** /**
 437:./Libraries/STM32H7xx_HAL_Driver/Src/stm32h7xx_hal.c ****   * @brief Resume Tick increment.
 438:./Libraries/STM32H7xx_HAL_Driver/Src/stm32h7xx_hal.c ****   * @note In the default implementation , SysTick timer is the source of time base. It is
 439:./Libraries/STM32H7xx_HAL_Driver/Src/stm32h7xx_hal.c ****   *       used to generate interrupts at regular time intervals. Once HAL_ResumeTick()
 440:./Libraries/STM32H7xx_HAL_Driver/Src/stm32h7xx_hal.c ****   *       is called, the the SysTick interrupt will be enabled and so Tick increment
 441:./Libraries/STM32H7xx_HAL_Driver/Src/stm32h7xx_hal.c ****   *       is resumed.
 442:./Libraries/STM32H7xx_HAL_Driver/Src/stm32h7xx_hal.c ****   * @note This function is declared as __weak to be overwritten in case of other
 443:./Libraries/STM32H7xx_HAL_Driver/Src/stm32h7xx_hal.c ****   *       implementations in user file.
 444:./Libraries/STM32H7xx_HAL_Driver/Src/stm32h7xx_hal.c ****   * @retval None
ARM GAS  /tmp/ccHzGhIf.s 			page 22


 445:./Libraries/STM32H7xx_HAL_Driver/Src/stm32h7xx_hal.c ****   */
 446:./Libraries/STM32H7xx_HAL_Driver/Src/stm32h7xx_hal.c **** __weak void HAL_ResumeTick(void)
 447:./Libraries/STM32H7xx_HAL_Driver/Src/stm32h7xx_hal.c **** {
 670              		.loc 1 447 1 is_stmt 1 view -0
 671              		.cfi_startproc
 672              		@ args = 0, pretend = 0, frame = 0
 673              		@ frame_needed = 0, uses_anonymous_args = 0
 674              		@ link register save eliminated.
 448:./Libraries/STM32H7xx_HAL_Driver/Src/stm32h7xx_hal.c ****   /* Enable SysTick Interrupt */
 449:./Libraries/STM32H7xx_HAL_Driver/Src/stm32h7xx_hal.c ****   SysTick->CTRL  |= SysTick_CTRL_TICKINT_Msk;
 675              		.loc 1 449 3 view .LVU169
 676              		.loc 1 449 18 is_stmt 0 view .LVU170
 677 0000 024A     		ldr	r2, .L67
 678 0002 1368     		ldr	r3, [r2]
 679 0004 43F00203 		orr	r3, r3, #2
 680 0008 1360     		str	r3, [r2]
 450:./Libraries/STM32H7xx_HAL_Driver/Src/stm32h7xx_hal.c **** }
 681              		.loc 1 450 1 view .LVU171
 682 000a 7047     		bx	lr
 683              	.L68:
 684              		.align	2
 685              	.L67:
 686 000c 10E000E0 		.word	-536813552
 687              		.cfi_endproc
 688              	.LFE343:
 690              		.section	.text.HAL_GetHalVersion,"ax",%progbits
 691              		.align	1
 692              		.p2align 2,,3
 693              		.global	HAL_GetHalVersion
 694              		.syntax unified
 695              		.thumb
 696              		.thumb_func
 697              		.fpu fpv5-d16
 699              	HAL_GetHalVersion:
 700              	.LFB344:
 451:./Libraries/STM32H7xx_HAL_Driver/Src/stm32h7xx_hal.c **** 
 452:./Libraries/STM32H7xx_HAL_Driver/Src/stm32h7xx_hal.c **** /**
 453:./Libraries/STM32H7xx_HAL_Driver/Src/stm32h7xx_hal.c ****   * @brief  Returns the HAL revision
 454:./Libraries/STM32H7xx_HAL_Driver/Src/stm32h7xx_hal.c ****   * @retval version : 0xXYZR (8bits for each decimal, R for RC)
 455:./Libraries/STM32H7xx_HAL_Driver/Src/stm32h7xx_hal.c ****   */
 456:./Libraries/STM32H7xx_HAL_Driver/Src/stm32h7xx_hal.c **** uint32_t HAL_GetHalVersion(void)
 457:./Libraries/STM32H7xx_HAL_Driver/Src/stm32h7xx_hal.c **** {
 701              		.loc 1 457 1 is_stmt 1 view -0
 702              		.cfi_startproc
 703              		@ args = 0, pretend = 0, frame = 0
 704              		@ frame_needed = 0, uses_anonymous_args = 0
 705              		@ link register save eliminated.
 458:./Libraries/STM32H7xx_HAL_Driver/Src/stm32h7xx_hal.c ****  return __STM32H7xx_HAL_VERSION;
 706              		.loc 1 458 2 view .LVU173
 459:./Libraries/STM32H7xx_HAL_Driver/Src/stm32h7xx_hal.c **** }
 707              		.loc 1 459 1 is_stmt 0 view .LVU174
 708 0000 4FF08570 		mov	r0, #17432576
 709 0004 7047     		bx	lr
 710              		.cfi_endproc
 711              	.LFE344:
 713 0006 00BF     		.section	.text.HAL_GetREVID,"ax",%progbits
 714              		.align	1
ARM GAS  /tmp/ccHzGhIf.s 			page 23


 715              		.p2align 2,,3
 716              		.global	HAL_GetREVID
 717              		.syntax unified
 718              		.thumb
 719              		.thumb_func
 720              		.fpu fpv5-d16
 722              	HAL_GetREVID:
 723              	.LFB345:
 460:./Libraries/STM32H7xx_HAL_Driver/Src/stm32h7xx_hal.c **** 
 461:./Libraries/STM32H7xx_HAL_Driver/Src/stm32h7xx_hal.c **** /**
 462:./Libraries/STM32H7xx_HAL_Driver/Src/stm32h7xx_hal.c ****   * @brief  Returns the device revision identifier.
 463:./Libraries/STM32H7xx_HAL_Driver/Src/stm32h7xx_hal.c ****   * @retval Device revision identifier
 464:./Libraries/STM32H7xx_HAL_Driver/Src/stm32h7xx_hal.c ****   */
 465:./Libraries/STM32H7xx_HAL_Driver/Src/stm32h7xx_hal.c **** uint32_t HAL_GetREVID(void)
 466:./Libraries/STM32H7xx_HAL_Driver/Src/stm32h7xx_hal.c **** {
 724              		.loc 1 466 1 is_stmt 1 view -0
 725              		.cfi_startproc
 726              		@ args = 0, pretend = 0, frame = 0
 727              		@ frame_needed = 0, uses_anonymous_args = 0
 728              		@ link register save eliminated.
 467:./Libraries/STM32H7xx_HAL_Driver/Src/stm32h7xx_hal.c ****    return((DBGMCU->IDCODE) >> 16);
 729              		.loc 1 467 4 view .LVU176
 730              		.loc 1 467 18 is_stmt 0 view .LVU177
 731 0000 014B     		ldr	r3, .L71
 732 0002 1868     		ldr	r0, [r3]
 468:./Libraries/STM32H7xx_HAL_Driver/Src/stm32h7xx_hal.c **** }
 733              		.loc 1 468 1 view .LVU178
 734 0004 000C     		lsrs	r0, r0, #16
 735 0006 7047     		bx	lr
 736              	.L72:
 737              		.align	2
 738              	.L71:
 739 0008 0010005C 		.word	1543507968
 740              		.cfi_endproc
 741              	.LFE345:
 743              		.section	.text.HAL_GetDEVID,"ax",%progbits
 744              		.align	1
 745              		.p2align 2,,3
 746              		.global	HAL_GetDEVID
 747              		.syntax unified
 748              		.thumb
 749              		.thumb_func
 750              		.fpu fpv5-d16
 752              	HAL_GetDEVID:
 753              	.LFB346:
 469:./Libraries/STM32H7xx_HAL_Driver/Src/stm32h7xx_hal.c **** 
 470:./Libraries/STM32H7xx_HAL_Driver/Src/stm32h7xx_hal.c **** /**
 471:./Libraries/STM32H7xx_HAL_Driver/Src/stm32h7xx_hal.c ****   * @brief  Returns the device identifier.
 472:./Libraries/STM32H7xx_HAL_Driver/Src/stm32h7xx_hal.c ****   * @retval Device identifier
 473:./Libraries/STM32H7xx_HAL_Driver/Src/stm32h7xx_hal.c ****   */
 474:./Libraries/STM32H7xx_HAL_Driver/Src/stm32h7xx_hal.c **** uint32_t HAL_GetDEVID(void)
 475:./Libraries/STM32H7xx_HAL_Driver/Src/stm32h7xx_hal.c **** {
 754              		.loc 1 475 1 is_stmt 1 view -0
 755              		.cfi_startproc
 756              		@ args = 0, pretend = 0, frame = 0
 757              		@ frame_needed = 0, uses_anonymous_args = 0
 758              		@ link register save eliminated.
ARM GAS  /tmp/ccHzGhIf.s 			page 24


 476:./Libraries/STM32H7xx_HAL_Driver/Src/stm32h7xx_hal.c ****    return((DBGMCU->IDCODE) & IDCODE_DEVID_MASK);
 759              		.loc 1 476 4 view .LVU180
 760              		.loc 1 476 18 is_stmt 0 view .LVU181
 761 0000 024B     		ldr	r3, .L74
 762 0002 1868     		ldr	r0, [r3]
 477:./Libraries/STM32H7xx_HAL_Driver/Src/stm32h7xx_hal.c **** }
 763              		.loc 1 477 1 view .LVU182
 764 0004 C0F30B00 		ubfx	r0, r0, #0, #12
 765 0008 7047     		bx	lr
 766              	.L75:
 767 000a 00BF     		.align	2
 768              	.L74:
 769 000c 0010005C 		.word	1543507968
 770              		.cfi_endproc
 771              	.LFE346:
 773              		.section	.text.HAL_GetUIDw0,"ax",%progbits
 774              		.align	1
 775              		.p2align 2,,3
 776              		.global	HAL_GetUIDw0
 777              		.syntax unified
 778              		.thumb
 779              		.thumb_func
 780              		.fpu fpv5-d16
 782              	HAL_GetUIDw0:
 783              	.LFB347:
 478:./Libraries/STM32H7xx_HAL_Driver/Src/stm32h7xx_hal.c **** 
 479:./Libraries/STM32H7xx_HAL_Driver/Src/stm32h7xx_hal.c **** /**
 480:./Libraries/STM32H7xx_HAL_Driver/Src/stm32h7xx_hal.c ****   * @brief  Return the first word of the unique device identifier (UID based on 96 bits)
 481:./Libraries/STM32H7xx_HAL_Driver/Src/stm32h7xx_hal.c ****   * @retval Device identifier
 482:./Libraries/STM32H7xx_HAL_Driver/Src/stm32h7xx_hal.c ****   */
 483:./Libraries/STM32H7xx_HAL_Driver/Src/stm32h7xx_hal.c **** uint32_t HAL_GetUIDw0(void)
 484:./Libraries/STM32H7xx_HAL_Driver/Src/stm32h7xx_hal.c **** {
 784              		.loc 1 484 1 is_stmt 1 view -0
 785              		.cfi_startproc
 786              		@ args = 0, pretend = 0, frame = 0
 787              		@ frame_needed = 0, uses_anonymous_args = 0
 788              		@ link register save eliminated.
 485:./Libraries/STM32H7xx_HAL_Driver/Src/stm32h7xx_hal.c ****   return(READ_REG(*((uint32_t *)UID_BASE)));
 789              		.loc 1 485 3 view .LVU184
 790              		.loc 1 485 10 is_stmt 0 view .LVU185
 791 0000 014B     		ldr	r3, .L77
 486:./Libraries/STM32H7xx_HAL_Driver/Src/stm32h7xx_hal.c **** }
 792              		.loc 1 486 1 view .LVU186
 793 0002 1868     		ldr	r0, [r3]
 794 0004 7047     		bx	lr
 795              	.L78:
 796 0006 00BF     		.align	2
 797              	.L77:
 798 0008 00E8F11F 		.word	535947264
 799              		.cfi_endproc
 800              	.LFE347:
 802              		.section	.text.HAL_GetUIDw1,"ax",%progbits
 803              		.align	1
 804              		.p2align 2,,3
 805              		.global	HAL_GetUIDw1
 806              		.syntax unified
 807              		.thumb
ARM GAS  /tmp/ccHzGhIf.s 			page 25


 808              		.thumb_func
 809              		.fpu fpv5-d16
 811              	HAL_GetUIDw1:
 812              	.LFB348:
 487:./Libraries/STM32H7xx_HAL_Driver/Src/stm32h7xx_hal.c **** 
 488:./Libraries/STM32H7xx_HAL_Driver/Src/stm32h7xx_hal.c **** /**
 489:./Libraries/STM32H7xx_HAL_Driver/Src/stm32h7xx_hal.c ****   * @brief  Return the second word of the unique device identifier (UID based on 96 bits)
 490:./Libraries/STM32H7xx_HAL_Driver/Src/stm32h7xx_hal.c ****   * @retval Device identifier
 491:./Libraries/STM32H7xx_HAL_Driver/Src/stm32h7xx_hal.c ****   */
 492:./Libraries/STM32H7xx_HAL_Driver/Src/stm32h7xx_hal.c **** uint32_t HAL_GetUIDw1(void)
 493:./Libraries/STM32H7xx_HAL_Driver/Src/stm32h7xx_hal.c **** {
 813              		.loc 1 493 1 is_stmt 1 view -0
 814              		.cfi_startproc
 815              		@ args = 0, pretend = 0, frame = 0
 816              		@ frame_needed = 0, uses_anonymous_args = 0
 817              		@ link register save eliminated.
 494:./Libraries/STM32H7xx_HAL_Driver/Src/stm32h7xx_hal.c ****   return(READ_REG(*((uint32_t *)(UID_BASE + 4U))));
 818              		.loc 1 494 3 view .LVU188
 819              		.loc 1 494 10 is_stmt 0 view .LVU189
 820 0000 014B     		ldr	r3, .L80
 495:./Libraries/STM32H7xx_HAL_Driver/Src/stm32h7xx_hal.c **** }
 821              		.loc 1 495 1 view .LVU190
 822 0002 1868     		ldr	r0, [r3]
 823 0004 7047     		bx	lr
 824              	.L81:
 825 0006 00BF     		.align	2
 826              	.L80:
 827 0008 04E8F11F 		.word	535947268
 828              		.cfi_endproc
 829              	.LFE348:
 831              		.section	.text.HAL_GetUIDw2,"ax",%progbits
 832              		.align	1
 833              		.p2align 2,,3
 834              		.global	HAL_GetUIDw2
 835              		.syntax unified
 836              		.thumb
 837              		.thumb_func
 838              		.fpu fpv5-d16
 840              	HAL_GetUIDw2:
 841              	.LFB349:
 496:./Libraries/STM32H7xx_HAL_Driver/Src/stm32h7xx_hal.c **** 
 497:./Libraries/STM32H7xx_HAL_Driver/Src/stm32h7xx_hal.c **** /**
 498:./Libraries/STM32H7xx_HAL_Driver/Src/stm32h7xx_hal.c ****   * @brief  Return the third word of the unique device identifier (UID based on 96 bits)
 499:./Libraries/STM32H7xx_HAL_Driver/Src/stm32h7xx_hal.c ****   * @retval Device identifier
 500:./Libraries/STM32H7xx_HAL_Driver/Src/stm32h7xx_hal.c ****   */
 501:./Libraries/STM32H7xx_HAL_Driver/Src/stm32h7xx_hal.c **** uint32_t HAL_GetUIDw2(void)
 502:./Libraries/STM32H7xx_HAL_Driver/Src/stm32h7xx_hal.c **** {
 842              		.loc 1 502 1 is_stmt 1 view -0
 843              		.cfi_startproc
 844              		@ args = 0, pretend = 0, frame = 0
 845              		@ frame_needed = 0, uses_anonymous_args = 0
 846              		@ link register save eliminated.
 503:./Libraries/STM32H7xx_HAL_Driver/Src/stm32h7xx_hal.c ****   return(READ_REG(*((uint32_t *)(UID_BASE + 8U))));
 847              		.loc 1 503 3 view .LVU192
 848              		.loc 1 503 10 is_stmt 0 view .LVU193
 849 0000 014B     		ldr	r3, .L83
 504:./Libraries/STM32H7xx_HAL_Driver/Src/stm32h7xx_hal.c **** }
ARM GAS  /tmp/ccHzGhIf.s 			page 26


 850              		.loc 1 504 1 view .LVU194
 851 0002 1868     		ldr	r0, [r3]
 852 0004 7047     		bx	lr
 853              	.L84:
 854 0006 00BF     		.align	2
 855              	.L83:
 856 0008 08E8F11F 		.word	535947272
 857              		.cfi_endproc
 858              	.LFE349:
 860              		.section	.text.HAL_SYSCFG_VREFBUF_VoltageScalingConfig,"ax",%progbits
 861              		.align	1
 862              		.p2align 2,,3
 863              		.global	HAL_SYSCFG_VREFBUF_VoltageScalingConfig
 864              		.syntax unified
 865              		.thumb
 866              		.thumb_func
 867              		.fpu fpv5-d16
 869              	HAL_SYSCFG_VREFBUF_VoltageScalingConfig:
 870              	.LVL27:
 871              	.LFB350:
 505:./Libraries/STM32H7xx_HAL_Driver/Src/stm32h7xx_hal.c **** 
 506:./Libraries/STM32H7xx_HAL_Driver/Src/stm32h7xx_hal.c **** /**
 507:./Libraries/STM32H7xx_HAL_Driver/Src/stm32h7xx_hal.c ****   * @brief Configure the internal voltage reference buffer voltage scale.
 508:./Libraries/STM32H7xx_HAL_Driver/Src/stm32h7xx_hal.c ****   * @param VoltageScaling  specifies the output voltage to achieve
 509:./Libraries/STM32H7xx_HAL_Driver/Src/stm32h7xx_hal.c ****   *          This parameter can be one of the following values:
 510:./Libraries/STM32H7xx_HAL_Driver/Src/stm32h7xx_hal.c ****   *            @arg SYSCFG_VREFBUF_VOLTAGE_SCALE0: VREF_OUT1 around 2.5 V.
 511:./Libraries/STM32H7xx_HAL_Driver/Src/stm32h7xx_hal.c ****   *                                                This requires VDDA equal to or higher than 2.8 V
 512:./Libraries/STM32H7xx_HAL_Driver/Src/stm32h7xx_hal.c ****   *            @arg SYSCFG_VREFBUF_VOLTAGE_SCALE1: VREF_OUT2 around 2.048 V.
 513:./Libraries/STM32H7xx_HAL_Driver/Src/stm32h7xx_hal.c ****   *                                                This requires VDDA equal to or higher than 2.4 V
 514:./Libraries/STM32H7xx_HAL_Driver/Src/stm32h7xx_hal.c ****   *            @arg SYSCFG_VREFBUF_VOLTAGE_SCALE2: VREF_OUT3 around 1.8 V.
 515:./Libraries/STM32H7xx_HAL_Driver/Src/stm32h7xx_hal.c ****   *                                                This requires VDDA equal to or higher than 2.1 V
 516:./Libraries/STM32H7xx_HAL_Driver/Src/stm32h7xx_hal.c ****   *            @arg SYSCFG_VREFBUF_VOLTAGE_SCALE3: VREF_OUT4 around 1.5 V.
 517:./Libraries/STM32H7xx_HAL_Driver/Src/stm32h7xx_hal.c ****   *                                                This requires VDDA equal to or higher than 1.8 V
 518:./Libraries/STM32H7xx_HAL_Driver/Src/stm32h7xx_hal.c ****   * @retval None
 519:./Libraries/STM32H7xx_HAL_Driver/Src/stm32h7xx_hal.c ****   */
 520:./Libraries/STM32H7xx_HAL_Driver/Src/stm32h7xx_hal.c **** void HAL_SYSCFG_VREFBUF_VoltageScalingConfig(uint32_t VoltageScaling)
 521:./Libraries/STM32H7xx_HAL_Driver/Src/stm32h7xx_hal.c **** {
 872              		.loc 1 521 1 is_stmt 1 view -0
 873              		.cfi_startproc
 874              		@ args = 0, pretend = 0, frame = 0
 875              		@ frame_needed = 0, uses_anonymous_args = 0
 876              		@ link register save eliminated.
 522:./Libraries/STM32H7xx_HAL_Driver/Src/stm32h7xx_hal.c ****   /* Check the parameters */
 523:./Libraries/STM32H7xx_HAL_Driver/Src/stm32h7xx_hal.c ****   assert_param(IS_SYSCFG_VREFBUF_VOLTAGE_SCALE(VoltageScaling));
 877              		.loc 1 523 3 view .LVU196
 524:./Libraries/STM32H7xx_HAL_Driver/Src/stm32h7xx_hal.c **** 
 525:./Libraries/STM32H7xx_HAL_Driver/Src/stm32h7xx_hal.c ****   MODIFY_REG(VREFBUF->CSR, VREFBUF_CSR_VRS, VoltageScaling);
 878              		.loc 1 525 3 view .LVU197
 879 0000 034A     		ldr	r2, .L86
 880 0002 1368     		ldr	r3, [r2]
 881 0004 23F07003 		bic	r3, r3, #112
 882 0008 1843     		orrs	r0, r0, r3
 883              	.LVL28:
 884              		.loc 1 525 3 is_stmt 0 view .LVU198
 885 000a 1060     		str	r0, [r2]
 526:./Libraries/STM32H7xx_HAL_Driver/Src/stm32h7xx_hal.c **** }
 886              		.loc 1 526 1 view .LVU199
ARM GAS  /tmp/ccHzGhIf.s 			page 27


 887 000c 7047     		bx	lr
 888              	.L87:
 889 000e 00BF     		.align	2
 890              	.L86:
 891 0010 003C0058 		.word	1476410368
 892              		.cfi_endproc
 893              	.LFE350:
 895              		.section	.text.HAL_SYSCFG_VREFBUF_HighImpedanceConfig,"ax",%progbits
 896              		.align	1
 897              		.p2align 2,,3
 898              		.global	HAL_SYSCFG_VREFBUF_HighImpedanceConfig
 899              		.syntax unified
 900              		.thumb
 901              		.thumb_func
 902              		.fpu fpv5-d16
 904              	HAL_SYSCFG_VREFBUF_HighImpedanceConfig:
 905              	.LVL29:
 906              	.LFB351:
 527:./Libraries/STM32H7xx_HAL_Driver/Src/stm32h7xx_hal.c **** 
 528:./Libraries/STM32H7xx_HAL_Driver/Src/stm32h7xx_hal.c **** /**
 529:./Libraries/STM32H7xx_HAL_Driver/Src/stm32h7xx_hal.c ****   * @brief Configure the internal voltage reference buffer high impedance mode.
 530:./Libraries/STM32H7xx_HAL_Driver/Src/stm32h7xx_hal.c ****   * @param Mode  specifies the high impedance mode
 531:./Libraries/STM32H7xx_HAL_Driver/Src/stm32h7xx_hal.c ****   *          This parameter can be one of the following values:
 532:./Libraries/STM32H7xx_HAL_Driver/Src/stm32h7xx_hal.c ****   *            @arg SYSCFG_VREFBUF_HIGH_IMPEDANCE_DISABLE: VREF+ pin is internally connect to VREFI
 533:./Libraries/STM32H7xx_HAL_Driver/Src/stm32h7xx_hal.c ****   *            @arg SYSCFG_VREFBUF_HIGH_IMPEDANCE_ENABLE: VREF+ pin is high impedance.
 534:./Libraries/STM32H7xx_HAL_Driver/Src/stm32h7xx_hal.c ****   * @retval None
 535:./Libraries/STM32H7xx_HAL_Driver/Src/stm32h7xx_hal.c ****   */
 536:./Libraries/STM32H7xx_HAL_Driver/Src/stm32h7xx_hal.c **** void HAL_SYSCFG_VREFBUF_HighImpedanceConfig(uint32_t Mode)
 537:./Libraries/STM32H7xx_HAL_Driver/Src/stm32h7xx_hal.c **** {
 907              		.loc 1 537 1 is_stmt 1 view -0
 908              		.cfi_startproc
 909              		@ args = 0, pretend = 0, frame = 0
 910              		@ frame_needed = 0, uses_anonymous_args = 0
 911              		@ link register save eliminated.
 538:./Libraries/STM32H7xx_HAL_Driver/Src/stm32h7xx_hal.c ****   /* Check the parameters */
 539:./Libraries/STM32H7xx_HAL_Driver/Src/stm32h7xx_hal.c ****   assert_param(IS_SYSCFG_VREFBUF_HIGH_IMPEDANCE(Mode));
 912              		.loc 1 539 3 view .LVU201
 540:./Libraries/STM32H7xx_HAL_Driver/Src/stm32h7xx_hal.c **** 
 541:./Libraries/STM32H7xx_HAL_Driver/Src/stm32h7xx_hal.c ****   MODIFY_REG(VREFBUF->CSR, VREFBUF_CSR_HIZ, Mode);
 913              		.loc 1 541 3 view .LVU202
 914 0000 034A     		ldr	r2, .L89
 915 0002 1368     		ldr	r3, [r2]
 916 0004 23F00203 		bic	r3, r3, #2
 917 0008 1843     		orrs	r0, r0, r3
 918              	.LVL30:
 919              		.loc 1 541 3 is_stmt 0 view .LVU203
 920 000a 1060     		str	r0, [r2]
 542:./Libraries/STM32H7xx_HAL_Driver/Src/stm32h7xx_hal.c **** }
 921              		.loc 1 542 1 view .LVU204
 922 000c 7047     		bx	lr
 923              	.L90:
 924 000e 00BF     		.align	2
 925              	.L89:
 926 0010 003C0058 		.word	1476410368
 927              		.cfi_endproc
 928              	.LFE351:
 930              		.section	.text.HAL_SYSCFG_VREFBUF_TrimmingConfig,"ax",%progbits
ARM GAS  /tmp/ccHzGhIf.s 			page 28


 931              		.align	1
 932              		.p2align 2,,3
 933              		.global	HAL_SYSCFG_VREFBUF_TrimmingConfig
 934              		.syntax unified
 935              		.thumb
 936              		.thumb_func
 937              		.fpu fpv5-d16
 939              	HAL_SYSCFG_VREFBUF_TrimmingConfig:
 940              	.LVL31:
 941              	.LFB352:
 543:./Libraries/STM32H7xx_HAL_Driver/Src/stm32h7xx_hal.c **** 
 544:./Libraries/STM32H7xx_HAL_Driver/Src/stm32h7xx_hal.c **** /**
 545:./Libraries/STM32H7xx_HAL_Driver/Src/stm32h7xx_hal.c ****   * @brief  Tune the Internal Voltage Reference buffer (VREFBUF).
 546:./Libraries/STM32H7xx_HAL_Driver/Src/stm32h7xx_hal.c ****   * @retval None
 547:./Libraries/STM32H7xx_HAL_Driver/Src/stm32h7xx_hal.c ****   */
 548:./Libraries/STM32H7xx_HAL_Driver/Src/stm32h7xx_hal.c **** void HAL_SYSCFG_VREFBUF_TrimmingConfig(uint32_t TrimmingValue)
 549:./Libraries/STM32H7xx_HAL_Driver/Src/stm32h7xx_hal.c **** {
 942              		.loc 1 549 1 is_stmt 1 view -0
 943              		.cfi_startproc
 944              		@ args = 0, pretend = 0, frame = 0
 945              		@ frame_needed = 0, uses_anonymous_args = 0
 946              		@ link register save eliminated.
 550:./Libraries/STM32H7xx_HAL_Driver/Src/stm32h7xx_hal.c ****   /* Check the parameters */
 551:./Libraries/STM32H7xx_HAL_Driver/Src/stm32h7xx_hal.c ****   assert_param(IS_SYSCFG_VREFBUF_TRIMMING(TrimmingValue));
 947              		.loc 1 551 3 view .LVU206
 552:./Libraries/STM32H7xx_HAL_Driver/Src/stm32h7xx_hal.c **** 
 553:./Libraries/STM32H7xx_HAL_Driver/Src/stm32h7xx_hal.c ****   MODIFY_REG(VREFBUF->CCR, VREFBUF_CCR_TRIM, TrimmingValue);
 948              		.loc 1 553 3 view .LVU207
 949 0000 034A     		ldr	r2, .L92
 950 0002 5368     		ldr	r3, [r2, #4]
 951 0004 23F03F03 		bic	r3, r3, #63
 952 0008 1843     		orrs	r0, r0, r3
 953              	.LVL32:
 954              		.loc 1 553 3 is_stmt 0 view .LVU208
 955 000a 5060     		str	r0, [r2, #4]
 554:./Libraries/STM32H7xx_HAL_Driver/Src/stm32h7xx_hal.c **** }
 956              		.loc 1 554 1 view .LVU209
 957 000c 7047     		bx	lr
 958              	.L93:
 959 000e 00BF     		.align	2
 960              	.L92:
 961 0010 003C0058 		.word	1476410368
 962              		.cfi_endproc
 963              	.LFE352:
 965              		.section	.text.HAL_SYSCFG_EnableVREFBUF,"ax",%progbits
 966              		.align	1
 967              		.p2align 2,,3
 968              		.global	HAL_SYSCFG_EnableVREFBUF
 969              		.syntax unified
 970              		.thumb
 971              		.thumb_func
 972              		.fpu fpv5-d16
 974              	HAL_SYSCFG_EnableVREFBUF:
 975              	.LFB353:
 555:./Libraries/STM32H7xx_HAL_Driver/Src/stm32h7xx_hal.c **** 
 556:./Libraries/STM32H7xx_HAL_Driver/Src/stm32h7xx_hal.c **** /**
 557:./Libraries/STM32H7xx_HAL_Driver/Src/stm32h7xx_hal.c ****   * @brief  Enable the Internal Voltage Reference buffer (VREFBUF).
ARM GAS  /tmp/ccHzGhIf.s 			page 29


 558:./Libraries/STM32H7xx_HAL_Driver/Src/stm32h7xx_hal.c ****   * @retval HAL_OK/HAL_TIMEOUT
 559:./Libraries/STM32H7xx_HAL_Driver/Src/stm32h7xx_hal.c ****   */
 560:./Libraries/STM32H7xx_HAL_Driver/Src/stm32h7xx_hal.c **** HAL_StatusTypeDef HAL_SYSCFG_EnableVREFBUF(void)
 561:./Libraries/STM32H7xx_HAL_Driver/Src/stm32h7xx_hal.c **** {
 976              		.loc 1 561 1 is_stmt 1 view -0
 977              		.cfi_startproc
 978              		@ args = 0, pretend = 0, frame = 0
 979              		@ frame_needed = 0, uses_anonymous_args = 0
 562:./Libraries/STM32H7xx_HAL_Driver/Src/stm32h7xx_hal.c ****   uint32_t  tickstart;
 980              		.loc 1 562 3 view .LVU211
 563:./Libraries/STM32H7xx_HAL_Driver/Src/stm32h7xx_hal.c **** 
 564:./Libraries/STM32H7xx_HAL_Driver/Src/stm32h7xx_hal.c ****   SET_BIT(VREFBUF->CSR, VREFBUF_CSR_ENVR);
 981              		.loc 1 564 3 view .LVU212
 561:./Libraries/STM32H7xx_HAL_Driver/Src/stm32h7xx_hal.c ****   uint32_t  tickstart;
 982              		.loc 1 561 1 is_stmt 0 view .LVU213
 983 0000 38B5     		push	{r3, r4, r5, lr}
 984              	.LCFI5:
 985              		.cfi_def_cfa_offset 16
 986              		.cfi_offset 3, -16
 987              		.cfi_offset 4, -12
 988              		.cfi_offset 5, -8
 989              		.cfi_offset 14, -4
 990              		.loc 1 564 3 view .LVU214
 991 0002 0B4B     		ldr	r3, .L100
 992 0004 1A68     		ldr	r2, [r3]
 565:./Libraries/STM32H7xx_HAL_Driver/Src/stm32h7xx_hal.c **** 
 566:./Libraries/STM32H7xx_HAL_Driver/Src/stm32h7xx_hal.c ****   /* Get Start Tick*/
 567:./Libraries/STM32H7xx_HAL_Driver/Src/stm32h7xx_hal.c ****   tickstart = HAL_GetTick();
 568:./Libraries/STM32H7xx_HAL_Driver/Src/stm32h7xx_hal.c **** 
 569:./Libraries/STM32H7xx_HAL_Driver/Src/stm32h7xx_hal.c ****   /* Wait for VRR bit  */
 570:./Libraries/STM32H7xx_HAL_Driver/Src/stm32h7xx_hal.c ****   while(READ_BIT(VREFBUF->CSR, VREFBUF_CSR_VRR) == 0UL)
 993              		.loc 1 570 9 view .LVU215
 994 0006 1D46     		mov	r5, r3
 564:./Libraries/STM32H7xx_HAL_Driver/Src/stm32h7xx_hal.c **** 
 995              		.loc 1 564 3 view .LVU216
 996 0008 42F00102 		orr	r2, r2, #1
 997 000c 1A60     		str	r2, [r3]
 567:./Libraries/STM32H7xx_HAL_Driver/Src/stm32h7xx_hal.c **** 
 998              		.loc 1 567 3 is_stmt 1 view .LVU217
 567:./Libraries/STM32H7xx_HAL_Driver/Src/stm32h7xx_hal.c **** 
 999              		.loc 1 567 15 is_stmt 0 view .LVU218
 1000 000e FFF7FEFF 		bl	HAL_GetTick
 1001              	.LVL33:
 1002 0012 0446     		mov	r4, r0
 1003              	.LVL34:
 1004              		.loc 1 570 3 is_stmt 1 view .LVU219
 1005              		.loc 1 570 8 is_stmt 0 view .LVU220
 1006 0014 04E0     		b	.L95
 1007              	.LVL35:
 1008              	.L97:
 571:./Libraries/STM32H7xx_HAL_Driver/Src/stm32h7xx_hal.c ****   {
 572:./Libraries/STM32H7xx_HAL_Driver/Src/stm32h7xx_hal.c ****     if((HAL_GetTick() - tickstart) > VREFBUF_TIMEOUT_VALUE)
 1009              		.loc 1 572 9 view .LVU221
 1010 0016 FFF7FEFF 		bl	HAL_GetTick
 1011              	.LVL36:
 1012              		.loc 1 572 23 view .LVU222
 1013 001a 001B     		subs	r0, r0, r4
ARM GAS  /tmp/ccHzGhIf.s 			page 30


 1014              		.loc 1 572 7 view .LVU223
 1015 001c 0A28     		cmp	r0, #10
 1016 001e 04D8     		bhi	.L98
 1017              	.L95:
 1018              		.loc 1 572 5 is_stmt 1 view .LVU224
 570:./Libraries/STM32H7xx_HAL_Driver/Src/stm32h7xx_hal.c ****   {
 1019              		.loc 1 570 8 view .LVU225
 570:./Libraries/STM32H7xx_HAL_Driver/Src/stm32h7xx_hal.c ****   {
 1020              		.loc 1 570 9 is_stmt 0 view .LVU226
 1021 0020 2B68     		ldr	r3, [r5]
 570:./Libraries/STM32H7xx_HAL_Driver/Src/stm32h7xx_hal.c ****   {
 1022              		.loc 1 570 8 view .LVU227
 1023 0022 1B07     		lsls	r3, r3, #28
 1024 0024 F7D5     		bpl	.L97
 573:./Libraries/STM32H7xx_HAL_Driver/Src/stm32h7xx_hal.c ****     {
 574:./Libraries/STM32H7xx_HAL_Driver/Src/stm32h7xx_hal.c ****       return HAL_TIMEOUT;
 575:./Libraries/STM32H7xx_HAL_Driver/Src/stm32h7xx_hal.c ****     }
 576:./Libraries/STM32H7xx_HAL_Driver/Src/stm32h7xx_hal.c ****   }
 577:./Libraries/STM32H7xx_HAL_Driver/Src/stm32h7xx_hal.c **** 
 578:./Libraries/STM32H7xx_HAL_Driver/Src/stm32h7xx_hal.c ****   return HAL_OK;
 1025              		.loc 1 578 10 view .LVU228
 1026 0026 0020     		movs	r0, #0
 579:./Libraries/STM32H7xx_HAL_Driver/Src/stm32h7xx_hal.c **** }
 1027              		.loc 1 579 1 view .LVU229
 1028 0028 38BD     		pop	{r3, r4, r5, pc}
 1029              	.LVL37:
 1030              	.L98:
 574:./Libraries/STM32H7xx_HAL_Driver/Src/stm32h7xx_hal.c ****     }
 1031              		.loc 1 574 14 view .LVU230
 1032 002a 0320     		movs	r0, #3
 1033              		.loc 1 579 1 view .LVU231
 1034 002c 38BD     		pop	{r3, r4, r5, pc}
 1035              	.LVL38:
 1036              	.L101:
 1037              		.loc 1 579 1 view .LVU232
 1038 002e 00BF     		.align	2
 1039              	.L100:
 1040 0030 003C0058 		.word	1476410368
 1041              		.cfi_endproc
 1042              	.LFE353:
 1044              		.section	.text.HAL_SYSCFG_DisableVREFBUF,"ax",%progbits
 1045              		.align	1
 1046              		.p2align 2,,3
 1047              		.global	HAL_SYSCFG_DisableVREFBUF
 1048              		.syntax unified
 1049              		.thumb
 1050              		.thumb_func
 1051              		.fpu fpv5-d16
 1053              	HAL_SYSCFG_DisableVREFBUF:
 1054              	.LFB354:
 580:./Libraries/STM32H7xx_HAL_Driver/Src/stm32h7xx_hal.c **** 
 581:./Libraries/STM32H7xx_HAL_Driver/Src/stm32h7xx_hal.c **** /**
 582:./Libraries/STM32H7xx_HAL_Driver/Src/stm32h7xx_hal.c ****   * @brief  Disable the Internal Voltage Reference buffer (VREFBUF).
 583:./Libraries/STM32H7xx_HAL_Driver/Src/stm32h7xx_hal.c ****   *
 584:./Libraries/STM32H7xx_HAL_Driver/Src/stm32h7xx_hal.c ****   * @retval None
 585:./Libraries/STM32H7xx_HAL_Driver/Src/stm32h7xx_hal.c ****   */
 586:./Libraries/STM32H7xx_HAL_Driver/Src/stm32h7xx_hal.c **** void HAL_SYSCFG_DisableVREFBUF(void)
ARM GAS  /tmp/ccHzGhIf.s 			page 31


 587:./Libraries/STM32H7xx_HAL_Driver/Src/stm32h7xx_hal.c **** {
 1055              		.loc 1 587 1 is_stmt 1 view -0
 1056              		.cfi_startproc
 1057              		@ args = 0, pretend = 0, frame = 0
 1058              		@ frame_needed = 0, uses_anonymous_args = 0
 1059              		@ link register save eliminated.
 588:./Libraries/STM32H7xx_HAL_Driver/Src/stm32h7xx_hal.c ****   CLEAR_BIT(VREFBUF->CSR, VREFBUF_CSR_ENVR);
 1060              		.loc 1 588 3 view .LVU234
 1061 0000 024A     		ldr	r2, .L103
 1062 0002 1368     		ldr	r3, [r2]
 1063 0004 23F00103 		bic	r3, r3, #1
 1064 0008 1360     		str	r3, [r2]
 589:./Libraries/STM32H7xx_HAL_Driver/Src/stm32h7xx_hal.c **** }
 1065              		.loc 1 589 1 is_stmt 0 view .LVU235
 1066 000a 7047     		bx	lr
 1067              	.L104:
 1068              		.align	2
 1069              	.L103:
 1070 000c 003C0058 		.word	1476410368
 1071              		.cfi_endproc
 1072              	.LFE354:
 1074              		.section	.text.HAL_SYSCFG_ETHInterfaceSelect,"ax",%progbits
 1075              		.align	1
 1076              		.p2align 2,,3
 1077              		.global	HAL_SYSCFG_ETHInterfaceSelect
 1078              		.syntax unified
 1079              		.thumb
 1080              		.thumb_func
 1081              		.fpu fpv5-d16
 1083              	HAL_SYSCFG_ETHInterfaceSelect:
 1084              	.LVL39:
 1085              	.LFB355:
 590:./Libraries/STM32H7xx_HAL_Driver/Src/stm32h7xx_hal.c **** 
 591:./Libraries/STM32H7xx_HAL_Driver/Src/stm32h7xx_hal.c **** #if defined(SYSCFG_PMCR_EPIS_SEL)
 592:./Libraries/STM32H7xx_HAL_Driver/Src/stm32h7xx_hal.c **** /**
 593:./Libraries/STM32H7xx_HAL_Driver/Src/stm32h7xx_hal.c ****   * @brief  Ethernet PHY Interface Selection either MII or RMII
 594:./Libraries/STM32H7xx_HAL_Driver/Src/stm32h7xx_hal.c ****   * @param  SYSCFG_ETHInterface: Selects the Ethernet PHY interface
 595:./Libraries/STM32H7xx_HAL_Driver/Src/stm32h7xx_hal.c ****   *   This parameter can be one of the following values:
 596:./Libraries/STM32H7xx_HAL_Driver/Src/stm32h7xx_hal.c ****   *   @arg SYSCFG_ETH_MII : Select the Media Independent Interface
 597:./Libraries/STM32H7xx_HAL_Driver/Src/stm32h7xx_hal.c ****   *   @arg SYSCFG_ETH_RMII: Select the Reduced Media Independent Interface
 598:./Libraries/STM32H7xx_HAL_Driver/Src/stm32h7xx_hal.c ****   * @retval None
 599:./Libraries/STM32H7xx_HAL_Driver/Src/stm32h7xx_hal.c ****   */
 600:./Libraries/STM32H7xx_HAL_Driver/Src/stm32h7xx_hal.c **** void HAL_SYSCFG_ETHInterfaceSelect(uint32_t SYSCFG_ETHInterface)
 601:./Libraries/STM32H7xx_HAL_Driver/Src/stm32h7xx_hal.c **** {
 1086              		.loc 1 601 1 is_stmt 1 view -0
 1087              		.cfi_startproc
 1088              		@ args = 0, pretend = 0, frame = 0
 1089              		@ frame_needed = 0, uses_anonymous_args = 0
 1090              		@ link register save eliminated.
 602:./Libraries/STM32H7xx_HAL_Driver/Src/stm32h7xx_hal.c ****   /* Check the parameter */
 603:./Libraries/STM32H7xx_HAL_Driver/Src/stm32h7xx_hal.c ****   assert_param(IS_SYSCFG_ETHERNET_CONFIG(SYSCFG_ETHInterface));
 1091              		.loc 1 603 3 view .LVU237
 604:./Libraries/STM32H7xx_HAL_Driver/Src/stm32h7xx_hal.c **** 
 605:./Libraries/STM32H7xx_HAL_Driver/Src/stm32h7xx_hal.c ****   MODIFY_REG(SYSCFG->PMCR, SYSCFG_PMCR_EPIS_SEL, (uint32_t)(SYSCFG_ETHInterface));
 1092              		.loc 1 605 3 view .LVU238
 1093 0000 034A     		ldr	r2, .L106
 1094 0002 5368     		ldr	r3, [r2, #4]
ARM GAS  /tmp/ccHzGhIf.s 			page 32


 1095 0004 23F46003 		bic	r3, r3, #14680064
 1096 0008 1843     		orrs	r0, r0, r3
 1097              	.LVL40:
 1098              		.loc 1 605 3 is_stmt 0 view .LVU239
 1099 000a 5060     		str	r0, [r2, #4]
 606:./Libraries/STM32H7xx_HAL_Driver/Src/stm32h7xx_hal.c **** }
 1100              		.loc 1 606 1 view .LVU240
 1101 000c 7047     		bx	lr
 1102              	.L107:
 1103 000e 00BF     		.align	2
 1104              	.L106:
 1105 0010 00040058 		.word	1476396032
 1106              		.cfi_endproc
 1107              	.LFE355:
 1109              		.section	.text.HAL_SYSCFG_AnalogSwitchConfig,"ax",%progbits
 1110              		.align	1
 1111              		.p2align 2,,3
 1112              		.global	HAL_SYSCFG_AnalogSwitchConfig
 1113              		.syntax unified
 1114              		.thumb
 1115              		.thumb_func
 1116              		.fpu fpv5-d16
 1118              	HAL_SYSCFG_AnalogSwitchConfig:
 1119              	.LVL41:
 1120              	.LFB356:
 607:./Libraries/STM32H7xx_HAL_Driver/Src/stm32h7xx_hal.c **** #endif /* SYSCFG_PMCR_EPIS_SEL */
 608:./Libraries/STM32H7xx_HAL_Driver/Src/stm32h7xx_hal.c **** 
 609:./Libraries/STM32H7xx_HAL_Driver/Src/stm32h7xx_hal.c **** /**
 610:./Libraries/STM32H7xx_HAL_Driver/Src/stm32h7xx_hal.c ****   * @brief  Analog Switch control for dual analog pads.
 611:./Libraries/STM32H7xx_HAL_Driver/Src/stm32h7xx_hal.c ****   * @param  SYSCFG_AnalogSwitch: Selects the analog pad
 612:./Libraries/STM32H7xx_HAL_Driver/Src/stm32h7xx_hal.c ****   *   This parameter can be one or a combination of the following values:
 613:./Libraries/STM32H7xx_HAL_Driver/Src/stm32h7xx_hal.c ****   *   @arg SYSCFG_SWITCH_PA0 : Select PA0 analog switch
 614:./Libraries/STM32H7xx_HAL_Driver/Src/stm32h7xx_hal.c ****   *   @arg SYSCFG_SWITCH_PA1:  Select PA1 analog switch
 615:./Libraries/STM32H7xx_HAL_Driver/Src/stm32h7xx_hal.c ****   *   @arg SYSCFG_SWITCH_PC2 : Select PC2 analog switch
 616:./Libraries/STM32H7xx_HAL_Driver/Src/stm32h7xx_hal.c ****   *   @arg SYSCFG_SWITCH_PC3:  Select PC3 analog switch
 617:./Libraries/STM32H7xx_HAL_Driver/Src/stm32h7xx_hal.c ****   * @param  SYSCFG_SwitchState: Open or Close the analog switch between dual pads (PXn and PXn_C)
 618:./Libraries/STM32H7xx_HAL_Driver/Src/stm32h7xx_hal.c ****   *   This parameter can be one or a combination of the following values:
 619:./Libraries/STM32H7xx_HAL_Driver/Src/stm32h7xx_hal.c ****   *   @arg SYSCFG_SWITCH_PA0_OPEN
 620:./Libraries/STM32H7xx_HAL_Driver/Src/stm32h7xx_hal.c ****   *   @arg SYSCFG_SWITCH_PA0_CLOSE
 621:./Libraries/STM32H7xx_HAL_Driver/Src/stm32h7xx_hal.c ****   *   @arg SYSCFG_SWITCH_PA1_OPEN
 622:./Libraries/STM32H7xx_HAL_Driver/Src/stm32h7xx_hal.c ****   *   @arg SYSCFG_SWITCH_PA1_CLOSE
 623:./Libraries/STM32H7xx_HAL_Driver/Src/stm32h7xx_hal.c ****   *   @arg SYSCFG_SWITCH_PC2_OPEN
 624:./Libraries/STM32H7xx_HAL_Driver/Src/stm32h7xx_hal.c ****   *   @arg SYSCFG_SWITCH_PC2_CLOSE
 625:./Libraries/STM32H7xx_HAL_Driver/Src/stm32h7xx_hal.c ****   *   @arg SYSCFG_SWITCH_PC3_OPEN
 626:./Libraries/STM32H7xx_HAL_Driver/Src/stm32h7xx_hal.c ****   *   @arg SYSCFG_SWITCH_PC3_CLOSE
 627:./Libraries/STM32H7xx_HAL_Driver/Src/stm32h7xx_hal.c ****   * @retval None
 628:./Libraries/STM32H7xx_HAL_Driver/Src/stm32h7xx_hal.c ****   */
 629:./Libraries/STM32H7xx_HAL_Driver/Src/stm32h7xx_hal.c **** 
 630:./Libraries/STM32H7xx_HAL_Driver/Src/stm32h7xx_hal.c **** void HAL_SYSCFG_AnalogSwitchConfig(uint32_t SYSCFG_AnalogSwitch , uint32_t SYSCFG_SwitchState )
 631:./Libraries/STM32H7xx_HAL_Driver/Src/stm32h7xx_hal.c **** {
 1121              		.loc 1 631 1 is_stmt 1 view -0
 1122              		.cfi_startproc
 1123              		@ args = 0, pretend = 0, frame = 0
 1124              		@ frame_needed = 0, uses_anonymous_args = 0
 1125              		@ link register save eliminated.
 632:./Libraries/STM32H7xx_HAL_Driver/Src/stm32h7xx_hal.c ****   /* Check the parameter */
 633:./Libraries/STM32H7xx_HAL_Driver/Src/stm32h7xx_hal.c ****   assert_param(IS_SYSCFG_ANALOG_SWITCH(SYSCFG_AnalogSwitch));
ARM GAS  /tmp/ccHzGhIf.s 			page 33


 1126              		.loc 1 633 3 view .LVU242
 634:./Libraries/STM32H7xx_HAL_Driver/Src/stm32h7xx_hal.c ****   assert_param(IS_SYSCFG_SWITCH_STATE(SYSCFG_SwitchState));
 1127              		.loc 1 634 3 view .LVU243
 635:./Libraries/STM32H7xx_HAL_Driver/Src/stm32h7xx_hal.c **** 
 636:./Libraries/STM32H7xx_HAL_Driver/Src/stm32h7xx_hal.c ****   MODIFY_REG(SYSCFG->PMCR, (uint32_t) SYSCFG_AnalogSwitch, (uint32_t)(SYSCFG_SwitchState));
 1128              		.loc 1 636 3 view .LVU244
 1129 0000 034A     		ldr	r2, .L109
 1130 0002 5368     		ldr	r3, [r2, #4]
 1131 0004 23EA0000 		bic	r0, r3, r0
 1132              	.LVL42:
 1133              		.loc 1 636 3 is_stmt 0 view .LVU245
 1134 0008 0143     		orrs	r1, r1, r0
 1135              	.LVL43:
 1136              		.loc 1 636 3 view .LVU246
 1137 000a 5160     		str	r1, [r2, #4]
 637:./Libraries/STM32H7xx_HAL_Driver/Src/stm32h7xx_hal.c **** }
 1138              		.loc 1 637 1 view .LVU247
 1139 000c 7047     		bx	lr
 1140              	.L110:
 1141 000e 00BF     		.align	2
 1142              	.L109:
 1143 0010 00040058 		.word	1476396032
 1144              		.cfi_endproc
 1145              	.LFE356:
 1147              		.section	.text.HAL_SYSCFG_EnableBOOST,"ax",%progbits
 1148              		.align	1
 1149              		.p2align 2,,3
 1150              		.global	HAL_SYSCFG_EnableBOOST
 1151              		.syntax unified
 1152              		.thumb
 1153              		.thumb_func
 1154              		.fpu fpv5-d16
 1156              	HAL_SYSCFG_EnableBOOST:
 1157              	.LFB357:
 638:./Libraries/STM32H7xx_HAL_Driver/Src/stm32h7xx_hal.c **** 
 639:./Libraries/STM32H7xx_HAL_Driver/Src/stm32h7xx_hal.c **** #if defined(SYSCFG_PMCR_BOOSTEN)
 640:./Libraries/STM32H7xx_HAL_Driver/Src/stm32h7xx_hal.c **** /**
 641:./Libraries/STM32H7xx_HAL_Driver/Src/stm32h7xx_hal.c ****   * @brief  Enables the booster to reduce the total harmonic distortion of the analog
 642:./Libraries/STM32H7xx_HAL_Driver/Src/stm32h7xx_hal.c ****   *         switch when the supply voltage is lower than 2.7 V.
 643:./Libraries/STM32H7xx_HAL_Driver/Src/stm32h7xx_hal.c ****   * @note   Activating the booster allows to guaranty the analog switch AC performance
 644:./Libraries/STM32H7xx_HAL_Driver/Src/stm32h7xx_hal.c ****   *         when the supply voltage is below 2.7 V: in this case, the analog switch
 645:./Libraries/STM32H7xx_HAL_Driver/Src/stm32h7xx_hal.c ****   *         performance is the same on the full voltage range
 646:./Libraries/STM32H7xx_HAL_Driver/Src/stm32h7xx_hal.c ****   * @retval None
 647:./Libraries/STM32H7xx_HAL_Driver/Src/stm32h7xx_hal.c ****   */
 648:./Libraries/STM32H7xx_HAL_Driver/Src/stm32h7xx_hal.c **** void HAL_SYSCFG_EnableBOOST(void)
 649:./Libraries/STM32H7xx_HAL_Driver/Src/stm32h7xx_hal.c **** {
 1158              		.loc 1 649 1 is_stmt 1 view -0
 1159              		.cfi_startproc
 1160              		@ args = 0, pretend = 0, frame = 0
 1161              		@ frame_needed = 0, uses_anonymous_args = 0
 1162              		@ link register save eliminated.
 650:./Libraries/STM32H7xx_HAL_Driver/Src/stm32h7xx_hal.c ****  SET_BIT(SYSCFG->PMCR, SYSCFG_PMCR_BOOSTEN) ;
 1163              		.loc 1 650 2 view .LVU249
 1164 0000 024A     		ldr	r2, .L112
 1165 0002 5368     		ldr	r3, [r2, #4]
 1166 0004 43F48073 		orr	r3, r3, #256
 1167 0008 5360     		str	r3, [r2, #4]
ARM GAS  /tmp/ccHzGhIf.s 			page 34


 651:./Libraries/STM32H7xx_HAL_Driver/Src/stm32h7xx_hal.c **** }
 1168              		.loc 1 651 1 is_stmt 0 view .LVU250
 1169 000a 7047     		bx	lr
 1170              	.L113:
 1171              		.align	2
 1172              	.L112:
 1173 000c 00040058 		.word	1476396032
 1174              		.cfi_endproc
 1175              	.LFE357:
 1177              		.section	.text.HAL_SYSCFG_DisableBOOST,"ax",%progbits
 1178              		.align	1
 1179              		.p2align 2,,3
 1180              		.global	HAL_SYSCFG_DisableBOOST
 1181              		.syntax unified
 1182              		.thumb
 1183              		.thumb_func
 1184              		.fpu fpv5-d16
 1186              	HAL_SYSCFG_DisableBOOST:
 1187              	.LFB358:
 652:./Libraries/STM32H7xx_HAL_Driver/Src/stm32h7xx_hal.c **** 
 653:./Libraries/STM32H7xx_HAL_Driver/Src/stm32h7xx_hal.c **** /**
 654:./Libraries/STM32H7xx_HAL_Driver/Src/stm32h7xx_hal.c ****   * @brief  Disables the booster
 655:./Libraries/STM32H7xx_HAL_Driver/Src/stm32h7xx_hal.c ****   * @note   Activating the booster allows to guaranty the analog switch AC performance
 656:./Libraries/STM32H7xx_HAL_Driver/Src/stm32h7xx_hal.c ****   *         when the supply voltage is below 2.7 V: in this case, the analog switch
 657:./Libraries/STM32H7xx_HAL_Driver/Src/stm32h7xx_hal.c ****   *         performance is the same on the full voltage range
 658:./Libraries/STM32H7xx_HAL_Driver/Src/stm32h7xx_hal.c ****   * @retval None
 659:./Libraries/STM32H7xx_HAL_Driver/Src/stm32h7xx_hal.c ****   */
 660:./Libraries/STM32H7xx_HAL_Driver/Src/stm32h7xx_hal.c **** void HAL_SYSCFG_DisableBOOST(void)
 661:./Libraries/STM32H7xx_HAL_Driver/Src/stm32h7xx_hal.c **** {
 1188              		.loc 1 661 1 is_stmt 1 view -0
 1189              		.cfi_startproc
 1190              		@ args = 0, pretend = 0, frame = 0
 1191              		@ frame_needed = 0, uses_anonymous_args = 0
 1192              		@ link register save eliminated.
 662:./Libraries/STM32H7xx_HAL_Driver/Src/stm32h7xx_hal.c ****  CLEAR_BIT(SYSCFG->PMCR, SYSCFG_PMCR_BOOSTEN) ;
 1193              		.loc 1 662 2 view .LVU252
 1194 0000 024A     		ldr	r2, .L115
 1195 0002 5368     		ldr	r3, [r2, #4]
 1196 0004 23F48073 		bic	r3, r3, #256
 1197 0008 5360     		str	r3, [r2, #4]
 663:./Libraries/STM32H7xx_HAL_Driver/Src/stm32h7xx_hal.c **** }
 1198              		.loc 1 663 1 is_stmt 0 view .LVU253
 1199 000a 7047     		bx	lr
 1200              	.L116:
 1201              		.align	2
 1202              	.L115:
 1203 000c 00040058 		.word	1476396032
 1204              		.cfi_endproc
 1205              	.LFE358:
 1207              		.section	.text.HAL_SYSCFG_CM7BootAddConfig,"ax",%progbits
 1208              		.align	1
 1209              		.p2align 2,,3
 1210              		.global	HAL_SYSCFG_CM7BootAddConfig
 1211              		.syntax unified
 1212              		.thumb
 1213              		.thumb_func
 1214              		.fpu fpv5-d16
ARM GAS  /tmp/ccHzGhIf.s 			page 35


 1216              	HAL_SYSCFG_CM7BootAddConfig:
 1217              	.LVL44:
 1218              	.LFB359:
 664:./Libraries/STM32H7xx_HAL_Driver/Src/stm32h7xx_hal.c **** #endif /* SYSCFG_PMCR_BOOSTEN */
 665:./Libraries/STM32H7xx_HAL_Driver/Src/stm32h7xx_hal.c **** 
 666:./Libraries/STM32H7xx_HAL_Driver/Src/stm32h7xx_hal.c **** #if defined (SYSCFG_UR2_BOOT_ADD0) ||  defined (SYSCFG_UR2_BCM7_ADD0)
 667:./Libraries/STM32H7xx_HAL_Driver/Src/stm32h7xx_hal.c **** /**
 668:./Libraries/STM32H7xx_HAL_Driver/Src/stm32h7xx_hal.c ****   * @brief  BootCM7 address 0 configuration
 669:./Libraries/STM32H7xx_HAL_Driver/Src/stm32h7xx_hal.c ****   * @param  BootRegister :Specifies the Boot Address register (Address0 or Address1)
 670:./Libraries/STM32H7xx_HAL_Driver/Src/stm32h7xx_hal.c ****   *   This parameter can be one of the following values:
 671:./Libraries/STM32H7xx_HAL_Driver/Src/stm32h7xx_hal.c ****   *   @arg SYSCFG_BOOT_ADDR0 : Select the boot address0
 672:./Libraries/STM32H7xx_HAL_Driver/Src/stm32h7xx_hal.c ****   *   @arg SYSCFG_BOOT_ADDR1:  Select the boot address1
 673:./Libraries/STM32H7xx_HAL_Driver/Src/stm32h7xx_hal.c ****   * @param  BootAddress :Specifies the CM7 Boot Address to be loaded in Address0 or Address1
 674:./Libraries/STM32H7xx_HAL_Driver/Src/stm32h7xx_hal.c ****   * @retval None
 675:./Libraries/STM32H7xx_HAL_Driver/Src/stm32h7xx_hal.c ****   */
 676:./Libraries/STM32H7xx_HAL_Driver/Src/stm32h7xx_hal.c **** void HAL_SYSCFG_CM7BootAddConfig(uint32_t BootRegister, uint32_t BootAddress)
 677:./Libraries/STM32H7xx_HAL_Driver/Src/stm32h7xx_hal.c **** {
 1219              		.loc 1 677 1 is_stmt 1 view -0
 1220              		.cfi_startproc
 1221              		@ args = 0, pretend = 0, frame = 0
 1222              		@ frame_needed = 0, uses_anonymous_args = 0
 1223              		@ link register save eliminated.
 678:./Libraries/STM32H7xx_HAL_Driver/Src/stm32h7xx_hal.c ****   /* Check the parameters */
 679:./Libraries/STM32H7xx_HAL_Driver/Src/stm32h7xx_hal.c ****   assert_param(IS_SYSCFG_BOOT_REGISTER(BootRegister));
 1224              		.loc 1 679 3 view .LVU255
 680:./Libraries/STM32H7xx_HAL_Driver/Src/stm32h7xx_hal.c ****   assert_param(IS_SYSCFG_BOOT_ADDRESS(BootAddress));
 1225              		.loc 1 680 3 view .LVU256
 681:./Libraries/STM32H7xx_HAL_Driver/Src/stm32h7xx_hal.c ****   if ( BootRegister == SYSCFG_BOOT_ADDR0 )
 1226              		.loc 1 681 3 view .LVU257
 1227              		.loc 1 681 6 is_stmt 0 view .LVU258
 1228 0000 48B9     		cbnz	r0, .L118
 682:./Libraries/STM32H7xx_HAL_Driver/Src/stm32h7xx_hal.c ****   {
 683:./Libraries/STM32H7xx_HAL_Driver/Src/stm32h7xx_hal.c ****     /* Configure CM7 BOOT ADD0 */
 684:./Libraries/STM32H7xx_HAL_Driver/Src/stm32h7xx_hal.c **** #if defined(DUAL_CORE)
 685:./Libraries/STM32H7xx_HAL_Driver/Src/stm32h7xx_hal.c ****     MODIFY_REG(SYSCFG->UR2, SYSCFG_UR2_BCM7_ADD0, ((BootAddress >> 16) << SYSCFG_UR2_BCM7_ADD0_Pos)
 1229              		.loc 1 685 5 is_stmt 1 view .LVU259
 1230 0002 0A48     		ldr	r0, .L120
 1231              	.LVL45:
 1232              		.loc 1 685 5 is_stmt 0 view .LVU260
 1233 0004 0A4B     		ldr	r3, .L120+4
 1234 0006 D0F80823 		ldr	r2, [r0, #776]
 1235 000a 0B40     		ands	r3, r3, r1
 1236 000c 92B2     		uxth	r2, r2
 1237 000e 1343     		orrs	r3, r3, r2
 1238 0010 C0F80833 		str	r3, [r0, #776]
 1239 0014 7047     		bx	lr
 1240              	.LVL46:
 1241              	.L118:
 686:./Libraries/STM32H7xx_HAL_Driver/Src/stm32h7xx_hal.c **** #else
 687:./Libraries/STM32H7xx_HAL_Driver/Src/stm32h7xx_hal.c ****     MODIFY_REG(SYSCFG->UR2, SYSCFG_UR2_BOOT_ADD0, ((BootAddress >> 16) << SYSCFG_UR2_BOOT_ADD0_Pos)
 688:./Libraries/STM32H7xx_HAL_Driver/Src/stm32h7xx_hal.c **** #endif /*DUAL_CORE*/
 689:./Libraries/STM32H7xx_HAL_Driver/Src/stm32h7xx_hal.c ****   }
 690:./Libraries/STM32H7xx_HAL_Driver/Src/stm32h7xx_hal.c ****   else
 691:./Libraries/STM32H7xx_HAL_Driver/Src/stm32h7xx_hal.c ****   {
 692:./Libraries/STM32H7xx_HAL_Driver/Src/stm32h7xx_hal.c ****     /* Configure CM7 BOOT ADD1 */
 693:./Libraries/STM32H7xx_HAL_Driver/Src/stm32h7xx_hal.c **** #if defined(DUAL_CORE)
 694:./Libraries/STM32H7xx_HAL_Driver/Src/stm32h7xx_hal.c ****     MODIFY_REG(SYSCFG->UR3, SYSCFG_UR3_BCM7_ADD1, (BootAddress >> 16));
ARM GAS  /tmp/ccHzGhIf.s 			page 36


 1242              		.loc 1 694 5 is_stmt 1 view .LVU261
 1243 0016 054A     		ldr	r2, .L120
 1244 0018 054B     		ldr	r3, .L120+4
 1245 001a D2F80C03 		ldr	r0, [r2, #780]
 1246              	.LVL47:
 1247              		.loc 1 694 5 is_stmt 0 view .LVU262
 1248 001e 0340     		ands	r3, r3, r0
 1249 0020 43EA1141 		orr	r1, r3, r1, lsr #16
 1250              	.LVL48:
 1251              		.loc 1 694 5 view .LVU263
 1252 0024 C2F80C13 		str	r1, [r2, #780]
 695:./Libraries/STM32H7xx_HAL_Driver/Src/stm32h7xx_hal.c **** #else
 696:./Libraries/STM32H7xx_HAL_Driver/Src/stm32h7xx_hal.c ****     MODIFY_REG(SYSCFG->UR3, SYSCFG_UR3_BOOT_ADD1, (BootAddress >> 16));
 697:./Libraries/STM32H7xx_HAL_Driver/Src/stm32h7xx_hal.c **** #endif /*DUAL_CORE*/
 698:./Libraries/STM32H7xx_HAL_Driver/Src/stm32h7xx_hal.c ****   }
 699:./Libraries/STM32H7xx_HAL_Driver/Src/stm32h7xx_hal.c **** }
 1253              		.loc 1 699 1 view .LVU264
 1254 0028 7047     		bx	lr
 1255              	.L121:
 1256 002a 00BF     		.align	2
 1257              	.L120:
 1258 002c 00040058 		.word	1476396032
 1259 0030 0000FFFF 		.word	-65536
 1260              		.cfi_endproc
 1261              	.LFE359:
 1263              		.section	.text.HAL_SYSCFG_CM4BootAddConfig,"ax",%progbits
 1264              		.align	1
 1265              		.p2align 2,,3
 1266              		.global	HAL_SYSCFG_CM4BootAddConfig
 1267              		.syntax unified
 1268              		.thumb
 1269              		.thumb_func
 1270              		.fpu fpv5-d16
 1272              	HAL_SYSCFG_CM4BootAddConfig:
 1273              	.LVL49:
 1274              	.LFB360:
 700:./Libraries/STM32H7xx_HAL_Driver/Src/stm32h7xx_hal.c **** #endif /* SYSCFG_UR2_BOOT_ADD0 || SYSCFG_UR2_BCM7_ADD0 */
 701:./Libraries/STM32H7xx_HAL_Driver/Src/stm32h7xx_hal.c **** 
 702:./Libraries/STM32H7xx_HAL_Driver/Src/stm32h7xx_hal.c **** #if defined(DUAL_CORE)
 703:./Libraries/STM32H7xx_HAL_Driver/Src/stm32h7xx_hal.c **** /**
 704:./Libraries/STM32H7xx_HAL_Driver/Src/stm32h7xx_hal.c ****   * @brief  BootCM4 address 0 configuration
 705:./Libraries/STM32H7xx_HAL_Driver/Src/stm32h7xx_hal.c ****   * @param  BootRegister :Specifies the Boot Address register (Address0 or Address1)
 706:./Libraries/STM32H7xx_HAL_Driver/Src/stm32h7xx_hal.c ****   *   This parameter can be one of the following values:
 707:./Libraries/STM32H7xx_HAL_Driver/Src/stm32h7xx_hal.c ****   *   @arg SYSCFG_BOOT_ADDR0 : Select the boot address0
 708:./Libraries/STM32H7xx_HAL_Driver/Src/stm32h7xx_hal.c ****   *   @arg SYSCFG_BOOT_ADDR1:  Select the boot address1
 709:./Libraries/STM32H7xx_HAL_Driver/Src/stm32h7xx_hal.c ****   * @param  BootAddress :Specifies the CM4 Boot Address to be loaded in Address0 or Address1
 710:./Libraries/STM32H7xx_HAL_Driver/Src/stm32h7xx_hal.c ****   * @retval None
 711:./Libraries/STM32H7xx_HAL_Driver/Src/stm32h7xx_hal.c ****   */
 712:./Libraries/STM32H7xx_HAL_Driver/Src/stm32h7xx_hal.c **** void HAL_SYSCFG_CM4BootAddConfig(uint32_t BootRegister, uint32_t BootAddress)
 713:./Libraries/STM32H7xx_HAL_Driver/Src/stm32h7xx_hal.c **** {
 1275              		.loc 1 713 1 is_stmt 1 view -0
 1276              		.cfi_startproc
 1277              		@ args = 0, pretend = 0, frame = 0
 1278              		@ frame_needed = 0, uses_anonymous_args = 0
 1279              		@ link register save eliminated.
 714:./Libraries/STM32H7xx_HAL_Driver/Src/stm32h7xx_hal.c ****   /* Check the parameters */
 715:./Libraries/STM32H7xx_HAL_Driver/Src/stm32h7xx_hal.c ****   assert_param(IS_SYSCFG_BOOT_REGISTER(BootRegister));
ARM GAS  /tmp/ccHzGhIf.s 			page 37


 1280              		.loc 1 715 3 view .LVU266
 716:./Libraries/STM32H7xx_HAL_Driver/Src/stm32h7xx_hal.c ****   assert_param(IS_SYSCFG_BOOT_ADDRESS(BootAddress));
 1281              		.loc 1 716 3 view .LVU267
 717:./Libraries/STM32H7xx_HAL_Driver/Src/stm32h7xx_hal.c **** 
 718:./Libraries/STM32H7xx_HAL_Driver/Src/stm32h7xx_hal.c ****   if ( BootRegister == SYSCFG_BOOT_ADDR0 )
 1282              		.loc 1 718 3 view .LVU268
 1283              		.loc 1 718 6 is_stmt 0 view .LVU269
 1284 0000 48B9     		cbnz	r0, .L123
 719:./Libraries/STM32H7xx_HAL_Driver/Src/stm32h7xx_hal.c ****   {
 720:./Libraries/STM32H7xx_HAL_Driver/Src/stm32h7xx_hal.c ****     /* Configure CM4 BOOT ADD0 */
 721:./Libraries/STM32H7xx_HAL_Driver/Src/stm32h7xx_hal.c ****     MODIFY_REG(SYSCFG->UR3, SYSCFG_UR3_BCM4_ADD0, ((BootAddress >> 16)<< SYSCFG_UR3_BCM4_ADD0_Pos))
 1285              		.loc 1 721 5 is_stmt 1 view .LVU270
 1286 0002 0A48     		ldr	r0, .L125
 1287              	.LVL50:
 1288              		.loc 1 721 5 is_stmt 0 view .LVU271
 1289 0004 0A4B     		ldr	r3, .L125+4
 1290 0006 D0F80C23 		ldr	r2, [r0, #780]
 1291 000a 0B40     		ands	r3, r3, r1
 1292 000c 92B2     		uxth	r2, r2
 1293 000e 1343     		orrs	r3, r3, r2
 1294 0010 C0F80C33 		str	r3, [r0, #780]
 1295 0014 7047     		bx	lr
 1296              	.LVL51:
 1297              	.L123:
 722:./Libraries/STM32H7xx_HAL_Driver/Src/stm32h7xx_hal.c ****   }
 723:./Libraries/STM32H7xx_HAL_Driver/Src/stm32h7xx_hal.c **** 
 724:./Libraries/STM32H7xx_HAL_Driver/Src/stm32h7xx_hal.c ****   else
 725:./Libraries/STM32H7xx_HAL_Driver/Src/stm32h7xx_hal.c ****   {
 726:./Libraries/STM32H7xx_HAL_Driver/Src/stm32h7xx_hal.c ****     /* Configure CM4 BOOT ADD1 */
 727:./Libraries/STM32H7xx_HAL_Driver/Src/stm32h7xx_hal.c ****     MODIFY_REG(SYSCFG->UR4, SYSCFG_UR4_BCM4_ADD1, (BootAddress >> 16));
 1298              		.loc 1 727 5 is_stmt 1 view .LVU272
 1299 0016 054A     		ldr	r2, .L125
 1300 0018 054B     		ldr	r3, .L125+4
 1301 001a D2F81003 		ldr	r0, [r2, #784]
 1302              	.LVL52:
 1303              		.loc 1 727 5 is_stmt 0 view .LVU273
 1304 001e 0340     		ands	r3, r3, r0
 1305 0020 43EA1141 		orr	r1, r3, r1, lsr #16
 1306              	.LVL53:
 1307              		.loc 1 727 5 view .LVU274
 1308 0024 C2F81013 		str	r1, [r2, #784]
 728:./Libraries/STM32H7xx_HAL_Driver/Src/stm32h7xx_hal.c ****   }
 729:./Libraries/STM32H7xx_HAL_Driver/Src/stm32h7xx_hal.c **** }
 1309              		.loc 1 729 1 view .LVU275
 1310 0028 7047     		bx	lr
 1311              	.L126:
 1312 002a 00BF     		.align	2
 1313              	.L125:
 1314 002c 00040058 		.word	1476396032
 1315 0030 0000FFFF 		.word	-65536
 1316              		.cfi_endproc
 1317              	.LFE360:
 1319              		.section	.text.HAL_SYSCFG_EnableCM7BOOT,"ax",%progbits
 1320              		.align	1
 1321              		.p2align 2,,3
 1322              		.global	HAL_SYSCFG_EnableCM7BOOT
 1323              		.syntax unified
ARM GAS  /tmp/ccHzGhIf.s 			page 38


 1324              		.thumb
 1325              		.thumb_func
 1326              		.fpu fpv5-d16
 1328              	HAL_SYSCFG_EnableCM7BOOT:
 1329              	.LFB361:
 730:./Libraries/STM32H7xx_HAL_Driver/Src/stm32h7xx_hal.c **** 
 731:./Libraries/STM32H7xx_HAL_Driver/Src/stm32h7xx_hal.c **** /**
 732:./Libraries/STM32H7xx_HAL_Driver/Src/stm32h7xx_hal.c ****   * @brief  Enables the Cortex-M7 boot
 733:./Libraries/STM32H7xx_HAL_Driver/Src/stm32h7xx_hal.c ****   * @retval None
 734:./Libraries/STM32H7xx_HAL_Driver/Src/stm32h7xx_hal.c ****   */
 735:./Libraries/STM32H7xx_HAL_Driver/Src/stm32h7xx_hal.c **** void HAL_SYSCFG_EnableCM7BOOT(void)
 736:./Libraries/STM32H7xx_HAL_Driver/Src/stm32h7xx_hal.c **** {
 1330              		.loc 1 736 1 is_stmt 1 view -0
 1331              		.cfi_startproc
 1332              		@ args = 0, pretend = 0, frame = 0
 1333              		@ frame_needed = 0, uses_anonymous_args = 0
 1334              		@ link register save eliminated.
 737:./Libraries/STM32H7xx_HAL_Driver/Src/stm32h7xx_hal.c ****  SET_BIT(SYSCFG->UR1, SYSCFG_UR1_BCM7);
 1335              		.loc 1 737 2 view .LVU277
 1336 0000 034A     		ldr	r2, .L128
 1337 0002 D2F80433 		ldr	r3, [r2, #772]
 1338 0006 43F48033 		orr	r3, r3, #65536
 1339 000a C2F80433 		str	r3, [r2, #772]
 738:./Libraries/STM32H7xx_HAL_Driver/Src/stm32h7xx_hal.c **** }
 1340              		.loc 1 738 1 is_stmt 0 view .LVU278
 1341 000e 7047     		bx	lr
 1342              	.L129:
 1343              		.align	2
 1344              	.L128:
 1345 0010 00040058 		.word	1476396032
 1346              		.cfi_endproc
 1347              	.LFE361:
 1349              		.section	.text.HAL_SYSCFG_DisableCM7BOOT,"ax",%progbits
 1350              		.align	1
 1351              		.p2align 2,,3
 1352              		.global	HAL_SYSCFG_DisableCM7BOOT
 1353              		.syntax unified
 1354              		.thumb
 1355              		.thumb_func
 1356              		.fpu fpv5-d16
 1358              	HAL_SYSCFG_DisableCM7BOOT:
 1359              	.LFB362:
 739:./Libraries/STM32H7xx_HAL_Driver/Src/stm32h7xx_hal.c **** 
 740:./Libraries/STM32H7xx_HAL_Driver/Src/stm32h7xx_hal.c **** /**
 741:./Libraries/STM32H7xx_HAL_Driver/Src/stm32h7xx_hal.c ****   * @brief  Disables the Cortex-M7 boot
 742:./Libraries/STM32H7xx_HAL_Driver/Src/stm32h7xx_hal.c ****   * @note   Disabling the boot will gate the CPU clock
 743:./Libraries/STM32H7xx_HAL_Driver/Src/stm32h7xx_hal.c ****   * @retval None
 744:./Libraries/STM32H7xx_HAL_Driver/Src/stm32h7xx_hal.c ****   */
 745:./Libraries/STM32H7xx_HAL_Driver/Src/stm32h7xx_hal.c **** void HAL_SYSCFG_DisableCM7BOOT(void)
 746:./Libraries/STM32H7xx_HAL_Driver/Src/stm32h7xx_hal.c **** {
 1360              		.loc 1 746 1 is_stmt 1 view -0
 1361              		.cfi_startproc
 1362              		@ args = 0, pretend = 0, frame = 0
 1363              		@ frame_needed = 0, uses_anonymous_args = 0
 1364              		@ link register save eliminated.
 747:./Libraries/STM32H7xx_HAL_Driver/Src/stm32h7xx_hal.c ****  CLEAR_BIT(SYSCFG->UR1, SYSCFG_UR1_BCM7) ;
 1365              		.loc 1 747 2 view .LVU280
ARM GAS  /tmp/ccHzGhIf.s 			page 39


 1366 0000 034A     		ldr	r2, .L131
 1367 0002 D2F80433 		ldr	r3, [r2, #772]
 1368 0006 23F48033 		bic	r3, r3, #65536
 1369 000a C2F80433 		str	r3, [r2, #772]
 748:./Libraries/STM32H7xx_HAL_Driver/Src/stm32h7xx_hal.c **** }
 1370              		.loc 1 748 1 is_stmt 0 view .LVU281
 1371 000e 7047     		bx	lr
 1372              	.L132:
 1373              		.align	2
 1374              	.L131:
 1375 0010 00040058 		.word	1476396032
 1376              		.cfi_endproc
 1377              	.LFE362:
 1379              		.section	.text.HAL_SYSCFG_EnableCM4BOOT,"ax",%progbits
 1380              		.align	1
 1381              		.p2align 2,,3
 1382              		.global	HAL_SYSCFG_EnableCM4BOOT
 1383              		.syntax unified
 1384              		.thumb
 1385              		.thumb_func
 1386              		.fpu fpv5-d16
 1388              	HAL_SYSCFG_EnableCM4BOOT:
 1389              	.LFB363:
 749:./Libraries/STM32H7xx_HAL_Driver/Src/stm32h7xx_hal.c **** 
 750:./Libraries/STM32H7xx_HAL_Driver/Src/stm32h7xx_hal.c **** /**
 751:./Libraries/STM32H7xx_HAL_Driver/Src/stm32h7xx_hal.c ****   * @brief  Enables the Cortex-M4 boot
 752:./Libraries/STM32H7xx_HAL_Driver/Src/stm32h7xx_hal.c ****   * @retval None
 753:./Libraries/STM32H7xx_HAL_Driver/Src/stm32h7xx_hal.c ****   */
 754:./Libraries/STM32H7xx_HAL_Driver/Src/stm32h7xx_hal.c **** void HAL_SYSCFG_EnableCM4BOOT(void)
 755:./Libraries/STM32H7xx_HAL_Driver/Src/stm32h7xx_hal.c **** {
 1390              		.loc 1 755 1 is_stmt 1 view -0
 1391              		.cfi_startproc
 1392              		@ args = 0, pretend = 0, frame = 0
 1393              		@ frame_needed = 0, uses_anonymous_args = 0
 1394              		@ link register save eliminated.
 756:./Libraries/STM32H7xx_HAL_Driver/Src/stm32h7xx_hal.c ****  SET_BIT(SYSCFG->UR1, SYSCFG_UR1_BCM4);
 1395              		.loc 1 756 2 view .LVU283
 1396 0000 034A     		ldr	r2, .L134
 1397 0002 D2F80433 		ldr	r3, [r2, #772]
 1398 0006 43F00103 		orr	r3, r3, #1
 1399 000a C2F80433 		str	r3, [r2, #772]
 757:./Libraries/STM32H7xx_HAL_Driver/Src/stm32h7xx_hal.c **** }
 1400              		.loc 1 757 1 is_stmt 0 view .LVU284
 1401 000e 7047     		bx	lr
 1402              	.L135:
 1403              		.align	2
 1404              	.L134:
 1405 0010 00040058 		.word	1476396032
 1406              		.cfi_endproc
 1407              	.LFE363:
 1409              		.section	.text.HAL_SYSCFG_DisableCM4BOOT,"ax",%progbits
 1410              		.align	1
 1411              		.p2align 2,,3
 1412              		.global	HAL_SYSCFG_DisableCM4BOOT
 1413              		.syntax unified
 1414              		.thumb
 1415              		.thumb_func
ARM GAS  /tmp/ccHzGhIf.s 			page 40


 1416              		.fpu fpv5-d16
 1418              	HAL_SYSCFG_DisableCM4BOOT:
 1419              	.LFB364:
 758:./Libraries/STM32H7xx_HAL_Driver/Src/stm32h7xx_hal.c **** 
 759:./Libraries/STM32H7xx_HAL_Driver/Src/stm32h7xx_hal.c **** /**
 760:./Libraries/STM32H7xx_HAL_Driver/Src/stm32h7xx_hal.c ****   * @brief  Disables the Cortex-M4 boot
 761:./Libraries/STM32H7xx_HAL_Driver/Src/stm32h7xx_hal.c ****   * @note   Disabling the boot will gate the CPU clock
 762:./Libraries/STM32H7xx_HAL_Driver/Src/stm32h7xx_hal.c ****   * @retval None
 763:./Libraries/STM32H7xx_HAL_Driver/Src/stm32h7xx_hal.c ****   */
 764:./Libraries/STM32H7xx_HAL_Driver/Src/stm32h7xx_hal.c **** void HAL_SYSCFG_DisableCM4BOOT(void)
 765:./Libraries/STM32H7xx_HAL_Driver/Src/stm32h7xx_hal.c **** {
 1420              		.loc 1 765 1 is_stmt 1 view -0
 1421              		.cfi_startproc
 1422              		@ args = 0, pretend = 0, frame = 0
 1423              		@ frame_needed = 0, uses_anonymous_args = 0
 1424              		@ link register save eliminated.
 766:./Libraries/STM32H7xx_HAL_Driver/Src/stm32h7xx_hal.c ****   CLEAR_BIT(SYSCFG->UR1, SYSCFG_UR1_BCM4);
 1425              		.loc 1 766 3 view .LVU286
 1426 0000 034A     		ldr	r2, .L137
 1427 0002 D2F80433 		ldr	r3, [r2, #772]
 1428 0006 23F00103 		bic	r3, r3, #1
 1429 000a C2F80433 		str	r3, [r2, #772]
 767:./Libraries/STM32H7xx_HAL_Driver/Src/stm32h7xx_hal.c **** }
 1430              		.loc 1 767 1 is_stmt 0 view .LVU287
 1431 000e 7047     		bx	lr
 1432              	.L138:
 1433              		.align	2
 1434              	.L137:
 1435 0010 00040058 		.word	1476396032
 1436              		.cfi_endproc
 1437              	.LFE364:
 1439              		.section	.text.HAL_EnableCompensationCell,"ax",%progbits
 1440              		.align	1
 1441              		.p2align 2,,3
 1442              		.global	HAL_EnableCompensationCell
 1443              		.syntax unified
 1444              		.thumb
 1445              		.thumb_func
 1446              		.fpu fpv5-d16
 1448              	HAL_EnableCompensationCell:
 1449              	.LFB365:
 768:./Libraries/STM32H7xx_HAL_Driver/Src/stm32h7xx_hal.c **** #endif /*DUAL_CORE*/
 769:./Libraries/STM32H7xx_HAL_Driver/Src/stm32h7xx_hal.c **** /**
 770:./Libraries/STM32H7xx_HAL_Driver/Src/stm32h7xx_hal.c ****   * @brief  Enables the I/O Compensation Cell.
 771:./Libraries/STM32H7xx_HAL_Driver/Src/stm32h7xx_hal.c ****   * @note   The I/O compensation cell can be used only when the device supply
 772:./Libraries/STM32H7xx_HAL_Driver/Src/stm32h7xx_hal.c ****   *         voltage ranges from 1.62 to 2.0 V and from 2.7 to 3.6 V.
 773:./Libraries/STM32H7xx_HAL_Driver/Src/stm32h7xx_hal.c ****   * @retval None
 774:./Libraries/STM32H7xx_HAL_Driver/Src/stm32h7xx_hal.c ****   */
 775:./Libraries/STM32H7xx_HAL_Driver/Src/stm32h7xx_hal.c **** void HAL_EnableCompensationCell(void)
 776:./Libraries/STM32H7xx_HAL_Driver/Src/stm32h7xx_hal.c **** {
 1450              		.loc 1 776 1 is_stmt 1 view -0
 1451              		.cfi_startproc
 1452              		@ args = 0, pretend = 0, frame = 0
 1453              		@ frame_needed = 0, uses_anonymous_args = 0
 1454              		@ link register save eliminated.
 777:./Libraries/STM32H7xx_HAL_Driver/Src/stm32h7xx_hal.c ****   SET_BIT(SYSCFG->CCCSR, SYSCFG_CCCSR_EN) ;
 1455              		.loc 1 777 3 view .LVU289
ARM GAS  /tmp/ccHzGhIf.s 			page 41


 1456 0000 024A     		ldr	r2, .L140
 1457 0002 136A     		ldr	r3, [r2, #32]
 1458 0004 43F00103 		orr	r3, r3, #1
 1459 0008 1362     		str	r3, [r2, #32]
 778:./Libraries/STM32H7xx_HAL_Driver/Src/stm32h7xx_hal.c **** }
 1460              		.loc 1 778 1 is_stmt 0 view .LVU290
 1461 000a 7047     		bx	lr
 1462              	.L141:
 1463              		.align	2
 1464              	.L140:
 1465 000c 00040058 		.word	1476396032
 1466              		.cfi_endproc
 1467              	.LFE365:
 1469              		.section	.text.HAL_DisableCompensationCell,"ax",%progbits
 1470              		.align	1
 1471              		.p2align 2,,3
 1472              		.global	HAL_DisableCompensationCell
 1473              		.syntax unified
 1474              		.thumb
 1475              		.thumb_func
 1476              		.fpu fpv5-d16
 1478              	HAL_DisableCompensationCell:
 1479              	.LFB366:
 779:./Libraries/STM32H7xx_HAL_Driver/Src/stm32h7xx_hal.c **** 
 780:./Libraries/STM32H7xx_HAL_Driver/Src/stm32h7xx_hal.c **** /**
 781:./Libraries/STM32H7xx_HAL_Driver/Src/stm32h7xx_hal.c ****   * @brief  Power-down the I/O Compensation Cell.
 782:./Libraries/STM32H7xx_HAL_Driver/Src/stm32h7xx_hal.c ****   * @note   The I/O compensation cell can be used only when the device supply
 783:./Libraries/STM32H7xx_HAL_Driver/Src/stm32h7xx_hal.c ****   *         voltage ranges from 1.62 to 2.0 V and from 2.7 to 3.6 V.
 784:./Libraries/STM32H7xx_HAL_Driver/Src/stm32h7xx_hal.c ****   * @retval None
 785:./Libraries/STM32H7xx_HAL_Driver/Src/stm32h7xx_hal.c ****   */
 786:./Libraries/STM32H7xx_HAL_Driver/Src/stm32h7xx_hal.c **** void HAL_DisableCompensationCell(void)
 787:./Libraries/STM32H7xx_HAL_Driver/Src/stm32h7xx_hal.c **** {
 1480              		.loc 1 787 1 is_stmt 1 view -0
 1481              		.cfi_startproc
 1482              		@ args = 0, pretend = 0, frame = 0
 1483              		@ frame_needed = 0, uses_anonymous_args = 0
 1484              		@ link register save eliminated.
 788:./Libraries/STM32H7xx_HAL_Driver/Src/stm32h7xx_hal.c ****   CLEAR_BIT(SYSCFG->CCCSR, SYSCFG_CCCSR_EN);
 1485              		.loc 1 788 3 view .LVU292
 1486 0000 024A     		ldr	r2, .L143
 1487 0002 136A     		ldr	r3, [r2, #32]
 1488 0004 23F00103 		bic	r3, r3, #1
 1489 0008 1362     		str	r3, [r2, #32]
 789:./Libraries/STM32H7xx_HAL_Driver/Src/stm32h7xx_hal.c **** }
 1490              		.loc 1 789 1 is_stmt 0 view .LVU293
 1491 000a 7047     		bx	lr
 1492              	.L144:
 1493              		.align	2
 1494              	.L143:
 1495 000c 00040058 		.word	1476396032
 1496              		.cfi_endproc
 1497              	.LFE366:
 1499              		.section	.text.HAL_SYSCFG_EnableIOSpeedOptimize,"ax",%progbits
 1500              		.align	1
 1501              		.p2align 2,,3
 1502              		.global	HAL_SYSCFG_EnableIOSpeedOptimize
 1503              		.syntax unified
ARM GAS  /tmp/ccHzGhIf.s 			page 42


 1504              		.thumb
 1505              		.thumb_func
 1506              		.fpu fpv5-d16
 1508              	HAL_SYSCFG_EnableIOSpeedOptimize:
 1509              	.LFB367:
 790:./Libraries/STM32H7xx_HAL_Driver/Src/stm32h7xx_hal.c **** 
 791:./Libraries/STM32H7xx_HAL_Driver/Src/stm32h7xx_hal.c **** 
 792:./Libraries/STM32H7xx_HAL_Driver/Src/stm32h7xx_hal.c **** /**
 793:./Libraries/STM32H7xx_HAL_Driver/Src/stm32h7xx_hal.c ****   * @brief  To Enable optimize the I/O speed when the product voltage is low.
 794:./Libraries/STM32H7xx_HAL_Driver/Src/stm32h7xx_hal.c ****   * @note   This bit is active only if PRODUCT_BELOW_25V user option bit is set. It must be
 795:./Libraries/STM32H7xx_HAL_Driver/Src/stm32h7xx_hal.c ****   *         used only if the product supply voltage is below 2.5 V. Setting this bit when VDD is
 796:./Libraries/STM32H7xx_HAL_Driver/Src/stm32h7xx_hal.c ****   *         higher than 2.5 V might be destructive.
 797:./Libraries/STM32H7xx_HAL_Driver/Src/stm32h7xx_hal.c ****   * @retval None
 798:./Libraries/STM32H7xx_HAL_Driver/Src/stm32h7xx_hal.c ****   */
 799:./Libraries/STM32H7xx_HAL_Driver/Src/stm32h7xx_hal.c **** void HAL_SYSCFG_EnableIOSpeedOptimize(void)
 800:./Libraries/STM32H7xx_HAL_Driver/Src/stm32h7xx_hal.c **** {
 1510              		.loc 1 800 1 is_stmt 1 view -0
 1511              		.cfi_startproc
 1512              		@ args = 0, pretend = 0, frame = 0
 1513              		@ frame_needed = 0, uses_anonymous_args = 0
 1514              		@ link register save eliminated.
 801:./Libraries/STM32H7xx_HAL_Driver/Src/stm32h7xx_hal.c **** #if defined(SYSCFG_CCCSR_HSLV)
 802:./Libraries/STM32H7xx_HAL_Driver/Src/stm32h7xx_hal.c ****   SET_BIT(SYSCFG->CCCSR, SYSCFG_CCCSR_HSLV);
 1515              		.loc 1 802 3 view .LVU295
 1516 0000 024A     		ldr	r2, .L146
 1517 0002 136A     		ldr	r3, [r2, #32]
 1518 0004 43F48033 		orr	r3, r3, #65536
 1519 0008 1362     		str	r3, [r2, #32]
 803:./Libraries/STM32H7xx_HAL_Driver/Src/stm32h7xx_hal.c **** #else
 804:./Libraries/STM32H7xx_HAL_Driver/Src/stm32h7xx_hal.c ****   SET_BIT(SYSCFG->CCCSR, (SYSCFG_CCCSR_HSLV0| SYSCFG_CCCSR_HSLV1 | SYSCFG_CCCSR_HSLV2  | SYSCFG_CCC
 805:./Libraries/STM32H7xx_HAL_Driver/Src/stm32h7xx_hal.c **** #endif   /* SYSCFG_CCCSR_HSLV */
 806:./Libraries/STM32H7xx_HAL_Driver/Src/stm32h7xx_hal.c **** }
 1520              		.loc 1 806 1 is_stmt 0 view .LVU296
 1521 000a 7047     		bx	lr
 1522              	.L147:
 1523              		.align	2
 1524              	.L146:
 1525 000c 00040058 		.word	1476396032
 1526              		.cfi_endproc
 1527              	.LFE367:
 1529              		.section	.text.HAL_SYSCFG_DisableIOSpeedOptimize,"ax",%progbits
 1530              		.align	1
 1531              		.p2align 2,,3
 1532              		.global	HAL_SYSCFG_DisableIOSpeedOptimize
 1533              		.syntax unified
 1534              		.thumb
 1535              		.thumb_func
 1536              		.fpu fpv5-d16
 1538              	HAL_SYSCFG_DisableIOSpeedOptimize:
 1539              	.LFB368:
 807:./Libraries/STM32H7xx_HAL_Driver/Src/stm32h7xx_hal.c **** 
 808:./Libraries/STM32H7xx_HAL_Driver/Src/stm32h7xx_hal.c **** /**
 809:./Libraries/STM32H7xx_HAL_Driver/Src/stm32h7xx_hal.c ****   * @brief  To Disable optimize the I/O speed when the product voltage is low.
 810:./Libraries/STM32H7xx_HAL_Driver/Src/stm32h7xx_hal.c ****   * @note   This bit is active only if PRODUCT_BELOW_25V user option bit is set. It must be
 811:./Libraries/STM32H7xx_HAL_Driver/Src/stm32h7xx_hal.c ****   *         used only if the product supply voltage is below 2.5 V. Setting this bit when VDD is
 812:./Libraries/STM32H7xx_HAL_Driver/Src/stm32h7xx_hal.c ****   *         higher than 2.5 V might be destructive.
 813:./Libraries/STM32H7xx_HAL_Driver/Src/stm32h7xx_hal.c ****   * @retval None
ARM GAS  /tmp/ccHzGhIf.s 			page 43


 814:./Libraries/STM32H7xx_HAL_Driver/Src/stm32h7xx_hal.c ****   */
 815:./Libraries/STM32H7xx_HAL_Driver/Src/stm32h7xx_hal.c **** void HAL_SYSCFG_DisableIOSpeedOptimize(void)
 816:./Libraries/STM32H7xx_HAL_Driver/Src/stm32h7xx_hal.c **** {
 1540              		.loc 1 816 1 is_stmt 1 view -0
 1541              		.cfi_startproc
 1542              		@ args = 0, pretend = 0, frame = 0
 1543              		@ frame_needed = 0, uses_anonymous_args = 0
 1544              		@ link register save eliminated.
 817:./Libraries/STM32H7xx_HAL_Driver/Src/stm32h7xx_hal.c **** #if defined(SYSCFG_CCCSR_HSLV)
 818:./Libraries/STM32H7xx_HAL_Driver/Src/stm32h7xx_hal.c ****   CLEAR_BIT(SYSCFG->CCCSR, SYSCFG_CCCSR_HSLV);
 1545              		.loc 1 818 3 view .LVU298
 1546 0000 024A     		ldr	r2, .L149
 1547 0002 136A     		ldr	r3, [r2, #32]
 1548 0004 23F48033 		bic	r3, r3, #65536
 1549 0008 1362     		str	r3, [r2, #32]
 819:./Libraries/STM32H7xx_HAL_Driver/Src/stm32h7xx_hal.c **** #else
 820:./Libraries/STM32H7xx_HAL_Driver/Src/stm32h7xx_hal.c ****   CLEAR_BIT(SYSCFG->CCCSR, (SYSCFG_CCCSR_HSLV0| SYSCFG_CCCSR_HSLV1 | SYSCFG_CCCSR_HSLV2  | SYSCFG_C
 821:./Libraries/STM32H7xx_HAL_Driver/Src/stm32h7xx_hal.c **** #endif   /* SYSCFG_CCCSR_HSLV */
 822:./Libraries/STM32H7xx_HAL_Driver/Src/stm32h7xx_hal.c **** }
 1550              		.loc 1 822 1 is_stmt 0 view .LVU299
 1551 000a 7047     		bx	lr
 1552              	.L150:
 1553              		.align	2
 1554              	.L149:
 1555 000c 00040058 		.word	1476396032
 1556              		.cfi_endproc
 1557              	.LFE368:
 1559              		.section	.text.HAL_SYSCFG_CompensationCodeSelect,"ax",%progbits
 1560              		.align	1
 1561              		.p2align 2,,3
 1562              		.global	HAL_SYSCFG_CompensationCodeSelect
 1563              		.syntax unified
 1564              		.thumb
 1565              		.thumb_func
 1566              		.fpu fpv5-d16
 1568              	HAL_SYSCFG_CompensationCodeSelect:
 1569              	.LVL54:
 1570              	.LFB369:
 823:./Libraries/STM32H7xx_HAL_Driver/Src/stm32h7xx_hal.c **** 
 824:./Libraries/STM32H7xx_HAL_Driver/Src/stm32h7xx_hal.c **** /**
 825:./Libraries/STM32H7xx_HAL_Driver/Src/stm32h7xx_hal.c ****   * @brief  Code selection for the I/O Compensation cell
 826:./Libraries/STM32H7xx_HAL_Driver/Src/stm32h7xx_hal.c ****   * @param  SYSCFG_CompCode: Selects the code to be applied for the I/O compensation cell
 827:./Libraries/STM32H7xx_HAL_Driver/Src/stm32h7xx_hal.c ****   *   This parameter can be one of the following values:
 828:./Libraries/STM32H7xx_HAL_Driver/Src/stm32h7xx_hal.c ****   *   @arg SYSCFG_CELL_CODE : Select Code from the cell (available in the SYSCFG_CCVR)
 829:./Libraries/STM32H7xx_HAL_Driver/Src/stm32h7xx_hal.c ****   *   @arg SYSCFG_REGISTER_CODE: Select Code from the SYSCFG compensation cell code register (SYSCF
 830:./Libraries/STM32H7xx_HAL_Driver/Src/stm32h7xx_hal.c ****   * @retval None
 831:./Libraries/STM32H7xx_HAL_Driver/Src/stm32h7xx_hal.c ****   */
 832:./Libraries/STM32H7xx_HAL_Driver/Src/stm32h7xx_hal.c **** void HAL_SYSCFG_CompensationCodeSelect(uint32_t SYSCFG_CompCode)
 833:./Libraries/STM32H7xx_HAL_Driver/Src/stm32h7xx_hal.c **** {
 1571              		.loc 1 833 1 is_stmt 1 view -0
 1572              		.cfi_startproc
 1573              		@ args = 0, pretend = 0, frame = 0
 1574              		@ frame_needed = 0, uses_anonymous_args = 0
 1575              		@ link register save eliminated.
 834:./Libraries/STM32H7xx_HAL_Driver/Src/stm32h7xx_hal.c ****   /* Check the parameter */
 835:./Libraries/STM32H7xx_HAL_Driver/Src/stm32h7xx_hal.c ****   assert_param(IS_SYSCFG_CODE_SELECT(SYSCFG_CompCode));
 1576              		.loc 1 835 3 view .LVU301
ARM GAS  /tmp/ccHzGhIf.s 			page 44


 836:./Libraries/STM32H7xx_HAL_Driver/Src/stm32h7xx_hal.c ****   MODIFY_REG(SYSCFG->CCCSR, SYSCFG_CCCSR_CS, (uint32_t)(SYSCFG_CompCode));
 1577              		.loc 1 836 3 view .LVU302
 1578 0000 034A     		ldr	r2, .L152
 1579 0002 136A     		ldr	r3, [r2, #32]
 1580 0004 23F00203 		bic	r3, r3, #2
 1581 0008 1843     		orrs	r0, r0, r3
 1582              	.LVL55:
 1583              		.loc 1 836 3 is_stmt 0 view .LVU303
 1584 000a 1062     		str	r0, [r2, #32]
 837:./Libraries/STM32H7xx_HAL_Driver/Src/stm32h7xx_hal.c **** }
 1585              		.loc 1 837 1 view .LVU304
 1586 000c 7047     		bx	lr
 1587              	.L153:
 1588 000e 00BF     		.align	2
 1589              	.L152:
 1590 0010 00040058 		.word	1476396032
 1591              		.cfi_endproc
 1592              	.LFE369:
 1594              		.section	.text.HAL_SYSCFG_CompensationCodeConfig,"ax",%progbits
 1595              		.align	1
 1596              		.p2align 2,,3
 1597              		.global	HAL_SYSCFG_CompensationCodeConfig
 1598              		.syntax unified
 1599              		.thumb
 1600              		.thumb_func
 1601              		.fpu fpv5-d16
 1603              	HAL_SYSCFG_CompensationCodeConfig:
 1604              	.LVL56:
 1605              	.LFB370:
 838:./Libraries/STM32H7xx_HAL_Driver/Src/stm32h7xx_hal.c **** 
 839:./Libraries/STM32H7xx_HAL_Driver/Src/stm32h7xx_hal.c **** /**
 840:./Libraries/STM32H7xx_HAL_Driver/Src/stm32h7xx_hal.c ****   * @brief  Code selection for the I/O Compensation cell
 841:./Libraries/STM32H7xx_HAL_Driver/Src/stm32h7xx_hal.c ****   * @param  SYSCFG_PMOSCode: PMOS compensation code
 842:./Libraries/STM32H7xx_HAL_Driver/Src/stm32h7xx_hal.c ****   *         This code is applied to the I/O compensation cell when the CS bit of the
 843:./Libraries/STM32H7xx_HAL_Driver/Src/stm32h7xx_hal.c ****   *          SYSCFG_CMPCR is set
 844:./Libraries/STM32H7xx_HAL_Driver/Src/stm32h7xx_hal.c ****   * @param  SYSCFG_NMOSCode: NMOS compensation code
 845:./Libraries/STM32H7xx_HAL_Driver/Src/stm32h7xx_hal.c ****   *         This code is applied to the I/O compensation cell when the CS bit of the
 846:./Libraries/STM32H7xx_HAL_Driver/Src/stm32h7xx_hal.c ****   *          SYSCFG_CMPCR is set
 847:./Libraries/STM32H7xx_HAL_Driver/Src/stm32h7xx_hal.c ****   * @retval None
 848:./Libraries/STM32H7xx_HAL_Driver/Src/stm32h7xx_hal.c ****   */
 849:./Libraries/STM32H7xx_HAL_Driver/Src/stm32h7xx_hal.c **** void HAL_SYSCFG_CompensationCodeConfig(uint32_t SYSCFG_PMOSCode, uint32_t SYSCFG_NMOSCode )
 850:./Libraries/STM32H7xx_HAL_Driver/Src/stm32h7xx_hal.c **** {
 1606              		.loc 1 850 1 is_stmt 1 view -0
 1607              		.cfi_startproc
 1608              		@ args = 0, pretend = 0, frame = 0
 1609              		@ frame_needed = 0, uses_anonymous_args = 0
 1610              		@ link register save eliminated.
 851:./Libraries/STM32H7xx_HAL_Driver/Src/stm32h7xx_hal.c ****   /* Check the parameter */
 852:./Libraries/STM32H7xx_HAL_Driver/Src/stm32h7xx_hal.c ****   assert_param(IS_SYSCFG_CODE_CONFIG(SYSCFG_PMOSCode));
 1611              		.loc 1 852 3 view .LVU306
 853:./Libraries/STM32H7xx_HAL_Driver/Src/stm32h7xx_hal.c ****   assert_param(IS_SYSCFG_CODE_CONFIG(SYSCFG_NMOSCode));
 1612              		.loc 1 853 3 view .LVU307
 854:./Libraries/STM32H7xx_HAL_Driver/Src/stm32h7xx_hal.c ****   MODIFY_REG(SYSCFG->CCCR, SYSCFG_CCCR_NCC|SYSCFG_CCCR_PCC, (((uint32_t)(SYSCFG_PMOSCode)<< 4)|(uin
 1613              		.loc 1 854 3 view .LVU308
 1614 0000 044A     		ldr	r2, .L155
 1615 0002 936A     		ldr	r3, [r2, #40]
 1616 0004 23F0FF03 		bic	r3, r3, #255
ARM GAS  /tmp/ccHzGhIf.s 			page 45


 1617 0008 1943     		orrs	r1, r1, r3
 1618              	.LVL57:
 1619              		.loc 1 854 3 is_stmt 0 view .LVU309
 1620 000a 41EA0010 		orr	r0, r1, r0, lsl #4
 1621              	.LVL58:
 1622              		.loc 1 854 3 view .LVU310
 1623 000e 9062     		str	r0, [r2, #40]
 855:./Libraries/STM32H7xx_HAL_Driver/Src/stm32h7xx_hal.c **** }
 1624              		.loc 1 855 1 view .LVU311
 1625 0010 7047     		bx	lr
 1626              	.L156:
 1627 0012 00BF     		.align	2
 1628              	.L155:
 1629 0014 00040058 		.word	1476396032
 1630              		.cfi_endproc
 1631              	.LFE370:
 1633              		.section	.text.HAL_DBGMCU_EnableDBGSleepMode,"ax",%progbits
 1634              		.align	1
 1635              		.p2align 2,,3
 1636              		.global	HAL_DBGMCU_EnableDBGSleepMode
 1637              		.syntax unified
 1638              		.thumb
 1639              		.thumb_func
 1640              		.fpu fpv5-d16
 1642              	HAL_DBGMCU_EnableDBGSleepMode:
 1643              	.LFB371:
 856:./Libraries/STM32H7xx_HAL_Driver/Src/stm32h7xx_hal.c **** 
 857:./Libraries/STM32H7xx_HAL_Driver/Src/stm32h7xx_hal.c **** #if defined(SYSCFG_CCCR_NCC_MMC)
 858:./Libraries/STM32H7xx_HAL_Driver/Src/stm32h7xx_hal.c **** /**
 859:./Libraries/STM32H7xx_HAL_Driver/Src/stm32h7xx_hal.c ****   * @brief  Code selection for the I/O Compensation cell
 860:./Libraries/STM32H7xx_HAL_Driver/Src/stm32h7xx_hal.c ****   * @param  SYSCFG_PMOSCode: VDDMMC PMOS compensation code
 861:./Libraries/STM32H7xx_HAL_Driver/Src/stm32h7xx_hal.c ****   *         This code is applied to the I/O compensation cell when the CS bit of the
 862:./Libraries/STM32H7xx_HAL_Driver/Src/stm32h7xx_hal.c ****   *          SYSCFG_CMPCR is set
 863:./Libraries/STM32H7xx_HAL_Driver/Src/stm32h7xx_hal.c ****   * @param  SYSCFG_NMOSCode: VDDMMC NMOS compensation code
 864:./Libraries/STM32H7xx_HAL_Driver/Src/stm32h7xx_hal.c ****   *         This code is applied to the I/O compensation cell when the CS bit of the
 865:./Libraries/STM32H7xx_HAL_Driver/Src/stm32h7xx_hal.c ****   *          SYSCFG_CMPCR is set
 866:./Libraries/STM32H7xx_HAL_Driver/Src/stm32h7xx_hal.c ****   * @retval None
 867:./Libraries/STM32H7xx_HAL_Driver/Src/stm32h7xx_hal.c ****   */
 868:./Libraries/STM32H7xx_HAL_Driver/Src/stm32h7xx_hal.c **** void HAL_SYSCFG_VDDMMC_CompensationCodeConfig(uint32_t SYSCFG_PMOSCode, uint32_t SYSCFG_NMOSCode )
 869:./Libraries/STM32H7xx_HAL_Driver/Src/stm32h7xx_hal.c **** {
 870:./Libraries/STM32H7xx_HAL_Driver/Src/stm32h7xx_hal.c ****   /* Check the parameter */
 871:./Libraries/STM32H7xx_HAL_Driver/Src/stm32h7xx_hal.c ****   assert_param(IS_SYSCFG_CODE_CONFIG(SYSCFG_PMOSCode));
 872:./Libraries/STM32H7xx_HAL_Driver/Src/stm32h7xx_hal.c ****   assert_param(IS_SYSCFG_CODE_CONFIG(SYSCFG_NMOSCode));
 873:./Libraries/STM32H7xx_HAL_Driver/Src/stm32h7xx_hal.c ****   MODIFY_REG(SYSCFG->CCCR, (SYSCFG_CCCR_NCC_MMC | SYSCFG_CCCR_PCC_MMC), (((uint32_t)(SYSCFG_PMOSCod
 874:./Libraries/STM32H7xx_HAL_Driver/Src/stm32h7xx_hal.c **** }
 875:./Libraries/STM32H7xx_HAL_Driver/Src/stm32h7xx_hal.c **** #endif /* SYSCFG_CCCR_NCC_MMC */
 876:./Libraries/STM32H7xx_HAL_Driver/Src/stm32h7xx_hal.c **** 
 877:./Libraries/STM32H7xx_HAL_Driver/Src/stm32h7xx_hal.c **** #if defined(SYSCFG_ADC2ALT_ADC2_ROUT0)
 878:./Libraries/STM32H7xx_HAL_Driver/Src/stm32h7xx_hal.c **** /** @brief  SYSCFG ADC2 internal input alternate connection macros
 879:./Libraries/STM32H7xx_HAL_Driver/Src/stm32h7xx_hal.c ****   * @param Adc2AltRout0 This parameter can be a value of :
 880:./Libraries/STM32H7xx_HAL_Driver/Src/stm32h7xx_hal.c ****   *     @arg @ref SYSCFG_ADC2_ROUT0_DAC1_1   DAC1_out1 connected to ADC2 VINP[16]
 881:./Libraries/STM32H7xx_HAL_Driver/Src/stm32h7xx_hal.c ****   *     @arg @ref SYSCFG_ADC2_ROUT0_VBAT4    VBAT/4 connected to ADC2 VINP[16]
 882:./Libraries/STM32H7xx_HAL_Driver/Src/stm32h7xx_hal.c ****   */
 883:./Libraries/STM32H7xx_HAL_Driver/Src/stm32h7xx_hal.c **** void HAL_SYSCFG_ADC2ALT_Rout0Config(uint32_t Adc2AltRout0)
 884:./Libraries/STM32H7xx_HAL_Driver/Src/stm32h7xx_hal.c **** {
 885:./Libraries/STM32H7xx_HAL_Driver/Src/stm32h7xx_hal.c ****   /* Check the parameters */
 886:./Libraries/STM32H7xx_HAL_Driver/Src/stm32h7xx_hal.c ****   assert_param(IS_SYSCFG_ADC2ALT_ROUT0(Adc2AltRout0));
ARM GAS  /tmp/ccHzGhIf.s 			page 46


 887:./Libraries/STM32H7xx_HAL_Driver/Src/stm32h7xx_hal.c **** 
 888:./Libraries/STM32H7xx_HAL_Driver/Src/stm32h7xx_hal.c ****   MODIFY_REG(SYSCFG->ADC2ALT, SYSCFG_ADC2ALT_ADC2_ROUT0, Adc2AltRout0);
 889:./Libraries/STM32H7xx_HAL_Driver/Src/stm32h7xx_hal.c **** }
 890:./Libraries/STM32H7xx_HAL_Driver/Src/stm32h7xx_hal.c **** /**
 891:./Libraries/STM32H7xx_HAL_Driver/Src/stm32h7xx_hal.c ****   * @}
 892:./Libraries/STM32H7xx_HAL_Driver/Src/stm32h7xx_hal.c ****   */
 893:./Libraries/STM32H7xx_HAL_Driver/Src/stm32h7xx_hal.c **** #endif /*SYSCFG_ADC2ALT_ADC2_ROUT0*/
 894:./Libraries/STM32H7xx_HAL_Driver/Src/stm32h7xx_hal.c **** 
 895:./Libraries/STM32H7xx_HAL_Driver/Src/stm32h7xx_hal.c **** #if defined(SYSCFG_ADC2ALT_ADC2_ROUT1)
 896:./Libraries/STM32H7xx_HAL_Driver/Src/stm32h7xx_hal.c **** /** @brief  SYSCFG ADC2 internal input alternate connection macros
 897:./Libraries/STM32H7xx_HAL_Driver/Src/stm32h7xx_hal.c ****   * @param Adc2AltRout1  This parameter can be a value of :
 898:./Libraries/STM32H7xx_HAL_Driver/Src/stm32h7xx_hal.c ****   *     @arg @ref SYSCFG_ADC2_ROUT1_DAC1_2   DAC1_out2 connected to ADC2 VINP[17]
 899:./Libraries/STM32H7xx_HAL_Driver/Src/stm32h7xx_hal.c ****   *     @arg @ref SYSCFG_ADC2_ROUT1_VREFINT  VREFINT connected to ADC2 VINP[17]
 900:./Libraries/STM32H7xx_HAL_Driver/Src/stm32h7xx_hal.c ****   */
 901:./Libraries/STM32H7xx_HAL_Driver/Src/stm32h7xx_hal.c **** void HAL_SYSCFG_ADC2ALT_Rout1Config(uint32_t Adc2AltRout1)
 902:./Libraries/STM32H7xx_HAL_Driver/Src/stm32h7xx_hal.c **** {
 903:./Libraries/STM32H7xx_HAL_Driver/Src/stm32h7xx_hal.c ****   /* Check the parameters */
 904:./Libraries/STM32H7xx_HAL_Driver/Src/stm32h7xx_hal.c ****   assert_param(IS_SYSCFG_ADC2ALT_ROUT1(Adc2AltRout1));
 905:./Libraries/STM32H7xx_HAL_Driver/Src/stm32h7xx_hal.c **** 
 906:./Libraries/STM32H7xx_HAL_Driver/Src/stm32h7xx_hal.c ****   MODIFY_REG(SYSCFG->ADC2ALT, SYSCFG_ADC2ALT_ADC2_ROUT1, Adc2AltRout1);
 907:./Libraries/STM32H7xx_HAL_Driver/Src/stm32h7xx_hal.c **** }
 908:./Libraries/STM32H7xx_HAL_Driver/Src/stm32h7xx_hal.c **** /**
 909:./Libraries/STM32H7xx_HAL_Driver/Src/stm32h7xx_hal.c ****   * @}
 910:./Libraries/STM32H7xx_HAL_Driver/Src/stm32h7xx_hal.c ****   */
 911:./Libraries/STM32H7xx_HAL_Driver/Src/stm32h7xx_hal.c **** #endif /*SYSCFG_ADC2ALT_ADC2_ROUT1*/
 912:./Libraries/STM32H7xx_HAL_Driver/Src/stm32h7xx_hal.c **** 
 913:./Libraries/STM32H7xx_HAL_Driver/Src/stm32h7xx_hal.c **** /**
 914:./Libraries/STM32H7xx_HAL_Driver/Src/stm32h7xx_hal.c ****   * @brief  Enable the Debug Module during Domain1/CDomain SLEEP mode
 915:./Libraries/STM32H7xx_HAL_Driver/Src/stm32h7xx_hal.c ****   * @retval None
 916:./Libraries/STM32H7xx_HAL_Driver/Src/stm32h7xx_hal.c ****   */
 917:./Libraries/STM32H7xx_HAL_Driver/Src/stm32h7xx_hal.c **** void HAL_EnableDBGSleepMode(void)
 918:./Libraries/STM32H7xx_HAL_Driver/Src/stm32h7xx_hal.c **** {
 1644              		.loc 1 918 1 is_stmt 1 view -0
 1645              		.cfi_startproc
 1646              		@ args = 0, pretend = 0, frame = 0
 1647              		@ frame_needed = 0, uses_anonymous_args = 0
 1648              		@ link register save eliminated.
 919:./Libraries/STM32H7xx_HAL_Driver/Src/stm32h7xx_hal.c ****   SET_BIT(DBGMCU->CR, DBGMCU_CR_DBG_SLEEPD1);
 1649              		.loc 1 919 3 view .LVU313
 1650 0000 024A     		ldr	r2, .L158
 1651 0002 5368     		ldr	r3, [r2, #4]
 1652 0004 43F00103 		orr	r3, r3, #1
 1653 0008 5360     		str	r3, [r2, #4]
 920:./Libraries/STM32H7xx_HAL_Driver/Src/stm32h7xx_hal.c **** }
 1654              		.loc 1 920 1 is_stmt 0 view .LVU314
 1655 000a 7047     		bx	lr
 1656              	.L159:
 1657              		.align	2
 1658              	.L158:
 1659 000c 0010005C 		.word	1543507968
 1660              		.cfi_endproc
 1661              	.LFE371:
 1663              		.section	.text.HAL_DBGMCU_DisableDBGSleepMode,"ax",%progbits
 1664              		.align	1
 1665              		.p2align 2,,3
 1666              		.global	HAL_DBGMCU_DisableDBGSleepMode
 1667              		.syntax unified
ARM GAS  /tmp/ccHzGhIf.s 			page 47


 1668              		.thumb
 1669              		.thumb_func
 1670              		.fpu fpv5-d16
 1672              	HAL_DBGMCU_DisableDBGSleepMode:
 1673              	.LFB372:
 921:./Libraries/STM32H7xx_HAL_Driver/Src/stm32h7xx_hal.c **** 
 922:./Libraries/STM32H7xx_HAL_Driver/Src/stm32h7xx_hal.c **** /**
 923:./Libraries/STM32H7xx_HAL_Driver/Src/stm32h7xx_hal.c ****   * @brief  Disable the Debug Module during Domain1/CDomain SLEEP mode
 924:./Libraries/STM32H7xx_HAL_Driver/Src/stm32h7xx_hal.c ****   * @retval None
 925:./Libraries/STM32H7xx_HAL_Driver/Src/stm32h7xx_hal.c ****   */
 926:./Libraries/STM32H7xx_HAL_Driver/Src/stm32h7xx_hal.c **** void HAL_DisableDBGSleepMode(void)
 927:./Libraries/STM32H7xx_HAL_Driver/Src/stm32h7xx_hal.c **** {
 1674              		.loc 1 927 1 is_stmt 1 view -0
 1675              		.cfi_startproc
 1676              		@ args = 0, pretend = 0, frame = 0
 1677              		@ frame_needed = 0, uses_anonymous_args = 0
 1678              		@ link register save eliminated.
 928:./Libraries/STM32H7xx_HAL_Driver/Src/stm32h7xx_hal.c ****   CLEAR_BIT(DBGMCU->CR, DBGMCU_CR_DBG_SLEEPD1);
 1679              		.loc 1 928 3 view .LVU316
 1680 0000 024A     		ldr	r2, .L161
 1681 0002 5368     		ldr	r3, [r2, #4]
 1682 0004 23F00103 		bic	r3, r3, #1
 1683 0008 5360     		str	r3, [r2, #4]
 929:./Libraries/STM32H7xx_HAL_Driver/Src/stm32h7xx_hal.c **** }
 1684              		.loc 1 929 1 is_stmt 0 view .LVU317
 1685 000a 7047     		bx	lr
 1686              	.L162:
 1687              		.align	2
 1688              	.L161:
 1689 000c 0010005C 		.word	1543507968
 1690              		.cfi_endproc
 1691              	.LFE372:
 1693              		.section	.text.HAL_DBGMCU_EnableDBGStopMode,"ax",%progbits
 1694              		.align	1
 1695              		.p2align 2,,3
 1696              		.global	HAL_DBGMCU_EnableDBGStopMode
 1697              		.syntax unified
 1698              		.thumb
 1699              		.thumb_func
 1700              		.fpu fpv5-d16
 1702              	HAL_DBGMCU_EnableDBGStopMode:
 1703              	.LFB373:
 930:./Libraries/STM32H7xx_HAL_Driver/Src/stm32h7xx_hal.c **** 
 931:./Libraries/STM32H7xx_HAL_Driver/Src/stm32h7xx_hal.c **** 
 932:./Libraries/STM32H7xx_HAL_Driver/Src/stm32h7xx_hal.c **** /**
 933:./Libraries/STM32H7xx_HAL_Driver/Src/stm32h7xx_hal.c ****   * @brief  Enable the Debug Module during Domain1/CDomain STOP mode
 934:./Libraries/STM32H7xx_HAL_Driver/Src/stm32h7xx_hal.c ****   * @retval None
 935:./Libraries/STM32H7xx_HAL_Driver/Src/stm32h7xx_hal.c ****   */
 936:./Libraries/STM32H7xx_HAL_Driver/Src/stm32h7xx_hal.c **** void HAL_EnableDBGStopMode(void)
 937:./Libraries/STM32H7xx_HAL_Driver/Src/stm32h7xx_hal.c **** {
 1704              		.loc 1 937 1 is_stmt 1 view -0
 1705              		.cfi_startproc
 1706              		@ args = 0, pretend = 0, frame = 0
 1707              		@ frame_needed = 0, uses_anonymous_args = 0
 1708              		@ link register save eliminated.
 938:./Libraries/STM32H7xx_HAL_Driver/Src/stm32h7xx_hal.c ****   SET_BIT(DBGMCU->CR, DBGMCU_CR_DBG_STOPD1);
 1709              		.loc 1 938 3 view .LVU319
ARM GAS  /tmp/ccHzGhIf.s 			page 48


 1710 0000 024A     		ldr	r2, .L164
 1711 0002 5368     		ldr	r3, [r2, #4]
 1712 0004 43F00203 		orr	r3, r3, #2
 1713 0008 5360     		str	r3, [r2, #4]
 939:./Libraries/STM32H7xx_HAL_Driver/Src/stm32h7xx_hal.c **** }
 1714              		.loc 1 939 1 is_stmt 0 view .LVU320
 1715 000a 7047     		bx	lr
 1716              	.L165:
 1717              		.align	2
 1718              	.L164:
 1719 000c 0010005C 		.word	1543507968
 1720              		.cfi_endproc
 1721              	.LFE373:
 1723              		.section	.text.HAL_DBGMCU_DisableDBGStopMode,"ax",%progbits
 1724              		.align	1
 1725              		.p2align 2,,3
 1726              		.global	HAL_DBGMCU_DisableDBGStopMode
 1727              		.syntax unified
 1728              		.thumb
 1729              		.thumb_func
 1730              		.fpu fpv5-d16
 1732              	HAL_DBGMCU_DisableDBGStopMode:
 1733              	.LFB374:
 940:./Libraries/STM32H7xx_HAL_Driver/Src/stm32h7xx_hal.c **** 
 941:./Libraries/STM32H7xx_HAL_Driver/Src/stm32h7xx_hal.c **** /**
 942:./Libraries/STM32H7xx_HAL_Driver/Src/stm32h7xx_hal.c ****   * @brief  Disable the Debug Module during Domain1/CDomain STOP mode
 943:./Libraries/STM32H7xx_HAL_Driver/Src/stm32h7xx_hal.c ****   * @retval None
 944:./Libraries/STM32H7xx_HAL_Driver/Src/stm32h7xx_hal.c ****   */
 945:./Libraries/STM32H7xx_HAL_Driver/Src/stm32h7xx_hal.c **** void HAL_DisableDBGStopMode(void)
 946:./Libraries/STM32H7xx_HAL_Driver/Src/stm32h7xx_hal.c **** {
 1734              		.loc 1 946 1 is_stmt 1 view -0
 1735              		.cfi_startproc
 1736              		@ args = 0, pretend = 0, frame = 0
 1737              		@ frame_needed = 0, uses_anonymous_args = 0
 1738              		@ link register save eliminated.
 947:./Libraries/STM32H7xx_HAL_Driver/Src/stm32h7xx_hal.c ****   CLEAR_BIT(DBGMCU->CR, DBGMCU_CR_DBG_STOPD1);
 1739              		.loc 1 947 3 view .LVU322
 1740 0000 024A     		ldr	r2, .L167
 1741 0002 5368     		ldr	r3, [r2, #4]
 1742 0004 23F00203 		bic	r3, r3, #2
 1743 0008 5360     		str	r3, [r2, #4]
 948:./Libraries/STM32H7xx_HAL_Driver/Src/stm32h7xx_hal.c **** }
 1744              		.loc 1 948 1 is_stmt 0 view .LVU323
 1745 000a 7047     		bx	lr
 1746              	.L168:
 1747              		.align	2
 1748              	.L167:
 1749 000c 0010005C 		.word	1543507968
 1750              		.cfi_endproc
 1751              	.LFE374:
 1753              		.section	.text.HAL_DBGMCU_EnableDBGStandbyMode,"ax",%progbits
 1754              		.align	1
 1755              		.p2align 2,,3
 1756              		.global	HAL_DBGMCU_EnableDBGStandbyMode
 1757              		.syntax unified
 1758              		.thumb
 1759              		.thumb_func
ARM GAS  /tmp/ccHzGhIf.s 			page 49


 1760              		.fpu fpv5-d16
 1762              	HAL_DBGMCU_EnableDBGStandbyMode:
 1763              	.LFB375:
 949:./Libraries/STM32H7xx_HAL_Driver/Src/stm32h7xx_hal.c **** 
 950:./Libraries/STM32H7xx_HAL_Driver/Src/stm32h7xx_hal.c **** /**
 951:./Libraries/STM32H7xx_HAL_Driver/Src/stm32h7xx_hal.c ****   * @brief  Enable the Debug Module during Domain1/CDomain STANDBY mode
 952:./Libraries/STM32H7xx_HAL_Driver/Src/stm32h7xx_hal.c ****   * @retval None
 953:./Libraries/STM32H7xx_HAL_Driver/Src/stm32h7xx_hal.c ****   */
 954:./Libraries/STM32H7xx_HAL_Driver/Src/stm32h7xx_hal.c **** void HAL_EnableDBGStandbyMode(void)
 955:./Libraries/STM32H7xx_HAL_Driver/Src/stm32h7xx_hal.c **** {
 1764              		.loc 1 955 1 is_stmt 1 view -0
 1765              		.cfi_startproc
 1766              		@ args = 0, pretend = 0, frame = 0
 1767              		@ frame_needed = 0, uses_anonymous_args = 0
 1768              		@ link register save eliminated.
 956:./Libraries/STM32H7xx_HAL_Driver/Src/stm32h7xx_hal.c ****   SET_BIT(DBGMCU->CR, DBGMCU_CR_DBG_STANDBYD1);
 1769              		.loc 1 956 3 view .LVU325
 1770 0000 024A     		ldr	r2, .L170
 1771 0002 5368     		ldr	r3, [r2, #4]
 1772 0004 43F00403 		orr	r3, r3, #4
 1773 0008 5360     		str	r3, [r2, #4]
 957:./Libraries/STM32H7xx_HAL_Driver/Src/stm32h7xx_hal.c **** }
 1774              		.loc 1 957 1 is_stmt 0 view .LVU326
 1775 000a 7047     		bx	lr
 1776              	.L171:
 1777              		.align	2
 1778              	.L170:
 1779 000c 0010005C 		.word	1543507968
 1780              		.cfi_endproc
 1781              	.LFE375:
 1783              		.section	.text.HAL_DBGMCU_DisableDBGStandbyMode,"ax",%progbits
 1784              		.align	1
 1785              		.p2align 2,,3
 1786              		.global	HAL_DBGMCU_DisableDBGStandbyMode
 1787              		.syntax unified
 1788              		.thumb
 1789              		.thumb_func
 1790              		.fpu fpv5-d16
 1792              	HAL_DBGMCU_DisableDBGStandbyMode:
 1793              	.LFB376:
 958:./Libraries/STM32H7xx_HAL_Driver/Src/stm32h7xx_hal.c **** 
 959:./Libraries/STM32H7xx_HAL_Driver/Src/stm32h7xx_hal.c **** /**
 960:./Libraries/STM32H7xx_HAL_Driver/Src/stm32h7xx_hal.c ****   * @brief  Disable the Debug Module during Domain1/CDomain STANDBY mode
 961:./Libraries/STM32H7xx_HAL_Driver/Src/stm32h7xx_hal.c ****   * @retval None
 962:./Libraries/STM32H7xx_HAL_Driver/Src/stm32h7xx_hal.c ****   */
 963:./Libraries/STM32H7xx_HAL_Driver/Src/stm32h7xx_hal.c **** void HAL_DisableDBGStandbyMode(void)
 964:./Libraries/STM32H7xx_HAL_Driver/Src/stm32h7xx_hal.c **** {
 1794              		.loc 1 964 1 is_stmt 1 view -0
 1795              		.cfi_startproc
 1796              		@ args = 0, pretend = 0, frame = 0
 1797              		@ frame_needed = 0, uses_anonymous_args = 0
 1798              		@ link register save eliminated.
 965:./Libraries/STM32H7xx_HAL_Driver/Src/stm32h7xx_hal.c ****   CLEAR_BIT(DBGMCU->CR, DBGMCU_CR_DBG_STANDBYD1);
 1799              		.loc 1 965 3 view .LVU328
 1800 0000 024A     		ldr	r2, .L173
 1801 0002 5368     		ldr	r3, [r2, #4]
 1802 0004 23F00403 		bic	r3, r3, #4
ARM GAS  /tmp/ccHzGhIf.s 			page 50


 1803 0008 5360     		str	r3, [r2, #4]
 966:./Libraries/STM32H7xx_HAL_Driver/Src/stm32h7xx_hal.c **** }
 1804              		.loc 1 966 1 is_stmt 0 view .LVU329
 1805 000a 7047     		bx	lr
 1806              	.L174:
 1807              		.align	2
 1808              	.L173:
 1809 000c 0010005C 		.word	1543507968
 1810              		.cfi_endproc
 1811              	.LFE376:
 1813              		.section	.text.HAL_EnableDomain2DBGSleepMode,"ax",%progbits
 1814              		.align	1
 1815              		.p2align 2,,3
 1816              		.global	HAL_EnableDomain2DBGSleepMode
 1817              		.syntax unified
 1818              		.thumb
 1819              		.thumb_func
 1820              		.fpu fpv5-d16
 1822              	HAL_EnableDomain2DBGSleepMode:
 1823              	.LFB377:
 967:./Libraries/STM32H7xx_HAL_Driver/Src/stm32h7xx_hal.c **** 
 968:./Libraries/STM32H7xx_HAL_Driver/Src/stm32h7xx_hal.c **** #if defined(DUAL_CORE)
 969:./Libraries/STM32H7xx_HAL_Driver/Src/stm32h7xx_hal.c **** /**
 970:./Libraries/STM32H7xx_HAL_Driver/Src/stm32h7xx_hal.c ****   * @brief  Enable the Debug Module during Domain1 SLEEP mode
 971:./Libraries/STM32H7xx_HAL_Driver/Src/stm32h7xx_hal.c ****   * @retval None
 972:./Libraries/STM32H7xx_HAL_Driver/Src/stm32h7xx_hal.c ****   */
 973:./Libraries/STM32H7xx_HAL_Driver/Src/stm32h7xx_hal.c **** void HAL_EnableDomain2DBGSleepMode(void)
 974:./Libraries/STM32H7xx_HAL_Driver/Src/stm32h7xx_hal.c **** {
 1824              		.loc 1 974 1 is_stmt 1 view -0
 1825              		.cfi_startproc
 1826              		@ args = 0, pretend = 0, frame = 0
 1827              		@ frame_needed = 0, uses_anonymous_args = 0
 1828              		@ link register save eliminated.
 975:./Libraries/STM32H7xx_HAL_Driver/Src/stm32h7xx_hal.c ****   SET_BIT(DBGMCU->CR, DBGMCU_CR_DBG_SLEEPD2);
 1829              		.loc 1 975 3 view .LVU331
 1830 0000 024A     		ldr	r2, .L176
 1831 0002 5368     		ldr	r3, [r2, #4]
 1832 0004 43F00803 		orr	r3, r3, #8
 1833 0008 5360     		str	r3, [r2, #4]
 976:./Libraries/STM32H7xx_HAL_Driver/Src/stm32h7xx_hal.c **** }
 1834              		.loc 1 976 1 is_stmt 0 view .LVU332
 1835 000a 7047     		bx	lr
 1836              	.L177:
 1837              		.align	2
 1838              	.L176:
 1839 000c 0010005C 		.word	1543507968
 1840              		.cfi_endproc
 1841              	.LFE377:
 1843              		.section	.text.HAL_DisableDomain2DBGSleepMode,"ax",%progbits
 1844              		.align	1
 1845              		.p2align 2,,3
 1846              		.global	HAL_DisableDomain2DBGSleepMode
 1847              		.syntax unified
 1848              		.thumb
 1849              		.thumb_func
 1850              		.fpu fpv5-d16
 1852              	HAL_DisableDomain2DBGSleepMode:
ARM GAS  /tmp/ccHzGhIf.s 			page 51


 1853              	.LFB378:
 977:./Libraries/STM32H7xx_HAL_Driver/Src/stm32h7xx_hal.c **** 
 978:./Libraries/STM32H7xx_HAL_Driver/Src/stm32h7xx_hal.c **** /**
 979:./Libraries/STM32H7xx_HAL_Driver/Src/stm32h7xx_hal.c ****   * @brief  Disable the Debug Module during Domain2 SLEEP mode
 980:./Libraries/STM32H7xx_HAL_Driver/Src/stm32h7xx_hal.c ****   * @retval None
 981:./Libraries/STM32H7xx_HAL_Driver/Src/stm32h7xx_hal.c ****   */
 982:./Libraries/STM32H7xx_HAL_Driver/Src/stm32h7xx_hal.c **** void HAL_DisableDomain2DBGSleepMode(void)
 983:./Libraries/STM32H7xx_HAL_Driver/Src/stm32h7xx_hal.c **** {
 1854              		.loc 1 983 1 is_stmt 1 view -0
 1855              		.cfi_startproc
 1856              		@ args = 0, pretend = 0, frame = 0
 1857              		@ frame_needed = 0, uses_anonymous_args = 0
 1858              		@ link register save eliminated.
 984:./Libraries/STM32H7xx_HAL_Driver/Src/stm32h7xx_hal.c ****   CLEAR_BIT(DBGMCU->CR, DBGMCU_CR_DBG_SLEEPD2);
 1859              		.loc 1 984 3 view .LVU334
 1860 0000 024A     		ldr	r2, .L179
 1861 0002 5368     		ldr	r3, [r2, #4]
 1862 0004 23F00803 		bic	r3, r3, #8
 1863 0008 5360     		str	r3, [r2, #4]
 985:./Libraries/STM32H7xx_HAL_Driver/Src/stm32h7xx_hal.c **** }
 1864              		.loc 1 985 1 is_stmt 0 view .LVU335
 1865 000a 7047     		bx	lr
 1866              	.L180:
 1867              		.align	2
 1868              	.L179:
 1869 000c 0010005C 		.word	1543507968
 1870              		.cfi_endproc
 1871              	.LFE378:
 1873              		.section	.text.HAL_EnableDomain2DBGStopMode,"ax",%progbits
 1874              		.align	1
 1875              		.p2align 2,,3
 1876              		.global	HAL_EnableDomain2DBGStopMode
 1877              		.syntax unified
 1878              		.thumb
 1879              		.thumb_func
 1880              		.fpu fpv5-d16
 1882              	HAL_EnableDomain2DBGStopMode:
 1883              	.LFB379:
 986:./Libraries/STM32H7xx_HAL_Driver/Src/stm32h7xx_hal.c **** 
 987:./Libraries/STM32H7xx_HAL_Driver/Src/stm32h7xx_hal.c **** /**
 988:./Libraries/STM32H7xx_HAL_Driver/Src/stm32h7xx_hal.c ****   * @brief  Enable the Debug Module during Domain2 STOP mode
 989:./Libraries/STM32H7xx_HAL_Driver/Src/stm32h7xx_hal.c ****   * @retval None
 990:./Libraries/STM32H7xx_HAL_Driver/Src/stm32h7xx_hal.c ****   */
 991:./Libraries/STM32H7xx_HAL_Driver/Src/stm32h7xx_hal.c **** void HAL_EnableDomain2DBGStopMode(void)
 992:./Libraries/STM32H7xx_HAL_Driver/Src/stm32h7xx_hal.c **** {
 1884              		.loc 1 992 1 is_stmt 1 view -0
 1885              		.cfi_startproc
 1886              		@ args = 0, pretend = 0, frame = 0
 1887              		@ frame_needed = 0, uses_anonymous_args = 0
 1888              		@ link register save eliminated.
 993:./Libraries/STM32H7xx_HAL_Driver/Src/stm32h7xx_hal.c ****   SET_BIT(DBGMCU->CR, DBGMCU_CR_DBG_STOPD2);
 1889              		.loc 1 993 3 view .LVU337
 1890 0000 024A     		ldr	r2, .L182
 1891 0002 5368     		ldr	r3, [r2, #4]
 1892 0004 43F01003 		orr	r3, r3, #16
 1893 0008 5360     		str	r3, [r2, #4]
 994:./Libraries/STM32H7xx_HAL_Driver/Src/stm32h7xx_hal.c **** }
ARM GAS  /tmp/ccHzGhIf.s 			page 52


 1894              		.loc 1 994 1 is_stmt 0 view .LVU338
 1895 000a 7047     		bx	lr
 1896              	.L183:
 1897              		.align	2
 1898              	.L182:
 1899 000c 0010005C 		.word	1543507968
 1900              		.cfi_endproc
 1901              	.LFE379:
 1903              		.section	.text.HAL_DisableDomain2DBGStopMode,"ax",%progbits
 1904              		.align	1
 1905              		.p2align 2,,3
 1906              		.global	HAL_DisableDomain2DBGStopMode
 1907              		.syntax unified
 1908              		.thumb
 1909              		.thumb_func
 1910              		.fpu fpv5-d16
 1912              	HAL_DisableDomain2DBGStopMode:
 1913              	.LFB380:
 995:./Libraries/STM32H7xx_HAL_Driver/Src/stm32h7xx_hal.c **** 
 996:./Libraries/STM32H7xx_HAL_Driver/Src/stm32h7xx_hal.c **** /**
 997:./Libraries/STM32H7xx_HAL_Driver/Src/stm32h7xx_hal.c ****   * @brief  Disable the Debug Module during Domain2 STOP mode
 998:./Libraries/STM32H7xx_HAL_Driver/Src/stm32h7xx_hal.c ****   * @retval None
 999:./Libraries/STM32H7xx_HAL_Driver/Src/stm32h7xx_hal.c ****   */
1000:./Libraries/STM32H7xx_HAL_Driver/Src/stm32h7xx_hal.c **** void HAL_DisableDomain2DBGStopMode(void)
1001:./Libraries/STM32H7xx_HAL_Driver/Src/stm32h7xx_hal.c **** {
 1914              		.loc 1 1001 1 is_stmt 1 view -0
 1915              		.cfi_startproc
 1916              		@ args = 0, pretend = 0, frame = 0
 1917              		@ frame_needed = 0, uses_anonymous_args = 0
 1918              		@ link register save eliminated.
1002:./Libraries/STM32H7xx_HAL_Driver/Src/stm32h7xx_hal.c ****   CLEAR_BIT(DBGMCU->CR, DBGMCU_CR_DBG_STOPD2);
 1919              		.loc 1 1002 3 view .LVU340
 1920 0000 024A     		ldr	r2, .L185
 1921 0002 5368     		ldr	r3, [r2, #4]
 1922 0004 23F01003 		bic	r3, r3, #16
 1923 0008 5360     		str	r3, [r2, #4]
1003:./Libraries/STM32H7xx_HAL_Driver/Src/stm32h7xx_hal.c **** }
 1924              		.loc 1 1003 1 is_stmt 0 view .LVU341
 1925 000a 7047     		bx	lr
 1926              	.L186:
 1927              		.align	2
 1928              	.L185:
 1929 000c 0010005C 		.word	1543507968
 1930              		.cfi_endproc
 1931              	.LFE380:
 1933              		.section	.text.HAL_EnableDomain2DBGStandbyMode,"ax",%progbits
 1934              		.align	1
 1935              		.p2align 2,,3
 1936              		.global	HAL_EnableDomain2DBGStandbyMode
 1937              		.syntax unified
 1938              		.thumb
 1939              		.thumb_func
 1940              		.fpu fpv5-d16
 1942              	HAL_EnableDomain2DBGStandbyMode:
 1943              	.LFB381:
1004:./Libraries/STM32H7xx_HAL_Driver/Src/stm32h7xx_hal.c **** 
1005:./Libraries/STM32H7xx_HAL_Driver/Src/stm32h7xx_hal.c **** /**
ARM GAS  /tmp/ccHzGhIf.s 			page 53


1006:./Libraries/STM32H7xx_HAL_Driver/Src/stm32h7xx_hal.c ****   * @brief  Enable the Debug Module during Domain2 STANDBY mode
1007:./Libraries/STM32H7xx_HAL_Driver/Src/stm32h7xx_hal.c ****   * @retval None
1008:./Libraries/STM32H7xx_HAL_Driver/Src/stm32h7xx_hal.c ****   */
1009:./Libraries/STM32H7xx_HAL_Driver/Src/stm32h7xx_hal.c **** void HAL_EnableDomain2DBGStandbyMode(void)
1010:./Libraries/STM32H7xx_HAL_Driver/Src/stm32h7xx_hal.c **** {
 1944              		.loc 1 1010 1 is_stmt 1 view -0
 1945              		.cfi_startproc
 1946              		@ args = 0, pretend = 0, frame = 0
 1947              		@ frame_needed = 0, uses_anonymous_args = 0
 1948              		@ link register save eliminated.
1011:./Libraries/STM32H7xx_HAL_Driver/Src/stm32h7xx_hal.c ****   SET_BIT(DBGMCU->CR, DBGMCU_CR_DBG_STANDBYD2);
 1949              		.loc 1 1011 3 view .LVU343
 1950 0000 024A     		ldr	r2, .L188
 1951 0002 5368     		ldr	r3, [r2, #4]
 1952 0004 43F02003 		orr	r3, r3, #32
 1953 0008 5360     		str	r3, [r2, #4]
1012:./Libraries/STM32H7xx_HAL_Driver/Src/stm32h7xx_hal.c **** }
 1954              		.loc 1 1012 1 is_stmt 0 view .LVU344
 1955 000a 7047     		bx	lr
 1956              	.L189:
 1957              		.align	2
 1958              	.L188:
 1959 000c 0010005C 		.word	1543507968
 1960              		.cfi_endproc
 1961              	.LFE381:
 1963              		.section	.text.HAL_DisableDomain2DBGStandbyMode,"ax",%progbits
 1964              		.align	1
 1965              		.p2align 2,,3
 1966              		.global	HAL_DisableDomain2DBGStandbyMode
 1967              		.syntax unified
 1968              		.thumb
 1969              		.thumb_func
 1970              		.fpu fpv5-d16
 1972              	HAL_DisableDomain2DBGStandbyMode:
 1973              	.LFB382:
1013:./Libraries/STM32H7xx_HAL_Driver/Src/stm32h7xx_hal.c **** 
1014:./Libraries/STM32H7xx_HAL_Driver/Src/stm32h7xx_hal.c **** /**
1015:./Libraries/STM32H7xx_HAL_Driver/Src/stm32h7xx_hal.c ****   * @brief  Disable the Debug Module during Domain2 STANDBY mode
1016:./Libraries/STM32H7xx_HAL_Driver/Src/stm32h7xx_hal.c ****   * @retval None
1017:./Libraries/STM32H7xx_HAL_Driver/Src/stm32h7xx_hal.c ****   */
1018:./Libraries/STM32H7xx_HAL_Driver/Src/stm32h7xx_hal.c **** void HAL_DisableDomain2DBGStandbyMode(void)
1019:./Libraries/STM32H7xx_HAL_Driver/Src/stm32h7xx_hal.c **** {
 1974              		.loc 1 1019 1 is_stmt 1 view -0
 1975              		.cfi_startproc
 1976              		@ args = 0, pretend = 0, frame = 0
 1977              		@ frame_needed = 0, uses_anonymous_args = 0
 1978              		@ link register save eliminated.
1020:./Libraries/STM32H7xx_HAL_Driver/Src/stm32h7xx_hal.c ****   CLEAR_BIT(DBGMCU->CR, DBGMCU_CR_DBG_STANDBYD2);
 1979              		.loc 1 1020 3 view .LVU346
 1980 0000 024A     		ldr	r2, .L191
 1981 0002 5368     		ldr	r3, [r2, #4]
 1982 0004 23F02003 		bic	r3, r3, #32
 1983 0008 5360     		str	r3, [r2, #4]
1021:./Libraries/STM32H7xx_HAL_Driver/Src/stm32h7xx_hal.c **** }
 1984              		.loc 1 1021 1 is_stmt 0 view .LVU347
 1985 000a 7047     		bx	lr
 1986              	.L192:
ARM GAS  /tmp/ccHzGhIf.s 			page 54


 1987              		.align	2
 1988              	.L191:
 1989 000c 0010005C 		.word	1543507968
 1990              		.cfi_endproc
 1991              	.LFE382:
 1993              		.section	.text.HAL_SetFMCMemorySwappingConfig,"ax",%progbits
 1994              		.align	1
 1995              		.p2align 2,,3
 1996              		.global	HAL_SetFMCMemorySwappingConfig
 1997              		.syntax unified
 1998              		.thumb
 1999              		.thumb_func
 2000              		.fpu fpv5-d16
 2002              	HAL_SetFMCMemorySwappingConfig:
 2003              	.LVL59:
 2004              	.LFB383:
1022:./Libraries/STM32H7xx_HAL_Driver/Src/stm32h7xx_hal.c **** #endif /*DUAL_CORE*/
1023:./Libraries/STM32H7xx_HAL_Driver/Src/stm32h7xx_hal.c **** 
1024:./Libraries/STM32H7xx_HAL_Driver/Src/stm32h7xx_hal.c **** #if defined(DBGMCU_CR_DBG_STOPD3)
1025:./Libraries/STM32H7xx_HAL_Driver/Src/stm32h7xx_hal.c **** /**
1026:./Libraries/STM32H7xx_HAL_Driver/Src/stm32h7xx_hal.c ****   * @brief  Enable the Debug Module during Domain3/SRDomain STOP mode
1027:./Libraries/STM32H7xx_HAL_Driver/Src/stm32h7xx_hal.c ****   * @retval None
1028:./Libraries/STM32H7xx_HAL_Driver/Src/stm32h7xx_hal.c ****   */
1029:./Libraries/STM32H7xx_HAL_Driver/Src/stm32h7xx_hal.c **** void HAL_EnableDomain3DBGStopMode(void)
1030:./Libraries/STM32H7xx_HAL_Driver/Src/stm32h7xx_hal.c **** {
1031:./Libraries/STM32H7xx_HAL_Driver/Src/stm32h7xx_hal.c ****   SET_BIT(DBGMCU->CR, DBGMCU_CR_DBG_STOPD3);
1032:./Libraries/STM32H7xx_HAL_Driver/Src/stm32h7xx_hal.c **** }
1033:./Libraries/STM32H7xx_HAL_Driver/Src/stm32h7xx_hal.c **** 
1034:./Libraries/STM32H7xx_HAL_Driver/Src/stm32h7xx_hal.c **** /**
1035:./Libraries/STM32H7xx_HAL_Driver/Src/stm32h7xx_hal.c ****   * @brief  Disable the Debug Module during Domain3/SRDomain STOP mode
1036:./Libraries/STM32H7xx_HAL_Driver/Src/stm32h7xx_hal.c ****   * @retval None
1037:./Libraries/STM32H7xx_HAL_Driver/Src/stm32h7xx_hal.c ****   */
1038:./Libraries/STM32H7xx_HAL_Driver/Src/stm32h7xx_hal.c **** void HAL_DisableDomain3DBGStopMode(void)
1039:./Libraries/STM32H7xx_HAL_Driver/Src/stm32h7xx_hal.c **** {
1040:./Libraries/STM32H7xx_HAL_Driver/Src/stm32h7xx_hal.c ****   CLEAR_BIT(DBGMCU->CR, DBGMCU_CR_DBG_STOPD3);
1041:./Libraries/STM32H7xx_HAL_Driver/Src/stm32h7xx_hal.c **** }
1042:./Libraries/STM32H7xx_HAL_Driver/Src/stm32h7xx_hal.c **** #endif /*DBGMCU_CR_DBG_STOPD3*/
1043:./Libraries/STM32H7xx_HAL_Driver/Src/stm32h7xx_hal.c **** 
1044:./Libraries/STM32H7xx_HAL_Driver/Src/stm32h7xx_hal.c **** #if defined(DBGMCU_CR_DBG_STANDBYD3)
1045:./Libraries/STM32H7xx_HAL_Driver/Src/stm32h7xx_hal.c **** /**
1046:./Libraries/STM32H7xx_HAL_Driver/Src/stm32h7xx_hal.c ****   * @brief  Enable the Debug Module during Domain3/SRDomain STANDBY mode
1047:./Libraries/STM32H7xx_HAL_Driver/Src/stm32h7xx_hal.c ****   * @retval None
1048:./Libraries/STM32H7xx_HAL_Driver/Src/stm32h7xx_hal.c ****   */
1049:./Libraries/STM32H7xx_HAL_Driver/Src/stm32h7xx_hal.c **** void HAL_EnableDomain3DBGStandbyMode(void)
1050:./Libraries/STM32H7xx_HAL_Driver/Src/stm32h7xx_hal.c **** {
1051:./Libraries/STM32H7xx_HAL_Driver/Src/stm32h7xx_hal.c ****   SET_BIT(DBGMCU->CR, DBGMCU_CR_DBG_STANDBYD3);
1052:./Libraries/STM32H7xx_HAL_Driver/Src/stm32h7xx_hal.c **** }
1053:./Libraries/STM32H7xx_HAL_Driver/Src/stm32h7xx_hal.c **** 
1054:./Libraries/STM32H7xx_HAL_Driver/Src/stm32h7xx_hal.c **** /**
1055:./Libraries/STM32H7xx_HAL_Driver/Src/stm32h7xx_hal.c ****   * @brief  Disable the Debug Module during Domain3/SRDomain STANDBY mode
1056:./Libraries/STM32H7xx_HAL_Driver/Src/stm32h7xx_hal.c ****   * @retval None
1057:./Libraries/STM32H7xx_HAL_Driver/Src/stm32h7xx_hal.c ****   */
1058:./Libraries/STM32H7xx_HAL_Driver/Src/stm32h7xx_hal.c **** void HAL_DisableDomain3DBGStandbyMode(void)
1059:./Libraries/STM32H7xx_HAL_Driver/Src/stm32h7xx_hal.c **** {
1060:./Libraries/STM32H7xx_HAL_Driver/Src/stm32h7xx_hal.c ****   CLEAR_BIT(DBGMCU->CR, DBGMCU_CR_DBG_STANDBYD3);
1061:./Libraries/STM32H7xx_HAL_Driver/Src/stm32h7xx_hal.c **** }
1062:./Libraries/STM32H7xx_HAL_Driver/Src/stm32h7xx_hal.c **** #endif /*DBGMCU_CR_DBG_STANDBYD3*/
ARM GAS  /tmp/ccHzGhIf.s 			page 55


1063:./Libraries/STM32H7xx_HAL_Driver/Src/stm32h7xx_hal.c **** 
1064:./Libraries/STM32H7xx_HAL_Driver/Src/stm32h7xx_hal.c **** /**
1065:./Libraries/STM32H7xx_HAL_Driver/Src/stm32h7xx_hal.c ****   * @brief  Set the FMC Memory Mapping Swapping config.
1066:./Libraries/STM32H7xx_HAL_Driver/Src/stm32h7xx_hal.c ****   * @param  BankMapConfig: Defines the FMC Bank mapping configuration. This parameter can be
1067:./Libraries/STM32H7xx_HAL_Driver/Src/stm32h7xx_hal.c ****             FMC_SWAPBMAP_DISABLE, FMC_SWAPBMAP_SDRAM_SRAM, FMC_SWAPBMAP_SDRAMB2
1068:./Libraries/STM32H7xx_HAL_Driver/Src/stm32h7xx_hal.c ****   * @retval HAL state
1069:./Libraries/STM32H7xx_HAL_Driver/Src/stm32h7xx_hal.c ****   */
1070:./Libraries/STM32H7xx_HAL_Driver/Src/stm32h7xx_hal.c **** void HAL_SetFMCMemorySwappingConfig(uint32_t BankMapConfig)
1071:./Libraries/STM32H7xx_HAL_Driver/Src/stm32h7xx_hal.c **** {
 2005              		.loc 1 1071 1 is_stmt 1 view -0
 2006              		.cfi_startproc
 2007              		@ args = 0, pretend = 0, frame = 0
 2008              		@ frame_needed = 0, uses_anonymous_args = 0
 2009              		@ link register save eliminated.
1072:./Libraries/STM32H7xx_HAL_Driver/Src/stm32h7xx_hal.c ****   /* Check the parameter */
1073:./Libraries/STM32H7xx_HAL_Driver/Src/stm32h7xx_hal.c ****   assert_param(IS_FMC_SWAPBMAP_MODE(BankMapConfig));
 2010              		.loc 1 1073 3 view .LVU349
1074:./Libraries/STM32H7xx_HAL_Driver/Src/stm32h7xx_hal.c ****   MODIFY_REG(FMC_Bank1_R->BTCR[0], FMC_BCR1_BMAP, BankMapConfig);
 2011              		.loc 1 1074 3 view .LVU350
 2012 0000 034A     		ldr	r2, .L194
 2013 0002 1368     		ldr	r3, [r2]
 2014 0004 23F04073 		bic	r3, r3, #50331648
 2015 0008 1843     		orrs	r0, r0, r3
 2016              	.LVL60:
 2017              		.loc 1 1074 3 is_stmt 0 view .LVU351
 2018 000a 1060     		str	r0, [r2]
1075:./Libraries/STM32H7xx_HAL_Driver/Src/stm32h7xx_hal.c **** }
 2019              		.loc 1 1075 1 view .LVU352
 2020 000c 7047     		bx	lr
 2021              	.L195:
 2022 000e 00BF     		.align	2
 2023              	.L194:
 2024 0010 00400052 		.word	1375748096
 2025              		.cfi_endproc
 2026              	.LFE383:
 2028              		.section	.text.HAL_GetFMCMemorySwappingConfig,"ax",%progbits
 2029              		.align	1
 2030              		.p2align 2,,3
 2031              		.global	HAL_GetFMCMemorySwappingConfig
 2032              		.syntax unified
 2033              		.thumb
 2034              		.thumb_func
 2035              		.fpu fpv5-d16
 2037              	HAL_GetFMCMemorySwappingConfig:
 2038              	.LFB384:
1076:./Libraries/STM32H7xx_HAL_Driver/Src/stm32h7xx_hal.c **** 
1077:./Libraries/STM32H7xx_HAL_Driver/Src/stm32h7xx_hal.c **** /**
1078:./Libraries/STM32H7xx_HAL_Driver/Src/stm32h7xx_hal.c ****   * @brief  Get FMC Bank mapping mode.
1079:./Libraries/STM32H7xx_HAL_Driver/Src/stm32h7xx_hal.c ****   * @retval The FMC Bank mapping mode. This parameter can be
1080:./Libraries/STM32H7xx_HAL_Driver/Src/stm32h7xx_hal.c ****             FMC_SWAPBMAP_DISABLE, FMC_SWAPBMAP_SDRAM_SRAM, FMC_SWAPBMAP_SDRAMB2
1081:./Libraries/STM32H7xx_HAL_Driver/Src/stm32h7xx_hal.c **** */
1082:./Libraries/STM32H7xx_HAL_Driver/Src/stm32h7xx_hal.c **** uint32_t HAL_GetFMCMemorySwappingConfig(void)
1083:./Libraries/STM32H7xx_HAL_Driver/Src/stm32h7xx_hal.c **** {
 2039              		.loc 1 1083 1 is_stmt 1 view -0
 2040              		.cfi_startproc
 2041              		@ args = 0, pretend = 0, frame = 0
 2042              		@ frame_needed = 0, uses_anonymous_args = 0
ARM GAS  /tmp/ccHzGhIf.s 			page 56


 2043              		@ link register save eliminated.
1084:./Libraries/STM32H7xx_HAL_Driver/Src/stm32h7xx_hal.c ****   return READ_BIT(FMC_Bank1_R->BTCR[0], FMC_BCR1_BMAP);
 2044              		.loc 1 1084 3 view .LVU354
 2045              		.loc 1 1084 10 is_stmt 0 view .LVU355
 2046 0000 024B     		ldr	r3, .L197
 2047 0002 1868     		ldr	r0, [r3]
1085:./Libraries/STM32H7xx_HAL_Driver/Src/stm32h7xx_hal.c **** }
 2048              		.loc 1 1085 1 view .LVU356
 2049 0004 00F04070 		and	r0, r0, #50331648
 2050 0008 7047     		bx	lr
 2051              	.L198:
 2052 000a 00BF     		.align	2
 2053              	.L197:
 2054 000c 00400052 		.word	1375748096
 2055              		.cfi_endproc
 2056              	.LFE384:
 2058              		.section	.text.HAL_EXTI_EdgeConfig,"ax",%progbits
 2059              		.align	1
 2060              		.p2align 2,,3
 2061              		.global	HAL_EXTI_EdgeConfig
 2062              		.syntax unified
 2063              		.thumb
 2064              		.thumb_func
 2065              		.fpu fpv5-d16
 2067              	HAL_EXTI_EdgeConfig:
 2068              	.LVL61:
 2069              	.LFB385:
1086:./Libraries/STM32H7xx_HAL_Driver/Src/stm32h7xx_hal.c **** 
1087:./Libraries/STM32H7xx_HAL_Driver/Src/stm32h7xx_hal.c **** /**
1088:./Libraries/STM32H7xx_HAL_Driver/Src/stm32h7xx_hal.c ****   * @brief  Configure the EXTI input event line edge
1089:./Libraries/STM32H7xx_HAL_Driver/Src/stm32h7xx_hal.c ****   * @note    No edge configuration for direct lines but for configurable lines:(EXTI_LINE0..EXTI_LI
1090:./Libraries/STM32H7xx_HAL_Driver/Src/stm32h7xx_hal.c ****   *          EXTI_LINE49,EXTI_LINE51,EXTI_LINE82,EXTI_LINE84,EXTI_LINE85 and EXTI_LINE86.
1091:./Libraries/STM32H7xx_HAL_Driver/Src/stm32h7xx_hal.c ****   * @param   EXTI_Line: Specifies the EXTI LINE, it can be one of the following values,
1092:./Libraries/STM32H7xx_HAL_Driver/Src/stm32h7xx_hal.c ****   *         (EXTI_LINE0....EXTI_LINE87)excluding :line45, line81,line83 which are reserved
1093:./Libraries/STM32H7xx_HAL_Driver/Src/stm32h7xx_hal.c ****   * @param   EXTI_Edge: Specifies  EXTI line Edge used.
1094:./Libraries/STM32H7xx_HAL_Driver/Src/stm32h7xx_hal.c ****   *          This parameter can be one of the following values :
1095:./Libraries/STM32H7xx_HAL_Driver/Src/stm32h7xx_hal.c ****   *   @arg EXTI_RISING_EDGE : Configurable line, with Rising edge trigger detection
1096:./Libraries/STM32H7xx_HAL_Driver/Src/stm32h7xx_hal.c ****   *   @arg EXTI_FALLING_EDGE: Configurable line, with Falling edge trigger detection
1097:./Libraries/STM32H7xx_HAL_Driver/Src/stm32h7xx_hal.c ****   * @retval None
1098:./Libraries/STM32H7xx_HAL_Driver/Src/stm32h7xx_hal.c ****   */
1099:./Libraries/STM32H7xx_HAL_Driver/Src/stm32h7xx_hal.c **** void HAL_EXTI_EdgeConfig(uint32_t EXTI_Line , uint32_t EXTI_Edge )
1100:./Libraries/STM32H7xx_HAL_Driver/Src/stm32h7xx_hal.c **** {
 2070              		.loc 1 1100 1 is_stmt 1 view -0
 2071              		.cfi_startproc
 2072              		@ args = 0, pretend = 0, frame = 0
 2073              		@ frame_needed = 0, uses_anonymous_args = 0
 2074              		@ link register save eliminated.
1101:./Libraries/STM32H7xx_HAL_Driver/Src/stm32h7xx_hal.c ****   /* Check the parameter */
1102:./Libraries/STM32H7xx_HAL_Driver/Src/stm32h7xx_hal.c ****   assert_param(IS_HAL_EXTI_CONFIG_LINE(EXTI_Line));
 2075              		.loc 1 1102 3 view .LVU358
1103:./Libraries/STM32H7xx_HAL_Driver/Src/stm32h7xx_hal.c ****   assert_param(IS_EXTI_EDGE_LINE(EXTI_Edge));
 2076              		.loc 1 1103 3 view .LVU359
1104:./Libraries/STM32H7xx_HAL_Driver/Src/stm32h7xx_hal.c **** 
1105:./Libraries/STM32H7xx_HAL_Driver/Src/stm32h7xx_hal.c ****   /* Clear Rising Falling edge configuration */
1106:./Libraries/STM32H7xx_HAL_Driver/Src/stm32h7xx_hal.c ****   CLEAR_BIT(*(__IO uint32_t *) (((uint32_t) &(EXTI->FTSR1)) + ((EXTI_Line >> 5 ) * 0x20UL)), (uint3
 2077              		.loc 1 1106 3 view .LVU360
 2078 0000 20F01F02 		bic	r2, r0, #31
ARM GAS  /tmp/ccHzGhIf.s 			page 57


 2079 0004 0123     		movs	r3, #1
 2080 0006 00F01F00 		and	r0, r0, #31
 2081              	.LVL62:
1100:./Libraries/STM32H7xx_HAL_Driver/Src/stm32h7xx_hal.c ****   /* Check the parameter */
 2082              		.loc 1 1100 1 is_stmt 0 view .LVU361
 2083 000a 30B4     		push	{r4, r5}
 2084              	.LCFI6:
 2085              		.cfi_def_cfa_offset 8
 2086              		.cfi_offset 4, -8
 2087              		.cfi_offset 5, -4
 2088              		.loc 1 1106 3 view .LVU362
 2089 000c 0C4C     		ldr	r4, .L209
 2090 000e 03FA00F0 		lsl	r0, r3, r0
1107:./Libraries/STM32H7xx_HAL_Driver/Src/stm32h7xx_hal.c ****   CLEAR_BIT( *(__IO uint32_t *) (((uint32_t) &(EXTI->RTSR1)) + ((EXTI_Line >> 5 ) * 0x20UL)), (uint
 2091              		.loc 1 1107 3 view .LVU363
 2092 0012 02F1B043 		add	r3, r2, #1476395008
1106:./Libraries/STM32H7xx_HAL_Driver/Src/stm32h7xx_hal.c ****   CLEAR_BIT( *(__IO uint32_t *) (((uint32_t) &(EXTI->RTSR1)) + ((EXTI_Line >> 5 ) * 0x20UL)), (uint
 2093              		.loc 1 1106 3 view .LVU364
 2094 0016 1559     		ldr	r5, [r2, r4]
 2095 0018 25EA0005 		bic	r5, r5, r0
 2096 001c 1551     		str	r5, [r2, r4]
 2097              		.loc 1 1107 3 is_stmt 1 view .LVU365
 2098 001e 1D68     		ldr	r5, [r3]
 2099 0020 25EA0005 		bic	r5, r5, r0
 2100 0024 1D60     		str	r5, [r3]
1108:./Libraries/STM32H7xx_HAL_Driver/Src/stm32h7xx_hal.c **** 
1109:./Libraries/STM32H7xx_HAL_Driver/Src/stm32h7xx_hal.c ****   if( (EXTI_Edge & EXTI_RISING_EDGE) == EXTI_RISING_EDGE)
 2101              		.loc 1 1109 3 view .LVU366
 2102              		.loc 1 1109 5 is_stmt 0 view .LVU367
 2103 0026 CD02     		lsls	r5, r1, #11
 2104 0028 02D5     		bpl	.L200
1110:./Libraries/STM32H7xx_HAL_Driver/Src/stm32h7xx_hal.c ****   {
1111:./Libraries/STM32H7xx_HAL_Driver/Src/stm32h7xx_hal.c ****    SET_BIT( *(__IO uint32_t *) (((uint32_t) &(EXTI->RTSR1)) + ((EXTI_Line >> 5 ) * 0x20UL)), (uint3
 2105              		.loc 1 1111 4 is_stmt 1 view .LVU368
 2106 002a 1D68     		ldr	r5, [r3]
 2107 002c 0543     		orrs	r5, r5, r0
 2108 002e 1D60     		str	r5, [r3]
 2109              	.L200:
1112:./Libraries/STM32H7xx_HAL_Driver/Src/stm32h7xx_hal.c ****   }
1113:./Libraries/STM32H7xx_HAL_Driver/Src/stm32h7xx_hal.c ****   if( (EXTI_Edge & EXTI_FALLING_EDGE) == EXTI_FALLING_EDGE)
 2110              		.loc 1 1113 3 view .LVU369
 2111              		.loc 1 1113 5 is_stmt 0 view .LVU370
 2112 0030 8B02     		lsls	r3, r1, #10
 2113 0032 02D5     		bpl	.L199
1114:./Libraries/STM32H7xx_HAL_Driver/Src/stm32h7xx_hal.c ****   {
1115:./Libraries/STM32H7xx_HAL_Driver/Src/stm32h7xx_hal.c ****    SET_BIT(*(__IO uint32_t *) (((uint32_t) &(EXTI->FTSR1)) + ((EXTI_Line >> 5 ) * 0x20UL)), (uint32
 2114              		.loc 1 1115 4 is_stmt 1 view .LVU371
 2115 0034 1359     		ldr	r3, [r2, r4]
 2116 0036 1843     		orrs	r0, r0, r3
 2117 0038 1051     		str	r0, [r2, r4]
 2118              	.L199:
1116:./Libraries/STM32H7xx_HAL_Driver/Src/stm32h7xx_hal.c ****   }
1117:./Libraries/STM32H7xx_HAL_Driver/Src/stm32h7xx_hal.c **** }
 2119              		.loc 1 1117 1 is_stmt 0 view .LVU372
 2120 003a 30BC     		pop	{r4, r5}
 2121              	.LCFI7:
 2122              		.cfi_restore 5
ARM GAS  /tmp/ccHzGhIf.s 			page 58


 2123              		.cfi_restore 4
 2124              		.cfi_def_cfa_offset 0
 2125 003c 7047     		bx	lr
 2126              	.L210:
 2127 003e 00BF     		.align	2
 2128              	.L209:
 2129 0040 04000058 		.word	1476395012
 2130              		.cfi_endproc
 2131              	.LFE385:
 2133              		.section	.text.HAL_EXTI_GenerateSWInterrupt,"ax",%progbits
 2134              		.align	1
 2135              		.p2align 2,,3
 2136              		.global	HAL_EXTI_GenerateSWInterrupt
 2137              		.syntax unified
 2138              		.thumb
 2139              		.thumb_func
 2140              		.fpu fpv5-d16
 2142              	HAL_EXTI_GenerateSWInterrupt:
 2143              	.LVL63:
 2144              	.LFB386:
1118:./Libraries/STM32H7xx_HAL_Driver/Src/stm32h7xx_hal.c **** 
1119:./Libraries/STM32H7xx_HAL_Driver/Src/stm32h7xx_hal.c **** /**
1120:./Libraries/STM32H7xx_HAL_Driver/Src/stm32h7xx_hal.c ****   * @brief  Generates a Software interrupt on selected EXTI line.
1121:./Libraries/STM32H7xx_HAL_Driver/Src/stm32h7xx_hal.c ****   * @param   EXTI_Line: Specifies the EXTI LINE, it can be one of the following values,
1122:./Libraries/STM32H7xx_HAL_Driver/Src/stm32h7xx_hal.c ****   *          (EXTI_LINE0..EXTI_LINE21),EXTI_LINE49,EXTI_LINE51,EXTI_LINE82,EXTI_LINE84,EXTI_LINE85 
1123:./Libraries/STM32H7xx_HAL_Driver/Src/stm32h7xx_hal.c ****   * @retval None
1124:./Libraries/STM32H7xx_HAL_Driver/Src/stm32h7xx_hal.c ****   */
1125:./Libraries/STM32H7xx_HAL_Driver/Src/stm32h7xx_hal.c **** void HAL_EXTI_GenerateSWInterrupt(uint32_t EXTI_Line)
1126:./Libraries/STM32H7xx_HAL_Driver/Src/stm32h7xx_hal.c **** {
 2145              		.loc 1 1126 1 is_stmt 1 view -0
 2146              		.cfi_startproc
 2147              		@ args = 0, pretend = 0, frame = 0
 2148              		@ frame_needed = 0, uses_anonymous_args = 0
 2149              		@ link register save eliminated.
1127:./Libraries/STM32H7xx_HAL_Driver/Src/stm32h7xx_hal.c ****   /* Check the parameters */
1128:./Libraries/STM32H7xx_HAL_Driver/Src/stm32h7xx_hal.c ****   assert_param(IS_HAL_EXTI_CONFIG_LINE(EXTI_Line));
 2150              		.loc 1 1128 3 view .LVU374
1129:./Libraries/STM32H7xx_HAL_Driver/Src/stm32h7xx_hal.c **** 
1130:./Libraries/STM32H7xx_HAL_Driver/Src/stm32h7xx_hal.c ****   SET_BIT(*(__IO uint32_t *) (((uint32_t) &(EXTI->SWIER1)) + ((EXTI_Line >> 5 ) * 0x20UL)), (uint32
 2151              		.loc 1 1130 3 view .LVU375
 2152 0000 20F01F01 		bic	r1, r0, #31
 2153 0004 064A     		ldr	r2, .L213
 2154 0006 0123     		movs	r3, #1
 2155 0008 00F01F00 		and	r0, r0, #31
 2156              	.LVL64:
1126:./Libraries/STM32H7xx_HAL_Driver/Src/stm32h7xx_hal.c ****   /* Check the parameters */
 2157              		.loc 1 1126 1 is_stmt 0 view .LVU376
 2158 000c 10B4     		push	{r4}
 2159              	.LCFI8:
 2160              		.cfi_def_cfa_offset 4
 2161              		.cfi_offset 4, -4
 2162              		.loc 1 1130 3 view .LVU377
 2163 000e 03FA00F0 		lsl	r0, r3, r0
 2164 0012 8C58     		ldr	r4, [r1, r2]
 2165 0014 2043     		orrs	r0, r0, r4
1131:./Libraries/STM32H7xx_HAL_Driver/Src/stm32h7xx_hal.c **** }
 2166              		.loc 1 1131 1 view .LVU378
ARM GAS  /tmp/ccHzGhIf.s 			page 59


 2167 0016 5DF8044B 		ldr	r4, [sp], #4
 2168              	.LCFI9:
 2169              		.cfi_restore 4
 2170              		.cfi_def_cfa_offset 0
1130:./Libraries/STM32H7xx_HAL_Driver/Src/stm32h7xx_hal.c **** }
 2171              		.loc 1 1130 3 view .LVU379
 2172 001a 8850     		str	r0, [r1, r2]
 2173              		.loc 1 1131 1 view .LVU380
 2174 001c 7047     		bx	lr
 2175              	.L214:
 2176 001e 00BF     		.align	2
 2177              	.L213:
 2178 0020 08000058 		.word	1476395016
 2179              		.cfi_endproc
 2180              	.LFE386:
 2182              		.section	.text.HAL_EXTI_D1_ClearFlag,"ax",%progbits
 2183              		.align	1
 2184              		.p2align 2,,3
 2185              		.global	HAL_EXTI_D1_ClearFlag
 2186              		.syntax unified
 2187              		.thumb
 2188              		.thumb_func
 2189              		.fpu fpv5-d16
 2191              	HAL_EXTI_D1_ClearFlag:
 2192              	.LVL65:
 2193              	.LFB387:
1132:./Libraries/STM32H7xx_HAL_Driver/Src/stm32h7xx_hal.c **** 
1133:./Libraries/STM32H7xx_HAL_Driver/Src/stm32h7xx_hal.c **** 
1134:./Libraries/STM32H7xx_HAL_Driver/Src/stm32h7xx_hal.c **** /**
1135:./Libraries/STM32H7xx_HAL_Driver/Src/stm32h7xx_hal.c ****   * @brief  Clears the EXTI's line pending flags for Domain D1
1136:./Libraries/STM32H7xx_HAL_Driver/Src/stm32h7xx_hal.c ****   * @param   EXTI_Line: Specifies the EXTI LINE, it can be one of the following values,
1137:./Libraries/STM32H7xx_HAL_Driver/Src/stm32h7xx_hal.c ****   *         (EXTI_LINE0....EXTI_LINE87)excluding :line45, line81,line83 which are reserved
1138:./Libraries/STM32H7xx_HAL_Driver/Src/stm32h7xx_hal.c ****   * @retval None
1139:./Libraries/STM32H7xx_HAL_Driver/Src/stm32h7xx_hal.c ****   */
1140:./Libraries/STM32H7xx_HAL_Driver/Src/stm32h7xx_hal.c **** void HAL_EXTI_D1_ClearFlag(uint32_t EXTI_Line)
1141:./Libraries/STM32H7xx_HAL_Driver/Src/stm32h7xx_hal.c **** {
 2194              		.loc 1 1141 1 is_stmt 1 view -0
 2195              		.cfi_startproc
 2196              		@ args = 0, pretend = 0, frame = 0
 2197              		@ frame_needed = 0, uses_anonymous_args = 0
 2198              		@ link register save eliminated.
1142:./Libraries/STM32H7xx_HAL_Driver/Src/stm32h7xx_hal.c ****   /* Check the parameters */
1143:./Libraries/STM32H7xx_HAL_Driver/Src/stm32h7xx_hal.c ****  assert_param(IS_EXTI_D1_LINE(EXTI_Line));
 2199              		.loc 1 1143 2 view .LVU382
1144:./Libraries/STM32H7xx_HAL_Driver/Src/stm32h7xx_hal.c ****  WRITE_REG(*(__IO uint32_t *) (((uint32_t) &(EXTI_D1->PR1)) + ((EXTI_Line >> 5 ) * 0x10UL)), (uint3
 2200              		.loc 1 1144 2 view .LVU383
 2201 0000 4309     		lsrs	r3, r0, #5
 2202 0002 0122     		movs	r2, #1
 2203 0004 00F01F00 		and	r0, r0, #31
 2204              	.LVL66:
 2205              		.loc 1 1144 2 is_stmt 0 view .LVU384
 2206 0008 0249     		ldr	r1, .L216
 2207 000a 1B01     		lsls	r3, r3, #4
 2208 000c 02FA00F0 		lsl	r0, r2, r0
 2209 0010 5850     		str	r0, [r3, r1]
1145:./Libraries/STM32H7xx_HAL_Driver/Src/stm32h7xx_hal.c **** 
1146:./Libraries/STM32H7xx_HAL_Driver/Src/stm32h7xx_hal.c **** }
ARM GAS  /tmp/ccHzGhIf.s 			page 60


 2210              		.loc 1 1146 1 view .LVU385
 2211 0012 7047     		bx	lr
 2212              	.L217:
 2213              		.align	2
 2214              	.L216:
 2215 0014 88000058 		.word	1476395144
 2216              		.cfi_endproc
 2217              	.LFE387:
 2219              		.section	.text.HAL_EXTI_D2_ClearFlag,"ax",%progbits
 2220              		.align	1
 2221              		.p2align 2,,3
 2222              		.global	HAL_EXTI_D2_ClearFlag
 2223              		.syntax unified
 2224              		.thumb
 2225              		.thumb_func
 2226              		.fpu fpv5-d16
 2228              	HAL_EXTI_D2_ClearFlag:
 2229              	.LVL67:
 2230              	.LFB388:
1147:./Libraries/STM32H7xx_HAL_Driver/Src/stm32h7xx_hal.c **** 
1148:./Libraries/STM32H7xx_HAL_Driver/Src/stm32h7xx_hal.c **** #if defined(DUAL_CORE)
1149:./Libraries/STM32H7xx_HAL_Driver/Src/stm32h7xx_hal.c **** /**
1150:./Libraries/STM32H7xx_HAL_Driver/Src/stm32h7xx_hal.c ****   * @brief  Clears the EXTI's line pending flags for Domain D2
1151:./Libraries/STM32H7xx_HAL_Driver/Src/stm32h7xx_hal.c ****   * @param   EXTI_Line: Specifies the EXTI LINE, it can be one of the following values,
1152:./Libraries/STM32H7xx_HAL_Driver/Src/stm32h7xx_hal.c ****   *         (EXTI_LINE0....EXTI_LINE87)excluding :line45, line81,line83 which are reserved
1153:./Libraries/STM32H7xx_HAL_Driver/Src/stm32h7xx_hal.c ****   * @retval None
1154:./Libraries/STM32H7xx_HAL_Driver/Src/stm32h7xx_hal.c ****   */
1155:./Libraries/STM32H7xx_HAL_Driver/Src/stm32h7xx_hal.c **** void HAL_EXTI_D2_ClearFlag(uint32_t EXTI_Line)
1156:./Libraries/STM32H7xx_HAL_Driver/Src/stm32h7xx_hal.c **** {
 2231              		.loc 1 1156 1 is_stmt 1 view -0
 2232              		.cfi_startproc
 2233              		@ args = 0, pretend = 0, frame = 0
 2234              		@ frame_needed = 0, uses_anonymous_args = 0
 2235              		@ link register save eliminated.
1157:./Libraries/STM32H7xx_HAL_Driver/Src/stm32h7xx_hal.c ****   /* Check the parameters */
1158:./Libraries/STM32H7xx_HAL_Driver/Src/stm32h7xx_hal.c ****  assert_param(IS_EXTI_D2_LINE(EXTI_Line));
 2236              		.loc 1 1158 2 view .LVU387
1159:./Libraries/STM32H7xx_HAL_Driver/Src/stm32h7xx_hal.c ****  WRITE_REG(*(__IO uint32_t *) (((uint32_t) &(EXTI_D2->PR1)) + ((EXTI_Line >> 5 ) * 0x10UL)), (uint3
 2237              		.loc 1 1159 2 view .LVU388
 2238 0000 4309     		lsrs	r3, r0, #5
 2239 0002 0122     		movs	r2, #1
 2240 0004 00F01F00 		and	r0, r0, #31
 2241              	.LVL68:
 2242              		.loc 1 1159 2 is_stmt 0 view .LVU389
 2243 0008 0249     		ldr	r1, .L219
 2244 000a 1B01     		lsls	r3, r3, #4
 2245 000c 02FA00F0 		lsl	r0, r2, r0
 2246 0010 5850     		str	r0, [r3, r1]
1160:./Libraries/STM32H7xx_HAL_Driver/Src/stm32h7xx_hal.c **** }
 2247              		.loc 1 1160 1 view .LVU390
 2248 0012 7047     		bx	lr
 2249              	.L220:
 2250              		.align	2
 2251              	.L219:
 2252 0014 C8000058 		.word	1476395208
 2253              		.cfi_endproc
 2254              	.LFE388:
ARM GAS  /tmp/ccHzGhIf.s 			page 61


 2256              		.section	.text.HAL_EXTI_D1_EventInputConfig,"ax",%progbits
 2257              		.align	1
 2258              		.p2align 2,,3
 2259              		.global	HAL_EXTI_D1_EventInputConfig
 2260              		.syntax unified
 2261              		.thumb
 2262              		.thumb_func
 2263              		.fpu fpv5-d16
 2265              	HAL_EXTI_D1_EventInputConfig:
 2266              	.LVL69:
 2267              	.LFB389:
1161:./Libraries/STM32H7xx_HAL_Driver/Src/stm32h7xx_hal.c **** 
1162:./Libraries/STM32H7xx_HAL_Driver/Src/stm32h7xx_hal.c **** #endif /*DUAL_CORE*/
1163:./Libraries/STM32H7xx_HAL_Driver/Src/stm32h7xx_hal.c **** /**
1164:./Libraries/STM32H7xx_HAL_Driver/Src/stm32h7xx_hal.c ****   * @brief  Configure the EXTI input event line for Domain D1
1165:./Libraries/STM32H7xx_HAL_Driver/Src/stm32h7xx_hal.c ****   * @param   EXTI_Line: Specifies the EXTI LINE, it can be one of the following values,
1166:./Libraries/STM32H7xx_HAL_Driver/Src/stm32h7xx_hal.c ****   *         (EXTI_LINE0....EXTI_LINE87)excluding :line45, line81,line83 which are reserved
1167:./Libraries/STM32H7xx_HAL_Driver/Src/stm32h7xx_hal.c ****   * @param   EXTI_Mode: Specifies which EXTI line is used as interrupt or an event.
1168:./Libraries/STM32H7xx_HAL_Driver/Src/stm32h7xx_hal.c ****   *          This parameter can be one or a combination of the following values :
1169:./Libraries/STM32H7xx_HAL_Driver/Src/stm32h7xx_hal.c ****   *   @arg EXTI_MODE_IT :  Interrupt Mode selected
1170:./Libraries/STM32H7xx_HAL_Driver/Src/stm32h7xx_hal.c ****   *   @arg EXTI_MODE_EVT : Event Mode selected
1171:./Libraries/STM32H7xx_HAL_Driver/Src/stm32h7xx_hal.c ****   * @param   EXTI_LineCmd controls (Enable/Disable) the EXTI line.
1172:./Libraries/STM32H7xx_HAL_Driver/Src/stm32h7xx_hal.c **** 
1173:./Libraries/STM32H7xx_HAL_Driver/Src/stm32h7xx_hal.c ****   * @retval None
1174:./Libraries/STM32H7xx_HAL_Driver/Src/stm32h7xx_hal.c ****   */
1175:./Libraries/STM32H7xx_HAL_Driver/Src/stm32h7xx_hal.c **** void HAL_EXTI_D1_EventInputConfig(uint32_t EXTI_Line , uint32_t EXTI_Mode,  uint32_t EXTI_LineCmd )
1176:./Libraries/STM32H7xx_HAL_Driver/Src/stm32h7xx_hal.c **** {
 2268              		.loc 1 1176 1 is_stmt 1 view -0
 2269              		.cfi_startproc
 2270              		@ args = 0, pretend = 0, frame = 0
 2271              		@ frame_needed = 0, uses_anonymous_args = 0
 2272              		@ link register save eliminated.
1177:./Libraries/STM32H7xx_HAL_Driver/Src/stm32h7xx_hal.c ****   /* Check the parameter */
1178:./Libraries/STM32H7xx_HAL_Driver/Src/stm32h7xx_hal.c ****   assert_param(IS_EXTI_D1_LINE(EXTI_Line));
 2273              		.loc 1 1178 3 view .LVU392
1179:./Libraries/STM32H7xx_HAL_Driver/Src/stm32h7xx_hal.c ****   assert_param(IS_EXTI_MODE_LINE(EXTI_Mode));
 2274              		.loc 1 1179 3 view .LVU393
1180:./Libraries/STM32H7xx_HAL_Driver/Src/stm32h7xx_hal.c **** 
1181:./Libraries/STM32H7xx_HAL_Driver/Src/stm32h7xx_hal.c ****   if( (EXTI_Mode & EXTI_MODE_IT) == EXTI_MODE_IT)
 2275              		.loc 1 1181 3 view .LVU394
1176:./Libraries/STM32H7xx_HAL_Driver/Src/stm32h7xx_hal.c ****   /* Check the parameter */
 2276              		.loc 1 1176 1 is_stmt 0 view .LVU395
 2277 0000 30B4     		push	{r4, r5}
 2278              	.LCFI10:
 2279              		.cfi_def_cfa_offset 8
 2280              		.cfi_offset 4, -8
 2281              		.cfi_offset 5, -4
 2282              		.loc 1 1181 5 view .LVU396
 2283 0002 CC03     		lsls	r4, r1, #15
 2284 0004 1AD5     		bpl	.L222
1182:./Libraries/STM32H7xx_HAL_Driver/Src/stm32h7xx_hal.c ****   {
1183:./Libraries/STM32H7xx_HAL_Driver/Src/stm32h7xx_hal.c ****      if( EXTI_LineCmd == 0UL)
 2285              		.loc 1 1183 6 is_stmt 1 view .LVU397
1184:./Libraries/STM32H7xx_HAL_Driver/Src/stm32h7xx_hal.c ****      {
1185:./Libraries/STM32H7xx_HAL_Driver/Src/stm32h7xx_hal.c ****        /* Clear EXTI line configuration */
1186:./Libraries/STM32H7xx_HAL_Driver/Src/stm32h7xx_hal.c ****         CLEAR_BIT(*(__IO uint32_t *) (((uint32_t) &(EXTI_D1->IMR1)) + ((EXTI_Line >> 5 ) * 0x10UL))
 2286              		.loc 1 1186 9 is_stmt 0 view .LVU398
ARM GAS  /tmp/ccHzGhIf.s 			page 62


 2287 0006 1F4B     		ldr	r3, .L234
 2288 0008 00F01F05 		and	r5, r0, #31
1183:./Libraries/STM32H7xx_HAL_Driver/Src/stm32h7xx_hal.c ****      {
 2289              		.loc 1 1183 8 view .LVU399
 2290 000c 02BB     		cbnz	r2, .L223
 2291              		.loc 1 1186 9 is_stmt 1 view .LVU400
 2292 000e 4209     		lsrs	r2, r0, #5
 2293              	.LVL70:
 2294              		.loc 1 1186 9 is_stmt 0 view .LVU401
 2295 0010 0124     		movs	r4, #1
 2296 0012 03EB5010 		add	r0, r3, r0, lsr #5
 2297              	.LVL71:
1187:./Libraries/STM32H7xx_HAL_Driver/Src/stm32h7xx_hal.c ****      }
1188:./Libraries/STM32H7xx_HAL_Driver/Src/stm32h7xx_hal.c ****      else
1189:./Libraries/STM32H7xx_HAL_Driver/Src/stm32h7xx_hal.c ****      {
1190:./Libraries/STM32H7xx_HAL_Driver/Src/stm32h7xx_hal.c ****         SET_BIT(*(__IO uint32_t *) (((uint32_t) &(EXTI_D1->IMR1)) + ((EXTI_Line >> 5 ) * 0x10UL)), 
1191:./Libraries/STM32H7xx_HAL_Driver/Src/stm32h7xx_hal.c ****      }
1192:./Libraries/STM32H7xx_HAL_Driver/Src/stm32h7xx_hal.c ****   }
1193:./Libraries/STM32H7xx_HAL_Driver/Src/stm32h7xx_hal.c **** 
1194:./Libraries/STM32H7xx_HAL_Driver/Src/stm32h7xx_hal.c ****   if( (EXTI_Mode & EXTI_MODE_EVT) == EXTI_MODE_EVT)
 2298              		.loc 1 1194 5 view .LVU402
 2299 0016 8903     		lsls	r1, r1, #14
 2300              	.LVL72:
1186:./Libraries/STM32H7xx_HAL_Driver/Src/stm32h7xx_hal.c ****      }
 2301              		.loc 1 1186 9 view .LVU403
 2302 0018 04FA05F3 		lsl	r3, r4, r5
 2303 001c 4FEA0010 		lsl	r0, r0, #4
 2304 0020 6FEA0304 		mvn	r4, r3
 2305 0024 0568     		ldr	r5, [r0]
 2306 0026 25EA0303 		bic	r3, r5, r3
 2307 002a 0360     		str	r3, [r0]
 2308              		.loc 1 1194 3 is_stmt 1 view .LVU404
 2309              		.loc 1 1194 5 is_stmt 0 view .LVU405
 2310 002c 04D5     		bpl	.L221
 2311              	.L224:
1195:./Libraries/STM32H7xx_HAL_Driver/Src/stm32h7xx_hal.c ****   {
1196:./Libraries/STM32H7xx_HAL_Driver/Src/stm32h7xx_hal.c ****     if( EXTI_LineCmd == 0UL)
1197:./Libraries/STM32H7xx_HAL_Driver/Src/stm32h7xx_hal.c ****     {
1198:./Libraries/STM32H7xx_HAL_Driver/Src/stm32h7xx_hal.c ****       /* Clear EXTI line configuration */
1199:./Libraries/STM32H7xx_HAL_Driver/Src/stm32h7xx_hal.c ****       CLEAR_BIT(  *(__IO uint32_t *) (((uint32_t) &(EXTI_D1->EMR1)) + ((EXTI_Line >> 5 ) * 0x10UL))
 2312              		.loc 1 1199 7 is_stmt 1 view .LVU406
 2313 002e 1301     		lsls	r3, r2, #4
 2314 0030 1549     		ldr	r1, .L234+4
 2315 0032 5A58     		ldr	r2, [r3, r1]
 2316 0034 1440     		ands	r4, r4, r2
 2317 0036 5C50     		str	r4, [r3, r1]
 2318              	.L221:
1200:./Libraries/STM32H7xx_HAL_Driver/Src/stm32h7xx_hal.c ****     }
1201:./Libraries/STM32H7xx_HAL_Driver/Src/stm32h7xx_hal.c ****     else
1202:./Libraries/STM32H7xx_HAL_Driver/Src/stm32h7xx_hal.c ****     {
1203:./Libraries/STM32H7xx_HAL_Driver/Src/stm32h7xx_hal.c ****       SET_BIT(  *(__IO uint32_t *) (((uint32_t) &(EXTI_D1->EMR1)) + ((EXTI_Line >> 5 ) * 0x10UL)), 
1204:./Libraries/STM32H7xx_HAL_Driver/Src/stm32h7xx_hal.c ****     }
1205:./Libraries/STM32H7xx_HAL_Driver/Src/stm32h7xx_hal.c ****   }
1206:./Libraries/STM32H7xx_HAL_Driver/Src/stm32h7xx_hal.c **** }
 2319              		.loc 1 1206 1 is_stmt 0 view .LVU407
 2320 0038 30BC     		pop	{r4, r5}
 2321              	.LCFI11:
ARM GAS  /tmp/ccHzGhIf.s 			page 63


 2322              		.cfi_remember_state
 2323              		.cfi_restore 5
 2324              		.cfi_restore 4
 2325              		.cfi_def_cfa_offset 0
 2326 003a 7047     		bx	lr
 2327              	.LVL73:
 2328              	.L222:
 2329              	.LCFI12:
 2330              		.cfi_restore_state
1194:./Libraries/STM32H7xx_HAL_Driver/Src/stm32h7xx_hal.c ****   {
 2331              		.loc 1 1194 3 is_stmt 1 view .LVU408
1194:./Libraries/STM32H7xx_HAL_Driver/Src/stm32h7xx_hal.c ****   {
 2332              		.loc 1 1194 5 is_stmt 0 view .LVU409
 2333 003c 8B03     		lsls	r3, r1, #14
 2334 003e FBD5     		bpl	.L221
1196:./Libraries/STM32H7xx_HAL_Driver/Src/stm32h7xx_hal.c ****     {
 2335              		.loc 1 1196 5 is_stmt 1 view .LVU410
1196:./Libraries/STM32H7xx_HAL_Driver/Src/stm32h7xx_hal.c ****     {
 2336              		.loc 1 1196 7 is_stmt 0 view .LVU411
 2337 0040 CAB9     		cbnz	r2, .L233
 2338 0042 00F01F03 		and	r3, r0, #31
 2339 0046 0124     		movs	r4, #1
 2340 0048 4209     		lsrs	r2, r0, #5
 2341              	.LVL74:
1196:./Libraries/STM32H7xx_HAL_Driver/Src/stm32h7xx_hal.c ****     {
 2342              		.loc 1 1196 7 view .LVU412
 2343 004a 9C40     		lsls	r4, r4, r3
 2344 004c E443     		mvns	r4, r4
 2345 004e EEE7     		b	.L224
 2346              	.LVL75:
 2347              	.L223:
1190:./Libraries/STM32H7xx_HAL_Driver/Src/stm32h7xx_hal.c ****      }
 2348              		.loc 1 1190 9 is_stmt 1 view .LVU413
 2349 0050 4409     		lsrs	r4, r0, #5
 2350 0052 0122     		movs	r2, #1
 2351              	.LVL76:
1190:./Libraries/STM32H7xx_HAL_Driver/Src/stm32h7xx_hal.c ****      }
 2352              		.loc 1 1190 9 is_stmt 0 view .LVU414
 2353 0054 03EB5010 		add	r0, r3, r0, lsr #5
 2354              	.LVL77:
1190:./Libraries/STM32H7xx_HAL_Driver/Src/stm32h7xx_hal.c ****      }
 2355              		.loc 1 1190 9 view .LVU415
 2356 0058 02FA05F3 		lsl	r3, r2, r5
 2357 005c 0001     		lsls	r0, r0, #4
 2358 005e 0268     		ldr	r2, [r0]
 2359 0060 1A43     		orrs	r2, r2, r3
 2360 0062 0260     		str	r2, [r0]
1194:./Libraries/STM32H7xx_HAL_Driver/Src/stm32h7xx_hal.c ****   {
 2361              		.loc 1 1194 3 is_stmt 1 view .LVU416
1194:./Libraries/STM32H7xx_HAL_Driver/Src/stm32h7xx_hal.c ****   {
 2362              		.loc 1 1194 5 is_stmt 0 view .LVU417
 2363 0064 8A03     		lsls	r2, r1, #14
 2364 0066 E7D5     		bpl	.L221
 2365              	.L226:
1203:./Libraries/STM32H7xx_HAL_Driver/Src/stm32h7xx_hal.c ****     }
 2366              		.loc 1 1203 7 is_stmt 1 view .LVU418
 2367 0068 2201     		lsls	r2, r4, #4
ARM GAS  /tmp/ccHzGhIf.s 			page 64


 2368 006a 0748     		ldr	r0, .L234+4
 2369 006c 1158     		ldr	r1, [r2, r0]
 2370              	.LVL78:
1203:./Libraries/STM32H7xx_HAL_Driver/Src/stm32h7xx_hal.c ****     }
 2371              		.loc 1 1203 7 is_stmt 0 view .LVU419
 2372 006e 0B43     		orrs	r3, r3, r1
 2373              		.loc 1 1206 1 view .LVU420
 2374 0070 30BC     		pop	{r4, r5}
 2375              	.LCFI13:
 2376              		.cfi_remember_state
 2377              		.cfi_restore 5
 2378              		.cfi_restore 4
 2379              		.cfi_def_cfa_offset 0
1203:./Libraries/STM32H7xx_HAL_Driver/Src/stm32h7xx_hal.c ****     }
 2380              		.loc 1 1203 7 view .LVU421
 2381 0072 1350     		str	r3, [r2, r0]
 2382              		.loc 1 1206 1 view .LVU422
 2383 0074 7047     		bx	lr
 2384              	.LVL79:
 2385              	.L233:
 2386              	.LCFI14:
 2387              		.cfi_restore_state
 2388              		.loc 1 1206 1 view .LVU423
 2389 0076 00F01F02 		and	r2, r0, #31
 2390              	.LVL80:
 2391              		.loc 1 1206 1 view .LVU424
 2392 007a 0123     		movs	r3, #1
 2393 007c 4409     		lsrs	r4, r0, #5
 2394 007e 9340     		lsls	r3, r3, r2
 2395 0080 F2E7     		b	.L226
 2396              	.L235:
 2397 0082 00BF     		.align	2
 2398              	.L234:
 2399 0084 08008005 		.word	92274696
 2400 0088 84000058 		.word	1476395140
 2401              		.cfi_endproc
 2402              	.LFE389:
 2404              		.section	.text.HAL_EXTI_D2_EventInputConfig,"ax",%progbits
 2405              		.align	1
 2406              		.p2align 2,,3
 2407              		.global	HAL_EXTI_D2_EventInputConfig
 2408              		.syntax unified
 2409              		.thumb
 2410              		.thumb_func
 2411              		.fpu fpv5-d16
 2413              	HAL_EXTI_D2_EventInputConfig:
 2414              	.LVL81:
 2415              	.LFB390:
1207:./Libraries/STM32H7xx_HAL_Driver/Src/stm32h7xx_hal.c **** 
1208:./Libraries/STM32H7xx_HAL_Driver/Src/stm32h7xx_hal.c **** #if defined(DUAL_CORE)
1209:./Libraries/STM32H7xx_HAL_Driver/Src/stm32h7xx_hal.c **** /**
1210:./Libraries/STM32H7xx_HAL_Driver/Src/stm32h7xx_hal.c ****   * @brief  Configure the EXTI input event line for Domain D2
1211:./Libraries/STM32H7xx_HAL_Driver/Src/stm32h7xx_hal.c ****   * @param   EXTI_Line: Specifies the EXTI LINE, it can be one of the following values,
1212:./Libraries/STM32H7xx_HAL_Driver/Src/stm32h7xx_hal.c ****   *         (EXTI_LINE0....EXTI_LINE87)excluding :line45, line81,line83 which are reserved
1213:./Libraries/STM32H7xx_HAL_Driver/Src/stm32h7xx_hal.c ****   * @param   EXTI_Mode: Specifies which EXTI line is used as interrupt or an event.
1214:./Libraries/STM32H7xx_HAL_Driver/Src/stm32h7xx_hal.c ****   *          This parameter can be one or a combination of the following values :
1215:./Libraries/STM32H7xx_HAL_Driver/Src/stm32h7xx_hal.c ****   *   @arg EXTI_MODE_IT :  Interrupt Mode selected
ARM GAS  /tmp/ccHzGhIf.s 			page 65


1216:./Libraries/STM32H7xx_HAL_Driver/Src/stm32h7xx_hal.c ****   *   @arg EXTI_MODE_EVT : Event Mode selected
1217:./Libraries/STM32H7xx_HAL_Driver/Src/stm32h7xx_hal.c ****   * @param   EXTI_LineCmd controls (Enable/Disable) the EXTI line.
1218:./Libraries/STM32H7xx_HAL_Driver/Src/stm32h7xx_hal.c **** 
1219:./Libraries/STM32H7xx_HAL_Driver/Src/stm32h7xx_hal.c ****   * @retval None
1220:./Libraries/STM32H7xx_HAL_Driver/Src/stm32h7xx_hal.c ****   */
1221:./Libraries/STM32H7xx_HAL_Driver/Src/stm32h7xx_hal.c **** void HAL_EXTI_D2_EventInputConfig(uint32_t EXTI_Line , uint32_t EXTI_Mode,  uint32_t EXTI_LineCmd )
1222:./Libraries/STM32H7xx_HAL_Driver/Src/stm32h7xx_hal.c **** {
 2416              		.loc 1 1222 1 is_stmt 1 view -0
 2417              		.cfi_startproc
 2418              		@ args = 0, pretend = 0, frame = 0
 2419              		@ frame_needed = 0, uses_anonymous_args = 0
 2420              		@ link register save eliminated.
1223:./Libraries/STM32H7xx_HAL_Driver/Src/stm32h7xx_hal.c ****   /* Check the parameter */
1224:./Libraries/STM32H7xx_HAL_Driver/Src/stm32h7xx_hal.c ****   assert_param(IS_EXTI_D2_LINE(EXTI_Line));
 2421              		.loc 1 1224 3 view .LVU426
1225:./Libraries/STM32H7xx_HAL_Driver/Src/stm32h7xx_hal.c ****   assert_param(IS_EXTI_MODE_LINE(EXTI_Mode));
 2422              		.loc 1 1225 3 view .LVU427
1226:./Libraries/STM32H7xx_HAL_Driver/Src/stm32h7xx_hal.c **** 
1227:./Libraries/STM32H7xx_HAL_Driver/Src/stm32h7xx_hal.c ****   if( (EXTI_Mode & EXTI_MODE_IT) == EXTI_MODE_IT)
 2423              		.loc 1 1227 3 view .LVU428
1222:./Libraries/STM32H7xx_HAL_Driver/Src/stm32h7xx_hal.c ****   /* Check the parameter */
 2424              		.loc 1 1222 1 is_stmt 0 view .LVU429
 2425 0000 30B4     		push	{r4, r5}
 2426              	.LCFI15:
 2427              		.cfi_def_cfa_offset 8
 2428              		.cfi_offset 4, -8
 2429              		.cfi_offset 5, -4
 2430              		.loc 1 1227 5 view .LVU430
 2431 0002 CC03     		lsls	r4, r1, #15
 2432 0004 1AD5     		bpl	.L237
1228:./Libraries/STM32H7xx_HAL_Driver/Src/stm32h7xx_hal.c ****   {
1229:./Libraries/STM32H7xx_HAL_Driver/Src/stm32h7xx_hal.c ****     if( EXTI_LineCmd == 0UL)
 2433              		.loc 1 1229 5 is_stmt 1 view .LVU431
1230:./Libraries/STM32H7xx_HAL_Driver/Src/stm32h7xx_hal.c ****     {
1231:./Libraries/STM32H7xx_HAL_Driver/Src/stm32h7xx_hal.c ****     /* Clear EXTI line configuration */
1232:./Libraries/STM32H7xx_HAL_Driver/Src/stm32h7xx_hal.c ****      CLEAR_BIT(*(__IO uint32_t *) (((uint32_t) &(EXTI_D2->IMR1)) + ((EXTI_Line >> 5 ) * 0x10UL)),(u
 2434              		.loc 1 1232 6 is_stmt 0 view .LVU432
 2435 0006 1F4B     		ldr	r3, .L249
 2436 0008 00F01F05 		and	r5, r0, #31
1229:./Libraries/STM32H7xx_HAL_Driver/Src/stm32h7xx_hal.c ****     {
 2437              		.loc 1 1229 7 view .LVU433
 2438 000c 02BB     		cbnz	r2, .L238
 2439              		.loc 1 1232 6 is_stmt 1 view .LVU434
 2440 000e 4209     		lsrs	r2, r0, #5
 2441              	.LVL82:
 2442              		.loc 1 1232 6 is_stmt 0 view .LVU435
 2443 0010 0124     		movs	r4, #1
 2444 0012 03EB5010 		add	r0, r3, r0, lsr #5
 2445              	.LVL83:
1233:./Libraries/STM32H7xx_HAL_Driver/Src/stm32h7xx_hal.c ****     }
1234:./Libraries/STM32H7xx_HAL_Driver/Src/stm32h7xx_hal.c ****     else
1235:./Libraries/STM32H7xx_HAL_Driver/Src/stm32h7xx_hal.c ****     {
1236:./Libraries/STM32H7xx_HAL_Driver/Src/stm32h7xx_hal.c ****      SET_BIT(*(__IO uint32_t *) (((uint32_t) &(EXTI_D2->IMR1)) + ((EXTI_Line >> 5 ) * 0x10UL)), (ui
1237:./Libraries/STM32H7xx_HAL_Driver/Src/stm32h7xx_hal.c ****     }
1238:./Libraries/STM32H7xx_HAL_Driver/Src/stm32h7xx_hal.c ****   }
1239:./Libraries/STM32H7xx_HAL_Driver/Src/stm32h7xx_hal.c **** 
1240:./Libraries/STM32H7xx_HAL_Driver/Src/stm32h7xx_hal.c ****   if( (EXTI_Mode & EXTI_MODE_EVT) == EXTI_MODE_EVT)
ARM GAS  /tmp/ccHzGhIf.s 			page 66


 2446              		.loc 1 1240 5 view .LVU436
 2447 0016 8903     		lsls	r1, r1, #14
 2448              	.LVL84:
1232:./Libraries/STM32H7xx_HAL_Driver/Src/stm32h7xx_hal.c ****     }
 2449              		.loc 1 1232 6 view .LVU437
 2450 0018 04FA05F3 		lsl	r3, r4, r5
 2451 001c 4FEA0010 		lsl	r0, r0, #4
 2452 0020 6FEA0304 		mvn	r4, r3
 2453 0024 0568     		ldr	r5, [r0]
 2454 0026 25EA0303 		bic	r3, r5, r3
 2455 002a 0360     		str	r3, [r0]
 2456              		.loc 1 1240 3 is_stmt 1 view .LVU438
 2457              		.loc 1 1240 5 is_stmt 0 view .LVU439
 2458 002c 04D5     		bpl	.L236
 2459              	.L239:
1241:./Libraries/STM32H7xx_HAL_Driver/Src/stm32h7xx_hal.c ****   {
1242:./Libraries/STM32H7xx_HAL_Driver/Src/stm32h7xx_hal.c ****     if( EXTI_LineCmd == 0UL)
1243:./Libraries/STM32H7xx_HAL_Driver/Src/stm32h7xx_hal.c ****     {
1244:./Libraries/STM32H7xx_HAL_Driver/Src/stm32h7xx_hal.c ****       /* Clear EXTI line configuration */
1245:./Libraries/STM32H7xx_HAL_Driver/Src/stm32h7xx_hal.c ****       CLEAR_BIT(  *(__IO uint32_t *) (((uint32_t) &(EXTI_D2->EMR1)) + ((EXTI_Line >> 5 ) * 0x10UL))
 2460              		.loc 1 1245 7 is_stmt 1 view .LVU440
 2461 002e 1301     		lsls	r3, r2, #4
 2462 0030 1549     		ldr	r1, .L249+4
 2463 0032 5A58     		ldr	r2, [r3, r1]
 2464 0034 1440     		ands	r4, r4, r2
 2465 0036 5C50     		str	r4, [r3, r1]
 2466              	.L236:
1246:./Libraries/STM32H7xx_HAL_Driver/Src/stm32h7xx_hal.c ****     }
1247:./Libraries/STM32H7xx_HAL_Driver/Src/stm32h7xx_hal.c ****     else
1248:./Libraries/STM32H7xx_HAL_Driver/Src/stm32h7xx_hal.c ****     {
1249:./Libraries/STM32H7xx_HAL_Driver/Src/stm32h7xx_hal.c ****       SET_BIT(  *(__IO uint32_t *) (((uint32_t) &(EXTI_D2->EMR1)) + ((EXTI_Line >> 5 ) * 0x10UL)), 
1250:./Libraries/STM32H7xx_HAL_Driver/Src/stm32h7xx_hal.c ****     }
1251:./Libraries/STM32H7xx_HAL_Driver/Src/stm32h7xx_hal.c ****   }
1252:./Libraries/STM32H7xx_HAL_Driver/Src/stm32h7xx_hal.c **** }
 2467              		.loc 1 1252 1 is_stmt 0 view .LVU441
 2468 0038 30BC     		pop	{r4, r5}
 2469              	.LCFI16:
 2470              		.cfi_remember_state
 2471              		.cfi_restore 5
 2472              		.cfi_restore 4
 2473              		.cfi_def_cfa_offset 0
 2474 003a 7047     		bx	lr
 2475              	.LVL85:
 2476              	.L237:
 2477              	.LCFI17:
 2478              		.cfi_restore_state
1240:./Libraries/STM32H7xx_HAL_Driver/Src/stm32h7xx_hal.c ****   {
 2479              		.loc 1 1240 3 is_stmt 1 view .LVU442
1240:./Libraries/STM32H7xx_HAL_Driver/Src/stm32h7xx_hal.c ****   {
 2480              		.loc 1 1240 5 is_stmt 0 view .LVU443
 2481 003c 8B03     		lsls	r3, r1, #14
 2482 003e FBD5     		bpl	.L236
1242:./Libraries/STM32H7xx_HAL_Driver/Src/stm32h7xx_hal.c ****     {
 2483              		.loc 1 1242 5 is_stmt 1 view .LVU444
1242:./Libraries/STM32H7xx_HAL_Driver/Src/stm32h7xx_hal.c ****     {
 2484              		.loc 1 1242 7 is_stmt 0 view .LVU445
 2485 0040 CAB9     		cbnz	r2, .L248
ARM GAS  /tmp/ccHzGhIf.s 			page 67


 2486 0042 00F01F03 		and	r3, r0, #31
 2487 0046 0124     		movs	r4, #1
 2488 0048 4209     		lsrs	r2, r0, #5
 2489              	.LVL86:
1242:./Libraries/STM32H7xx_HAL_Driver/Src/stm32h7xx_hal.c ****     {
 2490              		.loc 1 1242 7 view .LVU446
 2491 004a 9C40     		lsls	r4, r4, r3
 2492 004c E443     		mvns	r4, r4
 2493 004e EEE7     		b	.L239
 2494              	.LVL87:
 2495              	.L238:
1236:./Libraries/STM32H7xx_HAL_Driver/Src/stm32h7xx_hal.c ****     }
 2496              		.loc 1 1236 6 is_stmt 1 view .LVU447
 2497 0050 4409     		lsrs	r4, r0, #5
 2498 0052 0122     		movs	r2, #1
 2499              	.LVL88:
1236:./Libraries/STM32H7xx_HAL_Driver/Src/stm32h7xx_hal.c ****     }
 2500              		.loc 1 1236 6 is_stmt 0 view .LVU448
 2501 0054 03EB5010 		add	r0, r3, r0, lsr #5
 2502              	.LVL89:
1236:./Libraries/STM32H7xx_HAL_Driver/Src/stm32h7xx_hal.c ****     }
 2503              		.loc 1 1236 6 view .LVU449
 2504 0058 02FA05F3 		lsl	r3, r2, r5
 2505 005c 0001     		lsls	r0, r0, #4
 2506 005e 0268     		ldr	r2, [r0]
 2507 0060 1A43     		orrs	r2, r2, r3
 2508 0062 0260     		str	r2, [r0]
1240:./Libraries/STM32H7xx_HAL_Driver/Src/stm32h7xx_hal.c ****   {
 2509              		.loc 1 1240 3 is_stmt 1 view .LVU450
1240:./Libraries/STM32H7xx_HAL_Driver/Src/stm32h7xx_hal.c ****   {
 2510              		.loc 1 1240 5 is_stmt 0 view .LVU451
 2511 0064 8A03     		lsls	r2, r1, #14
 2512 0066 E7D5     		bpl	.L236
 2513              	.L241:
1249:./Libraries/STM32H7xx_HAL_Driver/Src/stm32h7xx_hal.c ****     }
 2514              		.loc 1 1249 7 is_stmt 1 view .LVU452
 2515 0068 2201     		lsls	r2, r4, #4
 2516 006a 0748     		ldr	r0, .L249+4
 2517 006c 1158     		ldr	r1, [r2, r0]
 2518              	.LVL90:
1249:./Libraries/STM32H7xx_HAL_Driver/Src/stm32h7xx_hal.c ****     }
 2519              		.loc 1 1249 7 is_stmt 0 view .LVU453
 2520 006e 0B43     		orrs	r3, r3, r1
 2521              		.loc 1 1252 1 view .LVU454
 2522 0070 30BC     		pop	{r4, r5}
 2523              	.LCFI18:
 2524              		.cfi_remember_state
 2525              		.cfi_restore 5
 2526              		.cfi_restore 4
 2527              		.cfi_def_cfa_offset 0
1249:./Libraries/STM32H7xx_HAL_Driver/Src/stm32h7xx_hal.c ****     }
 2528              		.loc 1 1249 7 view .LVU455
 2529 0072 1350     		str	r3, [r2, r0]
 2530              		.loc 1 1252 1 view .LVU456
 2531 0074 7047     		bx	lr
 2532              	.LVL91:
 2533              	.L248:
ARM GAS  /tmp/ccHzGhIf.s 			page 68


 2534              	.LCFI19:
 2535              		.cfi_restore_state
 2536              		.loc 1 1252 1 view .LVU457
 2537 0076 00F01F02 		and	r2, r0, #31
 2538              	.LVL92:
 2539              		.loc 1 1252 1 view .LVU458
 2540 007a 0123     		movs	r3, #1
 2541 007c 4409     		lsrs	r4, r0, #5
 2542 007e 9340     		lsls	r3, r3, r2
 2543 0080 F2E7     		b	.L241
 2544              	.L250:
 2545 0082 00BF     		.align	2
 2546              	.L249:
 2547 0084 0C008005 		.word	92274700
 2548 0088 C4000058 		.word	1476395204
 2549              		.cfi_endproc
 2550              	.LFE390:
 2552              		.section	.text.HAL_EXTI_D3_EventInputConfig,"ax",%progbits
 2553              		.align	1
 2554              		.p2align 2,,3
 2555              		.global	HAL_EXTI_D3_EventInputConfig
 2556              		.syntax unified
 2557              		.thumb
 2558              		.thumb_func
 2559              		.fpu fpv5-d16
 2561              	HAL_EXTI_D3_EventInputConfig:
 2562              	.LVL93:
 2563              	.LFB391:
1253:./Libraries/STM32H7xx_HAL_Driver/Src/stm32h7xx_hal.c **** #endif /*DUAL_CORE*/
1254:./Libraries/STM32H7xx_HAL_Driver/Src/stm32h7xx_hal.c **** 
1255:./Libraries/STM32H7xx_HAL_Driver/Src/stm32h7xx_hal.c **** /**
1256:./Libraries/STM32H7xx_HAL_Driver/Src/stm32h7xx_hal.c ****   * @brief  Configure the EXTI input event line for Domain D3
1257:./Libraries/STM32H7xx_HAL_Driver/Src/stm32h7xx_hal.c ****   * @param   EXTI_Line: Specifies the EXTI LINE, it can be one of the following values,
1258:./Libraries/STM32H7xx_HAL_Driver/Src/stm32h7xx_hal.c ****   *         (EXTI_LINE0...EXTI_LINE15),(EXTI_LINE19...EXTI_LINE21),EXTI_LINE25, EXTI_LINE34,
1259:./Libraries/STM32H7xx_HAL_Driver/Src/stm32h7xx_hal.c ****   *          EXTI_LINE35,EXTI_LINE41,(EXTI_LINE48...EXTI_LINE53)
1260:./Libraries/STM32H7xx_HAL_Driver/Src/stm32h7xx_hal.c ****   * @param   EXTI_LineCmd controls (Enable/Disable) the EXTI line.
1261:./Libraries/STM32H7xx_HAL_Driver/Src/stm32h7xx_hal.c ****   * @param   EXTI_ClearSrc: Specifies the clear source of D3 pending event.
1262:./Libraries/STM32H7xx_HAL_Driver/Src/stm32h7xx_hal.c ****   *          This parameter can be one of the following values :
1263:./Libraries/STM32H7xx_HAL_Driver/Src/stm32h7xx_hal.c ****   *   @arg BDMA_CH6_CLEAR : BDMA ch6 event selected as D3 domain pendclear source
1264:./Libraries/STM32H7xx_HAL_Driver/Src/stm32h7xx_hal.c ****   *   @arg BDMA_CH7_CLEAR : BDMA ch7 event selected as D3 domain pendclear source
1265:./Libraries/STM32H7xx_HAL_Driver/Src/stm32h7xx_hal.c ****   *   @arg LPTIM4_OUT_CLEAR : LPTIM4 out selected as D3 domain pendclear source
1266:./Libraries/STM32H7xx_HAL_Driver/Src/stm32h7xx_hal.c ****   *   @arg LPTIM5_OUT_CLEAR : LPTIM5 out selected as D3 domain pendclear source
1267:./Libraries/STM32H7xx_HAL_Driver/Src/stm32h7xx_hal.c ****   * @retval None
1268:./Libraries/STM32H7xx_HAL_Driver/Src/stm32h7xx_hal.c ****   */
1269:./Libraries/STM32H7xx_HAL_Driver/Src/stm32h7xx_hal.c **** void HAL_EXTI_D3_EventInputConfig(uint32_t EXTI_Line, uint32_t EXTI_LineCmd , uint32_t EXTI_ClearSr
1270:./Libraries/STM32H7xx_HAL_Driver/Src/stm32h7xx_hal.c **** {
 2564              		.loc 1 1270 1 is_stmt 1 view -0
 2565              		.cfi_startproc
 2566              		@ args = 0, pretend = 0, frame = 0
 2567              		@ frame_needed = 0, uses_anonymous_args = 0
 2568              		@ link register save eliminated.
1271:./Libraries/STM32H7xx_HAL_Driver/Src/stm32h7xx_hal.c ****   __IO uint32_t *pRegv;
 2569              		.loc 1 1271 3 view .LVU460
1272:./Libraries/STM32H7xx_HAL_Driver/Src/stm32h7xx_hal.c **** 
1273:./Libraries/STM32H7xx_HAL_Driver/Src/stm32h7xx_hal.c ****   /* Check the parameter */
1274:./Libraries/STM32H7xx_HAL_Driver/Src/stm32h7xx_hal.c ****   assert_param(IS_EXTI_D3_LINE(EXTI_Line));
 2570              		.loc 1 1274 3 view .LVU461
ARM GAS  /tmp/ccHzGhIf.s 			page 69


1275:./Libraries/STM32H7xx_HAL_Driver/Src/stm32h7xx_hal.c ****   assert_param(IS_EXTI_D3_CLEAR(EXTI_ClearSrc));
 2571              		.loc 1 1275 3 view .LVU462
1276:./Libraries/STM32H7xx_HAL_Driver/Src/stm32h7xx_hal.c **** 
1277:./Libraries/STM32H7xx_HAL_Driver/Src/stm32h7xx_hal.c ****   if( EXTI_LineCmd == 0UL)
 2572              		.loc 1 1277 3 view .LVU463
1278:./Libraries/STM32H7xx_HAL_Driver/Src/stm32h7xx_hal.c ****   {
1279:./Libraries/STM32H7xx_HAL_Driver/Src/stm32h7xx_hal.c ****     /* Clear EXTI line configuration */
1280:./Libraries/STM32H7xx_HAL_Driver/Src/stm32h7xx_hal.c ****     CLEAR_BIT(*(__IO uint32_t *) (((uint32_t) &(EXTI->D3PMR1)) + ((EXTI_Line >> 5 ) * 0x20UL)),(uin
 2573              		.loc 1 1280 5 is_stmt 0 view .LVU464
 2574 0000 20F01F03 		bic	r3, r0, #31
1270:./Libraries/STM32H7xx_HAL_Driver/Src/stm32h7xx_hal.c ****   __IO uint32_t *pRegv;
 2575              		.loc 1 1270 1 view .LVU465
 2576 0004 70B4     		push	{r4, r5, r6}
 2577              	.LCFI20:
 2578              		.cfi_def_cfa_offset 12
 2579              		.cfi_offset 4, -12
 2580              		.cfi_offset 5, -8
 2581              		.cfi_offset 6, -4
1277:./Libraries/STM32H7xx_HAL_Driver/Src/stm32h7xx_hal.c ****   {
 2582              		.loc 1 1277 5 view .LVU466
 2583 0006 E9B9     		cbnz	r1, .L252
 2584              		.loc 1 1280 5 is_stmt 1 view .LVU467
 2585 0008 134D     		ldr	r5, .L257
 2586 000a 00F01F06 		and	r6, r0, #31
 2587 000e 0124     		movs	r4, #1
 2588 0010 5959     		ldr	r1, [r3, r5]
 2589              	.LVL94:
 2590              		.loc 1 1280 5 is_stmt 0 view .LVU468
 2591 0012 B440     		lsls	r4, r4, r6
 2592 0014 21EA0401 		bic	r1, r1, r4
 2593 0018 5951     		str	r1, [r3, r5]
 2594              	.L253:
1281:./Libraries/STM32H7xx_HAL_Driver/Src/stm32h7xx_hal.c ****   }
1282:./Libraries/STM32H7xx_HAL_Driver/Src/stm32h7xx_hal.c ****   else
1283:./Libraries/STM32H7xx_HAL_Driver/Src/stm32h7xx_hal.c ****   {
1284:./Libraries/STM32H7xx_HAL_Driver/Src/stm32h7xx_hal.c ****     SET_BIT(*(__IO uint32_t *) (((uint32_t) &(EXTI->D3PMR1)) +((EXTI_Line >> 5 ) * 0x20UL)), (uint3
1285:./Libraries/STM32H7xx_HAL_Driver/Src/stm32h7xx_hal.c ****   }
1286:./Libraries/STM32H7xx_HAL_Driver/Src/stm32h7xx_hal.c **** 
1287:./Libraries/STM32H7xx_HAL_Driver/Src/stm32h7xx_hal.c ****   if(((EXTI_Line>>4)%2UL) == 0UL)
 2595              		.loc 1 1287 3 is_stmt 1 view .LVU469
1288:./Libraries/STM32H7xx_HAL_Driver/Src/stm32h7xx_hal.c ****   {
1289:./Libraries/STM32H7xx_HAL_Driver/Src/stm32h7xx_hal.c ****     pRegv = (__IO uint32_t *) (((uint32_t) &(EXTI->D3PCR1L)) + ((EXTI_Line >> 5 ) * 0x20UL));
 2596              		.loc 1 1289 5 view .LVU470
1290:./Libraries/STM32H7xx_HAL_Driver/Src/stm32h7xx_hal.c ****   }
1291:./Libraries/STM32H7xx_HAL_Driver/Src/stm32h7xx_hal.c ****   else
1292:./Libraries/STM32H7xx_HAL_Driver/Src/stm32h7xx_hal.c ****   {
1293:./Libraries/STM32H7xx_HAL_Driver/Src/stm32h7xx_hal.c ****     pRegv = (__IO uint32_t *) (((uint32_t) &(EXTI->D3PCR1H)) + ((EXTI_Line >> 5 ) * 0x20UL));
 2597              		.loc 1 1293 5 view .LVU471
1287:./Libraries/STM32H7xx_HAL_Driver/Src/stm32h7xx_hal.c ****   {
 2598              		.loc 1 1287 5 is_stmt 0 view .LVU472
 2599 001a C106     		lsls	r1, r0, #27
1294:./Libraries/STM32H7xx_HAL_Driver/Src/stm32h7xx_hal.c ****   }
1295:./Libraries/STM32H7xx_HAL_Driver/Src/stm32h7xx_hal.c ****   MODIFY_REG(*pRegv, (uint32_t)(3UL << ((EXTI_Line*2UL) & 0x1FUL)), (uint32_t)(EXTI_ClearSrc << ((E
 2600              		.loc 1 1295 3 view .LVU473
 2601 001c 4FEA4000 		lsl	r0, r0, #1
 2602              	.LVL95:
 2603              		.loc 1 1295 3 view .LVU474
ARM GAS  /tmp/ccHzGhIf.s 			page 70


 2604 0020 4FF00304 		mov	r4, #3
1289:./Libraries/STM32H7xx_HAL_Driver/Src/stm32h7xx_hal.c ****   }
 2605              		.loc 1 1289 62 view .LVU475
 2606 0024 58BF     		it	pl
 2607 0026 0D49     		ldrpl	r1, .L257+4
 2608              		.loc 1 1295 3 view .LVU476
 2609 0028 00F01E00 		and	r0, r0, #30
1293:./Libraries/STM32H7xx_HAL_Driver/Src/stm32h7xx_hal.c ****   }
 2610              		.loc 1 1293 62 view .LVU477
 2611 002c 48BF     		it	mi
 2612 002e 0C49     		ldrmi	r1, .L257+8
 2613              		.loc 1 1295 3 view .LVU478
 2614 0030 8440     		lsls	r4, r4, r0
 2615 0032 8240     		lsls	r2, r2, r0
 2616              	.LVL96:
1293:./Libraries/STM32H7xx_HAL_Driver/Src/stm32h7xx_hal.c ****   }
 2617              		.loc 1 1293 62 view .LVU479
 2618 0034 1944     		add	r1, r1, r3
 2619              	.LVL97:
 2620              		.loc 1 1295 3 is_stmt 1 view .LVU480
 2621 0036 0B68     		ldr	r3, [r1]
 2622 0038 23EA0400 		bic	r0, r3, r4
 2623 003c 1043     		orrs	r0, r0, r2
1296:./Libraries/STM32H7xx_HAL_Driver/Src/stm32h7xx_hal.c **** 
1297:./Libraries/STM32H7xx_HAL_Driver/Src/stm32h7xx_hal.c **** }
 2624              		.loc 1 1297 1 is_stmt 0 view .LVU481
 2625 003e 70BC     		pop	{r4, r5, r6}
 2626              	.LCFI21:
 2627              		.cfi_remember_state
 2628              		.cfi_restore 6
 2629              		.cfi_restore 5
 2630              		.cfi_restore 4
 2631              		.cfi_def_cfa_offset 0
1295:./Libraries/STM32H7xx_HAL_Driver/Src/stm32h7xx_hal.c **** 
 2632              		.loc 1 1295 3 view .LVU482
 2633 0040 0860     		str	r0, [r1]
 2634              		.loc 1 1297 1 view .LVU483
 2635 0042 7047     		bx	lr
 2636              	.LVL98:
 2637              	.L252:
 2638              	.LCFI22:
 2639              		.cfi_restore_state
1284:./Libraries/STM32H7xx_HAL_Driver/Src/stm32h7xx_hal.c ****   }
 2640              		.loc 1 1284 5 is_stmt 1 view .LVU484
 2641 0044 044C     		ldr	r4, .L257
 2642 0046 00F01F06 		and	r6, r0, #31
 2643 004a 0121     		movs	r1, #1
 2644              	.LVL99:
1284:./Libraries/STM32H7xx_HAL_Driver/Src/stm32h7xx_hal.c ****   }
 2645              		.loc 1 1284 5 is_stmt 0 view .LVU485
 2646 004c 1D59     		ldr	r5, [r3, r4]
 2647 004e B140     		lsls	r1, r1, r6
 2648 0050 2943     		orrs	r1, r1, r5
 2649 0052 1951     		str	r1, [r3, r4]
 2650 0054 E1E7     		b	.L253
 2651              	.L258:
 2652 0056 00BF     		.align	2
ARM GAS  /tmp/ccHzGhIf.s 			page 71


 2653              	.L257:
 2654 0058 0C000058 		.word	1476395020
 2655 005c 10000058 		.word	1476395024
 2656 0060 14000058 		.word	1476395028
 2657              		.cfi_endproc
 2658              	.LFE391:
 2660              		.global	uwTickFreq
 2661              		.global	uwTickPrio
 2662              		.comm	uwTick,4,4
 2663              		.section	.data.uwTickFreq,"aw"
 2664              		.set	.LANCHOR0,. + 0
 2667              	uwTickFreq:
 2668 0000 01       		.byte	1
 2669              		.section	.data.uwTickPrio,"aw"
 2670              		.align	2
 2671              		.set	.LANCHOR1,. + 0
 2674              	uwTickPrio:
 2675 0000 10000000 		.word	16
 2676              		.text
 2677              	.Letext0:
 2678              		.file 2 "/usr/lib/gcc/arm-none-eabi/9.2.1/include/stdint.h"
 2679              		.file 3 "./Libraries/CMSIS/Core/Include/core_cm7.h"
 2680              		.file 4 "./Libraries/CMSIS/Device/ST/STM32H7xx/Include/system_stm32h7xx.h"
 2681              		.file 5 "./Libraries/CMSIS/Device/ST/STM32H7xx/Include/stm32h747xx.h"
 2682              		.file 6 "/usr/lib/gcc/arm-none-eabi/9.2.1/include/stddef.h"
 2683              		.file 7 "/usr/include/newlib/sys/_types.h"
 2684              		.file 8 "/usr/include/newlib/sys/reent.h"
 2685              		.file 9 "/usr/include/newlib/sys/lock.h"
 2686              		.file 10 "/usr/include/newlib/math.h"
 2687              		.file 11 "./Libraries/STM32H7xx_HAL_Driver/Inc/stm32h7xx_hal_def.h"
 2688              		.file 12 "./Libraries/STM32H7xx_HAL_Driver/Inc/stm32h7xx_hal_flash.h"
 2689              		.file 13 "./Libraries/STM32H7xx_HAL_Driver/Inc/stm32h7xx_hal_uart.h"
 2690              		.file 14 "./Libraries/STM32H7xx_HAL_Driver/Inc/stm32h7xx_hal.h"
 2691              		.file 15 "./Libraries/STM32H7xx_HAL_Driver/Inc/stm32h7xx_hal_cortex.h"
 2692              		.file 16 "./Libraries/STM32H7xx_HAL_Driver/Inc/stm32h7xx_hal_rcc.h"
ARM GAS  /tmp/ccHzGhIf.s 			page 72

