ARM GAS  /tmp/cc1KsLnH.s 			page 1


   1              		.cpu cortex-m7
   2              		.eabi_attribute 28, 1
   3              		.eabi_attribute 20, 1
   4              		.eabi_attribute 21, 1
   5              		.eabi_attribute 23, 3
   6              		.eabi_attribute 24, 1
   7              		.eabi_attribute 25, 1
   8              		.eabi_attribute 26, 1
   9              		.eabi_attribute 30, 2
  10              		.eabi_attribute 34, 1
  11              		.eabi_attribute 18, 4
  12              		.file	"stm32h7xx_hal_msp.c"
  13              		.text
  14              	.Ltext0:
  15              		.cfi_sections	.debug_frame
  16              		.section	.text.HAL_MspInit,"ax",%progbits
  17              		.align	1
  18              		.p2align 2,,3
  19              		.global	HAL_MspInit
  20              		.arch armv7e-m
  21              		.syntax unified
  22              		.thumb
  23              		.thumb_func
  24              		.fpu fpv5-d16
  26              	HAL_MspInit:
  27              	.LFB331:
  28              		.file 1 "./User/code/Src/stm32h7xx_hal_msp.c"
   1:./User/code/Src/stm32h7xx_hal_msp.c **** /* USER CODE BEGIN Header */
   2:./User/code/Src/stm32h7xx_hal_msp.c **** /**
   3:./User/code/Src/stm32h7xx_hal_msp.c ****   ******************************************************************************
   4:./User/code/Src/stm32h7xx_hal_msp.c ****   * @file         stm32h7xx_hal_msp.c
   5:./User/code/Src/stm32h7xx_hal_msp.c ****   * @brief        This file provides code for the MSP Initialization
   6:./User/code/Src/stm32h7xx_hal_msp.c ****   *               and de-Initialization codes.
   7:./User/code/Src/stm32h7xx_hal_msp.c ****   ******************************************************************************
   8:./User/code/Src/stm32h7xx_hal_msp.c ****   * @attention
   9:./User/code/Src/stm32h7xx_hal_msp.c ****   *
  10:./User/code/Src/stm32h7xx_hal_msp.c ****   * <h2><center>&copy; Copyright (c) 2021 STMicroelectronics.
  11:./User/code/Src/stm32h7xx_hal_msp.c ****   * All rights reserved.</center></h2>
  12:./User/code/Src/stm32h7xx_hal_msp.c ****   *
  13:./User/code/Src/stm32h7xx_hal_msp.c ****   * This software component is licensed by ST under BSD 3-Clause license,
  14:./User/code/Src/stm32h7xx_hal_msp.c ****   * the "License"; You may not use this file except in compliance with the
  15:./User/code/Src/stm32h7xx_hal_msp.c ****   * License. You may obtain a copy of the License at:
  16:./User/code/Src/stm32h7xx_hal_msp.c ****   *                        opensource.org/licenses/BSD-3-Clause
  17:./User/code/Src/stm32h7xx_hal_msp.c ****   *
  18:./User/code/Src/stm32h7xx_hal_msp.c ****   ******************************************************************************
  19:./User/code/Src/stm32h7xx_hal_msp.c ****   */
  20:./User/code/Src/stm32h7xx_hal_msp.c **** /* USER CODE END Header */
  21:./User/code/Src/stm32h7xx_hal_msp.c **** 
  22:./User/code/Src/stm32h7xx_hal_msp.c **** /* Includes ------------------------------------------------------------------*/
  23:./User/code/Src/stm32h7xx_hal_msp.c **** #include "main.h"
  24:./User/code/Src/stm32h7xx_hal_msp.c **** /* USER CODE BEGIN Includes */
  25:./User/code/Src/stm32h7xx_hal_msp.c **** 
  26:./User/code/Src/stm32h7xx_hal_msp.c **** /* USER CODE END Includes */
  27:./User/code/Src/stm32h7xx_hal_msp.c **** extern DMA_HandleTypeDef hdma_i2c4_rx;
  28:./User/code/Src/stm32h7xx_hal_msp.c **** 
  29:./User/code/Src/stm32h7xx_hal_msp.c **** extern DMA_HandleTypeDef hdma_i2c4_tx;
  30:./User/code/Src/stm32h7xx_hal_msp.c **** 
ARM GAS  /tmp/cc1KsLnH.s 			page 2


  31:./User/code/Src/stm32h7xx_hal_msp.c **** /* Private typedef -----------------------------------------------------------*/
  32:./User/code/Src/stm32h7xx_hal_msp.c **** /* USER CODE BEGIN TD */
  33:./User/code/Src/stm32h7xx_hal_msp.c **** 
  34:./User/code/Src/stm32h7xx_hal_msp.c **** /* USER CODE END TD */
  35:./User/code/Src/stm32h7xx_hal_msp.c **** 
  36:./User/code/Src/stm32h7xx_hal_msp.c **** /* Private define ------------------------------------------------------------*/
  37:./User/code/Src/stm32h7xx_hal_msp.c **** /* USER CODE BEGIN Define */
  38:./User/code/Src/stm32h7xx_hal_msp.c **** 
  39:./User/code/Src/stm32h7xx_hal_msp.c **** /* USER CODE END Define */
  40:./User/code/Src/stm32h7xx_hal_msp.c **** 
  41:./User/code/Src/stm32h7xx_hal_msp.c **** /* Private macro -------------------------------------------------------------*/
  42:./User/code/Src/stm32h7xx_hal_msp.c **** /* USER CODE BEGIN Macro */
  43:./User/code/Src/stm32h7xx_hal_msp.c **** 
  44:./User/code/Src/stm32h7xx_hal_msp.c **** /* USER CODE END Macro */
  45:./User/code/Src/stm32h7xx_hal_msp.c **** 
  46:./User/code/Src/stm32h7xx_hal_msp.c **** /* Private variables ---------------------------------------------------------*/
  47:./User/code/Src/stm32h7xx_hal_msp.c **** /* USER CODE BEGIN PV */
  48:./User/code/Src/stm32h7xx_hal_msp.c **** 
  49:./User/code/Src/stm32h7xx_hal_msp.c **** /* USER CODE END PV */
  50:./User/code/Src/stm32h7xx_hal_msp.c **** 
  51:./User/code/Src/stm32h7xx_hal_msp.c **** /* Private function prototypes -----------------------------------------------*/
  52:./User/code/Src/stm32h7xx_hal_msp.c **** /* USER CODE BEGIN PFP */
  53:./User/code/Src/stm32h7xx_hal_msp.c **** 
  54:./User/code/Src/stm32h7xx_hal_msp.c **** /* USER CODE END PFP */
  55:./User/code/Src/stm32h7xx_hal_msp.c **** 
  56:./User/code/Src/stm32h7xx_hal_msp.c **** /* External functions --------------------------------------------------------*/
  57:./User/code/Src/stm32h7xx_hal_msp.c **** /* USER CODE BEGIN ExternalFunctions */
  58:./User/code/Src/stm32h7xx_hal_msp.c **** 
  59:./User/code/Src/stm32h7xx_hal_msp.c **** /* USER CODE END ExternalFunctions */
  60:./User/code/Src/stm32h7xx_hal_msp.c **** 
  61:./User/code/Src/stm32h7xx_hal_msp.c **** /* USER CODE BEGIN 0 */
  62:./User/code/Src/stm32h7xx_hal_msp.c **** 
  63:./User/code/Src/stm32h7xx_hal_msp.c **** /* USER CODE END 0 */
  64:./User/code/Src/stm32h7xx_hal_msp.c **** /**
  65:./User/code/Src/stm32h7xx_hal_msp.c ****   * Initializes the Global MSP.
  66:./User/code/Src/stm32h7xx_hal_msp.c ****   */
  67:./User/code/Src/stm32h7xx_hal_msp.c **** void HAL_MspInit(void)
  68:./User/code/Src/stm32h7xx_hal_msp.c **** {
  29              		.loc 1 68 1 view -0
  30              		.cfi_startproc
  31              		@ args = 0, pretend = 0, frame = 8
  32              		@ frame_needed = 0, uses_anonymous_args = 0
  33              		@ link register save eliminated.
  69:./User/code/Src/stm32h7xx_hal_msp.c ****   /* USER CODE BEGIN MspInit 0 */
  70:./User/code/Src/stm32h7xx_hal_msp.c **** 
  71:./User/code/Src/stm32h7xx_hal_msp.c ****   /* USER CODE END MspInit 0 */
  72:./User/code/Src/stm32h7xx_hal_msp.c **** 
  73:./User/code/Src/stm32h7xx_hal_msp.c ****   __HAL_RCC_SYSCFG_CLK_ENABLE();
  34              		.loc 1 73 3 view .LVU1
  35              	.LBB2:
  36              		.loc 1 73 3 view .LVU2
  37              		.loc 1 73 3 view .LVU3
  38 0000 0B4B     		ldr	r3, .L4
  39              	.LBE2:
  74:./User/code/Src/stm32h7xx_hal_msp.c **** 
  75:./User/code/Src/stm32h7xx_hal_msp.c ****   /* System interrupt init*/
  76:./User/code/Src/stm32h7xx_hal_msp.c ****   /* PendSV_IRQn interrupt configuration */
ARM GAS  /tmp/cc1KsLnH.s 			page 3


  77:./User/code/Src/stm32h7xx_hal_msp.c ****   HAL_NVIC_SetPriority(PendSV_IRQn, 15, 0);
  40              		.loc 1 77 3 is_stmt 0 view .LVU4
  41 0002 0022     		movs	r2, #0
  42 0004 0F21     		movs	r1, #15
  43 0006 6FF00100 		mvn	r0, #1
  68:./User/code/Src/stm32h7xx_hal_msp.c ****   /* USER CODE BEGIN MspInit 0 */
  44              		.loc 1 68 1 view .LVU5
  45 000a 10B4     		push	{r4}
  46              	.LCFI0:
  47              		.cfi_def_cfa_offset 4
  48              		.cfi_offset 4, -4
  49              	.LBB3:
  73:./User/code/Src/stm32h7xx_hal_msp.c **** 
  50              		.loc 1 73 3 view .LVU6
  51 000c D3F8F440 		ldr	r4, [r3, #244]
  52              	.LBE3:
  68:./User/code/Src/stm32h7xx_hal_msp.c ****   /* USER CODE BEGIN MspInit 0 */
  53              		.loc 1 68 1 view .LVU7
  54 0010 83B0     		sub	sp, sp, #12
  55              	.LCFI1:
  56              		.cfi_def_cfa_offset 16
  57              	.LBB4:
  73:./User/code/Src/stm32h7xx_hal_msp.c **** 
  58              		.loc 1 73 3 view .LVU8
  59 0012 44F00204 		orr	r4, r4, #2
  60 0016 C3F8F440 		str	r4, [r3, #244]
  73:./User/code/Src/stm32h7xx_hal_msp.c **** 
  61              		.loc 1 73 3 is_stmt 1 view .LVU9
  62 001a D3F8F430 		ldr	r3, [r3, #244]
  63 001e 03F00203 		and	r3, r3, #2
  64 0022 0193     		str	r3, [sp, #4]
  73:./User/code/Src/stm32h7xx_hal_msp.c **** 
  65              		.loc 1 73 3 view .LVU10
  66 0024 019B     		ldr	r3, [sp, #4]
  67              	.LBE4:
  73:./User/code/Src/stm32h7xx_hal_msp.c **** 
  68              		.loc 1 73 3 view .LVU11
  69              		.loc 1 77 3 view .LVU12
  78:./User/code/Src/stm32h7xx_hal_msp.c **** 
  79:./User/code/Src/stm32h7xx_hal_msp.c ****   /* USER CODE BEGIN MspInit 1 */
  80:./User/code/Src/stm32h7xx_hal_msp.c **** 
  81:./User/code/Src/stm32h7xx_hal_msp.c ****   /* USER CODE END MspInit 1 */
  82:./User/code/Src/stm32h7xx_hal_msp.c **** }
  70              		.loc 1 82 1 is_stmt 0 view .LVU13
  71 0026 03B0     		add	sp, sp, #12
  72              	.LCFI2:
  73              		.cfi_def_cfa_offset 4
  74              		@ sp needed
  75 0028 5DF8044B 		ldr	r4, [sp], #4
  76              	.LCFI3:
  77              		.cfi_restore 4
  78              		.cfi_def_cfa_offset 0
  77:./User/code/Src/stm32h7xx_hal_msp.c **** 
  79              		.loc 1 77 3 view .LVU14
  80 002c FFF7FEBF 		b	HAL_NVIC_SetPriority
  81              	.LVL0:
  82              	.L5:
ARM GAS  /tmp/cc1KsLnH.s 			page 4


  83              		.align	2
  84              	.L4:
  85 0030 00440258 		.word	1476543488
  86              		.cfi_endproc
  87              	.LFE331:
  89              		.section	.text.HAL_CRC_MspInit,"ax",%progbits
  90              		.align	1
  91              		.p2align 2,,3
  92              		.global	HAL_CRC_MspInit
  93              		.syntax unified
  94              		.thumb
  95              		.thumb_func
  96              		.fpu fpv5-d16
  98              	HAL_CRC_MspInit:
  99              	.LVL1:
 100              	.LFB332:
  83:./User/code/Src/stm32h7xx_hal_msp.c **** 
  84:./User/code/Src/stm32h7xx_hal_msp.c **** /**
  85:./User/code/Src/stm32h7xx_hal_msp.c **** * @brief CRC MSP Initialization
  86:./User/code/Src/stm32h7xx_hal_msp.c **** * This function configures the hardware resources used in this example
  87:./User/code/Src/stm32h7xx_hal_msp.c **** * @param hcrc: CRC handle pointer
  88:./User/code/Src/stm32h7xx_hal_msp.c **** * @retval None
  89:./User/code/Src/stm32h7xx_hal_msp.c **** */
  90:./User/code/Src/stm32h7xx_hal_msp.c **** void HAL_CRC_MspInit(CRC_HandleTypeDef* hcrc)
  91:./User/code/Src/stm32h7xx_hal_msp.c **** {
 101              		.loc 1 91 1 is_stmt 1 view -0
 102              		.cfi_startproc
 103              		@ args = 0, pretend = 0, frame = 8
 104              		@ frame_needed = 0, uses_anonymous_args = 0
 105              		@ link register save eliminated.
  92:./User/code/Src/stm32h7xx_hal_msp.c ****   if(hcrc->Instance==CRC)
 106              		.loc 1 92 3 view .LVU16
 107              		.loc 1 92 5 is_stmt 0 view .LVU17
 108 0000 0A4B     		ldr	r3, .L13
 109 0002 0268     		ldr	r2, [r0]
 110 0004 9A42     		cmp	r2, r3
 111 0006 00D0     		beq	.L12
 112 0008 7047     		bx	lr
 113              	.L12:
  93:./User/code/Src/stm32h7xx_hal_msp.c ****   {
  94:./User/code/Src/stm32h7xx_hal_msp.c ****   /* USER CODE BEGIN CRC_MspInit 0 */
  95:./User/code/Src/stm32h7xx_hal_msp.c **** 
  96:./User/code/Src/stm32h7xx_hal_msp.c ****   /* USER CODE END CRC_MspInit 0 */
  97:./User/code/Src/stm32h7xx_hal_msp.c ****     /* Peripheral clock enable */
  98:./User/code/Src/stm32h7xx_hal_msp.c ****     __HAL_RCC_CRC_CLK_ENABLE();
 114              		.loc 1 98 5 is_stmt 1 view .LVU18
 115              	.LBB5:
 116              		.loc 1 98 5 view .LVU19
 117              		.loc 1 98 5 view .LVU20
 118 000a A3F50063 		sub	r3, r3, #2048
 119              	.LBE5:
  91:./User/code/Src/stm32h7xx_hal_msp.c ****   if(hcrc->Instance==CRC)
 120              		.loc 1 91 1 is_stmt 0 view .LVU21
 121 000e 82B0     		sub	sp, sp, #8
 122              	.LCFI4:
 123              		.cfi_def_cfa_offset 8
 124              	.LBB6:
ARM GAS  /tmp/cc1KsLnH.s 			page 5


 125              		.loc 1 98 5 view .LVU22
 126 0010 D3F8E020 		ldr	r2, [r3, #224]
 127 0014 42F40022 		orr	r2, r2, #524288
 128 0018 C3F8E020 		str	r2, [r3, #224]
 129              		.loc 1 98 5 is_stmt 1 view .LVU23
 130 001c D3F8E030 		ldr	r3, [r3, #224]
 131 0020 03F40023 		and	r3, r3, #524288
 132 0024 0193     		str	r3, [sp, #4]
 133              		.loc 1 98 5 view .LVU24
 134 0026 019B     		ldr	r3, [sp, #4]
 135              	.LBE6:
 136              		.loc 1 98 5 view .LVU25
  99:./User/code/Src/stm32h7xx_hal_msp.c ****   /* USER CODE BEGIN CRC_MspInit 1 */
 100:./User/code/Src/stm32h7xx_hal_msp.c **** 
 101:./User/code/Src/stm32h7xx_hal_msp.c ****   /* USER CODE END CRC_MspInit 1 */
 102:./User/code/Src/stm32h7xx_hal_msp.c ****   }
 103:./User/code/Src/stm32h7xx_hal_msp.c **** 
 104:./User/code/Src/stm32h7xx_hal_msp.c **** }
 137              		.loc 1 104 1 is_stmt 0 view .LVU26
 138 0028 02B0     		add	sp, sp, #8
 139              	.LCFI5:
 140              		.cfi_def_cfa_offset 0
 141              		@ sp needed
 142 002a 7047     		bx	lr
 143              	.L14:
 144              		.align	2
 145              	.L13:
 146 002c 004C0258 		.word	1476545536
 147              		.cfi_endproc
 148              	.LFE332:
 150              		.section	.text.HAL_CRC_MspDeInit,"ax",%progbits
 151              		.align	1
 152              		.p2align 2,,3
 153              		.global	HAL_CRC_MspDeInit
 154              		.syntax unified
 155              		.thumb
 156              		.thumb_func
 157              		.fpu fpv5-d16
 159              	HAL_CRC_MspDeInit:
 160              	.LVL2:
 161              	.LFB333:
 105:./User/code/Src/stm32h7xx_hal_msp.c **** 
 106:./User/code/Src/stm32h7xx_hal_msp.c **** /**
 107:./User/code/Src/stm32h7xx_hal_msp.c **** * @brief CRC MSP De-Initialization
 108:./User/code/Src/stm32h7xx_hal_msp.c **** * This function freeze the hardware resources used in this example
 109:./User/code/Src/stm32h7xx_hal_msp.c **** * @param hcrc: CRC handle pointer
 110:./User/code/Src/stm32h7xx_hal_msp.c **** * @retval None
 111:./User/code/Src/stm32h7xx_hal_msp.c **** */
 112:./User/code/Src/stm32h7xx_hal_msp.c **** void HAL_CRC_MspDeInit(CRC_HandleTypeDef* hcrc)
 113:./User/code/Src/stm32h7xx_hal_msp.c **** {
 162              		.loc 1 113 1 is_stmt 1 view -0
 163              		.cfi_startproc
 164              		@ args = 0, pretend = 0, frame = 0
 165              		@ frame_needed = 0, uses_anonymous_args = 0
 166              		@ link register save eliminated.
 114:./User/code/Src/stm32h7xx_hal_msp.c ****   if(hcrc->Instance==CRC)
 167              		.loc 1 114 3 view .LVU28
ARM GAS  /tmp/cc1KsLnH.s 			page 6


 168              		.loc 1 114 5 is_stmt 0 view .LVU29
 169 0000 064B     		ldr	r3, .L18
 170 0002 0268     		ldr	r2, [r0]
 171 0004 9A42     		cmp	r2, r3
 172 0006 00D0     		beq	.L17
 115:./User/code/Src/stm32h7xx_hal_msp.c ****   {
 116:./User/code/Src/stm32h7xx_hal_msp.c ****   /* USER CODE BEGIN CRC_MspDeInit 0 */
 117:./User/code/Src/stm32h7xx_hal_msp.c **** 
 118:./User/code/Src/stm32h7xx_hal_msp.c ****   /* USER CODE END CRC_MspDeInit 0 */
 119:./User/code/Src/stm32h7xx_hal_msp.c ****     /* Peripheral clock disable */
 120:./User/code/Src/stm32h7xx_hal_msp.c ****     __HAL_RCC_CRC_CLK_DISABLE();
 121:./User/code/Src/stm32h7xx_hal_msp.c ****   /* USER CODE BEGIN CRC_MspDeInit 1 */
 122:./User/code/Src/stm32h7xx_hal_msp.c **** 
 123:./User/code/Src/stm32h7xx_hal_msp.c ****   /* USER CODE END CRC_MspDeInit 1 */
 124:./User/code/Src/stm32h7xx_hal_msp.c ****   }
 125:./User/code/Src/stm32h7xx_hal_msp.c **** 
 126:./User/code/Src/stm32h7xx_hal_msp.c **** }
 173              		.loc 1 126 1 view .LVU30
 174 0008 7047     		bx	lr
 175              	.L17:
 120:./User/code/Src/stm32h7xx_hal_msp.c ****   /* USER CODE BEGIN CRC_MspDeInit 1 */
 176              		.loc 1 120 5 is_stmt 1 view .LVU31
 177 000a 054A     		ldr	r2, .L18+4
 178 000c D2F8E030 		ldr	r3, [r2, #224]
 179 0010 23F40023 		bic	r3, r3, #524288
 180 0014 C2F8E030 		str	r3, [r2, #224]
 181              		.loc 1 126 1 is_stmt 0 view .LVU32
 182 0018 7047     		bx	lr
 183              	.L19:
 184 001a 00BF     		.align	2
 185              	.L18:
 186 001c 004C0258 		.word	1476545536
 187 0020 00440258 		.word	1476543488
 188              		.cfi_endproc
 189              	.LFE333:
 191              		.section	.text.HAL_DSI_MspInit,"ax",%progbits
 192              		.align	1
 193              		.p2align 2,,3
 194              		.global	HAL_DSI_MspInit
 195              		.syntax unified
 196              		.thumb
 197              		.thumb_func
 198              		.fpu fpv5-d16
 200              	HAL_DSI_MspInit:
 201              	.LVL3:
 202              	.LFB334:
 127:./User/code/Src/stm32h7xx_hal_msp.c **** 
 128:./User/code/Src/stm32h7xx_hal_msp.c **** /**
 129:./User/code/Src/stm32h7xx_hal_msp.c **** * @brief DSI MSP Initialization
 130:./User/code/Src/stm32h7xx_hal_msp.c **** * This function configures the hardware resources used in this example
 131:./User/code/Src/stm32h7xx_hal_msp.c **** * @param hdsi: DSI handle pointer
 132:./User/code/Src/stm32h7xx_hal_msp.c **** * @retval None
 133:./User/code/Src/stm32h7xx_hal_msp.c **** */
 134:./User/code/Src/stm32h7xx_hal_msp.c **** void HAL_DSI_MspInit(DSI_HandleTypeDef* hdsi)
 135:./User/code/Src/stm32h7xx_hal_msp.c **** {
 203              		.loc 1 135 1 is_stmt 1 view -0
 204              		.cfi_startproc
ARM GAS  /tmp/cc1KsLnH.s 			page 7


 205              		@ args = 0, pretend = 0, frame = 224
 206              		@ frame_needed = 0, uses_anonymous_args = 0
 136:./User/code/Src/stm32h7xx_hal_msp.c ****   GPIO_InitTypeDef GPIO_InitStruct = {0};
 207              		.loc 1 136 3 view .LVU34
 135:./User/code/Src/stm32h7xx_hal_msp.c ****   GPIO_InitTypeDef GPIO_InitStruct = {0};
 208              		.loc 1 135 1 is_stmt 0 view .LVU35
 209 0000 70B5     		push	{r4, r5, r6, lr}
 210              	.LCFI6:
 211              		.cfi_def_cfa_offset 16
 212              		.cfi_offset 4, -16
 213              		.cfi_offset 5, -12
 214              		.cfi_offset 6, -8
 215              		.cfi_offset 14, -4
 216              		.loc 1 136 20 view .LVU36
 217 0002 0024     		movs	r4, #0
 135:./User/code/Src/stm32h7xx_hal_msp.c ****   GPIO_InitTypeDef GPIO_InitStruct = {0};
 218              		.loc 1 135 1 view .LVU37
 219 0004 B8B0     		sub	sp, sp, #224
 220              	.LCFI7:
 221              		.cfi_def_cfa_offset 240
 135:./User/code/Src/stm32h7xx_hal_msp.c ****   GPIO_InitTypeDef GPIO_InitStruct = {0};
 222              		.loc 1 135 1 view .LVU38
 223 0006 0546     		mov	r5, r0
 137:./User/code/Src/stm32h7xx_hal_msp.c ****   RCC_PeriphCLKInitTypeDef PeriphClkInitStruct = {0};
 224              		.loc 1 137 28 view .LVU39
 225 0008 C022     		movs	r2, #192
 226 000a 2146     		mov	r1, r4
 227 000c 08A8     		add	r0, sp, #32
 228              	.LVL4:
 136:./User/code/Src/stm32h7xx_hal_msp.c ****   GPIO_InitTypeDef GPIO_InitStruct = {0};
 229              		.loc 1 136 20 view .LVU40
 230 000e 0794     		str	r4, [sp, #28]
 231              		.loc 1 137 3 is_stmt 1 view .LVU41
 136:./User/code/Src/stm32h7xx_hal_msp.c ****   GPIO_InitTypeDef GPIO_InitStruct = {0};
 232              		.loc 1 136 20 is_stmt 0 view .LVU42
 233 0010 CDE90344 		strd	r4, r4, [sp, #12]
 234 0014 CDE90544 		strd	r4, r4, [sp, #20]
 235              		.loc 1 137 28 view .LVU43
 236 0018 FFF7FEFF 		bl	memset
 237              	.LVL5:
 138:./User/code/Src/stm32h7xx_hal_msp.c ****   if(hdsi->Instance==DSI)
 238              		.loc 1 138 3 is_stmt 1 view .LVU44
 239              		.loc 1 138 5 is_stmt 0 view .LVU45
 240 001c 2B68     		ldr	r3, [r5]
 241 001e B3F1A04F 		cmp	r3, #1342177280
 242 0022 01D0     		beq	.L27
 139:./User/code/Src/stm32h7xx_hal_msp.c ****   {
 140:./User/code/Src/stm32h7xx_hal_msp.c ****   /* USER CODE BEGIN DSI_MspInit 0 */
 141:./User/code/Src/stm32h7xx_hal_msp.c **** 
 142:./User/code/Src/stm32h7xx_hal_msp.c ****   /* USER CODE END DSI_MspInit 0 */
 143:./User/code/Src/stm32h7xx_hal_msp.c ****   /** Initializes the peripherals clock
 144:./User/code/Src/stm32h7xx_hal_msp.c ****   */
 145:./User/code/Src/stm32h7xx_hal_msp.c ****     PeriphClkInitStruct.PeriphClockSelection = RCC_PERIPHCLK_DSI;
 146:./User/code/Src/stm32h7xx_hal_msp.c ****     PeriphClkInitStruct.DsiClockSelection = RCC_DSICLKSOURCE_PHY;
 147:./User/code/Src/stm32h7xx_hal_msp.c ****     if (HAL_RCCEx_PeriphCLKConfig(&PeriphClkInitStruct) != HAL_OK)
 148:./User/code/Src/stm32h7xx_hal_msp.c ****     {
 149:./User/code/Src/stm32h7xx_hal_msp.c ****       Error_Handler();
ARM GAS  /tmp/cc1KsLnH.s 			page 8


 150:./User/code/Src/stm32h7xx_hal_msp.c ****     }
 151:./User/code/Src/stm32h7xx_hal_msp.c **** 
 152:./User/code/Src/stm32h7xx_hal_msp.c ****     /* Peripheral clock enable */
 153:./User/code/Src/stm32h7xx_hal_msp.c ****     __HAL_RCC_DSI_CLK_ENABLE();
 154:./User/code/Src/stm32h7xx_hal_msp.c **** 
 155:./User/code/Src/stm32h7xx_hal_msp.c ****     __HAL_RCC_GPIOA_CLK_ENABLE();
 156:./User/code/Src/stm32h7xx_hal_msp.c ****     /**DSIHOST GPIO Configuration
 157:./User/code/Src/stm32h7xx_hal_msp.c ****     PA15 (JTDI)     ------> DSIHOST_TE
 158:./User/code/Src/stm32h7xx_hal_msp.c ****     DSI_D1P     ------> DSIHOST_D1P
 159:./User/code/Src/stm32h7xx_hal_msp.c ****     DSI_D1N     ------> DSIHOST_D1N
 160:./User/code/Src/stm32h7xx_hal_msp.c ****     DSI_CKP     ------> DSIHOST_CKP
 161:./User/code/Src/stm32h7xx_hal_msp.c ****     DSI_CKN     ------> DSIHOST_CKN
 162:./User/code/Src/stm32h7xx_hal_msp.c ****     DSI_D0P     ------> DSIHOST_D0P
 163:./User/code/Src/stm32h7xx_hal_msp.c ****     DSI_D0N     ------> DSIHOST_D0N
 164:./User/code/Src/stm32h7xx_hal_msp.c ****     */
 165:./User/code/Src/stm32h7xx_hal_msp.c ****     GPIO_InitStruct.Pin = GPIO_PIN_15;
 166:./User/code/Src/stm32h7xx_hal_msp.c ****     GPIO_InitStruct.Mode = GPIO_MODE_AF_PP;
 167:./User/code/Src/stm32h7xx_hal_msp.c ****     GPIO_InitStruct.Pull = GPIO_NOPULL;
 168:./User/code/Src/stm32h7xx_hal_msp.c ****     GPIO_InitStruct.Speed = GPIO_SPEED_FREQ_LOW;
 169:./User/code/Src/stm32h7xx_hal_msp.c ****     GPIO_InitStruct.Alternate = GPIO_AF13_DSI;
 170:./User/code/Src/stm32h7xx_hal_msp.c ****     HAL_GPIO_Init(GPIOA, &GPIO_InitStruct);
 171:./User/code/Src/stm32h7xx_hal_msp.c **** 
 172:./User/code/Src/stm32h7xx_hal_msp.c ****   /* USER CODE BEGIN DSI_MspInit 1 */
 173:./User/code/Src/stm32h7xx_hal_msp.c **** 
 174:./User/code/Src/stm32h7xx_hal_msp.c ****   /* USER CODE END DSI_MspInit 1 */
 175:./User/code/Src/stm32h7xx_hal_msp.c ****   }
 176:./User/code/Src/stm32h7xx_hal_msp.c **** 
 177:./User/code/Src/stm32h7xx_hal_msp.c **** }
 243              		.loc 1 177 1 view .LVU46
 244 0024 38B0     		add	sp, sp, #224
 245              	.LCFI8:
 246              		.cfi_remember_state
 247              		.cfi_def_cfa_offset 16
 248              		@ sp needed
 249 0026 70BD     		pop	{r4, r5, r6, pc}
 250              	.LVL6:
 251              	.L27:
 252              	.LCFI9:
 253              		.cfi_restore_state
 145:./User/code/Src/stm32h7xx_hal_msp.c ****     PeriphClkInitStruct.DsiClockSelection = RCC_DSICLKSOURCE_PHY;
 254              		.loc 1 145 5 is_stmt 1 view .LVU47
 145:./User/code/Src/stm32h7xx_hal_msp.c ****     PeriphClkInitStruct.DsiClockSelection = RCC_DSICLKSOURCE_PHY;
 255              		.loc 1 145 46 is_stmt 0 view .LVU48
 256 0028 4FF08063 		mov	r3, #67108864
 147:./User/code/Src/stm32h7xx_hal_msp.c ****     {
 257              		.loc 1 147 9 view .LVU49
 258 002c 08A8     		add	r0, sp, #32
 146:./User/code/Src/stm32h7xx_hal_msp.c ****     if (HAL_RCCEx_PeriphCLKConfig(&PeriphClkInitStruct) != HAL_OK)
 259              		.loc 1 146 43 view .LVU50
 260 002e 1B94     		str	r4, [sp, #108]
 145:./User/code/Src/stm32h7xx_hal_msp.c ****     PeriphClkInitStruct.DsiClockSelection = RCC_DSICLKSOURCE_PHY;
 261              		.loc 1 145 46 view .LVU51
 262 0030 0893     		str	r3, [sp, #32]
 146:./User/code/Src/stm32h7xx_hal_msp.c ****     if (HAL_RCCEx_PeriphCLKConfig(&PeriphClkInitStruct) != HAL_OK)
 263              		.loc 1 146 5 is_stmt 1 view .LVU52
 147:./User/code/Src/stm32h7xx_hal_msp.c ****     {
 264              		.loc 1 147 5 view .LVU53
ARM GAS  /tmp/cc1KsLnH.s 			page 9


 147:./User/code/Src/stm32h7xx_hal_msp.c ****     {
 265              		.loc 1 147 9 is_stmt 0 view .LVU54
 266 0032 FFF7FEFF 		bl	HAL_RCCEx_PeriphCLKConfig
 267              	.LVL7:
 147:./User/code/Src/stm32h7xx_hal_msp.c ****     {
 268              		.loc 1 147 8 view .LVU55
 269 0036 40BB     		cbnz	r0, .L28
 270              	.L22:
 153:./User/code/Src/stm32h7xx_hal_msp.c **** 
 271              		.loc 1 153 5 is_stmt 1 view .LVU56
 272              	.LBB7:
 153:./User/code/Src/stm32h7xx_hal_msp.c **** 
 273              		.loc 1 153 5 view .LVU57
 153:./User/code/Src/stm32h7xx_hal_msp.c **** 
 274              		.loc 1 153 5 view .LVU58
 275 0038 154B     		ldr	r3, .L29
 276              	.LBE7:
 165:./User/code/Src/stm32h7xx_hal_msp.c ****     GPIO_InitStruct.Mode = GPIO_MODE_AF_PP;
 277              		.loc 1 165 25 is_stmt 0 view .LVU59
 278 003a 4FF40040 		mov	r0, #32768
 166:./User/code/Src/stm32h7xx_hal_msp.c ****     GPIO_InitStruct.Pull = GPIO_NOPULL;
 279              		.loc 1 166 26 view .LVU60
 280 003e 0226     		movs	r6, #2
 170:./User/code/Src/stm32h7xx_hal_msp.c **** 
 281              		.loc 1 170 5 view .LVU61
 282 0040 03A9     		add	r1, sp, #12
 283              	.LBB8:
 153:./User/code/Src/stm32h7xx_hal_msp.c **** 
 284              		.loc 1 153 5 view .LVU62
 285 0042 D3F8E420 		ldr	r2, [r3, #228]
 286              	.LBE8:
 167:./User/code/Src/stm32h7xx_hal_msp.c ****     GPIO_InitStruct.Speed = GPIO_SPEED_FREQ_LOW;
 287              		.loc 1 167 26 view .LVU63
 288 0046 0024     		movs	r4, #0
 169:./User/code/Src/stm32h7xx_hal_msp.c ****     HAL_GPIO_Init(GPIOA, &GPIO_InitStruct);
 289              		.loc 1 169 31 view .LVU64
 290 0048 0D25     		movs	r5, #13
 291              	.LVL8:
 292              	.LBB9:
 153:./User/code/Src/stm32h7xx_hal_msp.c **** 
 293              		.loc 1 153 5 view .LVU65
 294 004a 42F01002 		orr	r2, r2, #16
 295 004e C3F8E420 		str	r2, [r3, #228]
 153:./User/code/Src/stm32h7xx_hal_msp.c **** 
 296              		.loc 1 153 5 is_stmt 1 view .LVU66
 297 0052 D3F8E420 		ldr	r2, [r3, #228]
 298 0056 02F01002 		and	r2, r2, #16
 299 005a 0192     		str	r2, [sp, #4]
 153:./User/code/Src/stm32h7xx_hal_msp.c **** 
 300              		.loc 1 153 5 view .LVU67
 301 005c 019A     		ldr	r2, [sp, #4]
 302              	.LBE9:
 153:./User/code/Src/stm32h7xx_hal_msp.c **** 
 303              		.loc 1 153 5 view .LVU68
 155:./User/code/Src/stm32h7xx_hal_msp.c ****     /**DSIHOST GPIO Configuration
 304              		.loc 1 155 5 view .LVU69
 305              	.LBB10:
ARM GAS  /tmp/cc1KsLnH.s 			page 10


 155:./User/code/Src/stm32h7xx_hal_msp.c ****     /**DSIHOST GPIO Configuration
 306              		.loc 1 155 5 view .LVU70
 155:./User/code/Src/stm32h7xx_hal_msp.c ****     /**DSIHOST GPIO Configuration
 307              		.loc 1 155 5 view .LVU71
 308 005e D3F8E020 		ldr	r2, [r3, #224]
 309 0062 42F00102 		orr	r2, r2, #1
 310 0066 C3F8E020 		str	r2, [r3, #224]
 155:./User/code/Src/stm32h7xx_hal_msp.c ****     /**DSIHOST GPIO Configuration
 311              		.loc 1 155 5 view .LVU72
 312 006a D3F8E030 		ldr	r3, [r3, #224]
 313              	.LBE10:
 165:./User/code/Src/stm32h7xx_hal_msp.c ****     GPIO_InitStruct.Mode = GPIO_MODE_AF_PP;
 314              		.loc 1 165 25 is_stmt 0 view .LVU73
 315 006e 0390     		str	r0, [sp, #12]
 316              	.LBB11:
 155:./User/code/Src/stm32h7xx_hal_msp.c ****     /**DSIHOST GPIO Configuration
 317              		.loc 1 155 5 view .LVU74
 318 0070 03F00103 		and	r3, r3, #1
 319              	.LBE11:
 170:./User/code/Src/stm32h7xx_hal_msp.c **** 
 320              		.loc 1 170 5 view .LVU75
 321 0074 0748     		ldr	r0, .L29+4
 166:./User/code/Src/stm32h7xx_hal_msp.c ****     GPIO_InitStruct.Pull = GPIO_NOPULL;
 322              		.loc 1 166 26 view .LVU76
 323 0076 0496     		str	r6, [sp, #16]
 324              	.LBB12:
 155:./User/code/Src/stm32h7xx_hal_msp.c ****     /**DSIHOST GPIO Configuration
 325              		.loc 1 155 5 view .LVU77
 326 0078 0293     		str	r3, [sp, #8]
 155:./User/code/Src/stm32h7xx_hal_msp.c ****     /**DSIHOST GPIO Configuration
 327              		.loc 1 155 5 is_stmt 1 view .LVU78
 328 007a 029B     		ldr	r3, [sp, #8]
 329              	.LBE12:
 155:./User/code/Src/stm32h7xx_hal_msp.c ****     /**DSIHOST GPIO Configuration
 330              		.loc 1 155 5 view .LVU79
 165:./User/code/Src/stm32h7xx_hal_msp.c ****     GPIO_InitStruct.Mode = GPIO_MODE_AF_PP;
 331              		.loc 1 165 5 view .LVU80
 166:./User/code/Src/stm32h7xx_hal_msp.c ****     GPIO_InitStruct.Pull = GPIO_NOPULL;
 332              		.loc 1 166 5 view .LVU81
 167:./User/code/Src/stm32h7xx_hal_msp.c ****     GPIO_InitStruct.Speed = GPIO_SPEED_FREQ_LOW;
 333              		.loc 1 167 5 view .LVU82
 169:./User/code/Src/stm32h7xx_hal_msp.c ****     HAL_GPIO_Init(GPIOA, &GPIO_InitStruct);
 334              		.loc 1 169 31 is_stmt 0 view .LVU83
 335 007c 0795     		str	r5, [sp, #28]
 168:./User/code/Src/stm32h7xx_hal_msp.c ****     GPIO_InitStruct.Alternate = GPIO_AF13_DSI;
 336              		.loc 1 168 27 view .LVU84
 337 007e CDE90544 		strd	r4, r4, [sp, #20]
 169:./User/code/Src/stm32h7xx_hal_msp.c ****     HAL_GPIO_Init(GPIOA, &GPIO_InitStruct);
 338              		.loc 1 169 5 is_stmt 1 view .LVU85
 170:./User/code/Src/stm32h7xx_hal_msp.c **** 
 339              		.loc 1 170 5 view .LVU86
 340 0082 FFF7FEFF 		bl	HAL_GPIO_Init
 341              	.LVL9:
 342              		.loc 1 177 1 is_stmt 0 view .LVU87
 343 0086 38B0     		add	sp, sp, #224
 344              	.LCFI10:
 345              		.cfi_remember_state
ARM GAS  /tmp/cc1KsLnH.s 			page 11


 346              		.cfi_def_cfa_offset 16
 347              		@ sp needed
 348 0088 70BD     		pop	{r4, r5, r6, pc}
 349              	.LVL10:
 350              	.L28:
 351              	.LCFI11:
 352              		.cfi_restore_state
 353              	.LBB13:
 149:./User/code/Src/stm32h7xx_hal_msp.c ****     }
 354              		.loc 1 149 7 is_stmt 1 view .LVU88
 355 008a FFF7FEFF 		bl	Error_Handler
 356              	.LVL11:
 357 008e D3E7     		b	.L22
 358              	.L30:
 359              		.align	2
 360              	.L29:
 361 0090 00440258 		.word	1476543488
 362 0094 00000258 		.word	1476526080
 363              	.LBE13:
 364              		.cfi_endproc
 365              	.LFE334:
 367              		.section	.text.HAL_DSI_MspDeInit,"ax",%progbits
 368              		.align	1
 369              		.p2align 2,,3
 370              		.global	HAL_DSI_MspDeInit
 371              		.syntax unified
 372              		.thumb
 373              		.thumb_func
 374              		.fpu fpv5-d16
 376              	HAL_DSI_MspDeInit:
 377              	.LVL12:
 378              	.LFB335:
 178:./User/code/Src/stm32h7xx_hal_msp.c **** 
 179:./User/code/Src/stm32h7xx_hal_msp.c **** /**
 180:./User/code/Src/stm32h7xx_hal_msp.c **** * @brief DSI MSP De-Initialization
 181:./User/code/Src/stm32h7xx_hal_msp.c **** * This function freeze the hardware resources used in this example
 182:./User/code/Src/stm32h7xx_hal_msp.c **** * @param hdsi: DSI handle pointer
 183:./User/code/Src/stm32h7xx_hal_msp.c **** * @retval None
 184:./User/code/Src/stm32h7xx_hal_msp.c **** */
 185:./User/code/Src/stm32h7xx_hal_msp.c **** void HAL_DSI_MspDeInit(DSI_HandleTypeDef* hdsi)
 186:./User/code/Src/stm32h7xx_hal_msp.c **** {
 379              		.loc 1 186 1 view -0
 380              		.cfi_startproc
 381              		@ args = 0, pretend = 0, frame = 0
 382              		@ frame_needed = 0, uses_anonymous_args = 0
 383              		@ link register save eliminated.
 187:./User/code/Src/stm32h7xx_hal_msp.c ****   if(hdsi->Instance==DSI)
 384              		.loc 1 187 3 view .LVU90
 385              		.loc 1 187 5 is_stmt 0 view .LVU91
 386 0000 0368     		ldr	r3, [r0]
 387 0002 B3F1A04F 		cmp	r3, #1342177280
 388 0006 00D0     		beq	.L33
 188:./User/code/Src/stm32h7xx_hal_msp.c ****   {
 189:./User/code/Src/stm32h7xx_hal_msp.c ****   /* USER CODE BEGIN DSI_MspDeInit 0 */
 190:./User/code/Src/stm32h7xx_hal_msp.c **** 
 191:./User/code/Src/stm32h7xx_hal_msp.c ****   /* USER CODE END DSI_MspDeInit 0 */
 192:./User/code/Src/stm32h7xx_hal_msp.c ****     /* Peripheral clock disable */
ARM GAS  /tmp/cc1KsLnH.s 			page 12


 193:./User/code/Src/stm32h7xx_hal_msp.c ****     __HAL_RCC_DSI_CLK_DISABLE();
 194:./User/code/Src/stm32h7xx_hal_msp.c **** 
 195:./User/code/Src/stm32h7xx_hal_msp.c ****     /**DSIHOST GPIO Configuration
 196:./User/code/Src/stm32h7xx_hal_msp.c ****     PA15 (JTDI)     ------> DSIHOST_TE
 197:./User/code/Src/stm32h7xx_hal_msp.c ****     DSI_D1P     ------> DSIHOST_D1P
 198:./User/code/Src/stm32h7xx_hal_msp.c ****     DSI_D1N     ------> DSIHOST_D1N
 199:./User/code/Src/stm32h7xx_hal_msp.c ****     DSI_CKP     ------> DSIHOST_CKP
 200:./User/code/Src/stm32h7xx_hal_msp.c ****     DSI_CKN     ------> DSIHOST_CKN
 201:./User/code/Src/stm32h7xx_hal_msp.c ****     DSI_D0P     ------> DSIHOST_D0P
 202:./User/code/Src/stm32h7xx_hal_msp.c ****     DSI_D0N     ------> DSIHOST_D0N
 203:./User/code/Src/stm32h7xx_hal_msp.c ****     */
 204:./User/code/Src/stm32h7xx_hal_msp.c ****     HAL_GPIO_DeInit(GPIOA, GPIO_PIN_15);
 205:./User/code/Src/stm32h7xx_hal_msp.c **** 
 206:./User/code/Src/stm32h7xx_hal_msp.c ****   /* USER CODE BEGIN DSI_MspDeInit 1 */
 207:./User/code/Src/stm32h7xx_hal_msp.c **** 
 208:./User/code/Src/stm32h7xx_hal_msp.c ****   /* USER CODE END DSI_MspDeInit 1 */
 209:./User/code/Src/stm32h7xx_hal_msp.c ****   }
 210:./User/code/Src/stm32h7xx_hal_msp.c **** 
 211:./User/code/Src/stm32h7xx_hal_msp.c **** }
 389              		.loc 1 211 1 view .LVU92
 390 0008 7047     		bx	lr
 391              	.L33:
 193:./User/code/Src/stm32h7xx_hal_msp.c **** 
 392              		.loc 1 193 5 is_stmt 1 view .LVU93
 393 000a 064A     		ldr	r2, .L34
 204:./User/code/Src/stm32h7xx_hal_msp.c **** 
 394              		.loc 1 204 5 is_stmt 0 view .LVU94
 395 000c 4FF40041 		mov	r1, #32768
 396 0010 0548     		ldr	r0, .L34+4
 397              	.LVL13:
 193:./User/code/Src/stm32h7xx_hal_msp.c **** 
 398              		.loc 1 193 5 view .LVU95
 399 0012 D2F8E430 		ldr	r3, [r2, #228]
 400 0016 23F01003 		bic	r3, r3, #16
 401 001a C2F8E430 		str	r3, [r2, #228]
 204:./User/code/Src/stm32h7xx_hal_msp.c **** 
 402              		.loc 1 204 5 is_stmt 1 view .LVU96
 403 001e FFF7FEBF 		b	HAL_GPIO_DeInit
 404              	.LVL14:
 405              	.L35:
 406 0022 00BF     		.align	2
 407              	.L34:
 408 0024 00440258 		.word	1476543488
 409 0028 00000258 		.word	1476526080
 410              		.cfi_endproc
 411              	.LFE335:
 413              		.section	.text.HAL_I2C_MspInit,"ax",%progbits
 414              		.align	1
 415              		.p2align 2,,3
 416              		.global	HAL_I2C_MspInit
 417              		.syntax unified
 418              		.thumb
 419              		.thumb_func
 420              		.fpu fpv5-d16
 422              	HAL_I2C_MspInit:
 423              	.LVL15:
 424              	.LFB336:
ARM GAS  /tmp/cc1KsLnH.s 			page 13


 212:./User/code/Src/stm32h7xx_hal_msp.c **** 
 213:./User/code/Src/stm32h7xx_hal_msp.c **** /**
 214:./User/code/Src/stm32h7xx_hal_msp.c **** * @brief I2C MSP Initialization
 215:./User/code/Src/stm32h7xx_hal_msp.c **** * This function configures the hardware resources used in this example
 216:./User/code/Src/stm32h7xx_hal_msp.c **** * @param hi2c: I2C handle pointer
 217:./User/code/Src/stm32h7xx_hal_msp.c **** * @retval None
 218:./User/code/Src/stm32h7xx_hal_msp.c **** */
 219:./User/code/Src/stm32h7xx_hal_msp.c **** void HAL_I2C_MspInit(I2C_HandleTypeDef* hi2c)
 220:./User/code/Src/stm32h7xx_hal_msp.c **** {
 425              		.loc 1 220 1 view -0
 426              		.cfi_startproc
 427              		@ args = 0, pretend = 0, frame = 224
 428              		@ frame_needed = 0, uses_anonymous_args = 0
 221:./User/code/Src/stm32h7xx_hal_msp.c ****   GPIO_InitTypeDef GPIO_InitStruct = {0};
 429              		.loc 1 221 3 view .LVU98
 220:./User/code/Src/stm32h7xx_hal_msp.c ****   GPIO_InitTypeDef GPIO_InitStruct = {0};
 430              		.loc 1 220 1 is_stmt 0 view .LVU99
 431 0000 F0B5     		push	{r4, r5, r6, r7, lr}
 432              	.LCFI12:
 433              		.cfi_def_cfa_offset 20
 434              		.cfi_offset 4, -20
 435              		.cfi_offset 5, -16
 436              		.cfi_offset 6, -12
 437              		.cfi_offset 7, -8
 438              		.cfi_offset 14, -4
 439              		.loc 1 221 20 view .LVU100
 440 0002 0024     		movs	r4, #0
 220:./User/code/Src/stm32h7xx_hal_msp.c ****   GPIO_InitTypeDef GPIO_InitStruct = {0};
 441              		.loc 1 220 1 view .LVU101
 442 0004 B9B0     		sub	sp, sp, #228
 443              	.LCFI13:
 444              		.cfi_def_cfa_offset 248
 220:./User/code/Src/stm32h7xx_hal_msp.c ****   GPIO_InitTypeDef GPIO_InitStruct = {0};
 445              		.loc 1 220 1 view .LVU102
 446 0006 0546     		mov	r5, r0
 222:./User/code/Src/stm32h7xx_hal_msp.c ****   RCC_PeriphCLKInitTypeDef PeriphClkInitStruct = {0};
 447              		.loc 1 222 28 view .LVU103
 448 0008 C022     		movs	r2, #192
 449 000a 2146     		mov	r1, r4
 450 000c 08A8     		add	r0, sp, #32
 451              	.LVL16:
 221:./User/code/Src/stm32h7xx_hal_msp.c ****   GPIO_InitTypeDef GPIO_InitStruct = {0};
 452              		.loc 1 221 20 view .LVU104
 453 000e 0794     		str	r4, [sp, #28]
 454              		.loc 1 222 3 is_stmt 1 view .LVU105
 221:./User/code/Src/stm32h7xx_hal_msp.c ****   GPIO_InitTypeDef GPIO_InitStruct = {0};
 455              		.loc 1 221 20 is_stmt 0 view .LVU106
 456 0010 CDE90344 		strd	r4, r4, [sp, #12]
 457 0014 CDE90544 		strd	r4, r4, [sp, #20]
 458              		.loc 1 222 28 view .LVU107
 459 0018 FFF7FEFF 		bl	memset
 460              	.LVL17:
 223:./User/code/Src/stm32h7xx_hal_msp.c ****   if(hi2c->Instance==I2C4)
 461              		.loc 1 223 3 is_stmt 1 view .LVU108
 462              		.loc 1 223 5 is_stmt 0 view .LVU109
 463 001c 2A68     		ldr	r2, [r5]
 464 001e 344B     		ldr	r3, .L55
ARM GAS  /tmp/cc1KsLnH.s 			page 14


 465 0020 9A42     		cmp	r2, r3
 466 0022 01D0     		beq	.L51
 224:./User/code/Src/stm32h7xx_hal_msp.c ****   {
 225:./User/code/Src/stm32h7xx_hal_msp.c ****   /* USER CODE BEGIN I2C4_MspInit 0 */
 226:./User/code/Src/stm32h7xx_hal_msp.c **** 
 227:./User/code/Src/stm32h7xx_hal_msp.c ****   /* USER CODE END I2C4_MspInit 0 */
 228:./User/code/Src/stm32h7xx_hal_msp.c ****   /** Initializes the peripherals clock
 229:./User/code/Src/stm32h7xx_hal_msp.c ****   */
 230:./User/code/Src/stm32h7xx_hal_msp.c ****     PeriphClkInitStruct.PeriphClockSelection = RCC_PERIPHCLK_I2C4;
 231:./User/code/Src/stm32h7xx_hal_msp.c ****     PeriphClkInitStruct.I2c4ClockSelection = RCC_I2C4CLKSOURCE_D3PCLK1;
 232:./User/code/Src/stm32h7xx_hal_msp.c ****     if (HAL_RCCEx_PeriphCLKConfig(&PeriphClkInitStruct) != HAL_OK)
 233:./User/code/Src/stm32h7xx_hal_msp.c ****     {
 234:./User/code/Src/stm32h7xx_hal_msp.c ****       Error_Handler();
 235:./User/code/Src/stm32h7xx_hal_msp.c ****     }
 236:./User/code/Src/stm32h7xx_hal_msp.c **** 
 237:./User/code/Src/stm32h7xx_hal_msp.c ****     __HAL_RCC_GPIOD_CLK_ENABLE();
 238:./User/code/Src/stm32h7xx_hal_msp.c ****     /**I2C4 GPIO Configuration
 239:./User/code/Src/stm32h7xx_hal_msp.c ****     PD12     ------> I2C4_SCL
 240:./User/code/Src/stm32h7xx_hal_msp.c ****     PD13     ------> I2C4_SDA
 241:./User/code/Src/stm32h7xx_hal_msp.c ****     */
 242:./User/code/Src/stm32h7xx_hal_msp.c ****     GPIO_InitStruct.Pin = GPIO_PIN_12|GPIO_PIN_13;
 243:./User/code/Src/stm32h7xx_hal_msp.c ****     GPIO_InitStruct.Mode = GPIO_MODE_AF_OD;
 244:./User/code/Src/stm32h7xx_hal_msp.c ****     GPIO_InitStruct.Pull = GPIO_NOPULL;
 245:./User/code/Src/stm32h7xx_hal_msp.c ****     GPIO_InitStruct.Speed = GPIO_SPEED_FREQ_LOW;
 246:./User/code/Src/stm32h7xx_hal_msp.c ****     GPIO_InitStruct.Alternate = GPIO_AF4_I2C4;
 247:./User/code/Src/stm32h7xx_hal_msp.c ****     HAL_GPIO_Init(GPIOD, &GPIO_InitStruct);
 248:./User/code/Src/stm32h7xx_hal_msp.c **** 
 249:./User/code/Src/stm32h7xx_hal_msp.c ****     /* Peripheral clock enable */
 250:./User/code/Src/stm32h7xx_hal_msp.c ****     __HAL_RCC_I2C4_CLK_ENABLE();
 251:./User/code/Src/stm32h7xx_hal_msp.c **** 
 252:./User/code/Src/stm32h7xx_hal_msp.c ****     /* I2C4 DMA Init */
 253:./User/code/Src/stm32h7xx_hal_msp.c ****     /* I2C4_RX Init */
 254:./User/code/Src/stm32h7xx_hal_msp.c ****     hdma_i2c4_rx.Instance = BDMA_Channel0;
 255:./User/code/Src/stm32h7xx_hal_msp.c ****     hdma_i2c4_rx.Init.Request = BDMA_REQUEST_I2C4_RX;
 256:./User/code/Src/stm32h7xx_hal_msp.c ****     hdma_i2c4_rx.Init.Direction = DMA_PERIPH_TO_MEMORY;
 257:./User/code/Src/stm32h7xx_hal_msp.c ****     hdma_i2c4_rx.Init.PeriphInc = DMA_PINC_DISABLE;
 258:./User/code/Src/stm32h7xx_hal_msp.c ****     hdma_i2c4_rx.Init.MemInc = DMA_MINC_ENABLE;
 259:./User/code/Src/stm32h7xx_hal_msp.c ****     hdma_i2c4_rx.Init.PeriphDataAlignment = DMA_PDATAALIGN_BYTE;
 260:./User/code/Src/stm32h7xx_hal_msp.c ****     hdma_i2c4_rx.Init.MemDataAlignment = DMA_MDATAALIGN_BYTE;
 261:./User/code/Src/stm32h7xx_hal_msp.c ****     hdma_i2c4_rx.Init.Mode = DMA_NORMAL;
 262:./User/code/Src/stm32h7xx_hal_msp.c ****     hdma_i2c4_rx.Init.Priority = DMA_PRIORITY_LOW;
 263:./User/code/Src/stm32h7xx_hal_msp.c ****     if (HAL_DMA_Init(&hdma_i2c4_rx) != HAL_OK)
 264:./User/code/Src/stm32h7xx_hal_msp.c ****     {
 265:./User/code/Src/stm32h7xx_hal_msp.c ****       Error_Handler();
 266:./User/code/Src/stm32h7xx_hal_msp.c ****     }
 267:./User/code/Src/stm32h7xx_hal_msp.c **** 
 268:./User/code/Src/stm32h7xx_hal_msp.c ****     __HAL_LINKDMA(hi2c,hdmarx,hdma_i2c4_rx);
 269:./User/code/Src/stm32h7xx_hal_msp.c **** 
 270:./User/code/Src/stm32h7xx_hal_msp.c ****     /* I2C4_TX Init */
 271:./User/code/Src/stm32h7xx_hal_msp.c ****     hdma_i2c4_tx.Instance = BDMA_Channel1;
 272:./User/code/Src/stm32h7xx_hal_msp.c ****     hdma_i2c4_tx.Init.Request = BDMA_REQUEST_I2C4_TX;
 273:./User/code/Src/stm32h7xx_hal_msp.c ****     hdma_i2c4_tx.Init.Direction = DMA_MEMORY_TO_PERIPH;
 274:./User/code/Src/stm32h7xx_hal_msp.c ****     hdma_i2c4_tx.Init.PeriphInc = DMA_PINC_DISABLE;
 275:./User/code/Src/stm32h7xx_hal_msp.c ****     hdma_i2c4_tx.Init.MemInc = DMA_MINC_ENABLE;
 276:./User/code/Src/stm32h7xx_hal_msp.c ****     hdma_i2c4_tx.Init.PeriphDataAlignment = DMA_PDATAALIGN_BYTE;
 277:./User/code/Src/stm32h7xx_hal_msp.c ****     hdma_i2c4_tx.Init.MemDataAlignment = DMA_MDATAALIGN_BYTE;
 278:./User/code/Src/stm32h7xx_hal_msp.c ****     hdma_i2c4_tx.Init.Mode = DMA_NORMAL;
ARM GAS  /tmp/cc1KsLnH.s 			page 15


 279:./User/code/Src/stm32h7xx_hal_msp.c ****     hdma_i2c4_tx.Init.Priority = DMA_PRIORITY_LOW;
 280:./User/code/Src/stm32h7xx_hal_msp.c ****     if (HAL_DMA_Init(&hdma_i2c4_tx) != HAL_OK)
 281:./User/code/Src/stm32h7xx_hal_msp.c ****     {
 282:./User/code/Src/stm32h7xx_hal_msp.c ****       Error_Handler();
 283:./User/code/Src/stm32h7xx_hal_msp.c ****     }
 284:./User/code/Src/stm32h7xx_hal_msp.c **** 
 285:./User/code/Src/stm32h7xx_hal_msp.c ****     __HAL_LINKDMA(hi2c,hdmatx,hdma_i2c4_tx);
 286:./User/code/Src/stm32h7xx_hal_msp.c **** 
 287:./User/code/Src/stm32h7xx_hal_msp.c ****   /* USER CODE BEGIN I2C4_MspInit 1 */
 288:./User/code/Src/stm32h7xx_hal_msp.c **** 
 289:./User/code/Src/stm32h7xx_hal_msp.c ****   /* USER CODE END I2C4_MspInit 1 */
 290:./User/code/Src/stm32h7xx_hal_msp.c ****   }
 291:./User/code/Src/stm32h7xx_hal_msp.c **** 
 292:./User/code/Src/stm32h7xx_hal_msp.c **** }
 467              		.loc 1 292 1 view .LVU110
 468 0024 39B0     		add	sp, sp, #228
 469              	.LCFI14:
 470              		.cfi_remember_state
 471              		.cfi_def_cfa_offset 20
 472              		@ sp needed
 473 0026 F0BD     		pop	{r4, r5, r6, r7, pc}
 474              	.LVL18:
 475              	.L51:
 476              	.LCFI15:
 477              		.cfi_restore_state
 230:./User/code/Src/stm32h7xx_hal_msp.c ****     PeriphClkInitStruct.I2c4ClockSelection = RCC_I2C4CLKSOURCE_D3PCLK1;
 478              		.loc 1 230 5 is_stmt 1 view .LVU111
 230:./User/code/Src/stm32h7xx_hal_msp.c ****     PeriphClkInitStruct.I2c4ClockSelection = RCC_I2C4CLKSOURCE_D3PCLK1;
 479              		.loc 1 230 46 is_stmt 0 view .LVU112
 480 0028 1023     		movs	r3, #16
 232:./User/code/Src/stm32h7xx_hal_msp.c ****     {
 481              		.loc 1 232 9 view .LVU113
 482 002a 08A8     		add	r0, sp, #32
 231:./User/code/Src/stm32h7xx_hal_msp.c ****     if (HAL_RCCEx_PeriphCLKConfig(&PeriphClkInitStruct) != HAL_OK)
 483              		.loc 1 231 44 view .LVU114
 484 002c 2E94     		str	r4, [sp, #184]
 230:./User/code/Src/stm32h7xx_hal_msp.c ****     PeriphClkInitStruct.I2c4ClockSelection = RCC_I2C4CLKSOURCE_D3PCLK1;
 485              		.loc 1 230 46 view .LVU115
 486 002e 0893     		str	r3, [sp, #32]
 231:./User/code/Src/stm32h7xx_hal_msp.c ****     if (HAL_RCCEx_PeriphCLKConfig(&PeriphClkInitStruct) != HAL_OK)
 487              		.loc 1 231 5 is_stmt 1 view .LVU116
 232:./User/code/Src/stm32h7xx_hal_msp.c ****     {
 488              		.loc 1 232 5 view .LVU117
 232:./User/code/Src/stm32h7xx_hal_msp.c ****     {
 489              		.loc 1 232 9 is_stmt 0 view .LVU118
 490 0030 FFF7FEFF 		bl	HAL_RCCEx_PeriphCLKConfig
 491              	.LVL19:
 232:./User/code/Src/stm32h7xx_hal_msp.c ****     {
 492              		.loc 1 232 8 view .LVU119
 493 0034 0028     		cmp	r0, #0
 494 0036 52D1     		bne	.L52
 495              	.L38:
 237:./User/code/Src/stm32h7xx_hal_msp.c ****     /**I2C4 GPIO Configuration
 496              		.loc 1 237 5 is_stmt 1 view .LVU120
 497              	.LBB14:
 237:./User/code/Src/stm32h7xx_hal_msp.c ****     /**I2C4 GPIO Configuration
 498              		.loc 1 237 5 view .LVU121
ARM GAS  /tmp/cc1KsLnH.s 			page 16


 237:./User/code/Src/stm32h7xx_hal_msp.c ****     /**I2C4 GPIO Configuration
 499              		.loc 1 237 5 view .LVU122
 500 0038 2E4F     		ldr	r7, .L55+4
 501              	.LBE14:
 243:./User/code/Src/stm32h7xx_hal_msp.c ****     GPIO_InitStruct.Pull = GPIO_NOPULL;
 502              		.loc 1 243 26 is_stmt 0 view .LVU123
 503 003a 1222     		movs	r2, #18
 242:./User/code/Src/stm32h7xx_hal_msp.c ****     GPIO_InitStruct.Mode = GPIO_MODE_AF_OD;
 504              		.loc 1 242 25 view .LVU124
 505 003c 4FF44050 		mov	r0, #12288
 244:./User/code/Src/stm32h7xx_hal_msp.c ****     GPIO_InitStruct.Speed = GPIO_SPEED_FREQ_LOW;
 506              		.loc 1 244 26 view .LVU125
 507 0040 0024     		movs	r4, #0
 508              	.LBB15:
 237:./User/code/Src/stm32h7xx_hal_msp.c ****     /**I2C4 GPIO Configuration
 509              		.loc 1 237 5 view .LVU126
 510 0042 D7F8E030 		ldr	r3, [r7, #224]
 511              	.LBE15:
 247:./User/code/Src/stm32h7xx_hal_msp.c **** 
 512              		.loc 1 247 5 view .LVU127
 513 0046 03A9     		add	r1, sp, #12
 254:./User/code/Src/stm32h7xx_hal_msp.c ****     hdma_i2c4_rx.Init.Request = BDMA_REQUEST_I2C4_RX;
 514              		.loc 1 254 27 view .LVU128
 515 0048 2B4E     		ldr	r6, .L55+8
 516              	.LBB16:
 237:./User/code/Src/stm32h7xx_hal_msp.c ****     /**I2C4 GPIO Configuration
 517              		.loc 1 237 5 view .LVU129
 518 004a 43F00803 		orr	r3, r3, #8
 519 004e C7F8E030 		str	r3, [r7, #224]
 237:./User/code/Src/stm32h7xx_hal_msp.c ****     /**I2C4 GPIO Configuration
 520              		.loc 1 237 5 is_stmt 1 view .LVU130
 521 0052 D7F8E030 		ldr	r3, [r7, #224]
 522              	.LBE16:
 243:./User/code/Src/stm32h7xx_hal_msp.c ****     GPIO_InitStruct.Pull = GPIO_NOPULL;
 523              		.loc 1 243 26 is_stmt 0 view .LVU131
 524 0056 0492     		str	r2, [sp, #16]
 246:./User/code/Src/stm32h7xx_hal_msp.c ****     HAL_GPIO_Init(GPIOD, &GPIO_InitStruct);
 525              		.loc 1 246 31 view .LVU132
 526 0058 0422     		movs	r2, #4
 527              	.LBB17:
 237:./User/code/Src/stm32h7xx_hal_msp.c ****     /**I2C4 GPIO Configuration
 528              		.loc 1 237 5 view .LVU133
 529 005a 03F00803 		and	r3, r3, #8
 530              	.LBE17:
 242:./User/code/Src/stm32h7xx_hal_msp.c ****     GPIO_InitStruct.Mode = GPIO_MODE_AF_OD;
 531              		.loc 1 242 25 view .LVU134
 532 005e 0390     		str	r0, [sp, #12]
 247:./User/code/Src/stm32h7xx_hal_msp.c **** 
 533              		.loc 1 247 5 view .LVU135
 534 0060 2648     		ldr	r0, .L55+12
 535              	.LBB18:
 237:./User/code/Src/stm32h7xx_hal_msp.c ****     /**I2C4 GPIO Configuration
 536              		.loc 1 237 5 view .LVU136
 537 0062 0193     		str	r3, [sp, #4]
 237:./User/code/Src/stm32h7xx_hal_msp.c ****     /**I2C4 GPIO Configuration
 538              		.loc 1 237 5 is_stmt 1 view .LVU137
 539 0064 019B     		ldr	r3, [sp, #4]
ARM GAS  /tmp/cc1KsLnH.s 			page 17


 540              	.LBE18:
 237:./User/code/Src/stm32h7xx_hal_msp.c ****     /**I2C4 GPIO Configuration
 541              		.loc 1 237 5 view .LVU138
 242:./User/code/Src/stm32h7xx_hal_msp.c ****     GPIO_InitStruct.Mode = GPIO_MODE_AF_OD;
 542              		.loc 1 242 5 view .LVU139
 243:./User/code/Src/stm32h7xx_hal_msp.c ****     GPIO_InitStruct.Pull = GPIO_NOPULL;
 543              		.loc 1 243 5 view .LVU140
 244:./User/code/Src/stm32h7xx_hal_msp.c ****     GPIO_InitStruct.Speed = GPIO_SPEED_FREQ_LOW;
 544              		.loc 1 244 5 view .LVU141
 245:./User/code/Src/stm32h7xx_hal_msp.c ****     GPIO_InitStruct.Alternate = GPIO_AF4_I2C4;
 545              		.loc 1 245 5 view .LVU142
 244:./User/code/Src/stm32h7xx_hal_msp.c ****     GPIO_InitStruct.Speed = GPIO_SPEED_FREQ_LOW;
 546              		.loc 1 244 26 is_stmt 0 view .LVU143
 547 0066 0594     		str	r4, [sp, #20]
 246:./User/code/Src/stm32h7xx_hal_msp.c ****     HAL_GPIO_Init(GPIOD, &GPIO_InitStruct);
 548              		.loc 1 246 31 view .LVU144
 549 0068 CDE90642 		strd	r4, r2, [sp, #24]
 247:./User/code/Src/stm32h7xx_hal_msp.c **** 
 550              		.loc 1 247 5 is_stmt 1 view .LVU145
 551 006c FFF7FEFF 		bl	HAL_GPIO_Init
 552              	.LVL20:
 250:./User/code/Src/stm32h7xx_hal_msp.c **** 
 553              		.loc 1 250 5 view .LVU146
 554              	.LBB19:
 250:./User/code/Src/stm32h7xx_hal_msp.c **** 
 555              		.loc 1 250 5 view .LVU147
 250:./User/code/Src/stm32h7xx_hal_msp.c **** 
 556              		.loc 1 250 5 view .LVU148
 557 0070 D7F8F430 		ldr	r3, [r7, #244]
 558              	.LBE19:
 256:./User/code/Src/stm32h7xx_hal_msp.c ****     hdma_i2c4_rx.Init.PeriphInc = DMA_PINC_DISABLE;
 559              		.loc 1 256 33 is_stmt 0 view .LVU149
 560 0074 B460     		str	r4, [r6, #8]
 255:./User/code/Src/stm32h7xx_hal_msp.c ****     hdma_i2c4_rx.Init.Direction = DMA_PERIPH_TO_MEMORY;
 561              		.loc 1 255 31 view .LVU150
 562 0076 0D21     		movs	r1, #13
 563              	.LBB20:
 250:./User/code/Src/stm32h7xx_hal_msp.c **** 
 564              		.loc 1 250 5 view .LVU151
 565 0078 43F08003 		orr	r3, r3, #128
 566              	.LBE20:
 258:./User/code/Src/stm32h7xx_hal_msp.c ****     hdma_i2c4_rx.Init.PeriphDataAlignment = DMA_PDATAALIGN_BYTE;
 567              		.loc 1 258 30 view .LVU152
 568 007c 4FF48062 		mov	r2, #1024
 263:./User/code/Src/stm32h7xx_hal_msp.c ****     {
 569              		.loc 1 263 9 view .LVU153
 570 0080 3046     		mov	r0, r6
 571              	.LBB21:
 250:./User/code/Src/stm32h7xx_hal_msp.c **** 
 572              		.loc 1 250 5 view .LVU154
 573 0082 C7F8F430 		str	r3, [r7, #244]
 250:./User/code/Src/stm32h7xx_hal_msp.c **** 
 574              		.loc 1 250 5 is_stmt 1 view .LVU155
 575 0086 D7F8F430 		ldr	r3, [r7, #244]
 576              	.LBE21:
 257:./User/code/Src/stm32h7xx_hal_msp.c ****     hdma_i2c4_rx.Init.MemInc = DMA_MINC_ENABLE;
 577              		.loc 1 257 33 is_stmt 0 view .LVU156
ARM GAS  /tmp/cc1KsLnH.s 			page 18


 578 008a F460     		str	r4, [r6, #12]
 579              	.LBB22:
 250:./User/code/Src/stm32h7xx_hal_msp.c **** 
 580              		.loc 1 250 5 view .LVU157
 581 008c 03F08003 		and	r3, r3, #128
 582              	.LBE22:
 258:./User/code/Src/stm32h7xx_hal_msp.c ****     hdma_i2c4_rx.Init.PeriphDataAlignment = DMA_PDATAALIGN_BYTE;
 583              		.loc 1 258 30 view .LVU158
 584 0090 3261     		str	r2, [r6, #16]
 585              	.LBB23:
 250:./User/code/Src/stm32h7xx_hal_msp.c **** 
 586              		.loc 1 250 5 view .LVU159
 587 0092 0293     		str	r3, [sp, #8]
 250:./User/code/Src/stm32h7xx_hal_msp.c **** 
 588              		.loc 1 250 5 is_stmt 1 view .LVU160
 589 0094 029B     		ldr	r3, [sp, #8]
 590              	.LBE23:
 250:./User/code/Src/stm32h7xx_hal_msp.c **** 
 591              		.loc 1 250 5 view .LVU161
 254:./User/code/Src/stm32h7xx_hal_msp.c ****     hdma_i2c4_rx.Init.Request = BDMA_REQUEST_I2C4_RX;
 592              		.loc 1 254 5 view .LVU162
 254:./User/code/Src/stm32h7xx_hal_msp.c ****     hdma_i2c4_rx.Init.Request = BDMA_REQUEST_I2C4_RX;
 593              		.loc 1 254 27 is_stmt 0 view .LVU163
 594 0096 1A4B     		ldr	r3, .L55+16
 260:./User/code/Src/stm32h7xx_hal_msp.c ****     hdma_i2c4_rx.Init.Mode = DMA_NORMAL;
 595              		.loc 1 260 40 view .LVU164
 596 0098 C6E90544 		strd	r4, r4, [r6, #20]
 262:./User/code/Src/stm32h7xx_hal_msp.c ****     if (HAL_DMA_Init(&hdma_i2c4_rx) != HAL_OK)
 597              		.loc 1 262 32 view .LVU165
 598 009c C6E90744 		strd	r4, r4, [r6, #28]
 254:./User/code/Src/stm32h7xx_hal_msp.c ****     hdma_i2c4_rx.Init.Request = BDMA_REQUEST_I2C4_RX;
 599              		.loc 1 254 27 view .LVU166
 600 00a0 C6E90031 		strd	r3, r1, [r6]
 255:./User/code/Src/stm32h7xx_hal_msp.c ****     hdma_i2c4_rx.Init.Direction = DMA_PERIPH_TO_MEMORY;
 601              		.loc 1 255 5 is_stmt 1 view .LVU167
 256:./User/code/Src/stm32h7xx_hal_msp.c ****     hdma_i2c4_rx.Init.PeriphInc = DMA_PINC_DISABLE;
 602              		.loc 1 256 5 view .LVU168
 257:./User/code/Src/stm32h7xx_hal_msp.c ****     hdma_i2c4_rx.Init.MemInc = DMA_MINC_ENABLE;
 603              		.loc 1 257 5 view .LVU169
 258:./User/code/Src/stm32h7xx_hal_msp.c ****     hdma_i2c4_rx.Init.PeriphDataAlignment = DMA_PDATAALIGN_BYTE;
 604              		.loc 1 258 5 view .LVU170
 259:./User/code/Src/stm32h7xx_hal_msp.c ****     hdma_i2c4_rx.Init.MemDataAlignment = DMA_MDATAALIGN_BYTE;
 605              		.loc 1 259 5 view .LVU171
 260:./User/code/Src/stm32h7xx_hal_msp.c ****     hdma_i2c4_rx.Init.Mode = DMA_NORMAL;
 606              		.loc 1 260 5 view .LVU172
 261:./User/code/Src/stm32h7xx_hal_msp.c ****     hdma_i2c4_rx.Init.Priority = DMA_PRIORITY_LOW;
 607              		.loc 1 261 5 view .LVU173
 262:./User/code/Src/stm32h7xx_hal_msp.c ****     if (HAL_DMA_Init(&hdma_i2c4_rx) != HAL_OK)
 608              		.loc 1 262 5 view .LVU174
 263:./User/code/Src/stm32h7xx_hal_msp.c ****     {
 609              		.loc 1 263 5 view .LVU175
 263:./User/code/Src/stm32h7xx_hal_msp.c ****     {
 610              		.loc 1 263 9 is_stmt 0 view .LVU176
 611 00a4 FFF7FEFF 		bl	HAL_DMA_Init
 612              	.LVL21:
 263:./User/code/Src/stm32h7xx_hal_msp.c ****     {
 613              		.loc 1 263 8 view .LVU177
ARM GAS  /tmp/cc1KsLnH.s 			page 19


 614 00a8 F8B9     		cbnz	r0, .L53
 615              	.L39:
 268:./User/code/Src/stm32h7xx_hal_msp.c **** 
 616              		.loc 1 268 5 is_stmt 1 view .LVU178
 268:./User/code/Src/stm32h7xx_hal_msp.c **** 
 617              		.loc 1 268 5 view .LVU179
 271:./User/code/Src/stm32h7xx_hal_msp.c ****     hdma_i2c4_tx.Init.Request = BDMA_REQUEST_I2C4_TX;
 618              		.loc 1 271 27 is_stmt 0 view .LVU180
 619 00aa 164C     		ldr	r4, .L55+20
 274:./User/code/Src/stm32h7xx_hal_msp.c ****     hdma_i2c4_tx.Init.MemInc = DMA_MINC_ENABLE;
 620              		.loc 1 274 33 view .LVU181
 621 00ac 0023     		movs	r3, #0
 271:./User/code/Src/stm32h7xx_hal_msp.c ****     hdma_i2c4_tx.Init.Request = BDMA_REQUEST_I2C4_TX;
 622              		.loc 1 271 27 view .LVU182
 623 00ae 1648     		ldr	r0, .L55+24
 272:./User/code/Src/stm32h7xx_hal_msp.c ****     hdma_i2c4_tx.Init.Direction = DMA_MEMORY_TO_PERIPH;
 624              		.loc 1 272 31 view .LVU183
 625 00b0 0E27     		movs	r7, #14
 273:./User/code/Src/stm32h7xx_hal_msp.c ****     hdma_i2c4_tx.Init.PeriphInc = DMA_PINC_DISABLE;
 626              		.loc 1 273 33 view .LVU184
 627 00b2 4021     		movs	r1, #64
 275:./User/code/Src/stm32h7xx_hal_msp.c ****     hdma_i2c4_tx.Init.PeriphDataAlignment = DMA_PDATAALIGN_BYTE;
 628              		.loc 1 275 30 view .LVU185
 629 00b4 4FF48062 		mov	r2, #1024
 271:./User/code/Src/stm32h7xx_hal_msp.c ****     hdma_i2c4_tx.Init.Request = BDMA_REQUEST_I2C4_TX;
 630              		.loc 1 271 27 view .LVU186
 631 00b8 2060     		str	r0, [r4]
 280:./User/code/Src/stm32h7xx_hal_msp.c ****     {
 632              		.loc 1 280 9 view .LVU187
 633 00ba 2046     		mov	r0, r4
 268:./User/code/Src/stm32h7xx_hal_msp.c **** 
 634              		.loc 1 268 5 view .LVU188
 635 00bc EE63     		str	r6, [r5, #60]
 268:./User/code/Src/stm32h7xx_hal_msp.c **** 
 636              		.loc 1 268 5 is_stmt 1 view .LVU189
 637 00be B563     		str	r5, [r6, #56]
 268:./User/code/Src/stm32h7xx_hal_msp.c **** 
 638              		.loc 1 268 5 view .LVU190
 271:./User/code/Src/stm32h7xx_hal_msp.c ****     hdma_i2c4_tx.Init.Request = BDMA_REQUEST_I2C4_TX;
 639              		.loc 1 271 5 view .LVU191
 272:./User/code/Src/stm32h7xx_hal_msp.c ****     hdma_i2c4_tx.Init.Direction = DMA_MEMORY_TO_PERIPH;
 640              		.loc 1 272 5 view .LVU192
 273:./User/code/Src/stm32h7xx_hal_msp.c ****     hdma_i2c4_tx.Init.PeriphInc = DMA_PINC_DISABLE;
 641              		.loc 1 273 33 is_stmt 0 view .LVU193
 642 00c0 C4E90171 		strd	r7, r1, [r4, #4]
 274:./User/code/Src/stm32h7xx_hal_msp.c ****     hdma_i2c4_tx.Init.MemInc = DMA_MINC_ENABLE;
 643              		.loc 1 274 5 is_stmt 1 view .LVU194
 274:./User/code/Src/stm32h7xx_hal_msp.c ****     hdma_i2c4_tx.Init.MemInc = DMA_MINC_ENABLE;
 644              		.loc 1 274 33 is_stmt 0 view .LVU195
 645 00c4 C4E90332 		strd	r3, r2, [r4, #12]
 275:./User/code/Src/stm32h7xx_hal_msp.c ****     hdma_i2c4_tx.Init.PeriphDataAlignment = DMA_PDATAALIGN_BYTE;
 646              		.loc 1 275 5 is_stmt 1 view .LVU196
 276:./User/code/Src/stm32h7xx_hal_msp.c ****     hdma_i2c4_tx.Init.MemDataAlignment = DMA_MDATAALIGN_BYTE;
 647              		.loc 1 276 5 view .LVU197
 277:./User/code/Src/stm32h7xx_hal_msp.c ****     hdma_i2c4_tx.Init.Mode = DMA_NORMAL;
 648              		.loc 1 277 40 is_stmt 0 view .LVU198
 649 00c8 C4E90533 		strd	r3, r3, [r4, #20]
ARM GAS  /tmp/cc1KsLnH.s 			page 20


 278:./User/code/Src/stm32h7xx_hal_msp.c ****     hdma_i2c4_tx.Init.Priority = DMA_PRIORITY_LOW;
 650              		.loc 1 278 5 is_stmt 1 view .LVU199
 279:./User/code/Src/stm32h7xx_hal_msp.c ****     if (HAL_DMA_Init(&hdma_i2c4_tx) != HAL_OK)
 651              		.loc 1 279 32 is_stmt 0 view .LVU200
 652 00cc C4E90733 		strd	r3, r3, [r4, #28]
 280:./User/code/Src/stm32h7xx_hal_msp.c ****     {
 653              		.loc 1 280 5 is_stmt 1 view .LVU201
 280:./User/code/Src/stm32h7xx_hal_msp.c ****     {
 654              		.loc 1 280 9 is_stmt 0 view .LVU202
 655 00d0 FFF7FEFF 		bl	HAL_DMA_Init
 656              	.LVL22:
 280:./User/code/Src/stm32h7xx_hal_msp.c ****     {
 657              		.loc 1 280 8 view .LVU203
 658 00d4 30B9     		cbnz	r0, .L54
 659              	.L40:
 285:./User/code/Src/stm32h7xx_hal_msp.c **** 
 660              		.loc 1 285 5 is_stmt 1 view .LVU204
 285:./User/code/Src/stm32h7xx_hal_msp.c **** 
 661              		.loc 1 285 5 view .LVU205
 662 00d6 AC63     		str	r4, [r5, #56]
 285:./User/code/Src/stm32h7xx_hal_msp.c **** 
 663              		.loc 1 285 5 view .LVU206
 664 00d8 A563     		str	r5, [r4, #56]
 285:./User/code/Src/stm32h7xx_hal_msp.c **** 
 665              		.loc 1 285 5 view .LVU207
 666              		.loc 1 292 1 is_stmt 0 view .LVU208
 667 00da 39B0     		add	sp, sp, #228
 668              	.LCFI16:
 669              		.cfi_remember_state
 670              		.cfi_def_cfa_offset 20
 671              		@ sp needed
 672 00dc F0BD     		pop	{r4, r5, r6, r7, pc}
 673              	.LVL23:
 674              	.L52:
 675              	.LCFI17:
 676              		.cfi_restore_state
 677              	.LBB24:
 234:./User/code/Src/stm32h7xx_hal_msp.c ****     }
 678              		.loc 1 234 7 is_stmt 1 view .LVU209
 679 00de FFF7FEFF 		bl	Error_Handler
 680              	.LVL24:
 681 00e2 A9E7     		b	.L38
 682              	.L54:
 234:./User/code/Src/stm32h7xx_hal_msp.c ****     }
 683              		.loc 1 234 7 is_stmt 0 view .LVU210
 684              	.LBE24:
 685              	.LBB25:
 282:./User/code/Src/stm32h7xx_hal_msp.c ****     }
 686              		.loc 1 282 7 is_stmt 1 view .LVU211
 687 00e4 FFF7FEFF 		bl	Error_Handler
 688              	.LVL25:
 689 00e8 F5E7     		b	.L40
 690              	.L53:
 282:./User/code/Src/stm32h7xx_hal_msp.c ****     }
 691              		.loc 1 282 7 is_stmt 0 view .LVU212
 692              	.LBE25:
 693              	.LBB26:
ARM GAS  /tmp/cc1KsLnH.s 			page 21


 265:./User/code/Src/stm32h7xx_hal_msp.c ****     }
 694              		.loc 1 265 7 is_stmt 1 view .LVU213
 695 00ea FFF7FEFF 		bl	Error_Handler
 696              	.LVL26:
 697 00ee DCE7     		b	.L39
 698              	.L56:
 699              		.align	2
 700              	.L55:
 701 00f0 001C0058 		.word	1476402176
 702 00f4 00440258 		.word	1476543488
 703 00f8 00000000 		.word	hdma_i2c4_rx
 704 00fc 000C0258 		.word	1476529152
 705 0100 08540258 		.word	1476547592
 706 0104 00000000 		.word	hdma_i2c4_tx
 707 0108 1C540258 		.word	1476547612
 708              	.LBE26:
 709              		.cfi_endproc
 710              	.LFE336:
 712              		.section	.text.HAL_I2C_MspDeInit,"ax",%progbits
 713              		.align	1
 714              		.p2align 2,,3
 715              		.global	HAL_I2C_MspDeInit
 716              		.syntax unified
 717              		.thumb
 718              		.thumb_func
 719              		.fpu fpv5-d16
 721              	HAL_I2C_MspDeInit:
 722              	.LVL27:
 723              	.LFB337:
 293:./User/code/Src/stm32h7xx_hal_msp.c **** 
 294:./User/code/Src/stm32h7xx_hal_msp.c **** /**
 295:./User/code/Src/stm32h7xx_hal_msp.c **** * @brief I2C MSP De-Initialization
 296:./User/code/Src/stm32h7xx_hal_msp.c **** * This function freeze the hardware resources used in this example
 297:./User/code/Src/stm32h7xx_hal_msp.c **** * @param hi2c: I2C handle pointer
 298:./User/code/Src/stm32h7xx_hal_msp.c **** * @retval None
 299:./User/code/Src/stm32h7xx_hal_msp.c **** */
 300:./User/code/Src/stm32h7xx_hal_msp.c **** void HAL_I2C_MspDeInit(I2C_HandleTypeDef* hi2c)
 301:./User/code/Src/stm32h7xx_hal_msp.c **** {
 724              		.loc 1 301 1 view -0
 725              		.cfi_startproc
 726              		@ args = 0, pretend = 0, frame = 0
 727              		@ frame_needed = 0, uses_anonymous_args = 0
 302:./User/code/Src/stm32h7xx_hal_msp.c ****   if(hi2c->Instance==I2C4)
 728              		.loc 1 302 3 view .LVU215
 729              		.loc 1 302 5 is_stmt 0 view .LVU216
 730 0000 0F4B     		ldr	r3, .L63
 731 0002 0268     		ldr	r2, [r0]
 732 0004 9A42     		cmp	r2, r3
 733 0006 00D0     		beq	.L62
 734 0008 7047     		bx	lr
 735              	.L62:
 303:./User/code/Src/stm32h7xx_hal_msp.c ****   {
 304:./User/code/Src/stm32h7xx_hal_msp.c ****   /* USER CODE BEGIN I2C4_MspDeInit 0 */
 305:./User/code/Src/stm32h7xx_hal_msp.c **** 
 306:./User/code/Src/stm32h7xx_hal_msp.c ****   /* USER CODE END I2C4_MspDeInit 0 */
 307:./User/code/Src/stm32h7xx_hal_msp.c ****     /* Peripheral clock disable */
 308:./User/code/Src/stm32h7xx_hal_msp.c ****     __HAL_RCC_I2C4_CLK_DISABLE();
ARM GAS  /tmp/cc1KsLnH.s 			page 22


 736              		.loc 1 308 5 is_stmt 1 view .LVU217
 737 000a 0E4A     		ldr	r2, .L63+4
 309:./User/code/Src/stm32h7xx_hal_msp.c **** 
 310:./User/code/Src/stm32h7xx_hal_msp.c ****     /**I2C4 GPIO Configuration
 311:./User/code/Src/stm32h7xx_hal_msp.c ****     PD12     ------> I2C4_SCL
 312:./User/code/Src/stm32h7xx_hal_msp.c ****     PD13     ------> I2C4_SDA
 313:./User/code/Src/stm32h7xx_hal_msp.c ****     */
 314:./User/code/Src/stm32h7xx_hal_msp.c ****     HAL_GPIO_DeInit(GPIOD, GPIO_PIN_12);
 738              		.loc 1 314 5 is_stmt 0 view .LVU218
 739 000c 4FF48051 		mov	r1, #4096
 308:./User/code/Src/stm32h7xx_hal_msp.c **** 
 740              		.loc 1 308 5 view .LVU219
 741 0010 D2F8F430 		ldr	r3, [r2, #244]
 742 0014 23F08003 		bic	r3, r3, #128
 301:./User/code/Src/stm32h7xx_hal_msp.c ****   if(hi2c->Instance==I2C4)
 743              		.loc 1 301 1 view .LVU220
 744 0018 10B5     		push	{r4, lr}
 745              	.LCFI18:
 746              		.cfi_def_cfa_offset 8
 747              		.cfi_offset 4, -8
 748              		.cfi_offset 14, -4
 749 001a 0446     		mov	r4, r0
 308:./User/code/Src/stm32h7xx_hal_msp.c **** 
 750              		.loc 1 308 5 view .LVU221
 751 001c C2F8F430 		str	r3, [r2, #244]
 752              		.loc 1 314 5 is_stmt 1 view .LVU222
 753 0020 0948     		ldr	r0, .L63+8
 754              	.LVL28:
 755              		.loc 1 314 5 is_stmt 0 view .LVU223
 756 0022 FFF7FEFF 		bl	HAL_GPIO_DeInit
 757              	.LVL29:
 315:./User/code/Src/stm32h7xx_hal_msp.c **** 
 316:./User/code/Src/stm32h7xx_hal_msp.c ****     HAL_GPIO_DeInit(GPIOD, GPIO_PIN_13);
 758              		.loc 1 316 5 is_stmt 1 view .LVU224
 759 0026 4FF40051 		mov	r1, #8192
 760 002a 0748     		ldr	r0, .L63+8
 761 002c FFF7FEFF 		bl	HAL_GPIO_DeInit
 762              	.LVL30:
 317:./User/code/Src/stm32h7xx_hal_msp.c **** 
 318:./User/code/Src/stm32h7xx_hal_msp.c ****     /* I2C4 DMA DeInit */
 319:./User/code/Src/stm32h7xx_hal_msp.c ****     HAL_DMA_DeInit(hi2c->hdmarx);
 763              		.loc 1 319 5 view .LVU225
 764 0030 E06B     		ldr	r0, [r4, #60]
 765 0032 FFF7FEFF 		bl	HAL_DMA_DeInit
 766              	.LVL31:
 320:./User/code/Src/stm32h7xx_hal_msp.c ****     HAL_DMA_DeInit(hi2c->hdmatx);
 767              		.loc 1 320 5 view .LVU226
 768 0036 A06B     		ldr	r0, [r4, #56]
 321:./User/code/Src/stm32h7xx_hal_msp.c ****   /* USER CODE BEGIN I2C4_MspDeInit 1 */
 322:./User/code/Src/stm32h7xx_hal_msp.c **** 
 323:./User/code/Src/stm32h7xx_hal_msp.c ****   /* USER CODE END I2C4_MspDeInit 1 */
 324:./User/code/Src/stm32h7xx_hal_msp.c ****   }
 325:./User/code/Src/stm32h7xx_hal_msp.c **** 
 326:./User/code/Src/stm32h7xx_hal_msp.c **** }
 769              		.loc 1 326 1 is_stmt 0 view .LVU227
 770 0038 BDE81040 		pop	{r4, lr}
 771              	.LCFI19:
ARM GAS  /tmp/cc1KsLnH.s 			page 23


 772              		.cfi_restore 14
 773              		.cfi_restore 4
 774              		.cfi_def_cfa_offset 0
 775              	.LVL32:
 320:./User/code/Src/stm32h7xx_hal_msp.c ****     HAL_DMA_DeInit(hi2c->hdmatx);
 776              		.loc 1 320 5 view .LVU228
 777 003c FFF7FEBF 		b	HAL_DMA_DeInit
 778              	.LVL33:
 779              	.L64:
 780              		.align	2
 781              	.L63:
 782 0040 001C0058 		.word	1476402176
 783 0044 00440258 		.word	1476543488
 784 0048 000C0258 		.word	1476529152
 785              		.cfi_endproc
 786              	.LFE337:
 788              		.section	.text.HAL_LTDC_MspInit,"ax",%progbits
 789              		.align	1
 790              		.p2align 2,,3
 791              		.global	HAL_LTDC_MspInit
 792              		.syntax unified
 793              		.thumb
 794              		.thumb_func
 795              		.fpu fpv5-d16
 797              	HAL_LTDC_MspInit:
 798              	.LVL34:
 799              	.LFB338:
 327:./User/code/Src/stm32h7xx_hal_msp.c **** 
 328:./User/code/Src/stm32h7xx_hal_msp.c **** /**
 329:./User/code/Src/stm32h7xx_hal_msp.c **** * @brief LTDC MSP Initialization
 330:./User/code/Src/stm32h7xx_hal_msp.c **** * This function configures the hardware resources used in this example
 331:./User/code/Src/stm32h7xx_hal_msp.c **** * @param hltdc: LTDC handle pointer
 332:./User/code/Src/stm32h7xx_hal_msp.c **** * @retval None
 333:./User/code/Src/stm32h7xx_hal_msp.c **** */
 334:./User/code/Src/stm32h7xx_hal_msp.c **** void HAL_LTDC_MspInit(LTDC_HandleTypeDef* hltdc)
 335:./User/code/Src/stm32h7xx_hal_msp.c **** {
 800              		.loc 1 335 1 is_stmt 1 view -0
 801              		.cfi_startproc
 802              		@ args = 0, pretend = 0, frame = 200
 803              		@ frame_needed = 0, uses_anonymous_args = 0
 336:./User/code/Src/stm32h7xx_hal_msp.c ****   RCC_PeriphCLKInitTypeDef PeriphClkInitStruct = {0};
 804              		.loc 1 336 3 view .LVU230
 335:./User/code/Src/stm32h7xx_hal_msp.c ****   RCC_PeriphCLKInitTypeDef PeriphClkInitStruct = {0};
 805              		.loc 1 335 1 is_stmt 0 view .LVU231
 806 0000 70B5     		push	{r4, r5, r6, lr}
 807              	.LCFI20:
 808              		.cfi_def_cfa_offset 16
 809              		.cfi_offset 4, -16
 810              		.cfi_offset 5, -12
 811              		.cfi_offset 6, -8
 812              		.cfi_offset 14, -4
 813 0002 B2B0     		sub	sp, sp, #200
 814              	.LCFI21:
 815              		.cfi_def_cfa_offset 216
 335:./User/code/Src/stm32h7xx_hal_msp.c ****   RCC_PeriphCLKInitTypeDef PeriphClkInitStruct = {0};
 816              		.loc 1 335 1 view .LVU232
 817 0004 0446     		mov	r4, r0
ARM GAS  /tmp/cc1KsLnH.s 			page 24


 818              		.loc 1 336 28 view .LVU233
 819 0006 C022     		movs	r2, #192
 820 0008 0021     		movs	r1, #0
 821 000a 02A8     		add	r0, sp, #8
 822              	.LVL35:
 823              		.loc 1 336 28 view .LVU234
 824 000c FFF7FEFF 		bl	memset
 825              	.LVL36:
 337:./User/code/Src/stm32h7xx_hal_msp.c ****   if(hltdc->Instance==LTDC)
 826              		.loc 1 337 3 is_stmt 1 view .LVU235
 827              		.loc 1 337 5 is_stmt 0 view .LVU236
 828 0010 174B     		ldr	r3, .L74
 829 0012 2268     		ldr	r2, [r4]
 830 0014 9A42     		cmp	r2, r3
 831 0016 01D0     		beq	.L72
 338:./User/code/Src/stm32h7xx_hal_msp.c ****   {
 339:./User/code/Src/stm32h7xx_hal_msp.c ****   /* USER CODE BEGIN LTDC_MspInit 0 */
 340:./User/code/Src/stm32h7xx_hal_msp.c **** 
 341:./User/code/Src/stm32h7xx_hal_msp.c ****   /* USER CODE END LTDC_MspInit 0 */
 342:./User/code/Src/stm32h7xx_hal_msp.c ****   /** Initializes the peripherals clock
 343:./User/code/Src/stm32h7xx_hal_msp.c ****   */
 344:./User/code/Src/stm32h7xx_hal_msp.c ****     PeriphClkInitStruct.PeriphClockSelection = RCC_PERIPHCLK_LTDC;
 345:./User/code/Src/stm32h7xx_hal_msp.c ****     PeriphClkInitStruct.PLL3.PLL3M = 1;
 346:./User/code/Src/stm32h7xx_hal_msp.c ****     PeriphClkInitStruct.PLL3.PLL3N = 6;
 347:./User/code/Src/stm32h7xx_hal_msp.c ****     PeriphClkInitStruct.PLL3.PLL3P = 2;
 348:./User/code/Src/stm32h7xx_hal_msp.c ****     PeriphClkInitStruct.PLL3.PLL3Q = 2;
 349:./User/code/Src/stm32h7xx_hal_msp.c ****     PeriphClkInitStruct.PLL3.PLL3R = 1;
 350:./User/code/Src/stm32h7xx_hal_msp.c ****     PeriphClkInitStruct.PLL3.PLL3RGE = RCC_PLL3VCIRANGE_3;
 351:./User/code/Src/stm32h7xx_hal_msp.c ****     PeriphClkInitStruct.PLL3.PLL3VCOSEL = RCC_PLL3VCOMEDIUM;
 352:./User/code/Src/stm32h7xx_hal_msp.c ****     PeriphClkInitStruct.PLL3.PLL3FRACN = 0;
 353:./User/code/Src/stm32h7xx_hal_msp.c ****     if (HAL_RCCEx_PeriphCLKConfig(&PeriphClkInitStruct) != HAL_OK)
 354:./User/code/Src/stm32h7xx_hal_msp.c ****     {
 355:./User/code/Src/stm32h7xx_hal_msp.c ****       Error_Handler();
 356:./User/code/Src/stm32h7xx_hal_msp.c ****     }
 357:./User/code/Src/stm32h7xx_hal_msp.c **** 
 358:./User/code/Src/stm32h7xx_hal_msp.c ****     /* Peripheral clock enable */
 359:./User/code/Src/stm32h7xx_hal_msp.c ****     __HAL_RCC_LTDC_CLK_ENABLE();
 360:./User/code/Src/stm32h7xx_hal_msp.c ****   /* USER CODE BEGIN LTDC_MspInit 1 */
 361:./User/code/Src/stm32h7xx_hal_msp.c **** 
 362:./User/code/Src/stm32h7xx_hal_msp.c ****   /* USER CODE END LTDC_MspInit 1 */
 363:./User/code/Src/stm32h7xx_hal_msp.c ****   }
 364:./User/code/Src/stm32h7xx_hal_msp.c **** 
 365:./User/code/Src/stm32h7xx_hal_msp.c **** }
 832              		.loc 1 365 1 view .LVU237
 833 0018 32B0     		add	sp, sp, #200
 834              	.LCFI22:
 835              		.cfi_remember_state
 836              		.cfi_def_cfa_offset 16
 837              		@ sp needed
 838 001a 70BD     		pop	{r4, r5, r6, pc}
 839              	.LVL37:
 840              	.L72:
 841              	.LCFI23:
 842              		.cfi_restore_state
 344:./User/code/Src/stm32h7xx_hal_msp.c ****     PeriphClkInitStruct.PLL3.PLL3M = 1;
 843              		.loc 1 344 5 is_stmt 1 view .LVU238
 344:./User/code/Src/stm32h7xx_hal_msp.c ****     PeriphClkInitStruct.PLL3.PLL3M = 1;
ARM GAS  /tmp/cc1KsLnH.s 			page 25


 844              		.loc 1 344 46 is_stmt 0 view .LVU239
 845 001c 4FF00051 		mov	r1, #536870912
 345:./User/code/Src/stm32h7xx_hal_msp.c ****     PeriphClkInitStruct.PLL3.PLL3N = 6;
 846              		.loc 1 345 36 view .LVU240
 847 0020 0122     		movs	r2, #1
 347:./User/code/Src/stm32h7xx_hal_msp.c ****     PeriphClkInitStruct.PLL3.PLL3Q = 2;
 848              		.loc 1 347 36 view .LVU241
 849 0022 0223     		movs	r3, #2
 346:./User/code/Src/stm32h7xx_hal_msp.c ****     PeriphClkInitStruct.PLL3.PLL3P = 2;
 850              		.loc 1 346 36 view .LVU242
 851 0024 0626     		movs	r6, #6
 350:./User/code/Src/stm32h7xx_hal_msp.c ****     PeriphClkInitStruct.PLL3.PLL3VCOSEL = RCC_PLL3VCOMEDIUM;
 852              		.loc 1 350 38 view .LVU243
 853 0026 4FF44065 		mov	r5, #3072
 351:./User/code/Src/stm32h7xx_hal_msp.c ****     PeriphClkInitStruct.PLL3.PLL3FRACN = 0;
 854              		.loc 1 351 41 view .LVU244
 855 002a 4FF40074 		mov	r4, #512
 856              	.LVL38:
 344:./User/code/Src/stm32h7xx_hal_msp.c ****     PeriphClkInitStruct.PLL3.PLL3M = 1;
 857              		.loc 1 344 46 view .LVU245
 858 002e 0291     		str	r1, [sp, #8]
 345:./User/code/Src/stm32h7xx_hal_msp.c ****     PeriphClkInitStruct.PLL3.PLL3N = 6;
 859              		.loc 1 345 5 is_stmt 1 view .LVU246
 352:./User/code/Src/stm32h7xx_hal_msp.c ****     if (HAL_RCCEx_PeriphCLKConfig(&PeriphClkInitStruct) != HAL_OK)
 860              		.loc 1 352 40 is_stmt 0 view .LVU247
 861 0030 0021     		movs	r1, #0
 353:./User/code/Src/stm32h7xx_hal_msp.c ****     {
 862              		.loc 1 353 9 view .LVU248
 863 0032 02A8     		add	r0, sp, #8
 345:./User/code/Src/stm32h7xx_hal_msp.c ****     PeriphClkInitStruct.PLL3.PLL3N = 6;
 864              		.loc 1 345 36 view .LVU249
 865 0034 0B92     		str	r2, [sp, #44]
 346:./User/code/Src/stm32h7xx_hal_msp.c ****     PeriphClkInitStruct.PLL3.PLL3P = 2;
 866              		.loc 1 346 5 is_stmt 1 view .LVU250
 349:./User/code/Src/stm32h7xx_hal_msp.c ****     PeriphClkInitStruct.PLL3.PLL3RGE = RCC_PLL3VCIRANGE_3;
 867              		.loc 1 349 36 is_stmt 0 view .LVU251
 868 0036 0F92     		str	r2, [sp, #60]
 348:./User/code/Src/stm32h7xx_hal_msp.c ****     PeriphClkInitStruct.PLL3.PLL3R = 1;
 869              		.loc 1 348 36 view .LVU252
 870 0038 0E93     		str	r3, [sp, #56]
 352:./User/code/Src/stm32h7xx_hal_msp.c ****     if (HAL_RCCEx_PeriphCLKConfig(&PeriphClkInitStruct) != HAL_OK)
 871              		.loc 1 352 40 view .LVU253
 872 003a 1291     		str	r1, [sp, #72]
 347:./User/code/Src/stm32h7xx_hal_msp.c ****     PeriphClkInitStruct.PLL3.PLL3Q = 2;
 873              		.loc 1 347 36 view .LVU254
 874 003c CDE90C63 		strd	r6, r3, [sp, #48]
 348:./User/code/Src/stm32h7xx_hal_msp.c ****     PeriphClkInitStruct.PLL3.PLL3R = 1;
 875              		.loc 1 348 5 is_stmt 1 view .LVU255
 349:./User/code/Src/stm32h7xx_hal_msp.c ****     PeriphClkInitStruct.PLL3.PLL3RGE = RCC_PLL3VCIRANGE_3;
 876              		.loc 1 349 5 view .LVU256
 350:./User/code/Src/stm32h7xx_hal_msp.c ****     PeriphClkInitStruct.PLL3.PLL3VCOSEL = RCC_PLL3VCOMEDIUM;
 877              		.loc 1 350 5 view .LVU257
 351:./User/code/Src/stm32h7xx_hal_msp.c ****     PeriphClkInitStruct.PLL3.PLL3FRACN = 0;
 878              		.loc 1 351 41 is_stmt 0 view .LVU258
 879 0040 CDE91054 		strd	r5, r4, [sp, #64]
 352:./User/code/Src/stm32h7xx_hal_msp.c ****     if (HAL_RCCEx_PeriphCLKConfig(&PeriphClkInitStruct) != HAL_OK)
 880              		.loc 1 352 5 is_stmt 1 view .LVU259
ARM GAS  /tmp/cc1KsLnH.s 			page 26


 353:./User/code/Src/stm32h7xx_hal_msp.c ****     {
 881              		.loc 1 353 5 view .LVU260
 353:./User/code/Src/stm32h7xx_hal_msp.c ****     {
 882              		.loc 1 353 9 is_stmt 0 view .LVU261
 883 0044 FFF7FEFF 		bl	HAL_RCCEx_PeriphCLKConfig
 884              	.LVL39:
 353:./User/code/Src/stm32h7xx_hal_msp.c ****     {
 885              		.loc 1 353 8 view .LVU262
 886 0048 70B9     		cbnz	r0, .L73
 887              	.L67:
 359:./User/code/Src/stm32h7xx_hal_msp.c ****   /* USER CODE BEGIN LTDC_MspInit 1 */
 888              		.loc 1 359 5 is_stmt 1 view .LVU263
 889              	.LBB27:
 359:./User/code/Src/stm32h7xx_hal_msp.c ****   /* USER CODE BEGIN LTDC_MspInit 1 */
 890              		.loc 1 359 5 view .LVU264
 359:./User/code/Src/stm32h7xx_hal_msp.c ****   /* USER CODE BEGIN LTDC_MspInit 1 */
 891              		.loc 1 359 5 view .LVU265
 892 004a 0A4B     		ldr	r3, .L74+4
 893 004c D3F8E420 		ldr	r2, [r3, #228]
 894 0050 42F00802 		orr	r2, r2, #8
 895 0054 C3F8E420 		str	r2, [r3, #228]
 359:./User/code/Src/stm32h7xx_hal_msp.c ****   /* USER CODE BEGIN LTDC_MspInit 1 */
 896              		.loc 1 359 5 view .LVU266
 897 0058 D3F8E430 		ldr	r3, [r3, #228]
 898 005c 03F00803 		and	r3, r3, #8
 899 0060 0193     		str	r3, [sp, #4]
 359:./User/code/Src/stm32h7xx_hal_msp.c ****   /* USER CODE BEGIN LTDC_MspInit 1 */
 900              		.loc 1 359 5 view .LVU267
 901 0062 019B     		ldr	r3, [sp, #4]
 902              	.LBE27:
 359:./User/code/Src/stm32h7xx_hal_msp.c ****   /* USER CODE BEGIN LTDC_MspInit 1 */
 903              		.loc 1 359 5 view .LVU268
 904              		.loc 1 365 1 is_stmt 0 view .LVU269
 905 0064 32B0     		add	sp, sp, #200
 906              	.LCFI24:
 907              		.cfi_remember_state
 908              		.cfi_def_cfa_offset 16
 909              		@ sp needed
 910 0066 70BD     		pop	{r4, r5, r6, pc}
 911              	.L73:
 912              	.LCFI25:
 913              		.cfi_restore_state
 914              	.LBB28:
 355:./User/code/Src/stm32h7xx_hal_msp.c ****     }
 915              		.loc 1 355 7 is_stmt 1 view .LVU270
 916 0068 FFF7FEFF 		bl	Error_Handler
 917              	.LVL40:
 918 006c EDE7     		b	.L67
 919              	.L75:
 920 006e 00BF     		.align	2
 921              	.L74:
 922 0070 00100050 		.word	1342181376
 923 0074 00440258 		.word	1476543488
 924              	.LBE28:
 925              		.cfi_endproc
 926              	.LFE338:
 928              		.section	.text.HAL_LTDC_MspDeInit,"ax",%progbits
ARM GAS  /tmp/cc1KsLnH.s 			page 27


 929              		.align	1
 930              		.p2align 2,,3
 931              		.global	HAL_LTDC_MspDeInit
 932              		.syntax unified
 933              		.thumb
 934              		.thumb_func
 935              		.fpu fpv5-d16
 937              	HAL_LTDC_MspDeInit:
 938              	.LVL41:
 939              	.LFB339:
 366:./User/code/Src/stm32h7xx_hal_msp.c **** 
 367:./User/code/Src/stm32h7xx_hal_msp.c **** /**
 368:./User/code/Src/stm32h7xx_hal_msp.c **** * @brief LTDC MSP De-Initialization
 369:./User/code/Src/stm32h7xx_hal_msp.c **** * This function freeze the hardware resources used in this example
 370:./User/code/Src/stm32h7xx_hal_msp.c **** * @param hltdc: LTDC handle pointer
 371:./User/code/Src/stm32h7xx_hal_msp.c **** * @retval None
 372:./User/code/Src/stm32h7xx_hal_msp.c **** */
 373:./User/code/Src/stm32h7xx_hal_msp.c **** void HAL_LTDC_MspDeInit(LTDC_HandleTypeDef* hltdc)
 374:./User/code/Src/stm32h7xx_hal_msp.c **** {
 940              		.loc 1 374 1 view -0
 941              		.cfi_startproc
 942              		@ args = 0, pretend = 0, frame = 0
 943              		@ frame_needed = 0, uses_anonymous_args = 0
 944              		@ link register save eliminated.
 375:./User/code/Src/stm32h7xx_hal_msp.c ****   if(hltdc->Instance==LTDC)
 945              		.loc 1 375 3 view .LVU272
 946              		.loc 1 375 5 is_stmt 0 view .LVU273
 947 0000 064B     		ldr	r3, .L79
 948 0002 0268     		ldr	r2, [r0]
 949 0004 9A42     		cmp	r2, r3
 950 0006 00D0     		beq	.L78
 376:./User/code/Src/stm32h7xx_hal_msp.c ****   {
 377:./User/code/Src/stm32h7xx_hal_msp.c ****   /* USER CODE BEGIN LTDC_MspDeInit 0 */
 378:./User/code/Src/stm32h7xx_hal_msp.c **** 
 379:./User/code/Src/stm32h7xx_hal_msp.c ****   /* USER CODE END LTDC_MspDeInit 0 */
 380:./User/code/Src/stm32h7xx_hal_msp.c ****     /* Peripheral clock disable */
 381:./User/code/Src/stm32h7xx_hal_msp.c ****     __HAL_RCC_LTDC_CLK_DISABLE();
 382:./User/code/Src/stm32h7xx_hal_msp.c ****   /* USER CODE BEGIN LTDC_MspDeInit 1 */
 383:./User/code/Src/stm32h7xx_hal_msp.c **** 
 384:./User/code/Src/stm32h7xx_hal_msp.c ****   /* USER CODE END LTDC_MspDeInit 1 */
 385:./User/code/Src/stm32h7xx_hal_msp.c ****   }
 386:./User/code/Src/stm32h7xx_hal_msp.c **** 
 387:./User/code/Src/stm32h7xx_hal_msp.c **** }
 951              		.loc 1 387 1 view .LVU274
 952 0008 7047     		bx	lr
 953              	.L78:
 381:./User/code/Src/stm32h7xx_hal_msp.c ****   /* USER CODE BEGIN LTDC_MspDeInit 1 */
 954              		.loc 1 381 5 is_stmt 1 view .LVU275
 955 000a 054A     		ldr	r2, .L79+4
 956 000c D2F8E430 		ldr	r3, [r2, #228]
 957 0010 23F00803 		bic	r3, r3, #8
 958 0014 C2F8E430 		str	r3, [r2, #228]
 959              		.loc 1 387 1 is_stmt 0 view .LVU276
 960 0018 7047     		bx	lr
 961              	.L80:
 962 001a 00BF     		.align	2
 963              	.L79:
ARM GAS  /tmp/cc1KsLnH.s 			page 28


 964 001c 00100050 		.word	1342181376
 965 0020 00440258 		.word	1476543488
 966              		.cfi_endproc
 967              	.LFE339:
 969              		.section	.text.HAL_UART_MspInit,"ax",%progbits
 970              		.align	1
 971              		.p2align 2,,3
 972              		.global	HAL_UART_MspInit
 973              		.syntax unified
 974              		.thumb
 975              		.thumb_func
 976              		.fpu fpv5-d16
 978              	HAL_UART_MspInit:
 979              	.LVL42:
 980              	.LFB340:
 388:./User/code/Src/stm32h7xx_hal_msp.c **** 
 389:./User/code/Src/stm32h7xx_hal_msp.c **** /**
 390:./User/code/Src/stm32h7xx_hal_msp.c **** * @brief UART MSP Initialization
 391:./User/code/Src/stm32h7xx_hal_msp.c **** * This function configures the hardware resources used in this example
 392:./User/code/Src/stm32h7xx_hal_msp.c **** * @param huart: UART handle pointer
 393:./User/code/Src/stm32h7xx_hal_msp.c **** * @retval None
 394:./User/code/Src/stm32h7xx_hal_msp.c **** */
 395:./User/code/Src/stm32h7xx_hal_msp.c **** void HAL_UART_MspInit(UART_HandleTypeDef* huart)
 396:./User/code/Src/stm32h7xx_hal_msp.c **** {
 981              		.loc 1 396 1 is_stmt 1 view -0
 982              		.cfi_startproc
 983              		@ args = 0, pretend = 0, frame = 224
 984              		@ frame_needed = 0, uses_anonymous_args = 0
 397:./User/code/Src/stm32h7xx_hal_msp.c ****   GPIO_InitTypeDef GPIO_InitStruct = {0};
 985              		.loc 1 397 3 view .LVU278
 396:./User/code/Src/stm32h7xx_hal_msp.c ****   GPIO_InitTypeDef GPIO_InitStruct = {0};
 986              		.loc 1 396 1 is_stmt 0 view .LVU279
 987 0000 70B5     		push	{r4, r5, r6, lr}
 988              	.LCFI26:
 989              		.cfi_def_cfa_offset 16
 990              		.cfi_offset 4, -16
 991              		.cfi_offset 5, -12
 992              		.cfi_offset 6, -8
 993              		.cfi_offset 14, -4
 994              		.loc 1 397 20 view .LVU280
 995 0002 0024     		movs	r4, #0
 396:./User/code/Src/stm32h7xx_hal_msp.c ****   GPIO_InitTypeDef GPIO_InitStruct = {0};
 996              		.loc 1 396 1 view .LVU281
 997 0004 B8B0     		sub	sp, sp, #224
 998              	.LCFI27:
 999              		.cfi_def_cfa_offset 240
 396:./User/code/Src/stm32h7xx_hal_msp.c ****   GPIO_InitTypeDef GPIO_InitStruct = {0};
 1000              		.loc 1 396 1 view .LVU282
 1001 0006 0546     		mov	r5, r0
 398:./User/code/Src/stm32h7xx_hal_msp.c ****   RCC_PeriphCLKInitTypeDef PeriphClkInitStruct = {0};
 1002              		.loc 1 398 28 view .LVU283
 1003 0008 C022     		movs	r2, #192
 1004 000a 2146     		mov	r1, r4
 1005 000c 08A8     		add	r0, sp, #32
 1006              	.LVL43:
 397:./User/code/Src/stm32h7xx_hal_msp.c ****   GPIO_InitTypeDef GPIO_InitStruct = {0};
 1007              		.loc 1 397 20 view .LVU284
ARM GAS  /tmp/cc1KsLnH.s 			page 29


 1008 000e 0794     		str	r4, [sp, #28]
 1009              		.loc 1 398 3 is_stmt 1 view .LVU285
 397:./User/code/Src/stm32h7xx_hal_msp.c ****   GPIO_InitTypeDef GPIO_InitStruct = {0};
 1010              		.loc 1 397 20 is_stmt 0 view .LVU286
 1011 0010 CDE90344 		strd	r4, r4, [sp, #12]
 1012 0014 CDE90544 		strd	r4, r4, [sp, #20]
 1013              		.loc 1 398 28 view .LVU287
 1014 0018 FFF7FEFF 		bl	memset
 1015              	.LVL44:
 399:./User/code/Src/stm32h7xx_hal_msp.c ****   if(huart->Instance==USART1)
 1016              		.loc 1 399 3 is_stmt 1 view .LVU288
 1017              		.loc 1 399 5 is_stmt 0 view .LVU289
 1018 001c 2A68     		ldr	r2, [r5]
 1019 001e 1C4B     		ldr	r3, .L90
 1020 0020 9A42     		cmp	r2, r3
 1021 0022 01D0     		beq	.L88
 400:./User/code/Src/stm32h7xx_hal_msp.c ****   {
 401:./User/code/Src/stm32h7xx_hal_msp.c ****   /* USER CODE BEGIN USART1_MspInit 0 */
 402:./User/code/Src/stm32h7xx_hal_msp.c **** 
 403:./User/code/Src/stm32h7xx_hal_msp.c ****   /* USER CODE END USART1_MspInit 0 */
 404:./User/code/Src/stm32h7xx_hal_msp.c ****   /** Initializes the peripherals clock
 405:./User/code/Src/stm32h7xx_hal_msp.c ****   */
 406:./User/code/Src/stm32h7xx_hal_msp.c ****     PeriphClkInitStruct.PeriphClockSelection = RCC_PERIPHCLK_USART1;
 407:./User/code/Src/stm32h7xx_hal_msp.c ****     PeriphClkInitStruct.Usart16ClockSelection = RCC_USART16CLKSOURCE_D2PCLK2;
 408:./User/code/Src/stm32h7xx_hal_msp.c ****     if (HAL_RCCEx_PeriphCLKConfig(&PeriphClkInitStruct) != HAL_OK)
 409:./User/code/Src/stm32h7xx_hal_msp.c ****     {
 410:./User/code/Src/stm32h7xx_hal_msp.c ****       Error_Handler();
 411:./User/code/Src/stm32h7xx_hal_msp.c ****     }
 412:./User/code/Src/stm32h7xx_hal_msp.c **** 
 413:./User/code/Src/stm32h7xx_hal_msp.c ****     /* Peripheral clock enable */
 414:./User/code/Src/stm32h7xx_hal_msp.c ****     __HAL_RCC_USART1_CLK_ENABLE();
 415:./User/code/Src/stm32h7xx_hal_msp.c **** 
 416:./User/code/Src/stm32h7xx_hal_msp.c ****     __HAL_RCC_GPIOA_CLK_ENABLE();
 417:./User/code/Src/stm32h7xx_hal_msp.c ****     /**USART1 GPIO Configuration
 418:./User/code/Src/stm32h7xx_hal_msp.c ****     PA10     ------> USART1_RX
 419:./User/code/Src/stm32h7xx_hal_msp.c ****     PA9     ------> USART1_TX
 420:./User/code/Src/stm32h7xx_hal_msp.c ****     */
 421:./User/code/Src/stm32h7xx_hal_msp.c ****     GPIO_InitStruct.Pin = STLINK_TX_Pin|STLINK_RX_Pin;
 422:./User/code/Src/stm32h7xx_hal_msp.c ****     GPIO_InitStruct.Mode = GPIO_MODE_AF_PP;
 423:./User/code/Src/stm32h7xx_hal_msp.c ****     GPIO_InitStruct.Pull = GPIO_NOPULL;
 424:./User/code/Src/stm32h7xx_hal_msp.c ****     GPIO_InitStruct.Speed = GPIO_SPEED_FREQ_LOW;
 425:./User/code/Src/stm32h7xx_hal_msp.c ****     GPIO_InitStruct.Alternate = GPIO_AF7_USART1;
 426:./User/code/Src/stm32h7xx_hal_msp.c ****     HAL_GPIO_Init(GPIOA, &GPIO_InitStruct);
 427:./User/code/Src/stm32h7xx_hal_msp.c **** 
 428:./User/code/Src/stm32h7xx_hal_msp.c ****   /* USER CODE BEGIN USART1_MspInit 1 */
 429:./User/code/Src/stm32h7xx_hal_msp.c **** 
 430:./User/code/Src/stm32h7xx_hal_msp.c ****   /* USER CODE END USART1_MspInit 1 */
 431:./User/code/Src/stm32h7xx_hal_msp.c ****   }
 432:./User/code/Src/stm32h7xx_hal_msp.c **** 
 433:./User/code/Src/stm32h7xx_hal_msp.c **** }
 1022              		.loc 1 433 1 view .LVU290
 1023 0024 38B0     		add	sp, sp, #224
 1024              	.LCFI28:
 1025              		.cfi_remember_state
 1026              		.cfi_def_cfa_offset 16
 1027              		@ sp needed
 1028 0026 70BD     		pop	{r4, r5, r6, pc}
ARM GAS  /tmp/cc1KsLnH.s 			page 30


 1029              	.LVL45:
 1030              	.L88:
 1031              	.LCFI29:
 1032              		.cfi_restore_state
 406:./User/code/Src/stm32h7xx_hal_msp.c ****     PeriphClkInitStruct.Usart16ClockSelection = RCC_USART16CLKSOURCE_D2PCLK2;
 1033              		.loc 1 406 5 is_stmt 1 view .LVU291
 406:./User/code/Src/stm32h7xx_hal_msp.c ****     PeriphClkInitStruct.Usart16ClockSelection = RCC_USART16CLKSOURCE_D2PCLK2;
 1034              		.loc 1 406 46 is_stmt 0 view .LVU292
 1035 0028 0123     		movs	r3, #1
 408:./User/code/Src/stm32h7xx_hal_msp.c ****     {
 1036              		.loc 1 408 9 view .LVU293
 1037 002a 08A8     		add	r0, sp, #32
 407:./User/code/Src/stm32h7xx_hal_msp.c ****     if (HAL_RCCEx_PeriphCLKConfig(&PeriphClkInitStruct) != HAL_OK)
 1038              		.loc 1 407 47 view .LVU294
 1039 002c 2794     		str	r4, [sp, #156]
 406:./User/code/Src/stm32h7xx_hal_msp.c ****     PeriphClkInitStruct.Usart16ClockSelection = RCC_USART16CLKSOURCE_D2PCLK2;
 1040              		.loc 1 406 46 view .LVU295
 1041 002e 0893     		str	r3, [sp, #32]
 407:./User/code/Src/stm32h7xx_hal_msp.c ****     if (HAL_RCCEx_PeriphCLKConfig(&PeriphClkInitStruct) != HAL_OK)
 1042              		.loc 1 407 5 is_stmt 1 view .LVU296
 408:./User/code/Src/stm32h7xx_hal_msp.c ****     {
 1043              		.loc 1 408 5 view .LVU297
 408:./User/code/Src/stm32h7xx_hal_msp.c ****     {
 1044              		.loc 1 408 9 is_stmt 0 view .LVU298
 1045 0030 FFF7FEFF 		bl	HAL_RCCEx_PeriphCLKConfig
 1046              	.LVL46:
 408:./User/code/Src/stm32h7xx_hal_msp.c ****     {
 1047              		.loc 1 408 8 view .LVU299
 1048 0034 40BB     		cbnz	r0, .L89
 1049              	.L83:
 414:./User/code/Src/stm32h7xx_hal_msp.c **** 
 1050              		.loc 1 414 5 is_stmt 1 view .LVU300
 1051              	.LBB29:
 414:./User/code/Src/stm32h7xx_hal_msp.c **** 
 1052              		.loc 1 414 5 view .LVU301
 414:./User/code/Src/stm32h7xx_hal_msp.c **** 
 1053              		.loc 1 414 5 view .LVU302
 1054 0036 174B     		ldr	r3, .L90+4
 1055              	.LBE29:
 421:./User/code/Src/stm32h7xx_hal_msp.c ****     GPIO_InitStruct.Mode = GPIO_MODE_AF_PP;
 1056              		.loc 1 421 25 is_stmt 0 view .LVU303
 1057 0038 4FF4C060 		mov	r0, #1536
 422:./User/code/Src/stm32h7xx_hal_msp.c ****     GPIO_InitStruct.Pull = GPIO_NOPULL;
 1058              		.loc 1 422 26 view .LVU304
 1059 003c 0226     		movs	r6, #2
 426:./User/code/Src/stm32h7xx_hal_msp.c **** 
 1060              		.loc 1 426 5 view .LVU305
 1061 003e 03A9     		add	r1, sp, #12
 1062              	.LBB30:
 414:./User/code/Src/stm32h7xx_hal_msp.c **** 
 1063              		.loc 1 414 5 view .LVU306
 1064 0040 D3F8F020 		ldr	r2, [r3, #240]
 1065              	.LBE30:
 423:./User/code/Src/stm32h7xx_hal_msp.c ****     GPIO_InitStruct.Speed = GPIO_SPEED_FREQ_LOW;
 1066              		.loc 1 423 26 view .LVU307
 1067 0044 0024     		movs	r4, #0
 425:./User/code/Src/stm32h7xx_hal_msp.c ****     HAL_GPIO_Init(GPIOA, &GPIO_InitStruct);
ARM GAS  /tmp/cc1KsLnH.s 			page 31


 1068              		.loc 1 425 31 view .LVU308
 1069 0046 0725     		movs	r5, #7
 1070              	.LVL47:
 1071              	.LBB31:
 414:./User/code/Src/stm32h7xx_hal_msp.c **** 
 1072              		.loc 1 414 5 view .LVU309
 1073 0048 42F01002 		orr	r2, r2, #16
 1074 004c C3F8F020 		str	r2, [r3, #240]
 414:./User/code/Src/stm32h7xx_hal_msp.c **** 
 1075              		.loc 1 414 5 is_stmt 1 view .LVU310
 1076 0050 D3F8F020 		ldr	r2, [r3, #240]
 1077 0054 02F01002 		and	r2, r2, #16
 1078 0058 0192     		str	r2, [sp, #4]
 414:./User/code/Src/stm32h7xx_hal_msp.c **** 
 1079              		.loc 1 414 5 view .LVU311
 1080 005a 019A     		ldr	r2, [sp, #4]
 1081              	.LBE31:
 414:./User/code/Src/stm32h7xx_hal_msp.c **** 
 1082              		.loc 1 414 5 view .LVU312
 416:./User/code/Src/stm32h7xx_hal_msp.c ****     /**USART1 GPIO Configuration
 1083              		.loc 1 416 5 view .LVU313
 1084              	.LBB32:
 416:./User/code/Src/stm32h7xx_hal_msp.c ****     /**USART1 GPIO Configuration
 1085              		.loc 1 416 5 view .LVU314
 416:./User/code/Src/stm32h7xx_hal_msp.c ****     /**USART1 GPIO Configuration
 1086              		.loc 1 416 5 view .LVU315
 1087 005c D3F8E020 		ldr	r2, [r3, #224]
 1088 0060 42F00102 		orr	r2, r2, #1
 1089 0064 C3F8E020 		str	r2, [r3, #224]
 416:./User/code/Src/stm32h7xx_hal_msp.c ****     /**USART1 GPIO Configuration
 1090              		.loc 1 416 5 view .LVU316
 1091 0068 D3F8E030 		ldr	r3, [r3, #224]
 1092              	.LBE32:
 421:./User/code/Src/stm32h7xx_hal_msp.c ****     GPIO_InitStruct.Mode = GPIO_MODE_AF_PP;
 1093              		.loc 1 421 25 is_stmt 0 view .LVU317
 1094 006c 0390     		str	r0, [sp, #12]
 1095              	.LBB33:
 416:./User/code/Src/stm32h7xx_hal_msp.c ****     /**USART1 GPIO Configuration
 1096              		.loc 1 416 5 view .LVU318
 1097 006e 03F00103 		and	r3, r3, #1
 1098              	.LBE33:
 426:./User/code/Src/stm32h7xx_hal_msp.c **** 
 1099              		.loc 1 426 5 view .LVU319
 1100 0072 0948     		ldr	r0, .L90+8
 422:./User/code/Src/stm32h7xx_hal_msp.c ****     GPIO_InitStruct.Pull = GPIO_NOPULL;
 1101              		.loc 1 422 26 view .LVU320
 1102 0074 0496     		str	r6, [sp, #16]
 1103              	.LBB34:
 416:./User/code/Src/stm32h7xx_hal_msp.c ****     /**USART1 GPIO Configuration
 1104              		.loc 1 416 5 view .LVU321
 1105 0076 0293     		str	r3, [sp, #8]
 416:./User/code/Src/stm32h7xx_hal_msp.c ****     /**USART1 GPIO Configuration
 1106              		.loc 1 416 5 is_stmt 1 view .LVU322
 1107 0078 029B     		ldr	r3, [sp, #8]
 1108              	.LBE34:
 416:./User/code/Src/stm32h7xx_hal_msp.c ****     /**USART1 GPIO Configuration
 1109              		.loc 1 416 5 view .LVU323
ARM GAS  /tmp/cc1KsLnH.s 			page 32


 421:./User/code/Src/stm32h7xx_hal_msp.c ****     GPIO_InitStruct.Mode = GPIO_MODE_AF_PP;
 1110              		.loc 1 421 5 view .LVU324
 422:./User/code/Src/stm32h7xx_hal_msp.c ****     GPIO_InitStruct.Pull = GPIO_NOPULL;
 1111              		.loc 1 422 5 view .LVU325
 423:./User/code/Src/stm32h7xx_hal_msp.c ****     GPIO_InitStruct.Speed = GPIO_SPEED_FREQ_LOW;
 1112              		.loc 1 423 5 view .LVU326
 425:./User/code/Src/stm32h7xx_hal_msp.c ****     HAL_GPIO_Init(GPIOA, &GPIO_InitStruct);
 1113              		.loc 1 425 31 is_stmt 0 view .LVU327
 1114 007a 0795     		str	r5, [sp, #28]
 424:./User/code/Src/stm32h7xx_hal_msp.c ****     GPIO_InitStruct.Alternate = GPIO_AF7_USART1;
 1115              		.loc 1 424 27 view .LVU328
 1116 007c CDE90544 		strd	r4, r4, [sp, #20]
 425:./User/code/Src/stm32h7xx_hal_msp.c ****     HAL_GPIO_Init(GPIOA, &GPIO_InitStruct);
 1117              		.loc 1 425 5 is_stmt 1 view .LVU329
 426:./User/code/Src/stm32h7xx_hal_msp.c **** 
 1118              		.loc 1 426 5 view .LVU330
 1119 0080 FFF7FEFF 		bl	HAL_GPIO_Init
 1120              	.LVL48:
 1121              		.loc 1 433 1 is_stmt 0 view .LVU331
 1122 0084 38B0     		add	sp, sp, #224
 1123              	.LCFI30:
 1124              		.cfi_remember_state
 1125              		.cfi_def_cfa_offset 16
 1126              		@ sp needed
 1127 0086 70BD     		pop	{r4, r5, r6, pc}
 1128              	.LVL49:
 1129              	.L89:
 1130              	.LCFI31:
 1131              		.cfi_restore_state
 1132              	.LBB35:
 410:./User/code/Src/stm32h7xx_hal_msp.c ****     }
 1133              		.loc 1 410 7 is_stmt 1 view .LVU332
 1134 0088 FFF7FEFF 		bl	Error_Handler
 1135              	.LVL50:
 1136 008c D3E7     		b	.L83
 1137              	.L91:
 1138 008e 00BF     		.align	2
 1139              	.L90:
 1140 0090 00100140 		.word	1073811456
 1141 0094 00440258 		.word	1476543488
 1142 0098 00000258 		.word	1476526080
 1143              	.LBE35:
 1144              		.cfi_endproc
 1145              	.LFE340:
 1147              		.section	.text.HAL_UART_MspDeInit,"ax",%progbits
 1148              		.align	1
 1149              		.p2align 2,,3
 1150              		.global	HAL_UART_MspDeInit
 1151              		.syntax unified
 1152              		.thumb
 1153              		.thumb_func
 1154              		.fpu fpv5-d16
 1156              	HAL_UART_MspDeInit:
 1157              	.LVL51:
 1158              	.LFB341:
 434:./User/code/Src/stm32h7xx_hal_msp.c **** 
 435:./User/code/Src/stm32h7xx_hal_msp.c **** /**
ARM GAS  /tmp/cc1KsLnH.s 			page 33


 436:./User/code/Src/stm32h7xx_hal_msp.c **** * @brief UART MSP De-Initialization
 437:./User/code/Src/stm32h7xx_hal_msp.c **** * This function freeze the hardware resources used in this example
 438:./User/code/Src/stm32h7xx_hal_msp.c **** * @param huart: UART handle pointer
 439:./User/code/Src/stm32h7xx_hal_msp.c **** * @retval None
 440:./User/code/Src/stm32h7xx_hal_msp.c **** */
 441:./User/code/Src/stm32h7xx_hal_msp.c **** void HAL_UART_MspDeInit(UART_HandleTypeDef* huart)
 442:./User/code/Src/stm32h7xx_hal_msp.c **** {
 1159              		.loc 1 442 1 view -0
 1160              		.cfi_startproc
 1161              		@ args = 0, pretend = 0, frame = 0
 1162              		@ frame_needed = 0, uses_anonymous_args = 0
 1163              		@ link register save eliminated.
 443:./User/code/Src/stm32h7xx_hal_msp.c ****   if(huart->Instance==USART1)
 1164              		.loc 1 443 3 view .LVU334
 1165              		.loc 1 443 5 is_stmt 0 view .LVU335
 1166 0000 084B     		ldr	r3, .L95
 1167 0002 0268     		ldr	r2, [r0]
 1168 0004 9A42     		cmp	r2, r3
 1169 0006 00D0     		beq	.L94
 444:./User/code/Src/stm32h7xx_hal_msp.c ****   {
 445:./User/code/Src/stm32h7xx_hal_msp.c ****   /* USER CODE BEGIN USART1_MspDeInit 0 */
 446:./User/code/Src/stm32h7xx_hal_msp.c **** 
 447:./User/code/Src/stm32h7xx_hal_msp.c ****   /* USER CODE END USART1_MspDeInit 0 */
 448:./User/code/Src/stm32h7xx_hal_msp.c ****     /* Peripheral clock disable */
 449:./User/code/Src/stm32h7xx_hal_msp.c ****     __HAL_RCC_USART1_CLK_DISABLE();
 450:./User/code/Src/stm32h7xx_hal_msp.c **** 
 451:./User/code/Src/stm32h7xx_hal_msp.c ****     /**USART1 GPIO Configuration
 452:./User/code/Src/stm32h7xx_hal_msp.c ****     PA10     ------> USART1_RX
 453:./User/code/Src/stm32h7xx_hal_msp.c ****     PA9     ------> USART1_TX
 454:./User/code/Src/stm32h7xx_hal_msp.c ****     */
 455:./User/code/Src/stm32h7xx_hal_msp.c ****     HAL_GPIO_DeInit(GPIOA, STLINK_TX_Pin|STLINK_RX_Pin);
 456:./User/code/Src/stm32h7xx_hal_msp.c **** 
 457:./User/code/Src/stm32h7xx_hal_msp.c ****   /* USER CODE BEGIN USART1_MspDeInit 1 */
 458:./User/code/Src/stm32h7xx_hal_msp.c **** 
 459:./User/code/Src/stm32h7xx_hal_msp.c ****   /* USER CODE END USART1_MspDeInit 1 */
 460:./User/code/Src/stm32h7xx_hal_msp.c ****   }
 461:./User/code/Src/stm32h7xx_hal_msp.c **** 
 462:./User/code/Src/stm32h7xx_hal_msp.c **** }
 1170              		.loc 1 462 1 view .LVU336
 1171 0008 7047     		bx	lr
 1172              	.L94:
 449:./User/code/Src/stm32h7xx_hal_msp.c **** 
 1173              		.loc 1 449 5 is_stmt 1 view .LVU337
 1174 000a 074A     		ldr	r2, .L95+4
 455:./User/code/Src/stm32h7xx_hal_msp.c **** 
 1175              		.loc 1 455 5 is_stmt 0 view .LVU338
 1176 000c 4FF4C061 		mov	r1, #1536
 1177 0010 0648     		ldr	r0, .L95+8
 1178              	.LVL52:
 449:./User/code/Src/stm32h7xx_hal_msp.c **** 
 1179              		.loc 1 449 5 view .LVU339
 1180 0012 D2F8F030 		ldr	r3, [r2, #240]
 1181 0016 23F01003 		bic	r3, r3, #16
 1182 001a C2F8F030 		str	r3, [r2, #240]
 455:./User/code/Src/stm32h7xx_hal_msp.c **** 
 1183              		.loc 1 455 5 is_stmt 1 view .LVU340
 1184 001e FFF7FEBF 		b	HAL_GPIO_DeInit
ARM GAS  /tmp/cc1KsLnH.s 			page 34


 1185              	.LVL53:
 1186              	.L96:
 1187 0022 00BF     		.align	2
 1188              	.L95:
 1189 0024 00100140 		.word	1073811456
 1190 0028 00440258 		.word	1476543488
 1191 002c 00000258 		.word	1476526080
 1192              		.cfi_endproc
 1193              	.LFE341:
 1195              		.text
 1196              	.Letext0:
 1197              		.file 2 "/usr/lib/gcc/arm-none-eabi/9.2.1/include/stdint.h"
 1198              		.file 3 "./Libraries/CMSIS/Core/Include/core_cm7.h"
 1199              		.file 4 "./Libraries/CMSIS/Device/ST/STM32H7xx/Include/system_stm32h7xx.h"
 1200              		.file 5 "./Libraries/CMSIS/Device/ST/STM32H7xx/Include/stm32h747xx.h"
 1201              		.file 6 "/usr/lib/gcc/arm-none-eabi/9.2.1/include/stddef.h"
 1202              		.file 7 "/usr/include/newlib/sys/_types.h"
 1203              		.file 8 "/usr/include/newlib/sys/reent.h"
 1204              		.file 9 "/usr/include/newlib/sys/lock.h"
 1205              		.file 10 "/usr/include/newlib/math.h"
 1206              		.file 11 "./Libraries/STM32H7xx_HAL_Driver/Inc/stm32h7xx_hal_def.h"
 1207              		.file 12 "./Libraries/STM32H7xx_HAL_Driver/Inc/stm32h7xx_hal_rcc_ex.h"
 1208              		.file 13 "./Libraries/STM32H7xx_HAL_Driver/Inc/stm32h7xx_hal_gpio.h"
 1209              		.file 14 "./Libraries/STM32H7xx_HAL_Driver/Inc/stm32h7xx_hal_dma.h"
 1210              		.file 15 "./Libraries/STM32H7xx_HAL_Driver/Inc/stm32h7xx_hal_dsi.h"
 1211              		.file 16 "./Libraries/STM32H7xx_HAL_Driver/Inc/stm32h7xx_hal_crc.h"
 1212              		.file 17 "./Libraries/STM32H7xx_HAL_Driver/Inc/stm32h7xx_hal_flash.h"
 1213              		.file 18 "./Libraries/STM32H7xx_HAL_Driver/Inc/stm32h7xx_hal_i2c.h"
 1214              		.file 19 "./Libraries/STM32H7xx_HAL_Driver/Inc/stm32h7xx_hal_ltdc.h"
 1215              		.file 20 "./Libraries/STM32H7xx_HAL_Driver/Inc/stm32h7xx_hal_uart.h"
 1216              		.file 21 "./Libraries/STM32H7xx_HAL_Driver/Inc/stm32h7xx_hal.h"
 1217              		.file 22 "./Libraries/STM32H7xx_HAL_Driver/Inc/stm32h7xx_hal_cortex.h"
 1218              		.file 23 "<built-in>"
ARM GAS  /tmp/cc1KsLnH.s 			page 35

