ARM GAS  /tmp/cczC9bBt.s 			page 1


   1              		.cpu cortex-m7
   2              		.eabi_attribute 28, 1
   3              		.eabi_attribute 20, 1
   4              		.eabi_attribute 21, 1
   5              		.eabi_attribute 23, 3
   6              		.eabi_attribute 24, 1
   7              		.eabi_attribute 25, 1
   8              		.eabi_attribute 26, 1
   9              		.eabi_attribute 30, 6
  10              		.eabi_attribute 34, 1
  11              		.eabi_attribute 18, 4
  12              		.file	"stm32h7xx_hal_spi_ex.c"
  13              		.text
  14              	.Ltext0:
  15              		.cfi_sections	.debug_frame
  16              		.section	.text.HAL_SPIEx_FlushRxFifo,"ax",%progbits
  17              		.align	1
  18              		.global	HAL_SPIEx_FlushRxFifo
  19              		.arch armv7e-m
  20              		.syntax unified
  21              		.thumb
  22              		.thumb_func
  23              		.fpu fpv5-d16
  25              	HAL_SPIEx_FlushRxFifo:
  26              	.LFB331:
  27              		.file 1 "./Libraries/STM32H7xx_HAL_Driver/Src/stm32h7xx_hal_spi_ex.c"
   1:./Libraries/STM32H7xx_HAL_Driver/Src/stm32h7xx_hal_spi_ex.c **** /**
   2:./Libraries/STM32H7xx_HAL_Driver/Src/stm32h7xx_hal_spi_ex.c ****   ******************************************************************************
   3:./Libraries/STM32H7xx_HAL_Driver/Src/stm32h7xx_hal_spi_ex.c ****   * @file    stm32h7xx_hal_spi_ex.c
   4:./Libraries/STM32H7xx_HAL_Driver/Src/stm32h7xx_hal_spi_ex.c ****   * @author  MCD Application Team
   5:./Libraries/STM32H7xx_HAL_Driver/Src/stm32h7xx_hal_spi_ex.c ****   * @brief   Extended SPI HAL module driver.
   6:./Libraries/STM32H7xx_HAL_Driver/Src/stm32h7xx_hal_spi_ex.c ****   *          This file provides firmware functions to manage the following
   7:./Libraries/STM32H7xx_HAL_Driver/Src/stm32h7xx_hal_spi_ex.c ****   *          SPI peripheral extended functionalities :
   8:./Libraries/STM32H7xx_HAL_Driver/Src/stm32h7xx_hal_spi_ex.c ****   *           + IO operation functions
   9:./Libraries/STM32H7xx_HAL_Driver/Src/stm32h7xx_hal_spi_ex.c ****   *           + Peripheral Control functions
  10:./Libraries/STM32H7xx_HAL_Driver/Src/stm32h7xx_hal_spi_ex.c ****   *
  11:./Libraries/STM32H7xx_HAL_Driver/Src/stm32h7xx_hal_spi_ex.c ****   ******************************************************************************
  12:./Libraries/STM32H7xx_HAL_Driver/Src/stm32h7xx_hal_spi_ex.c ****   * @attention
  13:./Libraries/STM32H7xx_HAL_Driver/Src/stm32h7xx_hal_spi_ex.c ****   *
  14:./Libraries/STM32H7xx_HAL_Driver/Src/stm32h7xx_hal_spi_ex.c ****   * <h2><center>&copy; Copyright (c) 2017 STMicroelectronics.
  15:./Libraries/STM32H7xx_HAL_Driver/Src/stm32h7xx_hal_spi_ex.c ****   * All rights reserved.</center></h2>
  16:./Libraries/STM32H7xx_HAL_Driver/Src/stm32h7xx_hal_spi_ex.c ****   *
  17:./Libraries/STM32H7xx_HAL_Driver/Src/stm32h7xx_hal_spi_ex.c ****   * This software component is licensed by ST under BSD 3-Clause license,
  18:./Libraries/STM32H7xx_HAL_Driver/Src/stm32h7xx_hal_spi_ex.c ****   * the "License"; You may not use this file except in compliance with the
  19:./Libraries/STM32H7xx_HAL_Driver/Src/stm32h7xx_hal_spi_ex.c ****   * License. You may obtain a copy of the License at:
  20:./Libraries/STM32H7xx_HAL_Driver/Src/stm32h7xx_hal_spi_ex.c ****   *                        opensource.org/licenses/BSD-3-Clause
  21:./Libraries/STM32H7xx_HAL_Driver/Src/stm32h7xx_hal_spi_ex.c ****   *
  22:./Libraries/STM32H7xx_HAL_Driver/Src/stm32h7xx_hal_spi_ex.c ****   ******************************************************************************
  23:./Libraries/STM32H7xx_HAL_Driver/Src/stm32h7xx_hal_spi_ex.c ****   */
  24:./Libraries/STM32H7xx_HAL_Driver/Src/stm32h7xx_hal_spi_ex.c **** 
  25:./Libraries/STM32H7xx_HAL_Driver/Src/stm32h7xx_hal_spi_ex.c **** /* Includes ------------------------------------------------------------------*/
  26:./Libraries/STM32H7xx_HAL_Driver/Src/stm32h7xx_hal_spi_ex.c **** #include "stm32h7xx_hal.h"
  27:./Libraries/STM32H7xx_HAL_Driver/Src/stm32h7xx_hal_spi_ex.c **** 
  28:./Libraries/STM32H7xx_HAL_Driver/Src/stm32h7xx_hal_spi_ex.c **** /** @addtogroup STM32H7xx_HAL_Driver
  29:./Libraries/STM32H7xx_HAL_Driver/Src/stm32h7xx_hal_spi_ex.c ****   * @{
  30:./Libraries/STM32H7xx_HAL_Driver/Src/stm32h7xx_hal_spi_ex.c ****   */
  31:./Libraries/STM32H7xx_HAL_Driver/Src/stm32h7xx_hal_spi_ex.c **** 
ARM GAS  /tmp/cczC9bBt.s 			page 2


  32:./Libraries/STM32H7xx_HAL_Driver/Src/stm32h7xx_hal_spi_ex.c **** /** @defgroup SPIEx SPIEx
  33:./Libraries/STM32H7xx_HAL_Driver/Src/stm32h7xx_hal_spi_ex.c ****   * @brief SPI Extended HAL module driver
  34:./Libraries/STM32H7xx_HAL_Driver/Src/stm32h7xx_hal_spi_ex.c ****   * @{
  35:./Libraries/STM32H7xx_HAL_Driver/Src/stm32h7xx_hal_spi_ex.c ****   */
  36:./Libraries/STM32H7xx_HAL_Driver/Src/stm32h7xx_hal_spi_ex.c **** #ifdef HAL_SPI_MODULE_ENABLED
  37:./Libraries/STM32H7xx_HAL_Driver/Src/stm32h7xx_hal_spi_ex.c **** 
  38:./Libraries/STM32H7xx_HAL_Driver/Src/stm32h7xx_hal_spi_ex.c **** /* Private typedef -----------------------------------------------------------*/
  39:./Libraries/STM32H7xx_HAL_Driver/Src/stm32h7xx_hal_spi_ex.c **** /* Private defines -----------------------------------------------------------*/
  40:./Libraries/STM32H7xx_HAL_Driver/Src/stm32h7xx_hal_spi_ex.c **** /* Private macros ------------------------------------------------------------*/
  41:./Libraries/STM32H7xx_HAL_Driver/Src/stm32h7xx_hal_spi_ex.c **** /* Private variables ---------------------------------------------------------*/
  42:./Libraries/STM32H7xx_HAL_Driver/Src/stm32h7xx_hal_spi_ex.c **** /* Private function prototypes -----------------------------------------------*/
  43:./Libraries/STM32H7xx_HAL_Driver/Src/stm32h7xx_hal_spi_ex.c **** /* Exported functions --------------------------------------------------------*/
  44:./Libraries/STM32H7xx_HAL_Driver/Src/stm32h7xx_hal_spi_ex.c **** 
  45:./Libraries/STM32H7xx_HAL_Driver/Src/stm32h7xx_hal_spi_ex.c **** /** @defgroup SPIEx_Exported_Functions SPIEx Exported Functions
  46:./Libraries/STM32H7xx_HAL_Driver/Src/stm32h7xx_hal_spi_ex.c ****   * @{
  47:./Libraries/STM32H7xx_HAL_Driver/Src/stm32h7xx_hal_spi_ex.c ****   */
  48:./Libraries/STM32H7xx_HAL_Driver/Src/stm32h7xx_hal_spi_ex.c **** 
  49:./Libraries/STM32H7xx_HAL_Driver/Src/stm32h7xx_hal_spi_ex.c **** /** @defgroup SPIEx_Exported_Functions_Group1 IO operation functions
  50:./Libraries/STM32H7xx_HAL_Driver/Src/stm32h7xx_hal_spi_ex.c ****   *  @brief   Data transfers functions
  51:./Libraries/STM32H7xx_HAL_Driver/Src/stm32h7xx_hal_spi_ex.c ****   *
  52:./Libraries/STM32H7xx_HAL_Driver/Src/stm32h7xx_hal_spi_ex.c **** @verbatim
  53:./Libraries/STM32H7xx_HAL_Driver/Src/stm32h7xx_hal_spi_ex.c ****   ==============================================================================
  54:./Libraries/STM32H7xx_HAL_Driver/Src/stm32h7xx_hal_spi_ex.c ****                       ##### IO operation functions #####
  55:./Libraries/STM32H7xx_HAL_Driver/Src/stm32h7xx_hal_spi_ex.c ****  ===============================================================================
  56:./Libraries/STM32H7xx_HAL_Driver/Src/stm32h7xx_hal_spi_ex.c ****  [..]
  57:./Libraries/STM32H7xx_HAL_Driver/Src/stm32h7xx_hal_spi_ex.c ****     This subsection provides a set of extended functions to manage the SPI
  58:./Libraries/STM32H7xx_HAL_Driver/Src/stm32h7xx_hal_spi_ex.c ****     data transfers.
  59:./Libraries/STM32H7xx_HAL_Driver/Src/stm32h7xx_hal_spi_ex.c **** 
  60:./Libraries/STM32H7xx_HAL_Driver/Src/stm32h7xx_hal_spi_ex.c ****     (#) SPIEx function:
  61:./Libraries/STM32H7xx_HAL_Driver/Src/stm32h7xx_hal_spi_ex.c ****         (++) HAL_SPIEx_FlushRxFifo()
  62:./Libraries/STM32H7xx_HAL_Driver/Src/stm32h7xx_hal_spi_ex.c ****         (++) HAL_SPIEx_FlushRxFifo()
  63:./Libraries/STM32H7xx_HAL_Driver/Src/stm32h7xx_hal_spi_ex.c ****         (++) HAL_SPIEx_EnableLockConfiguration()
  64:./Libraries/STM32H7xx_HAL_Driver/Src/stm32h7xx_hal_spi_ex.c ****         (++) HAL_SPIEx_ConfigureUnderrun()
  65:./Libraries/STM32H7xx_HAL_Driver/Src/stm32h7xx_hal_spi_ex.c **** 
  66:./Libraries/STM32H7xx_HAL_Driver/Src/stm32h7xx_hal_spi_ex.c **** @endverbatim
  67:./Libraries/STM32H7xx_HAL_Driver/Src/stm32h7xx_hal_spi_ex.c ****   * @{
  68:./Libraries/STM32H7xx_HAL_Driver/Src/stm32h7xx_hal_spi_ex.c ****   */
  69:./Libraries/STM32H7xx_HAL_Driver/Src/stm32h7xx_hal_spi_ex.c **** 
  70:./Libraries/STM32H7xx_HAL_Driver/Src/stm32h7xx_hal_spi_ex.c **** /**
  71:./Libraries/STM32H7xx_HAL_Driver/Src/stm32h7xx_hal_spi_ex.c ****   * @brief Flush the RX fifo.
  72:./Libraries/STM32H7xx_HAL_Driver/Src/stm32h7xx_hal_spi_ex.c ****   * @param  hspi: pointer to a SPI_HandleTypeDef structure that contains
  73:./Libraries/STM32H7xx_HAL_Driver/Src/stm32h7xx_hal_spi_ex.c ****   *               the configuration information for the specified SPI module.
  74:./Libraries/STM32H7xx_HAL_Driver/Src/stm32h7xx_hal_spi_ex.c ****   * @retval HAL status
  75:./Libraries/STM32H7xx_HAL_Driver/Src/stm32h7xx_hal_spi_ex.c ****   */
  76:./Libraries/STM32H7xx_HAL_Driver/Src/stm32h7xx_hal_spi_ex.c **** HAL_StatusTypeDef HAL_SPIEx_FlushRxFifo(SPI_HandleTypeDef *hspi)
  77:./Libraries/STM32H7xx_HAL_Driver/Src/stm32h7xx_hal_spi_ex.c **** {
  28              		.loc 1 77 1
  29              		.cfi_startproc
  30              		@ args = 0, pretend = 0, frame = 24
  31              		@ frame_needed = 1, uses_anonymous_args = 0
  32              		@ link register save eliminated.
  33 0000 80B4     		push	{r7}
  34              	.LCFI0:
  35              		.cfi_def_cfa_offset 4
  36              		.cfi_offset 7, -4
  37 0002 87B0     		sub	sp, sp, #28
  38              	.LCFI1:
ARM GAS  /tmp/cczC9bBt.s 			page 3


  39              		.cfi_def_cfa_offset 32
  40 0004 00AF     		add	r7, sp, #0
  41              	.LCFI2:
  42              		.cfi_def_cfa_register 7
  43 0006 7860     		str	r0, [r7, #4]
  78:./Libraries/STM32H7xx_HAL_Driver/Src/stm32h7xx_hal_spi_ex.c ****   uint8_t  count  = 0;
  44              		.loc 1 78 12
  45 0008 0023     		movs	r3, #0
  46 000a FB75     		strb	r3, [r7, #23]
  79:./Libraries/STM32H7xx_HAL_Driver/Src/stm32h7xx_hal_spi_ex.c ****   uint32_t itflag = hspi->Instance->SR;
  47              		.loc 1 79 25
  48 000c 7B68     		ldr	r3, [r7, #4]
  49 000e 1B68     		ldr	r3, [r3]
  50              		.loc 1 79 12
  51 0010 5B69     		ldr	r3, [r3, #20]
  52 0012 3B61     		str	r3, [r7, #16]
  80:./Libraries/STM32H7xx_HAL_Driver/Src/stm32h7xx_hal_spi_ex.c ****   __IO uint32_t tmpreg;
  81:./Libraries/STM32H7xx_HAL_Driver/Src/stm32h7xx_hal_spi_ex.c **** 
  82:./Libraries/STM32H7xx_HAL_Driver/Src/stm32h7xx_hal_spi_ex.c ****   while (((hspi->Instance->SR & SPI_FLAG_FRLVL) !=  SPI_RX_FIFO_0PACKET) || ((itflag & SPI_FLAG_RXW
  53              		.loc 1 82 9
  54 0014 20E0     		b	.L2
  55              	.L7:
  83:./Libraries/STM32H7xx_HAL_Driver/Src/stm32h7xx_hal_spi_ex.c ****   {
  84:./Libraries/STM32H7xx_HAL_Driver/Src/stm32h7xx_hal_spi_ex.c ****     count += (uint8_t)4UL;
  56              		.loc 1 84 11
  57 0016 FB7D     		ldrb	r3, [r7, #23]
  58 0018 0433     		adds	r3, r3, #4
  59 001a FB75     		strb	r3, [r7, #23]
  85:./Libraries/STM32H7xx_HAL_Driver/Src/stm32h7xx_hal_spi_ex.c ****     tmpreg = hspi->Instance->RXDR;
  60              		.loc 1 85 18
  61 001c 7B68     		ldr	r3, [r7, #4]
  62 001e 1B68     		ldr	r3, [r3]
  63              		.loc 1 85 28
  64 0020 1B6B     		ldr	r3, [r3, #48]
  65              		.loc 1 85 12
  66 0022 FB60     		str	r3, [r7, #12]
  86:./Libraries/STM32H7xx_HAL_Driver/Src/stm32h7xx_hal_spi_ex.c ****     UNUSED(tmpreg); /* To avoid GCC warning */
  67              		.loc 1 86 5
  68 0024 FB68     		ldr	r3, [r7, #12]
  87:./Libraries/STM32H7xx_HAL_Driver/Src/stm32h7xx_hal_spi_ex.c **** 
  88:./Libraries/STM32H7xx_HAL_Driver/Src/stm32h7xx_hal_spi_ex.c ****     if (IS_SPI_HIGHEND_INSTANCE(hspi->Instance))
  69              		.loc 1 88 9
  70 0026 7B68     		ldr	r3, [r7, #4]
  71 0028 1B68     		ldr	r3, [r3]
  72              		.loc 1 88 8
  73 002a 154A     		ldr	r2, .L8
  74 002c 9342     		cmp	r3, r2
  75 002e 09D0     		beq	.L3
  76              		.loc 1 88 9 discriminator 1
  77 0030 7B68     		ldr	r3, [r7, #4]
  78 0032 1B68     		ldr	r3, [r3]
  79 0034 134A     		ldr	r2, .L8+4
  80 0036 9342     		cmp	r3, r2
  81 0038 04D0     		beq	.L3
  82              		.loc 1 88 9 is_stmt 0 discriminator 2
  83 003a 7B68     		ldr	r3, [r7, #4]
  84 003c 1B68     		ldr	r3, [r3]
ARM GAS  /tmp/cczC9bBt.s 			page 4


  85 003e 124A     		ldr	r2, .L8+8
  86 0040 9342     		cmp	r3, r2
  87 0042 04D1     		bne	.L4
  88              	.L3:
  89:./Libraries/STM32H7xx_HAL_Driver/Src/stm32h7xx_hal_spi_ex.c ****     {
  90:./Libraries/STM32H7xx_HAL_Driver/Src/stm32h7xx_hal_spi_ex.c ****       if (count > SPI_HIGHEND_FIFO_SIZE)
  89              		.loc 1 90 10 is_stmt 1
  90 0044 FB7D     		ldrb	r3, [r7, #23]	@ zero_extendqisi2
  91 0046 102B     		cmp	r3, #16
  92 0048 06D9     		bls	.L2
  91:./Libraries/STM32H7xx_HAL_Driver/Src/stm32h7xx_hal_spi_ex.c ****       {
  92:./Libraries/STM32H7xx_HAL_Driver/Src/stm32h7xx_hal_spi_ex.c ****         return HAL_TIMEOUT;
  93              		.loc 1 92 16
  94 004a 0323     		movs	r3, #3
  95 004c 11E0     		b	.L6
  96              	.L4:
  93:./Libraries/STM32H7xx_HAL_Driver/Src/stm32h7xx_hal_spi_ex.c ****       }
  94:./Libraries/STM32H7xx_HAL_Driver/Src/stm32h7xx_hal_spi_ex.c ****     }
  95:./Libraries/STM32H7xx_HAL_Driver/Src/stm32h7xx_hal_spi_ex.c ****     else
  96:./Libraries/STM32H7xx_HAL_Driver/Src/stm32h7xx_hal_spi_ex.c ****     {
  97:./Libraries/STM32H7xx_HAL_Driver/Src/stm32h7xx_hal_spi_ex.c ****       if (count > SPI_LOWEND_FIFO_SIZE)
  97              		.loc 1 97 10
  98 004e FB7D     		ldrb	r3, [r7, #23]	@ zero_extendqisi2
  99 0050 082B     		cmp	r3, #8
 100 0052 01D9     		bls	.L2
  98:./Libraries/STM32H7xx_HAL_Driver/Src/stm32h7xx_hal_spi_ex.c ****       {
  99:./Libraries/STM32H7xx_HAL_Driver/Src/stm32h7xx_hal_spi_ex.c ****         return HAL_TIMEOUT;
 101              		.loc 1 99 16
 102 0054 0323     		movs	r3, #3
 103 0056 0CE0     		b	.L6
 104              	.L2:
  82:./Libraries/STM32H7xx_HAL_Driver/Src/stm32h7xx_hal_spi_ex.c ****   {
 105              		.loc 1 82 16
 106 0058 7B68     		ldr	r3, [r7, #4]
 107 005a 1B68     		ldr	r3, [r3]
  82:./Libraries/STM32H7xx_HAL_Driver/Src/stm32h7xx_hal_spi_ex.c ****   {
 108              		.loc 1 82 26
 109 005c 5B69     		ldr	r3, [r3, #20]
  82:./Libraries/STM32H7xx_HAL_Driver/Src/stm32h7xx_hal_spi_ex.c ****   {
 110              		.loc 1 82 31
 111 005e 03F4C043 		and	r3, r3, #24576
  82:./Libraries/STM32H7xx_HAL_Driver/Src/stm32h7xx_hal_spi_ex.c ****   {
 112              		.loc 1 82 9
 113 0062 002B     		cmp	r3, #0
 114 0064 D7D1     		bne	.L7
  82:./Libraries/STM32H7xx_HAL_Driver/Src/stm32h7xx_hal_spi_ex.c ****   {
 115              		.loc 1 82 86 discriminator 1
 116 0066 3B69     		ldr	r3, [r7, #16]
 117 0068 03F40043 		and	r3, r3, #32768
  82:./Libraries/STM32H7xx_HAL_Driver/Src/stm32h7xx_hal_spi_ex.c ****   {
 118              		.loc 1 82 74 discriminator 1
 119 006c 002B     		cmp	r3, #0
 120 006e D2D1     		bne	.L7
 100:./Libraries/STM32H7xx_HAL_Driver/Src/stm32h7xx_hal_spi_ex.c ****       }
 101:./Libraries/STM32H7xx_HAL_Driver/Src/stm32h7xx_hal_spi_ex.c ****     }
 102:./Libraries/STM32H7xx_HAL_Driver/Src/stm32h7xx_hal_spi_ex.c ****   }
 103:./Libraries/STM32H7xx_HAL_Driver/Src/stm32h7xx_hal_spi_ex.c ****   return HAL_OK;
ARM GAS  /tmp/cczC9bBt.s 			page 5


 121              		.loc 1 103 10
 122 0070 0023     		movs	r3, #0
 123              	.L6:
 104:./Libraries/STM32H7xx_HAL_Driver/Src/stm32h7xx_hal_spi_ex.c **** }
 124              		.loc 1 104 1
 125 0072 1846     		mov	r0, r3
 126 0074 1C37     		adds	r7, r7, #28
 127              	.LCFI3:
 128              		.cfi_def_cfa_offset 4
 129 0076 BD46     		mov	sp, r7
 130              	.LCFI4:
 131              		.cfi_def_cfa_register 13
 132              		@ sp needed
 133 0078 5DF8047B 		ldr	r7, [sp], #4
 134              	.LCFI5:
 135              		.cfi_restore 7
 136              		.cfi_def_cfa_offset 0
 137 007c 7047     		bx	lr
 138              	.L9:
 139 007e 00BF     		.align	2
 140              	.L8:
 141 0080 00300140 		.word	1073819648
 142 0084 00380040 		.word	1073756160
 143 0088 003C0040 		.word	1073757184
 144              		.cfi_endproc
 145              	.LFE331:
 147              		.section	.text.HAL_SPIEx_EnableLockConfiguration,"ax",%progbits
 148              		.align	1
 149              		.global	HAL_SPIEx_EnableLockConfiguration
 150              		.syntax unified
 151              		.thumb
 152              		.thumb_func
 153              		.fpu fpv5-d16
 155              	HAL_SPIEx_EnableLockConfiguration:
 156              	.LFB332:
 105:./Libraries/STM32H7xx_HAL_Driver/Src/stm32h7xx_hal_spi_ex.c **** 
 106:./Libraries/STM32H7xx_HAL_Driver/Src/stm32h7xx_hal_spi_ex.c **** 
 107:./Libraries/STM32H7xx_HAL_Driver/Src/stm32h7xx_hal_spi_ex.c **** /**
 108:./Libraries/STM32H7xx_HAL_Driver/Src/stm32h7xx_hal_spi_ex.c ****   * @brief  Enable the Lock for the AF configuration of associated IOs
 109:./Libraries/STM32H7xx_HAL_Driver/Src/stm32h7xx_hal_spi_ex.c ****   *         and write protect the Content of Configuration register 2
 110:./Libraries/STM32H7xx_HAL_Driver/Src/stm32h7xx_hal_spi_ex.c ****   *         when SPI is enabled
 111:./Libraries/STM32H7xx_HAL_Driver/Src/stm32h7xx_hal_spi_ex.c ****   * @param  hspi: pointer to a SPI_HandleTypeDef structure that contains
 112:./Libraries/STM32H7xx_HAL_Driver/Src/stm32h7xx_hal_spi_ex.c ****   *               the configuration information for SPI module.
 113:./Libraries/STM32H7xx_HAL_Driver/Src/stm32h7xx_hal_spi_ex.c ****   * @retval None
 114:./Libraries/STM32H7xx_HAL_Driver/Src/stm32h7xx_hal_spi_ex.c ****   */
 115:./Libraries/STM32H7xx_HAL_Driver/Src/stm32h7xx_hal_spi_ex.c **** HAL_StatusTypeDef HAL_SPIEx_EnableLockConfiguration(SPI_HandleTypeDef *hspi)
 116:./Libraries/STM32H7xx_HAL_Driver/Src/stm32h7xx_hal_spi_ex.c **** {
 157              		.loc 1 116 1
 158              		.cfi_startproc
 159              		@ args = 0, pretend = 0, frame = 16
 160              		@ frame_needed = 1, uses_anonymous_args = 0
 161              		@ link register save eliminated.
 162 0000 80B4     		push	{r7}
 163              	.LCFI6:
 164              		.cfi_def_cfa_offset 4
 165              		.cfi_offset 7, -4
 166 0002 85B0     		sub	sp, sp, #20
ARM GAS  /tmp/cczC9bBt.s 			page 6


 167              	.LCFI7:
 168              		.cfi_def_cfa_offset 24
 169 0004 00AF     		add	r7, sp, #0
 170              	.LCFI8:
 171              		.cfi_def_cfa_register 7
 172 0006 7860     		str	r0, [r7, #4]
 117:./Libraries/STM32H7xx_HAL_Driver/Src/stm32h7xx_hal_spi_ex.c ****   HAL_StatusTypeDef errorcode = HAL_OK;
 173              		.loc 1 117 21
 174 0008 0023     		movs	r3, #0
 175 000a FB73     		strb	r3, [r7, #15]
 118:./Libraries/STM32H7xx_HAL_Driver/Src/stm32h7xx_hal_spi_ex.c **** 
 119:./Libraries/STM32H7xx_HAL_Driver/Src/stm32h7xx_hal_spi_ex.c ****   /* Process Locked */
 120:./Libraries/STM32H7xx_HAL_Driver/Src/stm32h7xx_hal_spi_ex.c ****   __HAL_LOCK(hspi);
 176              		.loc 1 120 3
 177 000c 7B68     		ldr	r3, [r7, #4]
 178 000e 93F88030 		ldrb	r3, [r3, #128]	@ zero_extendqisi2
 179 0012 012B     		cmp	r3, #1
 180 0014 01D1     		bne	.L11
 181              		.loc 1 120 3 is_stmt 0 discriminator 1
 182 0016 0223     		movs	r3, #2
 183 0018 46E0     		b	.L12
 184              	.L11:
 185              		.loc 1 120 3 discriminator 2
 186 001a 7B68     		ldr	r3, [r7, #4]
 187 001c 0122     		movs	r2, #1
 188 001e 83F88020 		strb	r2, [r3, #128]
 121:./Libraries/STM32H7xx_HAL_Driver/Src/stm32h7xx_hal_spi_ex.c **** 
 122:./Libraries/STM32H7xx_HAL_Driver/Src/stm32h7xx_hal_spi_ex.c ****   if (hspi->State != HAL_SPI_STATE_READY)
 189              		.loc 1 122 11 is_stmt 1 discriminator 2
 190 0022 7B68     		ldr	r3, [r7, #4]
 191 0024 93F88130 		ldrb	r3, [r3, #129]
 192 0028 DBB2     		uxtb	r3, r3
 193              		.loc 1 122 6 discriminator 2
 194 002a 012B     		cmp	r3, #1
 195 002c 0BD0     		beq	.L13
 123:./Libraries/STM32H7xx_HAL_Driver/Src/stm32h7xx_hal_spi_ex.c ****   {
 124:./Libraries/STM32H7xx_HAL_Driver/Src/stm32h7xx_hal_spi_ex.c ****     errorcode = HAL_BUSY;
 196              		.loc 1 124 15
 197 002e 0223     		movs	r3, #2
 198 0030 FB73     		strb	r3, [r7, #15]
 125:./Libraries/STM32H7xx_HAL_Driver/Src/stm32h7xx_hal_spi_ex.c ****     hspi->State = HAL_SPI_STATE_READY;
 199              		.loc 1 125 17
 200 0032 7B68     		ldr	r3, [r7, #4]
 201 0034 0122     		movs	r2, #1
 202 0036 83F88120 		strb	r2, [r3, #129]
 126:./Libraries/STM32H7xx_HAL_Driver/Src/stm32h7xx_hal_spi_ex.c ****     /* Process Unlocked */
 127:./Libraries/STM32H7xx_HAL_Driver/Src/stm32h7xx_hal_spi_ex.c ****     __HAL_UNLOCK(hspi);
 203              		.loc 1 127 5
 204 003a 7B68     		ldr	r3, [r7, #4]
 205 003c 0022     		movs	r2, #0
 206 003e 83F88020 		strb	r2, [r3, #128]
 128:./Libraries/STM32H7xx_HAL_Driver/Src/stm32h7xx_hal_spi_ex.c ****     return errorcode;
 207              		.loc 1 128 12
 208 0042 FB7B     		ldrb	r3, [r7, #15]	@ zero_extendqisi2
 209 0044 30E0     		b	.L12
 210              	.L13:
 129:./Libraries/STM32H7xx_HAL_Driver/Src/stm32h7xx_hal_spi_ex.c ****   }
ARM GAS  /tmp/cczC9bBt.s 			page 7


 130:./Libraries/STM32H7xx_HAL_Driver/Src/stm32h7xx_hal_spi_ex.c **** 
 131:./Libraries/STM32H7xx_HAL_Driver/Src/stm32h7xx_hal_spi_ex.c ****   /* Check if the SPI is disabled to edit IOLOCK bit */
 132:./Libraries/STM32H7xx_HAL_Driver/Src/stm32h7xx_hal_spi_ex.c ****   if ((hspi->Instance->CR1 & SPI_CR1_SPE) != SPI_CR1_SPE)
 211              		.loc 1 132 12
 212 0046 7B68     		ldr	r3, [r7, #4]
 213 0048 1B68     		ldr	r3, [r3]
 214              		.loc 1 132 22
 215 004a 1B68     		ldr	r3, [r3]
 216              		.loc 1 132 28
 217 004c 03F00103 		and	r3, r3, #1
 218              		.loc 1 132 6
 219 0050 012B     		cmp	r3, #1
 220 0052 08D0     		beq	.L14
 133:./Libraries/STM32H7xx_HAL_Driver/Src/stm32h7xx_hal_spi_ex.c ****   {
 134:./Libraries/STM32H7xx_HAL_Driver/Src/stm32h7xx_hal_spi_ex.c ****     SET_BIT(hspi->Instance->CR1, SPI_CR1_IOLOCK);
 221              		.loc 1 134 5
 222 0054 7B68     		ldr	r3, [r7, #4]
 223 0056 1B68     		ldr	r3, [r3]
 224 0058 1A68     		ldr	r2, [r3]
 225 005a 7B68     		ldr	r3, [r7, #4]
 226 005c 1B68     		ldr	r3, [r3]
 227 005e 42F48032 		orr	r2, r2, #65536
 228 0062 1A60     		str	r2, [r3]
 229 0064 17E0     		b	.L15
 230              	.L14:
 135:./Libraries/STM32H7xx_HAL_Driver/Src/stm32h7xx_hal_spi_ex.c ****   }
 136:./Libraries/STM32H7xx_HAL_Driver/Src/stm32h7xx_hal_spi_ex.c ****   else
 137:./Libraries/STM32H7xx_HAL_Driver/Src/stm32h7xx_hal_spi_ex.c ****   {
 138:./Libraries/STM32H7xx_HAL_Driver/Src/stm32h7xx_hal_spi_ex.c ****     /* Disable SPI peripheral */
 139:./Libraries/STM32H7xx_HAL_Driver/Src/stm32h7xx_hal_spi_ex.c ****     __HAL_SPI_DISABLE(hspi);
 231              		.loc 1 139 5
 232 0066 7B68     		ldr	r3, [r7, #4]
 233 0068 1B68     		ldr	r3, [r3]
 234 006a 1A68     		ldr	r2, [r3]
 235 006c 7B68     		ldr	r3, [r7, #4]
 236 006e 1B68     		ldr	r3, [r3]
 237 0070 22F00102 		bic	r2, r2, #1
 238 0074 1A60     		str	r2, [r3]
 140:./Libraries/STM32H7xx_HAL_Driver/Src/stm32h7xx_hal_spi_ex.c **** 
 141:./Libraries/STM32H7xx_HAL_Driver/Src/stm32h7xx_hal_spi_ex.c ****     SET_BIT(hspi->Instance->CR1, SPI_CR1_IOLOCK);
 239              		.loc 1 141 5
 240 0076 7B68     		ldr	r3, [r7, #4]
 241 0078 1B68     		ldr	r3, [r3]
 242 007a 1A68     		ldr	r2, [r3]
 243 007c 7B68     		ldr	r3, [r7, #4]
 244 007e 1B68     		ldr	r3, [r3]
 245 0080 42F48032 		orr	r2, r2, #65536
 246 0084 1A60     		str	r2, [r3]
 142:./Libraries/STM32H7xx_HAL_Driver/Src/stm32h7xx_hal_spi_ex.c **** 
 143:./Libraries/STM32H7xx_HAL_Driver/Src/stm32h7xx_hal_spi_ex.c ****     /* Enable SPI peripheral */
 144:./Libraries/STM32H7xx_HAL_Driver/Src/stm32h7xx_hal_spi_ex.c ****     __HAL_SPI_ENABLE(hspi);
 247              		.loc 1 144 5
 248 0086 7B68     		ldr	r3, [r7, #4]
 249 0088 1B68     		ldr	r3, [r3]
 250 008a 1A68     		ldr	r2, [r3]
 251 008c 7B68     		ldr	r3, [r7, #4]
 252 008e 1B68     		ldr	r3, [r3]
ARM GAS  /tmp/cczC9bBt.s 			page 8


 253 0090 42F00102 		orr	r2, r2, #1
 254 0094 1A60     		str	r2, [r3]
 255              	.L15:
 145:./Libraries/STM32H7xx_HAL_Driver/Src/stm32h7xx_hal_spi_ex.c ****   }
 146:./Libraries/STM32H7xx_HAL_Driver/Src/stm32h7xx_hal_spi_ex.c **** 
 147:./Libraries/STM32H7xx_HAL_Driver/Src/stm32h7xx_hal_spi_ex.c ****   hspi->State = HAL_SPI_STATE_READY;
 256              		.loc 1 147 15
 257 0096 7B68     		ldr	r3, [r7, #4]
 258 0098 0122     		movs	r2, #1
 259 009a 83F88120 		strb	r2, [r3, #129]
 148:./Libraries/STM32H7xx_HAL_Driver/Src/stm32h7xx_hal_spi_ex.c ****   /* Process Unlocked */
 149:./Libraries/STM32H7xx_HAL_Driver/Src/stm32h7xx_hal_spi_ex.c ****   __HAL_UNLOCK(hspi);
 260              		.loc 1 149 3
 261 009e 7B68     		ldr	r3, [r7, #4]
 262 00a0 0022     		movs	r2, #0
 263 00a2 83F88020 		strb	r2, [r3, #128]
 150:./Libraries/STM32H7xx_HAL_Driver/Src/stm32h7xx_hal_spi_ex.c ****   return errorcode;
 264              		.loc 1 150 10
 265 00a6 FB7B     		ldrb	r3, [r7, #15]	@ zero_extendqisi2
 266              	.L12:
 151:./Libraries/STM32H7xx_HAL_Driver/Src/stm32h7xx_hal_spi_ex.c **** }
 267              		.loc 1 151 1
 268 00a8 1846     		mov	r0, r3
 269 00aa 1437     		adds	r7, r7, #20
 270              	.LCFI9:
 271              		.cfi_def_cfa_offset 4
 272 00ac BD46     		mov	sp, r7
 273              	.LCFI10:
 274              		.cfi_def_cfa_register 13
 275              		@ sp needed
 276 00ae 5DF8047B 		ldr	r7, [sp], #4
 277              	.LCFI11:
 278              		.cfi_restore 7
 279              		.cfi_def_cfa_offset 0
 280 00b2 7047     		bx	lr
 281              		.cfi_endproc
 282              	.LFE332:
 284              		.section	.text.HAL_SPIEx_ConfigureUnderrun,"ax",%progbits
 285              		.align	1
 286              		.global	HAL_SPIEx_ConfigureUnderrun
 287              		.syntax unified
 288              		.thumb
 289              		.thumb_func
 290              		.fpu fpv5-d16
 292              	HAL_SPIEx_ConfigureUnderrun:
 293              	.LFB333:
 152:./Libraries/STM32H7xx_HAL_Driver/Src/stm32h7xx_hal_spi_ex.c **** 
 153:./Libraries/STM32H7xx_HAL_Driver/Src/stm32h7xx_hal_spi_ex.c **** /**
 154:./Libraries/STM32H7xx_HAL_Driver/Src/stm32h7xx_hal_spi_ex.c ****   * @brief  Configure the UNDERRUN condition and behavior of slave transmitter.
 155:./Libraries/STM32H7xx_HAL_Driver/Src/stm32h7xx_hal_spi_ex.c ****   * @param  hspi: pointer to a SPI_HandleTypeDef structure that contains
 156:./Libraries/STM32H7xx_HAL_Driver/Src/stm32h7xx_hal_spi_ex.c ****   *               the configuration information for SPI module.
 157:./Libraries/STM32H7xx_HAL_Driver/Src/stm32h7xx_hal_spi_ex.c ****   * @param  UnderrunDetection : Detection of underrun condition at slave transmitter
 158:./Libraries/STM32H7xx_HAL_Driver/Src/stm32h7xx_hal_spi_ex.c ****   *                             This parameter can be a value of @ref SPI_Underrun_Detection.
 159:./Libraries/STM32H7xx_HAL_Driver/Src/stm32h7xx_hal_spi_ex.c ****   * @param  UnderrunBehaviour : Behavior of slave transmitter at underrun condition
 160:./Libraries/STM32H7xx_HAL_Driver/Src/stm32h7xx_hal_spi_ex.c ****   *                             This parameter can be a value of @ref SPI_Underrun_Behaviour.
 161:./Libraries/STM32H7xx_HAL_Driver/Src/stm32h7xx_hal_spi_ex.c ****   * @retval None
 162:./Libraries/STM32H7xx_HAL_Driver/Src/stm32h7xx_hal_spi_ex.c ****   */
ARM GAS  /tmp/cczC9bBt.s 			page 9


 163:./Libraries/STM32H7xx_HAL_Driver/Src/stm32h7xx_hal_spi_ex.c **** HAL_StatusTypeDef HAL_SPIEx_ConfigureUnderrun(SPI_HandleTypeDef *hspi, uint32_t UnderrunDetection, 
 164:./Libraries/STM32H7xx_HAL_Driver/Src/stm32h7xx_hal_spi_ex.c **** {
 294              		.loc 1 164 1
 295              		.cfi_startproc
 296              		@ args = 0, pretend = 0, frame = 24
 297              		@ frame_needed = 1, uses_anonymous_args = 0
 298              		@ link register save eliminated.
 299 0000 80B4     		push	{r7}
 300              	.LCFI12:
 301              		.cfi_def_cfa_offset 4
 302              		.cfi_offset 7, -4
 303 0002 87B0     		sub	sp, sp, #28
 304              	.LCFI13:
 305              		.cfi_def_cfa_offset 32
 306 0004 00AF     		add	r7, sp, #0
 307              	.LCFI14:
 308              		.cfi_def_cfa_register 7
 309 0006 F860     		str	r0, [r7, #12]
 310 0008 B960     		str	r1, [r7, #8]
 311 000a 7A60     		str	r2, [r7, #4]
 165:./Libraries/STM32H7xx_HAL_Driver/Src/stm32h7xx_hal_spi_ex.c ****   HAL_StatusTypeDef errorcode = HAL_OK;
 312              		.loc 1 165 21
 313 000c 0023     		movs	r3, #0
 314 000e FB75     		strb	r3, [r7, #23]
 166:./Libraries/STM32H7xx_HAL_Driver/Src/stm32h7xx_hal_spi_ex.c **** 
 167:./Libraries/STM32H7xx_HAL_Driver/Src/stm32h7xx_hal_spi_ex.c ****   /* Process Locked */
 168:./Libraries/STM32H7xx_HAL_Driver/Src/stm32h7xx_hal_spi_ex.c ****   __HAL_LOCK(hspi);
 315              		.loc 1 168 3
 316 0010 FB68     		ldr	r3, [r7, #12]
 317 0012 93F88030 		ldrb	r3, [r3, #128]	@ zero_extendqisi2
 318 0016 012B     		cmp	r3, #1
 319 0018 01D1     		bne	.L17
 320              		.loc 1 168 3 is_stmt 0 discriminator 1
 321 001a 0223     		movs	r3, #2
 322 001c 62E0     		b	.L18
 323              	.L17:
 324              		.loc 1 168 3 discriminator 2
 325 001e FB68     		ldr	r3, [r7, #12]
 326 0020 0122     		movs	r2, #1
 327 0022 83F88020 		strb	r2, [r3, #128]
 169:./Libraries/STM32H7xx_HAL_Driver/Src/stm32h7xx_hal_spi_ex.c **** 
 170:./Libraries/STM32H7xx_HAL_Driver/Src/stm32h7xx_hal_spi_ex.c ****   /* Check State and Insure that Underrun configuration is managed only by Salve */
 171:./Libraries/STM32H7xx_HAL_Driver/Src/stm32h7xx_hal_spi_ex.c ****   if ((hspi->State != HAL_SPI_STATE_READY) || (hspi->Init.Mode != SPI_MODE_SLAVE))
 328              		.loc 1 171 12 is_stmt 1 discriminator 2
 329 0026 FB68     		ldr	r3, [r7, #12]
 330 0028 93F88130 		ldrb	r3, [r3, #129]
 331 002c DBB2     		uxtb	r3, r3
 332              		.loc 1 171 6 discriminator 2
 333 002e 012B     		cmp	r3, #1
 334 0030 03D1     		bne	.L19
 335              		.loc 1 171 58 discriminator 1
 336 0032 FB68     		ldr	r3, [r7, #12]
 337 0034 5B68     		ldr	r3, [r3, #4]
 338              		.loc 1 171 44 discriminator 1
 339 0036 002B     		cmp	r3, #0
 340 0038 0BD0     		beq	.L20
 341              	.L19:
ARM GAS  /tmp/cczC9bBt.s 			page 10


 172:./Libraries/STM32H7xx_HAL_Driver/Src/stm32h7xx_hal_spi_ex.c ****   {
 173:./Libraries/STM32H7xx_HAL_Driver/Src/stm32h7xx_hal_spi_ex.c ****     errorcode = HAL_BUSY;
 342              		.loc 1 173 15
 343 003a 0223     		movs	r3, #2
 344 003c FB75     		strb	r3, [r7, #23]
 174:./Libraries/STM32H7xx_HAL_Driver/Src/stm32h7xx_hal_spi_ex.c ****     hspi->State = HAL_SPI_STATE_READY;
 345              		.loc 1 174 17
 346 003e FB68     		ldr	r3, [r7, #12]
 347 0040 0122     		movs	r2, #1
 348 0042 83F88120 		strb	r2, [r3, #129]
 175:./Libraries/STM32H7xx_HAL_Driver/Src/stm32h7xx_hal_spi_ex.c ****     /* Process Unlocked */
 176:./Libraries/STM32H7xx_HAL_Driver/Src/stm32h7xx_hal_spi_ex.c ****     __HAL_UNLOCK(hspi);
 349              		.loc 1 176 5
 350 0046 FB68     		ldr	r3, [r7, #12]
 351 0048 0022     		movs	r2, #0
 352 004a 83F88020 		strb	r2, [r3, #128]
 177:./Libraries/STM32H7xx_HAL_Driver/Src/stm32h7xx_hal_spi_ex.c ****     return errorcode;
 353              		.loc 1 177 12
 354 004e FB7D     		ldrb	r3, [r7, #23]	@ zero_extendqisi2
 355 0050 48E0     		b	.L18
 356              	.L20:
 178:./Libraries/STM32H7xx_HAL_Driver/Src/stm32h7xx_hal_spi_ex.c ****   }
 179:./Libraries/STM32H7xx_HAL_Driver/Src/stm32h7xx_hal_spi_ex.c **** 
 180:./Libraries/STM32H7xx_HAL_Driver/Src/stm32h7xx_hal_spi_ex.c ****   /* Check the parameters */
 181:./Libraries/STM32H7xx_HAL_Driver/Src/stm32h7xx_hal_spi_ex.c ****   assert_param(IS_SPI_UNDERRUN_DETECTION(UnderrunDetection));
 182:./Libraries/STM32H7xx_HAL_Driver/Src/stm32h7xx_hal_spi_ex.c ****   assert_param(IS_SPI_UNDERRUN_BEHAVIOUR(UnderrunBehaviour));
 183:./Libraries/STM32H7xx_HAL_Driver/Src/stm32h7xx_hal_spi_ex.c **** 
 184:./Libraries/STM32H7xx_HAL_Driver/Src/stm32h7xx_hal_spi_ex.c ****   /* Check if the SPI is disabled to edit CFG1 register */
 185:./Libraries/STM32H7xx_HAL_Driver/Src/stm32h7xx_hal_spi_ex.c ****   if ((hspi->Instance->CR1 & SPI_CR1_SPE) != SPI_CR1_SPE)
 357              		.loc 1 185 12
 358 0052 FB68     		ldr	r3, [r7, #12]
 359 0054 1B68     		ldr	r3, [r3]
 360              		.loc 1 185 22
 361 0056 1B68     		ldr	r3, [r3]
 362              		.loc 1 185 28
 363 0058 03F00103 		and	r3, r3, #1
 364              		.loc 1 185 6
 365 005c 012B     		cmp	r3, #1
 366 005e 14D0     		beq	.L21
 186:./Libraries/STM32H7xx_HAL_Driver/Src/stm32h7xx_hal_spi_ex.c ****   {
 187:./Libraries/STM32H7xx_HAL_Driver/Src/stm32h7xx_hal_spi_ex.c ****     /* Configure Underrun fields */
 188:./Libraries/STM32H7xx_HAL_Driver/Src/stm32h7xx_hal_spi_ex.c ****     MODIFY_REG(hspi->Instance->CFG1, SPI_CFG1_UDRDET, UnderrunDetection);
 367              		.loc 1 188 5
 368 0060 FB68     		ldr	r3, [r7, #12]
 369 0062 1B68     		ldr	r3, [r3]
 370 0064 9B68     		ldr	r3, [r3, #8]
 371 0066 23F4C051 		bic	r1, r3, #6144
 372 006a FB68     		ldr	r3, [r7, #12]
 373 006c 1B68     		ldr	r3, [r3]
 374 006e BA68     		ldr	r2, [r7, #8]
 375 0070 0A43     		orrs	r2, r2, r1
 376 0072 9A60     		str	r2, [r3, #8]
 189:./Libraries/STM32H7xx_HAL_Driver/Src/stm32h7xx_hal_spi_ex.c ****     MODIFY_REG(hspi->Instance->CFG1, SPI_CFG1_UDRCFG, UnderrunBehaviour);
 377              		.loc 1 189 5
 378 0074 FB68     		ldr	r3, [r7, #12]
 379 0076 1B68     		ldr	r3, [r3]
 380 0078 9B68     		ldr	r3, [r3, #8]
ARM GAS  /tmp/cczC9bBt.s 			page 11


 381 007a 23F4C061 		bic	r1, r3, #1536
 382 007e FB68     		ldr	r3, [r7, #12]
 383 0080 1B68     		ldr	r3, [r3]
 384 0082 7A68     		ldr	r2, [r7, #4]
 385 0084 0A43     		orrs	r2, r2, r1
 386 0086 9A60     		str	r2, [r3, #8]
 387 0088 23E0     		b	.L22
 388              	.L21:
 190:./Libraries/STM32H7xx_HAL_Driver/Src/stm32h7xx_hal_spi_ex.c ****   }
 191:./Libraries/STM32H7xx_HAL_Driver/Src/stm32h7xx_hal_spi_ex.c ****   else
 192:./Libraries/STM32H7xx_HAL_Driver/Src/stm32h7xx_hal_spi_ex.c ****   {
 193:./Libraries/STM32H7xx_HAL_Driver/Src/stm32h7xx_hal_spi_ex.c ****     /* Disable SPI peripheral */
 194:./Libraries/STM32H7xx_HAL_Driver/Src/stm32h7xx_hal_spi_ex.c ****     __HAL_SPI_DISABLE(hspi);
 389              		.loc 1 194 5
 390 008a FB68     		ldr	r3, [r7, #12]
 391 008c 1B68     		ldr	r3, [r3]
 392 008e 1A68     		ldr	r2, [r3]
 393 0090 FB68     		ldr	r3, [r7, #12]
 394 0092 1B68     		ldr	r3, [r3]
 395 0094 22F00102 		bic	r2, r2, #1
 396 0098 1A60     		str	r2, [r3]
 195:./Libraries/STM32H7xx_HAL_Driver/Src/stm32h7xx_hal_spi_ex.c **** 
 196:./Libraries/STM32H7xx_HAL_Driver/Src/stm32h7xx_hal_spi_ex.c ****     /* Configure Underrun fields */
 197:./Libraries/STM32H7xx_HAL_Driver/Src/stm32h7xx_hal_spi_ex.c ****     MODIFY_REG(hspi->Instance->CFG1, SPI_CFG1_UDRDET, UnderrunDetection);
 397              		.loc 1 197 5
 398 009a FB68     		ldr	r3, [r7, #12]
 399 009c 1B68     		ldr	r3, [r3]
 400 009e 9B68     		ldr	r3, [r3, #8]
 401 00a0 23F4C051 		bic	r1, r3, #6144
 402 00a4 FB68     		ldr	r3, [r7, #12]
 403 00a6 1B68     		ldr	r3, [r3]
 404 00a8 BA68     		ldr	r2, [r7, #8]
 405 00aa 0A43     		orrs	r2, r2, r1
 406 00ac 9A60     		str	r2, [r3, #8]
 198:./Libraries/STM32H7xx_HAL_Driver/Src/stm32h7xx_hal_spi_ex.c ****     MODIFY_REG(hspi->Instance->CFG1, SPI_CFG1_UDRCFG, UnderrunBehaviour);
 407              		.loc 1 198 5
 408 00ae FB68     		ldr	r3, [r7, #12]
 409 00b0 1B68     		ldr	r3, [r3]
 410 00b2 9B68     		ldr	r3, [r3, #8]
 411 00b4 23F4C061 		bic	r1, r3, #1536
 412 00b8 FB68     		ldr	r3, [r7, #12]
 413 00ba 1B68     		ldr	r3, [r3]
 414 00bc 7A68     		ldr	r2, [r7, #4]
 415 00be 0A43     		orrs	r2, r2, r1
 416 00c0 9A60     		str	r2, [r3, #8]
 199:./Libraries/STM32H7xx_HAL_Driver/Src/stm32h7xx_hal_spi_ex.c **** 
 200:./Libraries/STM32H7xx_HAL_Driver/Src/stm32h7xx_hal_spi_ex.c ****     /* Enable SPI peripheral */
 201:./Libraries/STM32H7xx_HAL_Driver/Src/stm32h7xx_hal_spi_ex.c ****     __HAL_SPI_ENABLE(hspi);
 417              		.loc 1 201 5
 418 00c2 FB68     		ldr	r3, [r7, #12]
 419 00c4 1B68     		ldr	r3, [r3]
 420 00c6 1A68     		ldr	r2, [r3]
 421 00c8 FB68     		ldr	r3, [r7, #12]
 422 00ca 1B68     		ldr	r3, [r3]
 423 00cc 42F00102 		orr	r2, r2, #1
 424 00d0 1A60     		str	r2, [r3]
 425              	.L22:
ARM GAS  /tmp/cczC9bBt.s 			page 12


 202:./Libraries/STM32H7xx_HAL_Driver/Src/stm32h7xx_hal_spi_ex.c ****   }
 203:./Libraries/STM32H7xx_HAL_Driver/Src/stm32h7xx_hal_spi_ex.c **** 
 204:./Libraries/STM32H7xx_HAL_Driver/Src/stm32h7xx_hal_spi_ex.c **** 
 205:./Libraries/STM32H7xx_HAL_Driver/Src/stm32h7xx_hal_spi_ex.c ****   hspi->State = HAL_SPI_STATE_READY;
 426              		.loc 1 205 15
 427 00d2 FB68     		ldr	r3, [r7, #12]
 428 00d4 0122     		movs	r2, #1
 429 00d6 83F88120 		strb	r2, [r3, #129]
 206:./Libraries/STM32H7xx_HAL_Driver/Src/stm32h7xx_hal_spi_ex.c ****   /* Process Unlocked */
 207:./Libraries/STM32H7xx_HAL_Driver/Src/stm32h7xx_hal_spi_ex.c ****   __HAL_UNLOCK(hspi);
 430              		.loc 1 207 3
 431 00da FB68     		ldr	r3, [r7, #12]
 432 00dc 0022     		movs	r2, #0
 433 00de 83F88020 		strb	r2, [r3, #128]
 208:./Libraries/STM32H7xx_HAL_Driver/Src/stm32h7xx_hal_spi_ex.c ****   return errorcode;
 434              		.loc 1 208 10
 435 00e2 FB7D     		ldrb	r3, [r7, #23]	@ zero_extendqisi2
 436              	.L18:
 209:./Libraries/STM32H7xx_HAL_Driver/Src/stm32h7xx_hal_spi_ex.c **** }
 437              		.loc 1 209 1
 438 00e4 1846     		mov	r0, r3
 439 00e6 1C37     		adds	r7, r7, #28
 440              	.LCFI15:
 441              		.cfi_def_cfa_offset 4
 442 00e8 BD46     		mov	sp, r7
 443              	.LCFI16:
 444              		.cfi_def_cfa_register 13
 445              		@ sp needed
 446 00ea 5DF8047B 		ldr	r7, [sp], #4
 447              	.LCFI17:
 448              		.cfi_restore 7
 449              		.cfi_def_cfa_offset 0
 450 00ee 7047     		bx	lr
 451              		.cfi_endproc
 452              	.LFE333:
 454              		.text
 455              	.Letext0:
 456              		.file 2 "/usr/lib/gcc/arm-none-eabi/9.2.1/include/stdint.h"
 457              		.file 3 "./Libraries/CMSIS/Core/Include/core_cm7.h"
 458              		.file 4 "./Libraries/CMSIS/Device/ST/STM32H7xx/Include/system_stm32h7xx.h"
 459              		.file 5 "./Libraries/CMSIS/Device/ST/STM32H7xx/Include/stm32h747xx.h"
 460              		.file 6 "/usr/lib/gcc/arm-none-eabi/9.2.1/include/stddef.h"
 461              		.file 7 "/usr/include/newlib/sys/_types.h"
 462              		.file 8 "/usr/include/newlib/sys/reent.h"
 463              		.file 9 "/usr/include/newlib/sys/lock.h"
 464              		.file 10 "/usr/include/newlib/math.h"
 465              		.file 11 "./Libraries/STM32H7xx_HAL_Driver/Inc/stm32h7xx_hal_def.h"
 466              		.file 12 "./Libraries/STM32H7xx_HAL_Driver/Inc/stm32h7xx_hal_dma.h"
 467              		.file 13 "./Libraries/STM32H7xx_HAL_Driver/Inc/stm32h7xx_hal_flash.h"
 468              		.file 14 "./Libraries/STM32H7xx_HAL_Driver/Inc/stm32h7xx_hal_spi.h"
 469              		.file 15 "./Libraries/STM32H7xx_HAL_Driver/Inc/stm32h7xx_hal_uart.h"
 470              		.file 16 "./Libraries/STM32H7xx_HAL_Driver/Inc/stm32h7xx_hal.h"
ARM GAS  /tmp/cczC9bBt.s 			page 13

