ARM GAS  /tmp/ccED39yC.s 			page 1


   1              		.cpu cortex-m7
   2              		.eabi_attribute 28, 1
   3              		.eabi_attribute 20, 1
   4              		.eabi_attribute 21, 1
   5              		.eabi_attribute 23, 3
   6              		.eabi_attribute 24, 1
   7              		.eabi_attribute 25, 1
   8              		.eabi_attribute 26, 1
   9              		.eabi_attribute 30, 6
  10              		.eabi_attribute 34, 1
  11              		.eabi_attribute 18, 4
  12              		.file	"stm32h7xx_hal_crc_ex.c"
  13              		.text
  14              	.Ltext0:
  15              		.cfi_sections	.debug_frame
  16              		.section	.text.HAL_CRCEx_Polynomial_Set,"ax",%progbits
  17              		.align	1
  18              		.global	HAL_CRCEx_Polynomial_Set
  19              		.arch armv7e-m
  20              		.syntax unified
  21              		.thumb
  22              		.thumb_func
  23              		.fpu fpv5-d16
  25              	HAL_CRCEx_Polynomial_Set:
  26              	.LFB331:
  27              		.file 1 "./Libraries/STM32H7xx_HAL_Driver/Src/stm32h7xx_hal_crc_ex.c"
   1:./Libraries/STM32H7xx_HAL_Driver/Src/stm32h7xx_hal_crc_ex.c **** /**
   2:./Libraries/STM32H7xx_HAL_Driver/Src/stm32h7xx_hal_crc_ex.c ****   ******************************************************************************
   3:./Libraries/STM32H7xx_HAL_Driver/Src/stm32h7xx_hal_crc_ex.c ****   * @file    stm32h7xx_hal_crc_ex.c
   4:./Libraries/STM32H7xx_HAL_Driver/Src/stm32h7xx_hal_crc_ex.c ****   * @author  MCD Application Team
   5:./Libraries/STM32H7xx_HAL_Driver/Src/stm32h7xx_hal_crc_ex.c ****   * @brief   Extended CRC HAL module driver.
   6:./Libraries/STM32H7xx_HAL_Driver/Src/stm32h7xx_hal_crc_ex.c ****   *          This file provides firmware functions to manage the extended
   7:./Libraries/STM32H7xx_HAL_Driver/Src/stm32h7xx_hal_crc_ex.c ****   *          functionalities of the CRC peripheral.
   8:./Libraries/STM32H7xx_HAL_Driver/Src/stm32h7xx_hal_crc_ex.c ****   *
   9:./Libraries/STM32H7xx_HAL_Driver/Src/stm32h7xx_hal_crc_ex.c ****   @verbatim
  10:./Libraries/STM32H7xx_HAL_Driver/Src/stm32h7xx_hal_crc_ex.c **** ================================================================================
  11:./Libraries/STM32H7xx_HAL_Driver/Src/stm32h7xx_hal_crc_ex.c ****             ##### How to use this driver #####
  12:./Libraries/STM32H7xx_HAL_Driver/Src/stm32h7xx_hal_crc_ex.c **** ================================================================================
  13:./Libraries/STM32H7xx_HAL_Driver/Src/stm32h7xx_hal_crc_ex.c ****     [..]
  14:./Libraries/STM32H7xx_HAL_Driver/Src/stm32h7xx_hal_crc_ex.c ****          (+) Set user-defined generating polynomial through HAL_CRCEx_Polynomial_Set()
  15:./Libraries/STM32H7xx_HAL_Driver/Src/stm32h7xx_hal_crc_ex.c ****          (+) Configure Input or Output data inversion
  16:./Libraries/STM32H7xx_HAL_Driver/Src/stm32h7xx_hal_crc_ex.c **** 
  17:./Libraries/STM32H7xx_HAL_Driver/Src/stm32h7xx_hal_crc_ex.c ****   @endverbatim
  18:./Libraries/STM32H7xx_HAL_Driver/Src/stm32h7xx_hal_crc_ex.c ****   ******************************************************************************
  19:./Libraries/STM32H7xx_HAL_Driver/Src/stm32h7xx_hal_crc_ex.c ****   * @attention
  20:./Libraries/STM32H7xx_HAL_Driver/Src/stm32h7xx_hal_crc_ex.c ****   *
  21:./Libraries/STM32H7xx_HAL_Driver/Src/stm32h7xx_hal_crc_ex.c ****   * <h2><center>&copy; Copyright (c) 2017 STMicroelectronics.
  22:./Libraries/STM32H7xx_HAL_Driver/Src/stm32h7xx_hal_crc_ex.c ****   * All rights reserved.</center></h2>
  23:./Libraries/STM32H7xx_HAL_Driver/Src/stm32h7xx_hal_crc_ex.c ****   *
  24:./Libraries/STM32H7xx_HAL_Driver/Src/stm32h7xx_hal_crc_ex.c ****   * This software component is licensed by ST under BSD 3-Clause license,
  25:./Libraries/STM32H7xx_HAL_Driver/Src/stm32h7xx_hal_crc_ex.c ****   * the "License"; You may not use this file except in compliance with the
  26:./Libraries/STM32H7xx_HAL_Driver/Src/stm32h7xx_hal_crc_ex.c ****   * License. You may obtain a copy of the License at:
  27:./Libraries/STM32H7xx_HAL_Driver/Src/stm32h7xx_hal_crc_ex.c ****   *                        opensource.org/licenses/BSD-3-Clause
  28:./Libraries/STM32H7xx_HAL_Driver/Src/stm32h7xx_hal_crc_ex.c ****   *
  29:./Libraries/STM32H7xx_HAL_Driver/Src/stm32h7xx_hal_crc_ex.c ****   ******************************************************************************
  30:./Libraries/STM32H7xx_HAL_Driver/Src/stm32h7xx_hal_crc_ex.c ****   */
  31:./Libraries/STM32H7xx_HAL_Driver/Src/stm32h7xx_hal_crc_ex.c **** 
ARM GAS  /tmp/ccED39yC.s 			page 2


  32:./Libraries/STM32H7xx_HAL_Driver/Src/stm32h7xx_hal_crc_ex.c **** /* Includes ------------------------------------------------------------------*/
  33:./Libraries/STM32H7xx_HAL_Driver/Src/stm32h7xx_hal_crc_ex.c **** #include "stm32h7xx_hal.h"
  34:./Libraries/STM32H7xx_HAL_Driver/Src/stm32h7xx_hal_crc_ex.c **** 
  35:./Libraries/STM32H7xx_HAL_Driver/Src/stm32h7xx_hal_crc_ex.c **** /** @addtogroup STM32H7xx_HAL_Driver
  36:./Libraries/STM32H7xx_HAL_Driver/Src/stm32h7xx_hal_crc_ex.c ****   * @{
  37:./Libraries/STM32H7xx_HAL_Driver/Src/stm32h7xx_hal_crc_ex.c ****   */
  38:./Libraries/STM32H7xx_HAL_Driver/Src/stm32h7xx_hal_crc_ex.c **** 
  39:./Libraries/STM32H7xx_HAL_Driver/Src/stm32h7xx_hal_crc_ex.c **** /** @defgroup CRCEx CRCEx
  40:./Libraries/STM32H7xx_HAL_Driver/Src/stm32h7xx_hal_crc_ex.c ****   * @brief CRC Extended HAL module driver
  41:./Libraries/STM32H7xx_HAL_Driver/Src/stm32h7xx_hal_crc_ex.c ****   * @{
  42:./Libraries/STM32H7xx_HAL_Driver/Src/stm32h7xx_hal_crc_ex.c ****   */
  43:./Libraries/STM32H7xx_HAL_Driver/Src/stm32h7xx_hal_crc_ex.c **** 
  44:./Libraries/STM32H7xx_HAL_Driver/Src/stm32h7xx_hal_crc_ex.c **** #ifdef HAL_CRC_MODULE_ENABLED
  45:./Libraries/STM32H7xx_HAL_Driver/Src/stm32h7xx_hal_crc_ex.c **** 
  46:./Libraries/STM32H7xx_HAL_Driver/Src/stm32h7xx_hal_crc_ex.c **** /* Private typedef -----------------------------------------------------------*/
  47:./Libraries/STM32H7xx_HAL_Driver/Src/stm32h7xx_hal_crc_ex.c **** /* Private define ------------------------------------------------------------*/
  48:./Libraries/STM32H7xx_HAL_Driver/Src/stm32h7xx_hal_crc_ex.c **** /* Private macro -------------------------------------------------------------*/
  49:./Libraries/STM32H7xx_HAL_Driver/Src/stm32h7xx_hal_crc_ex.c **** /* Private variables ---------------------------------------------------------*/
  50:./Libraries/STM32H7xx_HAL_Driver/Src/stm32h7xx_hal_crc_ex.c **** /* Private function prototypes -----------------------------------------------*/
  51:./Libraries/STM32H7xx_HAL_Driver/Src/stm32h7xx_hal_crc_ex.c **** /* Exported functions --------------------------------------------------------*/
  52:./Libraries/STM32H7xx_HAL_Driver/Src/stm32h7xx_hal_crc_ex.c **** 
  53:./Libraries/STM32H7xx_HAL_Driver/Src/stm32h7xx_hal_crc_ex.c **** /** @defgroup CRCEx_Exported_Functions CRC Extended Exported Functions
  54:./Libraries/STM32H7xx_HAL_Driver/Src/stm32h7xx_hal_crc_ex.c ****   * @{
  55:./Libraries/STM32H7xx_HAL_Driver/Src/stm32h7xx_hal_crc_ex.c ****   */
  56:./Libraries/STM32H7xx_HAL_Driver/Src/stm32h7xx_hal_crc_ex.c **** 
  57:./Libraries/STM32H7xx_HAL_Driver/Src/stm32h7xx_hal_crc_ex.c **** /** @defgroup CRCEx_Exported_Functions_Group1 Extended Initialization/de-initialization functions
  58:./Libraries/STM32H7xx_HAL_Driver/Src/stm32h7xx_hal_crc_ex.c ****   * @brief    Extended Initialization and Configuration functions.
  59:./Libraries/STM32H7xx_HAL_Driver/Src/stm32h7xx_hal_crc_ex.c ****   *
  60:./Libraries/STM32H7xx_HAL_Driver/Src/stm32h7xx_hal_crc_ex.c **** @verbatim
  61:./Libraries/STM32H7xx_HAL_Driver/Src/stm32h7xx_hal_crc_ex.c ****  ===============================================================================
  62:./Libraries/STM32H7xx_HAL_Driver/Src/stm32h7xx_hal_crc_ex.c ****             ##### Extended configuration functions #####
  63:./Libraries/STM32H7xx_HAL_Driver/Src/stm32h7xx_hal_crc_ex.c ****  ===============================================================================
  64:./Libraries/STM32H7xx_HAL_Driver/Src/stm32h7xx_hal_crc_ex.c ****     [..]  This section provides functions allowing to:
  65:./Libraries/STM32H7xx_HAL_Driver/Src/stm32h7xx_hal_crc_ex.c ****       (+) Configure the generating polynomial
  66:./Libraries/STM32H7xx_HAL_Driver/Src/stm32h7xx_hal_crc_ex.c ****       (+) Configure the input data inversion
  67:./Libraries/STM32H7xx_HAL_Driver/Src/stm32h7xx_hal_crc_ex.c ****       (+) Configure the output data inversion
  68:./Libraries/STM32H7xx_HAL_Driver/Src/stm32h7xx_hal_crc_ex.c **** 
  69:./Libraries/STM32H7xx_HAL_Driver/Src/stm32h7xx_hal_crc_ex.c **** @endverbatim
  70:./Libraries/STM32H7xx_HAL_Driver/Src/stm32h7xx_hal_crc_ex.c ****   * @{
  71:./Libraries/STM32H7xx_HAL_Driver/Src/stm32h7xx_hal_crc_ex.c ****   */
  72:./Libraries/STM32H7xx_HAL_Driver/Src/stm32h7xx_hal_crc_ex.c **** 
  73:./Libraries/STM32H7xx_HAL_Driver/Src/stm32h7xx_hal_crc_ex.c **** 
  74:./Libraries/STM32H7xx_HAL_Driver/Src/stm32h7xx_hal_crc_ex.c **** /**
  75:./Libraries/STM32H7xx_HAL_Driver/Src/stm32h7xx_hal_crc_ex.c ****   * @brief  Initialize the CRC polynomial if different from default one.
  76:./Libraries/STM32H7xx_HAL_Driver/Src/stm32h7xx_hal_crc_ex.c ****   * @param  hcrc CRC handle
  77:./Libraries/STM32H7xx_HAL_Driver/Src/stm32h7xx_hal_crc_ex.c ****   * @param  Pol CRC generating polynomial (7, 8, 16 or 32-bit long).
  78:./Libraries/STM32H7xx_HAL_Driver/Src/stm32h7xx_hal_crc_ex.c ****   *         This parameter is written in normal representation, e.g.
  79:./Libraries/STM32H7xx_HAL_Driver/Src/stm32h7xx_hal_crc_ex.c ****   *         @arg for a polynomial of degree 7, X^7 + X^6 + X^5 + X^2 + 1 is written 0x65
  80:./Libraries/STM32H7xx_HAL_Driver/Src/stm32h7xx_hal_crc_ex.c ****   *         @arg for a polynomial of degree 16, X^16 + X^12 + X^5 + 1 is written 0x1021
  81:./Libraries/STM32H7xx_HAL_Driver/Src/stm32h7xx_hal_crc_ex.c ****   * @param  PolyLength CRC polynomial length.
  82:./Libraries/STM32H7xx_HAL_Driver/Src/stm32h7xx_hal_crc_ex.c ****   *         This parameter can be one of the following values:
  83:./Libraries/STM32H7xx_HAL_Driver/Src/stm32h7xx_hal_crc_ex.c ****   *          @arg @ref CRC_POLYLENGTH_7B  7-bit long CRC (generating polynomial of degree 7)
  84:./Libraries/STM32H7xx_HAL_Driver/Src/stm32h7xx_hal_crc_ex.c ****   *          @arg @ref CRC_POLYLENGTH_8B  8-bit long CRC (generating polynomial of degree 8)
  85:./Libraries/STM32H7xx_HAL_Driver/Src/stm32h7xx_hal_crc_ex.c ****   *          @arg @ref CRC_POLYLENGTH_16B 16-bit long CRC (generating polynomial of degree 16)
  86:./Libraries/STM32H7xx_HAL_Driver/Src/stm32h7xx_hal_crc_ex.c ****   *          @arg @ref CRC_POLYLENGTH_32B 32-bit long CRC (generating polynomial of degree 32)
  87:./Libraries/STM32H7xx_HAL_Driver/Src/stm32h7xx_hal_crc_ex.c ****   * @retval HAL status
  88:./Libraries/STM32H7xx_HAL_Driver/Src/stm32h7xx_hal_crc_ex.c ****   */
ARM GAS  /tmp/ccED39yC.s 			page 3


  89:./Libraries/STM32H7xx_HAL_Driver/Src/stm32h7xx_hal_crc_ex.c **** HAL_StatusTypeDef HAL_CRCEx_Polynomial_Set(CRC_HandleTypeDef *hcrc, uint32_t Pol, uint32_t PolyLeng
  90:./Libraries/STM32H7xx_HAL_Driver/Src/stm32h7xx_hal_crc_ex.c **** {
  28              		.loc 1 90 1
  29              		.cfi_startproc
  30              		@ args = 0, pretend = 0, frame = 24
  31              		@ frame_needed = 1, uses_anonymous_args = 0
  32              		@ link register save eliminated.
  33 0000 80B4     		push	{r7}
  34              	.LCFI0:
  35              		.cfi_def_cfa_offset 4
  36              		.cfi_offset 7, -4
  37 0002 87B0     		sub	sp, sp, #28
  38              	.LCFI1:
  39              		.cfi_def_cfa_offset 32
  40 0004 00AF     		add	r7, sp, #0
  41              	.LCFI2:
  42              		.cfi_def_cfa_register 7
  43 0006 F860     		str	r0, [r7, #12]
  44 0008 B960     		str	r1, [r7, #8]
  45 000a 7A60     		str	r2, [r7, #4]
  91:./Libraries/STM32H7xx_HAL_Driver/Src/stm32h7xx_hal_crc_ex.c ****   HAL_StatusTypeDef status = HAL_OK;
  46              		.loc 1 91 21
  47 000c 0023     		movs	r3, #0
  48 000e FB75     		strb	r3, [r7, #23]
  92:./Libraries/STM32H7xx_HAL_Driver/Src/stm32h7xx_hal_crc_ex.c ****   uint32_t msb = 31U; /* polynomial degree is 32 at most, so msb is initialized to max value */
  49              		.loc 1 92 12
  50 0010 1F23     		movs	r3, #31
  51 0012 3B61     		str	r3, [r7, #16]
  93:./Libraries/STM32H7xx_HAL_Driver/Src/stm32h7xx_hal_crc_ex.c **** 
  94:./Libraries/STM32H7xx_HAL_Driver/Src/stm32h7xx_hal_crc_ex.c ****   /* Check the parameters */
  95:./Libraries/STM32H7xx_HAL_Driver/Src/stm32h7xx_hal_crc_ex.c ****   assert_param(IS_CRC_POL_LENGTH(PolyLength));
  96:./Libraries/STM32H7xx_HAL_Driver/Src/stm32h7xx_hal_crc_ex.c **** 
  97:./Libraries/STM32H7xx_HAL_Driver/Src/stm32h7xx_hal_crc_ex.c ****   /* check polynomial definition vs polynomial size:
  98:./Libraries/STM32H7xx_HAL_Driver/Src/stm32h7xx_hal_crc_ex.c ****    * polynomial length must be aligned with polynomial
  99:./Libraries/STM32H7xx_HAL_Driver/Src/stm32h7xx_hal_crc_ex.c ****    * definition. HAL_ERROR is reported if Pol degree is
 100:./Libraries/STM32H7xx_HAL_Driver/Src/stm32h7xx_hal_crc_ex.c ****    * larger than that indicated by PolyLength.
 101:./Libraries/STM32H7xx_HAL_Driver/Src/stm32h7xx_hal_crc_ex.c ****    * Look for MSB position: msb will contain the degree of
 102:./Libraries/STM32H7xx_HAL_Driver/Src/stm32h7xx_hal_crc_ex.c ****    *  the second to the largest polynomial member. E.g., for
 103:./Libraries/STM32H7xx_HAL_Driver/Src/stm32h7xx_hal_crc_ex.c ****    *  X^7 + X^6 + X^5 + X^2 + 1, msb = 6. */
 104:./Libraries/STM32H7xx_HAL_Driver/Src/stm32h7xx_hal_crc_ex.c ****   while ((msb-- > 0U) && ((Pol & ((uint32_t)(0x1U) << (msb & 0x1FU))) == 0U))
  52              		.loc 1 104 9
  53 0014 00BF     		nop
  54              	.L3:
  55              		.loc 1 104 14 discriminator 2
  56 0016 3B69     		ldr	r3, [r7, #16]
  57 0018 5A1E     		subs	r2, r3, #1
  58 001a 3A61     		str	r2, [r7, #16]
  59              		.loc 1 104 9 discriminator 2
  60 001c 002B     		cmp	r3, #0
  61 001e 09D0     		beq	.L2
  62              		.loc 1 104 60 discriminator 1
  63 0020 3B69     		ldr	r3, [r7, #16]
  64 0022 03F01F03 		and	r3, r3, #31
  65              		.loc 1 104 71 discriminator 1
  66 0026 BA68     		ldr	r2, [r7, #8]
  67 0028 22FA03F3 		lsr	r3, r2, r3
  68 002c 03F00103 		and	r3, r3, #1
ARM GAS  /tmp/ccED39yC.s 			page 4


  69              		.loc 1 104 23 discriminator 1
  70 0030 002B     		cmp	r3, #0
  71 0032 F0D0     		beq	.L3
  72              	.L2:
  73 0034 7B68     		ldr	r3, [r7, #4]
  74 0036 182B     		cmp	r3, #24
  75 0038 46D8     		bhi	.L4
  76 003a 01A2     		adr	r2, .L6
  77 003c 52F823F0 		ldr	pc, [r2, r3, lsl #2]
  78              		.p2align 2
  79              	.L6:
  80 0040 CF000000 		.word	.L16+1
  81 0044 C9000000 		.word	.L4+1
  82 0048 C9000000 		.word	.L4+1
  83 004c C9000000 		.word	.L4+1
  84 0050 C9000000 		.word	.L4+1
  85 0054 C9000000 		.word	.L4+1
  86 0058 C9000000 		.word	.L4+1
  87 005c C9000000 		.word	.L4+1
  88 0060 BD000000 		.word	.L8+1
  89 0064 C9000000 		.word	.L4+1
  90 0068 C9000000 		.word	.L4+1
  91 006c C9000000 		.word	.L4+1
  92 0070 C9000000 		.word	.L4+1
  93 0074 C9000000 		.word	.L4+1
  94 0078 C9000000 		.word	.L4+1
  95 007c C9000000 		.word	.L4+1
  96 0080 B1000000 		.word	.L7+1
  97 0084 C9000000 		.word	.L4+1
  98 0088 C9000000 		.word	.L4+1
  99 008c C9000000 		.word	.L4+1
 100 0090 C9000000 		.word	.L4+1
 101 0094 C9000000 		.word	.L4+1
 102 0098 C9000000 		.word	.L4+1
 103 009c C9000000 		.word	.L4+1
 104 00a0 A5000000 		.word	.L5+1
 105              		.p2align 1
 106              	.L5:
 105:./Libraries/STM32H7xx_HAL_Driver/Src/stm32h7xx_hal_crc_ex.c ****   {
 106:./Libraries/STM32H7xx_HAL_Driver/Src/stm32h7xx_hal_crc_ex.c ****   }
 107:./Libraries/STM32H7xx_HAL_Driver/Src/stm32h7xx_hal_crc_ex.c **** 
 108:./Libraries/STM32H7xx_HAL_Driver/Src/stm32h7xx_hal_crc_ex.c ****   switch (PolyLength)
 109:./Libraries/STM32H7xx_HAL_Driver/Src/stm32h7xx_hal_crc_ex.c ****   {
 110:./Libraries/STM32H7xx_HAL_Driver/Src/stm32h7xx_hal_crc_ex.c ****     case CRC_POLYLENGTH_7B:
 111:./Libraries/STM32H7xx_HAL_Driver/Src/stm32h7xx_hal_crc_ex.c ****       if (msb >= HAL_CRC_LENGTH_7B)
 107              		.loc 1 111 10
 108 00a4 3B69     		ldr	r3, [r7, #16]
 109 00a6 062B     		cmp	r3, #6
 110 00a8 13D9     		bls	.L17
 112:./Libraries/STM32H7xx_HAL_Driver/Src/stm32h7xx_hal_crc_ex.c ****       {
 113:./Libraries/STM32H7xx_HAL_Driver/Src/stm32h7xx_hal_crc_ex.c ****         status =   HAL_ERROR;
 111              		.loc 1 113 16
 112 00aa 0123     		movs	r3, #1
 113 00ac FB75     		strb	r3, [r7, #23]
 114:./Libraries/STM32H7xx_HAL_Driver/Src/stm32h7xx_hal_crc_ex.c ****       }
 115:./Libraries/STM32H7xx_HAL_Driver/Src/stm32h7xx_hal_crc_ex.c ****       break;
 114              		.loc 1 115 7
ARM GAS  /tmp/ccED39yC.s 			page 5


 115 00ae 10E0     		b	.L17
 116              	.L7:
 116:./Libraries/STM32H7xx_HAL_Driver/Src/stm32h7xx_hal_crc_ex.c ****     case CRC_POLYLENGTH_8B:
 117:./Libraries/STM32H7xx_HAL_Driver/Src/stm32h7xx_hal_crc_ex.c ****       if (msb >= HAL_CRC_LENGTH_8B)
 117              		.loc 1 117 10
 118 00b0 3B69     		ldr	r3, [r7, #16]
 119 00b2 072B     		cmp	r3, #7
 120 00b4 0FD9     		bls	.L18
 118:./Libraries/STM32H7xx_HAL_Driver/Src/stm32h7xx_hal_crc_ex.c ****       {
 119:./Libraries/STM32H7xx_HAL_Driver/Src/stm32h7xx_hal_crc_ex.c ****         status =   HAL_ERROR;
 121              		.loc 1 119 16
 122 00b6 0123     		movs	r3, #1
 123 00b8 FB75     		strb	r3, [r7, #23]
 120:./Libraries/STM32H7xx_HAL_Driver/Src/stm32h7xx_hal_crc_ex.c ****       }
 121:./Libraries/STM32H7xx_HAL_Driver/Src/stm32h7xx_hal_crc_ex.c ****       break;
 124              		.loc 1 121 7
 125 00ba 0CE0     		b	.L18
 126              	.L8:
 122:./Libraries/STM32H7xx_HAL_Driver/Src/stm32h7xx_hal_crc_ex.c ****     case CRC_POLYLENGTH_16B:
 123:./Libraries/STM32H7xx_HAL_Driver/Src/stm32h7xx_hal_crc_ex.c ****       if (msb >= HAL_CRC_LENGTH_16B)
 127              		.loc 1 123 10
 128 00bc 3B69     		ldr	r3, [r7, #16]
 129 00be 0F2B     		cmp	r3, #15
 130 00c0 0BD9     		bls	.L19
 124:./Libraries/STM32H7xx_HAL_Driver/Src/stm32h7xx_hal_crc_ex.c ****       {
 125:./Libraries/STM32H7xx_HAL_Driver/Src/stm32h7xx_hal_crc_ex.c ****         status =   HAL_ERROR;
 131              		.loc 1 125 16
 132 00c2 0123     		movs	r3, #1
 133 00c4 FB75     		strb	r3, [r7, #23]
 126:./Libraries/STM32H7xx_HAL_Driver/Src/stm32h7xx_hal_crc_ex.c ****       }
 127:./Libraries/STM32H7xx_HAL_Driver/Src/stm32h7xx_hal_crc_ex.c ****       break;
 134              		.loc 1 127 7
 135 00c6 08E0     		b	.L19
 136              	.L4:
 128:./Libraries/STM32H7xx_HAL_Driver/Src/stm32h7xx_hal_crc_ex.c **** 
 129:./Libraries/STM32H7xx_HAL_Driver/Src/stm32h7xx_hal_crc_ex.c ****     case CRC_POLYLENGTH_32B:
 130:./Libraries/STM32H7xx_HAL_Driver/Src/stm32h7xx_hal_crc_ex.c ****       /* no polynomial definition vs. polynomial length issue possible */
 131:./Libraries/STM32H7xx_HAL_Driver/Src/stm32h7xx_hal_crc_ex.c ****       break;
 132:./Libraries/STM32H7xx_HAL_Driver/Src/stm32h7xx_hal_crc_ex.c ****     default:
 133:./Libraries/STM32H7xx_HAL_Driver/Src/stm32h7xx_hal_crc_ex.c ****       status =  HAL_ERROR;
 137              		.loc 1 133 14
 138 00c8 0123     		movs	r3, #1
 139 00ca FB75     		strb	r3, [r7, #23]
 134:./Libraries/STM32H7xx_HAL_Driver/Src/stm32h7xx_hal_crc_ex.c ****       break;
 140              		.loc 1 134 7
 141 00cc 06E0     		b	.L11
 142              	.L16:
 131:./Libraries/STM32H7xx_HAL_Driver/Src/stm32h7xx_hal_crc_ex.c ****     default:
 143              		.loc 1 131 7
 144 00ce 00BF     		nop
 145 00d0 04E0     		b	.L11
 146              	.L17:
 115:./Libraries/STM32H7xx_HAL_Driver/Src/stm32h7xx_hal_crc_ex.c ****     case CRC_POLYLENGTH_8B:
 147              		.loc 1 115 7
 148 00d2 00BF     		nop
 149 00d4 02E0     		b	.L11
 150              	.L18:
ARM GAS  /tmp/ccED39yC.s 			page 6


 121:./Libraries/STM32H7xx_HAL_Driver/Src/stm32h7xx_hal_crc_ex.c ****     case CRC_POLYLENGTH_16B:
 151              		.loc 1 121 7
 152 00d6 00BF     		nop
 153 00d8 00E0     		b	.L11
 154              	.L19:
 127:./Libraries/STM32H7xx_HAL_Driver/Src/stm32h7xx_hal_crc_ex.c **** 
 155              		.loc 1 127 7
 156 00da 00BF     		nop
 157              	.L11:
 135:./Libraries/STM32H7xx_HAL_Driver/Src/stm32h7xx_hal_crc_ex.c ****   }
 136:./Libraries/STM32H7xx_HAL_Driver/Src/stm32h7xx_hal_crc_ex.c ****   if (status == HAL_OK)
 158              		.loc 1 136 6
 159 00dc FB7D     		ldrb	r3, [r7, #23]	@ zero_extendqisi2
 160 00de 002B     		cmp	r3, #0
 161 00e0 0DD1     		bne	.L14
 137:./Libraries/STM32H7xx_HAL_Driver/Src/stm32h7xx_hal_crc_ex.c ****   {
 138:./Libraries/STM32H7xx_HAL_Driver/Src/stm32h7xx_hal_crc_ex.c ****     /* set generating polynomial */
 139:./Libraries/STM32H7xx_HAL_Driver/Src/stm32h7xx_hal_crc_ex.c ****     WRITE_REG(hcrc->Instance->POL, Pol);
 162              		.loc 1 139 5
 163 00e2 FB68     		ldr	r3, [r7, #12]
 164 00e4 1B68     		ldr	r3, [r3]
 165 00e6 BA68     		ldr	r2, [r7, #8]
 166 00e8 5A61     		str	r2, [r3, #20]
 140:./Libraries/STM32H7xx_HAL_Driver/Src/stm32h7xx_hal_crc_ex.c **** 
 141:./Libraries/STM32H7xx_HAL_Driver/Src/stm32h7xx_hal_crc_ex.c ****     /* set generating polynomial size */
 142:./Libraries/STM32H7xx_HAL_Driver/Src/stm32h7xx_hal_crc_ex.c ****     MODIFY_REG(hcrc->Instance->CR, CRC_CR_POLYSIZE, PolyLength);
 167              		.loc 1 142 5
 168 00ea FB68     		ldr	r3, [r7, #12]
 169 00ec 1B68     		ldr	r3, [r3]
 170 00ee 9B68     		ldr	r3, [r3, #8]
 171 00f0 23F01801 		bic	r1, r3, #24
 172 00f4 FB68     		ldr	r3, [r7, #12]
 173 00f6 1B68     		ldr	r3, [r3]
 174 00f8 7A68     		ldr	r2, [r7, #4]
 175 00fa 0A43     		orrs	r2, r2, r1
 176 00fc 9A60     		str	r2, [r3, #8]
 177              	.L14:
 143:./Libraries/STM32H7xx_HAL_Driver/Src/stm32h7xx_hal_crc_ex.c ****   }
 144:./Libraries/STM32H7xx_HAL_Driver/Src/stm32h7xx_hal_crc_ex.c ****   /* Return function status */
 145:./Libraries/STM32H7xx_HAL_Driver/Src/stm32h7xx_hal_crc_ex.c ****   return status;
 178              		.loc 1 145 10
 179 00fe FB7D     		ldrb	r3, [r7, #23]	@ zero_extendqisi2
 146:./Libraries/STM32H7xx_HAL_Driver/Src/stm32h7xx_hal_crc_ex.c **** }
 180              		.loc 1 146 1
 181 0100 1846     		mov	r0, r3
 182 0102 1C37     		adds	r7, r7, #28
 183              	.LCFI3:
 184              		.cfi_def_cfa_offset 4
 185 0104 BD46     		mov	sp, r7
 186              	.LCFI4:
 187              		.cfi_def_cfa_register 13
 188              		@ sp needed
 189 0106 5DF8047B 		ldr	r7, [sp], #4
 190              	.LCFI5:
 191              		.cfi_restore 7
 192              		.cfi_def_cfa_offset 0
 193 010a 7047     		bx	lr
ARM GAS  /tmp/ccED39yC.s 			page 7


 194              		.cfi_endproc
 195              	.LFE331:
 197              		.section	.text.HAL_CRCEx_Input_Data_Reverse,"ax",%progbits
 198              		.align	1
 199              		.global	HAL_CRCEx_Input_Data_Reverse
 200              		.syntax unified
 201              		.thumb
 202              		.thumb_func
 203              		.fpu fpv5-d16
 205              	HAL_CRCEx_Input_Data_Reverse:
 206              	.LFB332:
 147:./Libraries/STM32H7xx_HAL_Driver/Src/stm32h7xx_hal_crc_ex.c **** 
 148:./Libraries/STM32H7xx_HAL_Driver/Src/stm32h7xx_hal_crc_ex.c **** /**
 149:./Libraries/STM32H7xx_HAL_Driver/Src/stm32h7xx_hal_crc_ex.c ****   * @brief  Set the Reverse Input data mode.
 150:./Libraries/STM32H7xx_HAL_Driver/Src/stm32h7xx_hal_crc_ex.c ****   * @param  hcrc CRC handle
 151:./Libraries/STM32H7xx_HAL_Driver/Src/stm32h7xx_hal_crc_ex.c ****   * @param  InputReverseMode Input Data inversion mode.
 152:./Libraries/STM32H7xx_HAL_Driver/Src/stm32h7xx_hal_crc_ex.c ****   *         This parameter can be one of the following values:
 153:./Libraries/STM32H7xx_HAL_Driver/Src/stm32h7xx_hal_crc_ex.c ****   *          @arg @ref CRC_INPUTDATA_INVERSION_NONE     no change in bit order (default value)
 154:./Libraries/STM32H7xx_HAL_Driver/Src/stm32h7xx_hal_crc_ex.c ****   *          @arg @ref CRC_INPUTDATA_INVERSION_BYTE     Byte-wise bit reversal
 155:./Libraries/STM32H7xx_HAL_Driver/Src/stm32h7xx_hal_crc_ex.c ****   *          @arg @ref CRC_INPUTDATA_INVERSION_HALFWORD HalfWord-wise bit reversal
 156:./Libraries/STM32H7xx_HAL_Driver/Src/stm32h7xx_hal_crc_ex.c ****   *          @arg @ref CRC_INPUTDATA_INVERSION_WORD     Word-wise bit reversal
 157:./Libraries/STM32H7xx_HAL_Driver/Src/stm32h7xx_hal_crc_ex.c ****   * @retval HAL status
 158:./Libraries/STM32H7xx_HAL_Driver/Src/stm32h7xx_hal_crc_ex.c ****   */
 159:./Libraries/STM32H7xx_HAL_Driver/Src/stm32h7xx_hal_crc_ex.c **** HAL_StatusTypeDef HAL_CRCEx_Input_Data_Reverse(CRC_HandleTypeDef *hcrc, uint32_t InputReverseMode)
 160:./Libraries/STM32H7xx_HAL_Driver/Src/stm32h7xx_hal_crc_ex.c **** {
 207              		.loc 1 160 1
 208              		.cfi_startproc
 209              		@ args = 0, pretend = 0, frame = 8
 210              		@ frame_needed = 1, uses_anonymous_args = 0
 211              		@ link register save eliminated.
 212 0000 80B4     		push	{r7}
 213              	.LCFI6:
 214              		.cfi_def_cfa_offset 4
 215              		.cfi_offset 7, -4
 216 0002 83B0     		sub	sp, sp, #12
 217              	.LCFI7:
 218              		.cfi_def_cfa_offset 16
 219 0004 00AF     		add	r7, sp, #0
 220              	.LCFI8:
 221              		.cfi_def_cfa_register 7
 222 0006 7860     		str	r0, [r7, #4]
 223 0008 3960     		str	r1, [r7]
 161:./Libraries/STM32H7xx_HAL_Driver/Src/stm32h7xx_hal_crc_ex.c ****   /* Check the parameters */
 162:./Libraries/STM32H7xx_HAL_Driver/Src/stm32h7xx_hal_crc_ex.c ****   assert_param(IS_CRC_INPUTDATA_INVERSION_MODE(InputReverseMode));
 163:./Libraries/STM32H7xx_HAL_Driver/Src/stm32h7xx_hal_crc_ex.c **** 
 164:./Libraries/STM32H7xx_HAL_Driver/Src/stm32h7xx_hal_crc_ex.c ****   /* Change CRC peripheral state */
 165:./Libraries/STM32H7xx_HAL_Driver/Src/stm32h7xx_hal_crc_ex.c ****   hcrc->State = HAL_CRC_STATE_BUSY;
 224              		.loc 1 165 15
 225 000a 7B68     		ldr	r3, [r7, #4]
 226 000c 0222     		movs	r2, #2
 227 000e 5A77     		strb	r2, [r3, #29]
 166:./Libraries/STM32H7xx_HAL_Driver/Src/stm32h7xx_hal_crc_ex.c **** 
 167:./Libraries/STM32H7xx_HAL_Driver/Src/stm32h7xx_hal_crc_ex.c ****   /* set input data inversion mode */
 168:./Libraries/STM32H7xx_HAL_Driver/Src/stm32h7xx_hal_crc_ex.c ****   MODIFY_REG(hcrc->Instance->CR, CRC_CR_REV_IN, InputReverseMode);
 228              		.loc 1 168 3
 229 0010 7B68     		ldr	r3, [r7, #4]
 230 0012 1B68     		ldr	r3, [r3]
ARM GAS  /tmp/ccED39yC.s 			page 8


 231 0014 9B68     		ldr	r3, [r3, #8]
 232 0016 23F06001 		bic	r1, r3, #96
 233 001a 7B68     		ldr	r3, [r7, #4]
 234 001c 1B68     		ldr	r3, [r3]
 235 001e 3A68     		ldr	r2, [r7]
 236 0020 0A43     		orrs	r2, r2, r1
 237 0022 9A60     		str	r2, [r3, #8]
 169:./Libraries/STM32H7xx_HAL_Driver/Src/stm32h7xx_hal_crc_ex.c ****   /* Change CRC peripheral state */
 170:./Libraries/STM32H7xx_HAL_Driver/Src/stm32h7xx_hal_crc_ex.c ****   hcrc->State = HAL_CRC_STATE_READY;
 238              		.loc 1 170 15
 239 0024 7B68     		ldr	r3, [r7, #4]
 240 0026 0122     		movs	r2, #1
 241 0028 5A77     		strb	r2, [r3, #29]
 171:./Libraries/STM32H7xx_HAL_Driver/Src/stm32h7xx_hal_crc_ex.c **** 
 172:./Libraries/STM32H7xx_HAL_Driver/Src/stm32h7xx_hal_crc_ex.c ****   /* Return function status */
 173:./Libraries/STM32H7xx_HAL_Driver/Src/stm32h7xx_hal_crc_ex.c ****   return HAL_OK;
 242              		.loc 1 173 10
 243 002a 0023     		movs	r3, #0
 174:./Libraries/STM32H7xx_HAL_Driver/Src/stm32h7xx_hal_crc_ex.c **** }
 244              		.loc 1 174 1
 245 002c 1846     		mov	r0, r3
 246 002e 0C37     		adds	r7, r7, #12
 247              	.LCFI9:
 248              		.cfi_def_cfa_offset 4
 249 0030 BD46     		mov	sp, r7
 250              	.LCFI10:
 251              		.cfi_def_cfa_register 13
 252              		@ sp needed
 253 0032 5DF8047B 		ldr	r7, [sp], #4
 254              	.LCFI11:
 255              		.cfi_restore 7
 256              		.cfi_def_cfa_offset 0
 257 0036 7047     		bx	lr
 258              		.cfi_endproc
 259              	.LFE332:
 261              		.section	.text.HAL_CRCEx_Output_Data_Reverse,"ax",%progbits
 262              		.align	1
 263              		.global	HAL_CRCEx_Output_Data_Reverse
 264              		.syntax unified
 265              		.thumb
 266              		.thumb_func
 267              		.fpu fpv5-d16
 269              	HAL_CRCEx_Output_Data_Reverse:
 270              	.LFB333:
 175:./Libraries/STM32H7xx_HAL_Driver/Src/stm32h7xx_hal_crc_ex.c **** 
 176:./Libraries/STM32H7xx_HAL_Driver/Src/stm32h7xx_hal_crc_ex.c **** /**
 177:./Libraries/STM32H7xx_HAL_Driver/Src/stm32h7xx_hal_crc_ex.c ****   * @brief  Set the Reverse Output data mode.
 178:./Libraries/STM32H7xx_HAL_Driver/Src/stm32h7xx_hal_crc_ex.c ****   * @param  hcrc CRC handle
 179:./Libraries/STM32H7xx_HAL_Driver/Src/stm32h7xx_hal_crc_ex.c ****   * @param  OutputReverseMode Output Data inversion mode.
 180:./Libraries/STM32H7xx_HAL_Driver/Src/stm32h7xx_hal_crc_ex.c ****   *         This parameter can be one of the following values:
 181:./Libraries/STM32H7xx_HAL_Driver/Src/stm32h7xx_hal_crc_ex.c ****   *          @arg @ref CRC_OUTPUTDATA_INVERSION_DISABLE no CRC inversion (default value)
 182:./Libraries/STM32H7xx_HAL_Driver/Src/stm32h7xx_hal_crc_ex.c ****   *          @arg @ref CRC_OUTPUTDATA_INVERSION_ENABLE  bit-level inversion (e.g. for a 8-bit CRC: 
 183:./Libraries/STM32H7xx_HAL_Driver/Src/stm32h7xx_hal_crc_ex.c ****   * @retval HAL status
 184:./Libraries/STM32H7xx_HAL_Driver/Src/stm32h7xx_hal_crc_ex.c ****   */
 185:./Libraries/STM32H7xx_HAL_Driver/Src/stm32h7xx_hal_crc_ex.c **** HAL_StatusTypeDef HAL_CRCEx_Output_Data_Reverse(CRC_HandleTypeDef *hcrc, uint32_t OutputReverseMode
 186:./Libraries/STM32H7xx_HAL_Driver/Src/stm32h7xx_hal_crc_ex.c **** {
 271              		.loc 1 186 1
ARM GAS  /tmp/ccED39yC.s 			page 9


 272              		.cfi_startproc
 273              		@ args = 0, pretend = 0, frame = 8
 274              		@ frame_needed = 1, uses_anonymous_args = 0
 275              		@ link register save eliminated.
 276 0000 80B4     		push	{r7}
 277              	.LCFI12:
 278              		.cfi_def_cfa_offset 4
 279              		.cfi_offset 7, -4
 280 0002 83B0     		sub	sp, sp, #12
 281              	.LCFI13:
 282              		.cfi_def_cfa_offset 16
 283 0004 00AF     		add	r7, sp, #0
 284              	.LCFI14:
 285              		.cfi_def_cfa_register 7
 286 0006 7860     		str	r0, [r7, #4]
 287 0008 3960     		str	r1, [r7]
 187:./Libraries/STM32H7xx_HAL_Driver/Src/stm32h7xx_hal_crc_ex.c ****   /* Check the parameters */
 188:./Libraries/STM32H7xx_HAL_Driver/Src/stm32h7xx_hal_crc_ex.c ****   assert_param(IS_CRC_OUTPUTDATA_INVERSION_MODE(OutputReverseMode));
 189:./Libraries/STM32H7xx_HAL_Driver/Src/stm32h7xx_hal_crc_ex.c **** 
 190:./Libraries/STM32H7xx_HAL_Driver/Src/stm32h7xx_hal_crc_ex.c ****   /* Change CRC peripheral state */
 191:./Libraries/STM32H7xx_HAL_Driver/Src/stm32h7xx_hal_crc_ex.c ****   hcrc->State = HAL_CRC_STATE_BUSY;
 288              		.loc 1 191 15
 289 000a 7B68     		ldr	r3, [r7, #4]
 290 000c 0222     		movs	r2, #2
 291 000e 5A77     		strb	r2, [r3, #29]
 192:./Libraries/STM32H7xx_HAL_Driver/Src/stm32h7xx_hal_crc_ex.c **** 
 193:./Libraries/STM32H7xx_HAL_Driver/Src/stm32h7xx_hal_crc_ex.c ****   /* set output data inversion mode */
 194:./Libraries/STM32H7xx_HAL_Driver/Src/stm32h7xx_hal_crc_ex.c ****   MODIFY_REG(hcrc->Instance->CR, CRC_CR_REV_OUT, OutputReverseMode);
 292              		.loc 1 194 3
 293 0010 7B68     		ldr	r3, [r7, #4]
 294 0012 1B68     		ldr	r3, [r3]
 295 0014 9B68     		ldr	r3, [r3, #8]
 296 0016 23F08001 		bic	r1, r3, #128
 297 001a 7B68     		ldr	r3, [r7, #4]
 298 001c 1B68     		ldr	r3, [r3]
 299 001e 3A68     		ldr	r2, [r7]
 300 0020 0A43     		orrs	r2, r2, r1
 301 0022 9A60     		str	r2, [r3, #8]
 195:./Libraries/STM32H7xx_HAL_Driver/Src/stm32h7xx_hal_crc_ex.c **** 
 196:./Libraries/STM32H7xx_HAL_Driver/Src/stm32h7xx_hal_crc_ex.c ****   /* Change CRC peripheral state */
 197:./Libraries/STM32H7xx_HAL_Driver/Src/stm32h7xx_hal_crc_ex.c ****   hcrc->State = HAL_CRC_STATE_READY;
 302              		.loc 1 197 15
 303 0024 7B68     		ldr	r3, [r7, #4]
 304 0026 0122     		movs	r2, #1
 305 0028 5A77     		strb	r2, [r3, #29]
 198:./Libraries/STM32H7xx_HAL_Driver/Src/stm32h7xx_hal_crc_ex.c **** 
 199:./Libraries/STM32H7xx_HAL_Driver/Src/stm32h7xx_hal_crc_ex.c ****   /* Return function status */
 200:./Libraries/STM32H7xx_HAL_Driver/Src/stm32h7xx_hal_crc_ex.c ****   return HAL_OK;
 306              		.loc 1 200 10
 307 002a 0023     		movs	r3, #0
 201:./Libraries/STM32H7xx_HAL_Driver/Src/stm32h7xx_hal_crc_ex.c **** }
 308              		.loc 1 201 1
 309 002c 1846     		mov	r0, r3
 310 002e 0C37     		adds	r7, r7, #12
 311              	.LCFI15:
 312              		.cfi_def_cfa_offset 4
 313 0030 BD46     		mov	sp, r7
ARM GAS  /tmp/ccED39yC.s 			page 10


 314              	.LCFI16:
 315              		.cfi_def_cfa_register 13
 316              		@ sp needed
 317 0032 5DF8047B 		ldr	r7, [sp], #4
 318              	.LCFI17:
 319              		.cfi_restore 7
 320              		.cfi_def_cfa_offset 0
 321 0036 7047     		bx	lr
 322              		.cfi_endproc
 323              	.LFE333:
 325              		.text
 326              	.Letext0:
 327              		.file 2 "/usr/lib/gcc/arm-none-eabi/9.2.1/include/stdint.h"
 328              		.file 3 "./Libraries/CMSIS/Core/Include/core_cm7.h"
 329              		.file 4 "./Libraries/CMSIS/Device/ST/STM32H7xx/Include/system_stm32h7xx.h"
 330              		.file 5 "./Libraries/CMSIS/Device/ST/STM32H7xx/Include/stm32h747xx.h"
 331              		.file 6 "/usr/lib/gcc/arm-none-eabi/9.2.1/include/stddef.h"
 332              		.file 7 "/usr/include/newlib/sys/_types.h"
 333              		.file 8 "/usr/include/newlib/sys/reent.h"
 334              		.file 9 "/usr/include/newlib/sys/lock.h"
 335              		.file 10 "/usr/include/newlib/math.h"
 336              		.file 11 "./Libraries/STM32H7xx_HAL_Driver/Inc/stm32h7xx_hal_def.h"
 337              		.file 12 "./Libraries/STM32H7xx_HAL_Driver/Inc/stm32h7xx_hal_crc.h"
 338              		.file 13 "./Libraries/STM32H7xx_HAL_Driver/Inc/stm32h7xx_hal_flash.h"
 339              		.file 14 "./Libraries/STM32H7xx_HAL_Driver/Inc/stm32h7xx_hal_uart.h"
 340              		.file 15 "./Libraries/STM32H7xx_HAL_Driver/Inc/stm32h7xx_hal.h"
ARM GAS  /tmp/ccED39yC.s 			page 11


DEFINED SYMBOLS
                            *ABS*:0000000000000000 stm32h7xx_hal_crc_ex.c
     /tmp/ccED39yC.s:17     .text.HAL_CRCEx_Polynomial_Set:0000000000000000 $t
     /tmp/ccED39yC.s:25     .text.HAL_CRCEx_Polynomial_Set:0000000000000000 HAL_CRCEx_Polynomial_Set
     /tmp/ccED39yC.s:80     .text.HAL_CRCEx_Polynomial_Set:0000000000000040 $d
     /tmp/ccED39yC.s:105    .text.HAL_CRCEx_Polynomial_Set:00000000000000a4 $t
     /tmp/ccED39yC.s:198    .text.HAL_CRCEx_Input_Data_Reverse:0000000000000000 $t
     /tmp/ccED39yC.s:205    .text.HAL_CRCEx_Input_Data_Reverse:0000000000000000 HAL_CRCEx_Input_Data_Reverse
     /tmp/ccED39yC.s:262    .text.HAL_CRCEx_Output_Data_Reverse:0000000000000000 $t
     /tmp/ccED39yC.s:269    .text.HAL_CRCEx_Output_Data_Reverse:0000000000000000 HAL_CRCEx_Output_Data_Reverse

NO UNDEFINED SYMBOLS
