ARM GAS  /tmp/cceNacQR.s 			page 1


   1              		.cpu cortex-m7
   2              		.eabi_attribute 28, 1
   3              		.eabi_attribute 20, 1
   4              		.eabi_attribute 21, 1
   5              		.eabi_attribute 23, 3
   6              		.eabi_attribute 24, 1
   7              		.eabi_attribute 25, 1
   8              		.eabi_attribute 26, 1
   9              		.eabi_attribute 30, 2
  10              		.eabi_attribute 34, 1
  11              		.eabi_attribute 18, 4
  12              		.file	"stm32h7xx_hal_exti.c"
  13              		.text
  14              	.Ltext0:
  15              		.cfi_sections	.debug_frame
  16              		.section	.text.HAL_EXTI_SetConfigLine,"ax",%progbits
  17              		.align	1
  18              		.p2align 2,,3
  19              		.global	HAL_EXTI_SetConfigLine
  20              		.arch armv7e-m
  21              		.syntax unified
  22              		.thumb
  23              		.thumb_func
  24              		.fpu fpv5-d16
  26              	HAL_EXTI_SetConfigLine:
  27              	.LVL0:
  28              	.LFB331:
  29              		.file 1 "./Libraries/STM32H7xx_HAL_Driver/Src/stm32h7xx_hal_exti.c"
   1:./Libraries/STM32H7xx_HAL_Driver/Src/stm32h7xx_hal_exti.c **** /**
   2:./Libraries/STM32H7xx_HAL_Driver/Src/stm32h7xx_hal_exti.c ****   ******************************************************************************
   3:./Libraries/STM32H7xx_HAL_Driver/Src/stm32h7xx_hal_exti.c ****   * @file    stm32h7xx_hal_exti.c
   4:./Libraries/STM32H7xx_HAL_Driver/Src/stm32h7xx_hal_exti.c ****   * @author  MCD Application Team
   5:./Libraries/STM32H7xx_HAL_Driver/Src/stm32h7xx_hal_exti.c ****   * @brief   EXTI HAL module driver.
   6:./Libraries/STM32H7xx_HAL_Driver/Src/stm32h7xx_hal_exti.c ****   *          This file provides firmware functions to manage the following
   7:./Libraries/STM32H7xx_HAL_Driver/Src/stm32h7xx_hal_exti.c ****   *          functionalities of the General Purpose Input/Output (EXTI) peripheral:
   8:./Libraries/STM32H7xx_HAL_Driver/Src/stm32h7xx_hal_exti.c ****   *           + Initialization and de-initialization functions
   9:./Libraries/STM32H7xx_HAL_Driver/Src/stm32h7xx_hal_exti.c ****   *           + IO operation functions
  10:./Libraries/STM32H7xx_HAL_Driver/Src/stm32h7xx_hal_exti.c ****   *
  11:./Libraries/STM32H7xx_HAL_Driver/Src/stm32h7xx_hal_exti.c ****   @verbatim
  12:./Libraries/STM32H7xx_HAL_Driver/Src/stm32h7xx_hal_exti.c ****   ==============================================================================
  13:./Libraries/STM32H7xx_HAL_Driver/Src/stm32h7xx_hal_exti.c ****                     ##### EXTI Peripheral features #####
  14:./Libraries/STM32H7xx_HAL_Driver/Src/stm32h7xx_hal_exti.c ****   ==============================================================================
  15:./Libraries/STM32H7xx_HAL_Driver/Src/stm32h7xx_hal_exti.c ****   [..]
  16:./Libraries/STM32H7xx_HAL_Driver/Src/stm32h7xx_hal_exti.c ****     (+) Each Exti line can be configured within this driver.
  17:./Libraries/STM32H7xx_HAL_Driver/Src/stm32h7xx_hal_exti.c **** 
  18:./Libraries/STM32H7xx_HAL_Driver/Src/stm32h7xx_hal_exti.c ****     (+) Exti line can be configured in 3 different modes
  19:./Libraries/STM32H7xx_HAL_Driver/Src/stm32h7xx_hal_exti.c ****         (++) Interrupt (CORE1 or CORE2 in case of dual core line )
  20:./Libraries/STM32H7xx_HAL_Driver/Src/stm32h7xx_hal_exti.c ****         (++) Event (CORE1 or CORE2 in case of dual core line )
  21:./Libraries/STM32H7xx_HAL_Driver/Src/stm32h7xx_hal_exti.c ****         (++) a combination of the previous
  22:./Libraries/STM32H7xx_HAL_Driver/Src/stm32h7xx_hal_exti.c **** 
  23:./Libraries/STM32H7xx_HAL_Driver/Src/stm32h7xx_hal_exti.c ****     (+) Configurable Exti lines can be configured with 3 different triggers
  24:./Libraries/STM32H7xx_HAL_Driver/Src/stm32h7xx_hal_exti.c ****         (++) Rising
  25:./Libraries/STM32H7xx_HAL_Driver/Src/stm32h7xx_hal_exti.c ****         (++) Falling
  26:./Libraries/STM32H7xx_HAL_Driver/Src/stm32h7xx_hal_exti.c ****         (++) Both of them
  27:./Libraries/STM32H7xx_HAL_Driver/Src/stm32h7xx_hal_exti.c **** 
  28:./Libraries/STM32H7xx_HAL_Driver/Src/stm32h7xx_hal_exti.c ****     (+) When set in interrupt mode, configurable Exti lines have two diffenrents
  29:./Libraries/STM32H7xx_HAL_Driver/Src/stm32h7xx_hal_exti.c ****         interrupt pending registers which allow to distinguish which transition
ARM GAS  /tmp/cceNacQR.s 			page 2


  30:./Libraries/STM32H7xx_HAL_Driver/Src/stm32h7xx_hal_exti.c ****         occurs:
  31:./Libraries/STM32H7xx_HAL_Driver/Src/stm32h7xx_hal_exti.c ****         (++) Rising edge pending interrupt
  32:./Libraries/STM32H7xx_HAL_Driver/Src/stm32h7xx_hal_exti.c ****         (++) Falling
  33:./Libraries/STM32H7xx_HAL_Driver/Src/stm32h7xx_hal_exti.c **** 
  34:./Libraries/STM32H7xx_HAL_Driver/Src/stm32h7xx_hal_exti.c ****     (+) Exti lines 0 to 15 are linked to gpio pin number 0 to 15. Gpio port can
  35:./Libraries/STM32H7xx_HAL_Driver/Src/stm32h7xx_hal_exti.c ****         be selected through multiplexer.
  36:./Libraries/STM32H7xx_HAL_Driver/Src/stm32h7xx_hal_exti.c **** 
  37:./Libraries/STM32H7xx_HAL_Driver/Src/stm32h7xx_hal_exti.c ****     (+) PendClearSource used to set the D3 Smart Run Domain autoamtic pend clear source.
  38:./Libraries/STM32H7xx_HAL_Driver/Src/stm32h7xx_hal_exti.c ****         It is applicable for line with wkaeup target is Any (CPU1 , CPU2 and D3 smart run domain).
  39:./Libraries/STM32H7xx_HAL_Driver/Src/stm32h7xx_hal_exti.c ****         Value can be one of the following:
  40:./Libraries/STM32H7xx_HAL_Driver/Src/stm32h7xx_hal_exti.c ****         (++)  EXTI_D3_PENDCLR_SRC_NONE : no pend clear source is selected :
  41:./Libraries/STM32H7xx_HAL_Driver/Src/stm32h7xx_hal_exti.c ****               In this case corresponding bit of D2PMRx register is set to 0
  42:./Libraries/STM32H7xx_HAL_Driver/Src/stm32h7xx_hal_exti.c ****                 (+++) On a configurable Line : the D3 domain wakeup signal is
  43:./Libraries/STM32H7xx_HAL_Driver/Src/stm32h7xx_hal_exti.c ****                       automatically cleared after after the Delay + Rising Edge detect
  44:./Libraries/STM32H7xx_HAL_Driver/Src/stm32h7xx_hal_exti.c ****                 (+++) On a direct Line : the D3 domain wakeup signal is
  45:./Libraries/STM32H7xx_HAL_Driver/Src/stm32h7xx_hal_exti.c ****                       cleared after the direct event input signal is cleared
  46:./Libraries/STM32H7xx_HAL_Driver/Src/stm32h7xx_hal_exti.c **** 
  47:./Libraries/STM32H7xx_HAL_Driver/Src/stm32h7xx_hal_exti.c ****         (++)  EXTI_D3_PENDCLR_SRC_DMACH6 : no pend clear source is selected :
  48:./Libraries/STM32H7xx_HAL_Driver/Src/stm32h7xx_hal_exti.c ****               In this case corresponding bit of D2PMRx register is set to 1
  49:./Libraries/STM32H7xx_HAL_Driver/Src/stm32h7xx_hal_exti.c ****               and corresponding bits(2) of D3PCRxL/H is set to b00 :
  50:./Libraries/STM32H7xx_HAL_Driver/Src/stm32h7xx_hal_exti.c ****                 DMA ch6 event selected as D3 domain pendclear source
  51:./Libraries/STM32H7xx_HAL_Driver/Src/stm32h7xx_hal_exti.c **** 
  52:./Libraries/STM32H7xx_HAL_Driver/Src/stm32h7xx_hal_exti.c ****         (++)  EXTI_D3_PENDCLR_SRC_DMACH7 : no pend clear source is selected :
  53:./Libraries/STM32H7xx_HAL_Driver/Src/stm32h7xx_hal_exti.c ****               In this case corresponding bit of D2PMRx register is set to 1
  54:./Libraries/STM32H7xx_HAL_Driver/Src/stm32h7xx_hal_exti.c ****               and corresponding bits(2) of D3PCRxL/H is set to b01 :
  55:./Libraries/STM32H7xx_HAL_Driver/Src/stm32h7xx_hal_exti.c ****                 DMA ch7 event selected as D3 domain pendclear source
  56:./Libraries/STM32H7xx_HAL_Driver/Src/stm32h7xx_hal_exti.c **** 
  57:./Libraries/STM32H7xx_HAL_Driver/Src/stm32h7xx_hal_exti.c ****         (++)  EXTI_D3_PENDCLR_SRC_LPTIM4 : no pend clear source is selected :
  58:./Libraries/STM32H7xx_HAL_Driver/Src/stm32h7xx_hal_exti.c ****               In this case corresponding bit of D2PMRx register is set to 1
  59:./Libraries/STM32H7xx_HAL_Driver/Src/stm32h7xx_hal_exti.c ****               and corresponding bits(2) of D3PCRxL/H is set to b10 :
  60:./Libraries/STM32H7xx_HAL_Driver/Src/stm32h7xx_hal_exti.c ****                 LPTIM4 out selected as D3 domain pendclear source
  61:./Libraries/STM32H7xx_HAL_Driver/Src/stm32h7xx_hal_exti.c **** 
  62:./Libraries/STM32H7xx_HAL_Driver/Src/stm32h7xx_hal_exti.c ****         (++)  EXTI_D3_PENDCLR_SRC_LPTIM5 : no pend clear source is selected :
  63:./Libraries/STM32H7xx_HAL_Driver/Src/stm32h7xx_hal_exti.c ****               In this case corresponding bit of D2PMRx register is set to 1
  64:./Libraries/STM32H7xx_HAL_Driver/Src/stm32h7xx_hal_exti.c ****               and corresponding bits(2) of D3PCRxL/H is set to b11 :
  65:./Libraries/STM32H7xx_HAL_Driver/Src/stm32h7xx_hal_exti.c ****                 LPTIM5 out selected as D3 domain pendclear source
  66:./Libraries/STM32H7xx_HAL_Driver/Src/stm32h7xx_hal_exti.c **** 
  67:./Libraries/STM32H7xx_HAL_Driver/Src/stm32h7xx_hal_exti.c **** 
  68:./Libraries/STM32H7xx_HAL_Driver/Src/stm32h7xx_hal_exti.c ****                      ##### How to use this driver #####
  69:./Libraries/STM32H7xx_HAL_Driver/Src/stm32h7xx_hal_exti.c ****   ==============================================================================
  70:./Libraries/STM32H7xx_HAL_Driver/Src/stm32h7xx_hal_exti.c ****   [..]
  71:./Libraries/STM32H7xx_HAL_Driver/Src/stm32h7xx_hal_exti.c **** 
  72:./Libraries/STM32H7xx_HAL_Driver/Src/stm32h7xx_hal_exti.c ****     (#) Configure the EXTI line using HAL_EXTI_SetConfigLine().
  73:./Libraries/STM32H7xx_HAL_Driver/Src/stm32h7xx_hal_exti.c ****         (++) Choose the interrupt line number by setting "Line" member from
  74:./Libraries/STM32H7xx_HAL_Driver/Src/stm32h7xx_hal_exti.c ****              EXTI_ConfigTypeDef structure.
  75:./Libraries/STM32H7xx_HAL_Driver/Src/stm32h7xx_hal_exti.c ****         (++) Configure the interrupt and/or event mode using "Mode" member from
  76:./Libraries/STM32H7xx_HAL_Driver/Src/stm32h7xx_hal_exti.c ****              EXTI_ConfigTypeDef structure.
  77:./Libraries/STM32H7xx_HAL_Driver/Src/stm32h7xx_hal_exti.c ****         (++) For configurable lines, configure rising and/or falling trigger
  78:./Libraries/STM32H7xx_HAL_Driver/Src/stm32h7xx_hal_exti.c ****              "Trigger" member from EXTI_ConfigTypeDef structure.
  79:./Libraries/STM32H7xx_HAL_Driver/Src/stm32h7xx_hal_exti.c ****         (++) For Exti lines linked to gpio, choose gpio port using "GPIOSel"
  80:./Libraries/STM32H7xx_HAL_Driver/Src/stm32h7xx_hal_exti.c ****              member from GPIO_InitTypeDef structure.
  81:./Libraries/STM32H7xx_HAL_Driver/Src/stm32h7xx_hal_exti.c ****         (++) For Exti lines with wkaeup target is Any (CPU1 , CPU2 and D3 smart run domain),
  82:./Libraries/STM32H7xx_HAL_Driver/Src/stm32h7xx_hal_exti.c ****              choose gpio D3 PendClearSource using PendClearSource
  83:./Libraries/STM32H7xx_HAL_Driver/Src/stm32h7xx_hal_exti.c ****              member from EXTI_PendClear_Source structure.
  84:./Libraries/STM32H7xx_HAL_Driver/Src/stm32h7xx_hal_exti.c **** 
  85:./Libraries/STM32H7xx_HAL_Driver/Src/stm32h7xx_hal_exti.c ****     (#) Get current Exti configuration of a dedicated line using
  86:./Libraries/STM32H7xx_HAL_Driver/Src/stm32h7xx_hal_exti.c ****         HAL_EXTI_GetConfigLine().
ARM GAS  /tmp/cceNacQR.s 			page 3


  87:./Libraries/STM32H7xx_HAL_Driver/Src/stm32h7xx_hal_exti.c ****         (++) Provide exiting handle as parameter.
  88:./Libraries/STM32H7xx_HAL_Driver/Src/stm32h7xx_hal_exti.c ****         (++) Provide pointer on EXTI_ConfigTypeDef structure as second parameter.
  89:./Libraries/STM32H7xx_HAL_Driver/Src/stm32h7xx_hal_exti.c **** 
  90:./Libraries/STM32H7xx_HAL_Driver/Src/stm32h7xx_hal_exti.c ****     (#) Clear Exti configuration of a dedicated line using HAL_EXTI_GetConfigLine().
  91:./Libraries/STM32H7xx_HAL_Driver/Src/stm32h7xx_hal_exti.c ****         (++) Provide exiting handle as parameter.
  92:./Libraries/STM32H7xx_HAL_Driver/Src/stm32h7xx_hal_exti.c **** 
  93:./Libraries/STM32H7xx_HAL_Driver/Src/stm32h7xx_hal_exti.c ****     (#) Register callback to treat Exti interrupts using HAL_EXTI_RegisterCallback().
  94:./Libraries/STM32H7xx_HAL_Driver/Src/stm32h7xx_hal_exti.c ****         (++) Provide exiting handle as first parameter.
  95:./Libraries/STM32H7xx_HAL_Driver/Src/stm32h7xx_hal_exti.c ****         (++) Provide which callback will be registered using one value from
  96:./Libraries/STM32H7xx_HAL_Driver/Src/stm32h7xx_hal_exti.c ****              EXTI_CallbackIDTypeDef.
  97:./Libraries/STM32H7xx_HAL_Driver/Src/stm32h7xx_hal_exti.c ****         (++) Provide callback function pointer.
  98:./Libraries/STM32H7xx_HAL_Driver/Src/stm32h7xx_hal_exti.c **** 
  99:./Libraries/STM32H7xx_HAL_Driver/Src/stm32h7xx_hal_exti.c ****     (#) Get interrupt pending bit using HAL_EXTI_GetPending().
 100:./Libraries/STM32H7xx_HAL_Driver/Src/stm32h7xx_hal_exti.c **** 
 101:./Libraries/STM32H7xx_HAL_Driver/Src/stm32h7xx_hal_exti.c ****     (#) Clear interrupt pending bit using HAL_EXTI_GetPending().
 102:./Libraries/STM32H7xx_HAL_Driver/Src/stm32h7xx_hal_exti.c **** 
 103:./Libraries/STM32H7xx_HAL_Driver/Src/stm32h7xx_hal_exti.c ****     (#) Generate software interrupt using HAL_EXTI_GenerateSWI().
 104:./Libraries/STM32H7xx_HAL_Driver/Src/stm32h7xx_hal_exti.c **** 
 105:./Libraries/STM32H7xx_HAL_Driver/Src/stm32h7xx_hal_exti.c ****   @endverbatim
 106:./Libraries/STM32H7xx_HAL_Driver/Src/stm32h7xx_hal_exti.c ****   ******************************************************************************
 107:./Libraries/STM32H7xx_HAL_Driver/Src/stm32h7xx_hal_exti.c ****   * @attention
 108:./Libraries/STM32H7xx_HAL_Driver/Src/stm32h7xx_hal_exti.c ****   *
 109:./Libraries/STM32H7xx_HAL_Driver/Src/stm32h7xx_hal_exti.c ****   * <h2><center>&copy; Copyright (c) 2017 STMicroelectronics.
 110:./Libraries/STM32H7xx_HAL_Driver/Src/stm32h7xx_hal_exti.c ****   * All rights reserved.</center></h2>
 111:./Libraries/STM32H7xx_HAL_Driver/Src/stm32h7xx_hal_exti.c ****   *
 112:./Libraries/STM32H7xx_HAL_Driver/Src/stm32h7xx_hal_exti.c ****   * This software component is licensed by ST under BSD 3-Clause license,
 113:./Libraries/STM32H7xx_HAL_Driver/Src/stm32h7xx_hal_exti.c ****   * the "License"; You may not use this file except in compliance with the
 114:./Libraries/STM32H7xx_HAL_Driver/Src/stm32h7xx_hal_exti.c ****   * License. You may obtain a copy of the License at:
 115:./Libraries/STM32H7xx_HAL_Driver/Src/stm32h7xx_hal_exti.c ****   *                        opensource.org/licenses/BSD-3-Clause
 116:./Libraries/STM32H7xx_HAL_Driver/Src/stm32h7xx_hal_exti.c ****   *
 117:./Libraries/STM32H7xx_HAL_Driver/Src/stm32h7xx_hal_exti.c ****   ******************************************************************************
 118:./Libraries/STM32H7xx_HAL_Driver/Src/stm32h7xx_hal_exti.c ****   */
 119:./Libraries/STM32H7xx_HAL_Driver/Src/stm32h7xx_hal_exti.c **** 
 120:./Libraries/STM32H7xx_HAL_Driver/Src/stm32h7xx_hal_exti.c **** /* Includes ------------------------------------------------------------------*/
 121:./Libraries/STM32H7xx_HAL_Driver/Src/stm32h7xx_hal_exti.c **** #include "stm32h7xx_hal.h"
 122:./Libraries/STM32H7xx_HAL_Driver/Src/stm32h7xx_hal_exti.c **** 
 123:./Libraries/STM32H7xx_HAL_Driver/Src/stm32h7xx_hal_exti.c **** /** @addtogroup STM32H7xx_HAL_Driver
 124:./Libraries/STM32H7xx_HAL_Driver/Src/stm32h7xx_hal_exti.c ****   * @{
 125:./Libraries/STM32H7xx_HAL_Driver/Src/stm32h7xx_hal_exti.c ****   */
 126:./Libraries/STM32H7xx_HAL_Driver/Src/stm32h7xx_hal_exti.c **** 
 127:./Libraries/STM32H7xx_HAL_Driver/Src/stm32h7xx_hal_exti.c **** /** @addtogroup EXTI
 128:./Libraries/STM32H7xx_HAL_Driver/Src/stm32h7xx_hal_exti.c ****   * @{
 129:./Libraries/STM32H7xx_HAL_Driver/Src/stm32h7xx_hal_exti.c ****   */
 130:./Libraries/STM32H7xx_HAL_Driver/Src/stm32h7xx_hal_exti.c **** 
 131:./Libraries/STM32H7xx_HAL_Driver/Src/stm32h7xx_hal_exti.c **** #ifdef HAL_EXTI_MODULE_ENABLED
 132:./Libraries/STM32H7xx_HAL_Driver/Src/stm32h7xx_hal_exti.c **** 
 133:./Libraries/STM32H7xx_HAL_Driver/Src/stm32h7xx_hal_exti.c **** /* Private typedef -----------------------------------------------------------*/
 134:./Libraries/STM32H7xx_HAL_Driver/Src/stm32h7xx_hal_exti.c **** /* Private defines ------------------------------------------------------------*/
 135:./Libraries/STM32H7xx_HAL_Driver/Src/stm32h7xx_hal_exti.c **** /** @defgroup EXTI_Private_Constants EXTI Private Constants
 136:./Libraries/STM32H7xx_HAL_Driver/Src/stm32h7xx_hal_exti.c ****   * @{
 137:./Libraries/STM32H7xx_HAL_Driver/Src/stm32h7xx_hal_exti.c ****   */
 138:./Libraries/STM32H7xx_HAL_Driver/Src/stm32h7xx_hal_exti.c **** #define EXTI_MODE_OFFSET                    0x04U   /* 0x10: offset between CPU IMR/EMR registers *
 139:./Libraries/STM32H7xx_HAL_Driver/Src/stm32h7xx_hal_exti.c **** #define EXTI_CONFIG_OFFSET                  0x08U   /* 0x20: offset between CPU Rising/Falling conf
 140:./Libraries/STM32H7xx_HAL_Driver/Src/stm32h7xx_hal_exti.c **** /**
 141:./Libraries/STM32H7xx_HAL_Driver/Src/stm32h7xx_hal_exti.c ****   * @}
 142:./Libraries/STM32H7xx_HAL_Driver/Src/stm32h7xx_hal_exti.c ****   */
 143:./Libraries/STM32H7xx_HAL_Driver/Src/stm32h7xx_hal_exti.c **** 
ARM GAS  /tmp/cceNacQR.s 			page 4


 144:./Libraries/STM32H7xx_HAL_Driver/Src/stm32h7xx_hal_exti.c **** /* Private macros ------------------------------------------------------------*/
 145:./Libraries/STM32H7xx_HAL_Driver/Src/stm32h7xx_hal_exti.c **** /* Private variables ---------------------------------------------------------*/
 146:./Libraries/STM32H7xx_HAL_Driver/Src/stm32h7xx_hal_exti.c **** /* Private function prototypes -----------------------------------------------*/
 147:./Libraries/STM32H7xx_HAL_Driver/Src/stm32h7xx_hal_exti.c **** /* Exported functions --------------------------------------------------------*/
 148:./Libraries/STM32H7xx_HAL_Driver/Src/stm32h7xx_hal_exti.c **** 
 149:./Libraries/STM32H7xx_HAL_Driver/Src/stm32h7xx_hal_exti.c **** /** @addtogroup EXTI_Exported_Functions
 150:./Libraries/STM32H7xx_HAL_Driver/Src/stm32h7xx_hal_exti.c ****   * @{
 151:./Libraries/STM32H7xx_HAL_Driver/Src/stm32h7xx_hal_exti.c ****   */
 152:./Libraries/STM32H7xx_HAL_Driver/Src/stm32h7xx_hal_exti.c **** 
 153:./Libraries/STM32H7xx_HAL_Driver/Src/stm32h7xx_hal_exti.c **** /** @addtogroup EXTI_Exported_Functions_Group1
 154:./Libraries/STM32H7xx_HAL_Driver/Src/stm32h7xx_hal_exti.c ****  *  @brief    Configuration functions
 155:./Libraries/STM32H7xx_HAL_Driver/Src/stm32h7xx_hal_exti.c ****  *
 156:./Libraries/STM32H7xx_HAL_Driver/Src/stm32h7xx_hal_exti.c **** @verbatim
 157:./Libraries/STM32H7xx_HAL_Driver/Src/stm32h7xx_hal_exti.c ****  ===============================================================================
 158:./Libraries/STM32H7xx_HAL_Driver/Src/stm32h7xx_hal_exti.c ****               ##### Configuration functions #####
 159:./Libraries/STM32H7xx_HAL_Driver/Src/stm32h7xx_hal_exti.c ****  ===============================================================================
 160:./Libraries/STM32H7xx_HAL_Driver/Src/stm32h7xx_hal_exti.c **** 
 161:./Libraries/STM32H7xx_HAL_Driver/Src/stm32h7xx_hal_exti.c **** @endverbatim
 162:./Libraries/STM32H7xx_HAL_Driver/Src/stm32h7xx_hal_exti.c ****   * @{
 163:./Libraries/STM32H7xx_HAL_Driver/Src/stm32h7xx_hal_exti.c ****   */
 164:./Libraries/STM32H7xx_HAL_Driver/Src/stm32h7xx_hal_exti.c **** 
 165:./Libraries/STM32H7xx_HAL_Driver/Src/stm32h7xx_hal_exti.c **** /**
 166:./Libraries/STM32H7xx_HAL_Driver/Src/stm32h7xx_hal_exti.c ****   * @brief  Set configuration of a dedicated Exti line.
 167:./Libraries/STM32H7xx_HAL_Driver/Src/stm32h7xx_hal_exti.c ****   * @param  hexti Exti handle.
 168:./Libraries/STM32H7xx_HAL_Driver/Src/stm32h7xx_hal_exti.c ****   * @param  pExtiConfig Pointer on EXTI configuration to be set.
 169:./Libraries/STM32H7xx_HAL_Driver/Src/stm32h7xx_hal_exti.c ****   * @retval HAL Status.
 170:./Libraries/STM32H7xx_HAL_Driver/Src/stm32h7xx_hal_exti.c ****   */
 171:./Libraries/STM32H7xx_HAL_Driver/Src/stm32h7xx_hal_exti.c **** HAL_StatusTypeDef HAL_EXTI_SetConfigLine(EXTI_HandleTypeDef *hexti, EXTI_ConfigTypeDef *pExtiConfig
 172:./Libraries/STM32H7xx_HAL_Driver/Src/stm32h7xx_hal_exti.c **** {
  30              		.loc 1 172 1 view -0
  31              		.cfi_startproc
  32              		@ args = 0, pretend = 0, frame = 0
  33              		@ frame_needed = 0, uses_anonymous_args = 0
 173:./Libraries/STM32H7xx_HAL_Driver/Src/stm32h7xx_hal_exti.c ****   __IO uint32_t *regaddr;
  34              		.loc 1 173 3 view .LVU1
 174:./Libraries/STM32H7xx_HAL_Driver/Src/stm32h7xx_hal_exti.c ****   uint32_t regval;
  35              		.loc 1 174 3 view .LVU2
 175:./Libraries/STM32H7xx_HAL_Driver/Src/stm32h7xx_hal_exti.c ****   uint32_t linepos;
  36              		.loc 1 175 3 view .LVU3
 176:./Libraries/STM32H7xx_HAL_Driver/Src/stm32h7xx_hal_exti.c ****   uint32_t maskline;
  37              		.loc 1 176 3 view .LVU4
 177:./Libraries/STM32H7xx_HAL_Driver/Src/stm32h7xx_hal_exti.c ****   uint32_t offset;
  38              		.loc 1 177 3 view .LVU5
 178:./Libraries/STM32H7xx_HAL_Driver/Src/stm32h7xx_hal_exti.c ****   uint32_t pcrlinepos;
  39              		.loc 1 178 3 view .LVU6
 179:./Libraries/STM32H7xx_HAL_Driver/Src/stm32h7xx_hal_exti.c **** 
 180:./Libraries/STM32H7xx_HAL_Driver/Src/stm32h7xx_hal_exti.c ****   /* Check null pointer */
 181:./Libraries/STM32H7xx_HAL_Driver/Src/stm32h7xx_hal_exti.c ****   if ((hexti == NULL) || (pExtiConfig == NULL))
  40              		.loc 1 181 3 view .LVU7
  41              		.loc 1 181 6 is_stmt 0 view .LVU8
  42 0000 0028     		cmp	r0, #0
  43 0002 6DD0     		beq	.L21
  44 0004 0029     		cmp	r1, #0
  45 0006 6BD0     		beq	.L21
 182:./Libraries/STM32H7xx_HAL_Driver/Src/stm32h7xx_hal_exti.c ****   {
 183:./Libraries/STM32H7xx_HAL_Driver/Src/stm32h7xx_hal_exti.c ****     return HAL_ERROR;
 184:./Libraries/STM32H7xx_HAL_Driver/Src/stm32h7xx_hal_exti.c ****   }
ARM GAS  /tmp/cceNacQR.s 			page 5


 185:./Libraries/STM32H7xx_HAL_Driver/Src/stm32h7xx_hal_exti.c **** 
 186:./Libraries/STM32H7xx_HAL_Driver/Src/stm32h7xx_hal_exti.c ****   /* Check the parameters */
 187:./Libraries/STM32H7xx_HAL_Driver/Src/stm32h7xx_hal_exti.c ****   assert_param(IS_EXTI_LINE(pExtiConfig->Line));
  46              		.loc 1 187 3 is_stmt 1 view .LVU9
 188:./Libraries/STM32H7xx_HAL_Driver/Src/stm32h7xx_hal_exti.c ****   assert_param(IS_EXTI_MODE(pExtiConfig->Mode));
  47              		.loc 1 188 3 view .LVU10
 189:./Libraries/STM32H7xx_HAL_Driver/Src/stm32h7xx_hal_exti.c **** 
 190:./Libraries/STM32H7xx_HAL_Driver/Src/stm32h7xx_hal_exti.c ****   /* Assign line number to handle */
 191:./Libraries/STM32H7xx_HAL_Driver/Src/stm32h7xx_hal_exti.c ****   hexti->Line = pExtiConfig->Line;
  48              		.loc 1 191 3 view .LVU11
 192:./Libraries/STM32H7xx_HAL_Driver/Src/stm32h7xx_hal_exti.c **** 
 193:./Libraries/STM32H7xx_HAL_Driver/Src/stm32h7xx_hal_exti.c ****   /* compute line register offset and line mask */
 194:./Libraries/STM32H7xx_HAL_Driver/Src/stm32h7xx_hal_exti.c ****   offset = ((pExtiConfig->Line & EXTI_REG_MASK) >> EXTI_REG_SHIFT);
 195:./Libraries/STM32H7xx_HAL_Driver/Src/stm32h7xx_hal_exti.c ****   linepos = (pExtiConfig->Line & EXTI_PIN_MASK);
 196:./Libraries/STM32H7xx_HAL_Driver/Src/stm32h7xx_hal_exti.c ****   maskline = (1UL << linepos);
  49              		.loc 1 196 12 is_stmt 0 view .LVU12
  50 0008 0123     		movs	r3, #1
 172:./Libraries/STM32H7xx_HAL_Driver/Src/stm32h7xx_hal_exti.c ****   __IO uint32_t *regaddr;
  51              		.loc 1 172 1 view .LVU13
  52 000a 2DE9F041 		push	{r4, r5, r6, r7, r8, lr}
  53              	.LCFI0:
  54              		.cfi_def_cfa_offset 24
  55              		.cfi_offset 4, -24
  56              		.cfi_offset 5, -20
  57              		.cfi_offset 6, -16
  58              		.cfi_offset 7, -12
  59              		.cfi_offset 8, -8
  60              		.cfi_offset 14, -4
 191:./Libraries/STM32H7xx_HAL_Driver/Src/stm32h7xx_hal_exti.c **** 
  61              		.loc 1 191 28 view .LVU14
  62 000e 0C68     		ldr	r4, [r1]
 195:./Libraries/STM32H7xx_HAL_Driver/Src/stm32h7xx_hal_exti.c ****   maskline = (1UL << linepos);
  63              		.loc 1 195 11 view .LVU15
  64 0010 04F01F08 		and	r8, r4, #31
 197:./Libraries/STM32H7xx_HAL_Driver/Src/stm32h7xx_hal_exti.c **** 
 198:./Libraries/STM32H7xx_HAL_Driver/Src/stm32h7xx_hal_exti.c ****   /* Configure triggers for configurable lines */
 199:./Libraries/STM32H7xx_HAL_Driver/Src/stm32h7xx_hal_exti.c ****   if ((pExtiConfig->Line & EXTI_CONFIG) != 0x00U)
  65              		.loc 1 199 6 view .LVU16
  66 0014 A201     		lsls	r2, r4, #6
 191:./Libraries/STM32H7xx_HAL_Driver/Src/stm32h7xx_hal_exti.c **** 
  67              		.loc 1 191 15 view .LVU17
  68 0016 0460     		str	r4, [r0]
 194:./Libraries/STM32H7xx_HAL_Driver/Src/stm32h7xx_hal_exti.c ****   linepos = (pExtiConfig->Line & EXTI_PIN_MASK);
  69              		.loc 1 194 3 is_stmt 1 view .LVU18
 194:./Libraries/STM32H7xx_HAL_Driver/Src/stm32h7xx_hal_exti.c ****   linepos = (pExtiConfig->Line & EXTI_PIN_MASK);
  70              		.loc 1 194 10 is_stmt 0 view .LVU19
  71 0018 C4F30140 		ubfx	r0, r4, #16, #2
  72              	.LVL1:
 195:./Libraries/STM32H7xx_HAL_Driver/Src/stm32h7xx_hal_exti.c ****   maskline = (1UL << linepos);
  73              		.loc 1 195 3 is_stmt 1 view .LVU20
 196:./Libraries/STM32H7xx_HAL_Driver/Src/stm32h7xx_hal_exti.c **** 
  74              		.loc 1 196 3 view .LVU21
 196:./Libraries/STM32H7xx_HAL_Driver/Src/stm32h7xx_hal_exti.c **** 
  75              		.loc 1 196 12 is_stmt 0 view .LVU22
  76 001c 03FA08F3 		lsl	r3, r3, r8
  77              	.LVL2:
  78              		.loc 1 199 3 is_stmt 1 view .LVU23
ARM GAS  /tmp/cceNacQR.s 			page 6


  79              		.loc 1 199 6 is_stmt 0 view .LVU24
  80 0020 19D5     		bpl	.L4
 200:./Libraries/STM32H7xx_HAL_Driver/Src/stm32h7xx_hal_exti.c ****   {
 201:./Libraries/STM32H7xx_HAL_Driver/Src/stm32h7xx_hal_exti.c ****     assert_param(IS_EXTI_TRIGGER(pExtiConfig->Trigger));
  81              		.loc 1 201 5 is_stmt 1 view .LVU25
 202:./Libraries/STM32H7xx_HAL_Driver/Src/stm32h7xx_hal_exti.c **** 
 203:./Libraries/STM32H7xx_HAL_Driver/Src/stm32h7xx_hal_exti.c ****     /* Configure rising trigger */
 204:./Libraries/STM32H7xx_HAL_Driver/Src/stm32h7xx_hal_exti.c ****     regaddr = (__IO uint32_t *)(&EXTI->RTSR1 + (EXTI_CONFIG_OFFSET * offset));
  82              		.loc 1 204 5 view .LVU26
  83              		.loc 1 204 15 is_stmt 0 view .LVU27
  84 0022 4201     		lsls	r2, r0, #5
 205:./Libraries/STM32H7xx_HAL_Driver/Src/stm32h7xx_hal_exti.c ****     regval = *regaddr;
 206:./Libraries/STM32H7xx_HAL_Driver/Src/stm32h7xx_hal_exti.c **** 
 207:./Libraries/STM32H7xx_HAL_Driver/Src/stm32h7xx_hal_exti.c ****     /* Mask or set line */
 208:./Libraries/STM32H7xx_HAL_Driver/Src/stm32h7xx_hal_exti.c ****     if ((pExtiConfig->Trigger & EXTI_TRIGGER_RISING) != 0x00U)
  85              		.loc 1 208 31 view .LVU28
  86 0024 8F68     		ldr	r7, [r1, #8]
 204:./Libraries/STM32H7xx_HAL_Driver/Src/stm32h7xx_hal_exti.c ****     regval = *regaddr;
  87              		.loc 1 204 13 view .LVU29
  88 0026 02F1B04C 		add	ip, r2, #1476395008
  89              	.LVL3:
 205:./Libraries/STM32H7xx_HAL_Driver/Src/stm32h7xx_hal_exti.c ****     regval = *regaddr;
  90              		.loc 1 205 5 is_stmt 1 view .LVU30
  91              		.loc 1 208 8 is_stmt 0 view .LVU31
  92 002a FF07     		lsls	r7, r7, #31
 209:./Libraries/STM32H7xx_HAL_Driver/Src/stm32h7xx_hal_exti.c ****     {
 210:./Libraries/STM32H7xx_HAL_Driver/Src/stm32h7xx_hal_exti.c ****       regval |= maskline;
 211:./Libraries/STM32H7xx_HAL_Driver/Src/stm32h7xx_hal_exti.c ****     }
 212:./Libraries/STM32H7xx_HAL_Driver/Src/stm32h7xx_hal_exti.c ****     else
 213:./Libraries/STM32H7xx_HAL_Driver/Src/stm32h7xx_hal_exti.c ****     {
 214:./Libraries/STM32H7xx_HAL_Driver/Src/stm32h7xx_hal_exti.c ****       regval &= ~maskline;
 215:./Libraries/STM32H7xx_HAL_Driver/Src/stm32h7xx_hal_exti.c ****     }
 216:./Libraries/STM32H7xx_HAL_Driver/Src/stm32h7xx_hal_exti.c **** 
 217:./Libraries/STM32H7xx_HAL_Driver/Src/stm32h7xx_hal_exti.c ****     /* Store rising trigger mode */
 218:./Libraries/STM32H7xx_HAL_Driver/Src/stm32h7xx_hal_exti.c ****     *regaddr = regval;
 219:./Libraries/STM32H7xx_HAL_Driver/Src/stm32h7xx_hal_exti.c **** 
 220:./Libraries/STM32H7xx_HAL_Driver/Src/stm32h7xx_hal_exti.c ****     /* Configure falling trigger */
 221:./Libraries/STM32H7xx_HAL_Driver/Src/stm32h7xx_hal_exti.c ****     regaddr = (__IO uint32_t *)(&EXTI->FTSR1 + (EXTI_CONFIG_OFFSET * offset));
  93              		.loc 1 221 13 view .LVU32
  94 002c 3D4F     		ldr	r7, .L31
 205:./Libraries/STM32H7xx_HAL_Driver/Src/stm32h7xx_hal_exti.c **** 
  95              		.loc 1 205 12 view .LVU33
  96 002e DCF80050 		ldr	r5, [ip]
  97              	.LVL4:
 208:./Libraries/STM32H7xx_HAL_Driver/Src/stm32h7xx_hal_exti.c ****     {
  98              		.loc 1 208 5 is_stmt 1 view .LVU34
 210:./Libraries/STM32H7xx_HAL_Driver/Src/stm32h7xx_hal_exti.c ****     }
  99              		.loc 1 210 7 view .LVU35
 210:./Libraries/STM32H7xx_HAL_Driver/Src/stm32h7xx_hal_exti.c ****     }
 100              		.loc 1 210 14 is_stmt 0 view .LVU36
 101 0032 4CBF     		ite	mi
 102 0034 1D43     		orrmi	r5, r5, r3
 103              	.LVL5:
 214:./Libraries/STM32H7xx_HAL_Driver/Src/stm32h7xx_hal_exti.c ****     }
 104              		.loc 1 214 7 is_stmt 1 view .LVU37
 214:./Libraries/STM32H7xx_HAL_Driver/Src/stm32h7xx_hal_exti.c ****     }
 105              		.loc 1 214 14 is_stmt 0 view .LVU38
ARM GAS  /tmp/cceNacQR.s 			page 7


 106 0036 9D43     		bicpl	r5, r5, r3
 107              	.LVL6:
 218:./Libraries/STM32H7xx_HAL_Driver/Src/stm32h7xx_hal_exti.c **** 
 108              		.loc 1 218 5 is_stmt 1 view .LVU39
 218:./Libraries/STM32H7xx_HAL_Driver/Src/stm32h7xx_hal_exti.c **** 
 109              		.loc 1 218 14 is_stmt 0 view .LVU40
 110 0038 CCF80050 		str	r5, [ip]
 111              		.loc 1 221 5 is_stmt 1 view .LVU41
 112              	.LVL7:
 222:./Libraries/STM32H7xx_HAL_Driver/Src/stm32h7xx_hal_exti.c ****     regval = *regaddr;
 113              		.loc 1 222 5 view .LVU42
 223:./Libraries/STM32H7xx_HAL_Driver/Src/stm32h7xx_hal_exti.c **** 
 224:./Libraries/STM32H7xx_HAL_Driver/Src/stm32h7xx_hal_exti.c ****     /* Mask or set line */
 225:./Libraries/STM32H7xx_HAL_Driver/Src/stm32h7xx_hal_exti.c ****     if ((pExtiConfig->Trigger & EXTI_TRIGGER_FALLING) != 0x00U)
 114              		.loc 1 225 8 is_stmt 0 view .LVU43
 115 003c 8E68     		ldr	r6, [r1, #8]
 222:./Libraries/STM32H7xx_HAL_Driver/Src/stm32h7xx_hal_exti.c ****     regval = *regaddr;
 116              		.loc 1 222 12 view .LVU44
 117 003e D559     		ldr	r5, [r2, r7]
 118              	.LVL8:
 119              		.loc 1 225 5 is_stmt 1 view .LVU45
 120              		.loc 1 225 8 is_stmt 0 view .LVU46
 121 0040 B607     		lsls	r6, r6, #30
 226:./Libraries/STM32H7xx_HAL_Driver/Src/stm32h7xx_hal_exti.c ****     {
 227:./Libraries/STM32H7xx_HAL_Driver/Src/stm32h7xx_hal_exti.c ****       regval |= maskline;
 122              		.loc 1 227 7 is_stmt 1 view .LVU47
 123              		.loc 1 227 14 is_stmt 0 view .LVU48
 124 0042 4CBF     		ite	mi
 125 0044 1D43     		orrmi	r5, r5, r3
 126              	.LVL9:
 228:./Libraries/STM32H7xx_HAL_Driver/Src/stm32h7xx_hal_exti.c ****     }
 229:./Libraries/STM32H7xx_HAL_Driver/Src/stm32h7xx_hal_exti.c ****     else
 230:./Libraries/STM32H7xx_HAL_Driver/Src/stm32h7xx_hal_exti.c ****     {
 231:./Libraries/STM32H7xx_HAL_Driver/Src/stm32h7xx_hal_exti.c ****       regval &= ~maskline;
 127              		.loc 1 231 7 is_stmt 1 view .LVU49
 128              		.loc 1 231 14 is_stmt 0 view .LVU50
 129 0046 9D43     		bicpl	r5, r5, r3
 130              	.LVL10:
 232:./Libraries/STM32H7xx_HAL_Driver/Src/stm32h7xx_hal_exti.c ****     }
 233:./Libraries/STM32H7xx_HAL_Driver/Src/stm32h7xx_hal_exti.c **** 
 234:./Libraries/STM32H7xx_HAL_Driver/Src/stm32h7xx_hal_exti.c ****     /* Store falling trigger mode */
 235:./Libraries/STM32H7xx_HAL_Driver/Src/stm32h7xx_hal_exti.c ****     *regaddr = regval;
 131              		.loc 1 235 5 is_stmt 1 view .LVU51
 132              		.loc 1 235 14 is_stmt 0 view .LVU52
 133 0048 D551     		str	r5, [r2, r7]
 236:./Libraries/STM32H7xx_HAL_Driver/Src/stm32h7xx_hal_exti.c **** 
 237:./Libraries/STM32H7xx_HAL_Driver/Src/stm32h7xx_hal_exti.c ****     /* Configure gpio port selection in case of gpio exti line */
 238:./Libraries/STM32H7xx_HAL_Driver/Src/stm32h7xx_hal_exti.c ****     if ((pExtiConfig->Line & EXTI_GPIO) == EXTI_GPIO)
 134              		.loc 1 238 5 is_stmt 1 view .LVU53
 135              		.loc 1 238 28 is_stmt 0 view .LVU54
 136 004a 0A68     		ldr	r2, [r1]
 137              	.LVL11:
 138              		.loc 1 238 28 view .LVU55
 139 004c 02F0C062 		and	r2, r2, #100663296
 140              		.loc 1 238 8 view .LVU56
 141 0050 B2F1C06F 		cmp	r2, #100663296
 142 0054 4BD0     		beq	.L28
ARM GAS  /tmp/cceNacQR.s 			page 8


 143              	.LVL12:
 144              	.L4:
 239:./Libraries/STM32H7xx_HAL_Driver/Src/stm32h7xx_hal_exti.c ****     {
 240:./Libraries/STM32H7xx_HAL_Driver/Src/stm32h7xx_hal_exti.c ****       assert_param(IS_EXTI_GPIO_PORT(pExtiConfig->GPIOSel));
 241:./Libraries/STM32H7xx_HAL_Driver/Src/stm32h7xx_hal_exti.c ****       assert_param(IS_EXTI_GPIO_PIN(linepos));
 242:./Libraries/STM32H7xx_HAL_Driver/Src/stm32h7xx_hal_exti.c **** 
 243:./Libraries/STM32H7xx_HAL_Driver/Src/stm32h7xx_hal_exti.c ****       regval = SYSCFG->EXTICR[(linepos >> 2U) & 0x03UL];
 244:./Libraries/STM32H7xx_HAL_Driver/Src/stm32h7xx_hal_exti.c ****       regval &= ~(SYSCFG_EXTICR1_EXTI0 << (SYSCFG_EXTICR1_EXTI1_Pos * (linepos & 0x03U)));
 245:./Libraries/STM32H7xx_HAL_Driver/Src/stm32h7xx_hal_exti.c ****       regval |= (pExtiConfig->GPIOSel << (SYSCFG_EXTICR1_EXTI1_Pos * (linepos & 0x03U)));
 246:./Libraries/STM32H7xx_HAL_Driver/Src/stm32h7xx_hal_exti.c ****       SYSCFG->EXTICR[(linepos >> 2U) & 0x03UL] = regval;
 247:./Libraries/STM32H7xx_HAL_Driver/Src/stm32h7xx_hal_exti.c ****     }
 248:./Libraries/STM32H7xx_HAL_Driver/Src/stm32h7xx_hal_exti.c ****   }
 249:./Libraries/STM32H7xx_HAL_Driver/Src/stm32h7xx_hal_exti.c **** 
 250:./Libraries/STM32H7xx_HAL_Driver/Src/stm32h7xx_hal_exti.c ****   /* Configure interrupt mode : read current mode */
 251:./Libraries/STM32H7xx_HAL_Driver/Src/stm32h7xx_hal_exti.c ****   regaddr = (__IO uint32_t *)(&EXTI->IMR1 + (EXTI_MODE_OFFSET * offset));
 145              		.loc 1 251 3 is_stmt 1 view .LVU57
 146              		.loc 1 251 13 is_stmt 0 view .LVU58
 147 0056 0201     		lsls	r2, r0, #4
 252:./Libraries/STM32H7xx_HAL_Driver/Src/stm32h7xx_hal_exti.c ****   regval = *regaddr;
 253:./Libraries/STM32H7xx_HAL_Driver/Src/stm32h7xx_hal_exti.c **** 
 254:./Libraries/STM32H7xx_HAL_Driver/Src/stm32h7xx_hal_exti.c ****   /* Mask or set line */
 255:./Libraries/STM32H7xx_HAL_Driver/Src/stm32h7xx_hal_exti.c ****   if ((pExtiConfig->Mode & EXTI_MODE_INTERRUPT) != 0x00U)
 148              		.loc 1 255 6 view .LVU59
 149 0058 4E68     		ldr	r6, [r1, #4]
 251:./Libraries/STM32H7xx_HAL_Driver/Src/stm32h7xx_hal_exti.c ****   regval = *regaddr;
 150              		.loc 1 251 11 view .LVU60
 151 005a 334F     		ldr	r7, .L31+4
 152              	.LVL13:
 252:./Libraries/STM32H7xx_HAL_Driver/Src/stm32h7xx_hal_exti.c ****   regval = *regaddr;
 153              		.loc 1 252 3 is_stmt 1 view .LVU61
 154              		.loc 1 255 6 is_stmt 0 view .LVU62
 155 005c F607     		lsls	r6, r6, #31
 252:./Libraries/STM32H7xx_HAL_Driver/Src/stm32h7xx_hal_exti.c ****   regval = *regaddr;
 156              		.loc 1 252 10 view .LVU63
 157 005e D559     		ldr	r5, [r2, r7]
 158              	.LVL14:
 159              		.loc 1 255 3 is_stmt 1 view .LVU64
 256:./Libraries/STM32H7xx_HAL_Driver/Src/stm32h7xx_hal_exti.c ****   {
 257:./Libraries/STM32H7xx_HAL_Driver/Src/stm32h7xx_hal_exti.c ****     regval |= maskline;
 160              		.loc 1 257 5 view .LVU65
 161              		.loc 1 257 12 is_stmt 0 view .LVU66
 162 0060 4CBF     		ite	mi
 163 0062 1D43     		orrmi	r5, r5, r3
 164              	.LVL15:
 258:./Libraries/STM32H7xx_HAL_Driver/Src/stm32h7xx_hal_exti.c ****   }
 259:./Libraries/STM32H7xx_HAL_Driver/Src/stm32h7xx_hal_exti.c ****   else
 260:./Libraries/STM32H7xx_HAL_Driver/Src/stm32h7xx_hal_exti.c ****   {
 261:./Libraries/STM32H7xx_HAL_Driver/Src/stm32h7xx_hal_exti.c ****     regval &= ~maskline;
 165              		.loc 1 261 5 is_stmt 1 view .LVU67
 166              		.loc 1 261 12 is_stmt 0 view .LVU68
 167 0064 9D43     		bicpl	r5, r5, r3
 168              	.LVL16:
 262:./Libraries/STM32H7xx_HAL_Driver/Src/stm32h7xx_hal_exti.c ****   }
 263:./Libraries/STM32H7xx_HAL_Driver/Src/stm32h7xx_hal_exti.c **** 
 264:./Libraries/STM32H7xx_HAL_Driver/Src/stm32h7xx_hal_exti.c ****   /* Store interrupt mode */
 265:./Libraries/STM32H7xx_HAL_Driver/Src/stm32h7xx_hal_exti.c ****   *regaddr = regval;
 169              		.loc 1 265 3 is_stmt 1 view .LVU69
ARM GAS  /tmp/cceNacQR.s 			page 9


 170              		.loc 1 265 12 is_stmt 0 view .LVU70
 171 0066 D551     		str	r5, [r2, r7]
 266:./Libraries/STM32H7xx_HAL_Driver/Src/stm32h7xx_hal_exti.c **** 
 267:./Libraries/STM32H7xx_HAL_Driver/Src/stm32h7xx_hal_exti.c ****   /* The event mode cannot be configured if the line does not support it */
 268:./Libraries/STM32H7xx_HAL_Driver/Src/stm32h7xx_hal_exti.c ****   assert_param(((pExtiConfig->Line & EXTI_EVENT) == EXTI_EVENT) || ((pExtiConfig->Mode & EXTI_MODE_
 172              		.loc 1 268 3 is_stmt 1 view .LVU71
 269:./Libraries/STM32H7xx_HAL_Driver/Src/stm32h7xx_hal_exti.c **** 
 270:./Libraries/STM32H7xx_HAL_Driver/Src/stm32h7xx_hal_exti.c ****   /* Configure event mode : read current mode */
 271:./Libraries/STM32H7xx_HAL_Driver/Src/stm32h7xx_hal_exti.c ****   regaddr = (__IO uint32_t *)(&EXTI->EMR1 + (EXTI_MODE_OFFSET * offset));
 173              		.loc 1 271 3 view .LVU72
 174              		.loc 1 271 11 is_stmt 0 view .LVU73
 175 0068 304F     		ldr	r7, .L31+8
 176              	.LVL17:
 272:./Libraries/STM32H7xx_HAL_Driver/Src/stm32h7xx_hal_exti.c ****   regval = *regaddr;
 177              		.loc 1 272 3 is_stmt 1 view .LVU74
 273:./Libraries/STM32H7xx_HAL_Driver/Src/stm32h7xx_hal_exti.c **** 
 274:./Libraries/STM32H7xx_HAL_Driver/Src/stm32h7xx_hal_exti.c ****   /* Mask or set line */
 275:./Libraries/STM32H7xx_HAL_Driver/Src/stm32h7xx_hal_exti.c ****   if ((pExtiConfig->Mode & EXTI_MODE_EVENT) != 0x00U)
 178              		.loc 1 275 6 is_stmt 0 view .LVU75
 179 006a 4E68     		ldr	r6, [r1, #4]
 272:./Libraries/STM32H7xx_HAL_Driver/Src/stm32h7xx_hal_exti.c ****   regval = *regaddr;
 180              		.loc 1 272 10 view .LVU76
 181 006c D559     		ldr	r5, [r2, r7]
 182              	.LVL18:
 183              		.loc 1 275 3 is_stmt 1 view .LVU77
 184              		.loc 1 275 6 is_stmt 0 view .LVU78
 185 006e B607     		lsls	r6, r6, #30
 276:./Libraries/STM32H7xx_HAL_Driver/Src/stm32h7xx_hal_exti.c ****   {
 277:./Libraries/STM32H7xx_HAL_Driver/Src/stm32h7xx_hal_exti.c ****     regval |= maskline;
 186              		.loc 1 277 5 is_stmt 1 view .LVU79
 187              		.loc 1 277 12 is_stmt 0 view .LVU80
 188 0070 4CBF     		ite	mi
 189 0072 1D43     		orrmi	r5, r5, r3
 190              	.LVL19:
 278:./Libraries/STM32H7xx_HAL_Driver/Src/stm32h7xx_hal_exti.c ****   }
 279:./Libraries/STM32H7xx_HAL_Driver/Src/stm32h7xx_hal_exti.c ****   else
 280:./Libraries/STM32H7xx_HAL_Driver/Src/stm32h7xx_hal_exti.c ****   {
 281:./Libraries/STM32H7xx_HAL_Driver/Src/stm32h7xx_hal_exti.c ****     regval &= ~maskline;
 191              		.loc 1 281 5 is_stmt 1 view .LVU81
 192              		.loc 1 281 12 is_stmt 0 view .LVU82
 193 0074 9D43     		bicpl	r5, r5, r3
 194              	.LVL20:
 282:./Libraries/STM32H7xx_HAL_Driver/Src/stm32h7xx_hal_exti.c ****   }
 283:./Libraries/STM32H7xx_HAL_Driver/Src/stm32h7xx_hal_exti.c **** 
 284:./Libraries/STM32H7xx_HAL_Driver/Src/stm32h7xx_hal_exti.c ****   /* Store event mode */
 285:./Libraries/STM32H7xx_HAL_Driver/Src/stm32h7xx_hal_exti.c ****   *regaddr = regval;
 195              		.loc 1 285 3 is_stmt 1 view .LVU83
 196              		.loc 1 285 12 is_stmt 0 view .LVU84
 197 0076 D551     		str	r5, [r2, r7]
 286:./Libraries/STM32H7xx_HAL_Driver/Src/stm32h7xx_hal_exti.c **** 
 287:./Libraries/STM32H7xx_HAL_Driver/Src/stm32h7xx_hal_exti.c **** #if defined (DUAL_CORE)
 288:./Libraries/STM32H7xx_HAL_Driver/Src/stm32h7xx_hal_exti.c ****   /* Configure interrupt mode for Core2 : read current mode */
 289:./Libraries/STM32H7xx_HAL_Driver/Src/stm32h7xx_hal_exti.c ****   regaddr = (__IO uint32_t *)(&EXTI->C2IMR1 + (EXTI_MODE_OFFSET * offset));
 198              		.loc 1 289 3 is_stmt 1 view .LVU85
 199              		.loc 1 289 11 is_stmt 0 view .LVU86
 200 0078 2D4F     		ldr	r7, .L31+12
 201              	.LVL21:
ARM GAS  /tmp/cceNacQR.s 			page 10


 290:./Libraries/STM32H7xx_HAL_Driver/Src/stm32h7xx_hal_exti.c ****   regval = *regaddr;
 202              		.loc 1 290 3 is_stmt 1 view .LVU87
 291:./Libraries/STM32H7xx_HAL_Driver/Src/stm32h7xx_hal_exti.c **** 
 292:./Libraries/STM32H7xx_HAL_Driver/Src/stm32h7xx_hal_exti.c ****   /* Mask or set line */
 293:./Libraries/STM32H7xx_HAL_Driver/Src/stm32h7xx_hal_exti.c ****   if ((pExtiConfig->Mode & EXTI_MODE_CORE2_INTERRUPT) != 0x00U)
 203              		.loc 1 293 6 is_stmt 0 view .LVU88
 204 007a 4E68     		ldr	r6, [r1, #4]
 290:./Libraries/STM32H7xx_HAL_Driver/Src/stm32h7xx_hal_exti.c ****   regval = *regaddr;
 205              		.loc 1 290 10 view .LVU89
 206 007c D559     		ldr	r5, [r2, r7]
 207              	.LVL22:
 208              		.loc 1 293 3 is_stmt 1 view .LVU90
 209              		.loc 1 293 6 is_stmt 0 view .LVU91
 210 007e F606     		lsls	r6, r6, #27
 294:./Libraries/STM32H7xx_HAL_Driver/Src/stm32h7xx_hal_exti.c ****   {
 295:./Libraries/STM32H7xx_HAL_Driver/Src/stm32h7xx_hal_exti.c ****     regval |= maskline;
 211              		.loc 1 295 5 is_stmt 1 view .LVU92
 212              		.loc 1 295 12 is_stmt 0 view .LVU93
 213 0080 4CBF     		ite	mi
 214 0082 1D43     		orrmi	r5, r5, r3
 215              	.LVL23:
 296:./Libraries/STM32H7xx_HAL_Driver/Src/stm32h7xx_hal_exti.c ****   }
 297:./Libraries/STM32H7xx_HAL_Driver/Src/stm32h7xx_hal_exti.c ****   else
 298:./Libraries/STM32H7xx_HAL_Driver/Src/stm32h7xx_hal_exti.c ****   {
 299:./Libraries/STM32H7xx_HAL_Driver/Src/stm32h7xx_hal_exti.c ****     regval &= ~maskline;
 216              		.loc 1 299 5 is_stmt 1 view .LVU94
 217              		.loc 1 299 12 is_stmt 0 view .LVU95
 218 0084 9D43     		bicpl	r5, r5, r3
 219              	.LVL24:
 300:./Libraries/STM32H7xx_HAL_Driver/Src/stm32h7xx_hal_exti.c ****   }
 301:./Libraries/STM32H7xx_HAL_Driver/Src/stm32h7xx_hal_exti.c **** 
 302:./Libraries/STM32H7xx_HAL_Driver/Src/stm32h7xx_hal_exti.c ****   /* Store interrupt mode */
 303:./Libraries/STM32H7xx_HAL_Driver/Src/stm32h7xx_hal_exti.c ****   *regaddr = regval;
 220              		.loc 1 303 3 is_stmt 1 view .LVU96
 221              		.loc 1 303 12 is_stmt 0 view .LVU97
 222 0086 D551     		str	r5, [r2, r7]
 304:./Libraries/STM32H7xx_HAL_Driver/Src/stm32h7xx_hal_exti.c **** 
 305:./Libraries/STM32H7xx_HAL_Driver/Src/stm32h7xx_hal_exti.c ****   /* The event mode cannot be configured if the line does not support it */
 306:./Libraries/STM32H7xx_HAL_Driver/Src/stm32h7xx_hal_exti.c ****   assert_param(((pExtiConfig->Line & EXTI_EVENT) == EXTI_EVENT) || ((pExtiConfig->Mode & EXTI_MODE_
 223              		.loc 1 306 3 is_stmt 1 view .LVU98
 307:./Libraries/STM32H7xx_HAL_Driver/Src/stm32h7xx_hal_exti.c **** 
 308:./Libraries/STM32H7xx_HAL_Driver/Src/stm32h7xx_hal_exti.c ****   /* Configure event mode : read current mode */
 309:./Libraries/STM32H7xx_HAL_Driver/Src/stm32h7xx_hal_exti.c ****   regaddr = (__IO uint32_t *)(&EXTI->C2EMR1 + (EXTI_MODE_OFFSET * offset));
 224              		.loc 1 309 3 view .LVU99
 225              		.loc 1 309 11 is_stmt 0 view .LVU100
 226 0088 2A4F     		ldr	r7, .L31+16
 227              	.LVL25:
 310:./Libraries/STM32H7xx_HAL_Driver/Src/stm32h7xx_hal_exti.c ****   regval = *regaddr;
 228              		.loc 1 310 3 is_stmt 1 view .LVU101
 311:./Libraries/STM32H7xx_HAL_Driver/Src/stm32h7xx_hal_exti.c **** 
 312:./Libraries/STM32H7xx_HAL_Driver/Src/stm32h7xx_hal_exti.c ****   /* Mask or set line */
 313:./Libraries/STM32H7xx_HAL_Driver/Src/stm32h7xx_hal_exti.c ****   if ((pExtiConfig->Mode & EXTI_MODE_CORE2_EVENT) != 0x00U)
 229              		.loc 1 313 6 is_stmt 0 view .LVU102
 230 008a 4E68     		ldr	r6, [r1, #4]
 310:./Libraries/STM32H7xx_HAL_Driver/Src/stm32h7xx_hal_exti.c ****   regval = *regaddr;
 231              		.loc 1 310 10 view .LVU103
 232 008c D559     		ldr	r5, [r2, r7]
ARM GAS  /tmp/cceNacQR.s 			page 11


 233              	.LVL26:
 234              		.loc 1 313 3 is_stmt 1 view .LVU104
 235              		.loc 1 313 6 is_stmt 0 view .LVU105
 236 008e B606     		lsls	r6, r6, #26
 314:./Libraries/STM32H7xx_HAL_Driver/Src/stm32h7xx_hal_exti.c ****   {
 315:./Libraries/STM32H7xx_HAL_Driver/Src/stm32h7xx_hal_exti.c ****     regval |= maskline;
 237              		.loc 1 315 5 is_stmt 1 view .LVU106
 238              		.loc 1 315 12 is_stmt 0 view .LVU107
 239 0090 4CBF     		ite	mi
 240 0092 1D43     		orrmi	r5, r5, r3
 241              	.LVL27:
 316:./Libraries/STM32H7xx_HAL_Driver/Src/stm32h7xx_hal_exti.c ****   }
 317:./Libraries/STM32H7xx_HAL_Driver/Src/stm32h7xx_hal_exti.c ****   else
 318:./Libraries/STM32H7xx_HAL_Driver/Src/stm32h7xx_hal_exti.c ****   {
 319:./Libraries/STM32H7xx_HAL_Driver/Src/stm32h7xx_hal_exti.c ****     regval &= ~maskline;
 242              		.loc 1 319 5 is_stmt 1 view .LVU108
 243              		.loc 1 319 12 is_stmt 0 view .LVU109
 244 0094 9D43     		bicpl	r5, r5, r3
 245              	.LVL28:
 320:./Libraries/STM32H7xx_HAL_Driver/Src/stm32h7xx_hal_exti.c ****   }
 321:./Libraries/STM32H7xx_HAL_Driver/Src/stm32h7xx_hal_exti.c **** 
 322:./Libraries/STM32H7xx_HAL_Driver/Src/stm32h7xx_hal_exti.c ****   /* Store event mode */
 323:./Libraries/STM32H7xx_HAL_Driver/Src/stm32h7xx_hal_exti.c ****   *regaddr = regval;
 246              		.loc 1 323 3 is_stmt 1 view .LVU110
 247              		.loc 1 323 12 is_stmt 0 view .LVU111
 248 0096 D551     		str	r5, [r2, r7]
 324:./Libraries/STM32H7xx_HAL_Driver/Src/stm32h7xx_hal_exti.c **** #endif /* DUAL_CORE */
 325:./Libraries/STM32H7xx_HAL_Driver/Src/stm32h7xx_hal_exti.c **** 
 326:./Libraries/STM32H7xx_HAL_Driver/Src/stm32h7xx_hal_exti.c ****   /* Configure the D3 PendClear source in case of Wakeup target is Any */
 327:./Libraries/STM32H7xx_HAL_Driver/Src/stm32h7xx_hal_exti.c ****   if ((pExtiConfig->Line & EXTI_TARGET_MASK) == EXTI_TARGET_MSK_ALL)
 249              		.loc 1 327 3 is_stmt 1 view .LVU112
 250              		.loc 1 327 26 is_stmt 0 view .LVU113
 251 0098 0A68     		ldr	r2, [r1]
 252              	.LVL29:
 253              		.loc 1 327 26 view .LVU114
 254 009a 02F4E002 		and	r2, r2, #7340032
 255              		.loc 1 327 6 view .LVU115
 256 009e B2F5E00F 		cmp	r2, #7340032
 257 00a2 02D0     		beq	.L29
 328:./Libraries/STM32H7xx_HAL_Driver/Src/stm32h7xx_hal_exti.c ****   {
 329:./Libraries/STM32H7xx_HAL_Driver/Src/stm32h7xx_hal_exti.c ****     assert_param(IS_EXTI_D3_PENDCLR_SRC(pExtiConfig->PendClearSource));
 330:./Libraries/STM32H7xx_HAL_Driver/Src/stm32h7xx_hal_exti.c **** 
 331:./Libraries/STM32H7xx_HAL_Driver/Src/stm32h7xx_hal_exti.c ****     /*Calc the PMR register address for the given line */
 332:./Libraries/STM32H7xx_HAL_Driver/Src/stm32h7xx_hal_exti.c ****     regaddr = (__IO uint32_t *)(&EXTI->D3PMR1 + (EXTI_CONFIG_OFFSET * offset));
 333:./Libraries/STM32H7xx_HAL_Driver/Src/stm32h7xx_hal_exti.c ****     regval = *regaddr;
 334:./Libraries/STM32H7xx_HAL_Driver/Src/stm32h7xx_hal_exti.c **** 
 335:./Libraries/STM32H7xx_HAL_Driver/Src/stm32h7xx_hal_exti.c ****     if(pExtiConfig->PendClearSource == EXTI_D3_PENDCLR_SRC_NONE)
 336:./Libraries/STM32H7xx_HAL_Driver/Src/stm32h7xx_hal_exti.c ****     {
 337:./Libraries/STM32H7xx_HAL_Driver/Src/stm32h7xx_hal_exti.c ****       /* Clear D3PMRx register for the given line */
 338:./Libraries/STM32H7xx_HAL_Driver/Src/stm32h7xx_hal_exti.c ****       regval &= ~maskline;
 339:./Libraries/STM32H7xx_HAL_Driver/Src/stm32h7xx_hal_exti.c ****       /* Store D3PMRx register value */
 340:./Libraries/STM32H7xx_HAL_Driver/Src/stm32h7xx_hal_exti.c ****       *regaddr = regval;
 341:./Libraries/STM32H7xx_HAL_Driver/Src/stm32h7xx_hal_exti.c ****     }
 342:./Libraries/STM32H7xx_HAL_Driver/Src/stm32h7xx_hal_exti.c ****     else
 343:./Libraries/STM32H7xx_HAL_Driver/Src/stm32h7xx_hal_exti.c ****     {
 344:./Libraries/STM32H7xx_HAL_Driver/Src/stm32h7xx_hal_exti.c ****       /* Set D3PMRx register to 1 for the given line */
 345:./Libraries/STM32H7xx_HAL_Driver/Src/stm32h7xx_hal_exti.c ****       regval |= maskline;
ARM GAS  /tmp/cceNacQR.s 			page 12


 346:./Libraries/STM32H7xx_HAL_Driver/Src/stm32h7xx_hal_exti.c ****       /* Store D3PMRx register value */
 347:./Libraries/STM32H7xx_HAL_Driver/Src/stm32h7xx_hal_exti.c ****       *regaddr = regval;
 348:./Libraries/STM32H7xx_HAL_Driver/Src/stm32h7xx_hal_exti.c **** 
 349:./Libraries/STM32H7xx_HAL_Driver/Src/stm32h7xx_hal_exti.c ****       if(linepos < 16UL)
 350:./Libraries/STM32H7xx_HAL_Driver/Src/stm32h7xx_hal_exti.c ****       {
 351:./Libraries/STM32H7xx_HAL_Driver/Src/stm32h7xx_hal_exti.c ****         regaddr = (__IO uint32_t *)(&EXTI->D3PCR1L + (EXTI_CONFIG_OFFSET * offset));
 352:./Libraries/STM32H7xx_HAL_Driver/Src/stm32h7xx_hal_exti.c ****         pcrlinepos = 1UL << linepos;
 353:./Libraries/STM32H7xx_HAL_Driver/Src/stm32h7xx_hal_exti.c ****       }
 354:./Libraries/STM32H7xx_HAL_Driver/Src/stm32h7xx_hal_exti.c ****       else
 355:./Libraries/STM32H7xx_HAL_Driver/Src/stm32h7xx_hal_exti.c ****       {
 356:./Libraries/STM32H7xx_HAL_Driver/Src/stm32h7xx_hal_exti.c ****         regaddr = (__IO uint32_t *)(&EXTI->D3PCR1H + (EXTI_CONFIG_OFFSET * offset));
 357:./Libraries/STM32H7xx_HAL_Driver/Src/stm32h7xx_hal_exti.c ****         pcrlinepos = 1UL << (linepos - 16UL);
 358:./Libraries/STM32H7xx_HAL_Driver/Src/stm32h7xx_hal_exti.c ****       }
 359:./Libraries/STM32H7xx_HAL_Driver/Src/stm32h7xx_hal_exti.c **** 
 360:./Libraries/STM32H7xx_HAL_Driver/Src/stm32h7xx_hal_exti.c ****       regval = (*regaddr & (~(pcrlinepos * pcrlinepos * 3UL))) | (pcrlinepos * pcrlinepos * (pExtiC
 361:./Libraries/STM32H7xx_HAL_Driver/Src/stm32h7xx_hal_exti.c ****       *regaddr = regval;
 362:./Libraries/STM32H7xx_HAL_Driver/Src/stm32h7xx_hal_exti.c ****     }
 363:./Libraries/STM32H7xx_HAL_Driver/Src/stm32h7xx_hal_exti.c ****   }
 364:./Libraries/STM32H7xx_HAL_Driver/Src/stm32h7xx_hal_exti.c **** 
 365:./Libraries/STM32H7xx_HAL_Driver/Src/stm32h7xx_hal_exti.c ****   return HAL_OK;
 258              		.loc 1 365 10 view .LVU116
 259 00a4 0020     		movs	r0, #0
 260              	.LVL30:
 366:./Libraries/STM32H7xx_HAL_Driver/Src/stm32h7xx_hal_exti.c **** }
 261              		.loc 1 366 1 view .LVU117
 262 00a6 BDE8F081 		pop	{r4, r5, r6, r7, r8, pc}
 263              	.LVL31:
 264              	.L29:
 329:./Libraries/STM32H7xx_HAL_Driver/Src/stm32h7xx_hal_exti.c **** 
 265              		.loc 1 329 5 is_stmt 1 view .LVU118
 332:./Libraries/STM32H7xx_HAL_Driver/Src/stm32h7xx_hal_exti.c ****     regval = *regaddr;
 266              		.loc 1 332 5 view .LVU119
 332:./Libraries/STM32H7xx_HAL_Driver/Src/stm32h7xx_hal_exti.c ****     regval = *regaddr;
 267              		.loc 1 332 15 is_stmt 0 view .LVU120
 268 00aa 4201     		lsls	r2, r0, #5
 332:./Libraries/STM32H7xx_HAL_Driver/Src/stm32h7xx_hal_exti.c ****     regval = *regaddr;
 269              		.loc 1 332 13 view .LVU121
 270 00ac 224F     		ldr	r7, .L31+20
 271              	.LVL32:
 333:./Libraries/STM32H7xx_HAL_Driver/Src/stm32h7xx_hal_exti.c **** 
 272              		.loc 1 333 5 is_stmt 1 view .LVU122
 335:./Libraries/STM32H7xx_HAL_Driver/Src/stm32h7xx_hal_exti.c ****     {
 273              		.loc 1 335 7 is_stmt 0 view .LVU123
 274 00ae 0869     		ldr	r0, [r1, #16]
 275              	.LVL33:
 333:./Libraries/STM32H7xx_HAL_Driver/Src/stm32h7xx_hal_exti.c **** 
 276              		.loc 1 333 12 view .LVU124
 277 00b0 D559     		ldr	r5, [r2, r7]
 278              	.LVL34:
 335:./Libraries/STM32H7xx_HAL_Driver/Src/stm32h7xx_hal_exti.c ****     {
 279              		.loc 1 335 5 is_stmt 1 view .LVU125
 335:./Libraries/STM32H7xx_HAL_Driver/Src/stm32h7xx_hal_exti.c ****     {
 280              		.loc 1 335 7 is_stmt 0 view .LVU126
 281 00b2 B8B1     		cbz	r0, .L30
 345:./Libraries/STM32H7xx_HAL_Driver/Src/stm32h7xx_hal_exti.c ****       /* Store D3PMRx register value */
 282              		.loc 1 345 7 is_stmt 1 view .LVU127
 345:./Libraries/STM32H7xx_HAL_Driver/Src/stm32h7xx_hal_exti.c ****       /* Store D3PMRx register value */
ARM GAS  /tmp/cceNacQR.s 			page 13


 283              		.loc 1 345 14 is_stmt 0 view .LVU128
 284 00b4 1D43     		orrs	r5, r5, r3
 285              	.LVL35:
 347:./Libraries/STM32H7xx_HAL_Driver/Src/stm32h7xx_hal_exti.c **** 
 286              		.loc 1 347 7 is_stmt 1 view .LVU129
 349:./Libraries/STM32H7xx_HAL_Driver/Src/stm32h7xx_hal_exti.c ****       {
 287              		.loc 1 349 9 is_stmt 0 view .LVU130
 288 00b6 E006     		lsls	r0, r4, #27
 347:./Libraries/STM32H7xx_HAL_Driver/Src/stm32h7xx_hal_exti.c **** 
 289              		.loc 1 347 16 view .LVU131
 290 00b8 D551     		str	r5, [r2, r7]
 349:./Libraries/STM32H7xx_HAL_Driver/Src/stm32h7xx_hal_exti.c ****       {
 291              		.loc 1 349 7 is_stmt 1 view .LVU132
 349:./Libraries/STM32H7xx_HAL_Driver/Src/stm32h7xx_hal_exti.c ****       {
 292              		.loc 1 349 9 is_stmt 0 view .LVU133
 293 00ba 2CD4     		bmi	.L19
 351:./Libraries/STM32H7xx_HAL_Driver/Src/stm32h7xx_hal_exti.c ****         pcrlinepos = 1UL << linepos;
 294              		.loc 1 351 9 is_stmt 1 view .LVU134
 351:./Libraries/STM32H7xx_HAL_Driver/Src/stm32h7xx_hal_exti.c ****         pcrlinepos = 1UL << linepos;
 295              		.loc 1 351 17 is_stmt 0 view .LVU135
 296 00bc 1F4C     		ldr	r4, .L31+24
 297              	.LVL36:
 351:./Libraries/STM32H7xx_HAL_Driver/Src/stm32h7xx_hal_exti.c ****         pcrlinepos = 1UL << linepos;
 298              		.loc 1 351 17 view .LVU136
 299 00be 1444     		add	r4, r4, r2
 300              	.LVL37:
 352:./Libraries/STM32H7xx_HAL_Driver/Src/stm32h7xx_hal_exti.c ****       }
 301              		.loc 1 352 9 is_stmt 1 view .LVU137
 302              	.L20:
 360:./Libraries/STM32H7xx_HAL_Driver/Src/stm32h7xx_hal_exti.c ****       *regaddr = regval;
 303              		.loc 1 360 7 view .LVU138
 360:./Libraries/STM32H7xx_HAL_Driver/Src/stm32h7xx_hal_exti.c ****       *regaddr = regval;
 304              		.loc 1 360 123 is_stmt 0 view .LVU139
 305 00c0 0969     		ldr	r1, [r1, #16]
 306              	.LVL38:
 360:./Libraries/STM32H7xx_HAL_Driver/Src/stm32h7xx_hal_exti.c ****       *regaddr = regval;
 307              		.loc 1 360 42 view .LVU140
 308 00c2 03FB03F3 		mul	r3, r3, r3
 309              	.LVL39:
 360:./Libraries/STM32H7xx_HAL_Driver/Src/stm32h7xx_hal_exti.c ****       *regaddr = regval;
 310              		.loc 1 360 17 view .LVU141
 311 00c6 2268     		ldr	r2, [r4]
 365:./Libraries/STM32H7xx_HAL_Driver/Src/stm32h7xx_hal_exti.c **** }
 312              		.loc 1 365 10 view .LVU142
 313 00c8 0020     		movs	r0, #0
 360:./Libraries/STM32H7xx_HAL_Driver/Src/stm32h7xx_hal_exti.c ****       *regaddr = regval;
 314              		.loc 1 360 55 view .LVU143
 315 00ca 03EB4305 		add	r5, r3, r3, lsl #1
 316              	.LVL40:
 360:./Libraries/STM32H7xx_HAL_Driver/Src/stm32h7xx_hal_exti.c ****       *regaddr = regval;
 317              		.loc 1 360 123 view .LVU144
 318 00ce 0139     		subs	r1, r1, #1
 360:./Libraries/STM32H7xx_HAL_Driver/Src/stm32h7xx_hal_exti.c ****       *regaddr = regval;
 319              		.loc 1 360 26 view .LVU145
 320 00d0 22EA0502 		bic	r2, r2, r5
 360:./Libraries/STM32H7xx_HAL_Driver/Src/stm32h7xx_hal_exti.c ****       *regaddr = regval;
 321              		.loc 1 360 91 view .LVU146
ARM GAS  /tmp/cceNacQR.s 			page 14


 322 00d4 03FB01F3 		mul	r3, r3, r1
 360:./Libraries/STM32H7xx_HAL_Driver/Src/stm32h7xx_hal_exti.c ****       *regaddr = regval;
 323              		.loc 1 360 14 view .LVU147
 324 00d8 1343     		orrs	r3, r3, r2
 325              	.LVL41:
 361:./Libraries/STM32H7xx_HAL_Driver/Src/stm32h7xx_hal_exti.c ****     }
 326              		.loc 1 361 7 is_stmt 1 view .LVU148
 361:./Libraries/STM32H7xx_HAL_Driver/Src/stm32h7xx_hal_exti.c ****     }
 327              		.loc 1 361 16 is_stmt 0 view .LVU149
 328 00da 2360     		str	r3, [r4]
 329              		.loc 1 366 1 view .LVU150
 330 00dc BDE8F081 		pop	{r4, r5, r6, r7, r8, pc}
 331              	.LVL42:
 332              	.L21:
 333              	.LCFI1:
 334              		.cfi_def_cfa_offset 0
 335              		.cfi_restore 4
 336              		.cfi_restore 5
 337              		.cfi_restore 6
 338              		.cfi_restore 7
 339              		.cfi_restore 8
 340              		.cfi_restore 14
 183:./Libraries/STM32H7xx_HAL_Driver/Src/stm32h7xx_hal_exti.c ****   }
 341              		.loc 1 183 12 view .LVU151
 342 00e0 0120     		movs	r0, #1
 343              	.LVL43:
 344              		.loc 1 366 1 view .LVU152
 345 00e2 7047     		bx	lr
 346              	.LVL44:
 347              	.L30:
 348              	.LCFI2:
 349              		.cfi_def_cfa_offset 24
 350              		.cfi_offset 4, -24
 351              		.cfi_offset 5, -20
 352              		.cfi_offset 6, -16
 353              		.cfi_offset 7, -12
 354              		.cfi_offset 8, -8
 355              		.cfi_offset 14, -4
 338:./Libraries/STM32H7xx_HAL_Driver/Src/stm32h7xx_hal_exti.c ****       /* Store D3PMRx register value */
 356              		.loc 1 338 7 is_stmt 1 view .LVU153
 338:./Libraries/STM32H7xx_HAL_Driver/Src/stm32h7xx_hal_exti.c ****       /* Store D3PMRx register value */
 357              		.loc 1 338 14 is_stmt 0 view .LVU154
 358 00e4 25EA0303 		bic	r3, r5, r3
 359              	.LVL45:
 340:./Libraries/STM32H7xx_HAL_Driver/Src/stm32h7xx_hal_exti.c ****     }
 360              		.loc 1 340 7 is_stmt 1 view .LVU155
 340:./Libraries/STM32H7xx_HAL_Driver/Src/stm32h7xx_hal_exti.c ****     }
 361              		.loc 1 340 16 is_stmt 0 view .LVU156
 362 00e8 D351     		str	r3, [r2, r7]
 363              		.loc 1 366 1 view .LVU157
 364 00ea BDE8F081 		pop	{r4, r5, r6, r7, r8, pc}
 365              	.LVL46:
 366              	.L28:
 240:./Libraries/STM32H7xx_HAL_Driver/Src/stm32h7xx_hal_exti.c ****       assert_param(IS_EXTI_GPIO_PIN(linepos));
 367              		.loc 1 240 7 is_stmt 1 view .LVU158
 241:./Libraries/STM32H7xx_HAL_Driver/Src/stm32h7xx_hal_exti.c **** 
 368              		.loc 1 241 7 view .LVU159
ARM GAS  /tmp/cceNacQR.s 			page 15


 243:./Libraries/STM32H7xx_HAL_Driver/Src/stm32h7xx_hal_exti.c ****       regval &= ~(SYSCFG_EXTICR1_EXTI0 << (SYSCFG_EXTICR1_EXTI1_Pos * (linepos & 0x03U)));
 369              		.loc 1 243 7 view .LVU160
 370 00ee 08F00C05 		and	r5, r8, #12
 371              	.LVL47:
 243:./Libraries/STM32H7xx_HAL_Driver/Src/stm32h7xx_hal_exti.c ****       regval &= ~(SYSCFG_EXTICR1_EXTI0 << (SYSCFG_EXTICR1_EXTI1_Pos * (linepos & 0x03U)));
 372              		.loc 1 243 7 is_stmt 0 view .LVU161
 373 00f2 134F     		ldr	r7, .L31+28
 374              	.LVL48:
 244:./Libraries/STM32H7xx_HAL_Driver/Src/stm32h7xx_hal_exti.c ****       regval |= (pExtiConfig->GPIOSel << (SYSCFG_EXTICR1_EXTI1_Pos * (linepos & 0x03U)));
 375              		.loc 1 244 80 view .LVU162
 376 00f4 04F00302 		and	r2, r4, #3
 244:./Libraries/STM32H7xx_HAL_Driver/Src/stm32h7xx_hal_exti.c ****       regval |= (pExtiConfig->GPIOSel << (SYSCFG_EXTICR1_EXTI1_Pos * (linepos & 0x03U)));
 377              		.loc 1 244 40 view .LVU163
 378 00f8 4FF00F0E 		mov	lr, #15
 379 00fc 2F44     		add	r7, r7, r5
 245:./Libraries/STM32H7xx_HAL_Driver/Src/stm32h7xx_hal_exti.c ****       SYSCFG->EXTICR[(linepos >> 2U) & 0x03UL] = regval;
 380              		.loc 1 245 39 view .LVU164
 381 00fe CE68     		ldr	r6, [r1, #12]
 244:./Libraries/STM32H7xx_HAL_Driver/Src/stm32h7xx_hal_exti.c ****       regval |= (pExtiConfig->GPIOSel << (SYSCFG_EXTICR1_EXTI1_Pos * (linepos & 0x03U)));
 382              		.loc 1 244 69 view .LVU165
 383 0100 9200     		lsls	r2, r2, #2
 243:./Libraries/STM32H7xx_HAL_Driver/Src/stm32h7xx_hal_exti.c ****       regval &= ~(SYSCFG_EXTICR1_EXTI0 << (SYSCFG_EXTICR1_EXTI1_Pos * (linepos & 0x03U)));
 384              		.loc 1 243 14 view .LVU166
 385 0102 BD68     		ldr	r5, [r7, #8]
 386              	.LVL49:
 244:./Libraries/STM32H7xx_HAL_Driver/Src/stm32h7xx_hal_exti.c ****       regval |= (pExtiConfig->GPIOSel << (SYSCFG_EXTICR1_EXTI1_Pos * (linepos & 0x03U)));
 387              		.loc 1 244 7 is_stmt 1 view .LVU167
 244:./Libraries/STM32H7xx_HAL_Driver/Src/stm32h7xx_hal_exti.c ****       regval |= (pExtiConfig->GPIOSel << (SYSCFG_EXTICR1_EXTI1_Pos * (linepos & 0x03U)));
 388              		.loc 1 244 40 is_stmt 0 view .LVU168
 389 0104 0EFA02FE 		lsl	lr, lr, r2
 245:./Libraries/STM32H7xx_HAL_Driver/Src/stm32h7xx_hal_exti.c ****       SYSCFG->EXTICR[(linepos >> 2U) & 0x03UL] = regval;
 390              		.loc 1 245 39 view .LVU169
 391 0108 06FA02F2 		lsl	r2, r6, r2
 244:./Libraries/STM32H7xx_HAL_Driver/Src/stm32h7xx_hal_exti.c ****       regval |= (pExtiConfig->GPIOSel << (SYSCFG_EXTICR1_EXTI1_Pos * (linepos & 0x03U)));
 392              		.loc 1 244 14 view .LVU170
 393 010c 25EA0E05 		bic	r5, r5, lr
 394              	.LVL50:
 245:./Libraries/STM32H7xx_HAL_Driver/Src/stm32h7xx_hal_exti.c ****       SYSCFG->EXTICR[(linepos >> 2U) & 0x03UL] = regval;
 395              		.loc 1 245 7 is_stmt 1 view .LVU171
 245:./Libraries/STM32H7xx_HAL_Driver/Src/stm32h7xx_hal_exti.c ****       SYSCFG->EXTICR[(linepos >> 2U) & 0x03UL] = regval;
 396              		.loc 1 245 14 is_stmt 0 view .LVU172
 397 0110 2A43     		orrs	r2, r2, r5
 398              	.LVL51:
 246:./Libraries/STM32H7xx_HAL_Driver/Src/stm32h7xx_hal_exti.c ****     }
 399              		.loc 1 246 7 is_stmt 1 view .LVU173
 246:./Libraries/STM32H7xx_HAL_Driver/Src/stm32h7xx_hal_exti.c ****     }
 400              		.loc 1 246 48 is_stmt 0 view .LVU174
 401 0112 BA60     		str	r2, [r7, #8]
 402 0114 9FE7     		b	.L4
 403              	.LVL52:
 404              	.L19:
 356:./Libraries/STM32H7xx_HAL_Driver/Src/stm32h7xx_hal_exti.c ****         pcrlinepos = 1UL << (linepos - 16UL);
 405              		.loc 1 356 9 is_stmt 1 view .LVU175
 357:./Libraries/STM32H7xx_HAL_Driver/Src/stm32h7xx_hal_exti.c ****       }
 406              		.loc 1 357 38 is_stmt 0 view .LVU176
 407 0116 A8F11006 		sub	r6, r8, #16
 357:./Libraries/STM32H7xx_HAL_Driver/Src/stm32h7xx_hal_exti.c ****       }
ARM GAS  /tmp/cceNacQR.s 			page 16


 408              		.loc 1 357 20 view .LVU177
 409 011a 0123     		movs	r3, #1
 410              	.LVL53:
 356:./Libraries/STM32H7xx_HAL_Driver/Src/stm32h7xx_hal_exti.c ****         pcrlinepos = 1UL << (linepos - 16UL);
 411              		.loc 1 356 17 view .LVU178
 412 011c 094C     		ldr	r4, .L31+32
 413              	.LVL54:
 357:./Libraries/STM32H7xx_HAL_Driver/Src/stm32h7xx_hal_exti.c ****       }
 414              		.loc 1 357 20 view .LVU179
 415 011e B340     		lsls	r3, r3, r6
 416              	.LVL55:
 356:./Libraries/STM32H7xx_HAL_Driver/Src/stm32h7xx_hal_exti.c ****         pcrlinepos = 1UL << (linepos - 16UL);
 417              		.loc 1 356 17 view .LVU180
 418 0120 1444     		add	r4, r4, r2
 419              	.LVL56:
 357:./Libraries/STM32H7xx_HAL_Driver/Src/stm32h7xx_hal_exti.c ****       }
 420              		.loc 1 357 9 is_stmt 1 view .LVU181
 357:./Libraries/STM32H7xx_HAL_Driver/Src/stm32h7xx_hal_exti.c ****       }
 421              		.loc 1 357 9 is_stmt 0 view .LVU182
 422 0122 CDE7     		b	.L20
 423              	.L32:
 424              		.align	2
 425              	.L31:
 426 0124 04000058 		.word	1476395012
 427 0128 80000058 		.word	1476395136
 428 012c 84000058 		.word	1476395140
 429 0130 C0000058 		.word	1476395200
 430 0134 C4000058 		.word	1476395204
 431 0138 0C000058 		.word	1476395020
 432 013c 10000058 		.word	1476395024
 433 0140 00040058 		.word	1476396032
 434 0144 14000058 		.word	1476395028
 435              		.cfi_endproc
 436              	.LFE331:
 438              		.section	.text.HAL_EXTI_GetConfigLine,"ax",%progbits
 439              		.align	1
 440              		.p2align 2,,3
 441              		.global	HAL_EXTI_GetConfigLine
 442              		.syntax unified
 443              		.thumb
 444              		.thumb_func
 445              		.fpu fpv5-d16
 447              	HAL_EXTI_GetConfigLine:
 448              	.LVL57:
 449              	.LFB332:
 367:./Libraries/STM32H7xx_HAL_Driver/Src/stm32h7xx_hal_exti.c **** 
 368:./Libraries/STM32H7xx_HAL_Driver/Src/stm32h7xx_hal_exti.c **** 
 369:./Libraries/STM32H7xx_HAL_Driver/Src/stm32h7xx_hal_exti.c **** /**
 370:./Libraries/STM32H7xx_HAL_Driver/Src/stm32h7xx_hal_exti.c ****   * @brief  Get configuration of a dedicated Exti line.
 371:./Libraries/STM32H7xx_HAL_Driver/Src/stm32h7xx_hal_exti.c ****   * @param  hexti Exti handle.
 372:./Libraries/STM32H7xx_HAL_Driver/Src/stm32h7xx_hal_exti.c ****   * @param  pExtiConfig Pointer on structure to store Exti configuration.
 373:./Libraries/STM32H7xx_HAL_Driver/Src/stm32h7xx_hal_exti.c ****   * @retval HAL Status.
 374:./Libraries/STM32H7xx_HAL_Driver/Src/stm32h7xx_hal_exti.c ****   */
 375:./Libraries/STM32H7xx_HAL_Driver/Src/stm32h7xx_hal_exti.c **** HAL_StatusTypeDef HAL_EXTI_GetConfigLine(EXTI_HandleTypeDef *hexti, EXTI_ConfigTypeDef *pExtiConfig
 376:./Libraries/STM32H7xx_HAL_Driver/Src/stm32h7xx_hal_exti.c **** {
 450              		.loc 1 376 1 is_stmt 1 view -0
 451              		.cfi_startproc
ARM GAS  /tmp/cceNacQR.s 			page 17


 452              		@ args = 0, pretend = 0, frame = 0
 453              		@ frame_needed = 0, uses_anonymous_args = 0
 454              		@ link register save eliminated.
 377:./Libraries/STM32H7xx_HAL_Driver/Src/stm32h7xx_hal_exti.c ****   __IO uint32_t *regaddr;
 455              		.loc 1 377 3 view .LVU184
 378:./Libraries/STM32H7xx_HAL_Driver/Src/stm32h7xx_hal_exti.c ****   uint32_t regval;
 456              		.loc 1 378 3 view .LVU185
 379:./Libraries/STM32H7xx_HAL_Driver/Src/stm32h7xx_hal_exti.c ****   uint32_t linepos;
 457              		.loc 1 379 3 view .LVU186
 380:./Libraries/STM32H7xx_HAL_Driver/Src/stm32h7xx_hal_exti.c ****   uint32_t maskline;
 458              		.loc 1 380 3 view .LVU187
 381:./Libraries/STM32H7xx_HAL_Driver/Src/stm32h7xx_hal_exti.c ****   uint32_t offset;
 459              		.loc 1 381 3 view .LVU188
 382:./Libraries/STM32H7xx_HAL_Driver/Src/stm32h7xx_hal_exti.c ****   uint32_t pcrlinepos;
 460              		.loc 1 382 3 view .LVU189
 383:./Libraries/STM32H7xx_HAL_Driver/Src/stm32h7xx_hal_exti.c **** 
 384:./Libraries/STM32H7xx_HAL_Driver/Src/stm32h7xx_hal_exti.c ****   /* Check null pointer */
 385:./Libraries/STM32H7xx_HAL_Driver/Src/stm32h7xx_hal_exti.c ****   if ((hexti == NULL) || (pExtiConfig == NULL))
 461              		.loc 1 385 3 view .LVU190
 462              		.loc 1 385 6 is_stmt 0 view .LVU191
 463 0000 0028     		cmp	r0, #0
 464 0002 66D0     		beq	.L48
 465 0004 0029     		cmp	r1, #0
 466 0006 64D0     		beq	.L48
 386:./Libraries/STM32H7xx_HAL_Driver/Src/stm32h7xx_hal_exti.c ****   {
 387:./Libraries/STM32H7xx_HAL_Driver/Src/stm32h7xx_hal_exti.c ****     return HAL_ERROR;
 388:./Libraries/STM32H7xx_HAL_Driver/Src/stm32h7xx_hal_exti.c ****   }
 389:./Libraries/STM32H7xx_HAL_Driver/Src/stm32h7xx_hal_exti.c **** 
 390:./Libraries/STM32H7xx_HAL_Driver/Src/stm32h7xx_hal_exti.c ****   /* Check the parameter */
 391:./Libraries/STM32H7xx_HAL_Driver/Src/stm32h7xx_hal_exti.c ****   assert_param(IS_EXTI_LINE(hexti->Line));
 467              		.loc 1 391 3 is_stmt 1 view .LVU192
 392:./Libraries/STM32H7xx_HAL_Driver/Src/stm32h7xx_hal_exti.c **** 
 393:./Libraries/STM32H7xx_HAL_Driver/Src/stm32h7xx_hal_exti.c ****   /* Store handle line number to configuration structure */
 394:./Libraries/STM32H7xx_HAL_Driver/Src/stm32h7xx_hal_exti.c ****   pExtiConfig->Line = hexti->Line;
 468              		.loc 1 394 3 view .LVU193
 469              		.loc 1 394 28 is_stmt 0 view .LVU194
 470 0008 0268     		ldr	r2, [r0]
 395:./Libraries/STM32H7xx_HAL_Driver/Src/stm32h7xx_hal_exti.c **** 
 396:./Libraries/STM32H7xx_HAL_Driver/Src/stm32h7xx_hal_exti.c ****   /* compute line register offset and line mask */
 397:./Libraries/STM32H7xx_HAL_Driver/Src/stm32h7xx_hal_exti.c ****   offset = ((pExtiConfig->Line & EXTI_REG_MASK) >> EXTI_REG_SHIFT);
 398:./Libraries/STM32H7xx_HAL_Driver/Src/stm32h7xx_hal_exti.c ****   linepos = (pExtiConfig->Line & EXTI_PIN_MASK);
 399:./Libraries/STM32H7xx_HAL_Driver/Src/stm32h7xx_hal_exti.c ****   maskline = (1UL << linepos);
 471              		.loc 1 399 12 view .LVU195
 472 000a 0120     		movs	r0, #1
 473              	.LVL58:
 400:./Libraries/STM32H7xx_HAL_Driver/Src/stm32h7xx_hal_exti.c **** 
 401:./Libraries/STM32H7xx_HAL_Driver/Src/stm32h7xx_hal_exti.c ****   /* 1] Get core mode : interrupt */
 402:./Libraries/STM32H7xx_HAL_Driver/Src/stm32h7xx_hal_exti.c ****   regaddr = (__IO uint32_t *)(&EXTI->IMR1 + (EXTI_MODE_OFFSET * offset));
 403:./Libraries/STM32H7xx_HAL_Driver/Src/stm32h7xx_hal_exti.c ****   regval = *regaddr;
 404:./Libraries/STM32H7xx_HAL_Driver/Src/stm32h7xx_hal_exti.c **** 
 405:./Libraries/STM32H7xx_HAL_Driver/Src/stm32h7xx_hal_exti.c ****   pExtiConfig->Mode = EXTI_MODE_NONE;
 406:./Libraries/STM32H7xx_HAL_Driver/Src/stm32h7xx_hal_exti.c **** 
 407:./Libraries/STM32H7xx_HAL_Driver/Src/stm32h7xx_hal_exti.c ****   /* Check if selected line is enable */
 408:./Libraries/STM32H7xx_HAL_Driver/Src/stm32h7xx_hal_exti.c ****   if ((regval & maskline) != 0x00U)
 409:./Libraries/STM32H7xx_HAL_Driver/Src/stm32h7xx_hal_exti.c ****   {
 410:./Libraries/STM32H7xx_HAL_Driver/Src/stm32h7xx_hal_exti.c ****     pExtiConfig->Mode = EXTI_MODE_INTERRUPT;
 411:./Libraries/STM32H7xx_HAL_Driver/Src/stm32h7xx_hal_exti.c ****   }
ARM GAS  /tmp/cceNacQR.s 			page 18


 412:./Libraries/STM32H7xx_HAL_Driver/Src/stm32h7xx_hal_exti.c **** 
 413:./Libraries/STM32H7xx_HAL_Driver/Src/stm32h7xx_hal_exti.c ****   /* Get event mode */
 414:./Libraries/STM32H7xx_HAL_Driver/Src/stm32h7xx_hal_exti.c ****   regaddr = (__IO uint32_t *)(&EXTI->EMR1 + (EXTI_MODE_OFFSET * offset));
 474              		.loc 1 414 11 view .LVU196
 475 000c DFF820C1 		ldr	ip, .L69+32
 394:./Libraries/STM32H7xx_HAL_Driver/Src/stm32h7xx_hal_exti.c **** 
 476              		.loc 1 394 21 view .LVU197
 477 0010 0A60     		str	r2, [r1]
 397:./Libraries/STM32H7xx_HAL_Driver/Src/stm32h7xx_hal_exti.c ****   linepos = (pExtiConfig->Line & EXTI_PIN_MASK);
 478              		.loc 1 397 3 is_stmt 1 view .LVU198
 376:./Libraries/STM32H7xx_HAL_Driver/Src/stm32h7xx_hal_exti.c ****   __IO uint32_t *regaddr;
 479              		.loc 1 376 1 is_stmt 0 view .LVU199
 480 0012 F0B4     		push	{r4, r5, r6, r7}
 481              	.LCFI3:
 482              		.cfi_def_cfa_offset 16
 483              		.cfi_offset 4, -16
 484              		.cfi_offset 5, -12
 485              		.cfi_offset 6, -8
 486              		.cfi_offset 7, -4
 397:./Libraries/STM32H7xx_HAL_Driver/Src/stm32h7xx_hal_exti.c ****   linepos = (pExtiConfig->Line & EXTI_PIN_MASK);
 487              		.loc 1 397 10 view .LVU200
 488 0014 C2F30146 		ubfx	r6, r2, #16, #2
 489              	.LVL59:
 398:./Libraries/STM32H7xx_HAL_Driver/Src/stm32h7xx_hal_exti.c ****   maskline = (1UL << linepos);
 490              		.loc 1 398 3 is_stmt 1 view .LVU201
 402:./Libraries/STM32H7xx_HAL_Driver/Src/stm32h7xx_hal_exti.c ****   regval = *regaddr;
 491              		.loc 1 402 11 is_stmt 0 view .LVU202
 492 0018 3D4D     		ldr	r5, .L69
 398:./Libraries/STM32H7xx_HAL_Driver/Src/stm32h7xx_hal_exti.c ****   maskline = (1UL << linepos);
 493              		.loc 1 398 11 view .LVU203
 494 001a 02F01F07 		and	r7, r2, #31
 495              	.LVL60:
 399:./Libraries/STM32H7xx_HAL_Driver/Src/stm32h7xx_hal_exti.c **** 
 496              		.loc 1 399 3 is_stmt 1 view .LVU204
 402:./Libraries/STM32H7xx_HAL_Driver/Src/stm32h7xx_hal_exti.c ****   regval = *regaddr;
 497              		.loc 1 402 13 is_stmt 0 view .LVU205
 498 001e 3401     		lsls	r4, r6, #4
 399:./Libraries/STM32H7xx_HAL_Driver/Src/stm32h7xx_hal_exti.c **** 
 499              		.loc 1 399 12 view .LVU206
 500 0020 00FA07F3 		lsl	r3, r0, r7
 501              	.LVL61:
 402:./Libraries/STM32H7xx_HAL_Driver/Src/stm32h7xx_hal_exti.c ****   regval = *regaddr;
 502              		.loc 1 402 3 is_stmt 1 view .LVU207
 403:./Libraries/STM32H7xx_HAL_Driver/Src/stm32h7xx_hal_exti.c **** 
 503              		.loc 1 403 3 view .LVU208
 403:./Libraries/STM32H7xx_HAL_Driver/Src/stm32h7xx_hal_exti.c **** 
 504              		.loc 1 403 10 is_stmt 0 view .LVU209
 505 0024 6559     		ldr	r5, [r4, r5]
 506              	.LVL62:
 405:./Libraries/STM32H7xx_HAL_Driver/Src/stm32h7xx_hal_exti.c **** 
 507              		.loc 1 405 3 is_stmt 1 view .LVU210
 408:./Libraries/STM32H7xx_HAL_Driver/Src/stm32h7xx_hal_exti.c ****   {
 508              		.loc 1 408 3 view .LVU211
 405:./Libraries/STM32H7xx_HAL_Driver/Src/stm32h7xx_hal_exti.c **** 
 509              		.loc 1 405 21 is_stmt 0 view .LVU212
 510 0026 1D40     		ands	r5, r3, r5
 511              	.LVL63:
ARM GAS  /tmp/cceNacQR.s 			page 19


 405:./Libraries/STM32H7xx_HAL_Driver/Src/stm32h7xx_hal_exti.c **** 
 512              		.loc 1 405 21 view .LVU213
 513 0028 08BF     		it	eq
 514 002a 2846     		moveq	r0, r5
 515 002c 4860     		str	r0, [r1, #4]
 516              		.loc 1 414 3 is_stmt 1 view .LVU214
 517              	.LVL64:
 415:./Libraries/STM32H7xx_HAL_Driver/Src/stm32h7xx_hal_exti.c ****   regval = *regaddr;
 518              		.loc 1 415 3 view .LVU215
 519              		.loc 1 415 10 is_stmt 0 view .LVU216
 520 002e 54F80C50 		ldr	r5, [r4, ip]
 521              	.LVL65:
 416:./Libraries/STM32H7xx_HAL_Driver/Src/stm32h7xx_hal_exti.c **** 
 417:./Libraries/STM32H7xx_HAL_Driver/Src/stm32h7xx_hal_exti.c ****   /* Check if selected line is enable */
 418:./Libraries/STM32H7xx_HAL_Driver/Src/stm32h7xx_hal_exti.c ****   if ((regval & maskline) != 0x00U)
 522              		.loc 1 418 3 is_stmt 1 view .LVU217
 523              		.loc 1 418 6 is_stmt 0 view .LVU218
 524 0032 2B42     		tst	r3, r5
 525 0034 02D0     		beq	.L37
 419:./Libraries/STM32H7xx_HAL_Driver/Src/stm32h7xx_hal_exti.c ****   {
 420:./Libraries/STM32H7xx_HAL_Driver/Src/stm32h7xx_hal_exti.c ****     pExtiConfig->Mode |= EXTI_MODE_EVENT;
 526              		.loc 1 420 5 is_stmt 1 view .LVU219
 527              		.loc 1 420 23 is_stmt 0 view .LVU220
 528 0036 40F00200 		orr	r0, r0, #2
 529 003a 4860     		str	r0, [r1, #4]
 530              	.L37:
 421:./Libraries/STM32H7xx_HAL_Driver/Src/stm32h7xx_hal_exti.c ****   }
 422:./Libraries/STM32H7xx_HAL_Driver/Src/stm32h7xx_hal_exti.c **** #if defined (DUAL_CORE)
 423:./Libraries/STM32H7xx_HAL_Driver/Src/stm32h7xx_hal_exti.c ****   regaddr = (__IO uint32_t *)(&EXTI->C2IMR1 + (EXTI_MODE_OFFSET * offset));
 531              		.loc 1 423 3 is_stmt 1 view .LVU221
 532              		.loc 1 423 11 is_stmt 0 view .LVU222
 533 003c 3548     		ldr	r0, .L69+4
 534              	.LVL66:
 424:./Libraries/STM32H7xx_HAL_Driver/Src/stm32h7xx_hal_exti.c ****   regval = *regaddr;
 535              		.loc 1 424 3 is_stmt 1 view .LVU223
 536              		.loc 1 424 10 is_stmt 0 view .LVU224
 537 003e 2058     		ldr	r0, [r4, r0]
 538              	.LVL67:
 425:./Libraries/STM32H7xx_HAL_Driver/Src/stm32h7xx_hal_exti.c **** 
 426:./Libraries/STM32H7xx_HAL_Driver/Src/stm32h7xx_hal_exti.c ****   /* Check if selected line is enable */
 427:./Libraries/STM32H7xx_HAL_Driver/Src/stm32h7xx_hal_exti.c ****   if ((regval & maskline) != 0x00U)
 539              		.loc 1 427 3 is_stmt 1 view .LVU225
 540              		.loc 1 427 6 is_stmt 0 view .LVU226
 541 0040 0342     		tst	r3, r0
 542 0042 01D0     		beq	.L38
 428:./Libraries/STM32H7xx_HAL_Driver/Src/stm32h7xx_hal_exti.c ****   {
 429:./Libraries/STM32H7xx_HAL_Driver/Src/stm32h7xx_hal_exti.c ****     pExtiConfig->Mode = EXTI_MODE_CORE2_INTERRUPT;
 543              		.loc 1 429 5 is_stmt 1 view .LVU227
 544              		.loc 1 429 23 is_stmt 0 view .LVU228
 545 0044 1020     		movs	r0, #16
 546              	.LVL68:
 547              		.loc 1 429 23 view .LVU229
 548 0046 4860     		str	r0, [r1, #4]
 549              	.L38:
 430:./Libraries/STM32H7xx_HAL_Driver/Src/stm32h7xx_hal_exti.c ****   }
 431:./Libraries/STM32H7xx_HAL_Driver/Src/stm32h7xx_hal_exti.c **** 
 432:./Libraries/STM32H7xx_HAL_Driver/Src/stm32h7xx_hal_exti.c ****   /* Get event mode */
ARM GAS  /tmp/cceNacQR.s 			page 20


 433:./Libraries/STM32H7xx_HAL_Driver/Src/stm32h7xx_hal_exti.c ****   regaddr = (__IO uint32_t *)(&EXTI->C2EMR1 + (EXTI_MODE_OFFSET * offset));
 550              		.loc 1 433 3 is_stmt 1 view .LVU230
 551              		.loc 1 433 11 is_stmt 0 view .LVU231
 552 0048 3348     		ldr	r0, .L69+8
 553              	.LVL69:
 434:./Libraries/STM32H7xx_HAL_Driver/Src/stm32h7xx_hal_exti.c ****   regval = *regaddr;
 554              		.loc 1 434 3 is_stmt 1 view .LVU232
 555              		.loc 1 434 10 is_stmt 0 view .LVU233
 556 004a 2058     		ldr	r0, [r4, r0]
 557              	.LVL70:
 435:./Libraries/STM32H7xx_HAL_Driver/Src/stm32h7xx_hal_exti.c **** 
 436:./Libraries/STM32H7xx_HAL_Driver/Src/stm32h7xx_hal_exti.c ****   /* Check if selected line is enable */
 437:./Libraries/STM32H7xx_HAL_Driver/Src/stm32h7xx_hal_exti.c ****   if ((regval & maskline) != 0x00U)
 558              		.loc 1 437 3 is_stmt 1 view .LVU234
 559              		.loc 1 437 6 is_stmt 0 view .LVU235
 560 004c 0342     		tst	r3, r0
 561 004e 03D0     		beq	.L39
 438:./Libraries/STM32H7xx_HAL_Driver/Src/stm32h7xx_hal_exti.c ****   {
 439:./Libraries/STM32H7xx_HAL_Driver/Src/stm32h7xx_hal_exti.c ****     pExtiConfig->Mode |= EXTI_MODE_CORE2_EVENT;
 562              		.loc 1 439 5 is_stmt 1 view .LVU236
 563              		.loc 1 439 23 is_stmt 0 view .LVU237
 564 0050 4868     		ldr	r0, [r1, #4]
 565              	.LVL71:
 566              		.loc 1 439 23 view .LVU238
 567 0052 40F02000 		orr	r0, r0, #32
 568 0056 4860     		str	r0, [r1, #4]
 569              	.L39:
 440:./Libraries/STM32H7xx_HAL_Driver/Src/stm32h7xx_hal_exti.c ****   }
 441:./Libraries/STM32H7xx_HAL_Driver/Src/stm32h7xx_hal_exti.c **** #endif /*DUAL_CORE*/
 442:./Libraries/STM32H7xx_HAL_Driver/Src/stm32h7xx_hal_exti.c **** 
 443:./Libraries/STM32H7xx_HAL_Driver/Src/stm32h7xx_hal_exti.c ****   /* 2] Get trigger for configurable lines : rising */
 444:./Libraries/STM32H7xx_HAL_Driver/Src/stm32h7xx_hal_exti.c ****   if ((pExtiConfig->Line & EXTI_CONFIG) != 0x00U)
 570              		.loc 1 444 3 is_stmt 1 view .LVU239
 571              		.loc 1 444 6 is_stmt 0 view .LVU240
 572 0058 12F00070 		ands	r0, r2, #33554432
 573 005c 0AD1     		bne	.L65
 445:./Libraries/STM32H7xx_HAL_Driver/Src/stm32h7xx_hal_exti.c ****   {
 446:./Libraries/STM32H7xx_HAL_Driver/Src/stm32h7xx_hal_exti.c ****     regaddr = (__IO uint32_t *)(&EXTI->RTSR1 + (EXTI_CONFIG_OFFSET * offset));
 447:./Libraries/STM32H7xx_HAL_Driver/Src/stm32h7xx_hal_exti.c ****     regval = *regaddr;
 448:./Libraries/STM32H7xx_HAL_Driver/Src/stm32h7xx_hal_exti.c **** 
 449:./Libraries/STM32H7xx_HAL_Driver/Src/stm32h7xx_hal_exti.c ****     /* Check if configuration of selected line is enable */
 450:./Libraries/STM32H7xx_HAL_Driver/Src/stm32h7xx_hal_exti.c ****     if ((regval & maskline) != 0x00U)
 451:./Libraries/STM32H7xx_HAL_Driver/Src/stm32h7xx_hal_exti.c ****     {
 452:./Libraries/STM32H7xx_HAL_Driver/Src/stm32h7xx_hal_exti.c ****       pExtiConfig->Trigger = EXTI_TRIGGER_RISING;
 453:./Libraries/STM32H7xx_HAL_Driver/Src/stm32h7xx_hal_exti.c ****     }
 454:./Libraries/STM32H7xx_HAL_Driver/Src/stm32h7xx_hal_exti.c ****     else
 455:./Libraries/STM32H7xx_HAL_Driver/Src/stm32h7xx_hal_exti.c ****     {
 456:./Libraries/STM32H7xx_HAL_Driver/Src/stm32h7xx_hal_exti.c ****       pExtiConfig->Trigger = EXTI_TRIGGER_NONE;
 457:./Libraries/STM32H7xx_HAL_Driver/Src/stm32h7xx_hal_exti.c ****     }
 458:./Libraries/STM32H7xx_HAL_Driver/Src/stm32h7xx_hal_exti.c **** 
 459:./Libraries/STM32H7xx_HAL_Driver/Src/stm32h7xx_hal_exti.c ****     /* Get falling configuration */
 460:./Libraries/STM32H7xx_HAL_Driver/Src/stm32h7xx_hal_exti.c ****     regaddr = (__IO uint32_t *)(&EXTI->FTSR1 + (EXTI_CONFIG_OFFSET * offset));
 461:./Libraries/STM32H7xx_HAL_Driver/Src/stm32h7xx_hal_exti.c ****     regval = *regaddr;
 462:./Libraries/STM32H7xx_HAL_Driver/Src/stm32h7xx_hal_exti.c **** 
 463:./Libraries/STM32H7xx_HAL_Driver/Src/stm32h7xx_hal_exti.c ****     /* Check if configuration of selected line is enable */
 464:./Libraries/STM32H7xx_HAL_Driver/Src/stm32h7xx_hal_exti.c ****     if ((regval & maskline) != 0x00U)
 465:./Libraries/STM32H7xx_HAL_Driver/Src/stm32h7xx_hal_exti.c ****     {
ARM GAS  /tmp/cceNacQR.s 			page 21


 466:./Libraries/STM32H7xx_HAL_Driver/Src/stm32h7xx_hal_exti.c ****       pExtiConfig->Trigger |= EXTI_TRIGGER_FALLING;
 467:./Libraries/STM32H7xx_HAL_Driver/Src/stm32h7xx_hal_exti.c ****     }
 468:./Libraries/STM32H7xx_HAL_Driver/Src/stm32h7xx_hal_exti.c **** 
 469:./Libraries/STM32H7xx_HAL_Driver/Src/stm32h7xx_hal_exti.c ****     /* Get Gpio port selection for gpio lines */
 470:./Libraries/STM32H7xx_HAL_Driver/Src/stm32h7xx_hal_exti.c ****     if ((pExtiConfig->Line & EXTI_GPIO) == EXTI_GPIO)
 471:./Libraries/STM32H7xx_HAL_Driver/Src/stm32h7xx_hal_exti.c ****     {
 472:./Libraries/STM32H7xx_HAL_Driver/Src/stm32h7xx_hal_exti.c ****       assert_param(IS_EXTI_GPIO_PIN(linepos));
 473:./Libraries/STM32H7xx_HAL_Driver/Src/stm32h7xx_hal_exti.c **** 
 474:./Libraries/STM32H7xx_HAL_Driver/Src/stm32h7xx_hal_exti.c ****       regval = SYSCFG->EXTICR[(linepos >> 2U) & 0x03UL];
 475:./Libraries/STM32H7xx_HAL_Driver/Src/stm32h7xx_hal_exti.c ****       pExtiConfig->GPIOSel = ((regval << (SYSCFG_EXTICR1_EXTI1_Pos * (3UL - (linepos & 0x03UL)))) >
 476:./Libraries/STM32H7xx_HAL_Driver/Src/stm32h7xx_hal_exti.c ****     }
 477:./Libraries/STM32H7xx_HAL_Driver/Src/stm32h7xx_hal_exti.c ****     else
 478:./Libraries/STM32H7xx_HAL_Driver/Src/stm32h7xx_hal_exti.c ****     {
 479:./Libraries/STM32H7xx_HAL_Driver/Src/stm32h7xx_hal_exti.c ****       pExtiConfig->GPIOSel = 0x00U;
 480:./Libraries/STM32H7xx_HAL_Driver/Src/stm32h7xx_hal_exti.c ****     }
 481:./Libraries/STM32H7xx_HAL_Driver/Src/stm32h7xx_hal_exti.c ****   }
 482:./Libraries/STM32H7xx_HAL_Driver/Src/stm32h7xx_hal_exti.c ****   else
 483:./Libraries/STM32H7xx_HAL_Driver/Src/stm32h7xx_hal_exti.c ****   {
 484:./Libraries/STM32H7xx_HAL_Driver/Src/stm32h7xx_hal_exti.c ****     pExtiConfig->Trigger = EXTI_TRIGGER_NONE;
 574              		.loc 1 484 5 is_stmt 1 view .LVU241
 485:./Libraries/STM32H7xx_HAL_Driver/Src/stm32h7xx_hal_exti.c ****     pExtiConfig->GPIOSel = 0x00U;
 575              		.loc 1 485 26 is_stmt 0 view .LVU242
 576 005e C1E90200 		strd	r0, r0, [r1, #8]
 577              	.LVL72:
 578              	.L43:
 486:./Libraries/STM32H7xx_HAL_Driver/Src/stm32h7xx_hal_exti.c ****   }
 487:./Libraries/STM32H7xx_HAL_Driver/Src/stm32h7xx_hal_exti.c **** 
 488:./Libraries/STM32H7xx_HAL_Driver/Src/stm32h7xx_hal_exti.c ****   /* 3] Get D3 Pend Clear source */
 489:./Libraries/STM32H7xx_HAL_Driver/Src/stm32h7xx_hal_exti.c ****   if ((pExtiConfig->Line & EXTI_TARGET_MASK) == EXTI_TARGET_MSK_ALL)
 579              		.loc 1 489 3 is_stmt 1 view .LVU243
 580              		.loc 1 489 26 is_stmt 0 view .LVU244
 581 0062 02F4E000 		and	r0, r2, #7340032
 582              		.loc 1 489 6 view .LVU245
 583 0066 B0F5E00F 		cmp	r0, #7340032
 584 006a 1CD0     		beq	.L66
 585              	.LVL73:
 586              	.L44:
 490:./Libraries/STM32H7xx_HAL_Driver/Src/stm32h7xx_hal_exti.c ****   {
 491:./Libraries/STM32H7xx_HAL_Driver/Src/stm32h7xx_hal_exti.c ****     regaddr = (__IO uint32_t *)(&EXTI->D3PMR1 + (EXTI_CONFIG_OFFSET * offset));
 492:./Libraries/STM32H7xx_HAL_Driver/Src/stm32h7xx_hal_exti.c ****     if(((*regaddr) & linepos) == 0UL)
 493:./Libraries/STM32H7xx_HAL_Driver/Src/stm32h7xx_hal_exti.c ****     {
 494:./Libraries/STM32H7xx_HAL_Driver/Src/stm32h7xx_hal_exti.c ****       /* if PMR unset, then no pend clear source is used */
 495:./Libraries/STM32H7xx_HAL_Driver/Src/stm32h7xx_hal_exti.c ****       pExtiConfig->PendClearSource = EXTI_D3_PENDCLR_SRC_NONE;
 587              		.loc 1 495 7 is_stmt 1 view .LVU246
 588              		.loc 1 495 36 is_stmt 0 view .LVU247
 589 006c 0020     		movs	r0, #0
 496:./Libraries/STM32H7xx_HAL_Driver/Src/stm32h7xx_hal_exti.c ****     }
 497:./Libraries/STM32H7xx_HAL_Driver/Src/stm32h7xx_hal_exti.c ****     else
 498:./Libraries/STM32H7xx_HAL_Driver/Src/stm32h7xx_hal_exti.c ****     {
 499:./Libraries/STM32H7xx_HAL_Driver/Src/stm32h7xx_hal_exti.c ****       /* if wakeup target is any and PMR set, the read pend clear source from  D3PCRxL/H */
 500:./Libraries/STM32H7xx_HAL_Driver/Src/stm32h7xx_hal_exti.c ****       if(linepos < 16UL)
 501:./Libraries/STM32H7xx_HAL_Driver/Src/stm32h7xx_hal_exti.c ****       {
 502:./Libraries/STM32H7xx_HAL_Driver/Src/stm32h7xx_hal_exti.c ****         regaddr = (__IO uint32_t *)(&EXTI->D3PCR1L + (EXTI_CONFIG_OFFSET * offset));
 503:./Libraries/STM32H7xx_HAL_Driver/Src/stm32h7xx_hal_exti.c ****         pcrlinepos = 1UL << linepos;
 504:./Libraries/STM32H7xx_HAL_Driver/Src/stm32h7xx_hal_exti.c ****       }
 505:./Libraries/STM32H7xx_HAL_Driver/Src/stm32h7xx_hal_exti.c ****       else
 506:./Libraries/STM32H7xx_HAL_Driver/Src/stm32h7xx_hal_exti.c ****       {
ARM GAS  /tmp/cceNacQR.s 			page 22


 507:./Libraries/STM32H7xx_HAL_Driver/Src/stm32h7xx_hal_exti.c ****         regaddr = (__IO uint32_t *)(&EXTI->D3PCR1H + (EXTI_CONFIG_OFFSET * offset));
 508:./Libraries/STM32H7xx_HAL_Driver/Src/stm32h7xx_hal_exti.c ****         pcrlinepos = 1UL << (linepos - 16UL);
 509:./Libraries/STM32H7xx_HAL_Driver/Src/stm32h7xx_hal_exti.c ****       }
 510:./Libraries/STM32H7xx_HAL_Driver/Src/stm32h7xx_hal_exti.c **** 
 511:./Libraries/STM32H7xx_HAL_Driver/Src/stm32h7xx_hal_exti.c ****       pExtiConfig->PendClearSource = 1UL + ((*regaddr & (pcrlinepos * pcrlinepos * 3UL)) / (pcrline
 512:./Libraries/STM32H7xx_HAL_Driver/Src/stm32h7xx_hal_exti.c ****     }
 513:./Libraries/STM32H7xx_HAL_Driver/Src/stm32h7xx_hal_exti.c ****   }
 514:./Libraries/STM32H7xx_HAL_Driver/Src/stm32h7xx_hal_exti.c ****   else
 515:./Libraries/STM32H7xx_HAL_Driver/Src/stm32h7xx_hal_exti.c ****   {
 516:./Libraries/STM32H7xx_HAL_Driver/Src/stm32h7xx_hal_exti.c ****     /* if line wakeup target is not any, then no pend clear source is used  */
 517:./Libraries/STM32H7xx_HAL_Driver/Src/stm32h7xx_hal_exti.c ****     pExtiConfig->PendClearSource = EXTI_D3_PENDCLR_SRC_NONE;
 518:./Libraries/STM32H7xx_HAL_Driver/Src/stm32h7xx_hal_exti.c ****   }
 519:./Libraries/STM32H7xx_HAL_Driver/Src/stm32h7xx_hal_exti.c **** 
 520:./Libraries/STM32H7xx_HAL_Driver/Src/stm32h7xx_hal_exti.c ****   return HAL_OK;
 521:./Libraries/STM32H7xx_HAL_Driver/Src/stm32h7xx_hal_exti.c **** }
 590              		.loc 1 521 1 view .LVU248
 591 006e F0BC     		pop	{r4, r5, r6, r7}
 592              	.LCFI4:
 593              		.cfi_remember_state
 594              		.cfi_restore 7
 595              		.cfi_restore 6
 596              		.cfi_restore 5
 597              		.cfi_restore 4
 598              		.cfi_def_cfa_offset 0
 599              	.LVL74:
 495:./Libraries/STM32H7xx_HAL_Driver/Src/stm32h7xx_hal_exti.c ****     }
 600              		.loc 1 495 36 view .LVU249
 601 0070 0861     		str	r0, [r1, #16]
 602              		.loc 1 521 1 view .LVU250
 603 0072 7047     		bx	lr
 604              	.LVL75:
 605              	.L65:
 606              	.LCFI5:
 607              		.cfi_restore_state
 446:./Libraries/STM32H7xx_HAL_Driver/Src/stm32h7xx_hal_exti.c ****     regval = *regaddr;
 608              		.loc 1 446 5 is_stmt 1 view .LVU251
 446:./Libraries/STM32H7xx_HAL_Driver/Src/stm32h7xx_hal_exti.c ****     regval = *regaddr;
 609              		.loc 1 446 15 is_stmt 0 view .LVU252
 610 0074 7001     		lsls	r0, r6, #5
 460:./Libraries/STM32H7xx_HAL_Driver/Src/stm32h7xx_hal_exti.c ****     regval = *regaddr;
 611              		.loc 1 460 13 view .LVU253
 612 0076 294D     		ldr	r5, .L69+12
 446:./Libraries/STM32H7xx_HAL_Driver/Src/stm32h7xx_hal_exti.c ****     regval = *regaddr;
 613              		.loc 1 446 13 view .LVU254
 614 0078 00F1B044 		add	r4, r0, #1476395008
 615              	.LVL76:
 447:./Libraries/STM32H7xx_HAL_Driver/Src/stm32h7xx_hal_exti.c **** 
 616              		.loc 1 447 5 is_stmt 1 view .LVU255
 447:./Libraries/STM32H7xx_HAL_Driver/Src/stm32h7xx_hal_exti.c **** 
 617              		.loc 1 447 12 is_stmt 0 view .LVU256
 618 007c 2468     		ldr	r4, [r4]
 619              	.LVL77:
 450:./Libraries/STM32H7xx_HAL_Driver/Src/stm32h7xx_hal_exti.c ****     {
 620              		.loc 1 450 5 is_stmt 1 view .LVU257
 450:./Libraries/STM32H7xx_HAL_Driver/Src/stm32h7xx_hal_exti.c ****     {
 621              		.loc 1 450 8 is_stmt 0 view .LVU258
 622 007e 2342     		tst	r3, r4
ARM GAS  /tmp/cceNacQR.s 			page 23


 623 0080 14BF     		ite	ne
 624 0082 0124     		movne	r4, #1
 625              	.LVL78:
 450:./Libraries/STM32H7xx_HAL_Driver/Src/stm32h7xx_hal_exti.c ****     {
 626              		.loc 1 450 8 view .LVU259
 627 0084 0024     		moveq	r4, #0
 628 0086 8C60     		str	r4, [r1, #8]
 460:./Libraries/STM32H7xx_HAL_Driver/Src/stm32h7xx_hal_exti.c ****     regval = *regaddr;
 629              		.loc 1 460 5 is_stmt 1 view .LVU260
 630              	.LVL79:
 461:./Libraries/STM32H7xx_HAL_Driver/Src/stm32h7xx_hal_exti.c **** 
 631              		.loc 1 461 5 view .LVU261
 461:./Libraries/STM32H7xx_HAL_Driver/Src/stm32h7xx_hal_exti.c **** 
 632              		.loc 1 461 12 is_stmt 0 view .LVU262
 633 0088 4059     		ldr	r0, [r0, r5]
 634              	.LVL80:
 464:./Libraries/STM32H7xx_HAL_Driver/Src/stm32h7xx_hal_exti.c ****     {
 635              		.loc 1 464 5 is_stmt 1 view .LVU263
 464:./Libraries/STM32H7xx_HAL_Driver/Src/stm32h7xx_hal_exti.c ****     {
 636              		.loc 1 464 8 is_stmt 0 view .LVU264
 637 008a 0342     		tst	r3, r0
 638 008c 23D1     		bne	.L67
 470:./Libraries/STM32H7xx_HAL_Driver/Src/stm32h7xx_hal_exti.c ****     {
 639              		.loc 1 470 5 is_stmt 1 view .LVU265
 470:./Libraries/STM32H7xx_HAL_Driver/Src/stm32h7xx_hal_exti.c ****     {
 640              		.loc 1 470 28 is_stmt 0 view .LVU266
 641 008e 02F0C060 		and	r0, r2, #100663296
 642              	.LVL81:
 470:./Libraries/STM32H7xx_HAL_Driver/Src/stm32h7xx_hal_exti.c ****     {
 643              		.loc 1 470 8 view .LVU267
 644 0092 B0F1C06F 		cmp	r0, #100663296
 645 0096 26D0     		beq	.L68
 646              	.L42:
 479:./Libraries/STM32H7xx_HAL_Driver/Src/stm32h7xx_hal_exti.c ****     }
 647              		.loc 1 479 7 is_stmt 1 view .LVU268
 479:./Libraries/STM32H7xx_HAL_Driver/Src/stm32h7xx_hal_exti.c ****     }
 648              		.loc 1 479 28 is_stmt 0 view .LVU269
 649 0098 0020     		movs	r0, #0
 650 009a C860     		str	r0, [r1, #12]
 489:./Libraries/STM32H7xx_HAL_Driver/Src/stm32h7xx_hal_exti.c ****   {
 651              		.loc 1 489 3 is_stmt 1 view .LVU270
 489:./Libraries/STM32H7xx_HAL_Driver/Src/stm32h7xx_hal_exti.c ****   {
 652              		.loc 1 489 26 is_stmt 0 view .LVU271
 653 009c 02F4E000 		and	r0, r2, #7340032
 489:./Libraries/STM32H7xx_HAL_Driver/Src/stm32h7xx_hal_exti.c ****   {
 654              		.loc 1 489 6 view .LVU272
 655 00a0 B0F5E00F 		cmp	r0, #7340032
 656 00a4 E2D1     		bne	.L44
 657              	.LVL82:
 658              	.L66:
 491:./Libraries/STM32H7xx_HAL_Driver/Src/stm32h7xx_hal_exti.c ****     if(((*regaddr) & linepos) == 0UL)
 659              		.loc 1 491 5 is_stmt 1 view .LVU273
 491:./Libraries/STM32H7xx_HAL_Driver/Src/stm32h7xx_hal_exti.c ****     if(((*regaddr) & linepos) == 0UL)
 660              		.loc 1 491 15 is_stmt 0 view .LVU274
 661 00a6 7601     		lsls	r6, r6, #5
 662              	.LVL83:
 491:./Libraries/STM32H7xx_HAL_Driver/Src/stm32h7xx_hal_exti.c ****     if(((*regaddr) & linepos) == 0UL)
ARM GAS  /tmp/cceNacQR.s 			page 24


 663              		.loc 1 491 13 view .LVU275
 664 00a8 1D48     		ldr	r0, .L69+16
 665              	.LVL84:
 492:./Libraries/STM32H7xx_HAL_Driver/Src/stm32h7xx_hal_exti.c ****     {
 666              		.loc 1 492 5 is_stmt 1 view .LVU276
 492:./Libraries/STM32H7xx_HAL_Driver/Src/stm32h7xx_hal_exti.c ****     {
 667              		.loc 1 492 10 is_stmt 0 view .LVU277
 668 00aa 3058     		ldr	r0, [r6, r0]
 669              	.LVL85:
 492:./Libraries/STM32H7xx_HAL_Driver/Src/stm32h7xx_hal_exti.c ****     {
 670              		.loc 1 492 7 view .LVU278
 671 00ac 3842     		tst	r0, r7
 672 00ae DDD0     		beq	.L44
 500:./Libraries/STM32H7xx_HAL_Driver/Src/stm32h7xx_hal_exti.c ****       {
 673              		.loc 1 500 7 is_stmt 1 view .LVU279
 500:./Libraries/STM32H7xx_HAL_Driver/Src/stm32h7xx_hal_exti.c ****       {
 674              		.loc 1 500 9 is_stmt 0 view .LVU280
 675 00b0 D206     		lsls	r2, r2, #27
 676              	.LVL86:
 500:./Libraries/STM32H7xx_HAL_Driver/Src/stm32h7xx_hal_exti.c ****       {
 677              		.loc 1 500 9 view .LVU281
 678 00b2 27D4     		bmi	.L46
 502:./Libraries/STM32H7xx_HAL_Driver/Src/stm32h7xx_hal_exti.c ****         pcrlinepos = 1UL << linepos;
 679              		.loc 1 502 9 is_stmt 1 view .LVU282
 502:./Libraries/STM32H7xx_HAL_Driver/Src/stm32h7xx_hal_exti.c ****         pcrlinepos = 1UL << linepos;
 680              		.loc 1 502 17 is_stmt 0 view .LVU283
 681 00b4 1B4A     		ldr	r2, .L69+20
 682 00b6 3244     		add	r2, r2, r6
 683              	.LVL87:
 503:./Libraries/STM32H7xx_HAL_Driver/Src/stm32h7xx_hal_exti.c ****       }
 684              		.loc 1 503 9 is_stmt 1 view .LVU284
 685              	.L47:
 511:./Libraries/STM32H7xx_HAL_Driver/Src/stm32h7xx_hal_exti.c ****     }
 686              		.loc 1 511 7 view .LVU285
 511:./Libraries/STM32H7xx_HAL_Driver/Src/stm32h7xx_hal_exti.c ****     }
 687              		.loc 1 511 69 is_stmt 0 view .LVU286
 688 00b8 03FB03F3 		mul	r3, r3, r3
 689              	.LVL88:
 511:./Libraries/STM32H7xx_HAL_Driver/Src/stm32h7xx_hal_exti.c ****     }
 690              		.loc 1 511 46 view .LVU287
 691 00bc 1468     		ldr	r4, [r2]
 520:./Libraries/STM32H7xx_HAL_Driver/Src/stm32h7xx_hal_exti.c **** }
 692              		.loc 1 520 10 view .LVU288
 693 00be 0020     		movs	r0, #0
 511:./Libraries/STM32H7xx_HAL_Driver/Src/stm32h7xx_hal_exti.c ****     }
 694              		.loc 1 511 82 view .LVU289
 695 00c0 03EB4302 		add	r2, r3, r3, lsl #1
 696              	.LVL89:
 511:./Libraries/STM32H7xx_HAL_Driver/Src/stm32h7xx_hal_exti.c ****     }
 697              		.loc 1 511 55 view .LVU290
 698 00c4 2240     		ands	r2, r2, r4
 511:./Libraries/STM32H7xx_HAL_Driver/Src/stm32h7xx_hal_exti.c ****     }
 699              		.loc 1 511 90 view .LVU291
 700 00c6 B2FBF3F3 		udiv	r3, r2, r3
 511:./Libraries/STM32H7xx_HAL_Driver/Src/stm32h7xx_hal_exti.c ****     }
 701              		.loc 1 511 42 view .LVU292
 702 00ca 0133     		adds	r3, r3, #1
ARM GAS  /tmp/cceNacQR.s 			page 25


 703              		.loc 1 521 1 view .LVU293
 704 00cc F0BC     		pop	{r4, r5, r6, r7}
 705              	.LCFI6:
 706              		.cfi_restore 7
 707              		.cfi_restore 6
 708              		.cfi_restore 5
 709              		.cfi_restore 4
 710              		.cfi_def_cfa_offset 0
 511:./Libraries/STM32H7xx_HAL_Driver/Src/stm32h7xx_hal_exti.c ****     }
 711              		.loc 1 511 36 view .LVU294
 712 00ce 0B61     		str	r3, [r1, #16]
 713              		.loc 1 521 1 view .LVU295
 714 00d0 7047     		bx	lr
 715              	.LVL90:
 716              	.L48:
 387:./Libraries/STM32H7xx_HAL_Driver/Src/stm32h7xx_hal_exti.c ****   }
 717              		.loc 1 387 12 view .LVU296
 718 00d2 0120     		movs	r0, #1
 719              	.LVL91:
 720              		.loc 1 521 1 view .LVU297
 721 00d4 7047     		bx	lr
 722              	.LVL92:
 723              	.L67:
 724              	.LCFI7:
 725              		.cfi_def_cfa_offset 16
 726              		.cfi_offset 4, -16
 727              		.cfi_offset 5, -12
 728              		.cfi_offset 6, -8
 729              		.cfi_offset 7, -4
 466:./Libraries/STM32H7xx_HAL_Driver/Src/stm32h7xx_hal_exti.c ****     }
 730              		.loc 1 466 7 is_stmt 1 view .LVU298
 470:./Libraries/STM32H7xx_HAL_Driver/Src/stm32h7xx_hal_exti.c ****     {
 731              		.loc 1 470 28 is_stmt 0 view .LVU299
 732 00d6 02F0C060 		and	r0, r2, #100663296
 733              	.LVL93:
 466:./Libraries/STM32H7xx_HAL_Driver/Src/stm32h7xx_hal_exti.c ****     }
 734              		.loc 1 466 28 view .LVU300
 735 00da 44F00204 		orr	r4, r4, #2
 470:./Libraries/STM32H7xx_HAL_Driver/Src/stm32h7xx_hal_exti.c ****     {
 736              		.loc 1 470 8 view .LVU301
 737 00de B0F1C06F 		cmp	r0, #100663296
 466:./Libraries/STM32H7xx_HAL_Driver/Src/stm32h7xx_hal_exti.c ****     }
 738              		.loc 1 466 28 view .LVU302
 739 00e2 8C60     		str	r4, [r1, #8]
 470:./Libraries/STM32H7xx_HAL_Driver/Src/stm32h7xx_hal_exti.c ****     {
 740              		.loc 1 470 5 is_stmt 1 view .LVU303
 470:./Libraries/STM32H7xx_HAL_Driver/Src/stm32h7xx_hal_exti.c ****     {
 741              		.loc 1 470 8 is_stmt 0 view .LVU304
 742 00e4 D8D1     		bne	.L42
 743              	.L68:
 472:./Libraries/STM32H7xx_HAL_Driver/Src/stm32h7xx_hal_exti.c **** 
 744              		.loc 1 472 7 is_stmt 1 view .LVU305
 474:./Libraries/STM32H7xx_HAL_Driver/Src/stm32h7xx_hal_exti.c ****       pExtiConfig->GPIOSel = ((regval << (SYSCFG_EXTICR1_EXTI1_Pos * (3UL - (linepos & 0x03UL)))) >
 745              		.loc 1 474 7 view .LVU306
 474:./Libraries/STM32H7xx_HAL_Driver/Src/stm32h7xx_hal_exti.c ****       pExtiConfig->GPIOSel = ((regval << (SYSCFG_EXTICR1_EXTI1_Pos * (3UL - (linepos & 0x03UL)))) >
 746              		.loc 1 474 47 is_stmt 0 view .LVU307
 747 00e6 C7F38104 		ubfx	r4, r7, #2, #2
ARM GAS  /tmp/cceNacQR.s 			page 26


 475:./Libraries/STM32H7xx_HAL_Driver/Src/stm32h7xx_hal_exti.c ****     }
 748              		.loc 1 475 75 view .LVU308
 749 00ea F843     		mvns	r0, r7
 474:./Libraries/STM32H7xx_HAL_Driver/Src/stm32h7xx_hal_exti.c ****       pExtiConfig->GPIOSel = ((regval << (SYSCFG_EXTICR1_EXTI1_Pos * (3UL - (linepos & 0x03UL)))) >
 750              		.loc 1 474 14 view .LVU309
 751 00ec 0E4D     		ldr	r5, .L69+24
 752              	.LVL94:
 474:./Libraries/STM32H7xx_HAL_Driver/Src/stm32h7xx_hal_exti.c ****       pExtiConfig->GPIOSel = ((regval << (SYSCFG_EXTICR1_EXTI1_Pos * (3UL - (linepos & 0x03UL)))) >
 753              		.loc 1 474 14 view .LVU310
 754 00ee 0234     		adds	r4, r4, #2
 475:./Libraries/STM32H7xx_HAL_Driver/Src/stm32h7xx_hal_exti.c ****     }
 755              		.loc 1 475 75 view .LVU311
 756 00f0 00F00300 		and	r0, r0, #3
 474:./Libraries/STM32H7xx_HAL_Driver/Src/stm32h7xx_hal_exti.c ****       pExtiConfig->GPIOSel = ((regval << (SYSCFG_EXTICR1_EXTI1_Pos * (3UL - (linepos & 0x03UL)))) >
 757              		.loc 1 474 14 view .LVU312
 758 00f4 55F82440 		ldr	r4, [r5, r4, lsl #2]
 759              	.LVL95:
 475:./Libraries/STM32H7xx_HAL_Driver/Src/stm32h7xx_hal_exti.c ****     }
 760              		.loc 1 475 7 is_stmt 1 view .LVU313
 475:./Libraries/STM32H7xx_HAL_Driver/Src/stm32h7xx_hal_exti.c ****     }
 761              		.loc 1 475 68 is_stmt 0 view .LVU314
 762 00f8 8000     		lsls	r0, r0, #2
 475:./Libraries/STM32H7xx_HAL_Driver/Src/stm32h7xx_hal_exti.c ****     }
 763              		.loc 1 475 39 view .LVU315
 764 00fa 04FA00F0 		lsl	r0, r4, r0
 475:./Libraries/STM32H7xx_HAL_Driver/Src/stm32h7xx_hal_exti.c ****     }
 765              		.loc 1 475 99 view .LVU316
 766 00fe 000E     		lsrs	r0, r0, #24
 475:./Libraries/STM32H7xx_HAL_Driver/Src/stm32h7xx_hal_exti.c ****     }
 767              		.loc 1 475 28 view .LVU317
 768 0100 C860     		str	r0, [r1, #12]
 769 0102 AEE7     		b	.L43
 770              	.LVL96:
 771              	.L46:
 507:./Libraries/STM32H7xx_HAL_Driver/Src/stm32h7xx_hal_exti.c ****         pcrlinepos = 1UL << (linepos - 16UL);
 772              		.loc 1 507 9 is_stmt 1 view .LVU318
 508:./Libraries/STM32H7xx_HAL_Driver/Src/stm32h7xx_hal_exti.c ****       }
 773              		.loc 1 508 38 is_stmt 0 view .LVU319
 774 0104 103F     		subs	r7, r7, #16
 775              	.LVL97:
 508:./Libraries/STM32H7xx_HAL_Driver/Src/stm32h7xx_hal_exti.c ****       }
 776              		.loc 1 508 20 view .LVU320
 777 0106 0123     		movs	r3, #1
 778              	.LVL98:
 507:./Libraries/STM32H7xx_HAL_Driver/Src/stm32h7xx_hal_exti.c ****         pcrlinepos = 1UL << (linepos - 16UL);
 779              		.loc 1 507 17 view .LVU321
 780 0108 084A     		ldr	r2, .L69+28
 508:./Libraries/STM32H7xx_HAL_Driver/Src/stm32h7xx_hal_exti.c ****       }
 781              		.loc 1 508 20 view .LVU322
 782 010a BB40     		lsls	r3, r3, r7
 783              	.LVL99:
 507:./Libraries/STM32H7xx_HAL_Driver/Src/stm32h7xx_hal_exti.c ****         pcrlinepos = 1UL << (linepos - 16UL);
 784              		.loc 1 507 17 view .LVU323
 785 010c 3244     		add	r2, r2, r6
 786              	.LVL100:
 508:./Libraries/STM32H7xx_HAL_Driver/Src/stm32h7xx_hal_exti.c ****       }
 787              		.loc 1 508 9 is_stmt 1 view .LVU324
ARM GAS  /tmp/cceNacQR.s 			page 27


 508:./Libraries/STM32H7xx_HAL_Driver/Src/stm32h7xx_hal_exti.c ****       }
 788              		.loc 1 508 9 is_stmt 0 view .LVU325
 789 010e D3E7     		b	.L47
 790              	.L70:
 791              		.align	2
 792              	.L69:
 793 0110 80000058 		.word	1476395136
 794 0114 C0000058 		.word	1476395200
 795 0118 C4000058 		.word	1476395204
 796 011c 04000058 		.word	1476395012
 797 0120 0C000058 		.word	1476395020
 798 0124 10000058 		.word	1476395024
 799 0128 00040058 		.word	1476396032
 800 012c 14000058 		.word	1476395028
 801 0130 84000058 		.word	1476395140
 802              		.cfi_endproc
 803              	.LFE332:
 805              		.section	.text.HAL_EXTI_ClearConfigLine,"ax",%progbits
 806              		.align	1
 807              		.p2align 2,,3
 808              		.global	HAL_EXTI_ClearConfigLine
 809              		.syntax unified
 810              		.thumb
 811              		.thumb_func
 812              		.fpu fpv5-d16
 814              	HAL_EXTI_ClearConfigLine:
 815              	.LVL101:
 816              	.LFB333:
 522:./Libraries/STM32H7xx_HAL_Driver/Src/stm32h7xx_hal_exti.c **** 
 523:./Libraries/STM32H7xx_HAL_Driver/Src/stm32h7xx_hal_exti.c **** 
 524:./Libraries/STM32H7xx_HAL_Driver/Src/stm32h7xx_hal_exti.c **** /**
 525:./Libraries/STM32H7xx_HAL_Driver/Src/stm32h7xx_hal_exti.c ****   * @brief  Clear whole configuration of a dedicated Exti line.
 526:./Libraries/STM32H7xx_HAL_Driver/Src/stm32h7xx_hal_exti.c ****   * @param  hexti Exti handle.
 527:./Libraries/STM32H7xx_HAL_Driver/Src/stm32h7xx_hal_exti.c ****   * @retval HAL Status.
 528:./Libraries/STM32H7xx_HAL_Driver/Src/stm32h7xx_hal_exti.c ****   */
 529:./Libraries/STM32H7xx_HAL_Driver/Src/stm32h7xx_hal_exti.c **** HAL_StatusTypeDef HAL_EXTI_ClearConfigLine(EXTI_HandleTypeDef *hexti)
 530:./Libraries/STM32H7xx_HAL_Driver/Src/stm32h7xx_hal_exti.c **** {
 817              		.loc 1 530 1 is_stmt 1 view -0
 818              		.cfi_startproc
 819              		@ args = 0, pretend = 0, frame = 0
 820              		@ frame_needed = 0, uses_anonymous_args = 0
 531:./Libraries/STM32H7xx_HAL_Driver/Src/stm32h7xx_hal_exti.c ****   __IO uint32_t *regaddr;
 821              		.loc 1 531 3 view .LVU327
 532:./Libraries/STM32H7xx_HAL_Driver/Src/stm32h7xx_hal_exti.c ****   uint32_t regval;
 822              		.loc 1 532 3 view .LVU328
 533:./Libraries/STM32H7xx_HAL_Driver/Src/stm32h7xx_hal_exti.c ****   uint32_t linepos;
 823              		.loc 1 533 3 view .LVU329
 534:./Libraries/STM32H7xx_HAL_Driver/Src/stm32h7xx_hal_exti.c ****   uint32_t maskline;
 824              		.loc 1 534 3 view .LVU330
 535:./Libraries/STM32H7xx_HAL_Driver/Src/stm32h7xx_hal_exti.c ****   uint32_t offset;
 825              		.loc 1 535 3 view .LVU331
 536:./Libraries/STM32H7xx_HAL_Driver/Src/stm32h7xx_hal_exti.c ****   uint32_t pcrlinepos;
 826              		.loc 1 536 3 view .LVU332
 537:./Libraries/STM32H7xx_HAL_Driver/Src/stm32h7xx_hal_exti.c **** 
 538:./Libraries/STM32H7xx_HAL_Driver/Src/stm32h7xx_hal_exti.c ****   /* Check null pointer */
 539:./Libraries/STM32H7xx_HAL_Driver/Src/stm32h7xx_hal_exti.c ****   if (hexti == NULL)
 827              		.loc 1 539 3 view .LVU333
ARM GAS  /tmp/cceNacQR.s 			page 28


 828              		.loc 1 539 6 is_stmt 0 view .LVU334
 829 0000 0028     		cmp	r0, #0
 830 0002 76D0     		beq	.L76
 540:./Libraries/STM32H7xx_HAL_Driver/Src/stm32h7xx_hal_exti.c ****   {
 541:./Libraries/STM32H7xx_HAL_Driver/Src/stm32h7xx_hal_exti.c ****     return HAL_ERROR;
 542:./Libraries/STM32H7xx_HAL_Driver/Src/stm32h7xx_hal_exti.c ****   }
 543:./Libraries/STM32H7xx_HAL_Driver/Src/stm32h7xx_hal_exti.c **** 
 544:./Libraries/STM32H7xx_HAL_Driver/Src/stm32h7xx_hal_exti.c ****   /* Check the parameter */
 545:./Libraries/STM32H7xx_HAL_Driver/Src/stm32h7xx_hal_exti.c ****   assert_param(IS_EXTI_LINE(hexti->Line));
 831              		.loc 1 545 3 is_stmt 1 view .LVU335
 546:./Libraries/STM32H7xx_HAL_Driver/Src/stm32h7xx_hal_exti.c **** 
 547:./Libraries/STM32H7xx_HAL_Driver/Src/stm32h7xx_hal_exti.c ****   /* compute line register offset and line mask */
 548:./Libraries/STM32H7xx_HAL_Driver/Src/stm32h7xx_hal_exti.c ****   offset = ((hexti->Line & EXTI_REG_MASK) >> EXTI_REG_SHIFT);
 832              		.loc 1 548 3 view .LVU336
 549:./Libraries/STM32H7xx_HAL_Driver/Src/stm32h7xx_hal_exti.c ****   linepos = (hexti->Line & EXTI_PIN_MASK);
 550:./Libraries/STM32H7xx_HAL_Driver/Src/stm32h7xx_hal_exti.c ****   maskline = (1UL << linepos);
 833              		.loc 1 550 12 is_stmt 0 view .LVU337
 834 0004 0123     		movs	r3, #1
 551:./Libraries/STM32H7xx_HAL_Driver/Src/stm32h7xx_hal_exti.c **** 
 552:./Libraries/STM32H7xx_HAL_Driver/Src/stm32h7xx_hal_exti.c ****   /* 1] Clear interrupt mode */
 553:./Libraries/STM32H7xx_HAL_Driver/Src/stm32h7xx_hal_exti.c ****   regaddr = (__IO uint32_t *)(&EXTI->IMR1 + (EXTI_MODE_OFFSET * offset));
 554:./Libraries/STM32H7xx_HAL_Driver/Src/stm32h7xx_hal_exti.c ****   regval = (*regaddr & ~maskline);
 555:./Libraries/STM32H7xx_HAL_Driver/Src/stm32h7xx_hal_exti.c ****   *regaddr = regval;
 556:./Libraries/STM32H7xx_HAL_Driver/Src/stm32h7xx_hal_exti.c **** 
 557:./Libraries/STM32H7xx_HAL_Driver/Src/stm32h7xx_hal_exti.c ****   /* 2] Clear event mode */
 558:./Libraries/STM32H7xx_HAL_Driver/Src/stm32h7xx_hal_exti.c ****   regaddr = (__IO uint32_t *)(&EXTI->EMR1 + (EXTI_MODE_OFFSET * offset));
 835              		.loc 1 558 11 view .LVU338
 836 0006 DFF8FCC0 		ldr	ip, .L88+12
 530:./Libraries/STM32H7xx_HAL_Driver/Src/stm32h7xx_hal_exti.c ****   __IO uint32_t *regaddr;
 837              		.loc 1 530 1 view .LVU339
 838 000a F0B5     		push	{r4, r5, r6, r7, lr}
 839              	.LCFI8:
 840              		.cfi_def_cfa_offset 20
 841              		.cfi_offset 4, -20
 842              		.cfi_offset 5, -16
 843              		.cfi_offset 6, -12
 844              		.cfi_offset 7, -8
 845              		.cfi_offset 14, -4
 548:./Libraries/STM32H7xx_HAL_Driver/Src/stm32h7xx_hal_exti.c ****   linepos = (hexti->Line & EXTI_PIN_MASK);
 846              		.loc 1 548 19 view .LVU340
 847 000c 0568     		ldr	r5, [r0]
 553:./Libraries/STM32H7xx_HAL_Driver/Src/stm32h7xx_hal_exti.c ****   regval = (*regaddr & ~maskline);
 848              		.loc 1 553 11 view .LVU341
 849 000e DFF8F8E0 		ldr	lr, .L88+16
 548:./Libraries/STM32H7xx_HAL_Driver/Src/stm32h7xx_hal_exti.c ****   linepos = (hexti->Line & EXTI_PIN_MASK);
 850              		.loc 1 548 10 view .LVU342
 851 0012 C5F30141 		ubfx	r1, r5, #16, #2
 852              	.LVL102:
 549:./Libraries/STM32H7xx_HAL_Driver/Src/stm32h7xx_hal_exti.c ****   maskline = (1UL << linepos);
 853              		.loc 1 549 3 is_stmt 1 view .LVU343
 549:./Libraries/STM32H7xx_HAL_Driver/Src/stm32h7xx_hal_exti.c ****   maskline = (1UL << linepos);
 854              		.loc 1 549 11 is_stmt 0 view .LVU344
 855 0016 05F01F07 		and	r7, r5, #31
 856              	.LVL103:
 550:./Libraries/STM32H7xx_HAL_Driver/Src/stm32h7xx_hal_exti.c **** 
 857              		.loc 1 550 3 is_stmt 1 view .LVU345
 553:./Libraries/STM32H7xx_HAL_Driver/Src/stm32h7xx_hal_exti.c ****   regval = (*regaddr & ~maskline);
ARM GAS  /tmp/cceNacQR.s 			page 29


 858              		.loc 1 553 13 is_stmt 0 view .LVU346
 859 001a 0A01     		lsls	r2, r1, #4
 550:./Libraries/STM32H7xx_HAL_Driver/Src/stm32h7xx_hal_exti.c **** 
 860              		.loc 1 550 12 view .LVU347
 861 001c BB40     		lsls	r3, r3, r7
 862              	.LVL104:
 553:./Libraries/STM32H7xx_HAL_Driver/Src/stm32h7xx_hal_exti.c ****   regval = (*regaddr & ~maskline);
 863              		.loc 1 553 3 is_stmt 1 view .LVU348
 554:./Libraries/STM32H7xx_HAL_Driver/Src/stm32h7xx_hal_exti.c ****   *regaddr = regval;
 864              		.loc 1 554 3 view .LVU349
 554:./Libraries/STM32H7xx_HAL_Driver/Src/stm32h7xx_hal_exti.c ****   *regaddr = regval;
 865              		.loc 1 554 13 is_stmt 0 view .LVU350
 866 001e 52F80E40 		ldr	r4, [r2, lr]
 554:./Libraries/STM32H7xx_HAL_Driver/Src/stm32h7xx_hal_exti.c ****   *regaddr = regval;
 867              		.loc 1 554 24 view .LVU351
 868 0022 DE43     		mvns	r6, r3
 554:./Libraries/STM32H7xx_HAL_Driver/Src/stm32h7xx_hal_exti.c ****   *regaddr = regval;
 869              		.loc 1 554 10 view .LVU352
 870 0024 24EA0304 		bic	r4, r4, r3
 871              	.LVL105:
 555:./Libraries/STM32H7xx_HAL_Driver/Src/stm32h7xx_hal_exti.c **** 
 872              		.loc 1 555 3 is_stmt 1 view .LVU353
 555:./Libraries/STM32H7xx_HAL_Driver/Src/stm32h7xx_hal_exti.c **** 
 873              		.loc 1 555 12 is_stmt 0 view .LVU354
 874 0028 42F80E40 		str	r4, [r2, lr]
 875              		.loc 1 558 3 is_stmt 1 view .LVU355
 876              	.LVL106:
 559:./Libraries/STM32H7xx_HAL_Driver/Src/stm32h7xx_hal_exti.c ****   regval = (*regaddr & ~maskline);
 877              		.loc 1 559 3 view .LVU356
 560:./Libraries/STM32H7xx_HAL_Driver/Src/stm32h7xx_hal_exti.c ****   *regaddr = regval;
 561:./Libraries/STM32H7xx_HAL_Driver/Src/stm32h7xx_hal_exti.c **** 
 562:./Libraries/STM32H7xx_HAL_Driver/Src/stm32h7xx_hal_exti.c **** #if defined (DUAL_CORE)
 563:./Libraries/STM32H7xx_HAL_Driver/Src/stm32h7xx_hal_exti.c ****     /* 1] Clear CM4 interrupt mode */
 564:./Libraries/STM32H7xx_HAL_Driver/Src/stm32h7xx_hal_exti.c ****   regaddr = (__IO uint32_t *)(&EXTI->C2IMR1 + (EXTI_MODE_OFFSET * offset));
 878              		.loc 1 564 11 is_stmt 0 view .LVU357
 879 002c 0EF1400E 		add	lr, lr, #64
 559:./Libraries/STM32H7xx_HAL_Driver/Src/stm32h7xx_hal_exti.c ****   regval = (*regaddr & ~maskline);
 880              		.loc 1 559 13 view .LVU358
 881 0030 52F80C40 		ldr	r4, [r2, ip]
 882              	.LVL107:
 559:./Libraries/STM32H7xx_HAL_Driver/Src/stm32h7xx_hal_exti.c ****   regval = (*regaddr & ~maskline);
 883              		.loc 1 559 10 view .LVU359
 884 0034 24EA0304 		bic	r4, r4, r3
 885              	.LVL108:
 560:./Libraries/STM32H7xx_HAL_Driver/Src/stm32h7xx_hal_exti.c ****   *regaddr = regval;
 886              		.loc 1 560 3 is_stmt 1 view .LVU360
 560:./Libraries/STM32H7xx_HAL_Driver/Src/stm32h7xx_hal_exti.c ****   *regaddr = regval;
 887              		.loc 1 560 12 is_stmt 0 view .LVU361
 888 0038 42F80C40 		str	r4, [r2, ip]
 889              		.loc 1 564 3 is_stmt 1 view .LVU362
 890              	.LVL109:
 565:./Libraries/STM32H7xx_HAL_Driver/Src/stm32h7xx_hal_exti.c ****   regval = (*regaddr & ~maskline);
 891              		.loc 1 565 3 view .LVU363
 566:./Libraries/STM32H7xx_HAL_Driver/Src/stm32h7xx_hal_exti.c ****   *regaddr = regval;
 567:./Libraries/STM32H7xx_HAL_Driver/Src/stm32h7xx_hal_exti.c **** 
 568:./Libraries/STM32H7xx_HAL_Driver/Src/stm32h7xx_hal_exti.c ****   /* 2] Clear CM4 event mode */
 569:./Libraries/STM32H7xx_HAL_Driver/Src/stm32h7xx_hal_exti.c ****   regaddr = (__IO uint32_t *)(&EXTI->C2EMR1 + (EXTI_MODE_OFFSET * offset));
ARM GAS  /tmp/cceNacQR.s 			page 30


 892              		.loc 1 569 11 is_stmt 0 view .LVU364
 893 003c 0CF1400C 		add	ip, ip, #64
 565:./Libraries/STM32H7xx_HAL_Driver/Src/stm32h7xx_hal_exti.c ****   regval = (*regaddr & ~maskline);
 894              		.loc 1 565 13 view .LVU365
 895 0040 52F80E40 		ldr	r4, [r2, lr]
 896              	.LVL110:
 565:./Libraries/STM32H7xx_HAL_Driver/Src/stm32h7xx_hal_exti.c ****   regval = (*regaddr & ~maskline);
 897              		.loc 1 565 10 view .LVU366
 898 0044 24EA0304 		bic	r4, r4, r3
 899              	.LVL111:
 566:./Libraries/STM32H7xx_HAL_Driver/Src/stm32h7xx_hal_exti.c ****   *regaddr = regval;
 900              		.loc 1 566 3 is_stmt 1 view .LVU367
 566:./Libraries/STM32H7xx_HAL_Driver/Src/stm32h7xx_hal_exti.c ****   *regaddr = regval;
 901              		.loc 1 566 12 is_stmt 0 view .LVU368
 902 0048 42F80E40 		str	r4, [r2, lr]
 903              		.loc 1 569 3 is_stmt 1 view .LVU369
 904              	.LVL112:
 570:./Libraries/STM32H7xx_HAL_Driver/Src/stm32h7xx_hal_exti.c ****   regval = (*regaddr & ~maskline);
 905              		.loc 1 570 3 view .LVU370
 906              		.loc 1 570 13 is_stmt 0 view .LVU371
 907 004c 52F80C40 		ldr	r4, [r2, ip]
 908              	.LVL113:
 909              		.loc 1 570 10 view .LVU372
 910 0050 24EA0304 		bic	r4, r4, r3
 911              	.LVL114:
 571:./Libraries/STM32H7xx_HAL_Driver/Src/stm32h7xx_hal_exti.c ****   *regaddr = regval;
 912              		.loc 1 571 3 is_stmt 1 view .LVU373
 913              		.loc 1 571 12 is_stmt 0 view .LVU374
 914 0054 42F80C40 		str	r4, [r2, ip]
 572:./Libraries/STM32H7xx_HAL_Driver/Src/stm32h7xx_hal_exti.c **** #endif /* DUAL_CORE */
 573:./Libraries/STM32H7xx_HAL_Driver/Src/stm32h7xx_hal_exti.c **** 
 574:./Libraries/STM32H7xx_HAL_Driver/Src/stm32h7xx_hal_exti.c ****   /* 3] Clear triggers in case of configurable lines */
 575:./Libraries/STM32H7xx_HAL_Driver/Src/stm32h7xx_hal_exti.c ****   if ((hexti->Line & EXTI_CONFIG) != 0x00U)
 915              		.loc 1 575 3 is_stmt 1 view .LVU375
 916              		.loc 1 575 13 is_stmt 0 view .LVU376
 917 0058 0268     		ldr	r2, [r0]
 918              	.LVL115:
 919              		.loc 1 575 6 view .LVU377
 920 005a 9401     		lsls	r4, r2, #6
 921              	.LVL116:
 922              		.loc 1 575 6 view .LVU378
 923 005c 06D4     		bmi	.L85
 924              	.LVL117:
 925              	.L73:
 576:./Libraries/STM32H7xx_HAL_Driver/Src/stm32h7xx_hal_exti.c ****   {
 577:./Libraries/STM32H7xx_HAL_Driver/Src/stm32h7xx_hal_exti.c ****     regaddr = (__IO uint32_t *)(&EXTI->RTSR1 + (EXTI_CONFIG_OFFSET * offset));
 578:./Libraries/STM32H7xx_HAL_Driver/Src/stm32h7xx_hal_exti.c ****     regval = (*regaddr & ~maskline);
 579:./Libraries/STM32H7xx_HAL_Driver/Src/stm32h7xx_hal_exti.c ****     *regaddr = regval;
 580:./Libraries/STM32H7xx_HAL_Driver/Src/stm32h7xx_hal_exti.c **** 
 581:./Libraries/STM32H7xx_HAL_Driver/Src/stm32h7xx_hal_exti.c ****     regaddr = (__IO uint32_t *)(&EXTI->FTSR1 + (EXTI_CONFIG_OFFSET * offset));
 582:./Libraries/STM32H7xx_HAL_Driver/Src/stm32h7xx_hal_exti.c ****     regval = (*regaddr & ~maskline);
 583:./Libraries/STM32H7xx_HAL_Driver/Src/stm32h7xx_hal_exti.c ****     *regaddr = regval;
 584:./Libraries/STM32H7xx_HAL_Driver/Src/stm32h7xx_hal_exti.c **** 
 585:./Libraries/STM32H7xx_HAL_Driver/Src/stm32h7xx_hal_exti.c ****     /* Get Gpio port selection for gpio lines */
 586:./Libraries/STM32H7xx_HAL_Driver/Src/stm32h7xx_hal_exti.c ****     if ((hexti->Line & EXTI_GPIO) == EXTI_GPIO)
 587:./Libraries/STM32H7xx_HAL_Driver/Src/stm32h7xx_hal_exti.c ****     {
 588:./Libraries/STM32H7xx_HAL_Driver/Src/stm32h7xx_hal_exti.c ****       assert_param(IS_EXTI_GPIO_PIN(linepos));
ARM GAS  /tmp/cceNacQR.s 			page 31


 589:./Libraries/STM32H7xx_HAL_Driver/Src/stm32h7xx_hal_exti.c **** 
 590:./Libraries/STM32H7xx_HAL_Driver/Src/stm32h7xx_hal_exti.c ****       regval = SYSCFG->EXTICR[(linepos >> 2U) & 0x03UL];
 591:./Libraries/STM32H7xx_HAL_Driver/Src/stm32h7xx_hal_exti.c ****       regval &= ~(SYSCFG_EXTICR1_EXTI0 << (SYSCFG_EXTICR1_EXTI1_Pos * (linepos & 0x03UL)));
 592:./Libraries/STM32H7xx_HAL_Driver/Src/stm32h7xx_hal_exti.c ****       SYSCFG->EXTICR[(linepos >> 2U) & 0x03UL] = regval;
 593:./Libraries/STM32H7xx_HAL_Driver/Src/stm32h7xx_hal_exti.c ****     }
 594:./Libraries/STM32H7xx_HAL_Driver/Src/stm32h7xx_hal_exti.c ****   }
 595:./Libraries/STM32H7xx_HAL_Driver/Src/stm32h7xx_hal_exti.c **** 
 596:./Libraries/STM32H7xx_HAL_Driver/Src/stm32h7xx_hal_exti.c ****   /* 4] Clear D3 Config lines */
 597:./Libraries/STM32H7xx_HAL_Driver/Src/stm32h7xx_hal_exti.c ****   if ((hexti->Line & EXTI_TARGET_MASK) == EXTI_TARGET_MSK_ALL)
 926              		.loc 1 597 3 is_stmt 1 view .LVU379
 927              		.loc 1 597 20 is_stmt 0 view .LVU380
 928 005e 02F4E002 		and	r2, r2, #7340032
 929              		.loc 1 597 6 view .LVU381
 930 0062 B2F5E00F 		cmp	r2, #7340032
 931 0066 2BD0     		beq	.L86
 932              	.L77:
 598:./Libraries/STM32H7xx_HAL_Driver/Src/stm32h7xx_hal_exti.c ****   {
 599:./Libraries/STM32H7xx_HAL_Driver/Src/stm32h7xx_hal_exti.c ****     regaddr = (__IO uint32_t *)(&EXTI->D3PMR1 + (EXTI_CONFIG_OFFSET * offset));
 600:./Libraries/STM32H7xx_HAL_Driver/Src/stm32h7xx_hal_exti.c ****     *regaddr = (*regaddr & ~maskline);
 601:./Libraries/STM32H7xx_HAL_Driver/Src/stm32h7xx_hal_exti.c **** 
 602:./Libraries/STM32H7xx_HAL_Driver/Src/stm32h7xx_hal_exti.c ****     if(linepos < 16UL)
 603:./Libraries/STM32H7xx_HAL_Driver/Src/stm32h7xx_hal_exti.c ****     {
 604:./Libraries/STM32H7xx_HAL_Driver/Src/stm32h7xx_hal_exti.c ****       regaddr = (__IO uint32_t *)(&EXTI->D3PCR1L + (EXTI_CONFIG_OFFSET * offset));
 605:./Libraries/STM32H7xx_HAL_Driver/Src/stm32h7xx_hal_exti.c ****       pcrlinepos = 1UL << linepos;
 606:./Libraries/STM32H7xx_HAL_Driver/Src/stm32h7xx_hal_exti.c ****     }
 607:./Libraries/STM32H7xx_HAL_Driver/Src/stm32h7xx_hal_exti.c ****     else
 608:./Libraries/STM32H7xx_HAL_Driver/Src/stm32h7xx_hal_exti.c ****     {
 609:./Libraries/STM32H7xx_HAL_Driver/Src/stm32h7xx_hal_exti.c ****       regaddr = (__IO uint32_t *)(&EXTI->D3PCR1H + (EXTI_CONFIG_OFFSET * offset));
 610:./Libraries/STM32H7xx_HAL_Driver/Src/stm32h7xx_hal_exti.c ****       pcrlinepos = 1UL << (linepos - 16UL);
 611:./Libraries/STM32H7xx_HAL_Driver/Src/stm32h7xx_hal_exti.c ****     }
 612:./Libraries/STM32H7xx_HAL_Driver/Src/stm32h7xx_hal_exti.c **** 
 613:./Libraries/STM32H7xx_HAL_Driver/Src/stm32h7xx_hal_exti.c ****     /*Clear D3 PendClear source */
 614:./Libraries/STM32H7xx_HAL_Driver/Src/stm32h7xx_hal_exti.c ****     *regaddr &= (~(pcrlinepos * pcrlinepos * 3UL));
 615:./Libraries/STM32H7xx_HAL_Driver/Src/stm32h7xx_hal_exti.c ****   }
 616:./Libraries/STM32H7xx_HAL_Driver/Src/stm32h7xx_hal_exti.c **** 
 617:./Libraries/STM32H7xx_HAL_Driver/Src/stm32h7xx_hal_exti.c ****   return HAL_OK;
 933              		.loc 1 617 10 view .LVU382
 934 0068 0020     		movs	r0, #0
 618:./Libraries/STM32H7xx_HAL_Driver/Src/stm32h7xx_hal_exti.c **** }
 935              		.loc 1 618 1 view .LVU383
 936 006a F0BD     		pop	{r4, r5, r6, r7, pc}
 937              	.LVL118:
 938              	.L85:
 577:./Libraries/STM32H7xx_HAL_Driver/Src/stm32h7xx_hal_exti.c ****     regval = (*regaddr & ~maskline);
 939              		.loc 1 577 5 is_stmt 1 view .LVU384
 577:./Libraries/STM32H7xx_HAL_Driver/Src/stm32h7xx_hal_exti.c ****     regval = (*regaddr & ~maskline);
 940              		.loc 1 577 15 is_stmt 0 view .LVU385
 941 006c 4A01     		lsls	r2, r1, #5
 581:./Libraries/STM32H7xx_HAL_Driver/Src/stm32h7xx_hal_exti.c ****     regval = (*regaddr & ~maskline);
 942              		.loc 1 581 13 view .LVU386
 943 006e ACF1C00C 		sub	ip, ip, #192
 944              	.LVL119:
 577:./Libraries/STM32H7xx_HAL_Driver/Src/stm32h7xx_hal_exti.c ****     regval = (*regaddr & ~maskline);
 945              		.loc 1 577 13 view .LVU387
 946 0072 02F1B04E 		add	lr, r2, #1476395008
 947              	.LVL120:
 578:./Libraries/STM32H7xx_HAL_Driver/Src/stm32h7xx_hal_exti.c ****     *regaddr = regval;
ARM GAS  /tmp/cceNacQR.s 			page 32


 948              		.loc 1 578 5 is_stmt 1 view .LVU388
 578:./Libraries/STM32H7xx_HAL_Driver/Src/stm32h7xx_hal_exti.c ****     *regaddr = regval;
 949              		.loc 1 578 15 is_stmt 0 view .LVU389
 950 0076 DEF80040 		ldr	r4, [lr]
 578:./Libraries/STM32H7xx_HAL_Driver/Src/stm32h7xx_hal_exti.c ****     *regaddr = regval;
 951              		.loc 1 578 12 view .LVU390
 952 007a 3440     		ands	r4, r4, r6
 953              	.LVL121:
 579:./Libraries/STM32H7xx_HAL_Driver/Src/stm32h7xx_hal_exti.c **** 
 954              		.loc 1 579 5 is_stmt 1 view .LVU391
 579:./Libraries/STM32H7xx_HAL_Driver/Src/stm32h7xx_hal_exti.c **** 
 955              		.loc 1 579 14 is_stmt 0 view .LVU392
 956 007c CEF80040 		str	r4, [lr]
 581:./Libraries/STM32H7xx_HAL_Driver/Src/stm32h7xx_hal_exti.c ****     regval = (*regaddr & ~maskline);
 957              		.loc 1 581 5 is_stmt 1 view .LVU393
 958              	.LVL122:
 582:./Libraries/STM32H7xx_HAL_Driver/Src/stm32h7xx_hal_exti.c ****     *regaddr = regval;
 959              		.loc 1 582 5 view .LVU394
 582:./Libraries/STM32H7xx_HAL_Driver/Src/stm32h7xx_hal_exti.c ****     *regaddr = regval;
 960              		.loc 1 582 15 is_stmt 0 view .LVU395
 961 0080 52F80C40 		ldr	r4, [r2, ip]
 962              	.LVL123:
 582:./Libraries/STM32H7xx_HAL_Driver/Src/stm32h7xx_hal_exti.c ****     *regaddr = regval;
 963              		.loc 1 582 12 view .LVU396
 964 0084 3440     		ands	r4, r4, r6
 965              	.LVL124:
 583:./Libraries/STM32H7xx_HAL_Driver/Src/stm32h7xx_hal_exti.c **** 
 966              		.loc 1 583 5 is_stmt 1 view .LVU397
 583:./Libraries/STM32H7xx_HAL_Driver/Src/stm32h7xx_hal_exti.c **** 
 967              		.loc 1 583 14 is_stmt 0 view .LVU398
 968 0086 42F80C40 		str	r4, [r2, ip]
 586:./Libraries/STM32H7xx_HAL_Driver/Src/stm32h7xx_hal_exti.c ****     {
 969              		.loc 1 586 5 is_stmt 1 view .LVU399
 586:./Libraries/STM32H7xx_HAL_Driver/Src/stm32h7xx_hal_exti.c ****     {
 970              		.loc 1 586 15 is_stmt 0 view .LVU400
 971 008a 0268     		ldr	r2, [r0]
 972              	.LVL125:
 586:./Libraries/STM32H7xx_HAL_Driver/Src/stm32h7xx_hal_exti.c ****     {
 973              		.loc 1 586 22 view .LVU401
 974 008c 02F0C060 		and	r0, r2, #100663296
 975              	.LVL126:
 586:./Libraries/STM32H7xx_HAL_Driver/Src/stm32h7xx_hal_exti.c ****     {
 976              		.loc 1 586 8 view .LVU402
 977 0090 B0F1C06F 		cmp	r0, #100663296
 978 0094 E3D1     		bne	.L73
 588:./Libraries/STM32H7xx_HAL_Driver/Src/stm32h7xx_hal_exti.c **** 
 979              		.loc 1 588 7 is_stmt 1 view .LVU403
 590:./Libraries/STM32H7xx_HAL_Driver/Src/stm32h7xx_hal_exti.c ****       regval &= ~(SYSCFG_EXTICR1_EXTI0 << (SYSCFG_EXTICR1_EXTI1_Pos * (linepos & 0x03UL)));
 980              		.loc 1 590 7 view .LVU404
 981 0096 07F00C0C 		and	ip, r7, #12
 982              	.LVL127:
 590:./Libraries/STM32H7xx_HAL_Driver/Src/stm32h7xx_hal_exti.c ****       regval &= ~(SYSCFG_EXTICR1_EXTI0 << (SYSCFG_EXTICR1_EXTI1_Pos * (linepos & 0x03UL)));
 983              		.loc 1 590 7 is_stmt 0 view .LVU405
 984 009a 174C     		ldr	r4, .L88
 985              	.LVL128:
 591:./Libraries/STM32H7xx_HAL_Driver/Src/stm32h7xx_hal_exti.c ****       SYSCFG->EXTICR[(linepos >> 2U) & 0x03UL] = regval;
 986              		.loc 1 591 80 view .LVU406
ARM GAS  /tmp/cceNacQR.s 			page 33


 987 009c 05F00300 		and	r0, r5, #3
 591:./Libraries/STM32H7xx_HAL_Driver/Src/stm32h7xx_hal_exti.c ****       SYSCFG->EXTICR[(linepos >> 2U) & 0x03UL] = regval;
 988              		.loc 1 591 40 view .LVU407
 989 00a0 4FF00F0E 		mov	lr, #15
 990              	.LVL129:
 591:./Libraries/STM32H7xx_HAL_Driver/Src/stm32h7xx_hal_exti.c ****       SYSCFG->EXTICR[(linepos >> 2U) & 0x03UL] = regval;
 991              		.loc 1 591 40 view .LVU408
 992 00a4 6444     		add	r4, r4, ip
 597:./Libraries/STM32H7xx_HAL_Driver/Src/stm32h7xx_hal_exti.c ****   {
 993              		.loc 1 597 20 view .LVU409
 994 00a6 02F4E002 		and	r2, r2, #7340032
 591:./Libraries/STM32H7xx_HAL_Driver/Src/stm32h7xx_hal_exti.c ****       SYSCFG->EXTICR[(linepos >> 2U) & 0x03UL] = regval;
 995              		.loc 1 591 69 view .LVU410
 996 00aa 8000     		lsls	r0, r0, #2
 590:./Libraries/STM32H7xx_HAL_Driver/Src/stm32h7xx_hal_exti.c ****       regval &= ~(SYSCFG_EXTICR1_EXTI0 << (SYSCFG_EXTICR1_EXTI1_Pos * (linepos & 0x03UL)));
 997              		.loc 1 590 14 view .LVU411
 998 00ac D4F808C0 		ldr	ip, [r4, #8]
 999              	.LVL130:
 591:./Libraries/STM32H7xx_HAL_Driver/Src/stm32h7xx_hal_exti.c ****       SYSCFG->EXTICR[(linepos >> 2U) & 0x03UL] = regval;
 1000              		.loc 1 591 7 is_stmt 1 view .LVU412
 597:./Libraries/STM32H7xx_HAL_Driver/Src/stm32h7xx_hal_exti.c ****   {
 1001              		.loc 1 597 6 is_stmt 0 view .LVU413
 1002 00b0 B2F5E00F 		cmp	r2, #7340032
 591:./Libraries/STM32H7xx_HAL_Driver/Src/stm32h7xx_hal_exti.c ****       SYSCFG->EXTICR[(linepos >> 2U) & 0x03UL] = regval;
 1003              		.loc 1 591 40 view .LVU414
 1004 00b4 0EFA00F0 		lsl	r0, lr, r0
 591:./Libraries/STM32H7xx_HAL_Driver/Src/stm32h7xx_hal_exti.c ****       SYSCFG->EXTICR[(linepos >> 2U) & 0x03UL] = regval;
 1005              		.loc 1 591 14 view .LVU415
 1006 00b8 2CEA0000 		bic	r0, ip, r0
 1007              	.LVL131:
 592:./Libraries/STM32H7xx_HAL_Driver/Src/stm32h7xx_hal_exti.c ****     }
 1008              		.loc 1 592 7 is_stmt 1 view .LVU416
 592:./Libraries/STM32H7xx_HAL_Driver/Src/stm32h7xx_hal_exti.c ****     }
 1009              		.loc 1 592 48 is_stmt 0 view .LVU417
 1010 00bc A060     		str	r0, [r4, #8]
 597:./Libraries/STM32H7xx_HAL_Driver/Src/stm32h7xx_hal_exti.c ****   {
 1011              		.loc 1 597 3 is_stmt 1 view .LVU418
 597:./Libraries/STM32H7xx_HAL_Driver/Src/stm32h7xx_hal_exti.c ****   {
 1012              		.loc 1 597 6 is_stmt 0 view .LVU419
 1013 00be D3D1     		bne	.L77
 1014              	.LVL132:
 1015              	.L86:
 599:./Libraries/STM32H7xx_HAL_Driver/Src/stm32h7xx_hal_exti.c ****     *regaddr = (*regaddr & ~maskline);
 1016              		.loc 1 599 5 is_stmt 1 view .LVU420
 599:./Libraries/STM32H7xx_HAL_Driver/Src/stm32h7xx_hal_exti.c ****     *regaddr = (*regaddr & ~maskline);
 1017              		.loc 1 599 15 is_stmt 0 view .LVU421
 1018 00c0 4901     		lsls	r1, r1, #5
 1019              	.LVL133:
 599:./Libraries/STM32H7xx_HAL_Driver/Src/stm32h7xx_hal_exti.c ****     *regaddr = (*regaddr & ~maskline);
 1020              		.loc 1 599 13 view .LVU422
 1021 00c2 0E4A     		ldr	r2, .L88+4
 1022              	.LVL134:
 600:./Libraries/STM32H7xx_HAL_Driver/Src/stm32h7xx_hal_exti.c **** 
 1023              		.loc 1 600 5 is_stmt 1 view .LVU423
 600:./Libraries/STM32H7xx_HAL_Driver/Src/stm32h7xx_hal_exti.c **** 
 1024              		.loc 1 600 17 is_stmt 0 view .LVU424
 1025 00c4 8858     		ldr	r0, [r1, r2]
ARM GAS  /tmp/cceNacQR.s 			page 34


 600:./Libraries/STM32H7xx_HAL_Driver/Src/stm32h7xx_hal_exti.c **** 
 1026              		.loc 1 600 26 view .LVU425
 1027 00c6 0640     		ands	r6, r6, r0
 602:./Libraries/STM32H7xx_HAL_Driver/Src/stm32h7xx_hal_exti.c ****     {
 1028              		.loc 1 602 7 view .LVU426
 1029 00c8 E806     		lsls	r0, r5, #27
 600:./Libraries/STM32H7xx_HAL_Driver/Src/stm32h7xx_hal_exti.c **** 
 1030              		.loc 1 600 14 view .LVU427
 1031 00ca 8E50     		str	r6, [r1, r2]
 602:./Libraries/STM32H7xx_HAL_Driver/Src/stm32h7xx_hal_exti.c ****     {
 1032              		.loc 1 602 5 is_stmt 1 view .LVU428
 602:./Libraries/STM32H7xx_HAL_Driver/Src/stm32h7xx_hal_exti.c ****     {
 1033              		.loc 1 602 7 is_stmt 0 view .LVU429
 1034 00cc 0ED5     		bpl	.L87
 609:./Libraries/STM32H7xx_HAL_Driver/Src/stm32h7xx_hal_exti.c ****       pcrlinepos = 1UL << (linepos - 16UL);
 1035              		.loc 1 609 7 is_stmt 1 view .LVU430
 610:./Libraries/STM32H7xx_HAL_Driver/Src/stm32h7xx_hal_exti.c ****     }
 1036              		.loc 1 610 36 is_stmt 0 view .LVU431
 1037 00ce 103F     		subs	r7, r7, #16
 1038              	.LVL135:
 610:./Libraries/STM32H7xx_HAL_Driver/Src/stm32h7xx_hal_exti.c ****     }
 1039              		.loc 1 610 18 view .LVU432
 1040 00d0 0123     		movs	r3, #1
 1041              	.LVL136:
 609:./Libraries/STM32H7xx_HAL_Driver/Src/stm32h7xx_hal_exti.c ****       pcrlinepos = 1UL << (linepos - 16UL);
 1042              		.loc 1 609 15 view .LVU433
 1043 00d2 0B4A     		ldr	r2, .L88+8
 1044              	.LVL137:
 610:./Libraries/STM32H7xx_HAL_Driver/Src/stm32h7xx_hal_exti.c ****     }
 1045              		.loc 1 610 18 view .LVU434
 1046 00d4 BB40     		lsls	r3, r3, r7
 1047              	.LVL138:
 609:./Libraries/STM32H7xx_HAL_Driver/Src/stm32h7xx_hal_exti.c ****       pcrlinepos = 1UL << (linepos - 16UL);
 1048              		.loc 1 609 15 view .LVU435
 1049 00d6 0A44     		add	r2, r2, r1
 1050              	.LVL139:
 610:./Libraries/STM32H7xx_HAL_Driver/Src/stm32h7xx_hal_exti.c ****     }
 1051              		.loc 1 610 7 is_stmt 1 view .LVU436
 1052              	.L75:
 614:./Libraries/STM32H7xx_HAL_Driver/Src/stm32h7xx_hal_exti.c ****   }
 1053              		.loc 1 614 5 view .LVU437
 614:./Libraries/STM32H7xx_HAL_Driver/Src/stm32h7xx_hal_exti.c ****   }
 1054              		.loc 1 614 31 is_stmt 0 view .LVU438
 1055 00d8 03FB03F3 		mul	r3, r3, r3
 1056              	.LVL140:
 614:./Libraries/STM32H7xx_HAL_Driver/Src/stm32h7xx_hal_exti.c ****   }
 1057              		.loc 1 614 14 view .LVU439
 1058 00dc 1168     		ldr	r1, [r2]
 617:./Libraries/STM32H7xx_HAL_Driver/Src/stm32h7xx_hal_exti.c **** }
 1059              		.loc 1 617 10 view .LVU440
 1060 00de 0020     		movs	r0, #0
 614:./Libraries/STM32H7xx_HAL_Driver/Src/stm32h7xx_hal_exti.c ****   }
 1061              		.loc 1 614 44 view .LVU441
 1062 00e0 03EB4303 		add	r3, r3, r3, lsl #1
 614:./Libraries/STM32H7xx_HAL_Driver/Src/stm32h7xx_hal_exti.c ****   }
 1063              		.loc 1 614 14 view .LVU442
 1064 00e4 21EA0303 		bic	r3, r1, r3
ARM GAS  /tmp/cceNacQR.s 			page 35


 1065 00e8 1360     		str	r3, [r2]
 1066              		.loc 1 618 1 view .LVU443
 1067 00ea F0BD     		pop	{r4, r5, r6, r7, pc}
 1068              	.LVL141:
 1069              	.L87:
 604:./Libraries/STM32H7xx_HAL_Driver/Src/stm32h7xx_hal_exti.c ****       pcrlinepos = 1UL << linepos;
 1070              		.loc 1 604 7 is_stmt 1 view .LVU444
 604:./Libraries/STM32H7xx_HAL_Driver/Src/stm32h7xx_hal_exti.c ****       pcrlinepos = 1UL << linepos;
 1071              		.loc 1 604 15 is_stmt 0 view .LVU445
 1072 00ec 0432     		adds	r2, r2, #4
 1073              	.LVL142:
 604:./Libraries/STM32H7xx_HAL_Driver/Src/stm32h7xx_hal_exti.c ****       pcrlinepos = 1UL << linepos;
 1074              		.loc 1 604 15 view .LVU446
 1075 00ee 0A44     		add	r2, r2, r1
 1076              	.LVL143:
 605:./Libraries/STM32H7xx_HAL_Driver/Src/stm32h7xx_hal_exti.c ****     }
 1077              		.loc 1 605 7 is_stmt 1 view .LVU447
 605:./Libraries/STM32H7xx_HAL_Driver/Src/stm32h7xx_hal_exti.c ****     }
 1078              		.loc 1 605 7 is_stmt 0 view .LVU448
 1079 00f0 F2E7     		b	.L75
 1080              	.LVL144:
 1081              	.L76:
 1082              	.LCFI9:
 1083              		.cfi_def_cfa_offset 0
 1084              		.cfi_restore 4
 1085              		.cfi_restore 5
 1086              		.cfi_restore 6
 1087              		.cfi_restore 7
 1088              		.cfi_restore 14
 541:./Libraries/STM32H7xx_HAL_Driver/Src/stm32h7xx_hal_exti.c ****   }
 1089              		.loc 1 541 12 view .LVU449
 1090 00f2 0120     		movs	r0, #1
 1091              	.LVL145:
 1092              		.loc 1 618 1 view .LVU450
 1093 00f4 7047     		bx	lr
 1094              	.L89:
 1095 00f6 00BF     		.align	2
 1096              	.L88:
 1097 00f8 00040058 		.word	1476396032
 1098 00fc 0C000058 		.word	1476395020
 1099 0100 14000058 		.word	1476395028
 1100 0104 84000058 		.word	1476395140
 1101 0108 80000058 		.word	1476395136
 1102              		.cfi_endproc
 1103              	.LFE333:
 1105              		.section	.text.HAL_EXTI_RegisterCallback,"ax",%progbits
 1106              		.align	1
 1107              		.p2align 2,,3
 1108              		.global	HAL_EXTI_RegisterCallback
 1109              		.syntax unified
 1110              		.thumb
 1111              		.thumb_func
 1112              		.fpu fpv5-d16
 1114              	HAL_EXTI_RegisterCallback:
 1115              	.LVL146:
 1116              	.LFB334:
 619:./Libraries/STM32H7xx_HAL_Driver/Src/stm32h7xx_hal_exti.c **** 
ARM GAS  /tmp/cceNacQR.s 			page 36


 620:./Libraries/STM32H7xx_HAL_Driver/Src/stm32h7xx_hal_exti.c **** 
 621:./Libraries/STM32H7xx_HAL_Driver/Src/stm32h7xx_hal_exti.c **** /**
 622:./Libraries/STM32H7xx_HAL_Driver/Src/stm32h7xx_hal_exti.c ****   * @brief  Register callback for a dedicated Exti line.
 623:./Libraries/STM32H7xx_HAL_Driver/Src/stm32h7xx_hal_exti.c ****   * @param  hexti Exti handle.
 624:./Libraries/STM32H7xx_HAL_Driver/Src/stm32h7xx_hal_exti.c ****   * @param  CallbackID User callback identifier.
 625:./Libraries/STM32H7xx_HAL_Driver/Src/stm32h7xx_hal_exti.c ****   *         This parameter can be one of @arg @ref EXTI_CallbackIDTypeDef values.
 626:./Libraries/STM32H7xx_HAL_Driver/Src/stm32h7xx_hal_exti.c ****   * @param  pPendingCbfn function pointer to be stored as callback.
 627:./Libraries/STM32H7xx_HAL_Driver/Src/stm32h7xx_hal_exti.c ****   * @retval HAL Status.
 628:./Libraries/STM32H7xx_HAL_Driver/Src/stm32h7xx_hal_exti.c ****   */
 629:./Libraries/STM32H7xx_HAL_Driver/Src/stm32h7xx_hal_exti.c **** HAL_StatusTypeDef HAL_EXTI_RegisterCallback(EXTI_HandleTypeDef *hexti, EXTI_CallbackIDTypeDef Callb
 630:./Libraries/STM32H7xx_HAL_Driver/Src/stm32h7xx_hal_exti.c **** {
 1117              		.loc 1 630 1 is_stmt 1 view -0
 1118              		.cfi_startproc
 1119              		@ args = 0, pretend = 0, frame = 0
 1120              		@ frame_needed = 0, uses_anonymous_args = 0
 1121              		@ link register save eliminated.
 631:./Libraries/STM32H7xx_HAL_Driver/Src/stm32h7xx_hal_exti.c ****   HAL_StatusTypeDef status = HAL_OK;
 1122              		.loc 1 631 3 view .LVU452
 632:./Libraries/STM32H7xx_HAL_Driver/Src/stm32h7xx_hal_exti.c **** 
 633:./Libraries/STM32H7xx_HAL_Driver/Src/stm32h7xx_hal_exti.c ****   /* Check null pointer */
 634:./Libraries/STM32H7xx_HAL_Driver/Src/stm32h7xx_hal_exti.c ****   if (hexti == NULL)
 1123              		.loc 1 634 3 view .LVU453
 635:./Libraries/STM32H7xx_HAL_Driver/Src/stm32h7xx_hal_exti.c ****   {
 636:./Libraries/STM32H7xx_HAL_Driver/Src/stm32h7xx_hal_exti.c ****     return HAL_ERROR;
 637:./Libraries/STM32H7xx_HAL_Driver/Src/stm32h7xx_hal_exti.c ****   }
 638:./Libraries/STM32H7xx_HAL_Driver/Src/stm32h7xx_hal_exti.c **** 
 639:./Libraries/STM32H7xx_HAL_Driver/Src/stm32h7xx_hal_exti.c ****   switch (CallbackID)
 1124              		.loc 1 639 3 view .LVU454
 1125 0000 19B9     		cbnz	r1, .L92
 1126 0002 10B1     		cbz	r0, .L92
 640:./Libraries/STM32H7xx_HAL_Driver/Src/stm32h7xx_hal_exti.c ****   {
 641:./Libraries/STM32H7xx_HAL_Driver/Src/stm32h7xx_hal_exti.c ****     case  HAL_EXTI_COMMON_CB_ID:
 642:./Libraries/STM32H7xx_HAL_Driver/Src/stm32h7xx_hal_exti.c ****       hexti->PendingCallback = pPendingCbfn;
 1127              		.loc 1 642 7 view .LVU455
 1128              		.loc 1 642 30 is_stmt 0 view .LVU456
 1129 0004 4260     		str	r2, [r0, #4]
 643:./Libraries/STM32H7xx_HAL_Driver/Src/stm32h7xx_hal_exti.c ****       break;
 1130              		.loc 1 643 7 is_stmt 1 view .LVU457
 631:./Libraries/STM32H7xx_HAL_Driver/Src/stm32h7xx_hal_exti.c **** 
 1131              		.loc 1 631 21 is_stmt 0 view .LVU458
 1132 0006 0020     		movs	r0, #0
 1133              	.LVL147:
 1134              		.loc 1 643 7 view .LVU459
 1135 0008 7047     		bx	lr
 1136              	.LVL148:
 1137              	.L92:
 644:./Libraries/STM32H7xx_HAL_Driver/Src/stm32h7xx_hal_exti.c **** 
 645:./Libraries/STM32H7xx_HAL_Driver/Src/stm32h7xx_hal_exti.c ****     default:
 646:./Libraries/STM32H7xx_HAL_Driver/Src/stm32h7xx_hal_exti.c ****       status = HAL_ERROR;
 1138              		.loc 1 646 14 view .LVU460
 1139 000a 0120     		movs	r0, #1
 1140              	.LVL149:
 647:./Libraries/STM32H7xx_HAL_Driver/Src/stm32h7xx_hal_exti.c ****       break;
 648:./Libraries/STM32H7xx_HAL_Driver/Src/stm32h7xx_hal_exti.c ****   }
 649:./Libraries/STM32H7xx_HAL_Driver/Src/stm32h7xx_hal_exti.c **** 
 650:./Libraries/STM32H7xx_HAL_Driver/Src/stm32h7xx_hal_exti.c ****   return status;
 651:./Libraries/STM32H7xx_HAL_Driver/Src/stm32h7xx_hal_exti.c **** }
ARM GAS  /tmp/cceNacQR.s 			page 37


 1141              		.loc 1 651 1 view .LVU461
 1142 000c 7047     		bx	lr
 1143              		.cfi_endproc
 1144              	.LFE334:
 1146 000e 00BF     		.section	.text.HAL_EXTI_GetHandle,"ax",%progbits
 1147              		.align	1
 1148              		.p2align 2,,3
 1149              		.global	HAL_EXTI_GetHandle
 1150              		.syntax unified
 1151              		.thumb
 1152              		.thumb_func
 1153              		.fpu fpv5-d16
 1155              	HAL_EXTI_GetHandle:
 1156              	.LVL150:
 1157              	.LFB335:
 652:./Libraries/STM32H7xx_HAL_Driver/Src/stm32h7xx_hal_exti.c **** 
 653:./Libraries/STM32H7xx_HAL_Driver/Src/stm32h7xx_hal_exti.c **** 
 654:./Libraries/STM32H7xx_HAL_Driver/Src/stm32h7xx_hal_exti.c **** /**
 655:./Libraries/STM32H7xx_HAL_Driver/Src/stm32h7xx_hal_exti.c ****   * @brief  Store line number as handle private field.
 656:./Libraries/STM32H7xx_HAL_Driver/Src/stm32h7xx_hal_exti.c ****   * @param  hexti Exti handle.
 657:./Libraries/STM32H7xx_HAL_Driver/Src/stm32h7xx_hal_exti.c ****   * @param  ExtiLine Exti line number.
 658:./Libraries/STM32H7xx_HAL_Driver/Src/stm32h7xx_hal_exti.c ****   *         This parameter can be from 0 to @ref EXTI_LINE_NB.
 659:./Libraries/STM32H7xx_HAL_Driver/Src/stm32h7xx_hal_exti.c ****   * @retval HAL Status.
 660:./Libraries/STM32H7xx_HAL_Driver/Src/stm32h7xx_hal_exti.c ****   */
 661:./Libraries/STM32H7xx_HAL_Driver/Src/stm32h7xx_hal_exti.c **** HAL_StatusTypeDef HAL_EXTI_GetHandle(EXTI_HandleTypeDef *hexti, uint32_t ExtiLine)
 662:./Libraries/STM32H7xx_HAL_Driver/Src/stm32h7xx_hal_exti.c **** {
 1158              		.loc 1 662 1 is_stmt 1 view -0
 1159              		.cfi_startproc
 1160              		@ args = 0, pretend = 0, frame = 0
 1161              		@ frame_needed = 0, uses_anonymous_args = 0
 1162              		@ link register save eliminated.
 663:./Libraries/STM32H7xx_HAL_Driver/Src/stm32h7xx_hal_exti.c ****   /* Check the parameters */
 664:./Libraries/STM32H7xx_HAL_Driver/Src/stm32h7xx_hal_exti.c ****   assert_param(IS_EXTI_LINE(ExtiLine));
 1163              		.loc 1 664 3 view .LVU463
 665:./Libraries/STM32H7xx_HAL_Driver/Src/stm32h7xx_hal_exti.c **** 
 666:./Libraries/STM32H7xx_HAL_Driver/Src/stm32h7xx_hal_exti.c ****   /* Check null pointer */
 667:./Libraries/STM32H7xx_HAL_Driver/Src/stm32h7xx_hal_exti.c ****   if (hexti == NULL)
 1164              		.loc 1 667 3 view .LVU464
 1165              		.loc 1 667 6 is_stmt 0 view .LVU465
 1166 0000 10B1     		cbz	r0, .L101
 668:./Libraries/STM32H7xx_HAL_Driver/Src/stm32h7xx_hal_exti.c ****   {
 669:./Libraries/STM32H7xx_HAL_Driver/Src/stm32h7xx_hal_exti.c ****     return HAL_ERROR;
 670:./Libraries/STM32H7xx_HAL_Driver/Src/stm32h7xx_hal_exti.c ****   }
 671:./Libraries/STM32H7xx_HAL_Driver/Src/stm32h7xx_hal_exti.c ****   else
 672:./Libraries/STM32H7xx_HAL_Driver/Src/stm32h7xx_hal_exti.c ****   {
 673:./Libraries/STM32H7xx_HAL_Driver/Src/stm32h7xx_hal_exti.c ****     /* Store line number as handle private field */
 674:./Libraries/STM32H7xx_HAL_Driver/Src/stm32h7xx_hal_exti.c ****     hexti->Line = ExtiLine;
 1167              		.loc 1 674 5 is_stmt 1 view .LVU466
 1168              		.loc 1 674 17 is_stmt 0 view .LVU467
 1169 0002 0160     		str	r1, [r0]
 675:./Libraries/STM32H7xx_HAL_Driver/Src/stm32h7xx_hal_exti.c **** 
 676:./Libraries/STM32H7xx_HAL_Driver/Src/stm32h7xx_hal_exti.c ****     return HAL_OK;
 1170              		.loc 1 676 5 is_stmt 1 view .LVU468
 1171              		.loc 1 676 12 is_stmt 0 view .LVU469
 1172 0004 0020     		movs	r0, #0
 1173              	.LVL151:
 1174              		.loc 1 676 12 view .LVU470
ARM GAS  /tmp/cceNacQR.s 			page 38


 1175 0006 7047     		bx	lr
 1176              	.LVL152:
 1177              	.L101:
 669:./Libraries/STM32H7xx_HAL_Driver/Src/stm32h7xx_hal_exti.c ****   }
 1178              		.loc 1 669 12 view .LVU471
 1179 0008 0120     		movs	r0, #1
 1180              	.LVL153:
 677:./Libraries/STM32H7xx_HAL_Driver/Src/stm32h7xx_hal_exti.c ****   }
 678:./Libraries/STM32H7xx_HAL_Driver/Src/stm32h7xx_hal_exti.c **** }
 1181              		.loc 1 678 1 view .LVU472
 1182 000a 7047     		bx	lr
 1183              		.cfi_endproc
 1184              	.LFE335:
 1186              		.section	.text.HAL_EXTI_IRQHandler,"ax",%progbits
 1187              		.align	1
 1188              		.p2align 2,,3
 1189              		.global	HAL_EXTI_IRQHandler
 1190              		.syntax unified
 1191              		.thumb
 1192              		.thumb_func
 1193              		.fpu fpv5-d16
 1195              	HAL_EXTI_IRQHandler:
 1196              	.LVL154:
 1197              	.LFB336:
 679:./Libraries/STM32H7xx_HAL_Driver/Src/stm32h7xx_hal_exti.c **** 
 680:./Libraries/STM32H7xx_HAL_Driver/Src/stm32h7xx_hal_exti.c **** 
 681:./Libraries/STM32H7xx_HAL_Driver/Src/stm32h7xx_hal_exti.c **** /**
 682:./Libraries/STM32H7xx_HAL_Driver/Src/stm32h7xx_hal_exti.c ****   * @}
 683:./Libraries/STM32H7xx_HAL_Driver/Src/stm32h7xx_hal_exti.c ****   */
 684:./Libraries/STM32H7xx_HAL_Driver/Src/stm32h7xx_hal_exti.c **** 
 685:./Libraries/STM32H7xx_HAL_Driver/Src/stm32h7xx_hal_exti.c **** /** @addtogroup EXTI_Exported_Functions_Group2
 686:./Libraries/STM32H7xx_HAL_Driver/Src/stm32h7xx_hal_exti.c ****  *  @brief EXTI IO functions.
 687:./Libraries/STM32H7xx_HAL_Driver/Src/stm32h7xx_hal_exti.c ****  *
 688:./Libraries/STM32H7xx_HAL_Driver/Src/stm32h7xx_hal_exti.c **** @verbatim
 689:./Libraries/STM32H7xx_HAL_Driver/Src/stm32h7xx_hal_exti.c ****  ===============================================================================
 690:./Libraries/STM32H7xx_HAL_Driver/Src/stm32h7xx_hal_exti.c ****                        ##### IO operation functions #####
 691:./Libraries/STM32H7xx_HAL_Driver/Src/stm32h7xx_hal_exti.c ****  ===============================================================================
 692:./Libraries/STM32H7xx_HAL_Driver/Src/stm32h7xx_hal_exti.c **** 
 693:./Libraries/STM32H7xx_HAL_Driver/Src/stm32h7xx_hal_exti.c **** @endverbatim
 694:./Libraries/STM32H7xx_HAL_Driver/Src/stm32h7xx_hal_exti.c ****   * @{
 695:./Libraries/STM32H7xx_HAL_Driver/Src/stm32h7xx_hal_exti.c ****   */
 696:./Libraries/STM32H7xx_HAL_Driver/Src/stm32h7xx_hal_exti.c **** 
 697:./Libraries/STM32H7xx_HAL_Driver/Src/stm32h7xx_hal_exti.c **** /**
 698:./Libraries/STM32H7xx_HAL_Driver/Src/stm32h7xx_hal_exti.c ****   * @brief  Handle EXTI interrupt request.
 699:./Libraries/STM32H7xx_HAL_Driver/Src/stm32h7xx_hal_exti.c ****   * @param  hexti Exti handle.
 700:./Libraries/STM32H7xx_HAL_Driver/Src/stm32h7xx_hal_exti.c ****   * @retval none.
 701:./Libraries/STM32H7xx_HAL_Driver/Src/stm32h7xx_hal_exti.c ****   */
 702:./Libraries/STM32H7xx_HAL_Driver/Src/stm32h7xx_hal_exti.c **** void HAL_EXTI_IRQHandler(EXTI_HandleTypeDef *hexti)
 703:./Libraries/STM32H7xx_HAL_Driver/Src/stm32h7xx_hal_exti.c **** {
 1198              		.loc 1 703 1 is_stmt 1 view -0
 1199              		.cfi_startproc
 1200              		@ args = 0, pretend = 0, frame = 0
 1201              		@ frame_needed = 0, uses_anonymous_args = 0
 704:./Libraries/STM32H7xx_HAL_Driver/Src/stm32h7xx_hal_exti.c ****   __IO uint32_t *regaddr;
 1202              		.loc 1 704 3 view .LVU474
 705:./Libraries/STM32H7xx_HAL_Driver/Src/stm32h7xx_hal_exti.c ****   uint32_t regval;
 1203              		.loc 1 705 3 view .LVU475
ARM GAS  /tmp/cceNacQR.s 			page 39


 706:./Libraries/STM32H7xx_HAL_Driver/Src/stm32h7xx_hal_exti.c ****   uint32_t maskline;
 1204              		.loc 1 706 3 view .LVU476
 707:./Libraries/STM32H7xx_HAL_Driver/Src/stm32h7xx_hal_exti.c ****   uint32_t offset;
 1205              		.loc 1 707 3 view .LVU477
 708:./Libraries/STM32H7xx_HAL_Driver/Src/stm32h7xx_hal_exti.c **** 
 709:./Libraries/STM32H7xx_HAL_Driver/Src/stm32h7xx_hal_exti.c ****   /* Compute line register offset and line mask */
 710:./Libraries/STM32H7xx_HAL_Driver/Src/stm32h7xx_hal_exti.c ****   offset = ((hexti->Line & EXTI_REG_MASK) >> EXTI_REG_SHIFT);
 1206              		.loc 1 710 3 view .LVU478
 703:./Libraries/STM32H7xx_HAL_Driver/Src/stm32h7xx_hal_exti.c ****   __IO uint32_t *regaddr;
 1207              		.loc 1 703 1 is_stmt 0 view .LVU479
 1208 0000 70B5     		push	{r4, r5, r6, lr}
 1209              	.LCFI10:
 1210              		.cfi_def_cfa_offset 16
 1211              		.cfi_offset 4, -16
 1212              		.cfi_offset 5, -12
 1213              		.cfi_offset 6, -8
 1214              		.cfi_offset 14, -4
 1215              		.loc 1 710 19 view .LVU480
 1216 0002 0468     		ldr	r4, [r0]
 711:./Libraries/STM32H7xx_HAL_Driver/Src/stm32h7xx_hal_exti.c ****   maskline = (1UL << (hexti->Line & EXTI_PIN_MASK));
 1217              		.loc 1 711 12 view .LVU481
 1218 0004 0125     		movs	r5, #1
 703:./Libraries/STM32H7xx_HAL_Driver/Src/stm32h7xx_hal_exti.c ****   __IO uint32_t *regaddr;
 1219              		.loc 1 703 1 view .LVU482
 1220 0006 0646     		mov	r6, r0
 1221              		.loc 1 711 35 view .LVU483
 1222 0008 04F01F02 		and	r2, r4, #31
 710:./Libraries/STM32H7xx_HAL_Driver/Src/stm32h7xx_hal_exti.c ****   maskline = (1UL << (hexti->Line & EXTI_PIN_MASK));
 1223              		.loc 1 710 10 view .LVU484
 1224 000c C4F30144 		ubfx	r4, r4, #16, #2
 1225              	.LVL155:
 1226              		.loc 1 711 3 is_stmt 1 view .LVU485
 1227              		.loc 1 711 12 is_stmt 0 view .LVU486
 1228 0010 9540     		lsls	r5, r5, r2
 1229              	.LVL156:
 712:./Libraries/STM32H7xx_HAL_Driver/Src/stm32h7xx_hal_exti.c **** 
 713:./Libraries/STM32H7xx_HAL_Driver/Src/stm32h7xx_hal_exti.c **** #if defined(DUAL_CORE)
 714:./Libraries/STM32H7xx_HAL_Driver/Src/stm32h7xx_hal_exti.c ****   if (HAL_GetCurrentCPUID() == CM7_CPUID)
 1230              		.loc 1 714 3 is_stmt 1 view .LVU487
 1231              		.loc 1 714 7 is_stmt 0 view .LVU488
 1232 0012 FFF7FEFF 		bl	HAL_GetCurrentCPUID
 1233              	.LVL157:
 715:./Libraries/STM32H7xx_HAL_Driver/Src/stm32h7xx_hal_exti.c ****   {
 716:./Libraries/STM32H7xx_HAL_Driver/Src/stm32h7xx_hal_exti.c ****     /* Get pending register address */
 717:./Libraries/STM32H7xx_HAL_Driver/Src/stm32h7xx_hal_exti.c ****     regaddr = (__IO uint32_t *)(&EXTI->PR1 + (EXTI_MODE_OFFSET * offset));
 1234              		.loc 1 717 5 is_stmt 1 view .LVU489
 718:./Libraries/STM32H7xx_HAL_Driver/Src/stm32h7xx_hal_exti.c ****   }
 719:./Libraries/STM32H7xx_HAL_Driver/Src/stm32h7xx_hal_exti.c ****   else /* Cortex-M4*/
 720:./Libraries/STM32H7xx_HAL_Driver/Src/stm32h7xx_hal_exti.c ****   {
 721:./Libraries/STM32H7xx_HAL_Driver/Src/stm32h7xx_hal_exti.c ****     /* Get pending register address */
 722:./Libraries/STM32H7xx_HAL_Driver/Src/stm32h7xx_hal_exti.c ****     regaddr = (__IO uint32_t *)(&EXTI->C2PR1 + (EXTI_MODE_OFFSET * offset));
 1235              		.loc 1 722 5 view .LVU490
 714:./Libraries/STM32H7xx_HAL_Driver/Src/stm32h7xx_hal_exti.c ****   {
 1236              		.loc 1 714 6 is_stmt 0 view .LVU491
 1237 0016 0328     		cmp	r0, #3
 717:./Libraries/STM32H7xx_HAL_Driver/Src/stm32h7xx_hal_exti.c ****   }
 1238              		.loc 1 717 13 view .LVU492
ARM GAS  /tmp/cceNacQR.s 			page 40


 1239 0018 0CBF     		ite	eq
 1240 001a 074B     		ldreq	r3, .L112
 1241              		.loc 1 722 13 view .LVU493
 1242 001c 074B     		ldrne	r3, .L112+4
 1243 001e 03EB0413 		add	r3, r3, r4, lsl #4
 1244              	.LVL158:
 723:./Libraries/STM32H7xx_HAL_Driver/Src/stm32h7xx_hal_exti.c ****   }
 724:./Libraries/STM32H7xx_HAL_Driver/Src/stm32h7xx_hal_exti.c **** #else
 725:./Libraries/STM32H7xx_HAL_Driver/Src/stm32h7xx_hal_exti.c ****   regaddr = (__IO uint32_t *)(&EXTI->PR1 + (EXTI_MODE_OFFSET * offset));
 726:./Libraries/STM32H7xx_HAL_Driver/Src/stm32h7xx_hal_exti.c **** #endif /* DUAL_CORE */
 727:./Libraries/STM32H7xx_HAL_Driver/Src/stm32h7xx_hal_exti.c **** 
 728:./Libraries/STM32H7xx_HAL_Driver/Src/stm32h7xx_hal_exti.c ****   /* Get pending bit  */
 729:./Libraries/STM32H7xx_HAL_Driver/Src/stm32h7xx_hal_exti.c ****   regval = (*regaddr & maskline);
 1245              		.loc 1 729 3 is_stmt 1 view .LVU494
 1246              		.loc 1 729 13 is_stmt 0 view .LVU495
 1247 0022 1A68     		ldr	r2, [r3]
 1248              	.LVL159:
 730:./Libraries/STM32H7xx_HAL_Driver/Src/stm32h7xx_hal_exti.c **** 
 731:./Libraries/STM32H7xx_HAL_Driver/Src/stm32h7xx_hal_exti.c ****   if (regval != 0x00U)
 1249              		.loc 1 731 3 is_stmt 1 view .LVU496
 1250              		.loc 1 731 6 is_stmt 0 view .LVU497
 1251 0024 2A42     		tst	r2, r5
 1252 0026 05D0     		beq	.L102
 732:./Libraries/STM32H7xx_HAL_Driver/Src/stm32h7xx_hal_exti.c ****   {
 733:./Libraries/STM32H7xx_HAL_Driver/Src/stm32h7xx_hal_exti.c ****     /* Clear pending bit */
 734:./Libraries/STM32H7xx_HAL_Driver/Src/stm32h7xx_hal_exti.c ****     *regaddr = maskline;
 1253              		.loc 1 734 5 is_stmt 1 view .LVU498
 735:./Libraries/STM32H7xx_HAL_Driver/Src/stm32h7xx_hal_exti.c **** 
 736:./Libraries/STM32H7xx_HAL_Driver/Src/stm32h7xx_hal_exti.c ****     /* Call callback */
 737:./Libraries/STM32H7xx_HAL_Driver/Src/stm32h7xx_hal_exti.c ****     if (hexti->PendingCallback != NULL)
 1254              		.loc 1 737 14 is_stmt 0 view .LVU499
 1255 0028 7268     		ldr	r2, [r6, #4]
 1256              	.LVL160:
 734:./Libraries/STM32H7xx_HAL_Driver/Src/stm32h7xx_hal_exti.c **** 
 1257              		.loc 1 734 14 view .LVU500
 1258 002a 1D60     		str	r5, [r3]
 1259              		.loc 1 737 5 is_stmt 1 view .LVU501
 1260              		.loc 1 737 8 is_stmt 0 view .LVU502
 1261 002c 12B1     		cbz	r2, .L102
 738:./Libraries/STM32H7xx_HAL_Driver/Src/stm32h7xx_hal_exti.c ****     {
 739:./Libraries/STM32H7xx_HAL_Driver/Src/stm32h7xx_hal_exti.c ****       hexti->PendingCallback();
 1262              		.loc 1 739 7 is_stmt 1 view .LVU503
 740:./Libraries/STM32H7xx_HAL_Driver/Src/stm32h7xx_hal_exti.c ****     }
 741:./Libraries/STM32H7xx_HAL_Driver/Src/stm32h7xx_hal_exti.c ****   }
 742:./Libraries/STM32H7xx_HAL_Driver/Src/stm32h7xx_hal_exti.c **** }
 1263              		.loc 1 742 1 is_stmt 0 view .LVU504
 1264 002e BDE87040 		pop	{r4, r5, r6, lr}
 1265              	.LCFI11:
 1266              		.cfi_remember_state
 1267              		.cfi_restore 14
 1268              		.cfi_restore 6
 1269              		.cfi_restore 5
 1270              		.cfi_restore 4
 1271              		.cfi_def_cfa_offset 0
 1272              	.LVL161:
 739:./Libraries/STM32H7xx_HAL_Driver/Src/stm32h7xx_hal_exti.c ****     }
 1273              		.loc 1 739 7 view .LVU505
ARM GAS  /tmp/cceNacQR.s 			page 41


 1274 0032 1047     		bx	r2	@ indirect register sibling call
 1275              	.LVL162:
 1276              	.L102:
 1277              	.LCFI12:
 1278              		.cfi_restore_state
 1279              		.loc 1 742 1 view .LVU506
 1280 0034 70BD     		pop	{r4, r5, r6, pc}
 1281              	.LVL163:
 1282              	.L113:
 1283              		.loc 1 742 1 view .LVU507
 1284 0036 00BF     		.align	2
 1285              	.L112:
 1286 0038 88000058 		.word	1476395144
 1287 003c C8000058 		.word	1476395208
 1288              		.cfi_endproc
 1289              	.LFE336:
 1291              		.section	.text.HAL_EXTI_GetPending,"ax",%progbits
 1292              		.align	1
 1293              		.p2align 2,,3
 1294              		.global	HAL_EXTI_GetPending
 1295              		.syntax unified
 1296              		.thumb
 1297              		.thumb_func
 1298              		.fpu fpv5-d16
 1300              	HAL_EXTI_GetPending:
 1301              	.LVL164:
 1302              	.LFB337:
 743:./Libraries/STM32H7xx_HAL_Driver/Src/stm32h7xx_hal_exti.c **** 
 744:./Libraries/STM32H7xx_HAL_Driver/Src/stm32h7xx_hal_exti.c **** 
 745:./Libraries/STM32H7xx_HAL_Driver/Src/stm32h7xx_hal_exti.c **** /**
 746:./Libraries/STM32H7xx_HAL_Driver/Src/stm32h7xx_hal_exti.c ****   * @brief  Get interrupt pending bit of a dedicated line.
 747:./Libraries/STM32H7xx_HAL_Driver/Src/stm32h7xx_hal_exti.c ****   * @param  hexti Exti handle.
 748:./Libraries/STM32H7xx_HAL_Driver/Src/stm32h7xx_hal_exti.c ****   * @param  Edge Specify which pending edge as to be checked.
 749:./Libraries/STM32H7xx_HAL_Driver/Src/stm32h7xx_hal_exti.c ****   *         This parameter can be one of the following values:
 750:./Libraries/STM32H7xx_HAL_Driver/Src/stm32h7xx_hal_exti.c ****   *           @arg @ref EXTI_TRIGGER_RISING_FALLING
 751:./Libraries/STM32H7xx_HAL_Driver/Src/stm32h7xx_hal_exti.c ****   *         This parameter is kept for compatibility with other series.
 752:./Libraries/STM32H7xx_HAL_Driver/Src/stm32h7xx_hal_exti.c ****   * @retval 1 if interrupt is pending else 0.
 753:./Libraries/STM32H7xx_HAL_Driver/Src/stm32h7xx_hal_exti.c ****   */
 754:./Libraries/STM32H7xx_HAL_Driver/Src/stm32h7xx_hal_exti.c **** uint32_t HAL_EXTI_GetPending(EXTI_HandleTypeDef *hexti, uint32_t Edge)
 755:./Libraries/STM32H7xx_HAL_Driver/Src/stm32h7xx_hal_exti.c **** {
 1303              		.loc 1 755 1 is_stmt 1 view -0
 1304              		.cfi_startproc
 1305              		@ args = 0, pretend = 0, frame = 0
 1306              		@ frame_needed = 0, uses_anonymous_args = 0
 756:./Libraries/STM32H7xx_HAL_Driver/Src/stm32h7xx_hal_exti.c ****   __IO uint32_t *regaddr;
 1307              		.loc 1 756 3 view .LVU509
 757:./Libraries/STM32H7xx_HAL_Driver/Src/stm32h7xx_hal_exti.c ****   uint32_t regval;
 1308              		.loc 1 757 3 view .LVU510
 758:./Libraries/STM32H7xx_HAL_Driver/Src/stm32h7xx_hal_exti.c ****   uint32_t linepos;
 1309              		.loc 1 758 3 view .LVU511
 759:./Libraries/STM32H7xx_HAL_Driver/Src/stm32h7xx_hal_exti.c ****   uint32_t maskline;
 1310              		.loc 1 759 3 view .LVU512
 760:./Libraries/STM32H7xx_HAL_Driver/Src/stm32h7xx_hal_exti.c ****   uint32_t offset;
 1311              		.loc 1 760 3 view .LVU513
 761:./Libraries/STM32H7xx_HAL_Driver/Src/stm32h7xx_hal_exti.c **** 
 762:./Libraries/STM32H7xx_HAL_Driver/Src/stm32h7xx_hal_exti.c ****   /* Check parameters */
 763:./Libraries/STM32H7xx_HAL_Driver/Src/stm32h7xx_hal_exti.c ****   assert_param(IS_EXTI_LINE(hexti->Line));
ARM GAS  /tmp/cceNacQR.s 			page 42


 1312              		.loc 1 763 3 view .LVU514
 764:./Libraries/STM32H7xx_HAL_Driver/Src/stm32h7xx_hal_exti.c ****   assert_param(IS_EXTI_CONFIG_LINE(hexti->Line));
 1313              		.loc 1 764 3 view .LVU515
 765:./Libraries/STM32H7xx_HAL_Driver/Src/stm32h7xx_hal_exti.c ****   assert_param(IS_EXTI_PENDING_EDGE(Edge));
 1314              		.loc 1 765 3 view .LVU516
 766:./Libraries/STM32H7xx_HAL_Driver/Src/stm32h7xx_hal_exti.c **** 
 767:./Libraries/STM32H7xx_HAL_Driver/Src/stm32h7xx_hal_exti.c ****   /* compute line register offset and line mask */
 768:./Libraries/STM32H7xx_HAL_Driver/Src/stm32h7xx_hal_exti.c ****   offset = ((hexti->Line & EXTI_REG_MASK) >> EXTI_REG_SHIFT);
 1315              		.loc 1 768 3 view .LVU517
 755:./Libraries/STM32H7xx_HAL_Driver/Src/stm32h7xx_hal_exti.c ****   __IO uint32_t *regaddr;
 1316              		.loc 1 755 1 is_stmt 0 view .LVU518
 1317 0000 70B5     		push	{r4, r5, r6, lr}
 1318              	.LCFI13:
 1319              		.cfi_def_cfa_offset 16
 1320              		.cfi_offset 4, -16
 1321              		.cfi_offset 5, -12
 1322              		.cfi_offset 6, -8
 1323              		.cfi_offset 14, -4
 1324              		.loc 1 768 19 view .LVU519
 1325 0002 0468     		ldr	r4, [r0]
 769:./Libraries/STM32H7xx_HAL_Driver/Src/stm32h7xx_hal_exti.c ****   linepos = (hexti->Line & EXTI_PIN_MASK);
 770:./Libraries/STM32H7xx_HAL_Driver/Src/stm32h7xx_hal_exti.c ****   maskline = (1UL << linepos);
 771:./Libraries/STM32H7xx_HAL_Driver/Src/stm32h7xx_hal_exti.c **** 
 772:./Libraries/STM32H7xx_HAL_Driver/Src/stm32h7xx_hal_exti.c **** #if defined(DUAL_CORE)
 773:./Libraries/STM32H7xx_HAL_Driver/Src/stm32h7xx_hal_exti.c ****   if (HAL_GetCurrentCPUID() == CM7_CPUID)
 1326              		.loc 1 773 7 view .LVU520
 1327 0004 FFF7FEFF 		bl	HAL_GetCurrentCPUID
 1328              	.LVL165:
 1329              		.loc 1 773 6 view .LVU521
 1330 0008 0328     		cmp	r0, #3
 770:./Libraries/STM32H7xx_HAL_Driver/Src/stm32h7xx_hal_exti.c **** 
 1331              		.loc 1 770 12 view .LVU522
 1332 000a 4FF00105 		mov	r5, #1
 769:./Libraries/STM32H7xx_HAL_Driver/Src/stm32h7xx_hal_exti.c ****   linepos = (hexti->Line & EXTI_PIN_MASK);
 1333              		.loc 1 769 11 view .LVU523
 1334 000e 04F01F06 		and	r6, r4, #31
 768:./Libraries/STM32H7xx_HAL_Driver/Src/stm32h7xx_hal_exti.c ****   linepos = (hexti->Line & EXTI_PIN_MASK);
 1335              		.loc 1 768 10 view .LVU524
 1336 0012 C4F30144 		ubfx	r4, r4, #16, #2
 1337              	.LVL166:
 769:./Libraries/STM32H7xx_HAL_Driver/Src/stm32h7xx_hal_exti.c ****   linepos = (hexti->Line & EXTI_PIN_MASK);
 1338              		.loc 1 769 3 is_stmt 1 view .LVU525
 770:./Libraries/STM32H7xx_HAL_Driver/Src/stm32h7xx_hal_exti.c **** 
 1339              		.loc 1 770 3 view .LVU526
 774:./Libraries/STM32H7xx_HAL_Driver/Src/stm32h7xx_hal_exti.c ****   {
 775:./Libraries/STM32H7xx_HAL_Driver/Src/stm32h7xx_hal_exti.c ****     /* Get pending register address */
 776:./Libraries/STM32H7xx_HAL_Driver/Src/stm32h7xx_hal_exti.c ****     regaddr = (__IO uint32_t *)(&EXTI->PR1 + (EXTI_MODE_OFFSET * offset));
 1340              		.loc 1 776 13 is_stmt 0 view .LVU527
 1341 0016 0CBF     		ite	eq
 1342 0018 044B     		ldreq	r3, .L118
 777:./Libraries/STM32H7xx_HAL_Driver/Src/stm32h7xx_hal_exti.c ****   }
 778:./Libraries/STM32H7xx_HAL_Driver/Src/stm32h7xx_hal_exti.c ****   else /* Cortex-M4 */
 779:./Libraries/STM32H7xx_HAL_Driver/Src/stm32h7xx_hal_exti.c ****   {
 780:./Libraries/STM32H7xx_HAL_Driver/Src/stm32h7xx_hal_exti.c ****     /* Get pending register address */
 781:./Libraries/STM32H7xx_HAL_Driver/Src/stm32h7xx_hal_exti.c ****     regaddr = (__IO uint32_t *)(&EXTI->C2PR1 + (EXTI_MODE_OFFSET * offset));
 1343              		.loc 1 781 13 view .LVU528
 1344 001a 054B     		ldrne	r3, .L118+4
ARM GAS  /tmp/cceNacQR.s 			page 43


 770:./Libraries/STM32H7xx_HAL_Driver/Src/stm32h7xx_hal_exti.c **** 
 1345              		.loc 1 770 12 view .LVU529
 1346 001c B540     		lsls	r5, r5, r6
 1347              	.LVL167:
 773:./Libraries/STM32H7xx_HAL_Driver/Src/stm32h7xx_hal_exti.c ****   {
 1348              		.loc 1 773 3 is_stmt 1 view .LVU530
 776:./Libraries/STM32H7xx_HAL_Driver/Src/stm32h7xx_hal_exti.c ****   }
 1349              		.loc 1 776 5 view .LVU531
 1350              		.loc 1 781 5 view .LVU532
 1351              		.loc 1 781 13 is_stmt 0 view .LVU533
 1352 001e 03EB0413 		add	r3, r3, r4, lsl #4
 1353              	.LVL168:
 782:./Libraries/STM32H7xx_HAL_Driver/Src/stm32h7xx_hal_exti.c ****   }
 783:./Libraries/STM32H7xx_HAL_Driver/Src/stm32h7xx_hal_exti.c **** #else
 784:./Libraries/STM32H7xx_HAL_Driver/Src/stm32h7xx_hal_exti.c ****   regaddr = (__IO uint32_t *)(&EXTI->PR1 + (EXTI_MODE_OFFSET * offset));
 785:./Libraries/STM32H7xx_HAL_Driver/Src/stm32h7xx_hal_exti.c **** #endif /* DUAL_CORE */
 786:./Libraries/STM32H7xx_HAL_Driver/Src/stm32h7xx_hal_exti.c **** 
 787:./Libraries/STM32H7xx_HAL_Driver/Src/stm32h7xx_hal_exti.c ****   /* return 1 if bit is set else 0 */
 788:./Libraries/STM32H7xx_HAL_Driver/Src/stm32h7xx_hal_exti.c ****   regval = ((*regaddr & maskline) >> linepos);
 1354              		.loc 1 788 3 is_stmt 1 view .LVU534
 1355              		.loc 1 788 14 is_stmt 0 view .LVU535
 1356 0022 1868     		ldr	r0, [r3]
 1357              	.LVL169:
 789:./Libraries/STM32H7xx_HAL_Driver/Src/stm32h7xx_hal_exti.c ****   return regval;
 1358              		.loc 1 789 3 is_stmt 1 view .LVU536
 788:./Libraries/STM32H7xx_HAL_Driver/Src/stm32h7xx_hal_exti.c ****   return regval;
 1359              		.loc 1 788 23 is_stmt 0 view .LVU537
 1360 0024 2840     		ands	r0, r0, r5
 1361              	.LVL170:
 790:./Libraries/STM32H7xx_HAL_Driver/Src/stm32h7xx_hal_exti.c **** }
 1362              		.loc 1 790 1 view .LVU538
 1363 0026 F040     		lsrs	r0, r0, r6
 1364              	.LVL171:
 1365              		.loc 1 790 1 view .LVU539
 1366 0028 70BD     		pop	{r4, r5, r6, pc}
 1367              	.LVL172:
 1368              	.L119:
 1369              		.loc 1 790 1 view .LVU540
 1370 002a 00BF     		.align	2
 1371              	.L118:
 1372 002c 88000058 		.word	1476395144
 1373 0030 C8000058 		.word	1476395208
 1374              		.cfi_endproc
 1375              	.LFE337:
 1377              		.section	.text.HAL_EXTI_ClearPending,"ax",%progbits
 1378              		.align	1
 1379              		.p2align 2,,3
 1380              		.global	HAL_EXTI_ClearPending
 1381              		.syntax unified
 1382              		.thumb
 1383              		.thumb_func
 1384              		.fpu fpv5-d16
 1386              	HAL_EXTI_ClearPending:
 1387              	.LVL173:
 1388              	.LFB338:
 791:./Libraries/STM32H7xx_HAL_Driver/Src/stm32h7xx_hal_exti.c **** 
 792:./Libraries/STM32H7xx_HAL_Driver/Src/stm32h7xx_hal_exti.c **** 
ARM GAS  /tmp/cceNacQR.s 			page 44


 793:./Libraries/STM32H7xx_HAL_Driver/Src/stm32h7xx_hal_exti.c **** /**
 794:./Libraries/STM32H7xx_HAL_Driver/Src/stm32h7xx_hal_exti.c ****   * @brief  Clear interrupt pending bit of a dedicated line.
 795:./Libraries/STM32H7xx_HAL_Driver/Src/stm32h7xx_hal_exti.c ****   * @param  hexti Exti handle.
 796:./Libraries/STM32H7xx_HAL_Driver/Src/stm32h7xx_hal_exti.c ****   * @param  Edge Specify which pending edge as to be clear.
 797:./Libraries/STM32H7xx_HAL_Driver/Src/stm32h7xx_hal_exti.c ****   *         This parameter can be one of the following values:
 798:./Libraries/STM32H7xx_HAL_Driver/Src/stm32h7xx_hal_exti.c ****   *           @arg @ref EXTI_TRIGGER_RISING_FALLING
 799:./Libraries/STM32H7xx_HAL_Driver/Src/stm32h7xx_hal_exti.c ****   *         This parameter is kept for compatibility with other series.
 800:./Libraries/STM32H7xx_HAL_Driver/Src/stm32h7xx_hal_exti.c ****   * @retval None.
 801:./Libraries/STM32H7xx_HAL_Driver/Src/stm32h7xx_hal_exti.c ****   */
 802:./Libraries/STM32H7xx_HAL_Driver/Src/stm32h7xx_hal_exti.c **** void HAL_EXTI_ClearPending(EXTI_HandleTypeDef *hexti, uint32_t Edge)
 803:./Libraries/STM32H7xx_HAL_Driver/Src/stm32h7xx_hal_exti.c **** {
 1389              		.loc 1 803 1 is_stmt 1 view -0
 1390              		.cfi_startproc
 1391              		@ args = 0, pretend = 0, frame = 0
 1392              		@ frame_needed = 0, uses_anonymous_args = 0
 804:./Libraries/STM32H7xx_HAL_Driver/Src/stm32h7xx_hal_exti.c ****   __IO uint32_t *regaddr;
 1393              		.loc 1 804 3 view .LVU542
 805:./Libraries/STM32H7xx_HAL_Driver/Src/stm32h7xx_hal_exti.c ****   uint32_t maskline;
 1394              		.loc 1 805 3 view .LVU543
 806:./Libraries/STM32H7xx_HAL_Driver/Src/stm32h7xx_hal_exti.c ****   uint32_t offset;
 1395              		.loc 1 806 3 view .LVU544
 807:./Libraries/STM32H7xx_HAL_Driver/Src/stm32h7xx_hal_exti.c **** 
 808:./Libraries/STM32H7xx_HAL_Driver/Src/stm32h7xx_hal_exti.c ****   /* Check parameters */
 809:./Libraries/STM32H7xx_HAL_Driver/Src/stm32h7xx_hal_exti.c ****   assert_param(IS_EXTI_LINE(hexti->Line));
 1396              		.loc 1 809 3 view .LVU545
 810:./Libraries/STM32H7xx_HAL_Driver/Src/stm32h7xx_hal_exti.c ****   assert_param(IS_EXTI_CONFIG_LINE(hexti->Line));
 1397              		.loc 1 810 3 view .LVU546
 811:./Libraries/STM32H7xx_HAL_Driver/Src/stm32h7xx_hal_exti.c ****   assert_param(IS_EXTI_PENDING_EDGE(Edge));
 1398              		.loc 1 811 3 view .LVU547
 812:./Libraries/STM32H7xx_HAL_Driver/Src/stm32h7xx_hal_exti.c **** 
 813:./Libraries/STM32H7xx_HAL_Driver/Src/stm32h7xx_hal_exti.c ****   /* compute line register offset and line mask */
 814:./Libraries/STM32H7xx_HAL_Driver/Src/stm32h7xx_hal_exti.c ****   offset = ((hexti->Line & EXTI_REG_MASK) >> EXTI_REG_SHIFT);
 1399              		.loc 1 814 3 view .LVU548
 803:./Libraries/STM32H7xx_HAL_Driver/Src/stm32h7xx_hal_exti.c ****   __IO uint32_t *regaddr;
 1400              		.loc 1 803 1 is_stmt 0 view .LVU549
 1401 0000 38B5     		push	{r3, r4, r5, lr}
 1402              	.LCFI14:
 1403              		.cfi_def_cfa_offset 16
 1404              		.cfi_offset 3, -16
 1405              		.cfi_offset 4, -12
 1406              		.cfi_offset 5, -8
 1407              		.cfi_offset 14, -4
 1408              		.loc 1 814 19 view .LVU550
 1409 0002 0468     		ldr	r4, [r0]
 815:./Libraries/STM32H7xx_HAL_Driver/Src/stm32h7xx_hal_exti.c ****   maskline = (1UL << (hexti->Line & EXTI_PIN_MASK));
 1410              		.loc 1 815 12 view .LVU551
 1411 0004 0125     		movs	r5, #1
 1412              		.loc 1 815 35 view .LVU552
 1413 0006 04F01F02 		and	r2, r4, #31
 814:./Libraries/STM32H7xx_HAL_Driver/Src/stm32h7xx_hal_exti.c ****   maskline = (1UL << (hexti->Line & EXTI_PIN_MASK));
 1414              		.loc 1 814 10 view .LVU553
 1415 000a C4F30144 		ubfx	r4, r4, #16, #2
 1416              	.LVL174:
 1417              		.loc 1 815 3 is_stmt 1 view .LVU554
 1418              		.loc 1 815 12 is_stmt 0 view .LVU555
 1419 000e 9540     		lsls	r5, r5, r2
 1420              	.LVL175:
ARM GAS  /tmp/cceNacQR.s 			page 45


 816:./Libraries/STM32H7xx_HAL_Driver/Src/stm32h7xx_hal_exti.c **** 
 817:./Libraries/STM32H7xx_HAL_Driver/Src/stm32h7xx_hal_exti.c **** #if defined(DUAL_CORE)
 818:./Libraries/STM32H7xx_HAL_Driver/Src/stm32h7xx_hal_exti.c ****   if (HAL_GetCurrentCPUID() == CM7_CPUID)
 1421              		.loc 1 818 3 is_stmt 1 view .LVU556
 1422              		.loc 1 818 7 is_stmt 0 view .LVU557
 1423 0010 FFF7FEFF 		bl	HAL_GetCurrentCPUID
 1424              	.LVL176:
 819:./Libraries/STM32H7xx_HAL_Driver/Src/stm32h7xx_hal_exti.c ****   {
 820:./Libraries/STM32H7xx_HAL_Driver/Src/stm32h7xx_hal_exti.c ****     /* Get pending register address */
 821:./Libraries/STM32H7xx_HAL_Driver/Src/stm32h7xx_hal_exti.c ****     regaddr = (__IO uint32_t *)(&EXTI->PR1 + (EXTI_MODE_OFFSET * offset));
 1425              		.loc 1 821 5 is_stmt 1 view .LVU558
 822:./Libraries/STM32H7xx_HAL_Driver/Src/stm32h7xx_hal_exti.c ****   }
 823:./Libraries/STM32H7xx_HAL_Driver/Src/stm32h7xx_hal_exti.c ****   else /* Cortex-M4 */
 824:./Libraries/STM32H7xx_HAL_Driver/Src/stm32h7xx_hal_exti.c ****   {
 825:./Libraries/STM32H7xx_HAL_Driver/Src/stm32h7xx_hal_exti.c ****     /* Get pending register address */
 826:./Libraries/STM32H7xx_HAL_Driver/Src/stm32h7xx_hal_exti.c ****     regaddr = (__IO uint32_t *)(&EXTI->C2PR1 + (EXTI_MODE_OFFSET * offset));
 1426              		.loc 1 826 5 view .LVU559
 818:./Libraries/STM32H7xx_HAL_Driver/Src/stm32h7xx_hal_exti.c ****   {
 1427              		.loc 1 818 6 is_stmt 0 view .LVU560
 1428 0014 0328     		cmp	r0, #3
 821:./Libraries/STM32H7xx_HAL_Driver/Src/stm32h7xx_hal_exti.c ****   }
 1429              		.loc 1 821 13 view .LVU561
 1430 0016 0CBF     		ite	eq
 1431 0018 024B     		ldreq	r3, .L124
 1432              		.loc 1 826 13 view .LVU562
 1433 001a 034B     		ldrne	r3, .L124+4
 1434 001c 03EB0413 		add	r3, r3, r4, lsl #4
 1435              	.LVL177:
 827:./Libraries/STM32H7xx_HAL_Driver/Src/stm32h7xx_hal_exti.c ****   }
 828:./Libraries/STM32H7xx_HAL_Driver/Src/stm32h7xx_hal_exti.c **** #else
 829:./Libraries/STM32H7xx_HAL_Driver/Src/stm32h7xx_hal_exti.c ****   regaddr = (__IO uint32_t *)(&EXTI->PR1 + (EXTI_MODE_OFFSET * offset));
 830:./Libraries/STM32H7xx_HAL_Driver/Src/stm32h7xx_hal_exti.c **** #endif /* DUAL_CORE */
 831:./Libraries/STM32H7xx_HAL_Driver/Src/stm32h7xx_hal_exti.c **** 
 832:./Libraries/STM32H7xx_HAL_Driver/Src/stm32h7xx_hal_exti.c ****   /* Clear Pending bit */
 833:./Libraries/STM32H7xx_HAL_Driver/Src/stm32h7xx_hal_exti.c ****   *regaddr =  maskline;
 1436              		.loc 1 833 3 is_stmt 1 view .LVU563
 1437              		.loc 1 833 12 is_stmt 0 view .LVU564
 1438 0020 1D60     		str	r5, [r3]
 834:./Libraries/STM32H7xx_HAL_Driver/Src/stm32h7xx_hal_exti.c **** }
 1439              		.loc 1 834 1 view .LVU565
 1440 0022 38BD     		pop	{r3, r4, r5, pc}
 1441              	.LVL178:
 1442              	.L125:
 1443              		.loc 1 834 1 view .LVU566
 1444              		.align	2
 1445              	.L124:
 1446 0024 88000058 		.word	1476395144
 1447 0028 C8000058 		.word	1476395208
 1448              		.cfi_endproc
 1449              	.LFE338:
 1451              		.section	.text.HAL_EXTI_GenerateSWI,"ax",%progbits
 1452              		.align	1
 1453              		.p2align 2,,3
 1454              		.global	HAL_EXTI_GenerateSWI
 1455              		.syntax unified
 1456              		.thumb
 1457              		.thumb_func
ARM GAS  /tmp/cceNacQR.s 			page 46


 1458              		.fpu fpv5-d16
 1460              	HAL_EXTI_GenerateSWI:
 1461              	.LVL179:
 1462              	.LFB339:
 835:./Libraries/STM32H7xx_HAL_Driver/Src/stm32h7xx_hal_exti.c **** 
 836:./Libraries/STM32H7xx_HAL_Driver/Src/stm32h7xx_hal_exti.c **** /**
 837:./Libraries/STM32H7xx_HAL_Driver/Src/stm32h7xx_hal_exti.c ****   * @brief  Generate a software interrupt for a dedicated line.
 838:./Libraries/STM32H7xx_HAL_Driver/Src/stm32h7xx_hal_exti.c ****   * @param  hexti Exti handle.
 839:./Libraries/STM32H7xx_HAL_Driver/Src/stm32h7xx_hal_exti.c ****   * @retval None.
 840:./Libraries/STM32H7xx_HAL_Driver/Src/stm32h7xx_hal_exti.c ****   */
 841:./Libraries/STM32H7xx_HAL_Driver/Src/stm32h7xx_hal_exti.c **** void HAL_EXTI_GenerateSWI(EXTI_HandleTypeDef *hexti)
 842:./Libraries/STM32H7xx_HAL_Driver/Src/stm32h7xx_hal_exti.c **** {
 1463              		.loc 1 842 1 is_stmt 1 view -0
 1464              		.cfi_startproc
 1465              		@ args = 0, pretend = 0, frame = 0
 1466              		@ frame_needed = 0, uses_anonymous_args = 0
 1467              		@ link register save eliminated.
 843:./Libraries/STM32H7xx_HAL_Driver/Src/stm32h7xx_hal_exti.c ****   __IO uint32_t *regaddr;
 1468              		.loc 1 843 3 view .LVU568
 844:./Libraries/STM32H7xx_HAL_Driver/Src/stm32h7xx_hal_exti.c ****   uint32_t maskline;
 1469              		.loc 1 844 3 view .LVU569
 845:./Libraries/STM32H7xx_HAL_Driver/Src/stm32h7xx_hal_exti.c ****   uint32_t offset;
 1470              		.loc 1 845 3 view .LVU570
 846:./Libraries/STM32H7xx_HAL_Driver/Src/stm32h7xx_hal_exti.c **** 
 847:./Libraries/STM32H7xx_HAL_Driver/Src/stm32h7xx_hal_exti.c ****   /* Check parameters */
 848:./Libraries/STM32H7xx_HAL_Driver/Src/stm32h7xx_hal_exti.c ****   assert_param(IS_EXTI_LINE(hexti->Line));
 1471              		.loc 1 848 3 view .LVU571
 849:./Libraries/STM32H7xx_HAL_Driver/Src/stm32h7xx_hal_exti.c ****   assert_param(IS_EXTI_CONFIG_LINE(hexti->Line));
 1472              		.loc 1 849 3 view .LVU572
 850:./Libraries/STM32H7xx_HAL_Driver/Src/stm32h7xx_hal_exti.c **** 
 851:./Libraries/STM32H7xx_HAL_Driver/Src/stm32h7xx_hal_exti.c ****   /* compute line register offset and line mask */
 852:./Libraries/STM32H7xx_HAL_Driver/Src/stm32h7xx_hal_exti.c ****   offset = ((hexti->Line & EXTI_REG_MASK) >> EXTI_REG_SHIFT);
 1473              		.loc 1 852 3 view .LVU573
 1474              		.loc 1 852 19 is_stmt 0 view .LVU574
 1475 0000 0368     		ldr	r3, [r0]
 1476              	.LVL180:
 853:./Libraries/STM32H7xx_HAL_Driver/Src/stm32h7xx_hal_exti.c ****   maskline = (1UL << (hexti->Line & EXTI_PIN_MASK));
 1477              		.loc 1 853 3 is_stmt 1 view .LVU575
 1478              		.loc 1 853 12 is_stmt 0 view .LVU576
 1479 0002 0122     		movs	r2, #1
 854:./Libraries/STM32H7xx_HAL_Driver/Src/stm32h7xx_hal_exti.c **** 
 855:./Libraries/STM32H7xx_HAL_Driver/Src/stm32h7xx_hal_exti.c ****   regaddr = (__IO uint32_t *)(&EXTI->SWIER1 + (EXTI_CONFIG_OFFSET * offset));
 1480              		.loc 1 855 11 view .LVU577
 1481 0004 0449     		ldr	r1, .L127
 853:./Libraries/STM32H7xx_HAL_Driver/Src/stm32h7xx_hal_exti.c ****   maskline = (1UL << (hexti->Line & EXTI_PIN_MASK));
 1482              		.loc 1 853 35 view .LVU578
 1483 0006 03F01F00 		and	r0, r3, #31
 1484              	.LVL181:
 852:./Libraries/STM32H7xx_HAL_Driver/Src/stm32h7xx_hal_exti.c ****   maskline = (1UL << (hexti->Line & EXTI_PIN_MASK));
 1485              		.loc 1 852 10 view .LVU579
 1486 000a C3F30143 		ubfx	r3, r3, #16, #2
 1487              	.LVL182:
 853:./Libraries/STM32H7xx_HAL_Driver/Src/stm32h7xx_hal_exti.c ****   maskline = (1UL << (hexti->Line & EXTI_PIN_MASK));
 1488              		.loc 1 853 12 view .LVU580
 1489 000e 8240     		lsls	r2, r2, r0
 1490              	.LVL183:
 1491              		.loc 1 855 3 is_stmt 1 view .LVU581
ARM GAS  /tmp/cceNacQR.s 			page 47


 1492              		.loc 1 855 13 is_stmt 0 view .LVU582
 1493 0010 5B01     		lsls	r3, r3, #5
 1494              	.LVL184:
 856:./Libraries/STM32H7xx_HAL_Driver/Src/stm32h7xx_hal_exti.c ****   *regaddr = maskline;
 1495              		.loc 1 856 3 is_stmt 1 view .LVU583
 1496              		.loc 1 856 12 is_stmt 0 view .LVU584
 1497 0012 5A50     		str	r2, [r3, r1]
 1498              	.LVL185:
 857:./Libraries/STM32H7xx_HAL_Driver/Src/stm32h7xx_hal_exti.c **** }
 1499              		.loc 1 857 1 view .LVU585
 1500 0014 7047     		bx	lr
 1501              	.L128:
 1502 0016 00BF     		.align	2
 1503              	.L127:
 1504 0018 08000058 		.word	1476395016
 1505              		.cfi_endproc
 1506              	.LFE339:
 1508              		.text
 1509              	.Letext0:
 1510              		.file 2 "/usr/lib/gcc/arm-none-eabi/9.2.1/include/stdint.h"
 1511              		.file 3 "./Libraries/CMSIS/Core/Include/core_cm7.h"
 1512              		.file 4 "./Libraries/CMSIS/Device/ST/STM32H7xx/Include/system_stm32h7xx.h"
 1513              		.file 5 "./Libraries/CMSIS/Device/ST/STM32H7xx/Include/stm32h747xx.h"
 1514              		.file 6 "/usr/lib/gcc/arm-none-eabi/9.2.1/include/stddef.h"
 1515              		.file 7 "/usr/include/newlib/sys/_types.h"
 1516              		.file 8 "/usr/include/newlib/sys/reent.h"
 1517              		.file 9 "/usr/include/newlib/sys/lock.h"
 1518              		.file 10 "/usr/include/newlib/math.h"
 1519              		.file 11 "./Libraries/STM32H7xx_HAL_Driver/Inc/stm32h7xx_hal_def.h"
 1520              		.file 12 "./Libraries/STM32H7xx_HAL_Driver/Inc/stm32h7xx_hal_exti.h"
 1521              		.file 13 "./Libraries/STM32H7xx_HAL_Driver/Inc/stm32h7xx_hal_flash.h"
 1522              		.file 14 "./Libraries/STM32H7xx_HAL_Driver/Inc/stm32h7xx_hal_uart.h"
 1523              		.file 15 "./Libraries/STM32H7xx_HAL_Driver/Inc/stm32h7xx_hal.h"
 1524              		.file 16 "./Libraries/STM32H7xx_HAL_Driver/Inc/stm32h7xx_hal_cortex.h"
ARM GAS  /tmp/cceNacQR.s 			page 48

