ARM GAS  /tmp/ccbIg2bp.s 			page 1


   1              		.cpu cortex-m7
   2              		.eabi_attribute 28, 1
   3              		.eabi_attribute 20, 1
   4              		.eabi_attribute 21, 1
   5              		.eabi_attribute 23, 3
   6              		.eabi_attribute 24, 1
   7              		.eabi_attribute 25, 1
   8              		.eabi_attribute 26, 1
   9              		.eabi_attribute 30, 2
  10              		.eabi_attribute 34, 1
  11              		.eabi_attribute 18, 4
  12              		.file	"stm32h7xx_hal_crc.c"
  13              		.text
  14              	.Ltext0:
  15              		.cfi_sections	.debug_frame
  16              		.section	.text.CRC_Handle_8,"ax",%progbits
  17              		.align	1
  18              		.p2align 2,,3
  19              		.arch armv7e-m
  20              		.syntax unified
  21              		.thumb
  22              		.thumb_func
  23              		.fpu fpv5-d16
  25              	CRC_Handle_8:
  26              	.LVL0:
  27              	.LFB338:
  28              		.file 1 "./Libraries/STM32H7xx_HAL_Driver/Src/stm32h7xx_hal_crc.c"
   1:./Libraries/STM32H7xx_HAL_Driver/Src/stm32h7xx_hal_crc.c **** /**
   2:./Libraries/STM32H7xx_HAL_Driver/Src/stm32h7xx_hal_crc.c ****   ******************************************************************************
   3:./Libraries/STM32H7xx_HAL_Driver/Src/stm32h7xx_hal_crc.c ****   * @file    stm32h7xx_hal_crc.c
   4:./Libraries/STM32H7xx_HAL_Driver/Src/stm32h7xx_hal_crc.c ****   * @author  MCD Application Team
   5:./Libraries/STM32H7xx_HAL_Driver/Src/stm32h7xx_hal_crc.c ****   * @brief   CRC HAL module driver.
   6:./Libraries/STM32H7xx_HAL_Driver/Src/stm32h7xx_hal_crc.c ****   *          This file provides firmware functions to manage the following
   7:./Libraries/STM32H7xx_HAL_Driver/Src/stm32h7xx_hal_crc.c ****   *          functionalities of the Cyclic Redundancy Check (CRC) peripheral:
   8:./Libraries/STM32H7xx_HAL_Driver/Src/stm32h7xx_hal_crc.c ****   *           + Initialization and de-initialization functions
   9:./Libraries/STM32H7xx_HAL_Driver/Src/stm32h7xx_hal_crc.c ****   *           + Peripheral Control functions
  10:./Libraries/STM32H7xx_HAL_Driver/Src/stm32h7xx_hal_crc.c ****   *           + Peripheral State functions
  11:./Libraries/STM32H7xx_HAL_Driver/Src/stm32h7xx_hal_crc.c ****   *
  12:./Libraries/STM32H7xx_HAL_Driver/Src/stm32h7xx_hal_crc.c ****   @verbatim
  13:./Libraries/STM32H7xx_HAL_Driver/Src/stm32h7xx_hal_crc.c ****  ===============================================================================
  14:./Libraries/STM32H7xx_HAL_Driver/Src/stm32h7xx_hal_crc.c ****                      ##### How to use this driver #####
  15:./Libraries/STM32H7xx_HAL_Driver/Src/stm32h7xx_hal_crc.c ****  ===============================================================================
  16:./Libraries/STM32H7xx_HAL_Driver/Src/stm32h7xx_hal_crc.c ****     [..]
  17:./Libraries/STM32H7xx_HAL_Driver/Src/stm32h7xx_hal_crc.c ****          (+) Enable CRC AHB clock using __HAL_RCC_CRC_CLK_ENABLE();
  18:./Libraries/STM32H7xx_HAL_Driver/Src/stm32h7xx_hal_crc.c ****          (+) Initialize CRC calculator
  19:./Libraries/STM32H7xx_HAL_Driver/Src/stm32h7xx_hal_crc.c ****              (++) specify generating polynomial (peripheral default or non-default one)
  20:./Libraries/STM32H7xx_HAL_Driver/Src/stm32h7xx_hal_crc.c ****              (++) specify initialization value (peripheral default or non-default one)
  21:./Libraries/STM32H7xx_HAL_Driver/Src/stm32h7xx_hal_crc.c ****              (++) specify input data format
  22:./Libraries/STM32H7xx_HAL_Driver/Src/stm32h7xx_hal_crc.c ****              (++) specify input or output data inversion mode if any
  23:./Libraries/STM32H7xx_HAL_Driver/Src/stm32h7xx_hal_crc.c ****          (+) Use HAL_CRC_Accumulate() function to compute the CRC value of the
  24:./Libraries/STM32H7xx_HAL_Driver/Src/stm32h7xx_hal_crc.c ****              input data buffer starting with the previously computed CRC as
  25:./Libraries/STM32H7xx_HAL_Driver/Src/stm32h7xx_hal_crc.c ****              initialization value
  26:./Libraries/STM32H7xx_HAL_Driver/Src/stm32h7xx_hal_crc.c ****          (+) Use HAL_CRC_Calculate() function to compute the CRC value of the
  27:./Libraries/STM32H7xx_HAL_Driver/Src/stm32h7xx_hal_crc.c ****              input data buffer starting with the defined initialization value
  28:./Libraries/STM32H7xx_HAL_Driver/Src/stm32h7xx_hal_crc.c ****              (default or non-default) to initiate CRC calculation
  29:./Libraries/STM32H7xx_HAL_Driver/Src/stm32h7xx_hal_crc.c **** 
  30:./Libraries/STM32H7xx_HAL_Driver/Src/stm32h7xx_hal_crc.c ****   @endverbatim
ARM GAS  /tmp/ccbIg2bp.s 			page 2


  31:./Libraries/STM32H7xx_HAL_Driver/Src/stm32h7xx_hal_crc.c ****   ******************************************************************************
  32:./Libraries/STM32H7xx_HAL_Driver/Src/stm32h7xx_hal_crc.c ****   * @attention
  33:./Libraries/STM32H7xx_HAL_Driver/Src/stm32h7xx_hal_crc.c ****   *
  34:./Libraries/STM32H7xx_HAL_Driver/Src/stm32h7xx_hal_crc.c ****   * <h2><center>&copy; Copyright (c) 2017 STMicroelectronics.
  35:./Libraries/STM32H7xx_HAL_Driver/Src/stm32h7xx_hal_crc.c ****   * All rights reserved.</center></h2>
  36:./Libraries/STM32H7xx_HAL_Driver/Src/stm32h7xx_hal_crc.c ****   *
  37:./Libraries/STM32H7xx_HAL_Driver/Src/stm32h7xx_hal_crc.c ****   * This software component is licensed by ST under BSD 3-Clause license,
  38:./Libraries/STM32H7xx_HAL_Driver/Src/stm32h7xx_hal_crc.c ****   * the "License"; You may not use this file except in compliance with the
  39:./Libraries/STM32H7xx_HAL_Driver/Src/stm32h7xx_hal_crc.c ****   * License. You may obtain a copy of the License at:
  40:./Libraries/STM32H7xx_HAL_Driver/Src/stm32h7xx_hal_crc.c ****   *                        opensource.org/licenses/BSD-3-Clause
  41:./Libraries/STM32H7xx_HAL_Driver/Src/stm32h7xx_hal_crc.c ****   *
  42:./Libraries/STM32H7xx_HAL_Driver/Src/stm32h7xx_hal_crc.c ****   ******************************************************************************
  43:./Libraries/STM32H7xx_HAL_Driver/Src/stm32h7xx_hal_crc.c ****   */
  44:./Libraries/STM32H7xx_HAL_Driver/Src/stm32h7xx_hal_crc.c **** 
  45:./Libraries/STM32H7xx_HAL_Driver/Src/stm32h7xx_hal_crc.c **** /* Includes ------------------------------------------------------------------*/
  46:./Libraries/STM32H7xx_HAL_Driver/Src/stm32h7xx_hal_crc.c **** #include "stm32h7xx_hal.h"
  47:./Libraries/STM32H7xx_HAL_Driver/Src/stm32h7xx_hal_crc.c **** 
  48:./Libraries/STM32H7xx_HAL_Driver/Src/stm32h7xx_hal_crc.c **** /** @addtogroup STM32H7xx_HAL_Driver
  49:./Libraries/STM32H7xx_HAL_Driver/Src/stm32h7xx_hal_crc.c ****   * @{
  50:./Libraries/STM32H7xx_HAL_Driver/Src/stm32h7xx_hal_crc.c ****   */
  51:./Libraries/STM32H7xx_HAL_Driver/Src/stm32h7xx_hal_crc.c **** 
  52:./Libraries/STM32H7xx_HAL_Driver/Src/stm32h7xx_hal_crc.c **** /** @defgroup CRC CRC
  53:./Libraries/STM32H7xx_HAL_Driver/Src/stm32h7xx_hal_crc.c ****   * @brief CRC HAL module driver.
  54:./Libraries/STM32H7xx_HAL_Driver/Src/stm32h7xx_hal_crc.c ****   * @{
  55:./Libraries/STM32H7xx_HAL_Driver/Src/stm32h7xx_hal_crc.c ****   */
  56:./Libraries/STM32H7xx_HAL_Driver/Src/stm32h7xx_hal_crc.c **** 
  57:./Libraries/STM32H7xx_HAL_Driver/Src/stm32h7xx_hal_crc.c **** #ifdef HAL_CRC_MODULE_ENABLED
  58:./Libraries/STM32H7xx_HAL_Driver/Src/stm32h7xx_hal_crc.c **** 
  59:./Libraries/STM32H7xx_HAL_Driver/Src/stm32h7xx_hal_crc.c **** /* Private typedef -----------------------------------------------------------*/
  60:./Libraries/STM32H7xx_HAL_Driver/Src/stm32h7xx_hal_crc.c **** /* Private define ------------------------------------------------------------*/
  61:./Libraries/STM32H7xx_HAL_Driver/Src/stm32h7xx_hal_crc.c **** /* Private macro -------------------------------------------------------------*/
  62:./Libraries/STM32H7xx_HAL_Driver/Src/stm32h7xx_hal_crc.c **** /* Private variables ---------------------------------------------------------*/
  63:./Libraries/STM32H7xx_HAL_Driver/Src/stm32h7xx_hal_crc.c **** /* Private function prototypes -----------------------------------------------*/
  64:./Libraries/STM32H7xx_HAL_Driver/Src/stm32h7xx_hal_crc.c **** /** @defgroup CRC_Private_Functions CRC Private Functions
  65:./Libraries/STM32H7xx_HAL_Driver/Src/stm32h7xx_hal_crc.c ****  * @{
  66:./Libraries/STM32H7xx_HAL_Driver/Src/stm32h7xx_hal_crc.c ****  */
  67:./Libraries/STM32H7xx_HAL_Driver/Src/stm32h7xx_hal_crc.c **** static uint32_t CRC_Handle_8(CRC_HandleTypeDef *hcrc, uint8_t pBuffer[], uint32_t BufferLength);
  68:./Libraries/STM32H7xx_HAL_Driver/Src/stm32h7xx_hal_crc.c **** static uint32_t CRC_Handle_16(CRC_HandleTypeDef *hcrc, uint16_t pBuffer[], uint32_t BufferLength);
  69:./Libraries/STM32H7xx_HAL_Driver/Src/stm32h7xx_hal_crc.c **** /**
  70:./Libraries/STM32H7xx_HAL_Driver/Src/stm32h7xx_hal_crc.c ****   * @}
  71:./Libraries/STM32H7xx_HAL_Driver/Src/stm32h7xx_hal_crc.c ****   */
  72:./Libraries/STM32H7xx_HAL_Driver/Src/stm32h7xx_hal_crc.c **** 
  73:./Libraries/STM32H7xx_HAL_Driver/Src/stm32h7xx_hal_crc.c **** /* Exported functions --------------------------------------------------------*/
  74:./Libraries/STM32H7xx_HAL_Driver/Src/stm32h7xx_hal_crc.c **** 
  75:./Libraries/STM32H7xx_HAL_Driver/Src/stm32h7xx_hal_crc.c **** /** @defgroup CRC_Exported_Functions CRC Exported Functions
  76:./Libraries/STM32H7xx_HAL_Driver/Src/stm32h7xx_hal_crc.c ****   * @{
  77:./Libraries/STM32H7xx_HAL_Driver/Src/stm32h7xx_hal_crc.c ****   */
  78:./Libraries/STM32H7xx_HAL_Driver/Src/stm32h7xx_hal_crc.c **** 
  79:./Libraries/STM32H7xx_HAL_Driver/Src/stm32h7xx_hal_crc.c **** /** @defgroup CRC_Exported_Functions_Group1 Initialization and de-initialization functions
  80:./Libraries/STM32H7xx_HAL_Driver/Src/stm32h7xx_hal_crc.c ****  *  @brief    Initialization and Configuration functions.
  81:./Libraries/STM32H7xx_HAL_Driver/Src/stm32h7xx_hal_crc.c ****  *
  82:./Libraries/STM32H7xx_HAL_Driver/Src/stm32h7xx_hal_crc.c **** @verbatim
  83:./Libraries/STM32H7xx_HAL_Driver/Src/stm32h7xx_hal_crc.c ****  ===============================================================================
  84:./Libraries/STM32H7xx_HAL_Driver/Src/stm32h7xx_hal_crc.c ****             ##### Initialization and de-initialization functions #####
  85:./Libraries/STM32H7xx_HAL_Driver/Src/stm32h7xx_hal_crc.c ****  ===============================================================================
  86:./Libraries/STM32H7xx_HAL_Driver/Src/stm32h7xx_hal_crc.c ****     [..]  This section provides functions allowing to:
  87:./Libraries/STM32H7xx_HAL_Driver/Src/stm32h7xx_hal_crc.c ****       (+) Initialize the CRC according to the specified parameters
ARM GAS  /tmp/ccbIg2bp.s 			page 3


  88:./Libraries/STM32H7xx_HAL_Driver/Src/stm32h7xx_hal_crc.c ****           in the CRC_InitTypeDef and create the associated handle
  89:./Libraries/STM32H7xx_HAL_Driver/Src/stm32h7xx_hal_crc.c ****       (+) DeInitialize the CRC peripheral
  90:./Libraries/STM32H7xx_HAL_Driver/Src/stm32h7xx_hal_crc.c ****       (+) Initialize the CRC MSP (MCU Specific Package)
  91:./Libraries/STM32H7xx_HAL_Driver/Src/stm32h7xx_hal_crc.c ****       (+) DeInitialize the CRC MSP
  92:./Libraries/STM32H7xx_HAL_Driver/Src/stm32h7xx_hal_crc.c **** 
  93:./Libraries/STM32H7xx_HAL_Driver/Src/stm32h7xx_hal_crc.c **** @endverbatim
  94:./Libraries/STM32H7xx_HAL_Driver/Src/stm32h7xx_hal_crc.c ****   * @{
  95:./Libraries/STM32H7xx_HAL_Driver/Src/stm32h7xx_hal_crc.c ****   */
  96:./Libraries/STM32H7xx_HAL_Driver/Src/stm32h7xx_hal_crc.c **** 
  97:./Libraries/STM32H7xx_HAL_Driver/Src/stm32h7xx_hal_crc.c **** /**
  98:./Libraries/STM32H7xx_HAL_Driver/Src/stm32h7xx_hal_crc.c ****   * @brief  Initialize the CRC according to the specified
  99:./Libraries/STM32H7xx_HAL_Driver/Src/stm32h7xx_hal_crc.c ****   *         parameters in the CRC_InitTypeDef and create the associated handle.
 100:./Libraries/STM32H7xx_HAL_Driver/Src/stm32h7xx_hal_crc.c ****   * @param  hcrc CRC handle
 101:./Libraries/STM32H7xx_HAL_Driver/Src/stm32h7xx_hal_crc.c ****   * @retval HAL status
 102:./Libraries/STM32H7xx_HAL_Driver/Src/stm32h7xx_hal_crc.c ****   */
 103:./Libraries/STM32H7xx_HAL_Driver/Src/stm32h7xx_hal_crc.c **** HAL_StatusTypeDef HAL_CRC_Init(CRC_HandleTypeDef *hcrc)
 104:./Libraries/STM32H7xx_HAL_Driver/Src/stm32h7xx_hal_crc.c **** {
 105:./Libraries/STM32H7xx_HAL_Driver/Src/stm32h7xx_hal_crc.c ****   /* Check the CRC handle allocation */
 106:./Libraries/STM32H7xx_HAL_Driver/Src/stm32h7xx_hal_crc.c ****   if (hcrc == NULL)
 107:./Libraries/STM32H7xx_HAL_Driver/Src/stm32h7xx_hal_crc.c ****   {
 108:./Libraries/STM32H7xx_HAL_Driver/Src/stm32h7xx_hal_crc.c ****     return HAL_ERROR;
 109:./Libraries/STM32H7xx_HAL_Driver/Src/stm32h7xx_hal_crc.c ****   }
 110:./Libraries/STM32H7xx_HAL_Driver/Src/stm32h7xx_hal_crc.c **** 
 111:./Libraries/STM32H7xx_HAL_Driver/Src/stm32h7xx_hal_crc.c ****   /* Check the parameters */
 112:./Libraries/STM32H7xx_HAL_Driver/Src/stm32h7xx_hal_crc.c ****   assert_param(IS_CRC_ALL_INSTANCE(hcrc->Instance));
 113:./Libraries/STM32H7xx_HAL_Driver/Src/stm32h7xx_hal_crc.c **** 
 114:./Libraries/STM32H7xx_HAL_Driver/Src/stm32h7xx_hal_crc.c ****   if (hcrc->State == HAL_CRC_STATE_RESET)
 115:./Libraries/STM32H7xx_HAL_Driver/Src/stm32h7xx_hal_crc.c ****   {
 116:./Libraries/STM32H7xx_HAL_Driver/Src/stm32h7xx_hal_crc.c ****     /* Allocate lock resource and initialize it */
 117:./Libraries/STM32H7xx_HAL_Driver/Src/stm32h7xx_hal_crc.c ****     hcrc->Lock = HAL_UNLOCKED;
 118:./Libraries/STM32H7xx_HAL_Driver/Src/stm32h7xx_hal_crc.c ****     /* Init the low level hardware */
 119:./Libraries/STM32H7xx_HAL_Driver/Src/stm32h7xx_hal_crc.c ****     HAL_CRC_MspInit(hcrc);
 120:./Libraries/STM32H7xx_HAL_Driver/Src/stm32h7xx_hal_crc.c ****   }
 121:./Libraries/STM32H7xx_HAL_Driver/Src/stm32h7xx_hal_crc.c **** 
 122:./Libraries/STM32H7xx_HAL_Driver/Src/stm32h7xx_hal_crc.c ****   hcrc->State = HAL_CRC_STATE_BUSY;
 123:./Libraries/STM32H7xx_HAL_Driver/Src/stm32h7xx_hal_crc.c **** 
 124:./Libraries/STM32H7xx_HAL_Driver/Src/stm32h7xx_hal_crc.c ****   /* check whether or not non-default generating polynomial has been
 125:./Libraries/STM32H7xx_HAL_Driver/Src/stm32h7xx_hal_crc.c ****    * picked up by user */
 126:./Libraries/STM32H7xx_HAL_Driver/Src/stm32h7xx_hal_crc.c ****   assert_param(IS_DEFAULT_POLYNOMIAL(hcrc->Init.DefaultPolynomialUse));
 127:./Libraries/STM32H7xx_HAL_Driver/Src/stm32h7xx_hal_crc.c ****   if (hcrc->Init.DefaultPolynomialUse == DEFAULT_POLYNOMIAL_ENABLE)
 128:./Libraries/STM32H7xx_HAL_Driver/Src/stm32h7xx_hal_crc.c ****   {
 129:./Libraries/STM32H7xx_HAL_Driver/Src/stm32h7xx_hal_crc.c ****     /* initialize peripheral with default generating polynomial */
 130:./Libraries/STM32H7xx_HAL_Driver/Src/stm32h7xx_hal_crc.c ****     WRITE_REG(hcrc->Instance->POL, DEFAULT_CRC32_POLY);
 131:./Libraries/STM32H7xx_HAL_Driver/Src/stm32h7xx_hal_crc.c ****     MODIFY_REG(hcrc->Instance->CR, CRC_CR_POLYSIZE, CRC_POLYLENGTH_32B);
 132:./Libraries/STM32H7xx_HAL_Driver/Src/stm32h7xx_hal_crc.c ****   }
 133:./Libraries/STM32H7xx_HAL_Driver/Src/stm32h7xx_hal_crc.c ****   else
 134:./Libraries/STM32H7xx_HAL_Driver/Src/stm32h7xx_hal_crc.c ****   {
 135:./Libraries/STM32H7xx_HAL_Driver/Src/stm32h7xx_hal_crc.c ****     /* initialize CRC peripheral with generating polynomial defined by user */
 136:./Libraries/STM32H7xx_HAL_Driver/Src/stm32h7xx_hal_crc.c ****     if (HAL_CRCEx_Polynomial_Set(hcrc, hcrc->Init.GeneratingPolynomial, hcrc->Init.CRCLength) != HA
 137:./Libraries/STM32H7xx_HAL_Driver/Src/stm32h7xx_hal_crc.c ****     {
 138:./Libraries/STM32H7xx_HAL_Driver/Src/stm32h7xx_hal_crc.c ****       return HAL_ERROR;
 139:./Libraries/STM32H7xx_HAL_Driver/Src/stm32h7xx_hal_crc.c ****     }
 140:./Libraries/STM32H7xx_HAL_Driver/Src/stm32h7xx_hal_crc.c ****   }
 141:./Libraries/STM32H7xx_HAL_Driver/Src/stm32h7xx_hal_crc.c **** 
 142:./Libraries/STM32H7xx_HAL_Driver/Src/stm32h7xx_hal_crc.c ****   /* check whether or not non-default CRC initial value has been
 143:./Libraries/STM32H7xx_HAL_Driver/Src/stm32h7xx_hal_crc.c ****    * picked up by user */
 144:./Libraries/STM32H7xx_HAL_Driver/Src/stm32h7xx_hal_crc.c ****   assert_param(IS_DEFAULT_INIT_VALUE(hcrc->Init.DefaultInitValueUse));
ARM GAS  /tmp/ccbIg2bp.s 			page 4


 145:./Libraries/STM32H7xx_HAL_Driver/Src/stm32h7xx_hal_crc.c ****   if (hcrc->Init.DefaultInitValueUse == DEFAULT_INIT_VALUE_ENABLE)
 146:./Libraries/STM32H7xx_HAL_Driver/Src/stm32h7xx_hal_crc.c ****   {
 147:./Libraries/STM32H7xx_HAL_Driver/Src/stm32h7xx_hal_crc.c ****     WRITE_REG(hcrc->Instance->INIT, DEFAULT_CRC_INITVALUE);
 148:./Libraries/STM32H7xx_HAL_Driver/Src/stm32h7xx_hal_crc.c ****   }
 149:./Libraries/STM32H7xx_HAL_Driver/Src/stm32h7xx_hal_crc.c ****   else
 150:./Libraries/STM32H7xx_HAL_Driver/Src/stm32h7xx_hal_crc.c ****   {
 151:./Libraries/STM32H7xx_HAL_Driver/Src/stm32h7xx_hal_crc.c ****     WRITE_REG(hcrc->Instance->INIT, hcrc->Init.InitValue);
 152:./Libraries/STM32H7xx_HAL_Driver/Src/stm32h7xx_hal_crc.c ****   }
 153:./Libraries/STM32H7xx_HAL_Driver/Src/stm32h7xx_hal_crc.c **** 
 154:./Libraries/STM32H7xx_HAL_Driver/Src/stm32h7xx_hal_crc.c **** 
 155:./Libraries/STM32H7xx_HAL_Driver/Src/stm32h7xx_hal_crc.c ****   /* set input data inversion mode */
 156:./Libraries/STM32H7xx_HAL_Driver/Src/stm32h7xx_hal_crc.c ****   assert_param(IS_CRC_INPUTDATA_INVERSION_MODE(hcrc->Init.InputDataInversionMode));
 157:./Libraries/STM32H7xx_HAL_Driver/Src/stm32h7xx_hal_crc.c ****   MODIFY_REG(hcrc->Instance->CR, CRC_CR_REV_IN, hcrc->Init.InputDataInversionMode);
 158:./Libraries/STM32H7xx_HAL_Driver/Src/stm32h7xx_hal_crc.c **** 
 159:./Libraries/STM32H7xx_HAL_Driver/Src/stm32h7xx_hal_crc.c ****   /* set output data inversion mode */
 160:./Libraries/STM32H7xx_HAL_Driver/Src/stm32h7xx_hal_crc.c ****   assert_param(IS_CRC_OUTPUTDATA_INVERSION_MODE(hcrc->Init.OutputDataInversionMode));
 161:./Libraries/STM32H7xx_HAL_Driver/Src/stm32h7xx_hal_crc.c ****   MODIFY_REG(hcrc->Instance->CR, CRC_CR_REV_OUT, hcrc->Init.OutputDataInversionMode);
 162:./Libraries/STM32H7xx_HAL_Driver/Src/stm32h7xx_hal_crc.c **** 
 163:./Libraries/STM32H7xx_HAL_Driver/Src/stm32h7xx_hal_crc.c ****   /* makes sure the input data format (bytes, halfwords or words stream)
 164:./Libraries/STM32H7xx_HAL_Driver/Src/stm32h7xx_hal_crc.c ****    * is properly specified by user */
 165:./Libraries/STM32H7xx_HAL_Driver/Src/stm32h7xx_hal_crc.c ****   assert_param(IS_CRC_INPUTDATA_FORMAT(hcrc->InputDataFormat));
 166:./Libraries/STM32H7xx_HAL_Driver/Src/stm32h7xx_hal_crc.c **** 
 167:./Libraries/STM32H7xx_HAL_Driver/Src/stm32h7xx_hal_crc.c ****   /* Change CRC peripheral state */
 168:./Libraries/STM32H7xx_HAL_Driver/Src/stm32h7xx_hal_crc.c ****   hcrc->State = HAL_CRC_STATE_READY;
 169:./Libraries/STM32H7xx_HAL_Driver/Src/stm32h7xx_hal_crc.c **** 
 170:./Libraries/STM32H7xx_HAL_Driver/Src/stm32h7xx_hal_crc.c ****   /* Return function status */
 171:./Libraries/STM32H7xx_HAL_Driver/Src/stm32h7xx_hal_crc.c ****   return HAL_OK;
 172:./Libraries/STM32H7xx_HAL_Driver/Src/stm32h7xx_hal_crc.c **** }
 173:./Libraries/STM32H7xx_HAL_Driver/Src/stm32h7xx_hal_crc.c **** 
 174:./Libraries/STM32H7xx_HAL_Driver/Src/stm32h7xx_hal_crc.c **** /**
 175:./Libraries/STM32H7xx_HAL_Driver/Src/stm32h7xx_hal_crc.c ****   * @brief  DeInitialize the CRC peripheral.
 176:./Libraries/STM32H7xx_HAL_Driver/Src/stm32h7xx_hal_crc.c ****   * @param  hcrc CRC handle
 177:./Libraries/STM32H7xx_HAL_Driver/Src/stm32h7xx_hal_crc.c ****   * @retval HAL status
 178:./Libraries/STM32H7xx_HAL_Driver/Src/stm32h7xx_hal_crc.c ****   */
 179:./Libraries/STM32H7xx_HAL_Driver/Src/stm32h7xx_hal_crc.c **** HAL_StatusTypeDef HAL_CRC_DeInit(CRC_HandleTypeDef *hcrc)
 180:./Libraries/STM32H7xx_HAL_Driver/Src/stm32h7xx_hal_crc.c **** {
 181:./Libraries/STM32H7xx_HAL_Driver/Src/stm32h7xx_hal_crc.c ****   /* Check the CRC handle allocation */
 182:./Libraries/STM32H7xx_HAL_Driver/Src/stm32h7xx_hal_crc.c ****   if (hcrc == NULL)
 183:./Libraries/STM32H7xx_HAL_Driver/Src/stm32h7xx_hal_crc.c ****   {
 184:./Libraries/STM32H7xx_HAL_Driver/Src/stm32h7xx_hal_crc.c ****     return HAL_ERROR;
 185:./Libraries/STM32H7xx_HAL_Driver/Src/stm32h7xx_hal_crc.c ****   }
 186:./Libraries/STM32H7xx_HAL_Driver/Src/stm32h7xx_hal_crc.c **** 
 187:./Libraries/STM32H7xx_HAL_Driver/Src/stm32h7xx_hal_crc.c ****   /* Check the parameters */
 188:./Libraries/STM32H7xx_HAL_Driver/Src/stm32h7xx_hal_crc.c ****   assert_param(IS_CRC_ALL_INSTANCE(hcrc->Instance));
 189:./Libraries/STM32H7xx_HAL_Driver/Src/stm32h7xx_hal_crc.c **** 
 190:./Libraries/STM32H7xx_HAL_Driver/Src/stm32h7xx_hal_crc.c ****   /* Check the CRC peripheral state */
 191:./Libraries/STM32H7xx_HAL_Driver/Src/stm32h7xx_hal_crc.c ****   if (hcrc->State == HAL_CRC_STATE_BUSY)
 192:./Libraries/STM32H7xx_HAL_Driver/Src/stm32h7xx_hal_crc.c ****   {
 193:./Libraries/STM32H7xx_HAL_Driver/Src/stm32h7xx_hal_crc.c ****     return HAL_BUSY;
 194:./Libraries/STM32H7xx_HAL_Driver/Src/stm32h7xx_hal_crc.c ****   }
 195:./Libraries/STM32H7xx_HAL_Driver/Src/stm32h7xx_hal_crc.c **** 
 196:./Libraries/STM32H7xx_HAL_Driver/Src/stm32h7xx_hal_crc.c ****   /* Change CRC peripheral state */
 197:./Libraries/STM32H7xx_HAL_Driver/Src/stm32h7xx_hal_crc.c ****   hcrc->State = HAL_CRC_STATE_BUSY;
 198:./Libraries/STM32H7xx_HAL_Driver/Src/stm32h7xx_hal_crc.c **** 
 199:./Libraries/STM32H7xx_HAL_Driver/Src/stm32h7xx_hal_crc.c ****   /* Reset CRC calculation unit */
 200:./Libraries/STM32H7xx_HAL_Driver/Src/stm32h7xx_hal_crc.c ****   __HAL_CRC_DR_RESET(hcrc);
 201:./Libraries/STM32H7xx_HAL_Driver/Src/stm32h7xx_hal_crc.c **** 
ARM GAS  /tmp/ccbIg2bp.s 			page 5


 202:./Libraries/STM32H7xx_HAL_Driver/Src/stm32h7xx_hal_crc.c ****   /* Reset IDR register content */
 203:./Libraries/STM32H7xx_HAL_Driver/Src/stm32h7xx_hal_crc.c ****   CLEAR_BIT(hcrc->Instance->IDR, CRC_IDR_IDR);
 204:./Libraries/STM32H7xx_HAL_Driver/Src/stm32h7xx_hal_crc.c **** 
 205:./Libraries/STM32H7xx_HAL_Driver/Src/stm32h7xx_hal_crc.c ****   /* DeInit the low level hardware */
 206:./Libraries/STM32H7xx_HAL_Driver/Src/stm32h7xx_hal_crc.c ****   HAL_CRC_MspDeInit(hcrc);
 207:./Libraries/STM32H7xx_HAL_Driver/Src/stm32h7xx_hal_crc.c **** 
 208:./Libraries/STM32H7xx_HAL_Driver/Src/stm32h7xx_hal_crc.c ****   /* Change CRC peripheral state */
 209:./Libraries/STM32H7xx_HAL_Driver/Src/stm32h7xx_hal_crc.c ****   hcrc->State = HAL_CRC_STATE_RESET;
 210:./Libraries/STM32H7xx_HAL_Driver/Src/stm32h7xx_hal_crc.c **** 
 211:./Libraries/STM32H7xx_HAL_Driver/Src/stm32h7xx_hal_crc.c ****   /* Process unlocked */
 212:./Libraries/STM32H7xx_HAL_Driver/Src/stm32h7xx_hal_crc.c ****   __HAL_UNLOCK(hcrc);
 213:./Libraries/STM32H7xx_HAL_Driver/Src/stm32h7xx_hal_crc.c **** 
 214:./Libraries/STM32H7xx_HAL_Driver/Src/stm32h7xx_hal_crc.c ****   /* Return function status */
 215:./Libraries/STM32H7xx_HAL_Driver/Src/stm32h7xx_hal_crc.c ****   return HAL_OK;
 216:./Libraries/STM32H7xx_HAL_Driver/Src/stm32h7xx_hal_crc.c **** }
 217:./Libraries/STM32H7xx_HAL_Driver/Src/stm32h7xx_hal_crc.c **** 
 218:./Libraries/STM32H7xx_HAL_Driver/Src/stm32h7xx_hal_crc.c **** /**
 219:./Libraries/STM32H7xx_HAL_Driver/Src/stm32h7xx_hal_crc.c ****   * @brief  Initializes the CRC MSP.
 220:./Libraries/STM32H7xx_HAL_Driver/Src/stm32h7xx_hal_crc.c ****   * @param  hcrc CRC handle
 221:./Libraries/STM32H7xx_HAL_Driver/Src/stm32h7xx_hal_crc.c ****   * @retval None
 222:./Libraries/STM32H7xx_HAL_Driver/Src/stm32h7xx_hal_crc.c ****   */
 223:./Libraries/STM32H7xx_HAL_Driver/Src/stm32h7xx_hal_crc.c **** __weak void HAL_CRC_MspInit(CRC_HandleTypeDef *hcrc)
 224:./Libraries/STM32H7xx_HAL_Driver/Src/stm32h7xx_hal_crc.c **** {
 225:./Libraries/STM32H7xx_HAL_Driver/Src/stm32h7xx_hal_crc.c ****   /* Prevent unused argument(s) compilation warning */
 226:./Libraries/STM32H7xx_HAL_Driver/Src/stm32h7xx_hal_crc.c ****   UNUSED(hcrc);
 227:./Libraries/STM32H7xx_HAL_Driver/Src/stm32h7xx_hal_crc.c **** 
 228:./Libraries/STM32H7xx_HAL_Driver/Src/stm32h7xx_hal_crc.c ****   /* NOTE : This function should not be modified, when the callback is needed,
 229:./Libraries/STM32H7xx_HAL_Driver/Src/stm32h7xx_hal_crc.c ****             the HAL_CRC_MspInit can be implemented in the user file
 230:./Libraries/STM32H7xx_HAL_Driver/Src/stm32h7xx_hal_crc.c ****    */
 231:./Libraries/STM32H7xx_HAL_Driver/Src/stm32h7xx_hal_crc.c **** }
 232:./Libraries/STM32H7xx_HAL_Driver/Src/stm32h7xx_hal_crc.c **** 
 233:./Libraries/STM32H7xx_HAL_Driver/Src/stm32h7xx_hal_crc.c **** /**
 234:./Libraries/STM32H7xx_HAL_Driver/Src/stm32h7xx_hal_crc.c ****   * @brief  DeInitialize the CRC MSP.
 235:./Libraries/STM32H7xx_HAL_Driver/Src/stm32h7xx_hal_crc.c ****   * @param  hcrc CRC handle
 236:./Libraries/STM32H7xx_HAL_Driver/Src/stm32h7xx_hal_crc.c ****   * @retval None
 237:./Libraries/STM32H7xx_HAL_Driver/Src/stm32h7xx_hal_crc.c ****   */
 238:./Libraries/STM32H7xx_HAL_Driver/Src/stm32h7xx_hal_crc.c **** __weak void HAL_CRC_MspDeInit(CRC_HandleTypeDef *hcrc)
 239:./Libraries/STM32H7xx_HAL_Driver/Src/stm32h7xx_hal_crc.c **** {
 240:./Libraries/STM32H7xx_HAL_Driver/Src/stm32h7xx_hal_crc.c ****   /* Prevent unused argument(s) compilation warning */
 241:./Libraries/STM32H7xx_HAL_Driver/Src/stm32h7xx_hal_crc.c ****   UNUSED(hcrc);
 242:./Libraries/STM32H7xx_HAL_Driver/Src/stm32h7xx_hal_crc.c **** 
 243:./Libraries/STM32H7xx_HAL_Driver/Src/stm32h7xx_hal_crc.c ****   /* NOTE : This function should not be modified, when the callback is needed,
 244:./Libraries/STM32H7xx_HAL_Driver/Src/stm32h7xx_hal_crc.c ****             the HAL_CRC_MspDeInit can be implemented in the user file
 245:./Libraries/STM32H7xx_HAL_Driver/Src/stm32h7xx_hal_crc.c ****    */
 246:./Libraries/STM32H7xx_HAL_Driver/Src/stm32h7xx_hal_crc.c **** }
 247:./Libraries/STM32H7xx_HAL_Driver/Src/stm32h7xx_hal_crc.c **** 
 248:./Libraries/STM32H7xx_HAL_Driver/Src/stm32h7xx_hal_crc.c **** /**
 249:./Libraries/STM32H7xx_HAL_Driver/Src/stm32h7xx_hal_crc.c ****   * @}
 250:./Libraries/STM32H7xx_HAL_Driver/Src/stm32h7xx_hal_crc.c ****   */
 251:./Libraries/STM32H7xx_HAL_Driver/Src/stm32h7xx_hal_crc.c **** 
 252:./Libraries/STM32H7xx_HAL_Driver/Src/stm32h7xx_hal_crc.c **** /** @defgroup CRC_Exported_Functions_Group2 Peripheral Control functions
 253:./Libraries/STM32H7xx_HAL_Driver/Src/stm32h7xx_hal_crc.c ****  *  @brief    management functions.
 254:./Libraries/STM32H7xx_HAL_Driver/Src/stm32h7xx_hal_crc.c ****  *
 255:./Libraries/STM32H7xx_HAL_Driver/Src/stm32h7xx_hal_crc.c **** @verbatim
 256:./Libraries/STM32H7xx_HAL_Driver/Src/stm32h7xx_hal_crc.c ****  ===============================================================================
 257:./Libraries/STM32H7xx_HAL_Driver/Src/stm32h7xx_hal_crc.c ****                       ##### Peripheral Control functions #####
 258:./Libraries/STM32H7xx_HAL_Driver/Src/stm32h7xx_hal_crc.c ****  ===============================================================================
ARM GAS  /tmp/ccbIg2bp.s 			page 6


 259:./Libraries/STM32H7xx_HAL_Driver/Src/stm32h7xx_hal_crc.c ****     [..]  This section provides functions allowing to:
 260:./Libraries/STM32H7xx_HAL_Driver/Src/stm32h7xx_hal_crc.c ****       (+) compute the 7, 8, 16 or 32-bit CRC value of an 8, 16 or 32-bit data buffer
 261:./Libraries/STM32H7xx_HAL_Driver/Src/stm32h7xx_hal_crc.c ****           using combination of the previous CRC value and the new one.
 262:./Libraries/STM32H7xx_HAL_Driver/Src/stm32h7xx_hal_crc.c **** 
 263:./Libraries/STM32H7xx_HAL_Driver/Src/stm32h7xx_hal_crc.c ****        [..]  or
 264:./Libraries/STM32H7xx_HAL_Driver/Src/stm32h7xx_hal_crc.c **** 
 265:./Libraries/STM32H7xx_HAL_Driver/Src/stm32h7xx_hal_crc.c ****       (+) compute the 7, 8, 16 or 32-bit CRC value of an 8, 16 or 32-bit data buffer
 266:./Libraries/STM32H7xx_HAL_Driver/Src/stm32h7xx_hal_crc.c ****           independently of the previous CRC value.
 267:./Libraries/STM32H7xx_HAL_Driver/Src/stm32h7xx_hal_crc.c **** 
 268:./Libraries/STM32H7xx_HAL_Driver/Src/stm32h7xx_hal_crc.c **** @endverbatim
 269:./Libraries/STM32H7xx_HAL_Driver/Src/stm32h7xx_hal_crc.c ****   * @{
 270:./Libraries/STM32H7xx_HAL_Driver/Src/stm32h7xx_hal_crc.c ****   */
 271:./Libraries/STM32H7xx_HAL_Driver/Src/stm32h7xx_hal_crc.c **** 
 272:./Libraries/STM32H7xx_HAL_Driver/Src/stm32h7xx_hal_crc.c **** /**
 273:./Libraries/STM32H7xx_HAL_Driver/Src/stm32h7xx_hal_crc.c ****   * @brief  Compute the 7, 8, 16 or 32-bit CRC value of an 8, 16 or 32-bit data buffer
 274:./Libraries/STM32H7xx_HAL_Driver/Src/stm32h7xx_hal_crc.c ****   *         starting with the previously computed CRC as initialization value.
 275:./Libraries/STM32H7xx_HAL_Driver/Src/stm32h7xx_hal_crc.c ****   * @param  hcrc CRC handle
 276:./Libraries/STM32H7xx_HAL_Driver/Src/stm32h7xx_hal_crc.c ****   * @param  pBuffer pointer to the input data buffer, exact input data format is
 277:./Libraries/STM32H7xx_HAL_Driver/Src/stm32h7xx_hal_crc.c ****   *         provided by hcrc->InputDataFormat.
 278:./Libraries/STM32H7xx_HAL_Driver/Src/stm32h7xx_hal_crc.c ****   * @param  BufferLength input data buffer length (number of bytes if pBuffer
 279:./Libraries/STM32H7xx_HAL_Driver/Src/stm32h7xx_hal_crc.c ****   *         type is * uint8_t, number of half-words if pBuffer type is * uint16_t,
 280:./Libraries/STM32H7xx_HAL_Driver/Src/stm32h7xx_hal_crc.c ****   *         number of words if pBuffer type is * uint32_t).
 281:./Libraries/STM32H7xx_HAL_Driver/Src/stm32h7xx_hal_crc.c ****   * @note  By default, the API expects a uint32_t pointer as input buffer parameter.
 282:./Libraries/STM32H7xx_HAL_Driver/Src/stm32h7xx_hal_crc.c ****   *        Input buffer pointers with other types simply need to be cast in uint32_t
 283:./Libraries/STM32H7xx_HAL_Driver/Src/stm32h7xx_hal_crc.c ****   *        and the API will internally adjust its input data processing based on the
 284:./Libraries/STM32H7xx_HAL_Driver/Src/stm32h7xx_hal_crc.c ****   *        handle field hcrc->InputDataFormat.
 285:./Libraries/STM32H7xx_HAL_Driver/Src/stm32h7xx_hal_crc.c ****   * @retval uint32_t CRC (returned value LSBs for CRC shorter than 32 bits)
 286:./Libraries/STM32H7xx_HAL_Driver/Src/stm32h7xx_hal_crc.c ****   */
 287:./Libraries/STM32H7xx_HAL_Driver/Src/stm32h7xx_hal_crc.c **** uint32_t HAL_CRC_Accumulate(CRC_HandleTypeDef *hcrc, uint32_t pBuffer[], uint32_t BufferLength)
 288:./Libraries/STM32H7xx_HAL_Driver/Src/stm32h7xx_hal_crc.c **** {
 289:./Libraries/STM32H7xx_HAL_Driver/Src/stm32h7xx_hal_crc.c ****   uint32_t index;      /* CRC input data buffer index */
 290:./Libraries/STM32H7xx_HAL_Driver/Src/stm32h7xx_hal_crc.c ****   uint32_t temp = 0U;  /* CRC output (read from hcrc->Instance->DR register) */
 291:./Libraries/STM32H7xx_HAL_Driver/Src/stm32h7xx_hal_crc.c **** 
 292:./Libraries/STM32H7xx_HAL_Driver/Src/stm32h7xx_hal_crc.c ****   /* Change CRC peripheral state */
 293:./Libraries/STM32H7xx_HAL_Driver/Src/stm32h7xx_hal_crc.c ****   hcrc->State = HAL_CRC_STATE_BUSY;
 294:./Libraries/STM32H7xx_HAL_Driver/Src/stm32h7xx_hal_crc.c **** 
 295:./Libraries/STM32H7xx_HAL_Driver/Src/stm32h7xx_hal_crc.c ****   switch (hcrc->InputDataFormat)
 296:./Libraries/STM32H7xx_HAL_Driver/Src/stm32h7xx_hal_crc.c ****   {
 297:./Libraries/STM32H7xx_HAL_Driver/Src/stm32h7xx_hal_crc.c ****     case CRC_INPUTDATA_FORMAT_WORDS:
 298:./Libraries/STM32H7xx_HAL_Driver/Src/stm32h7xx_hal_crc.c ****       /* Enter Data to the CRC calculator */
 299:./Libraries/STM32H7xx_HAL_Driver/Src/stm32h7xx_hal_crc.c ****       for (index = 0U; index < BufferLength; index++)
 300:./Libraries/STM32H7xx_HAL_Driver/Src/stm32h7xx_hal_crc.c ****       {
 301:./Libraries/STM32H7xx_HAL_Driver/Src/stm32h7xx_hal_crc.c ****         hcrc->Instance->DR = pBuffer[index];
 302:./Libraries/STM32H7xx_HAL_Driver/Src/stm32h7xx_hal_crc.c ****       }
 303:./Libraries/STM32H7xx_HAL_Driver/Src/stm32h7xx_hal_crc.c ****       temp = hcrc->Instance->DR;
 304:./Libraries/STM32H7xx_HAL_Driver/Src/stm32h7xx_hal_crc.c ****       break;
 305:./Libraries/STM32H7xx_HAL_Driver/Src/stm32h7xx_hal_crc.c **** 
 306:./Libraries/STM32H7xx_HAL_Driver/Src/stm32h7xx_hal_crc.c ****     case CRC_INPUTDATA_FORMAT_BYTES:
 307:./Libraries/STM32H7xx_HAL_Driver/Src/stm32h7xx_hal_crc.c ****       temp = CRC_Handle_8(hcrc, (uint8_t *)pBuffer, BufferLength);
 308:./Libraries/STM32H7xx_HAL_Driver/Src/stm32h7xx_hal_crc.c ****       break;
 309:./Libraries/STM32H7xx_HAL_Driver/Src/stm32h7xx_hal_crc.c **** 
 310:./Libraries/STM32H7xx_HAL_Driver/Src/stm32h7xx_hal_crc.c ****     case CRC_INPUTDATA_FORMAT_HALFWORDS:
 311:./Libraries/STM32H7xx_HAL_Driver/Src/stm32h7xx_hal_crc.c ****       temp = CRC_Handle_16(hcrc, (uint16_t *)(void *)pBuffer, BufferLength);    /* Derogation Misra
 312:./Libraries/STM32H7xx_HAL_Driver/Src/stm32h7xx_hal_crc.c ****       break;
 313:./Libraries/STM32H7xx_HAL_Driver/Src/stm32h7xx_hal_crc.c ****     default:
 314:./Libraries/STM32H7xx_HAL_Driver/Src/stm32h7xx_hal_crc.c ****       break;
 315:./Libraries/STM32H7xx_HAL_Driver/Src/stm32h7xx_hal_crc.c ****   }
ARM GAS  /tmp/ccbIg2bp.s 			page 7


 316:./Libraries/STM32H7xx_HAL_Driver/Src/stm32h7xx_hal_crc.c **** 
 317:./Libraries/STM32H7xx_HAL_Driver/Src/stm32h7xx_hal_crc.c ****   /* Change CRC peripheral state */
 318:./Libraries/STM32H7xx_HAL_Driver/Src/stm32h7xx_hal_crc.c ****   hcrc->State = HAL_CRC_STATE_READY;
 319:./Libraries/STM32H7xx_HAL_Driver/Src/stm32h7xx_hal_crc.c **** 
 320:./Libraries/STM32H7xx_HAL_Driver/Src/stm32h7xx_hal_crc.c ****   /* Return the CRC computed value */
 321:./Libraries/STM32H7xx_HAL_Driver/Src/stm32h7xx_hal_crc.c ****   return temp;
 322:./Libraries/STM32H7xx_HAL_Driver/Src/stm32h7xx_hal_crc.c **** }
 323:./Libraries/STM32H7xx_HAL_Driver/Src/stm32h7xx_hal_crc.c **** 
 324:./Libraries/STM32H7xx_HAL_Driver/Src/stm32h7xx_hal_crc.c **** /**
 325:./Libraries/STM32H7xx_HAL_Driver/Src/stm32h7xx_hal_crc.c ****   * @brief  Compute the 7, 8, 16 or 32-bit CRC value of an 8, 16 or 32-bit data buffer
 326:./Libraries/STM32H7xx_HAL_Driver/Src/stm32h7xx_hal_crc.c ****   *         starting with hcrc->Instance->INIT as initialization value.
 327:./Libraries/STM32H7xx_HAL_Driver/Src/stm32h7xx_hal_crc.c ****   * @param  hcrc CRC handle
 328:./Libraries/STM32H7xx_HAL_Driver/Src/stm32h7xx_hal_crc.c ****   * @param  pBuffer pointer to the input data buffer, exact input data format is
 329:./Libraries/STM32H7xx_HAL_Driver/Src/stm32h7xx_hal_crc.c ****   *         provided by hcrc->InputDataFormat.
 330:./Libraries/STM32H7xx_HAL_Driver/Src/stm32h7xx_hal_crc.c ****   * @param  BufferLength input data buffer length (number of bytes if pBuffer
 331:./Libraries/STM32H7xx_HAL_Driver/Src/stm32h7xx_hal_crc.c ****   *         type is * uint8_t, number of half-words if pBuffer type is * uint16_t,
 332:./Libraries/STM32H7xx_HAL_Driver/Src/stm32h7xx_hal_crc.c ****   *         number of words if pBuffer type is * uint32_t).
 333:./Libraries/STM32H7xx_HAL_Driver/Src/stm32h7xx_hal_crc.c ****   * @note  By default, the API expects a uint32_t pointer as input buffer parameter.
 334:./Libraries/STM32H7xx_HAL_Driver/Src/stm32h7xx_hal_crc.c ****   *        Input buffer pointers with other types simply need to be cast in uint32_t
 335:./Libraries/STM32H7xx_HAL_Driver/Src/stm32h7xx_hal_crc.c ****   *        and the API will internally adjust its input data processing based on the
 336:./Libraries/STM32H7xx_HAL_Driver/Src/stm32h7xx_hal_crc.c ****   *        handle field hcrc->InputDataFormat.
 337:./Libraries/STM32H7xx_HAL_Driver/Src/stm32h7xx_hal_crc.c ****   * @retval uint32_t CRC (returned value LSBs for CRC shorter than 32 bits)
 338:./Libraries/STM32H7xx_HAL_Driver/Src/stm32h7xx_hal_crc.c ****   */
 339:./Libraries/STM32H7xx_HAL_Driver/Src/stm32h7xx_hal_crc.c **** uint32_t HAL_CRC_Calculate(CRC_HandleTypeDef *hcrc, uint32_t pBuffer[], uint32_t BufferLength)
 340:./Libraries/STM32H7xx_HAL_Driver/Src/stm32h7xx_hal_crc.c **** {
 341:./Libraries/STM32H7xx_HAL_Driver/Src/stm32h7xx_hal_crc.c ****   uint32_t index;      /* CRC input data buffer index */
 342:./Libraries/STM32H7xx_HAL_Driver/Src/stm32h7xx_hal_crc.c ****   uint32_t temp = 0U;  /* CRC output (read from hcrc->Instance->DR register) */
 343:./Libraries/STM32H7xx_HAL_Driver/Src/stm32h7xx_hal_crc.c **** 
 344:./Libraries/STM32H7xx_HAL_Driver/Src/stm32h7xx_hal_crc.c ****   /* Change CRC peripheral state */
 345:./Libraries/STM32H7xx_HAL_Driver/Src/stm32h7xx_hal_crc.c ****   hcrc->State = HAL_CRC_STATE_BUSY;
 346:./Libraries/STM32H7xx_HAL_Driver/Src/stm32h7xx_hal_crc.c **** 
 347:./Libraries/STM32H7xx_HAL_Driver/Src/stm32h7xx_hal_crc.c ****   /* Reset CRC Calculation Unit (hcrc->Instance->INIT is
 348:./Libraries/STM32H7xx_HAL_Driver/Src/stm32h7xx_hal_crc.c ****   *  written in hcrc->Instance->DR) */
 349:./Libraries/STM32H7xx_HAL_Driver/Src/stm32h7xx_hal_crc.c ****   __HAL_CRC_DR_RESET(hcrc);
 350:./Libraries/STM32H7xx_HAL_Driver/Src/stm32h7xx_hal_crc.c **** 
 351:./Libraries/STM32H7xx_HAL_Driver/Src/stm32h7xx_hal_crc.c ****   switch (hcrc->InputDataFormat)
 352:./Libraries/STM32H7xx_HAL_Driver/Src/stm32h7xx_hal_crc.c ****   {
 353:./Libraries/STM32H7xx_HAL_Driver/Src/stm32h7xx_hal_crc.c ****     case CRC_INPUTDATA_FORMAT_WORDS:
 354:./Libraries/STM32H7xx_HAL_Driver/Src/stm32h7xx_hal_crc.c ****       /* Enter 32-bit input data to the CRC calculator */
 355:./Libraries/STM32H7xx_HAL_Driver/Src/stm32h7xx_hal_crc.c ****       for (index = 0U; index < BufferLength; index++)
 356:./Libraries/STM32H7xx_HAL_Driver/Src/stm32h7xx_hal_crc.c ****       {
 357:./Libraries/STM32H7xx_HAL_Driver/Src/stm32h7xx_hal_crc.c ****         hcrc->Instance->DR = pBuffer[index];
 358:./Libraries/STM32H7xx_HAL_Driver/Src/stm32h7xx_hal_crc.c ****       }
 359:./Libraries/STM32H7xx_HAL_Driver/Src/stm32h7xx_hal_crc.c ****       temp = hcrc->Instance->DR;
 360:./Libraries/STM32H7xx_HAL_Driver/Src/stm32h7xx_hal_crc.c ****       break;
 361:./Libraries/STM32H7xx_HAL_Driver/Src/stm32h7xx_hal_crc.c **** 
 362:./Libraries/STM32H7xx_HAL_Driver/Src/stm32h7xx_hal_crc.c ****     case CRC_INPUTDATA_FORMAT_BYTES:
 363:./Libraries/STM32H7xx_HAL_Driver/Src/stm32h7xx_hal_crc.c ****       /* Specific 8-bit input data handling  */
 364:./Libraries/STM32H7xx_HAL_Driver/Src/stm32h7xx_hal_crc.c ****       temp = CRC_Handle_8(hcrc, (uint8_t *)pBuffer, BufferLength);
 365:./Libraries/STM32H7xx_HAL_Driver/Src/stm32h7xx_hal_crc.c ****       break;
 366:./Libraries/STM32H7xx_HAL_Driver/Src/stm32h7xx_hal_crc.c **** 
 367:./Libraries/STM32H7xx_HAL_Driver/Src/stm32h7xx_hal_crc.c ****     case CRC_INPUTDATA_FORMAT_HALFWORDS:
 368:./Libraries/STM32H7xx_HAL_Driver/Src/stm32h7xx_hal_crc.c ****       /* Specific 16-bit input data handling  */
 369:./Libraries/STM32H7xx_HAL_Driver/Src/stm32h7xx_hal_crc.c ****       temp = CRC_Handle_16(hcrc, (uint16_t *)(void *)pBuffer, BufferLength);    /* Derogation Misra
 370:./Libraries/STM32H7xx_HAL_Driver/Src/stm32h7xx_hal_crc.c ****       break;
 371:./Libraries/STM32H7xx_HAL_Driver/Src/stm32h7xx_hal_crc.c **** 
 372:./Libraries/STM32H7xx_HAL_Driver/Src/stm32h7xx_hal_crc.c ****     default:
ARM GAS  /tmp/ccbIg2bp.s 			page 8


 373:./Libraries/STM32H7xx_HAL_Driver/Src/stm32h7xx_hal_crc.c ****       break;
 374:./Libraries/STM32H7xx_HAL_Driver/Src/stm32h7xx_hal_crc.c ****   }
 375:./Libraries/STM32H7xx_HAL_Driver/Src/stm32h7xx_hal_crc.c **** 
 376:./Libraries/STM32H7xx_HAL_Driver/Src/stm32h7xx_hal_crc.c ****   /* Change CRC peripheral state */
 377:./Libraries/STM32H7xx_HAL_Driver/Src/stm32h7xx_hal_crc.c ****   hcrc->State = HAL_CRC_STATE_READY;
 378:./Libraries/STM32H7xx_HAL_Driver/Src/stm32h7xx_hal_crc.c **** 
 379:./Libraries/STM32H7xx_HAL_Driver/Src/stm32h7xx_hal_crc.c ****   /* Return the CRC computed value */
 380:./Libraries/STM32H7xx_HAL_Driver/Src/stm32h7xx_hal_crc.c ****   return temp;
 381:./Libraries/STM32H7xx_HAL_Driver/Src/stm32h7xx_hal_crc.c **** }
 382:./Libraries/STM32H7xx_HAL_Driver/Src/stm32h7xx_hal_crc.c **** 
 383:./Libraries/STM32H7xx_HAL_Driver/Src/stm32h7xx_hal_crc.c **** /**
 384:./Libraries/STM32H7xx_HAL_Driver/Src/stm32h7xx_hal_crc.c ****   * @}
 385:./Libraries/STM32H7xx_HAL_Driver/Src/stm32h7xx_hal_crc.c ****   */
 386:./Libraries/STM32H7xx_HAL_Driver/Src/stm32h7xx_hal_crc.c **** 
 387:./Libraries/STM32H7xx_HAL_Driver/Src/stm32h7xx_hal_crc.c **** /** @defgroup CRC_Exported_Functions_Group3 Peripheral State functions
 388:./Libraries/STM32H7xx_HAL_Driver/Src/stm32h7xx_hal_crc.c ****  *  @brief    Peripheral State functions.
 389:./Libraries/STM32H7xx_HAL_Driver/Src/stm32h7xx_hal_crc.c ****  *
 390:./Libraries/STM32H7xx_HAL_Driver/Src/stm32h7xx_hal_crc.c **** @verbatim
 391:./Libraries/STM32H7xx_HAL_Driver/Src/stm32h7xx_hal_crc.c ****  ===============================================================================
 392:./Libraries/STM32H7xx_HAL_Driver/Src/stm32h7xx_hal_crc.c ****                       ##### Peripheral State functions #####
 393:./Libraries/STM32H7xx_HAL_Driver/Src/stm32h7xx_hal_crc.c ****  ===============================================================================
 394:./Libraries/STM32H7xx_HAL_Driver/Src/stm32h7xx_hal_crc.c ****     [..]
 395:./Libraries/STM32H7xx_HAL_Driver/Src/stm32h7xx_hal_crc.c ****     This subsection permits to get in run-time the status of the peripheral.
 396:./Libraries/STM32H7xx_HAL_Driver/Src/stm32h7xx_hal_crc.c **** 
 397:./Libraries/STM32H7xx_HAL_Driver/Src/stm32h7xx_hal_crc.c **** @endverbatim
 398:./Libraries/STM32H7xx_HAL_Driver/Src/stm32h7xx_hal_crc.c ****   * @{
 399:./Libraries/STM32H7xx_HAL_Driver/Src/stm32h7xx_hal_crc.c ****   */
 400:./Libraries/STM32H7xx_HAL_Driver/Src/stm32h7xx_hal_crc.c **** 
 401:./Libraries/STM32H7xx_HAL_Driver/Src/stm32h7xx_hal_crc.c **** /**
 402:./Libraries/STM32H7xx_HAL_Driver/Src/stm32h7xx_hal_crc.c ****   * @brief  Return the CRC handle state.
 403:./Libraries/STM32H7xx_HAL_Driver/Src/stm32h7xx_hal_crc.c ****   * @param  hcrc CRC handle
 404:./Libraries/STM32H7xx_HAL_Driver/Src/stm32h7xx_hal_crc.c ****   * @retval HAL state
 405:./Libraries/STM32H7xx_HAL_Driver/Src/stm32h7xx_hal_crc.c ****   */
 406:./Libraries/STM32H7xx_HAL_Driver/Src/stm32h7xx_hal_crc.c **** HAL_CRC_StateTypeDef HAL_CRC_GetState(CRC_HandleTypeDef *hcrc)
 407:./Libraries/STM32H7xx_HAL_Driver/Src/stm32h7xx_hal_crc.c **** {
 408:./Libraries/STM32H7xx_HAL_Driver/Src/stm32h7xx_hal_crc.c ****   /* Return CRC handle state */
 409:./Libraries/STM32H7xx_HAL_Driver/Src/stm32h7xx_hal_crc.c ****   return hcrc->State;
 410:./Libraries/STM32H7xx_HAL_Driver/Src/stm32h7xx_hal_crc.c **** }
 411:./Libraries/STM32H7xx_HAL_Driver/Src/stm32h7xx_hal_crc.c **** 
 412:./Libraries/STM32H7xx_HAL_Driver/Src/stm32h7xx_hal_crc.c **** /**
 413:./Libraries/STM32H7xx_HAL_Driver/Src/stm32h7xx_hal_crc.c ****   * @}
 414:./Libraries/STM32H7xx_HAL_Driver/Src/stm32h7xx_hal_crc.c ****   */
 415:./Libraries/STM32H7xx_HAL_Driver/Src/stm32h7xx_hal_crc.c **** 
 416:./Libraries/STM32H7xx_HAL_Driver/Src/stm32h7xx_hal_crc.c **** /**
 417:./Libraries/STM32H7xx_HAL_Driver/Src/stm32h7xx_hal_crc.c ****   * @}
 418:./Libraries/STM32H7xx_HAL_Driver/Src/stm32h7xx_hal_crc.c ****   */
 419:./Libraries/STM32H7xx_HAL_Driver/Src/stm32h7xx_hal_crc.c **** 
 420:./Libraries/STM32H7xx_HAL_Driver/Src/stm32h7xx_hal_crc.c **** /** @addtogroup CRC_Private_Functions
 421:./Libraries/STM32H7xx_HAL_Driver/Src/stm32h7xx_hal_crc.c ****  * @{
 422:./Libraries/STM32H7xx_HAL_Driver/Src/stm32h7xx_hal_crc.c ****  */
 423:./Libraries/STM32H7xx_HAL_Driver/Src/stm32h7xx_hal_crc.c **** 
 424:./Libraries/STM32H7xx_HAL_Driver/Src/stm32h7xx_hal_crc.c **** /**
 425:./Libraries/STM32H7xx_HAL_Driver/Src/stm32h7xx_hal_crc.c ****   * @brief  Enter 8-bit input data to the CRC calculator.
 426:./Libraries/STM32H7xx_HAL_Driver/Src/stm32h7xx_hal_crc.c ****   *         Specific data handling to optimize processing time.
 427:./Libraries/STM32H7xx_HAL_Driver/Src/stm32h7xx_hal_crc.c ****   * @param  hcrc CRC handle
 428:./Libraries/STM32H7xx_HAL_Driver/Src/stm32h7xx_hal_crc.c ****   * @param  pBuffer pointer to the input data buffer
 429:./Libraries/STM32H7xx_HAL_Driver/Src/stm32h7xx_hal_crc.c ****   * @param  BufferLength input data buffer length
ARM GAS  /tmp/ccbIg2bp.s 			page 9


 430:./Libraries/STM32H7xx_HAL_Driver/Src/stm32h7xx_hal_crc.c ****   * @retval uint32_t CRC (returned value LSBs for CRC shorter than 32 bits)
 431:./Libraries/STM32H7xx_HAL_Driver/Src/stm32h7xx_hal_crc.c ****   */
 432:./Libraries/STM32H7xx_HAL_Driver/Src/stm32h7xx_hal_crc.c **** static uint32_t CRC_Handle_8(CRC_HandleTypeDef *hcrc, uint8_t pBuffer[], uint32_t BufferLength)
 433:./Libraries/STM32H7xx_HAL_Driver/Src/stm32h7xx_hal_crc.c **** {
  29              		.loc 1 433 1 view -0
  30              		.cfi_startproc
  31              		@ args = 0, pretend = 0, frame = 0
  32              		@ frame_needed = 0, uses_anonymous_args = 0
 434:./Libraries/STM32H7xx_HAL_Driver/Src/stm32h7xx_hal_crc.c ****   uint32_t i; /* input data buffer index */
  33              		.loc 1 434 3 view .LVU1
 435:./Libraries/STM32H7xx_HAL_Driver/Src/stm32h7xx_hal_crc.c ****   uint16_t data;
  34              		.loc 1 435 3 view .LVU2
 436:./Libraries/STM32H7xx_HAL_Driver/Src/stm32h7xx_hal_crc.c ****   __IO uint16_t *pReg;
  35              		.loc 1 436 3 view .LVU3
 437:./Libraries/STM32H7xx_HAL_Driver/Src/stm32h7xx_hal_crc.c **** 
 438:./Libraries/STM32H7xx_HAL_Driver/Src/stm32h7xx_hal_crc.c ****   /* Processing time optimization: 4 bytes are entered in a row with a single word write,
 439:./Libraries/STM32H7xx_HAL_Driver/Src/stm32h7xx_hal_crc.c ****    * last bytes must be carefully fed to the CRC calculator to ensure a correct type
 440:./Libraries/STM32H7xx_HAL_Driver/Src/stm32h7xx_hal_crc.c ****    * handling by the peripheral */
 441:./Libraries/STM32H7xx_HAL_Driver/Src/stm32h7xx_hal_crc.c ****   for (i = 0U; i < (BufferLength / 4U); i++)
  36              		.loc 1 441 3 view .LVU4
  37              		.loc 1 441 16 view .LVU5
 433:./Libraries/STM32H7xx_HAL_Driver/Src/stm32h7xx_hal_crc.c ****   uint32_t i; /* input data buffer index */
  38              		.loc 1 433 1 is_stmt 0 view .LVU6
  39 0000 2DE9F041 		push	{r4, r5, r6, r7, r8, lr}
  40              	.LCFI0:
  41              		.cfi_def_cfa_offset 24
  42              		.cfi_offset 4, -24
  43              		.cfi_offset 5, -20
  44              		.cfi_offset 6, -16
  45              		.cfi_offset 7, -12
  46              		.cfi_offset 8, -8
  47              		.cfi_offset 14, -4
  48              		.loc 1 441 3 view .LVU7
  49 0004 5FEA920E 		lsrs	lr, r2, #2
 442:./Libraries/STM32H7xx_HAL_Driver/Src/stm32h7xx_hal_crc.c ****   {
 443:./Libraries/STM32H7xx_HAL_Driver/Src/stm32h7xx_hal_crc.c ****     hcrc->Instance->DR = ((uint32_t)pBuffer[4U * i] << 24U) | \
  50              		.loc 1 443 9 view .LVU8
  51 0008 0768     		ldr	r7, [r0]
 441:./Libraries/STM32H7xx_HAL_Driver/Src/stm32h7xx_hal_crc.c ****   {
  52              		.loc 1 441 3 view .LVU9
  53 000a 14D0     		beq	.L4
  54 000c 0C46     		mov	r4, r1
  55 000e 01EB8E0C 		add	ip, r1, lr, lsl #2
  56              	.LVL1:
  57              	.L3:
  58              		.loc 1 443 5 is_stmt 1 discriminator 3 view .LVU10
 444:./Libraries/STM32H7xx_HAL_Driver/Src/stm32h7xx_hal_crc.c ****                          ((uint32_t)pBuffer[(4U * i) + 1U] << 16U) | \
  59              		.loc 1 444 27 is_stmt 0 discriminator 3 view .LVU11
  60 0012 6378     		ldrb	r3, [r4, #1]	@ zero_extendqisi2
  61 0014 0434     		adds	r4, r4, #4
 443:./Libraries/STM32H7xx_HAL_Driver/Src/stm32h7xx_hal_crc.c ****                          ((uint32_t)pBuffer[(4U * i) + 1U] << 16U) | \
  62              		.loc 1 443 27 discriminator 3 view .LVU12
  63 0016 14F8048C 		ldrb	r8, [r4, #-4]	@ zero_extendqisi2
  64              		.loc 1 444 60 discriminator 3 view .LVU13
  65 001a 1B04     		lsls	r3, r3, #16
 445:./Libraries/STM32H7xx_HAL_Driver/Src/stm32h7xx_hal_crc.c ****                          ((uint32_t)pBuffer[(4U * i) + 2U] << 8U)  | \
 446:./Libraries/STM32H7xx_HAL_Driver/Src/stm32h7xx_hal_crc.c ****                          (uint32_t)pBuffer[(4U * i) + 3U];
ARM GAS  /tmp/ccbIg2bp.s 			page 10


  66              		.loc 1 446 26 discriminator 3 view .LVU14
  67 001c 14F8016C 		ldrb	r6, [r4, #-1]	@ zero_extendqisi2
 445:./Libraries/STM32H7xx_HAL_Driver/Src/stm32h7xx_hal_crc.c ****                          ((uint32_t)pBuffer[(4U * i) + 2U] << 8U)  | \
  68              		.loc 1 445 27 discriminator 3 view .LVU15
  69 0020 14F8025C 		ldrb	r5, [r4, #-2]	@ zero_extendqisi2
 441:./Libraries/STM32H7xx_HAL_Driver/Src/stm32h7xx_hal_crc.c ****   {
  70              		.loc 1 441 3 discriminator 3 view .LVU16
  71 0024 A445     		cmp	ip, r4
 445:./Libraries/STM32H7xx_HAL_Driver/Src/stm32h7xx_hal_crc.c ****                          ((uint32_t)pBuffer[(4U * i) + 2U] << 8U)  | \
  72              		.loc 1 445 68 discriminator 3 view .LVU17
  73 0026 43EA0863 		orr	r3, r3, r8, lsl #24
  74 002a 43EA0603 		orr	r3, r3, r6
  75 002e 43EA0523 		orr	r3, r3, r5, lsl #8
 443:./Libraries/STM32H7xx_HAL_Driver/Src/stm32h7xx_hal_crc.c ****                          ((uint32_t)pBuffer[(4U * i) + 1U] << 16U) | \
  76              		.loc 1 443 24 discriminator 3 view .LVU18
  77 0032 3B60     		str	r3, [r7]
 441:./Libraries/STM32H7xx_HAL_Driver/Src/stm32h7xx_hal_crc.c ****   {
  78              		.loc 1 441 41 is_stmt 1 discriminator 3 view .LVU19
 441:./Libraries/STM32H7xx_HAL_Driver/Src/stm32h7xx_hal_crc.c ****   {
  79              		.loc 1 441 16 discriminator 3 view .LVU20
 441:./Libraries/STM32H7xx_HAL_Driver/Src/stm32h7xx_hal_crc.c ****   {
  80              		.loc 1 441 3 is_stmt 0 discriminator 3 view .LVU21
  81 0034 EDD1     		bne	.L3
  82              	.L4:
 447:./Libraries/STM32H7xx_HAL_Driver/Src/stm32h7xx_hal_crc.c ****   }
 448:./Libraries/STM32H7xx_HAL_Driver/Src/stm32h7xx_hal_crc.c ****   /* last bytes specific handling */
 449:./Libraries/STM32H7xx_HAL_Driver/Src/stm32h7xx_hal_crc.c ****   if ((BufferLength % 4U) != 0U)
  83              		.loc 1 449 3 is_stmt 1 view .LVU22
  84              		.loc 1 449 6 is_stmt 0 view .LVU23
  85 0036 12F00302 		ands	r2, r2, #3
  86              	.LVL2:
  87              		.loc 1 449 6 view .LVU24
  88 003a 0BD0     		beq	.L5
 450:./Libraries/STM32H7xx_HAL_Driver/Src/stm32h7xx_hal_crc.c ****   {
 451:./Libraries/STM32H7xx_HAL_Driver/Src/stm32h7xx_hal_crc.c ****     if ((BufferLength % 4U) == 1U)
  89              		.loc 1 451 5 is_stmt 1 view .LVU25
  90              		.loc 1 451 8 is_stmt 0 view .LVU26
  91 003c 012A     		cmp	r2, #1
  92 003e 0CD0     		beq	.L14
 452:./Libraries/STM32H7xx_HAL_Driver/Src/stm32h7xx_hal_crc.c ****     {
 453:./Libraries/STM32H7xx_HAL_Driver/Src/stm32h7xx_hal_crc.c ****       *(__IO uint8_t *)(__IO void *)(&hcrc->Instance->DR) = pBuffer[4U * i];         /* Derogation 
 454:./Libraries/STM32H7xx_HAL_Driver/Src/stm32h7xx_hal_crc.c ****     }
 455:./Libraries/STM32H7xx_HAL_Driver/Src/stm32h7xx_hal_crc.c ****     if ((BufferLength % 4U) == 2U)
  93              		.loc 1 455 5 is_stmt 1 view .LVU27
  94              		.loc 1 455 8 is_stmt 0 view .LVU28
  95 0040 022A     		cmp	r2, #2
  96 0042 11D1     		bne	.L7
 456:./Libraries/STM32H7xx_HAL_Driver/Src/stm32h7xx_hal_crc.c ****     {
 457:./Libraries/STM32H7xx_HAL_Driver/Src/stm32h7xx_hal_crc.c ****       data = ((uint16_t)(pBuffer[4U * i]) << 8U) | (uint16_t)pBuffer[(4U * i) + 1U];
  97              		.loc 1 457 7 is_stmt 1 view .LVU29
  98              		.loc 1 457 69 is_stmt 0 view .LVU30
  99 0044 01EB8E03 		add	r3, r1, lr, lsl #2
 100              		.loc 1 457 15 view .LVU31
 101 0048 11F82E20 		ldrb	r2, [r1, lr, lsl #2]	@ zero_extendqisi2
 102              		.loc 1 457 69 view .LVU32
 103 004c 5B78     		ldrb	r3, [r3, #1]	@ zero_extendqisi2
 104              		.loc 1 457 12 view .LVU33
ARM GAS  /tmp/ccbIg2bp.s 			page 11


 105 004e 43EA0223 		orr	r3, r3, r2, lsl #8
 106              	.LVL3:
 458:./Libraries/STM32H7xx_HAL_Driver/Src/stm32h7xx_hal_crc.c ****       pReg = (__IO uint16_t *)(__IO void *)(&hcrc->Instance->DR);                    /* Derogation 
 107              		.loc 1 458 7 is_stmt 1 view .LVU34
 459:./Libraries/STM32H7xx_HAL_Driver/Src/stm32h7xx_hal_crc.c ****       *pReg = data;
 108              		.loc 1 459 7 view .LVU35
 109              		.loc 1 459 13 is_stmt 0 view .LVU36
 110 0052 3B80     		strh	r3, [r7]	@ movhi
 460:./Libraries/STM32H7xx_HAL_Driver/Src/stm32h7xx_hal_crc.c ****     }
 461:./Libraries/STM32H7xx_HAL_Driver/Src/stm32h7xx_hal_crc.c ****     if ((BufferLength % 4U) == 3U)
 111              		.loc 1 461 5 is_stmt 1 view .LVU37
 112              	.LVL4:
 113              	.L5:
 462:./Libraries/STM32H7xx_HAL_Driver/Src/stm32h7xx_hal_crc.c ****     {
 463:./Libraries/STM32H7xx_HAL_Driver/Src/stm32h7xx_hal_crc.c ****       data = ((uint16_t)(pBuffer[4U * i]) << 8U) | (uint16_t)pBuffer[(4U * i) + 1U];
 464:./Libraries/STM32H7xx_HAL_Driver/Src/stm32h7xx_hal_crc.c ****       pReg = (__IO uint16_t *)(__IO void *)(&hcrc->Instance->DR);                    /* Derogation 
 465:./Libraries/STM32H7xx_HAL_Driver/Src/stm32h7xx_hal_crc.c ****       *pReg = data;
 466:./Libraries/STM32H7xx_HAL_Driver/Src/stm32h7xx_hal_crc.c **** 
 467:./Libraries/STM32H7xx_HAL_Driver/Src/stm32h7xx_hal_crc.c ****       *(__IO uint8_t *)(__IO void *)(&hcrc->Instance->DR) = pBuffer[(4U * i) + 2U];  /* Derogation 
 468:./Libraries/STM32H7xx_HAL_Driver/Src/stm32h7xx_hal_crc.c ****     }
 469:./Libraries/STM32H7xx_HAL_Driver/Src/stm32h7xx_hal_crc.c ****   }
 470:./Libraries/STM32H7xx_HAL_Driver/Src/stm32h7xx_hal_crc.c **** 
 471:./Libraries/STM32H7xx_HAL_Driver/Src/stm32h7xx_hal_crc.c ****   /* Return the CRC computed value */
 472:./Libraries/STM32H7xx_HAL_Driver/Src/stm32h7xx_hal_crc.c ****   return hcrc->Instance->DR;
 114              		.loc 1 472 3 view .LVU38
 115              		.loc 1 472 24 is_stmt 0 view .LVU39
 116 0054 3868     		ldr	r0, [r7]
 117              	.LVL5:
 473:./Libraries/STM32H7xx_HAL_Driver/Src/stm32h7xx_hal_crc.c **** }
 118              		.loc 1 473 1 view .LVU40
 119 0056 BDE8F081 		pop	{r4, r5, r6, r7, r8, pc}
 120              	.LVL6:
 121              	.L14:
 453:./Libraries/STM32H7xx_HAL_Driver/Src/stm32h7xx_hal_crc.c ****     }
 122              		.loc 1 453 7 is_stmt 1 view .LVU41
 453:./Libraries/STM32H7xx_HAL_Driver/Src/stm32h7xx_hal_crc.c ****     }
 123              		.loc 1 453 68 is_stmt 0 view .LVU42
 124 005a 11F82E30 		ldrb	r3, [r1, lr, lsl #2]	@ zero_extendqisi2
 453:./Libraries/STM32H7xx_HAL_Driver/Src/stm32h7xx_hal_crc.c ****     }
 125              		.loc 1 453 59 view .LVU43
 126 005e 3B70     		strb	r3, [r7]
 455:./Libraries/STM32H7xx_HAL_Driver/Src/stm32h7xx_hal_crc.c ****     {
 127              		.loc 1 455 5 is_stmt 1 view .LVU44
 128 0060 0768     		ldr	r7, [r0]
 461:./Libraries/STM32H7xx_HAL_Driver/Src/stm32h7xx_hal_crc.c ****     {
 129              		.loc 1 461 5 view .LVU45
 472:./Libraries/STM32H7xx_HAL_Driver/Src/stm32h7xx_hal_crc.c **** }
 130              		.loc 1 472 3 view .LVU46
 472:./Libraries/STM32H7xx_HAL_Driver/Src/stm32h7xx_hal_crc.c **** }
 131              		.loc 1 472 24 is_stmt 0 view .LVU47
 132 0062 3868     		ldr	r0, [r7]
 133              	.LVL7:
 134              		.loc 1 473 1 view .LVU48
 135 0064 BDE8F081 		pop	{r4, r5, r6, r7, r8, pc}
 136              	.LVL8:
 137              	.L7:
 461:./Libraries/STM32H7xx_HAL_Driver/Src/stm32h7xx_hal_crc.c ****     {
ARM GAS  /tmp/ccbIg2bp.s 			page 12


 138              		.loc 1 461 5 is_stmt 1 view .LVU49
 463:./Libraries/STM32H7xx_HAL_Driver/Src/stm32h7xx_hal_crc.c ****       pReg = (__IO uint16_t *)(__IO void *)(&hcrc->Instance->DR);                    /* Derogation 
 139              		.loc 1 463 7 view .LVU50
 463:./Libraries/STM32H7xx_HAL_Driver/Src/stm32h7xx_hal_crc.c ****       pReg = (__IO uint16_t *)(__IO void *)(&hcrc->Instance->DR);                    /* Derogation 
 140              		.loc 1 463 69 is_stmt 0 view .LVU51
 141 0068 01EB8E02 		add	r2, r1, lr, lsl #2
 463:./Libraries/STM32H7xx_HAL_Driver/Src/stm32h7xx_hal_crc.c ****       pReg = (__IO uint16_t *)(__IO void *)(&hcrc->Instance->DR);                    /* Derogation 
 142              		.loc 1 463 15 view .LVU52
 143 006c 11F82E10 		ldrb	r1, [r1, lr, lsl #2]	@ zero_extendqisi2
 144              	.LVL9:
 463:./Libraries/STM32H7xx_HAL_Driver/Src/stm32h7xx_hal_crc.c ****       pReg = (__IO uint16_t *)(__IO void *)(&hcrc->Instance->DR);                    /* Derogation 
 145              		.loc 1 463 69 view .LVU53
 146 0070 5378     		ldrb	r3, [r2, #1]	@ zero_extendqisi2
 463:./Libraries/STM32H7xx_HAL_Driver/Src/stm32h7xx_hal_crc.c ****       pReg = (__IO uint16_t *)(__IO void *)(&hcrc->Instance->DR);                    /* Derogation 
 147              		.loc 1 463 12 view .LVU54
 148 0072 43EA0123 		orr	r3, r3, r1, lsl #8
 149              	.LVL10:
 464:./Libraries/STM32H7xx_HAL_Driver/Src/stm32h7xx_hal_crc.c ****       *pReg = data;
 150              		.loc 1 464 7 is_stmt 1 view .LVU55
 465:./Libraries/STM32H7xx_HAL_Driver/Src/stm32h7xx_hal_crc.c **** 
 151              		.loc 1 465 7 view .LVU56
 465:./Libraries/STM32H7xx_HAL_Driver/Src/stm32h7xx_hal_crc.c **** 
 152              		.loc 1 465 13 is_stmt 0 view .LVU57
 153 0076 3B80     		strh	r3, [r7]	@ movhi
 467:./Libraries/STM32H7xx_HAL_Driver/Src/stm32h7xx_hal_crc.c ****     }
 154              		.loc 1 467 7 is_stmt 1 view .LVU58
 467:./Libraries/STM32H7xx_HAL_Driver/Src/stm32h7xx_hal_crc.c ****     }
 155              		.loc 1 467 68 is_stmt 0 view .LVU59
 156 0078 9378     		ldrb	r3, [r2, #2]	@ zero_extendqisi2
 157              	.LVL11:
 467:./Libraries/STM32H7xx_HAL_Driver/Src/stm32h7xx_hal_crc.c ****     }
 158              		.loc 1 467 59 view .LVU60
 159 007a 3B70     		strb	r3, [r7]
 160              	.LVL12:
 467:./Libraries/STM32H7xx_HAL_Driver/Src/stm32h7xx_hal_crc.c ****     }
 161              		.loc 1 467 59 view .LVU61
 162 007c 0768     		ldr	r7, [r0]
 472:./Libraries/STM32H7xx_HAL_Driver/Src/stm32h7xx_hal_crc.c **** }
 163              		.loc 1 472 3 is_stmt 1 view .LVU62
 472:./Libraries/STM32H7xx_HAL_Driver/Src/stm32h7xx_hal_crc.c **** }
 164              		.loc 1 472 24 is_stmt 0 view .LVU63
 165 007e 3868     		ldr	r0, [r7]
 166              	.LVL13:
 167              		.loc 1 473 1 view .LVU64
 168 0080 BDE8F081 		pop	{r4, r5, r6, r7, r8, pc}
 169              		.cfi_endproc
 170              	.LFE338:
 172              		.section	.text.CRC_Handle_16,"ax",%progbits
 173              		.align	1
 174              		.p2align 2,,3
 175              		.syntax unified
 176              		.thumb
 177              		.thumb_func
 178              		.fpu fpv5-d16
 180              	CRC_Handle_16:
 181              	.LVL14:
 182              	.LFB339:
ARM GAS  /tmp/ccbIg2bp.s 			page 13


 474:./Libraries/STM32H7xx_HAL_Driver/Src/stm32h7xx_hal_crc.c **** 
 475:./Libraries/STM32H7xx_HAL_Driver/Src/stm32h7xx_hal_crc.c **** /**
 476:./Libraries/STM32H7xx_HAL_Driver/Src/stm32h7xx_hal_crc.c ****   * @brief  Enter 16-bit input data to the CRC calculator.
 477:./Libraries/STM32H7xx_HAL_Driver/Src/stm32h7xx_hal_crc.c ****   *         Specific data handling to optimize processing time.
 478:./Libraries/STM32H7xx_HAL_Driver/Src/stm32h7xx_hal_crc.c ****   * @param  hcrc CRC handle
 479:./Libraries/STM32H7xx_HAL_Driver/Src/stm32h7xx_hal_crc.c ****   * @param  pBuffer pointer to the input data buffer
 480:./Libraries/STM32H7xx_HAL_Driver/Src/stm32h7xx_hal_crc.c ****   * @param  BufferLength input data buffer length
 481:./Libraries/STM32H7xx_HAL_Driver/Src/stm32h7xx_hal_crc.c ****   * @retval uint32_t CRC (returned value LSBs for CRC shorter than 32 bits)
 482:./Libraries/STM32H7xx_HAL_Driver/Src/stm32h7xx_hal_crc.c ****   */
 483:./Libraries/STM32H7xx_HAL_Driver/Src/stm32h7xx_hal_crc.c **** static uint32_t CRC_Handle_16(CRC_HandleTypeDef *hcrc, uint16_t pBuffer[], uint32_t BufferLength)
 484:./Libraries/STM32H7xx_HAL_Driver/Src/stm32h7xx_hal_crc.c **** {
 183              		.loc 1 484 1 is_stmt 1 view -0
 184              		.cfi_startproc
 185              		@ args = 0, pretend = 0, frame = 0
 186              		@ frame_needed = 0, uses_anonymous_args = 0
 187              		@ link register save eliminated.
 485:./Libraries/STM32H7xx_HAL_Driver/Src/stm32h7xx_hal_crc.c ****   uint32_t i;  /* input data buffer index */
 188              		.loc 1 485 3 view .LVU66
 486:./Libraries/STM32H7xx_HAL_Driver/Src/stm32h7xx_hal_crc.c ****   __IO uint16_t *pReg;
 189              		.loc 1 486 3 view .LVU67
 487:./Libraries/STM32H7xx_HAL_Driver/Src/stm32h7xx_hal_crc.c **** 
 488:./Libraries/STM32H7xx_HAL_Driver/Src/stm32h7xx_hal_crc.c ****   /* Processing time optimization: 2 HalfWords are entered in a row with a single word write,
 489:./Libraries/STM32H7xx_HAL_Driver/Src/stm32h7xx_hal_crc.c ****    * in case of odd length, last HalfWord must be carefully fed to the CRC calculator to ensure
 490:./Libraries/STM32H7xx_HAL_Driver/Src/stm32h7xx_hal_crc.c ****    * a correct type handling by the peripheral */
 491:./Libraries/STM32H7xx_HAL_Driver/Src/stm32h7xx_hal_crc.c ****   for (i = 0U; i < (BufferLength / 2U); i++)
 190              		.loc 1 491 3 view .LVU68
 191              		.loc 1 491 16 view .LVU69
 484:./Libraries/STM32H7xx_HAL_Driver/Src/stm32h7xx_hal_crc.c ****   uint32_t i;  /* input data buffer index */
 192              		.loc 1 484 1 is_stmt 0 view .LVU70
 193 0000 F0B4     		push	{r4, r5, r6, r7}
 194              	.LCFI1:
 195              		.cfi_def_cfa_offset 16
 196              		.cfi_offset 4, -16
 197              		.cfi_offset 5, -12
 198              		.cfi_offset 6, -8
 199              		.cfi_offset 7, -4
 200              		.loc 1 491 3 view .LVU71
 201 0002 5608     		lsrs	r6, r2, #1
 492:./Libraries/STM32H7xx_HAL_Driver/Src/stm32h7xx_hal_crc.c ****   {
 493:./Libraries/STM32H7xx_HAL_Driver/Src/stm32h7xx_hal_crc.c ****     hcrc->Instance->DR = ((uint32_t)pBuffer[2U * i] << 16U) | (uint32_t)pBuffer[(2U * i) + 1U];
 202              		.loc 1 493 9 view .LVU72
 203 0004 0568     		ldr	r5, [r0]
 491:./Libraries/STM32H7xx_HAL_Driver/Src/stm32h7xx_hal_crc.c ****   {
 204              		.loc 1 491 3 view .LVU73
 205 0006 0BD0     		beq	.L18
 491:./Libraries/STM32H7xx_HAL_Driver/Src/stm32h7xx_hal_crc.c ****   {
 206              		.loc 1 491 10 view .LVU74
 207 0008 0023     		movs	r3, #0
 208 000a 8F1C     		adds	r7, r1, #2
 209              	.LVL15:
 210              	.L17:
 211              		.loc 1 493 5 is_stmt 1 discriminator 3 view .LVU75
 212              		.loc 1 493 27 is_stmt 0 discriminator 3 view .LVU76
 213 000c 31F82340 		ldrh	r4, [r1, r3, lsl #2]
 214              		.loc 1 493 63 discriminator 3 view .LVU77
 215 0010 37F82300 		ldrh	r0, [r7, r3, lsl #2]
 491:./Libraries/STM32H7xx_HAL_Driver/Src/stm32h7xx_hal_crc.c ****   {
ARM GAS  /tmp/ccbIg2bp.s 			page 14


 216              		.loc 1 491 42 discriminator 3 view .LVU78
 217 0014 0133     		adds	r3, r3, #1
 218              	.LVL16:
 219              		.loc 1 493 61 discriminator 3 view .LVU79
 220 0016 40EA0440 		orr	r0, r0, r4, lsl #16
 491:./Libraries/STM32H7xx_HAL_Driver/Src/stm32h7xx_hal_crc.c ****   {
 221              		.loc 1 491 3 discriminator 3 view .LVU80
 222 001a B342     		cmp	r3, r6
 223              		.loc 1 493 24 discriminator 3 view .LVU81
 224 001c 2860     		str	r0, [r5]
 491:./Libraries/STM32H7xx_HAL_Driver/Src/stm32h7xx_hal_crc.c ****   {
 225              		.loc 1 491 41 is_stmt 1 discriminator 3 view .LVU82
 226              	.LVL17:
 491:./Libraries/STM32H7xx_HAL_Driver/Src/stm32h7xx_hal_crc.c ****   {
 227              		.loc 1 491 16 discriminator 3 view .LVU83
 491:./Libraries/STM32H7xx_HAL_Driver/Src/stm32h7xx_hal_crc.c ****   {
 228              		.loc 1 491 3 is_stmt 0 discriminator 3 view .LVU84
 229 001e F5D1     		bne	.L17
 230              	.LVL18:
 231              	.L18:
 494:./Libraries/STM32H7xx_HAL_Driver/Src/stm32h7xx_hal_crc.c ****   }
 495:./Libraries/STM32H7xx_HAL_Driver/Src/stm32h7xx_hal_crc.c ****   if ((BufferLength % 2U) != 0U)
 232              		.loc 1 495 3 is_stmt 1 view .LVU85
 233              		.loc 1 495 6 is_stmt 0 view .LVU86
 234 0020 D307     		lsls	r3, r2, #31
 235 0022 02D5     		bpl	.L19
 496:./Libraries/STM32H7xx_HAL_Driver/Src/stm32h7xx_hal_crc.c ****   {
 497:./Libraries/STM32H7xx_HAL_Driver/Src/stm32h7xx_hal_crc.c ****     pReg = (__IO uint16_t *)(__IO void *)(&hcrc->Instance->DR);                 /* Derogation Misra
 236              		.loc 1 497 5 is_stmt 1 view .LVU87
 237              	.LVL19:
 498:./Libraries/STM32H7xx_HAL_Driver/Src/stm32h7xx_hal_crc.c ****     *pReg = pBuffer[2U * i];
 238              		.loc 1 498 5 view .LVU88
 239              		.loc 1 498 20 is_stmt 0 view .LVU89
 240 0024 31F82630 		ldrh	r3, [r1, r6, lsl #2]
 241              		.loc 1 498 11 view .LVU90
 242 0028 2B80     		strh	r3, [r5]	@ movhi
 243              	.LVL20:
 244              	.L19:
 499:./Libraries/STM32H7xx_HAL_Driver/Src/stm32h7xx_hal_crc.c ****   }
 500:./Libraries/STM32H7xx_HAL_Driver/Src/stm32h7xx_hal_crc.c **** 
 501:./Libraries/STM32H7xx_HAL_Driver/Src/stm32h7xx_hal_crc.c ****   /* Return the CRC computed value */
 502:./Libraries/STM32H7xx_HAL_Driver/Src/stm32h7xx_hal_crc.c ****   return hcrc->Instance->DR;
 245              		.loc 1 502 3 is_stmt 1 view .LVU91
 246              		.loc 1 502 24 is_stmt 0 view .LVU92
 247 002a 2868     		ldr	r0, [r5]
 503:./Libraries/STM32H7xx_HAL_Driver/Src/stm32h7xx_hal_crc.c **** }
 248              		.loc 1 503 1 view .LVU93
 249 002c F0BC     		pop	{r4, r5, r6, r7}
 250              	.LCFI2:
 251              		.cfi_restore 7
 252              		.cfi_restore 6
 253              		.cfi_restore 5
 254              		.cfi_restore 4
 255              		.cfi_def_cfa_offset 0
 256 002e 7047     		bx	lr
 257              		.cfi_endproc
 258              	.LFE339:
ARM GAS  /tmp/ccbIg2bp.s 			page 15


 260              		.section	.text.HAL_CRC_MspInit,"ax",%progbits
 261              		.align	1
 262              		.p2align 2,,3
 263              		.weak	HAL_CRC_MspInit
 264              		.syntax unified
 265              		.thumb
 266              		.thumb_func
 267              		.fpu fpv5-d16
 269              	HAL_CRC_MspInit:
 270              	.LVL21:
 271              	.LFB333:
 224:./Libraries/STM32H7xx_HAL_Driver/Src/stm32h7xx_hal_crc.c ****   /* Prevent unused argument(s) compilation warning */
 272              		.loc 1 224 1 is_stmt 1 view -0
 273              		.cfi_startproc
 274              		@ args = 0, pretend = 0, frame = 0
 275              		@ frame_needed = 0, uses_anonymous_args = 0
 276              		@ link register save eliminated.
 226:./Libraries/STM32H7xx_HAL_Driver/Src/stm32h7xx_hal_crc.c **** 
 277              		.loc 1 226 3 view .LVU95
 231:./Libraries/STM32H7xx_HAL_Driver/Src/stm32h7xx_hal_crc.c **** 
 278              		.loc 1 231 1 is_stmt 0 view .LVU96
 279 0000 7047     		bx	lr
 280              		.cfi_endproc
 281              	.LFE333:
 283 0002 00BF     		.section	.text.HAL_CRC_Init,"ax",%progbits
 284              		.align	1
 285              		.p2align 2,,3
 286              		.global	HAL_CRC_Init
 287              		.syntax unified
 288              		.thumb
 289              		.thumb_func
 290              		.fpu fpv5-d16
 292              	HAL_CRC_Init:
 293              	.LVL22:
 294              	.LFB331:
 104:./Libraries/STM32H7xx_HAL_Driver/Src/stm32h7xx_hal_crc.c ****   /* Check the CRC handle allocation */
 295              		.loc 1 104 1 is_stmt 1 view -0
 296              		.cfi_startproc
 297              		@ args = 0, pretend = 0, frame = 0
 298              		@ frame_needed = 0, uses_anonymous_args = 0
 106:./Libraries/STM32H7xx_HAL_Driver/Src/stm32h7xx_hal_crc.c ****   {
 299              		.loc 1 106 3 view .LVU98
 106:./Libraries/STM32H7xx_HAL_Driver/Src/stm32h7xx_hal_crc.c ****   {
 300              		.loc 1 106 6 is_stmt 0 view .LVU99
 301 0000 0028     		cmp	r0, #0
 302 0002 36D0     		beq	.L38
 112:./Libraries/STM32H7xx_HAL_Driver/Src/stm32h7xx_hal_crc.c **** 
 303              		.loc 1 112 3 is_stmt 1 view .LVU100
 114:./Libraries/STM32H7xx_HAL_Driver/Src/stm32h7xx_hal_crc.c ****   {
 304              		.loc 1 114 3 view .LVU101
 104:./Libraries/STM32H7xx_HAL_Driver/Src/stm32h7xx_hal_crc.c ****   /* Check the CRC handle allocation */
 305              		.loc 1 104 1 is_stmt 0 view .LVU102
 306 0004 70B5     		push	{r4, r5, r6, lr}
 307              	.LCFI3:
 308              		.cfi_def_cfa_offset 16
 309              		.cfi_offset 4, -16
 310              		.cfi_offset 5, -12
ARM GAS  /tmp/ccbIg2bp.s 			page 16


 311              		.cfi_offset 6, -8
 312              		.cfi_offset 14, -4
 114:./Libraries/STM32H7xx_HAL_Driver/Src/stm32h7xx_hal_crc.c ****   {
 313              		.loc 1 114 11 view .LVU103
 314 0006 437F     		ldrb	r3, [r0, #29]	@ zero_extendqisi2
 315 0008 0446     		mov	r4, r0
 114:./Libraries/STM32H7xx_HAL_Driver/Src/stm32h7xx_hal_crc.c ****   {
 316              		.loc 1 114 6 view .LVU104
 317 000a 03F0FF02 		and	r2, r3, #255
 318 000e 63B3     		cbz	r3, .L39
 319              	.LVL23:
 320              	.L29:
 122:./Libraries/STM32H7xx_HAL_Driver/Src/stm32h7xx_hal_crc.c **** 
 321              		.loc 1 122 3 is_stmt 1 view .LVU105
 122:./Libraries/STM32H7xx_HAL_Driver/Src/stm32h7xx_hal_crc.c **** 
 322              		.loc 1 122 15 is_stmt 0 view .LVU106
 323 0010 0222     		movs	r2, #2
 127:./Libraries/STM32H7xx_HAL_Driver/Src/stm32h7xx_hal_crc.c ****   {
 324              		.loc 1 127 6 view .LVU107
 325 0012 2379     		ldrb	r3, [r4, #4]	@ zero_extendqisi2
 122:./Libraries/STM32H7xx_HAL_Driver/Src/stm32h7xx_hal_crc.c **** 
 326              		.loc 1 122 15 view .LVU108
 327 0014 6277     		strb	r2, [r4, #29]
 126:./Libraries/STM32H7xx_HAL_Driver/Src/stm32h7xx_hal_crc.c ****   if (hcrc->Init.DefaultPolynomialUse == DEFAULT_POLYNOMIAL_ENABLE)
 328              		.loc 1 126 3 is_stmt 1 view .LVU109
 127:./Libraries/STM32H7xx_HAL_Driver/Src/stm32h7xx_hal_crc.c ****   {
 329              		.loc 1 127 3 view .LVU110
 127:./Libraries/STM32H7xx_HAL_Driver/Src/stm32h7xx_hal_crc.c ****   {
 330              		.loc 1 127 6 is_stmt 0 view .LVU111
 331 0016 F3B9     		cbnz	r3, .L30
 130:./Libraries/STM32H7xx_HAL_Driver/Src/stm32h7xx_hal_crc.c ****     MODIFY_REG(hcrc->Instance->CR, CRC_CR_POLYSIZE, CRC_POLYLENGTH_32B);
 332              		.loc 1 130 5 is_stmt 1 view .LVU112
 333 0018 2368     		ldr	r3, [r4]
 334 001a 174A     		ldr	r2, .L41
 335 001c 5A61     		str	r2, [r3, #20]
 131:./Libraries/STM32H7xx_HAL_Driver/Src/stm32h7xx_hal_crc.c ****   }
 336              		.loc 1 131 5 view .LVU113
 337 001e 9A68     		ldr	r2, [r3, #8]
 338 0020 22F01802 		bic	r2, r2, #24
 339 0024 9A60     		str	r2, [r3, #8]
 340              	.L31:
 144:./Libraries/STM32H7xx_HAL_Driver/Src/stm32h7xx_hal_crc.c ****   if (hcrc->Init.DefaultInitValueUse == DEFAULT_INIT_VALUE_ENABLE)
 341              		.loc 1 144 3 view .LVU114
 145:./Libraries/STM32H7xx_HAL_Driver/Src/stm32h7xx_hal_crc.c ****   {
 342              		.loc 1 145 3 view .LVU115
 145:./Libraries/STM32H7xx_HAL_Driver/Src/stm32h7xx_hal_crc.c ****   {
 343              		.loc 1 145 6 is_stmt 0 view .LVU116
 344 0026 6279     		ldrb	r2, [r4, #5]	@ zero_extendqisi2
 345 0028 8AB1     		cbz	r2, .L40
 151:./Libraries/STM32H7xx_HAL_Driver/Src/stm32h7xx_hal_crc.c ****   }
 346              		.loc 1 151 5 is_stmt 1 view .LVU117
 347 002a 2269     		ldr	r2, [r4, #16]
 348 002c 1A61     		str	r2, [r3, #16]
 349              	.L34:
 156:./Libraries/STM32H7xx_HAL_Driver/Src/stm32h7xx_hal_crc.c ****   MODIFY_REG(hcrc->Instance->CR, CRC_CR_REV_IN, hcrc->Init.InputDataInversionMode);
 350              		.loc 1 156 3 view .LVU118
 157:./Libraries/STM32H7xx_HAL_Driver/Src/stm32h7xx_hal_crc.c **** 
ARM GAS  /tmp/ccbIg2bp.s 			page 17


 351              		.loc 1 157 3 view .LVU119
 352 002e 9968     		ldr	r1, [r3, #8]
 168:./Libraries/STM32H7xx_HAL_Driver/Src/stm32h7xx_hal_crc.c **** 
 353              		.loc 1 168 15 is_stmt 0 view .LVU120
 354 0030 0125     		movs	r5, #1
 157:./Libraries/STM32H7xx_HAL_Driver/Src/stm32h7xx_hal_crc.c **** 
 355              		.loc 1 157 3 view .LVU121
 356 0032 6269     		ldr	r2, [r4, #20]
 171:./Libraries/STM32H7xx_HAL_Driver/Src/stm32h7xx_hal_crc.c **** }
 357              		.loc 1 171 10 view .LVU122
 358 0034 0020     		movs	r0, #0
 157:./Libraries/STM32H7xx_HAL_Driver/Src/stm32h7xx_hal_crc.c **** 
 359              		.loc 1 157 3 view .LVU123
 360 0036 21F06001 		bic	r1, r1, #96
 161:./Libraries/STM32H7xx_HAL_Driver/Src/stm32h7xx_hal_crc.c **** 
 361              		.loc 1 161 3 view .LVU124
 362 003a A669     		ldr	r6, [r4, #24]
 157:./Libraries/STM32H7xx_HAL_Driver/Src/stm32h7xx_hal_crc.c **** 
 363              		.loc 1 157 3 view .LVU125
 364 003c 1143     		orrs	r1, r1, r2
 365 003e 9960     		str	r1, [r3, #8]
 160:./Libraries/STM32H7xx_HAL_Driver/Src/stm32h7xx_hal_crc.c ****   MODIFY_REG(hcrc->Instance->CR, CRC_CR_REV_OUT, hcrc->Init.OutputDataInversionMode);
 366              		.loc 1 160 3 is_stmt 1 view .LVU126
 161:./Libraries/STM32H7xx_HAL_Driver/Src/stm32h7xx_hal_crc.c **** 
 367              		.loc 1 161 3 view .LVU127
 368 0040 9A68     		ldr	r2, [r3, #8]
 369 0042 22F08002 		bic	r2, r2, #128
 370 0046 3243     		orrs	r2, r2, r6
 371 0048 9A60     		str	r2, [r3, #8]
 165:./Libraries/STM32H7xx_HAL_Driver/Src/stm32h7xx_hal_crc.c **** 
 372              		.loc 1 165 3 view .LVU128
 168:./Libraries/STM32H7xx_HAL_Driver/Src/stm32h7xx_hal_crc.c **** 
 373              		.loc 1 168 3 view .LVU129
 168:./Libraries/STM32H7xx_HAL_Driver/Src/stm32h7xx_hal_crc.c **** 
 374              		.loc 1 168 15 is_stmt 0 view .LVU130
 375 004a 6577     		strb	r5, [r4, #29]
 171:./Libraries/STM32H7xx_HAL_Driver/Src/stm32h7xx_hal_crc.c **** }
 376              		.loc 1 171 3 is_stmt 1 view .LVU131
 172:./Libraries/STM32H7xx_HAL_Driver/Src/stm32h7xx_hal_crc.c **** 
 377              		.loc 1 172 1 is_stmt 0 view .LVU132
 378 004c 70BD     		pop	{r4, r5, r6, pc}
 379              	.LVL24:
 380              	.L40:
 147:./Libraries/STM32H7xx_HAL_Driver/Src/stm32h7xx_hal_crc.c ****   }
 381              		.loc 1 147 5 is_stmt 1 view .LVU133
 382 004e 4FF0FF32 		mov	r2, #-1
 383 0052 1A61     		str	r2, [r3, #16]
 384 0054 EBE7     		b	.L34
 385              	.L30:
 136:./Libraries/STM32H7xx_HAL_Driver/Src/stm32h7xx_hal_crc.c ****     {
 386              		.loc 1 136 5 view .LVU134
 136:./Libraries/STM32H7xx_HAL_Driver/Src/stm32h7xx_hal_crc.c ****     {
 387              		.loc 1 136 9 is_stmt 0 view .LVU135
 388 0056 E268     		ldr	r2, [r4, #12]
 389 0058 2046     		mov	r0, r4
 390 005a A168     		ldr	r1, [r4, #8]
 391 005c FFF7FEFF 		bl	HAL_CRCEx_Polynomial_Set
ARM GAS  /tmp/ccbIg2bp.s 			page 18


 392              	.LVL25:
 136:./Libraries/STM32H7xx_HAL_Driver/Src/stm32h7xx_hal_crc.c ****     {
 393              		.loc 1 136 8 view .LVU136
 394 0060 08B9     		cbnz	r0, .L32
 395 0062 2368     		ldr	r3, [r4]
 396 0064 DFE7     		b	.L31
 397              	.L32:
 108:./Libraries/STM32H7xx_HAL_Driver/Src/stm32h7xx_hal_crc.c ****   }
 398              		.loc 1 108 12 view .LVU137
 399 0066 0120     		movs	r0, #1
 172:./Libraries/STM32H7xx_HAL_Driver/Src/stm32h7xx_hal_crc.c **** 
 400              		.loc 1 172 1 view .LVU138
 401 0068 70BD     		pop	{r4, r5, r6, pc}
 402              	.LVL26:
 403              	.L39:
 117:./Libraries/STM32H7xx_HAL_Driver/Src/stm32h7xx_hal_crc.c ****     /* Init the low level hardware */
 404              		.loc 1 117 5 is_stmt 1 view .LVU139
 117:./Libraries/STM32H7xx_HAL_Driver/Src/stm32h7xx_hal_crc.c ****     /* Init the low level hardware */
 405              		.loc 1 117 16 is_stmt 0 view .LVU140
 406 006a 0277     		strb	r2, [r0, #28]
 119:./Libraries/STM32H7xx_HAL_Driver/Src/stm32h7xx_hal_crc.c ****   }
 407              		.loc 1 119 5 is_stmt 1 view .LVU141
 408 006c FFF7FEFF 		bl	HAL_CRC_MspInit
 409              	.LVL27:
 119:./Libraries/STM32H7xx_HAL_Driver/Src/stm32h7xx_hal_crc.c ****   }
 410              		.loc 1 119 5 is_stmt 0 view .LVU142
 411 0070 CEE7     		b	.L29
 412              	.LVL28:
 413              	.L38:
 414              	.LCFI4:
 415              		.cfi_def_cfa_offset 0
 416              		.cfi_restore 4
 417              		.cfi_restore 5
 418              		.cfi_restore 6
 419              		.cfi_restore 14
 108:./Libraries/STM32H7xx_HAL_Driver/Src/stm32h7xx_hal_crc.c ****   }
 420              		.loc 1 108 12 view .LVU143
 421 0072 0120     		movs	r0, #1
 422              	.LVL29:
 172:./Libraries/STM32H7xx_HAL_Driver/Src/stm32h7xx_hal_crc.c **** 
 423              		.loc 1 172 1 view .LVU144
 424 0074 7047     		bx	lr
 425              	.L42:
 426 0076 00BF     		.align	2
 427              	.L41:
 428 0078 B71DC104 		.word	79764919
 429              		.cfi_endproc
 430              	.LFE331:
 432              		.section	.text.HAL_CRC_MspDeInit,"ax",%progbits
 433              		.align	1
 434              		.p2align 2,,3
 435              		.weak	HAL_CRC_MspDeInit
 436              		.syntax unified
 437              		.thumb
 438              		.thumb_func
 439              		.fpu fpv5-d16
 441              	HAL_CRC_MspDeInit:
ARM GAS  /tmp/ccbIg2bp.s 			page 19


 442              	.LFB341:
 443              		.cfi_startproc
 444              		@ args = 0, pretend = 0, frame = 0
 445              		@ frame_needed = 0, uses_anonymous_args = 0
 446              		@ link register save eliminated.
 447 0000 7047     		bx	lr
 448              		.cfi_endproc
 449              	.LFE341:
 451 0002 00BF     		.section	.text.HAL_CRC_DeInit,"ax",%progbits
 452              		.align	1
 453              		.p2align 2,,3
 454              		.global	HAL_CRC_DeInit
 455              		.syntax unified
 456              		.thumb
 457              		.thumb_func
 458              		.fpu fpv5-d16
 460              	HAL_CRC_DeInit:
 461              	.LVL30:
 462              	.LFB332:
 180:./Libraries/STM32H7xx_HAL_Driver/Src/stm32h7xx_hal_crc.c ****   /* Check the CRC handle allocation */
 463              		.loc 1 180 1 is_stmt 1 view -0
 464              		.cfi_startproc
 465              		@ args = 0, pretend = 0, frame = 0
 466              		@ frame_needed = 0, uses_anonymous_args = 0
 182:./Libraries/STM32H7xx_HAL_Driver/Src/stm32h7xx_hal_crc.c ****   {
 467              		.loc 1 182 3 view .LVU146
 180:./Libraries/STM32H7xx_HAL_Driver/Src/stm32h7xx_hal_crc.c ****   /* Check the CRC handle allocation */
 468              		.loc 1 180 1 is_stmt 0 view .LVU147
 469 0000 38B5     		push	{r3, r4, r5, lr}
 470              	.LCFI5:
 471              		.cfi_def_cfa_offset 16
 472              		.cfi_offset 3, -16
 473              		.cfi_offset 4, -12
 474              		.cfi_offset 5, -8
 475              		.cfi_offset 14, -4
 182:./Libraries/STM32H7xx_HAL_Driver/Src/stm32h7xx_hal_crc.c ****   {
 476              		.loc 1 182 6 view .LVU148
 477 0002 A0B1     		cbz	r0, .L46
 191:./Libraries/STM32H7xx_HAL_Driver/Src/stm32h7xx_hal_crc.c ****   {
 478              		.loc 1 191 11 view .LVU149
 479 0004 437F     		ldrb	r3, [r0, #29]	@ zero_extendqisi2
 480 0006 0446     		mov	r4, r0
 188:./Libraries/STM32H7xx_HAL_Driver/Src/stm32h7xx_hal_crc.c **** 
 481              		.loc 1 188 3 is_stmt 1 view .LVU150
 191:./Libraries/STM32H7xx_HAL_Driver/Src/stm32h7xx_hal_crc.c ****   {
 482              		.loc 1 191 3 view .LVU151
 191:./Libraries/STM32H7xx_HAL_Driver/Src/stm32h7xx_hal_crc.c ****   {
 483              		.loc 1 191 6 is_stmt 0 view .LVU152
 484 0008 022B     		cmp	r3, #2
 191:./Libraries/STM32H7xx_HAL_Driver/Src/stm32h7xx_hal_crc.c ****   {
 485              		.loc 1 191 11 view .LVU153
 486 000a DDB2     		uxtb	r5, r3
 191:./Libraries/STM32H7xx_HAL_Driver/Src/stm32h7xx_hal_crc.c ****   {
 487              		.loc 1 191 6 view .LVU154
 488 000c 0DD0     		beq	.L45
 197:./Libraries/STM32H7xx_HAL_Driver/Src/stm32h7xx_hal_crc.c **** 
 489              		.loc 1 197 3 is_stmt 1 view .LVU155
ARM GAS  /tmp/ccbIg2bp.s 			page 20


 200:./Libraries/STM32H7xx_HAL_Driver/Src/stm32h7xx_hal_crc.c **** 
 490              		.loc 1 200 3 is_stmt 0 view .LVU156
 491 000e 0368     		ldr	r3, [r0]
 197:./Libraries/STM32H7xx_HAL_Driver/Src/stm32h7xx_hal_crc.c **** 
 492              		.loc 1 197 15 view .LVU157
 493 0010 0222     		movs	r2, #2
 203:./Libraries/STM32H7xx_HAL_Driver/Src/stm32h7xx_hal_crc.c **** 
 494              		.loc 1 203 3 view .LVU158
 495 0012 0025     		movs	r5, #0
 197:./Libraries/STM32H7xx_HAL_Driver/Src/stm32h7xx_hal_crc.c **** 
 496              		.loc 1 197 15 view .LVU159
 497 0014 4277     		strb	r2, [r0, #29]
 200:./Libraries/STM32H7xx_HAL_Driver/Src/stm32h7xx_hal_crc.c **** 
 498              		.loc 1 200 3 is_stmt 1 view .LVU160
 499 0016 9A68     		ldr	r2, [r3, #8]
 500 0018 42F00102 		orr	r2, r2, #1
 501 001c 9A60     		str	r2, [r3, #8]
 203:./Libraries/STM32H7xx_HAL_Driver/Src/stm32h7xx_hal_crc.c **** 
 502              		.loc 1 203 3 view .LVU161
 503 001e 5A68     		ldr	r2, [r3, #4]
 504 0020 5D60     		str	r5, [r3, #4]
 206:./Libraries/STM32H7xx_HAL_Driver/Src/stm32h7xx_hal_crc.c **** 
 505              		.loc 1 206 3 view .LVU162
 506 0022 FFF7FEFF 		bl	HAL_CRC_MspDeInit
 507              	.LVL31:
 209:./Libraries/STM32H7xx_HAL_Driver/Src/stm32h7xx_hal_crc.c **** 
 508              		.loc 1 209 3 view .LVU163
 209:./Libraries/STM32H7xx_HAL_Driver/Src/stm32h7xx_hal_crc.c **** 
 509              		.loc 1 209 15 is_stmt 0 view .LVU164
 510 0026 6577     		strb	r5, [r4, #29]
 212:./Libraries/STM32H7xx_HAL_Driver/Src/stm32h7xx_hal_crc.c **** 
 511              		.loc 1 212 3 is_stmt 1 view .LVU165
 212:./Libraries/STM32H7xx_HAL_Driver/Src/stm32h7xx_hal_crc.c **** 
 512              		.loc 1 212 3 view .LVU166
 513 0028 2577     		strb	r5, [r4, #28]
 212:./Libraries/STM32H7xx_HAL_Driver/Src/stm32h7xx_hal_crc.c **** 
 514              		.loc 1 212 3 view .LVU167
 215:./Libraries/STM32H7xx_HAL_Driver/Src/stm32h7xx_hal_crc.c **** }
 515              		.loc 1 215 3 view .LVU168
 516              	.L45:
 216:./Libraries/STM32H7xx_HAL_Driver/Src/stm32h7xx_hal_crc.c **** 
 517              		.loc 1 216 1 is_stmt 0 view .LVU169
 518 002a 2846     		mov	r0, r5
 519 002c 38BD     		pop	{r3, r4, r5, pc}
 520              	.LVL32:
 521              	.L46:
 184:./Libraries/STM32H7xx_HAL_Driver/Src/stm32h7xx_hal_crc.c ****   }
 522              		.loc 1 184 12 view .LVU170
 523 002e 0125     		movs	r5, #1
 216:./Libraries/STM32H7xx_HAL_Driver/Src/stm32h7xx_hal_crc.c **** 
 524              		.loc 1 216 1 view .LVU171
 525 0030 2846     		mov	r0, r5
 526              	.LVL33:
 216:./Libraries/STM32H7xx_HAL_Driver/Src/stm32h7xx_hal_crc.c **** 
 527              		.loc 1 216 1 view .LVU172
 528 0032 38BD     		pop	{r3, r4, r5, pc}
 529              		.cfi_endproc
ARM GAS  /tmp/ccbIg2bp.s 			page 21


 530              	.LFE332:
 532              		.section	.text.HAL_CRC_Accumulate,"ax",%progbits
 533              		.align	1
 534              		.p2align 2,,3
 535              		.global	HAL_CRC_Accumulate
 536              		.syntax unified
 537              		.thumb
 538              		.thumb_func
 539              		.fpu fpv5-d16
 541              	HAL_CRC_Accumulate:
 542              	.LVL34:
 543              	.LFB335:
 288:./Libraries/STM32H7xx_HAL_Driver/Src/stm32h7xx_hal_crc.c ****   uint32_t index;      /* CRC input data buffer index */
 544              		.loc 1 288 1 is_stmt 1 view -0
 545              		.cfi_startproc
 546              		@ args = 0, pretend = 0, frame = 0
 547              		@ frame_needed = 0, uses_anonymous_args = 0
 289:./Libraries/STM32H7xx_HAL_Driver/Src/stm32h7xx_hal_crc.c ****   uint32_t temp = 0U;  /* CRC output (read from hcrc->Instance->DR register) */
 548              		.loc 1 289 3 view .LVU174
 290:./Libraries/STM32H7xx_HAL_Driver/Src/stm32h7xx_hal_crc.c **** 
 549              		.loc 1 290 3 view .LVU175
 293:./Libraries/STM32H7xx_HAL_Driver/Src/stm32h7xx_hal_crc.c **** 
 550              		.loc 1 293 3 view .LVU176
 288:./Libraries/STM32H7xx_HAL_Driver/Src/stm32h7xx_hal_crc.c ****   uint32_t index;      /* CRC input data buffer index */
 551              		.loc 1 288 1 is_stmt 0 view .LVU177
 552 0000 F8B5     		push	{r3, r4, r5, r6, r7, lr}
 553              	.LCFI6:
 554              		.cfi_def_cfa_offset 24
 555              		.cfi_offset 3, -24
 556              		.cfi_offset 4, -20
 557              		.cfi_offset 5, -16
 558              		.cfi_offset 6, -12
 559              		.cfi_offset 7, -8
 560              		.cfi_offset 14, -4
 293:./Libraries/STM32H7xx_HAL_Driver/Src/stm32h7xx_hal_crc.c **** 
 561              		.loc 1 293 15 view .LVU178
 562 0002 0227     		movs	r7, #2
 295:./Libraries/STM32H7xx_HAL_Driver/Src/stm32h7xx_hal_crc.c ****   {
 563              		.loc 1 295 15 view .LVU179
 564 0004 066A     		ldr	r6, [r0, #32]
 288:./Libraries/STM32H7xx_HAL_Driver/Src/stm32h7xx_hal_crc.c ****   uint32_t index;      /* CRC input data buffer index */
 565              		.loc 1 288 1 view .LVU180
 566 0006 0446     		mov	r4, r0
 295:./Libraries/STM32H7xx_HAL_Driver/Src/stm32h7xx_hal_crc.c ****   {
 567              		.loc 1 295 3 view .LVU181
 568 0008 BE42     		cmp	r6, r7
 293:./Libraries/STM32H7xx_HAL_Driver/Src/stm32h7xx_hal_crc.c **** 
 569              		.loc 1 293 15 view .LVU182
 570 000a 4777     		strb	r7, [r0, #29]
 295:./Libraries/STM32H7xx_HAL_Driver/Src/stm32h7xx_hal_crc.c ****   {
 571              		.loc 1 295 3 is_stmt 1 view .LVU183
 572 000c 07D0     		beq	.L52
 573 000e 032E     		cmp	r6, #3
 574 0010 0FD0     		beq	.L53
 575 0012 012E     		cmp	r6, #1
 576 0014 08D0     		beq	.L54
 318:./Libraries/STM32H7xx_HAL_Driver/Src/stm32h7xx_hal_crc.c **** 
ARM GAS  /tmp/ccbIg2bp.s 			page 22


 577              		.loc 1 318 15 is_stmt 0 view .LVU184
 578 0016 0123     		movs	r3, #1
 295:./Libraries/STM32H7xx_HAL_Driver/Src/stm32h7xx_hal_crc.c ****   {
 579              		.loc 1 295 3 view .LVU185
 580 0018 0020     		movs	r0, #0
 581              	.LVL35:
 318:./Libraries/STM32H7xx_HAL_Driver/Src/stm32h7xx_hal_crc.c **** 
 582              		.loc 1 318 3 is_stmt 1 view .LVU186
 318:./Libraries/STM32H7xx_HAL_Driver/Src/stm32h7xx_hal_crc.c **** 
 583              		.loc 1 318 15 is_stmt 0 view .LVU187
 584 001a 6377     		strb	r3, [r4, #29]
 321:./Libraries/STM32H7xx_HAL_Driver/Src/stm32h7xx_hal_crc.c **** }
 585              		.loc 1 321 3 is_stmt 1 view .LVU188
 322:./Libraries/STM32H7xx_HAL_Driver/Src/stm32h7xx_hal_crc.c **** 
 586              		.loc 1 322 1 is_stmt 0 view .LVU189
 587 001c F8BD     		pop	{r3, r4, r5, r6, r7, pc}
 588              	.LVL36:
 589              	.L52:
 311:./Libraries/STM32H7xx_HAL_Driver/Src/stm32h7xx_hal_crc.c ****       break;
 590              		.loc 1 311 7 is_stmt 1 view .LVU190
 311:./Libraries/STM32H7xx_HAL_Driver/Src/stm32h7xx_hal_crc.c ****       break;
 591              		.loc 1 311 14 is_stmt 0 view .LVU191
 592 001e FFF7FEFF 		bl	CRC_Handle_16
 593              	.LVL37:
 312:./Libraries/STM32H7xx_HAL_Driver/Src/stm32h7xx_hal_crc.c ****     default:
 594              		.loc 1 312 7 is_stmt 1 view .LVU192
 318:./Libraries/STM32H7xx_HAL_Driver/Src/stm32h7xx_hal_crc.c **** 
 595              		.loc 1 318 3 view .LVU193
 318:./Libraries/STM32H7xx_HAL_Driver/Src/stm32h7xx_hal_crc.c **** 
 596              		.loc 1 318 15 is_stmt 0 view .LVU194
 597 0022 0123     		movs	r3, #1
 598 0024 6377     		strb	r3, [r4, #29]
 321:./Libraries/STM32H7xx_HAL_Driver/Src/stm32h7xx_hal_crc.c **** }
 599              		.loc 1 321 3 is_stmt 1 view .LVU195
 322:./Libraries/STM32H7xx_HAL_Driver/Src/stm32h7xx_hal_crc.c **** 
 600              		.loc 1 322 1 is_stmt 0 view .LVU196
 601 0026 F8BD     		pop	{r3, r4, r5, r6, r7, pc}
 602              	.LVL38:
 603              	.L54:
 307:./Libraries/STM32H7xx_HAL_Driver/Src/stm32h7xx_hal_crc.c ****       break;
 604              		.loc 1 307 7 is_stmt 1 view .LVU197
 307:./Libraries/STM32H7xx_HAL_Driver/Src/stm32h7xx_hal_crc.c ****       break;
 605              		.loc 1 307 14 is_stmt 0 view .LVU198
 606 0028 FFF7FEFF 		bl	CRC_Handle_8
 607              	.LVL39:
 308:./Libraries/STM32H7xx_HAL_Driver/Src/stm32h7xx_hal_crc.c **** 
 608              		.loc 1 308 7 is_stmt 1 view .LVU199
 318:./Libraries/STM32H7xx_HAL_Driver/Src/stm32h7xx_hal_crc.c **** 
 609              		.loc 1 318 3 view .LVU200
 318:./Libraries/STM32H7xx_HAL_Driver/Src/stm32h7xx_hal_crc.c **** 
 610              		.loc 1 318 15 is_stmt 0 view .LVU201
 611 002c 0123     		movs	r3, #1
 612 002e 6377     		strb	r3, [r4, #29]
 321:./Libraries/STM32H7xx_HAL_Driver/Src/stm32h7xx_hal_crc.c **** }
 613              		.loc 1 321 3 is_stmt 1 view .LVU202
 322:./Libraries/STM32H7xx_HAL_Driver/Src/stm32h7xx_hal_crc.c **** 
 614              		.loc 1 322 1 is_stmt 0 view .LVU203
ARM GAS  /tmp/ccbIg2bp.s 			page 23


 615 0030 F8BD     		pop	{r3, r4, r5, r6, r7, pc}
 616              	.LVL40:
 617              	.L53:
 299:./Libraries/STM32H7xx_HAL_Driver/Src/stm32h7xx_hal_crc.c ****       {
 618              		.loc 1 299 24 is_stmt 1 view .LVU204
 299:./Libraries/STM32H7xx_HAL_Driver/Src/stm32h7xx_hal_crc.c ****       {
 619              		.loc 1 299 7 is_stmt 0 view .LVU205
 620 0032 62B1     		cbz	r2, .L56
 621 0034 0439     		subs	r1, r1, #4
 622              	.LVL41:
 301:./Libraries/STM32H7xx_HAL_Driver/Src/stm32h7xx_hal_crc.c ****       }
 623              		.loc 1 301 13 view .LVU206
 624 0036 0068     		ldr	r0, [r0]
 625              	.LVL42:
 301:./Libraries/STM32H7xx_HAL_Driver/Src/stm32h7xx_hal_crc.c ****       }
 626              		.loc 1 301 13 view .LVU207
 627 0038 01EB8202 		add	r2, r1, r2, lsl #2
 628              	.LVL43:
 629              	.L57:
 301:./Libraries/STM32H7xx_HAL_Driver/Src/stm32h7xx_hal_crc.c ****       }
 630              		.loc 1 301 9 is_stmt 1 discriminator 3 view .LVU208
 301:./Libraries/STM32H7xx_HAL_Driver/Src/stm32h7xx_hal_crc.c ****       }
 631              		.loc 1 301 37 is_stmt 0 discriminator 3 view .LVU209
 632 003c 51F8043F 		ldr	r3, [r1, #4]!
 299:./Libraries/STM32H7xx_HAL_Driver/Src/stm32h7xx_hal_crc.c ****       {
 633              		.loc 1 299 7 discriminator 3 view .LVU210
 634 0040 9142     		cmp	r1, r2
 301:./Libraries/STM32H7xx_HAL_Driver/Src/stm32h7xx_hal_crc.c ****       }
 635              		.loc 1 301 28 discriminator 3 view .LVU211
 636 0042 0360     		str	r3, [r0]
 299:./Libraries/STM32H7xx_HAL_Driver/Src/stm32h7xx_hal_crc.c ****       {
 637              		.loc 1 299 46 is_stmt 1 discriminator 3 view .LVU212
 299:./Libraries/STM32H7xx_HAL_Driver/Src/stm32h7xx_hal_crc.c ****       {
 638              		.loc 1 299 24 discriminator 3 view .LVU213
 299:./Libraries/STM32H7xx_HAL_Driver/Src/stm32h7xx_hal_crc.c ****       {
 639              		.loc 1 299 7 is_stmt 0 discriminator 3 view .LVU214
 640 0044 FAD1     		bne	.L57
 641              	.L58:
 303:./Libraries/STM32H7xx_HAL_Driver/Src/stm32h7xx_hal_crc.c ****       break;
 642              		.loc 1 303 7 is_stmt 1 view .LVU215
 318:./Libraries/STM32H7xx_HAL_Driver/Src/stm32h7xx_hal_crc.c **** 
 643              		.loc 1 318 15 is_stmt 0 view .LVU216
 644 0046 0123     		movs	r3, #1
 303:./Libraries/STM32H7xx_HAL_Driver/Src/stm32h7xx_hal_crc.c ****       break;
 645              		.loc 1 303 12 view .LVU217
 646 0048 0068     		ldr	r0, [r0]
 647              	.LVL44:
 304:./Libraries/STM32H7xx_HAL_Driver/Src/stm32h7xx_hal_crc.c **** 
 648              		.loc 1 304 7 is_stmt 1 view .LVU218
 318:./Libraries/STM32H7xx_HAL_Driver/Src/stm32h7xx_hal_crc.c **** 
 649              		.loc 1 318 3 view .LVU219
 318:./Libraries/STM32H7xx_HAL_Driver/Src/stm32h7xx_hal_crc.c **** 
 650              		.loc 1 318 15 is_stmt 0 view .LVU220
 651 004a 6377     		strb	r3, [r4, #29]
 321:./Libraries/STM32H7xx_HAL_Driver/Src/stm32h7xx_hal_crc.c **** }
 652              		.loc 1 321 3 is_stmt 1 view .LVU221
 322:./Libraries/STM32H7xx_HAL_Driver/Src/stm32h7xx_hal_crc.c **** 
ARM GAS  /tmp/ccbIg2bp.s 			page 24


 653              		.loc 1 322 1 is_stmt 0 view .LVU222
 654 004c F8BD     		pop	{r3, r4, r5, r6, r7, pc}
 655              	.LVL45:
 656              	.L56:
 322:./Libraries/STM32H7xx_HAL_Driver/Src/stm32h7xx_hal_crc.c **** 
 657              		.loc 1 322 1 view .LVU223
 658 004e 0068     		ldr	r0, [r0]
 659              	.LVL46:
 322:./Libraries/STM32H7xx_HAL_Driver/Src/stm32h7xx_hal_crc.c **** 
 660              		.loc 1 322 1 view .LVU224
 661 0050 F9E7     		b	.L58
 662              		.cfi_endproc
 663              	.LFE335:
 665 0052 00BF     		.section	.text.HAL_CRC_Calculate,"ax",%progbits
 666              		.align	1
 667              		.p2align 2,,3
 668              		.global	HAL_CRC_Calculate
 669              		.syntax unified
 670              		.thumb
 671              		.thumb_func
 672              		.fpu fpv5-d16
 674              	HAL_CRC_Calculate:
 675              	.LVL47:
 676              	.LFB336:
 340:./Libraries/STM32H7xx_HAL_Driver/Src/stm32h7xx_hal_crc.c ****   uint32_t index;      /* CRC input data buffer index */
 677              		.loc 1 340 1 is_stmt 1 view -0
 678              		.cfi_startproc
 679              		@ args = 0, pretend = 0, frame = 0
 680              		@ frame_needed = 0, uses_anonymous_args = 0
 341:./Libraries/STM32H7xx_HAL_Driver/Src/stm32h7xx_hal_crc.c ****   uint32_t temp = 0U;  /* CRC output (read from hcrc->Instance->DR register) */
 681              		.loc 1 341 3 view .LVU226
 342:./Libraries/STM32H7xx_HAL_Driver/Src/stm32h7xx_hal_crc.c **** 
 682              		.loc 1 342 3 view .LVU227
 345:./Libraries/STM32H7xx_HAL_Driver/Src/stm32h7xx_hal_crc.c **** 
 683              		.loc 1 345 3 view .LVU228
 340:./Libraries/STM32H7xx_HAL_Driver/Src/stm32h7xx_hal_crc.c ****   uint32_t index;      /* CRC input data buffer index */
 684              		.loc 1 340 1 is_stmt 0 view .LVU229
 685 0000 F8B5     		push	{r3, r4, r5, r6, r7, lr}
 686              	.LCFI7:
 687              		.cfi_def_cfa_offset 24
 688              		.cfi_offset 3, -24
 689              		.cfi_offset 4, -20
 690              		.cfi_offset 5, -16
 691              		.cfi_offset 6, -12
 692              		.cfi_offset 7, -8
 693              		.cfi_offset 14, -4
 345:./Libraries/STM32H7xx_HAL_Driver/Src/stm32h7xx_hal_crc.c **** 
 694              		.loc 1 345 15 view .LVU230
 695 0002 0227     		movs	r7, #2
 349:./Libraries/STM32H7xx_HAL_Driver/Src/stm32h7xx_hal_crc.c **** 
 696              		.loc 1 349 3 view .LVU231
 697 0004 0668     		ldr	r6, [r0]
 340:./Libraries/STM32H7xx_HAL_Driver/Src/stm32h7xx_hal_crc.c ****   uint32_t index;      /* CRC input data buffer index */
 698              		.loc 1 340 1 view .LVU232
 699 0006 0446     		mov	r4, r0
 345:./Libraries/STM32H7xx_HAL_Driver/Src/stm32h7xx_hal_crc.c **** 
 700              		.loc 1 345 15 view .LVU233
ARM GAS  /tmp/ccbIg2bp.s 			page 25


 701 0008 4777     		strb	r7, [r0, #29]
 349:./Libraries/STM32H7xx_HAL_Driver/Src/stm32h7xx_hal_crc.c **** 
 702              		.loc 1 349 3 is_stmt 1 view .LVU234
 351:./Libraries/STM32H7xx_HAL_Driver/Src/stm32h7xx_hal_crc.c ****   {
 703              		.loc 1 351 15 is_stmt 0 view .LVU235
 704 000a 076A     		ldr	r7, [r0, #32]
 349:./Libraries/STM32H7xx_HAL_Driver/Src/stm32h7xx_hal_crc.c **** 
 705              		.loc 1 349 3 view .LVU236
 706 000c D6F808C0 		ldr	ip, [r6, #8]
 351:./Libraries/STM32H7xx_HAL_Driver/Src/stm32h7xx_hal_crc.c ****   {
 707              		.loc 1 351 3 view .LVU237
 708 0010 022F     		cmp	r7, #2
 349:./Libraries/STM32H7xx_HAL_Driver/Src/stm32h7xx_hal_crc.c **** 
 709              		.loc 1 349 3 view .LVU238
 710 0012 4CF0010C 		orr	ip, ip, #1
 711 0016 C6F808C0 		str	ip, [r6, #8]
 351:./Libraries/STM32H7xx_HAL_Driver/Src/stm32h7xx_hal_crc.c ****   {
 712              		.loc 1 351 3 is_stmt 1 view .LVU239
 713 001a 07D0     		beq	.L62
 714 001c 032F     		cmp	r7, #3
 715 001e 0FD0     		beq	.L63
 716 0020 012F     		cmp	r7, #1
 717 0022 08D0     		beq	.L64
 377:./Libraries/STM32H7xx_HAL_Driver/Src/stm32h7xx_hal_crc.c **** 
 718              		.loc 1 377 15 is_stmt 0 view .LVU240
 719 0024 0123     		movs	r3, #1
 351:./Libraries/STM32H7xx_HAL_Driver/Src/stm32h7xx_hal_crc.c ****   {
 720              		.loc 1 351 3 view .LVU241
 721 0026 0020     		movs	r0, #0
 722              	.LVL48:
 377:./Libraries/STM32H7xx_HAL_Driver/Src/stm32h7xx_hal_crc.c **** 
 723              		.loc 1 377 3 is_stmt 1 view .LVU242
 377:./Libraries/STM32H7xx_HAL_Driver/Src/stm32h7xx_hal_crc.c **** 
 724              		.loc 1 377 15 is_stmt 0 view .LVU243
 725 0028 6377     		strb	r3, [r4, #29]
 380:./Libraries/STM32H7xx_HAL_Driver/Src/stm32h7xx_hal_crc.c **** }
 726              		.loc 1 380 3 is_stmt 1 view .LVU244
 381:./Libraries/STM32H7xx_HAL_Driver/Src/stm32h7xx_hal_crc.c **** 
 727              		.loc 1 381 1 is_stmt 0 view .LVU245
 728 002a F8BD     		pop	{r3, r4, r5, r6, r7, pc}
 729              	.LVL49:
 730              	.L62:
 369:./Libraries/STM32H7xx_HAL_Driver/Src/stm32h7xx_hal_crc.c ****       break;
 731              		.loc 1 369 7 is_stmt 1 view .LVU246
 369:./Libraries/STM32H7xx_HAL_Driver/Src/stm32h7xx_hal_crc.c ****       break;
 732              		.loc 1 369 14 is_stmt 0 view .LVU247
 733 002c FFF7FEFF 		bl	CRC_Handle_16
 734              	.LVL50:
 370:./Libraries/STM32H7xx_HAL_Driver/Src/stm32h7xx_hal_crc.c **** 
 735              		.loc 1 370 7 is_stmt 1 view .LVU248
 377:./Libraries/STM32H7xx_HAL_Driver/Src/stm32h7xx_hal_crc.c **** 
 736              		.loc 1 377 3 view .LVU249
 377:./Libraries/STM32H7xx_HAL_Driver/Src/stm32h7xx_hal_crc.c **** 
 737              		.loc 1 377 15 is_stmt 0 view .LVU250
 738 0030 0123     		movs	r3, #1
 739 0032 6377     		strb	r3, [r4, #29]
 380:./Libraries/STM32H7xx_HAL_Driver/Src/stm32h7xx_hal_crc.c **** }
ARM GAS  /tmp/ccbIg2bp.s 			page 26


 740              		.loc 1 380 3 is_stmt 1 view .LVU251
 381:./Libraries/STM32H7xx_HAL_Driver/Src/stm32h7xx_hal_crc.c **** 
 741              		.loc 1 381 1 is_stmt 0 view .LVU252
 742 0034 F8BD     		pop	{r3, r4, r5, r6, r7, pc}
 743              	.LVL51:
 744              	.L64:
 364:./Libraries/STM32H7xx_HAL_Driver/Src/stm32h7xx_hal_crc.c ****       break;
 745              		.loc 1 364 7 is_stmt 1 view .LVU253
 364:./Libraries/STM32H7xx_HAL_Driver/Src/stm32h7xx_hal_crc.c ****       break;
 746              		.loc 1 364 14 is_stmt 0 view .LVU254
 747 0036 FFF7FEFF 		bl	CRC_Handle_8
 748              	.LVL52:
 365:./Libraries/STM32H7xx_HAL_Driver/Src/stm32h7xx_hal_crc.c **** 
 749              		.loc 1 365 7 is_stmt 1 view .LVU255
 377:./Libraries/STM32H7xx_HAL_Driver/Src/stm32h7xx_hal_crc.c **** 
 750              		.loc 1 377 3 view .LVU256
 377:./Libraries/STM32H7xx_HAL_Driver/Src/stm32h7xx_hal_crc.c **** 
 751              		.loc 1 377 15 is_stmt 0 view .LVU257
 752 003a 0123     		movs	r3, #1
 753 003c 6377     		strb	r3, [r4, #29]
 380:./Libraries/STM32H7xx_HAL_Driver/Src/stm32h7xx_hal_crc.c **** }
 754              		.loc 1 380 3 is_stmt 1 view .LVU258
 381:./Libraries/STM32H7xx_HAL_Driver/Src/stm32h7xx_hal_crc.c **** 
 755              		.loc 1 381 1 is_stmt 0 view .LVU259
 756 003e F8BD     		pop	{r3, r4, r5, r6, r7, pc}
 757              	.LVL53:
 758              	.L63:
 355:./Libraries/STM32H7xx_HAL_Driver/Src/stm32h7xx_hal_crc.c ****       {
 759              		.loc 1 355 24 is_stmt 1 view .LVU260
 355:./Libraries/STM32H7xx_HAL_Driver/Src/stm32h7xx_hal_crc.c ****       {
 760              		.loc 1 355 7 is_stmt 0 view .LVU261
 761 0040 3AB1     		cbz	r2, .L66
 762 0042 0439     		subs	r1, r1, #4
 763              	.LVL54:
 355:./Libraries/STM32H7xx_HAL_Driver/Src/stm32h7xx_hal_crc.c ****       {
 764              		.loc 1 355 7 view .LVU262
 765 0044 01EB8202 		add	r2, r1, r2, lsl #2
 766              	.LVL55:
 767              	.L67:
 357:./Libraries/STM32H7xx_HAL_Driver/Src/stm32h7xx_hal_crc.c ****       }
 768              		.loc 1 357 9 is_stmt 1 discriminator 3 view .LVU263
 357:./Libraries/STM32H7xx_HAL_Driver/Src/stm32h7xx_hal_crc.c ****       }
 769              		.loc 1 357 37 is_stmt 0 discriminator 3 view .LVU264
 770 0048 51F8043F 		ldr	r3, [r1, #4]!
 355:./Libraries/STM32H7xx_HAL_Driver/Src/stm32h7xx_hal_crc.c ****       {
 771              		.loc 1 355 7 discriminator 3 view .LVU265
 772 004c 9142     		cmp	r1, r2
 357:./Libraries/STM32H7xx_HAL_Driver/Src/stm32h7xx_hal_crc.c ****       }
 773              		.loc 1 357 28 discriminator 3 view .LVU266
 774 004e 3360     		str	r3, [r6]
 355:./Libraries/STM32H7xx_HAL_Driver/Src/stm32h7xx_hal_crc.c ****       {
 775              		.loc 1 355 46 is_stmt 1 discriminator 3 view .LVU267
 355:./Libraries/STM32H7xx_HAL_Driver/Src/stm32h7xx_hal_crc.c ****       {
 776              		.loc 1 355 24 discriminator 3 view .LVU268
 355:./Libraries/STM32H7xx_HAL_Driver/Src/stm32h7xx_hal_crc.c ****       {
 777              		.loc 1 355 7 is_stmt 0 discriminator 3 view .LVU269
 778 0050 FAD1     		bne	.L67
ARM GAS  /tmp/ccbIg2bp.s 			page 27


 779              	.L66:
 359:./Libraries/STM32H7xx_HAL_Driver/Src/stm32h7xx_hal_crc.c ****       break;
 780              		.loc 1 359 7 is_stmt 1 view .LVU270
 377:./Libraries/STM32H7xx_HAL_Driver/Src/stm32h7xx_hal_crc.c **** 
 781              		.loc 1 377 15 is_stmt 0 view .LVU271
 782 0052 0123     		movs	r3, #1
 359:./Libraries/STM32H7xx_HAL_Driver/Src/stm32h7xx_hal_crc.c ****       break;
 783              		.loc 1 359 12 view .LVU272
 784 0054 3068     		ldr	r0, [r6]
 785              	.LVL56:
 360:./Libraries/STM32H7xx_HAL_Driver/Src/stm32h7xx_hal_crc.c **** 
 786              		.loc 1 360 7 is_stmt 1 view .LVU273
 377:./Libraries/STM32H7xx_HAL_Driver/Src/stm32h7xx_hal_crc.c **** 
 787              		.loc 1 377 3 view .LVU274
 377:./Libraries/STM32H7xx_HAL_Driver/Src/stm32h7xx_hal_crc.c **** 
 788              		.loc 1 377 15 is_stmt 0 view .LVU275
 789 0056 6377     		strb	r3, [r4, #29]
 380:./Libraries/STM32H7xx_HAL_Driver/Src/stm32h7xx_hal_crc.c **** }
 790              		.loc 1 380 3 is_stmt 1 view .LVU276
 381:./Libraries/STM32H7xx_HAL_Driver/Src/stm32h7xx_hal_crc.c **** 
 791              		.loc 1 381 1 is_stmt 0 view .LVU277
 792 0058 F8BD     		pop	{r3, r4, r5, r6, r7, pc}
 381:./Libraries/STM32H7xx_HAL_Driver/Src/stm32h7xx_hal_crc.c **** 
 793              		.loc 1 381 1 view .LVU278
 794              		.cfi_endproc
 795              	.LFE336:
 797 005a 00BF     		.section	.text.HAL_CRC_GetState,"ax",%progbits
 798              		.align	1
 799              		.p2align 2,,3
 800              		.global	HAL_CRC_GetState
 801              		.syntax unified
 802              		.thumb
 803              		.thumb_func
 804              		.fpu fpv5-d16
 806              	HAL_CRC_GetState:
 807              	.LVL57:
 808              	.LFB337:
 407:./Libraries/STM32H7xx_HAL_Driver/Src/stm32h7xx_hal_crc.c ****   /* Return CRC handle state */
 809              		.loc 1 407 1 is_stmt 1 view -0
 810              		.cfi_startproc
 811              		@ args = 0, pretend = 0, frame = 0
 812              		@ frame_needed = 0, uses_anonymous_args = 0
 813              		@ link register save eliminated.
 409:./Libraries/STM32H7xx_HAL_Driver/Src/stm32h7xx_hal_crc.c **** }
 814              		.loc 1 409 3 view .LVU280
 409:./Libraries/STM32H7xx_HAL_Driver/Src/stm32h7xx_hal_crc.c **** }
 815              		.loc 1 409 14 is_stmt 0 view .LVU281
 816 0000 407F     		ldrb	r0, [r0, #29]	@ zero_extendqisi2
 817              	.LVL58:
 410:./Libraries/STM32H7xx_HAL_Driver/Src/stm32h7xx_hal_crc.c **** 
 818              		.loc 1 410 1 view .LVU282
 819 0002 7047     		bx	lr
 820              		.cfi_endproc
 821              	.LFE337:
 823              		.text
 824              	.Letext0:
 825              		.file 2 "/usr/lib/gcc/arm-none-eabi/9.2.1/include/stdint.h"
ARM GAS  /tmp/ccbIg2bp.s 			page 28


 826              		.file 3 "./Libraries/CMSIS/Core/Include/core_cm7.h"
 827              		.file 4 "./Libraries/CMSIS/Device/ST/STM32H7xx/Include/system_stm32h7xx.h"
 828              		.file 5 "./Libraries/CMSIS/Device/ST/STM32H7xx/Include/stm32h747xx.h"
 829              		.file 6 "/usr/lib/gcc/arm-none-eabi/9.2.1/include/stddef.h"
 830              		.file 7 "/usr/include/newlib/sys/_types.h"
 831              		.file 8 "/usr/include/newlib/sys/reent.h"
 832              		.file 9 "/usr/include/newlib/sys/lock.h"
 833              		.file 10 "/usr/include/newlib/math.h"
 834              		.file 11 "./Libraries/STM32H7xx_HAL_Driver/Inc/stm32h7xx_hal_def.h"
 835              		.file 12 "./Libraries/STM32H7xx_HAL_Driver/Inc/stm32h7xx_hal_crc.h"
 836              		.file 13 "./Libraries/STM32H7xx_HAL_Driver/Inc/stm32h7xx_hal_flash.h"
 837              		.file 14 "./Libraries/STM32H7xx_HAL_Driver/Inc/stm32h7xx_hal_uart.h"
 838              		.file 15 "./Libraries/STM32H7xx_HAL_Driver/Inc/stm32h7xx_hal.h"
 839              		.file 16 "./Libraries/STM32H7xx_HAL_Driver/Inc/stm32h7xx_hal_crc_ex.h"
ARM GAS  /tmp/ccbIg2bp.s 			page 29

