ARM GAS  /tmp/ccwjY1CM.s 			page 1


   1              		.cpu cortex-m7
   2              		.eabi_attribute 28, 1
   3              		.eabi_attribute 20, 1
   4              		.eabi_attribute 21, 1
   5              		.eabi_attribute 23, 3
   6              		.eabi_attribute 24, 1
   7              		.eabi_attribute 25, 1
   8              		.eabi_attribute 26, 1
   9              		.eabi_attribute 30, 6
  10              		.eabi_attribute 34, 1
  11              		.eabi_attribute 18, 4
  12              		.file	"stm32h7xx_hal_spi.c"
  13              		.text
  14              	.Ltext0:
  15              		.cfi_sections	.debug_frame
  16              		.section	.text.HAL_SPI_Init,"ax",%progbits
  17              		.align	1
  18              		.global	HAL_SPI_Init
  19              		.arch armv7e-m
  20              		.syntax unified
  21              		.thumb
  22              		.thumb_func
  23              		.fpu fpv5-d16
  25              	HAL_SPI_Init:
  26              	.LFB331:
  27              		.file 1 "./Libraries/STM32H7xx_HAL_Driver/Src/stm32h7xx_hal_spi.c"
   1:./Libraries/STM32H7xx_HAL_Driver/Src/stm32h7xx_hal_spi.c **** /**
   2:./Libraries/STM32H7xx_HAL_Driver/Src/stm32h7xx_hal_spi.c ****   ******************************************************************************
   3:./Libraries/STM32H7xx_HAL_Driver/Src/stm32h7xx_hal_spi.c ****   * @file    stm32h7xx_hal_spi.c
   4:./Libraries/STM32H7xx_HAL_Driver/Src/stm32h7xx_hal_spi.c ****   * @author  MCD Application Team
   5:./Libraries/STM32H7xx_HAL_Driver/Src/stm32h7xx_hal_spi.c ****   * @brief   SPI HAL module driver.
   6:./Libraries/STM32H7xx_HAL_Driver/Src/stm32h7xx_hal_spi.c ****   *          This file provides firmware functions to manage the following
   7:./Libraries/STM32H7xx_HAL_Driver/Src/stm32h7xx_hal_spi.c ****   *          functionalities of the Serial Peripheral Interface (SPI) peripheral:
   8:./Libraries/STM32H7xx_HAL_Driver/Src/stm32h7xx_hal_spi.c ****   *           + Initialization and de-initialization functions
   9:./Libraries/STM32H7xx_HAL_Driver/Src/stm32h7xx_hal_spi.c ****   *           + IO operation functions
  10:./Libraries/STM32H7xx_HAL_Driver/Src/stm32h7xx_hal_spi.c ****   *           + Peripheral Control functions
  11:./Libraries/STM32H7xx_HAL_Driver/Src/stm32h7xx_hal_spi.c ****   *           + Peripheral State functions
  12:./Libraries/STM32H7xx_HAL_Driver/Src/stm32h7xx_hal_spi.c ****   *
  13:./Libraries/STM32H7xx_HAL_Driver/Src/stm32h7xx_hal_spi.c ****   @verbatim
  14:./Libraries/STM32H7xx_HAL_Driver/Src/stm32h7xx_hal_spi.c ****   ==============================================================================
  15:./Libraries/STM32H7xx_HAL_Driver/Src/stm32h7xx_hal_spi.c ****                         ##### How to use this driver #####
  16:./Libraries/STM32H7xx_HAL_Driver/Src/stm32h7xx_hal_spi.c ****   ==============================================================================
  17:./Libraries/STM32H7xx_HAL_Driver/Src/stm32h7xx_hal_spi.c ****     [..]
  18:./Libraries/STM32H7xx_HAL_Driver/Src/stm32h7xx_hal_spi.c ****       The SPI HAL driver can be used as follows:
  19:./Libraries/STM32H7xx_HAL_Driver/Src/stm32h7xx_hal_spi.c **** 
  20:./Libraries/STM32H7xx_HAL_Driver/Src/stm32h7xx_hal_spi.c ****       (#) Declare a SPI_HandleTypeDef handle structure, for example:
  21:./Libraries/STM32H7xx_HAL_Driver/Src/stm32h7xx_hal_spi.c ****           SPI_HandleTypeDef  hspi;
  22:./Libraries/STM32H7xx_HAL_Driver/Src/stm32h7xx_hal_spi.c **** 
  23:./Libraries/STM32H7xx_HAL_Driver/Src/stm32h7xx_hal_spi.c ****       (#)Initialize the SPI low level resources by implementing the HAL_SPI_MspInit() API:
  24:./Libraries/STM32H7xx_HAL_Driver/Src/stm32h7xx_hal_spi.c ****           (##) Enable the SPIx interface clock
  25:./Libraries/STM32H7xx_HAL_Driver/Src/stm32h7xx_hal_spi.c ****           (##) SPI pins configuration
  26:./Libraries/STM32H7xx_HAL_Driver/Src/stm32h7xx_hal_spi.c ****               (+++) Enable the clock for the SPI GPIOs
  27:./Libraries/STM32H7xx_HAL_Driver/Src/stm32h7xx_hal_spi.c ****               (+++) Configure these SPI pins as alternate function push-pull
  28:./Libraries/STM32H7xx_HAL_Driver/Src/stm32h7xx_hal_spi.c ****           (##) NVIC configuration if you need to use interrupt process or DMA process
  29:./Libraries/STM32H7xx_HAL_Driver/Src/stm32h7xx_hal_spi.c ****               (+++) Configure the SPIx interrupt priority
  30:./Libraries/STM32H7xx_HAL_Driver/Src/stm32h7xx_hal_spi.c ****               (+++) Enable the NVIC SPI IRQ handle
  31:./Libraries/STM32H7xx_HAL_Driver/Src/stm32h7xx_hal_spi.c ****           (##) DMA Configuration if you need to use DMA process
ARM GAS  /tmp/ccwjY1CM.s 			page 2


  32:./Libraries/STM32H7xx_HAL_Driver/Src/stm32h7xx_hal_spi.c ****               (+++) Declare a DMA_HandleTypeDef handle structure for the transmit or receive Stream
  33:./Libraries/STM32H7xx_HAL_Driver/Src/stm32h7xx_hal_spi.c ****               (+++) Enable the DMAx clock
  34:./Libraries/STM32H7xx_HAL_Driver/Src/stm32h7xx_hal_spi.c ****               (+++) Configure the DMA handle parameters
  35:./Libraries/STM32H7xx_HAL_Driver/Src/stm32h7xx_hal_spi.c ****               (+++) Configure the DMA Tx or Rx Stream/Channel
  36:./Libraries/STM32H7xx_HAL_Driver/Src/stm32h7xx_hal_spi.c ****               (+++) Associate the initialized hdma_tx handle to the hspi DMA Tx or Rx handle
  37:./Libraries/STM32H7xx_HAL_Driver/Src/stm32h7xx_hal_spi.c ****               (+++) Configure the priority and enable the NVIC for the transfer complete interrupt 
  38:./Libraries/STM32H7xx_HAL_Driver/Src/stm32h7xx_hal_spi.c **** 
  39:./Libraries/STM32H7xx_HAL_Driver/Src/stm32h7xx_hal_spi.c ****       (#) Program the Mode, BidirectionalMode , Data size, Baudrate Prescaler, NSS
  40:./Libraries/STM32H7xx_HAL_Driver/Src/stm32h7xx_hal_spi.c ****           management, Clock polarity and phase, FirstBit and CRC configuration in the hspi Init str
  41:./Libraries/STM32H7xx_HAL_Driver/Src/stm32h7xx_hal_spi.c **** 
  42:./Libraries/STM32H7xx_HAL_Driver/Src/stm32h7xx_hal_spi.c ****       (#) Initialize the SPI registers by calling the HAL_SPI_Init() API:
  43:./Libraries/STM32H7xx_HAL_Driver/Src/stm32h7xx_hal_spi.c ****           (++) This API configures also the low level Hardware GPIO, CLOCK, CORTEX...etc)
  44:./Libraries/STM32H7xx_HAL_Driver/Src/stm32h7xx_hal_spi.c ****               by calling the customized HAL_SPI_MspInit() API.
  45:./Libraries/STM32H7xx_HAL_Driver/Src/stm32h7xx_hal_spi.c ****      [..]
  46:./Libraries/STM32H7xx_HAL_Driver/Src/stm32h7xx_hal_spi.c ****        Callback registration:
  47:./Libraries/STM32H7xx_HAL_Driver/Src/stm32h7xx_hal_spi.c **** 
  48:./Libraries/STM32H7xx_HAL_Driver/Src/stm32h7xx_hal_spi.c ****       (#) The compilation flag USE_HAL_SPI_REGISTER_CALLBACKS when set to 1UL
  49:./Libraries/STM32H7xx_HAL_Driver/Src/stm32h7xx_hal_spi.c ****           allows the user to configure dynamically the driver callbacks.
  50:./Libraries/STM32H7xx_HAL_Driver/Src/stm32h7xx_hal_spi.c ****           Use Functions HAL_SPI_RegisterCallback() to register an interrupt callback.
  51:./Libraries/STM32H7xx_HAL_Driver/Src/stm32h7xx_hal_spi.c **** 
  52:./Libraries/STM32H7xx_HAL_Driver/Src/stm32h7xx_hal_spi.c ****           Function HAL_SPI_RegisterCallback() allows to register following callbacks:
  53:./Libraries/STM32H7xx_HAL_Driver/Src/stm32h7xx_hal_spi.c ****             (+) TxCpltCallback        : SPI Tx Completed callback
  54:./Libraries/STM32H7xx_HAL_Driver/Src/stm32h7xx_hal_spi.c ****             (+) RxCpltCallback        : SPI Rx Completed callback
  55:./Libraries/STM32H7xx_HAL_Driver/Src/stm32h7xx_hal_spi.c ****             (+) TxRxCpltCallback      : SPI TxRx Completed callback
  56:./Libraries/STM32H7xx_HAL_Driver/Src/stm32h7xx_hal_spi.c ****             (+) TxHalfCpltCallback    : SPI Tx Half Completed callback
  57:./Libraries/STM32H7xx_HAL_Driver/Src/stm32h7xx_hal_spi.c ****             (+) RxHalfCpltCallback    : SPI Rx Half Completed callback
  58:./Libraries/STM32H7xx_HAL_Driver/Src/stm32h7xx_hal_spi.c ****             (+) TxRxHalfCpltCallback  : SPI TxRx Half Completed callback
  59:./Libraries/STM32H7xx_HAL_Driver/Src/stm32h7xx_hal_spi.c ****             (+) ErrorCallback         : SPI Error callback
  60:./Libraries/STM32H7xx_HAL_Driver/Src/stm32h7xx_hal_spi.c ****             (+) AbortCpltCallback     : SPI Abort callback
  61:./Libraries/STM32H7xx_HAL_Driver/Src/stm32h7xx_hal_spi.c ****             (+) MspInitCallback       : SPI Msp Init callback
  62:./Libraries/STM32H7xx_HAL_Driver/Src/stm32h7xx_hal_spi.c ****             (+) MspDeInitCallback     : SPI Msp DeInit callback
  63:./Libraries/STM32H7xx_HAL_Driver/Src/stm32h7xx_hal_spi.c ****           This function takes as parameters the HAL peripheral handle, the Callback ID
  64:./Libraries/STM32H7xx_HAL_Driver/Src/stm32h7xx_hal_spi.c ****           and a pointer to the user callback function.
  65:./Libraries/STM32H7xx_HAL_Driver/Src/stm32h7xx_hal_spi.c **** 
  66:./Libraries/STM32H7xx_HAL_Driver/Src/stm32h7xx_hal_spi.c **** 
  67:./Libraries/STM32H7xx_HAL_Driver/Src/stm32h7xx_hal_spi.c ****       (#) Use function HAL_SPI_UnRegisterCallback to reset a callback to the default
  68:./Libraries/STM32H7xx_HAL_Driver/Src/stm32h7xx_hal_spi.c ****           weak function.
  69:./Libraries/STM32H7xx_HAL_Driver/Src/stm32h7xx_hal_spi.c ****           HAL_SPI_UnRegisterCallback takes as parameters the HAL peripheral handle,
  70:./Libraries/STM32H7xx_HAL_Driver/Src/stm32h7xx_hal_spi.c ****           and the Callback ID.
  71:./Libraries/STM32H7xx_HAL_Driver/Src/stm32h7xx_hal_spi.c ****           This function allows to reset following callbacks:
  72:./Libraries/STM32H7xx_HAL_Driver/Src/stm32h7xx_hal_spi.c ****             (+) TxCpltCallback        : SPI Tx Completed callback
  73:./Libraries/STM32H7xx_HAL_Driver/Src/stm32h7xx_hal_spi.c ****             (+) RxCpltCallback        : SPI Rx Completed callback
  74:./Libraries/STM32H7xx_HAL_Driver/Src/stm32h7xx_hal_spi.c ****             (+) TxRxCpltCallback      : SPI TxRx Completed callback
  75:./Libraries/STM32H7xx_HAL_Driver/Src/stm32h7xx_hal_spi.c ****             (+) TxHalfCpltCallback    : SPI Tx Half Completed callback
  76:./Libraries/STM32H7xx_HAL_Driver/Src/stm32h7xx_hal_spi.c ****             (+) RxHalfCpltCallback    : SPI Rx Half Completed callback
  77:./Libraries/STM32H7xx_HAL_Driver/Src/stm32h7xx_hal_spi.c ****             (+) TxRxHalfCpltCallback  : SPI TxRx Half Completed callback
  78:./Libraries/STM32H7xx_HAL_Driver/Src/stm32h7xx_hal_spi.c ****             (+) ErrorCallback         : SPI Error callback
  79:./Libraries/STM32H7xx_HAL_Driver/Src/stm32h7xx_hal_spi.c ****             (+) AbortCpltCallback     : SPI Abort callback
  80:./Libraries/STM32H7xx_HAL_Driver/Src/stm32h7xx_hal_spi.c ****             (+) MspInitCallback       : SPI Msp Init callback
  81:./Libraries/STM32H7xx_HAL_Driver/Src/stm32h7xx_hal_spi.c ****             (+) MspDeInitCallback     : SPI Msp DeInit callback
  82:./Libraries/STM32H7xx_HAL_Driver/Src/stm32h7xx_hal_spi.c **** 
  83:./Libraries/STM32H7xx_HAL_Driver/Src/stm32h7xx_hal_spi.c ****        By default, after the HAL_SPI_Init() and when the state is HAL_SPI_STATE_RESET
  84:./Libraries/STM32H7xx_HAL_Driver/Src/stm32h7xx_hal_spi.c ****        all callbacks are set to the corresponding weak functions:
  85:./Libraries/STM32H7xx_HAL_Driver/Src/stm32h7xx_hal_spi.c ****        examples HAL_SPI_MasterTxCpltCallback(), HAL_SPI_MasterRxCpltCallback().
  86:./Libraries/STM32H7xx_HAL_Driver/Src/stm32h7xx_hal_spi.c ****        Exception done for MspInit and MspDeInit functions that are
  87:./Libraries/STM32H7xx_HAL_Driver/Src/stm32h7xx_hal_spi.c ****        reset to the legacy weak functions in the HAL_SPI_Init()/ HAL_SPI_DeInit() only when
  88:./Libraries/STM32H7xx_HAL_Driver/Src/stm32h7xx_hal_spi.c ****        these callbacks are null (not registered beforehand).
ARM GAS  /tmp/ccwjY1CM.s 			page 3


  89:./Libraries/STM32H7xx_HAL_Driver/Src/stm32h7xx_hal_spi.c ****        If MspInit or MspDeInit are not null, the HAL_SPI_Init()/ HAL_SPI_DeInit()
  90:./Libraries/STM32H7xx_HAL_Driver/Src/stm32h7xx_hal_spi.c ****        keep and use the user MspInit/MspDeInit callbacks (registered beforehand) whatever the state
  91:./Libraries/STM32H7xx_HAL_Driver/Src/stm32h7xx_hal_spi.c **** 
  92:./Libraries/STM32H7xx_HAL_Driver/Src/stm32h7xx_hal_spi.c ****        Callbacks can be registered/unregistered in HAL_SPI_STATE_READY state only.
  93:./Libraries/STM32H7xx_HAL_Driver/Src/stm32h7xx_hal_spi.c ****        Exception done MspInit/MspDeInit functions that can be registered/unregistered
  94:./Libraries/STM32H7xx_HAL_Driver/Src/stm32h7xx_hal_spi.c ****        in HAL_SPI_STATE_READY or HAL_SPI_STATE_RESET state,
  95:./Libraries/STM32H7xx_HAL_Driver/Src/stm32h7xx_hal_spi.c ****        thus registered (user) MspInit/DeInit callbacks can be used during the Init/DeInit.
  96:./Libraries/STM32H7xx_HAL_Driver/Src/stm32h7xx_hal_spi.c ****        Then, the user first registers the MspInit/MspDeInit user callbacks
  97:./Libraries/STM32H7xx_HAL_Driver/Src/stm32h7xx_hal_spi.c ****        using HAL_SPI_RegisterCallback() before calling HAL_SPI_DeInit()
  98:./Libraries/STM32H7xx_HAL_Driver/Src/stm32h7xx_hal_spi.c ****        or HAL_SPI_Init() function.
  99:./Libraries/STM32H7xx_HAL_Driver/Src/stm32h7xx_hal_spi.c **** 
 100:./Libraries/STM32H7xx_HAL_Driver/Src/stm32h7xx_hal_spi.c ****        When The compilation define USE_HAL_PPP_REGISTER_CALLBACKS is set to 0 or
 101:./Libraries/STM32H7xx_HAL_Driver/Src/stm32h7xx_hal_spi.c ****        not defined, the callback registering feature is not available
 102:./Libraries/STM32H7xx_HAL_Driver/Src/stm32h7xx_hal_spi.c ****        and weak (surcharged) callbacks are used.
 103:./Libraries/STM32H7xx_HAL_Driver/Src/stm32h7xx_hal_spi.c **** 
 104:./Libraries/STM32H7xx_HAL_Driver/Src/stm32h7xx_hal_spi.c **** 
 105:./Libraries/STM32H7xx_HAL_Driver/Src/stm32h7xx_hal_spi.c ****     [..]
 106:./Libraries/STM32H7xx_HAL_Driver/Src/stm32h7xx_hal_spi.c ****       Circular mode restriction:
 107:./Libraries/STM32H7xx_HAL_Driver/Src/stm32h7xx_hal_spi.c ****       (+) The DMA circular mode cannot be used when the SPI is configured in these modes:
 108:./Libraries/STM32H7xx_HAL_Driver/Src/stm32h7xx_hal_spi.c ****           (++) Master 2Lines RxOnly
 109:./Libraries/STM32H7xx_HAL_Driver/Src/stm32h7xx_hal_spi.c ****           (++) Master 1Line Rx
 110:./Libraries/STM32H7xx_HAL_Driver/Src/stm32h7xx_hal_spi.c ****       (+) The CRC feature is not managed when the DMA circular mode is enabled
 111:./Libraries/STM32H7xx_HAL_Driver/Src/stm32h7xx_hal_spi.c ****       (+) The functions HAL_SPI_DMAPause()/ HAL_SPI_DMAResume() are not supported. Return always
 112:./Libraries/STM32H7xx_HAL_Driver/Src/stm32h7xx_hal_spi.c ****           HAL_ERROR with ErrorCode set to HAL_SPI_ERROR_NOT_SUPPORTED.
 113:./Libraries/STM32H7xx_HAL_Driver/Src/stm32h7xx_hal_spi.c ****           Those functions are maintained for backward compatibility reasons.
 114:./Libraries/STM32H7xx_HAL_Driver/Src/stm32h7xx_hal_spi.c **** 
 115:./Libraries/STM32H7xx_HAL_Driver/Src/stm32h7xx_hal_spi.c ****   @endverbatim
 116:./Libraries/STM32H7xx_HAL_Driver/Src/stm32h7xx_hal_spi.c ****   ******************************************************************************
 117:./Libraries/STM32H7xx_HAL_Driver/Src/stm32h7xx_hal_spi.c ****   * @attention
 118:./Libraries/STM32H7xx_HAL_Driver/Src/stm32h7xx_hal_spi.c ****   *
 119:./Libraries/STM32H7xx_HAL_Driver/Src/stm32h7xx_hal_spi.c ****   * <h2><center>&copy; Copyright (c) 2017 STMicroelectronics.
 120:./Libraries/STM32H7xx_HAL_Driver/Src/stm32h7xx_hal_spi.c ****   * All rights reserved.</center></h2>
 121:./Libraries/STM32H7xx_HAL_Driver/Src/stm32h7xx_hal_spi.c ****   *
 122:./Libraries/STM32H7xx_HAL_Driver/Src/stm32h7xx_hal_spi.c ****   * This software component is licensed by ST under BSD 3-Clause license,
 123:./Libraries/STM32H7xx_HAL_Driver/Src/stm32h7xx_hal_spi.c ****   * the "License"; You may not use this file except in compliance with the
 124:./Libraries/STM32H7xx_HAL_Driver/Src/stm32h7xx_hal_spi.c ****   * License. You may obtain a copy of the License at:
 125:./Libraries/STM32H7xx_HAL_Driver/Src/stm32h7xx_hal_spi.c ****   *                        opensource.org/licenses/BSD-3-Clause
 126:./Libraries/STM32H7xx_HAL_Driver/Src/stm32h7xx_hal_spi.c ****   *
 127:./Libraries/STM32H7xx_HAL_Driver/Src/stm32h7xx_hal_spi.c ****   ******************************************************************************
 128:./Libraries/STM32H7xx_HAL_Driver/Src/stm32h7xx_hal_spi.c ****   */
 129:./Libraries/STM32H7xx_HAL_Driver/Src/stm32h7xx_hal_spi.c **** 
 130:./Libraries/STM32H7xx_HAL_Driver/Src/stm32h7xx_hal_spi.c **** /* Includes ------------------------------------------------------------------*/
 131:./Libraries/STM32H7xx_HAL_Driver/Src/stm32h7xx_hal_spi.c **** #include "stm32h7xx_hal.h"
 132:./Libraries/STM32H7xx_HAL_Driver/Src/stm32h7xx_hal_spi.c **** 
 133:./Libraries/STM32H7xx_HAL_Driver/Src/stm32h7xx_hal_spi.c **** /** @addtogroup STM32H7xx_HAL_Driver
 134:./Libraries/STM32H7xx_HAL_Driver/Src/stm32h7xx_hal_spi.c ****   * @{
 135:./Libraries/STM32H7xx_HAL_Driver/Src/stm32h7xx_hal_spi.c ****   */
 136:./Libraries/STM32H7xx_HAL_Driver/Src/stm32h7xx_hal_spi.c **** 
 137:./Libraries/STM32H7xx_HAL_Driver/Src/stm32h7xx_hal_spi.c **** /** @defgroup SPI SPI
 138:./Libraries/STM32H7xx_HAL_Driver/Src/stm32h7xx_hal_spi.c ****   * @brief SPI HAL module driver
 139:./Libraries/STM32H7xx_HAL_Driver/Src/stm32h7xx_hal_spi.c ****   * @{
 140:./Libraries/STM32H7xx_HAL_Driver/Src/stm32h7xx_hal_spi.c ****   */
 141:./Libraries/STM32H7xx_HAL_Driver/Src/stm32h7xx_hal_spi.c **** #ifdef HAL_SPI_MODULE_ENABLED
 142:./Libraries/STM32H7xx_HAL_Driver/Src/stm32h7xx_hal_spi.c **** 
 143:./Libraries/STM32H7xx_HAL_Driver/Src/stm32h7xx_hal_spi.c **** /* Private typedef -----------------------------------------------------------*/
 144:./Libraries/STM32H7xx_HAL_Driver/Src/stm32h7xx_hal_spi.c **** /* Private defines -----------------------------------------------------------*/
 145:./Libraries/STM32H7xx_HAL_Driver/Src/stm32h7xx_hal_spi.c **** /** @defgroup SPI_Private_Constants SPI Private Constants
ARM GAS  /tmp/ccwjY1CM.s 			page 4


 146:./Libraries/STM32H7xx_HAL_Driver/Src/stm32h7xx_hal_spi.c ****   * @{
 147:./Libraries/STM32H7xx_HAL_Driver/Src/stm32h7xx_hal_spi.c ****   */
 148:./Libraries/STM32H7xx_HAL_Driver/Src/stm32h7xx_hal_spi.c **** #define SPI_DEFAULT_TIMEOUT 100UL
 149:./Libraries/STM32H7xx_HAL_Driver/Src/stm32h7xx_hal_spi.c **** #define MAX_FIFO_LENGTH     16UL
 150:./Libraries/STM32H7xx_HAL_Driver/Src/stm32h7xx_hal_spi.c **** /**
 151:./Libraries/STM32H7xx_HAL_Driver/Src/stm32h7xx_hal_spi.c ****   * @}
 152:./Libraries/STM32H7xx_HAL_Driver/Src/stm32h7xx_hal_spi.c ****   */
 153:./Libraries/STM32H7xx_HAL_Driver/Src/stm32h7xx_hal_spi.c **** 
 154:./Libraries/STM32H7xx_HAL_Driver/Src/stm32h7xx_hal_spi.c **** /* Private macros ------------------------------------------------------------*/
 155:./Libraries/STM32H7xx_HAL_Driver/Src/stm32h7xx_hal_spi.c **** /* Private variables ---------------------------------------------------------*/
 156:./Libraries/STM32H7xx_HAL_Driver/Src/stm32h7xx_hal_spi.c **** /* Private function prototypes -----------------------------------------------*/
 157:./Libraries/STM32H7xx_HAL_Driver/Src/stm32h7xx_hal_spi.c **** /** @defgroup SPI_Private_Functions SPI Private Functions
 158:./Libraries/STM32H7xx_HAL_Driver/Src/stm32h7xx_hal_spi.c ****   * @{
 159:./Libraries/STM32H7xx_HAL_Driver/Src/stm32h7xx_hal_spi.c ****   */
 160:./Libraries/STM32H7xx_HAL_Driver/Src/stm32h7xx_hal_spi.c **** static void SPI_DMATransmitCplt(DMA_HandleTypeDef *hdma);
 161:./Libraries/STM32H7xx_HAL_Driver/Src/stm32h7xx_hal_spi.c **** static void SPI_DMAReceiveCplt(DMA_HandleTypeDef *hdma);
 162:./Libraries/STM32H7xx_HAL_Driver/Src/stm32h7xx_hal_spi.c **** static void SPI_DMATransmitReceiveCplt(DMA_HandleTypeDef *hdma);
 163:./Libraries/STM32H7xx_HAL_Driver/Src/stm32h7xx_hal_spi.c **** static void SPI_DMAHalfTransmitCplt(DMA_HandleTypeDef *hdma);
 164:./Libraries/STM32H7xx_HAL_Driver/Src/stm32h7xx_hal_spi.c **** static void SPI_DMAHalfReceiveCplt(DMA_HandleTypeDef *hdma);
 165:./Libraries/STM32H7xx_HAL_Driver/Src/stm32h7xx_hal_spi.c **** static void SPI_DMAHalfTransmitReceiveCplt(DMA_HandleTypeDef *hdma);
 166:./Libraries/STM32H7xx_HAL_Driver/Src/stm32h7xx_hal_spi.c **** static void SPI_DMAError(DMA_HandleTypeDef *hdma);
 167:./Libraries/STM32H7xx_HAL_Driver/Src/stm32h7xx_hal_spi.c **** static void SPI_DMAAbortOnError(DMA_HandleTypeDef *hdma);
 168:./Libraries/STM32H7xx_HAL_Driver/Src/stm32h7xx_hal_spi.c **** static void SPI_DMATxAbortCallback(DMA_HandleTypeDef *hdma);
 169:./Libraries/STM32H7xx_HAL_Driver/Src/stm32h7xx_hal_spi.c **** static void SPI_DMARxAbortCallback(DMA_HandleTypeDef *hdma);
 170:./Libraries/STM32H7xx_HAL_Driver/Src/stm32h7xx_hal_spi.c **** static HAL_StatusTypeDef SPI_WaitOnFlagUntilTimeout(SPI_HandleTypeDef *hspi, uint32_t Flag, FlagSta
 171:./Libraries/STM32H7xx_HAL_Driver/Src/stm32h7xx_hal_spi.c ****                                                     uint32_t Timeout, uint32_t Tickstart);
 172:./Libraries/STM32H7xx_HAL_Driver/Src/stm32h7xx_hal_spi.c **** static void SPI_TxISR_8BIT(SPI_HandleTypeDef *hspi);
 173:./Libraries/STM32H7xx_HAL_Driver/Src/stm32h7xx_hal_spi.c **** static void SPI_TxISR_16BIT(SPI_HandleTypeDef *hspi);
 174:./Libraries/STM32H7xx_HAL_Driver/Src/stm32h7xx_hal_spi.c **** static void SPI_TxISR_32BIT(SPI_HandleTypeDef *hspi);
 175:./Libraries/STM32H7xx_HAL_Driver/Src/stm32h7xx_hal_spi.c **** static void SPI_RxISR_8BIT(SPI_HandleTypeDef *hspi);
 176:./Libraries/STM32H7xx_HAL_Driver/Src/stm32h7xx_hal_spi.c **** static void SPI_RxISR_16BIT(SPI_HandleTypeDef *hspi);
 177:./Libraries/STM32H7xx_HAL_Driver/Src/stm32h7xx_hal_spi.c **** static void SPI_RxISR_32BIT(SPI_HandleTypeDef *hspi);
 178:./Libraries/STM32H7xx_HAL_Driver/Src/stm32h7xx_hal_spi.c **** static void SPI_AbortTransfer(SPI_HandleTypeDef *hspi);
 179:./Libraries/STM32H7xx_HAL_Driver/Src/stm32h7xx_hal_spi.c **** static void SPI_CloseTransfer(SPI_HandleTypeDef *hspi);
 180:./Libraries/STM32H7xx_HAL_Driver/Src/stm32h7xx_hal_spi.c **** static uint32_t SPI_GetPacketSize(SPI_HandleTypeDef *hspi);
 181:./Libraries/STM32H7xx_HAL_Driver/Src/stm32h7xx_hal_spi.c **** 
 182:./Libraries/STM32H7xx_HAL_Driver/Src/stm32h7xx_hal_spi.c **** 
 183:./Libraries/STM32H7xx_HAL_Driver/Src/stm32h7xx_hal_spi.c **** /**
 184:./Libraries/STM32H7xx_HAL_Driver/Src/stm32h7xx_hal_spi.c ****   * @}
 185:./Libraries/STM32H7xx_HAL_Driver/Src/stm32h7xx_hal_spi.c ****   */
 186:./Libraries/STM32H7xx_HAL_Driver/Src/stm32h7xx_hal_spi.c **** 
 187:./Libraries/STM32H7xx_HAL_Driver/Src/stm32h7xx_hal_spi.c **** /* Exported functions --------------------------------------------------------*/
 188:./Libraries/STM32H7xx_HAL_Driver/Src/stm32h7xx_hal_spi.c **** /** @defgroup SPI_Exported_Functions SPI Exported Functions
 189:./Libraries/STM32H7xx_HAL_Driver/Src/stm32h7xx_hal_spi.c ****   * @{
 190:./Libraries/STM32H7xx_HAL_Driver/Src/stm32h7xx_hal_spi.c ****   */
 191:./Libraries/STM32H7xx_HAL_Driver/Src/stm32h7xx_hal_spi.c **** 
 192:./Libraries/STM32H7xx_HAL_Driver/Src/stm32h7xx_hal_spi.c **** /** @defgroup SPI_Exported_Functions_Group1 Initialization and de-initialization functions
 193:./Libraries/STM32H7xx_HAL_Driver/Src/stm32h7xx_hal_spi.c ****  *  @brief    Initialization and Configuration functions
 194:./Libraries/STM32H7xx_HAL_Driver/Src/stm32h7xx_hal_spi.c ****  *
 195:./Libraries/STM32H7xx_HAL_Driver/Src/stm32h7xx_hal_spi.c **** @verbatim
 196:./Libraries/STM32H7xx_HAL_Driver/Src/stm32h7xx_hal_spi.c ****  ===============================================================================
 197:./Libraries/STM32H7xx_HAL_Driver/Src/stm32h7xx_hal_spi.c ****               ##### Initialization and de-initialization functions #####
 198:./Libraries/STM32H7xx_HAL_Driver/Src/stm32h7xx_hal_spi.c ****  ===============================================================================
 199:./Libraries/STM32H7xx_HAL_Driver/Src/stm32h7xx_hal_spi.c ****     [..]  This subsection provides a set of functions allowing to initialize and
 200:./Libraries/STM32H7xx_HAL_Driver/Src/stm32h7xx_hal_spi.c ****           de-initialize the SPIx peripheral:
 201:./Libraries/STM32H7xx_HAL_Driver/Src/stm32h7xx_hal_spi.c **** 
 202:./Libraries/STM32H7xx_HAL_Driver/Src/stm32h7xx_hal_spi.c ****       (+) User must implement HAL_SPI_MspInit() function in which he configures
ARM GAS  /tmp/ccwjY1CM.s 			page 5


 203:./Libraries/STM32H7xx_HAL_Driver/Src/stm32h7xx_hal_spi.c ****           all related peripherals resources (CLOCK, GPIO, DMA, IT and NVIC ).
 204:./Libraries/STM32H7xx_HAL_Driver/Src/stm32h7xx_hal_spi.c **** 
 205:./Libraries/STM32H7xx_HAL_Driver/Src/stm32h7xx_hal_spi.c ****       (+) Call the function HAL_SPI_Init() to configure the selected device with
 206:./Libraries/STM32H7xx_HAL_Driver/Src/stm32h7xx_hal_spi.c ****           the selected configuration:
 207:./Libraries/STM32H7xx_HAL_Driver/Src/stm32h7xx_hal_spi.c ****         (++) Mode
 208:./Libraries/STM32H7xx_HAL_Driver/Src/stm32h7xx_hal_spi.c ****         (++) Direction
 209:./Libraries/STM32H7xx_HAL_Driver/Src/stm32h7xx_hal_spi.c ****         (++) Data Size
 210:./Libraries/STM32H7xx_HAL_Driver/Src/stm32h7xx_hal_spi.c ****         (++) Clock Polarity and Phase
 211:./Libraries/STM32H7xx_HAL_Driver/Src/stm32h7xx_hal_spi.c ****         (++) NSS Management
 212:./Libraries/STM32H7xx_HAL_Driver/Src/stm32h7xx_hal_spi.c ****         (++) BaudRate Prescaler
 213:./Libraries/STM32H7xx_HAL_Driver/Src/stm32h7xx_hal_spi.c ****         (++) FirstBit
 214:./Libraries/STM32H7xx_HAL_Driver/Src/stm32h7xx_hal_spi.c ****         (++) TIMode
 215:./Libraries/STM32H7xx_HAL_Driver/Src/stm32h7xx_hal_spi.c ****         (++) CRC Calculation
 216:./Libraries/STM32H7xx_HAL_Driver/Src/stm32h7xx_hal_spi.c ****         (++) CRC Polynomial if CRC enabled
 217:./Libraries/STM32H7xx_HAL_Driver/Src/stm32h7xx_hal_spi.c ****         (++) CRC Length, used only with Data8 and Data16
 218:./Libraries/STM32H7xx_HAL_Driver/Src/stm32h7xx_hal_spi.c ****         (++) FIFO reception threshold
 219:./Libraries/STM32H7xx_HAL_Driver/Src/stm32h7xx_hal_spi.c ****         (++) FIFO transmission threshold
 220:./Libraries/STM32H7xx_HAL_Driver/Src/stm32h7xx_hal_spi.c **** 
 221:./Libraries/STM32H7xx_HAL_Driver/Src/stm32h7xx_hal_spi.c ****       (+) Call the function HAL_SPI_DeInit() to restore the default configuration
 222:./Libraries/STM32H7xx_HAL_Driver/Src/stm32h7xx_hal_spi.c ****           of the selected SPIx peripheral.
 223:./Libraries/STM32H7xx_HAL_Driver/Src/stm32h7xx_hal_spi.c **** 
 224:./Libraries/STM32H7xx_HAL_Driver/Src/stm32h7xx_hal_spi.c **** @endverbatim
 225:./Libraries/STM32H7xx_HAL_Driver/Src/stm32h7xx_hal_spi.c ****   * @{
 226:./Libraries/STM32H7xx_HAL_Driver/Src/stm32h7xx_hal_spi.c ****   */
 227:./Libraries/STM32H7xx_HAL_Driver/Src/stm32h7xx_hal_spi.c **** 
 228:./Libraries/STM32H7xx_HAL_Driver/Src/stm32h7xx_hal_spi.c **** /**
 229:./Libraries/STM32H7xx_HAL_Driver/Src/stm32h7xx_hal_spi.c ****   * @brief  Initialize the SPI according to the specified parameters
 230:./Libraries/STM32H7xx_HAL_Driver/Src/stm32h7xx_hal_spi.c ****   *         in the SPI_InitTypeDef and initialize the associated handle.
 231:./Libraries/STM32H7xx_HAL_Driver/Src/stm32h7xx_hal_spi.c ****   * @param  hspi: pointer to a SPI_HandleTypeDef structure that contains
 232:./Libraries/STM32H7xx_HAL_Driver/Src/stm32h7xx_hal_spi.c ****   *               the configuration information for SPI module.
 233:./Libraries/STM32H7xx_HAL_Driver/Src/stm32h7xx_hal_spi.c ****   * @retval HAL status
 234:./Libraries/STM32H7xx_HAL_Driver/Src/stm32h7xx_hal_spi.c ****   */
 235:./Libraries/STM32H7xx_HAL_Driver/Src/stm32h7xx_hal_spi.c **** HAL_StatusTypeDef HAL_SPI_Init(SPI_HandleTypeDef *hspi)
 236:./Libraries/STM32H7xx_HAL_Driver/Src/stm32h7xx_hal_spi.c **** {
  28              		.loc 1 236 1
  29              		.cfi_startproc
  30              		@ args = 0, pretend = 0, frame = 16
  31              		@ frame_needed = 1, uses_anonymous_args = 0
  32 0000 80B5     		push	{r7, lr}
  33              	.LCFI0:
  34              		.cfi_def_cfa_offset 8
  35              		.cfi_offset 7, -8
  36              		.cfi_offset 14, -4
  37 0002 84B0     		sub	sp, sp, #16
  38              	.LCFI1:
  39              		.cfi_def_cfa_offset 24
  40 0004 00AF     		add	r7, sp, #0
  41              	.LCFI2:
  42              		.cfi_def_cfa_register 7
  43 0006 7860     		str	r0, [r7, #4]
 237:./Libraries/STM32H7xx_HAL_Driver/Src/stm32h7xx_hal_spi.c **** #if (USE_SPI_CRC != 0UL)
 238:./Libraries/STM32H7xx_HAL_Driver/Src/stm32h7xx_hal_spi.c ****   uint32_t crc_length;
 239:./Libraries/STM32H7xx_HAL_Driver/Src/stm32h7xx_hal_spi.c **** #else
 240:./Libraries/STM32H7xx_HAL_Driver/Src/stm32h7xx_hal_spi.c ****   uint32_t crc_length = 0UL;
  44              		.loc 1 240 12
  45 0008 0023     		movs	r3, #0
  46 000a FB60     		str	r3, [r7, #12]
ARM GAS  /tmp/ccwjY1CM.s 			page 6


 241:./Libraries/STM32H7xx_HAL_Driver/Src/stm32h7xx_hal_spi.c **** #endif
 242:./Libraries/STM32H7xx_HAL_Driver/Src/stm32h7xx_hal_spi.c ****   uint32_t packet_length;
 243:./Libraries/STM32H7xx_HAL_Driver/Src/stm32h7xx_hal_spi.c **** 
 244:./Libraries/STM32H7xx_HAL_Driver/Src/stm32h7xx_hal_spi.c ****   /* Check the SPI handle allocation */
 245:./Libraries/STM32H7xx_HAL_Driver/Src/stm32h7xx_hal_spi.c ****   if (hspi == NULL)
  47              		.loc 1 245 6
  48 000c 7B68     		ldr	r3, [r7, #4]
  49 000e 002B     		cmp	r3, #0
  50 0010 01D1     		bne	.L2
 246:./Libraries/STM32H7xx_HAL_Driver/Src/stm32h7xx_hal_spi.c ****   {
 247:./Libraries/STM32H7xx_HAL_Driver/Src/stm32h7xx_hal_spi.c ****     return HAL_ERROR;
  51              		.loc 1 247 12
  52 0012 0123     		movs	r3, #1
  53 0014 EBE0     		b	.L3
  54              	.L2:
 248:./Libraries/STM32H7xx_HAL_Driver/Src/stm32h7xx_hal_spi.c ****   }
 249:./Libraries/STM32H7xx_HAL_Driver/Src/stm32h7xx_hal_spi.c **** 
 250:./Libraries/STM32H7xx_HAL_Driver/Src/stm32h7xx_hal_spi.c ****   /* Check the parameters */
 251:./Libraries/STM32H7xx_HAL_Driver/Src/stm32h7xx_hal_spi.c ****   assert_param(IS_SPI_ALL_INSTANCE(hspi->Instance));
 252:./Libraries/STM32H7xx_HAL_Driver/Src/stm32h7xx_hal_spi.c ****   assert_param(IS_SPI_MODE(hspi->Init.Mode));
 253:./Libraries/STM32H7xx_HAL_Driver/Src/stm32h7xx_hal_spi.c ****   assert_param(IS_SPI_DIRECTION(hspi->Init.Direction));
 254:./Libraries/STM32H7xx_HAL_Driver/Src/stm32h7xx_hal_spi.c ****   assert_param(IS_SPI_DATASIZE(hspi->Init.DataSize));
 255:./Libraries/STM32H7xx_HAL_Driver/Src/stm32h7xx_hal_spi.c ****   assert_param(IS_SPI_FIFOTHRESHOLD(hspi->Init.FifoThreshold));
 256:./Libraries/STM32H7xx_HAL_Driver/Src/stm32h7xx_hal_spi.c ****   assert_param(IS_SPI_NSS(hspi->Init.NSS));
 257:./Libraries/STM32H7xx_HAL_Driver/Src/stm32h7xx_hal_spi.c ****   assert_param(IS_SPI_NSSP(hspi->Init.NSSPMode));
 258:./Libraries/STM32H7xx_HAL_Driver/Src/stm32h7xx_hal_spi.c ****   assert_param(IS_SPI_BAUDRATE_PRESCALER(hspi->Init.BaudRatePrescaler));
 259:./Libraries/STM32H7xx_HAL_Driver/Src/stm32h7xx_hal_spi.c ****   assert_param(IS_SPI_FIRST_BIT(hspi->Init.FirstBit));
 260:./Libraries/STM32H7xx_HAL_Driver/Src/stm32h7xx_hal_spi.c ****   assert_param(IS_SPI_TIMODE(hspi->Init.TIMode));
 261:./Libraries/STM32H7xx_HAL_Driver/Src/stm32h7xx_hal_spi.c ****   if (hspi->Init.TIMode == SPI_TIMODE_DISABLE)
 262:./Libraries/STM32H7xx_HAL_Driver/Src/stm32h7xx_hal_spi.c ****   {
 263:./Libraries/STM32H7xx_HAL_Driver/Src/stm32h7xx_hal_spi.c ****     assert_param(IS_SPI_CPOL(hspi->Init.CLKPolarity));
 264:./Libraries/STM32H7xx_HAL_Driver/Src/stm32h7xx_hal_spi.c ****     assert_param(IS_SPI_CPHA(hspi->Init.CLKPhase));
 265:./Libraries/STM32H7xx_HAL_Driver/Src/stm32h7xx_hal_spi.c ****   }
 266:./Libraries/STM32H7xx_HAL_Driver/Src/stm32h7xx_hal_spi.c **** #if (USE_SPI_CRC != 0UL)
 267:./Libraries/STM32H7xx_HAL_Driver/Src/stm32h7xx_hal_spi.c ****   assert_param(IS_SPI_CRC_CALCULATION(hspi->Init.CRCCalculation));
 268:./Libraries/STM32H7xx_HAL_Driver/Src/stm32h7xx_hal_spi.c ****   if (hspi->Init.CRCCalculation == SPI_CRCCALCULATION_ENABLE)
 269:./Libraries/STM32H7xx_HAL_Driver/Src/stm32h7xx_hal_spi.c ****   {
 270:./Libraries/STM32H7xx_HAL_Driver/Src/stm32h7xx_hal_spi.c ****     assert_param(IS_SPI_CRC_POLYNOMIAL(hspi->Init.CRCPolynomial));
 271:./Libraries/STM32H7xx_HAL_Driver/Src/stm32h7xx_hal_spi.c ****     assert_param(IS_SPI_CRC_LENGTH(hspi->Init.CRCLength));
 272:./Libraries/STM32H7xx_HAL_Driver/Src/stm32h7xx_hal_spi.c ****     assert_param(IS_SPI_CRC_INITIALIZATION_PATTERN(hspi->Init.TxCRCInitializationPattern));
 273:./Libraries/STM32H7xx_HAL_Driver/Src/stm32h7xx_hal_spi.c ****     assert_param(IS_SPI_CRC_INITIALIZATION_PATTERN(hspi->Init.RxCRCInitializationPattern));
 274:./Libraries/STM32H7xx_HAL_Driver/Src/stm32h7xx_hal_spi.c ****   }
 275:./Libraries/STM32H7xx_HAL_Driver/Src/stm32h7xx_hal_spi.c **** #else
 276:./Libraries/STM32H7xx_HAL_Driver/Src/stm32h7xx_hal_spi.c ****   hspi->Init.CRCCalculation = SPI_CRCCALCULATION_DISABLE;
  55              		.loc 1 276 29
  56 0016 7B68     		ldr	r3, [r7, #4]
  57 0018 0022     		movs	r2, #0
  58 001a 9A62     		str	r2, [r3, #40]
 277:./Libraries/STM32H7xx_HAL_Driver/Src/stm32h7xx_hal_spi.c **** #endif /* USE_SPI_CRC */
 278:./Libraries/STM32H7xx_HAL_Driver/Src/stm32h7xx_hal_spi.c **** 
 279:./Libraries/STM32H7xx_HAL_Driver/Src/stm32h7xx_hal_spi.c ****   /* Verify that the SPI instance supports Data Size higher than 16bits */
 280:./Libraries/STM32H7xx_HAL_Driver/Src/stm32h7xx_hal_spi.c ****   if ((!IS_SPI_HIGHEND_INSTANCE(hspi->Instance)) && (hspi->Init.DataSize > SPI_DATASIZE_16BIT))
  59              		.loc 1 280 9
  60 001c 7B68     		ldr	r3, [r7, #4]
  61 001e 1B68     		ldr	r3, [r3]
  62              		.loc 1 280 6
  63 0020 754A     		ldr	r2, .L15
ARM GAS  /tmp/ccwjY1CM.s 			page 7


  64 0022 9342     		cmp	r3, r2
  65 0024 0FD0     		beq	.L4
  66              		.loc 1 280 9 discriminator 1
  67 0026 7B68     		ldr	r3, [r7, #4]
  68 0028 1B68     		ldr	r3, [r3]
  69 002a 744A     		ldr	r2, .L15+4
  70 002c 9342     		cmp	r3, r2
  71 002e 0AD0     		beq	.L4
  72              		.loc 1 280 9 is_stmt 0 discriminator 2
  73 0030 7B68     		ldr	r3, [r7, #4]
  74 0032 1B68     		ldr	r3, [r3]
  75              		.loc 1 280 8 is_stmt 1 discriminator 2
  76 0034 724A     		ldr	r2, .L15+8
  77 0036 9342     		cmp	r3, r2
  78 0038 05D0     		beq	.L4
  79              		.loc 1 280 64 discriminator 3
  80 003a 7B68     		ldr	r3, [r7, #4]
  81 003c DB68     		ldr	r3, [r3, #12]
  82              		.loc 1 280 50 discriminator 3
  83 003e 0F2B     		cmp	r3, #15
  84 0040 01D9     		bls	.L4
 281:./Libraries/STM32H7xx_HAL_Driver/Src/stm32h7xx_hal_spi.c ****   {
 282:./Libraries/STM32H7xx_HAL_Driver/Src/stm32h7xx_hal_spi.c ****     return HAL_ERROR;
  85              		.loc 1 282 12
  86 0042 0123     		movs	r3, #1
  87 0044 D3E0     		b	.L3
  88              	.L4:
 283:./Libraries/STM32H7xx_HAL_Driver/Src/stm32h7xx_hal_spi.c ****   }
 284:./Libraries/STM32H7xx_HAL_Driver/Src/stm32h7xx_hal_spi.c **** 
 285:./Libraries/STM32H7xx_HAL_Driver/Src/stm32h7xx_hal_spi.c ****   /* Verify that the SPI instance supports requested data packing */
 286:./Libraries/STM32H7xx_HAL_Driver/Src/stm32h7xx_hal_spi.c ****   packet_length = SPI_GetPacketSize(hspi);
  89              		.loc 1 286 19
  90 0046 7868     		ldr	r0, [r7, #4]
  91 0048 FFF7FEFF 		bl	SPI_GetPacketSize
  92 004c B860     		str	r0, [r7, #8]
 287:./Libraries/STM32H7xx_HAL_Driver/Src/stm32h7xx_hal_spi.c ****   if (((!IS_SPI_HIGHEND_INSTANCE(hspi->Instance)) && (packet_length > SPI_LOWEND_FIFO_SIZE)) ||
  93              		.loc 1 287 10
  94 004e 7B68     		ldr	r3, [r7, #4]
  95 0050 1B68     		ldr	r3, [r3]
  96              		.loc 1 287 6
  97 0052 694A     		ldr	r2, .L15
  98 0054 9342     		cmp	r3, r2
  99 0056 0CD0     		beq	.L5
 100              		.loc 1 287 10 discriminator 1
 101 0058 7B68     		ldr	r3, [r7, #4]
 102 005a 1B68     		ldr	r3, [r3]
 103 005c 674A     		ldr	r2, .L15+4
 104 005e 9342     		cmp	r3, r2
 105 0060 07D0     		beq	.L5
 106              		.loc 1 287 10 is_stmt 0 discriminator 3
 107 0062 7B68     		ldr	r3, [r7, #4]
 108 0064 1B68     		ldr	r3, [r3]
 109              		.loc 1 287 9 is_stmt 1 discriminator 3
 110 0066 664A     		ldr	r2, .L15+8
 111 0068 9342     		cmp	r3, r2
 112 006a 02D0     		beq	.L5
 113              		.loc 1 287 51 discriminator 5
ARM GAS  /tmp/ccwjY1CM.s 			page 8


 114 006c BB68     		ldr	r3, [r7, #8]
 115 006e 082B     		cmp	r3, #8
 116 0070 11D8     		bhi	.L6
 117              	.L5:
 288:./Libraries/STM32H7xx_HAL_Driver/Src/stm32h7xx_hal_spi.c ****       ((IS_SPI_HIGHEND_INSTANCE(hspi->Instance)) && (packet_length > SPI_HIGHEND_FIFO_SIZE)))
 118              		.loc 1 288 9 discriminator 7
 119 0072 7B68     		ldr	r3, [r7, #4]
 120 0074 1B68     		ldr	r3, [r3]
 287:./Libraries/STM32H7xx_HAL_Driver/Src/stm32h7xx_hal_spi.c ****   if (((!IS_SPI_HIGHEND_INSTANCE(hspi->Instance)) && (packet_length > SPI_LOWEND_FIFO_SIZE)) ||
 121              		.loc 1 287 94 discriminator 7
 122 0076 604A     		ldr	r2, .L15
 123 0078 9342     		cmp	r3, r2
 124 007a 09D0     		beq	.L7
 125              		.loc 1 288 9
 126 007c 7B68     		ldr	r3, [r7, #4]
 127 007e 1B68     		ldr	r3, [r3]
 128 0080 5E4A     		ldr	r2, .L15+4
 129 0082 9342     		cmp	r3, r2
 130 0084 04D0     		beq	.L7
 131              		.loc 1 288 9 is_stmt 0 discriminator 2
 132 0086 7B68     		ldr	r3, [r7, #4]
 133 0088 1B68     		ldr	r3, [r3]
 134 008a 5D4A     		ldr	r2, .L15+8
 135 008c 9342     		cmp	r3, r2
 136 008e 04D1     		bne	.L8
 137              	.L7:
 138              		.loc 1 288 50 is_stmt 1 discriminator 3
 139 0090 BB68     		ldr	r3, [r7, #8]
 140 0092 102B     		cmp	r3, #16
 141 0094 01D9     		bls	.L8
 142              	.L6:
 289:./Libraries/STM32H7xx_HAL_Driver/Src/stm32h7xx_hal_spi.c ****   {
 290:./Libraries/STM32H7xx_HAL_Driver/Src/stm32h7xx_hal_spi.c ****     return HAL_ERROR;
 143              		.loc 1 290 12
 144 0096 0123     		movs	r3, #1
 145 0098 A9E0     		b	.L3
 146              	.L8:
 291:./Libraries/STM32H7xx_HAL_Driver/Src/stm32h7xx_hal_spi.c ****   }
 292:./Libraries/STM32H7xx_HAL_Driver/Src/stm32h7xx_hal_spi.c **** 
 293:./Libraries/STM32H7xx_HAL_Driver/Src/stm32h7xx_hal_spi.c **** #if (USE_SPI_CRC != 0UL)
 294:./Libraries/STM32H7xx_HAL_Driver/Src/stm32h7xx_hal_spi.c ****   if (hspi->Init.CRCCalculation == SPI_CRCCALCULATION_ENABLE)
 295:./Libraries/STM32H7xx_HAL_Driver/Src/stm32h7xx_hal_spi.c ****   {
 296:./Libraries/STM32H7xx_HAL_Driver/Src/stm32h7xx_hal_spi.c ****     /* Verify that the SPI instance supports CRC Length higher than 16bits */
 297:./Libraries/STM32H7xx_HAL_Driver/Src/stm32h7xx_hal_spi.c ****     if ((!IS_SPI_HIGHEND_INSTANCE(hspi->Instance)) && (hspi->Init.CRCLength > SPI_CRC_LENGTH_16BIT)
 298:./Libraries/STM32H7xx_HAL_Driver/Src/stm32h7xx_hal_spi.c ****     {
 299:./Libraries/STM32H7xx_HAL_Driver/Src/stm32h7xx_hal_spi.c ****       return HAL_ERROR;
 300:./Libraries/STM32H7xx_HAL_Driver/Src/stm32h7xx_hal_spi.c ****     }
 301:./Libraries/STM32H7xx_HAL_Driver/Src/stm32h7xx_hal_spi.c **** 
 302:./Libraries/STM32H7xx_HAL_Driver/Src/stm32h7xx_hal_spi.c ****     /* Align the CRC Length on the data size */
 303:./Libraries/STM32H7xx_HAL_Driver/Src/stm32h7xx_hal_spi.c ****     if (hspi->Init.CRCLength == SPI_CRC_LENGTH_DATASIZE)
 304:./Libraries/STM32H7xx_HAL_Driver/Src/stm32h7xx_hal_spi.c ****     {
 305:./Libraries/STM32H7xx_HAL_Driver/Src/stm32h7xx_hal_spi.c ****       crc_length = (hspi->Init.DataSize >> SPI_CFG1_DSIZE_Pos) << SPI_CFG1_CRCSIZE_Pos;
 306:./Libraries/STM32H7xx_HAL_Driver/Src/stm32h7xx_hal_spi.c ****     }
 307:./Libraries/STM32H7xx_HAL_Driver/Src/stm32h7xx_hal_spi.c ****     else
 308:./Libraries/STM32H7xx_HAL_Driver/Src/stm32h7xx_hal_spi.c ****     {
 309:./Libraries/STM32H7xx_HAL_Driver/Src/stm32h7xx_hal_spi.c ****       crc_length = hspi->Init.CRCLength;
 310:./Libraries/STM32H7xx_HAL_Driver/Src/stm32h7xx_hal_spi.c ****     }
ARM GAS  /tmp/ccwjY1CM.s 			page 9


 311:./Libraries/STM32H7xx_HAL_Driver/Src/stm32h7xx_hal_spi.c **** 
 312:./Libraries/STM32H7xx_HAL_Driver/Src/stm32h7xx_hal_spi.c ****     /* Verify that the CRC Length is higher than DataSize */
 313:./Libraries/STM32H7xx_HAL_Driver/Src/stm32h7xx_hal_spi.c ****     if ((hspi->Init.DataSize >> SPI_CFG1_DSIZE_Pos) > (crc_length >> SPI_CFG1_CRCSIZE_Pos))
 314:./Libraries/STM32H7xx_HAL_Driver/Src/stm32h7xx_hal_spi.c ****     {
 315:./Libraries/STM32H7xx_HAL_Driver/Src/stm32h7xx_hal_spi.c ****       return HAL_ERROR;
 316:./Libraries/STM32H7xx_HAL_Driver/Src/stm32h7xx_hal_spi.c ****     }
 317:./Libraries/STM32H7xx_HAL_Driver/Src/stm32h7xx_hal_spi.c ****   }
 318:./Libraries/STM32H7xx_HAL_Driver/Src/stm32h7xx_hal_spi.c ****   else
 319:./Libraries/STM32H7xx_HAL_Driver/Src/stm32h7xx_hal_spi.c ****   {
 320:./Libraries/STM32H7xx_HAL_Driver/Src/stm32h7xx_hal_spi.c ****     crc_length = hspi->Init.DataSize << SPI_CFG1_CRCSIZE_Pos;
 321:./Libraries/STM32H7xx_HAL_Driver/Src/stm32h7xx_hal_spi.c ****   }
 322:./Libraries/STM32H7xx_HAL_Driver/Src/stm32h7xx_hal_spi.c **** #endif /* USE_SPI_CRC */
 323:./Libraries/STM32H7xx_HAL_Driver/Src/stm32h7xx_hal_spi.c **** 
 324:./Libraries/STM32H7xx_HAL_Driver/Src/stm32h7xx_hal_spi.c ****   if (hspi->State == HAL_SPI_STATE_RESET)
 147              		.loc 1 324 11
 148 009a 7B68     		ldr	r3, [r7, #4]
 149 009c 93F88130 		ldrb	r3, [r3, #129]
 150 00a0 DBB2     		uxtb	r3, r3
 151              		.loc 1 324 6
 152 00a2 002B     		cmp	r3, #0
 153 00a4 06D1     		bne	.L9
 325:./Libraries/STM32H7xx_HAL_Driver/Src/stm32h7xx_hal_spi.c ****   {
 326:./Libraries/STM32H7xx_HAL_Driver/Src/stm32h7xx_hal_spi.c ****     /* Allocate lock resource and initialize it */
 327:./Libraries/STM32H7xx_HAL_Driver/Src/stm32h7xx_hal_spi.c ****     hspi->Lock = HAL_UNLOCKED;
 154              		.loc 1 327 16
 155 00a6 7B68     		ldr	r3, [r7, #4]
 156 00a8 0022     		movs	r2, #0
 157 00aa 83F88020 		strb	r2, [r3, #128]
 328:./Libraries/STM32H7xx_HAL_Driver/Src/stm32h7xx_hal_spi.c **** 
 329:./Libraries/STM32H7xx_HAL_Driver/Src/stm32h7xx_hal_spi.c **** #if (USE_HAL_SPI_REGISTER_CALLBACKS == 1UL)
 330:./Libraries/STM32H7xx_HAL_Driver/Src/stm32h7xx_hal_spi.c ****     /* Init the SPI Callback settings */
 331:./Libraries/STM32H7xx_HAL_Driver/Src/stm32h7xx_hal_spi.c ****     hspi->TxCpltCallback       = HAL_SPI_TxCpltCallback;       /* Legacy weak TxCpltCallback       
 332:./Libraries/STM32H7xx_HAL_Driver/Src/stm32h7xx_hal_spi.c ****     hspi->RxCpltCallback       = HAL_SPI_RxCpltCallback;       /* Legacy weak RxCpltCallback       
 333:./Libraries/STM32H7xx_HAL_Driver/Src/stm32h7xx_hal_spi.c ****     hspi->TxRxCpltCallback     = HAL_SPI_TxRxCpltCallback;     /* Legacy weak TxRxCpltCallback     
 334:./Libraries/STM32H7xx_HAL_Driver/Src/stm32h7xx_hal_spi.c ****     hspi->TxHalfCpltCallback   = HAL_SPI_TxHalfCpltCallback;   /* Legacy weak TxHalfCpltCallback   
 335:./Libraries/STM32H7xx_HAL_Driver/Src/stm32h7xx_hal_spi.c ****     hspi->RxHalfCpltCallback   = HAL_SPI_RxHalfCpltCallback;   /* Legacy weak RxHalfCpltCallback   
 336:./Libraries/STM32H7xx_HAL_Driver/Src/stm32h7xx_hal_spi.c ****     hspi->TxRxHalfCpltCallback = HAL_SPI_TxRxHalfCpltCallback; /* Legacy weak TxRxHalfCpltCallback 
 337:./Libraries/STM32H7xx_HAL_Driver/Src/stm32h7xx_hal_spi.c ****     hspi->ErrorCallback        = HAL_SPI_ErrorCallback;        /* Legacy weak ErrorCallback        
 338:./Libraries/STM32H7xx_HAL_Driver/Src/stm32h7xx_hal_spi.c ****     hspi->AbortCpltCallback    = HAL_SPI_AbortCpltCallback;    /* Legacy weak AbortCpltCallback    
 339:./Libraries/STM32H7xx_HAL_Driver/Src/stm32h7xx_hal_spi.c **** 
 340:./Libraries/STM32H7xx_HAL_Driver/Src/stm32h7xx_hal_spi.c ****     if (hspi->MspInitCallback == NULL)
 341:./Libraries/STM32H7xx_HAL_Driver/Src/stm32h7xx_hal_spi.c ****     {
 342:./Libraries/STM32H7xx_HAL_Driver/Src/stm32h7xx_hal_spi.c ****       hspi->MspInitCallback = HAL_SPI_MspInit; /* Legacy weak MspInit  */
 343:./Libraries/STM32H7xx_HAL_Driver/Src/stm32h7xx_hal_spi.c ****     }
 344:./Libraries/STM32H7xx_HAL_Driver/Src/stm32h7xx_hal_spi.c **** 
 345:./Libraries/STM32H7xx_HAL_Driver/Src/stm32h7xx_hal_spi.c ****     /* Init the low level hardware : GPIO, CLOCK, NVIC... */
 346:./Libraries/STM32H7xx_HAL_Driver/Src/stm32h7xx_hal_spi.c ****     hspi->MspInitCallback(hspi);
 347:./Libraries/STM32H7xx_HAL_Driver/Src/stm32h7xx_hal_spi.c **** #else
 348:./Libraries/STM32H7xx_HAL_Driver/Src/stm32h7xx_hal_spi.c ****     /* Init the low level hardware : GPIO, CLOCK, NVIC... */
 349:./Libraries/STM32H7xx_HAL_Driver/Src/stm32h7xx_hal_spi.c ****     HAL_SPI_MspInit(hspi);
 158              		.loc 1 349 5
 159 00ae 7868     		ldr	r0, [r7, #4]
 160 00b0 FFF7FEFF 		bl	HAL_SPI_MspInit
 161              	.L9:
 350:./Libraries/STM32H7xx_HAL_Driver/Src/stm32h7xx_hal_spi.c **** #endif /* USE_HAL_SPI_REGISTER_CALLBACKS */
 351:./Libraries/STM32H7xx_HAL_Driver/Src/stm32h7xx_hal_spi.c ****   }
 352:./Libraries/STM32H7xx_HAL_Driver/Src/stm32h7xx_hal_spi.c **** 
ARM GAS  /tmp/ccwjY1CM.s 			page 10


 353:./Libraries/STM32H7xx_HAL_Driver/Src/stm32h7xx_hal_spi.c ****   hspi->State = HAL_SPI_STATE_BUSY;
 162              		.loc 1 353 15
 163 00b4 7B68     		ldr	r3, [r7, #4]
 164 00b6 0222     		movs	r2, #2
 165 00b8 83F88120 		strb	r2, [r3, #129]
 354:./Libraries/STM32H7xx_HAL_Driver/Src/stm32h7xx_hal_spi.c **** 
 355:./Libraries/STM32H7xx_HAL_Driver/Src/stm32h7xx_hal_spi.c ****   /* Disable the selected SPI peripheral */
 356:./Libraries/STM32H7xx_HAL_Driver/Src/stm32h7xx_hal_spi.c ****   __HAL_SPI_DISABLE(hspi);
 166              		.loc 1 356 3
 167 00bc 7B68     		ldr	r3, [r7, #4]
 168 00be 1B68     		ldr	r3, [r3]
 169 00c0 1A68     		ldr	r2, [r3]
 170 00c2 7B68     		ldr	r3, [r7, #4]
 171 00c4 1B68     		ldr	r3, [r3]
 172 00c6 22F00102 		bic	r2, r2, #1
 173 00ca 1A60     		str	r2, [r3]
 357:./Libraries/STM32H7xx_HAL_Driver/Src/stm32h7xx_hal_spi.c **** 
 358:./Libraries/STM32H7xx_HAL_Driver/Src/stm32h7xx_hal_spi.c ****   /*----------------------- SPIx CR1 & CR2 Configuration ---------------------*/
 359:./Libraries/STM32H7xx_HAL_Driver/Src/stm32h7xx_hal_spi.c ****   /* Configure : SPI Mode, Communication Mode, Clock polarity and phase, NSS management,
 360:./Libraries/STM32H7xx_HAL_Driver/Src/stm32h7xx_hal_spi.c ****   Communication speed, First bit, CRC calculation state, CRC Length */
 361:./Libraries/STM32H7xx_HAL_Driver/Src/stm32h7xx_hal_spi.c **** 
 362:./Libraries/STM32H7xx_HAL_Driver/Src/stm32h7xx_hal_spi.c ****   /* SPIx NSS Software Management Configuration */
 363:./Libraries/STM32H7xx_HAL_Driver/Src/stm32h7xx_hal_spi.c ****   if ((hspi->Init.NSS == SPI_NSS_SOFT) && (((hspi->Init.Mode == SPI_MODE_MASTER) && (hspi->Init.NSS
 174              		.loc 1 363 18
 175 00cc 7B68     		ldr	r3, [r7, #4]
 176 00ce 9B69     		ldr	r3, [r3, #24]
 177              		.loc 1 363 6
 178 00d0 B3F1806F 		cmp	r3, #67108864
 179 00d4 19D1     		bne	.L10
 180              		.loc 1 363 56 discriminator 1
 181 00d6 7B68     		ldr	r3, [r7, #4]
 182 00d8 5B68     		ldr	r3, [r3, #4]
 183              		.loc 1 363 40 discriminator 1
 184 00da B3F5800F 		cmp	r3, #4194304
 185 00de 03D1     		bne	.L11
 186              		.loc 1 363 96 discriminator 2
 187 00e0 7B68     		ldr	r3, [r7, #4]
 188 00e2 9B6B     		ldr	r3, [r3, #56]
 189              		.loc 1 363 82 discriminator 2
 190 00e4 002B     		cmp	r3, #0
 191 00e6 08D0     		beq	.L12
 192              	.L11:
 364:./Libraries/STM32H7xx_HAL_Driver/Src/stm32h7xx_hal_spi.c ****      ((hspi->Init.Mode == SPI_MODE_SLAVE) && (hspi->Init.NSSPolarity == SPI_NSS_POLARITY_HIGH))))
 193              		.loc 1 364 18 discriminator 4
 194 00e8 7B68     		ldr	r3, [r7, #4]
 195 00ea 5B68     		ldr	r3, [r3, #4]
 363:./Libraries/STM32H7xx_HAL_Driver/Src/stm32h7xx_hal_spi.c ****      ((hspi->Init.Mode == SPI_MODE_SLAVE) && (hspi->Init.NSSPolarity == SPI_NSS_POLARITY_HIGH))))
 196              		.loc 1 363 135 discriminator 4
 197 00ec 002B     		cmp	r3, #0
 198 00ee 0CD1     		bne	.L10
 199              		.loc 1 364 57
 200 00f0 7B68     		ldr	r3, [r7, #4]
 201 00f2 9B6B     		ldr	r3, [r3, #56]
 202              		.loc 1 364 43
 203 00f4 B3F1805F 		cmp	r3, #268435456
 204 00f8 07D1     		bne	.L10
 205              	.L12:
ARM GAS  /tmp/ccwjY1CM.s 			page 11


 365:./Libraries/STM32H7xx_HAL_Driver/Src/stm32h7xx_hal_spi.c ****   {
 366:./Libraries/STM32H7xx_HAL_Driver/Src/stm32h7xx_hal_spi.c ****     SET_BIT(hspi->Instance->CR1, SPI_CR1_SSI);
 206              		.loc 1 366 5
 207 00fa 7B68     		ldr	r3, [r7, #4]
 208 00fc 1B68     		ldr	r3, [r3]
 209 00fe 1A68     		ldr	r2, [r3]
 210 0100 7B68     		ldr	r3, [r7, #4]
 211 0102 1B68     		ldr	r3, [r3]
 212 0104 42F48052 		orr	r2, r2, #4096
 213 0108 1A60     		str	r2, [r3]
 214              	.L10:
 367:./Libraries/STM32H7xx_HAL_Driver/Src/stm32h7xx_hal_spi.c ****   }
 368:./Libraries/STM32H7xx_HAL_Driver/Src/stm32h7xx_hal_spi.c **** 
 369:./Libraries/STM32H7xx_HAL_Driver/Src/stm32h7xx_hal_spi.c ****   /* SPIx CFG1 Configuration */
 370:./Libraries/STM32H7xx_HAL_Driver/Src/stm32h7xx_hal_spi.c ****   WRITE_REG(hspi->Instance->CFG1, (hspi->Init.BaudRatePrescaler | hspi->Init.CRCCalculation | crc_l
 215              		.loc 1 370 3
 216 010a 7B68     		ldr	r3, [r7, #4]
 217 010c DA69     		ldr	r2, [r3, #28]
 218 010e 7B68     		ldr	r3, [r7, #4]
 219 0110 9B6A     		ldr	r3, [r3, #40]
 220 0112 1A43     		orrs	r2, r2, r3
 221 0114 FB68     		ldr	r3, [r7, #12]
 222 0116 1A43     		orrs	r2, r2, r3
 223 0118 7B68     		ldr	r3, [r7, #4]
 224 011a DB6B     		ldr	r3, [r3, #60]
 225 011c 42EA0301 		orr	r1, r2, r3
 226 0120 7B68     		ldr	r3, [r7, #4]
 227 0122 DA68     		ldr	r2, [r3, #12]
 228 0124 7B68     		ldr	r3, [r7, #4]
 229 0126 1B68     		ldr	r3, [r3]
 230 0128 0A43     		orrs	r2, r2, r1
 231 012a 9A60     		str	r2, [r3, #8]
 371:./Libraries/STM32H7xx_HAL_Driver/Src/stm32h7xx_hal_spi.c ****                                    hspi->Init.FifoThreshold     | hspi->Init.DataSize));
 372:./Libraries/STM32H7xx_HAL_Driver/Src/stm32h7xx_hal_spi.c **** 
 373:./Libraries/STM32H7xx_HAL_Driver/Src/stm32h7xx_hal_spi.c ****   /* SPIx CFG2 Configuration */
 374:./Libraries/STM32H7xx_HAL_Driver/Src/stm32h7xx_hal_spi.c ****   WRITE_REG(hspi->Instance->CFG2, (hspi->Init.NSSPMode     | hspi->Init.TIMode           | hspi->In
 232              		.loc 1 374 3
 233 012c 7B68     		ldr	r3, [r7, #4]
 234 012e 5A6B     		ldr	r2, [r3, #52]
 235 0130 7B68     		ldr	r3, [r7, #4]
 236 0132 5B6A     		ldr	r3, [r3, #36]
 237 0134 1A43     		orrs	r2, r2, r3
 238 0136 7B68     		ldr	r3, [r7, #4]
 239 0138 9B6B     		ldr	r3, [r3, #56]
 240 013a 1A43     		orrs	r2, r2, r3
 241 013c 7B68     		ldr	r3, [r7, #4]
 242 013e 9B69     		ldr	r3, [r3, #24]
 243 0140 1A43     		orrs	r2, r2, r3
 244 0142 7B68     		ldr	r3, [r7, #4]
 245 0144 1B69     		ldr	r3, [r3, #16]
 246 0146 1A43     		orrs	r2, r2, r3
 247 0148 7B68     		ldr	r3, [r7, #4]
 248 014a 5B69     		ldr	r3, [r3, #20]
 249 014c 1A43     		orrs	r2, r2, r3
 250 014e 7B68     		ldr	r3, [r7, #4]
 251 0150 1B6A     		ldr	r3, [r3, #32]
 252 0152 1A43     		orrs	r2, r2, r3
ARM GAS  /tmp/ccwjY1CM.s 			page 12


 253 0154 7B68     		ldr	r3, [r7, #4]
 254 0156 5B68     		ldr	r3, [r3, #4]
 255 0158 1A43     		orrs	r2, r2, r3
 256 015a 7B68     		ldr	r3, [r7, #4]
 257 015c DB6C     		ldr	r3, [r3, #76]
 258 015e 1A43     		orrs	r2, r2, r3
 259 0160 7B68     		ldr	r3, [r7, #4]
 260 0162 9B68     		ldr	r3, [r3, #8]
 261 0164 1A43     		orrs	r2, r2, r3
 262 0166 7B68     		ldr	r3, [r7, #4]
 263 0168 9B6C     		ldr	r3, [r3, #72]
 264 016a 42EA0301 		orr	r1, r2, r3
 265 016e 7B68     		ldr	r3, [r7, #4]
 266 0170 9A6D     		ldr	r2, [r3, #88]
 267 0172 7B68     		ldr	r3, [r7, #4]
 268 0174 1B68     		ldr	r3, [r3]
 269 0176 0A43     		orrs	r2, r2, r1
 270 0178 DA60     		str	r2, [r3, #12]
 375:./Libraries/STM32H7xx_HAL_Driver/Src/stm32h7xx_hal_spi.c ****                                    hspi->Init.NSS          | hspi->Init.CLKPolarity      | hspi->In
 376:./Libraries/STM32H7xx_HAL_Driver/Src/stm32h7xx_hal_spi.c ****                                    hspi->Init.FirstBit     | hspi->Init.Mode             | hspi->In
 377:./Libraries/STM32H7xx_HAL_Driver/Src/stm32h7xx_hal_spi.c ****                                    hspi->Init.Direction    | hspi->Init.MasterSSIdleness | hspi->In
 378:./Libraries/STM32H7xx_HAL_Driver/Src/stm32h7xx_hal_spi.c **** 
 379:./Libraries/STM32H7xx_HAL_Driver/Src/stm32h7xx_hal_spi.c **** #if (USE_SPI_CRC != 0UL)
 380:./Libraries/STM32H7xx_HAL_Driver/Src/stm32h7xx_hal_spi.c ****   /*---------------------------- SPIx CRCPOLY Configuration ------------------*/
 381:./Libraries/STM32H7xx_HAL_Driver/Src/stm32h7xx_hal_spi.c ****   /* Configure : CRC Polynomial */
 382:./Libraries/STM32H7xx_HAL_Driver/Src/stm32h7xx_hal_spi.c ****   if (hspi->Init.CRCCalculation == SPI_CRCCALCULATION_ENABLE)
 383:./Libraries/STM32H7xx_HAL_Driver/Src/stm32h7xx_hal_spi.c ****   {
 384:./Libraries/STM32H7xx_HAL_Driver/Src/stm32h7xx_hal_spi.c ****     /* Initialize TXCRC Pattern Initial Value */
 385:./Libraries/STM32H7xx_HAL_Driver/Src/stm32h7xx_hal_spi.c ****     if (hspi->Init.TxCRCInitializationPattern == SPI_CRC_INITIALIZATION_ALL_ONE_PATTERN)
 386:./Libraries/STM32H7xx_HAL_Driver/Src/stm32h7xx_hal_spi.c ****     {
 387:./Libraries/STM32H7xx_HAL_Driver/Src/stm32h7xx_hal_spi.c ****       SET_BIT(hspi->Instance->CR1, SPI_CR1_TCRCINI);
 388:./Libraries/STM32H7xx_HAL_Driver/Src/stm32h7xx_hal_spi.c ****     }
 389:./Libraries/STM32H7xx_HAL_Driver/Src/stm32h7xx_hal_spi.c ****     else
 390:./Libraries/STM32H7xx_HAL_Driver/Src/stm32h7xx_hal_spi.c ****     {
 391:./Libraries/STM32H7xx_HAL_Driver/Src/stm32h7xx_hal_spi.c ****       CLEAR_BIT(hspi->Instance->CR1, SPI_CR1_TCRCINI);
 392:./Libraries/STM32H7xx_HAL_Driver/Src/stm32h7xx_hal_spi.c ****     }
 393:./Libraries/STM32H7xx_HAL_Driver/Src/stm32h7xx_hal_spi.c **** 
 394:./Libraries/STM32H7xx_HAL_Driver/Src/stm32h7xx_hal_spi.c ****     /* Initialize RXCRC Pattern Initial Value */
 395:./Libraries/STM32H7xx_HAL_Driver/Src/stm32h7xx_hal_spi.c ****     if (hspi->Init.RxCRCInitializationPattern == SPI_CRC_INITIALIZATION_ALL_ONE_PATTERN)
 396:./Libraries/STM32H7xx_HAL_Driver/Src/stm32h7xx_hal_spi.c ****     {
 397:./Libraries/STM32H7xx_HAL_Driver/Src/stm32h7xx_hal_spi.c ****       SET_BIT(hspi->Instance->CR1, SPI_CR1_RCRCINI);
 398:./Libraries/STM32H7xx_HAL_Driver/Src/stm32h7xx_hal_spi.c ****     }
 399:./Libraries/STM32H7xx_HAL_Driver/Src/stm32h7xx_hal_spi.c ****     else
 400:./Libraries/STM32H7xx_HAL_Driver/Src/stm32h7xx_hal_spi.c ****     {
 401:./Libraries/STM32H7xx_HAL_Driver/Src/stm32h7xx_hal_spi.c ****       CLEAR_BIT(hspi->Instance->CR1, SPI_CR1_RCRCINI);
 402:./Libraries/STM32H7xx_HAL_Driver/Src/stm32h7xx_hal_spi.c ****     }
 403:./Libraries/STM32H7xx_HAL_Driver/Src/stm32h7xx_hal_spi.c **** 
 404:./Libraries/STM32H7xx_HAL_Driver/Src/stm32h7xx_hal_spi.c ****     /* Enable 33/17 bits CRC computation */
 405:./Libraries/STM32H7xx_HAL_Driver/Src/stm32h7xx_hal_spi.c ****     if (((!IS_SPI_HIGHEND_INSTANCE(hspi->Instance)) && (crc_length == SPI_CRC_LENGTH_16BIT)) ||
 406:./Libraries/STM32H7xx_HAL_Driver/Src/stm32h7xx_hal_spi.c ****         ((IS_SPI_HIGHEND_INSTANCE(hspi->Instance))  && (crc_length == SPI_CRC_LENGTH_32BIT)))
 407:./Libraries/STM32H7xx_HAL_Driver/Src/stm32h7xx_hal_spi.c ****     {
 408:./Libraries/STM32H7xx_HAL_Driver/Src/stm32h7xx_hal_spi.c ****       SET_BIT(hspi->Instance->CR1, SPI_CR1_CRC33_17);
 409:./Libraries/STM32H7xx_HAL_Driver/Src/stm32h7xx_hal_spi.c ****     }
 410:./Libraries/STM32H7xx_HAL_Driver/Src/stm32h7xx_hal_spi.c ****     else
 411:./Libraries/STM32H7xx_HAL_Driver/Src/stm32h7xx_hal_spi.c ****     {
 412:./Libraries/STM32H7xx_HAL_Driver/Src/stm32h7xx_hal_spi.c ****       CLEAR_BIT(hspi->Instance->CR1, SPI_CR1_CRC33_17);
 413:./Libraries/STM32H7xx_HAL_Driver/Src/stm32h7xx_hal_spi.c ****     }
ARM GAS  /tmp/ccwjY1CM.s 			page 13


 414:./Libraries/STM32H7xx_HAL_Driver/Src/stm32h7xx_hal_spi.c **** 
 415:./Libraries/STM32H7xx_HAL_Driver/Src/stm32h7xx_hal_spi.c ****     /* Write CRC polynomial in SPI Register */
 416:./Libraries/STM32H7xx_HAL_Driver/Src/stm32h7xx_hal_spi.c ****     WRITE_REG(hspi->Instance->CRCPOLY, hspi->Init.CRCPolynomial);
 417:./Libraries/STM32H7xx_HAL_Driver/Src/stm32h7xx_hal_spi.c ****   }
 418:./Libraries/STM32H7xx_HAL_Driver/Src/stm32h7xx_hal_spi.c **** #endif /* USE_SPI_CRC */
 419:./Libraries/STM32H7xx_HAL_Driver/Src/stm32h7xx_hal_spi.c **** 
 420:./Libraries/STM32H7xx_HAL_Driver/Src/stm32h7xx_hal_spi.c ****   /* Insure that Underrun configuration is managed only by Salve */
 421:./Libraries/STM32H7xx_HAL_Driver/Src/stm32h7xx_hal_spi.c ****   if (hspi->Init.Mode == SPI_MODE_SLAVE)
 271              		.loc 1 421 17
 272 017a 7B68     		ldr	r3, [r7, #4]
 273 017c 5B68     		ldr	r3, [r3, #4]
 274              		.loc 1 421 6
 275 017e 002B     		cmp	r3, #0
 276 0180 13D1     		bne	.L13
 422:./Libraries/STM32H7xx_HAL_Driver/Src/stm32h7xx_hal_spi.c ****   {
 423:./Libraries/STM32H7xx_HAL_Driver/Src/stm32h7xx_hal_spi.c ****     /* Set Default Underrun configuration */
 424:./Libraries/STM32H7xx_HAL_Driver/Src/stm32h7xx_hal_spi.c **** #if (USE_SPI_CRC != 0UL)
 425:./Libraries/STM32H7xx_HAL_Driver/Src/stm32h7xx_hal_spi.c ****     if (hspi->Init.CRCCalculation == SPI_CRCCALCULATION_DISABLE)
 426:./Libraries/STM32H7xx_HAL_Driver/Src/stm32h7xx_hal_spi.c **** #endif
 427:./Libraries/STM32H7xx_HAL_Driver/Src/stm32h7xx_hal_spi.c ****     {
 428:./Libraries/STM32H7xx_HAL_Driver/Src/stm32h7xx_hal_spi.c ****       MODIFY_REG(hspi->Instance->CFG1, SPI_CFG1_UDRDET, SPI_CFG1_UDRDET_0);
 277              		.loc 1 428 7
 278 0182 7B68     		ldr	r3, [r7, #4]
 279 0184 1B68     		ldr	r3, [r3]
 280 0186 9B68     		ldr	r3, [r3, #8]
 281 0188 23F4C052 		bic	r2, r3, #6144
 282 018c 7B68     		ldr	r3, [r7, #4]
 283 018e 1B68     		ldr	r3, [r3]
 284 0190 42F40062 		orr	r2, r2, #2048
 285 0194 9A60     		str	r2, [r3, #8]
 429:./Libraries/STM32H7xx_HAL_Driver/Src/stm32h7xx_hal_spi.c ****     }
 430:./Libraries/STM32H7xx_HAL_Driver/Src/stm32h7xx_hal_spi.c ****     MODIFY_REG(hspi->Instance->CFG1, SPI_CFG1_UDRCFG, SPI_CFG1_UDRCFG_1);
 286              		.loc 1 430 5
 287 0196 7B68     		ldr	r3, [r7, #4]
 288 0198 1B68     		ldr	r3, [r3]
 289 019a 9B68     		ldr	r3, [r3, #8]
 290 019c 23F4C062 		bic	r2, r3, #1536
 291 01a0 7B68     		ldr	r3, [r7, #4]
 292 01a2 1B68     		ldr	r3, [r3]
 293 01a4 42F48062 		orr	r2, r2, #1024
 294 01a8 9A60     		str	r2, [r3, #8]
 295              	.L13:
 431:./Libraries/STM32H7xx_HAL_Driver/Src/stm32h7xx_hal_spi.c ****   }
 432:./Libraries/STM32H7xx_HAL_Driver/Src/stm32h7xx_hal_spi.c **** 
 433:./Libraries/STM32H7xx_HAL_Driver/Src/stm32h7xx_hal_spi.c **** #if defined(SPI_I2SCFGR_I2SMOD)
 434:./Libraries/STM32H7xx_HAL_Driver/Src/stm32h7xx_hal_spi.c ****   /* Activate the SPI mode (Make sure that I2SMOD bit in I2SCFGR register is reset) */
 435:./Libraries/STM32H7xx_HAL_Driver/Src/stm32h7xx_hal_spi.c ****   CLEAR_BIT(hspi->Instance->I2SCFGR, SPI_I2SCFGR_I2SMOD);
 296              		.loc 1 435 3
 297 01aa 7B68     		ldr	r3, [r7, #4]
 298 01ac 1B68     		ldr	r3, [r3]
 299 01ae 1A6D     		ldr	r2, [r3, #80]
 300 01b0 7B68     		ldr	r3, [r7, #4]
 301 01b2 1B68     		ldr	r3, [r3]
 302 01b4 22F00102 		bic	r2, r2, #1
 303 01b8 1A65     		str	r2, [r3, #80]
 436:./Libraries/STM32H7xx_HAL_Driver/Src/stm32h7xx_hal_spi.c **** #endif /* SPI_I2SCFGR_I2SMOD */
 437:./Libraries/STM32H7xx_HAL_Driver/Src/stm32h7xx_hal_spi.c **** 
ARM GAS  /tmp/ccwjY1CM.s 			page 14


 438:./Libraries/STM32H7xx_HAL_Driver/Src/stm32h7xx_hal_spi.c ****   /* Insure that AFCNTR is managed only by Master */
 439:./Libraries/STM32H7xx_HAL_Driver/Src/stm32h7xx_hal_spi.c ****   if ((hspi->Init.Mode & SPI_MODE_MASTER) == SPI_MODE_MASTER)
 304              		.loc 1 439 18
 305 01ba 7B68     		ldr	r3, [r7, #4]
 306 01bc 5B68     		ldr	r3, [r3, #4]
 307              		.loc 1 439 24
 308 01be 03F48003 		and	r3, r3, #4194304
 309              		.loc 1 439 6
 310 01c2 002B     		cmp	r3, #0
 311 01c4 0AD0     		beq	.L14
 440:./Libraries/STM32H7xx_HAL_Driver/Src/stm32h7xx_hal_spi.c ****   {
 441:./Libraries/STM32H7xx_HAL_Driver/Src/stm32h7xx_hal_spi.c ****     /* Alternate function GPIOs control */
 442:./Libraries/STM32H7xx_HAL_Driver/Src/stm32h7xx_hal_spi.c ****     MODIFY_REG(hspi->Instance->CFG2, SPI_CFG2_AFCNTR, (hspi->Init.MasterKeepIOState));
 312              		.loc 1 442 5
 313 01c6 7B68     		ldr	r3, [r7, #4]
 314 01c8 1B68     		ldr	r3, [r3]
 315 01ca DB68     		ldr	r3, [r3, #12]
 316 01cc 23F00041 		bic	r1, r3, #-2147483648
 317 01d0 7B68     		ldr	r3, [r7, #4]
 318 01d2 5A6D     		ldr	r2, [r3, #84]
 319 01d4 7B68     		ldr	r3, [r7, #4]
 320 01d6 1B68     		ldr	r3, [r3]
 321 01d8 0A43     		orrs	r2, r2, r1
 322 01da DA60     		str	r2, [r3, #12]
 323              	.L14:
 443:./Libraries/STM32H7xx_HAL_Driver/Src/stm32h7xx_hal_spi.c ****   }
 444:./Libraries/STM32H7xx_HAL_Driver/Src/stm32h7xx_hal_spi.c **** 
 445:./Libraries/STM32H7xx_HAL_Driver/Src/stm32h7xx_hal_spi.c ****   hspi->ErrorCode = HAL_SPI_ERROR_NONE;
 324              		.loc 1 445 19
 325 01dc 7B68     		ldr	r3, [r7, #4]
 326 01de 0022     		movs	r2, #0
 327 01e0 C3F88420 		str	r2, [r3, #132]
 446:./Libraries/STM32H7xx_HAL_Driver/Src/stm32h7xx_hal_spi.c ****   hspi->State     = HAL_SPI_STATE_READY;
 328              		.loc 1 446 19
 329 01e4 7B68     		ldr	r3, [r7, #4]
 330 01e6 0122     		movs	r2, #1
 331 01e8 83F88120 		strb	r2, [r3, #129]
 447:./Libraries/STM32H7xx_HAL_Driver/Src/stm32h7xx_hal_spi.c **** 
 448:./Libraries/STM32H7xx_HAL_Driver/Src/stm32h7xx_hal_spi.c ****   return HAL_OK;
 332              		.loc 1 448 10
 333 01ec 0023     		movs	r3, #0
 334              	.L3:
 449:./Libraries/STM32H7xx_HAL_Driver/Src/stm32h7xx_hal_spi.c **** }
 335              		.loc 1 449 1
 336 01ee 1846     		mov	r0, r3
 337 01f0 1037     		adds	r7, r7, #16
 338              	.LCFI3:
 339              		.cfi_def_cfa_offset 8
 340 01f2 BD46     		mov	sp, r7
 341              	.LCFI4:
 342              		.cfi_def_cfa_register 13
 343              		@ sp needed
 344 01f4 80BD     		pop	{r7, pc}
 345              	.L16:
 346 01f6 00BF     		.align	2
 347              	.L15:
 348 01f8 00300140 		.word	1073819648
ARM GAS  /tmp/ccwjY1CM.s 			page 15


 349 01fc 00380040 		.word	1073756160
 350 0200 003C0040 		.word	1073757184
 351              		.cfi_endproc
 352              	.LFE331:
 354              		.section	.text.HAL_SPI_DeInit,"ax",%progbits
 355              		.align	1
 356              		.global	HAL_SPI_DeInit
 357              		.syntax unified
 358              		.thumb
 359              		.thumb_func
 360              		.fpu fpv5-d16
 362              	HAL_SPI_DeInit:
 363              	.LFB332:
 450:./Libraries/STM32H7xx_HAL_Driver/Src/stm32h7xx_hal_spi.c **** 
 451:./Libraries/STM32H7xx_HAL_Driver/Src/stm32h7xx_hal_spi.c **** /**
 452:./Libraries/STM32H7xx_HAL_Driver/Src/stm32h7xx_hal_spi.c ****   * @brief  De-Initialize the SPI peripheral.
 453:./Libraries/STM32H7xx_HAL_Driver/Src/stm32h7xx_hal_spi.c ****   * @param  hspi: pointer to a SPI_HandleTypeDef structure that contains
 454:./Libraries/STM32H7xx_HAL_Driver/Src/stm32h7xx_hal_spi.c ****   *               the configuration information for SPI module.
 455:./Libraries/STM32H7xx_HAL_Driver/Src/stm32h7xx_hal_spi.c ****   * @retval HAL status
 456:./Libraries/STM32H7xx_HAL_Driver/Src/stm32h7xx_hal_spi.c ****   */
 457:./Libraries/STM32H7xx_HAL_Driver/Src/stm32h7xx_hal_spi.c **** HAL_StatusTypeDef HAL_SPI_DeInit(SPI_HandleTypeDef *hspi)
 458:./Libraries/STM32H7xx_HAL_Driver/Src/stm32h7xx_hal_spi.c **** {
 364              		.loc 1 458 1
 365              		.cfi_startproc
 366              		@ args = 0, pretend = 0, frame = 8
 367              		@ frame_needed = 1, uses_anonymous_args = 0
 368 0000 80B5     		push	{r7, lr}
 369              	.LCFI5:
 370              		.cfi_def_cfa_offset 8
 371              		.cfi_offset 7, -8
 372              		.cfi_offset 14, -4
 373 0002 82B0     		sub	sp, sp, #8
 374              	.LCFI6:
 375              		.cfi_def_cfa_offset 16
 376 0004 00AF     		add	r7, sp, #0
 377              	.LCFI7:
 378              		.cfi_def_cfa_register 7
 379 0006 7860     		str	r0, [r7, #4]
 459:./Libraries/STM32H7xx_HAL_Driver/Src/stm32h7xx_hal_spi.c ****   /* Check the SPI handle allocation */
 460:./Libraries/STM32H7xx_HAL_Driver/Src/stm32h7xx_hal_spi.c ****   if (hspi == NULL)
 380              		.loc 1 460 6
 381 0008 7B68     		ldr	r3, [r7, #4]
 382 000a 002B     		cmp	r3, #0
 383 000c 01D1     		bne	.L18
 461:./Libraries/STM32H7xx_HAL_Driver/Src/stm32h7xx_hal_spi.c ****   {
 462:./Libraries/STM32H7xx_HAL_Driver/Src/stm32h7xx_hal_spi.c ****     return HAL_ERROR;
 384              		.loc 1 462 12
 385 000e 0123     		movs	r3, #1
 386 0010 1BE0     		b	.L19
 387              	.L18:
 463:./Libraries/STM32H7xx_HAL_Driver/Src/stm32h7xx_hal_spi.c ****   }
 464:./Libraries/STM32H7xx_HAL_Driver/Src/stm32h7xx_hal_spi.c **** 
 465:./Libraries/STM32H7xx_HAL_Driver/Src/stm32h7xx_hal_spi.c ****   /* Check SPI Instance parameter */
 466:./Libraries/STM32H7xx_HAL_Driver/Src/stm32h7xx_hal_spi.c ****   assert_param(IS_SPI_ALL_INSTANCE(hspi->Instance));
 467:./Libraries/STM32H7xx_HAL_Driver/Src/stm32h7xx_hal_spi.c **** 
 468:./Libraries/STM32H7xx_HAL_Driver/Src/stm32h7xx_hal_spi.c ****   hspi->State = HAL_SPI_STATE_BUSY;
 388              		.loc 1 468 15
ARM GAS  /tmp/ccwjY1CM.s 			page 16


 389 0012 7B68     		ldr	r3, [r7, #4]
 390 0014 0222     		movs	r2, #2
 391 0016 83F88120 		strb	r2, [r3, #129]
 469:./Libraries/STM32H7xx_HAL_Driver/Src/stm32h7xx_hal_spi.c **** 
 470:./Libraries/STM32H7xx_HAL_Driver/Src/stm32h7xx_hal_spi.c ****   /* Disable the SPI Peripheral Clock */
 471:./Libraries/STM32H7xx_HAL_Driver/Src/stm32h7xx_hal_spi.c ****   __HAL_SPI_DISABLE(hspi);
 392              		.loc 1 471 3
 393 001a 7B68     		ldr	r3, [r7, #4]
 394 001c 1B68     		ldr	r3, [r3]
 395 001e 1A68     		ldr	r2, [r3]
 396 0020 7B68     		ldr	r3, [r7, #4]
 397 0022 1B68     		ldr	r3, [r3]
 398 0024 22F00102 		bic	r2, r2, #1
 399 0028 1A60     		str	r2, [r3]
 472:./Libraries/STM32H7xx_HAL_Driver/Src/stm32h7xx_hal_spi.c **** 
 473:./Libraries/STM32H7xx_HAL_Driver/Src/stm32h7xx_hal_spi.c **** #if (USE_HAL_SPI_REGISTER_CALLBACKS == 1UL)
 474:./Libraries/STM32H7xx_HAL_Driver/Src/stm32h7xx_hal_spi.c ****   if (hspi->MspDeInitCallback == NULL)
 475:./Libraries/STM32H7xx_HAL_Driver/Src/stm32h7xx_hal_spi.c ****   {
 476:./Libraries/STM32H7xx_HAL_Driver/Src/stm32h7xx_hal_spi.c ****     hspi->MspDeInitCallback = HAL_SPI_MspDeInit; /* Legacy weak MspDeInit  */
 477:./Libraries/STM32H7xx_HAL_Driver/Src/stm32h7xx_hal_spi.c ****   }
 478:./Libraries/STM32H7xx_HAL_Driver/Src/stm32h7xx_hal_spi.c **** 
 479:./Libraries/STM32H7xx_HAL_Driver/Src/stm32h7xx_hal_spi.c ****   /* DeInit the low level hardware: GPIO, CLOCK, NVIC... */
 480:./Libraries/STM32H7xx_HAL_Driver/Src/stm32h7xx_hal_spi.c ****   hspi->MspDeInitCallback(hspi);
 481:./Libraries/STM32H7xx_HAL_Driver/Src/stm32h7xx_hal_spi.c **** #else
 482:./Libraries/STM32H7xx_HAL_Driver/Src/stm32h7xx_hal_spi.c ****   /* DeInit the low level hardware: GPIO, CLOCK, NVIC... */
 483:./Libraries/STM32H7xx_HAL_Driver/Src/stm32h7xx_hal_spi.c ****   HAL_SPI_MspDeInit(hspi);
 400              		.loc 1 483 3
 401 002a 7868     		ldr	r0, [r7, #4]
 402 002c FFF7FEFF 		bl	HAL_SPI_MspDeInit
 484:./Libraries/STM32H7xx_HAL_Driver/Src/stm32h7xx_hal_spi.c **** #endif /* USE_HAL_SPI_REGISTER_CALLBACKS */
 485:./Libraries/STM32H7xx_HAL_Driver/Src/stm32h7xx_hal_spi.c **** 
 486:./Libraries/STM32H7xx_HAL_Driver/Src/stm32h7xx_hal_spi.c ****   hspi->ErrorCode = HAL_SPI_ERROR_NONE;
 403              		.loc 1 486 19
 404 0030 7B68     		ldr	r3, [r7, #4]
 405 0032 0022     		movs	r2, #0
 406 0034 C3F88420 		str	r2, [r3, #132]
 487:./Libraries/STM32H7xx_HAL_Driver/Src/stm32h7xx_hal_spi.c ****   hspi->State = HAL_SPI_STATE_RESET;
 407              		.loc 1 487 15
 408 0038 7B68     		ldr	r3, [r7, #4]
 409 003a 0022     		movs	r2, #0
 410 003c 83F88120 		strb	r2, [r3, #129]
 488:./Libraries/STM32H7xx_HAL_Driver/Src/stm32h7xx_hal_spi.c **** 
 489:./Libraries/STM32H7xx_HAL_Driver/Src/stm32h7xx_hal_spi.c ****   /* Release Lock */
 490:./Libraries/STM32H7xx_HAL_Driver/Src/stm32h7xx_hal_spi.c ****   __HAL_UNLOCK(hspi);
 411              		.loc 1 490 3
 412 0040 7B68     		ldr	r3, [r7, #4]
 413 0042 0022     		movs	r2, #0
 414 0044 83F88020 		strb	r2, [r3, #128]
 491:./Libraries/STM32H7xx_HAL_Driver/Src/stm32h7xx_hal_spi.c **** 
 492:./Libraries/STM32H7xx_HAL_Driver/Src/stm32h7xx_hal_spi.c ****   return HAL_OK;
 415              		.loc 1 492 10
 416 0048 0023     		movs	r3, #0
 417              	.L19:
 493:./Libraries/STM32H7xx_HAL_Driver/Src/stm32h7xx_hal_spi.c **** }
 418              		.loc 1 493 1
 419 004a 1846     		mov	r0, r3
 420 004c 0837     		adds	r7, r7, #8
ARM GAS  /tmp/ccwjY1CM.s 			page 17


 421              	.LCFI8:
 422              		.cfi_def_cfa_offset 8
 423 004e BD46     		mov	sp, r7
 424              	.LCFI9:
 425              		.cfi_def_cfa_register 13
 426              		@ sp needed
 427 0050 80BD     		pop	{r7, pc}
 428              		.cfi_endproc
 429              	.LFE332:
 431              		.section	.text.HAL_SPI_MspInit,"ax",%progbits
 432              		.align	1
 433              		.weak	HAL_SPI_MspInit
 434              		.syntax unified
 435              		.thumb
 436              		.thumb_func
 437              		.fpu fpv5-d16
 439              	HAL_SPI_MspInit:
 440              	.LFB333:
 494:./Libraries/STM32H7xx_HAL_Driver/Src/stm32h7xx_hal_spi.c **** 
 495:./Libraries/STM32H7xx_HAL_Driver/Src/stm32h7xx_hal_spi.c **** /**
 496:./Libraries/STM32H7xx_HAL_Driver/Src/stm32h7xx_hal_spi.c ****   * @brief  Initialize the SPI MSP.
 497:./Libraries/STM32H7xx_HAL_Driver/Src/stm32h7xx_hal_spi.c ****   * @param  hspi: pointer to a SPI_HandleTypeDef structure that contains
 498:./Libraries/STM32H7xx_HAL_Driver/Src/stm32h7xx_hal_spi.c ****   *               the configuration information for SPI module.
 499:./Libraries/STM32H7xx_HAL_Driver/Src/stm32h7xx_hal_spi.c ****   * @retval None
 500:./Libraries/STM32H7xx_HAL_Driver/Src/stm32h7xx_hal_spi.c ****   */
 501:./Libraries/STM32H7xx_HAL_Driver/Src/stm32h7xx_hal_spi.c **** __weak void HAL_SPI_MspInit(SPI_HandleTypeDef *hspi)
 502:./Libraries/STM32H7xx_HAL_Driver/Src/stm32h7xx_hal_spi.c **** {
 441              		.loc 1 502 1
 442              		.cfi_startproc
 443              		@ args = 0, pretend = 0, frame = 8
 444              		@ frame_needed = 1, uses_anonymous_args = 0
 445              		@ link register save eliminated.
 446 0000 80B4     		push	{r7}
 447              	.LCFI10:
 448              		.cfi_def_cfa_offset 4
 449              		.cfi_offset 7, -4
 450 0002 83B0     		sub	sp, sp, #12
 451              	.LCFI11:
 452              		.cfi_def_cfa_offset 16
 453 0004 00AF     		add	r7, sp, #0
 454              	.LCFI12:
 455              		.cfi_def_cfa_register 7
 456 0006 7860     		str	r0, [r7, #4]
 503:./Libraries/STM32H7xx_HAL_Driver/Src/stm32h7xx_hal_spi.c ****   /* Prevent unused argument(s) compilation warning */
 504:./Libraries/STM32H7xx_HAL_Driver/Src/stm32h7xx_hal_spi.c ****   UNUSED(hspi);
 505:./Libraries/STM32H7xx_HAL_Driver/Src/stm32h7xx_hal_spi.c **** 
 506:./Libraries/STM32H7xx_HAL_Driver/Src/stm32h7xx_hal_spi.c ****   /* NOTE : This function should not be modified, when the callback is needed,
 507:./Libraries/STM32H7xx_HAL_Driver/Src/stm32h7xx_hal_spi.c ****             the HAL_SPI_MspInit should be implemented in the user file
 508:./Libraries/STM32H7xx_HAL_Driver/Src/stm32h7xx_hal_spi.c ****    */
 509:./Libraries/STM32H7xx_HAL_Driver/Src/stm32h7xx_hal_spi.c **** }
 457              		.loc 1 509 1
 458 0008 00BF     		nop
 459 000a 0C37     		adds	r7, r7, #12
 460              	.LCFI13:
 461              		.cfi_def_cfa_offset 4
 462 000c BD46     		mov	sp, r7
 463              	.LCFI14:
ARM GAS  /tmp/ccwjY1CM.s 			page 18


 464              		.cfi_def_cfa_register 13
 465              		@ sp needed
 466 000e 5DF8047B 		ldr	r7, [sp], #4
 467              	.LCFI15:
 468              		.cfi_restore 7
 469              		.cfi_def_cfa_offset 0
 470 0012 7047     		bx	lr
 471              		.cfi_endproc
 472              	.LFE333:
 474              		.section	.text.HAL_SPI_MspDeInit,"ax",%progbits
 475              		.align	1
 476              		.weak	HAL_SPI_MspDeInit
 477              		.syntax unified
 478              		.thumb
 479              		.thumb_func
 480              		.fpu fpv5-d16
 482              	HAL_SPI_MspDeInit:
 483              	.LFB334:
 510:./Libraries/STM32H7xx_HAL_Driver/Src/stm32h7xx_hal_spi.c **** 
 511:./Libraries/STM32H7xx_HAL_Driver/Src/stm32h7xx_hal_spi.c **** /**
 512:./Libraries/STM32H7xx_HAL_Driver/Src/stm32h7xx_hal_spi.c ****   * @brief  De-Initialize the SPI MSP.
 513:./Libraries/STM32H7xx_HAL_Driver/Src/stm32h7xx_hal_spi.c ****   * @param  hspi: pointer to a SPI_HandleTypeDef structure that contains
 514:./Libraries/STM32H7xx_HAL_Driver/Src/stm32h7xx_hal_spi.c ****   *               the configuration information for SPI module.
 515:./Libraries/STM32H7xx_HAL_Driver/Src/stm32h7xx_hal_spi.c ****   * @retval None
 516:./Libraries/STM32H7xx_HAL_Driver/Src/stm32h7xx_hal_spi.c ****   */
 517:./Libraries/STM32H7xx_HAL_Driver/Src/stm32h7xx_hal_spi.c **** __weak void HAL_SPI_MspDeInit(SPI_HandleTypeDef *hspi)
 518:./Libraries/STM32H7xx_HAL_Driver/Src/stm32h7xx_hal_spi.c **** {
 484              		.loc 1 518 1
 485              		.cfi_startproc
 486              		@ args = 0, pretend = 0, frame = 8
 487              		@ frame_needed = 1, uses_anonymous_args = 0
 488              		@ link register save eliminated.
 489 0000 80B4     		push	{r7}
 490              	.LCFI16:
 491              		.cfi_def_cfa_offset 4
 492              		.cfi_offset 7, -4
 493 0002 83B0     		sub	sp, sp, #12
 494              	.LCFI17:
 495              		.cfi_def_cfa_offset 16
 496 0004 00AF     		add	r7, sp, #0
 497              	.LCFI18:
 498              		.cfi_def_cfa_register 7
 499 0006 7860     		str	r0, [r7, #4]
 519:./Libraries/STM32H7xx_HAL_Driver/Src/stm32h7xx_hal_spi.c ****   /* Prevent unused argument(s) compilation warning */
 520:./Libraries/STM32H7xx_HAL_Driver/Src/stm32h7xx_hal_spi.c ****   UNUSED(hspi);
 521:./Libraries/STM32H7xx_HAL_Driver/Src/stm32h7xx_hal_spi.c **** 
 522:./Libraries/STM32H7xx_HAL_Driver/Src/stm32h7xx_hal_spi.c ****   /* NOTE : This function should not be modified, when the callback is needed,
 523:./Libraries/STM32H7xx_HAL_Driver/Src/stm32h7xx_hal_spi.c ****             the HAL_SPI_MspDeInit should be implemented in the user file
 524:./Libraries/STM32H7xx_HAL_Driver/Src/stm32h7xx_hal_spi.c ****    */
 525:./Libraries/STM32H7xx_HAL_Driver/Src/stm32h7xx_hal_spi.c **** }
 500              		.loc 1 525 1
 501 0008 00BF     		nop
 502 000a 0C37     		adds	r7, r7, #12
 503              	.LCFI19:
 504              		.cfi_def_cfa_offset 4
 505 000c BD46     		mov	sp, r7
 506              	.LCFI20:
ARM GAS  /tmp/ccwjY1CM.s 			page 19


 507              		.cfi_def_cfa_register 13
 508              		@ sp needed
 509 000e 5DF8047B 		ldr	r7, [sp], #4
 510              	.LCFI21:
 511              		.cfi_restore 7
 512              		.cfi_def_cfa_offset 0
 513 0012 7047     		bx	lr
 514              		.cfi_endproc
 515              	.LFE334:
 517              		.section	.text.HAL_SPI_Transmit,"ax",%progbits
 518              		.align	1
 519              		.global	HAL_SPI_Transmit
 520              		.syntax unified
 521              		.thumb
 522              		.thumb_func
 523              		.fpu fpv5-d16
 525              	HAL_SPI_Transmit:
 526              	.LFB335:
 526:./Libraries/STM32H7xx_HAL_Driver/Src/stm32h7xx_hal_spi.c **** 
 527:./Libraries/STM32H7xx_HAL_Driver/Src/stm32h7xx_hal_spi.c **** #if (USE_HAL_SPI_REGISTER_CALLBACKS == 1UL)
 528:./Libraries/STM32H7xx_HAL_Driver/Src/stm32h7xx_hal_spi.c **** /**
 529:./Libraries/STM32H7xx_HAL_Driver/Src/stm32h7xx_hal_spi.c ****   * @brief  Register a User SPI Callback
 530:./Libraries/STM32H7xx_HAL_Driver/Src/stm32h7xx_hal_spi.c ****   *         To be used instead of the weak predefined callback
 531:./Libraries/STM32H7xx_HAL_Driver/Src/stm32h7xx_hal_spi.c ****   * @param  hspi Pointer to a SPI_HandleTypeDef structure that contains
 532:./Libraries/STM32H7xx_HAL_Driver/Src/stm32h7xx_hal_spi.c ****   *                the configuration information for the specified SPI.
 533:./Libraries/STM32H7xx_HAL_Driver/Src/stm32h7xx_hal_spi.c ****   * @param  CallbackID ID of the callback to be registered
 534:./Libraries/STM32H7xx_HAL_Driver/Src/stm32h7xx_hal_spi.c ****   * @param  pCallback pointer to the Callback function
 535:./Libraries/STM32H7xx_HAL_Driver/Src/stm32h7xx_hal_spi.c ****   * @retval HAL status
 536:./Libraries/STM32H7xx_HAL_Driver/Src/stm32h7xx_hal_spi.c ****   */
 537:./Libraries/STM32H7xx_HAL_Driver/Src/stm32h7xx_hal_spi.c **** HAL_StatusTypeDef HAL_SPI_RegisterCallback(SPI_HandleTypeDef *hspi, HAL_SPI_CallbackIDTypeDef Callb
 538:./Libraries/STM32H7xx_HAL_Driver/Src/stm32h7xx_hal_spi.c **** {
 539:./Libraries/STM32H7xx_HAL_Driver/Src/stm32h7xx_hal_spi.c ****   HAL_StatusTypeDef status = HAL_OK;
 540:./Libraries/STM32H7xx_HAL_Driver/Src/stm32h7xx_hal_spi.c **** 
 541:./Libraries/STM32H7xx_HAL_Driver/Src/stm32h7xx_hal_spi.c ****   if (pCallback == NULL)
 542:./Libraries/STM32H7xx_HAL_Driver/Src/stm32h7xx_hal_spi.c ****   {
 543:./Libraries/STM32H7xx_HAL_Driver/Src/stm32h7xx_hal_spi.c ****     /* Update the error code */
 544:./Libraries/STM32H7xx_HAL_Driver/Src/stm32h7xx_hal_spi.c ****     hspi->ErrorCode |= HAL_SPI_ERROR_INVALID_CALLBACK;
 545:./Libraries/STM32H7xx_HAL_Driver/Src/stm32h7xx_hal_spi.c **** 
 546:./Libraries/STM32H7xx_HAL_Driver/Src/stm32h7xx_hal_spi.c ****     return HAL_ERROR;
 547:./Libraries/STM32H7xx_HAL_Driver/Src/stm32h7xx_hal_spi.c ****   }
 548:./Libraries/STM32H7xx_HAL_Driver/Src/stm32h7xx_hal_spi.c ****   /* Process locked */
 549:./Libraries/STM32H7xx_HAL_Driver/Src/stm32h7xx_hal_spi.c ****   __HAL_LOCK(hspi);
 550:./Libraries/STM32H7xx_HAL_Driver/Src/stm32h7xx_hal_spi.c **** 
 551:./Libraries/STM32H7xx_HAL_Driver/Src/stm32h7xx_hal_spi.c ****   if (HAL_SPI_STATE_READY == hspi->State)
 552:./Libraries/STM32H7xx_HAL_Driver/Src/stm32h7xx_hal_spi.c ****   {
 553:./Libraries/STM32H7xx_HAL_Driver/Src/stm32h7xx_hal_spi.c ****     switch (CallbackID)
 554:./Libraries/STM32H7xx_HAL_Driver/Src/stm32h7xx_hal_spi.c ****     {
 555:./Libraries/STM32H7xx_HAL_Driver/Src/stm32h7xx_hal_spi.c ****       case HAL_SPI_TX_COMPLETE_CB_ID :
 556:./Libraries/STM32H7xx_HAL_Driver/Src/stm32h7xx_hal_spi.c ****         hspi->TxCpltCallback = pCallback;
 557:./Libraries/STM32H7xx_HAL_Driver/Src/stm32h7xx_hal_spi.c ****         break;
 558:./Libraries/STM32H7xx_HAL_Driver/Src/stm32h7xx_hal_spi.c **** 
 559:./Libraries/STM32H7xx_HAL_Driver/Src/stm32h7xx_hal_spi.c ****       case HAL_SPI_RX_COMPLETE_CB_ID :
 560:./Libraries/STM32H7xx_HAL_Driver/Src/stm32h7xx_hal_spi.c ****         hspi->RxCpltCallback = pCallback;
 561:./Libraries/STM32H7xx_HAL_Driver/Src/stm32h7xx_hal_spi.c ****         break;
 562:./Libraries/STM32H7xx_HAL_Driver/Src/stm32h7xx_hal_spi.c **** 
 563:./Libraries/STM32H7xx_HAL_Driver/Src/stm32h7xx_hal_spi.c ****       case HAL_SPI_TX_RX_COMPLETE_CB_ID :
 564:./Libraries/STM32H7xx_HAL_Driver/Src/stm32h7xx_hal_spi.c ****         hspi->TxRxCpltCallback = pCallback;
ARM GAS  /tmp/ccwjY1CM.s 			page 20


 565:./Libraries/STM32H7xx_HAL_Driver/Src/stm32h7xx_hal_spi.c ****         break;
 566:./Libraries/STM32H7xx_HAL_Driver/Src/stm32h7xx_hal_spi.c **** 
 567:./Libraries/STM32H7xx_HAL_Driver/Src/stm32h7xx_hal_spi.c ****       case HAL_SPI_TX_HALF_COMPLETE_CB_ID :
 568:./Libraries/STM32H7xx_HAL_Driver/Src/stm32h7xx_hal_spi.c ****         hspi->TxHalfCpltCallback = pCallback;
 569:./Libraries/STM32H7xx_HAL_Driver/Src/stm32h7xx_hal_spi.c ****         break;
 570:./Libraries/STM32H7xx_HAL_Driver/Src/stm32h7xx_hal_spi.c **** 
 571:./Libraries/STM32H7xx_HAL_Driver/Src/stm32h7xx_hal_spi.c ****       case HAL_SPI_RX_HALF_COMPLETE_CB_ID :
 572:./Libraries/STM32H7xx_HAL_Driver/Src/stm32h7xx_hal_spi.c ****         hspi->RxHalfCpltCallback = pCallback;
 573:./Libraries/STM32H7xx_HAL_Driver/Src/stm32h7xx_hal_spi.c ****         break;
 574:./Libraries/STM32H7xx_HAL_Driver/Src/stm32h7xx_hal_spi.c **** 
 575:./Libraries/STM32H7xx_HAL_Driver/Src/stm32h7xx_hal_spi.c ****       case HAL_SPI_TX_RX_HALF_COMPLETE_CB_ID :
 576:./Libraries/STM32H7xx_HAL_Driver/Src/stm32h7xx_hal_spi.c ****         hspi->TxRxHalfCpltCallback = pCallback;
 577:./Libraries/STM32H7xx_HAL_Driver/Src/stm32h7xx_hal_spi.c ****         break;
 578:./Libraries/STM32H7xx_HAL_Driver/Src/stm32h7xx_hal_spi.c **** 
 579:./Libraries/STM32H7xx_HAL_Driver/Src/stm32h7xx_hal_spi.c ****       case HAL_SPI_ERROR_CB_ID :
 580:./Libraries/STM32H7xx_HAL_Driver/Src/stm32h7xx_hal_spi.c ****         hspi->ErrorCallback = pCallback;
 581:./Libraries/STM32H7xx_HAL_Driver/Src/stm32h7xx_hal_spi.c ****         break;
 582:./Libraries/STM32H7xx_HAL_Driver/Src/stm32h7xx_hal_spi.c **** 
 583:./Libraries/STM32H7xx_HAL_Driver/Src/stm32h7xx_hal_spi.c ****       case HAL_SPI_ABORT_CB_ID :
 584:./Libraries/STM32H7xx_HAL_Driver/Src/stm32h7xx_hal_spi.c ****         hspi->AbortCpltCallback = pCallback;
 585:./Libraries/STM32H7xx_HAL_Driver/Src/stm32h7xx_hal_spi.c ****         break;
 586:./Libraries/STM32H7xx_HAL_Driver/Src/stm32h7xx_hal_spi.c **** 
 587:./Libraries/STM32H7xx_HAL_Driver/Src/stm32h7xx_hal_spi.c ****       case HAL_SPI_MSPINIT_CB_ID :
 588:./Libraries/STM32H7xx_HAL_Driver/Src/stm32h7xx_hal_spi.c ****         hspi->MspInitCallback = pCallback;
 589:./Libraries/STM32H7xx_HAL_Driver/Src/stm32h7xx_hal_spi.c ****         break;
 590:./Libraries/STM32H7xx_HAL_Driver/Src/stm32h7xx_hal_spi.c **** 
 591:./Libraries/STM32H7xx_HAL_Driver/Src/stm32h7xx_hal_spi.c ****       case HAL_SPI_MSPDEINIT_CB_ID :
 592:./Libraries/STM32H7xx_HAL_Driver/Src/stm32h7xx_hal_spi.c ****         hspi->MspDeInitCallback = pCallback;
 593:./Libraries/STM32H7xx_HAL_Driver/Src/stm32h7xx_hal_spi.c ****         break;
 594:./Libraries/STM32H7xx_HAL_Driver/Src/stm32h7xx_hal_spi.c **** 
 595:./Libraries/STM32H7xx_HAL_Driver/Src/stm32h7xx_hal_spi.c ****       default :
 596:./Libraries/STM32H7xx_HAL_Driver/Src/stm32h7xx_hal_spi.c ****         /* Update the error code */
 597:./Libraries/STM32H7xx_HAL_Driver/Src/stm32h7xx_hal_spi.c ****         SET_BIT(hspi->ErrorCode, HAL_SPI_ERROR_INVALID_CALLBACK);
 598:./Libraries/STM32H7xx_HAL_Driver/Src/stm32h7xx_hal_spi.c **** 
 599:./Libraries/STM32H7xx_HAL_Driver/Src/stm32h7xx_hal_spi.c ****         /* Return error status */
 600:./Libraries/STM32H7xx_HAL_Driver/Src/stm32h7xx_hal_spi.c ****         status =  HAL_ERROR;
 601:./Libraries/STM32H7xx_HAL_Driver/Src/stm32h7xx_hal_spi.c ****         break;
 602:./Libraries/STM32H7xx_HAL_Driver/Src/stm32h7xx_hal_spi.c ****     }
 603:./Libraries/STM32H7xx_HAL_Driver/Src/stm32h7xx_hal_spi.c ****   }
 604:./Libraries/STM32H7xx_HAL_Driver/Src/stm32h7xx_hal_spi.c ****   else if (HAL_SPI_STATE_RESET == hspi->State)
 605:./Libraries/STM32H7xx_HAL_Driver/Src/stm32h7xx_hal_spi.c ****   {
 606:./Libraries/STM32H7xx_HAL_Driver/Src/stm32h7xx_hal_spi.c ****     switch (CallbackID)
 607:./Libraries/STM32H7xx_HAL_Driver/Src/stm32h7xx_hal_spi.c ****     {
 608:./Libraries/STM32H7xx_HAL_Driver/Src/stm32h7xx_hal_spi.c ****       case HAL_SPI_MSPINIT_CB_ID :
 609:./Libraries/STM32H7xx_HAL_Driver/Src/stm32h7xx_hal_spi.c ****         hspi->MspInitCallback = pCallback;
 610:./Libraries/STM32H7xx_HAL_Driver/Src/stm32h7xx_hal_spi.c ****         break;
 611:./Libraries/STM32H7xx_HAL_Driver/Src/stm32h7xx_hal_spi.c **** 
 612:./Libraries/STM32H7xx_HAL_Driver/Src/stm32h7xx_hal_spi.c ****       case HAL_SPI_MSPDEINIT_CB_ID :
 613:./Libraries/STM32H7xx_HAL_Driver/Src/stm32h7xx_hal_spi.c ****         hspi->MspDeInitCallback = pCallback;
 614:./Libraries/STM32H7xx_HAL_Driver/Src/stm32h7xx_hal_spi.c ****         break;
 615:./Libraries/STM32H7xx_HAL_Driver/Src/stm32h7xx_hal_spi.c **** 
 616:./Libraries/STM32H7xx_HAL_Driver/Src/stm32h7xx_hal_spi.c ****       default :
 617:./Libraries/STM32H7xx_HAL_Driver/Src/stm32h7xx_hal_spi.c ****         /* Update the error code */
 618:./Libraries/STM32H7xx_HAL_Driver/Src/stm32h7xx_hal_spi.c ****         SET_BIT(hspi->ErrorCode, HAL_SPI_ERROR_INVALID_CALLBACK);
 619:./Libraries/STM32H7xx_HAL_Driver/Src/stm32h7xx_hal_spi.c **** 
 620:./Libraries/STM32H7xx_HAL_Driver/Src/stm32h7xx_hal_spi.c ****         /* Return error status */
 621:./Libraries/STM32H7xx_HAL_Driver/Src/stm32h7xx_hal_spi.c ****         status =  HAL_ERROR;
ARM GAS  /tmp/ccwjY1CM.s 			page 21


 622:./Libraries/STM32H7xx_HAL_Driver/Src/stm32h7xx_hal_spi.c ****         break;
 623:./Libraries/STM32H7xx_HAL_Driver/Src/stm32h7xx_hal_spi.c ****     }
 624:./Libraries/STM32H7xx_HAL_Driver/Src/stm32h7xx_hal_spi.c ****   }
 625:./Libraries/STM32H7xx_HAL_Driver/Src/stm32h7xx_hal_spi.c ****   else
 626:./Libraries/STM32H7xx_HAL_Driver/Src/stm32h7xx_hal_spi.c ****   {
 627:./Libraries/STM32H7xx_HAL_Driver/Src/stm32h7xx_hal_spi.c ****     /* Update the error code */
 628:./Libraries/STM32H7xx_HAL_Driver/Src/stm32h7xx_hal_spi.c ****     SET_BIT(hspi->ErrorCode, HAL_SPI_ERROR_INVALID_CALLBACK);
 629:./Libraries/STM32H7xx_HAL_Driver/Src/stm32h7xx_hal_spi.c **** 
 630:./Libraries/STM32H7xx_HAL_Driver/Src/stm32h7xx_hal_spi.c ****     /* Return error status */
 631:./Libraries/STM32H7xx_HAL_Driver/Src/stm32h7xx_hal_spi.c ****     status =  HAL_ERROR;
 632:./Libraries/STM32H7xx_HAL_Driver/Src/stm32h7xx_hal_spi.c ****   }
 633:./Libraries/STM32H7xx_HAL_Driver/Src/stm32h7xx_hal_spi.c **** 
 634:./Libraries/STM32H7xx_HAL_Driver/Src/stm32h7xx_hal_spi.c ****   /* Release Lock */
 635:./Libraries/STM32H7xx_HAL_Driver/Src/stm32h7xx_hal_spi.c ****   __HAL_UNLOCK(hspi);
 636:./Libraries/STM32H7xx_HAL_Driver/Src/stm32h7xx_hal_spi.c ****   return status;
 637:./Libraries/STM32H7xx_HAL_Driver/Src/stm32h7xx_hal_spi.c **** }
 638:./Libraries/STM32H7xx_HAL_Driver/Src/stm32h7xx_hal_spi.c **** 
 639:./Libraries/STM32H7xx_HAL_Driver/Src/stm32h7xx_hal_spi.c **** /**
 640:./Libraries/STM32H7xx_HAL_Driver/Src/stm32h7xx_hal_spi.c ****   * @brief  Unregister an SPI Callback
 641:./Libraries/STM32H7xx_HAL_Driver/Src/stm32h7xx_hal_spi.c ****   *         SPI callback is redirected to the weak predefined callback
 642:./Libraries/STM32H7xx_HAL_Driver/Src/stm32h7xx_hal_spi.c ****   * @param  hspi Pointer to a SPI_HandleTypeDef structure that contains
 643:./Libraries/STM32H7xx_HAL_Driver/Src/stm32h7xx_hal_spi.c ****   *                the configuration information for the specified SPI.
 644:./Libraries/STM32H7xx_HAL_Driver/Src/stm32h7xx_hal_spi.c ****   * @param  CallbackID ID of the callback to be unregistered
 645:./Libraries/STM32H7xx_HAL_Driver/Src/stm32h7xx_hal_spi.c ****   * @retval HAL status
 646:./Libraries/STM32H7xx_HAL_Driver/Src/stm32h7xx_hal_spi.c ****   */
 647:./Libraries/STM32H7xx_HAL_Driver/Src/stm32h7xx_hal_spi.c **** HAL_StatusTypeDef HAL_SPI_UnRegisterCallback(SPI_HandleTypeDef *hspi, HAL_SPI_CallbackIDTypeDef Cal
 648:./Libraries/STM32H7xx_HAL_Driver/Src/stm32h7xx_hal_spi.c **** {
 649:./Libraries/STM32H7xx_HAL_Driver/Src/stm32h7xx_hal_spi.c ****   HAL_StatusTypeDef status = HAL_OK;
 650:./Libraries/STM32H7xx_HAL_Driver/Src/stm32h7xx_hal_spi.c **** 
 651:./Libraries/STM32H7xx_HAL_Driver/Src/stm32h7xx_hal_spi.c ****   /* Process locked */
 652:./Libraries/STM32H7xx_HAL_Driver/Src/stm32h7xx_hal_spi.c ****   __HAL_LOCK(hspi);
 653:./Libraries/STM32H7xx_HAL_Driver/Src/stm32h7xx_hal_spi.c **** 
 654:./Libraries/STM32H7xx_HAL_Driver/Src/stm32h7xx_hal_spi.c ****   if (HAL_SPI_STATE_READY == hspi->State)
 655:./Libraries/STM32H7xx_HAL_Driver/Src/stm32h7xx_hal_spi.c ****   {
 656:./Libraries/STM32H7xx_HAL_Driver/Src/stm32h7xx_hal_spi.c ****     switch (CallbackID)
 657:./Libraries/STM32H7xx_HAL_Driver/Src/stm32h7xx_hal_spi.c ****     {
 658:./Libraries/STM32H7xx_HAL_Driver/Src/stm32h7xx_hal_spi.c ****       case HAL_SPI_TX_COMPLETE_CB_ID :
 659:./Libraries/STM32H7xx_HAL_Driver/Src/stm32h7xx_hal_spi.c ****         hspi->TxCpltCallback = HAL_SPI_TxCpltCallback;             /* Legacy weak TxCpltCallback   
 660:./Libraries/STM32H7xx_HAL_Driver/Src/stm32h7xx_hal_spi.c ****         break;
 661:./Libraries/STM32H7xx_HAL_Driver/Src/stm32h7xx_hal_spi.c **** 
 662:./Libraries/STM32H7xx_HAL_Driver/Src/stm32h7xx_hal_spi.c ****       case HAL_SPI_RX_COMPLETE_CB_ID :
 663:./Libraries/STM32H7xx_HAL_Driver/Src/stm32h7xx_hal_spi.c ****         hspi->RxCpltCallback = HAL_SPI_RxCpltCallback;             /* Legacy weak RxCpltCallback   
 664:./Libraries/STM32H7xx_HAL_Driver/Src/stm32h7xx_hal_spi.c ****         break;
 665:./Libraries/STM32H7xx_HAL_Driver/Src/stm32h7xx_hal_spi.c **** 
 666:./Libraries/STM32H7xx_HAL_Driver/Src/stm32h7xx_hal_spi.c ****       case HAL_SPI_TX_RX_COMPLETE_CB_ID :
 667:./Libraries/STM32H7xx_HAL_Driver/Src/stm32h7xx_hal_spi.c ****         hspi->TxRxCpltCallback = HAL_SPI_TxRxCpltCallback;         /* Legacy weak TxRxCpltCallback 
 668:./Libraries/STM32H7xx_HAL_Driver/Src/stm32h7xx_hal_spi.c ****         break;
 669:./Libraries/STM32H7xx_HAL_Driver/Src/stm32h7xx_hal_spi.c **** 
 670:./Libraries/STM32H7xx_HAL_Driver/Src/stm32h7xx_hal_spi.c ****       case HAL_SPI_TX_HALF_COMPLETE_CB_ID :
 671:./Libraries/STM32H7xx_HAL_Driver/Src/stm32h7xx_hal_spi.c ****         hspi->TxHalfCpltCallback = HAL_SPI_TxHalfCpltCallback;     /* Legacy weak TxHalfCpltCallbac
 672:./Libraries/STM32H7xx_HAL_Driver/Src/stm32h7xx_hal_spi.c ****         break;
 673:./Libraries/STM32H7xx_HAL_Driver/Src/stm32h7xx_hal_spi.c **** 
 674:./Libraries/STM32H7xx_HAL_Driver/Src/stm32h7xx_hal_spi.c ****       case HAL_SPI_RX_HALF_COMPLETE_CB_ID :
 675:./Libraries/STM32H7xx_HAL_Driver/Src/stm32h7xx_hal_spi.c ****         hspi->RxHalfCpltCallback = HAL_SPI_RxHalfCpltCallback;     /* Legacy weak RxHalfCpltCallbac
 676:./Libraries/STM32H7xx_HAL_Driver/Src/stm32h7xx_hal_spi.c ****         break;
 677:./Libraries/STM32H7xx_HAL_Driver/Src/stm32h7xx_hal_spi.c **** 
 678:./Libraries/STM32H7xx_HAL_Driver/Src/stm32h7xx_hal_spi.c ****       case HAL_SPI_TX_RX_HALF_COMPLETE_CB_ID :
ARM GAS  /tmp/ccwjY1CM.s 			page 22


 679:./Libraries/STM32H7xx_HAL_Driver/Src/stm32h7xx_hal_spi.c ****         hspi->TxRxHalfCpltCallback = HAL_SPI_TxRxHalfCpltCallback; /* Legacy weak TxRxHalfCpltCallb
 680:./Libraries/STM32H7xx_HAL_Driver/Src/stm32h7xx_hal_spi.c ****         break;
 681:./Libraries/STM32H7xx_HAL_Driver/Src/stm32h7xx_hal_spi.c **** 
 682:./Libraries/STM32H7xx_HAL_Driver/Src/stm32h7xx_hal_spi.c ****       case HAL_SPI_ERROR_CB_ID :
 683:./Libraries/STM32H7xx_HAL_Driver/Src/stm32h7xx_hal_spi.c ****         hspi->ErrorCallback = HAL_SPI_ErrorCallback;               /* Legacy weak ErrorCallback    
 684:./Libraries/STM32H7xx_HAL_Driver/Src/stm32h7xx_hal_spi.c ****         break;
 685:./Libraries/STM32H7xx_HAL_Driver/Src/stm32h7xx_hal_spi.c **** 
 686:./Libraries/STM32H7xx_HAL_Driver/Src/stm32h7xx_hal_spi.c ****       case HAL_SPI_ABORT_CB_ID :
 687:./Libraries/STM32H7xx_HAL_Driver/Src/stm32h7xx_hal_spi.c ****         hspi->AbortCpltCallback = HAL_SPI_AbortCpltCallback;       /* Legacy weak AbortCpltCallback
 688:./Libraries/STM32H7xx_HAL_Driver/Src/stm32h7xx_hal_spi.c ****         break;
 689:./Libraries/STM32H7xx_HAL_Driver/Src/stm32h7xx_hal_spi.c **** 
 690:./Libraries/STM32H7xx_HAL_Driver/Src/stm32h7xx_hal_spi.c ****       case HAL_SPI_MSPINIT_CB_ID :
 691:./Libraries/STM32H7xx_HAL_Driver/Src/stm32h7xx_hal_spi.c ****         hspi->MspInitCallback = HAL_SPI_MspInit;                   /* Legacy weak MspInit          
 692:./Libraries/STM32H7xx_HAL_Driver/Src/stm32h7xx_hal_spi.c ****         break;
 693:./Libraries/STM32H7xx_HAL_Driver/Src/stm32h7xx_hal_spi.c **** 
 694:./Libraries/STM32H7xx_HAL_Driver/Src/stm32h7xx_hal_spi.c ****       case HAL_SPI_MSPDEINIT_CB_ID :
 695:./Libraries/STM32H7xx_HAL_Driver/Src/stm32h7xx_hal_spi.c ****         hspi->MspDeInitCallback = HAL_SPI_MspDeInit;               /* Legacy weak MspDeInit        
 696:./Libraries/STM32H7xx_HAL_Driver/Src/stm32h7xx_hal_spi.c ****         break;
 697:./Libraries/STM32H7xx_HAL_Driver/Src/stm32h7xx_hal_spi.c **** 
 698:./Libraries/STM32H7xx_HAL_Driver/Src/stm32h7xx_hal_spi.c ****       default :
 699:./Libraries/STM32H7xx_HAL_Driver/Src/stm32h7xx_hal_spi.c ****         /* Update the error code */
 700:./Libraries/STM32H7xx_HAL_Driver/Src/stm32h7xx_hal_spi.c ****         SET_BIT(hspi->ErrorCode, HAL_SPI_ERROR_INVALID_CALLBACK);
 701:./Libraries/STM32H7xx_HAL_Driver/Src/stm32h7xx_hal_spi.c **** 
 702:./Libraries/STM32H7xx_HAL_Driver/Src/stm32h7xx_hal_spi.c ****         /* Return error status */
 703:./Libraries/STM32H7xx_HAL_Driver/Src/stm32h7xx_hal_spi.c ****         status =  HAL_ERROR;
 704:./Libraries/STM32H7xx_HAL_Driver/Src/stm32h7xx_hal_spi.c ****         break;
 705:./Libraries/STM32H7xx_HAL_Driver/Src/stm32h7xx_hal_spi.c ****     }
 706:./Libraries/STM32H7xx_HAL_Driver/Src/stm32h7xx_hal_spi.c ****   }
 707:./Libraries/STM32H7xx_HAL_Driver/Src/stm32h7xx_hal_spi.c ****   else if (HAL_SPI_STATE_RESET == hspi->State)
 708:./Libraries/STM32H7xx_HAL_Driver/Src/stm32h7xx_hal_spi.c ****   {
 709:./Libraries/STM32H7xx_HAL_Driver/Src/stm32h7xx_hal_spi.c ****     switch (CallbackID)
 710:./Libraries/STM32H7xx_HAL_Driver/Src/stm32h7xx_hal_spi.c ****     {
 711:./Libraries/STM32H7xx_HAL_Driver/Src/stm32h7xx_hal_spi.c ****       case HAL_SPI_MSPINIT_CB_ID :
 712:./Libraries/STM32H7xx_HAL_Driver/Src/stm32h7xx_hal_spi.c ****         hspi->MspInitCallback = HAL_SPI_MspInit;                   /* Legacy weak MspInit          
 713:./Libraries/STM32H7xx_HAL_Driver/Src/stm32h7xx_hal_spi.c ****         break;
 714:./Libraries/STM32H7xx_HAL_Driver/Src/stm32h7xx_hal_spi.c **** 
 715:./Libraries/STM32H7xx_HAL_Driver/Src/stm32h7xx_hal_spi.c ****       case HAL_SPI_MSPDEINIT_CB_ID :
 716:./Libraries/STM32H7xx_HAL_Driver/Src/stm32h7xx_hal_spi.c ****         hspi->MspDeInitCallback = HAL_SPI_MspDeInit;               /* Legacy weak MspDeInit        
 717:./Libraries/STM32H7xx_HAL_Driver/Src/stm32h7xx_hal_spi.c ****         break;
 718:./Libraries/STM32H7xx_HAL_Driver/Src/stm32h7xx_hal_spi.c **** 
 719:./Libraries/STM32H7xx_HAL_Driver/Src/stm32h7xx_hal_spi.c ****       default :
 720:./Libraries/STM32H7xx_HAL_Driver/Src/stm32h7xx_hal_spi.c ****         /* Update the error code */
 721:./Libraries/STM32H7xx_HAL_Driver/Src/stm32h7xx_hal_spi.c ****         SET_BIT(hspi->ErrorCode, HAL_SPI_ERROR_INVALID_CALLBACK);
 722:./Libraries/STM32H7xx_HAL_Driver/Src/stm32h7xx_hal_spi.c **** 
 723:./Libraries/STM32H7xx_HAL_Driver/Src/stm32h7xx_hal_spi.c ****         /* Return error status */
 724:./Libraries/STM32H7xx_HAL_Driver/Src/stm32h7xx_hal_spi.c ****         status =  HAL_ERROR;
 725:./Libraries/STM32H7xx_HAL_Driver/Src/stm32h7xx_hal_spi.c ****         break;
 726:./Libraries/STM32H7xx_HAL_Driver/Src/stm32h7xx_hal_spi.c ****     }
 727:./Libraries/STM32H7xx_HAL_Driver/Src/stm32h7xx_hal_spi.c ****   }
 728:./Libraries/STM32H7xx_HAL_Driver/Src/stm32h7xx_hal_spi.c ****   else
 729:./Libraries/STM32H7xx_HAL_Driver/Src/stm32h7xx_hal_spi.c ****   {
 730:./Libraries/STM32H7xx_HAL_Driver/Src/stm32h7xx_hal_spi.c ****     /* Update the error code */
 731:./Libraries/STM32H7xx_HAL_Driver/Src/stm32h7xx_hal_spi.c ****     SET_BIT(hspi->ErrorCode, HAL_SPI_ERROR_INVALID_CALLBACK);
 732:./Libraries/STM32H7xx_HAL_Driver/Src/stm32h7xx_hal_spi.c **** 
 733:./Libraries/STM32H7xx_HAL_Driver/Src/stm32h7xx_hal_spi.c ****     /* Return error status */
 734:./Libraries/STM32H7xx_HAL_Driver/Src/stm32h7xx_hal_spi.c ****     status =  HAL_ERROR;
 735:./Libraries/STM32H7xx_HAL_Driver/Src/stm32h7xx_hal_spi.c ****   }
ARM GAS  /tmp/ccwjY1CM.s 			page 23


 736:./Libraries/STM32H7xx_HAL_Driver/Src/stm32h7xx_hal_spi.c **** 
 737:./Libraries/STM32H7xx_HAL_Driver/Src/stm32h7xx_hal_spi.c ****   /* Release Lock */
 738:./Libraries/STM32H7xx_HAL_Driver/Src/stm32h7xx_hal_spi.c ****   __HAL_UNLOCK(hspi);
 739:./Libraries/STM32H7xx_HAL_Driver/Src/stm32h7xx_hal_spi.c ****   return status;
 740:./Libraries/STM32H7xx_HAL_Driver/Src/stm32h7xx_hal_spi.c **** }
 741:./Libraries/STM32H7xx_HAL_Driver/Src/stm32h7xx_hal_spi.c **** #endif /* USE_HAL_SPI_REGISTER_CALLBACKS */
 742:./Libraries/STM32H7xx_HAL_Driver/Src/stm32h7xx_hal_spi.c **** /**
 743:./Libraries/STM32H7xx_HAL_Driver/Src/stm32h7xx_hal_spi.c ****   * @}
 744:./Libraries/STM32H7xx_HAL_Driver/Src/stm32h7xx_hal_spi.c ****   */
 745:./Libraries/STM32H7xx_HAL_Driver/Src/stm32h7xx_hal_spi.c **** 
 746:./Libraries/STM32H7xx_HAL_Driver/Src/stm32h7xx_hal_spi.c **** /** @defgroup SPI_Exported_Functions_Group2 IO operation functions
 747:./Libraries/STM32H7xx_HAL_Driver/Src/stm32h7xx_hal_spi.c ****  *  @brief   Data transfers functions
 748:./Libraries/STM32H7xx_HAL_Driver/Src/stm32h7xx_hal_spi.c ****  *
 749:./Libraries/STM32H7xx_HAL_Driver/Src/stm32h7xx_hal_spi.c **** @verbatim
 750:./Libraries/STM32H7xx_HAL_Driver/Src/stm32h7xx_hal_spi.c ****   ==============================================================================
 751:./Libraries/STM32H7xx_HAL_Driver/Src/stm32h7xx_hal_spi.c ****                       ##### IO operation functions #####
 752:./Libraries/STM32H7xx_HAL_Driver/Src/stm32h7xx_hal_spi.c ****  ===============================================================================
 753:./Libraries/STM32H7xx_HAL_Driver/Src/stm32h7xx_hal_spi.c ****  [..]
 754:./Libraries/STM32H7xx_HAL_Driver/Src/stm32h7xx_hal_spi.c ****     This subsection provides a set of functions allowing to manage the SPI
 755:./Libraries/STM32H7xx_HAL_Driver/Src/stm32h7xx_hal_spi.c ****     data transfers.
 756:./Libraries/STM32H7xx_HAL_Driver/Src/stm32h7xx_hal_spi.c **** 
 757:./Libraries/STM32H7xx_HAL_Driver/Src/stm32h7xx_hal_spi.c ****     [..] The SPI supports master and slave mode :
 758:./Libraries/STM32H7xx_HAL_Driver/Src/stm32h7xx_hal_spi.c **** 
 759:./Libraries/STM32H7xx_HAL_Driver/Src/stm32h7xx_hal_spi.c ****     (#) There are two modes of transfer:
 760:./Libraries/STM32H7xx_HAL_Driver/Src/stm32h7xx_hal_spi.c ****        (##) Blocking mode: The communication is performed in polling mode.
 761:./Libraries/STM32H7xx_HAL_Driver/Src/stm32h7xx_hal_spi.c ****             The HAL status of all data processing is returned by the same function
 762:./Libraries/STM32H7xx_HAL_Driver/Src/stm32h7xx_hal_spi.c ****             after finishing transfer.
 763:./Libraries/STM32H7xx_HAL_Driver/Src/stm32h7xx_hal_spi.c ****        (##) No-Blocking mode: The communication is performed using Interrupts
 764:./Libraries/STM32H7xx_HAL_Driver/Src/stm32h7xx_hal_spi.c ****             or DMA, These APIs return the HAL status.
 765:./Libraries/STM32H7xx_HAL_Driver/Src/stm32h7xx_hal_spi.c ****             The end of the data processing will be indicated through the
 766:./Libraries/STM32H7xx_HAL_Driver/Src/stm32h7xx_hal_spi.c ****             dedicated SPI IRQ when using Interrupt mode or the DMA IRQ when
 767:./Libraries/STM32H7xx_HAL_Driver/Src/stm32h7xx_hal_spi.c ****             using DMA mode.
 768:./Libraries/STM32H7xx_HAL_Driver/Src/stm32h7xx_hal_spi.c ****             The HAL_SPI_TxCpltCallback(), HAL_SPI_RxCpltCallback() and HAL_SPI_TxRxCpltCallback() u
 769:./Libraries/STM32H7xx_HAL_Driver/Src/stm32h7xx_hal_spi.c ****             will be executed respectively at the end of the transmit or Receive process
 770:./Libraries/STM32H7xx_HAL_Driver/Src/stm32h7xx_hal_spi.c ****             The HAL_SPI_ErrorCallback()user callback will be executed when a communication error is
 771:./Libraries/STM32H7xx_HAL_Driver/Src/stm32h7xx_hal_spi.c **** 
 772:./Libraries/STM32H7xx_HAL_Driver/Src/stm32h7xx_hal_spi.c ****     (#) APIs provided for these 2 transfer modes (Blocking mode or Non blocking mode using either I
 773:./Libraries/STM32H7xx_HAL_Driver/Src/stm32h7xx_hal_spi.c ****         exist for 1Line (simplex) and 2Lines (full duplex) modes.
 774:./Libraries/STM32H7xx_HAL_Driver/Src/stm32h7xx_hal_spi.c **** 
 775:./Libraries/STM32H7xx_HAL_Driver/Src/stm32h7xx_hal_spi.c **** @endverbatim
 776:./Libraries/STM32H7xx_HAL_Driver/Src/stm32h7xx_hal_spi.c ****   * @{
 777:./Libraries/STM32H7xx_HAL_Driver/Src/stm32h7xx_hal_spi.c ****   */
 778:./Libraries/STM32H7xx_HAL_Driver/Src/stm32h7xx_hal_spi.c **** 
 779:./Libraries/STM32H7xx_HAL_Driver/Src/stm32h7xx_hal_spi.c **** /**
 780:./Libraries/STM32H7xx_HAL_Driver/Src/stm32h7xx_hal_spi.c ****   * @brief  Transmit an amount of data in blocking mode.
 781:./Libraries/STM32H7xx_HAL_Driver/Src/stm32h7xx_hal_spi.c ****   * @param  hspi   : pointer to a SPI_HandleTypeDef structure that contains
 782:./Libraries/STM32H7xx_HAL_Driver/Src/stm32h7xx_hal_spi.c ****   *                  the configuration information for SPI module.
 783:./Libraries/STM32H7xx_HAL_Driver/Src/stm32h7xx_hal_spi.c ****   * @param  pData  : pointer to data buffer
 784:./Libraries/STM32H7xx_HAL_Driver/Src/stm32h7xx_hal_spi.c ****   * @param  Size   : amount of data to be sent
 785:./Libraries/STM32H7xx_HAL_Driver/Src/stm32h7xx_hal_spi.c ****   * @param  Timeout: Timeout duration
 786:./Libraries/STM32H7xx_HAL_Driver/Src/stm32h7xx_hal_spi.c ****   * @retval HAL status
 787:./Libraries/STM32H7xx_HAL_Driver/Src/stm32h7xx_hal_spi.c ****   */
 788:./Libraries/STM32H7xx_HAL_Driver/Src/stm32h7xx_hal_spi.c **** HAL_StatusTypeDef HAL_SPI_Transmit(SPI_HandleTypeDef *hspi, uint8_t *pData, uint16_t Size, uint32_t
 789:./Libraries/STM32H7xx_HAL_Driver/Src/stm32h7xx_hal_spi.c **** {
 527              		.loc 1 789 1
 528              		.cfi_startproc
 529              		@ args = 0, pretend = 0, frame = 32
ARM GAS  /tmp/ccwjY1CM.s 			page 24


 530              		@ frame_needed = 1, uses_anonymous_args = 0
 531 0000 80B5     		push	{r7, lr}
 532              	.LCFI22:
 533              		.cfi_def_cfa_offset 8
 534              		.cfi_offset 7, -8
 535              		.cfi_offset 14, -4
 536 0002 8AB0     		sub	sp, sp, #40
 537              	.LCFI23:
 538              		.cfi_def_cfa_offset 48
 539 0004 02AF     		add	r7, sp, #8
 540              	.LCFI24:
 541              		.cfi_def_cfa 7, 40
 542 0006 F860     		str	r0, [r7, #12]
 543 0008 B960     		str	r1, [r7, #8]
 544 000a 3B60     		str	r3, [r7]
 545 000c 1346     		mov	r3, r2	@ movhi
 546 000e FB80     		strh	r3, [r7, #6]	@ movhi
 790:./Libraries/STM32H7xx_HAL_Driver/Src/stm32h7xx_hal_spi.c **** #if defined (__GNUC__)
 791:./Libraries/STM32H7xx_HAL_Driver/Src/stm32h7xx_hal_spi.c ****   __IO uint16_t *ptxdr_16bits = (__IO uint16_t *)(&(hspi->Instance->TXDR));
 547              		.loc 1 791 57
 548 0010 FB68     		ldr	r3, [r7, #12]
 549 0012 1B68     		ldr	r3, [r3]
 550              		.loc 1 791 18
 551 0014 2033     		adds	r3, r3, #32
 552 0016 FB61     		str	r3, [r7, #28]
 792:./Libraries/STM32H7xx_HAL_Driver/Src/stm32h7xx_hal_spi.c **** #endif /* __GNUC__ */
 793:./Libraries/STM32H7xx_HAL_Driver/Src/stm32h7xx_hal_spi.c **** 
 794:./Libraries/STM32H7xx_HAL_Driver/Src/stm32h7xx_hal_spi.c ****   uint32_t tickstart;
 795:./Libraries/STM32H7xx_HAL_Driver/Src/stm32h7xx_hal_spi.c ****   HAL_StatusTypeDef errorcode = HAL_OK;
 553              		.loc 1 795 21
 554 0018 0023     		movs	r3, #0
 555 001a FB76     		strb	r3, [r7, #27]
 796:./Libraries/STM32H7xx_HAL_Driver/Src/stm32h7xx_hal_spi.c **** 
 797:./Libraries/STM32H7xx_HAL_Driver/Src/stm32h7xx_hal_spi.c ****   /* Check Direction parameter */
 798:./Libraries/STM32H7xx_HAL_Driver/Src/stm32h7xx_hal_spi.c ****   assert_param(IS_SPI_DIRECTION_2LINES_OR_1LINE_2LINES_TXONLY(hspi->Init.Direction));
 799:./Libraries/STM32H7xx_HAL_Driver/Src/stm32h7xx_hal_spi.c **** 
 800:./Libraries/STM32H7xx_HAL_Driver/Src/stm32h7xx_hal_spi.c ****   /* Process Locked */
 801:./Libraries/STM32H7xx_HAL_Driver/Src/stm32h7xx_hal_spi.c ****   __HAL_LOCK(hspi);
 556              		.loc 1 801 3
 557 001c FB68     		ldr	r3, [r7, #12]
 558 001e 93F88030 		ldrb	r3, [r3, #128]	@ zero_extendqisi2
 559 0022 012B     		cmp	r3, #1
 560 0024 01D1     		bne	.L23
 561              		.loc 1 801 3 is_stmt 0 discriminator 1
 562 0026 0223     		movs	r3, #2
 563 0028 D7E1     		b	.L24
 564              	.L23:
 565              		.loc 1 801 3 discriminator 2
 566 002a FB68     		ldr	r3, [r7, #12]
 567 002c 0122     		movs	r2, #1
 568 002e 83F88020 		strb	r2, [r3, #128]
 802:./Libraries/STM32H7xx_HAL_Driver/Src/stm32h7xx_hal_spi.c **** 
 803:./Libraries/STM32H7xx_HAL_Driver/Src/stm32h7xx_hal_spi.c ****   /* Init tickstart for timeout management*/
 804:./Libraries/STM32H7xx_HAL_Driver/Src/stm32h7xx_hal_spi.c ****   tickstart = HAL_GetTick();
 569              		.loc 1 804 15 is_stmt 1 discriminator 2
 570 0032 FFF7FEFF 		bl	HAL_GetTick
 571 0036 7861     		str	r0, [r7, #20]
ARM GAS  /tmp/ccwjY1CM.s 			page 25


 805:./Libraries/STM32H7xx_HAL_Driver/Src/stm32h7xx_hal_spi.c **** 
 806:./Libraries/STM32H7xx_HAL_Driver/Src/stm32h7xx_hal_spi.c ****   if (hspi->State != HAL_SPI_STATE_READY)
 572              		.loc 1 806 11 discriminator 2
 573 0038 FB68     		ldr	r3, [r7, #12]
 574 003a 93F88130 		ldrb	r3, [r3, #129]
 575 003e DBB2     		uxtb	r3, r3
 576              		.loc 1 806 6 discriminator 2
 577 0040 012B     		cmp	r3, #1
 578 0042 07D0     		beq	.L25
 807:./Libraries/STM32H7xx_HAL_Driver/Src/stm32h7xx_hal_spi.c ****   {
 808:./Libraries/STM32H7xx_HAL_Driver/Src/stm32h7xx_hal_spi.c ****     errorcode = HAL_BUSY;
 579              		.loc 1 808 15
 580 0044 0223     		movs	r3, #2
 581 0046 FB76     		strb	r3, [r7, #27]
 809:./Libraries/STM32H7xx_HAL_Driver/Src/stm32h7xx_hal_spi.c ****     __HAL_UNLOCK(hspi);
 582              		.loc 1 809 5
 583 0048 FB68     		ldr	r3, [r7, #12]
 584 004a 0022     		movs	r2, #0
 585 004c 83F88020 		strb	r2, [r3, #128]
 810:./Libraries/STM32H7xx_HAL_Driver/Src/stm32h7xx_hal_spi.c ****     return errorcode;
 586              		.loc 1 810 12
 587 0050 FB7E     		ldrb	r3, [r7, #27]	@ zero_extendqisi2
 588 0052 C2E1     		b	.L24
 589              	.L25:
 811:./Libraries/STM32H7xx_HAL_Driver/Src/stm32h7xx_hal_spi.c ****   }
 812:./Libraries/STM32H7xx_HAL_Driver/Src/stm32h7xx_hal_spi.c **** 
 813:./Libraries/STM32H7xx_HAL_Driver/Src/stm32h7xx_hal_spi.c ****   if ((pData == NULL) || (Size == 0UL))
 590              		.loc 1 813 6
 591 0054 BB68     		ldr	r3, [r7, #8]
 592 0056 002B     		cmp	r3, #0
 593 0058 02D0     		beq	.L26
 594              		.loc 1 813 23 discriminator 1
 595 005a FB88     		ldrh	r3, [r7, #6]
 596 005c 002B     		cmp	r3, #0
 597 005e 07D1     		bne	.L27
 598              	.L26:
 814:./Libraries/STM32H7xx_HAL_Driver/Src/stm32h7xx_hal_spi.c ****   {
 815:./Libraries/STM32H7xx_HAL_Driver/Src/stm32h7xx_hal_spi.c ****     errorcode = HAL_ERROR;
 599              		.loc 1 815 15
 600 0060 0123     		movs	r3, #1
 601 0062 FB76     		strb	r3, [r7, #27]
 816:./Libraries/STM32H7xx_HAL_Driver/Src/stm32h7xx_hal_spi.c ****     __HAL_UNLOCK(hspi);
 602              		.loc 1 816 5
 603 0064 FB68     		ldr	r3, [r7, #12]
 604 0066 0022     		movs	r2, #0
 605 0068 83F88020 		strb	r2, [r3, #128]
 817:./Libraries/STM32H7xx_HAL_Driver/Src/stm32h7xx_hal_spi.c ****     return errorcode;
 606              		.loc 1 817 12
 607 006c FB7E     		ldrb	r3, [r7, #27]	@ zero_extendqisi2
 608 006e B4E1     		b	.L24
 609              	.L27:
 818:./Libraries/STM32H7xx_HAL_Driver/Src/stm32h7xx_hal_spi.c ****   }
 819:./Libraries/STM32H7xx_HAL_Driver/Src/stm32h7xx_hal_spi.c **** 
 820:./Libraries/STM32H7xx_HAL_Driver/Src/stm32h7xx_hal_spi.c ****   /* Set the transaction information */
 821:./Libraries/STM32H7xx_HAL_Driver/Src/stm32h7xx_hal_spi.c ****   hspi->State       = HAL_SPI_STATE_BUSY_TX;
 610              		.loc 1 821 21
 611 0070 FB68     		ldr	r3, [r7, #12]
ARM GAS  /tmp/ccwjY1CM.s 			page 26


 612 0072 0322     		movs	r2, #3
 613 0074 83F88120 		strb	r2, [r3, #129]
 822:./Libraries/STM32H7xx_HAL_Driver/Src/stm32h7xx_hal_spi.c ****   hspi->ErrorCode   = HAL_SPI_ERROR_NONE;
 614              		.loc 1 822 21
 615 0078 FB68     		ldr	r3, [r7, #12]
 616 007a 0022     		movs	r2, #0
 617 007c C3F88420 		str	r2, [r3, #132]
 823:./Libraries/STM32H7xx_HAL_Driver/Src/stm32h7xx_hal_spi.c ****   hspi->pTxBuffPtr  = (uint8_t *)pData;
 618              		.loc 1 823 21
 619 0080 FB68     		ldr	r3, [r7, #12]
 620 0082 BA68     		ldr	r2, [r7, #8]
 621 0084 DA65     		str	r2, [r3, #92]
 824:./Libraries/STM32H7xx_HAL_Driver/Src/stm32h7xx_hal_spi.c ****   hspi->TxXferSize  = Size;
 622              		.loc 1 824 21
 623 0086 FB68     		ldr	r3, [r7, #12]
 624 0088 FA88     		ldrh	r2, [r7, #6]	@ movhi
 625 008a A3F86020 		strh	r2, [r3, #96]	@ movhi
 825:./Libraries/STM32H7xx_HAL_Driver/Src/stm32h7xx_hal_spi.c ****   hspi->TxXferCount = Size;
 626              		.loc 1 825 21
 627 008e FB68     		ldr	r3, [r7, #12]
 628 0090 FA88     		ldrh	r2, [r7, #6]	@ movhi
 629 0092 A3F86220 		strh	r2, [r3, #98]	@ movhi
 826:./Libraries/STM32H7xx_HAL_Driver/Src/stm32h7xx_hal_spi.c **** 
 827:./Libraries/STM32H7xx_HAL_Driver/Src/stm32h7xx_hal_spi.c ****   /*Init field not used in handle to zero */
 828:./Libraries/STM32H7xx_HAL_Driver/Src/stm32h7xx_hal_spi.c ****   hspi->pRxBuffPtr  = NULL;
 630              		.loc 1 828 21
 631 0096 FB68     		ldr	r3, [r7, #12]
 632 0098 0022     		movs	r2, #0
 633 009a 5A66     		str	r2, [r3, #100]
 829:./Libraries/STM32H7xx_HAL_Driver/Src/stm32h7xx_hal_spi.c ****   hspi->RxXferSize  = (uint16_t) 0UL;
 634              		.loc 1 829 21
 635 009c FB68     		ldr	r3, [r7, #12]
 636 009e 0022     		movs	r2, #0
 637 00a0 A3F86820 		strh	r2, [r3, #104]	@ movhi
 830:./Libraries/STM32H7xx_HAL_Driver/Src/stm32h7xx_hal_spi.c ****   hspi->RxXferCount = (uint16_t) 0UL;
 638              		.loc 1 830 21
 639 00a4 FB68     		ldr	r3, [r7, #12]
 640 00a6 0022     		movs	r2, #0
 641 00a8 A3F86A20 		strh	r2, [r3, #106]	@ movhi
 831:./Libraries/STM32H7xx_HAL_Driver/Src/stm32h7xx_hal_spi.c ****   hspi->TxISR       = NULL;
 642              		.loc 1 831 21
 643 00ac FB68     		ldr	r3, [r7, #12]
 644 00ae 0022     		movs	r2, #0
 645 00b0 5A67     		str	r2, [r3, #116]
 832:./Libraries/STM32H7xx_HAL_Driver/Src/stm32h7xx_hal_spi.c ****   hspi->RxISR       = NULL;
 646              		.loc 1 832 21
 647 00b2 FB68     		ldr	r3, [r7, #12]
 648 00b4 0022     		movs	r2, #0
 649 00b6 1A67     		str	r2, [r3, #112]
 833:./Libraries/STM32H7xx_HAL_Driver/Src/stm32h7xx_hal_spi.c **** 
 834:./Libraries/STM32H7xx_HAL_Driver/Src/stm32h7xx_hal_spi.c ****   /* Configure communication direction : 1Line */
 835:./Libraries/STM32H7xx_HAL_Driver/Src/stm32h7xx_hal_spi.c ****   if (hspi->Init.Direction == SPI_DIRECTION_1LINE)
 650              		.loc 1 835 17
 651 00b8 FB68     		ldr	r3, [r7, #12]
 652 00ba 9B68     		ldr	r3, [r3, #8]
 653              		.loc 1 835 6
 654 00bc B3F5C02F 		cmp	r3, #393216
ARM GAS  /tmp/ccwjY1CM.s 			page 27


 655 00c0 07D1     		bne	.L28
 836:./Libraries/STM32H7xx_HAL_Driver/Src/stm32h7xx_hal_spi.c ****   {
 837:./Libraries/STM32H7xx_HAL_Driver/Src/stm32h7xx_hal_spi.c ****     SPI_1LINE_TX(hspi);
 656              		.loc 1 837 5
 657 00c2 FB68     		ldr	r3, [r7, #12]
 658 00c4 1B68     		ldr	r3, [r3]
 659 00c6 1A68     		ldr	r2, [r3]
 660 00c8 FB68     		ldr	r3, [r7, #12]
 661 00ca 1B68     		ldr	r3, [r3]
 662 00cc 42F40062 		orr	r2, r2, #2048
 663 00d0 1A60     		str	r2, [r3]
 664              	.L28:
 838:./Libraries/STM32H7xx_HAL_Driver/Src/stm32h7xx_hal_spi.c ****   }
 839:./Libraries/STM32H7xx_HAL_Driver/Src/stm32h7xx_hal_spi.c **** 
 840:./Libraries/STM32H7xx_HAL_Driver/Src/stm32h7xx_hal_spi.c ****   /* Set the number of data at current transfer */
 841:./Libraries/STM32H7xx_HAL_Driver/Src/stm32h7xx_hal_spi.c ****   MODIFY_REG(hspi->Instance->CR2, SPI_CR2_TSIZE, Size);
 665              		.loc 1 841 3
 666 00d2 FB68     		ldr	r3, [r7, #12]
 667 00d4 1B68     		ldr	r3, [r3]
 668 00d6 5A68     		ldr	r2, [r3, #4]
 669 00d8 964B     		ldr	r3, .L55
 670 00da 1340     		ands	r3, r3, r2
 671 00dc F988     		ldrh	r1, [r7, #6]
 672 00de FA68     		ldr	r2, [r7, #12]
 673 00e0 1268     		ldr	r2, [r2]
 674 00e2 0B43     		orrs	r3, r3, r1
 675 00e4 5360     		str	r3, [r2, #4]
 842:./Libraries/STM32H7xx_HAL_Driver/Src/stm32h7xx_hal_spi.c **** 
 843:./Libraries/STM32H7xx_HAL_Driver/Src/stm32h7xx_hal_spi.c ****   /* Enable SPI peripheral */
 844:./Libraries/STM32H7xx_HAL_Driver/Src/stm32h7xx_hal_spi.c ****   __HAL_SPI_ENABLE(hspi);
 676              		.loc 1 844 3
 677 00e6 FB68     		ldr	r3, [r7, #12]
 678 00e8 1B68     		ldr	r3, [r3]
 679 00ea 1A68     		ldr	r2, [r3]
 680 00ec FB68     		ldr	r3, [r7, #12]
 681 00ee 1B68     		ldr	r3, [r3]
 682 00f0 42F00102 		orr	r2, r2, #1
 683 00f4 1A60     		str	r2, [r3]
 845:./Libraries/STM32H7xx_HAL_Driver/Src/stm32h7xx_hal_spi.c **** 
 846:./Libraries/STM32H7xx_HAL_Driver/Src/stm32h7xx_hal_spi.c ****   if (hspi->Init.Mode == SPI_MODE_MASTER)
 684              		.loc 1 846 17
 685 00f6 FB68     		ldr	r3, [r7, #12]
 686 00f8 5B68     		ldr	r3, [r3, #4]
 687              		.loc 1 846 6
 688 00fa B3F5800F 		cmp	r3, #4194304
 689 00fe 07D1     		bne	.L29
 847:./Libraries/STM32H7xx_HAL_Driver/Src/stm32h7xx_hal_spi.c ****   {
 848:./Libraries/STM32H7xx_HAL_Driver/Src/stm32h7xx_hal_spi.c ****     /* Master transfer start */
 849:./Libraries/STM32H7xx_HAL_Driver/Src/stm32h7xx_hal_spi.c ****     SET_BIT(hspi->Instance->CR1, SPI_CR1_CSTART);
 690              		.loc 1 849 5
 691 0100 FB68     		ldr	r3, [r7, #12]
 692 0102 1B68     		ldr	r3, [r3]
 693 0104 1A68     		ldr	r2, [r3]
 694 0106 FB68     		ldr	r3, [r7, #12]
 695 0108 1B68     		ldr	r3, [r3]
 696 010a 42F40072 		orr	r2, r2, #512
 697 010e 1A60     		str	r2, [r3]
ARM GAS  /tmp/ccwjY1CM.s 			page 28


 698              	.L29:
 850:./Libraries/STM32H7xx_HAL_Driver/Src/stm32h7xx_hal_spi.c ****   }
 851:./Libraries/STM32H7xx_HAL_Driver/Src/stm32h7xx_hal_spi.c **** 
 852:./Libraries/STM32H7xx_HAL_Driver/Src/stm32h7xx_hal_spi.c ****   /* Transmit data in 32 Bit mode */
 853:./Libraries/STM32H7xx_HAL_Driver/Src/stm32h7xx_hal_spi.c ****   if (hspi->Init.DataSize > SPI_DATASIZE_16BIT)
 699              		.loc 1 853 17
 700 0110 FB68     		ldr	r3, [r7, #12]
 701 0112 DB68     		ldr	r3, [r3, #12]
 702              		.loc 1 853 6
 703 0114 0F2B     		cmp	r3, #15
 704 0116 47D9     		bls	.L30
 854:./Libraries/STM32H7xx_HAL_Driver/Src/stm32h7xx_hal_spi.c ****   {
 855:./Libraries/STM32H7xx_HAL_Driver/Src/stm32h7xx_hal_spi.c ****     /* Transmit data in 32 Bit mode */
 856:./Libraries/STM32H7xx_HAL_Driver/Src/stm32h7xx_hal_spi.c ****     while (hspi->TxXferCount > 0UL)
 705              		.loc 1 856 11
 706 0118 3FE0     		b	.L31
 707              	.L35:
 857:./Libraries/STM32H7xx_HAL_Driver/Src/stm32h7xx_hal_spi.c ****     {
 858:./Libraries/STM32H7xx_HAL_Driver/Src/stm32h7xx_hal_spi.c ****       /* Wait until TXP flag is set to send data */
 859:./Libraries/STM32H7xx_HAL_Driver/Src/stm32h7xx_hal_spi.c ****       if (__HAL_SPI_GET_FLAG(hspi, SPI_FLAG_TXP))
 708              		.loc 1 859 11
 709 011a FB68     		ldr	r3, [r7, #12]
 710 011c 1B68     		ldr	r3, [r3]
 711 011e 5B69     		ldr	r3, [r3, #20]
 712 0120 03F00203 		and	r3, r3, #2
 713              		.loc 1 859 10
 714 0124 022B     		cmp	r3, #2
 715 0126 14D1     		bne	.L32
 860:./Libraries/STM32H7xx_HAL_Driver/Src/stm32h7xx_hal_spi.c ****       {
 861:./Libraries/STM32H7xx_HAL_Driver/Src/stm32h7xx_hal_spi.c ****         *((__IO uint32_t *)&hspi->Instance->TXDR) = *((uint32_t *)hspi->pTxBuffPtr);
 716              		.loc 1 861 71
 717 0128 FB68     		ldr	r3, [r7, #12]
 718 012a DA6D     		ldr	r2, [r3, #92]
 719              		.loc 1 861 33
 720 012c FB68     		ldr	r3, [r7, #12]
 721 012e 1B68     		ldr	r3, [r3]
 722              		.loc 1 861 53
 723 0130 1268     		ldr	r2, [r2]
 724              		.loc 1 861 51
 725 0132 1A62     		str	r2, [r3, #32]
 862:./Libraries/STM32H7xx_HAL_Driver/Src/stm32h7xx_hal_spi.c ****         hspi->pTxBuffPtr += sizeof(uint32_t);
 726              		.loc 1 862 26
 727 0134 FB68     		ldr	r3, [r7, #12]
 728 0136 DB6D     		ldr	r3, [r3, #92]
 729 0138 1A1D     		adds	r2, r3, #4
 730 013a FB68     		ldr	r3, [r7, #12]
 731 013c DA65     		str	r2, [r3, #92]
 863:./Libraries/STM32H7xx_HAL_Driver/Src/stm32h7xx_hal_spi.c ****         hspi->TxXferCount--;
 732              		.loc 1 863 13
 733 013e FB68     		ldr	r3, [r7, #12]
 734 0140 B3F86230 		ldrh	r3, [r3, #98]	@ movhi
 735 0144 9BB2     		uxth	r3, r3
 736              		.loc 1 863 26
 737 0146 013B     		subs	r3, r3, #1
 738 0148 9AB2     		uxth	r2, r3
 739 014a FB68     		ldr	r3, [r7, #12]
 740 014c A3F86220 		strh	r2, [r3, #98]	@ movhi
ARM GAS  /tmp/ccwjY1CM.s 			page 29


 741 0150 23E0     		b	.L31
 742              	.L32:
 864:./Libraries/STM32H7xx_HAL_Driver/Src/stm32h7xx_hal_spi.c ****       }
 865:./Libraries/STM32H7xx_HAL_Driver/Src/stm32h7xx_hal_spi.c ****       else
 866:./Libraries/STM32H7xx_HAL_Driver/Src/stm32h7xx_hal_spi.c ****       {
 867:./Libraries/STM32H7xx_HAL_Driver/Src/stm32h7xx_hal_spi.c ****         /* Timeout management */
 868:./Libraries/STM32H7xx_HAL_Driver/Src/stm32h7xx_hal_spi.c ****         if ((((HAL_GetTick() - tickstart) >=  Timeout) && (Timeout != HAL_MAX_DELAY)) || (Timeout =
 743              		.loc 1 868 16
 744 0152 FFF7FEFF 		bl	HAL_GetTick
 745 0156 0246     		mov	r2, r0
 746              		.loc 1 868 30
 747 0158 7B69     		ldr	r3, [r7, #20]
 748 015a D31A     		subs	r3, r2, r3
 749              		.loc 1 868 12
 750 015c 3A68     		ldr	r2, [r7]
 751 015e 9A42     		cmp	r2, r3
 752 0160 03D8     		bhi	.L33
 753              		.loc 1 868 56 discriminator 1
 754 0162 3B68     		ldr	r3, [r7]
 755 0164 B3F1FF3F 		cmp	r3, #-1
 756 0168 02D1     		bne	.L34
 757              	.L33:
 758              		.loc 1 868 87 discriminator 3
 759 016a 3B68     		ldr	r3, [r7]
 760 016c 002B     		cmp	r3, #0
 761 016e 14D1     		bne	.L31
 762              	.L34:
 869:./Libraries/STM32H7xx_HAL_Driver/Src/stm32h7xx_hal_spi.c ****         {
 870:./Libraries/STM32H7xx_HAL_Driver/Src/stm32h7xx_hal_spi.c ****           /* Call standard close procedure with error check */
 871:./Libraries/STM32H7xx_HAL_Driver/Src/stm32h7xx_hal_spi.c ****           SPI_CloseTransfer(hspi);
 763              		.loc 1 871 11
 764 0170 F868     		ldr	r0, [r7, #12]
 765 0172 FFF7FEFF 		bl	SPI_CloseTransfer
 872:./Libraries/STM32H7xx_HAL_Driver/Src/stm32h7xx_hal_spi.c **** 
 873:./Libraries/STM32H7xx_HAL_Driver/Src/stm32h7xx_hal_spi.c ****           /* Process Unlocked */
 874:./Libraries/STM32H7xx_HAL_Driver/Src/stm32h7xx_hal_spi.c ****           __HAL_UNLOCK(hspi);
 766              		.loc 1 874 11
 767 0176 FB68     		ldr	r3, [r7, #12]
 768 0178 0022     		movs	r2, #0
 769 017a 83F88020 		strb	r2, [r3, #128]
 875:./Libraries/STM32H7xx_HAL_Driver/Src/stm32h7xx_hal_spi.c **** 
 876:./Libraries/STM32H7xx_HAL_Driver/Src/stm32h7xx_hal_spi.c ****           SET_BIT(hspi->ErrorCode, HAL_SPI_ERROR_TIMEOUT);
 770              		.loc 1 876 11
 771 017e FB68     		ldr	r3, [r7, #12]
 772 0180 D3F88430 		ldr	r3, [r3, #132]
 773 0184 43F48072 		orr	r2, r3, #256
 774 0188 FB68     		ldr	r3, [r7, #12]
 775 018a C3F88420 		str	r2, [r3, #132]
 877:./Libraries/STM32H7xx_HAL_Driver/Src/stm32h7xx_hal_spi.c ****           hspi->State = HAL_SPI_STATE_READY;
 776              		.loc 1 877 23
 777 018e FB68     		ldr	r3, [r7, #12]
 778 0190 0122     		movs	r2, #1
 779 0192 83F88120 		strb	r2, [r3, #129]
 878:./Libraries/STM32H7xx_HAL_Driver/Src/stm32h7xx_hal_spi.c ****           return HAL_ERROR;
 780              		.loc 1 878 18
 781 0196 0123     		movs	r3, #1
 782 0198 1FE1     		b	.L24
ARM GAS  /tmp/ccwjY1CM.s 			page 30


 783              	.L31:
 856:./Libraries/STM32H7xx_HAL_Driver/Src/stm32h7xx_hal_spi.c ****     {
 784              		.loc 1 856 16
 785 019a FB68     		ldr	r3, [r7, #12]
 786 019c B3F86230 		ldrh	r3, [r3, #98]	@ movhi
 787 01a0 9BB2     		uxth	r3, r3
 856:./Libraries/STM32H7xx_HAL_Driver/Src/stm32h7xx_hal_spi.c ****     {
 788              		.loc 1 856 11
 789 01a2 002B     		cmp	r3, #0
 790 01a4 B9D1     		bne	.L35
 791 01a6 F2E0     		b	.L36
 792              	.L30:
 879:./Libraries/STM32H7xx_HAL_Driver/Src/stm32h7xx_hal_spi.c ****         }
 880:./Libraries/STM32H7xx_HAL_Driver/Src/stm32h7xx_hal_spi.c ****       }
 881:./Libraries/STM32H7xx_HAL_Driver/Src/stm32h7xx_hal_spi.c ****     }
 882:./Libraries/STM32H7xx_HAL_Driver/Src/stm32h7xx_hal_spi.c ****   }
 883:./Libraries/STM32H7xx_HAL_Driver/Src/stm32h7xx_hal_spi.c ****   /* Transmit data in 16 Bit mode */
 884:./Libraries/STM32H7xx_HAL_Driver/Src/stm32h7xx_hal_spi.c ****   else if (hspi->Init.DataSize > SPI_DATASIZE_8BIT)
 793              		.loc 1 884 22
 794 01a8 FB68     		ldr	r3, [r7, #12]
 795 01aa DB68     		ldr	r3, [r3, #12]
 796              		.loc 1 884 11
 797 01ac 072B     		cmp	r3, #7
 798 01ae 40F2E780 		bls	.L45
 885:./Libraries/STM32H7xx_HAL_Driver/Src/stm32h7xx_hal_spi.c ****   {
 886:./Libraries/STM32H7xx_HAL_Driver/Src/stm32h7xx_hal_spi.c ****     /* Transmit data in 16 Bit mode */
 887:./Libraries/STM32H7xx_HAL_Driver/Src/stm32h7xx_hal_spi.c ****     while (hspi->TxXferCount > 0UL)
 799              		.loc 1 887 11
 800 01b2 5DE0     		b	.L38
 801              	.L44:
 888:./Libraries/STM32H7xx_HAL_Driver/Src/stm32h7xx_hal_spi.c ****     {
 889:./Libraries/STM32H7xx_HAL_Driver/Src/stm32h7xx_hal_spi.c ****       /* Wait until TXP flag is set to send data */
 890:./Libraries/STM32H7xx_HAL_Driver/Src/stm32h7xx_hal_spi.c ****       if (__HAL_SPI_GET_FLAG(hspi, SPI_FLAG_TXP))
 802              		.loc 1 890 11
 803 01b4 FB68     		ldr	r3, [r7, #12]
 804 01b6 1B68     		ldr	r3, [r3]
 805 01b8 5B69     		ldr	r3, [r3, #20]
 806 01ba 03F00203 		and	r3, r3, #2
 807              		.loc 1 890 10
 808 01be 022B     		cmp	r3, #2
 809 01c0 32D1     		bne	.L39
 891:./Libraries/STM32H7xx_HAL_Driver/Src/stm32h7xx_hal_spi.c ****       {
 892:./Libraries/STM32H7xx_HAL_Driver/Src/stm32h7xx_hal_spi.c ****         if ((hspi->TxXferCount > 1UL) && (hspi->Init.FifoThreshold > SPI_FIFO_THRESHOLD_01DATA))
 810              		.loc 1 892 18
 811 01c2 FB68     		ldr	r3, [r7, #12]
 812 01c4 B3F86230 		ldrh	r3, [r3, #98]	@ movhi
 813 01c8 9BB2     		uxth	r3, r3
 814              		.loc 1 892 12
 815 01ca 012B     		cmp	r3, #1
 816 01cc 18D9     		bls	.L40
 817              		.loc 1 892 53 discriminator 1
 818 01ce FB68     		ldr	r3, [r7, #12]
 819 01d0 DB6B     		ldr	r3, [r3, #60]
 820              		.loc 1 892 39 discriminator 1
 821 01d2 002B     		cmp	r3, #0
 822 01d4 14D0     		beq	.L40
 893:./Libraries/STM32H7xx_HAL_Driver/Src/stm32h7xx_hal_spi.c ****         {
ARM GAS  /tmp/ccwjY1CM.s 			page 31


 894:./Libraries/STM32H7xx_HAL_Driver/Src/stm32h7xx_hal_spi.c ****           *((__IO uint32_t *)&hspi->Instance->TXDR) = *((uint32_t *)hspi->pTxBuffPtr);
 823              		.loc 1 894 73
 824 01d6 FB68     		ldr	r3, [r7, #12]
 825 01d8 DA6D     		ldr	r2, [r3, #92]
 826              		.loc 1 894 35
 827 01da FB68     		ldr	r3, [r7, #12]
 828 01dc 1B68     		ldr	r3, [r3]
 829              		.loc 1 894 55
 830 01de 1268     		ldr	r2, [r2]
 831              		.loc 1 894 53
 832 01e0 1A62     		str	r2, [r3, #32]
 895:./Libraries/STM32H7xx_HAL_Driver/Src/stm32h7xx_hal_spi.c ****           hspi->pTxBuffPtr += sizeof(uint32_t);
 833              		.loc 1 895 28
 834 01e2 FB68     		ldr	r3, [r7, #12]
 835 01e4 DB6D     		ldr	r3, [r3, #92]
 836 01e6 1A1D     		adds	r2, r3, #4
 837 01e8 FB68     		ldr	r3, [r7, #12]
 838 01ea DA65     		str	r2, [r3, #92]
 896:./Libraries/STM32H7xx_HAL_Driver/Src/stm32h7xx_hal_spi.c ****           hspi->TxXferCount -= (uint16_t)2UL;
 839              		.loc 1 896 29
 840 01ec FB68     		ldr	r3, [r7, #12]
 841 01ee B3F86230 		ldrh	r3, [r3, #98]	@ movhi
 842 01f2 9BB2     		uxth	r3, r3
 843 01f4 023B     		subs	r3, r3, #2
 844 01f6 9AB2     		uxth	r2, r3
 845 01f8 FB68     		ldr	r3, [r7, #12]
 846 01fa A3F86220 		strh	r2, [r3, #98]	@ movhi
 847 01fe 37E0     		b	.L38
 848              	.L40:
 897:./Libraries/STM32H7xx_HAL_Driver/Src/stm32h7xx_hal_spi.c ****         }
 898:./Libraries/STM32H7xx_HAL_Driver/Src/stm32h7xx_hal_spi.c ****         else
 899:./Libraries/STM32H7xx_HAL_Driver/Src/stm32h7xx_hal_spi.c ****         {
 900:./Libraries/STM32H7xx_HAL_Driver/Src/stm32h7xx_hal_spi.c **** #if defined (__GNUC__)
 901:./Libraries/STM32H7xx_HAL_Driver/Src/stm32h7xx_hal_spi.c ****           *ptxdr_16bits = *((uint16_t *)hspi->pTxBuffPtr);
 849              		.loc 1 901 45
 850 0200 FB68     		ldr	r3, [r7, #12]
 851 0202 DB6D     		ldr	r3, [r3, #92]
 852              		.loc 1 901 27
 853 0204 1A88     		ldrh	r2, [r3]
 854              		.loc 1 901 25
 855 0206 FB69     		ldr	r3, [r7, #28]
 856 0208 1A80     		strh	r2, [r3]	@ movhi
 902:./Libraries/STM32H7xx_HAL_Driver/Src/stm32h7xx_hal_spi.c **** #else
 903:./Libraries/STM32H7xx_HAL_Driver/Src/stm32h7xx_hal_spi.c ****           *((__IO uint16_t *)&hspi->Instance->TXDR) = *((uint16_t *)hspi->pTxBuffPtr);
 904:./Libraries/STM32H7xx_HAL_Driver/Src/stm32h7xx_hal_spi.c **** #endif /* __GNUC__ */
 905:./Libraries/STM32H7xx_HAL_Driver/Src/stm32h7xx_hal_spi.c ****           hspi->pTxBuffPtr += sizeof(uint16_t);
 857              		.loc 1 905 28
 858 020a FB68     		ldr	r3, [r7, #12]
 859 020c DB6D     		ldr	r3, [r3, #92]
 860 020e 9A1C     		adds	r2, r3, #2
 861 0210 FB68     		ldr	r3, [r7, #12]
 862 0212 DA65     		str	r2, [r3, #92]
 906:./Libraries/STM32H7xx_HAL_Driver/Src/stm32h7xx_hal_spi.c ****           hspi->TxXferCount--;
 863              		.loc 1 906 15
 864 0214 FB68     		ldr	r3, [r7, #12]
 865 0216 B3F86230 		ldrh	r3, [r3, #98]	@ movhi
 866 021a 9BB2     		uxth	r3, r3
ARM GAS  /tmp/ccwjY1CM.s 			page 32


 867              		.loc 1 906 28
 868 021c 013B     		subs	r3, r3, #1
 869 021e 9AB2     		uxth	r2, r3
 870 0220 FB68     		ldr	r3, [r7, #12]
 871 0222 A3F86220 		strh	r2, [r3, #98]	@ movhi
 872 0226 23E0     		b	.L38
 873              	.L39:
 907:./Libraries/STM32H7xx_HAL_Driver/Src/stm32h7xx_hal_spi.c ****         }
 908:./Libraries/STM32H7xx_HAL_Driver/Src/stm32h7xx_hal_spi.c ****       }
 909:./Libraries/STM32H7xx_HAL_Driver/Src/stm32h7xx_hal_spi.c ****       else
 910:./Libraries/STM32H7xx_HAL_Driver/Src/stm32h7xx_hal_spi.c ****       {
 911:./Libraries/STM32H7xx_HAL_Driver/Src/stm32h7xx_hal_spi.c ****         /* Timeout management */
 912:./Libraries/STM32H7xx_HAL_Driver/Src/stm32h7xx_hal_spi.c ****         if ((((HAL_GetTick() - tickstart) >=  Timeout) && (Timeout != HAL_MAX_DELAY)) || (Timeout =
 874              		.loc 1 912 16
 875 0228 FFF7FEFF 		bl	HAL_GetTick
 876 022c 0246     		mov	r2, r0
 877              		.loc 1 912 30
 878 022e 7B69     		ldr	r3, [r7, #20]
 879 0230 D31A     		subs	r3, r2, r3
 880              		.loc 1 912 12
 881 0232 3A68     		ldr	r2, [r7]
 882 0234 9A42     		cmp	r2, r3
 883 0236 03D8     		bhi	.L42
 884              		.loc 1 912 56 discriminator 1
 885 0238 3B68     		ldr	r3, [r7]
 886 023a B3F1FF3F 		cmp	r3, #-1
 887 023e 02D1     		bne	.L43
 888              	.L42:
 889              		.loc 1 912 87 discriminator 3
 890 0240 3B68     		ldr	r3, [r7]
 891 0242 002B     		cmp	r3, #0
 892 0244 14D1     		bne	.L38
 893              	.L43:
 913:./Libraries/STM32H7xx_HAL_Driver/Src/stm32h7xx_hal_spi.c ****         {
 914:./Libraries/STM32H7xx_HAL_Driver/Src/stm32h7xx_hal_spi.c ****           /* Call standard close procedure with error check */
 915:./Libraries/STM32H7xx_HAL_Driver/Src/stm32h7xx_hal_spi.c ****           SPI_CloseTransfer(hspi);
 894              		.loc 1 915 11
 895 0246 F868     		ldr	r0, [r7, #12]
 896 0248 FFF7FEFF 		bl	SPI_CloseTransfer
 916:./Libraries/STM32H7xx_HAL_Driver/Src/stm32h7xx_hal_spi.c **** 
 917:./Libraries/STM32H7xx_HAL_Driver/Src/stm32h7xx_hal_spi.c ****           /* Process Unlocked */
 918:./Libraries/STM32H7xx_HAL_Driver/Src/stm32h7xx_hal_spi.c ****           __HAL_UNLOCK(hspi);
 897              		.loc 1 918 11
 898 024c FB68     		ldr	r3, [r7, #12]
 899 024e 0022     		movs	r2, #0
 900 0250 83F88020 		strb	r2, [r3, #128]
 919:./Libraries/STM32H7xx_HAL_Driver/Src/stm32h7xx_hal_spi.c **** 
 920:./Libraries/STM32H7xx_HAL_Driver/Src/stm32h7xx_hal_spi.c ****           SET_BIT(hspi->ErrorCode, HAL_SPI_ERROR_TIMEOUT);
 901              		.loc 1 920 11
 902 0254 FB68     		ldr	r3, [r7, #12]
 903 0256 D3F88430 		ldr	r3, [r3, #132]
 904 025a 43F48072 		orr	r2, r3, #256
 905 025e FB68     		ldr	r3, [r7, #12]
 906 0260 C3F88420 		str	r2, [r3, #132]
 921:./Libraries/STM32H7xx_HAL_Driver/Src/stm32h7xx_hal_spi.c ****           hspi->State = HAL_SPI_STATE_READY;
 907              		.loc 1 921 23
 908 0264 FB68     		ldr	r3, [r7, #12]
ARM GAS  /tmp/ccwjY1CM.s 			page 33


 909 0266 0122     		movs	r2, #1
 910 0268 83F88120 		strb	r2, [r3, #129]
 922:./Libraries/STM32H7xx_HAL_Driver/Src/stm32h7xx_hal_spi.c ****           return HAL_ERROR;
 911              		.loc 1 922 18
 912 026c 0123     		movs	r3, #1
 913 026e B4E0     		b	.L24
 914              	.L38:
 887:./Libraries/STM32H7xx_HAL_Driver/Src/stm32h7xx_hal_spi.c ****     {
 915              		.loc 1 887 16
 916 0270 FB68     		ldr	r3, [r7, #12]
 917 0272 B3F86230 		ldrh	r3, [r3, #98]	@ movhi
 918 0276 9BB2     		uxth	r3, r3
 887:./Libraries/STM32H7xx_HAL_Driver/Src/stm32h7xx_hal_spi.c ****     {
 919              		.loc 1 887 11
 920 0278 002B     		cmp	r3, #0
 921 027a 9BD1     		bne	.L44
 922 027c 87E0     		b	.L36
 923              	.L52:
 923:./Libraries/STM32H7xx_HAL_Driver/Src/stm32h7xx_hal_spi.c ****         }
 924:./Libraries/STM32H7xx_HAL_Driver/Src/stm32h7xx_hal_spi.c ****       }
 925:./Libraries/STM32H7xx_HAL_Driver/Src/stm32h7xx_hal_spi.c ****     }
 926:./Libraries/STM32H7xx_HAL_Driver/Src/stm32h7xx_hal_spi.c ****   }
 927:./Libraries/STM32H7xx_HAL_Driver/Src/stm32h7xx_hal_spi.c ****   /* Transmit data in 8 Bit mode */
 928:./Libraries/STM32H7xx_HAL_Driver/Src/stm32h7xx_hal_spi.c ****   else
 929:./Libraries/STM32H7xx_HAL_Driver/Src/stm32h7xx_hal_spi.c ****   {
 930:./Libraries/STM32H7xx_HAL_Driver/Src/stm32h7xx_hal_spi.c ****     while (hspi->TxXferCount > 0UL)
 931:./Libraries/STM32H7xx_HAL_Driver/Src/stm32h7xx_hal_spi.c ****     {
 932:./Libraries/STM32H7xx_HAL_Driver/Src/stm32h7xx_hal_spi.c ****       /* Wait until TXP flag is set to send data */
 933:./Libraries/STM32H7xx_HAL_Driver/Src/stm32h7xx_hal_spi.c ****       if (__HAL_SPI_GET_FLAG(hspi, SPI_FLAG_TXP))
 924              		.loc 1 933 11
 925 027e FB68     		ldr	r3, [r7, #12]
 926 0280 1B68     		ldr	r3, [r3]
 927 0282 5B69     		ldr	r3, [r3, #20]
 928 0284 03F00203 		and	r3, r3, #2
 929              		.loc 1 933 10
 930 0288 022B     		cmp	r3, #2
 931 028a 55D1     		bne	.L46
 934:./Libraries/STM32H7xx_HAL_Driver/Src/stm32h7xx_hal_spi.c ****       {
 935:./Libraries/STM32H7xx_HAL_Driver/Src/stm32h7xx_hal_spi.c ****         if ((hspi->TxXferCount > 3UL) && (hspi->Init.FifoThreshold > SPI_FIFO_THRESHOLD_03DATA))
 932              		.loc 1 935 18
 933 028c FB68     		ldr	r3, [r7, #12]
 934 028e B3F86230 		ldrh	r3, [r3, #98]	@ movhi
 935 0292 9BB2     		uxth	r3, r3
 936              		.loc 1 935 12
 937 0294 032B     		cmp	r3, #3
 938 0296 18D9     		bls	.L47
 939              		.loc 1 935 53 discriminator 1
 940 0298 FB68     		ldr	r3, [r7, #12]
 941 029a DB6B     		ldr	r3, [r3, #60]
 942              		.loc 1 935 39 discriminator 1
 943 029c 402B     		cmp	r3, #64
 944 029e 14D9     		bls	.L47
 936:./Libraries/STM32H7xx_HAL_Driver/Src/stm32h7xx_hal_spi.c ****         {
 937:./Libraries/STM32H7xx_HAL_Driver/Src/stm32h7xx_hal_spi.c ****           *((__IO uint32_t *)&hspi->Instance->TXDR) = *((uint32_t *)hspi->pTxBuffPtr);
 945              		.loc 1 937 73
 946 02a0 FB68     		ldr	r3, [r7, #12]
 947 02a2 DA6D     		ldr	r2, [r3, #92]
ARM GAS  /tmp/ccwjY1CM.s 			page 34


 948              		.loc 1 937 35
 949 02a4 FB68     		ldr	r3, [r7, #12]
 950 02a6 1B68     		ldr	r3, [r3]
 951              		.loc 1 937 55
 952 02a8 1268     		ldr	r2, [r2]
 953              		.loc 1 937 53
 954 02aa 1A62     		str	r2, [r3, #32]
 938:./Libraries/STM32H7xx_HAL_Driver/Src/stm32h7xx_hal_spi.c ****           hspi->pTxBuffPtr += sizeof(uint32_t);
 955              		.loc 1 938 28
 956 02ac FB68     		ldr	r3, [r7, #12]
 957 02ae DB6D     		ldr	r3, [r3, #92]
 958 02b0 1A1D     		adds	r2, r3, #4
 959 02b2 FB68     		ldr	r3, [r7, #12]
 960 02b4 DA65     		str	r2, [r3, #92]
 939:./Libraries/STM32H7xx_HAL_Driver/Src/stm32h7xx_hal_spi.c ****           hspi->TxXferCount -= (uint16_t)4UL;
 961              		.loc 1 939 29
 962 02b6 FB68     		ldr	r3, [r7, #12]
 963 02b8 B3F86230 		ldrh	r3, [r3, #98]	@ movhi
 964 02bc 9BB2     		uxth	r3, r3
 965 02be 043B     		subs	r3, r3, #4
 966 02c0 9AB2     		uxth	r2, r3
 967 02c2 FB68     		ldr	r3, [r7, #12]
 968 02c4 A3F86220 		strh	r2, [r3, #98]	@ movhi
 969 02c8 5AE0     		b	.L45
 970              	.L47:
 940:./Libraries/STM32H7xx_HAL_Driver/Src/stm32h7xx_hal_spi.c ****         }
 941:./Libraries/STM32H7xx_HAL_Driver/Src/stm32h7xx_hal_spi.c ****         else if ((hspi->TxXferCount > 1UL) && (hspi->Init.FifoThreshold > SPI_FIFO_THRESHOLD_01DATA
 971              		.loc 1 941 23
 972 02ca FB68     		ldr	r3, [r7, #12]
 973 02cc B3F86230 		ldrh	r3, [r3, #98]	@ movhi
 974 02d0 9BB2     		uxth	r3, r3
 975              		.loc 1 941 17
 976 02d2 012B     		cmp	r3, #1
 977 02d4 17D9     		bls	.L49
 978              		.loc 1 941 58 discriminator 1
 979 02d6 FB68     		ldr	r3, [r7, #12]
 980 02d8 DB6B     		ldr	r3, [r3, #60]
 981              		.loc 1 941 44 discriminator 1
 982 02da 002B     		cmp	r3, #0
 983 02dc 13D0     		beq	.L49
 942:./Libraries/STM32H7xx_HAL_Driver/Src/stm32h7xx_hal_spi.c ****         {
 943:./Libraries/STM32H7xx_HAL_Driver/Src/stm32h7xx_hal_spi.c **** #if defined (__GNUC__)
 944:./Libraries/STM32H7xx_HAL_Driver/Src/stm32h7xx_hal_spi.c ****           *ptxdr_16bits = *((uint16_t *)hspi->pTxBuffPtr);
 984              		.loc 1 944 45
 985 02de FB68     		ldr	r3, [r7, #12]
 986 02e0 DB6D     		ldr	r3, [r3, #92]
 987              		.loc 1 944 27
 988 02e2 1A88     		ldrh	r2, [r3]
 989              		.loc 1 944 25
 990 02e4 FB69     		ldr	r3, [r7, #28]
 991 02e6 1A80     		strh	r2, [r3]	@ movhi
 945:./Libraries/STM32H7xx_HAL_Driver/Src/stm32h7xx_hal_spi.c **** #else
 946:./Libraries/STM32H7xx_HAL_Driver/Src/stm32h7xx_hal_spi.c ****           *((__IO uint16_t *)&hspi->Instance->TXDR) = *((uint16_t *)hspi->pTxBuffPtr);
 947:./Libraries/STM32H7xx_HAL_Driver/Src/stm32h7xx_hal_spi.c **** #endif /* __GNUC__ */
 948:./Libraries/STM32H7xx_HAL_Driver/Src/stm32h7xx_hal_spi.c ****           hspi->pTxBuffPtr += sizeof(uint16_t);
 992              		.loc 1 948 28
 993 02e8 FB68     		ldr	r3, [r7, #12]
ARM GAS  /tmp/ccwjY1CM.s 			page 35


 994 02ea DB6D     		ldr	r3, [r3, #92]
 995 02ec 9A1C     		adds	r2, r3, #2
 996 02ee FB68     		ldr	r3, [r7, #12]
 997 02f0 DA65     		str	r2, [r3, #92]
 949:./Libraries/STM32H7xx_HAL_Driver/Src/stm32h7xx_hal_spi.c ****           hspi->TxXferCount -= (uint16_t)2UL;
 998              		.loc 1 949 29
 999 02f2 FB68     		ldr	r3, [r7, #12]
 1000 02f4 B3F86230 		ldrh	r3, [r3, #98]	@ movhi
 1001 02f8 9BB2     		uxth	r3, r3
 1002 02fa 023B     		subs	r3, r3, #2
 1003 02fc 9AB2     		uxth	r2, r3
 1004 02fe FB68     		ldr	r3, [r7, #12]
 1005 0300 A3F86220 		strh	r2, [r3, #98]	@ movhi
 1006 0304 3CE0     		b	.L45
 1007              	.L49:
 950:./Libraries/STM32H7xx_HAL_Driver/Src/stm32h7xx_hal_spi.c ****         }
 951:./Libraries/STM32H7xx_HAL_Driver/Src/stm32h7xx_hal_spi.c ****         else
 952:./Libraries/STM32H7xx_HAL_Driver/Src/stm32h7xx_hal_spi.c ****         {
 953:./Libraries/STM32H7xx_HAL_Driver/Src/stm32h7xx_hal_spi.c ****           *((__IO uint8_t *)&hspi->Instance->TXDR) = *((uint8_t *)hspi->pTxBuffPtr);
 1008              		.loc 1 953 71
 1009 0306 FB68     		ldr	r3, [r7, #12]
 1010 0308 DA6D     		ldr	r2, [r3, #92]
 1011              		.loc 1 953 34
 1012 030a FB68     		ldr	r3, [r7, #12]
 1013 030c 1B68     		ldr	r3, [r3]
 1014              		.loc 1 953 29
 1015 030e 2033     		adds	r3, r3, #32
 1016              		.loc 1 953 54
 1017 0310 1278     		ldrb	r2, [r2]	@ zero_extendqisi2
 1018              		.loc 1 953 52
 1019 0312 1A70     		strb	r2, [r3]
 954:./Libraries/STM32H7xx_HAL_Driver/Src/stm32h7xx_hal_spi.c ****           hspi->pTxBuffPtr += sizeof(uint8_t);
 1020              		.loc 1 954 28
 1021 0314 FB68     		ldr	r3, [r7, #12]
 1022 0316 DB6D     		ldr	r3, [r3, #92]
 1023 0318 5A1C     		adds	r2, r3, #1
 1024 031a FB68     		ldr	r3, [r7, #12]
 1025 031c DA65     		str	r2, [r3, #92]
 955:./Libraries/STM32H7xx_HAL_Driver/Src/stm32h7xx_hal_spi.c ****           hspi->TxXferCount--;
 1026              		.loc 1 955 15
 1027 031e FB68     		ldr	r3, [r7, #12]
 1028 0320 B3F86230 		ldrh	r3, [r3, #98]	@ movhi
 1029 0324 9BB2     		uxth	r3, r3
 1030              		.loc 1 955 28
 1031 0326 013B     		subs	r3, r3, #1
 1032 0328 9AB2     		uxth	r2, r3
 1033 032a FB68     		ldr	r3, [r7, #12]
 1034 032c A3F86220 		strh	r2, [r3, #98]	@ movhi
 1035 0330 26E0     		b	.L45
 1036              	.L56:
 1037 0332 00BF     		.align	2
 1038              	.L55:
 1039 0334 0000FFFF 		.word	-65536
 1040              	.L46:
 956:./Libraries/STM32H7xx_HAL_Driver/Src/stm32h7xx_hal_spi.c ****         }
 957:./Libraries/STM32H7xx_HAL_Driver/Src/stm32h7xx_hal_spi.c ****       }
 958:./Libraries/STM32H7xx_HAL_Driver/Src/stm32h7xx_hal_spi.c ****       else
ARM GAS  /tmp/ccwjY1CM.s 			page 36


 959:./Libraries/STM32H7xx_HAL_Driver/Src/stm32h7xx_hal_spi.c ****       {
 960:./Libraries/STM32H7xx_HAL_Driver/Src/stm32h7xx_hal_spi.c ****         /* Timeout management */
 961:./Libraries/STM32H7xx_HAL_Driver/Src/stm32h7xx_hal_spi.c ****         if ((((HAL_GetTick() - tickstart) >=  Timeout) && (Timeout != HAL_MAX_DELAY)) || (Timeout =
 1041              		.loc 1 961 16
 1042 0338 FFF7FEFF 		bl	HAL_GetTick
 1043 033c 0246     		mov	r2, r0
 1044              		.loc 1 961 30
 1045 033e 7B69     		ldr	r3, [r7, #20]
 1046 0340 D31A     		subs	r3, r2, r3
 1047              		.loc 1 961 12
 1048 0342 3A68     		ldr	r2, [r7]
 1049 0344 9A42     		cmp	r2, r3
 1050 0346 03D8     		bhi	.L50
 1051              		.loc 1 961 56 discriminator 1
 1052 0348 3B68     		ldr	r3, [r7]
 1053 034a B3F1FF3F 		cmp	r3, #-1
 1054 034e 02D1     		bne	.L51
 1055              	.L50:
 1056              		.loc 1 961 87 discriminator 3
 1057 0350 3B68     		ldr	r3, [r7]
 1058 0352 002B     		cmp	r3, #0
 1059 0354 14D1     		bne	.L45
 1060              	.L51:
 962:./Libraries/STM32H7xx_HAL_Driver/Src/stm32h7xx_hal_spi.c ****         {
 963:./Libraries/STM32H7xx_HAL_Driver/Src/stm32h7xx_hal_spi.c ****           /* Call standard close procedure with error check */
 964:./Libraries/STM32H7xx_HAL_Driver/Src/stm32h7xx_hal_spi.c ****           SPI_CloseTransfer(hspi);
 1061              		.loc 1 964 11
 1062 0356 F868     		ldr	r0, [r7, #12]
 1063 0358 FFF7FEFF 		bl	SPI_CloseTransfer
 965:./Libraries/STM32H7xx_HAL_Driver/Src/stm32h7xx_hal_spi.c **** 
 966:./Libraries/STM32H7xx_HAL_Driver/Src/stm32h7xx_hal_spi.c ****           /* Process Unlocked */
 967:./Libraries/STM32H7xx_HAL_Driver/Src/stm32h7xx_hal_spi.c ****           __HAL_UNLOCK(hspi);
 1064              		.loc 1 967 11
 1065 035c FB68     		ldr	r3, [r7, #12]
 1066 035e 0022     		movs	r2, #0
 1067 0360 83F88020 		strb	r2, [r3, #128]
 968:./Libraries/STM32H7xx_HAL_Driver/Src/stm32h7xx_hal_spi.c **** 
 969:./Libraries/STM32H7xx_HAL_Driver/Src/stm32h7xx_hal_spi.c ****           SET_BIT(hspi->ErrorCode, HAL_SPI_ERROR_TIMEOUT);
 1068              		.loc 1 969 11
 1069 0364 FB68     		ldr	r3, [r7, #12]
 1070 0366 D3F88430 		ldr	r3, [r3, #132]
 1071 036a 43F48072 		orr	r2, r3, #256
 1072 036e FB68     		ldr	r3, [r7, #12]
 1073 0370 C3F88420 		str	r2, [r3, #132]
 970:./Libraries/STM32H7xx_HAL_Driver/Src/stm32h7xx_hal_spi.c ****           hspi->State = HAL_SPI_STATE_READY;
 1074              		.loc 1 970 23
 1075 0374 FB68     		ldr	r3, [r7, #12]
 1076 0376 0122     		movs	r2, #1
 1077 0378 83F88120 		strb	r2, [r3, #129]
 971:./Libraries/STM32H7xx_HAL_Driver/Src/stm32h7xx_hal_spi.c ****           return HAL_ERROR;
 1078              		.loc 1 971 18
 1079 037c 0123     		movs	r3, #1
 1080 037e 2CE0     		b	.L24
 1081              	.L45:
 930:./Libraries/STM32H7xx_HAL_Driver/Src/stm32h7xx_hal_spi.c ****     {
 1082              		.loc 1 930 16
 1083 0380 FB68     		ldr	r3, [r7, #12]
ARM GAS  /tmp/ccwjY1CM.s 			page 37


 1084 0382 B3F86230 		ldrh	r3, [r3, #98]	@ movhi
 1085 0386 9BB2     		uxth	r3, r3
 930:./Libraries/STM32H7xx_HAL_Driver/Src/stm32h7xx_hal_spi.c ****     {
 1086              		.loc 1 930 11
 1087 0388 002B     		cmp	r3, #0
 1088 038a 7FF478AF 		bne	.L52
 1089              	.L36:
 972:./Libraries/STM32H7xx_HAL_Driver/Src/stm32h7xx_hal_spi.c ****         }
 973:./Libraries/STM32H7xx_HAL_Driver/Src/stm32h7xx_hal_spi.c ****       }
 974:./Libraries/STM32H7xx_HAL_Driver/Src/stm32h7xx_hal_spi.c ****     }
 975:./Libraries/STM32H7xx_HAL_Driver/Src/stm32h7xx_hal_spi.c ****   }
 976:./Libraries/STM32H7xx_HAL_Driver/Src/stm32h7xx_hal_spi.c **** 
 977:./Libraries/STM32H7xx_HAL_Driver/Src/stm32h7xx_hal_spi.c ****   /* Wait for Tx (and CRC) data to be sent */
 978:./Libraries/STM32H7xx_HAL_Driver/Src/stm32h7xx_hal_spi.c ****   if (SPI_WaitOnFlagUntilTimeout(hspi, SPI_FLAG_EOT, RESET, tickstart, Timeout) != HAL_OK)
 1090              		.loc 1 978 7
 1091 038e 3B68     		ldr	r3, [r7]
 1092 0390 0093     		str	r3, [sp]
 1093 0392 7B69     		ldr	r3, [r7, #20]
 1094 0394 0022     		movs	r2, #0
 1095 0396 0821     		movs	r1, #8
 1096 0398 F868     		ldr	r0, [r7, #12]
 1097 039a FFF7FEFF 		bl	SPI_WaitOnFlagUntilTimeout
 1098 039e 0346     		mov	r3, r0
 1099              		.loc 1 978 6
 1100 03a0 002B     		cmp	r3, #0
 1101 03a2 07D0     		beq	.L53
 979:./Libraries/STM32H7xx_HAL_Driver/Src/stm32h7xx_hal_spi.c ****   {
 980:./Libraries/STM32H7xx_HAL_Driver/Src/stm32h7xx_hal_spi.c ****     SET_BIT(hspi->ErrorCode, HAL_SPI_ERROR_FLAG);
 1102              		.loc 1 980 5
 1103 03a4 FB68     		ldr	r3, [r7, #12]
 1104 03a6 D3F88430 		ldr	r3, [r3, #132]
 1105 03aa 43F02002 		orr	r2, r3, #32
 1106 03ae FB68     		ldr	r3, [r7, #12]
 1107 03b0 C3F88420 		str	r2, [r3, #132]
 1108              	.L53:
 981:./Libraries/STM32H7xx_HAL_Driver/Src/stm32h7xx_hal_spi.c ****   }
 982:./Libraries/STM32H7xx_HAL_Driver/Src/stm32h7xx_hal_spi.c **** 
 983:./Libraries/STM32H7xx_HAL_Driver/Src/stm32h7xx_hal_spi.c ****   /* Call standard close procedure with error check */
 984:./Libraries/STM32H7xx_HAL_Driver/Src/stm32h7xx_hal_spi.c ****   SPI_CloseTransfer(hspi);
 1109              		.loc 1 984 3
 1110 03b4 F868     		ldr	r0, [r7, #12]
 1111 03b6 FFF7FEFF 		bl	SPI_CloseTransfer
 985:./Libraries/STM32H7xx_HAL_Driver/Src/stm32h7xx_hal_spi.c **** 
 986:./Libraries/STM32H7xx_HAL_Driver/Src/stm32h7xx_hal_spi.c ****   /* Process Unlocked */
 987:./Libraries/STM32H7xx_HAL_Driver/Src/stm32h7xx_hal_spi.c ****   __HAL_UNLOCK(hspi);
 1112              		.loc 1 987 3
 1113 03ba FB68     		ldr	r3, [r7, #12]
 1114 03bc 0022     		movs	r2, #0
 1115 03be 83F88020 		strb	r2, [r3, #128]
 988:./Libraries/STM32H7xx_HAL_Driver/Src/stm32h7xx_hal_spi.c **** 
 989:./Libraries/STM32H7xx_HAL_Driver/Src/stm32h7xx_hal_spi.c ****   hspi->State = HAL_SPI_STATE_READY;
 1116              		.loc 1 989 15
 1117 03c2 FB68     		ldr	r3, [r7, #12]
 1118 03c4 0122     		movs	r2, #1
 1119 03c6 83F88120 		strb	r2, [r3, #129]
 990:./Libraries/STM32H7xx_HAL_Driver/Src/stm32h7xx_hal_spi.c **** 
 991:./Libraries/STM32H7xx_HAL_Driver/Src/stm32h7xx_hal_spi.c ****   if (hspi->ErrorCode != HAL_SPI_ERROR_NONE)
ARM GAS  /tmp/ccwjY1CM.s 			page 38


 1120              		.loc 1 991 11
 1121 03ca FB68     		ldr	r3, [r7, #12]
 1122 03cc D3F88430 		ldr	r3, [r3, #132]
 1123              		.loc 1 991 6
 1124 03d0 002B     		cmp	r3, #0
 1125 03d2 01D0     		beq	.L54
 992:./Libraries/STM32H7xx_HAL_Driver/Src/stm32h7xx_hal_spi.c ****   {
 993:./Libraries/STM32H7xx_HAL_Driver/Src/stm32h7xx_hal_spi.c ****     return HAL_ERROR;
 1126              		.loc 1 993 12
 1127 03d4 0123     		movs	r3, #1
 1128 03d6 00E0     		b	.L24
 1129              	.L54:
 994:./Libraries/STM32H7xx_HAL_Driver/Src/stm32h7xx_hal_spi.c ****   }
 995:./Libraries/STM32H7xx_HAL_Driver/Src/stm32h7xx_hal_spi.c ****   return errorcode;
 1130              		.loc 1 995 10
 1131 03d8 FB7E     		ldrb	r3, [r7, #27]	@ zero_extendqisi2
 1132              	.L24:
 996:./Libraries/STM32H7xx_HAL_Driver/Src/stm32h7xx_hal_spi.c **** }
 1133              		.loc 1 996 1
 1134 03da 1846     		mov	r0, r3
 1135 03dc 2037     		adds	r7, r7, #32
 1136              	.LCFI25:
 1137              		.cfi_def_cfa_offset 8
 1138 03de BD46     		mov	sp, r7
 1139              	.LCFI26:
 1140              		.cfi_def_cfa_register 13
 1141              		@ sp needed
 1142 03e0 80BD     		pop	{r7, pc}
 1143              		.cfi_endproc
 1144              	.LFE335:
 1146 03e2 00BF     		.section	.text.HAL_SPI_Receive,"ax",%progbits
 1147              		.align	1
 1148              		.global	HAL_SPI_Receive
 1149              		.syntax unified
 1150              		.thumb
 1151              		.thumb_func
 1152              		.fpu fpv5-d16
 1154              	HAL_SPI_Receive:
 1155              	.LFB336:
 997:./Libraries/STM32H7xx_HAL_Driver/Src/stm32h7xx_hal_spi.c **** 
 998:./Libraries/STM32H7xx_HAL_Driver/Src/stm32h7xx_hal_spi.c **** /**
 999:./Libraries/STM32H7xx_HAL_Driver/Src/stm32h7xx_hal_spi.c ****   * @brief  Receive an amount of data in blocking mode.
1000:./Libraries/STM32H7xx_HAL_Driver/Src/stm32h7xx_hal_spi.c ****   * @param  hspi   : pointer to a SPI_HandleTypeDef structure that contains
1001:./Libraries/STM32H7xx_HAL_Driver/Src/stm32h7xx_hal_spi.c ****   *                  the configuration information for SPI module.
1002:./Libraries/STM32H7xx_HAL_Driver/Src/stm32h7xx_hal_spi.c ****   * @param  pData  : pointer to data buffer
1003:./Libraries/STM32H7xx_HAL_Driver/Src/stm32h7xx_hal_spi.c ****   * @param  Size   : amount of data to be received
1004:./Libraries/STM32H7xx_HAL_Driver/Src/stm32h7xx_hal_spi.c ****   * @param  Timeout: Timeout duration
1005:./Libraries/STM32H7xx_HAL_Driver/Src/stm32h7xx_hal_spi.c ****   * @retval HAL status
1006:./Libraries/STM32H7xx_HAL_Driver/Src/stm32h7xx_hal_spi.c ****   */
1007:./Libraries/STM32H7xx_HAL_Driver/Src/stm32h7xx_hal_spi.c **** HAL_StatusTypeDef HAL_SPI_Receive(SPI_HandleTypeDef *hspi, uint8_t *pData, uint16_t Size, uint32_t 
1008:./Libraries/STM32H7xx_HAL_Driver/Src/stm32h7xx_hal_spi.c **** {
 1156              		.loc 1 1008 1
 1157              		.cfi_startproc
 1158              		@ args = 0, pretend = 0, frame = 32
 1159              		@ frame_needed = 1, uses_anonymous_args = 0
 1160 0000 80B5     		push	{r7, lr}
 1161              	.LCFI27:
ARM GAS  /tmp/ccwjY1CM.s 			page 39


 1162              		.cfi_def_cfa_offset 8
 1163              		.cfi_offset 7, -8
 1164              		.cfi_offset 14, -4
 1165 0002 8AB0     		sub	sp, sp, #40
 1166              	.LCFI28:
 1167              		.cfi_def_cfa_offset 48
 1168 0004 02AF     		add	r7, sp, #8
 1169              	.LCFI29:
 1170              		.cfi_def_cfa 7, 40
 1171 0006 F860     		str	r0, [r7, #12]
 1172 0008 B960     		str	r1, [r7, #8]
 1173 000a 3B60     		str	r3, [r7]
 1174 000c 1346     		mov	r3, r2	@ movhi
 1175 000e FB80     		strh	r3, [r7, #6]	@ movhi
1009:./Libraries/STM32H7xx_HAL_Driver/Src/stm32h7xx_hal_spi.c ****   uint32_t tickstart;
1010:./Libraries/STM32H7xx_HAL_Driver/Src/stm32h7xx_hal_spi.c ****   HAL_StatusTypeDef errorcode = HAL_OK;
 1176              		.loc 1 1010 21
 1177 0010 0023     		movs	r3, #0
 1178 0012 FB77     		strb	r3, [r7, #31]
1011:./Libraries/STM32H7xx_HAL_Driver/Src/stm32h7xx_hal_spi.c **** #if defined (__GNUC__)
1012:./Libraries/STM32H7xx_HAL_Driver/Src/stm32h7xx_hal_spi.c ****   __IO uint16_t *prxdr_16bits = (__IO uint16_t *)(&(hspi->Instance->RXDR));
 1179              		.loc 1 1012 57
 1180 0014 FB68     		ldr	r3, [r7, #12]
 1181 0016 1B68     		ldr	r3, [r3]
 1182              		.loc 1 1012 18
 1183 0018 3033     		adds	r3, r3, #48
 1184 001a BB61     		str	r3, [r7, #24]
1013:./Libraries/STM32H7xx_HAL_Driver/Src/stm32h7xx_hal_spi.c **** #endif /* __GNUC__ */
1014:./Libraries/STM32H7xx_HAL_Driver/Src/stm32h7xx_hal_spi.c **** 
1015:./Libraries/STM32H7xx_HAL_Driver/Src/stm32h7xx_hal_spi.c ****   /* Check Direction parameter */
1016:./Libraries/STM32H7xx_HAL_Driver/Src/stm32h7xx_hal_spi.c ****   assert_param(IS_SPI_DIRECTION_2LINES_OR_1LINE_2LINES_RXONLY(hspi->Init.Direction));
1017:./Libraries/STM32H7xx_HAL_Driver/Src/stm32h7xx_hal_spi.c **** 
1018:./Libraries/STM32H7xx_HAL_Driver/Src/stm32h7xx_hal_spi.c ****   if ((hspi->Init.Mode == SPI_MODE_MASTER) && (hspi->Init.Direction == SPI_DIRECTION_2LINES))
 1185              		.loc 1 1018 18
 1186 001c FB68     		ldr	r3, [r7, #12]
 1187 001e 5B68     		ldr	r3, [r3, #4]
 1188              		.loc 1 1018 6
 1189 0020 B3F5800F 		cmp	r3, #4194304
 1190 0024 12D1     		bne	.L58
 1191              		.loc 1 1018 58 discriminator 1
 1192 0026 FB68     		ldr	r3, [r7, #12]
 1193 0028 9B68     		ldr	r3, [r3, #8]
 1194              		.loc 1 1018 44 discriminator 1
 1195 002a 002B     		cmp	r3, #0
 1196 002c 0ED1     		bne	.L58
1019:./Libraries/STM32H7xx_HAL_Driver/Src/stm32h7xx_hal_spi.c ****   {
1020:./Libraries/STM32H7xx_HAL_Driver/Src/stm32h7xx_hal_spi.c ****     hspi->State = HAL_SPI_STATE_BUSY_RX;
 1197              		.loc 1 1020 17
 1198 002e FB68     		ldr	r3, [r7, #12]
 1199 0030 0422     		movs	r2, #4
 1200 0032 83F88120 		strb	r2, [r3, #129]
1021:./Libraries/STM32H7xx_HAL_Driver/Src/stm32h7xx_hal_spi.c ****     /* Call transmit-receive function to send Dummy data on Tx line and generate clock on CLK line 
1022:./Libraries/STM32H7xx_HAL_Driver/Src/stm32h7xx_hal_spi.c ****     return HAL_SPI_TransmitReceive(hspi, pData, pData, Size, Timeout);
 1201              		.loc 1 1022 12
 1202 0036 FA88     		ldrh	r2, [r7, #6]
 1203 0038 3B68     		ldr	r3, [r7]
 1204 003a 0093     		str	r3, [sp]
ARM GAS  /tmp/ccwjY1CM.s 			page 40


 1205 003c 1346     		mov	r3, r2
 1206 003e BA68     		ldr	r2, [r7, #8]
 1207 0040 B968     		ldr	r1, [r7, #8]
 1208 0042 F868     		ldr	r0, [r7, #12]
 1209 0044 FFF7FEFF 		bl	HAL_SPI_TransmitReceive
 1210 0048 0346     		mov	r3, r0
 1211 004a C7E1     		b	.L59
 1212              	.L58:
1023:./Libraries/STM32H7xx_HAL_Driver/Src/stm32h7xx_hal_spi.c ****   }
1024:./Libraries/STM32H7xx_HAL_Driver/Src/stm32h7xx_hal_spi.c **** 
1025:./Libraries/STM32H7xx_HAL_Driver/Src/stm32h7xx_hal_spi.c ****   /* Process Locked */
1026:./Libraries/STM32H7xx_HAL_Driver/Src/stm32h7xx_hal_spi.c ****   __HAL_LOCK(hspi);
 1213              		.loc 1 1026 3
 1214 004c FB68     		ldr	r3, [r7, #12]
 1215 004e 93F88030 		ldrb	r3, [r3, #128]	@ zero_extendqisi2
 1216 0052 012B     		cmp	r3, #1
 1217 0054 01D1     		bne	.L60
 1218              		.loc 1 1026 3 is_stmt 0 discriminator 1
 1219 0056 0223     		movs	r3, #2
 1220 0058 C0E1     		b	.L59
 1221              	.L60:
 1222              		.loc 1 1026 3 discriminator 2
 1223 005a FB68     		ldr	r3, [r7, #12]
 1224 005c 0122     		movs	r2, #1
 1225 005e 83F88020 		strb	r2, [r3, #128]
1027:./Libraries/STM32H7xx_HAL_Driver/Src/stm32h7xx_hal_spi.c **** 
1028:./Libraries/STM32H7xx_HAL_Driver/Src/stm32h7xx_hal_spi.c ****   /* Init tickstart for timeout management*/
1029:./Libraries/STM32H7xx_HAL_Driver/Src/stm32h7xx_hal_spi.c ****   tickstart = HAL_GetTick();
 1226              		.loc 1 1029 15 is_stmt 1 discriminator 2
 1227 0062 FFF7FEFF 		bl	HAL_GetTick
 1228 0066 7861     		str	r0, [r7, #20]
1030:./Libraries/STM32H7xx_HAL_Driver/Src/stm32h7xx_hal_spi.c **** 
1031:./Libraries/STM32H7xx_HAL_Driver/Src/stm32h7xx_hal_spi.c ****   if (hspi->State != HAL_SPI_STATE_READY)
 1229              		.loc 1 1031 11 discriminator 2
 1230 0068 FB68     		ldr	r3, [r7, #12]
 1231 006a 93F88130 		ldrb	r3, [r3, #129]
 1232 006e DBB2     		uxtb	r3, r3
 1233              		.loc 1 1031 6 discriminator 2
 1234 0070 012B     		cmp	r3, #1
 1235 0072 07D0     		beq	.L61
1032:./Libraries/STM32H7xx_HAL_Driver/Src/stm32h7xx_hal_spi.c ****   {
1033:./Libraries/STM32H7xx_HAL_Driver/Src/stm32h7xx_hal_spi.c ****     errorcode = HAL_BUSY;
 1236              		.loc 1 1033 15
 1237 0074 0223     		movs	r3, #2
 1238 0076 FB77     		strb	r3, [r7, #31]
1034:./Libraries/STM32H7xx_HAL_Driver/Src/stm32h7xx_hal_spi.c ****     __HAL_UNLOCK(hspi);
 1239              		.loc 1 1034 5
 1240 0078 FB68     		ldr	r3, [r7, #12]
 1241 007a 0022     		movs	r2, #0
 1242 007c 83F88020 		strb	r2, [r3, #128]
1035:./Libraries/STM32H7xx_HAL_Driver/Src/stm32h7xx_hal_spi.c ****     return errorcode;
 1243              		.loc 1 1035 12
 1244 0080 FB7F     		ldrb	r3, [r7, #31]	@ zero_extendqisi2
 1245 0082 ABE1     		b	.L59
 1246              	.L61:
1036:./Libraries/STM32H7xx_HAL_Driver/Src/stm32h7xx_hal_spi.c ****   }
1037:./Libraries/STM32H7xx_HAL_Driver/Src/stm32h7xx_hal_spi.c **** 
ARM GAS  /tmp/ccwjY1CM.s 			page 41


1038:./Libraries/STM32H7xx_HAL_Driver/Src/stm32h7xx_hal_spi.c ****   if ((pData == NULL) || (Size == 0UL))
 1247              		.loc 1 1038 6
 1248 0084 BB68     		ldr	r3, [r7, #8]
 1249 0086 002B     		cmp	r3, #0
 1250 0088 02D0     		beq	.L62
 1251              		.loc 1 1038 23 discriminator 1
 1252 008a FB88     		ldrh	r3, [r7, #6]
 1253 008c 002B     		cmp	r3, #0
 1254 008e 07D1     		bne	.L63
 1255              	.L62:
1039:./Libraries/STM32H7xx_HAL_Driver/Src/stm32h7xx_hal_spi.c ****   {
1040:./Libraries/STM32H7xx_HAL_Driver/Src/stm32h7xx_hal_spi.c ****     errorcode = HAL_ERROR;
 1256              		.loc 1 1040 15
 1257 0090 0123     		movs	r3, #1
 1258 0092 FB77     		strb	r3, [r7, #31]
1041:./Libraries/STM32H7xx_HAL_Driver/Src/stm32h7xx_hal_spi.c ****     __HAL_UNLOCK(hspi);
 1259              		.loc 1 1041 5
 1260 0094 FB68     		ldr	r3, [r7, #12]
 1261 0096 0022     		movs	r2, #0
 1262 0098 83F88020 		strb	r2, [r3, #128]
1042:./Libraries/STM32H7xx_HAL_Driver/Src/stm32h7xx_hal_spi.c ****     return errorcode;
 1263              		.loc 1 1042 12
 1264 009c FB7F     		ldrb	r3, [r7, #31]	@ zero_extendqisi2
 1265 009e 9DE1     		b	.L59
 1266              	.L63:
1043:./Libraries/STM32H7xx_HAL_Driver/Src/stm32h7xx_hal_spi.c ****   }
1044:./Libraries/STM32H7xx_HAL_Driver/Src/stm32h7xx_hal_spi.c **** 
1045:./Libraries/STM32H7xx_HAL_Driver/Src/stm32h7xx_hal_spi.c ****   /* Set the transaction information */
1046:./Libraries/STM32H7xx_HAL_Driver/Src/stm32h7xx_hal_spi.c ****   hspi->State       = HAL_SPI_STATE_BUSY_RX;
 1267              		.loc 1 1046 21
 1268 00a0 FB68     		ldr	r3, [r7, #12]
 1269 00a2 0422     		movs	r2, #4
 1270 00a4 83F88120 		strb	r2, [r3, #129]
1047:./Libraries/STM32H7xx_HAL_Driver/Src/stm32h7xx_hal_spi.c ****   hspi->ErrorCode   = HAL_SPI_ERROR_NONE;
 1271              		.loc 1 1047 21
 1272 00a8 FB68     		ldr	r3, [r7, #12]
 1273 00aa 0022     		movs	r2, #0
 1274 00ac C3F88420 		str	r2, [r3, #132]
1048:./Libraries/STM32H7xx_HAL_Driver/Src/stm32h7xx_hal_spi.c ****   hspi->pRxBuffPtr  = (uint8_t *)pData;
 1275              		.loc 1 1048 21
 1276 00b0 FB68     		ldr	r3, [r7, #12]
 1277 00b2 BA68     		ldr	r2, [r7, #8]
 1278 00b4 5A66     		str	r2, [r3, #100]
1049:./Libraries/STM32H7xx_HAL_Driver/Src/stm32h7xx_hal_spi.c ****   hspi->RxXferSize  = Size;
 1279              		.loc 1 1049 21
 1280 00b6 FB68     		ldr	r3, [r7, #12]
 1281 00b8 FA88     		ldrh	r2, [r7, #6]	@ movhi
 1282 00ba A3F86820 		strh	r2, [r3, #104]	@ movhi
1050:./Libraries/STM32H7xx_HAL_Driver/Src/stm32h7xx_hal_spi.c ****   hspi->RxXferCount = Size;
 1283              		.loc 1 1050 21
 1284 00be FB68     		ldr	r3, [r7, #12]
 1285 00c0 FA88     		ldrh	r2, [r7, #6]	@ movhi
 1286 00c2 A3F86A20 		strh	r2, [r3, #106]	@ movhi
1051:./Libraries/STM32H7xx_HAL_Driver/Src/stm32h7xx_hal_spi.c **** 
1052:./Libraries/STM32H7xx_HAL_Driver/Src/stm32h7xx_hal_spi.c ****   /*Init field not used in handle to zero */
1053:./Libraries/STM32H7xx_HAL_Driver/Src/stm32h7xx_hal_spi.c ****   hspi->pTxBuffPtr  = NULL;
 1287              		.loc 1 1053 21
ARM GAS  /tmp/ccwjY1CM.s 			page 42


 1288 00c6 FB68     		ldr	r3, [r7, #12]
 1289 00c8 0022     		movs	r2, #0
 1290 00ca DA65     		str	r2, [r3, #92]
1054:./Libraries/STM32H7xx_HAL_Driver/Src/stm32h7xx_hal_spi.c ****   hspi->TxXferSize  = (uint16_t) 0UL;
 1291              		.loc 1 1054 21
 1292 00cc FB68     		ldr	r3, [r7, #12]
 1293 00ce 0022     		movs	r2, #0
 1294 00d0 A3F86020 		strh	r2, [r3, #96]	@ movhi
1055:./Libraries/STM32H7xx_HAL_Driver/Src/stm32h7xx_hal_spi.c ****   hspi->TxXferCount = (uint16_t) 0UL;
 1295              		.loc 1 1055 21
 1296 00d4 FB68     		ldr	r3, [r7, #12]
 1297 00d6 0022     		movs	r2, #0
 1298 00d8 A3F86220 		strh	r2, [r3, #98]	@ movhi
1056:./Libraries/STM32H7xx_HAL_Driver/Src/stm32h7xx_hal_spi.c ****   hspi->RxISR       = NULL;
 1299              		.loc 1 1056 21
 1300 00dc FB68     		ldr	r3, [r7, #12]
 1301 00de 0022     		movs	r2, #0
 1302 00e0 1A67     		str	r2, [r3, #112]
1057:./Libraries/STM32H7xx_HAL_Driver/Src/stm32h7xx_hal_spi.c ****   hspi->TxISR       = NULL;
 1303              		.loc 1 1057 21
 1304 00e2 FB68     		ldr	r3, [r7, #12]
 1305 00e4 0022     		movs	r2, #0
 1306 00e6 5A67     		str	r2, [r3, #116]
1058:./Libraries/STM32H7xx_HAL_Driver/Src/stm32h7xx_hal_spi.c **** 
1059:./Libraries/STM32H7xx_HAL_Driver/Src/stm32h7xx_hal_spi.c ****   /* Configure communication direction: 1Line */
1060:./Libraries/STM32H7xx_HAL_Driver/Src/stm32h7xx_hal_spi.c ****   if (hspi->Init.Direction == SPI_DIRECTION_1LINE)
 1307              		.loc 1 1060 17
 1308 00e8 FB68     		ldr	r3, [r7, #12]
 1309 00ea 9B68     		ldr	r3, [r3, #8]
 1310              		.loc 1 1060 6
 1311 00ec B3F5C02F 		cmp	r3, #393216
 1312 00f0 07D1     		bne	.L64
1061:./Libraries/STM32H7xx_HAL_Driver/Src/stm32h7xx_hal_spi.c ****   {
1062:./Libraries/STM32H7xx_HAL_Driver/Src/stm32h7xx_hal_spi.c ****     SPI_1LINE_RX(hspi);
 1313              		.loc 1 1062 5
 1314 00f2 FB68     		ldr	r3, [r7, #12]
 1315 00f4 1B68     		ldr	r3, [r3]
 1316 00f6 1A68     		ldr	r2, [r3]
 1317 00f8 FB68     		ldr	r3, [r7, #12]
 1318 00fa 1B68     		ldr	r3, [r3]
 1319 00fc 22F40062 		bic	r2, r2, #2048
 1320 0100 1A60     		str	r2, [r3]
 1321              	.L64:
1063:./Libraries/STM32H7xx_HAL_Driver/Src/stm32h7xx_hal_spi.c ****   }
1064:./Libraries/STM32H7xx_HAL_Driver/Src/stm32h7xx_hal_spi.c **** 
1065:./Libraries/STM32H7xx_HAL_Driver/Src/stm32h7xx_hal_spi.c ****   /* Set the number of data at current transfer */
1066:./Libraries/STM32H7xx_HAL_Driver/Src/stm32h7xx_hal_spi.c ****   MODIFY_REG(hspi->Instance->CR2, SPI_CR2_TSIZE, Size);
 1322              		.loc 1 1066 3
 1323 0102 FB68     		ldr	r3, [r7, #12]
 1324 0104 1B68     		ldr	r3, [r3]
 1325 0106 5A68     		ldr	r2, [r3, #4]
 1326 0108 944B     		ldr	r3, .L88
 1327 010a 1340     		ands	r3, r3, r2
 1328 010c F988     		ldrh	r1, [r7, #6]
 1329 010e FA68     		ldr	r2, [r7, #12]
 1330 0110 1268     		ldr	r2, [r2]
 1331 0112 0B43     		orrs	r3, r3, r1
ARM GAS  /tmp/ccwjY1CM.s 			page 43


 1332 0114 5360     		str	r3, [r2, #4]
1067:./Libraries/STM32H7xx_HAL_Driver/Src/stm32h7xx_hal_spi.c **** 
1068:./Libraries/STM32H7xx_HAL_Driver/Src/stm32h7xx_hal_spi.c ****   /* Enable SPI peripheral */
1069:./Libraries/STM32H7xx_HAL_Driver/Src/stm32h7xx_hal_spi.c ****   __HAL_SPI_ENABLE(hspi);
 1333              		.loc 1 1069 3
 1334 0116 FB68     		ldr	r3, [r7, #12]
 1335 0118 1B68     		ldr	r3, [r3]
 1336 011a 1A68     		ldr	r2, [r3]
 1337 011c FB68     		ldr	r3, [r7, #12]
 1338 011e 1B68     		ldr	r3, [r3]
 1339 0120 42F00102 		orr	r2, r2, #1
 1340 0124 1A60     		str	r2, [r3]
1070:./Libraries/STM32H7xx_HAL_Driver/Src/stm32h7xx_hal_spi.c **** 
1071:./Libraries/STM32H7xx_HAL_Driver/Src/stm32h7xx_hal_spi.c ****   if (hspi->Init.Mode == SPI_MODE_MASTER)
 1341              		.loc 1 1071 17
 1342 0126 FB68     		ldr	r3, [r7, #12]
 1343 0128 5B68     		ldr	r3, [r3, #4]
 1344              		.loc 1 1071 6
 1345 012a B3F5800F 		cmp	r3, #4194304
 1346 012e 07D1     		bne	.L65
1072:./Libraries/STM32H7xx_HAL_Driver/Src/stm32h7xx_hal_spi.c ****   {
1073:./Libraries/STM32H7xx_HAL_Driver/Src/stm32h7xx_hal_spi.c ****     /* Master transfer start */
1074:./Libraries/STM32H7xx_HAL_Driver/Src/stm32h7xx_hal_spi.c ****     SET_BIT(hspi->Instance->CR1, SPI_CR1_CSTART);
 1347              		.loc 1 1074 5
 1348 0130 FB68     		ldr	r3, [r7, #12]
 1349 0132 1B68     		ldr	r3, [r3]
 1350 0134 1A68     		ldr	r2, [r3]
 1351 0136 FB68     		ldr	r3, [r7, #12]
 1352 0138 1B68     		ldr	r3, [r3]
 1353 013a 42F40072 		orr	r2, r2, #512
 1354 013e 1A60     		str	r2, [r3]
 1355              	.L65:
1075:./Libraries/STM32H7xx_HAL_Driver/Src/stm32h7xx_hal_spi.c ****   }
1076:./Libraries/STM32H7xx_HAL_Driver/Src/stm32h7xx_hal_spi.c **** 
1077:./Libraries/STM32H7xx_HAL_Driver/Src/stm32h7xx_hal_spi.c ****   /* Receive data in 32 Bit mode */
1078:./Libraries/STM32H7xx_HAL_Driver/Src/stm32h7xx_hal_spi.c ****   if (hspi->Init.DataSize > SPI_DATASIZE_16BIT)
 1356              		.loc 1 1078 17
 1357 0140 FB68     		ldr	r3, [r7, #12]
 1358 0142 DB68     		ldr	r3, [r3, #12]
 1359              		.loc 1 1078 6
 1360 0144 0F2B     		cmp	r3, #15
 1361 0146 48D9     		bls	.L66
1079:./Libraries/STM32H7xx_HAL_Driver/Src/stm32h7xx_hal_spi.c ****   {
1080:./Libraries/STM32H7xx_HAL_Driver/Src/stm32h7xx_hal_spi.c ****     /* Transfer loop */
1081:./Libraries/STM32H7xx_HAL_Driver/Src/stm32h7xx_hal_spi.c ****     while (hspi->RxXferCount > 0UL)
 1362              		.loc 1 1081 11
 1363 0148 40E0     		b	.L67
 1364              	.L71:
1082:./Libraries/STM32H7xx_HAL_Driver/Src/stm32h7xx_hal_spi.c ****     {
1083:./Libraries/STM32H7xx_HAL_Driver/Src/stm32h7xx_hal_spi.c ****       /* Check the RXWNE/EOT flag */
1084:./Libraries/STM32H7xx_HAL_Driver/Src/stm32h7xx_hal_spi.c ****       if ((hspi->Instance->SR & (SPI_FLAG_RXWNE | SPI_FLAG_EOT)) != 0UL)
 1365              		.loc 1 1084 16
 1366 014a FB68     		ldr	r3, [r7, #12]
 1367 014c 1B68     		ldr	r3, [r3]
 1368              		.loc 1 1084 26
 1369 014e 5A69     		ldr	r2, [r3, #20]
 1370              		.loc 1 1084 31
ARM GAS  /tmp/ccwjY1CM.s 			page 44


 1371 0150 48F20803 		movw	r3, #32776
 1372 0154 1340     		ands	r3, r3, r2
 1373              		.loc 1 1084 10
 1374 0156 002B     		cmp	r3, #0
 1375 0158 14D0     		beq	.L68
1085:./Libraries/STM32H7xx_HAL_Driver/Src/stm32h7xx_hal_spi.c ****       {
1086:./Libraries/STM32H7xx_HAL_Driver/Src/stm32h7xx_hal_spi.c ****         *((uint32_t *)hspi->pRxBuffPtr) = *((__IO uint32_t *)&hspi->Instance->RXDR);
 1376              		.loc 1 1086 67
 1377 015a FB68     		ldr	r3, [r7, #12]
 1378 015c 1A68     		ldr	r2, [r3]
 1379              		.loc 1 1086 27
 1380 015e FB68     		ldr	r3, [r7, #12]
 1381 0160 5B6E     		ldr	r3, [r3, #100]
 1382              		.loc 1 1086 43
 1383 0162 126B     		ldr	r2, [r2, #48]
 1384              		.loc 1 1086 41
 1385 0164 1A60     		str	r2, [r3]
1087:./Libraries/STM32H7xx_HAL_Driver/Src/stm32h7xx_hal_spi.c ****         hspi->pRxBuffPtr += sizeof(uint32_t);
 1386              		.loc 1 1087 26
 1387 0166 FB68     		ldr	r3, [r7, #12]
 1388 0168 5B6E     		ldr	r3, [r3, #100]
 1389 016a 1A1D     		adds	r2, r3, #4
 1390 016c FB68     		ldr	r3, [r7, #12]
 1391 016e 5A66     		str	r2, [r3, #100]
1088:./Libraries/STM32H7xx_HAL_Driver/Src/stm32h7xx_hal_spi.c ****         hspi->RxXferCount--;
 1392              		.loc 1 1088 13
 1393 0170 FB68     		ldr	r3, [r7, #12]
 1394 0172 B3F86A30 		ldrh	r3, [r3, #106]	@ movhi
 1395 0176 9BB2     		uxth	r3, r3
 1396              		.loc 1 1088 26
 1397 0178 013B     		subs	r3, r3, #1
 1398 017a 9AB2     		uxth	r2, r3
 1399 017c FB68     		ldr	r3, [r7, #12]
 1400 017e A3F86A20 		strh	r2, [r3, #106]	@ movhi
 1401 0182 23E0     		b	.L67
 1402              	.L68:
1089:./Libraries/STM32H7xx_HAL_Driver/Src/stm32h7xx_hal_spi.c ****       }
1090:./Libraries/STM32H7xx_HAL_Driver/Src/stm32h7xx_hal_spi.c ****       else
1091:./Libraries/STM32H7xx_HAL_Driver/Src/stm32h7xx_hal_spi.c ****       {
1092:./Libraries/STM32H7xx_HAL_Driver/Src/stm32h7xx_hal_spi.c ****         /* Timeout management */
1093:./Libraries/STM32H7xx_HAL_Driver/Src/stm32h7xx_hal_spi.c ****         if ((((HAL_GetTick() - tickstart) >=  Timeout) && (Timeout != HAL_MAX_DELAY)) || (Timeout =
 1403              		.loc 1 1093 16
 1404 0184 FFF7FEFF 		bl	HAL_GetTick
 1405 0188 0246     		mov	r2, r0
 1406              		.loc 1 1093 30
 1407 018a 7B69     		ldr	r3, [r7, #20]
 1408 018c D31A     		subs	r3, r2, r3
 1409              		.loc 1 1093 12
 1410 018e 3A68     		ldr	r2, [r7]
 1411 0190 9A42     		cmp	r2, r3
 1412 0192 03D8     		bhi	.L69
 1413              		.loc 1 1093 56 discriminator 1
 1414 0194 3B68     		ldr	r3, [r7]
 1415 0196 B3F1FF3F 		cmp	r3, #-1
 1416 019a 02D1     		bne	.L70
 1417              	.L69:
 1418              		.loc 1 1093 87 discriminator 3
ARM GAS  /tmp/ccwjY1CM.s 			page 45


 1419 019c 3B68     		ldr	r3, [r7]
 1420 019e 002B     		cmp	r3, #0
 1421 01a0 14D1     		bne	.L67
 1422              	.L70:
1094:./Libraries/STM32H7xx_HAL_Driver/Src/stm32h7xx_hal_spi.c ****         {
1095:./Libraries/STM32H7xx_HAL_Driver/Src/stm32h7xx_hal_spi.c ****           /* Call standard close procedure with error check */
1096:./Libraries/STM32H7xx_HAL_Driver/Src/stm32h7xx_hal_spi.c ****           SPI_CloseTransfer(hspi);
 1423              		.loc 1 1096 11
 1424 01a2 F868     		ldr	r0, [r7, #12]
 1425 01a4 FFF7FEFF 		bl	SPI_CloseTransfer
1097:./Libraries/STM32H7xx_HAL_Driver/Src/stm32h7xx_hal_spi.c **** 
1098:./Libraries/STM32H7xx_HAL_Driver/Src/stm32h7xx_hal_spi.c ****           /* Process Unlocked */
1099:./Libraries/STM32H7xx_HAL_Driver/Src/stm32h7xx_hal_spi.c ****           __HAL_UNLOCK(hspi);
 1426              		.loc 1 1099 11
 1427 01a8 FB68     		ldr	r3, [r7, #12]
 1428 01aa 0022     		movs	r2, #0
 1429 01ac 83F88020 		strb	r2, [r3, #128]
1100:./Libraries/STM32H7xx_HAL_Driver/Src/stm32h7xx_hal_spi.c **** 
1101:./Libraries/STM32H7xx_HAL_Driver/Src/stm32h7xx_hal_spi.c ****           SET_BIT(hspi->ErrorCode, HAL_SPI_ERROR_TIMEOUT);
 1430              		.loc 1 1101 11
 1431 01b0 FB68     		ldr	r3, [r7, #12]
 1432 01b2 D3F88430 		ldr	r3, [r3, #132]
 1433 01b6 43F48072 		orr	r2, r3, #256
 1434 01ba FB68     		ldr	r3, [r7, #12]
 1435 01bc C3F88420 		str	r2, [r3, #132]
1102:./Libraries/STM32H7xx_HAL_Driver/Src/stm32h7xx_hal_spi.c ****           hspi->State = HAL_SPI_STATE_READY;
 1436              		.loc 1 1102 23
 1437 01c0 FB68     		ldr	r3, [r7, #12]
 1438 01c2 0122     		movs	r2, #1
 1439 01c4 83F88120 		strb	r2, [r3, #129]
1103:./Libraries/STM32H7xx_HAL_Driver/Src/stm32h7xx_hal_spi.c ****           return HAL_ERROR;
 1440              		.loc 1 1103 18
 1441 01c8 0123     		movs	r3, #1
 1442 01ca 07E1     		b	.L59
 1443              	.L67:
1081:./Libraries/STM32H7xx_HAL_Driver/Src/stm32h7xx_hal_spi.c ****     {
 1444              		.loc 1 1081 16
 1445 01cc FB68     		ldr	r3, [r7, #12]
 1446 01ce B3F86A30 		ldrh	r3, [r3, #106]	@ movhi
 1447 01d2 9BB2     		uxth	r3, r3
1081:./Libraries/STM32H7xx_HAL_Driver/Src/stm32h7xx_hal_spi.c ****     {
 1448              		.loc 1 1081 11
 1449 01d4 002B     		cmp	r3, #0
 1450 01d6 B8D1     		bne	.L71
 1451 01d8 EDE0     		b	.L72
 1452              	.L66:
1104:./Libraries/STM32H7xx_HAL_Driver/Src/stm32h7xx_hal_spi.c ****         }
1105:./Libraries/STM32H7xx_HAL_Driver/Src/stm32h7xx_hal_spi.c ****       }
1106:./Libraries/STM32H7xx_HAL_Driver/Src/stm32h7xx_hal_spi.c ****     }
1107:./Libraries/STM32H7xx_HAL_Driver/Src/stm32h7xx_hal_spi.c ****   }
1108:./Libraries/STM32H7xx_HAL_Driver/Src/stm32h7xx_hal_spi.c ****   /* Receive data in 16 Bit mode */
1109:./Libraries/STM32H7xx_HAL_Driver/Src/stm32h7xx_hal_spi.c ****   else if (hspi->Init.DataSize > SPI_DATASIZE_8BIT)
 1453              		.loc 1 1109 22
 1454 01da FB68     		ldr	r3, [r7, #12]
 1455 01dc DB68     		ldr	r3, [r3, #12]
 1456              		.loc 1 1109 11
 1457 01de 072B     		cmp	r3, #7
ARM GAS  /tmp/ccwjY1CM.s 			page 46


 1458 01e0 40F2E280 		bls	.L80
1110:./Libraries/STM32H7xx_HAL_Driver/Src/stm32h7xx_hal_spi.c ****   {
1111:./Libraries/STM32H7xx_HAL_Driver/Src/stm32h7xx_hal_spi.c ****     /* Transfer loop */
1112:./Libraries/STM32H7xx_HAL_Driver/Src/stm32h7xx_hal_spi.c ****     while (hspi->RxXferCount > 0UL)
 1459              		.loc 1 1112 11
 1460 01e4 5BE0     		b	.L74
 1461              	.L79:
1113:./Libraries/STM32H7xx_HAL_Driver/Src/stm32h7xx_hal_spi.c ****     {
1114:./Libraries/STM32H7xx_HAL_Driver/Src/stm32h7xx_hal_spi.c ****       /* Check the RXWNE/FRLVL flag */
1115:./Libraries/STM32H7xx_HAL_Driver/Src/stm32h7xx_hal_spi.c ****       if ((hspi->Instance->SR & (SPI_FLAG_RXWNE | SPI_FLAG_FRLVL)) != 0UL)
 1462              		.loc 1 1115 16
 1463 01e6 FB68     		ldr	r3, [r7, #12]
 1464 01e8 1B68     		ldr	r3, [r3]
 1465              		.loc 1 1115 26
 1466 01ea 5B69     		ldr	r3, [r3, #20]
 1467              		.loc 1 1115 31
 1468 01ec 03F46043 		and	r3, r3, #57344
 1469              		.loc 1 1115 10
 1470 01f0 002B     		cmp	r3, #0
 1471 01f2 30D0     		beq	.L75
1116:./Libraries/STM32H7xx_HAL_Driver/Src/stm32h7xx_hal_spi.c ****       {
1117:./Libraries/STM32H7xx_HAL_Driver/Src/stm32h7xx_hal_spi.c ****         if ((hspi->Instance->SR & SPI_FLAG_RXWNE) != 0UL)
 1472              		.loc 1 1117 18
 1473 01f4 FB68     		ldr	r3, [r7, #12]
 1474 01f6 1B68     		ldr	r3, [r3]
 1475              		.loc 1 1117 28
 1476 01f8 5B69     		ldr	r3, [r3, #20]
 1477              		.loc 1 1117 33
 1478 01fa 03F40043 		and	r3, r3, #32768
 1479              		.loc 1 1117 12
 1480 01fe 002B     		cmp	r3, #0
 1481 0200 14D0     		beq	.L76
1118:./Libraries/STM32H7xx_HAL_Driver/Src/stm32h7xx_hal_spi.c ****         {
1119:./Libraries/STM32H7xx_HAL_Driver/Src/stm32h7xx_hal_spi.c ****           *((uint32_t *)hspi->pRxBuffPtr) = *((__IO uint32_t *)&hspi->Instance->RXDR);
 1482              		.loc 1 1119 69
 1483 0202 FB68     		ldr	r3, [r7, #12]
 1484 0204 1A68     		ldr	r2, [r3]
 1485              		.loc 1 1119 29
 1486 0206 FB68     		ldr	r3, [r7, #12]
 1487 0208 5B6E     		ldr	r3, [r3, #100]
 1488              		.loc 1 1119 45
 1489 020a 126B     		ldr	r2, [r2, #48]
 1490              		.loc 1 1119 43
 1491 020c 1A60     		str	r2, [r3]
1120:./Libraries/STM32H7xx_HAL_Driver/Src/stm32h7xx_hal_spi.c ****           hspi->pRxBuffPtr += sizeof(uint32_t);
 1492              		.loc 1 1120 28
 1493 020e FB68     		ldr	r3, [r7, #12]
 1494 0210 5B6E     		ldr	r3, [r3, #100]
 1495 0212 1A1D     		adds	r2, r3, #4
 1496 0214 FB68     		ldr	r3, [r7, #12]
 1497 0216 5A66     		str	r2, [r3, #100]
1121:./Libraries/STM32H7xx_HAL_Driver/Src/stm32h7xx_hal_spi.c ****           hspi->RxXferCount -= (uint16_t)2UL;
 1498              		.loc 1 1121 29
 1499 0218 FB68     		ldr	r3, [r7, #12]
 1500 021a B3F86A30 		ldrh	r3, [r3, #106]	@ movhi
 1501 021e 9BB2     		uxth	r3, r3
 1502 0220 023B     		subs	r3, r3, #2
ARM GAS  /tmp/ccwjY1CM.s 			page 47


 1503 0222 9AB2     		uxth	r2, r3
 1504 0224 FB68     		ldr	r3, [r7, #12]
 1505 0226 A3F86A20 		strh	r2, [r3, #106]	@ movhi
 1506 022a 38E0     		b	.L74
 1507              	.L76:
1122:./Libraries/STM32H7xx_HAL_Driver/Src/stm32h7xx_hal_spi.c ****         }
1123:./Libraries/STM32H7xx_HAL_Driver/Src/stm32h7xx_hal_spi.c ****         else
1124:./Libraries/STM32H7xx_HAL_Driver/Src/stm32h7xx_hal_spi.c ****         {
1125:./Libraries/STM32H7xx_HAL_Driver/Src/stm32h7xx_hal_spi.c **** #if defined (__GNUC__)
1126:./Libraries/STM32H7xx_HAL_Driver/Src/stm32h7xx_hal_spi.c ****           *((uint16_t *)hspi->pRxBuffPtr) = *prxdr_16bits;
 1508              		.loc 1 1126 29
 1509 022c FB68     		ldr	r3, [r7, #12]
 1510 022e 5B6E     		ldr	r3, [r3, #100]
 1511              		.loc 1 1126 45
 1512 0230 BA69     		ldr	r2, [r7, #24]
 1513 0232 1288     		ldrh	r2, [r2]	@ movhi
 1514 0234 92B2     		uxth	r2, r2
 1515              		.loc 1 1126 43
 1516 0236 1A80     		strh	r2, [r3]	@ movhi
1127:./Libraries/STM32H7xx_HAL_Driver/Src/stm32h7xx_hal_spi.c **** #else
1128:./Libraries/STM32H7xx_HAL_Driver/Src/stm32h7xx_hal_spi.c ****           *((uint16_t *)hspi->pRxBuffPtr) = *((__IO uint16_t *)&hspi->Instance->RXDR);
1129:./Libraries/STM32H7xx_HAL_Driver/Src/stm32h7xx_hal_spi.c **** #endif /* __GNUC__ */
1130:./Libraries/STM32H7xx_HAL_Driver/Src/stm32h7xx_hal_spi.c ****           hspi->pRxBuffPtr += sizeof(uint16_t);
 1517              		.loc 1 1130 28
 1518 0238 FB68     		ldr	r3, [r7, #12]
 1519 023a 5B6E     		ldr	r3, [r3, #100]
 1520 023c 9A1C     		adds	r2, r3, #2
 1521 023e FB68     		ldr	r3, [r7, #12]
 1522 0240 5A66     		str	r2, [r3, #100]
1131:./Libraries/STM32H7xx_HAL_Driver/Src/stm32h7xx_hal_spi.c ****           hspi->RxXferCount--;
 1523              		.loc 1 1131 15
 1524 0242 FB68     		ldr	r3, [r7, #12]
 1525 0244 B3F86A30 		ldrh	r3, [r3, #106]	@ movhi
 1526 0248 9BB2     		uxth	r3, r3
 1527              		.loc 1 1131 28
 1528 024a 013B     		subs	r3, r3, #1
 1529 024c 9AB2     		uxth	r2, r3
 1530 024e FB68     		ldr	r3, [r7, #12]
 1531 0250 A3F86A20 		strh	r2, [r3, #106]	@ movhi
 1532 0254 23E0     		b	.L74
 1533              	.L75:
1132:./Libraries/STM32H7xx_HAL_Driver/Src/stm32h7xx_hal_spi.c ****         }
1133:./Libraries/STM32H7xx_HAL_Driver/Src/stm32h7xx_hal_spi.c ****       }
1134:./Libraries/STM32H7xx_HAL_Driver/Src/stm32h7xx_hal_spi.c ****       else
1135:./Libraries/STM32H7xx_HAL_Driver/Src/stm32h7xx_hal_spi.c ****       {
1136:./Libraries/STM32H7xx_HAL_Driver/Src/stm32h7xx_hal_spi.c ****         /* Timeout management */
1137:./Libraries/STM32H7xx_HAL_Driver/Src/stm32h7xx_hal_spi.c ****         if ((((HAL_GetTick() - tickstart) >=  Timeout) && (Timeout != HAL_MAX_DELAY)) || (Timeout =
 1534              		.loc 1 1137 16
 1535 0256 FFF7FEFF 		bl	HAL_GetTick
 1536 025a 0246     		mov	r2, r0
 1537              		.loc 1 1137 30
 1538 025c 7B69     		ldr	r3, [r7, #20]
 1539 025e D31A     		subs	r3, r2, r3
 1540              		.loc 1 1137 12
 1541 0260 3A68     		ldr	r2, [r7]
 1542 0262 9A42     		cmp	r2, r3
 1543 0264 03D8     		bhi	.L77
ARM GAS  /tmp/ccwjY1CM.s 			page 48


 1544              		.loc 1 1137 56 discriminator 1
 1545 0266 3B68     		ldr	r3, [r7]
 1546 0268 B3F1FF3F 		cmp	r3, #-1
 1547 026c 02D1     		bne	.L78
 1548              	.L77:
 1549              		.loc 1 1137 87 discriminator 3
 1550 026e 3B68     		ldr	r3, [r7]
 1551 0270 002B     		cmp	r3, #0
 1552 0272 14D1     		bne	.L74
 1553              	.L78:
1138:./Libraries/STM32H7xx_HAL_Driver/Src/stm32h7xx_hal_spi.c ****         {
1139:./Libraries/STM32H7xx_HAL_Driver/Src/stm32h7xx_hal_spi.c ****           /* Call standard close procedure with error check */
1140:./Libraries/STM32H7xx_HAL_Driver/Src/stm32h7xx_hal_spi.c ****           SPI_CloseTransfer(hspi);
 1554              		.loc 1 1140 11
 1555 0274 F868     		ldr	r0, [r7, #12]
 1556 0276 FFF7FEFF 		bl	SPI_CloseTransfer
1141:./Libraries/STM32H7xx_HAL_Driver/Src/stm32h7xx_hal_spi.c **** 
1142:./Libraries/STM32H7xx_HAL_Driver/Src/stm32h7xx_hal_spi.c ****           /* Process Unlocked */
1143:./Libraries/STM32H7xx_HAL_Driver/Src/stm32h7xx_hal_spi.c ****           __HAL_UNLOCK(hspi);
 1557              		.loc 1 1143 11
 1558 027a FB68     		ldr	r3, [r7, #12]
 1559 027c 0022     		movs	r2, #0
 1560 027e 83F88020 		strb	r2, [r3, #128]
1144:./Libraries/STM32H7xx_HAL_Driver/Src/stm32h7xx_hal_spi.c **** 
1145:./Libraries/STM32H7xx_HAL_Driver/Src/stm32h7xx_hal_spi.c ****           SET_BIT(hspi->ErrorCode, HAL_SPI_ERROR_TIMEOUT);
 1561              		.loc 1 1145 11
 1562 0282 FB68     		ldr	r3, [r7, #12]
 1563 0284 D3F88430 		ldr	r3, [r3, #132]
 1564 0288 43F48072 		orr	r2, r3, #256
 1565 028c FB68     		ldr	r3, [r7, #12]
 1566 028e C3F88420 		str	r2, [r3, #132]
1146:./Libraries/STM32H7xx_HAL_Driver/Src/stm32h7xx_hal_spi.c ****           hspi->State = HAL_SPI_STATE_READY;
 1567              		.loc 1 1146 23
 1568 0292 FB68     		ldr	r3, [r7, #12]
 1569 0294 0122     		movs	r2, #1
 1570 0296 83F88120 		strb	r2, [r3, #129]
1147:./Libraries/STM32H7xx_HAL_Driver/Src/stm32h7xx_hal_spi.c ****           return HAL_ERROR;
 1571              		.loc 1 1147 18
 1572 029a 0123     		movs	r3, #1
 1573 029c 9EE0     		b	.L59
 1574              	.L74:
1112:./Libraries/STM32H7xx_HAL_Driver/Src/stm32h7xx_hal_spi.c ****     {
 1575              		.loc 1 1112 16
 1576 029e FB68     		ldr	r3, [r7, #12]
 1577 02a0 B3F86A30 		ldrh	r3, [r3, #106]	@ movhi
 1578 02a4 9BB2     		uxth	r3, r3
1112:./Libraries/STM32H7xx_HAL_Driver/Src/stm32h7xx_hal_spi.c ****     {
 1579              		.loc 1 1112 11
 1580 02a6 002B     		cmp	r3, #0
 1581 02a8 9DD1     		bne	.L79
 1582 02aa 84E0     		b	.L72
 1583              	.L86:
1148:./Libraries/STM32H7xx_HAL_Driver/Src/stm32h7xx_hal_spi.c ****         }
1149:./Libraries/STM32H7xx_HAL_Driver/Src/stm32h7xx_hal_spi.c ****       }
1150:./Libraries/STM32H7xx_HAL_Driver/Src/stm32h7xx_hal_spi.c ****     }
1151:./Libraries/STM32H7xx_HAL_Driver/Src/stm32h7xx_hal_spi.c ****   }
1152:./Libraries/STM32H7xx_HAL_Driver/Src/stm32h7xx_hal_spi.c ****   /* Receive data in 8 Bit mode */
ARM GAS  /tmp/ccwjY1CM.s 			page 49


1153:./Libraries/STM32H7xx_HAL_Driver/Src/stm32h7xx_hal_spi.c ****   else
1154:./Libraries/STM32H7xx_HAL_Driver/Src/stm32h7xx_hal_spi.c ****   {
1155:./Libraries/STM32H7xx_HAL_Driver/Src/stm32h7xx_hal_spi.c ****     /* Transfer loop */
1156:./Libraries/STM32H7xx_HAL_Driver/Src/stm32h7xx_hal_spi.c ****     while (hspi->RxXferCount > 0UL)
1157:./Libraries/STM32H7xx_HAL_Driver/Src/stm32h7xx_hal_spi.c ****     {
1158:./Libraries/STM32H7xx_HAL_Driver/Src/stm32h7xx_hal_spi.c ****       /* Check the RXWNE/FRLVL flag */
1159:./Libraries/STM32H7xx_HAL_Driver/Src/stm32h7xx_hal_spi.c ****       if ((hspi->Instance->SR & (SPI_FLAG_RXWNE | SPI_FLAG_FRLVL)) != 0UL)
 1584              		.loc 1 1159 16
 1585 02ac FB68     		ldr	r3, [r7, #12]
 1586 02ae 1B68     		ldr	r3, [r3]
 1587              		.loc 1 1159 26
 1588 02b0 5B69     		ldr	r3, [r3, #20]
 1589              		.loc 1 1159 31
 1590 02b2 03F46043 		and	r3, r3, #57344
 1591              		.loc 1 1159 10
 1592 02b6 002B     		cmp	r3, #0
 1593 02b8 52D0     		beq	.L81
1160:./Libraries/STM32H7xx_HAL_Driver/Src/stm32h7xx_hal_spi.c ****       {
1161:./Libraries/STM32H7xx_HAL_Driver/Src/stm32h7xx_hal_spi.c ****         if ((hspi->Instance->SR & SPI_FLAG_RXWNE) != 0UL)
 1594              		.loc 1 1161 18
 1595 02ba FB68     		ldr	r3, [r7, #12]
 1596 02bc 1B68     		ldr	r3, [r3]
 1597              		.loc 1 1161 28
 1598 02be 5B69     		ldr	r3, [r3, #20]
 1599              		.loc 1 1161 33
 1600 02c0 03F40043 		and	r3, r3, #32768
 1601              		.loc 1 1161 12
 1602 02c4 002B     		cmp	r3, #0
 1603 02c6 14D0     		beq	.L82
1162:./Libraries/STM32H7xx_HAL_Driver/Src/stm32h7xx_hal_spi.c ****         {
1163:./Libraries/STM32H7xx_HAL_Driver/Src/stm32h7xx_hal_spi.c ****           *((uint32_t *)hspi->pRxBuffPtr) = *((__IO uint32_t *)&hspi->Instance->RXDR);
 1604              		.loc 1 1163 69
 1605 02c8 FB68     		ldr	r3, [r7, #12]
 1606 02ca 1A68     		ldr	r2, [r3]
 1607              		.loc 1 1163 29
 1608 02cc FB68     		ldr	r3, [r7, #12]
 1609 02ce 5B6E     		ldr	r3, [r3, #100]
 1610              		.loc 1 1163 45
 1611 02d0 126B     		ldr	r2, [r2, #48]
 1612              		.loc 1 1163 43
 1613 02d2 1A60     		str	r2, [r3]
1164:./Libraries/STM32H7xx_HAL_Driver/Src/stm32h7xx_hal_spi.c ****           hspi->pRxBuffPtr += sizeof(uint32_t);
 1614              		.loc 1 1164 28
 1615 02d4 FB68     		ldr	r3, [r7, #12]
 1616 02d6 5B6E     		ldr	r3, [r3, #100]
 1617 02d8 1A1D     		adds	r2, r3, #4
 1618 02da FB68     		ldr	r3, [r7, #12]
 1619 02dc 5A66     		str	r2, [r3, #100]
1165:./Libraries/STM32H7xx_HAL_Driver/Src/stm32h7xx_hal_spi.c ****           hspi->RxXferCount -= (uint16_t)4UL;
 1620              		.loc 1 1165 29
 1621 02de FB68     		ldr	r3, [r7, #12]
 1622 02e0 B3F86A30 		ldrh	r3, [r3, #106]	@ movhi
 1623 02e4 9BB2     		uxth	r3, r3
 1624 02e6 043B     		subs	r3, r3, #4
 1625 02e8 9AB2     		uxth	r2, r3
 1626 02ea FB68     		ldr	r3, [r7, #12]
 1627 02ec A3F86A20 		strh	r2, [r3, #106]	@ movhi
ARM GAS  /tmp/ccwjY1CM.s 			page 50


 1628 02f0 5AE0     		b	.L80
 1629              	.L82:
1166:./Libraries/STM32H7xx_HAL_Driver/Src/stm32h7xx_hal_spi.c ****         }
1167:./Libraries/STM32H7xx_HAL_Driver/Src/stm32h7xx_hal_spi.c ****         else if ((hspi->Instance->SR & SPI_FLAG_FRLVL) > SPI_RX_FIFO_1PACKET)
 1630              		.loc 1 1167 23
 1631 02f2 FB68     		ldr	r3, [r7, #12]
 1632 02f4 1B68     		ldr	r3, [r3]
 1633              		.loc 1 1167 33
 1634 02f6 5B69     		ldr	r3, [r3, #20]
 1635              		.loc 1 1167 38
 1636 02f8 03F4C043 		and	r3, r3, #24576
 1637              		.loc 1 1167 17
 1638 02fc B3F5005F 		cmp	r3, #8192
 1639 0300 14D9     		bls	.L83
1168:./Libraries/STM32H7xx_HAL_Driver/Src/stm32h7xx_hal_spi.c ****         {
1169:./Libraries/STM32H7xx_HAL_Driver/Src/stm32h7xx_hal_spi.c **** #if defined (__GNUC__)
1170:./Libraries/STM32H7xx_HAL_Driver/Src/stm32h7xx_hal_spi.c ****           *((uint16_t *)hspi->pRxBuffPtr) = *prxdr_16bits;
 1640              		.loc 1 1170 29
 1641 0302 FB68     		ldr	r3, [r7, #12]
 1642 0304 5B6E     		ldr	r3, [r3, #100]
 1643              		.loc 1 1170 45
 1644 0306 BA69     		ldr	r2, [r7, #24]
 1645 0308 1288     		ldrh	r2, [r2]	@ movhi
 1646 030a 92B2     		uxth	r2, r2
 1647              		.loc 1 1170 43
 1648 030c 1A80     		strh	r2, [r3]	@ movhi
1171:./Libraries/STM32H7xx_HAL_Driver/Src/stm32h7xx_hal_spi.c **** #else
1172:./Libraries/STM32H7xx_HAL_Driver/Src/stm32h7xx_hal_spi.c ****           *((uint16_t *)hspi->pRxBuffPtr) = *((__IO uint16_t *)&hspi->Instance->RXDR);
1173:./Libraries/STM32H7xx_HAL_Driver/Src/stm32h7xx_hal_spi.c **** #endif /* __GNUC__ */
1174:./Libraries/STM32H7xx_HAL_Driver/Src/stm32h7xx_hal_spi.c ****           hspi->pRxBuffPtr += sizeof(uint16_t);
 1649              		.loc 1 1174 28
 1650 030e FB68     		ldr	r3, [r7, #12]
 1651 0310 5B6E     		ldr	r3, [r3, #100]
 1652 0312 9A1C     		adds	r2, r3, #2
 1653 0314 FB68     		ldr	r3, [r7, #12]
 1654 0316 5A66     		str	r2, [r3, #100]
1175:./Libraries/STM32H7xx_HAL_Driver/Src/stm32h7xx_hal_spi.c ****           hspi->RxXferCount -= (uint16_t)2UL;
 1655              		.loc 1 1175 29
 1656 0318 FB68     		ldr	r3, [r7, #12]
 1657 031a B3F86A30 		ldrh	r3, [r3, #106]	@ movhi
 1658 031e 9BB2     		uxth	r3, r3
 1659 0320 023B     		subs	r3, r3, #2
 1660 0322 9AB2     		uxth	r2, r3
 1661 0324 FB68     		ldr	r3, [r7, #12]
 1662 0326 A3F86A20 		strh	r2, [r3, #106]	@ movhi
 1663 032a 3DE0     		b	.L80
 1664              	.L83:
1176:./Libraries/STM32H7xx_HAL_Driver/Src/stm32h7xx_hal_spi.c ****         }
1177:./Libraries/STM32H7xx_HAL_Driver/Src/stm32h7xx_hal_spi.c ****         else
1178:./Libraries/STM32H7xx_HAL_Driver/Src/stm32h7xx_hal_spi.c ****         {
1179:./Libraries/STM32H7xx_HAL_Driver/Src/stm32h7xx_hal_spi.c ****           *((uint8_t *)hspi->pRxBuffPtr) = *((__IO uint8_t *)&hspi->Instance->RXDR);
 1665              		.loc 1 1179 67
 1666 032c FB68     		ldr	r3, [r7, #12]
 1667 032e 1B68     		ldr	r3, [r3]
 1668              		.loc 1 1179 62
 1669 0330 03F13002 		add	r2, r3, #48
 1670              		.loc 1 1179 28
ARM GAS  /tmp/ccwjY1CM.s 			page 51


 1671 0334 FB68     		ldr	r3, [r7, #12]
 1672 0336 5B6E     		ldr	r3, [r3, #100]
 1673              		.loc 1 1179 44
 1674 0338 1278     		ldrb	r2, [r2]
 1675 033a D2B2     		uxtb	r2, r2
 1676              		.loc 1 1179 42
 1677 033c 1A70     		strb	r2, [r3]
1180:./Libraries/STM32H7xx_HAL_Driver/Src/stm32h7xx_hal_spi.c ****           hspi->pRxBuffPtr += sizeof(uint8_t);
 1678              		.loc 1 1180 28
 1679 033e FB68     		ldr	r3, [r7, #12]
 1680 0340 5B6E     		ldr	r3, [r3, #100]
 1681 0342 5A1C     		adds	r2, r3, #1
 1682 0344 FB68     		ldr	r3, [r7, #12]
 1683 0346 5A66     		str	r2, [r3, #100]
1181:./Libraries/STM32H7xx_HAL_Driver/Src/stm32h7xx_hal_spi.c ****           hspi->RxXferCount--;
 1684              		.loc 1 1181 15
 1685 0348 FB68     		ldr	r3, [r7, #12]
 1686 034a B3F86A30 		ldrh	r3, [r3, #106]	@ movhi
 1687 034e 9BB2     		uxth	r3, r3
 1688              		.loc 1 1181 28
 1689 0350 013B     		subs	r3, r3, #1
 1690 0352 9AB2     		uxth	r2, r3
 1691 0354 FB68     		ldr	r3, [r7, #12]
 1692 0356 A3F86A20 		strh	r2, [r3, #106]	@ movhi
 1693 035a 25E0     		b	.L80
 1694              	.L89:
 1695              		.align	2
 1696              	.L88:
 1697 035c 0000FFFF 		.word	-65536
 1698              	.L81:
1182:./Libraries/STM32H7xx_HAL_Driver/Src/stm32h7xx_hal_spi.c ****         }
1183:./Libraries/STM32H7xx_HAL_Driver/Src/stm32h7xx_hal_spi.c ****       }
1184:./Libraries/STM32H7xx_HAL_Driver/Src/stm32h7xx_hal_spi.c ****       else
1185:./Libraries/STM32H7xx_HAL_Driver/Src/stm32h7xx_hal_spi.c ****       {
1186:./Libraries/STM32H7xx_HAL_Driver/Src/stm32h7xx_hal_spi.c ****         /* Timeout management */
1187:./Libraries/STM32H7xx_HAL_Driver/Src/stm32h7xx_hal_spi.c ****         if ((((HAL_GetTick() - tickstart) >=  Timeout) && (Timeout != HAL_MAX_DELAY)) || (Timeout =
 1699              		.loc 1 1187 16
 1700 0360 FFF7FEFF 		bl	HAL_GetTick
 1701 0364 0246     		mov	r2, r0
 1702              		.loc 1 1187 30
 1703 0366 7B69     		ldr	r3, [r7, #20]
 1704 0368 D31A     		subs	r3, r2, r3
 1705              		.loc 1 1187 12
 1706 036a 3A68     		ldr	r2, [r7]
 1707 036c 9A42     		cmp	r2, r3
 1708 036e 03D8     		bhi	.L84
 1709              		.loc 1 1187 56 discriminator 1
 1710 0370 3B68     		ldr	r3, [r7]
 1711 0372 B3F1FF3F 		cmp	r3, #-1
 1712 0376 02D1     		bne	.L85
 1713              	.L84:
 1714              		.loc 1 1187 87 discriminator 3
 1715 0378 3B68     		ldr	r3, [r7]
 1716 037a 002B     		cmp	r3, #0
 1717 037c 14D1     		bne	.L80
 1718              	.L85:
1188:./Libraries/STM32H7xx_HAL_Driver/Src/stm32h7xx_hal_spi.c ****         {
ARM GAS  /tmp/ccwjY1CM.s 			page 52


1189:./Libraries/STM32H7xx_HAL_Driver/Src/stm32h7xx_hal_spi.c ****           /* Call standard close procedure with error check */
1190:./Libraries/STM32H7xx_HAL_Driver/Src/stm32h7xx_hal_spi.c ****           SPI_CloseTransfer(hspi);
 1719              		.loc 1 1190 11
 1720 037e F868     		ldr	r0, [r7, #12]
 1721 0380 FFF7FEFF 		bl	SPI_CloseTransfer
1191:./Libraries/STM32H7xx_HAL_Driver/Src/stm32h7xx_hal_spi.c **** 
1192:./Libraries/STM32H7xx_HAL_Driver/Src/stm32h7xx_hal_spi.c ****           /* Process Unlocked */
1193:./Libraries/STM32H7xx_HAL_Driver/Src/stm32h7xx_hal_spi.c ****           __HAL_UNLOCK(hspi);
 1722              		.loc 1 1193 11
 1723 0384 FB68     		ldr	r3, [r7, #12]
 1724 0386 0022     		movs	r2, #0
 1725 0388 83F88020 		strb	r2, [r3, #128]
1194:./Libraries/STM32H7xx_HAL_Driver/Src/stm32h7xx_hal_spi.c **** 
1195:./Libraries/STM32H7xx_HAL_Driver/Src/stm32h7xx_hal_spi.c ****           SET_BIT(hspi->ErrorCode, HAL_SPI_ERROR_TIMEOUT);
 1726              		.loc 1 1195 11
 1727 038c FB68     		ldr	r3, [r7, #12]
 1728 038e D3F88430 		ldr	r3, [r3, #132]
 1729 0392 43F48072 		orr	r2, r3, #256
 1730 0396 FB68     		ldr	r3, [r7, #12]
 1731 0398 C3F88420 		str	r2, [r3, #132]
1196:./Libraries/STM32H7xx_HAL_Driver/Src/stm32h7xx_hal_spi.c ****           hspi->State = HAL_SPI_STATE_READY;
 1732              		.loc 1 1196 23
 1733 039c FB68     		ldr	r3, [r7, #12]
 1734 039e 0122     		movs	r2, #1
 1735 03a0 83F88120 		strb	r2, [r3, #129]
1197:./Libraries/STM32H7xx_HAL_Driver/Src/stm32h7xx_hal_spi.c ****           return HAL_ERROR;
 1736              		.loc 1 1197 18
 1737 03a4 0123     		movs	r3, #1
 1738 03a6 19E0     		b	.L59
 1739              	.L80:
1156:./Libraries/STM32H7xx_HAL_Driver/Src/stm32h7xx_hal_spi.c ****     {
 1740              		.loc 1 1156 16
 1741 03a8 FB68     		ldr	r3, [r7, #12]
 1742 03aa B3F86A30 		ldrh	r3, [r3, #106]	@ movhi
 1743 03ae 9BB2     		uxth	r3, r3
1156:./Libraries/STM32H7xx_HAL_Driver/Src/stm32h7xx_hal_spi.c ****     {
 1744              		.loc 1 1156 11
 1745 03b0 002B     		cmp	r3, #0
 1746 03b2 7FF47BAF 		bne	.L86
 1747              	.L72:
1198:./Libraries/STM32H7xx_HAL_Driver/Src/stm32h7xx_hal_spi.c ****         }
1199:./Libraries/STM32H7xx_HAL_Driver/Src/stm32h7xx_hal_spi.c ****       }
1200:./Libraries/STM32H7xx_HAL_Driver/Src/stm32h7xx_hal_spi.c ****     }
1201:./Libraries/STM32H7xx_HAL_Driver/Src/stm32h7xx_hal_spi.c ****   }
1202:./Libraries/STM32H7xx_HAL_Driver/Src/stm32h7xx_hal_spi.c **** 
1203:./Libraries/STM32H7xx_HAL_Driver/Src/stm32h7xx_hal_spi.c **** #if (USE_SPI_CRC != 0UL)
1204:./Libraries/STM32H7xx_HAL_Driver/Src/stm32h7xx_hal_spi.c ****   if (hspi->Init.CRCCalculation == SPI_CRCCALCULATION_ENABLE)
1205:./Libraries/STM32H7xx_HAL_Driver/Src/stm32h7xx_hal_spi.c ****   {
1206:./Libraries/STM32H7xx_HAL_Driver/Src/stm32h7xx_hal_spi.c ****     /* Wait for crc data to be received */
1207:./Libraries/STM32H7xx_HAL_Driver/Src/stm32h7xx_hal_spi.c ****     if (SPI_WaitOnFlagUntilTimeout(hspi, SPI_FLAG_EOT, RESET, tickstart, Timeout) != HAL_OK)
1208:./Libraries/STM32H7xx_HAL_Driver/Src/stm32h7xx_hal_spi.c ****     {
1209:./Libraries/STM32H7xx_HAL_Driver/Src/stm32h7xx_hal_spi.c ****       SET_BIT(hspi->ErrorCode, HAL_SPI_ERROR_FLAG);
1210:./Libraries/STM32H7xx_HAL_Driver/Src/stm32h7xx_hal_spi.c ****     }
1211:./Libraries/STM32H7xx_HAL_Driver/Src/stm32h7xx_hal_spi.c ****   }
1212:./Libraries/STM32H7xx_HAL_Driver/Src/stm32h7xx_hal_spi.c **** #endif /* USE_SPI_CRC */
1213:./Libraries/STM32H7xx_HAL_Driver/Src/stm32h7xx_hal_spi.c **** 
1214:./Libraries/STM32H7xx_HAL_Driver/Src/stm32h7xx_hal_spi.c ****   /* Call standard close procedure with error check */
ARM GAS  /tmp/ccwjY1CM.s 			page 53


1215:./Libraries/STM32H7xx_HAL_Driver/Src/stm32h7xx_hal_spi.c ****   SPI_CloseTransfer(hspi);
 1748              		.loc 1 1215 3
 1749 03b6 F868     		ldr	r0, [r7, #12]
 1750 03b8 FFF7FEFF 		bl	SPI_CloseTransfer
1216:./Libraries/STM32H7xx_HAL_Driver/Src/stm32h7xx_hal_spi.c **** 
1217:./Libraries/STM32H7xx_HAL_Driver/Src/stm32h7xx_hal_spi.c ****   /* Process Unlocked */
1218:./Libraries/STM32H7xx_HAL_Driver/Src/stm32h7xx_hal_spi.c ****   __HAL_UNLOCK(hspi);
 1751              		.loc 1 1218 3
 1752 03bc FB68     		ldr	r3, [r7, #12]
 1753 03be 0022     		movs	r2, #0
 1754 03c0 83F88020 		strb	r2, [r3, #128]
1219:./Libraries/STM32H7xx_HAL_Driver/Src/stm32h7xx_hal_spi.c **** 
1220:./Libraries/STM32H7xx_HAL_Driver/Src/stm32h7xx_hal_spi.c ****   hspi->State = HAL_SPI_STATE_READY;
 1755              		.loc 1 1220 15
 1756 03c4 FB68     		ldr	r3, [r7, #12]
 1757 03c6 0122     		movs	r2, #1
 1758 03c8 83F88120 		strb	r2, [r3, #129]
1221:./Libraries/STM32H7xx_HAL_Driver/Src/stm32h7xx_hal_spi.c **** 
1222:./Libraries/STM32H7xx_HAL_Driver/Src/stm32h7xx_hal_spi.c ****   if (hspi->ErrorCode != HAL_SPI_ERROR_NONE)
 1759              		.loc 1 1222 11
 1760 03cc FB68     		ldr	r3, [r7, #12]
 1761 03ce D3F88430 		ldr	r3, [r3, #132]
 1762              		.loc 1 1222 6
 1763 03d2 002B     		cmp	r3, #0
 1764 03d4 01D0     		beq	.L87
1223:./Libraries/STM32H7xx_HAL_Driver/Src/stm32h7xx_hal_spi.c ****   {
1224:./Libraries/STM32H7xx_HAL_Driver/Src/stm32h7xx_hal_spi.c ****     return HAL_ERROR;
 1765              		.loc 1 1224 12
 1766 03d6 0123     		movs	r3, #1
 1767 03d8 00E0     		b	.L59
 1768              	.L87:
1225:./Libraries/STM32H7xx_HAL_Driver/Src/stm32h7xx_hal_spi.c ****   }
1226:./Libraries/STM32H7xx_HAL_Driver/Src/stm32h7xx_hal_spi.c ****   return errorcode;
 1769              		.loc 1 1226 10
 1770 03da FB7F     		ldrb	r3, [r7, #31]	@ zero_extendqisi2
 1771              	.L59:
1227:./Libraries/STM32H7xx_HAL_Driver/Src/stm32h7xx_hal_spi.c **** }
 1772              		.loc 1 1227 1
 1773 03dc 1846     		mov	r0, r3
 1774 03de 2037     		adds	r7, r7, #32
 1775              	.LCFI30:
 1776              		.cfi_def_cfa_offset 8
 1777 03e0 BD46     		mov	sp, r7
 1778              	.LCFI31:
 1779              		.cfi_def_cfa_register 13
 1780              		@ sp needed
 1781 03e2 80BD     		pop	{r7, pc}
 1782              		.cfi_endproc
 1783              	.LFE336:
 1785              		.section	.text.HAL_SPI_TransmitReceive,"ax",%progbits
 1786              		.align	1
 1787              		.global	HAL_SPI_TransmitReceive
 1788              		.syntax unified
 1789              		.thumb
 1790              		.thumb_func
 1791              		.fpu fpv5-d16
 1793              	HAL_SPI_TransmitReceive:
ARM GAS  /tmp/ccwjY1CM.s 			page 54


 1794              	.LFB337:
1228:./Libraries/STM32H7xx_HAL_Driver/Src/stm32h7xx_hal_spi.c **** 
1229:./Libraries/STM32H7xx_HAL_Driver/Src/stm32h7xx_hal_spi.c **** /**
1230:./Libraries/STM32H7xx_HAL_Driver/Src/stm32h7xx_hal_spi.c ****   * @brief  Transmit and Receive an amount of data in blocking mode.
1231:./Libraries/STM32H7xx_HAL_Driver/Src/stm32h7xx_hal_spi.c ****   * @param  hspi   : pointer to a SPI_HandleTypeDef structure that contains
1232:./Libraries/STM32H7xx_HAL_Driver/Src/stm32h7xx_hal_spi.c ****   *                  the configuration information for SPI module.
1233:./Libraries/STM32H7xx_HAL_Driver/Src/stm32h7xx_hal_spi.c ****   * @param  pTxData: pointer to transmission data buffer
1234:./Libraries/STM32H7xx_HAL_Driver/Src/stm32h7xx_hal_spi.c ****   * @param  pRxData: pointer to reception data buffer
1235:./Libraries/STM32H7xx_HAL_Driver/Src/stm32h7xx_hal_spi.c ****   * @param  Size   : amount of data to be sent and received
1236:./Libraries/STM32H7xx_HAL_Driver/Src/stm32h7xx_hal_spi.c ****   * @param  Timeout: Timeout duration
1237:./Libraries/STM32H7xx_HAL_Driver/Src/stm32h7xx_hal_spi.c ****   * @retval HAL status
1238:./Libraries/STM32H7xx_HAL_Driver/Src/stm32h7xx_hal_spi.c ****   */
1239:./Libraries/STM32H7xx_HAL_Driver/Src/stm32h7xx_hal_spi.c **** HAL_StatusTypeDef HAL_SPI_TransmitReceive(SPI_HandleTypeDef *hspi, uint8_t *pTxData, uint8_t *pRxDa
1240:./Libraries/STM32H7xx_HAL_Driver/Src/stm32h7xx_hal_spi.c ****                                           uint32_t Timeout)
1241:./Libraries/STM32H7xx_HAL_Driver/Src/stm32h7xx_hal_spi.c **** {
 1795              		.loc 1 1241 1
 1796              		.cfi_startproc
 1797              		@ args = 4, pretend = 0, frame = 48
 1798              		@ frame_needed = 1, uses_anonymous_args = 0
 1799 0000 80B5     		push	{r7, lr}
 1800              	.LCFI32:
 1801              		.cfi_def_cfa_offset 8
 1802              		.cfi_offset 7, -8
 1803              		.cfi_offset 14, -4
 1804 0002 8EB0     		sub	sp, sp, #56
 1805              	.LCFI33:
 1806              		.cfi_def_cfa_offset 64
 1807 0004 02AF     		add	r7, sp, #8
 1808              	.LCFI34:
 1809              		.cfi_def_cfa 7, 56
 1810 0006 F860     		str	r0, [r7, #12]
 1811 0008 B960     		str	r1, [r7, #8]
 1812 000a 7A60     		str	r2, [r7, #4]
 1813 000c 7B80     		strh	r3, [r7, #2]	@ movhi
1242:./Libraries/STM32H7xx_HAL_Driver/Src/stm32h7xx_hal_spi.c ****   HAL_SPI_StateTypeDef tmp_state;
1243:./Libraries/STM32H7xx_HAL_Driver/Src/stm32h7xx_hal_spi.c ****   HAL_StatusTypeDef errorcode = HAL_OK;
 1814              		.loc 1 1243 21
 1815 000e 0023     		movs	r3, #0
 1816 0010 87F82B30 		strb	r3, [r7, #43]
1244:./Libraries/STM32H7xx_HAL_Driver/Src/stm32h7xx_hal_spi.c **** #if defined (__GNUC__)
1245:./Libraries/STM32H7xx_HAL_Driver/Src/stm32h7xx_hal_spi.c ****   __IO uint16_t *ptxdr_16bits = (__IO uint16_t *)(&(hspi->Instance->TXDR));
 1817              		.loc 1 1245 57
 1818 0014 FB68     		ldr	r3, [r7, #12]
 1819 0016 1B68     		ldr	r3, [r3]
 1820              		.loc 1 1245 18
 1821 0018 2033     		adds	r3, r3, #32
 1822 001a 7B62     		str	r3, [r7, #36]
1246:./Libraries/STM32H7xx_HAL_Driver/Src/stm32h7xx_hal_spi.c ****   __IO uint16_t *prxdr_16bits = (__IO uint16_t *)(&(hspi->Instance->RXDR));
 1823              		.loc 1 1246 57
 1824 001c FB68     		ldr	r3, [r7, #12]
 1825 001e 1B68     		ldr	r3, [r3]
 1826              		.loc 1 1246 18
 1827 0020 3033     		adds	r3, r3, #48
 1828 0022 3B62     		str	r3, [r7, #32]
1247:./Libraries/STM32H7xx_HAL_Driver/Src/stm32h7xx_hal_spi.c **** #endif /* __GNUC__ */
1248:./Libraries/STM32H7xx_HAL_Driver/Src/stm32h7xx_hal_spi.c **** 
1249:./Libraries/STM32H7xx_HAL_Driver/Src/stm32h7xx_hal_spi.c ****   uint32_t   tickstart;
ARM GAS  /tmp/ccwjY1CM.s 			page 55


1250:./Libraries/STM32H7xx_HAL_Driver/Src/stm32h7xx_hal_spi.c ****   uint32_t   tmp_mode;
1251:./Libraries/STM32H7xx_HAL_Driver/Src/stm32h7xx_hal_spi.c ****   uint16_t   initial_TxXferCount;
1252:./Libraries/STM32H7xx_HAL_Driver/Src/stm32h7xx_hal_spi.c ****   uint16_t   initial_RxXferCount;
1253:./Libraries/STM32H7xx_HAL_Driver/Src/stm32h7xx_hal_spi.c **** 
1254:./Libraries/STM32H7xx_HAL_Driver/Src/stm32h7xx_hal_spi.c ****   /* Check Direction parameter */
1255:./Libraries/STM32H7xx_HAL_Driver/Src/stm32h7xx_hal_spi.c ****   assert_param(IS_SPI_DIRECTION_2LINES(hspi->Init.Direction));
1256:./Libraries/STM32H7xx_HAL_Driver/Src/stm32h7xx_hal_spi.c **** 
1257:./Libraries/STM32H7xx_HAL_Driver/Src/stm32h7xx_hal_spi.c ****   /* Process Locked */
1258:./Libraries/STM32H7xx_HAL_Driver/Src/stm32h7xx_hal_spi.c ****   __HAL_LOCK(hspi);
 1829              		.loc 1 1258 3
 1830 0024 FB68     		ldr	r3, [r7, #12]
 1831 0026 93F88030 		ldrb	r3, [r3, #128]	@ zero_extendqisi2
 1832 002a 012B     		cmp	r3, #1
 1833 002c 01D1     		bne	.L91
 1834              		.loc 1 1258 3 is_stmt 0 discriminator 1
 1835 002e 0223     		movs	r3, #2
 1836 0030 CEE2     		b	.L92
 1837              	.L91:
 1838              		.loc 1 1258 3 discriminator 2
 1839 0032 FB68     		ldr	r3, [r7, #12]
 1840 0034 0122     		movs	r2, #1
 1841 0036 83F88020 		strb	r2, [r3, #128]
1259:./Libraries/STM32H7xx_HAL_Driver/Src/stm32h7xx_hal_spi.c **** 
1260:./Libraries/STM32H7xx_HAL_Driver/Src/stm32h7xx_hal_spi.c ****   /* Init tickstart for timeout management*/
1261:./Libraries/STM32H7xx_HAL_Driver/Src/stm32h7xx_hal_spi.c ****   tickstart = HAL_GetTick();
 1842              		.loc 1 1261 15 is_stmt 1 discriminator 2
 1843 003a FFF7FEFF 		bl	HAL_GetTick
 1844 003e F861     		str	r0, [r7, #28]
1262:./Libraries/STM32H7xx_HAL_Driver/Src/stm32h7xx_hal_spi.c **** 
1263:./Libraries/STM32H7xx_HAL_Driver/Src/stm32h7xx_hal_spi.c ****   initial_TxXferCount = Size;
 1845              		.loc 1 1263 23 discriminator 2
 1846 0040 7B88     		ldrh	r3, [r7, #2]	@ movhi
 1847 0042 FB85     		strh	r3, [r7, #46]	@ movhi
1264:./Libraries/STM32H7xx_HAL_Driver/Src/stm32h7xx_hal_spi.c ****   initial_RxXferCount = Size;
 1848              		.loc 1 1264 23 discriminator 2
 1849 0044 7B88     		ldrh	r3, [r7, #2]	@ movhi
 1850 0046 BB85     		strh	r3, [r7, #44]	@ movhi
1265:./Libraries/STM32H7xx_HAL_Driver/Src/stm32h7xx_hal_spi.c ****   tmp_state           = hspi->State;
 1851              		.loc 1 1265 23 discriminator 2
 1852 0048 FB68     		ldr	r3, [r7, #12]
 1853 004a 93F88130 		ldrb	r3, [r3, #129]
 1854 004e FB76     		strb	r3, [r7, #27]
1266:./Libraries/STM32H7xx_HAL_Driver/Src/stm32h7xx_hal_spi.c ****   tmp_mode            = hspi->Init.Mode;
 1855              		.loc 1 1266 23 discriminator 2
 1856 0050 FB68     		ldr	r3, [r7, #12]
 1857 0052 5B68     		ldr	r3, [r3, #4]
 1858 0054 7B61     		str	r3, [r7, #20]
1267:./Libraries/STM32H7xx_HAL_Driver/Src/stm32h7xx_hal_spi.c **** 
1268:./Libraries/STM32H7xx_HAL_Driver/Src/stm32h7xx_hal_spi.c ****   if (!((tmp_state == HAL_SPI_STATE_READY) || \
 1859              		.loc 1 1268 6 discriminator 2
 1860 0056 FB7E     		ldrb	r3, [r7, #27]	@ zero_extendqisi2
 1861 0058 012B     		cmp	r3, #1
 1862 005a 14D0     		beq	.L93
 1863              		.loc 1 1268 7 discriminator 1
 1864 005c 7B69     		ldr	r3, [r7, #20]
 1865 005e B3F5800F 		cmp	r3, #4194304
 1866 0062 06D1     		bne	.L94
ARM GAS  /tmp/ccwjY1CM.s 			page 56


1269:./Libraries/STM32H7xx_HAL_Driver/Src/stm32h7xx_hal_spi.c ****         ((tmp_mode == SPI_MODE_MASTER) && (hspi->Init.Direction == SPI_DIRECTION_2LINES) && (tmp_st
 1867              		.loc 1 1269 54
 1868 0064 FB68     		ldr	r3, [r7, #12]
 1869 0066 9B68     		ldr	r3, [r3, #8]
 1870              		.loc 1 1269 40
 1871 0068 002B     		cmp	r3, #0
 1872 006a 02D1     		bne	.L94
 1873              		.loc 1 1269 90 discriminator 1
 1874 006c FB7E     		ldrb	r3, [r7, #27]	@ zero_extendqisi2
 1875 006e 042B     		cmp	r3, #4
 1876 0070 09D0     		beq	.L93
 1877              	.L94:
1270:./Libraries/STM32H7xx_HAL_Driver/Src/stm32h7xx_hal_spi.c ****   {
1271:./Libraries/STM32H7xx_HAL_Driver/Src/stm32h7xx_hal_spi.c ****     errorcode = HAL_BUSY;
 1878              		.loc 1 1271 15
 1879 0072 0223     		movs	r3, #2
 1880 0074 87F82B30 		strb	r3, [r7, #43]
1272:./Libraries/STM32H7xx_HAL_Driver/Src/stm32h7xx_hal_spi.c ****     __HAL_UNLOCK(hspi);
 1881              		.loc 1 1272 5
 1882 0078 FB68     		ldr	r3, [r7, #12]
 1883 007a 0022     		movs	r2, #0
 1884 007c 83F88020 		strb	r2, [r3, #128]
1273:./Libraries/STM32H7xx_HAL_Driver/Src/stm32h7xx_hal_spi.c ****     return errorcode;
 1885              		.loc 1 1273 12
 1886 0080 97F82B30 		ldrb	r3, [r7, #43]	@ zero_extendqisi2
 1887 0084 A4E2     		b	.L92
 1888              	.L93:
1274:./Libraries/STM32H7xx_HAL_Driver/Src/stm32h7xx_hal_spi.c ****   }
1275:./Libraries/STM32H7xx_HAL_Driver/Src/stm32h7xx_hal_spi.c **** 
1276:./Libraries/STM32H7xx_HAL_Driver/Src/stm32h7xx_hal_spi.c ****   if ((pTxData == NULL) || (pRxData == NULL) || (Size == 0UL))
 1889              		.loc 1 1276 6
 1890 0086 BB68     		ldr	r3, [r7, #8]
 1891 0088 002B     		cmp	r3, #0
 1892 008a 05D0     		beq	.L95
 1893              		.loc 1 1276 25 discriminator 1
 1894 008c 7B68     		ldr	r3, [r7, #4]
 1895 008e 002B     		cmp	r3, #0
 1896 0090 02D0     		beq	.L95
 1897              		.loc 1 1276 46 discriminator 2
 1898 0092 7B88     		ldrh	r3, [r7, #2]
 1899 0094 002B     		cmp	r3, #0
 1900 0096 09D1     		bne	.L96
 1901              	.L95:
1277:./Libraries/STM32H7xx_HAL_Driver/Src/stm32h7xx_hal_spi.c ****   {
1278:./Libraries/STM32H7xx_HAL_Driver/Src/stm32h7xx_hal_spi.c ****     errorcode = HAL_ERROR;
 1902              		.loc 1 1278 15
 1903 0098 0123     		movs	r3, #1
 1904 009a 87F82B30 		strb	r3, [r7, #43]
1279:./Libraries/STM32H7xx_HAL_Driver/Src/stm32h7xx_hal_spi.c ****     __HAL_UNLOCK(hspi);
 1905              		.loc 1 1279 5
 1906 009e FB68     		ldr	r3, [r7, #12]
 1907 00a0 0022     		movs	r2, #0
 1908 00a2 83F88020 		strb	r2, [r3, #128]
1280:./Libraries/STM32H7xx_HAL_Driver/Src/stm32h7xx_hal_spi.c ****     return errorcode;
 1909              		.loc 1 1280 12
 1910 00a6 97F82B30 		ldrb	r3, [r7, #43]	@ zero_extendqisi2
 1911 00aa 91E2     		b	.L92
ARM GAS  /tmp/ccwjY1CM.s 			page 57


 1912              	.L96:
1281:./Libraries/STM32H7xx_HAL_Driver/Src/stm32h7xx_hal_spi.c ****   }
1282:./Libraries/STM32H7xx_HAL_Driver/Src/stm32h7xx_hal_spi.c **** 
1283:./Libraries/STM32H7xx_HAL_Driver/Src/stm32h7xx_hal_spi.c ****   /* Don't overwrite in case of HAL_SPI_STATE_BUSY_RX */
1284:./Libraries/STM32H7xx_HAL_Driver/Src/stm32h7xx_hal_spi.c ****   if (hspi->State != HAL_SPI_STATE_BUSY_RX)
 1913              		.loc 1 1284 11
 1914 00ac FB68     		ldr	r3, [r7, #12]
 1915 00ae 93F88130 		ldrb	r3, [r3, #129]
 1916 00b2 DBB2     		uxtb	r3, r3
 1917              		.loc 1 1284 6
 1918 00b4 042B     		cmp	r3, #4
 1919 00b6 03D0     		beq	.L97
1285:./Libraries/STM32H7xx_HAL_Driver/Src/stm32h7xx_hal_spi.c ****   {
1286:./Libraries/STM32H7xx_HAL_Driver/Src/stm32h7xx_hal_spi.c ****     hspi->State = HAL_SPI_STATE_BUSY_TX_RX;
 1920              		.loc 1 1286 17
 1921 00b8 FB68     		ldr	r3, [r7, #12]
 1922 00ba 0522     		movs	r2, #5
 1923 00bc 83F88120 		strb	r2, [r3, #129]
 1924              	.L97:
1287:./Libraries/STM32H7xx_HAL_Driver/Src/stm32h7xx_hal_spi.c ****   }
1288:./Libraries/STM32H7xx_HAL_Driver/Src/stm32h7xx_hal_spi.c **** 
1289:./Libraries/STM32H7xx_HAL_Driver/Src/stm32h7xx_hal_spi.c ****   /* Set the transaction information */
1290:./Libraries/STM32H7xx_HAL_Driver/Src/stm32h7xx_hal_spi.c ****   hspi->ErrorCode   = HAL_SPI_ERROR_NONE;
 1925              		.loc 1 1290 21
 1926 00c0 FB68     		ldr	r3, [r7, #12]
 1927 00c2 0022     		movs	r2, #0
 1928 00c4 C3F88420 		str	r2, [r3, #132]
1291:./Libraries/STM32H7xx_HAL_Driver/Src/stm32h7xx_hal_spi.c ****   hspi->pRxBuffPtr  = (uint8_t *)pRxData;
 1929              		.loc 1 1291 21
 1930 00c8 FB68     		ldr	r3, [r7, #12]
 1931 00ca 7A68     		ldr	r2, [r7, #4]
 1932 00cc 5A66     		str	r2, [r3, #100]
1292:./Libraries/STM32H7xx_HAL_Driver/Src/stm32h7xx_hal_spi.c ****   hspi->RxXferCount = Size;
 1933              		.loc 1 1292 21
 1934 00ce FB68     		ldr	r3, [r7, #12]
 1935 00d0 7A88     		ldrh	r2, [r7, #2]	@ movhi
 1936 00d2 A3F86A20 		strh	r2, [r3, #106]	@ movhi
1293:./Libraries/STM32H7xx_HAL_Driver/Src/stm32h7xx_hal_spi.c ****   hspi->RxXferSize  = Size;
 1937              		.loc 1 1293 21
 1938 00d6 FB68     		ldr	r3, [r7, #12]
 1939 00d8 7A88     		ldrh	r2, [r7, #2]	@ movhi
 1940 00da A3F86820 		strh	r2, [r3, #104]	@ movhi
1294:./Libraries/STM32H7xx_HAL_Driver/Src/stm32h7xx_hal_spi.c ****   hspi->pTxBuffPtr  = (uint8_t *)pTxData;
 1941              		.loc 1 1294 21
 1942 00de FB68     		ldr	r3, [r7, #12]
 1943 00e0 BA68     		ldr	r2, [r7, #8]
 1944 00e2 DA65     		str	r2, [r3, #92]
1295:./Libraries/STM32H7xx_HAL_Driver/Src/stm32h7xx_hal_spi.c ****   hspi->TxXferCount = Size;
 1945              		.loc 1 1295 21
 1946 00e4 FB68     		ldr	r3, [r7, #12]
 1947 00e6 7A88     		ldrh	r2, [r7, #2]	@ movhi
 1948 00e8 A3F86220 		strh	r2, [r3, #98]	@ movhi
1296:./Libraries/STM32H7xx_HAL_Driver/Src/stm32h7xx_hal_spi.c ****   hspi->TxXferSize  = Size;
 1949              		.loc 1 1296 21
 1950 00ec FB68     		ldr	r3, [r7, #12]
 1951 00ee 7A88     		ldrh	r2, [r7, #2]	@ movhi
 1952 00f0 A3F86020 		strh	r2, [r3, #96]	@ movhi
ARM GAS  /tmp/ccwjY1CM.s 			page 58


1297:./Libraries/STM32H7xx_HAL_Driver/Src/stm32h7xx_hal_spi.c **** 
1298:./Libraries/STM32H7xx_HAL_Driver/Src/stm32h7xx_hal_spi.c ****   /*Init field not used in handle to zero */
1299:./Libraries/STM32H7xx_HAL_Driver/Src/stm32h7xx_hal_spi.c ****   hspi->RxISR       = NULL;
 1953              		.loc 1 1299 21
 1954 00f4 FB68     		ldr	r3, [r7, #12]
 1955 00f6 0022     		movs	r2, #0
 1956 00f8 1A67     		str	r2, [r3, #112]
1300:./Libraries/STM32H7xx_HAL_Driver/Src/stm32h7xx_hal_spi.c ****   hspi->TxISR       = NULL;
 1957              		.loc 1 1300 21
 1958 00fa FB68     		ldr	r3, [r7, #12]
 1959 00fc 0022     		movs	r2, #0
 1960 00fe 5A67     		str	r2, [r3, #116]
1301:./Libraries/STM32H7xx_HAL_Driver/Src/stm32h7xx_hal_spi.c **** 
1302:./Libraries/STM32H7xx_HAL_Driver/Src/stm32h7xx_hal_spi.c ****   /* Set the number of data at current transfer */
1303:./Libraries/STM32H7xx_HAL_Driver/Src/stm32h7xx_hal_spi.c ****   MODIFY_REG(hspi->Instance->CR2, SPI_CR2_TSIZE, Size);
 1961              		.loc 1 1303 3
 1962 0100 FB68     		ldr	r3, [r7, #12]
 1963 0102 1B68     		ldr	r3, [r3]
 1964 0104 5A68     		ldr	r2, [r3, #4]
 1965 0106 9F4B     		ldr	r3, .L128
 1966 0108 1340     		ands	r3, r3, r2
 1967 010a 7988     		ldrh	r1, [r7, #2]
 1968 010c FA68     		ldr	r2, [r7, #12]
 1969 010e 1268     		ldr	r2, [r2]
 1970 0110 0B43     		orrs	r3, r3, r1
 1971 0112 5360     		str	r3, [r2, #4]
1304:./Libraries/STM32H7xx_HAL_Driver/Src/stm32h7xx_hal_spi.c **** 
1305:./Libraries/STM32H7xx_HAL_Driver/Src/stm32h7xx_hal_spi.c ****   __HAL_SPI_ENABLE(hspi);
 1972              		.loc 1 1305 3
 1973 0114 FB68     		ldr	r3, [r7, #12]
 1974 0116 1B68     		ldr	r3, [r3]
 1975 0118 1A68     		ldr	r2, [r3]
 1976 011a FB68     		ldr	r3, [r7, #12]
 1977 011c 1B68     		ldr	r3, [r3]
 1978 011e 42F00102 		orr	r2, r2, #1
 1979 0122 1A60     		str	r2, [r3]
1306:./Libraries/STM32H7xx_HAL_Driver/Src/stm32h7xx_hal_spi.c **** 
1307:./Libraries/STM32H7xx_HAL_Driver/Src/stm32h7xx_hal_spi.c ****   if (hspi->Init.Mode == SPI_MODE_MASTER)
 1980              		.loc 1 1307 17
 1981 0124 FB68     		ldr	r3, [r7, #12]
 1982 0126 5B68     		ldr	r3, [r3, #4]
 1983              		.loc 1 1307 6
 1984 0128 B3F5800F 		cmp	r3, #4194304
 1985 012c 07D1     		bne	.L98
1308:./Libraries/STM32H7xx_HAL_Driver/Src/stm32h7xx_hal_spi.c ****   {
1309:./Libraries/STM32H7xx_HAL_Driver/Src/stm32h7xx_hal_spi.c ****     /* Master transfer start */
1310:./Libraries/STM32H7xx_HAL_Driver/Src/stm32h7xx_hal_spi.c ****     SET_BIT(hspi->Instance->CR1, SPI_CR1_CSTART);
 1986              		.loc 1 1310 5
 1987 012e FB68     		ldr	r3, [r7, #12]
 1988 0130 1B68     		ldr	r3, [r3]
 1989 0132 1A68     		ldr	r2, [r3]
 1990 0134 FB68     		ldr	r3, [r7, #12]
 1991 0136 1B68     		ldr	r3, [r3]
 1992 0138 42F40072 		orr	r2, r2, #512
 1993 013c 1A60     		str	r2, [r3]
 1994              	.L98:
1311:./Libraries/STM32H7xx_HAL_Driver/Src/stm32h7xx_hal_spi.c ****   }
ARM GAS  /tmp/ccwjY1CM.s 			page 59


1312:./Libraries/STM32H7xx_HAL_Driver/Src/stm32h7xx_hal_spi.c **** 
1313:./Libraries/STM32H7xx_HAL_Driver/Src/stm32h7xx_hal_spi.c ****   /* Transmit and Receive data in 32 Bit mode */
1314:./Libraries/STM32H7xx_HAL_Driver/Src/stm32h7xx_hal_spi.c ****   if (hspi->Init.DataSize > SPI_DATASIZE_16BIT)
 1995              		.loc 1 1314 17
 1996 013e FB68     		ldr	r3, [r7, #12]
 1997 0140 DB68     		ldr	r3, [r3, #12]
 1998              		.loc 1 1314 6
 1999 0142 0F2B     		cmp	r3, #15
 2000 0144 70D9     		bls	.L99
1315:./Libraries/STM32H7xx_HAL_Driver/Src/stm32h7xx_hal_spi.c ****   {
1316:./Libraries/STM32H7xx_HAL_Driver/Src/stm32h7xx_hal_spi.c ****     while ((initial_TxXferCount > 0UL) || (initial_RxXferCount > 0UL))
 2001              		.loc 1 1316 11
 2002 0146 68E0     		b	.L100
 2003              	.L105:
1317:./Libraries/STM32H7xx_HAL_Driver/Src/stm32h7xx_hal_spi.c ****     {
1318:./Libraries/STM32H7xx_HAL_Driver/Src/stm32h7xx_hal_spi.c ****       /* Check TXP flag */
1319:./Libraries/STM32H7xx_HAL_Driver/Src/stm32h7xx_hal_spi.c ****       if ((__HAL_SPI_GET_FLAG(hspi, SPI_FLAG_TXP)) && (initial_TxXferCount > 0UL))
 2004              		.loc 1 1319 12
 2005 0148 FB68     		ldr	r3, [r7, #12]
 2006 014a 1B68     		ldr	r3, [r3]
 2007 014c 5B69     		ldr	r3, [r3, #20]
 2008 014e 03F00203 		and	r3, r3, #2
 2009              		.loc 1 1319 10
 2010 0152 022B     		cmp	r3, #2
 2011 0154 1AD1     		bne	.L101
 2012              		.loc 1 1319 52 discriminator 1
 2013 0156 FB8D     		ldrh	r3, [r7, #46]
 2014 0158 002B     		cmp	r3, #0
 2015 015a 17D0     		beq	.L101
1320:./Libraries/STM32H7xx_HAL_Driver/Src/stm32h7xx_hal_spi.c ****       {
1321:./Libraries/STM32H7xx_HAL_Driver/Src/stm32h7xx_hal_spi.c ****         *((__IO uint32_t *)&hspi->Instance->TXDR) = *((uint32_t *)hspi->pTxBuffPtr);
 2016              		.loc 1 1321 71
 2017 015c FB68     		ldr	r3, [r7, #12]
 2018 015e DA6D     		ldr	r2, [r3, #92]
 2019              		.loc 1 1321 33
 2020 0160 FB68     		ldr	r3, [r7, #12]
 2021 0162 1B68     		ldr	r3, [r3]
 2022              		.loc 1 1321 53
 2023 0164 1268     		ldr	r2, [r2]
 2024              		.loc 1 1321 51
 2025 0166 1A62     		str	r2, [r3, #32]
1322:./Libraries/STM32H7xx_HAL_Driver/Src/stm32h7xx_hal_spi.c ****         hspi->pTxBuffPtr += sizeof(uint32_t);
 2026              		.loc 1 1322 26
 2027 0168 FB68     		ldr	r3, [r7, #12]
 2028 016a DB6D     		ldr	r3, [r3, #92]
 2029 016c 1A1D     		adds	r2, r3, #4
 2030 016e FB68     		ldr	r3, [r7, #12]
 2031 0170 DA65     		str	r2, [r3, #92]
1323:./Libraries/STM32H7xx_HAL_Driver/Src/stm32h7xx_hal_spi.c ****         hspi->TxXferCount --;
 2032              		.loc 1 1323 13
 2033 0172 FB68     		ldr	r3, [r7, #12]
 2034 0174 B3F86230 		ldrh	r3, [r3, #98]	@ movhi
 2035 0178 9BB2     		uxth	r3, r3
 2036              		.loc 1 1323 27
 2037 017a 013B     		subs	r3, r3, #1
 2038 017c 9AB2     		uxth	r2, r3
 2039 017e FB68     		ldr	r3, [r7, #12]
ARM GAS  /tmp/ccwjY1CM.s 			page 60


 2040 0180 A3F86220 		strh	r2, [r3, #98]	@ movhi
1324:./Libraries/STM32H7xx_HAL_Driver/Src/stm32h7xx_hal_spi.c ****         initial_TxXferCount = hspi->TxXferCount;
 2041              		.loc 1 1324 29
 2042 0184 FB68     		ldr	r3, [r7, #12]
 2043 0186 B3F86230 		ldrh	r3, [r3, #98]	@ movhi
 2044 018a FB85     		strh	r3, [r7, #46]	@ movhi
 2045              	.L101:
1325:./Libraries/STM32H7xx_HAL_Driver/Src/stm32h7xx_hal_spi.c ****       }
1326:./Libraries/STM32H7xx_HAL_Driver/Src/stm32h7xx_hal_spi.c **** 
1327:./Libraries/STM32H7xx_HAL_Driver/Src/stm32h7xx_hal_spi.c ****       /* Check RXWNE/EOT flag */
1328:./Libraries/STM32H7xx_HAL_Driver/Src/stm32h7xx_hal_spi.c ****       if (((hspi->Instance->SR & (SPI_FLAG_RXWNE | SPI_FLAG_EOT)) != 0UL) && (initial_RxXferCount >
 2046              		.loc 1 1328 17
 2047 018c FB68     		ldr	r3, [r7, #12]
 2048 018e 1B68     		ldr	r3, [r3]
 2049              		.loc 1 1328 27
 2050 0190 5A69     		ldr	r2, [r3, #20]
 2051              		.loc 1 1328 32
 2052 0192 48F20803 		movw	r3, #32776
 2053 0196 1340     		ands	r3, r3, r2
 2054              		.loc 1 1328 10
 2055 0198 002B     		cmp	r3, #0
 2056 019a 1AD0     		beq	.L102
 2057              		.loc 1 1328 75 discriminator 1
 2058 019c BB8D     		ldrh	r3, [r7, #44]
 2059 019e 002B     		cmp	r3, #0
 2060 01a0 17D0     		beq	.L102
1329:./Libraries/STM32H7xx_HAL_Driver/Src/stm32h7xx_hal_spi.c ****       {
1330:./Libraries/STM32H7xx_HAL_Driver/Src/stm32h7xx_hal_spi.c ****         *((uint32_t *)hspi->pRxBuffPtr) = *((__IO uint32_t *)&hspi->Instance->RXDR);
 2061              		.loc 1 1330 67
 2062 01a2 FB68     		ldr	r3, [r7, #12]
 2063 01a4 1A68     		ldr	r2, [r3]
 2064              		.loc 1 1330 27
 2065 01a6 FB68     		ldr	r3, [r7, #12]
 2066 01a8 5B6E     		ldr	r3, [r3, #100]
 2067              		.loc 1 1330 43
 2068 01aa 126B     		ldr	r2, [r2, #48]
 2069              		.loc 1 1330 41
 2070 01ac 1A60     		str	r2, [r3]
1331:./Libraries/STM32H7xx_HAL_Driver/Src/stm32h7xx_hal_spi.c ****         hspi->pRxBuffPtr += sizeof(uint32_t);
 2071              		.loc 1 1331 26
 2072 01ae FB68     		ldr	r3, [r7, #12]
 2073 01b0 5B6E     		ldr	r3, [r3, #100]
 2074 01b2 1A1D     		adds	r2, r3, #4
 2075 01b4 FB68     		ldr	r3, [r7, #12]
 2076 01b6 5A66     		str	r2, [r3, #100]
1332:./Libraries/STM32H7xx_HAL_Driver/Src/stm32h7xx_hal_spi.c ****         hspi->RxXferCount --;
 2077              		.loc 1 1332 13
 2078 01b8 FB68     		ldr	r3, [r7, #12]
 2079 01ba B3F86A30 		ldrh	r3, [r3, #106]	@ movhi
 2080 01be 9BB2     		uxth	r3, r3
 2081              		.loc 1 1332 27
 2082 01c0 013B     		subs	r3, r3, #1
 2083 01c2 9AB2     		uxth	r2, r3
 2084 01c4 FB68     		ldr	r3, [r7, #12]
 2085 01c6 A3F86A20 		strh	r2, [r3, #106]	@ movhi
1333:./Libraries/STM32H7xx_HAL_Driver/Src/stm32h7xx_hal_spi.c ****         initial_RxXferCount = hspi->RxXferCount;
 2086              		.loc 1 1333 29
ARM GAS  /tmp/ccwjY1CM.s 			page 61


 2087 01ca FB68     		ldr	r3, [r7, #12]
 2088 01cc B3F86A30 		ldrh	r3, [r3, #106]	@ movhi
 2089 01d0 BB85     		strh	r3, [r7, #44]	@ movhi
 2090              	.L102:
1334:./Libraries/STM32H7xx_HAL_Driver/Src/stm32h7xx_hal_spi.c ****       }
1335:./Libraries/STM32H7xx_HAL_Driver/Src/stm32h7xx_hal_spi.c **** 
1336:./Libraries/STM32H7xx_HAL_Driver/Src/stm32h7xx_hal_spi.c ****       /* Timeout management */
1337:./Libraries/STM32H7xx_HAL_Driver/Src/stm32h7xx_hal_spi.c ****       if ((((HAL_GetTick() - tickstart) >=  Timeout) && (Timeout != HAL_MAX_DELAY)) || (Timeout == 
 2091              		.loc 1 1337 14
 2092 01d2 FFF7FEFF 		bl	HAL_GetTick
 2093 01d6 0246     		mov	r2, r0
 2094              		.loc 1 1337 28
 2095 01d8 FB69     		ldr	r3, [r7, #28]
 2096 01da D31A     		subs	r3, r2, r3
 2097              		.loc 1 1337 10
 2098 01dc BA6B     		ldr	r2, [r7, #56]
 2099 01de 9A42     		cmp	r2, r3
 2100 01e0 03D8     		bhi	.L103
 2101              		.loc 1 1337 54 discriminator 1
 2102 01e2 BB6B     		ldr	r3, [r7, #56]
 2103 01e4 B3F1FF3F 		cmp	r3, #-1
 2104 01e8 02D1     		bne	.L104
 2105              	.L103:
 2106              		.loc 1 1337 85 discriminator 3
 2107 01ea BB6B     		ldr	r3, [r7, #56]
 2108 01ec 002B     		cmp	r3, #0
 2109 01ee 14D1     		bne	.L100
 2110              	.L104:
1338:./Libraries/STM32H7xx_HAL_Driver/Src/stm32h7xx_hal_spi.c ****       {
1339:./Libraries/STM32H7xx_HAL_Driver/Src/stm32h7xx_hal_spi.c ****         /* Call standard close procedure with error check */
1340:./Libraries/STM32H7xx_HAL_Driver/Src/stm32h7xx_hal_spi.c ****         SPI_CloseTransfer(hspi);
 2111              		.loc 1 1340 9
 2112 01f0 F868     		ldr	r0, [r7, #12]
 2113 01f2 FFF7FEFF 		bl	SPI_CloseTransfer
1341:./Libraries/STM32H7xx_HAL_Driver/Src/stm32h7xx_hal_spi.c **** 
1342:./Libraries/STM32H7xx_HAL_Driver/Src/stm32h7xx_hal_spi.c ****         /* Process Unlocked */
1343:./Libraries/STM32H7xx_HAL_Driver/Src/stm32h7xx_hal_spi.c ****         __HAL_UNLOCK(hspi);
 2114              		.loc 1 1343 9
 2115 01f6 FB68     		ldr	r3, [r7, #12]
 2116 01f8 0022     		movs	r2, #0
 2117 01fa 83F88020 		strb	r2, [r3, #128]
1344:./Libraries/STM32H7xx_HAL_Driver/Src/stm32h7xx_hal_spi.c **** 
1345:./Libraries/STM32H7xx_HAL_Driver/Src/stm32h7xx_hal_spi.c ****         SET_BIT(hspi->ErrorCode, HAL_SPI_ERROR_TIMEOUT);
 2118              		.loc 1 1345 9
 2119 01fe FB68     		ldr	r3, [r7, #12]
 2120 0200 D3F88430 		ldr	r3, [r3, #132]
 2121 0204 43F48072 		orr	r2, r3, #256
 2122 0208 FB68     		ldr	r3, [r7, #12]
 2123 020a C3F88420 		str	r2, [r3, #132]
1346:./Libraries/STM32H7xx_HAL_Driver/Src/stm32h7xx_hal_spi.c ****         hspi->State = HAL_SPI_STATE_READY;
 2124              		.loc 1 1346 21
 2125 020e FB68     		ldr	r3, [r7, #12]
 2126 0210 0122     		movs	r2, #1
 2127 0212 83F88120 		strb	r2, [r3, #129]
1347:./Libraries/STM32H7xx_HAL_Driver/Src/stm32h7xx_hal_spi.c ****         return HAL_ERROR;
 2128              		.loc 1 1347 16
 2129 0216 0123     		movs	r3, #1
ARM GAS  /tmp/ccwjY1CM.s 			page 62


 2130 0218 DAE1     		b	.L92
 2131              	.L100:
1316:./Libraries/STM32H7xx_HAL_Driver/Src/stm32h7xx_hal_spi.c ****     {
 2132              		.loc 1 1316 11
 2133 021a FB8D     		ldrh	r3, [r7, #46]
 2134 021c 002B     		cmp	r3, #0
 2135 021e 93D1     		bne	.L105
1316:./Libraries/STM32H7xx_HAL_Driver/Src/stm32h7xx_hal_spi.c ****     {
 2136              		.loc 1 1316 40 discriminator 1
 2137 0220 BB8D     		ldrh	r3, [r7, #44]
 2138 0222 002B     		cmp	r3, #0
 2139 0224 90D1     		bne	.L105
 2140 0226 ACE1     		b	.L106
 2141              	.L99:
1348:./Libraries/STM32H7xx_HAL_Driver/Src/stm32h7xx_hal_spi.c ****       }
1349:./Libraries/STM32H7xx_HAL_Driver/Src/stm32h7xx_hal_spi.c ****     }
1350:./Libraries/STM32H7xx_HAL_Driver/Src/stm32h7xx_hal_spi.c ****   }
1351:./Libraries/STM32H7xx_HAL_Driver/Src/stm32h7xx_hal_spi.c ****   /* Transmit and Receive data in 16 Bit mode */
1352:./Libraries/STM32H7xx_HAL_Driver/Src/stm32h7xx_hal_spi.c ****   else if (hspi->Init.DataSize > SPI_DATASIZE_8BIT)
 2142              		.loc 1 1352 22
 2143 0228 FB68     		ldr	r3, [r7, #12]
 2144 022a DB68     		ldr	r3, [r3, #12]
 2145              		.loc 1 1352 11
 2146 022c 072B     		cmp	r3, #7
 2147 022e 40F2A081 		bls	.L116
1353:./Libraries/STM32H7xx_HAL_Driver/Src/stm32h7xx_hal_spi.c ****   {
1354:./Libraries/STM32H7xx_HAL_Driver/Src/stm32h7xx_hal_spi.c ****     while ((initial_TxXferCount > 0UL) || (initial_RxXferCount > 0UL))
 2148              		.loc 1 1354 11
 2149 0232 A9E0     		b	.L108
 2150              	.L115:
1355:./Libraries/STM32H7xx_HAL_Driver/Src/stm32h7xx_hal_spi.c ****     {
1356:./Libraries/STM32H7xx_HAL_Driver/Src/stm32h7xx_hal_spi.c ****       /* Check TXP flag */
1357:./Libraries/STM32H7xx_HAL_Driver/Src/stm32h7xx_hal_spi.c ****       if (__HAL_SPI_GET_FLAG(hspi, SPI_FLAG_TXP) && (initial_TxXferCount > 0UL))
 2151              		.loc 1 1357 11
 2152 0234 FB68     		ldr	r3, [r7, #12]
 2153 0236 1B68     		ldr	r3, [r3]
 2154 0238 5B69     		ldr	r3, [r3, #20]
 2155 023a 03F00203 		and	r3, r3, #2
 2156              		.loc 1 1357 10
 2157 023e 022B     		cmp	r3, #2
 2158 0240 39D1     		bne	.L109
 2159              		.loc 1 1357 50 discriminator 1
 2160 0242 FB8D     		ldrh	r3, [r7, #46]
 2161 0244 002B     		cmp	r3, #0
 2162 0246 36D0     		beq	.L109
1358:./Libraries/STM32H7xx_HAL_Driver/Src/stm32h7xx_hal_spi.c ****       {
1359:./Libraries/STM32H7xx_HAL_Driver/Src/stm32h7xx_hal_spi.c ****         if ((initial_TxXferCount > 1UL) && (hspi->Init.FifoThreshold > SPI_FIFO_THRESHOLD_01DATA))
 2163              		.loc 1 1359 12
 2164 0248 FB8D     		ldrh	r3, [r7, #46]
 2165 024a 012B     		cmp	r3, #1
 2166 024c 1CD9     		bls	.L110
 2167              		.loc 1 1359 55 discriminator 1
 2168 024e FB68     		ldr	r3, [r7, #12]
 2169 0250 DB6B     		ldr	r3, [r3, #60]
 2170              		.loc 1 1359 41 discriminator 1
 2171 0252 002B     		cmp	r3, #0
 2172 0254 18D0     		beq	.L110
ARM GAS  /tmp/ccwjY1CM.s 			page 63


1360:./Libraries/STM32H7xx_HAL_Driver/Src/stm32h7xx_hal_spi.c ****         {
1361:./Libraries/STM32H7xx_HAL_Driver/Src/stm32h7xx_hal_spi.c ****           *((__IO uint32_t *)&hspi->Instance->TXDR) = *((uint32_t *)hspi->pTxBuffPtr);
 2173              		.loc 1 1361 73
 2174 0256 FB68     		ldr	r3, [r7, #12]
 2175 0258 DA6D     		ldr	r2, [r3, #92]
 2176              		.loc 1 1361 35
 2177 025a FB68     		ldr	r3, [r7, #12]
 2178 025c 1B68     		ldr	r3, [r3]
 2179              		.loc 1 1361 55
 2180 025e 1268     		ldr	r2, [r2]
 2181              		.loc 1 1361 53
 2182 0260 1A62     		str	r2, [r3, #32]
1362:./Libraries/STM32H7xx_HAL_Driver/Src/stm32h7xx_hal_spi.c ****           hspi->pTxBuffPtr += sizeof(uint32_t);
 2183              		.loc 1 1362 28
 2184 0262 FB68     		ldr	r3, [r7, #12]
 2185 0264 DB6D     		ldr	r3, [r3, #92]
 2186 0266 1A1D     		adds	r2, r3, #4
 2187 0268 FB68     		ldr	r3, [r7, #12]
 2188 026a DA65     		str	r2, [r3, #92]
1363:./Libraries/STM32H7xx_HAL_Driver/Src/stm32h7xx_hal_spi.c ****           hspi->TxXferCount -= (uint16_t)2UL;
 2189              		.loc 1 1363 29
 2190 026c FB68     		ldr	r3, [r7, #12]
 2191 026e B3F86230 		ldrh	r3, [r3, #98]	@ movhi
 2192 0272 9BB2     		uxth	r3, r3
 2193 0274 023B     		subs	r3, r3, #2
 2194 0276 9AB2     		uxth	r2, r3
 2195 0278 FB68     		ldr	r3, [r7, #12]
 2196 027a A3F86220 		strh	r2, [r3, #98]	@ movhi
1364:./Libraries/STM32H7xx_HAL_Driver/Src/stm32h7xx_hal_spi.c ****           initial_TxXferCount = hspi->TxXferCount;
 2197              		.loc 1 1364 31
 2198 027e FB68     		ldr	r3, [r7, #12]
 2199 0280 B3F86230 		ldrh	r3, [r3, #98]	@ movhi
 2200 0284 FB85     		strh	r3, [r7, #46]	@ movhi
 2201 0286 16E0     		b	.L109
 2202              	.L110:
1365:./Libraries/STM32H7xx_HAL_Driver/Src/stm32h7xx_hal_spi.c ****         }
1366:./Libraries/STM32H7xx_HAL_Driver/Src/stm32h7xx_hal_spi.c ****         else
1367:./Libraries/STM32H7xx_HAL_Driver/Src/stm32h7xx_hal_spi.c ****         {
1368:./Libraries/STM32H7xx_HAL_Driver/Src/stm32h7xx_hal_spi.c **** #if defined (__GNUC__)
1369:./Libraries/STM32H7xx_HAL_Driver/Src/stm32h7xx_hal_spi.c ****           *ptxdr_16bits = *((uint16_t *)hspi->pTxBuffPtr);
 2203              		.loc 1 1369 45
 2204 0288 FB68     		ldr	r3, [r7, #12]
 2205 028a DB6D     		ldr	r3, [r3, #92]
 2206              		.loc 1 1369 27
 2207 028c 1A88     		ldrh	r2, [r3]
 2208              		.loc 1 1369 25
 2209 028e 7B6A     		ldr	r3, [r7, #36]
 2210 0290 1A80     		strh	r2, [r3]	@ movhi
1370:./Libraries/STM32H7xx_HAL_Driver/Src/stm32h7xx_hal_spi.c **** #else
1371:./Libraries/STM32H7xx_HAL_Driver/Src/stm32h7xx_hal_spi.c ****           *((__IO uint16_t *)&hspi->Instance->TXDR) = *((uint16_t *)hspi->pTxBuffPtr);
1372:./Libraries/STM32H7xx_HAL_Driver/Src/stm32h7xx_hal_spi.c **** #endif /* __GNUC__ */
1373:./Libraries/STM32H7xx_HAL_Driver/Src/stm32h7xx_hal_spi.c ****           hspi->pTxBuffPtr += sizeof(uint16_t);
 2211              		.loc 1 1373 28
 2212 0292 FB68     		ldr	r3, [r7, #12]
 2213 0294 DB6D     		ldr	r3, [r3, #92]
 2214 0296 9A1C     		adds	r2, r3, #2
 2215 0298 FB68     		ldr	r3, [r7, #12]
ARM GAS  /tmp/ccwjY1CM.s 			page 64


 2216 029a DA65     		str	r2, [r3, #92]
1374:./Libraries/STM32H7xx_HAL_Driver/Src/stm32h7xx_hal_spi.c ****           hspi->TxXferCount--;
 2217              		.loc 1 1374 15
 2218 029c FB68     		ldr	r3, [r7, #12]
 2219 029e B3F86230 		ldrh	r3, [r3, #98]	@ movhi
 2220 02a2 9BB2     		uxth	r3, r3
 2221              		.loc 1 1374 28
 2222 02a4 013B     		subs	r3, r3, #1
 2223 02a6 9AB2     		uxth	r2, r3
 2224 02a8 FB68     		ldr	r3, [r7, #12]
 2225 02aa A3F86220 		strh	r2, [r3, #98]	@ movhi
1375:./Libraries/STM32H7xx_HAL_Driver/Src/stm32h7xx_hal_spi.c ****           initial_TxXferCount = hspi->TxXferCount;
 2226              		.loc 1 1375 31
 2227 02ae FB68     		ldr	r3, [r7, #12]
 2228 02b0 B3F86230 		ldrh	r3, [r3, #98]	@ movhi
 2229 02b4 FB85     		strh	r3, [r7, #46]	@ movhi
 2230              	.L109:
1376:./Libraries/STM32H7xx_HAL_Driver/Src/stm32h7xx_hal_spi.c ****         }
1377:./Libraries/STM32H7xx_HAL_Driver/Src/stm32h7xx_hal_spi.c ****       }
1378:./Libraries/STM32H7xx_HAL_Driver/Src/stm32h7xx_hal_spi.c **** 
1379:./Libraries/STM32H7xx_HAL_Driver/Src/stm32h7xx_hal_spi.c ****       /* Check RXWNE/FRLVL flag */
1380:./Libraries/STM32H7xx_HAL_Driver/Src/stm32h7xx_hal_spi.c ****       if (((hspi->Instance->SR & (SPI_FLAG_RXWNE | SPI_FLAG_FRLVL)) != 0UL) && (initial_RxXferCount
 2231              		.loc 1 1380 17
 2232 02b6 FB68     		ldr	r3, [r7, #12]
 2233 02b8 1B68     		ldr	r3, [r3]
 2234              		.loc 1 1380 27
 2235 02ba 5B69     		ldr	r3, [r3, #20]
 2236              		.loc 1 1380 32
 2237 02bc 03F46043 		and	r3, r3, #57344
 2238              		.loc 1 1380 10
 2239 02c0 002B     		cmp	r3, #0
 2240 02c2 3AD0     		beq	.L111
 2241              		.loc 1 1380 77 discriminator 1
 2242 02c4 BB8D     		ldrh	r3, [r7, #44]
 2243 02c6 002B     		cmp	r3, #0
 2244 02c8 37D0     		beq	.L111
1381:./Libraries/STM32H7xx_HAL_Driver/Src/stm32h7xx_hal_spi.c ****       {
1382:./Libraries/STM32H7xx_HAL_Driver/Src/stm32h7xx_hal_spi.c ****         if ((hspi->Instance->SR & SPI_FLAG_RXWNE) != 0UL)
 2245              		.loc 1 1382 18
 2246 02ca FB68     		ldr	r3, [r7, #12]
 2247 02cc 1B68     		ldr	r3, [r3]
 2248              		.loc 1 1382 28
 2249 02ce 5B69     		ldr	r3, [r3, #20]
 2250              		.loc 1 1382 33
 2251 02d0 03F40043 		and	r3, r3, #32768
 2252              		.loc 1 1382 12
 2253 02d4 002B     		cmp	r3, #0
 2254 02d6 18D0     		beq	.L112
1383:./Libraries/STM32H7xx_HAL_Driver/Src/stm32h7xx_hal_spi.c ****         {
1384:./Libraries/STM32H7xx_HAL_Driver/Src/stm32h7xx_hal_spi.c ****           *((uint32_t *)hspi->pRxBuffPtr) = *((__IO uint32_t *)&hspi->Instance->RXDR);
 2255              		.loc 1 1384 69
 2256 02d8 FB68     		ldr	r3, [r7, #12]
 2257 02da 1A68     		ldr	r2, [r3]
 2258              		.loc 1 1384 29
 2259 02dc FB68     		ldr	r3, [r7, #12]
 2260 02de 5B6E     		ldr	r3, [r3, #100]
 2261              		.loc 1 1384 45
ARM GAS  /tmp/ccwjY1CM.s 			page 65


 2262 02e0 126B     		ldr	r2, [r2, #48]
 2263              		.loc 1 1384 43
 2264 02e2 1A60     		str	r2, [r3]
1385:./Libraries/STM32H7xx_HAL_Driver/Src/stm32h7xx_hal_spi.c ****           hspi->pRxBuffPtr += sizeof(uint32_t);
 2265              		.loc 1 1385 28
 2266 02e4 FB68     		ldr	r3, [r7, #12]
 2267 02e6 5B6E     		ldr	r3, [r3, #100]
 2268 02e8 1A1D     		adds	r2, r3, #4
 2269 02ea FB68     		ldr	r3, [r7, #12]
 2270 02ec 5A66     		str	r2, [r3, #100]
1386:./Libraries/STM32H7xx_HAL_Driver/Src/stm32h7xx_hal_spi.c ****           hspi->RxXferCount -= (uint16_t)2UL;
 2271              		.loc 1 1386 29
 2272 02ee FB68     		ldr	r3, [r7, #12]
 2273 02f0 B3F86A30 		ldrh	r3, [r3, #106]	@ movhi
 2274 02f4 9BB2     		uxth	r3, r3
 2275 02f6 023B     		subs	r3, r3, #2
 2276 02f8 9AB2     		uxth	r2, r3
 2277 02fa FB68     		ldr	r3, [r7, #12]
 2278 02fc A3F86A20 		strh	r2, [r3, #106]	@ movhi
1387:./Libraries/STM32H7xx_HAL_Driver/Src/stm32h7xx_hal_spi.c ****           initial_RxXferCount = hspi->RxXferCount;
 2279              		.loc 1 1387 31
 2280 0300 FB68     		ldr	r3, [r7, #12]
 2281 0302 B3F86A30 		ldrh	r3, [r3, #106]	@ movhi
 2282 0306 BB85     		strh	r3, [r7, #44]	@ movhi
 2283 0308 17E0     		b	.L111
 2284              	.L112:
1388:./Libraries/STM32H7xx_HAL_Driver/Src/stm32h7xx_hal_spi.c ****         }
1389:./Libraries/STM32H7xx_HAL_Driver/Src/stm32h7xx_hal_spi.c ****         else
1390:./Libraries/STM32H7xx_HAL_Driver/Src/stm32h7xx_hal_spi.c ****         {
1391:./Libraries/STM32H7xx_HAL_Driver/Src/stm32h7xx_hal_spi.c **** #if defined (__GNUC__)
1392:./Libraries/STM32H7xx_HAL_Driver/Src/stm32h7xx_hal_spi.c ****           *((uint16_t *)hspi->pRxBuffPtr) = *prxdr_16bits;
 2285              		.loc 1 1392 29
 2286 030a FB68     		ldr	r3, [r7, #12]
 2287 030c 5B6E     		ldr	r3, [r3, #100]
 2288              		.loc 1 1392 45
 2289 030e 3A6A     		ldr	r2, [r7, #32]
 2290 0310 1288     		ldrh	r2, [r2]	@ movhi
 2291 0312 92B2     		uxth	r2, r2
 2292              		.loc 1 1392 43
 2293 0314 1A80     		strh	r2, [r3]	@ movhi
1393:./Libraries/STM32H7xx_HAL_Driver/Src/stm32h7xx_hal_spi.c **** #else
1394:./Libraries/STM32H7xx_HAL_Driver/Src/stm32h7xx_hal_spi.c ****           *((uint16_t *)hspi->pRxBuffPtr) = *((__IO uint16_t *)&hspi->Instance->RXDR);
1395:./Libraries/STM32H7xx_HAL_Driver/Src/stm32h7xx_hal_spi.c **** #endif /* __GNUC__ */
1396:./Libraries/STM32H7xx_HAL_Driver/Src/stm32h7xx_hal_spi.c ****           hspi->pRxBuffPtr += sizeof(uint16_t);
 2294              		.loc 1 1396 28
 2295 0316 FB68     		ldr	r3, [r7, #12]
 2296 0318 5B6E     		ldr	r3, [r3, #100]
 2297 031a 9A1C     		adds	r2, r3, #2
 2298 031c FB68     		ldr	r3, [r7, #12]
 2299 031e 5A66     		str	r2, [r3, #100]
1397:./Libraries/STM32H7xx_HAL_Driver/Src/stm32h7xx_hal_spi.c ****           hspi->RxXferCount--;
 2300              		.loc 1 1397 15
 2301 0320 FB68     		ldr	r3, [r7, #12]
 2302 0322 B3F86A30 		ldrh	r3, [r3, #106]	@ movhi
 2303 0326 9BB2     		uxth	r3, r3
 2304              		.loc 1 1397 28
 2305 0328 013B     		subs	r3, r3, #1
ARM GAS  /tmp/ccwjY1CM.s 			page 66


 2306 032a 9AB2     		uxth	r2, r3
 2307 032c FB68     		ldr	r3, [r7, #12]
 2308 032e A3F86A20 		strh	r2, [r3, #106]	@ movhi
1398:./Libraries/STM32H7xx_HAL_Driver/Src/stm32h7xx_hal_spi.c ****           initial_RxXferCount = hspi->RxXferCount;
 2309              		.loc 1 1398 31
 2310 0332 FB68     		ldr	r3, [r7, #12]
 2311 0334 B3F86A30 		ldrh	r3, [r3, #106]	@ movhi
 2312 0338 BB85     		strh	r3, [r7, #44]	@ movhi
 2313              	.L111:
1399:./Libraries/STM32H7xx_HAL_Driver/Src/stm32h7xx_hal_spi.c ****         }
1400:./Libraries/STM32H7xx_HAL_Driver/Src/stm32h7xx_hal_spi.c ****       }
1401:./Libraries/STM32H7xx_HAL_Driver/Src/stm32h7xx_hal_spi.c **** 
1402:./Libraries/STM32H7xx_HAL_Driver/Src/stm32h7xx_hal_spi.c ****       /* Timeout management */
1403:./Libraries/STM32H7xx_HAL_Driver/Src/stm32h7xx_hal_spi.c ****       if ((((HAL_GetTick() - tickstart) >=  Timeout) && (Timeout != HAL_MAX_DELAY)) || (Timeout == 
 2314              		.loc 1 1403 14
 2315 033a FFF7FEFF 		bl	HAL_GetTick
 2316 033e 0246     		mov	r2, r0
 2317              		.loc 1 1403 28
 2318 0340 FB69     		ldr	r3, [r7, #28]
 2319 0342 D31A     		subs	r3, r2, r3
 2320              		.loc 1 1403 10
 2321 0344 BA6B     		ldr	r2, [r7, #56]
 2322 0346 9A42     		cmp	r2, r3
 2323 0348 03D8     		bhi	.L113
 2324              		.loc 1 1403 54 discriminator 1
 2325 034a BB6B     		ldr	r3, [r7, #56]
 2326 034c B3F1FF3F 		cmp	r3, #-1
 2327 0350 02D1     		bne	.L114
 2328              	.L113:
 2329              		.loc 1 1403 85 discriminator 3
 2330 0352 BB6B     		ldr	r3, [r7, #56]
 2331 0354 002B     		cmp	r3, #0
 2332 0356 17D1     		bne	.L108
 2333              	.L114:
1404:./Libraries/STM32H7xx_HAL_Driver/Src/stm32h7xx_hal_spi.c ****       {
1405:./Libraries/STM32H7xx_HAL_Driver/Src/stm32h7xx_hal_spi.c ****         /* Call standard close procedure with error check */
1406:./Libraries/STM32H7xx_HAL_Driver/Src/stm32h7xx_hal_spi.c ****         SPI_CloseTransfer(hspi);
 2334              		.loc 1 1406 9
 2335 0358 F868     		ldr	r0, [r7, #12]
 2336 035a FFF7FEFF 		bl	SPI_CloseTransfer
1407:./Libraries/STM32H7xx_HAL_Driver/Src/stm32h7xx_hal_spi.c **** 
1408:./Libraries/STM32H7xx_HAL_Driver/Src/stm32h7xx_hal_spi.c ****         /* Process Unlocked */
1409:./Libraries/STM32H7xx_HAL_Driver/Src/stm32h7xx_hal_spi.c ****         __HAL_UNLOCK(hspi);
 2337              		.loc 1 1409 9
 2338 035e FB68     		ldr	r3, [r7, #12]
 2339 0360 0022     		movs	r2, #0
 2340 0362 83F88020 		strb	r2, [r3, #128]
1410:./Libraries/STM32H7xx_HAL_Driver/Src/stm32h7xx_hal_spi.c **** 
1411:./Libraries/STM32H7xx_HAL_Driver/Src/stm32h7xx_hal_spi.c ****         SET_BIT(hspi->ErrorCode, HAL_SPI_ERROR_TIMEOUT);
 2341              		.loc 1 1411 9
 2342 0366 FB68     		ldr	r3, [r7, #12]
 2343 0368 D3F88430 		ldr	r3, [r3, #132]
 2344 036c 43F48072 		orr	r2, r3, #256
 2345 0370 FB68     		ldr	r3, [r7, #12]
 2346 0372 C3F88420 		str	r2, [r3, #132]
1412:./Libraries/STM32H7xx_HAL_Driver/Src/stm32h7xx_hal_spi.c ****         hspi->State = HAL_SPI_STATE_READY;
 2347              		.loc 1 1412 21
ARM GAS  /tmp/ccwjY1CM.s 			page 67


 2348 0376 FB68     		ldr	r3, [r7, #12]
 2349 0378 0122     		movs	r2, #1
 2350 037a 83F88120 		strb	r2, [r3, #129]
1413:./Libraries/STM32H7xx_HAL_Driver/Src/stm32h7xx_hal_spi.c ****         return HAL_ERROR;
 2351              		.loc 1 1413 16
 2352 037e 0123     		movs	r3, #1
 2353 0380 26E1     		b	.L92
 2354              	.L129:
 2355 0382 00BF     		.align	2
 2356              	.L128:
 2357 0384 0000FFFF 		.word	-65536
 2358              	.L108:
1354:./Libraries/STM32H7xx_HAL_Driver/Src/stm32h7xx_hal_spi.c ****     {
 2359              		.loc 1 1354 11
 2360 0388 FB8D     		ldrh	r3, [r7, #46]
 2361 038a 002B     		cmp	r3, #0
 2362 038c 7FF452AF 		bne	.L115
1354:./Libraries/STM32H7xx_HAL_Driver/Src/stm32h7xx_hal_spi.c ****     {
 2363              		.loc 1 1354 40 discriminator 1
 2364 0390 BB8D     		ldrh	r3, [r7, #44]
 2365 0392 002B     		cmp	r3, #0
 2366 0394 7FF44EAF 		bne	.L115
 2367 0398 F3E0     		b	.L106
 2368              	.L125:
1414:./Libraries/STM32H7xx_HAL_Driver/Src/stm32h7xx_hal_spi.c ****       }
1415:./Libraries/STM32H7xx_HAL_Driver/Src/stm32h7xx_hal_spi.c ****     }
1416:./Libraries/STM32H7xx_HAL_Driver/Src/stm32h7xx_hal_spi.c ****   }
1417:./Libraries/STM32H7xx_HAL_Driver/Src/stm32h7xx_hal_spi.c ****   /* Transmit and Receive data in 8 Bit mode */
1418:./Libraries/STM32H7xx_HAL_Driver/Src/stm32h7xx_hal_spi.c ****   else
1419:./Libraries/STM32H7xx_HAL_Driver/Src/stm32h7xx_hal_spi.c ****   {
1420:./Libraries/STM32H7xx_HAL_Driver/Src/stm32h7xx_hal_spi.c ****     while ((initial_TxXferCount > 0UL) || (initial_RxXferCount > 0UL))
1421:./Libraries/STM32H7xx_HAL_Driver/Src/stm32h7xx_hal_spi.c ****     {
1422:./Libraries/STM32H7xx_HAL_Driver/Src/stm32h7xx_hal_spi.c ****       /* check TXP flag */
1423:./Libraries/STM32H7xx_HAL_Driver/Src/stm32h7xx_hal_spi.c ****       if ((__HAL_SPI_GET_FLAG(hspi, SPI_FLAG_TXP)) && (initial_TxXferCount > 0UL))
 2369              		.loc 1 1423 12
 2370 039a FB68     		ldr	r3, [r7, #12]
 2371 039c 1B68     		ldr	r3, [r3]
 2372 039e 5B69     		ldr	r3, [r3, #20]
 2373 03a0 03F00203 		and	r3, r3, #2
 2374              		.loc 1 1423 10
 2375 03a4 022B     		cmp	r3, #2
 2376 03a6 5AD1     		bne	.L117
 2377              		.loc 1 1423 52 discriminator 1
 2378 03a8 FB8D     		ldrh	r3, [r7, #46]
 2379 03aa 002B     		cmp	r3, #0
 2380 03ac 57D0     		beq	.L117
1424:./Libraries/STM32H7xx_HAL_Driver/Src/stm32h7xx_hal_spi.c ****       {
1425:./Libraries/STM32H7xx_HAL_Driver/Src/stm32h7xx_hal_spi.c ****         if ((initial_TxXferCount > 3UL) && (hspi->Init.FifoThreshold > SPI_FIFO_THRESHOLD_03DATA))
 2381              		.loc 1 1425 12
 2382 03ae FB8D     		ldrh	r3, [r7, #46]
 2383 03b0 032B     		cmp	r3, #3
 2384 03b2 1CD9     		bls	.L118
 2385              		.loc 1 1425 55 discriminator 1
 2386 03b4 FB68     		ldr	r3, [r7, #12]
 2387 03b6 DB6B     		ldr	r3, [r3, #60]
 2388              		.loc 1 1425 41 discriminator 1
 2389 03b8 402B     		cmp	r3, #64
ARM GAS  /tmp/ccwjY1CM.s 			page 68


 2390 03ba 18D9     		bls	.L118
1426:./Libraries/STM32H7xx_HAL_Driver/Src/stm32h7xx_hal_spi.c ****         {
1427:./Libraries/STM32H7xx_HAL_Driver/Src/stm32h7xx_hal_spi.c ****           *((__IO uint32_t *)&hspi->Instance->TXDR) = *((uint32_t *)hspi->pTxBuffPtr);
 2391              		.loc 1 1427 73
 2392 03bc FB68     		ldr	r3, [r7, #12]
 2393 03be DA6D     		ldr	r2, [r3, #92]
 2394              		.loc 1 1427 35
 2395 03c0 FB68     		ldr	r3, [r7, #12]
 2396 03c2 1B68     		ldr	r3, [r3]
 2397              		.loc 1 1427 55
 2398 03c4 1268     		ldr	r2, [r2]
 2399              		.loc 1 1427 53
 2400 03c6 1A62     		str	r2, [r3, #32]
1428:./Libraries/STM32H7xx_HAL_Driver/Src/stm32h7xx_hal_spi.c ****           hspi->pTxBuffPtr += sizeof(uint32_t);
 2401              		.loc 1 1428 28
 2402 03c8 FB68     		ldr	r3, [r7, #12]
 2403 03ca DB6D     		ldr	r3, [r3, #92]
 2404 03cc 1A1D     		adds	r2, r3, #4
 2405 03ce FB68     		ldr	r3, [r7, #12]
 2406 03d0 DA65     		str	r2, [r3, #92]
1429:./Libraries/STM32H7xx_HAL_Driver/Src/stm32h7xx_hal_spi.c ****           hspi->TxXferCount -= (uint16_t)4UL;
 2407              		.loc 1 1429 29
 2408 03d2 FB68     		ldr	r3, [r7, #12]
 2409 03d4 B3F86230 		ldrh	r3, [r3, #98]	@ movhi
 2410 03d8 9BB2     		uxth	r3, r3
 2411 03da 043B     		subs	r3, r3, #4
 2412 03dc 9AB2     		uxth	r2, r3
 2413 03de FB68     		ldr	r3, [r7, #12]
 2414 03e0 A3F86220 		strh	r2, [r3, #98]	@ movhi
1430:./Libraries/STM32H7xx_HAL_Driver/Src/stm32h7xx_hal_spi.c ****           initial_TxXferCount = hspi->TxXferCount;
 2415              		.loc 1 1430 31
 2416 03e4 FB68     		ldr	r3, [r7, #12]
 2417 03e6 B3F86230 		ldrh	r3, [r3, #98]	@ movhi
 2418 03ea FB85     		strh	r3, [r7, #46]	@ movhi
 2419 03ec 37E0     		b	.L117
 2420              	.L118:
1431:./Libraries/STM32H7xx_HAL_Driver/Src/stm32h7xx_hal_spi.c ****         }
1432:./Libraries/STM32H7xx_HAL_Driver/Src/stm32h7xx_hal_spi.c ****         else if ((initial_TxXferCount > 1UL) && (hspi->Init.FifoThreshold > SPI_FIFO_THRESHOLD_01DA
 2421              		.loc 1 1432 17
 2422 03ee FB8D     		ldrh	r3, [r7, #46]
 2423 03f0 012B     		cmp	r3, #1
 2424 03f2 1BD9     		bls	.L119
 2425              		.loc 1 1432 60 discriminator 1
 2426 03f4 FB68     		ldr	r3, [r7, #12]
 2427 03f6 DB6B     		ldr	r3, [r3, #60]
 2428              		.loc 1 1432 46 discriminator 1
 2429 03f8 002B     		cmp	r3, #0
 2430 03fa 17D0     		beq	.L119
1433:./Libraries/STM32H7xx_HAL_Driver/Src/stm32h7xx_hal_spi.c ****         {
1434:./Libraries/STM32H7xx_HAL_Driver/Src/stm32h7xx_hal_spi.c **** #if defined (__GNUC__)
1435:./Libraries/STM32H7xx_HAL_Driver/Src/stm32h7xx_hal_spi.c ****           *ptxdr_16bits = *((uint16_t *)hspi->pTxBuffPtr);
 2431              		.loc 1 1435 45
 2432 03fc FB68     		ldr	r3, [r7, #12]
 2433 03fe DB6D     		ldr	r3, [r3, #92]
 2434              		.loc 1 1435 27
 2435 0400 1A88     		ldrh	r2, [r3]
 2436              		.loc 1 1435 25
ARM GAS  /tmp/ccwjY1CM.s 			page 69


 2437 0402 7B6A     		ldr	r3, [r7, #36]
 2438 0404 1A80     		strh	r2, [r3]	@ movhi
1436:./Libraries/STM32H7xx_HAL_Driver/Src/stm32h7xx_hal_spi.c **** #else
1437:./Libraries/STM32H7xx_HAL_Driver/Src/stm32h7xx_hal_spi.c ****           *((__IO uint16_t *)&hspi->Instance->TXDR) = *((uint16_t *)hspi->pTxBuffPtr);
1438:./Libraries/STM32H7xx_HAL_Driver/Src/stm32h7xx_hal_spi.c **** #endif /* __GNUC__ */
1439:./Libraries/STM32H7xx_HAL_Driver/Src/stm32h7xx_hal_spi.c ****           hspi->pTxBuffPtr += sizeof(uint16_t);
 2439              		.loc 1 1439 28
 2440 0406 FB68     		ldr	r3, [r7, #12]
 2441 0408 DB6D     		ldr	r3, [r3, #92]
 2442 040a 9A1C     		adds	r2, r3, #2
 2443 040c FB68     		ldr	r3, [r7, #12]
 2444 040e DA65     		str	r2, [r3, #92]
1440:./Libraries/STM32H7xx_HAL_Driver/Src/stm32h7xx_hal_spi.c ****           hspi->TxXferCount -= (uint16_t)2UL;
 2445              		.loc 1 1440 29
 2446 0410 FB68     		ldr	r3, [r7, #12]
 2447 0412 B3F86230 		ldrh	r3, [r3, #98]	@ movhi
 2448 0416 9BB2     		uxth	r3, r3
 2449 0418 023B     		subs	r3, r3, #2
 2450 041a 9AB2     		uxth	r2, r3
 2451 041c FB68     		ldr	r3, [r7, #12]
 2452 041e A3F86220 		strh	r2, [r3, #98]	@ movhi
1441:./Libraries/STM32H7xx_HAL_Driver/Src/stm32h7xx_hal_spi.c ****           initial_TxXferCount = hspi->TxXferCount;
 2453              		.loc 1 1441 31
 2454 0422 FB68     		ldr	r3, [r7, #12]
 2455 0424 B3F86230 		ldrh	r3, [r3, #98]	@ movhi
 2456 0428 FB85     		strh	r3, [r7, #46]	@ movhi
 2457 042a 18E0     		b	.L117
 2458              	.L119:
1442:./Libraries/STM32H7xx_HAL_Driver/Src/stm32h7xx_hal_spi.c ****         }
1443:./Libraries/STM32H7xx_HAL_Driver/Src/stm32h7xx_hal_spi.c ****         else
1444:./Libraries/STM32H7xx_HAL_Driver/Src/stm32h7xx_hal_spi.c ****         {
1445:./Libraries/STM32H7xx_HAL_Driver/Src/stm32h7xx_hal_spi.c ****           *((__IO uint8_t *)&hspi->Instance->TXDR) = *((uint8_t *)hspi->pTxBuffPtr);
 2459              		.loc 1 1445 71
 2460 042c FB68     		ldr	r3, [r7, #12]
 2461 042e DA6D     		ldr	r2, [r3, #92]
 2462              		.loc 1 1445 34
 2463 0430 FB68     		ldr	r3, [r7, #12]
 2464 0432 1B68     		ldr	r3, [r3]
 2465              		.loc 1 1445 29
 2466 0434 2033     		adds	r3, r3, #32
 2467              		.loc 1 1445 54
 2468 0436 1278     		ldrb	r2, [r2]	@ zero_extendqisi2
 2469              		.loc 1 1445 52
 2470 0438 1A70     		strb	r2, [r3]
1446:./Libraries/STM32H7xx_HAL_Driver/Src/stm32h7xx_hal_spi.c ****           hspi->pTxBuffPtr += sizeof(uint8_t);
 2471              		.loc 1 1446 28
 2472 043a FB68     		ldr	r3, [r7, #12]
 2473 043c DB6D     		ldr	r3, [r3, #92]
 2474 043e 5A1C     		adds	r2, r3, #1
 2475 0440 FB68     		ldr	r3, [r7, #12]
 2476 0442 DA65     		str	r2, [r3, #92]
1447:./Libraries/STM32H7xx_HAL_Driver/Src/stm32h7xx_hal_spi.c ****           hspi->TxXferCount--;
 2477              		.loc 1 1447 15
 2478 0444 FB68     		ldr	r3, [r7, #12]
 2479 0446 B3F86230 		ldrh	r3, [r3, #98]	@ movhi
 2480 044a 9BB2     		uxth	r3, r3
 2481              		.loc 1 1447 28
ARM GAS  /tmp/ccwjY1CM.s 			page 70


 2482 044c 013B     		subs	r3, r3, #1
 2483 044e 9AB2     		uxth	r2, r3
 2484 0450 FB68     		ldr	r3, [r7, #12]
 2485 0452 A3F86220 		strh	r2, [r3, #98]	@ movhi
1448:./Libraries/STM32H7xx_HAL_Driver/Src/stm32h7xx_hal_spi.c ****           initial_TxXferCount = hspi->TxXferCount;
 2486              		.loc 1 1448 31
 2487 0456 FB68     		ldr	r3, [r7, #12]
 2488 0458 B3F86230 		ldrh	r3, [r3, #98]	@ movhi
 2489 045c FB85     		strh	r3, [r7, #46]	@ movhi
 2490              	.L117:
1449:./Libraries/STM32H7xx_HAL_Driver/Src/stm32h7xx_hal_spi.c ****         }
1450:./Libraries/STM32H7xx_HAL_Driver/Src/stm32h7xx_hal_spi.c ****       }
1451:./Libraries/STM32H7xx_HAL_Driver/Src/stm32h7xx_hal_spi.c **** 
1452:./Libraries/STM32H7xx_HAL_Driver/Src/stm32h7xx_hal_spi.c ****       /* Wait until RXWNE/FRLVL flag is reset */
1453:./Libraries/STM32H7xx_HAL_Driver/Src/stm32h7xx_hal_spi.c ****       if (((hspi->Instance->SR & (SPI_FLAG_RXWNE | SPI_FLAG_FRLVL)) != 0UL) && (initial_RxXferCount
 2491              		.loc 1 1453 17
 2492 045e FB68     		ldr	r3, [r7, #12]
 2493 0460 1B68     		ldr	r3, [r3]
 2494              		.loc 1 1453 27
 2495 0462 5B69     		ldr	r3, [r3, #20]
 2496              		.loc 1 1453 32
 2497 0464 03F46043 		and	r3, r3, #57344
 2498              		.loc 1 1453 10
 2499 0468 002B     		cmp	r3, #0
 2500 046a 5ED0     		beq	.L120
 2501              		.loc 1 1453 77 discriminator 1
 2502 046c BB8D     		ldrh	r3, [r7, #44]
 2503 046e 002B     		cmp	r3, #0
 2504 0470 5BD0     		beq	.L120
1454:./Libraries/STM32H7xx_HAL_Driver/Src/stm32h7xx_hal_spi.c ****       {
1455:./Libraries/STM32H7xx_HAL_Driver/Src/stm32h7xx_hal_spi.c ****         if ((hspi->Instance->SR & SPI_FLAG_RXWNE) != 0UL)
 2505              		.loc 1 1455 18
 2506 0472 FB68     		ldr	r3, [r7, #12]
 2507 0474 1B68     		ldr	r3, [r3]
 2508              		.loc 1 1455 28
 2509 0476 5B69     		ldr	r3, [r3, #20]
 2510              		.loc 1 1455 33
 2511 0478 03F40043 		and	r3, r3, #32768
 2512              		.loc 1 1455 12
 2513 047c 002B     		cmp	r3, #0
 2514 047e 18D0     		beq	.L121
1456:./Libraries/STM32H7xx_HAL_Driver/Src/stm32h7xx_hal_spi.c ****         {
1457:./Libraries/STM32H7xx_HAL_Driver/Src/stm32h7xx_hal_spi.c ****           *((uint32_t *)hspi->pRxBuffPtr) = *((__IO uint32_t *)&hspi->Instance->RXDR);
 2515              		.loc 1 1457 69
 2516 0480 FB68     		ldr	r3, [r7, #12]
 2517 0482 1A68     		ldr	r2, [r3]
 2518              		.loc 1 1457 29
 2519 0484 FB68     		ldr	r3, [r7, #12]
 2520 0486 5B6E     		ldr	r3, [r3, #100]
 2521              		.loc 1 1457 45
 2522 0488 126B     		ldr	r2, [r2, #48]
 2523              		.loc 1 1457 43
 2524 048a 1A60     		str	r2, [r3]
1458:./Libraries/STM32H7xx_HAL_Driver/Src/stm32h7xx_hal_spi.c ****           hspi->pRxBuffPtr += sizeof(uint32_t);
 2525              		.loc 1 1458 28
 2526 048c FB68     		ldr	r3, [r7, #12]
 2527 048e 5B6E     		ldr	r3, [r3, #100]
ARM GAS  /tmp/ccwjY1CM.s 			page 71


 2528 0490 1A1D     		adds	r2, r3, #4
 2529 0492 FB68     		ldr	r3, [r7, #12]
 2530 0494 5A66     		str	r2, [r3, #100]
1459:./Libraries/STM32H7xx_HAL_Driver/Src/stm32h7xx_hal_spi.c ****           hspi->RxXferCount -= (uint16_t)4UL;
 2531              		.loc 1 1459 29
 2532 0496 FB68     		ldr	r3, [r7, #12]
 2533 0498 B3F86A30 		ldrh	r3, [r3, #106]	@ movhi
 2534 049c 9BB2     		uxth	r3, r3
 2535 049e 043B     		subs	r3, r3, #4
 2536 04a0 9AB2     		uxth	r2, r3
 2537 04a2 FB68     		ldr	r3, [r7, #12]
 2538 04a4 A3F86A20 		strh	r2, [r3, #106]	@ movhi
1460:./Libraries/STM32H7xx_HAL_Driver/Src/stm32h7xx_hal_spi.c ****           initial_RxXferCount = hspi->RxXferCount;
 2539              		.loc 1 1460 31
 2540 04a8 FB68     		ldr	r3, [r7, #12]
 2541 04aa B3F86A30 		ldrh	r3, [r3, #106]	@ movhi
 2542 04ae BB85     		strh	r3, [r7, #44]	@ movhi
 2543 04b0 3BE0     		b	.L120
 2544              	.L121:
1461:./Libraries/STM32H7xx_HAL_Driver/Src/stm32h7xx_hal_spi.c ****         }
1462:./Libraries/STM32H7xx_HAL_Driver/Src/stm32h7xx_hal_spi.c ****         else if ((hspi->Instance->SR & SPI_FLAG_FRLVL) > SPI_RX_FIFO_1PACKET)
 2545              		.loc 1 1462 23
 2546 04b2 FB68     		ldr	r3, [r7, #12]
 2547 04b4 1B68     		ldr	r3, [r3]
 2548              		.loc 1 1462 33
 2549 04b6 5B69     		ldr	r3, [r3, #20]
 2550              		.loc 1 1462 38
 2551 04b8 03F4C043 		and	r3, r3, #24576
 2552              		.loc 1 1462 17
 2553 04bc B3F5005F 		cmp	r3, #8192
 2554 04c0 18D9     		bls	.L122
1463:./Libraries/STM32H7xx_HAL_Driver/Src/stm32h7xx_hal_spi.c ****         {
1464:./Libraries/STM32H7xx_HAL_Driver/Src/stm32h7xx_hal_spi.c **** #if defined (__GNUC__)
1465:./Libraries/STM32H7xx_HAL_Driver/Src/stm32h7xx_hal_spi.c ****           *((uint16_t *)hspi->pRxBuffPtr) = *prxdr_16bits;
 2555              		.loc 1 1465 29
 2556 04c2 FB68     		ldr	r3, [r7, #12]
 2557 04c4 5B6E     		ldr	r3, [r3, #100]
 2558              		.loc 1 1465 45
 2559 04c6 3A6A     		ldr	r2, [r7, #32]
 2560 04c8 1288     		ldrh	r2, [r2]	@ movhi
 2561 04ca 92B2     		uxth	r2, r2
 2562              		.loc 1 1465 43
 2563 04cc 1A80     		strh	r2, [r3]	@ movhi
1466:./Libraries/STM32H7xx_HAL_Driver/Src/stm32h7xx_hal_spi.c **** #else
1467:./Libraries/STM32H7xx_HAL_Driver/Src/stm32h7xx_hal_spi.c ****           *((uint16_t *)hspi->pRxBuffPtr) = *((__IO uint16_t *)&hspi->Instance->RXDR);
1468:./Libraries/STM32H7xx_HAL_Driver/Src/stm32h7xx_hal_spi.c **** #endif /* __GNUC__ */
1469:./Libraries/STM32H7xx_HAL_Driver/Src/stm32h7xx_hal_spi.c ****           hspi->pRxBuffPtr += sizeof(uint16_t);
 2564              		.loc 1 1469 28
 2565 04ce FB68     		ldr	r3, [r7, #12]
 2566 04d0 5B6E     		ldr	r3, [r3, #100]
 2567 04d2 9A1C     		adds	r2, r3, #2
 2568 04d4 FB68     		ldr	r3, [r7, #12]
 2569 04d6 5A66     		str	r2, [r3, #100]
1470:./Libraries/STM32H7xx_HAL_Driver/Src/stm32h7xx_hal_spi.c ****           hspi->RxXferCount -= (uint16_t)2UL;
 2570              		.loc 1 1470 29
 2571 04d8 FB68     		ldr	r3, [r7, #12]
 2572 04da B3F86A30 		ldrh	r3, [r3, #106]	@ movhi
ARM GAS  /tmp/ccwjY1CM.s 			page 72


 2573 04de 9BB2     		uxth	r3, r3
 2574 04e0 023B     		subs	r3, r3, #2
 2575 04e2 9AB2     		uxth	r2, r3
 2576 04e4 FB68     		ldr	r3, [r7, #12]
 2577 04e6 A3F86A20 		strh	r2, [r3, #106]	@ movhi
1471:./Libraries/STM32H7xx_HAL_Driver/Src/stm32h7xx_hal_spi.c ****           initial_RxXferCount = hspi->RxXferCount;
 2578              		.loc 1 1471 31
 2579 04ea FB68     		ldr	r3, [r7, #12]
 2580 04ec B3F86A30 		ldrh	r3, [r3, #106]	@ movhi
 2581 04f0 BB85     		strh	r3, [r7, #44]	@ movhi
 2582 04f2 1AE0     		b	.L120
 2583              	.L122:
1472:./Libraries/STM32H7xx_HAL_Driver/Src/stm32h7xx_hal_spi.c ****         }
1473:./Libraries/STM32H7xx_HAL_Driver/Src/stm32h7xx_hal_spi.c ****         else
1474:./Libraries/STM32H7xx_HAL_Driver/Src/stm32h7xx_hal_spi.c ****         {
1475:./Libraries/STM32H7xx_HAL_Driver/Src/stm32h7xx_hal_spi.c ****           *((uint8_t *)hspi->pRxBuffPtr) = *((__IO uint8_t *)&hspi->Instance->RXDR);
 2584              		.loc 1 1475 67
 2585 04f4 FB68     		ldr	r3, [r7, #12]
 2586 04f6 1B68     		ldr	r3, [r3]
 2587              		.loc 1 1475 62
 2588 04f8 03F13002 		add	r2, r3, #48
 2589              		.loc 1 1475 28
 2590 04fc FB68     		ldr	r3, [r7, #12]
 2591 04fe 5B6E     		ldr	r3, [r3, #100]
 2592              		.loc 1 1475 44
 2593 0500 1278     		ldrb	r2, [r2]
 2594 0502 D2B2     		uxtb	r2, r2
 2595              		.loc 1 1475 42
 2596 0504 1A70     		strb	r2, [r3]
1476:./Libraries/STM32H7xx_HAL_Driver/Src/stm32h7xx_hal_spi.c ****           hspi->pRxBuffPtr += sizeof(uint8_t);
 2597              		.loc 1 1476 28
 2598 0506 FB68     		ldr	r3, [r7, #12]
 2599 0508 5B6E     		ldr	r3, [r3, #100]
 2600 050a 5A1C     		adds	r2, r3, #1
 2601 050c FB68     		ldr	r3, [r7, #12]
 2602 050e 5A66     		str	r2, [r3, #100]
1477:./Libraries/STM32H7xx_HAL_Driver/Src/stm32h7xx_hal_spi.c ****           hspi->RxXferCount--;
 2603              		.loc 1 1477 15
 2604 0510 FB68     		ldr	r3, [r7, #12]
 2605 0512 B3F86A30 		ldrh	r3, [r3, #106]	@ movhi
 2606 0516 9BB2     		uxth	r3, r3
 2607              		.loc 1 1477 28
 2608 0518 013B     		subs	r3, r3, #1
 2609 051a 9AB2     		uxth	r2, r3
 2610 051c FB68     		ldr	r3, [r7, #12]
