ARM GAS  /tmp/ccpNfLZa.s 			page 1


   1              		.cpu cortex-m7
   2              		.eabi_attribute 28, 1
   3              		.eabi_attribute 20, 1
   4              		.eabi_attribute 21, 1
   5              		.eabi_attribute 23, 3
   6              		.eabi_attribute 24, 1
   7              		.eabi_attribute 25, 1
   8              		.eabi_attribute 26, 1
   9              		.eabi_attribute 30, 6
  10              		.eabi_attribute 34, 1
  11              		.eabi_attribute 18, 4
  12              		.file	"tasks.c"
  13              		.text
  14              	.Ltext0:
  15              		.cfi_sections	.debug_frame
  16              		.global	pxCurrentTCB
  17              		.section	.bss.pxCurrentTCB,"aw",%nobits
  18              		.align	2
  21              	pxCurrentTCB:
  22 0000 00000000 		.space	4
  23              		.section	.bss.pxReadyTasksLists,"aw",%nobits
  24              		.align	2
  27              	pxReadyTasksLists:
  28 0000 00000000 		.space	1120
  28      00000000 
  28      00000000 
  28      00000000 
  28      00000000 
  29              		.section	.bss.xDelayedTaskList1,"aw",%nobits
  30              		.align	2
  33              	xDelayedTaskList1:
  34 0000 00000000 		.space	20
  34      00000000 
  34      00000000 
  34      00000000 
  34      00000000 
  35              		.section	.bss.xDelayedTaskList2,"aw",%nobits
  36              		.align	2
  39              	xDelayedTaskList2:
  40 0000 00000000 		.space	20
  40      00000000 
  40      00000000 
  40      00000000 
  40      00000000 
  41              		.section	.bss.pxDelayedTaskList,"aw",%nobits
  42              		.align	2
  45              	pxDelayedTaskList:
  46 0000 00000000 		.space	4
  47              		.section	.bss.pxOverflowDelayedTaskList,"aw",%nobits
  48              		.align	2
  51              	pxOverflowDelayedTaskList:
  52 0000 00000000 		.space	4
  53              		.section	.bss.xPendingReadyList,"aw",%nobits
  54              		.align	2
  57              	xPendingReadyList:
  58 0000 00000000 		.space	20
  58      00000000 
ARM GAS  /tmp/ccpNfLZa.s 			page 2


  58      00000000 
  58      00000000 
  58      00000000 
  59              		.section	.bss.xTasksWaitingTermination,"aw",%nobits
  60              		.align	2
  63              	xTasksWaitingTermination:
  64 0000 00000000 		.space	20
  64      00000000 
  64      00000000 
  64      00000000 
  64      00000000 
  65              		.section	.bss.uxDeletedTasksWaitingCleanUp,"aw",%nobits
  66              		.align	2
  69              	uxDeletedTasksWaitingCleanUp:
  70 0000 00000000 		.space	4
  71              		.section	.bss.xSuspendedTaskList,"aw",%nobits
  72              		.align	2
  75              	xSuspendedTaskList:
  76 0000 00000000 		.space	20
  76      00000000 
  76      00000000 
  76      00000000 
  76      00000000 
  77              		.section	.bss.uxCurrentNumberOfTasks,"aw",%nobits
  78              		.align	2
  81              	uxCurrentNumberOfTasks:
  82 0000 00000000 		.space	4
  83              		.section	.bss.xTickCount,"aw",%nobits
  84              		.align	2
  87              	xTickCount:
  88 0000 00000000 		.space	4
  89              		.section	.bss.uxTopReadyPriority,"aw",%nobits
  90              		.align	2
  93              	uxTopReadyPriority:
  94 0000 00000000 		.space	4
  95              		.section	.bss.xSchedulerRunning,"aw",%nobits
  96              		.align	2
  99              	xSchedulerRunning:
 100 0000 00000000 		.space	4
 101              		.section	.bss.xPendedTicks,"aw",%nobits
 102              		.align	2
 105              	xPendedTicks:
 106 0000 00000000 		.space	4
 107              		.section	.bss.xYieldPending,"aw",%nobits
 108              		.align	2
 111              	xYieldPending:
 112 0000 00000000 		.space	4
 113              		.section	.bss.xNumOfOverflows,"aw",%nobits
 114              		.align	2
 117              	xNumOfOverflows:
 118 0000 00000000 		.space	4
 119              		.section	.bss.uxTaskNumber,"aw",%nobits
 120              		.align	2
 123              	uxTaskNumber:
 124 0000 00000000 		.space	4
 125              		.section	.bss.xNextTaskUnblockTime,"aw",%nobits
 126              		.align	2
ARM GAS  /tmp/ccpNfLZa.s 			page 3


 129              	xNextTaskUnblockTime:
 130 0000 00000000 		.space	4
 131              		.section	.bss.xIdleTaskHandle,"aw",%nobits
 132              		.align	2
 135              	xIdleTaskHandle:
 136 0000 00000000 		.space	4
 137              		.section	.bss.uxSchedulerSuspended,"aw",%nobits
 138              		.align	2
 141              	uxSchedulerSuspended:
 142 0000 00000000 		.space	4
 143              		.section	.text.xTaskCreateStatic,"ax",%progbits
 144              		.align	1
 145              		.global	xTaskCreateStatic
 146              		.arch armv7e-m
 147              		.syntax unified
 148              		.thumb
 149              		.thumb_func
 150              		.fpu fpv5-d16
 152              	xTaskCreateStatic:
 153              	.LFB4:
 154              		.file 1 "./Libraries/FreeRTOS/Source/tasks.c"
   1:./Libraries/FreeRTOS/Source/tasks.c **** /*
   2:./Libraries/FreeRTOS/Source/tasks.c ****  * FreeRTOS Kernel V10.3.1
   3:./Libraries/FreeRTOS/Source/tasks.c ****  * Copyright (C) 2020 Amazon.com, Inc. or its affiliates.  All Rights Reserved.
   4:./Libraries/FreeRTOS/Source/tasks.c ****  *
   5:./Libraries/FreeRTOS/Source/tasks.c ****  * Permission is hereby granted, free of charge, to any person obtaining a copy of
   6:./Libraries/FreeRTOS/Source/tasks.c ****  * this software and associated documentation files (the "Software"), to deal in
   7:./Libraries/FreeRTOS/Source/tasks.c ****  * the Software without restriction, including without limitation the rights to
   8:./Libraries/FreeRTOS/Source/tasks.c ****  * use, copy, modify, merge, publish, distribute, sublicense, and/or sell copies of
   9:./Libraries/FreeRTOS/Source/tasks.c ****  * the Software, and to permit persons to whom the Software is furnished to do so,
  10:./Libraries/FreeRTOS/Source/tasks.c ****  * subject to the following conditions:
  11:./Libraries/FreeRTOS/Source/tasks.c ****  *
  12:./Libraries/FreeRTOS/Source/tasks.c ****  * The above copyright notice and this permission notice shall be included in all
  13:./Libraries/FreeRTOS/Source/tasks.c ****  * copies or substantial portions of the Software.
  14:./Libraries/FreeRTOS/Source/tasks.c ****  *
  15:./Libraries/FreeRTOS/Source/tasks.c ****  * THE SOFTWARE IS PROVIDED "AS IS", WITHOUT WARRANTY OF ANY KIND, EXPRESS OR
  16:./Libraries/FreeRTOS/Source/tasks.c ****  * IMPLIED, INCLUDING BUT NOT LIMITED TO THE WARRANTIES OF MERCHANTABILITY, FITNESS
  17:./Libraries/FreeRTOS/Source/tasks.c ****  * FOR A PARTICULAR PURPOSE AND NONINFRINGEMENT. IN NO EVENT SHALL THE AUTHORS OR
  18:./Libraries/FreeRTOS/Source/tasks.c ****  * COPYRIGHT HOLDERS BE LIABLE FOR ANY CLAIM, DAMAGES OR OTHER LIABILITY, WHETHER
  19:./Libraries/FreeRTOS/Source/tasks.c ****  * IN AN ACTION OF CONTRACT, TORT OR OTHERWISE, ARISING FROM, OUT OF OR IN
  20:./Libraries/FreeRTOS/Source/tasks.c ****  * CONNECTION WITH THE SOFTWARE OR THE USE OR OTHER DEALINGS IN THE SOFTWARE.
  21:./Libraries/FreeRTOS/Source/tasks.c ****  *
  22:./Libraries/FreeRTOS/Source/tasks.c ****  * http://www.FreeRTOS.org
  23:./Libraries/FreeRTOS/Source/tasks.c ****  * http://aws.amazon.com/freertos
  24:./Libraries/FreeRTOS/Source/tasks.c ****  *
  25:./Libraries/FreeRTOS/Source/tasks.c ****  * 1 tab == 4 spaces!
  26:./Libraries/FreeRTOS/Source/tasks.c ****  */
  27:./Libraries/FreeRTOS/Source/tasks.c **** 
  28:./Libraries/FreeRTOS/Source/tasks.c **** /* Standard includes. */
  29:./Libraries/FreeRTOS/Source/tasks.c **** #include <stdlib.h>
  30:./Libraries/FreeRTOS/Source/tasks.c **** #include <string.h>
  31:./Libraries/FreeRTOS/Source/tasks.c **** 
  32:./Libraries/FreeRTOS/Source/tasks.c **** /* Defining MPU_WRAPPERS_INCLUDED_FROM_API_FILE prevents task.h from redefining
  33:./Libraries/FreeRTOS/Source/tasks.c **** all the API functions to use the MPU wrappers.  That should only be done when
  34:./Libraries/FreeRTOS/Source/tasks.c **** task.h is included from an application file. */
  35:./Libraries/FreeRTOS/Source/tasks.c **** #define MPU_WRAPPERS_INCLUDED_FROM_API_FILE
  36:./Libraries/FreeRTOS/Source/tasks.c **** 
ARM GAS  /tmp/ccpNfLZa.s 			page 4


  37:./Libraries/FreeRTOS/Source/tasks.c **** /* FreeRTOS includes. */
  38:./Libraries/FreeRTOS/Source/tasks.c **** #include "FreeRTOS.h"
  39:./Libraries/FreeRTOS/Source/tasks.c **** #include "task.h"
  40:./Libraries/FreeRTOS/Source/tasks.c **** #include "timers.h"
  41:./Libraries/FreeRTOS/Source/tasks.c **** #include "stack_macros.h"
  42:./Libraries/FreeRTOS/Source/tasks.c **** 
  43:./Libraries/FreeRTOS/Source/tasks.c **** /* Lint e9021, e961 and e750 are suppressed as a MISRA exception justified
  44:./Libraries/FreeRTOS/Source/tasks.c **** because the MPU ports require MPU_WRAPPERS_INCLUDED_FROM_API_FILE to be defined
  45:./Libraries/FreeRTOS/Source/tasks.c **** for the header files above, but not in this file, in order to generate the
  46:./Libraries/FreeRTOS/Source/tasks.c **** correct privileged Vs unprivileged linkage and placement. */
  47:./Libraries/FreeRTOS/Source/tasks.c **** #undef MPU_WRAPPERS_INCLUDED_FROM_API_FILE /*lint !e961 !e750 !e9021. */
  48:./Libraries/FreeRTOS/Source/tasks.c **** 
  49:./Libraries/FreeRTOS/Source/tasks.c **** /* Set configUSE_STATS_FORMATTING_FUNCTIONS to 2 to include the stats formatting
  50:./Libraries/FreeRTOS/Source/tasks.c **** functions but without including stdio.h here. */
  51:./Libraries/FreeRTOS/Source/tasks.c **** #if ( configUSE_STATS_FORMATTING_FUNCTIONS == 1 )
  52:./Libraries/FreeRTOS/Source/tasks.c **** 	/* At the bottom of this file are two optional functions that can be used
  53:./Libraries/FreeRTOS/Source/tasks.c **** 	to generate human readable text from the raw data generated by the
  54:./Libraries/FreeRTOS/Source/tasks.c **** 	uxTaskGetSystemState() function.  Note the formatting functions are provided
  55:./Libraries/FreeRTOS/Source/tasks.c **** 	for convenience only, and are NOT considered part of the kernel. */
  56:./Libraries/FreeRTOS/Source/tasks.c **** 	#include <stdio.h>
  57:./Libraries/FreeRTOS/Source/tasks.c **** #endif /* configUSE_STATS_FORMATTING_FUNCTIONS == 1 ) */
  58:./Libraries/FreeRTOS/Source/tasks.c **** 
  59:./Libraries/FreeRTOS/Source/tasks.c **** #if( configUSE_PREEMPTION == 0 )
  60:./Libraries/FreeRTOS/Source/tasks.c **** 	/* If the cooperative scheduler is being used then a yield should not be
  61:./Libraries/FreeRTOS/Source/tasks.c **** 	performed just because a higher priority task has been woken. */
  62:./Libraries/FreeRTOS/Source/tasks.c **** 	#define taskYIELD_IF_USING_PREEMPTION()
  63:./Libraries/FreeRTOS/Source/tasks.c **** #else
  64:./Libraries/FreeRTOS/Source/tasks.c **** 	#define taskYIELD_IF_USING_PREEMPTION() portYIELD_WITHIN_API()
  65:./Libraries/FreeRTOS/Source/tasks.c **** #endif
  66:./Libraries/FreeRTOS/Source/tasks.c **** 
  67:./Libraries/FreeRTOS/Source/tasks.c **** /* Values that can be assigned to the ucNotifyState member of the TCB. */
  68:./Libraries/FreeRTOS/Source/tasks.c **** #define taskNOT_WAITING_NOTIFICATION	( ( uint8_t ) 0 )
  69:./Libraries/FreeRTOS/Source/tasks.c **** #define taskWAITING_NOTIFICATION		( ( uint8_t ) 1 )
  70:./Libraries/FreeRTOS/Source/tasks.c **** #define taskNOTIFICATION_RECEIVED		( ( uint8_t ) 2 )
  71:./Libraries/FreeRTOS/Source/tasks.c **** 
  72:./Libraries/FreeRTOS/Source/tasks.c **** /*
  73:./Libraries/FreeRTOS/Source/tasks.c ****  * The value used to fill the stack of a task when the task is created.  This
  74:./Libraries/FreeRTOS/Source/tasks.c ****  * is used purely for checking the high water mark for tasks.
  75:./Libraries/FreeRTOS/Source/tasks.c ****  */
  76:./Libraries/FreeRTOS/Source/tasks.c **** #define tskSTACK_FILL_BYTE	( 0xa5U )
  77:./Libraries/FreeRTOS/Source/tasks.c **** 
  78:./Libraries/FreeRTOS/Source/tasks.c **** /* Bits used to recored how a task's stack and TCB were allocated. */
  79:./Libraries/FreeRTOS/Source/tasks.c **** #define tskDYNAMICALLY_ALLOCATED_STACK_AND_TCB 		( ( uint8_t ) 0 )
  80:./Libraries/FreeRTOS/Source/tasks.c **** #define tskSTATICALLY_ALLOCATED_STACK_ONLY 			( ( uint8_t ) 1 )
  81:./Libraries/FreeRTOS/Source/tasks.c **** #define tskSTATICALLY_ALLOCATED_STACK_AND_TCB		( ( uint8_t ) 2 )
  82:./Libraries/FreeRTOS/Source/tasks.c **** 
  83:./Libraries/FreeRTOS/Source/tasks.c **** /* If any of the following are set then task stacks are filled with a known
  84:./Libraries/FreeRTOS/Source/tasks.c **** value so the high water mark can be determined.  If none of the following are
  85:./Libraries/FreeRTOS/Source/tasks.c **** set then don't fill the stack so there is no unnecessary dependency on memset. */
  86:./Libraries/FreeRTOS/Source/tasks.c **** #if( ( configCHECK_FOR_STACK_OVERFLOW > 1 ) || ( configUSE_TRACE_FACILITY == 1 ) || ( INCLUDE_uxTas
  87:./Libraries/FreeRTOS/Source/tasks.c **** 	#define tskSET_NEW_STACKS_TO_KNOWN_VALUE	1
  88:./Libraries/FreeRTOS/Source/tasks.c **** #else
  89:./Libraries/FreeRTOS/Source/tasks.c **** 	#define tskSET_NEW_STACKS_TO_KNOWN_VALUE	0
  90:./Libraries/FreeRTOS/Source/tasks.c **** #endif
  91:./Libraries/FreeRTOS/Source/tasks.c **** 
  92:./Libraries/FreeRTOS/Source/tasks.c **** /*
  93:./Libraries/FreeRTOS/Source/tasks.c ****  * Macros used by vListTask to indicate which state a task is in.
ARM GAS  /tmp/ccpNfLZa.s 			page 5


  94:./Libraries/FreeRTOS/Source/tasks.c ****  */
  95:./Libraries/FreeRTOS/Source/tasks.c **** #define tskRUNNING_CHAR		( 'X' )
  96:./Libraries/FreeRTOS/Source/tasks.c **** #define tskBLOCKED_CHAR		( 'B' )
  97:./Libraries/FreeRTOS/Source/tasks.c **** #define tskREADY_CHAR		( 'R' )
  98:./Libraries/FreeRTOS/Source/tasks.c **** #define tskDELETED_CHAR		( 'D' )
  99:./Libraries/FreeRTOS/Source/tasks.c **** #define tskSUSPENDED_CHAR	( 'S' )
 100:./Libraries/FreeRTOS/Source/tasks.c **** 
 101:./Libraries/FreeRTOS/Source/tasks.c **** /*
 102:./Libraries/FreeRTOS/Source/tasks.c ****  * Some kernel aware debuggers require the data the debugger needs access to be
 103:./Libraries/FreeRTOS/Source/tasks.c ****  * global, rather than file scope.
 104:./Libraries/FreeRTOS/Source/tasks.c ****  */
 105:./Libraries/FreeRTOS/Source/tasks.c **** #ifdef portREMOVE_STATIC_QUALIFIER
 106:./Libraries/FreeRTOS/Source/tasks.c **** 	#define static
 107:./Libraries/FreeRTOS/Source/tasks.c **** #endif
 108:./Libraries/FreeRTOS/Source/tasks.c **** 
 109:./Libraries/FreeRTOS/Source/tasks.c **** /* The name allocated to the Idle task.  This can be overridden by defining
 110:./Libraries/FreeRTOS/Source/tasks.c **** configIDLE_TASK_NAME in FreeRTOSConfig.h. */
 111:./Libraries/FreeRTOS/Source/tasks.c **** #ifndef configIDLE_TASK_NAME
 112:./Libraries/FreeRTOS/Source/tasks.c **** 	#define configIDLE_TASK_NAME "IDLE"
 113:./Libraries/FreeRTOS/Source/tasks.c **** #endif
 114:./Libraries/FreeRTOS/Source/tasks.c **** 
 115:./Libraries/FreeRTOS/Source/tasks.c **** #if ( configUSE_PORT_OPTIMISED_TASK_SELECTION == 0 )
 116:./Libraries/FreeRTOS/Source/tasks.c **** 
 117:./Libraries/FreeRTOS/Source/tasks.c **** 	/* If configUSE_PORT_OPTIMISED_TASK_SELECTION is 0 then task selection is
 118:./Libraries/FreeRTOS/Source/tasks.c **** 	performed in a generic way that is not optimised to any particular
 119:./Libraries/FreeRTOS/Source/tasks.c **** 	microcontroller architecture. */
 120:./Libraries/FreeRTOS/Source/tasks.c **** 
 121:./Libraries/FreeRTOS/Source/tasks.c **** 	/* uxTopReadyPriority holds the priority of the highest priority ready
 122:./Libraries/FreeRTOS/Source/tasks.c **** 	state task. */
 123:./Libraries/FreeRTOS/Source/tasks.c **** 	#define taskRECORD_READY_PRIORITY( uxPriority )														\
 124:./Libraries/FreeRTOS/Source/tasks.c **** 	{																									\
 125:./Libraries/FreeRTOS/Source/tasks.c **** 		if( ( uxPriority ) > uxTopReadyPriority )														\
 126:./Libraries/FreeRTOS/Source/tasks.c **** 		{																								\
 127:./Libraries/FreeRTOS/Source/tasks.c **** 			uxTopReadyPriority = ( uxPriority );														\
 128:./Libraries/FreeRTOS/Source/tasks.c **** 		}																								\
 129:./Libraries/FreeRTOS/Source/tasks.c **** 	} /* taskRECORD_READY_PRIORITY */
 130:./Libraries/FreeRTOS/Source/tasks.c **** 
 131:./Libraries/FreeRTOS/Source/tasks.c **** 	/*-----------------------------------------------------------*/
 132:./Libraries/FreeRTOS/Source/tasks.c **** 
 133:./Libraries/FreeRTOS/Source/tasks.c **** 	#define taskSELECT_HIGHEST_PRIORITY_TASK()															\
 134:./Libraries/FreeRTOS/Source/tasks.c **** 	{																									\
 135:./Libraries/FreeRTOS/Source/tasks.c **** 	UBaseType_t uxTopPriority = uxTopReadyPriority;														\
 136:./Libraries/FreeRTOS/Source/tasks.c **** 																										\
 137:./Libraries/FreeRTOS/Source/tasks.c **** 		/* Find the highest priority queue that contains ready tasks. */								\
 138:./Libraries/FreeRTOS/Source/tasks.c **** 		while( listLIST_IS_EMPTY( &( pxReadyTasksLists[ uxTopPriority ] ) ) )							\
 139:./Libraries/FreeRTOS/Source/tasks.c **** 		{																								\
 140:./Libraries/FreeRTOS/Source/tasks.c **** 			configASSERT( uxTopPriority );																\
 141:./Libraries/FreeRTOS/Source/tasks.c **** 			--uxTopPriority;																			\
 142:./Libraries/FreeRTOS/Source/tasks.c **** 		}																								\
 143:./Libraries/FreeRTOS/Source/tasks.c **** 																										\
 144:./Libraries/FreeRTOS/Source/tasks.c **** 		/* listGET_OWNER_OF_NEXT_ENTRY indexes through the list, so the tasks of						\
 145:./Libraries/FreeRTOS/Source/tasks.c **** 		the	same priority get an equal share of the processor time. */									\
 146:./Libraries/FreeRTOS/Source/tasks.c **** 		listGET_OWNER_OF_NEXT_ENTRY( pxCurrentTCB, &( pxReadyTasksLists[ uxTopPriority ] ) );			\
 147:./Libraries/FreeRTOS/Source/tasks.c **** 		uxTopReadyPriority = uxTopPriority;																\
 148:./Libraries/FreeRTOS/Source/tasks.c **** 	} /* taskSELECT_HIGHEST_PRIORITY_TASK */
 149:./Libraries/FreeRTOS/Source/tasks.c **** 
 150:./Libraries/FreeRTOS/Source/tasks.c **** 	/*-----------------------------------------------------------*/
ARM GAS  /tmp/ccpNfLZa.s 			page 6


 151:./Libraries/FreeRTOS/Source/tasks.c **** 
 152:./Libraries/FreeRTOS/Source/tasks.c **** 	/* Define away taskRESET_READY_PRIORITY() and portRESET_READY_PRIORITY() as
 153:./Libraries/FreeRTOS/Source/tasks.c **** 	they are only required when a port optimised method of task selection is
 154:./Libraries/FreeRTOS/Source/tasks.c **** 	being used. */
 155:./Libraries/FreeRTOS/Source/tasks.c **** 	#define taskRESET_READY_PRIORITY( uxPriority )
 156:./Libraries/FreeRTOS/Source/tasks.c **** 	#define portRESET_READY_PRIORITY( uxPriority, uxTopReadyPriority )
 157:./Libraries/FreeRTOS/Source/tasks.c **** 
 158:./Libraries/FreeRTOS/Source/tasks.c **** #else /* configUSE_PORT_OPTIMISED_TASK_SELECTION */
 159:./Libraries/FreeRTOS/Source/tasks.c **** 
 160:./Libraries/FreeRTOS/Source/tasks.c **** 	/* If configUSE_PORT_OPTIMISED_TASK_SELECTION is 1 then task selection is
 161:./Libraries/FreeRTOS/Source/tasks.c **** 	performed in a way that is tailored to the particular microcontroller
 162:./Libraries/FreeRTOS/Source/tasks.c **** 	architecture being used. */
 163:./Libraries/FreeRTOS/Source/tasks.c **** 
 164:./Libraries/FreeRTOS/Source/tasks.c **** 	/* A port optimised version is provided.  Call the port defined macros. */
 165:./Libraries/FreeRTOS/Source/tasks.c **** 	#define taskRECORD_READY_PRIORITY( uxPriority )	portRECORD_READY_PRIORITY( uxPriority, uxTopReadyP
 166:./Libraries/FreeRTOS/Source/tasks.c **** 
 167:./Libraries/FreeRTOS/Source/tasks.c **** 	/*-----------------------------------------------------------*/
 168:./Libraries/FreeRTOS/Source/tasks.c **** 
 169:./Libraries/FreeRTOS/Source/tasks.c **** 	#define taskSELECT_HIGHEST_PRIORITY_TASK()														\
 170:./Libraries/FreeRTOS/Source/tasks.c **** 	{																								\
 171:./Libraries/FreeRTOS/Source/tasks.c **** 	UBaseType_t uxTopPriority;																		\
 172:./Libraries/FreeRTOS/Source/tasks.c **** 																									\
 173:./Libraries/FreeRTOS/Source/tasks.c **** 		/* Find the highest priority list that contains ready tasks. */								\
 174:./Libraries/FreeRTOS/Source/tasks.c **** 		portGET_HIGHEST_PRIORITY( uxTopPriority, uxTopReadyPriority );								\
 175:./Libraries/FreeRTOS/Source/tasks.c **** 		configASSERT( listCURRENT_LIST_LENGTH( &( pxReadyTasksLists[ uxTopPriority ] ) ) > 0 );		\
 176:./Libraries/FreeRTOS/Source/tasks.c **** 		listGET_OWNER_OF_NEXT_ENTRY( pxCurrentTCB, &( pxReadyTasksLists[ uxTopPriority ] ) );		\
 177:./Libraries/FreeRTOS/Source/tasks.c **** 	} /* taskSELECT_HIGHEST_PRIORITY_TASK() */
 178:./Libraries/FreeRTOS/Source/tasks.c **** 
 179:./Libraries/FreeRTOS/Source/tasks.c **** 	/*-----------------------------------------------------------*/
 180:./Libraries/FreeRTOS/Source/tasks.c **** 
 181:./Libraries/FreeRTOS/Source/tasks.c **** 	/* A port optimised version is provided, call it only if the TCB being reset
 182:./Libraries/FreeRTOS/Source/tasks.c **** 	is being referenced from a ready list.  If it is referenced from a delayed
 183:./Libraries/FreeRTOS/Source/tasks.c **** 	or suspended list then it won't be in a ready list. */
 184:./Libraries/FreeRTOS/Source/tasks.c **** 	#define taskRESET_READY_PRIORITY( uxPriority )														\
 185:./Libraries/FreeRTOS/Source/tasks.c **** 	{																									\
 186:./Libraries/FreeRTOS/Source/tasks.c **** 		if( listCURRENT_LIST_LENGTH( &( pxReadyTasksLists[ ( uxPriority ) ] ) ) == ( UBaseType_t ) 0 )	\
 187:./Libraries/FreeRTOS/Source/tasks.c **** 		{																								\
 188:./Libraries/FreeRTOS/Source/tasks.c **** 			portRESET_READY_PRIORITY( ( uxPriority ), ( uxTopReadyPriority ) );							\
 189:./Libraries/FreeRTOS/Source/tasks.c **** 		}																								\
 190:./Libraries/FreeRTOS/Source/tasks.c **** 	}
 191:./Libraries/FreeRTOS/Source/tasks.c **** 
 192:./Libraries/FreeRTOS/Source/tasks.c **** #endif /* configUSE_PORT_OPTIMISED_TASK_SELECTION */
 193:./Libraries/FreeRTOS/Source/tasks.c **** 
 194:./Libraries/FreeRTOS/Source/tasks.c **** /*-----------------------------------------------------------*/
 195:./Libraries/FreeRTOS/Source/tasks.c **** 
 196:./Libraries/FreeRTOS/Source/tasks.c **** /* pxDelayedTaskList and pxOverflowDelayedTaskList are switched when the tick
 197:./Libraries/FreeRTOS/Source/tasks.c **** count overflows. */
 198:./Libraries/FreeRTOS/Source/tasks.c **** #define taskSWITCH_DELAYED_LISTS()																	\
 199:./Libraries/FreeRTOS/Source/tasks.c **** {																									\
 200:./Libraries/FreeRTOS/Source/tasks.c **** 	List_t *pxTemp;																					\
 201:./Libraries/FreeRTOS/Source/tasks.c **** 																									\
 202:./Libraries/FreeRTOS/Source/tasks.c **** 	/* The delayed tasks list should be empty when the lists are switched. */						\
 203:./Libraries/FreeRTOS/Source/tasks.c **** 	configASSERT( ( listLIST_IS_EMPTY( pxDelayedTaskList ) ) );										\
 204:./Libraries/FreeRTOS/Source/tasks.c **** 																									\
 205:./Libraries/FreeRTOS/Source/tasks.c **** 	pxTemp = pxDelayedTaskList;																		\
 206:./Libraries/FreeRTOS/Source/tasks.c **** 	pxDelayedTaskList = pxOverflowDelayedTaskList;													\
 207:./Libraries/FreeRTOS/Source/tasks.c **** 	pxOverflowDelayedTaskList = pxTemp;																\
ARM GAS  /tmp/ccpNfLZa.s 			page 7


 208:./Libraries/FreeRTOS/Source/tasks.c **** 	xNumOfOverflows++;																				\
 209:./Libraries/FreeRTOS/Source/tasks.c **** 	prvResetNextTaskUnblockTime();																	\
 210:./Libraries/FreeRTOS/Source/tasks.c **** }
 211:./Libraries/FreeRTOS/Source/tasks.c **** 
 212:./Libraries/FreeRTOS/Source/tasks.c **** /*-----------------------------------------------------------*/
 213:./Libraries/FreeRTOS/Source/tasks.c **** 
 214:./Libraries/FreeRTOS/Source/tasks.c **** /*
 215:./Libraries/FreeRTOS/Source/tasks.c ****  * Place the task represented by pxTCB into the appropriate ready list for
 216:./Libraries/FreeRTOS/Source/tasks.c ****  * the task.  It is inserted at the end of the list.
 217:./Libraries/FreeRTOS/Source/tasks.c ****  */
 218:./Libraries/FreeRTOS/Source/tasks.c **** #define prvAddTaskToReadyList( pxTCB )																\
 219:./Libraries/FreeRTOS/Source/tasks.c **** 	traceMOVED_TASK_TO_READY_STATE( pxTCB );														\
 220:./Libraries/FreeRTOS/Source/tasks.c **** 	taskRECORD_READY_PRIORITY( ( pxTCB )->uxPriority );												\
 221:./Libraries/FreeRTOS/Source/tasks.c **** 	vListInsertEnd( &( pxReadyTasksLists[ ( pxTCB )->uxPriority ] ), &( ( pxTCB )->xStateListItem ) );
 222:./Libraries/FreeRTOS/Source/tasks.c **** 	tracePOST_MOVED_TASK_TO_READY_STATE( pxTCB )
 223:./Libraries/FreeRTOS/Source/tasks.c **** /*-----------------------------------------------------------*/
 224:./Libraries/FreeRTOS/Source/tasks.c **** 
 225:./Libraries/FreeRTOS/Source/tasks.c **** /*
 226:./Libraries/FreeRTOS/Source/tasks.c ****  * Several functions take an TaskHandle_t parameter that can optionally be NULL,
 227:./Libraries/FreeRTOS/Source/tasks.c ****  * where NULL is used to indicate that the handle of the currently executing
 228:./Libraries/FreeRTOS/Source/tasks.c ****  * task should be used in place of the parameter.  This macro simply checks to
 229:./Libraries/FreeRTOS/Source/tasks.c ****  * see if the parameter is NULL and returns a pointer to the appropriate TCB.
 230:./Libraries/FreeRTOS/Source/tasks.c ****  */
 231:./Libraries/FreeRTOS/Source/tasks.c **** #define prvGetTCBFromHandle( pxHandle ) ( ( ( pxHandle ) == NULL ) ? pxCurrentTCB : ( pxHandle ) )
 232:./Libraries/FreeRTOS/Source/tasks.c **** 
 233:./Libraries/FreeRTOS/Source/tasks.c **** /* The item value of the event list item is normally used to hold the priority
 234:./Libraries/FreeRTOS/Source/tasks.c **** of the task to which it belongs (coded to allow it to be held in reverse
 235:./Libraries/FreeRTOS/Source/tasks.c **** priority order).  However, it is occasionally borrowed for other purposes.  It
 236:./Libraries/FreeRTOS/Source/tasks.c **** is important its value is not updated due to a task priority change while it is
 237:./Libraries/FreeRTOS/Source/tasks.c **** being used for another purpose.  The following bit definition is used to inform
 238:./Libraries/FreeRTOS/Source/tasks.c **** the scheduler that the value should not be changed - in which case it is the
 239:./Libraries/FreeRTOS/Source/tasks.c **** responsibility of whichever module is using the value to ensure it gets set back
 240:./Libraries/FreeRTOS/Source/tasks.c **** to its original value when it is released. */
 241:./Libraries/FreeRTOS/Source/tasks.c **** #if( configUSE_16_BIT_TICKS == 1 )
 242:./Libraries/FreeRTOS/Source/tasks.c **** 	#define taskEVENT_LIST_ITEM_VALUE_IN_USE	0x8000U
 243:./Libraries/FreeRTOS/Source/tasks.c **** #else
 244:./Libraries/FreeRTOS/Source/tasks.c **** 	#define taskEVENT_LIST_ITEM_VALUE_IN_USE	0x80000000UL
 245:./Libraries/FreeRTOS/Source/tasks.c **** #endif
 246:./Libraries/FreeRTOS/Source/tasks.c **** 
 247:./Libraries/FreeRTOS/Source/tasks.c **** /*
 248:./Libraries/FreeRTOS/Source/tasks.c ****  * Task control block.  A task control block (TCB) is allocated for each task,
 249:./Libraries/FreeRTOS/Source/tasks.c ****  * and stores task state information, including a pointer to the task's context
 250:./Libraries/FreeRTOS/Source/tasks.c ****  * (the task's run time environment, including register values)
 251:./Libraries/FreeRTOS/Source/tasks.c ****  */
 252:./Libraries/FreeRTOS/Source/tasks.c **** typedef struct tskTaskControlBlock 			/* The old naming convention is used to prevent breaking kern
 253:./Libraries/FreeRTOS/Source/tasks.c **** {
 254:./Libraries/FreeRTOS/Source/tasks.c **** 	volatile StackType_t	*pxTopOfStack;	/*< Points to the location of the last item placed on the task
 255:./Libraries/FreeRTOS/Source/tasks.c **** 
 256:./Libraries/FreeRTOS/Source/tasks.c **** 	#if ( portUSING_MPU_WRAPPERS == 1 )
 257:./Libraries/FreeRTOS/Source/tasks.c **** 		xMPU_SETTINGS	xMPUSettings;		/*< The MPU settings are defined as part of the port layer.  THIS MU
 258:./Libraries/FreeRTOS/Source/tasks.c **** 	#endif
 259:./Libraries/FreeRTOS/Source/tasks.c **** 
 260:./Libraries/FreeRTOS/Source/tasks.c **** 	ListItem_t			xStateListItem;	/*< The list that the state list item of a task is reference from den
 261:./Libraries/FreeRTOS/Source/tasks.c **** 	ListItem_t			xEventListItem;		/*< Used to reference a task from an event list. */
 262:./Libraries/FreeRTOS/Source/tasks.c **** 	UBaseType_t			uxPriority;			/*< The priority of the task.  0 is the lowest priority. */
 263:./Libraries/FreeRTOS/Source/tasks.c **** 	StackType_t			*pxStack;			/*< Points to the start of the stack. */
 264:./Libraries/FreeRTOS/Source/tasks.c **** 	char				pcTaskName[ configMAX_TASK_NAME_LEN ];/*< Descriptive name given to the task when created.
ARM GAS  /tmp/ccpNfLZa.s 			page 8


 265:./Libraries/FreeRTOS/Source/tasks.c **** 
 266:./Libraries/FreeRTOS/Source/tasks.c **** 	#if ( ( portSTACK_GROWTH > 0 ) || ( configRECORD_STACK_HIGH_ADDRESS == 1 ) )
 267:./Libraries/FreeRTOS/Source/tasks.c **** 		StackType_t		*pxEndOfStack;		/*< Points to the highest valid address for the stack. */
 268:./Libraries/FreeRTOS/Source/tasks.c **** 	#endif
 269:./Libraries/FreeRTOS/Source/tasks.c **** 
 270:./Libraries/FreeRTOS/Source/tasks.c **** 	#if ( portCRITICAL_NESTING_IN_TCB == 1 )
 271:./Libraries/FreeRTOS/Source/tasks.c **** 		UBaseType_t		uxCriticalNesting;	/*< Holds the critical section nesting depth for ports that do no
 272:./Libraries/FreeRTOS/Source/tasks.c **** 	#endif
 273:./Libraries/FreeRTOS/Source/tasks.c **** 
 274:./Libraries/FreeRTOS/Source/tasks.c **** 	#if ( configUSE_TRACE_FACILITY == 1 )
 275:./Libraries/FreeRTOS/Source/tasks.c **** 		UBaseType_t		uxTCBNumber;		/*< Stores a number that increments each time a TCB is created.  It al
 276:./Libraries/FreeRTOS/Source/tasks.c **** 		UBaseType_t		uxTaskNumber;		/*< Stores a number specifically for use by third party trace code. *
 277:./Libraries/FreeRTOS/Source/tasks.c **** 	#endif
 278:./Libraries/FreeRTOS/Source/tasks.c **** 
 279:./Libraries/FreeRTOS/Source/tasks.c **** 	#if ( configUSE_MUTEXES == 1 )
 280:./Libraries/FreeRTOS/Source/tasks.c **** 		UBaseType_t		uxBasePriority;		/*< The priority last assigned to the task - used by the priority i
 281:./Libraries/FreeRTOS/Source/tasks.c **** 		UBaseType_t		uxMutexesHeld;
 282:./Libraries/FreeRTOS/Source/tasks.c **** 	#endif
 283:./Libraries/FreeRTOS/Source/tasks.c **** 
 284:./Libraries/FreeRTOS/Source/tasks.c **** 	#if ( configUSE_APPLICATION_TASK_TAG == 1 )
 285:./Libraries/FreeRTOS/Source/tasks.c **** 		TaskHookFunction_t pxTaskTag;
 286:./Libraries/FreeRTOS/Source/tasks.c **** 	#endif
 287:./Libraries/FreeRTOS/Source/tasks.c **** 
 288:./Libraries/FreeRTOS/Source/tasks.c **** 	#if( configNUM_THREAD_LOCAL_STORAGE_POINTERS > 0 )
 289:./Libraries/FreeRTOS/Source/tasks.c **** 		void			*pvThreadLocalStoragePointers[ configNUM_THREAD_LOCAL_STORAGE_POINTERS ];
 290:./Libraries/FreeRTOS/Source/tasks.c **** 	#endif
 291:./Libraries/FreeRTOS/Source/tasks.c **** 
 292:./Libraries/FreeRTOS/Source/tasks.c **** 	#if( configGENERATE_RUN_TIME_STATS == 1 )
 293:./Libraries/FreeRTOS/Source/tasks.c **** 		uint32_t		ulRunTimeCounter;	/*< Stores the amount of time the task has spent in the Running state
 294:./Libraries/FreeRTOS/Source/tasks.c **** 	#endif
 295:./Libraries/FreeRTOS/Source/tasks.c **** 
 296:./Libraries/FreeRTOS/Source/tasks.c **** 	#if ( configUSE_NEWLIB_REENTRANT == 1 )
 297:./Libraries/FreeRTOS/Source/tasks.c **** 		/* Allocate a Newlib reent structure that is specific to this task.
 298:./Libraries/FreeRTOS/Source/tasks.c **** 		Note Newlib support has been included by popular demand, but is not
 299:./Libraries/FreeRTOS/Source/tasks.c **** 		used by the FreeRTOS maintainers themselves.  FreeRTOS is not
 300:./Libraries/FreeRTOS/Source/tasks.c **** 		responsible for resulting newlib operation.  User must be familiar with
 301:./Libraries/FreeRTOS/Source/tasks.c **** 		newlib and must provide system-wide implementations of the necessary
 302:./Libraries/FreeRTOS/Source/tasks.c **** 		stubs. Be warned that (at the time of writing) the current newlib design
 303:./Libraries/FreeRTOS/Source/tasks.c **** 		implements a system-wide malloc() that must be provided with locks.
 304:./Libraries/FreeRTOS/Source/tasks.c **** 
 305:./Libraries/FreeRTOS/Source/tasks.c **** 		See the third party link http://www.nadler.com/embedded/newlibAndFreeRTOS.html
 306:./Libraries/FreeRTOS/Source/tasks.c **** 		for additional information. */
 307:./Libraries/FreeRTOS/Source/tasks.c **** 		struct	_reent xNewLib_reent;
 308:./Libraries/FreeRTOS/Source/tasks.c **** 	#endif
 309:./Libraries/FreeRTOS/Source/tasks.c **** 
 310:./Libraries/FreeRTOS/Source/tasks.c **** 	#if( configUSE_TASK_NOTIFICATIONS == 1 )
 311:./Libraries/FreeRTOS/Source/tasks.c **** 		volatile uint32_t ulNotifiedValue;
 312:./Libraries/FreeRTOS/Source/tasks.c **** 		volatile uint8_t ucNotifyState;
 313:./Libraries/FreeRTOS/Source/tasks.c **** 	#endif
 314:./Libraries/FreeRTOS/Source/tasks.c **** 
 315:./Libraries/FreeRTOS/Source/tasks.c **** 	/* See the comments in FreeRTOS.h with the definition of
 316:./Libraries/FreeRTOS/Source/tasks.c **** 	tskSTATIC_AND_DYNAMIC_ALLOCATION_POSSIBLE. */
 317:./Libraries/FreeRTOS/Source/tasks.c **** 	#if( tskSTATIC_AND_DYNAMIC_ALLOCATION_POSSIBLE != 0 ) /*lint !e731 !e9029 Macro has been consolida
 318:./Libraries/FreeRTOS/Source/tasks.c **** 		uint8_t	ucStaticallyAllocated; 		/*< Set to pdTRUE if the task is a statically allocated to ensur
 319:./Libraries/FreeRTOS/Source/tasks.c **** 	#endif
 320:./Libraries/FreeRTOS/Source/tasks.c **** 
 321:./Libraries/FreeRTOS/Source/tasks.c **** 	#if( INCLUDE_xTaskAbortDelay == 1 )
ARM GAS  /tmp/ccpNfLZa.s 			page 9


 322:./Libraries/FreeRTOS/Source/tasks.c **** 		uint8_t ucDelayAborted;
 323:./Libraries/FreeRTOS/Source/tasks.c **** 	#endif
 324:./Libraries/FreeRTOS/Source/tasks.c **** 
 325:./Libraries/FreeRTOS/Source/tasks.c **** 	#if( configUSE_POSIX_ERRNO == 1 )
 326:./Libraries/FreeRTOS/Source/tasks.c **** 		int iTaskErrno;
 327:./Libraries/FreeRTOS/Source/tasks.c **** 	#endif
 328:./Libraries/FreeRTOS/Source/tasks.c **** 
 329:./Libraries/FreeRTOS/Source/tasks.c **** } tskTCB;
 330:./Libraries/FreeRTOS/Source/tasks.c **** 
 331:./Libraries/FreeRTOS/Source/tasks.c **** /* The old tskTCB name is maintained above then typedefed to the new TCB_t name
 332:./Libraries/FreeRTOS/Source/tasks.c **** below to enable the use of older kernel aware debuggers. */
 333:./Libraries/FreeRTOS/Source/tasks.c **** typedef tskTCB TCB_t;
 334:./Libraries/FreeRTOS/Source/tasks.c **** 
 335:./Libraries/FreeRTOS/Source/tasks.c **** /*lint -save -e956 A manual analysis and inspection has been used to determine
 336:./Libraries/FreeRTOS/Source/tasks.c **** which static variables must be declared volatile. */
 337:./Libraries/FreeRTOS/Source/tasks.c **** PRIVILEGED_DATA TCB_t * volatile pxCurrentTCB = NULL;
 338:./Libraries/FreeRTOS/Source/tasks.c **** 
 339:./Libraries/FreeRTOS/Source/tasks.c **** /* Lists for ready and blocked tasks. --------------------
 340:./Libraries/FreeRTOS/Source/tasks.c **** xDelayedTaskList1 and xDelayedTaskList2 could be move to function scople but
 341:./Libraries/FreeRTOS/Source/tasks.c **** doing so breaks some kernel aware debuggers and debuggers that rely on removing
 342:./Libraries/FreeRTOS/Source/tasks.c **** the static qualifier. */
 343:./Libraries/FreeRTOS/Source/tasks.c **** PRIVILEGED_DATA static List_t pxReadyTasksLists[ configMAX_PRIORITIES ];/*< Prioritised ready tasks
 344:./Libraries/FreeRTOS/Source/tasks.c **** PRIVILEGED_DATA static List_t xDelayedTaskList1;						/*< Delayed tasks. */
 345:./Libraries/FreeRTOS/Source/tasks.c **** PRIVILEGED_DATA static List_t xDelayedTaskList2;						/*< Delayed tasks (two lists are used - one f
 346:./Libraries/FreeRTOS/Source/tasks.c **** PRIVILEGED_DATA static List_t * volatile pxDelayedTaskList;				/*< Points to the delayed task list 
 347:./Libraries/FreeRTOS/Source/tasks.c **** PRIVILEGED_DATA static List_t * volatile pxOverflowDelayedTaskList;		/*< Points to the delayed task
 348:./Libraries/FreeRTOS/Source/tasks.c **** PRIVILEGED_DATA static List_t xPendingReadyList;						/*< Tasks that have been readied while the sc
 349:./Libraries/FreeRTOS/Source/tasks.c **** 
 350:./Libraries/FreeRTOS/Source/tasks.c **** #if( INCLUDE_vTaskDelete == 1 )
 351:./Libraries/FreeRTOS/Source/tasks.c **** 
 352:./Libraries/FreeRTOS/Source/tasks.c **** 	PRIVILEGED_DATA static List_t xTasksWaitingTermination;				/*< Tasks that have been deleted - but 
 353:./Libraries/FreeRTOS/Source/tasks.c **** 	PRIVILEGED_DATA static volatile UBaseType_t uxDeletedTasksWaitingCleanUp = ( UBaseType_t ) 0U;
 354:./Libraries/FreeRTOS/Source/tasks.c **** 
 355:./Libraries/FreeRTOS/Source/tasks.c **** #endif
 356:./Libraries/FreeRTOS/Source/tasks.c **** 
 357:./Libraries/FreeRTOS/Source/tasks.c **** #if ( INCLUDE_vTaskSuspend == 1 )
 358:./Libraries/FreeRTOS/Source/tasks.c **** 
 359:./Libraries/FreeRTOS/Source/tasks.c **** 	PRIVILEGED_DATA static List_t xSuspendedTaskList;					/*< Tasks that are currently suspended. */
 360:./Libraries/FreeRTOS/Source/tasks.c **** 
 361:./Libraries/FreeRTOS/Source/tasks.c **** #endif
 362:./Libraries/FreeRTOS/Source/tasks.c **** 
 363:./Libraries/FreeRTOS/Source/tasks.c **** /* Global POSIX errno. Its value is changed upon context switching to match
 364:./Libraries/FreeRTOS/Source/tasks.c **** the errno of the currently running task. */
 365:./Libraries/FreeRTOS/Source/tasks.c **** #if ( configUSE_POSIX_ERRNO == 1 )
 366:./Libraries/FreeRTOS/Source/tasks.c **** 	int FreeRTOS_errno = 0;
 367:./Libraries/FreeRTOS/Source/tasks.c **** #endif
 368:./Libraries/FreeRTOS/Source/tasks.c **** 
 369:./Libraries/FreeRTOS/Source/tasks.c **** /* Other file private variables. --------------------------------*/
 370:./Libraries/FreeRTOS/Source/tasks.c **** PRIVILEGED_DATA static volatile UBaseType_t uxCurrentNumberOfTasks 	= ( UBaseType_t ) 0U;
 371:./Libraries/FreeRTOS/Source/tasks.c **** PRIVILEGED_DATA static volatile TickType_t xTickCount 				= ( TickType_t ) configINITIAL_TICK_COUNT
 372:./Libraries/FreeRTOS/Source/tasks.c **** PRIVILEGED_DATA static volatile UBaseType_t uxTopReadyPriority 		= tskIDLE_PRIORITY;
 373:./Libraries/FreeRTOS/Source/tasks.c **** PRIVILEGED_DATA static volatile BaseType_t xSchedulerRunning 		= pdFALSE;
 374:./Libraries/FreeRTOS/Source/tasks.c **** PRIVILEGED_DATA static volatile TickType_t xPendedTicks 			= ( TickType_t ) 0U;
 375:./Libraries/FreeRTOS/Source/tasks.c **** PRIVILEGED_DATA static volatile BaseType_t xYieldPending 			= pdFALSE;
 376:./Libraries/FreeRTOS/Source/tasks.c **** PRIVILEGED_DATA static volatile BaseType_t xNumOfOverflows 			= ( BaseType_t ) 0;
 377:./Libraries/FreeRTOS/Source/tasks.c **** PRIVILEGED_DATA static UBaseType_t uxTaskNumber 					= ( UBaseType_t ) 0U;
 378:./Libraries/FreeRTOS/Source/tasks.c **** PRIVILEGED_DATA static volatile TickType_t xNextTaskUnblockTime		= ( TickType_t ) 0U; /* Initialise
ARM GAS  /tmp/ccpNfLZa.s 			page 10


 379:./Libraries/FreeRTOS/Source/tasks.c **** PRIVILEGED_DATA static TaskHandle_t xIdleTaskHandle					= NULL;			/*< Holds the handle of the idle 
 380:./Libraries/FreeRTOS/Source/tasks.c **** 
 381:./Libraries/FreeRTOS/Source/tasks.c **** /* Context switches are held pending while the scheduler is suspended.  Also,
 382:./Libraries/FreeRTOS/Source/tasks.c **** interrupts must not manipulate the xStateListItem of a TCB, or any of the
 383:./Libraries/FreeRTOS/Source/tasks.c **** lists the xStateListItem can be referenced from, if the scheduler is suspended.
 384:./Libraries/FreeRTOS/Source/tasks.c **** If an interrupt needs to unblock a task while the scheduler is suspended then it
 385:./Libraries/FreeRTOS/Source/tasks.c **** moves the task's event list item into the xPendingReadyList, ready for the
 386:./Libraries/FreeRTOS/Source/tasks.c **** kernel to move the task from the pending ready list into the real ready list
 387:./Libraries/FreeRTOS/Source/tasks.c **** when the scheduler is unsuspended.  The pending ready list itself can only be
 388:./Libraries/FreeRTOS/Source/tasks.c **** accessed from a critical section. */
 389:./Libraries/FreeRTOS/Source/tasks.c **** PRIVILEGED_DATA static volatile UBaseType_t uxSchedulerSuspended	= ( UBaseType_t ) pdFALSE;
 390:./Libraries/FreeRTOS/Source/tasks.c **** 
 391:./Libraries/FreeRTOS/Source/tasks.c **** #if ( configGENERATE_RUN_TIME_STATS == 1 )
 392:./Libraries/FreeRTOS/Source/tasks.c **** 
 393:./Libraries/FreeRTOS/Source/tasks.c **** 	/* Do not move these variables to function scope as doing so prevents the
 394:./Libraries/FreeRTOS/Source/tasks.c **** 	code working with debuggers that need to remove the static qualifier. */
 395:./Libraries/FreeRTOS/Source/tasks.c **** 	PRIVILEGED_DATA static uint32_t ulTaskSwitchedInTime = 0UL;	/*< Holds the value of a timer/counter
 396:./Libraries/FreeRTOS/Source/tasks.c **** 	PRIVILEGED_DATA static uint32_t ulTotalRunTime = 0UL;		/*< Holds the total amount of execution tim
 397:./Libraries/FreeRTOS/Source/tasks.c **** 
 398:./Libraries/FreeRTOS/Source/tasks.c **** #endif
 399:./Libraries/FreeRTOS/Source/tasks.c **** 
 400:./Libraries/FreeRTOS/Source/tasks.c **** /*lint -restore */
 401:./Libraries/FreeRTOS/Source/tasks.c **** 
 402:./Libraries/FreeRTOS/Source/tasks.c **** /*-----------------------------------------------------------*/
 403:./Libraries/FreeRTOS/Source/tasks.c **** 
 404:./Libraries/FreeRTOS/Source/tasks.c **** /* Callback function prototypes. --------------------------*/
 405:./Libraries/FreeRTOS/Source/tasks.c **** #if(  configCHECK_FOR_STACK_OVERFLOW > 0 )
 406:./Libraries/FreeRTOS/Source/tasks.c **** 
 407:./Libraries/FreeRTOS/Source/tasks.c **** 	extern void vApplicationStackOverflowHook( TaskHandle_t xTask, char *pcTaskName );
 408:./Libraries/FreeRTOS/Source/tasks.c **** 
 409:./Libraries/FreeRTOS/Source/tasks.c **** #endif
 410:./Libraries/FreeRTOS/Source/tasks.c **** 
 411:./Libraries/FreeRTOS/Source/tasks.c **** #if( configUSE_TICK_HOOK > 0 )
 412:./Libraries/FreeRTOS/Source/tasks.c **** 
 413:./Libraries/FreeRTOS/Source/tasks.c **** 	extern void vApplicationTickHook( void ); /*lint !e526 Symbol not defined as it is an application 
 414:./Libraries/FreeRTOS/Source/tasks.c **** 
 415:./Libraries/FreeRTOS/Source/tasks.c **** #endif
 416:./Libraries/FreeRTOS/Source/tasks.c **** 
 417:./Libraries/FreeRTOS/Source/tasks.c **** #if( configSUPPORT_STATIC_ALLOCATION == 1 )
 418:./Libraries/FreeRTOS/Source/tasks.c **** 
 419:./Libraries/FreeRTOS/Source/tasks.c **** 	extern void vApplicationGetIdleTaskMemory( StaticTask_t **ppxIdleTaskTCBBuffer, StackType_t **ppxI
 420:./Libraries/FreeRTOS/Source/tasks.c **** 
 421:./Libraries/FreeRTOS/Source/tasks.c **** #endif
 422:./Libraries/FreeRTOS/Source/tasks.c **** 
 423:./Libraries/FreeRTOS/Source/tasks.c **** /* File private functions. --------------------------------*/
 424:./Libraries/FreeRTOS/Source/tasks.c **** 
 425:./Libraries/FreeRTOS/Source/tasks.c **** /**
 426:./Libraries/FreeRTOS/Source/tasks.c ****  * Utility task that simply returns pdTRUE if the task referenced by xTask is
 427:./Libraries/FreeRTOS/Source/tasks.c ****  * currently in the Suspended state, or pdFALSE if the task referenced by xTask
 428:./Libraries/FreeRTOS/Source/tasks.c ****  * is in any other state.
 429:./Libraries/FreeRTOS/Source/tasks.c ****  */
 430:./Libraries/FreeRTOS/Source/tasks.c **** #if ( INCLUDE_vTaskSuspend == 1 )
 431:./Libraries/FreeRTOS/Source/tasks.c **** 
 432:./Libraries/FreeRTOS/Source/tasks.c **** 	static BaseType_t prvTaskIsTaskSuspended( const TaskHandle_t xTask ) PRIVILEGED_FUNCTION;
 433:./Libraries/FreeRTOS/Source/tasks.c **** 
 434:./Libraries/FreeRTOS/Source/tasks.c **** #endif /* INCLUDE_vTaskSuspend */
 435:./Libraries/FreeRTOS/Source/tasks.c **** 
ARM GAS  /tmp/ccpNfLZa.s 			page 11


 436:./Libraries/FreeRTOS/Source/tasks.c **** /*
 437:./Libraries/FreeRTOS/Source/tasks.c ****  * Utility to ready all the lists used by the scheduler.  This is called
 438:./Libraries/FreeRTOS/Source/tasks.c ****  * automatically upon the creation of the first task.
 439:./Libraries/FreeRTOS/Source/tasks.c ****  */
 440:./Libraries/FreeRTOS/Source/tasks.c **** static void prvInitialiseTaskLists( void ) PRIVILEGED_FUNCTION;
 441:./Libraries/FreeRTOS/Source/tasks.c **** 
 442:./Libraries/FreeRTOS/Source/tasks.c **** /*
 443:./Libraries/FreeRTOS/Source/tasks.c ****  * The idle task, which as all tasks is implemented as a never ending loop.
 444:./Libraries/FreeRTOS/Source/tasks.c ****  * The idle task is automatically created and added to the ready lists upon
 445:./Libraries/FreeRTOS/Source/tasks.c ****  * creation of the first user task.
 446:./Libraries/FreeRTOS/Source/tasks.c ****  *
 447:./Libraries/FreeRTOS/Source/tasks.c ****  * The portTASK_FUNCTION_PROTO() macro is used to allow port/compiler specific
 448:./Libraries/FreeRTOS/Source/tasks.c ****  * language extensions.  The equivalent prototype for this function is:
 449:./Libraries/FreeRTOS/Source/tasks.c ****  *
 450:./Libraries/FreeRTOS/Source/tasks.c ****  * void prvIdleTask( void *pvParameters );
 451:./Libraries/FreeRTOS/Source/tasks.c ****  *
 452:./Libraries/FreeRTOS/Source/tasks.c ****  */
 453:./Libraries/FreeRTOS/Source/tasks.c **** static portTASK_FUNCTION_PROTO( prvIdleTask, pvParameters );
 454:./Libraries/FreeRTOS/Source/tasks.c **** 
 455:./Libraries/FreeRTOS/Source/tasks.c **** /*
 456:./Libraries/FreeRTOS/Source/tasks.c ****  * Utility to free all memory allocated by the scheduler to hold a TCB,
 457:./Libraries/FreeRTOS/Source/tasks.c ****  * including the stack pointed to by the TCB.
 458:./Libraries/FreeRTOS/Source/tasks.c ****  *
 459:./Libraries/FreeRTOS/Source/tasks.c ****  * This does not free memory allocated by the task itself (i.e. memory
 460:./Libraries/FreeRTOS/Source/tasks.c ****  * allocated by calls to pvPortMalloc from within the tasks application code).
 461:./Libraries/FreeRTOS/Source/tasks.c ****  */
 462:./Libraries/FreeRTOS/Source/tasks.c **** #if ( INCLUDE_vTaskDelete == 1 )
 463:./Libraries/FreeRTOS/Source/tasks.c **** 
 464:./Libraries/FreeRTOS/Source/tasks.c **** 	static void prvDeleteTCB( TCB_t *pxTCB ) PRIVILEGED_FUNCTION;
 465:./Libraries/FreeRTOS/Source/tasks.c **** 
 466:./Libraries/FreeRTOS/Source/tasks.c **** #endif
 467:./Libraries/FreeRTOS/Source/tasks.c **** 
 468:./Libraries/FreeRTOS/Source/tasks.c **** /*
 469:./Libraries/FreeRTOS/Source/tasks.c ****  * Used only by the idle task.  This checks to see if anything has been placed
 470:./Libraries/FreeRTOS/Source/tasks.c ****  * in the list of tasks waiting to be deleted.  If so the task is cleaned up
 471:./Libraries/FreeRTOS/Source/tasks.c ****  * and its TCB deleted.
 472:./Libraries/FreeRTOS/Source/tasks.c ****  */
 473:./Libraries/FreeRTOS/Source/tasks.c **** static void prvCheckTasksWaitingTermination( void ) PRIVILEGED_FUNCTION;
 474:./Libraries/FreeRTOS/Source/tasks.c **** 
 475:./Libraries/FreeRTOS/Source/tasks.c **** /*
 476:./Libraries/FreeRTOS/Source/tasks.c ****  * The currently executing task is entering the Blocked state.  Add the task to
 477:./Libraries/FreeRTOS/Source/tasks.c ****  * either the current or the overflow delayed task list.
 478:./Libraries/FreeRTOS/Source/tasks.c ****  */
 479:./Libraries/FreeRTOS/Source/tasks.c **** static void prvAddCurrentTaskToDelayedList( TickType_t xTicksToWait, const BaseType_t xCanBlockInde
 480:./Libraries/FreeRTOS/Source/tasks.c **** 
 481:./Libraries/FreeRTOS/Source/tasks.c **** /*
 482:./Libraries/FreeRTOS/Source/tasks.c ****  * Fills an TaskStatus_t structure with information on each task that is
 483:./Libraries/FreeRTOS/Source/tasks.c ****  * referenced from the pxList list (which may be a ready list, a delayed list,
 484:./Libraries/FreeRTOS/Source/tasks.c ****  * a suspended list, etc.).
 485:./Libraries/FreeRTOS/Source/tasks.c ****  *
 486:./Libraries/FreeRTOS/Source/tasks.c ****  * THIS FUNCTION IS INTENDED FOR DEBUGGING ONLY, AND SHOULD NOT BE CALLED FROM
 487:./Libraries/FreeRTOS/Source/tasks.c ****  * NORMAL APPLICATION CODE.
 488:./Libraries/FreeRTOS/Source/tasks.c ****  */
 489:./Libraries/FreeRTOS/Source/tasks.c **** #if ( configUSE_TRACE_FACILITY == 1 )
 490:./Libraries/FreeRTOS/Source/tasks.c **** 
 491:./Libraries/FreeRTOS/Source/tasks.c **** 	static UBaseType_t prvListTasksWithinSingleList( TaskStatus_t *pxTaskStatusArray, List_t *pxList, 
 492:./Libraries/FreeRTOS/Source/tasks.c **** 
ARM GAS  /tmp/ccpNfLZa.s 			page 12


 493:./Libraries/FreeRTOS/Source/tasks.c **** #endif
 494:./Libraries/FreeRTOS/Source/tasks.c **** 
 495:./Libraries/FreeRTOS/Source/tasks.c **** /*
 496:./Libraries/FreeRTOS/Source/tasks.c ****  * Searches pxList for a task with name pcNameToQuery - returning a handle to
 497:./Libraries/FreeRTOS/Source/tasks.c ****  * the task if it is found, or NULL if the task is not found.
 498:./Libraries/FreeRTOS/Source/tasks.c ****  */
 499:./Libraries/FreeRTOS/Source/tasks.c **** #if ( INCLUDE_xTaskGetHandle == 1 )
 500:./Libraries/FreeRTOS/Source/tasks.c **** 
 501:./Libraries/FreeRTOS/Source/tasks.c **** 	static TCB_t *prvSearchForNameWithinSingleList( List_t *pxList, const char pcNameToQuery[] ) PRIVI
 502:./Libraries/FreeRTOS/Source/tasks.c **** 
 503:./Libraries/FreeRTOS/Source/tasks.c **** #endif
 504:./Libraries/FreeRTOS/Source/tasks.c **** 
 505:./Libraries/FreeRTOS/Source/tasks.c **** /*
 506:./Libraries/FreeRTOS/Source/tasks.c ****  * When a task is created, the stack of the task is filled with a known value.
 507:./Libraries/FreeRTOS/Source/tasks.c ****  * This function determines the 'high water mark' of the task stack by
 508:./Libraries/FreeRTOS/Source/tasks.c ****  * determining how much of the stack remains at the original preset value.
 509:./Libraries/FreeRTOS/Source/tasks.c ****  */
 510:./Libraries/FreeRTOS/Source/tasks.c **** #if ( ( configUSE_TRACE_FACILITY == 1 ) || ( INCLUDE_uxTaskGetStackHighWaterMark == 1 ) || ( INCLUD
 511:./Libraries/FreeRTOS/Source/tasks.c **** 
 512:./Libraries/FreeRTOS/Source/tasks.c **** 	static configSTACK_DEPTH_TYPE prvTaskCheckFreeStackSpace( const uint8_t * pucStackByte ) PRIVILEGE
 513:./Libraries/FreeRTOS/Source/tasks.c **** 
 514:./Libraries/FreeRTOS/Source/tasks.c **** #endif
 515:./Libraries/FreeRTOS/Source/tasks.c **** 
 516:./Libraries/FreeRTOS/Source/tasks.c **** /*
 517:./Libraries/FreeRTOS/Source/tasks.c ****  * Return the amount of time, in ticks, that will pass before the kernel will
 518:./Libraries/FreeRTOS/Source/tasks.c ****  * next move a task from the Blocked state to the Running state.
 519:./Libraries/FreeRTOS/Source/tasks.c ****  *
 520:./Libraries/FreeRTOS/Source/tasks.c ****  * This conditional compilation should use inequality to 0, not equality to 1.
 521:./Libraries/FreeRTOS/Source/tasks.c ****  * This is to ensure portSUPPRESS_TICKS_AND_SLEEP() can be called when user
 522:./Libraries/FreeRTOS/Source/tasks.c ****  * defined low power mode implementations require configUSE_TICKLESS_IDLE to be
 523:./Libraries/FreeRTOS/Source/tasks.c ****  * set to a value other than 1.
 524:./Libraries/FreeRTOS/Source/tasks.c ****  */
 525:./Libraries/FreeRTOS/Source/tasks.c **** #if ( configUSE_TICKLESS_IDLE != 0 )
 526:./Libraries/FreeRTOS/Source/tasks.c **** 
 527:./Libraries/FreeRTOS/Source/tasks.c **** 	static TickType_t prvGetExpectedIdleTime( void ) PRIVILEGED_FUNCTION;
 528:./Libraries/FreeRTOS/Source/tasks.c **** 
 529:./Libraries/FreeRTOS/Source/tasks.c **** #endif
 530:./Libraries/FreeRTOS/Source/tasks.c **** 
 531:./Libraries/FreeRTOS/Source/tasks.c **** /*
 532:./Libraries/FreeRTOS/Source/tasks.c ****  * Set xNextTaskUnblockTime to the time at which the next Blocked state task
 533:./Libraries/FreeRTOS/Source/tasks.c ****  * will exit the Blocked state.
 534:./Libraries/FreeRTOS/Source/tasks.c ****  */
 535:./Libraries/FreeRTOS/Source/tasks.c **** static void prvResetNextTaskUnblockTime( void );
 536:./Libraries/FreeRTOS/Source/tasks.c **** 
 537:./Libraries/FreeRTOS/Source/tasks.c **** #if ( ( configUSE_TRACE_FACILITY == 1 ) && ( configUSE_STATS_FORMATTING_FUNCTIONS > 0 ) )
 538:./Libraries/FreeRTOS/Source/tasks.c **** 
 539:./Libraries/FreeRTOS/Source/tasks.c **** 	/*
 540:./Libraries/FreeRTOS/Source/tasks.c **** 	 * Helper function used to pad task names with spaces when printing out
 541:./Libraries/FreeRTOS/Source/tasks.c **** 	 * human readable tables of task information.
 542:./Libraries/FreeRTOS/Source/tasks.c **** 	 */
 543:./Libraries/FreeRTOS/Source/tasks.c **** 	static char *prvWriteNameToBuffer( char *pcBuffer, const char *pcTaskName ) PRIVILEGED_FUNCTION;
 544:./Libraries/FreeRTOS/Source/tasks.c **** 
 545:./Libraries/FreeRTOS/Source/tasks.c **** #endif
 546:./Libraries/FreeRTOS/Source/tasks.c **** 
 547:./Libraries/FreeRTOS/Source/tasks.c **** /*
 548:./Libraries/FreeRTOS/Source/tasks.c ****  * Called after a Task_t structure has been allocated either statically or
 549:./Libraries/FreeRTOS/Source/tasks.c ****  * dynamically to fill in the structure's members.
ARM GAS  /tmp/ccpNfLZa.s 			page 13


 550:./Libraries/FreeRTOS/Source/tasks.c ****  */
 551:./Libraries/FreeRTOS/Source/tasks.c **** static void prvInitialiseNewTask( 	TaskFunction_t pxTaskCode,
 552:./Libraries/FreeRTOS/Source/tasks.c **** 									const char * const pcName, 		/*lint !e971 Unqualified char types are allowed for strings a
 553:./Libraries/FreeRTOS/Source/tasks.c **** 									const uint32_t ulStackDepth,
 554:./Libraries/FreeRTOS/Source/tasks.c **** 									void * const pvParameters,
 555:./Libraries/FreeRTOS/Source/tasks.c **** 									UBaseType_t uxPriority,
 556:./Libraries/FreeRTOS/Source/tasks.c **** 									TaskHandle_t * const pxCreatedTask,
 557:./Libraries/FreeRTOS/Source/tasks.c **** 									TCB_t *pxNewTCB,
 558:./Libraries/FreeRTOS/Source/tasks.c **** 									const MemoryRegion_t * const xRegions ) PRIVILEGED_FUNCTION;
 559:./Libraries/FreeRTOS/Source/tasks.c **** 
 560:./Libraries/FreeRTOS/Source/tasks.c **** /*
 561:./Libraries/FreeRTOS/Source/tasks.c ****  * Called after a new task has been created and initialised to place the task
 562:./Libraries/FreeRTOS/Source/tasks.c ****  * under the control of the scheduler.
 563:./Libraries/FreeRTOS/Source/tasks.c ****  */
 564:./Libraries/FreeRTOS/Source/tasks.c **** static void prvAddNewTaskToReadyList( TCB_t *pxNewTCB ) PRIVILEGED_FUNCTION;
 565:./Libraries/FreeRTOS/Source/tasks.c **** 
 566:./Libraries/FreeRTOS/Source/tasks.c **** /*
 567:./Libraries/FreeRTOS/Source/tasks.c ****  * freertos_tasks_c_additions_init() should only be called if the user definable
 568:./Libraries/FreeRTOS/Source/tasks.c ****  * macro FREERTOS_TASKS_C_ADDITIONS_INIT() is defined, as that is the only macro
 569:./Libraries/FreeRTOS/Source/tasks.c ****  * called by the function.
 570:./Libraries/FreeRTOS/Source/tasks.c ****  */
 571:./Libraries/FreeRTOS/Source/tasks.c **** #ifdef FREERTOS_TASKS_C_ADDITIONS_INIT
 572:./Libraries/FreeRTOS/Source/tasks.c **** 
 573:./Libraries/FreeRTOS/Source/tasks.c **** 	static void freertos_tasks_c_additions_init( void ) PRIVILEGED_FUNCTION;
 574:./Libraries/FreeRTOS/Source/tasks.c **** 
 575:./Libraries/FreeRTOS/Source/tasks.c **** #endif
 576:./Libraries/FreeRTOS/Source/tasks.c **** 
 577:./Libraries/FreeRTOS/Source/tasks.c **** /*-----------------------------------------------------------*/
 578:./Libraries/FreeRTOS/Source/tasks.c **** 
 579:./Libraries/FreeRTOS/Source/tasks.c **** #if( configSUPPORT_STATIC_ALLOCATION == 1 )
 580:./Libraries/FreeRTOS/Source/tasks.c **** 
 581:./Libraries/FreeRTOS/Source/tasks.c **** 	TaskHandle_t xTaskCreateStatic(	TaskFunction_t pxTaskCode,
 582:./Libraries/FreeRTOS/Source/tasks.c **** 									const char * const pcName,		/*lint !e971 Unqualified char types are allowed for strings an
 583:./Libraries/FreeRTOS/Source/tasks.c **** 									const uint32_t ulStackDepth,
 584:./Libraries/FreeRTOS/Source/tasks.c **** 									void * const pvParameters,
 585:./Libraries/FreeRTOS/Source/tasks.c **** 									UBaseType_t uxPriority,
 586:./Libraries/FreeRTOS/Source/tasks.c **** 									StackType_t * const puxStackBuffer,
 587:./Libraries/FreeRTOS/Source/tasks.c **** 									StaticTask_t * const pxTaskBuffer )
 588:./Libraries/FreeRTOS/Source/tasks.c **** 	{
 155              		.loc 1 588 2
 156              		.cfi_startproc
 157              		@ args = 12, pretend = 0, frame = 40
 158              		@ frame_needed = 1, uses_anonymous_args = 0
 159 0000 80B5     		push	{r7, lr}
 160              	.LCFI0:
 161              		.cfi_def_cfa_offset 8
 162              		.cfi_offset 7, -8
 163              		.cfi_offset 14, -4
 164 0002 8EB0     		sub	sp, sp, #56
 165              	.LCFI1:
 166              		.cfi_def_cfa_offset 64
 167 0004 04AF     		add	r7, sp, #16
 168              	.LCFI2:
 169              		.cfi_def_cfa 7, 48
 170 0006 F860     		str	r0, [r7, #12]
 171 0008 B960     		str	r1, [r7, #8]
 172 000a 7A60     		str	r2, [r7, #4]
ARM GAS  /tmp/ccpNfLZa.s 			page 14


 173 000c 3B60     		str	r3, [r7]
 589:./Libraries/FreeRTOS/Source/tasks.c **** 	TCB_t *pxNewTCB;
 590:./Libraries/FreeRTOS/Source/tasks.c **** 	TaskHandle_t xReturn;
 591:./Libraries/FreeRTOS/Source/tasks.c **** 
 592:./Libraries/FreeRTOS/Source/tasks.c **** 		configASSERT( puxStackBuffer != NULL );
 174              		.loc 1 592 3
 175 000e 7B6B     		ldr	r3, [r7, #52]
 176 0010 002B     		cmp	r3, #0
 177 0012 0AD1     		bne	.L2
 178              	.LBB119:
 179              	.LBB120:
 180              		.file 2 "./Libraries/FreeRTOS/Source/portable/GCC/ARM_CM4F/portmacro.h"
   1:./Libraries/FreeRTOS/Source/portable/GCC/ARM_CM4F/portmacro.h **** /*
   2:./Libraries/FreeRTOS/Source/portable/GCC/ARM_CM4F/portmacro.h ****  * FreeRTOS Kernel V10.3.1
   3:./Libraries/FreeRTOS/Source/portable/GCC/ARM_CM4F/portmacro.h ****  * Copyright (C) 2020 Amazon.com, Inc. or its affiliates.  All Rights Reserved.
   4:./Libraries/FreeRTOS/Source/portable/GCC/ARM_CM4F/portmacro.h ****  *
   5:./Libraries/FreeRTOS/Source/portable/GCC/ARM_CM4F/portmacro.h ****  * Permission is hereby granted, free of charge, to any person obtaining a copy of
   6:./Libraries/FreeRTOS/Source/portable/GCC/ARM_CM4F/portmacro.h ****  * this software and associated documentation files (the "Software"), to deal in
   7:./Libraries/FreeRTOS/Source/portable/GCC/ARM_CM4F/portmacro.h ****  * the Software without restriction, including without limitation the rights to
   8:./Libraries/FreeRTOS/Source/portable/GCC/ARM_CM4F/portmacro.h ****  * use, copy, modify, merge, publish, distribute, sublicense, and/or sell copies of
   9:./Libraries/FreeRTOS/Source/portable/GCC/ARM_CM4F/portmacro.h ****  * the Software, and to permit persons to whom the Software is furnished to do so,
  10:./Libraries/FreeRTOS/Source/portable/GCC/ARM_CM4F/portmacro.h ****  * subject to the following conditions:
  11:./Libraries/FreeRTOS/Source/portable/GCC/ARM_CM4F/portmacro.h ****  *
  12:./Libraries/FreeRTOS/Source/portable/GCC/ARM_CM4F/portmacro.h ****  * The above copyright notice and this permission notice shall be included in all
  13:./Libraries/FreeRTOS/Source/portable/GCC/ARM_CM4F/portmacro.h ****  * copies or substantial portions of the Software.
  14:./Libraries/FreeRTOS/Source/portable/GCC/ARM_CM4F/portmacro.h ****  *
  15:./Libraries/FreeRTOS/Source/portable/GCC/ARM_CM4F/portmacro.h ****  * THE SOFTWARE IS PROVIDED "AS IS", WITHOUT WARRANTY OF ANY KIND, EXPRESS OR
  16:./Libraries/FreeRTOS/Source/portable/GCC/ARM_CM4F/portmacro.h ****  * IMPLIED, INCLUDING BUT NOT LIMITED TO THE WARRANTIES OF MERCHANTABILITY, FITNESS
  17:./Libraries/FreeRTOS/Source/portable/GCC/ARM_CM4F/portmacro.h ****  * FOR A PARTICULAR PURPOSE AND NONINFRINGEMENT. IN NO EVENT SHALL THE AUTHORS OR
  18:./Libraries/FreeRTOS/Source/portable/GCC/ARM_CM4F/portmacro.h ****  * COPYRIGHT HOLDERS BE LIABLE FOR ANY CLAIM, DAMAGES OR OTHER LIABILITY, WHETHER
  19:./Libraries/FreeRTOS/Source/portable/GCC/ARM_CM4F/portmacro.h ****  * IN AN ACTION OF CONTRACT, TORT OR OTHERWISE, ARISING FROM, OUT OF OR IN
  20:./Libraries/FreeRTOS/Source/portable/GCC/ARM_CM4F/portmacro.h ****  * CONNECTION WITH THE SOFTWARE OR THE USE OR OTHER DEALINGS IN THE SOFTWARE.
  21:./Libraries/FreeRTOS/Source/portable/GCC/ARM_CM4F/portmacro.h ****  *
  22:./Libraries/FreeRTOS/Source/portable/GCC/ARM_CM4F/portmacro.h ****  * http://www.FreeRTOS.org
  23:./Libraries/FreeRTOS/Source/portable/GCC/ARM_CM4F/portmacro.h ****  * http://aws.amazon.com/freertos
  24:./Libraries/FreeRTOS/Source/portable/GCC/ARM_CM4F/portmacro.h ****  *
  25:./Libraries/FreeRTOS/Source/portable/GCC/ARM_CM4F/portmacro.h ****  * 1 tab == 4 spaces!
  26:./Libraries/FreeRTOS/Source/portable/GCC/ARM_CM4F/portmacro.h ****  */
  27:./Libraries/FreeRTOS/Source/portable/GCC/ARM_CM4F/portmacro.h **** 
  28:./Libraries/FreeRTOS/Source/portable/GCC/ARM_CM4F/portmacro.h **** 
  29:./Libraries/FreeRTOS/Source/portable/GCC/ARM_CM4F/portmacro.h **** #ifndef PORTMACRO_H
  30:./Libraries/FreeRTOS/Source/portable/GCC/ARM_CM4F/portmacro.h **** #define PORTMACRO_H
  31:./Libraries/FreeRTOS/Source/portable/GCC/ARM_CM4F/portmacro.h **** 
  32:./Libraries/FreeRTOS/Source/portable/GCC/ARM_CM4F/portmacro.h **** #ifdef __cplusplus
  33:./Libraries/FreeRTOS/Source/portable/GCC/ARM_CM4F/portmacro.h **** extern "C" {
  34:./Libraries/FreeRTOS/Source/portable/GCC/ARM_CM4F/portmacro.h **** #endif
  35:./Libraries/FreeRTOS/Source/portable/GCC/ARM_CM4F/portmacro.h **** 
  36:./Libraries/FreeRTOS/Source/portable/GCC/ARM_CM4F/portmacro.h **** /*-----------------------------------------------------------
  37:./Libraries/FreeRTOS/Source/portable/GCC/ARM_CM4F/portmacro.h ****  * Port specific definitions.
  38:./Libraries/FreeRTOS/Source/portable/GCC/ARM_CM4F/portmacro.h ****  *
  39:./Libraries/FreeRTOS/Source/portable/GCC/ARM_CM4F/portmacro.h ****  * The settings in this file configure FreeRTOS correctly for the
  40:./Libraries/FreeRTOS/Source/portable/GCC/ARM_CM4F/portmacro.h ****  * given hardware and compiler.
  41:./Libraries/FreeRTOS/Source/portable/GCC/ARM_CM4F/portmacro.h ****  *
  42:./Libraries/FreeRTOS/Source/portable/GCC/ARM_CM4F/portmacro.h ****  * These settings should not be altered.
  43:./Libraries/FreeRTOS/Source/portable/GCC/ARM_CM4F/portmacro.h ****  *-----------------------------------------------------------
  44:./Libraries/FreeRTOS/Source/portable/GCC/ARM_CM4F/portmacro.h ****  */
  45:./Libraries/FreeRTOS/Source/portable/GCC/ARM_CM4F/portmacro.h **** 
ARM GAS  /tmp/ccpNfLZa.s 			page 15


  46:./Libraries/FreeRTOS/Source/portable/GCC/ARM_CM4F/portmacro.h **** /* Type definitions. */
  47:./Libraries/FreeRTOS/Source/portable/GCC/ARM_CM4F/portmacro.h **** #define portCHAR		char
  48:./Libraries/FreeRTOS/Source/portable/GCC/ARM_CM4F/portmacro.h **** #define portFLOAT		float
  49:./Libraries/FreeRTOS/Source/portable/GCC/ARM_CM4F/portmacro.h **** #define portDOUBLE		double
  50:./Libraries/FreeRTOS/Source/portable/GCC/ARM_CM4F/portmacro.h **** #define portLONG		long
  51:./Libraries/FreeRTOS/Source/portable/GCC/ARM_CM4F/portmacro.h **** #define portSHORT		short
  52:./Libraries/FreeRTOS/Source/portable/GCC/ARM_CM4F/portmacro.h **** #define portSTACK_TYPE	uint32_t
  53:./Libraries/FreeRTOS/Source/portable/GCC/ARM_CM4F/portmacro.h **** #define portBASE_TYPE	long
  54:./Libraries/FreeRTOS/Source/portable/GCC/ARM_CM4F/portmacro.h **** 
  55:./Libraries/FreeRTOS/Source/portable/GCC/ARM_CM4F/portmacro.h **** typedef portSTACK_TYPE StackType_t;
  56:./Libraries/FreeRTOS/Source/portable/GCC/ARM_CM4F/portmacro.h **** typedef long BaseType_t;
  57:./Libraries/FreeRTOS/Source/portable/GCC/ARM_CM4F/portmacro.h **** typedef unsigned long UBaseType_t;
  58:./Libraries/FreeRTOS/Source/portable/GCC/ARM_CM4F/portmacro.h **** 
  59:./Libraries/FreeRTOS/Source/portable/GCC/ARM_CM4F/portmacro.h **** #if( configUSE_16_BIT_TICKS == 1 )
  60:./Libraries/FreeRTOS/Source/portable/GCC/ARM_CM4F/portmacro.h **** 	typedef uint16_t TickType_t;
  61:./Libraries/FreeRTOS/Source/portable/GCC/ARM_CM4F/portmacro.h **** 	#define portMAX_DELAY ( TickType_t ) 0xffff
  62:./Libraries/FreeRTOS/Source/portable/GCC/ARM_CM4F/portmacro.h **** #else
  63:./Libraries/FreeRTOS/Source/portable/GCC/ARM_CM4F/portmacro.h **** 	typedef uint32_t TickType_t;
  64:./Libraries/FreeRTOS/Source/portable/GCC/ARM_CM4F/portmacro.h **** 	#define portMAX_DELAY ( TickType_t ) 0xffffffffUL
  65:./Libraries/FreeRTOS/Source/portable/GCC/ARM_CM4F/portmacro.h **** 
  66:./Libraries/FreeRTOS/Source/portable/GCC/ARM_CM4F/portmacro.h **** 	/* 32-bit tick type on a 32-bit architecture, so reads of the tick count do
  67:./Libraries/FreeRTOS/Source/portable/GCC/ARM_CM4F/portmacro.h **** 	not need to be guarded with a critical section. */
  68:./Libraries/FreeRTOS/Source/portable/GCC/ARM_CM4F/portmacro.h **** 	#define portTICK_TYPE_IS_ATOMIC 1
  69:./Libraries/FreeRTOS/Source/portable/GCC/ARM_CM4F/portmacro.h **** #endif
  70:./Libraries/FreeRTOS/Source/portable/GCC/ARM_CM4F/portmacro.h **** /*-----------------------------------------------------------*/
  71:./Libraries/FreeRTOS/Source/portable/GCC/ARM_CM4F/portmacro.h **** 
  72:./Libraries/FreeRTOS/Source/portable/GCC/ARM_CM4F/portmacro.h **** /* Architecture specifics. */
  73:./Libraries/FreeRTOS/Source/portable/GCC/ARM_CM4F/portmacro.h **** #define portSTACK_GROWTH			( -1 )
  74:./Libraries/FreeRTOS/Source/portable/GCC/ARM_CM4F/portmacro.h **** #define portTICK_PERIOD_MS			( ( TickType_t ) 1000 / configTICK_RATE_HZ )
  75:./Libraries/FreeRTOS/Source/portable/GCC/ARM_CM4F/portmacro.h **** #define portBYTE_ALIGNMENT			8
  76:./Libraries/FreeRTOS/Source/portable/GCC/ARM_CM4F/portmacro.h **** /*-----------------------------------------------------------*/
  77:./Libraries/FreeRTOS/Source/portable/GCC/ARM_CM4F/portmacro.h **** 
  78:./Libraries/FreeRTOS/Source/portable/GCC/ARM_CM4F/portmacro.h **** /* Scheduler utilities. */
  79:./Libraries/FreeRTOS/Source/portable/GCC/ARM_CM4F/portmacro.h **** #define portYIELD() 															\
  80:./Libraries/FreeRTOS/Source/portable/GCC/ARM_CM4F/portmacro.h **** {																				\
  81:./Libraries/FreeRTOS/Source/portable/GCC/ARM_CM4F/portmacro.h **** 	/* Set a PendSV to request a context switch. */								\
  82:./Libraries/FreeRTOS/Source/portable/GCC/ARM_CM4F/portmacro.h **** 	portNVIC_INT_CTRL_REG = portNVIC_PENDSVSET_BIT;								\
  83:./Libraries/FreeRTOS/Source/portable/GCC/ARM_CM4F/portmacro.h **** 																				\
  84:./Libraries/FreeRTOS/Source/portable/GCC/ARM_CM4F/portmacro.h **** 	/* Barriers are normally not required but do ensure the code is completely	\
  85:./Libraries/FreeRTOS/Source/portable/GCC/ARM_CM4F/portmacro.h **** 	within the specified behaviour for the architecture. */						\
  86:./Libraries/FreeRTOS/Source/portable/GCC/ARM_CM4F/portmacro.h **** 	__asm volatile( "dsb" ::: "memory" );										\
  87:./Libraries/FreeRTOS/Source/portable/GCC/ARM_CM4F/portmacro.h **** 	__asm volatile( "isb" );													\
  88:./Libraries/FreeRTOS/Source/portable/GCC/ARM_CM4F/portmacro.h **** }
  89:./Libraries/FreeRTOS/Source/portable/GCC/ARM_CM4F/portmacro.h **** 
  90:./Libraries/FreeRTOS/Source/portable/GCC/ARM_CM4F/portmacro.h **** #define portNVIC_INT_CTRL_REG		( * ( ( volatile uint32_t * ) 0xe000ed04 ) )
  91:./Libraries/FreeRTOS/Source/portable/GCC/ARM_CM4F/portmacro.h **** #define portNVIC_PENDSVSET_BIT		( 1UL << 28UL )
  92:./Libraries/FreeRTOS/Source/portable/GCC/ARM_CM4F/portmacro.h **** #define portEND_SWITCHING_ISR( xSwitchRequired ) if( xSwitchRequired != pdFALSE ) portYIELD()
  93:./Libraries/FreeRTOS/Source/portable/GCC/ARM_CM4F/portmacro.h **** #define portYIELD_FROM_ISR( x ) portEND_SWITCHING_ISR( x )
  94:./Libraries/FreeRTOS/Source/portable/GCC/ARM_CM4F/portmacro.h **** /*-----------------------------------------------------------*/
  95:./Libraries/FreeRTOS/Source/portable/GCC/ARM_CM4F/portmacro.h **** 
  96:./Libraries/FreeRTOS/Source/portable/GCC/ARM_CM4F/portmacro.h **** /* Critical section management. */
  97:./Libraries/FreeRTOS/Source/portable/GCC/ARM_CM4F/portmacro.h **** extern void vPortEnterCritical( void );
  98:./Libraries/FreeRTOS/Source/portable/GCC/ARM_CM4F/portmacro.h **** extern void vPortExitCritical( void );
  99:./Libraries/FreeRTOS/Source/portable/GCC/ARM_CM4F/portmacro.h **** #define portSET_INTERRUPT_MASK_FROM_ISR()		ulPortRaiseBASEPRI()
 100:./Libraries/FreeRTOS/Source/portable/GCC/ARM_CM4F/portmacro.h **** #define portCLEAR_INTERRUPT_MASK_FROM_ISR(x)	vPortSetBASEPRI(x)
 101:./Libraries/FreeRTOS/Source/portable/GCC/ARM_CM4F/portmacro.h **** #define portDISABLE_INTERRUPTS()				vPortRaiseBASEPRI()
 102:./Libraries/FreeRTOS/Source/portable/GCC/ARM_CM4F/portmacro.h **** #define portENABLE_INTERRUPTS()					vPortSetBASEPRI(0)
ARM GAS  /tmp/ccpNfLZa.s 			page 16


 103:./Libraries/FreeRTOS/Source/portable/GCC/ARM_CM4F/portmacro.h **** #define portENTER_CRITICAL()					vPortEnterCritical()
 104:./Libraries/FreeRTOS/Source/portable/GCC/ARM_CM4F/portmacro.h **** #define portEXIT_CRITICAL()						vPortExitCritical()
 105:./Libraries/FreeRTOS/Source/portable/GCC/ARM_CM4F/portmacro.h **** 
 106:./Libraries/FreeRTOS/Source/portable/GCC/ARM_CM4F/portmacro.h **** /*-----------------------------------------------------------*/
 107:./Libraries/FreeRTOS/Source/portable/GCC/ARM_CM4F/portmacro.h **** 
 108:./Libraries/FreeRTOS/Source/portable/GCC/ARM_CM4F/portmacro.h **** /* Task function macros as described on the FreeRTOS.org WEB site.  These are
 109:./Libraries/FreeRTOS/Source/portable/GCC/ARM_CM4F/portmacro.h **** not necessary for to use this port.  They are defined so the common demo files
 110:./Libraries/FreeRTOS/Source/portable/GCC/ARM_CM4F/portmacro.h **** (which build with all the ports) will build. */
 111:./Libraries/FreeRTOS/Source/portable/GCC/ARM_CM4F/portmacro.h **** #define portTASK_FUNCTION_PROTO( vFunction, pvParameters ) void vFunction( void *pvParameters )
 112:./Libraries/FreeRTOS/Source/portable/GCC/ARM_CM4F/portmacro.h **** #define portTASK_FUNCTION( vFunction, pvParameters ) void vFunction( void *pvParameters )
 113:./Libraries/FreeRTOS/Source/portable/GCC/ARM_CM4F/portmacro.h **** /*-----------------------------------------------------------*/
 114:./Libraries/FreeRTOS/Source/portable/GCC/ARM_CM4F/portmacro.h **** 
 115:./Libraries/FreeRTOS/Source/portable/GCC/ARM_CM4F/portmacro.h **** /* Tickless idle/low power functionality. */
 116:./Libraries/FreeRTOS/Source/portable/GCC/ARM_CM4F/portmacro.h **** #ifndef portSUPPRESS_TICKS_AND_SLEEP
 117:./Libraries/FreeRTOS/Source/portable/GCC/ARM_CM4F/portmacro.h **** 	extern void vPortSuppressTicksAndSleep( TickType_t xExpectedIdleTime );
 118:./Libraries/FreeRTOS/Source/portable/GCC/ARM_CM4F/portmacro.h **** 	#define portSUPPRESS_TICKS_AND_SLEEP( xExpectedIdleTime ) vPortSuppressTicksAndSleep( xExpectedIdl
 119:./Libraries/FreeRTOS/Source/portable/GCC/ARM_CM4F/portmacro.h **** #endif
 120:./Libraries/FreeRTOS/Source/portable/GCC/ARM_CM4F/portmacro.h **** /*-----------------------------------------------------------*/
 121:./Libraries/FreeRTOS/Source/portable/GCC/ARM_CM4F/portmacro.h **** 
 122:./Libraries/FreeRTOS/Source/portable/GCC/ARM_CM4F/portmacro.h **** /* Architecture specific optimisations. */
 123:./Libraries/FreeRTOS/Source/portable/GCC/ARM_CM4F/portmacro.h **** #ifndef configUSE_PORT_OPTIMISED_TASK_SELECTION
 124:./Libraries/FreeRTOS/Source/portable/GCC/ARM_CM4F/portmacro.h **** 	#define configUSE_PORT_OPTIMISED_TASK_SELECTION 1
 125:./Libraries/FreeRTOS/Source/portable/GCC/ARM_CM4F/portmacro.h **** #endif
 126:./Libraries/FreeRTOS/Source/portable/GCC/ARM_CM4F/portmacro.h **** 
 127:./Libraries/FreeRTOS/Source/portable/GCC/ARM_CM4F/portmacro.h **** #if configUSE_PORT_OPTIMISED_TASK_SELECTION == 1
 128:./Libraries/FreeRTOS/Source/portable/GCC/ARM_CM4F/portmacro.h **** 
 129:./Libraries/FreeRTOS/Source/portable/GCC/ARM_CM4F/portmacro.h **** 	/* Generic helper function. */
 130:./Libraries/FreeRTOS/Source/portable/GCC/ARM_CM4F/portmacro.h **** 	__attribute__( ( always_inline ) ) static inline uint8_t ucPortCountLeadingZeros( uint32_t ulBitma
 131:./Libraries/FreeRTOS/Source/portable/GCC/ARM_CM4F/portmacro.h **** 	{
 132:./Libraries/FreeRTOS/Source/portable/GCC/ARM_CM4F/portmacro.h **** 	uint8_t ucReturn;
 133:./Libraries/FreeRTOS/Source/portable/GCC/ARM_CM4F/portmacro.h **** 
 134:./Libraries/FreeRTOS/Source/portable/GCC/ARM_CM4F/portmacro.h **** 		__asm volatile ( "clz %0, %1" : "=r" ( ucReturn ) : "r" ( ulBitmap ) : "memory" );
 135:./Libraries/FreeRTOS/Source/portable/GCC/ARM_CM4F/portmacro.h **** 		return ucReturn;
 136:./Libraries/FreeRTOS/Source/portable/GCC/ARM_CM4F/portmacro.h **** 	}
 137:./Libraries/FreeRTOS/Source/portable/GCC/ARM_CM4F/portmacro.h **** 
 138:./Libraries/FreeRTOS/Source/portable/GCC/ARM_CM4F/portmacro.h **** 	/* Check the configuration. */
 139:./Libraries/FreeRTOS/Source/portable/GCC/ARM_CM4F/portmacro.h **** 	#if( configMAX_PRIORITIES > 32 )
 140:./Libraries/FreeRTOS/Source/portable/GCC/ARM_CM4F/portmacro.h **** 		#error configUSE_PORT_OPTIMISED_TASK_SELECTION can only be set to 1 when configMAX_PRIORITIES is 
 141:./Libraries/FreeRTOS/Source/portable/GCC/ARM_CM4F/portmacro.h **** 	#endif
 142:./Libraries/FreeRTOS/Source/portable/GCC/ARM_CM4F/portmacro.h **** 
 143:./Libraries/FreeRTOS/Source/portable/GCC/ARM_CM4F/portmacro.h **** 	/* Store/clear the ready priorities in a bit map. */
 144:./Libraries/FreeRTOS/Source/portable/GCC/ARM_CM4F/portmacro.h **** 	#define portRECORD_READY_PRIORITY( uxPriority, uxReadyPriorities ) ( uxReadyPriorities ) |= ( 1UL 
 145:./Libraries/FreeRTOS/Source/portable/GCC/ARM_CM4F/portmacro.h **** 	#define portRESET_READY_PRIORITY( uxPriority, uxReadyPriorities ) ( uxReadyPriorities ) &= ~( 1UL 
 146:./Libraries/FreeRTOS/Source/portable/GCC/ARM_CM4F/portmacro.h **** 
 147:./Libraries/FreeRTOS/Source/portable/GCC/ARM_CM4F/portmacro.h **** 	/*-----------------------------------------------------------*/
 148:./Libraries/FreeRTOS/Source/portable/GCC/ARM_CM4F/portmacro.h **** 
 149:./Libraries/FreeRTOS/Source/portable/GCC/ARM_CM4F/portmacro.h **** 	#define portGET_HIGHEST_PRIORITY( uxTopPriority, uxReadyPriorities ) uxTopPriority = ( 31UL - ( ui
 150:./Libraries/FreeRTOS/Source/portable/GCC/ARM_CM4F/portmacro.h **** 
 151:./Libraries/FreeRTOS/Source/portable/GCC/ARM_CM4F/portmacro.h **** #endif /* configUSE_PORT_OPTIMISED_TASK_SELECTION */
 152:./Libraries/FreeRTOS/Source/portable/GCC/ARM_CM4F/portmacro.h **** 
 153:./Libraries/FreeRTOS/Source/portable/GCC/ARM_CM4F/portmacro.h **** /*-----------------------------------------------------------*/
 154:./Libraries/FreeRTOS/Source/portable/GCC/ARM_CM4F/portmacro.h **** 
 155:./Libraries/FreeRTOS/Source/portable/GCC/ARM_CM4F/portmacro.h **** #ifdef configASSERT
 156:./Libraries/FreeRTOS/Source/portable/GCC/ARM_CM4F/portmacro.h **** 	void vPortValidateInterruptPriority( void );
 157:./Libraries/FreeRTOS/Source/portable/GCC/ARM_CM4F/portmacro.h **** 	#define portASSERT_IF_INTERRUPT_PRIORITY_INVALID() 	vPortValidateInterruptPriority()
 158:./Libraries/FreeRTOS/Source/portable/GCC/ARM_CM4F/portmacro.h **** #endif
 159:./Libraries/FreeRTOS/Source/portable/GCC/ARM_CM4F/portmacro.h **** 
ARM GAS  /tmp/ccpNfLZa.s 			page 17


 160:./Libraries/FreeRTOS/Source/portable/GCC/ARM_CM4F/portmacro.h **** /* portNOP() is not required by this port. */
 161:./Libraries/FreeRTOS/Source/portable/GCC/ARM_CM4F/portmacro.h **** #define portNOP()
 162:./Libraries/FreeRTOS/Source/portable/GCC/ARM_CM4F/portmacro.h **** 
 163:./Libraries/FreeRTOS/Source/portable/GCC/ARM_CM4F/portmacro.h **** #define portINLINE	__inline
 164:./Libraries/FreeRTOS/Source/portable/GCC/ARM_CM4F/portmacro.h **** 
 165:./Libraries/FreeRTOS/Source/portable/GCC/ARM_CM4F/portmacro.h **** #ifndef portFORCE_INLINE
 166:./Libraries/FreeRTOS/Source/portable/GCC/ARM_CM4F/portmacro.h **** 	#define portFORCE_INLINE inline __attribute__(( always_inline))
 167:./Libraries/FreeRTOS/Source/portable/GCC/ARM_CM4F/portmacro.h **** #endif
 168:./Libraries/FreeRTOS/Source/portable/GCC/ARM_CM4F/portmacro.h **** 
 169:./Libraries/FreeRTOS/Source/portable/GCC/ARM_CM4F/portmacro.h **** portFORCE_INLINE static BaseType_t xPortIsInsideInterrupt( void )
 170:./Libraries/FreeRTOS/Source/portable/GCC/ARM_CM4F/portmacro.h **** {
 171:./Libraries/FreeRTOS/Source/portable/GCC/ARM_CM4F/portmacro.h **** uint32_t ulCurrentInterrupt;
 172:./Libraries/FreeRTOS/Source/portable/GCC/ARM_CM4F/portmacro.h **** BaseType_t xReturn;
 173:./Libraries/FreeRTOS/Source/portable/GCC/ARM_CM4F/portmacro.h **** 
 174:./Libraries/FreeRTOS/Source/portable/GCC/ARM_CM4F/portmacro.h **** 	/* Obtain the number of the currently executing interrupt. */
 175:./Libraries/FreeRTOS/Source/portable/GCC/ARM_CM4F/portmacro.h **** 	__asm volatile( "mrs %0, ipsr" : "=r"( ulCurrentInterrupt ) :: "memory" );
 176:./Libraries/FreeRTOS/Source/portable/GCC/ARM_CM4F/portmacro.h **** 
 177:./Libraries/FreeRTOS/Source/portable/GCC/ARM_CM4F/portmacro.h **** 	if( ulCurrentInterrupt == 0 )
 178:./Libraries/FreeRTOS/Source/portable/GCC/ARM_CM4F/portmacro.h **** 	{
 179:./Libraries/FreeRTOS/Source/portable/GCC/ARM_CM4F/portmacro.h **** 		xReturn = pdFALSE;
 180:./Libraries/FreeRTOS/Source/portable/GCC/ARM_CM4F/portmacro.h **** 	}
 181:./Libraries/FreeRTOS/Source/portable/GCC/ARM_CM4F/portmacro.h **** 	else
 182:./Libraries/FreeRTOS/Source/portable/GCC/ARM_CM4F/portmacro.h **** 	{
 183:./Libraries/FreeRTOS/Source/portable/GCC/ARM_CM4F/portmacro.h **** 		xReturn = pdTRUE;
 184:./Libraries/FreeRTOS/Source/portable/GCC/ARM_CM4F/portmacro.h **** 	}
 185:./Libraries/FreeRTOS/Source/portable/GCC/ARM_CM4F/portmacro.h **** 
 186:./Libraries/FreeRTOS/Source/portable/GCC/ARM_CM4F/portmacro.h **** 	return xReturn;
 187:./Libraries/FreeRTOS/Source/portable/GCC/ARM_CM4F/portmacro.h **** }
 188:./Libraries/FreeRTOS/Source/portable/GCC/ARM_CM4F/portmacro.h **** 
 189:./Libraries/FreeRTOS/Source/portable/GCC/ARM_CM4F/portmacro.h **** /*-----------------------------------------------------------*/
 190:./Libraries/FreeRTOS/Source/portable/GCC/ARM_CM4F/portmacro.h **** 
 191:./Libraries/FreeRTOS/Source/portable/GCC/ARM_CM4F/portmacro.h **** portFORCE_INLINE static void vPortRaiseBASEPRI( void )
 192:./Libraries/FreeRTOS/Source/portable/GCC/ARM_CM4F/portmacro.h **** {
 193:./Libraries/FreeRTOS/Source/portable/GCC/ARM_CM4F/portmacro.h **** uint32_t ulNewBASEPRI;
 194:./Libraries/FreeRTOS/Source/portable/GCC/ARM_CM4F/portmacro.h **** 
 195:./Libraries/FreeRTOS/Source/portable/GCC/ARM_CM4F/portmacro.h **** 	__asm volatile
 181              		.loc 2 195 2
 182              		.syntax unified
 183              	@ 195 "./Libraries/FreeRTOS/Source/portable/GCC/ARM_CM4F/portmacro.h" 1
 184 0014 4FF05003 			mov r3, #80												
 185 0018 83F31188 		msr basepri, r3											
 186 001c BFF36F8F 		isb														
 187 0020 BFF34F8F 		dsb														
 188              	
 189              	@ 0 "" 2
 190              		.thumb
 191              		.syntax unified
 192 0024 3B62     		str	r3, [r7, #32]
 196:./Libraries/FreeRTOS/Source/portable/GCC/ARM_CM4F/portmacro.h **** 	(
 197:./Libraries/FreeRTOS/Source/portable/GCC/ARM_CM4F/portmacro.h **** 		"	mov %0, %1												\n"	\
 198:./Libraries/FreeRTOS/Source/portable/GCC/ARM_CM4F/portmacro.h **** 		"	msr basepri, %0											\n" \
 199:./Libraries/FreeRTOS/Source/portable/GCC/ARM_CM4F/portmacro.h **** 		"	isb														\n" \
 200:./Libraries/FreeRTOS/Source/portable/GCC/ARM_CM4F/portmacro.h **** 		"	dsb														\n" \
 201:./Libraries/FreeRTOS/Source/portable/GCC/ARM_CM4F/portmacro.h **** 		:"=r" (ulNewBASEPRI) : "i" ( configMAX_SYSCALL_INTERRUPT_PRIORITY ) : "memory"
 202:./Libraries/FreeRTOS/Source/portable/GCC/ARM_CM4F/portmacro.h **** 	);
 203:./Libraries/FreeRTOS/Source/portable/GCC/ARM_CM4F/portmacro.h **** }
 193              		.loc 2 203 1
ARM GAS  /tmp/ccpNfLZa.s 			page 18


 194 0026 00BF     		nop
 195              	.L3:
 196              	.LBE120:
 197              	.LBE119:
 198              		.loc 1 592 3 discriminator 1
 199 0028 FEE7     		b	.L3
 200              	.L2:
 593:./Libraries/FreeRTOS/Source/tasks.c **** 		configASSERT( pxTaskBuffer != NULL );
 201              		.loc 1 593 3
 202 002a BB6B     		ldr	r3, [r7, #56]
 203 002c 002B     		cmp	r3, #0
 204 002e 0AD1     		bne	.L4
 205              	.LBB121:
 206              	.LBB122:
 195:./Libraries/FreeRTOS/Source/portable/GCC/ARM_CM4F/portmacro.h **** 	(
 207              		.loc 2 195 2
 208              		.syntax unified
 209              	@ 195 "./Libraries/FreeRTOS/Source/portable/GCC/ARM_CM4F/portmacro.h" 1
 210 0030 4FF05003 			mov r3, #80												
 211 0034 83F31188 		msr basepri, r3											
 212 0038 BFF36F8F 		isb														
 213 003c BFF34F8F 		dsb														
 214              	
 215              	@ 0 "" 2
 216              		.thumb
 217              		.syntax unified
 218 0040 FB61     		str	r3, [r7, #28]
 219              		.loc 2 203 1
 220 0042 00BF     		nop
 221              	.L5:
 222              	.LBE122:
 223              	.LBE121:
 224              		.loc 1 593 3 discriminator 2
 225 0044 FEE7     		b	.L5
 226              	.L4:
 227              	.LBB123:
 594:./Libraries/FreeRTOS/Source/tasks.c **** 
 595:./Libraries/FreeRTOS/Source/tasks.c **** 		#if( configASSERT_DEFINED == 1 )
 596:./Libraries/FreeRTOS/Source/tasks.c **** 		{
 597:./Libraries/FreeRTOS/Source/tasks.c **** 			/* Sanity check that the size of the structure used to declare a
 598:./Libraries/FreeRTOS/Source/tasks.c **** 			variable of type StaticTask_t equals the size of the real task
 599:./Libraries/FreeRTOS/Source/tasks.c **** 			structure. */
 600:./Libraries/FreeRTOS/Source/tasks.c **** 			volatile size_t xSize = sizeof( StaticTask_t );
 228              		.loc 1 600 20
 229 0046 5C23     		movs	r3, #92
 230 0048 3B61     		str	r3, [r7, #16]
 601:./Libraries/FreeRTOS/Source/tasks.c **** 			configASSERT( xSize == sizeof( TCB_t ) );
 231              		.loc 1 601 4
 232 004a 3B69     		ldr	r3, [r7, #16]
 233 004c 5C2B     		cmp	r3, #92
 234 004e 0AD0     		beq	.L6
 235              	.LBB124:
 236              	.LBB125:
 195:./Libraries/FreeRTOS/Source/portable/GCC/ARM_CM4F/portmacro.h **** 	(
 237              		.loc 2 195 2
 238              		.syntax unified
 239              	@ 195 "./Libraries/FreeRTOS/Source/portable/GCC/ARM_CM4F/portmacro.h" 1
ARM GAS  /tmp/ccpNfLZa.s 			page 19


 240 0050 4FF05003 			mov r3, #80												
 241 0054 83F31188 		msr basepri, r3											
 242 0058 BFF36F8F 		isb														
 243 005c BFF34F8F 		dsb														
 244              	
 245              	@ 0 "" 2
 246              		.thumb
 247              		.syntax unified
 248 0060 BB61     		str	r3, [r7, #24]
 249              		.loc 2 203 1
 250 0062 00BF     		nop
 251              	.L7:
 252              	.LBE125:
 253              	.LBE124:
 254              		.loc 1 601 4 discriminator 3
 255 0064 FEE7     		b	.L7
 256              	.L6:
 602:./Libraries/FreeRTOS/Source/tasks.c **** 			( void ) xSize; /* Prevent lint warning when configASSERT() is not used. */
 257              		.loc 1 602 4
 258 0066 3B69     		ldr	r3, [r7, #16]
 259              	.LBE123:
 603:./Libraries/FreeRTOS/Source/tasks.c **** 		}
 604:./Libraries/FreeRTOS/Source/tasks.c **** 		#endif /* configASSERT_DEFINED */
 605:./Libraries/FreeRTOS/Source/tasks.c **** 
 606:./Libraries/FreeRTOS/Source/tasks.c **** 
 607:./Libraries/FreeRTOS/Source/tasks.c **** 		if( ( pxTaskBuffer != NULL ) && ( puxStackBuffer != NULL ) )
 260              		.loc 1 607 5
 261 0068 BB6B     		ldr	r3, [r7, #56]
 262 006a 002B     		cmp	r3, #0
 263 006c 1ED0     		beq	.L8
 264              		.loc 1 607 32 discriminator 1
 265 006e 7B6B     		ldr	r3, [r7, #52]
 266 0070 002B     		cmp	r3, #0
 267 0072 1BD0     		beq	.L8
 608:./Libraries/FreeRTOS/Source/tasks.c **** 		{
 609:./Libraries/FreeRTOS/Source/tasks.c **** 			/* The memory used for the task's TCB and stack are passed into this
 610:./Libraries/FreeRTOS/Source/tasks.c **** 			function - use them. */
 611:./Libraries/FreeRTOS/Source/tasks.c **** 			pxNewTCB = ( TCB_t * ) pxTaskBuffer; /*lint !e740 !e9087 Unusual cast is ok as the structures ar
 268              		.loc 1 611 13
 269 0074 BB6B     		ldr	r3, [r7, #56]
 270 0076 7B62     		str	r3, [r7, #36]
 612:./Libraries/FreeRTOS/Source/tasks.c **** 			pxNewTCB->pxStack = ( StackType_t * ) puxStackBuffer;
 271              		.loc 1 612 22
 272 0078 7B6A     		ldr	r3, [r7, #36]
 273 007a 7A6B     		ldr	r2, [r7, #52]
 274 007c 1A63     		str	r2, [r3, #48]
 613:./Libraries/FreeRTOS/Source/tasks.c **** 
 614:./Libraries/FreeRTOS/Source/tasks.c **** 			#if( tskSTATIC_AND_DYNAMIC_ALLOCATION_POSSIBLE != 0 ) /*lint !e731 !e9029 Macro has been consoli
 615:./Libraries/FreeRTOS/Source/tasks.c **** 			{
 616:./Libraries/FreeRTOS/Source/tasks.c **** 				/* Tasks can be created statically or dynamically, so note this
 617:./Libraries/FreeRTOS/Source/tasks.c **** 				task was created statically in case the task is later deleted. */
 618:./Libraries/FreeRTOS/Source/tasks.c **** 				pxNewTCB->ucStaticallyAllocated = tskSTATICALLY_ALLOCATED_STACK_AND_TCB;
 275              		.loc 1 618 37
 276 007e 7B6A     		ldr	r3, [r7, #36]
 277 0080 0222     		movs	r2, #2
 278 0082 83F85920 		strb	r2, [r3, #89]
 619:./Libraries/FreeRTOS/Source/tasks.c **** 			}
ARM GAS  /tmp/ccpNfLZa.s 			page 20


 620:./Libraries/FreeRTOS/Source/tasks.c **** 			#endif /* tskSTATIC_AND_DYNAMIC_ALLOCATION_POSSIBLE */
 621:./Libraries/FreeRTOS/Source/tasks.c **** 
 622:./Libraries/FreeRTOS/Source/tasks.c **** 			prvInitialiseNewTask( pxTaskCode, pcName, ulStackDepth, pvParameters, uxPriority, &xReturn, pxNe
 279              		.loc 1 622 4
 280 0086 0023     		movs	r3, #0
 281 0088 0393     		str	r3, [sp, #12]
 282 008a 7B6A     		ldr	r3, [r7, #36]
 283 008c 0293     		str	r3, [sp, #8]
 284 008e 07F11403 		add	r3, r7, #20
 285 0092 0193     		str	r3, [sp, #4]
 286 0094 3B6B     		ldr	r3, [r7, #48]
 287 0096 0093     		str	r3, [sp]
 288 0098 3B68     		ldr	r3, [r7]
 289 009a 7A68     		ldr	r2, [r7, #4]
 290 009c B968     		ldr	r1, [r7, #8]
 291 009e F868     		ldr	r0, [r7, #12]
 292 00a0 FFF7FEFF 		bl	prvInitialiseNewTask
 623:./Libraries/FreeRTOS/Source/tasks.c **** 			prvAddNewTaskToReadyList( pxNewTCB );
 293              		.loc 1 623 4
 294 00a4 786A     		ldr	r0, [r7, #36]
 295 00a6 FFF7FEFF 		bl	prvAddNewTaskToReadyList
 296 00aa 01E0     		b	.L9
 297              	.L8:
 624:./Libraries/FreeRTOS/Source/tasks.c **** 		}
 625:./Libraries/FreeRTOS/Source/tasks.c **** 		else
 626:./Libraries/FreeRTOS/Source/tasks.c **** 		{
 627:./Libraries/FreeRTOS/Source/tasks.c **** 			xReturn = NULL;
 298              		.loc 1 627 12
 299 00ac 0023     		movs	r3, #0
 300 00ae 7B61     		str	r3, [r7, #20]
 301              	.L9:
 628:./Libraries/FreeRTOS/Source/tasks.c **** 		}
 629:./Libraries/FreeRTOS/Source/tasks.c **** 
 630:./Libraries/FreeRTOS/Source/tasks.c **** 		return xReturn;
 302              		.loc 1 630 10
 303 00b0 7B69     		ldr	r3, [r7, #20]
 631:./Libraries/FreeRTOS/Source/tasks.c **** 	}
 304              		.loc 1 631 2
 305 00b2 1846     		mov	r0, r3
 306 00b4 2837     		adds	r7, r7, #40
 307              	.LCFI3:
 308              		.cfi_def_cfa_offset 8
 309 00b6 BD46     		mov	sp, r7
 310              	.LCFI4:
 311              		.cfi_def_cfa_register 13
 312              		@ sp needed
 313 00b8 80BD     		pop	{r7, pc}
 314              		.cfi_endproc
 315              	.LFE4:
 317              		.section	.text.xTaskCreate,"ax",%progbits
 318              		.align	1
 319              		.global	xTaskCreate
 320              		.syntax unified
 321              		.thumb
 322              		.thumb_func
 323              		.fpu fpv5-d16
 325              	xTaskCreate:
ARM GAS  /tmp/ccpNfLZa.s 			page 21


 326              	.LFB5:
 632:./Libraries/FreeRTOS/Source/tasks.c **** 
 633:./Libraries/FreeRTOS/Source/tasks.c **** #endif /* SUPPORT_STATIC_ALLOCATION */
 634:./Libraries/FreeRTOS/Source/tasks.c **** /*-----------------------------------------------------------*/
 635:./Libraries/FreeRTOS/Source/tasks.c **** 
 636:./Libraries/FreeRTOS/Source/tasks.c **** #if( ( portUSING_MPU_WRAPPERS == 1 ) && ( configSUPPORT_STATIC_ALLOCATION == 1 ) )
 637:./Libraries/FreeRTOS/Source/tasks.c **** 
 638:./Libraries/FreeRTOS/Source/tasks.c **** 	BaseType_t xTaskCreateRestrictedStatic( const TaskParameters_t * const pxTaskDefinition, TaskHandl
 639:./Libraries/FreeRTOS/Source/tasks.c **** 	{
 640:./Libraries/FreeRTOS/Source/tasks.c **** 	TCB_t *pxNewTCB;
 641:./Libraries/FreeRTOS/Source/tasks.c **** 	BaseType_t xReturn = errCOULD_NOT_ALLOCATE_REQUIRED_MEMORY;
 642:./Libraries/FreeRTOS/Source/tasks.c **** 
 643:./Libraries/FreeRTOS/Source/tasks.c **** 		configASSERT( pxTaskDefinition->puxStackBuffer != NULL );
 644:./Libraries/FreeRTOS/Source/tasks.c **** 		configASSERT( pxTaskDefinition->pxTaskBuffer != NULL );
 645:./Libraries/FreeRTOS/Source/tasks.c **** 
 646:./Libraries/FreeRTOS/Source/tasks.c **** 		if( ( pxTaskDefinition->puxStackBuffer != NULL ) && ( pxTaskDefinition->pxTaskBuffer != NULL ) )
 647:./Libraries/FreeRTOS/Source/tasks.c **** 		{
 648:./Libraries/FreeRTOS/Source/tasks.c **** 			/* Allocate space for the TCB.  Where the memory comes from depends
 649:./Libraries/FreeRTOS/Source/tasks.c **** 			on the implementation of the port malloc function and whether or
 650:./Libraries/FreeRTOS/Source/tasks.c **** 			not static allocation is being used. */
 651:./Libraries/FreeRTOS/Source/tasks.c **** 			pxNewTCB = ( TCB_t * ) pxTaskDefinition->pxTaskBuffer;
 652:./Libraries/FreeRTOS/Source/tasks.c **** 
 653:./Libraries/FreeRTOS/Source/tasks.c **** 			/* Store the stack location in the TCB. */
 654:./Libraries/FreeRTOS/Source/tasks.c **** 			pxNewTCB->pxStack = pxTaskDefinition->puxStackBuffer;
 655:./Libraries/FreeRTOS/Source/tasks.c **** 
 656:./Libraries/FreeRTOS/Source/tasks.c **** 			#if( tskSTATIC_AND_DYNAMIC_ALLOCATION_POSSIBLE != 0 )
 657:./Libraries/FreeRTOS/Source/tasks.c **** 			{
 658:./Libraries/FreeRTOS/Source/tasks.c **** 				/* Tasks can be created statically or dynamically, so note this
 659:./Libraries/FreeRTOS/Source/tasks.c **** 				task was created statically in case the task is later deleted. */
 660:./Libraries/FreeRTOS/Source/tasks.c **** 				pxNewTCB->ucStaticallyAllocated = tskSTATICALLY_ALLOCATED_STACK_AND_TCB;
 661:./Libraries/FreeRTOS/Source/tasks.c **** 			}
 662:./Libraries/FreeRTOS/Source/tasks.c **** 			#endif /* tskSTATIC_AND_DYNAMIC_ALLOCATION_POSSIBLE */
 663:./Libraries/FreeRTOS/Source/tasks.c **** 
 664:./Libraries/FreeRTOS/Source/tasks.c **** 			prvInitialiseNewTask(	pxTaskDefinition->pvTaskCode,
 665:./Libraries/FreeRTOS/Source/tasks.c **** 									pxTaskDefinition->pcName,
 666:./Libraries/FreeRTOS/Source/tasks.c **** 									( uint32_t ) pxTaskDefinition->usStackDepth,
 667:./Libraries/FreeRTOS/Source/tasks.c **** 									pxTaskDefinition->pvParameters,
 668:./Libraries/FreeRTOS/Source/tasks.c **** 									pxTaskDefinition->uxPriority,
 669:./Libraries/FreeRTOS/Source/tasks.c **** 									pxCreatedTask, pxNewTCB,
 670:./Libraries/FreeRTOS/Source/tasks.c **** 									pxTaskDefinition->xRegions );
 671:./Libraries/FreeRTOS/Source/tasks.c **** 
 672:./Libraries/FreeRTOS/Source/tasks.c **** 			prvAddNewTaskToReadyList( pxNewTCB );
 673:./Libraries/FreeRTOS/Source/tasks.c **** 			xReturn = pdPASS;
 674:./Libraries/FreeRTOS/Source/tasks.c **** 		}
 675:./Libraries/FreeRTOS/Source/tasks.c **** 
 676:./Libraries/FreeRTOS/Source/tasks.c **** 		return xReturn;
 677:./Libraries/FreeRTOS/Source/tasks.c **** 	}
 678:./Libraries/FreeRTOS/Source/tasks.c **** 
 679:./Libraries/FreeRTOS/Source/tasks.c **** #endif /* ( portUSING_MPU_WRAPPERS == 1 ) && ( configSUPPORT_STATIC_ALLOCATION == 1 ) */
 680:./Libraries/FreeRTOS/Source/tasks.c **** /*-----------------------------------------------------------*/
 681:./Libraries/FreeRTOS/Source/tasks.c **** 
 682:./Libraries/FreeRTOS/Source/tasks.c **** #if( ( portUSING_MPU_WRAPPERS == 1 ) && ( configSUPPORT_DYNAMIC_ALLOCATION == 1 ) )
 683:./Libraries/FreeRTOS/Source/tasks.c **** 
 684:./Libraries/FreeRTOS/Source/tasks.c **** 	BaseType_t xTaskCreateRestricted( const TaskParameters_t * const pxTaskDefinition, TaskHandle_t *p
 685:./Libraries/FreeRTOS/Source/tasks.c **** 	{
 686:./Libraries/FreeRTOS/Source/tasks.c **** 	TCB_t *pxNewTCB;
 687:./Libraries/FreeRTOS/Source/tasks.c **** 	BaseType_t xReturn = errCOULD_NOT_ALLOCATE_REQUIRED_MEMORY;
ARM GAS  /tmp/ccpNfLZa.s 			page 22


 688:./Libraries/FreeRTOS/Source/tasks.c **** 
 689:./Libraries/FreeRTOS/Source/tasks.c **** 		configASSERT( pxTaskDefinition->puxStackBuffer );
 690:./Libraries/FreeRTOS/Source/tasks.c **** 
 691:./Libraries/FreeRTOS/Source/tasks.c **** 		if( pxTaskDefinition->puxStackBuffer != NULL )
 692:./Libraries/FreeRTOS/Source/tasks.c **** 		{
 693:./Libraries/FreeRTOS/Source/tasks.c **** 			/* Allocate space for the TCB.  Where the memory comes from depends
 694:./Libraries/FreeRTOS/Source/tasks.c **** 			on the implementation of the port malloc function and whether or
 695:./Libraries/FreeRTOS/Source/tasks.c **** 			not static allocation is being used. */
 696:./Libraries/FreeRTOS/Source/tasks.c **** 			pxNewTCB = ( TCB_t * ) pvPortMalloc( sizeof( TCB_t ) );
 697:./Libraries/FreeRTOS/Source/tasks.c **** 
 698:./Libraries/FreeRTOS/Source/tasks.c **** 			if( pxNewTCB != NULL )
 699:./Libraries/FreeRTOS/Source/tasks.c **** 			{
 700:./Libraries/FreeRTOS/Source/tasks.c **** 				/* Store the stack location in the TCB. */
 701:./Libraries/FreeRTOS/Source/tasks.c **** 				pxNewTCB->pxStack = pxTaskDefinition->puxStackBuffer;
 702:./Libraries/FreeRTOS/Source/tasks.c **** 
 703:./Libraries/FreeRTOS/Source/tasks.c **** 				#if( tskSTATIC_AND_DYNAMIC_ALLOCATION_POSSIBLE != 0 )
 704:./Libraries/FreeRTOS/Source/tasks.c **** 				{
 705:./Libraries/FreeRTOS/Source/tasks.c **** 					/* Tasks can be created statically or dynamically, so note
 706:./Libraries/FreeRTOS/Source/tasks.c **** 					this task had a statically allocated stack in case it is
 707:./Libraries/FreeRTOS/Source/tasks.c **** 					later deleted.  The TCB was allocated dynamically. */
 708:./Libraries/FreeRTOS/Source/tasks.c **** 					pxNewTCB->ucStaticallyAllocated = tskSTATICALLY_ALLOCATED_STACK_ONLY;
 709:./Libraries/FreeRTOS/Source/tasks.c **** 				}
 710:./Libraries/FreeRTOS/Source/tasks.c **** 				#endif /* tskSTATIC_AND_DYNAMIC_ALLOCATION_POSSIBLE */
 711:./Libraries/FreeRTOS/Source/tasks.c **** 
 712:./Libraries/FreeRTOS/Source/tasks.c **** 				prvInitialiseNewTask(	pxTaskDefinition->pvTaskCode,
 713:./Libraries/FreeRTOS/Source/tasks.c **** 										pxTaskDefinition->pcName,
 714:./Libraries/FreeRTOS/Source/tasks.c **** 										( uint32_t ) pxTaskDefinition->usStackDepth,
 715:./Libraries/FreeRTOS/Source/tasks.c **** 										pxTaskDefinition->pvParameters,
 716:./Libraries/FreeRTOS/Source/tasks.c **** 										pxTaskDefinition->uxPriority,
 717:./Libraries/FreeRTOS/Source/tasks.c **** 										pxCreatedTask, pxNewTCB,
 718:./Libraries/FreeRTOS/Source/tasks.c **** 										pxTaskDefinition->xRegions );
 719:./Libraries/FreeRTOS/Source/tasks.c **** 
 720:./Libraries/FreeRTOS/Source/tasks.c **** 				prvAddNewTaskToReadyList( pxNewTCB );
 721:./Libraries/FreeRTOS/Source/tasks.c **** 				xReturn = pdPASS;
 722:./Libraries/FreeRTOS/Source/tasks.c **** 			}
 723:./Libraries/FreeRTOS/Source/tasks.c **** 		}
 724:./Libraries/FreeRTOS/Source/tasks.c **** 
 725:./Libraries/FreeRTOS/Source/tasks.c **** 		return xReturn;
 726:./Libraries/FreeRTOS/Source/tasks.c **** 	}
 727:./Libraries/FreeRTOS/Source/tasks.c **** 
 728:./Libraries/FreeRTOS/Source/tasks.c **** #endif /* portUSING_MPU_WRAPPERS */
 729:./Libraries/FreeRTOS/Source/tasks.c **** /*-----------------------------------------------------------*/
 730:./Libraries/FreeRTOS/Source/tasks.c **** 
 731:./Libraries/FreeRTOS/Source/tasks.c **** #if( configSUPPORT_DYNAMIC_ALLOCATION == 1 )
 732:./Libraries/FreeRTOS/Source/tasks.c **** 
 733:./Libraries/FreeRTOS/Source/tasks.c **** 	BaseType_t xTaskCreate(	TaskFunction_t pxTaskCode,
 734:./Libraries/FreeRTOS/Source/tasks.c **** 							const char * const pcName,		/*lint !e971 Unqualified char types are allowed for strings and 
 735:./Libraries/FreeRTOS/Source/tasks.c **** 							const configSTACK_DEPTH_TYPE usStackDepth,
 736:./Libraries/FreeRTOS/Source/tasks.c **** 							void * const pvParameters,
 737:./Libraries/FreeRTOS/Source/tasks.c **** 							UBaseType_t uxPriority,
 738:./Libraries/FreeRTOS/Source/tasks.c **** 							TaskHandle_t * const pxCreatedTask )
 739:./Libraries/FreeRTOS/Source/tasks.c **** 	{
 327              		.loc 1 739 2
 328              		.cfi_startproc
 329              		@ args = 8, pretend = 0, frame = 32
 330              		@ frame_needed = 1, uses_anonymous_args = 0
 331 0000 80B5     		push	{r7, lr}
ARM GAS  /tmp/ccpNfLZa.s 			page 23


 332              	.LCFI5:
 333              		.cfi_def_cfa_offset 8
 334              		.cfi_offset 7, -8
 335              		.cfi_offset 14, -4
 336 0002 8CB0     		sub	sp, sp, #48
 337              	.LCFI6:
 338              		.cfi_def_cfa_offset 56
 339 0004 04AF     		add	r7, sp, #16
 340              	.LCFI7:
 341              		.cfi_def_cfa 7, 40
 342 0006 F860     		str	r0, [r7, #12]
 343 0008 B960     		str	r1, [r7, #8]
 344 000a 3B60     		str	r3, [r7]
 345 000c 1346     		mov	r3, r2	@ movhi
 346 000e FB80     		strh	r3, [r7, #6]	@ movhi
 347              	.LBB126:
 740:./Libraries/FreeRTOS/Source/tasks.c **** 	TCB_t *pxNewTCB;
 741:./Libraries/FreeRTOS/Source/tasks.c **** 	BaseType_t xReturn;
 742:./Libraries/FreeRTOS/Source/tasks.c **** 
 743:./Libraries/FreeRTOS/Source/tasks.c **** 		/* If the stack grows down then allocate the stack then the TCB so the stack
 744:./Libraries/FreeRTOS/Source/tasks.c **** 		does not grow into the TCB.  Likewise if the stack grows up then allocate
 745:./Libraries/FreeRTOS/Source/tasks.c **** 		the TCB then the stack. */
 746:./Libraries/FreeRTOS/Source/tasks.c **** 		#if( portSTACK_GROWTH > 0 )
 747:./Libraries/FreeRTOS/Source/tasks.c **** 		{
 748:./Libraries/FreeRTOS/Source/tasks.c **** 			/* Allocate space for the TCB.  Where the memory comes from depends on
 749:./Libraries/FreeRTOS/Source/tasks.c **** 			the implementation of the port malloc function and whether or not static
 750:./Libraries/FreeRTOS/Source/tasks.c **** 			allocation is being used. */
 751:./Libraries/FreeRTOS/Source/tasks.c **** 			pxNewTCB = ( TCB_t * ) pvPortMalloc( sizeof( TCB_t ) );
 752:./Libraries/FreeRTOS/Source/tasks.c **** 
 753:./Libraries/FreeRTOS/Source/tasks.c **** 			if( pxNewTCB != NULL )
 754:./Libraries/FreeRTOS/Source/tasks.c **** 			{
 755:./Libraries/FreeRTOS/Source/tasks.c **** 				/* Allocate space for the stack used by the task being created.
 756:./Libraries/FreeRTOS/Source/tasks.c **** 				The base of the stack memory stored in the TCB so the task can
 757:./Libraries/FreeRTOS/Source/tasks.c **** 				be deleted later if required. */
 758:./Libraries/FreeRTOS/Source/tasks.c **** 				pxNewTCB->pxStack = ( StackType_t * ) pvPortMalloc( ( ( ( size_t ) usStackDepth ) * sizeof( Sta
 759:./Libraries/FreeRTOS/Source/tasks.c **** 
 760:./Libraries/FreeRTOS/Source/tasks.c **** 				if( pxNewTCB->pxStack == NULL )
 761:./Libraries/FreeRTOS/Source/tasks.c **** 				{
 762:./Libraries/FreeRTOS/Source/tasks.c **** 					/* Could not allocate the stack.  Delete the allocated TCB. */
 763:./Libraries/FreeRTOS/Source/tasks.c **** 					vPortFree( pxNewTCB );
 764:./Libraries/FreeRTOS/Source/tasks.c **** 					pxNewTCB = NULL;
 765:./Libraries/FreeRTOS/Source/tasks.c **** 				}
 766:./Libraries/FreeRTOS/Source/tasks.c **** 			}
 767:./Libraries/FreeRTOS/Source/tasks.c **** 		}
 768:./Libraries/FreeRTOS/Source/tasks.c **** 		#else /* portSTACK_GROWTH */
 769:./Libraries/FreeRTOS/Source/tasks.c **** 		{
 770:./Libraries/FreeRTOS/Source/tasks.c **** 		StackType_t *pxStack;
 771:./Libraries/FreeRTOS/Source/tasks.c **** 
 772:./Libraries/FreeRTOS/Source/tasks.c **** 			/* Allocate space for the stack used by the task being created. */
 773:./Libraries/FreeRTOS/Source/tasks.c **** 			pxStack = pvPortMalloc( ( ( ( size_t ) usStackDepth ) * sizeof( StackType_t ) ) ); /*lint !e9079
 348              		.loc 1 773 32
 349 0010 FB88     		ldrh	r3, [r7, #6]
 350              		.loc 1 773 14
 351 0012 9B00     		lsls	r3, r3, #2
 352 0014 1846     		mov	r0, r3
 353 0016 FFF7FEFF 		bl	pvPortMalloc
 354 001a 7861     		str	r0, [r7, #20]
ARM GAS  /tmp/ccpNfLZa.s 			page 24


 774:./Libraries/FreeRTOS/Source/tasks.c **** 
 775:./Libraries/FreeRTOS/Source/tasks.c **** 			if( pxStack != NULL )
 355              		.loc 1 775 6
 356 001c 7B69     		ldr	r3, [r7, #20]
 357 001e 002B     		cmp	r3, #0
 358 0020 0ED0     		beq	.L12
 776:./Libraries/FreeRTOS/Source/tasks.c **** 			{
 777:./Libraries/FreeRTOS/Source/tasks.c **** 				/* Allocate space for the TCB. */
 778:./Libraries/FreeRTOS/Source/tasks.c **** 				pxNewTCB = ( TCB_t * ) pvPortMalloc( sizeof( TCB_t ) ); /*lint !e9087 !e9079 All values returne
 359              		.loc 1 778 28
 360 0022 5C20     		movs	r0, #92
 361 0024 FFF7FEFF 		bl	pvPortMalloc
 362 0028 F861     		str	r0, [r7, #28]
 779:./Libraries/FreeRTOS/Source/tasks.c **** 
 780:./Libraries/FreeRTOS/Source/tasks.c **** 				if( pxNewTCB != NULL )
 363              		.loc 1 780 7
 364 002a FB69     		ldr	r3, [r7, #28]
 365 002c 002B     		cmp	r3, #0
 366 002e 03D0     		beq	.L13
 781:./Libraries/FreeRTOS/Source/tasks.c **** 				{
 782:./Libraries/FreeRTOS/Source/tasks.c **** 					/* Store the stack location in the TCB. */
 783:./Libraries/FreeRTOS/Source/tasks.c **** 					pxNewTCB->pxStack = pxStack;
 367              		.loc 1 783 24
 368 0030 FB69     		ldr	r3, [r7, #28]
 369 0032 7A69     		ldr	r2, [r7, #20]
 370 0034 1A63     		str	r2, [r3, #48]
 371 0036 05E0     		b	.L14
 372              	.L13:
 784:./Libraries/FreeRTOS/Source/tasks.c **** 				}
 785:./Libraries/FreeRTOS/Source/tasks.c **** 				else
 786:./Libraries/FreeRTOS/Source/tasks.c **** 				{
 787:./Libraries/FreeRTOS/Source/tasks.c **** 					/* The stack cannot be used as the TCB was not created.  Free
 788:./Libraries/FreeRTOS/Source/tasks.c **** 					it again. */
 789:./Libraries/FreeRTOS/Source/tasks.c **** 					vPortFree( pxStack );
 373              		.loc 1 789 6
 374 0038 7869     		ldr	r0, [r7, #20]
 375 003a FFF7FEFF 		bl	vPortFree
 376 003e 01E0     		b	.L14
 377              	.L12:
 790:./Libraries/FreeRTOS/Source/tasks.c **** 				}
 791:./Libraries/FreeRTOS/Source/tasks.c **** 			}
 792:./Libraries/FreeRTOS/Source/tasks.c **** 			else
 793:./Libraries/FreeRTOS/Source/tasks.c **** 			{
 794:./Libraries/FreeRTOS/Source/tasks.c **** 				pxNewTCB = NULL;
 378              		.loc 1 794 14
 379 0040 0023     		movs	r3, #0
 380 0042 FB61     		str	r3, [r7, #28]
 381              	.L14:
 382              	.LBE126:
 795:./Libraries/FreeRTOS/Source/tasks.c **** 			}
 796:./Libraries/FreeRTOS/Source/tasks.c **** 		}
 797:./Libraries/FreeRTOS/Source/tasks.c **** 		#endif /* portSTACK_GROWTH */
 798:./Libraries/FreeRTOS/Source/tasks.c **** 
 799:./Libraries/FreeRTOS/Source/tasks.c **** 		if( pxNewTCB != NULL )
 383              		.loc 1 799 5
 384 0044 FB69     		ldr	r3, [r7, #28]
 385 0046 002B     		cmp	r3, #0
ARM GAS  /tmp/ccpNfLZa.s 			page 25


 386 0048 17D0     		beq	.L15
 800:./Libraries/FreeRTOS/Source/tasks.c **** 		{
 801:./Libraries/FreeRTOS/Source/tasks.c **** 			#if( tskSTATIC_AND_DYNAMIC_ALLOCATION_POSSIBLE != 0 ) /*lint !e9029 !e731 Macro has been consoli
 802:./Libraries/FreeRTOS/Source/tasks.c **** 			{
 803:./Libraries/FreeRTOS/Source/tasks.c **** 				/* Tasks can be created statically or dynamically, so note this
 804:./Libraries/FreeRTOS/Source/tasks.c **** 				task was created dynamically in case it is later deleted. */
 805:./Libraries/FreeRTOS/Source/tasks.c **** 				pxNewTCB->ucStaticallyAllocated = tskDYNAMICALLY_ALLOCATED_STACK_AND_TCB;
 387              		.loc 1 805 37
 388 004a FB69     		ldr	r3, [r7, #28]
 389 004c 0022     		movs	r2, #0
 390 004e 83F85920 		strb	r2, [r3, #89]
 806:./Libraries/FreeRTOS/Source/tasks.c **** 			}
 807:./Libraries/FreeRTOS/Source/tasks.c **** 			#endif /* tskSTATIC_AND_DYNAMIC_ALLOCATION_POSSIBLE */
 808:./Libraries/FreeRTOS/Source/tasks.c **** 
 809:./Libraries/FreeRTOS/Source/tasks.c **** 			prvInitialiseNewTask( pxTaskCode, pcName, ( uint32_t ) usStackDepth, pvParameters, uxPriority, p
 391              		.loc 1 809 4
 392 0052 FA88     		ldrh	r2, [r7, #6]
 393 0054 0023     		movs	r3, #0
 394 0056 0393     		str	r3, [sp, #12]
 395 0058 FB69     		ldr	r3, [r7, #28]
 396 005a 0293     		str	r3, [sp, #8]
 397 005c FB6A     		ldr	r3, [r7, #44]
 398 005e 0193     		str	r3, [sp, #4]
 399 0060 BB6A     		ldr	r3, [r7, #40]
 400 0062 0093     		str	r3, [sp]
 401 0064 3B68     		ldr	r3, [r7]
 402 0066 B968     		ldr	r1, [r7, #8]
 403 0068 F868     		ldr	r0, [r7, #12]
 404 006a FFF7FEFF 		bl	prvInitialiseNewTask
 810:./Libraries/FreeRTOS/Source/tasks.c **** 			prvAddNewTaskToReadyList( pxNewTCB );
 405              		.loc 1 810 4
 406 006e F869     		ldr	r0, [r7, #28]
 407 0070 FFF7FEFF 		bl	prvAddNewTaskToReadyList
 811:./Libraries/FreeRTOS/Source/tasks.c **** 			xReturn = pdPASS;
 408              		.loc 1 811 12
 409 0074 0123     		movs	r3, #1
 410 0076 BB61     		str	r3, [r7, #24]
 411 0078 02E0     		b	.L16
 412              	.L15:
 812:./Libraries/FreeRTOS/Source/tasks.c **** 		}
 813:./Libraries/FreeRTOS/Source/tasks.c **** 		else
 814:./Libraries/FreeRTOS/Source/tasks.c **** 		{
 815:./Libraries/FreeRTOS/Source/tasks.c **** 			xReturn = errCOULD_NOT_ALLOCATE_REQUIRED_MEMORY;
 413              		.loc 1 815 12
 414 007a 4FF0FF33 		mov	r3, #-1
 415 007e BB61     		str	r3, [r7, #24]
 416              	.L16:
 816:./Libraries/FreeRTOS/Source/tasks.c **** 		}
 817:./Libraries/FreeRTOS/Source/tasks.c **** 
 818:./Libraries/FreeRTOS/Source/tasks.c **** 		return xReturn;
 417              		.loc 1 818 10
 418 0080 BB69     		ldr	r3, [r7, #24]
 819:./Libraries/FreeRTOS/Source/tasks.c **** 	}
 419              		.loc 1 819 2
 420 0082 1846     		mov	r0, r3
 421 0084 2037     		adds	r7, r7, #32
 422              	.LCFI8:
ARM GAS  /tmp/ccpNfLZa.s 			page 26


 423              		.cfi_def_cfa_offset 8
 424 0086 BD46     		mov	sp, r7
 425              	.LCFI9:
 426              		.cfi_def_cfa_register 13
 427              		@ sp needed
 428 0088 80BD     		pop	{r7, pc}
 429              		.cfi_endproc
 430              	.LFE5:
 432              		.section	.text.prvInitialiseNewTask,"ax",%progbits
 433              		.align	1
 434              		.syntax unified
 435              		.thumb
 436              		.thumb_func
 437              		.fpu fpv5-d16
 439              	prvInitialiseNewTask:
 440              	.LFB6:
 820:./Libraries/FreeRTOS/Source/tasks.c **** 
 821:./Libraries/FreeRTOS/Source/tasks.c **** #endif /* configSUPPORT_DYNAMIC_ALLOCATION */
 822:./Libraries/FreeRTOS/Source/tasks.c **** /*-----------------------------------------------------------*/
 823:./Libraries/FreeRTOS/Source/tasks.c **** 
 824:./Libraries/FreeRTOS/Source/tasks.c **** static void prvInitialiseNewTask( 	TaskFunction_t pxTaskCode,
 825:./Libraries/FreeRTOS/Source/tasks.c **** 									const char * const pcName,		/*lint !e971 Unqualified char types are allowed for strings an
 826:./Libraries/FreeRTOS/Source/tasks.c **** 									const uint32_t ulStackDepth,
 827:./Libraries/FreeRTOS/Source/tasks.c **** 									void * const pvParameters,
 828:./Libraries/FreeRTOS/Source/tasks.c **** 									UBaseType_t uxPriority,
 829:./Libraries/FreeRTOS/Source/tasks.c **** 									TaskHandle_t * const pxCreatedTask,
 830:./Libraries/FreeRTOS/Source/tasks.c **** 									TCB_t *pxNewTCB,
 831:./Libraries/FreeRTOS/Source/tasks.c **** 									const MemoryRegion_t * const xRegions )
 832:./Libraries/FreeRTOS/Source/tasks.c **** {
 441              		.loc 1 832 1
 442              		.cfi_startproc
 443              		@ args = 16, pretend = 0, frame = 32
 444              		@ frame_needed = 1, uses_anonymous_args = 0
 445 0000 80B5     		push	{r7, lr}
 446              	.LCFI10:
 447              		.cfi_def_cfa_offset 8
 448              		.cfi_offset 7, -8
 449              		.cfi_offset 14, -4
 450 0002 88B0     		sub	sp, sp, #32
 451              	.LCFI11:
 452              		.cfi_def_cfa_offset 40
 453 0004 00AF     		add	r7, sp, #0
 454              	.LCFI12:
 455              		.cfi_def_cfa_register 7
 456 0006 F860     		str	r0, [r7, #12]
 457 0008 B960     		str	r1, [r7, #8]
 458 000a 7A60     		str	r2, [r7, #4]
 459 000c 3B60     		str	r3, [r7]
 833:./Libraries/FreeRTOS/Source/tasks.c **** StackType_t *pxTopOfStack;
 834:./Libraries/FreeRTOS/Source/tasks.c **** UBaseType_t x;
 835:./Libraries/FreeRTOS/Source/tasks.c **** 
 836:./Libraries/FreeRTOS/Source/tasks.c **** 	#if( portUSING_MPU_WRAPPERS == 1 )
 837:./Libraries/FreeRTOS/Source/tasks.c **** 		/* Should the task be created in privileged mode? */
 838:./Libraries/FreeRTOS/Source/tasks.c **** 		BaseType_t xRunPrivileged;
 839:./Libraries/FreeRTOS/Source/tasks.c **** 		if( ( uxPriority & portPRIVILEGE_BIT ) != 0U )
 840:./Libraries/FreeRTOS/Source/tasks.c **** 		{
 841:./Libraries/FreeRTOS/Source/tasks.c **** 			xRunPrivileged = pdTRUE;
ARM GAS  /tmp/ccpNfLZa.s 			page 27


 842:./Libraries/FreeRTOS/Source/tasks.c **** 		}
 843:./Libraries/FreeRTOS/Source/tasks.c **** 		else
 844:./Libraries/FreeRTOS/Source/tasks.c **** 		{
 845:./Libraries/FreeRTOS/Source/tasks.c **** 			xRunPrivileged = pdFALSE;
 846:./Libraries/FreeRTOS/Source/tasks.c **** 		}
 847:./Libraries/FreeRTOS/Source/tasks.c **** 		uxPriority &= ~portPRIVILEGE_BIT;
 848:./Libraries/FreeRTOS/Source/tasks.c **** 	#endif /* portUSING_MPU_WRAPPERS == 1 */
 849:./Libraries/FreeRTOS/Source/tasks.c **** 
 850:./Libraries/FreeRTOS/Source/tasks.c **** 	/* Avoid dependency on memset() if it is not required. */
 851:./Libraries/FreeRTOS/Source/tasks.c **** 	#if( tskSET_NEW_STACKS_TO_KNOWN_VALUE == 1 )
 852:./Libraries/FreeRTOS/Source/tasks.c **** 	{
 853:./Libraries/FreeRTOS/Source/tasks.c **** 		/* Fill the stack with a known value to assist debugging. */
 854:./Libraries/FreeRTOS/Source/tasks.c **** 		( void ) memset( pxNewTCB->pxStack, ( int ) tskSTACK_FILL_BYTE, ( size_t ) ulStackDepth * sizeof(
 460              		.loc 1 854 28
 461 000e 3B6B     		ldr	r3, [r7, #48]
 462 0010 186B     		ldr	r0, [r3, #48]
 463              		.loc 1 854 12
 464 0012 7B68     		ldr	r3, [r7, #4]
 465 0014 9B00     		lsls	r3, r3, #2
 466 0016 1A46     		mov	r2, r3
 467 0018 A521     		movs	r1, #165
 468 001a FFF7FEFF 		bl	memset
 855:./Libraries/FreeRTOS/Source/tasks.c **** 	}
 856:./Libraries/FreeRTOS/Source/tasks.c **** 	#endif /* tskSET_NEW_STACKS_TO_KNOWN_VALUE */
 857:./Libraries/FreeRTOS/Source/tasks.c **** 
 858:./Libraries/FreeRTOS/Source/tasks.c **** 	/* Calculate the top of stack address.  This depends on whether the stack
 859:./Libraries/FreeRTOS/Source/tasks.c **** 	grows from high memory to low (as per the 80x86) or vice versa.
 860:./Libraries/FreeRTOS/Source/tasks.c **** 	portSTACK_GROWTH is used to make the result positive or negative as required
 861:./Libraries/FreeRTOS/Source/tasks.c **** 	by the port. */
 862:./Libraries/FreeRTOS/Source/tasks.c **** 	#if( portSTACK_GROWTH < 0 )
 863:./Libraries/FreeRTOS/Source/tasks.c **** 	{
 864:./Libraries/FreeRTOS/Source/tasks.c **** 		pxTopOfStack = &( pxNewTCB->pxStack[ ulStackDepth - ( uint32_t ) 1 ] );
 469              		.loc 1 864 29
 470 001e 3B6B     		ldr	r3, [r7, #48]
 471 0020 1A6B     		ldr	r2, [r3, #48]
 472              		.loc 1 864 38
 473 0022 7968     		ldr	r1, [r7, #4]
 474 0024 6FF04043 		mvn	r3, #-1073741824
 475 0028 0B44     		add	r3, r3, r1
 476 002a 9B00     		lsls	r3, r3, #2
 477              		.loc 1 864 16
 478 002c 1344     		add	r3, r3, r2
 479 002e BB61     		str	r3, [r7, #24]
 865:./Libraries/FreeRTOS/Source/tasks.c **** 		pxTopOfStack = ( StackType_t * ) ( ( ( portPOINTER_SIZE_TYPE ) pxTopOfStack ) & ( ~( ( portPOINTE
 480              		.loc 1 865 40
 481 0030 BB69     		ldr	r3, [r7, #24]
 482              		.loc 1 865 81
 483 0032 23F00703 		bic	r3, r3, #7
 484              		.loc 1 865 16
 485 0036 BB61     		str	r3, [r7, #24]
 866:./Libraries/FreeRTOS/Source/tasks.c **** 
 867:./Libraries/FreeRTOS/Source/tasks.c **** 		/* Check the alignment of the calculated top of stack is correct. */
 868:./Libraries/FreeRTOS/Source/tasks.c **** 		configASSERT( ( ( ( portPOINTER_SIZE_TYPE ) pxTopOfStack & ( portPOINTER_SIZE_TYPE ) portBYTE_ALI
 486              		.loc 1 868 3
 487 0038 BB69     		ldr	r3, [r7, #24]
 488 003a 03F00703 		and	r3, r3, #7
 489 003e 002B     		cmp	r3, #0
ARM GAS  /tmp/ccpNfLZa.s 			page 28


 490 0040 0AD0     		beq	.L19
 491              	.LBB127:
 492              	.LBB128:
 195:./Libraries/FreeRTOS/Source/portable/GCC/ARM_CM4F/portmacro.h **** 	(
 493              		.loc 2 195 2
 494              		.syntax unified
 495              	@ 195 "./Libraries/FreeRTOS/Source/portable/GCC/ARM_CM4F/portmacro.h" 1
 496 0042 4FF05003 			mov r3, #80												
 497 0046 83F31188 		msr basepri, r3											
 498 004a BFF36F8F 		isb														
 499 004e BFF34F8F 		dsb														
 500              	
 501              	@ 0 "" 2
 502              		.thumb
 503              		.syntax unified
 504 0052 7B61     		str	r3, [r7, #20]
 505              		.loc 2 203 1
 506 0054 00BF     		nop
 507              	.L20:
 508              	.LBE128:
 509              	.LBE127:
 510              		.loc 1 868 3 discriminator 1
 511 0056 FEE7     		b	.L20
 512              	.L19:
 869:./Libraries/FreeRTOS/Source/tasks.c **** 
 870:./Libraries/FreeRTOS/Source/tasks.c **** 		#if( configRECORD_STACK_HIGH_ADDRESS == 1 )
 871:./Libraries/FreeRTOS/Source/tasks.c **** 		{
 872:./Libraries/FreeRTOS/Source/tasks.c **** 			/* Also record the stack's high address, which may assist
 873:./Libraries/FreeRTOS/Source/tasks.c **** 			debugging. */
 874:./Libraries/FreeRTOS/Source/tasks.c **** 			pxNewTCB->pxEndOfStack = pxTopOfStack;
 875:./Libraries/FreeRTOS/Source/tasks.c **** 		}
 876:./Libraries/FreeRTOS/Source/tasks.c **** 		#endif /* configRECORD_STACK_HIGH_ADDRESS */
 877:./Libraries/FreeRTOS/Source/tasks.c **** 	}
 878:./Libraries/FreeRTOS/Source/tasks.c **** 	#else /* portSTACK_GROWTH */
 879:./Libraries/FreeRTOS/Source/tasks.c **** 	{
 880:./Libraries/FreeRTOS/Source/tasks.c **** 		pxTopOfStack = pxNewTCB->pxStack;
 881:./Libraries/FreeRTOS/Source/tasks.c **** 
 882:./Libraries/FreeRTOS/Source/tasks.c **** 		/* Check the alignment of the stack buffer is correct. */
 883:./Libraries/FreeRTOS/Source/tasks.c **** 		configASSERT( ( ( ( portPOINTER_SIZE_TYPE ) pxNewTCB->pxStack & ( portPOINTER_SIZE_TYPE ) portBYT
 884:./Libraries/FreeRTOS/Source/tasks.c **** 
 885:./Libraries/FreeRTOS/Source/tasks.c **** 		/* The other extreme of the stack space is required if stack checking is
 886:./Libraries/FreeRTOS/Source/tasks.c **** 		performed. */
 887:./Libraries/FreeRTOS/Source/tasks.c **** 		pxNewTCB->pxEndOfStack = pxNewTCB->pxStack + ( ulStackDepth - ( uint32_t ) 1 );
 888:./Libraries/FreeRTOS/Source/tasks.c **** 	}
 889:./Libraries/FreeRTOS/Source/tasks.c **** 	#endif /* portSTACK_GROWTH */
 890:./Libraries/FreeRTOS/Source/tasks.c **** 
 891:./Libraries/FreeRTOS/Source/tasks.c **** 	/* Store the task name in the TCB. */
 892:./Libraries/FreeRTOS/Source/tasks.c **** 	if( pcName != NULL )
 513              		.loc 1 892 4
 514 0058 BB68     		ldr	r3, [r7, #8]
 515 005a 002B     		cmp	r3, #0
 516 005c 1FD0     		beq	.L21
 893:./Libraries/FreeRTOS/Source/tasks.c **** 	{
 894:./Libraries/FreeRTOS/Source/tasks.c **** 		for( x = ( UBaseType_t ) 0; x < ( UBaseType_t ) configMAX_TASK_NAME_LEN; x++ )
 517              		.loc 1 894 10
 518 005e 0023     		movs	r3, #0
 519 0060 FB61     		str	r3, [r7, #28]
ARM GAS  /tmp/ccpNfLZa.s 			page 29


 520              		.loc 1 894 3
 521 0062 12E0     		b	.L22
 522              	.L25:
 895:./Libraries/FreeRTOS/Source/tasks.c **** 		{
 896:./Libraries/FreeRTOS/Source/tasks.c **** 			pxNewTCB->pcTaskName[ x ] = pcName[ x ];
 523              		.loc 1 896 38
 524 0064 BA68     		ldr	r2, [r7, #8]
 525 0066 FB69     		ldr	r3, [r7, #28]
 526 0068 1344     		add	r3, r3, r2
 527 006a 1978     		ldrb	r1, [r3]	@ zero_extendqisi2
 528              		.loc 1 896 30
 529 006c 3A6B     		ldr	r2, [r7, #48]
 530 006e FB69     		ldr	r3, [r7, #28]
 531 0070 1344     		add	r3, r3, r2
 532 0072 3433     		adds	r3, r3, #52
 533 0074 0A46     		mov	r2, r1
 534 0076 1A70     		strb	r2, [r3]
 897:./Libraries/FreeRTOS/Source/tasks.c **** 
 898:./Libraries/FreeRTOS/Source/tasks.c **** 			/* Don't copy all configMAX_TASK_NAME_LEN if the string is shorter than
 899:./Libraries/FreeRTOS/Source/tasks.c **** 			configMAX_TASK_NAME_LEN characters just in case the memory after the
 900:./Libraries/FreeRTOS/Source/tasks.c **** 			string is not accessible (extremely unlikely). */
 901:./Libraries/FreeRTOS/Source/tasks.c **** 			if( pcName[ x ] == ( char ) 0x00 )
 535              		.loc 1 901 14
 536 0078 BA68     		ldr	r2, [r7, #8]
 537 007a FB69     		ldr	r3, [r7, #28]
 538 007c 1344     		add	r3, r3, r2
 539 007e 1B78     		ldrb	r3, [r3]	@ zero_extendqisi2
 540              		.loc 1 901 6
 541 0080 002B     		cmp	r3, #0
 542 0082 06D0     		beq	.L29
 894:./Libraries/FreeRTOS/Source/tasks.c **** 		{
 543              		.loc 1 894 77 discriminator 2
 544 0084 FB69     		ldr	r3, [r7, #28]
 545 0086 0133     		adds	r3, r3, #1
 546 0088 FB61     		str	r3, [r7, #28]
 547              	.L22:
 894:./Libraries/FreeRTOS/Source/tasks.c **** 		{
 548              		.loc 1 894 3 discriminator 1
 549 008a FB69     		ldr	r3, [r7, #28]
 550 008c 0F2B     		cmp	r3, #15
 551 008e E9D9     		bls	.L25
 552 0090 00E0     		b	.L24
 553              	.L29:
 902:./Libraries/FreeRTOS/Source/tasks.c **** 			{
 903:./Libraries/FreeRTOS/Source/tasks.c **** 				break;
 554              		.loc 1 903 5
 555 0092 00BF     		nop
 556              	.L24:
 904:./Libraries/FreeRTOS/Source/tasks.c **** 			}
 905:./Libraries/FreeRTOS/Source/tasks.c **** 			else
 906:./Libraries/FreeRTOS/Source/tasks.c **** 			{
 907:./Libraries/FreeRTOS/Source/tasks.c **** 				mtCOVERAGE_TEST_MARKER();
 908:./Libraries/FreeRTOS/Source/tasks.c **** 			}
 909:./Libraries/FreeRTOS/Source/tasks.c **** 		}
 910:./Libraries/FreeRTOS/Source/tasks.c **** 
 911:./Libraries/FreeRTOS/Source/tasks.c **** 		/* Ensure the name string is terminated in the case that the string length
 912:./Libraries/FreeRTOS/Source/tasks.c **** 		was greater or equal to configMAX_TASK_NAME_LEN. */
ARM GAS  /tmp/ccpNfLZa.s 			page 30


 913:./Libraries/FreeRTOS/Source/tasks.c **** 		pxNewTCB->pcTaskName[ configMAX_TASK_NAME_LEN - 1 ] = '\0';
 557              		.loc 1 913 55
 558 0094 3B6B     		ldr	r3, [r7, #48]
 559 0096 0022     		movs	r2, #0
 560 0098 83F84320 		strb	r2, [r3, #67]
 561 009c 03E0     		b	.L26
 562              	.L21:
 914:./Libraries/FreeRTOS/Source/tasks.c **** 	}
 915:./Libraries/FreeRTOS/Source/tasks.c **** 	else
 916:./Libraries/FreeRTOS/Source/tasks.c **** 	{
 917:./Libraries/FreeRTOS/Source/tasks.c **** 		/* The task has not been given a name, so just ensure there is a NULL
 918:./Libraries/FreeRTOS/Source/tasks.c **** 		terminator when it is read out. */
 919:./Libraries/FreeRTOS/Source/tasks.c **** 		pxNewTCB->pcTaskName[ 0 ] = 0x00;
 563              		.loc 1 919 29
 564 009e 3B6B     		ldr	r3, [r7, #48]
 565 00a0 0022     		movs	r2, #0
 566 00a2 83F83420 		strb	r2, [r3, #52]
 567              	.L26:
 920:./Libraries/FreeRTOS/Source/tasks.c **** 	}
 921:./Libraries/FreeRTOS/Source/tasks.c **** 
 922:./Libraries/FreeRTOS/Source/tasks.c **** 	/* This is used as an array index so must ensure it's not too large.  First
 923:./Libraries/FreeRTOS/Source/tasks.c **** 	remove the privilege bit if one is present. */
 924:./Libraries/FreeRTOS/Source/tasks.c **** 	if( uxPriority >= ( UBaseType_t ) configMAX_PRIORITIES )
 568              		.loc 1 924 4
 569 00a6 BB6A     		ldr	r3, [r7, #40]
 570 00a8 372B     		cmp	r3, #55
 571 00aa 01D9     		bls	.L27
 925:./Libraries/FreeRTOS/Source/tasks.c **** 	{
 926:./Libraries/FreeRTOS/Source/tasks.c **** 		uxPriority = ( UBaseType_t ) configMAX_PRIORITIES - ( UBaseType_t ) 1U;
 572              		.loc 1 926 14
 573 00ac 3723     		movs	r3, #55
 574 00ae BB62     		str	r3, [r7, #40]
 575              	.L27:
 927:./Libraries/FreeRTOS/Source/tasks.c **** 	}
 928:./Libraries/FreeRTOS/Source/tasks.c **** 	else
 929:./Libraries/FreeRTOS/Source/tasks.c **** 	{
 930:./Libraries/FreeRTOS/Source/tasks.c **** 		mtCOVERAGE_TEST_MARKER();
 931:./Libraries/FreeRTOS/Source/tasks.c **** 	}
 932:./Libraries/FreeRTOS/Source/tasks.c **** 
 933:./Libraries/FreeRTOS/Source/tasks.c **** 	pxNewTCB->uxPriority = uxPriority;
 576              		.loc 1 933 23
 577 00b0 3B6B     		ldr	r3, [r7, #48]
 578 00b2 BA6A     		ldr	r2, [r7, #40]
 579 00b4 DA62     		str	r2, [r3, #44]
 934:./Libraries/FreeRTOS/Source/tasks.c **** 	#if ( configUSE_MUTEXES == 1 )
 935:./Libraries/FreeRTOS/Source/tasks.c **** 	{
 936:./Libraries/FreeRTOS/Source/tasks.c **** 		pxNewTCB->uxBasePriority = uxPriority;
 580              		.loc 1 936 28
 581 00b6 3B6B     		ldr	r3, [r7, #48]
 582 00b8 BA6A     		ldr	r2, [r7, #40]
 583 00ba DA64     		str	r2, [r3, #76]
 937:./Libraries/FreeRTOS/Source/tasks.c **** 		pxNewTCB->uxMutexesHeld = 0;
 584              		.loc 1 937 27
 585 00bc 3B6B     		ldr	r3, [r7, #48]
 586 00be 0022     		movs	r2, #0
 587 00c0 1A65     		str	r2, [r3, #80]
 938:./Libraries/FreeRTOS/Source/tasks.c **** 	}
ARM GAS  /tmp/ccpNfLZa.s 			page 31


 939:./Libraries/FreeRTOS/Source/tasks.c **** 	#endif /* configUSE_MUTEXES */
 940:./Libraries/FreeRTOS/Source/tasks.c **** 
 941:./Libraries/FreeRTOS/Source/tasks.c **** 	vListInitialiseItem( &( pxNewTCB->xStateListItem ) );
 588              		.loc 1 941 2
 589 00c2 3B6B     		ldr	r3, [r7, #48]
 590 00c4 0433     		adds	r3, r3, #4
 591 00c6 1846     		mov	r0, r3
 592 00c8 FFF7FEFF 		bl	vListInitialiseItem
 942:./Libraries/FreeRTOS/Source/tasks.c **** 	vListInitialiseItem( &( pxNewTCB->xEventListItem ) );
 593              		.loc 1 942 2
 594 00cc 3B6B     		ldr	r3, [r7, #48]
 595 00ce 1833     		adds	r3, r3, #24
 596 00d0 1846     		mov	r0, r3
 597 00d2 FFF7FEFF 		bl	vListInitialiseItem
 943:./Libraries/FreeRTOS/Source/tasks.c **** 
 944:./Libraries/FreeRTOS/Source/tasks.c **** 	/* Set the pxNewTCB as a link back from the ListItem_t.  This is so we can get
 945:./Libraries/FreeRTOS/Source/tasks.c **** 	back to	the containing TCB from a generic item in a list. */
 946:./Libraries/FreeRTOS/Source/tasks.c **** 	listSET_LIST_ITEM_OWNER( &( pxNewTCB->xStateListItem ), pxNewTCB );
 598              		.loc 1 946 2
 599 00d6 3B6B     		ldr	r3, [r7, #48]
 600 00d8 3A6B     		ldr	r2, [r7, #48]
 601 00da 1A61     		str	r2, [r3, #16]
 947:./Libraries/FreeRTOS/Source/tasks.c **** 
 948:./Libraries/FreeRTOS/Source/tasks.c **** 	/* Event lists are always in priority order. */
 949:./Libraries/FreeRTOS/Source/tasks.c **** 	listSET_LIST_ITEM_VALUE( &( pxNewTCB->xEventListItem ), ( TickType_t ) configMAX_PRIORITIES - ( Ti
 602              		.loc 1 949 2
 603 00dc BB6A     		ldr	r3, [r7, #40]
 604 00de C3F13802 		rsb	r2, r3, #56
 605 00e2 3B6B     		ldr	r3, [r7, #48]
 606 00e4 9A61     		str	r2, [r3, #24]
 950:./Libraries/FreeRTOS/Source/tasks.c **** 	listSET_LIST_ITEM_OWNER( &( pxNewTCB->xEventListItem ), pxNewTCB );
 607              		.loc 1 950 2
 608 00e6 3B6B     		ldr	r3, [r7, #48]
 609 00e8 3A6B     		ldr	r2, [r7, #48]
 610 00ea 5A62     		str	r2, [r3, #36]
 951:./Libraries/FreeRTOS/Source/tasks.c **** 
 952:./Libraries/FreeRTOS/Source/tasks.c **** 	#if ( portCRITICAL_NESTING_IN_TCB == 1 )
 953:./Libraries/FreeRTOS/Source/tasks.c **** 	{
 954:./Libraries/FreeRTOS/Source/tasks.c **** 		pxNewTCB->uxCriticalNesting = ( UBaseType_t ) 0U;
 955:./Libraries/FreeRTOS/Source/tasks.c **** 	}
 956:./Libraries/FreeRTOS/Source/tasks.c **** 	#endif /* portCRITICAL_NESTING_IN_TCB */
 957:./Libraries/FreeRTOS/Source/tasks.c **** 
 958:./Libraries/FreeRTOS/Source/tasks.c **** 	#if ( configUSE_APPLICATION_TASK_TAG == 1 )
 959:./Libraries/FreeRTOS/Source/tasks.c **** 	{
 960:./Libraries/FreeRTOS/Source/tasks.c **** 		pxNewTCB->pxTaskTag = NULL;
 961:./Libraries/FreeRTOS/Source/tasks.c **** 	}
 962:./Libraries/FreeRTOS/Source/tasks.c **** 	#endif /* configUSE_APPLICATION_TASK_TAG */
 963:./Libraries/FreeRTOS/Source/tasks.c **** 
 964:./Libraries/FreeRTOS/Source/tasks.c **** 	#if ( configGENERATE_RUN_TIME_STATS == 1 )
 965:./Libraries/FreeRTOS/Source/tasks.c **** 	{
 966:./Libraries/FreeRTOS/Source/tasks.c **** 		pxNewTCB->ulRunTimeCounter = 0UL;
 967:./Libraries/FreeRTOS/Source/tasks.c **** 	}
 968:./Libraries/FreeRTOS/Source/tasks.c **** 	#endif /* configGENERATE_RUN_TIME_STATS */
 969:./Libraries/FreeRTOS/Source/tasks.c **** 
 970:./Libraries/FreeRTOS/Source/tasks.c **** 	#if ( portUSING_MPU_WRAPPERS == 1 )
 971:./Libraries/FreeRTOS/Source/tasks.c **** 	{
 972:./Libraries/FreeRTOS/Source/tasks.c **** 		vPortStoreTaskMPUSettings( &( pxNewTCB->xMPUSettings ), xRegions, pxNewTCB->pxStack, ulStackDepth
ARM GAS  /tmp/ccpNfLZa.s 			page 32


 973:./Libraries/FreeRTOS/Source/tasks.c **** 	}
 974:./Libraries/FreeRTOS/Source/tasks.c **** 	#else
 975:./Libraries/FreeRTOS/Source/tasks.c **** 	{
 976:./Libraries/FreeRTOS/Source/tasks.c **** 		/* Avoid compiler warning about unreferenced parameter. */
 977:./Libraries/FreeRTOS/Source/tasks.c **** 		( void ) xRegions;
 978:./Libraries/FreeRTOS/Source/tasks.c **** 	}
 979:./Libraries/FreeRTOS/Source/tasks.c **** 	#endif
 980:./Libraries/FreeRTOS/Source/tasks.c **** 
 981:./Libraries/FreeRTOS/Source/tasks.c **** 	#if( configNUM_THREAD_LOCAL_STORAGE_POINTERS != 0 )
 982:./Libraries/FreeRTOS/Source/tasks.c **** 	{
 983:./Libraries/FreeRTOS/Source/tasks.c **** 		for( x = 0; x < ( UBaseType_t ) configNUM_THREAD_LOCAL_STORAGE_POINTERS; x++ )
 984:./Libraries/FreeRTOS/Source/tasks.c **** 		{
 985:./Libraries/FreeRTOS/Source/tasks.c **** 			pxNewTCB->pvThreadLocalStoragePointers[ x ] = NULL;
 986:./Libraries/FreeRTOS/Source/tasks.c **** 		}
 987:./Libraries/FreeRTOS/Source/tasks.c **** 	}
 988:./Libraries/FreeRTOS/Source/tasks.c **** 	#endif
 989:./Libraries/FreeRTOS/Source/tasks.c **** 
 990:./Libraries/FreeRTOS/Source/tasks.c **** 	#if ( configUSE_TASK_NOTIFICATIONS == 1 )
 991:./Libraries/FreeRTOS/Source/tasks.c **** 	{
 992:./Libraries/FreeRTOS/Source/tasks.c **** 		pxNewTCB->ulNotifiedValue = 0;
 611              		.loc 1 992 29
 612 00ec 3B6B     		ldr	r3, [r7, #48]
 613 00ee 0022     		movs	r2, #0
 614 00f0 5A65     		str	r2, [r3, #84]
 993:./Libraries/FreeRTOS/Source/tasks.c **** 		pxNewTCB->ucNotifyState = taskNOT_WAITING_NOTIFICATION;
 615              		.loc 1 993 27
 616 00f2 3B6B     		ldr	r3, [r7, #48]
 617 00f4 0022     		movs	r2, #0
 618 00f6 83F85820 		strb	r2, [r3, #88]
 994:./Libraries/FreeRTOS/Source/tasks.c **** 	}
 995:./Libraries/FreeRTOS/Source/tasks.c **** 	#endif
 996:./Libraries/FreeRTOS/Source/tasks.c **** 
 997:./Libraries/FreeRTOS/Source/tasks.c **** 	#if ( configUSE_NEWLIB_REENTRANT == 1 )
 998:./Libraries/FreeRTOS/Source/tasks.c **** 	{
 999:./Libraries/FreeRTOS/Source/tasks.c **** 		/* Initialise this task's Newlib reent structure.
1000:./Libraries/FreeRTOS/Source/tasks.c **** 		See the third party link http://www.nadler.com/embedded/newlibAndFreeRTOS.html
1001:./Libraries/FreeRTOS/Source/tasks.c **** 		for additional information. */
1002:./Libraries/FreeRTOS/Source/tasks.c **** 		_REENT_INIT_PTR( ( &( pxNewTCB->xNewLib_reent ) ) );
1003:./Libraries/FreeRTOS/Source/tasks.c **** 	}
1004:./Libraries/FreeRTOS/Source/tasks.c **** 	#endif
1005:./Libraries/FreeRTOS/Source/tasks.c **** 
1006:./Libraries/FreeRTOS/Source/tasks.c **** 	#if( INCLUDE_xTaskAbortDelay == 1 )
1007:./Libraries/FreeRTOS/Source/tasks.c **** 	{
1008:./Libraries/FreeRTOS/Source/tasks.c **** 		pxNewTCB->ucDelayAborted = pdFALSE;
1009:./Libraries/FreeRTOS/Source/tasks.c **** 	}
1010:./Libraries/FreeRTOS/Source/tasks.c **** 	#endif
1011:./Libraries/FreeRTOS/Source/tasks.c **** 
1012:./Libraries/FreeRTOS/Source/tasks.c **** 	/* Initialize the TCB stack to look as if the task was already running,
1013:./Libraries/FreeRTOS/Source/tasks.c **** 	but had been interrupted by the scheduler.  The return address is set
1014:./Libraries/FreeRTOS/Source/tasks.c **** 	to the start of the task function. Once the stack has been initialised
1015:./Libraries/FreeRTOS/Source/tasks.c **** 	the top of stack variable is updated. */
1016:./Libraries/FreeRTOS/Source/tasks.c **** 	#if( portUSING_MPU_WRAPPERS == 1 )
1017:./Libraries/FreeRTOS/Source/tasks.c **** 	{
1018:./Libraries/FreeRTOS/Source/tasks.c **** 		/* If the port has capability to detect stack overflow,
1019:./Libraries/FreeRTOS/Source/tasks.c **** 		pass the stack end address to the stack initialization
1020:./Libraries/FreeRTOS/Source/tasks.c **** 		function as well. */
1021:./Libraries/FreeRTOS/Source/tasks.c **** 		#if( portHAS_STACK_OVERFLOW_CHECKING == 1 )
ARM GAS  /tmp/ccpNfLZa.s 			page 33


1022:./Libraries/FreeRTOS/Source/tasks.c **** 		{
1023:./Libraries/FreeRTOS/Source/tasks.c **** 			#if( portSTACK_GROWTH < 0 )
1024:./Libraries/FreeRTOS/Source/tasks.c **** 			{
1025:./Libraries/FreeRTOS/Source/tasks.c **** 				pxNewTCB->pxTopOfStack = pxPortInitialiseStack( pxTopOfStack, pxNewTCB->pxStack, pxTaskCode, pv
1026:./Libraries/FreeRTOS/Source/tasks.c **** 			}
1027:./Libraries/FreeRTOS/Source/tasks.c **** 			#else /* portSTACK_GROWTH */
1028:./Libraries/FreeRTOS/Source/tasks.c **** 			{
1029:./Libraries/FreeRTOS/Source/tasks.c **** 				pxNewTCB->pxTopOfStack = pxPortInitialiseStack( pxTopOfStack, pxNewTCB->pxEndOfStack, pxTaskCod
1030:./Libraries/FreeRTOS/Source/tasks.c **** 			}
1031:./Libraries/FreeRTOS/Source/tasks.c **** 			#endif /* portSTACK_GROWTH */
1032:./Libraries/FreeRTOS/Source/tasks.c **** 		}
1033:./Libraries/FreeRTOS/Source/tasks.c **** 		#else /* portHAS_STACK_OVERFLOW_CHECKING */
1034:./Libraries/FreeRTOS/Source/tasks.c **** 		{
1035:./Libraries/FreeRTOS/Source/tasks.c **** 			pxNewTCB->pxTopOfStack = pxPortInitialiseStack( pxTopOfStack, pxTaskCode, pvParameters, xRunPriv
1036:./Libraries/FreeRTOS/Source/tasks.c **** 		}
1037:./Libraries/FreeRTOS/Source/tasks.c **** 		#endif /* portHAS_STACK_OVERFLOW_CHECKING */
1038:./Libraries/FreeRTOS/Source/tasks.c **** 	}
1039:./Libraries/FreeRTOS/Source/tasks.c **** 	#else /* portUSING_MPU_WRAPPERS */
1040:./Libraries/FreeRTOS/Source/tasks.c **** 	{
1041:./Libraries/FreeRTOS/Source/tasks.c **** 		/* If the port has capability to detect stack overflow,
1042:./Libraries/FreeRTOS/Source/tasks.c **** 		pass the stack end address to the stack initialization
1043:./Libraries/FreeRTOS/Source/tasks.c **** 		function as well. */
1044:./Libraries/FreeRTOS/Source/tasks.c **** 		#if( portHAS_STACK_OVERFLOW_CHECKING == 1 )
1045:./Libraries/FreeRTOS/Source/tasks.c **** 		{
1046:./Libraries/FreeRTOS/Source/tasks.c **** 			#if( portSTACK_GROWTH < 0 )
1047:./Libraries/FreeRTOS/Source/tasks.c **** 			{
1048:./Libraries/FreeRTOS/Source/tasks.c **** 				pxNewTCB->pxTopOfStack = pxPortInitialiseStack( pxTopOfStack, pxNewTCB->pxStack, pxTaskCode, pv
1049:./Libraries/FreeRTOS/Source/tasks.c **** 			}
1050:./Libraries/FreeRTOS/Source/tasks.c **** 			#else /* portSTACK_GROWTH */
1051:./Libraries/FreeRTOS/Source/tasks.c **** 			{
1052:./Libraries/FreeRTOS/Source/tasks.c **** 				pxNewTCB->pxTopOfStack = pxPortInitialiseStack( pxTopOfStack, pxNewTCB->pxEndOfStack, pxTaskCod
1053:./Libraries/FreeRTOS/Source/tasks.c **** 			}
1054:./Libraries/FreeRTOS/Source/tasks.c **** 			#endif /* portSTACK_GROWTH */
1055:./Libraries/FreeRTOS/Source/tasks.c **** 		}
1056:./Libraries/FreeRTOS/Source/tasks.c **** 		#else /* portHAS_STACK_OVERFLOW_CHECKING */
1057:./Libraries/FreeRTOS/Source/tasks.c **** 		{
1058:./Libraries/FreeRTOS/Source/tasks.c **** 			pxNewTCB->pxTopOfStack = pxPortInitialiseStack( pxTopOfStack, pxTaskCode, pvParameters );
 619              		.loc 1 1058 29
 620 00fa 3A68     		ldr	r2, [r7]
 621 00fc F968     		ldr	r1, [r7, #12]
 622 00fe B869     		ldr	r0, [r7, #24]
 623 0100 FFF7FEFF 		bl	pxPortInitialiseStack
 624 0104 0246     		mov	r2, r0
 625              		.loc 1 1058 27
 626 0106 3B6B     		ldr	r3, [r7, #48]
 627 0108 1A60     		str	r2, [r3]
1059:./Libraries/FreeRTOS/Source/tasks.c **** 		}
1060:./Libraries/FreeRTOS/Source/tasks.c **** 		#endif /* portHAS_STACK_OVERFLOW_CHECKING */
1061:./Libraries/FreeRTOS/Source/tasks.c **** 	}
1062:./Libraries/FreeRTOS/Source/tasks.c **** 	#endif /* portUSING_MPU_WRAPPERS */
1063:./Libraries/FreeRTOS/Source/tasks.c **** 
1064:./Libraries/FreeRTOS/Source/tasks.c **** 	if( pxCreatedTask != NULL )
 628              		.loc 1 1064 4
 629 010a FB6A     		ldr	r3, [r7, #44]
 630 010c 002B     		cmp	r3, #0
 631 010e 02D0     		beq	.L30
1065:./Libraries/FreeRTOS/Source/tasks.c **** 	{
ARM GAS  /tmp/ccpNfLZa.s 			page 34


1066:./Libraries/FreeRTOS/Source/tasks.c **** 		/* Pass the handle out in an anonymous way.  The handle can be used to
1067:./Libraries/FreeRTOS/Source/tasks.c **** 		change the created task's priority, delete the created task, etc.*/
1068:./Libraries/FreeRTOS/Source/tasks.c **** 		*pxCreatedTask = ( TaskHandle_t ) pxNewTCB;
 632              		.loc 1 1068 18
 633 0110 FB6A     		ldr	r3, [r7, #44]
 634 0112 3A6B     		ldr	r2, [r7, #48]
 635 0114 1A60     		str	r2, [r3]
 636              	.L30:
1069:./Libraries/FreeRTOS/Source/tasks.c **** 	}
1070:./Libraries/FreeRTOS/Source/tasks.c **** 	else
1071:./Libraries/FreeRTOS/Source/tasks.c **** 	{
1072:./Libraries/FreeRTOS/Source/tasks.c **** 		mtCOVERAGE_TEST_MARKER();
1073:./Libraries/FreeRTOS/Source/tasks.c **** 	}
1074:./Libraries/FreeRTOS/Source/tasks.c **** }
 637              		.loc 1 1074 1
 638 0116 00BF     		nop
 639 0118 2037     		adds	r7, r7, #32
 640              	.LCFI13:
 641              		.cfi_def_cfa_offset 8
 642 011a BD46     		mov	sp, r7
 643              	.LCFI14:
 644              		.cfi_def_cfa_register 13
 645              		@ sp needed
 646 011c 80BD     		pop	{r7, pc}
 647              		.cfi_endproc
 648              	.LFE6:
 650              		.section	.text.prvAddNewTaskToReadyList,"ax",%progbits
 651              		.align	1
 652              		.syntax unified
 653              		.thumb
 654              		.thumb_func
 655              		.fpu fpv5-d16
 657              	prvAddNewTaskToReadyList:
 658              	.LFB7:
1075:./Libraries/FreeRTOS/Source/tasks.c **** /*-----------------------------------------------------------*/
1076:./Libraries/FreeRTOS/Source/tasks.c **** 
1077:./Libraries/FreeRTOS/Source/tasks.c **** static void prvAddNewTaskToReadyList( TCB_t *pxNewTCB )
1078:./Libraries/FreeRTOS/Source/tasks.c **** {
 659              		.loc 1 1078 1
 660              		.cfi_startproc
 661              		@ args = 0, pretend = 0, frame = 8
 662              		@ frame_needed = 1, uses_anonymous_args = 0
 663 0000 80B5     		push	{r7, lr}
 664              	.LCFI15:
 665              		.cfi_def_cfa_offset 8
 666              		.cfi_offset 7, -8
 667              		.cfi_offset 14, -4
 668 0002 82B0     		sub	sp, sp, #8
 669              	.LCFI16:
 670              		.cfi_def_cfa_offset 16
 671 0004 00AF     		add	r7, sp, #0
 672              	.LCFI17:
 673              		.cfi_def_cfa_register 7
 674 0006 7860     		str	r0, [r7, #4]
1079:./Libraries/FreeRTOS/Source/tasks.c **** 	/* Ensure interrupts don't access the task lists while the lists are being
1080:./Libraries/FreeRTOS/Source/tasks.c **** 	updated. */
1081:./Libraries/FreeRTOS/Source/tasks.c **** 	taskENTER_CRITICAL();
ARM GAS  /tmp/ccpNfLZa.s 			page 35


 675              		.loc 1 1081 2
 676 0008 FFF7FEFF 		bl	vPortEnterCritical
1082:./Libraries/FreeRTOS/Source/tasks.c **** 	{
1083:./Libraries/FreeRTOS/Source/tasks.c **** 		uxCurrentNumberOfTasks++;
 677              		.loc 1 1083 25
 678 000c 2D4B     		ldr	r3, .L37
 679 000e 1B68     		ldr	r3, [r3]
 680 0010 0133     		adds	r3, r3, #1
 681 0012 2C4A     		ldr	r2, .L37
 682 0014 1360     		str	r3, [r2]
1084:./Libraries/FreeRTOS/Source/tasks.c **** 		if( pxCurrentTCB == NULL )
 683              		.loc 1 1084 20
 684 0016 2C4B     		ldr	r3, .L37+4
 685 0018 1B68     		ldr	r3, [r3]
 686              		.loc 1 1084 5
 687 001a 002B     		cmp	r3, #0
 688 001c 09D1     		bne	.L32
1085:./Libraries/FreeRTOS/Source/tasks.c **** 		{
1086:./Libraries/FreeRTOS/Source/tasks.c **** 			/* There are no other tasks, or all the other tasks are in
1087:./Libraries/FreeRTOS/Source/tasks.c **** 			the suspended state - make this the current task. */
1088:./Libraries/FreeRTOS/Source/tasks.c **** 			pxCurrentTCB = pxNewTCB;
 689              		.loc 1 1088 17
 690 001e 2A4A     		ldr	r2, .L37+4
 691 0020 7B68     		ldr	r3, [r7, #4]
 692 0022 1360     		str	r3, [r2]
1089:./Libraries/FreeRTOS/Source/tasks.c **** 
1090:./Libraries/FreeRTOS/Source/tasks.c **** 			if( uxCurrentNumberOfTasks == ( UBaseType_t ) 1 )
 693              		.loc 1 1090 31
 694 0024 274B     		ldr	r3, .L37
 695 0026 1B68     		ldr	r3, [r3]
 696              		.loc 1 1090 6
 697 0028 012B     		cmp	r3, #1
 698 002a 10D1     		bne	.L33
1091:./Libraries/FreeRTOS/Source/tasks.c **** 			{
1092:./Libraries/FreeRTOS/Source/tasks.c **** 				/* This is the first task to be created so do the preliminary
1093:./Libraries/FreeRTOS/Source/tasks.c **** 				initialisation required.  We will not recover if this call
1094:./Libraries/FreeRTOS/Source/tasks.c **** 				fails, but we will report the failure. */
1095:./Libraries/FreeRTOS/Source/tasks.c **** 				prvInitialiseTaskLists();
 699              		.loc 1 1095 5
 700 002c FFF7FEFF 		bl	prvInitialiseTaskLists
 701 0030 0DE0     		b	.L33
 702              	.L32:
1096:./Libraries/FreeRTOS/Source/tasks.c **** 			}
1097:./Libraries/FreeRTOS/Source/tasks.c **** 			else
1098:./Libraries/FreeRTOS/Source/tasks.c **** 			{
1099:./Libraries/FreeRTOS/Source/tasks.c **** 				mtCOVERAGE_TEST_MARKER();
1100:./Libraries/FreeRTOS/Source/tasks.c **** 			}
1101:./Libraries/FreeRTOS/Source/tasks.c **** 		}
1102:./Libraries/FreeRTOS/Source/tasks.c **** 		else
1103:./Libraries/FreeRTOS/Source/tasks.c **** 		{
1104:./Libraries/FreeRTOS/Source/tasks.c **** 			/* If the scheduler is not already running, make this task the
1105:./Libraries/FreeRTOS/Source/tasks.c **** 			current task if it is the highest priority task to be created
1106:./Libraries/FreeRTOS/Source/tasks.c **** 			so far. */
1107:./Libraries/FreeRTOS/Source/tasks.c **** 			if( xSchedulerRunning == pdFALSE )
 703              		.loc 1 1107 26
 704 0032 264B     		ldr	r3, .L37+8
 705 0034 1B68     		ldr	r3, [r3]
ARM GAS  /tmp/ccpNfLZa.s 			page 36


 706              		.loc 1 1107 6
 707 0036 002B     		cmp	r3, #0
 708 0038 09D1     		bne	.L33
1108:./Libraries/FreeRTOS/Source/tasks.c **** 			{
1109:./Libraries/FreeRTOS/Source/tasks.c **** 				if( pxCurrentTCB->uxPriority <= pxNewTCB->uxPriority )
 709              		.loc 1 1109 21
 710 003a 234B     		ldr	r3, .L37+4
 711 003c 1B68     		ldr	r3, [r3]
 712 003e DA6A     		ldr	r2, [r3, #44]
 713              		.loc 1 1109 45
 714 0040 7B68     		ldr	r3, [r7, #4]
 715 0042 DB6A     		ldr	r3, [r3, #44]
 716              		.loc 1 1109 7
 717 0044 9A42     		cmp	r2, r3
 718 0046 02D8     		bhi	.L33
1110:./Libraries/FreeRTOS/Source/tasks.c **** 				{
1111:./Libraries/FreeRTOS/Source/tasks.c **** 					pxCurrentTCB = pxNewTCB;
 719              		.loc 1 1111 19
 720 0048 1F4A     		ldr	r2, .L37+4
 721 004a 7B68     		ldr	r3, [r7, #4]
 722 004c 1360     		str	r3, [r2]
 723              	.L33:
1112:./Libraries/FreeRTOS/Source/tasks.c **** 				}
1113:./Libraries/FreeRTOS/Source/tasks.c **** 				else
1114:./Libraries/FreeRTOS/Source/tasks.c **** 				{
1115:./Libraries/FreeRTOS/Source/tasks.c **** 					mtCOVERAGE_TEST_MARKER();
1116:./Libraries/FreeRTOS/Source/tasks.c **** 				}
1117:./Libraries/FreeRTOS/Source/tasks.c **** 			}
1118:./Libraries/FreeRTOS/Source/tasks.c **** 			else
1119:./Libraries/FreeRTOS/Source/tasks.c **** 			{
1120:./Libraries/FreeRTOS/Source/tasks.c **** 				mtCOVERAGE_TEST_MARKER();
1121:./Libraries/FreeRTOS/Source/tasks.c **** 			}
1122:./Libraries/FreeRTOS/Source/tasks.c **** 		}
1123:./Libraries/FreeRTOS/Source/tasks.c **** 
1124:./Libraries/FreeRTOS/Source/tasks.c **** 		uxTaskNumber++;
 724              		.loc 1 1124 15
 725 004e 204B     		ldr	r3, .L37+12
 726 0050 1B68     		ldr	r3, [r3]
 727 0052 0133     		adds	r3, r3, #1
 728 0054 1E4A     		ldr	r2, .L37+12
 729 0056 1360     		str	r3, [r2]
1125:./Libraries/FreeRTOS/Source/tasks.c **** 
1126:./Libraries/FreeRTOS/Source/tasks.c **** 		#if ( configUSE_TRACE_FACILITY == 1 )
1127:./Libraries/FreeRTOS/Source/tasks.c **** 		{
1128:./Libraries/FreeRTOS/Source/tasks.c **** 			/* Add a counter into the TCB for tracing only. */
1129:./Libraries/FreeRTOS/Source/tasks.c **** 			pxNewTCB->uxTCBNumber = uxTaskNumber;
 730              		.loc 1 1129 26
 731 0058 1D4B     		ldr	r3, .L37+12
 732 005a 1A68     		ldr	r2, [r3]
 733 005c 7B68     		ldr	r3, [r7, #4]
 734 005e 5A64     		str	r2, [r3, #68]
1130:./Libraries/FreeRTOS/Source/tasks.c **** 		}
1131:./Libraries/FreeRTOS/Source/tasks.c **** 		#endif /* configUSE_TRACE_FACILITY */
1132:./Libraries/FreeRTOS/Source/tasks.c **** 		traceTASK_CREATE( pxNewTCB );
1133:./Libraries/FreeRTOS/Source/tasks.c **** 
1134:./Libraries/FreeRTOS/Source/tasks.c **** 		prvAddTaskToReadyList( pxNewTCB );
 735              		.loc 1 1134 3
ARM GAS  /tmp/ccpNfLZa.s 			page 37


 736 0060 7B68     		ldr	r3, [r7, #4]
 737 0062 DA6A     		ldr	r2, [r3, #44]
 738 0064 1B4B     		ldr	r3, .L37+16
 739 0066 1B68     		ldr	r3, [r3]
 740 0068 9A42     		cmp	r2, r3
 741 006a 03D9     		bls	.L34
 742              		.loc 1 1134 3 is_stmt 0 discriminator 1
 743 006c 7B68     		ldr	r3, [r7, #4]
 744 006e DB6A     		ldr	r3, [r3, #44]
 745 0070 184A     		ldr	r2, .L37+16
 746 0072 1360     		str	r3, [r2]
 747              	.L34:
 748              		.loc 1 1134 3 discriminator 3
 749 0074 7B68     		ldr	r3, [r7, #4]
 750 0076 DA6A     		ldr	r2, [r3, #44]
 751 0078 1346     		mov	r3, r2
 752 007a 9B00     		lsls	r3, r3, #2
 753 007c 1344     		add	r3, r3, r2
 754 007e 9B00     		lsls	r3, r3, #2
 755 0080 154A     		ldr	r2, .L37+20
 756 0082 1A44     		add	r2, r2, r3
 757 0084 7B68     		ldr	r3, [r7, #4]
 758 0086 0433     		adds	r3, r3, #4
 759 0088 1946     		mov	r1, r3
 760 008a 1046     		mov	r0, r2
 761 008c FFF7FEFF 		bl	vListInsertEnd
1135:./Libraries/FreeRTOS/Source/tasks.c **** 
1136:./Libraries/FreeRTOS/Source/tasks.c **** 		portSETUP_TCB( pxNewTCB );
1137:./Libraries/FreeRTOS/Source/tasks.c **** 	}
1138:./Libraries/FreeRTOS/Source/tasks.c **** 	taskEXIT_CRITICAL();
 762              		.loc 1 1138 2 is_stmt 1 discriminator 3
 763 0090 FFF7FEFF 		bl	vPortExitCritical
1139:./Libraries/FreeRTOS/Source/tasks.c **** 
1140:./Libraries/FreeRTOS/Source/tasks.c **** 	if( xSchedulerRunning != pdFALSE )
 764              		.loc 1 1140 24 discriminator 3
 765 0094 0D4B     		ldr	r3, .L37+8
 766 0096 1B68     		ldr	r3, [r3]
 767              		.loc 1 1140 4 discriminator 3
 768 0098 002B     		cmp	r3, #0
 769 009a 0ED0     		beq	.L36
1141:./Libraries/FreeRTOS/Source/tasks.c **** 	{
1142:./Libraries/FreeRTOS/Source/tasks.c **** 		/* If the created task is of a higher priority than the current task
1143:./Libraries/FreeRTOS/Source/tasks.c **** 		then it should run now. */
1144:./Libraries/FreeRTOS/Source/tasks.c **** 		if( pxCurrentTCB->uxPriority < pxNewTCB->uxPriority )
 770              		.loc 1 1144 19
 771 009c 0A4B     		ldr	r3, .L37+4
 772 009e 1B68     		ldr	r3, [r3]
 773 00a0 DA6A     		ldr	r2, [r3, #44]
 774              		.loc 1 1144 42
 775 00a2 7B68     		ldr	r3, [r7, #4]
 776 00a4 DB6A     		ldr	r3, [r3, #44]
 777              		.loc 1 1144 5
 778 00a6 9A42     		cmp	r2, r3
 779 00a8 07D2     		bcs	.L36
1145:./Libraries/FreeRTOS/Source/tasks.c **** 		{
1146:./Libraries/FreeRTOS/Source/tasks.c **** 			taskYIELD_IF_USING_PREEMPTION();
 780              		.loc 1 1146 4
ARM GAS  /tmp/ccpNfLZa.s 			page 38


 781 00aa 0C4B     		ldr	r3, .L37+24
 782 00ac 4FF08052 		mov	r2, #268435456
 783 00b0 1A60     		str	r2, [r3]
 784              		.syntax unified
 785              	@ 1146 "./Libraries/FreeRTOS/Source/tasks.c" 1
 786 00b2 BFF34F8F 		dsb
 787              	@ 0 "" 2
 788              	@ 1146 "./Libraries/FreeRTOS/Source/tasks.c" 1
 789 00b6 BFF36F8F 		isb
 790              	@ 0 "" 2
 791              		.thumb
 792              		.syntax unified
 793              	.L36:
1147:./Libraries/FreeRTOS/Source/tasks.c **** 		}
1148:./Libraries/FreeRTOS/Source/tasks.c **** 		else
1149:./Libraries/FreeRTOS/Source/tasks.c **** 		{
1150:./Libraries/FreeRTOS/Source/tasks.c **** 			mtCOVERAGE_TEST_MARKER();
1151:./Libraries/FreeRTOS/Source/tasks.c **** 		}
1152:./Libraries/FreeRTOS/Source/tasks.c **** 	}
1153:./Libraries/FreeRTOS/Source/tasks.c **** 	else
1154:./Libraries/FreeRTOS/Source/tasks.c **** 	{
1155:./Libraries/FreeRTOS/Source/tasks.c **** 		mtCOVERAGE_TEST_MARKER();
1156:./Libraries/FreeRTOS/Source/tasks.c **** 	}
1157:./Libraries/FreeRTOS/Source/tasks.c **** }
 794              		.loc 1 1157 1
 795 00ba 00BF     		nop
 796 00bc 0837     		adds	r7, r7, #8
 797              	.LCFI18:
 798              		.cfi_def_cfa_offset 8
 799 00be BD46     		mov	sp, r7
 800              	.LCFI19:
 801              		.cfi_def_cfa_register 13
 802              		@ sp needed
 803 00c0 80BD     		pop	{r7, pc}
 804              	.L38:
 805 00c2 00BF     		.align	2
 806              	.L37:
 807 00c4 00000000 		.word	uxCurrentNumberOfTasks
 808 00c8 00000000 		.word	pxCurrentTCB
 809 00cc 00000000 		.word	xSchedulerRunning
 810 00d0 00000000 		.word	uxTaskNumber
 811 00d4 00000000 		.word	uxTopReadyPriority
 812 00d8 00000000 		.word	pxReadyTasksLists
 813 00dc 04ED00E0 		.word	-536810236
 814              		.cfi_endproc
 815              	.LFE7:
 817              		.section	.text.vTaskDelete,"ax",%progbits
 818              		.align	1
 819              		.global	vTaskDelete
 820              		.syntax unified
 821              		.thumb
 822              		.thumb_func
 823              		.fpu fpv5-d16
 825              	vTaskDelete:
 826              	.LFB8:
1158:./Libraries/FreeRTOS/Source/tasks.c **** /*-----------------------------------------------------------*/
1159:./Libraries/FreeRTOS/Source/tasks.c **** 
ARM GAS  /tmp/ccpNfLZa.s 			page 39


1160:./Libraries/FreeRTOS/Source/tasks.c **** #if ( INCLUDE_vTaskDelete == 1 )
1161:./Libraries/FreeRTOS/Source/tasks.c **** 
1162:./Libraries/FreeRTOS/Source/tasks.c **** 	void vTaskDelete( TaskHandle_t xTaskToDelete )
1163:./Libraries/FreeRTOS/Source/tasks.c **** 	{
 827              		.loc 1 1163 2
 828              		.cfi_startproc
 829              		@ args = 0, pretend = 0, frame = 16
 830              		@ frame_needed = 1, uses_anonymous_args = 0
 831 0000 80B5     		push	{r7, lr}
 832              	.LCFI20:
 833              		.cfi_def_cfa_offset 8
 834              		.cfi_offset 7, -8
 835              		.cfi_offset 14, -4
 836 0002 84B0     		sub	sp, sp, #16
 837              	.LCFI21:
 838              		.cfi_def_cfa_offset 24
 839 0004 00AF     		add	r7, sp, #0
 840              	.LCFI22:
 841              		.cfi_def_cfa_register 7
 842 0006 7860     		str	r0, [r7, #4]
1164:./Libraries/FreeRTOS/Source/tasks.c **** 	TCB_t *pxTCB;
1165:./Libraries/FreeRTOS/Source/tasks.c **** 
1166:./Libraries/FreeRTOS/Source/tasks.c **** 		taskENTER_CRITICAL();
 843              		.loc 1 1166 3
 844 0008 FFF7FEFF 		bl	vPortEnterCritical
1167:./Libraries/FreeRTOS/Source/tasks.c **** 		{
1168:./Libraries/FreeRTOS/Source/tasks.c **** 			/* If null is passed in here then it is the calling task that is
1169:./Libraries/FreeRTOS/Source/tasks.c **** 			being deleted. */
1170:./Libraries/FreeRTOS/Source/tasks.c **** 			pxTCB = prvGetTCBFromHandle( xTaskToDelete );
 845              		.loc 1 1170 12
 846 000c 7B68     		ldr	r3, [r7, #4]
 847 000e 002B     		cmp	r3, #0
 848 0010 02D1     		bne	.L40
 849              		.loc 1 1170 12 is_stmt 0 discriminator 1
 850 0012 2C4B     		ldr	r3, .L49
 851 0014 1B68     		ldr	r3, [r3]
 852 0016 00E0     		b	.L41
 853              	.L40:
 854              		.loc 1 1170 12 discriminator 2
 855 0018 7B68     		ldr	r3, [r7, #4]
 856              	.L41:
 857              		.loc 1 1170 10 is_stmt 1 discriminator 4
 858 001a FB60     		str	r3, [r7, #12]
1171:./Libraries/FreeRTOS/Source/tasks.c **** 
1172:./Libraries/FreeRTOS/Source/tasks.c **** 			/* Remove task from the ready/delayed list. */
1173:./Libraries/FreeRTOS/Source/tasks.c **** 			if( uxListRemove( &( pxTCB->xStateListItem ) ) == ( UBaseType_t ) 0 )
 859              		.loc 1 1173 8 discriminator 4
 860 001c FB68     		ldr	r3, [r7, #12]
 861 001e 0433     		adds	r3, r3, #4
 862 0020 1846     		mov	r0, r3
 863 0022 FFF7FEFF 		bl	uxListRemove
1174:./Libraries/FreeRTOS/Source/tasks.c **** 			{
1175:./Libraries/FreeRTOS/Source/tasks.c **** 				taskRESET_READY_PRIORITY( pxTCB->uxPriority );
1176:./Libraries/FreeRTOS/Source/tasks.c **** 			}
1177:./Libraries/FreeRTOS/Source/tasks.c **** 			else
1178:./Libraries/FreeRTOS/Source/tasks.c **** 			{
1179:./Libraries/FreeRTOS/Source/tasks.c **** 				mtCOVERAGE_TEST_MARKER();
ARM GAS  /tmp/ccpNfLZa.s 			page 40


1180:./Libraries/FreeRTOS/Source/tasks.c **** 			}
1181:./Libraries/FreeRTOS/Source/tasks.c **** 
1182:./Libraries/FreeRTOS/Source/tasks.c **** 			/* Is the task waiting on an event also? */
1183:./Libraries/FreeRTOS/Source/tasks.c **** 			if( listLIST_ITEM_CONTAINER( &( pxTCB->xEventListItem ) ) != NULL )
 864              		.loc 1 1183 8 discriminator 4
 865 0026 FB68     		ldr	r3, [r7, #12]
 866 0028 9B6A     		ldr	r3, [r3, #40]
 867              		.loc 1 1183 6 discriminator 4
 868 002a 002B     		cmp	r3, #0
 869 002c 04D0     		beq	.L42
1184:./Libraries/FreeRTOS/Source/tasks.c **** 			{
1185:./Libraries/FreeRTOS/Source/tasks.c **** 				( void ) uxListRemove( &( pxTCB->xEventListItem ) );
 870              		.loc 1 1185 14
 871 002e FB68     		ldr	r3, [r7, #12]
 872 0030 1833     		adds	r3, r3, #24
 873 0032 1846     		mov	r0, r3
 874 0034 FFF7FEFF 		bl	uxListRemove
 875              	.L42:
1186:./Libraries/FreeRTOS/Source/tasks.c **** 			}
1187:./Libraries/FreeRTOS/Source/tasks.c **** 			else
1188:./Libraries/FreeRTOS/Source/tasks.c **** 			{
1189:./Libraries/FreeRTOS/Source/tasks.c **** 				mtCOVERAGE_TEST_MARKER();
1190:./Libraries/FreeRTOS/Source/tasks.c **** 			}
1191:./Libraries/FreeRTOS/Source/tasks.c **** 
1192:./Libraries/FreeRTOS/Source/tasks.c **** 			/* Increment the uxTaskNumber also so kernel aware debuggers can
1193:./Libraries/FreeRTOS/Source/tasks.c **** 			detect that the task lists need re-generating.  This is done before
1194:./Libraries/FreeRTOS/Source/tasks.c **** 			portPRE_TASK_DELETE_HOOK() as in the Windows port that macro will
1195:./Libraries/FreeRTOS/Source/tasks.c **** 			not return. */
1196:./Libraries/FreeRTOS/Source/tasks.c **** 			uxTaskNumber++;
 876              		.loc 1 1196 16
 877 0038 234B     		ldr	r3, .L49+4
 878 003a 1B68     		ldr	r3, [r3]
 879 003c 0133     		adds	r3, r3, #1
 880 003e 224A     		ldr	r2, .L49+4
 881 0040 1360     		str	r3, [r2]
1197:./Libraries/FreeRTOS/Source/tasks.c **** 
1198:./Libraries/FreeRTOS/Source/tasks.c **** 			if( pxTCB == pxCurrentTCB )
 882              		.loc 1 1198 14
 883 0042 204B     		ldr	r3, .L49
 884 0044 1B68     		ldr	r3, [r3]
 885              		.loc 1 1198 6
 886 0046 FA68     		ldr	r2, [r7, #12]
 887 0048 9A42     		cmp	r2, r3
 888 004a 0BD1     		bne	.L43
1199:./Libraries/FreeRTOS/Source/tasks.c **** 			{
1200:./Libraries/FreeRTOS/Source/tasks.c **** 				/* A task is deleting itself.  This cannot complete within the
1201:./Libraries/FreeRTOS/Source/tasks.c **** 				task itself, as a context switch to another task is required.
1202:./Libraries/FreeRTOS/Source/tasks.c **** 				Place the task in the termination list.  The idle task will
1203:./Libraries/FreeRTOS/Source/tasks.c **** 				check the termination list and free up any memory allocated by
1204:./Libraries/FreeRTOS/Source/tasks.c **** 				the scheduler for the TCB and stack of the deleted task. */
1205:./Libraries/FreeRTOS/Source/tasks.c **** 				vListInsertEnd( &xTasksWaitingTermination, &( pxTCB->xStateListItem ) );
 889              		.loc 1 1205 5
 890 004c FB68     		ldr	r3, [r7, #12]
 891 004e 0433     		adds	r3, r3, #4
 892 0050 1946     		mov	r1, r3
 893 0052 1E48     		ldr	r0, .L49+8
 894 0054 FFF7FEFF 		bl	vListInsertEnd
ARM GAS  /tmp/ccpNfLZa.s 			page 41


1206:./Libraries/FreeRTOS/Source/tasks.c **** 
1207:./Libraries/FreeRTOS/Source/tasks.c **** 				/* Increment the ucTasksDeleted variable so the idle task knows
1208:./Libraries/FreeRTOS/Source/tasks.c **** 				there is a task that has been deleted and that it should therefore
1209:./Libraries/FreeRTOS/Source/tasks.c **** 				check the xTasksWaitingTermination list. */
1210:./Libraries/FreeRTOS/Source/tasks.c **** 				++uxDeletedTasksWaitingCleanUp;
 895              		.loc 1 1210 5
 896 0058 1D4B     		ldr	r3, .L49+12
 897 005a 1B68     		ldr	r3, [r3]
 898 005c 0133     		adds	r3, r3, #1
 899 005e 1C4A     		ldr	r2, .L49+12
 900 0060 1360     		str	r3, [r2]
 901 0062 09E0     		b	.L44
 902              	.L43:
1211:./Libraries/FreeRTOS/Source/tasks.c **** 
1212:./Libraries/FreeRTOS/Source/tasks.c **** 				/* Call the delete hook before portPRE_TASK_DELETE_HOOK() as
1213:./Libraries/FreeRTOS/Source/tasks.c **** 				portPRE_TASK_DELETE_HOOK() does not return in the Win32 port. */
1214:./Libraries/FreeRTOS/Source/tasks.c **** 				traceTASK_DELETE( pxTCB );
1215:./Libraries/FreeRTOS/Source/tasks.c **** 
1216:./Libraries/FreeRTOS/Source/tasks.c **** 				/* The pre-delete hook is primarily for the Windows simulator,
1217:./Libraries/FreeRTOS/Source/tasks.c **** 				in which Windows specific clean up operations are performed,
1218:./Libraries/FreeRTOS/Source/tasks.c **** 				after which it is not possible to yield away from this task -
1219:./Libraries/FreeRTOS/Source/tasks.c **** 				hence xYieldPending is used to latch that a context switch is
1220:./Libraries/FreeRTOS/Source/tasks.c **** 				required. */
1221:./Libraries/FreeRTOS/Source/tasks.c **** 				portPRE_TASK_DELETE_HOOK( pxTCB, &xYieldPending );
1222:./Libraries/FreeRTOS/Source/tasks.c **** 			}
1223:./Libraries/FreeRTOS/Source/tasks.c **** 			else
1224:./Libraries/FreeRTOS/Source/tasks.c **** 			{
1225:./Libraries/FreeRTOS/Source/tasks.c **** 				--uxCurrentNumberOfTasks;
 903              		.loc 1 1225 5
 904 0064 1B4B     		ldr	r3, .L49+16
 905 0066 1B68     		ldr	r3, [r3]
 906 0068 013B     		subs	r3, r3, #1
 907 006a 1A4A     		ldr	r2, .L49+16
 908 006c 1360     		str	r3, [r2]
1226:./Libraries/FreeRTOS/Source/tasks.c **** 				traceTASK_DELETE( pxTCB );
1227:./Libraries/FreeRTOS/Source/tasks.c **** 				prvDeleteTCB( pxTCB );
 909              		.loc 1 1227 5
 910 006e F868     		ldr	r0, [r7, #12]
 911 0070 FFF7FEFF 		bl	prvDeleteTCB
1228:./Libraries/FreeRTOS/Source/tasks.c **** 
1229:./Libraries/FreeRTOS/Source/tasks.c **** 				/* Reset the next expected unblock time in case it referred to
1230:./Libraries/FreeRTOS/Source/tasks.c **** 				the task that has just been deleted. */
1231:./Libraries/FreeRTOS/Source/tasks.c **** 				prvResetNextTaskUnblockTime();
 912              		.loc 1 1231 5
 913 0074 FFF7FEFF 		bl	prvResetNextTaskUnblockTime
 914              	.L44:
1232:./Libraries/FreeRTOS/Source/tasks.c **** 			}
1233:./Libraries/FreeRTOS/Source/tasks.c **** 		}
1234:./Libraries/FreeRTOS/Source/tasks.c **** 		taskEXIT_CRITICAL();
 915              		.loc 1 1234 3
 916 0078 FFF7FEFF 		bl	vPortExitCritical
1235:./Libraries/FreeRTOS/Source/tasks.c **** 
1236:./Libraries/FreeRTOS/Source/tasks.c **** 		/* Force a reschedule if it is the currently running task that has just
1237:./Libraries/FreeRTOS/Source/tasks.c **** 		been deleted. */
1238:./Libraries/FreeRTOS/Source/tasks.c **** 		if( xSchedulerRunning != pdFALSE )
 917              		.loc 1 1238 25
 918 007c 164B     		ldr	r3, .L49+20
ARM GAS  /tmp/ccpNfLZa.s 			page 42


 919 007e 1B68     		ldr	r3, [r3]
 920              		.loc 1 1238 5
 921 0080 002B     		cmp	r3, #0
 922 0082 1BD0     		beq	.L48
1239:./Libraries/FreeRTOS/Source/tasks.c **** 		{
1240:./Libraries/FreeRTOS/Source/tasks.c **** 			if( pxTCB == pxCurrentTCB )
 923              		.loc 1 1240 14
 924 0084 0F4B     		ldr	r3, .L49
 925 0086 1B68     		ldr	r3, [r3]
 926              		.loc 1 1240 6
 927 0088 FA68     		ldr	r2, [r7, #12]
 928 008a 9A42     		cmp	r2, r3
 929 008c 16D1     		bne	.L48
1241:./Libraries/FreeRTOS/Source/tasks.c **** 			{
1242:./Libraries/FreeRTOS/Source/tasks.c **** 				configASSERT( uxSchedulerSuspended == 0 );
 930              		.loc 1 1242 5
 931 008e 134B     		ldr	r3, .L49+24
 932 0090 1B68     		ldr	r3, [r3]
 933 0092 002B     		cmp	r3, #0
 934 0094 0AD0     		beq	.L46
 935              	.LBB129:
 936              	.LBB130:
 195:./Libraries/FreeRTOS/Source/portable/GCC/ARM_CM4F/portmacro.h **** 	(
 937              		.loc 2 195 2
 938              		.syntax unified
 939              	@ 195 "./Libraries/FreeRTOS/Source/portable/GCC/ARM_CM4F/portmacro.h" 1
 940 0096 4FF05003 			mov r3, #80												
 941 009a 83F31188 		msr basepri, r3											
 942 009e BFF36F8F 		isb														
 943 00a2 BFF34F8F 		dsb														
 944              	
 945              	@ 0 "" 2
 946              		.thumb
 947              		.syntax unified
 948 00a6 BB60     		str	r3, [r7, #8]
 949              		.loc 2 203 1
 950 00a8 00BF     		nop
 951              	.L47:
 952              	.LBE130:
 953              	.LBE129:
 954              		.loc 1 1242 5 discriminator 1
 955 00aa FEE7     		b	.L47
 956              	.L46:
1243:./Libraries/FreeRTOS/Source/tasks.c **** 				portYIELD_WITHIN_API();
 957              		.loc 1 1243 5
 958 00ac 0C4B     		ldr	r3, .L49+28
 959 00ae 4FF08052 		mov	r2, #268435456
 960 00b2 1A60     		str	r2, [r3]
 961              		.syntax unified
 962              	@ 1243 "./Libraries/FreeRTOS/Source/tasks.c" 1
 963 00b4 BFF34F8F 		dsb
 964              	@ 0 "" 2
 965              	@ 1243 "./Libraries/FreeRTOS/Source/tasks.c" 1
 966 00b8 BFF36F8F 		isb
 967              	@ 0 "" 2
 968              		.thumb
 969              		.syntax unified
ARM GAS  /tmp/ccpNfLZa.s 			page 43


 970              	.L48:
1244:./Libraries/FreeRTOS/Source/tasks.c **** 			}
1245:./Libraries/FreeRTOS/Source/tasks.c **** 			else
1246:./Libraries/FreeRTOS/Source/tasks.c **** 			{
1247:./Libraries/FreeRTOS/Source/tasks.c **** 				mtCOVERAGE_TEST_MARKER();
1248:./Libraries/FreeRTOS/Source/tasks.c **** 			}
1249:./Libraries/FreeRTOS/Source/tasks.c **** 		}
1250:./Libraries/FreeRTOS/Source/tasks.c **** 	}
 971              		.loc 1 1250 2
 972 00bc 00BF     		nop
 973 00be 1037     		adds	r7, r7, #16
 974              	.LCFI23:
 975              		.cfi_def_cfa_offset 8
 976 00c0 BD46     		mov	sp, r7
 977              	.LCFI24:
 978              		.cfi_def_cfa_register 13
 979              		@ sp needed
 980 00c2 80BD     		pop	{r7, pc}
 981              	.L50:
 982              		.align	2
 983              	.L49:
 984 00c4 00000000 		.word	pxCurrentTCB
 985 00c8 00000000 		.word	uxTaskNumber
 986 00cc 00000000 		.word	xTasksWaitingTermination
 987 00d0 00000000 		.word	uxDeletedTasksWaitingCleanUp
 988 00d4 00000000 		.word	uxCurrentNumberOfTasks
 989 00d8 00000000 		.word	xSchedulerRunning
 990 00dc 00000000 		.word	uxSchedulerSuspended
 991 00e0 04ED00E0 		.word	-536810236
 992              		.cfi_endproc
 993              	.LFE8:
 995              		.section	.text.vTaskDelayUntil,"ax",%progbits
 996              		.align	1
 997              		.global	vTaskDelayUntil
 998              		.syntax unified
 999              		.thumb
 1000              		.thumb_func
 1001              		.fpu fpv5-d16
 1003              	vTaskDelayUntil:
 1004              	.LFB9:
1251:./Libraries/FreeRTOS/Source/tasks.c **** 
1252:./Libraries/FreeRTOS/Source/tasks.c **** #endif /* INCLUDE_vTaskDelete */
1253:./Libraries/FreeRTOS/Source/tasks.c **** /*-----------------------------------------------------------*/
1254:./Libraries/FreeRTOS/Source/tasks.c **** 
1255:./Libraries/FreeRTOS/Source/tasks.c **** #if ( INCLUDE_vTaskDelayUntil == 1 )
1256:./Libraries/FreeRTOS/Source/tasks.c **** 
1257:./Libraries/FreeRTOS/Source/tasks.c **** 	void vTaskDelayUntil( TickType_t * const pxPreviousWakeTime, const TickType_t xTimeIncrement )
1258:./Libraries/FreeRTOS/Source/tasks.c **** 	{
 1005              		.loc 1 1258 2
 1006              		.cfi_startproc
 1007              		@ args = 0, pretend = 0, frame = 40
 1008              		@ frame_needed = 1, uses_anonymous_args = 0
 1009 0000 80B5     		push	{r7, lr}
 1010              	.LCFI25:
 1011              		.cfi_def_cfa_offset 8
 1012              		.cfi_offset 7, -8
 1013              		.cfi_offset 14, -4
ARM GAS  /tmp/ccpNfLZa.s 			page 44


 1014 0002 8AB0     		sub	sp, sp, #40
 1015              	.LCFI26:
 1016              		.cfi_def_cfa_offset 48
 1017 0004 00AF     		add	r7, sp, #0
 1018              	.LCFI27:
 1019              		.cfi_def_cfa_register 7
 1020 0006 7860     		str	r0, [r7, #4]
 1021 0008 3960     		str	r1, [r7]
1259:./Libraries/FreeRTOS/Source/tasks.c **** 	TickType_t xTimeToWake;
1260:./Libraries/FreeRTOS/Source/tasks.c **** 	BaseType_t xAlreadyYielded, xShouldDelay = pdFALSE;
 1022              		.loc 1 1260 30
 1023 000a 0023     		movs	r3, #0
 1024 000c 7B62     		str	r3, [r7, #36]
1261:./Libraries/FreeRTOS/Source/tasks.c **** 
1262:./Libraries/FreeRTOS/Source/tasks.c **** 		configASSERT( pxPreviousWakeTime );
 1025              		.loc 1 1262 3
 1026 000e 7B68     		ldr	r3, [r7, #4]
 1027 0010 002B     		cmp	r3, #0
 1028 0012 0AD1     		bne	.L52
 1029              	.LBB131:
 1030              	.LBB132:
 195:./Libraries/FreeRTOS/Source/portable/GCC/ARM_CM4F/portmacro.h **** 	(
 1031              		.loc 2 195 2
 1032              		.syntax unified
 1033              	@ 195 "./Libraries/FreeRTOS/Source/portable/GCC/ARM_CM4F/portmacro.h" 1
 1034 0014 4FF05003 			mov r3, #80												
 1035 0018 83F31188 		msr basepri, r3											
 1036 001c BFF36F8F 		isb														
 1037 0020 BFF34F8F 		dsb														
 1038              	
 1039              	@ 0 "" 2
 1040              		.thumb
 1041              		.syntax unified
 1042 0024 7B61     		str	r3, [r7, #20]
 1043              		.loc 2 203 1
 1044 0026 00BF     		nop
 1045              	.L53:
 1046              	.LBE132:
 1047              	.LBE131:
 1048              		.loc 1 1262 3 discriminator 1
 1049 0028 FEE7     		b	.L53
 1050              	.L52:
1263:./Libraries/FreeRTOS/Source/tasks.c **** 		configASSERT( ( xTimeIncrement > 0U ) );
 1051              		.loc 1 1263 3
 1052 002a 3B68     		ldr	r3, [r7]
 1053 002c 002B     		cmp	r3, #0
 1054 002e 0AD1     		bne	.L54
 1055              	.LBB133:
 1056              	.LBB134:
 195:./Libraries/FreeRTOS/Source/portable/GCC/ARM_CM4F/portmacro.h **** 	(
 1057              		.loc 2 195 2
 1058              		.syntax unified
 1059              	@ 195 "./Libraries/FreeRTOS/Source/portable/GCC/ARM_CM4F/portmacro.h" 1
 1060 0030 4FF05003 			mov r3, #80												
 1061 0034 83F31188 		msr basepri, r3											
 1062 0038 BFF36F8F 		isb														
 1063 003c BFF34F8F 		dsb														
ARM GAS  /tmp/ccpNfLZa.s 			page 45


 1064              	
 1065              	@ 0 "" 2
 1066              		.thumb
 1067              		.syntax unified
 1068 0040 3B61     		str	r3, [r7, #16]
 1069              		.loc 2 203 1
 1070 0042 00BF     		nop
 1071              	.L55:
 1072              	.LBE134:
 1073              	.LBE133:
 1074              		.loc 1 1263 3 discriminator 2
 1075 0044 FEE7     		b	.L55
 1076              	.L54:
1264:./Libraries/FreeRTOS/Source/tasks.c **** 		configASSERT( uxSchedulerSuspended == 0 );
 1077              		.loc 1 1264 3
 1078 0046 2A4B     		ldr	r3, .L64
 1079 0048 1B68     		ldr	r3, [r3]
 1080 004a 002B     		cmp	r3, #0
 1081 004c 0AD0     		beq	.L56
 1082              	.LBB135:
 1083              	.LBB136:
 195:./Libraries/FreeRTOS/Source/portable/GCC/ARM_CM4F/portmacro.h **** 	(
 1084              		.loc 2 195 2
 1085              		.syntax unified
 1086              	@ 195 "./Libraries/FreeRTOS/Source/portable/GCC/ARM_CM4F/portmacro.h" 1
 1087 004e 4FF05003 			mov r3, #80												
 1088 0052 83F31188 		msr basepri, r3											
 1089 0056 BFF36F8F 		isb														
 1090 005a BFF34F8F 		dsb														
 1091              	
 1092              	@ 0 "" 2
 1093              		.thumb
 1094              		.syntax unified
 1095 005e FB60     		str	r3, [r7, #12]
 1096              		.loc 2 203 1
 1097 0060 00BF     		nop
 1098              	.L57:
 1099              	.LBE136:
 1100              	.LBE135:
 1101              		.loc 1 1264 3 discriminator 3
 1102 0062 FEE7     		b	.L57
 1103              	.L56:
1265:./Libraries/FreeRTOS/Source/tasks.c **** 
1266:./Libraries/FreeRTOS/Source/tasks.c **** 		vTaskSuspendAll();
 1104              		.loc 1 1266 3
 1105 0064 FFF7FEFF 		bl	vTaskSuspendAll
 1106              	.LBB137:
1267:./Libraries/FreeRTOS/Source/tasks.c **** 		{
1268:./Libraries/FreeRTOS/Source/tasks.c **** 			/* Minor optimisation.  The tick count cannot change in this
1269:./Libraries/FreeRTOS/Source/tasks.c **** 			block. */
1270:./Libraries/FreeRTOS/Source/tasks.c **** 			const TickType_t xConstTickCount = xTickCount;
 1107              		.loc 1 1270 21
 1108 0068 224B     		ldr	r3, .L64+4
 1109 006a 1B68     		ldr	r3, [r3]
 1110 006c 3B62     		str	r3, [r7, #32]
1271:./Libraries/FreeRTOS/Source/tasks.c **** 
1272:./Libraries/FreeRTOS/Source/tasks.c **** 			/* Generate the tick time at which the task wants to wake. */
ARM GAS  /tmp/ccpNfLZa.s 			page 46


1273:./Libraries/FreeRTOS/Source/tasks.c **** 			xTimeToWake = *pxPreviousWakeTime + xTimeIncrement;
 1111              		.loc 1 1273 18
 1112 006e 7B68     		ldr	r3, [r7, #4]
 1113 0070 1B68     		ldr	r3, [r3]
 1114              		.loc 1 1273 16
 1115 0072 3A68     		ldr	r2, [r7]
 1116 0074 1344     		add	r3, r3, r2
 1117 0076 FB61     		str	r3, [r7, #28]
1274:./Libraries/FreeRTOS/Source/tasks.c **** 
1275:./Libraries/FreeRTOS/Source/tasks.c **** 			if( xConstTickCount < *pxPreviousWakeTime )
 1118              		.loc 1 1275 26
 1119 0078 7B68     		ldr	r3, [r7, #4]
 1120 007a 1B68     		ldr	r3, [r3]
 1121              		.loc 1 1275 6
 1122 007c 3A6A     		ldr	r2, [r7, #32]
 1123 007e 9A42     		cmp	r2, r3
 1124 0080 0BD2     		bcs	.L58
1276:./Libraries/FreeRTOS/Source/tasks.c **** 			{
1277:./Libraries/FreeRTOS/Source/tasks.c **** 				/* The tick count has overflowed since this function was
1278:./Libraries/FreeRTOS/Source/tasks.c **** 				lasted called.  In this case the only time we should ever
1279:./Libraries/FreeRTOS/Source/tasks.c **** 				actually delay is if the wake time has also	overflowed,
1280:./Libraries/FreeRTOS/Source/tasks.c **** 				and the wake time is greater than the tick time.  When this
1281:./Libraries/FreeRTOS/Source/tasks.c **** 				is the case it is as if neither time had overflowed. */
1282:./Libraries/FreeRTOS/Source/tasks.c **** 				if( ( xTimeToWake < *pxPreviousWakeTime ) && ( xTimeToWake > xConstTickCount ) )
 1125              		.loc 1 1282 25
 1126 0082 7B68     		ldr	r3, [r7, #4]
 1127 0084 1B68     		ldr	r3, [r3]
 1128              		.loc 1 1282 7
 1129 0086 FA69     		ldr	r2, [r7, #28]
 1130 0088 9A42     		cmp	r2, r3
 1131 008a 11D2     		bcs	.L59
 1132              		.loc 1 1282 47 discriminator 1
 1133 008c FA69     		ldr	r2, [r7, #28]
 1134 008e 3B6A     		ldr	r3, [r7, #32]
 1135 0090 9A42     		cmp	r2, r3
 1136 0092 0DD9     		bls	.L59
1283:./Libraries/FreeRTOS/Source/tasks.c **** 				{
1284:./Libraries/FreeRTOS/Source/tasks.c **** 					xShouldDelay = pdTRUE;
 1137              		.loc 1 1284 19
 1138 0094 0123     		movs	r3, #1
 1139 0096 7B62     		str	r3, [r7, #36]
 1140 0098 0AE0     		b	.L59
 1141              	.L58:
1285:./Libraries/FreeRTOS/Source/tasks.c **** 				}
1286:./Libraries/FreeRTOS/Source/tasks.c **** 				else
1287:./Libraries/FreeRTOS/Source/tasks.c **** 				{
1288:./Libraries/FreeRTOS/Source/tasks.c **** 					mtCOVERAGE_TEST_MARKER();
1289:./Libraries/FreeRTOS/Source/tasks.c **** 				}
1290:./Libraries/FreeRTOS/Source/tasks.c **** 			}
1291:./Libraries/FreeRTOS/Source/tasks.c **** 			else
1292:./Libraries/FreeRTOS/Source/tasks.c **** 			{
1293:./Libraries/FreeRTOS/Source/tasks.c **** 				/* The tick time has not overflowed.  In this case we will
1294:./Libraries/FreeRTOS/Source/tasks.c **** 				delay if either the wake time has overflowed, and/or the
1295:./Libraries/FreeRTOS/Source/tasks.c **** 				tick time is less than the wake time. */
1296:./Libraries/FreeRTOS/Source/tasks.c **** 				if( ( xTimeToWake < *pxPreviousWakeTime ) || ( xTimeToWake > xConstTickCount ) )
 1142              		.loc 1 1296 25
 1143 009a 7B68     		ldr	r3, [r7, #4]
ARM GAS  /tmp/ccpNfLZa.s 			page 47


 1144 009c 1B68     		ldr	r3, [r3]
 1145              		.loc 1 1296 7
 1146 009e FA69     		ldr	r2, [r7, #28]
 1147 00a0 9A42     		cmp	r2, r3
 1148 00a2 03D3     		bcc	.L60
 1149              		.loc 1 1296 47 discriminator 1
 1150 00a4 FA69     		ldr	r2, [r7, #28]
 1151 00a6 3B6A     		ldr	r3, [r7, #32]
 1152 00a8 9A42     		cmp	r2, r3
 1153 00aa 01D9     		bls	.L59
 1154              	.L60:
1297:./Libraries/FreeRTOS/Source/tasks.c **** 				{
1298:./Libraries/FreeRTOS/Source/tasks.c **** 					xShouldDelay = pdTRUE;
 1155              		.loc 1 1298 19
 1156 00ac 0123     		movs	r3, #1
 1157 00ae 7B62     		str	r3, [r7, #36]
 1158              	.L59:
1299:./Libraries/FreeRTOS/Source/tasks.c **** 				}
1300:./Libraries/FreeRTOS/Source/tasks.c **** 				else
1301:./Libraries/FreeRTOS/Source/tasks.c **** 				{
1302:./Libraries/FreeRTOS/Source/tasks.c **** 					mtCOVERAGE_TEST_MARKER();
1303:./Libraries/FreeRTOS/Source/tasks.c **** 				}
1304:./Libraries/FreeRTOS/Source/tasks.c **** 			}
1305:./Libraries/FreeRTOS/Source/tasks.c **** 
1306:./Libraries/FreeRTOS/Source/tasks.c **** 			/* Update the wake time ready for the next call. */
1307:./Libraries/FreeRTOS/Source/tasks.c **** 			*pxPreviousWakeTime = xTimeToWake;
 1159              		.loc 1 1307 24
 1160 00b0 7B68     		ldr	r3, [r7, #4]
 1161 00b2 FA69     		ldr	r2, [r7, #28]
 1162 00b4 1A60     		str	r2, [r3]
1308:./Libraries/FreeRTOS/Source/tasks.c **** 
1309:./Libraries/FreeRTOS/Source/tasks.c **** 			if( xShouldDelay != pdFALSE )
 1163              		.loc 1 1309 6
 1164 00b6 7B6A     		ldr	r3, [r7, #36]
 1165 00b8 002B     		cmp	r3, #0
 1166 00ba 06D0     		beq	.L61
1310:./Libraries/FreeRTOS/Source/tasks.c **** 			{
1311:./Libraries/FreeRTOS/Source/tasks.c **** 				traceTASK_DELAY_UNTIL( xTimeToWake );
1312:./Libraries/FreeRTOS/Source/tasks.c **** 
1313:./Libraries/FreeRTOS/Source/tasks.c **** 				/* prvAddCurrentTaskToDelayedList() needs the block time, not
1314:./Libraries/FreeRTOS/Source/tasks.c **** 				the time to wake, so subtract the current tick count. */
1315:./Libraries/FreeRTOS/Source/tasks.c **** 				prvAddCurrentTaskToDelayedList( xTimeToWake - xConstTickCount, pdFALSE );
 1167              		.loc 1 1315 5
 1168 00bc FA69     		ldr	r2, [r7, #28]
 1169 00be 3B6A     		ldr	r3, [r7, #32]
 1170 00c0 D31A     		subs	r3, r2, r3
 1171 00c2 0021     		movs	r1, #0
 1172 00c4 1846     		mov	r0, r3
 1173 00c6 FFF7FEFF 		bl	prvAddCurrentTaskToDelayedList
 1174              	.L61:
 1175              	.LBE137:
1316:./Libraries/FreeRTOS/Source/tasks.c **** 			}
1317:./Libraries/FreeRTOS/Source/tasks.c **** 			else
1318:./Libraries/FreeRTOS/Source/tasks.c **** 			{
1319:./Libraries/FreeRTOS/Source/tasks.c **** 				mtCOVERAGE_TEST_MARKER();
1320:./Libraries/FreeRTOS/Source/tasks.c **** 			}
1321:./Libraries/FreeRTOS/Source/tasks.c **** 		}
ARM GAS  /tmp/ccpNfLZa.s 			page 48


1322:./Libraries/FreeRTOS/Source/tasks.c **** 		xAlreadyYielded = xTaskResumeAll();
 1176              		.loc 1 1322 21
 1177 00ca FFF7FEFF 		bl	xTaskResumeAll
 1178 00ce B861     		str	r0, [r7, #24]
1323:./Libraries/FreeRTOS/Source/tasks.c **** 
1324:./Libraries/FreeRTOS/Source/tasks.c **** 		/* Force a reschedule if xTaskResumeAll has not already done so, we may
1325:./Libraries/FreeRTOS/Source/tasks.c **** 		have put ourselves to sleep. */
1326:./Libraries/FreeRTOS/Source/tasks.c **** 		if( xAlreadyYielded == pdFALSE )
 1179              		.loc 1 1326 5
 1180 00d0 BB69     		ldr	r3, [r7, #24]
 1181 00d2 002B     		cmp	r3, #0
 1182 00d4 07D1     		bne	.L63
1327:./Libraries/FreeRTOS/Source/tasks.c **** 		{
1328:./Libraries/FreeRTOS/Source/tasks.c **** 			portYIELD_WITHIN_API();
 1183              		.loc 1 1328 4
 1184 00d6 084B     		ldr	r3, .L64+8
 1185 00d8 4FF08052 		mov	r2, #268435456
 1186 00dc 1A60     		str	r2, [r3]
 1187              		.syntax unified
 1188              	@ 1328 "./Libraries/FreeRTOS/Source/tasks.c" 1
 1189 00de BFF34F8F 		dsb
 1190              	@ 0 "" 2
 1191              	@ 1328 "./Libraries/FreeRTOS/Source/tasks.c" 1
 1192 00e2 BFF36F8F 		isb
 1193              	@ 0 "" 2
 1194              		.thumb
 1195              		.syntax unified
 1196              	.L63:
1329:./Libraries/FreeRTOS/Source/tasks.c **** 		}
1330:./Libraries/FreeRTOS/Source/tasks.c **** 		else
1331:./Libraries/FreeRTOS/Source/tasks.c **** 		{
1332:./Libraries/FreeRTOS/Source/tasks.c **** 			mtCOVERAGE_TEST_MARKER();
1333:./Libraries/FreeRTOS/Source/tasks.c **** 		}
1334:./Libraries/FreeRTOS/Source/tasks.c **** 	}
 1197              		.loc 1 1334 2
 1198 00e6 00BF     		nop
 1199 00e8 2837     		adds	r7, r7, #40
 1200              	.LCFI28:
 1201              		.cfi_def_cfa_offset 8
 1202 00ea BD46     		mov	sp, r7
 1203              	.LCFI29:
 1204              		.cfi_def_cfa_register 13
 1205              		@ sp needed
 1206 00ec 80BD     		pop	{r7, pc}
 1207              	.L65:
 1208 00ee 00BF     		.align	2
 1209              	.L64:
 1210 00f0 00000000 		.word	uxSchedulerSuspended
 1211 00f4 00000000 		.word	xTickCount
 1212 00f8 04ED00E0 		.word	-536810236
 1213              		.cfi_endproc
 1214              	.LFE9:
 1216              		.section	.text.vTaskDelay,"ax",%progbits
 1217              		.align	1
 1218              		.global	vTaskDelay
 1219              		.syntax unified
 1220              		.thumb
ARM GAS  /tmp/ccpNfLZa.s 			page 49


 1221              		.thumb_func
 1222              		.fpu fpv5-d16
 1224              	vTaskDelay:
 1225              	.LFB10:
1335:./Libraries/FreeRTOS/Source/tasks.c **** 
1336:./Libraries/FreeRTOS/Source/tasks.c **** #endif /* INCLUDE_vTaskDelayUntil */
1337:./Libraries/FreeRTOS/Source/tasks.c **** /*-----------------------------------------------------------*/
1338:./Libraries/FreeRTOS/Source/tasks.c **** 
1339:./Libraries/FreeRTOS/Source/tasks.c **** #if ( INCLUDE_vTaskDelay == 1 )
1340:./Libraries/FreeRTOS/Source/tasks.c **** 
1341:./Libraries/FreeRTOS/Source/tasks.c **** 	void vTaskDelay( const TickType_t xTicksToDelay )
1342:./Libraries/FreeRTOS/Source/tasks.c **** 	{
 1226              		.loc 1 1342 2
 1227              		.cfi_startproc
 1228              		@ args = 0, pretend = 0, frame = 16
 1229              		@ frame_needed = 1, uses_anonymous_args = 0
 1230 0000 80B5     		push	{r7, lr}
 1231              	.LCFI30:
 1232              		.cfi_def_cfa_offset 8
 1233              		.cfi_offset 7, -8
 1234              		.cfi_offset 14, -4
 1235 0002 84B0     		sub	sp, sp, #16
 1236              	.LCFI31:
 1237              		.cfi_def_cfa_offset 24
 1238 0004 00AF     		add	r7, sp, #0
 1239              	.LCFI32:
 1240              		.cfi_def_cfa_register 7
 1241 0006 7860     		str	r0, [r7, #4]
1343:./Libraries/FreeRTOS/Source/tasks.c **** 	BaseType_t xAlreadyYielded = pdFALSE;
 1242              		.loc 1 1343 13
 1243 0008 0023     		movs	r3, #0
 1244 000a FB60     		str	r3, [r7, #12]
1344:./Libraries/FreeRTOS/Source/tasks.c **** 
1345:./Libraries/FreeRTOS/Source/tasks.c **** 		/* A delay time of zero just forces a reschedule. */
1346:./Libraries/FreeRTOS/Source/tasks.c **** 		if( xTicksToDelay > ( TickType_t ) 0U )
 1245              		.loc 1 1346 5
 1246 000c 7B68     		ldr	r3, [r7, #4]
 1247 000e 002B     		cmp	r3, #0
 1248 0010 17D0     		beq	.L67
1347:./Libraries/FreeRTOS/Source/tasks.c **** 		{
1348:./Libraries/FreeRTOS/Source/tasks.c **** 			configASSERT( uxSchedulerSuspended == 0 );
 1249              		.loc 1 1348 4
 1250 0012 134B     		ldr	r3, .L72
 1251 0014 1B68     		ldr	r3, [r3]
 1252 0016 002B     		cmp	r3, #0
 1253 0018 0AD0     		beq	.L68
 1254              	.LBB138:
 1255              	.LBB139:
 195:./Libraries/FreeRTOS/Source/portable/GCC/ARM_CM4F/portmacro.h **** 	(
 1256              		.loc 2 195 2
 1257              		.syntax unified
 1258              	@ 195 "./Libraries/FreeRTOS/Source/portable/GCC/ARM_CM4F/portmacro.h" 1
 1259 001a 4FF05003 			mov r3, #80												
 1260 001e 83F31188 		msr basepri, r3											
 1261 0022 BFF36F8F 		isb														
 1262 0026 BFF34F8F 		dsb														
 1263              	
ARM GAS  /tmp/ccpNfLZa.s 			page 50


 1264              	@ 0 "" 2
 1265              		.thumb
 1266              		.syntax unified
 1267 002a BB60     		str	r3, [r7, #8]
 1268              		.loc 2 203 1
 1269 002c 00BF     		nop
 1270              	.L69:
 1271              	.LBE139:
 1272              	.LBE138:
 1273              		.loc 1 1348 4 discriminator 1
 1274 002e FEE7     		b	.L69
 1275              	.L68:
1349:./Libraries/FreeRTOS/Source/tasks.c **** 			vTaskSuspendAll();
 1276              		.loc 1 1349 4
 1277 0030 FFF7FEFF 		bl	vTaskSuspendAll
1350:./Libraries/FreeRTOS/Source/tasks.c **** 			{
1351:./Libraries/FreeRTOS/Source/tasks.c **** 				traceTASK_DELAY();
1352:./Libraries/FreeRTOS/Source/tasks.c **** 
1353:./Libraries/FreeRTOS/Source/tasks.c **** 				/* A task that is removed from the event list while the
1354:./Libraries/FreeRTOS/Source/tasks.c **** 				scheduler is suspended will not get placed in the ready
1355:./Libraries/FreeRTOS/Source/tasks.c **** 				list or removed from the blocked list until the scheduler
1356:./Libraries/FreeRTOS/Source/tasks.c **** 				is resumed.
1357:./Libraries/FreeRTOS/Source/tasks.c **** 
1358:./Libraries/FreeRTOS/Source/tasks.c **** 				This task cannot be in an event list as it is the currently
1359:./Libraries/FreeRTOS/Source/tasks.c **** 				executing task. */
1360:./Libraries/FreeRTOS/Source/tasks.c **** 				prvAddCurrentTaskToDelayedList( xTicksToDelay, pdFALSE );
 1278              		.loc 1 1360 5
 1279 0034 0021     		movs	r1, #0
 1280 0036 7868     		ldr	r0, [r7, #4]
 1281 0038 FFF7FEFF 		bl	prvAddCurrentTaskToDelayedList
1361:./Libraries/FreeRTOS/Source/tasks.c **** 			}
1362:./Libraries/FreeRTOS/Source/tasks.c **** 			xAlreadyYielded = xTaskResumeAll();
 1282              		.loc 1 1362 22
 1283 003c FFF7FEFF 		bl	xTaskResumeAll
 1284 0040 F860     		str	r0, [r7, #12]
 1285              	.L67:
1363:./Libraries/FreeRTOS/Source/tasks.c **** 		}
1364:./Libraries/FreeRTOS/Source/tasks.c **** 		else
1365:./Libraries/FreeRTOS/Source/tasks.c **** 		{
1366:./Libraries/FreeRTOS/Source/tasks.c **** 			mtCOVERAGE_TEST_MARKER();
1367:./Libraries/FreeRTOS/Source/tasks.c **** 		}
1368:./Libraries/FreeRTOS/Source/tasks.c **** 
1369:./Libraries/FreeRTOS/Source/tasks.c **** 		/* Force a reschedule if xTaskResumeAll has not already done so, we may
1370:./Libraries/FreeRTOS/Source/tasks.c **** 		have put ourselves to sleep. */
1371:./Libraries/FreeRTOS/Source/tasks.c **** 		if( xAlreadyYielded == pdFALSE )
 1286              		.loc 1 1371 5
 1287 0042 FB68     		ldr	r3, [r7, #12]
 1288 0044 002B     		cmp	r3, #0
 1289 0046 07D1     		bne	.L71
1372:./Libraries/FreeRTOS/Source/tasks.c **** 		{
1373:./Libraries/FreeRTOS/Source/tasks.c **** 			portYIELD_WITHIN_API();
 1290              		.loc 1 1373 4
 1291 0048 064B     		ldr	r3, .L72+4
 1292 004a 4FF08052 		mov	r2, #268435456
 1293 004e 1A60     		str	r2, [r3]
 1294              		.syntax unified
 1295              	@ 1373 "./Libraries/FreeRTOS/Source/tasks.c" 1
ARM GAS  /tmp/ccpNfLZa.s 			page 51


 1296 0050 BFF34F8F 		dsb
 1297              	@ 0 "" 2
 1298              	@ 1373 "./Libraries/FreeRTOS/Source/tasks.c" 1
 1299 0054 BFF36F8F 		isb
 1300              	@ 0 "" 2
 1301              		.thumb
 1302              		.syntax unified
 1303              	.L71:
1374:./Libraries/FreeRTOS/Source/tasks.c **** 		}
1375:./Libraries/FreeRTOS/Source/tasks.c **** 		else
1376:./Libraries/FreeRTOS/Source/tasks.c **** 		{
1377:./Libraries/FreeRTOS/Source/tasks.c **** 			mtCOVERAGE_TEST_MARKER();
1378:./Libraries/FreeRTOS/Source/tasks.c **** 		}
1379:./Libraries/FreeRTOS/Source/tasks.c **** 	}
 1304              		.loc 1 1379 2
 1305 0058 00BF     		nop
 1306 005a 1037     		adds	r7, r7, #16
 1307              	.LCFI33:
 1308              		.cfi_def_cfa_offset 8
 1309 005c BD46     		mov	sp, r7
 1310              	.LCFI34:
 1311              		.cfi_def_cfa_register 13
 1312              		@ sp needed
 1313 005e 80BD     		pop	{r7, pc}
 1314              	.L73:
 1315              		.align	2
 1316              	.L72:
 1317 0060 00000000 		.word	uxSchedulerSuspended
 1318 0064 04ED00E0 		.word	-536810236
 1319              		.cfi_endproc
 1320              	.LFE10:
 1322              		.section	.text.eTaskGetState,"ax",%progbits
 1323              		.align	1
 1324              		.global	eTaskGetState
 1325              		.syntax unified
 1326              		.thumb
 1327              		.thumb_func
 1328              		.fpu fpv5-d16
 1330              	eTaskGetState:
 1331              	.LFB11:
1380:./Libraries/FreeRTOS/Source/tasks.c **** 
1381:./Libraries/FreeRTOS/Source/tasks.c **** #endif /* INCLUDE_vTaskDelay */
1382:./Libraries/FreeRTOS/Source/tasks.c **** /*-----------------------------------------------------------*/
1383:./Libraries/FreeRTOS/Source/tasks.c **** 
1384:./Libraries/FreeRTOS/Source/tasks.c **** #if( ( INCLUDE_eTaskGetState == 1 ) || ( configUSE_TRACE_FACILITY == 1 ) || ( INCLUDE_xTaskAbortDel
1385:./Libraries/FreeRTOS/Source/tasks.c **** 
1386:./Libraries/FreeRTOS/Source/tasks.c **** 	eTaskState eTaskGetState( TaskHandle_t xTask )
1387:./Libraries/FreeRTOS/Source/tasks.c **** 	{
 1332              		.loc 1 1387 2
 1333              		.cfi_startproc
 1334              		@ args = 0, pretend = 0, frame = 32
 1335              		@ frame_needed = 1, uses_anonymous_args = 0
 1336 0000 80B5     		push	{r7, lr}
 1337              	.LCFI35:
 1338              		.cfi_def_cfa_offset 8
 1339              		.cfi_offset 7, -8
 1340              		.cfi_offset 14, -4
ARM GAS  /tmp/ccpNfLZa.s 			page 52


 1341 0002 88B0     		sub	sp, sp, #32
 1342              	.LCFI36:
 1343              		.cfi_def_cfa_offset 40
 1344 0004 00AF     		add	r7, sp, #0
 1345              	.LCFI37:
 1346              		.cfi_def_cfa_register 7
 1347 0006 7860     		str	r0, [r7, #4]
1388:./Libraries/FreeRTOS/Source/tasks.c **** 	eTaskState eReturn;
1389:./Libraries/FreeRTOS/Source/tasks.c **** 	List_t const * pxStateList, *pxDelayedList, *pxOverflowedDelayedList;
1390:./Libraries/FreeRTOS/Source/tasks.c **** 	const TCB_t * const pxTCB = xTask;
 1348              		.loc 1 1390 22
 1349 0008 7B68     		ldr	r3, [r7, #4]
 1350 000a BB61     		str	r3, [r7, #24]
1391:./Libraries/FreeRTOS/Source/tasks.c **** 
1392:./Libraries/FreeRTOS/Source/tasks.c **** 		configASSERT( pxTCB );
 1351              		.loc 1 1392 3
 1352 000c BB69     		ldr	r3, [r7, #24]
 1353 000e 002B     		cmp	r3, #0
 1354 0010 0AD1     		bne	.L75
 1355              	.LBB140:
 1356              	.LBB141:
 195:./Libraries/FreeRTOS/Source/portable/GCC/ARM_CM4F/portmacro.h **** 	(
 1357              		.loc 2 195 2
 1358              		.syntax unified
 1359              	@ 195 "./Libraries/FreeRTOS/Source/portable/GCC/ARM_CM4F/portmacro.h" 1
 1360 0012 4FF05003 			mov r3, #80												
 1361 0016 83F31188 		msr basepri, r3											
 1362 001a BFF36F8F 		isb														
 1363 001e BFF34F8F 		dsb														
 1364              	
 1365              	@ 0 "" 2
 1366              		.thumb
 1367              		.syntax unified
 1368 0022 BB60     		str	r3, [r7, #8]
 1369              		.loc 2 203 1
 1370 0024 00BF     		nop
 1371              	.L76:
 1372              	.LBE141:
 1373              	.LBE140:
 1374              		.loc 1 1392 3 discriminator 1
 1375 0026 FEE7     		b	.L76
 1376              	.L75:
1393:./Libraries/FreeRTOS/Source/tasks.c **** 
1394:./Libraries/FreeRTOS/Source/tasks.c **** 		if( pxTCB == pxCurrentTCB )
 1377              		.loc 1 1394 13
 1378 0028 234B     		ldr	r3, .L87
 1379 002a 1B68     		ldr	r3, [r3]
 1380              		.loc 1 1394 5
 1381 002c BA69     		ldr	r2, [r7, #24]
 1382 002e 9A42     		cmp	r2, r3
 1383 0030 02D1     		bne	.L77
1395:./Libraries/FreeRTOS/Source/tasks.c **** 		{
1396:./Libraries/FreeRTOS/Source/tasks.c **** 			/* The task calling this function is querying its own state. */
1397:./Libraries/FreeRTOS/Source/tasks.c **** 			eReturn = eRunning;
 1384              		.loc 1 1397 12
 1385 0032 0023     		movs	r3, #0
 1386 0034 FB77     		strb	r3, [r7, #31]
ARM GAS  /tmp/ccpNfLZa.s 			page 53


 1387 0036 3AE0     		b	.L78
 1388              	.L77:
1398:./Libraries/FreeRTOS/Source/tasks.c **** 		}
1399:./Libraries/FreeRTOS/Source/tasks.c **** 		else
1400:./Libraries/FreeRTOS/Source/tasks.c **** 		{
1401:./Libraries/FreeRTOS/Source/tasks.c **** 			taskENTER_CRITICAL();
 1389              		.loc 1 1401 4
 1390 0038 FFF7FEFF 		bl	vPortEnterCritical
1402:./Libraries/FreeRTOS/Source/tasks.c **** 			{
1403:./Libraries/FreeRTOS/Source/tasks.c **** 				pxStateList = listLIST_ITEM_CONTAINER( &( pxTCB->xStateListItem ) );
 1391              		.loc 1 1403 17
 1392 003c BB69     		ldr	r3, [r7, #24]
 1393 003e 5B69     		ldr	r3, [r3, #20]
 1394 0040 7B61     		str	r3, [r7, #20]
1404:./Libraries/FreeRTOS/Source/tasks.c **** 				pxDelayedList = pxDelayedTaskList;
 1395              		.loc 1 1404 19
 1396 0042 1E4B     		ldr	r3, .L87+4
 1397 0044 1B68     		ldr	r3, [r3]
 1398 0046 3B61     		str	r3, [r7, #16]
1405:./Libraries/FreeRTOS/Source/tasks.c **** 				pxOverflowedDelayedList = pxOverflowDelayedTaskList;
 1399              		.loc 1 1405 29
 1400 0048 1D4B     		ldr	r3, .L87+8
 1401 004a 1B68     		ldr	r3, [r3]
 1402 004c FB60     		str	r3, [r7, #12]
1406:./Libraries/FreeRTOS/Source/tasks.c **** 			}
1407:./Libraries/FreeRTOS/Source/tasks.c **** 			taskEXIT_CRITICAL();
 1403              		.loc 1 1407 4
 1404 004e FFF7FEFF 		bl	vPortExitCritical
1408:./Libraries/FreeRTOS/Source/tasks.c **** 
1409:./Libraries/FreeRTOS/Source/tasks.c **** 			if( ( pxStateList == pxDelayedList ) || ( pxStateList == pxOverflowedDelayedList ) )
 1405              		.loc 1 1409 6
 1406 0052 7A69     		ldr	r2, [r7, #20]
 1407 0054 3B69     		ldr	r3, [r7, #16]
 1408 0056 9A42     		cmp	r2, r3
 1409 0058 03D0     		beq	.L79
 1410              		.loc 1 1409 41 discriminator 1
 1411 005a 7A69     		ldr	r2, [r7, #20]
 1412 005c FB68     		ldr	r3, [r7, #12]
 1413 005e 9A42     		cmp	r2, r3
 1414 0060 02D1     		bne	.L80
 1415              	.L79:
1410:./Libraries/FreeRTOS/Source/tasks.c **** 			{
1411:./Libraries/FreeRTOS/Source/tasks.c **** 				/* The task being queried is referenced from one of the Blocked
1412:./Libraries/FreeRTOS/Source/tasks.c **** 				lists. */
1413:./Libraries/FreeRTOS/Source/tasks.c **** 				eReturn = eBlocked;
 1416              		.loc 1 1413 13
 1417 0062 0223     		movs	r3, #2
 1418 0064 FB77     		strb	r3, [r7, #31]
 1419 0066 22E0     		b	.L78
 1420              	.L80:
1414:./Libraries/FreeRTOS/Source/tasks.c **** 			}
1415:./Libraries/FreeRTOS/Source/tasks.c **** 
1416:./Libraries/FreeRTOS/Source/tasks.c **** 			#if ( INCLUDE_vTaskSuspend == 1 )
1417:./Libraries/FreeRTOS/Source/tasks.c **** 				else if( pxStateList == &xSuspendedTaskList )
 1421              		.loc 1 1417 12
 1422 0068 7B69     		ldr	r3, [r7, #20]
 1423 006a 164A     		ldr	r2, .L87+12
ARM GAS  /tmp/ccpNfLZa.s 			page 54


 1424 006c 9342     		cmp	r3, r2
 1425 006e 12D1     		bne	.L81
1418:./Libraries/FreeRTOS/Source/tasks.c **** 				{
1419:./Libraries/FreeRTOS/Source/tasks.c **** 					/* The task being queried is referenced from the suspended
1420:./Libraries/FreeRTOS/Source/tasks.c **** 					list.  Is it genuinely suspended or is it blocked
1421:./Libraries/FreeRTOS/Source/tasks.c **** 					indefinitely? */
1422:./Libraries/FreeRTOS/Source/tasks.c **** 					if( listLIST_ITEM_CONTAINER( &( pxTCB->xEventListItem ) ) == NULL )
 1426              		.loc 1 1422 10
 1427 0070 BB69     		ldr	r3, [r7, #24]
 1428 0072 9B6A     		ldr	r3, [r3, #40]
 1429              		.loc 1 1422 8
 1430 0074 002B     		cmp	r3, #0
 1431 0076 0BD1     		bne	.L82
1423:./Libraries/FreeRTOS/Source/tasks.c **** 					{
1424:./Libraries/FreeRTOS/Source/tasks.c **** 						#if( configUSE_TASK_NOTIFICATIONS == 1 )
1425:./Libraries/FreeRTOS/Source/tasks.c **** 						{
1426:./Libraries/FreeRTOS/Source/tasks.c **** 							/* The task does not appear on the event list item of
1427:./Libraries/FreeRTOS/Source/tasks.c **** 							and of the RTOS objects, but could still be in the
1428:./Libraries/FreeRTOS/Source/tasks.c **** 							blocked state if it is waiting on its notification
1429:./Libraries/FreeRTOS/Source/tasks.c **** 							rather than waiting on an object. */
1430:./Libraries/FreeRTOS/Source/tasks.c **** 							if( pxTCB->ucNotifyState == taskWAITING_NOTIFICATION )
 1432              		.loc 1 1430 17
 1433 0078 BB69     		ldr	r3, [r7, #24]
 1434 007a 93F85830 		ldrb	r3, [r3, #88]
 1435 007e DBB2     		uxtb	r3, r3
 1436              		.loc 1 1430 10
 1437 0080 012B     		cmp	r3, #1
 1438 0082 02D1     		bne	.L83
1431:./Libraries/FreeRTOS/Source/tasks.c **** 							{
1432:./Libraries/FreeRTOS/Source/tasks.c **** 								eReturn = eBlocked;
 1439              		.loc 1 1432 17
 1440 0084 0223     		movs	r3, #2
 1441 0086 FB77     		strb	r3, [r7, #31]
 1442 0088 11E0     		b	.L78
 1443              	.L83:
1433:./Libraries/FreeRTOS/Source/tasks.c **** 							}
1434:./Libraries/FreeRTOS/Source/tasks.c **** 							else
1435:./Libraries/FreeRTOS/Source/tasks.c **** 							{
1436:./Libraries/FreeRTOS/Source/tasks.c **** 								eReturn = eSuspended;
 1444              		.loc 1 1436 17
 1445 008a 0323     		movs	r3, #3
 1446 008c FB77     		strb	r3, [r7, #31]
 1447 008e 0EE0     		b	.L78
 1448              	.L82:
1437:./Libraries/FreeRTOS/Source/tasks.c **** 							}
1438:./Libraries/FreeRTOS/Source/tasks.c **** 						}
1439:./Libraries/FreeRTOS/Source/tasks.c **** 						#else
1440:./Libraries/FreeRTOS/Source/tasks.c **** 						{
1441:./Libraries/FreeRTOS/Source/tasks.c **** 							eReturn = eSuspended;
1442:./Libraries/FreeRTOS/Source/tasks.c **** 						}
1443:./Libraries/FreeRTOS/Source/tasks.c **** 						#endif
1444:./Libraries/FreeRTOS/Source/tasks.c **** 					}
1445:./Libraries/FreeRTOS/Source/tasks.c **** 					else
1446:./Libraries/FreeRTOS/Source/tasks.c **** 					{
1447:./Libraries/FreeRTOS/Source/tasks.c **** 						eReturn = eBlocked;
 1449              		.loc 1 1447 15
 1450 0090 0223     		movs	r3, #2
ARM GAS  /tmp/ccpNfLZa.s 			page 55


 1451 0092 FB77     		strb	r3, [r7, #31]
 1452 0094 0BE0     		b	.L78
 1453              	.L81:
1448:./Libraries/FreeRTOS/Source/tasks.c **** 					}
1449:./Libraries/FreeRTOS/Source/tasks.c **** 				}
1450:./Libraries/FreeRTOS/Source/tasks.c **** 			#endif
1451:./Libraries/FreeRTOS/Source/tasks.c **** 
1452:./Libraries/FreeRTOS/Source/tasks.c **** 			#if ( INCLUDE_vTaskDelete == 1 )
1453:./Libraries/FreeRTOS/Source/tasks.c **** 				else if( ( pxStateList == &xTasksWaitingTermination ) || ( pxStateList == NULL ) )
 1454              		.loc 1 1453 12
 1455 0096 7B69     		ldr	r3, [r7, #20]
 1456 0098 0B4A     		ldr	r2, .L87+16
 1457 009a 9342     		cmp	r3, r2
 1458 009c 02D0     		beq	.L84
 1459              		.loc 1 1453 59 discriminator 1
 1460 009e 7B69     		ldr	r3, [r7, #20]
 1461 00a0 002B     		cmp	r3, #0
 1462 00a2 02D1     		bne	.L85
 1463              	.L84:
1454:./Libraries/FreeRTOS/Source/tasks.c **** 				{
1455:./Libraries/FreeRTOS/Source/tasks.c **** 					/* The task being queried is referenced from the deleted
1456:./Libraries/FreeRTOS/Source/tasks.c **** 					tasks list, or it is not referenced from any lists at
1457:./Libraries/FreeRTOS/Source/tasks.c **** 					all. */
1458:./Libraries/FreeRTOS/Source/tasks.c **** 					eReturn = eDeleted;
 1464              		.loc 1 1458 14
 1465 00a4 0423     		movs	r3, #4
 1466 00a6 FB77     		strb	r3, [r7, #31]
 1467 00a8 01E0     		b	.L78
 1468              	.L85:
1459:./Libraries/FreeRTOS/Source/tasks.c **** 				}
1460:./Libraries/FreeRTOS/Source/tasks.c **** 			#endif
1461:./Libraries/FreeRTOS/Source/tasks.c **** 
1462:./Libraries/FreeRTOS/Source/tasks.c **** 			else /*lint !e525 Negative indentation is intended to make use of pre-processor clearer. */
1463:./Libraries/FreeRTOS/Source/tasks.c **** 			{
1464:./Libraries/FreeRTOS/Source/tasks.c **** 				/* If the task is not in any other state, it must be in the
1465:./Libraries/FreeRTOS/Source/tasks.c **** 				Ready (including pending ready) state. */
1466:./Libraries/FreeRTOS/Source/tasks.c **** 				eReturn = eReady;
 1469              		.loc 1 1466 13
 1470 00aa 0123     		movs	r3, #1
 1471 00ac FB77     		strb	r3, [r7, #31]
 1472              	.L78:
1467:./Libraries/FreeRTOS/Source/tasks.c **** 			}
1468:./Libraries/FreeRTOS/Source/tasks.c **** 		}
1469:./Libraries/FreeRTOS/Source/tasks.c **** 
1470:./Libraries/FreeRTOS/Source/tasks.c **** 		return eReturn;
 1473              		.loc 1 1470 10
 1474 00ae FB7F     		ldrb	r3, [r7, #31]	@ zero_extendqisi2
1471:./Libraries/FreeRTOS/Source/tasks.c **** 	} /*lint !e818 xTask cannot be a pointer to const because it is a typedef. */
 1475              		.loc 1 1471 2
 1476 00b0 1846     		mov	r0, r3
 1477 00b2 2037     		adds	r7, r7, #32
 1478              	.LCFI38:
 1479              		.cfi_def_cfa_offset 8
 1480 00b4 BD46     		mov	sp, r7
 1481              	.LCFI39:
 1482              		.cfi_def_cfa_register 13
 1483              		@ sp needed
ARM GAS  /tmp/ccpNfLZa.s 			page 56


 1484 00b6 80BD     		pop	{r7, pc}
 1485              	.L88:
 1486              		.align	2
 1487              	.L87:
 1488 00b8 00000000 		.word	pxCurrentTCB
 1489 00bc 00000000 		.word	pxDelayedTaskList
 1490 00c0 00000000 		.word	pxOverflowDelayedTaskList
 1491 00c4 00000000 		.word	xSuspendedTaskList
 1492 00c8 00000000 		.word	xTasksWaitingTermination
 1493              		.cfi_endproc
 1494              	.LFE11:
 1496              		.section	.text.uxTaskPriorityGet,"ax",%progbits
 1497              		.align	1
 1498              		.global	uxTaskPriorityGet
 1499              		.syntax unified
 1500              		.thumb
 1501              		.thumb_func
 1502              		.fpu fpv5-d16
 1504              	uxTaskPriorityGet:
 1505              	.LFB12:
1472:./Libraries/FreeRTOS/Source/tasks.c **** 
1473:./Libraries/FreeRTOS/Source/tasks.c **** #endif /* INCLUDE_eTaskGetState */
1474:./Libraries/FreeRTOS/Source/tasks.c **** /*-----------------------------------------------------------*/
1475:./Libraries/FreeRTOS/Source/tasks.c **** 
1476:./Libraries/FreeRTOS/Source/tasks.c **** #if ( INCLUDE_uxTaskPriorityGet == 1 )
1477:./Libraries/FreeRTOS/Source/tasks.c **** 
1478:./Libraries/FreeRTOS/Source/tasks.c **** 	UBaseType_t uxTaskPriorityGet( const TaskHandle_t xTask )
1479:./Libraries/FreeRTOS/Source/tasks.c **** 	{
 1506              		.loc 1 1479 2
 1507              		.cfi_startproc
 1508              		@ args = 0, pretend = 0, frame = 16
 1509              		@ frame_needed = 1, uses_anonymous_args = 0
 1510 0000 80B5     		push	{r7, lr}
 1511              	.LCFI40:
 1512              		.cfi_def_cfa_offset 8
 1513              		.cfi_offset 7, -8
 1514              		.cfi_offset 14, -4
 1515 0002 84B0     		sub	sp, sp, #16
 1516              	.LCFI41:
 1517              		.cfi_def_cfa_offset 24
 1518 0004 00AF     		add	r7, sp, #0
 1519              	.LCFI42:
 1520              		.cfi_def_cfa_register 7
 1521 0006 7860     		str	r0, [r7, #4]
1480:./Libraries/FreeRTOS/Source/tasks.c **** 	TCB_t const *pxTCB;
1481:./Libraries/FreeRTOS/Source/tasks.c **** 	UBaseType_t uxReturn;
1482:./Libraries/FreeRTOS/Source/tasks.c **** 
1483:./Libraries/FreeRTOS/Source/tasks.c **** 		taskENTER_CRITICAL();
 1522              		.loc 1 1483 3
 1523 0008 FFF7FEFF 		bl	vPortEnterCritical
1484:./Libraries/FreeRTOS/Source/tasks.c **** 		{
1485:./Libraries/FreeRTOS/Source/tasks.c **** 			/* If null is passed in here then it is the priority of the task
1486:./Libraries/FreeRTOS/Source/tasks.c **** 			that called uxTaskPriorityGet() that is being queried. */
1487:./Libraries/FreeRTOS/Source/tasks.c **** 			pxTCB = prvGetTCBFromHandle( xTask );
 1524              		.loc 1 1487 12
 1525 000c 7B68     		ldr	r3, [r7, #4]
 1526 000e 002B     		cmp	r3, #0
ARM GAS  /tmp/ccpNfLZa.s 			page 57


 1527 0010 02D1     		bne	.L90
 1528              		.loc 1 1487 12 is_stmt 0 discriminator 1
 1529 0012 074B     		ldr	r3, .L93
 1530 0014 1B68     		ldr	r3, [r3]
 1531 0016 00E0     		b	.L91
 1532              	.L90:
 1533              		.loc 1 1487 12 discriminator 2
 1534 0018 7B68     		ldr	r3, [r7, #4]
 1535              	.L91:
 1536              		.loc 1 1487 10 is_stmt 1 discriminator 4
 1537 001a FB60     		str	r3, [r7, #12]
1488:./Libraries/FreeRTOS/Source/tasks.c **** 			uxReturn = pxTCB->uxPriority;
 1538              		.loc 1 1488 13 discriminator 4
 1539 001c FB68     		ldr	r3, [r7, #12]
 1540 001e DB6A     		ldr	r3, [r3, #44]
 1541 0020 BB60     		str	r3, [r7, #8]
1489:./Libraries/FreeRTOS/Source/tasks.c **** 		}
1490:./Libraries/FreeRTOS/Source/tasks.c **** 		taskEXIT_CRITICAL();
 1542              		.loc 1 1490 3 discriminator 4
 1543 0022 FFF7FEFF 		bl	vPortExitCritical
1491:./Libraries/FreeRTOS/Source/tasks.c **** 
1492:./Libraries/FreeRTOS/Source/tasks.c **** 		return uxReturn;
 1544              		.loc 1 1492 10 discriminator 4
 1545 0026 BB68     		ldr	r3, [r7, #8]
1493:./Libraries/FreeRTOS/Source/tasks.c **** 	}
 1546              		.loc 1 1493 2 discriminator 4
 1547 0028 1846     		mov	r0, r3
 1548 002a 1037     		adds	r7, r7, #16
 1549              	.LCFI43:
 1550              		.cfi_def_cfa_offset 8
 1551 002c BD46     		mov	sp, r7
 1552              	.LCFI44:
 1553              		.cfi_def_cfa_register 13
 1554              		@ sp needed
 1555 002e 80BD     		pop	{r7, pc}
 1556              	.L94:
 1557              		.align	2
 1558              	.L93:
 1559 0030 00000000 		.word	pxCurrentTCB
 1560              		.cfi_endproc
 1561              	.LFE12:
 1563              		.section	.text.uxTaskPriorityGetFromISR,"ax",%progbits
 1564              		.align	1
 1565              		.global	uxTaskPriorityGetFromISR
 1566              		.syntax unified
 1567              		.thumb
 1568              		.thumb_func
 1569              		.fpu fpv5-d16
 1571              	uxTaskPriorityGetFromISR:
 1572              	.LFB13:
1494:./Libraries/FreeRTOS/Source/tasks.c **** 
1495:./Libraries/FreeRTOS/Source/tasks.c **** #endif /* INCLUDE_uxTaskPriorityGet */
1496:./Libraries/FreeRTOS/Source/tasks.c **** /*-----------------------------------------------------------*/
1497:./Libraries/FreeRTOS/Source/tasks.c **** 
1498:./Libraries/FreeRTOS/Source/tasks.c **** #if ( INCLUDE_uxTaskPriorityGet == 1 )
1499:./Libraries/FreeRTOS/Source/tasks.c **** 
1500:./Libraries/FreeRTOS/Source/tasks.c **** 	UBaseType_t uxTaskPriorityGetFromISR( const TaskHandle_t xTask )
ARM GAS  /tmp/ccpNfLZa.s 			page 58


1501:./Libraries/FreeRTOS/Source/tasks.c **** 	{
 1573              		.loc 1 1501 2
 1574              		.cfi_startproc
 1575              		@ args = 0, pretend = 0, frame = 32
 1576              		@ frame_needed = 1, uses_anonymous_args = 0
 1577 0000 80B5     		push	{r7, lr}
 1578              	.LCFI45:
 1579              		.cfi_def_cfa_offset 8
 1580              		.cfi_offset 7, -8
 1581              		.cfi_offset 14, -4
 1582 0002 88B0     		sub	sp, sp, #32
 1583              	.LCFI46:
 1584              		.cfi_def_cfa_offset 40
 1585 0004 00AF     		add	r7, sp, #0
 1586              	.LCFI47:
 1587              		.cfi_def_cfa_register 7
 1588 0006 7860     		str	r0, [r7, #4]
1502:./Libraries/FreeRTOS/Source/tasks.c **** 	TCB_t const *pxTCB;
1503:./Libraries/FreeRTOS/Source/tasks.c **** 	UBaseType_t uxReturn, uxSavedInterruptState;
1504:./Libraries/FreeRTOS/Source/tasks.c **** 
1505:./Libraries/FreeRTOS/Source/tasks.c **** 		/* RTOS ports that support interrupt nesting have the concept of a
1506:./Libraries/FreeRTOS/Source/tasks.c **** 		maximum	system call (or maximum API call) interrupt priority.
1507:./Libraries/FreeRTOS/Source/tasks.c **** 		Interrupts that are	above the maximum system call priority are keep
1508:./Libraries/FreeRTOS/Source/tasks.c **** 		permanently enabled, even when the RTOS kernel is in a critical section,
1509:./Libraries/FreeRTOS/Source/tasks.c **** 		but cannot make any calls to FreeRTOS API functions.  If configASSERT()
1510:./Libraries/FreeRTOS/Source/tasks.c **** 		is defined in FreeRTOSConfig.h then
1511:./Libraries/FreeRTOS/Source/tasks.c **** 		portASSERT_IF_INTERRUPT_PRIORITY_INVALID() will result in an assertion
1512:./Libraries/FreeRTOS/Source/tasks.c **** 		failure if a FreeRTOS API function is called from an interrupt that has
1513:./Libraries/FreeRTOS/Source/tasks.c **** 		been assigned a priority above the configured maximum system call
1514:./Libraries/FreeRTOS/Source/tasks.c **** 		priority.  Only FreeRTOS functions that end in FromISR can be called
1515:./Libraries/FreeRTOS/Source/tasks.c **** 		from interrupts	that have been assigned a priority at or (logically)
1516:./Libraries/FreeRTOS/Source/tasks.c **** 		below the maximum system call interrupt priority.  FreeRTOS maintains a
1517:./Libraries/FreeRTOS/Source/tasks.c **** 		separate interrupt safe API to ensure interrupt entry is as fast and as
1518:./Libraries/FreeRTOS/Source/tasks.c **** 		simple as possible.  More information (albeit Cortex-M specific) is
1519:./Libraries/FreeRTOS/Source/tasks.c **** 		provided on the following link:
1520:./Libraries/FreeRTOS/Source/tasks.c **** 		https://www.freertos.org/RTOS-Cortex-M3-M4.html */
1521:./Libraries/FreeRTOS/Source/tasks.c **** 		portASSERT_IF_INTERRUPT_PRIORITY_INVALID();
 1589              		.loc 1 1521 3
 1590 0008 FFF7FEFF 		bl	vPortValidateInterruptPriority
 1591              	.LBB142:
 1592              	.LBB143:
 204:./Libraries/FreeRTOS/Source/portable/GCC/ARM_CM4F/portmacro.h **** 
 205:./Libraries/FreeRTOS/Source/portable/GCC/ARM_CM4F/portmacro.h **** /*-----------------------------------------------------------*/
 206:./Libraries/FreeRTOS/Source/portable/GCC/ARM_CM4F/portmacro.h **** 
 207:./Libraries/FreeRTOS/Source/portable/GCC/ARM_CM4F/portmacro.h **** portFORCE_INLINE static uint32_t ulPortRaiseBASEPRI( void )
 208:./Libraries/FreeRTOS/Source/portable/GCC/ARM_CM4F/portmacro.h **** {
 209:./Libraries/FreeRTOS/Source/portable/GCC/ARM_CM4F/portmacro.h **** uint32_t ulOriginalBASEPRI, ulNewBASEPRI;
 210:./Libraries/FreeRTOS/Source/portable/GCC/ARM_CM4F/portmacro.h **** 
 211:./Libraries/FreeRTOS/Source/portable/GCC/ARM_CM4F/portmacro.h **** 	__asm volatile
 1593              		.loc 2 211 2
 1594              		.syntax unified
 1595              	@ 211 "./Libraries/FreeRTOS/Source/portable/GCC/ARM_CM4F/portmacro.h" 1
 1596 000c EFF31182 			mrs r2, basepri											
 1597 0010 4FF05003 		mov r3, #80												
 1598 0014 83F31188 		msr basepri, r3											
 1599 0018 BFF36F8F 		isb														
 1600 001c BFF34F8F 		dsb														
ARM GAS  /tmp/ccpNfLZa.s 			page 59


 1601              	
 1602              	@ 0 "" 2
 1603              		.thumb
 1604              		.syntax unified
 1605 0020 3A61     		str	r2, [r7, #16]
 1606 0022 FB60     		str	r3, [r7, #12]
 212:./Libraries/FreeRTOS/Source/portable/GCC/ARM_CM4F/portmacro.h **** 	(
 213:./Libraries/FreeRTOS/Source/portable/GCC/ARM_CM4F/portmacro.h **** 		"	mrs %0, basepri											\n" \
 214:./Libraries/FreeRTOS/Source/portable/GCC/ARM_CM4F/portmacro.h **** 		"	mov %1, %2												\n"	\
 215:./Libraries/FreeRTOS/Source/portable/GCC/ARM_CM4F/portmacro.h **** 		"	msr basepri, %1											\n" \
 216:./Libraries/FreeRTOS/Source/portable/GCC/ARM_CM4F/portmacro.h **** 		"	isb														\n" \
 217:./Libraries/FreeRTOS/Source/portable/GCC/ARM_CM4F/portmacro.h **** 		"	dsb														\n" \
 218:./Libraries/FreeRTOS/Source/portable/GCC/ARM_CM4F/portmacro.h **** 		:"=r" (ulOriginalBASEPRI), "=r" (ulNewBASEPRI) : "i" ( configMAX_SYSCALL_INTERRUPT_PRIORITY ) : "
 219:./Libraries/FreeRTOS/Source/portable/GCC/ARM_CM4F/portmacro.h **** 	);
 220:./Libraries/FreeRTOS/Source/portable/GCC/ARM_CM4F/portmacro.h **** 
 221:./Libraries/FreeRTOS/Source/portable/GCC/ARM_CM4F/portmacro.h **** 	/* This return will not be reached but is necessary to prevent compiler
 222:./Libraries/FreeRTOS/Source/portable/GCC/ARM_CM4F/portmacro.h **** 	warnings. */
 223:./Libraries/FreeRTOS/Source/portable/GCC/ARM_CM4F/portmacro.h **** 	return ulOriginalBASEPRI;
 1607              		.loc 2 223 9
 1608 0024 3B69     		ldr	r3, [r7, #16]
 1609              	.LBE143:
 1610              	.LBE142:
1522:./Libraries/FreeRTOS/Source/tasks.c **** 
1523:./Libraries/FreeRTOS/Source/tasks.c **** 		uxSavedInterruptState = portSET_INTERRUPT_MASK_FROM_ISR();
 1611              		.loc 1 1523 27
 1612 0026 FB61     		str	r3, [r7, #28]
1524:./Libraries/FreeRTOS/Source/tasks.c **** 		{
1525:./Libraries/FreeRTOS/Source/tasks.c **** 			/* If null is passed in here then it is the priority of the calling
1526:./Libraries/FreeRTOS/Source/tasks.c **** 			task that is being queried. */
1527:./Libraries/FreeRTOS/Source/tasks.c **** 			pxTCB = prvGetTCBFromHandle( xTask );
 1613              		.loc 1 1527 12
 1614 0028 7B68     		ldr	r3, [r7, #4]
 1615 002a 002B     		cmp	r3, #0
 1616 002c 02D1     		bne	.L97
 1617              		.loc 1 1527 12 is_stmt 0 discriminator 1
 1618 002e 094B     		ldr	r3, .L100
 1619 0030 1B68     		ldr	r3, [r3]
 1620 0032 00E0     		b	.L98
 1621              	.L97:
 1622              		.loc 1 1527 12 discriminator 2
 1623 0034 7B68     		ldr	r3, [r7, #4]
 1624              	.L98:
 1625              		.loc 1 1527 10 is_stmt 1 discriminator 4
 1626 0036 BB61     		str	r3, [r7, #24]
1528:./Libraries/FreeRTOS/Source/tasks.c **** 			uxReturn = pxTCB->uxPriority;
 1627              		.loc 1 1528 13 discriminator 4
 1628 0038 BB69     		ldr	r3, [r7, #24]
 1629 003a DB6A     		ldr	r3, [r3, #44]
 1630 003c 7B61     		str	r3, [r7, #20]
 1631 003e FB69     		ldr	r3, [r7, #28]
 1632 0040 BB60     		str	r3, [r7, #8]
 1633              	.LBB144:
 1634              	.LBB145:
 224:./Libraries/FreeRTOS/Source/portable/GCC/ARM_CM4F/portmacro.h **** }
 225:./Libraries/FreeRTOS/Source/portable/GCC/ARM_CM4F/portmacro.h **** /*-----------------------------------------------------------*/
 226:./Libraries/FreeRTOS/Source/portable/GCC/ARM_CM4F/portmacro.h **** 
 227:./Libraries/FreeRTOS/Source/portable/GCC/ARM_CM4F/portmacro.h **** portFORCE_INLINE static void vPortSetBASEPRI( uint32_t ulNewMaskValue )
ARM GAS  /tmp/ccpNfLZa.s 			page 60


 228:./Libraries/FreeRTOS/Source/portable/GCC/ARM_CM4F/portmacro.h **** {
 229:./Libraries/FreeRTOS/Source/portable/GCC/ARM_CM4F/portmacro.h **** 	__asm volatile
 1635              		.loc 2 229 2 discriminator 4
 1636 0042 BB68     		ldr	r3, [r7, #8]
 1637              		.syntax unified
 1638              	@ 229 "./Libraries/FreeRTOS/Source/portable/GCC/ARM_CM4F/portmacro.h" 1
 1639 0044 83F31188 			msr basepri, r3	
 1640              	@ 0 "" 2
 230:./Libraries/FreeRTOS/Source/portable/GCC/ARM_CM4F/portmacro.h **** 	(
 231:./Libraries/FreeRTOS/Source/portable/GCC/ARM_CM4F/portmacro.h **** 		"	msr basepri, %0	" :: "r" ( ulNewMaskValue ) : "memory"
 232:./Libraries/FreeRTOS/Source/portable/GCC/ARM_CM4F/portmacro.h **** 	);
 233:./Libraries/FreeRTOS/Source/portable/GCC/ARM_CM4F/portmacro.h **** }
 1641              		.loc 2 233 1 discriminator 4
 1642              		.thumb
 1643              		.syntax unified
 1644 0048 00BF     		nop
 1645              	.LBE145:
 1646              	.LBE144:
1529:./Libraries/FreeRTOS/Source/tasks.c **** 		}
1530:./Libraries/FreeRTOS/Source/tasks.c **** 		portCLEAR_INTERRUPT_MASK_FROM_ISR( uxSavedInterruptState );
1531:./Libraries/FreeRTOS/Source/tasks.c **** 
1532:./Libraries/FreeRTOS/Source/tasks.c **** 		return uxReturn;
 1647              		.loc 1 1532 10 discriminator 4
 1648 004a 7B69     		ldr	r3, [r7, #20]
1533:./Libraries/FreeRTOS/Source/tasks.c **** 	}
 1649              		.loc 1 1533 2 discriminator 4
 1650 004c 1846     		mov	r0, r3
 1651 004e 2037     		adds	r7, r7, #32
 1652              	.LCFI48:
 1653              		.cfi_def_cfa_offset 8
 1654 0050 BD46     		mov	sp, r7
 1655              	.LCFI49:
 1656              		.cfi_def_cfa_register 13
 1657              		@ sp needed
 1658 0052 80BD     		pop	{r7, pc}
 1659              	.L101:
 1660              		.align	2
 1661              	.L100:
 1662 0054 00000000 		.word	pxCurrentTCB
 1663              		.cfi_endproc
 1664              	.LFE13:
 1666              		.section	.text.vTaskPrioritySet,"ax",%progbits
 1667              		.align	1
 1668              		.global	vTaskPrioritySet
 1669              		.syntax unified
 1670              		.thumb
 1671              		.thumb_func
 1672              		.fpu fpv5-d16
 1674              	vTaskPrioritySet:
 1675              	.LFB14:
1534:./Libraries/FreeRTOS/Source/tasks.c **** 
1535:./Libraries/FreeRTOS/Source/tasks.c **** #endif /* INCLUDE_uxTaskPriorityGet */
1536:./Libraries/FreeRTOS/Source/tasks.c **** /*-----------------------------------------------------------*/
1537:./Libraries/FreeRTOS/Source/tasks.c **** 
1538:./Libraries/FreeRTOS/Source/tasks.c **** #if ( INCLUDE_vTaskPrioritySet == 1 )
1539:./Libraries/FreeRTOS/Source/tasks.c **** 
1540:./Libraries/FreeRTOS/Source/tasks.c **** 	void vTaskPrioritySet( TaskHandle_t xTask, UBaseType_t uxNewPriority )
ARM GAS  /tmp/ccpNfLZa.s 			page 61


1541:./Libraries/FreeRTOS/Source/tasks.c **** 	{
 1676              		.loc 1 1541 2
 1677              		.cfi_startproc
 1678              		@ args = 0, pretend = 0, frame = 32
 1679              		@ frame_needed = 1, uses_anonymous_args = 0
 1680 0000 80B5     		push	{r7, lr}
 1681              	.LCFI50:
 1682              		.cfi_def_cfa_offset 8
 1683              		.cfi_offset 7, -8
 1684              		.cfi_offset 14, -4
 1685 0002 88B0     		sub	sp, sp, #32
 1686              	.LCFI51:
 1687              		.cfi_def_cfa_offset 40
 1688 0004 00AF     		add	r7, sp, #0
 1689              	.LCFI52:
 1690              		.cfi_def_cfa_register 7
 1691 0006 7860     		str	r0, [r7, #4]
 1692 0008 3960     		str	r1, [r7]
1542:./Libraries/FreeRTOS/Source/tasks.c **** 	TCB_t *pxTCB;
1543:./Libraries/FreeRTOS/Source/tasks.c **** 	UBaseType_t uxCurrentBasePriority, uxPriorityUsedOnEntry;
1544:./Libraries/FreeRTOS/Source/tasks.c **** 	BaseType_t xYieldRequired = pdFALSE;
 1693              		.loc 1 1544 13
 1694 000a 0023     		movs	r3, #0
 1695 000c FB61     		str	r3, [r7, #28]
1545:./Libraries/FreeRTOS/Source/tasks.c **** 
1546:./Libraries/FreeRTOS/Source/tasks.c **** 		configASSERT( ( uxNewPriority < configMAX_PRIORITIES ) );
 1696              		.loc 1 1546 3
 1697 000e 3B68     		ldr	r3, [r7]
 1698 0010 372B     		cmp	r3, #55
 1699 0012 0AD9     		bls	.L103
 1700              	.LBB146:
 1701              	.LBB147:
 195:./Libraries/FreeRTOS/Source/portable/GCC/ARM_CM4F/portmacro.h **** 	(
 1702              		.loc 2 195 2
 1703              		.syntax unified
 1704              	@ 195 "./Libraries/FreeRTOS/Source/portable/GCC/ARM_CM4F/portmacro.h" 1
 1705 0014 4FF05003 			mov r3, #80												
 1706 0018 83F31188 		msr basepri, r3											
 1707 001c BFF36F8F 		isb														
 1708 0020 BFF34F8F 		dsb														
 1709              	
 1710              	@ 0 "" 2
 1711              		.thumb
 1712              		.syntax unified
 1713 0024 FB60     		str	r3, [r7, #12]
 203:./Libraries/FreeRTOS/Source/portable/GCC/ARM_CM4F/portmacro.h **** 
 1714              		.loc 2 203 1
 1715 0026 00BF     		nop
 1716              	.L104:
 1717              	.LBE147:
 1718              	.LBE146:
 1719              		.loc 1 1546 3 discriminator 1
 1720 0028 FEE7     		b	.L104
 1721              	.L103:
1547:./Libraries/FreeRTOS/Source/tasks.c **** 
1548:./Libraries/FreeRTOS/Source/tasks.c **** 		/* Ensure the new priority is valid. */
1549:./Libraries/FreeRTOS/Source/tasks.c **** 		if( uxNewPriority >= ( UBaseType_t ) configMAX_PRIORITIES )
ARM GAS  /tmp/ccpNfLZa.s 			page 62


 1722              		.loc 1 1549 5
 1723 002a 3B68     		ldr	r3, [r7]
 1724 002c 372B     		cmp	r3, #55
 1725 002e 01D9     		bls	.L105
1550:./Libraries/FreeRTOS/Source/tasks.c **** 		{
1551:./Libraries/FreeRTOS/Source/tasks.c **** 			uxNewPriority = ( UBaseType_t ) configMAX_PRIORITIES - ( UBaseType_t ) 1U;
 1726              		.loc 1 1551 18
 1727 0030 3723     		movs	r3, #55
 1728 0032 3B60     		str	r3, [r7]
 1729              	.L105:
1552:./Libraries/FreeRTOS/Source/tasks.c **** 		}
1553:./Libraries/FreeRTOS/Source/tasks.c **** 		else
1554:./Libraries/FreeRTOS/Source/tasks.c **** 		{
1555:./Libraries/FreeRTOS/Source/tasks.c **** 			mtCOVERAGE_TEST_MARKER();
1556:./Libraries/FreeRTOS/Source/tasks.c **** 		}
1557:./Libraries/FreeRTOS/Source/tasks.c **** 
1558:./Libraries/FreeRTOS/Source/tasks.c **** 		taskENTER_CRITICAL();
 1730              		.loc 1 1558 3
 1731 0034 FFF7FEFF 		bl	vPortEnterCritical
1559:./Libraries/FreeRTOS/Source/tasks.c **** 		{
1560:./Libraries/FreeRTOS/Source/tasks.c **** 			/* If null is passed in here then it is the priority of the calling
1561:./Libraries/FreeRTOS/Source/tasks.c **** 			task that is being changed. */
1562:./Libraries/FreeRTOS/Source/tasks.c **** 			pxTCB = prvGetTCBFromHandle( xTask );
 1732              		.loc 1 1562 12
 1733 0038 7B68     		ldr	r3, [r7, #4]
 1734 003a 002B     		cmp	r3, #0
 1735 003c 02D1     		bne	.L106
 1736              		.loc 1 1562 12 is_stmt 0 discriminator 1
 1737 003e 3B4B     		ldr	r3, .L115
 1738 0040 1B68     		ldr	r3, [r3]
 1739 0042 00E0     		b	.L107
 1740              	.L106:
 1741              		.loc 1 1562 12 discriminator 2
 1742 0044 7B68     		ldr	r3, [r7, #4]
 1743              	.L107:
 1744              		.loc 1 1562 10 is_stmt 1 discriminator 4
 1745 0046 BB61     		str	r3, [r7, #24]
1563:./Libraries/FreeRTOS/Source/tasks.c **** 
1564:./Libraries/FreeRTOS/Source/tasks.c **** 			traceTASK_PRIORITY_SET( pxTCB, uxNewPriority );
1565:./Libraries/FreeRTOS/Source/tasks.c **** 
1566:./Libraries/FreeRTOS/Source/tasks.c **** 			#if ( configUSE_MUTEXES == 1 )
1567:./Libraries/FreeRTOS/Source/tasks.c **** 			{
1568:./Libraries/FreeRTOS/Source/tasks.c **** 				uxCurrentBasePriority = pxTCB->uxBasePriority;
 1746              		.loc 1 1568 27 discriminator 4
 1747 0048 BB69     		ldr	r3, [r7, #24]
 1748 004a DB6C     		ldr	r3, [r3, #76]
 1749 004c 7B61     		str	r3, [r7, #20]
1569:./Libraries/FreeRTOS/Source/tasks.c **** 			}
1570:./Libraries/FreeRTOS/Source/tasks.c **** 			#else
1571:./Libraries/FreeRTOS/Source/tasks.c **** 			{
1572:./Libraries/FreeRTOS/Source/tasks.c **** 				uxCurrentBasePriority = pxTCB->uxPriority;
1573:./Libraries/FreeRTOS/Source/tasks.c **** 			}
1574:./Libraries/FreeRTOS/Source/tasks.c **** 			#endif
1575:./Libraries/FreeRTOS/Source/tasks.c **** 
1576:./Libraries/FreeRTOS/Source/tasks.c **** 			if( uxCurrentBasePriority != uxNewPriority )
 1750              		.loc 1 1576 6 discriminator 4
 1751 004e 7A69     		ldr	r2, [r7, #20]
ARM GAS  /tmp/ccpNfLZa.s 			page 63


 1752 0050 3B68     		ldr	r3, [r7]
 1753 0052 9A42     		cmp	r2, r3
 1754 0054 63D0     		beq	.L108
1577:./Libraries/FreeRTOS/Source/tasks.c **** 			{
1578:./Libraries/FreeRTOS/Source/tasks.c **** 				/* The priority change may have readied a task of higher
1579:./Libraries/FreeRTOS/Source/tasks.c **** 				priority than the calling task. */
1580:./Libraries/FreeRTOS/Source/tasks.c **** 				if( uxNewPriority > uxCurrentBasePriority )
 1755              		.loc 1 1580 7
 1756 0056 3A68     		ldr	r2, [r7]
 1757 0058 7B69     		ldr	r3, [r7, #20]
 1758 005a 9A42     		cmp	r2, r3
 1759 005c 0DD9     		bls	.L109
1581:./Libraries/FreeRTOS/Source/tasks.c **** 				{
1582:./Libraries/FreeRTOS/Source/tasks.c **** 					if( pxTCB != pxCurrentTCB )
 1760              		.loc 1 1582 16
 1761 005e 334B     		ldr	r3, .L115
 1762 0060 1B68     		ldr	r3, [r3]
 1763              		.loc 1 1582 8
 1764 0062 BA69     		ldr	r2, [r7, #24]
 1765 0064 9A42     		cmp	r2, r3
 1766 0066 0FD0     		beq	.L110
1583:./Libraries/FreeRTOS/Source/tasks.c **** 					{
1584:./Libraries/FreeRTOS/Source/tasks.c **** 						/* The priority of a task other than the currently
1585:./Libraries/FreeRTOS/Source/tasks.c **** 						running task is being raised.  Is the priority being
1586:./Libraries/FreeRTOS/Source/tasks.c **** 						raised above that of the running task? */
1587:./Libraries/FreeRTOS/Source/tasks.c **** 						if( uxNewPriority >= pxCurrentTCB->uxPriority )
 1767              		.loc 1 1587 40
 1768 0068 304B     		ldr	r3, .L115
 1769 006a 1B68     		ldr	r3, [r3]
 1770 006c DB6A     		ldr	r3, [r3, #44]
 1771              		.loc 1 1587 9
 1772 006e 3A68     		ldr	r2, [r7]
 1773 0070 9A42     		cmp	r2, r3
 1774 0072 09D3     		bcc	.L110
1588:./Libraries/FreeRTOS/Source/tasks.c **** 						{
1589:./Libraries/FreeRTOS/Source/tasks.c **** 							xYieldRequired = pdTRUE;
 1775              		.loc 1 1589 23
 1776 0074 0123     		movs	r3, #1
 1777 0076 FB61     		str	r3, [r7, #28]
 1778 0078 06E0     		b	.L110
 1779              	.L109:
1590:./Libraries/FreeRTOS/Source/tasks.c **** 						}
1591:./Libraries/FreeRTOS/Source/tasks.c **** 						else
1592:./Libraries/FreeRTOS/Source/tasks.c **** 						{
1593:./Libraries/FreeRTOS/Source/tasks.c **** 							mtCOVERAGE_TEST_MARKER();
1594:./Libraries/FreeRTOS/Source/tasks.c **** 						}
1595:./Libraries/FreeRTOS/Source/tasks.c **** 					}
1596:./Libraries/FreeRTOS/Source/tasks.c **** 					else
1597:./Libraries/FreeRTOS/Source/tasks.c **** 					{
1598:./Libraries/FreeRTOS/Source/tasks.c **** 						/* The priority of the running task is being raised,
1599:./Libraries/FreeRTOS/Source/tasks.c **** 						but the running task must already be the highest
1600:./Libraries/FreeRTOS/Source/tasks.c **** 						priority task able to run so no yield is required. */
1601:./Libraries/FreeRTOS/Source/tasks.c **** 					}
1602:./Libraries/FreeRTOS/Source/tasks.c **** 				}
1603:./Libraries/FreeRTOS/Source/tasks.c **** 				else if( pxTCB == pxCurrentTCB )
 1780              		.loc 1 1603 20
 1781 007a 2C4B     		ldr	r3, .L115
ARM GAS  /tmp/ccpNfLZa.s 			page 64


 1782 007c 1B68     		ldr	r3, [r3]
 1783              		.loc 1 1603 12
 1784 007e BA69     		ldr	r2, [r7, #24]
 1785 0080 9A42     		cmp	r2, r3
 1786 0082 01D1     		bne	.L110
1604:./Libraries/FreeRTOS/Source/tasks.c **** 				{
1605:./Libraries/FreeRTOS/Source/tasks.c **** 					/* Setting the priority of the running task down means
1606:./Libraries/FreeRTOS/Source/tasks.c **** 					there may now be another task of higher priority that
1607:./Libraries/FreeRTOS/Source/tasks.c **** 					is ready to execute. */
1608:./Libraries/FreeRTOS/Source/tasks.c **** 					xYieldRequired = pdTRUE;
 1787              		.loc 1 1608 21
 1788 0084 0123     		movs	r3, #1
 1789 0086 FB61     		str	r3, [r7, #28]
 1790              	.L110:
1609:./Libraries/FreeRTOS/Source/tasks.c **** 				}
1610:./Libraries/FreeRTOS/Source/tasks.c **** 				else
1611:./Libraries/FreeRTOS/Source/tasks.c **** 				{
1612:./Libraries/FreeRTOS/Source/tasks.c **** 					/* Setting the priority of any other task down does not
1613:./Libraries/FreeRTOS/Source/tasks.c **** 					require a yield as the running task must be above the
1614:./Libraries/FreeRTOS/Source/tasks.c **** 					new priority of the task being modified. */
1615:./Libraries/FreeRTOS/Source/tasks.c **** 				}
1616:./Libraries/FreeRTOS/Source/tasks.c **** 
1617:./Libraries/FreeRTOS/Source/tasks.c **** 				/* Remember the ready list the task might be referenced from
1618:./Libraries/FreeRTOS/Source/tasks.c **** 				before its uxPriority member is changed so the
1619:./Libraries/FreeRTOS/Source/tasks.c **** 				taskRESET_READY_PRIORITY() macro can function correctly. */
1620:./Libraries/FreeRTOS/Source/tasks.c **** 				uxPriorityUsedOnEntry = pxTCB->uxPriority;
 1791              		.loc 1 1620 27
 1792 0088 BB69     		ldr	r3, [r7, #24]
 1793 008a DB6A     		ldr	r3, [r3, #44]
 1794 008c 3B61     		str	r3, [r7, #16]
1621:./Libraries/FreeRTOS/Source/tasks.c **** 
1622:./Libraries/FreeRTOS/Source/tasks.c **** 				#if ( configUSE_MUTEXES == 1 )
1623:./Libraries/FreeRTOS/Source/tasks.c **** 				{
1624:./Libraries/FreeRTOS/Source/tasks.c **** 					/* Only change the priority being used if the task is not
1625:./Libraries/FreeRTOS/Source/tasks.c **** 					currently using an inherited priority. */
1626:./Libraries/FreeRTOS/Source/tasks.c **** 					if( pxTCB->uxBasePriority == pxTCB->uxPriority )
 1795              		.loc 1 1626 15
 1796 008e BB69     		ldr	r3, [r7, #24]
 1797 0090 DA6C     		ldr	r2, [r3, #76]
 1798              		.loc 1 1626 40
 1799 0092 BB69     		ldr	r3, [r7, #24]
 1800 0094 DB6A     		ldr	r3, [r3, #44]
 1801              		.loc 1 1626 8
 1802 0096 9A42     		cmp	r2, r3
 1803 0098 02D1     		bne	.L111
1627:./Libraries/FreeRTOS/Source/tasks.c **** 					{
1628:./Libraries/FreeRTOS/Source/tasks.c **** 						pxTCB->uxPriority = uxNewPriority;
 1804              		.loc 1 1628 25
 1805 009a BB69     		ldr	r3, [r7, #24]
 1806 009c 3A68     		ldr	r2, [r7]
 1807 009e DA62     		str	r2, [r3, #44]
 1808              	.L111:
1629:./Libraries/FreeRTOS/Source/tasks.c **** 					}
1630:./Libraries/FreeRTOS/Source/tasks.c **** 					else
1631:./Libraries/FreeRTOS/Source/tasks.c **** 					{
1632:./Libraries/FreeRTOS/Source/tasks.c **** 						mtCOVERAGE_TEST_MARKER();
1633:./Libraries/FreeRTOS/Source/tasks.c **** 					}
ARM GAS  /tmp/ccpNfLZa.s 			page 65


1634:./Libraries/FreeRTOS/Source/tasks.c **** 
1635:./Libraries/FreeRTOS/Source/tasks.c **** 					/* The base priority gets set whatever. */
1636:./Libraries/FreeRTOS/Source/tasks.c **** 					pxTCB->uxBasePriority = uxNewPriority;
 1809              		.loc 1 1636 28
 1810 00a0 BB69     		ldr	r3, [r7, #24]
 1811 00a2 3A68     		ldr	r2, [r7]
 1812 00a4 DA64     		str	r2, [r3, #76]
1637:./Libraries/FreeRTOS/Source/tasks.c **** 				}
1638:./Libraries/FreeRTOS/Source/tasks.c **** 				#else
1639:./Libraries/FreeRTOS/Source/tasks.c **** 				{
1640:./Libraries/FreeRTOS/Source/tasks.c **** 					pxTCB->uxPriority = uxNewPriority;
1641:./Libraries/FreeRTOS/Source/tasks.c **** 				}
1642:./Libraries/FreeRTOS/Source/tasks.c **** 				#endif
1643:./Libraries/FreeRTOS/Source/tasks.c **** 
1644:./Libraries/FreeRTOS/Source/tasks.c **** 				/* Only reset the event list item value if the value is not
1645:./Libraries/FreeRTOS/Source/tasks.c **** 				being used for anything else. */
1646:./Libraries/FreeRTOS/Source/tasks.c **** 				if( ( listGET_LIST_ITEM_VALUE( &( pxTCB->xEventListItem ) ) & taskEVENT_LIST_ITEM_VALUE_IN_USE 
 1813              		.loc 1 1646 11
 1814 00a6 BB69     		ldr	r3, [r7, #24]
 1815 00a8 9B69     		ldr	r3, [r3, #24]
 1816              		.loc 1 1646 7
 1817 00aa 002B     		cmp	r3, #0
 1818 00ac 04DB     		blt	.L112
1647:./Libraries/FreeRTOS/Source/tasks.c **** 				{
1648:./Libraries/FreeRTOS/Source/tasks.c **** 					listSET_LIST_ITEM_VALUE( &( pxTCB->xEventListItem ), ( ( TickType_t ) configMAX_PRIORITIES - (
 1819              		.loc 1 1648 6
 1820 00ae 3B68     		ldr	r3, [r7]
 1821 00b0 C3F13802 		rsb	r2, r3, #56
 1822 00b4 BB69     		ldr	r3, [r7, #24]
 1823 00b6 9A61     		str	r2, [r3, #24]
 1824              	.L112:
1649:./Libraries/FreeRTOS/Source/tasks.c **** 				}
1650:./Libraries/FreeRTOS/Source/tasks.c **** 				else
1651:./Libraries/FreeRTOS/Source/tasks.c **** 				{
1652:./Libraries/FreeRTOS/Source/tasks.c **** 					mtCOVERAGE_TEST_MARKER();
1653:./Libraries/FreeRTOS/Source/tasks.c **** 				}
1654:./Libraries/FreeRTOS/Source/tasks.c **** 
1655:./Libraries/FreeRTOS/Source/tasks.c **** 				/* If the task is in the blocked or suspended list we need do
1656:./Libraries/FreeRTOS/Source/tasks.c **** 				nothing more than change its priority variable. However, if
1657:./Libraries/FreeRTOS/Source/tasks.c **** 				the task is in a ready list it needs to be removed and placed
1658:./Libraries/FreeRTOS/Source/tasks.c **** 				in the list appropriate to its new priority. */
1659:./Libraries/FreeRTOS/Source/tasks.c **** 				if( listIS_CONTAINED_WITHIN( &( pxReadyTasksLists[ uxPriorityUsedOnEntry ] ), &( pxTCB->xStateL
 1825              		.loc 1 1659 9
 1826 00b8 BB69     		ldr	r3, [r7, #24]
 1827 00ba 5969     		ldr	r1, [r3, #20]
 1828 00bc 3A69     		ldr	r2, [r7, #16]
 1829 00be 1346     		mov	r3, r2
 1830 00c0 9B00     		lsls	r3, r3, #2
 1831 00c2 1344     		add	r3, r3, r2
 1832 00c4 9B00     		lsls	r3, r3, #2
 1833 00c6 1A4A     		ldr	r2, .L115+4
 1834 00c8 1344     		add	r3, r3, r2
 1835              		.loc 1 1659 7
 1836 00ca 9942     		cmp	r1, r3
 1837 00cc 1CD1     		bne	.L113
1660:./Libraries/FreeRTOS/Source/tasks.c **** 				{
1661:./Libraries/FreeRTOS/Source/tasks.c **** 					/* The task is currently in its ready list - remove before
ARM GAS  /tmp/ccpNfLZa.s 			page 66


1662:./Libraries/FreeRTOS/Source/tasks.c **** 					adding it to it's new ready list.  As we are in a critical
1663:./Libraries/FreeRTOS/Source/tasks.c **** 					section we can do this even if the scheduler is suspended. */
1664:./Libraries/FreeRTOS/Source/tasks.c **** 					if( uxListRemove( &( pxTCB->xStateListItem ) ) == ( UBaseType_t ) 0 )
 1838              		.loc 1 1664 10
 1839 00ce BB69     		ldr	r3, [r7, #24]
 1840 00d0 0433     		adds	r3, r3, #4
 1841 00d2 1846     		mov	r0, r3
 1842 00d4 FFF7FEFF 		bl	uxListRemove
1665:./Libraries/FreeRTOS/Source/tasks.c **** 					{
1666:./Libraries/FreeRTOS/Source/tasks.c **** 						/* It is known that the task is in its ready list so
1667:./Libraries/FreeRTOS/Source/tasks.c **** 						there is no need to check again and the port level
1668:./Libraries/FreeRTOS/Source/tasks.c **** 						reset macro can be called directly. */
1669:./Libraries/FreeRTOS/Source/tasks.c **** 						portRESET_READY_PRIORITY( uxPriorityUsedOnEntry, uxTopReadyPriority );
1670:./Libraries/FreeRTOS/Source/tasks.c **** 					}
1671:./Libraries/FreeRTOS/Source/tasks.c **** 					else
1672:./Libraries/FreeRTOS/Source/tasks.c **** 					{
1673:./Libraries/FreeRTOS/Source/tasks.c **** 						mtCOVERAGE_TEST_MARKER();
1674:./Libraries/FreeRTOS/Source/tasks.c **** 					}
1675:./Libraries/FreeRTOS/Source/tasks.c **** 					prvAddTaskToReadyList( pxTCB );
 1843              		.loc 1 1675 6
 1844 00d8 BB69     		ldr	r3, [r7, #24]
 1845 00da DA6A     		ldr	r2, [r3, #44]
 1846 00dc 154B     		ldr	r3, .L115+8
 1847 00de 1B68     		ldr	r3, [r3]
 1848 00e0 9A42     		cmp	r2, r3
 1849 00e2 03D9     		bls	.L114
 1850              		.loc 1 1675 6 is_stmt 0 discriminator 1
 1851 00e4 BB69     		ldr	r3, [r7, #24]
 1852 00e6 DB6A     		ldr	r3, [r3, #44]
 1853 00e8 124A     		ldr	r2, .L115+8
 1854 00ea 1360     		str	r3, [r2]
 1855              	.L114:
 1856              		.loc 1 1675 6 discriminator 3
 1857 00ec BB69     		ldr	r3, [r7, #24]
 1858 00ee DA6A     		ldr	r2, [r3, #44]
 1859 00f0 1346     		mov	r3, r2
 1860 00f2 9B00     		lsls	r3, r3, #2
 1861 00f4 1344     		add	r3, r3, r2
 1862 00f6 9B00     		lsls	r3, r3, #2
 1863 00f8 0D4A     		ldr	r2, .L115+4
 1864 00fa 1A44     		add	r2, r2, r3
 1865 00fc BB69     		ldr	r3, [r7, #24]
 1866 00fe 0433     		adds	r3, r3, #4
 1867 0100 1946     		mov	r1, r3
 1868 0102 1046     		mov	r0, r2
 1869 0104 FFF7FEFF 		bl	vListInsertEnd
 1870              	.L113:
1676:./Libraries/FreeRTOS/Source/tasks.c **** 				}
1677:./Libraries/FreeRTOS/Source/tasks.c **** 				else
1678:./Libraries/FreeRTOS/Source/tasks.c **** 				{
1679:./Libraries/FreeRTOS/Source/tasks.c **** 					mtCOVERAGE_TEST_MARKER();
1680:./Libraries/FreeRTOS/Source/tasks.c **** 				}
1681:./Libraries/FreeRTOS/Source/tasks.c **** 
1682:./Libraries/FreeRTOS/Source/tasks.c **** 				if( xYieldRequired != pdFALSE )
 1871              		.loc 1 1682 7 is_stmt 1
 1872 0108 FB69     		ldr	r3, [r7, #28]
 1873 010a 002B     		cmp	r3, #0
ARM GAS  /tmp/ccpNfLZa.s 			page 67


 1874 010c 07D0     		beq	.L108
1683:./Libraries/FreeRTOS/Source/tasks.c **** 				{
1684:./Libraries/FreeRTOS/Source/tasks.c **** 					taskYIELD_IF_USING_PREEMPTION();
 1875              		.loc 1 1684 6
 1876 010e 0A4B     		ldr	r3, .L115+12
 1877 0110 4FF08052 		mov	r2, #268435456
 1878 0114 1A60     		str	r2, [r3]
 1879              		.syntax unified
 1880              	@ 1684 "./Libraries/FreeRTOS/Source/tasks.c" 1
 1881 0116 BFF34F8F 		dsb
 1882              	@ 0 "" 2
 1883              	@ 1684 "./Libraries/FreeRTOS/Source/tasks.c" 1
 1884 011a BFF36F8F 		isb
 1885              	@ 0 "" 2
 1886              		.thumb
 1887              		.syntax unified
 1888              	.L108:
1685:./Libraries/FreeRTOS/Source/tasks.c **** 				}
1686:./Libraries/FreeRTOS/Source/tasks.c **** 				else
1687:./Libraries/FreeRTOS/Source/tasks.c **** 				{
1688:./Libraries/FreeRTOS/Source/tasks.c **** 					mtCOVERAGE_TEST_MARKER();
1689:./Libraries/FreeRTOS/Source/tasks.c **** 				}
1690:./Libraries/FreeRTOS/Source/tasks.c **** 
1691:./Libraries/FreeRTOS/Source/tasks.c **** 				/* Remove compiler warning about unused variables when the port
1692:./Libraries/FreeRTOS/Source/tasks.c **** 				optimised task selection is not being used. */
1693:./Libraries/FreeRTOS/Source/tasks.c **** 				( void ) uxPriorityUsedOnEntry;
1694:./Libraries/FreeRTOS/Source/tasks.c **** 			}
1695:./Libraries/FreeRTOS/Source/tasks.c **** 		}
1696:./Libraries/FreeRTOS/Source/tasks.c **** 		taskEXIT_CRITICAL();
 1889              		.loc 1 1696 3
 1890 011e FFF7FEFF 		bl	vPortExitCritical
1697:./Libraries/FreeRTOS/Source/tasks.c **** 	}
 1891              		.loc 1 1697 2
 1892 0122 00BF     		nop
 1893 0124 2037     		adds	r7, r7, #32
 1894              	.LCFI53:
 1895              		.cfi_def_cfa_offset 8
 1896 0126 BD46     		mov	sp, r7
 1897              	.LCFI54:
 1898              		.cfi_def_cfa_register 13
 1899              		@ sp needed
 1900 0128 80BD     		pop	{r7, pc}
 1901              	.L116:
 1902 012a 00BF     		.align	2
 1903              	.L115:
 1904 012c 00000000 		.word	pxCurrentTCB
 1905 0130 00000000 		.word	pxReadyTasksLists
 1906 0134 00000000 		.word	uxTopReadyPriority
 1907 0138 04ED00E0 		.word	-536810236
 1908              		.cfi_endproc
 1909              	.LFE14:
 1911              		.section	.text.vTaskSuspend,"ax",%progbits
 1912              		.align	1
 1913              		.global	vTaskSuspend
 1914              		.syntax unified
 1915              		.thumb
 1916              		.thumb_func
ARM GAS  /tmp/ccpNfLZa.s 			page 68


 1917              		.fpu fpv5-d16
 1919              	vTaskSuspend:
 1920              	.LFB15:
1698:./Libraries/FreeRTOS/Source/tasks.c **** 
1699:./Libraries/FreeRTOS/Source/tasks.c **** #endif /* INCLUDE_vTaskPrioritySet */
1700:./Libraries/FreeRTOS/Source/tasks.c **** /*-----------------------------------------------------------*/
1701:./Libraries/FreeRTOS/Source/tasks.c **** 
1702:./Libraries/FreeRTOS/Source/tasks.c **** #if ( INCLUDE_vTaskSuspend == 1 )
1703:./Libraries/FreeRTOS/Source/tasks.c **** 
1704:./Libraries/FreeRTOS/Source/tasks.c **** 	void vTaskSuspend( TaskHandle_t xTaskToSuspend )
1705:./Libraries/FreeRTOS/Source/tasks.c **** 	{
 1921              		.loc 1 1705 2
 1922              		.cfi_startproc
 1923              		@ args = 0, pretend = 0, frame = 16
 1924              		@ frame_needed = 1, uses_anonymous_args = 0
 1925 0000 80B5     		push	{r7, lr}
 1926              	.LCFI55:
 1927              		.cfi_def_cfa_offset 8
 1928              		.cfi_offset 7, -8
 1929              		.cfi_offset 14, -4
 1930 0002 84B0     		sub	sp, sp, #16
 1931              	.LCFI56:
 1932              		.cfi_def_cfa_offset 24
 1933 0004 00AF     		add	r7, sp, #0
 1934              	.LCFI57:
 1935              		.cfi_def_cfa_register 7
 1936 0006 7860     		str	r0, [r7, #4]
1706:./Libraries/FreeRTOS/Source/tasks.c **** 	TCB_t *pxTCB;
1707:./Libraries/FreeRTOS/Source/tasks.c **** 
1708:./Libraries/FreeRTOS/Source/tasks.c **** 		taskENTER_CRITICAL();
 1937              		.loc 1 1708 3
 1938 0008 FFF7FEFF 		bl	vPortEnterCritical
1709:./Libraries/FreeRTOS/Source/tasks.c **** 		{
1710:./Libraries/FreeRTOS/Source/tasks.c **** 			/* If null is passed in here then it is the running task that is
1711:./Libraries/FreeRTOS/Source/tasks.c **** 			being suspended. */
1712:./Libraries/FreeRTOS/Source/tasks.c **** 			pxTCB = prvGetTCBFromHandle( xTaskToSuspend );
 1939              		.loc 1 1712 12
 1940 000c 7B68     		ldr	r3, [r7, #4]
 1941 000e 002B     		cmp	r3, #0
 1942 0010 02D1     		bne	.L118
 1943              		.loc 1 1712 12 is_stmt 0 discriminator 1
 1944 0012 304B     		ldr	r3, .L129
 1945 0014 1B68     		ldr	r3, [r3]
 1946 0016 00E0     		b	.L119
 1947              	.L118:
 1948              		.loc 1 1712 12 discriminator 2
 1949 0018 7B68     		ldr	r3, [r7, #4]
 1950              	.L119:
 1951              		.loc 1 1712 10 is_stmt 1 discriminator 4
 1952 001a FB60     		str	r3, [r7, #12]
1713:./Libraries/FreeRTOS/Source/tasks.c **** 
1714:./Libraries/FreeRTOS/Source/tasks.c **** 			traceTASK_SUSPEND( pxTCB );
1715:./Libraries/FreeRTOS/Source/tasks.c **** 
1716:./Libraries/FreeRTOS/Source/tasks.c **** 			/* Remove task from the ready/delayed list and place in the
1717:./Libraries/FreeRTOS/Source/tasks.c **** 			suspended list. */
1718:./Libraries/FreeRTOS/Source/tasks.c **** 			if( uxListRemove( &( pxTCB->xStateListItem ) ) == ( UBaseType_t ) 0 )
 1953              		.loc 1 1718 8 discriminator 4
ARM GAS  /tmp/ccpNfLZa.s 			page 69


 1954 001c FB68     		ldr	r3, [r7, #12]
 1955 001e 0433     		adds	r3, r3, #4
 1956 0020 1846     		mov	r0, r3
 1957 0022 FFF7FEFF 		bl	uxListRemove
1719:./Libraries/FreeRTOS/Source/tasks.c **** 			{
1720:./Libraries/FreeRTOS/Source/tasks.c **** 				taskRESET_READY_PRIORITY( pxTCB->uxPriority );
1721:./Libraries/FreeRTOS/Source/tasks.c **** 			}
1722:./Libraries/FreeRTOS/Source/tasks.c **** 			else
1723:./Libraries/FreeRTOS/Source/tasks.c **** 			{
1724:./Libraries/FreeRTOS/Source/tasks.c **** 				mtCOVERAGE_TEST_MARKER();
1725:./Libraries/FreeRTOS/Source/tasks.c **** 			}
1726:./Libraries/FreeRTOS/Source/tasks.c **** 
1727:./Libraries/FreeRTOS/Source/tasks.c **** 			/* Is the task waiting on an event also? */
1728:./Libraries/FreeRTOS/Source/tasks.c **** 			if( listLIST_ITEM_CONTAINER( &( pxTCB->xEventListItem ) ) != NULL )
 1958              		.loc 1 1728 8 discriminator 4
 1959 0026 FB68     		ldr	r3, [r7, #12]
 1960 0028 9B6A     		ldr	r3, [r3, #40]
 1961              		.loc 1 1728 6 discriminator 4
 1962 002a 002B     		cmp	r3, #0
 1963 002c 04D0     		beq	.L120
1729:./Libraries/FreeRTOS/Source/tasks.c **** 			{
1730:./Libraries/FreeRTOS/Source/tasks.c **** 				( void ) uxListRemove( &( pxTCB->xEventListItem ) );
 1964              		.loc 1 1730 14
 1965 002e FB68     		ldr	r3, [r7, #12]
 1966 0030 1833     		adds	r3, r3, #24
 1967 0032 1846     		mov	r0, r3
 1968 0034 FFF7FEFF 		bl	uxListRemove
 1969              	.L120:
1731:./Libraries/FreeRTOS/Source/tasks.c **** 			}
1732:./Libraries/FreeRTOS/Source/tasks.c **** 			else
1733:./Libraries/FreeRTOS/Source/tasks.c **** 			{
1734:./Libraries/FreeRTOS/Source/tasks.c **** 				mtCOVERAGE_TEST_MARKER();
1735:./Libraries/FreeRTOS/Source/tasks.c **** 			}
1736:./Libraries/FreeRTOS/Source/tasks.c **** 
1737:./Libraries/FreeRTOS/Source/tasks.c **** 			vListInsertEnd( &xSuspendedTaskList, &( pxTCB->xStateListItem ) );
 1970              		.loc 1 1737 4
 1971 0038 FB68     		ldr	r3, [r7, #12]
 1972 003a 0433     		adds	r3, r3, #4
 1973 003c 1946     		mov	r1, r3
 1974 003e 2648     		ldr	r0, .L129+4
 1975 0040 FFF7FEFF 		bl	vListInsertEnd
1738:./Libraries/FreeRTOS/Source/tasks.c **** 
1739:./Libraries/FreeRTOS/Source/tasks.c **** 			#if( configUSE_TASK_NOTIFICATIONS == 1 )
1740:./Libraries/FreeRTOS/Source/tasks.c **** 			{
1741:./Libraries/FreeRTOS/Source/tasks.c **** 				if( pxTCB->ucNotifyState == taskWAITING_NOTIFICATION )
 1976              		.loc 1 1741 14
 1977 0044 FB68     		ldr	r3, [r7, #12]
 1978 0046 93F85830 		ldrb	r3, [r3, #88]
 1979 004a DBB2     		uxtb	r3, r3
 1980              		.loc 1 1741 7
 1981 004c 012B     		cmp	r3, #1
 1982 004e 03D1     		bne	.L121
1742:./Libraries/FreeRTOS/Source/tasks.c **** 				{
1743:./Libraries/FreeRTOS/Source/tasks.c **** 					/* The task was blocked to wait for a notification, but is
1744:./Libraries/FreeRTOS/Source/tasks.c **** 					now suspended, so no notification was received. */
1745:./Libraries/FreeRTOS/Source/tasks.c **** 					pxTCB->ucNotifyState = taskNOT_WAITING_NOTIFICATION;
 1983              		.loc 1 1745 27
ARM GAS  /tmp/ccpNfLZa.s 			page 70


 1984 0050 FB68     		ldr	r3, [r7, #12]
 1985 0052 0022     		movs	r2, #0
 1986 0054 83F85820 		strb	r2, [r3, #88]
 1987              	.L121:
1746:./Libraries/FreeRTOS/Source/tasks.c **** 				}
1747:./Libraries/FreeRTOS/Source/tasks.c **** 			}
1748:./Libraries/FreeRTOS/Source/tasks.c **** 			#endif
1749:./Libraries/FreeRTOS/Source/tasks.c **** 		}
1750:./Libraries/FreeRTOS/Source/tasks.c **** 		taskEXIT_CRITICAL();
 1988              		.loc 1 1750 3
 1989 0058 FFF7FEFF 		bl	vPortExitCritical
1751:./Libraries/FreeRTOS/Source/tasks.c **** 
1752:./Libraries/FreeRTOS/Source/tasks.c **** 		if( xSchedulerRunning != pdFALSE )
 1990              		.loc 1 1752 25
 1991 005c 1F4B     		ldr	r3, .L129+8
 1992 005e 1B68     		ldr	r3, [r3]
 1993              		.loc 1 1752 5
 1994 0060 002B     		cmp	r3, #0
 1995 0062 05D0     		beq	.L122
1753:./Libraries/FreeRTOS/Source/tasks.c **** 		{
1754:./Libraries/FreeRTOS/Source/tasks.c **** 			/* Reset the next expected unblock time in case it referred to the
1755:./Libraries/FreeRTOS/Source/tasks.c **** 			task that is now in the Suspended state. */
1756:./Libraries/FreeRTOS/Source/tasks.c **** 			taskENTER_CRITICAL();
 1996              		.loc 1 1756 4
 1997 0064 FFF7FEFF 		bl	vPortEnterCritical
1757:./Libraries/FreeRTOS/Source/tasks.c **** 			{
1758:./Libraries/FreeRTOS/Source/tasks.c **** 				prvResetNextTaskUnblockTime();
 1998              		.loc 1 1758 5
 1999 0068 FFF7FEFF 		bl	prvResetNextTaskUnblockTime
1759:./Libraries/FreeRTOS/Source/tasks.c **** 			}
1760:./Libraries/FreeRTOS/Source/tasks.c **** 			taskEXIT_CRITICAL();
 2000              		.loc 1 1760 4
 2001 006c FFF7FEFF 		bl	vPortExitCritical
 2002              	.L122:
1761:./Libraries/FreeRTOS/Source/tasks.c **** 		}
1762:./Libraries/FreeRTOS/Source/tasks.c **** 		else
1763:./Libraries/FreeRTOS/Source/tasks.c **** 		{
1764:./Libraries/FreeRTOS/Source/tasks.c **** 			mtCOVERAGE_TEST_MARKER();
1765:./Libraries/FreeRTOS/Source/tasks.c **** 		}
1766:./Libraries/FreeRTOS/Source/tasks.c **** 
1767:./Libraries/FreeRTOS/Source/tasks.c **** 		if( pxTCB == pxCurrentTCB )
 2003              		.loc 1 1767 13
 2004 0070 184B     		ldr	r3, .L129
 2005 0072 1B68     		ldr	r3, [r3]
 2006              		.loc 1 1767 5
 2007 0074 FA68     		ldr	r2, [r7, #12]
 2008 0076 9A42     		cmp	r2, r3
 2009 0078 27D1     		bne	.L128
1768:./Libraries/FreeRTOS/Source/tasks.c **** 		{
1769:./Libraries/FreeRTOS/Source/tasks.c **** 			if( xSchedulerRunning != pdFALSE )
 2010              		.loc 1 1769 26
 2011 007a 184B     		ldr	r3, .L129+8
 2012 007c 1B68     		ldr	r3, [r3]
 2013              		.loc 1 1769 6
 2014 007e 002B     		cmp	r3, #0
 2015 0080 17D0     		beq	.L124
1770:./Libraries/FreeRTOS/Source/tasks.c **** 			{
ARM GAS  /tmp/ccpNfLZa.s 			page 71


1771:./Libraries/FreeRTOS/Source/tasks.c **** 				/* The current task has just been suspended. */
1772:./Libraries/FreeRTOS/Source/tasks.c **** 				configASSERT( uxSchedulerSuspended == 0 );
 2016              		.loc 1 1772 5
 2017 0082 174B     		ldr	r3, .L129+12
 2018 0084 1B68     		ldr	r3, [r3]
 2019 0086 002B     		cmp	r3, #0
 2020 0088 0AD0     		beq	.L125
 2021              	.LBB148:
 2022              	.LBB149:
 195:./Libraries/FreeRTOS/Source/portable/GCC/ARM_CM4F/portmacro.h **** 	(
 2023              		.loc 2 195 2
 2024              		.syntax unified
 2025              	@ 195 "./Libraries/FreeRTOS/Source/portable/GCC/ARM_CM4F/portmacro.h" 1
 2026 008a 4FF05003 			mov r3, #80												
 2027 008e 83F31188 		msr basepri, r3											
 2028 0092 BFF36F8F 		isb														
 2029 0096 BFF34F8F 		dsb														
 2030              	
 2031              	@ 0 "" 2
 2032              		.thumb
 2033              		.syntax unified
 2034 009a BB60     		str	r3, [r7, #8]
 203:./Libraries/FreeRTOS/Source/portable/GCC/ARM_CM4F/portmacro.h **** 
 2035              		.loc 2 203 1
 2036 009c 00BF     		nop
 2037              	.L126:
 2038              	.LBE149:
 2039              	.LBE148:
 2040              		.loc 1 1772 5 discriminator 1
 2041 009e FEE7     		b	.L126
 2042              	.L125:
1773:./Libraries/FreeRTOS/Source/tasks.c **** 				portYIELD_WITHIN_API();
 2043              		.loc 1 1773 5
 2044 00a0 104B     		ldr	r3, .L129+16
 2045 00a2 4FF08052 		mov	r2, #268435456
 2046 00a6 1A60     		str	r2, [r3]
 2047              		.syntax unified
 2048              	@ 1773 "./Libraries/FreeRTOS/Source/tasks.c" 1
 2049 00a8 BFF34F8F 		dsb
 2050              	@ 0 "" 2
 2051              	@ 1773 "./Libraries/FreeRTOS/Source/tasks.c" 1
 2052 00ac BFF36F8F 		isb
 2053              	@ 0 "" 2
1774:./Libraries/FreeRTOS/Source/tasks.c **** 			}
1775:./Libraries/FreeRTOS/Source/tasks.c **** 			else
1776:./Libraries/FreeRTOS/Source/tasks.c **** 			{
1777:./Libraries/FreeRTOS/Source/tasks.c **** 				/* The scheduler is not running, but the task that was pointed
1778:./Libraries/FreeRTOS/Source/tasks.c **** 				to by pxCurrentTCB has just been suspended and pxCurrentTCB
1779:./Libraries/FreeRTOS/Source/tasks.c **** 				must be adjusted to point to a different task. */
1780:./Libraries/FreeRTOS/Source/tasks.c **** 				if( listCURRENT_LIST_LENGTH( &xSuspendedTaskList ) == uxCurrentNumberOfTasks ) /*lint !e931 Rig
1781:./Libraries/FreeRTOS/Source/tasks.c **** 				{
1782:./Libraries/FreeRTOS/Source/tasks.c **** 					/* No other tasks are ready, so set pxCurrentTCB back to
1783:./Libraries/FreeRTOS/Source/tasks.c **** 					NULL so when the next task is created pxCurrentTCB will
1784:./Libraries/FreeRTOS/Source/tasks.c **** 					be set to point to it no matter what its relative priority
1785:./Libraries/FreeRTOS/Source/tasks.c **** 					is. */
1786:./Libraries/FreeRTOS/Source/tasks.c **** 					pxCurrentTCB = NULL;
1787:./Libraries/FreeRTOS/Source/tasks.c **** 				}
ARM GAS  /tmp/ccpNfLZa.s 			page 72


1788:./Libraries/FreeRTOS/Source/tasks.c **** 				else
1789:./Libraries/FreeRTOS/Source/tasks.c **** 				{
1790:./Libraries/FreeRTOS/Source/tasks.c **** 					vTaskSwitchContext();
1791:./Libraries/FreeRTOS/Source/tasks.c **** 				}
1792:./Libraries/FreeRTOS/Source/tasks.c **** 			}
1793:./Libraries/FreeRTOS/Source/tasks.c **** 		}
1794:./Libraries/FreeRTOS/Source/tasks.c **** 		else
1795:./Libraries/FreeRTOS/Source/tasks.c **** 		{
1796:./Libraries/FreeRTOS/Source/tasks.c **** 			mtCOVERAGE_TEST_MARKER();
1797:./Libraries/FreeRTOS/Source/tasks.c **** 		}
1798:./Libraries/FreeRTOS/Source/tasks.c **** 	}
 2054              		.loc 1 1798 2
 2055              		.thumb
 2056              		.syntax unified
 2057 00b0 0BE0     		b	.L128
 2058              	.L124:
1780:./Libraries/FreeRTOS/Source/tasks.c **** 				{
 2059              		.loc 1 1780 9
 2060 00b2 094B     		ldr	r3, .L129+4
 2061 00b4 1A68     		ldr	r2, [r3]
1780:./Libraries/FreeRTOS/Source/tasks.c **** 				{
 2062              		.loc 1 1780 56
 2063 00b6 0C4B     		ldr	r3, .L129+20
 2064 00b8 1B68     		ldr	r3, [r3]
1780:./Libraries/FreeRTOS/Source/tasks.c **** 				{
 2065              		.loc 1 1780 7
 2066 00ba 9A42     		cmp	r2, r3
 2067 00bc 03D1     		bne	.L127
1786:./Libraries/FreeRTOS/Source/tasks.c **** 				}
 2068              		.loc 1 1786 19
 2069 00be 054B     		ldr	r3, .L129
 2070 00c0 0022     		movs	r2, #0
 2071 00c2 1A60     		str	r2, [r3]
 2072              		.loc 1 1798 2
 2073 00c4 01E0     		b	.L128
 2074              	.L127:
1790:./Libraries/FreeRTOS/Source/tasks.c **** 				}
 2075              		.loc 1 1790 6
 2076 00c6 FFF7FEFF 		bl	vTaskSwitchContext
 2077              	.L128:
 2078              		.loc 1 1798 2
 2079 00ca 00BF     		nop
 2080 00cc 1037     		adds	r7, r7, #16
 2081              	.LCFI58:
 2082              		.cfi_def_cfa_offset 8
 2083 00ce BD46     		mov	sp, r7
 2084              	.LCFI59:
 2085              		.cfi_def_cfa_register 13
 2086              		@ sp needed
 2087 00d0 80BD     		pop	{r7, pc}
 2088              	.L130:
 2089 00d2 00BF     		.align	2
 2090              	.L129:
 2091 00d4 00000000 		.word	pxCurrentTCB
 2092 00d8 00000000 		.word	xSuspendedTaskList
 2093 00dc 00000000 		.word	xSchedulerRunning
 2094 00e0 00000000 		.word	uxSchedulerSuspended
ARM GAS  /tmp/ccpNfLZa.s 			page 73


 2095 00e4 04ED00E0 		.word	-536810236
 2096 00e8 00000000 		.word	uxCurrentNumberOfTasks
 2097              		.cfi_endproc
 2098              	.LFE15:
 2100              		.section	.text.prvTaskIsTaskSuspended,"ax",%progbits
 2101              		.align	1
 2102              		.syntax unified
 2103              		.thumb
 2104              		.thumb_func
 2105              		.fpu fpv5-d16
 2107              	prvTaskIsTaskSuspended:
 2108              	.LFB16:
1799:./Libraries/FreeRTOS/Source/tasks.c **** 
1800:./Libraries/FreeRTOS/Source/tasks.c **** #endif /* INCLUDE_vTaskSuspend */
1801:./Libraries/FreeRTOS/Source/tasks.c **** /*-----------------------------------------------------------*/
1802:./Libraries/FreeRTOS/Source/tasks.c **** 
1803:./Libraries/FreeRTOS/Source/tasks.c **** #if ( INCLUDE_vTaskSuspend == 1 )
1804:./Libraries/FreeRTOS/Source/tasks.c **** 
1805:./Libraries/FreeRTOS/Source/tasks.c **** 	static BaseType_t prvTaskIsTaskSuspended( const TaskHandle_t xTask )
1806:./Libraries/FreeRTOS/Source/tasks.c **** 	{
 2109              		.loc 1 1806 2
 2110              		.cfi_startproc
 2111              		@ args = 0, pretend = 0, frame = 24
 2112              		@ frame_needed = 1, uses_anonymous_args = 0
 2113              		@ link register save eliminated.
 2114 0000 80B4     		push	{r7}
 2115              	.LCFI60:
 2116              		.cfi_def_cfa_offset 4
 2117              		.cfi_offset 7, -4
 2118 0002 87B0     		sub	sp, sp, #28
 2119              	.LCFI61:
 2120              		.cfi_def_cfa_offset 32
 2121 0004 00AF     		add	r7, sp, #0
 2122              	.LCFI62:
 2123              		.cfi_def_cfa_register 7
 2124 0006 7860     		str	r0, [r7, #4]
1807:./Libraries/FreeRTOS/Source/tasks.c **** 	BaseType_t xReturn = pdFALSE;
 2125              		.loc 1 1807 13
 2126 0008 0023     		movs	r3, #0
 2127 000a 7B61     		str	r3, [r7, #20]
1808:./Libraries/FreeRTOS/Source/tasks.c **** 	const TCB_t * const pxTCB = xTask;
 2128              		.loc 1 1808 22
 2129 000c 7B68     		ldr	r3, [r7, #4]
 2130 000e 3B61     		str	r3, [r7, #16]
1809:./Libraries/FreeRTOS/Source/tasks.c **** 
1810:./Libraries/FreeRTOS/Source/tasks.c **** 		/* Accesses xPendingReadyList so must be called from a critical
1811:./Libraries/FreeRTOS/Source/tasks.c **** 		section. */
1812:./Libraries/FreeRTOS/Source/tasks.c **** 
1813:./Libraries/FreeRTOS/Source/tasks.c **** 		/* It does not make sense to check if the calling task is suspended. */
1814:./Libraries/FreeRTOS/Source/tasks.c **** 		configASSERT( xTask );
 2131              		.loc 1 1814 3
 2132 0010 7B68     		ldr	r3, [r7, #4]
 2133 0012 002B     		cmp	r3, #0
 2134 0014 0AD1     		bne	.L132
 2135              	.LBB150:
 2136              	.LBB151:
 195:./Libraries/FreeRTOS/Source/portable/GCC/ARM_CM4F/portmacro.h **** 	(
ARM GAS  /tmp/ccpNfLZa.s 			page 74


 2137              		.loc 2 195 2
 2138              		.syntax unified
 2139              	@ 195 "./Libraries/FreeRTOS/Source/portable/GCC/ARM_CM4F/portmacro.h" 1
 2140 0016 4FF05003 			mov r3, #80												
 2141 001a 83F31188 		msr basepri, r3											
 2142 001e BFF36F8F 		isb														
 2143 0022 BFF34F8F 		dsb														
 2144              	
 2145              	@ 0 "" 2
 2146              		.thumb
 2147              		.syntax unified
 2148 0026 FB60     		str	r3, [r7, #12]
 203:./Libraries/FreeRTOS/Source/portable/GCC/ARM_CM4F/portmacro.h **** 
 2149              		.loc 2 203 1
 2150 0028 00BF     		nop
 2151              	.L133:
 2152              	.LBE151:
 2153              	.LBE150:
 2154              		.loc 1 1814 3 discriminator 1
 2155 002a FEE7     		b	.L133
 2156              	.L132:
1815:./Libraries/FreeRTOS/Source/tasks.c **** 
1816:./Libraries/FreeRTOS/Source/tasks.c **** 		/* Is the task being resumed actually in the suspended list? */
