ARM GAS  /tmp/ccFKztsk.s 			page 1


   1              		.cpu cortex-m7
   2              		.eabi_attribute 28, 1
   3              		.eabi_attribute 20, 1
   4              		.eabi_attribute 21, 1
   5              		.eabi_attribute 23, 3
   6              		.eabi_attribute 24, 1
   7              		.eabi_attribute 25, 1
   8              		.eabi_attribute 26, 1
   9              		.eabi_attribute 30, 6
  10              		.eabi_attribute 34, 1
  11              		.eabi_attribute 18, 4
  12              		.file	"touch.c"
  13              		.text
  14              	.Ltext0:
  15              		.cfi_sections	.debug_frame
  16              		.comm	touch,24,4
  17              		.comm	i2c_object,372,4
  18              		.global	i2c_object_attr
  19              		.section	.rodata.i2c_object_attr,"a"
  20              		.align	2
  23              	i2c_object_attr:
  24 0000 001C0058 		.word	1476402176
  25 0004 FFECC010 		.word	281079039
  26 0008 00000000 		.word	0
  27 000c 01000000 		.word	1
  28 0010 00000000 		.word	0
  29 0014 00000000 		.word	0
  30 0018 00000000 		.word	0
  31 001c 00000000 		.word	0
  32 0020 00000000 		.word	0
  33              		.section	.text.touch_init,"ax",%progbits
  34              		.align	1
  35              		.global	touch_init
  36              		.arch armv7e-m
  37              		.syntax unified
  38              		.thumb
  39              		.thumb_func
  40              		.fpu fpv5-d16
  42              	touch_init:
  43              	.LFB338:
  44              		.file 1 "./BSP/Components/Src/touch.c"
   1:./BSP/Components/Src/touch.c **** #include "../../system.h"
   2:./BSP/Components/Src/touch.c **** #include "ft6x06_reg.h"
   3:./BSP/Components/Src/touch.c **** 
   4:./BSP/Components/Src/touch.c **** touch_objectTypeDef touch;
   5:./BSP/Components/Src/touch.c **** i2c_objectTypeDef i2c_object;
   6:./BSP/Components/Src/touch.c **** 
   7:./BSP/Components/Src/touch.c **** const i2c_objectAttr i2c_object_attr={
   8:./BSP/Components/Src/touch.c ****     .Instance           =I2C4,
   9:./BSP/Components/Src/touch.c ****     .Timing             =0x10C0ECFF,
  10:./BSP/Components/Src/touch.c ****     .OwnAddress1        =0,   
  11:./BSP/Components/Src/touch.c ****     .AddressingMode     =I2C_ADDRESSINGMODE_7BIT,   
  12:./BSP/Components/Src/touch.c ****     .DualAddressMode    =I2C_DUALADDRESS_DISABLE,   
  13:./BSP/Components/Src/touch.c ****     .OwnAddress2        =0,      
  14:./BSP/Components/Src/touch.c ****     .OwnAddress2Masks   =I2C_OA2_NOMASK,  
  15:./BSP/Components/Src/touch.c ****     .GeneralCallMode    =I2C_GENERALCALL_DISABLE,   
  16:./BSP/Components/Src/touch.c ****     .NoStretchMode      =I2C_NOSTRETCH_DISABLE   
ARM GAS  /tmp/ccFKztsk.s 			page 2


  17:./BSP/Components/Src/touch.c **** };
  18:./BSP/Components/Src/touch.c **** 
  19:./BSP/Components/Src/touch.c **** int touch_get_horizontal_offset(touch_objectTypeDef* obj);
  20:./BSP/Components/Src/touch.c **** 
  21:./BSP/Components/Src/touch.c **** void touch_init(void)
  22:./BSP/Components/Src/touch.c **** {
  45              		.loc 1 22 1
  46              		.cfi_startproc
  47              		@ args = 0, pretend = 0, frame = 0
  48              		@ frame_needed = 1, uses_anonymous_args = 0
  49 0000 F0B5     		push	{r4, r5, r6, r7, lr}
  50              	.LCFI0:
  51              		.cfi_def_cfa_offset 20
  52              		.cfi_offset 4, -20
  53              		.cfi_offset 5, -16
  54              		.cfi_offset 6, -12
  55              		.cfi_offset 7, -8
  56              		.cfi_offset 14, -4
  57 0002 87B0     		sub	sp, sp, #28
  58              	.LCFI1:
  59              		.cfi_def_cfa_offset 48
  60 0004 06AF     		add	r7, sp, #24
  61              	.LCFI2:
  62              		.cfi_def_cfa 7, 24
  23:./BSP/Components/Src/touch.c **** 
  24:./BSP/Components/Src/touch.c ****     I2C_Object_Init(&i2c_object,i2c_object_attr);
  63              		.loc 1 24 5
  64 0006 0D4E     		ldr	r6, .L2
  65 0008 6D46     		mov	r5, sp
  66 000a 06F10C04 		add	r4, r6, #12
  67 000e 0FCC     		ldmia	r4!, {r0, r1, r2, r3}
  68 0010 0FC5     		stmia	r5!, {r0, r1, r2, r3}
  69 0012 94E80300 		ldm	r4, {r0, r1}
  70 0016 85E80300 		stm	r5, {r0, r1}
  71 001a 96E80E00 		ldm	r6, {r1, r2, r3}
  72 001e 0848     		ldr	r0, .L2+4
  73 0020 FFF7FEFF 		bl	I2C_Object_Init
  25:./BSP/Components/Src/touch.c **** 
  26:./BSP/Components/Src/touch.c ****     i2c_object.i2c_init;
  27:./BSP/Components/Src/touch.c ****     touch.get_touch_offset=touch_get_horizontal_offset;
  74              		.loc 1 27 27
  75 0024 074B     		ldr	r3, .L2+8
  76 0026 084A     		ldr	r2, .L2+12
  77 0028 5A61     		str	r2, [r3, #20]
  28:./BSP/Components/Src/touch.c ****     touch.get_touch_offset(&touch);
  78              		.loc 1 28 10
  79 002a 064B     		ldr	r3, .L2+8
  80 002c 5B69     		ldr	r3, [r3, #20]
  81              		.loc 1 28 5
  82 002e 0548     		ldr	r0, .L2+8
  83 0030 9847     		blx	r3
  84              	.LVL0:
  29:./BSP/Components/Src/touch.c **** }
  85              		.loc 1 29 1
  86 0032 00BF     		nop
  87 0034 0437     		adds	r7, r7, #4
  88              	.LCFI3:
ARM GAS  /tmp/ccFKztsk.s 			page 3


  89              		.cfi_def_cfa_offset 20
  90 0036 BD46     		mov	sp, r7
  91              	.LCFI4:
  92              		.cfi_def_cfa_register 13
  93              		@ sp needed
  94 0038 F0BD     		pop	{r4, r5, r6, r7, pc}
  95              	.L3:
  96 003a 00BF     		.align	2
  97              	.L2:
  98 003c 00000000 		.word	i2c_object_attr
  99 0040 00000000 		.word	i2c_object
 100 0044 00000000 		.word	touch
 101 0048 00000000 		.word	touch_get_horizontal_offset
 102              		.cfi_endproc
 103              	.LFE338:
 105              		.section	.text.touch_get_horizontal_offset,"ax",%progbits
 106              		.align	1
 107              		.global	touch_get_horizontal_offset
 108              		.syntax unified
 109              		.thumb
 110              		.thumb_func
 111              		.fpu fpv5-d16
 113              	touch_get_horizontal_offset:
 114              	.LFB339:
  30:./BSP/Components/Src/touch.c **** 
  31:./BSP/Components/Src/touch.c **** int touch_get_horizontal_offset(touch_objectTypeDef* obj)
  32:./BSP/Components/Src/touch.c **** {
 115              		.loc 1 32 1
 116              		.cfi_startproc
 117              		@ args = 0, pretend = 0, frame = 8
 118              		@ frame_needed = 1, uses_anonymous_args = 0
 119              		@ link register save eliminated.
 120 0000 80B4     		push	{r7}
 121              	.LCFI5:
 122              		.cfi_def_cfa_offset 4
 123              		.cfi_offset 7, -4
 124 0002 83B0     		sub	sp, sp, #12
 125              	.LCFI6:
 126              		.cfi_def_cfa_offset 16
 127 0004 00AF     		add	r7, sp, #0
 128              	.LCFI7:
 129              		.cfi_def_cfa_register 7
 130 0006 7860     		str	r0, [r7, #4]
  33:./BSP/Components/Src/touch.c ****     return 3;
 131              		.loc 1 33 12
 132 0008 0323     		movs	r3, #3
  34:./BSP/Components/Src/touch.c **** }...
 133              		.loc 1 34 1
 134 000a 1846     		mov	r0, r3
 135 000c 0C37     		adds	r7, r7, #12
 136              	.LCFI8:
 137              		.cfi_def_cfa_offset 4
 138 000e BD46     		mov	sp, r7
 139              	.LCFI9:
 140              		.cfi_def_cfa_register 13
 141              		@ sp needed
 142 0010 5DF8047B 		ldr	r7, [sp], #4
ARM GAS  /tmp/ccFKztsk.s 			page 4


 143              	.LCFI10:
 144              		.cfi_restore 7
 145              		.cfi_def_cfa_offset 0
 146 0014 7047     		bx	lr
 147              		.cfi_endproc
 148              	.LFE339:
 150              		.text
 151              	.Letext0:
 152              		.file 2 "/usr/lib/gcc/arm-none-eabi/9.2.1/include/stdint.h"
 153              		.file 3 "./Libraries/CMSIS/Core/Include/core_cm7.h"
 154              		.file 4 "./Libraries/CMSIS/Device/ST/STM32H7xx/Include/system_stm32h7xx.h"
 155              		.file 5 "./Libraries/CMSIS/Device/ST/STM32H7xx/Include/stm32h747xx.h"
 156              		.file 6 "/usr/lib/gcc/arm-none-eabi/9.2.1/include/stddef.h"
 157              		.file 7 "/usr/include/newlib/sys/_types.h"
 158              		.file 8 "/usr/include/newlib/sys/reent.h"
 159              		.file 9 "/usr/include/newlib/sys/lock.h"
 160              		.file 10 "/usr/include/newlib/math.h"
 161              		.file 11 "./Libraries/STM32H7xx_HAL_Driver/Inc/stm32h7xx_hal_def.h"
 162              		.file 12 "./Libraries/STM32H7xx_HAL_Driver/Inc/stm32h7xx_hal_dma.h"
 163              		.file 13 "./Libraries/STM32H7xx_HAL_Driver/Inc/stm32h7xx_hal_flash.h"
 164              		.file 14 "./Libraries/STM32H7xx_HAL_Driver/Inc/stm32h7xx_hal_i2c.h"
 165              		.file 15 "./Libraries/STM32H7xx_HAL_Driver/Inc/stm32h7xx_hal_uart.h"
 166              		.file 16 "./Libraries/STM32H7xx_HAL_Driver/Inc/stm32h7xx_hal.h"
 167              		.file 17 "/usr/include/newlib/stdlib.h"
 168              		.file 18 "./BSP/Components/Src/../../Components/Inc/touch.h"
 169              		.file 19 "./BSP/Components/Src/../../Hardware/Inc/i2c.h"
ARM GAS  /tmp/ccFKztsk.s 			page 5


DEFINED SYMBOLS
                            *ABS*:0000000000000000 touch.c
                            *COM*:0000000000000018 touch
                            *COM*:0000000000000174 i2c_object
     /tmp/ccFKztsk.s:23     .rodata.i2c_object_attr:0000000000000000 i2c_object_attr
     /tmp/ccFKztsk.s:20     .rodata.i2c_object_attr:0000000000000000 $d
     /tmp/ccFKztsk.s:34     .text.touch_init:0000000000000000 $t
     /tmp/ccFKztsk.s:42     .text.touch_init:0000000000000000 touch_init
     /tmp/ccFKztsk.s:98     .text.touch_init:000000000000003c $d
     /tmp/ccFKztsk.s:113    .text.touch_get_horizontal_offset:0000000000000000 touch_get_horizontal_offset
     /tmp/ccFKztsk.s:106    .text.touch_get_horizontal_offset:0000000000000000 $t

UNDEFINED SYMBOLS
I2C_Object_Init
