ARM GAS  /tmp/ccpDRd7E.s 			page 1


   1              		.cpu cortex-m7
   2              		.eabi_attribute 28, 1
   3              		.eabi_attribute 20, 1
   4              		.eabi_attribute 21, 1
   5              		.eabi_attribute 23, 3
   6              		.eabi_attribute 24, 1
   7              		.eabi_attribute 25, 1
   8              		.eabi_attribute 26, 1
   9              		.eabi_attribute 30, 6
  10              		.eabi_attribute 34, 1
  11              		.eabi_attribute 18, 4
  12              		.file	"usbh_hid_mouse.c"
  13              		.text
  14              	.Ltext0:
  15              		.cfi_sections	.debug_frame
  16              		.comm	mouse_info,5,4
  17              		.comm	mouse_report_data,8,4
  18              		.comm	mouse_rx_report_buf,8,4
  19              		.section	.rodata.prop_b1,"a"
  20              		.align	2
  23              	prop_b1:
  24 0000 00000000 		.word	mouse_report_data
  25 0004 01000000 		.word	1
  26 0008 00       		.byte	0
  27 0009 00       		.byte	0
  28 000a 00       		.byte	0
  29 000b 00       		.space	1
  30 000c 00000000 		.word	0
  31 0010 01000000 		.word	1
  32 0014 00000000 		.word	0
  33 0018 01000000 		.word	1
  34 001c 01000000 		.word	1
  35              		.section	.rodata.prop_b2,"a"
  36              		.align	2
  39              	prop_b2:
  40 0000 00000000 		.word	mouse_report_data
  41 0004 01000000 		.word	1
  42 0008 01       		.byte	1
  43 0009 00       		.byte	0
  44 000a 00       		.byte	0
  45 000b 00       		.space	1
  46 000c 00000000 		.word	0
  47 0010 01000000 		.word	1
  48 0014 00000000 		.word	0
  49 0018 01000000 		.word	1
  50 001c 01000000 		.word	1
  51              		.section	.rodata.prop_b3,"a"
  52              		.align	2
  55              	prop_b3:
  56 0000 00000000 		.word	mouse_report_data
  57 0004 01000000 		.word	1
  58 0008 02       		.byte	2
  59 0009 00       		.byte	0
  60 000a 00       		.byte	0
  61 000b 00       		.space	1
  62 000c 00000000 		.word	0
  63 0010 01000000 		.word	1
ARM GAS  /tmp/ccpDRd7E.s 			page 2


  64 0014 00000000 		.word	0
  65 0018 01000000 		.word	1
  66 001c 01000000 		.word	1
  67              		.section	.rodata.prop_x,"a"
  68              		.align	2
  71              	prop_x:
  72 0000 01000000 		.word	mouse_report_data+1
  73 0004 08000000 		.word	8
  74 0008 00       		.byte	0
  75 0009 00       		.byte	0
  76 000a 01       		.byte	1
  77 000b 00       		.space	1
  78 000c 00000000 		.word	0
  79 0010 FFFF0000 		.word	65535
  80 0014 00000000 		.word	0
  81 0018 FFFF0000 		.word	65535
  82 001c 01000000 		.word	1
  83              		.section	.rodata.prop_y,"a"
  84              		.align	2
  87              	prop_y:
  88 0000 02000000 		.word	mouse_report_data+2
  89 0004 08000000 		.word	8
  90 0008 00       		.byte	0
  91 0009 00       		.byte	0
  92 000a 01       		.byte	1
  93 000b 00       		.space	1
  94 000c 00000000 		.word	0
  95 0010 FFFF0000 		.word	65535
  96 0014 00000000 		.word	0
  97 0018 FFFF0000 		.word	65535
  98 001c 01000000 		.word	1
  99              		.section	.text.USBH_HID_MouseInit,"ax",%progbits
 100              		.align	1
 101              		.global	USBH_HID_MouseInit
 102              		.arch armv7e-m
 103              		.syntax unified
 104              		.thumb
 105              		.thumb_func
 106              		.fpu fpv5-d16
 108              	USBH_HID_MouseInit:
 109              	.LFB338:
 110              		.file 1 "./Libraries/STM32_USB_Host_Library/Class/HID/Src/usbh_hid_mouse.c"
   1:./Libraries/STM32_USB_Host_Library/Class/HID/Src/usbh_hid_mouse.c **** /**
   2:./Libraries/STM32_USB_Host_Library/Class/HID/Src/usbh_hid_mouse.c ****   ******************************************************************************
   3:./Libraries/STM32_USB_Host_Library/Class/HID/Src/usbh_hid_mouse.c ****   * @file    usbh_hid_mouse.c
   4:./Libraries/STM32_USB_Host_Library/Class/HID/Src/usbh_hid_mouse.c ****   * @author  MCD Application Team
   5:./Libraries/STM32_USB_Host_Library/Class/HID/Src/usbh_hid_mouse.c ****   * @brief   This file is the application layer for USB Host HID Mouse Handling.
   6:./Libraries/STM32_USB_Host_Library/Class/HID/Src/usbh_hid_mouse.c ****   ******************************************************************************
   7:./Libraries/STM32_USB_Host_Library/Class/HID/Src/usbh_hid_mouse.c ****   * @attention
   8:./Libraries/STM32_USB_Host_Library/Class/HID/Src/usbh_hid_mouse.c ****   *
   9:./Libraries/STM32_USB_Host_Library/Class/HID/Src/usbh_hid_mouse.c ****   * <h2><center>&copy; Copyright (c) 2015 STMicroelectronics.
  10:./Libraries/STM32_USB_Host_Library/Class/HID/Src/usbh_hid_mouse.c ****   * All rights reserved.</center></h2>
  11:./Libraries/STM32_USB_Host_Library/Class/HID/Src/usbh_hid_mouse.c ****   *
  12:./Libraries/STM32_USB_Host_Library/Class/HID/Src/usbh_hid_mouse.c ****   * This software component is licensed by ST under Ultimate Liberty license
  13:./Libraries/STM32_USB_Host_Library/Class/HID/Src/usbh_hid_mouse.c ****   * SLA0044, the "License"; You may not use this file except in compliance with
  14:./Libraries/STM32_USB_Host_Library/Class/HID/Src/usbh_hid_mouse.c ****   * the License. You may obtain a copy of the License at:
  15:./Libraries/STM32_USB_Host_Library/Class/HID/Src/usbh_hid_mouse.c ****   *                      www.st.com/SLA0044
ARM GAS  /tmp/ccpDRd7E.s 			page 3


  16:./Libraries/STM32_USB_Host_Library/Class/HID/Src/usbh_hid_mouse.c ****   *
  17:./Libraries/STM32_USB_Host_Library/Class/HID/Src/usbh_hid_mouse.c ****   ******************************************************************************
  18:./Libraries/STM32_USB_Host_Library/Class/HID/Src/usbh_hid_mouse.c ****   */
  19:./Libraries/STM32_USB_Host_Library/Class/HID/Src/usbh_hid_mouse.c **** 
  20:./Libraries/STM32_USB_Host_Library/Class/HID/Src/usbh_hid_mouse.c **** /* BSPDependencies
  21:./Libraries/STM32_USB_Host_Library/Class/HID/Src/usbh_hid_mouse.c **** - "stm32xxxxx_{eval}{discovery}{nucleo_144}.c"
  22:./Libraries/STM32_USB_Host_Library/Class/HID/Src/usbh_hid_mouse.c **** - "stm32xxxxx_{eval}{discovery}_io.c"
  23:./Libraries/STM32_USB_Host_Library/Class/HID/Src/usbh_hid_mouse.c **** - "stm32xxxxx_{eval}{discovery}{adafruit}_lcd.c"
  24:./Libraries/STM32_USB_Host_Library/Class/HID/Src/usbh_hid_mouse.c **** - "stm32xxxxx_{eval}{discovery}_sdram.c"
  25:./Libraries/STM32_USB_Host_Library/Class/HID/Src/usbh_hid_mouse.c **** EndBSPDependencies */
  26:./Libraries/STM32_USB_Host_Library/Class/HID/Src/usbh_hid_mouse.c **** 
  27:./Libraries/STM32_USB_Host_Library/Class/HID/Src/usbh_hid_mouse.c **** /* Includes ------------------------------------------------------------------*/
  28:./Libraries/STM32_USB_Host_Library/Class/HID/Src/usbh_hid_mouse.c **** #include "usbh_hid_mouse.h"
  29:./Libraries/STM32_USB_Host_Library/Class/HID/Src/usbh_hid_mouse.c **** #include "usbh_hid_parser.h"
  30:./Libraries/STM32_USB_Host_Library/Class/HID/Src/usbh_hid_mouse.c **** 
  31:./Libraries/STM32_USB_Host_Library/Class/HID/Src/usbh_hid_mouse.c **** 
  32:./Libraries/STM32_USB_Host_Library/Class/HID/Src/usbh_hid_mouse.c **** /** @addtogroup USBH_LIB
  33:./Libraries/STM32_USB_Host_Library/Class/HID/Src/usbh_hid_mouse.c ****   * @{
  34:./Libraries/STM32_USB_Host_Library/Class/HID/Src/usbh_hid_mouse.c ****   */
  35:./Libraries/STM32_USB_Host_Library/Class/HID/Src/usbh_hid_mouse.c **** 
  36:./Libraries/STM32_USB_Host_Library/Class/HID/Src/usbh_hid_mouse.c **** /** @addtogroup USBH_CLASS
  37:./Libraries/STM32_USB_Host_Library/Class/HID/Src/usbh_hid_mouse.c ****   * @{
  38:./Libraries/STM32_USB_Host_Library/Class/HID/Src/usbh_hid_mouse.c ****   */
  39:./Libraries/STM32_USB_Host_Library/Class/HID/Src/usbh_hid_mouse.c **** 
  40:./Libraries/STM32_USB_Host_Library/Class/HID/Src/usbh_hid_mouse.c **** /** @addtogroup USBH_HID_CLASS
  41:./Libraries/STM32_USB_Host_Library/Class/HID/Src/usbh_hid_mouse.c ****   * @{
  42:./Libraries/STM32_USB_Host_Library/Class/HID/Src/usbh_hid_mouse.c ****   */
  43:./Libraries/STM32_USB_Host_Library/Class/HID/Src/usbh_hid_mouse.c **** 
  44:./Libraries/STM32_USB_Host_Library/Class/HID/Src/usbh_hid_mouse.c **** /** @defgroup USBH_HID_MOUSE
  45:./Libraries/STM32_USB_Host_Library/Class/HID/Src/usbh_hid_mouse.c ****   * @brief    This file includes HID Layer Handlers for USB Host HID class.
  46:./Libraries/STM32_USB_Host_Library/Class/HID/Src/usbh_hid_mouse.c ****   * @{
  47:./Libraries/STM32_USB_Host_Library/Class/HID/Src/usbh_hid_mouse.c ****   */
  48:./Libraries/STM32_USB_Host_Library/Class/HID/Src/usbh_hid_mouse.c **** 
  49:./Libraries/STM32_USB_Host_Library/Class/HID/Src/usbh_hid_mouse.c **** /** @defgroup USBH_HID_MOUSE_Private_TypesDefinitions
  50:./Libraries/STM32_USB_Host_Library/Class/HID/Src/usbh_hid_mouse.c ****   * @{
  51:./Libraries/STM32_USB_Host_Library/Class/HID/Src/usbh_hid_mouse.c ****   */
  52:./Libraries/STM32_USB_Host_Library/Class/HID/Src/usbh_hid_mouse.c **** /**
  53:./Libraries/STM32_USB_Host_Library/Class/HID/Src/usbh_hid_mouse.c ****   * @}
  54:./Libraries/STM32_USB_Host_Library/Class/HID/Src/usbh_hid_mouse.c ****   */
  55:./Libraries/STM32_USB_Host_Library/Class/HID/Src/usbh_hid_mouse.c **** 
  56:./Libraries/STM32_USB_Host_Library/Class/HID/Src/usbh_hid_mouse.c **** 
  57:./Libraries/STM32_USB_Host_Library/Class/HID/Src/usbh_hid_mouse.c **** /** @defgroup USBH_HID_MOUSE_Private_Defines
  58:./Libraries/STM32_USB_Host_Library/Class/HID/Src/usbh_hid_mouse.c ****   * @{
  59:./Libraries/STM32_USB_Host_Library/Class/HID/Src/usbh_hid_mouse.c ****   */
  60:./Libraries/STM32_USB_Host_Library/Class/HID/Src/usbh_hid_mouse.c **** /**
  61:./Libraries/STM32_USB_Host_Library/Class/HID/Src/usbh_hid_mouse.c ****   * @}
  62:./Libraries/STM32_USB_Host_Library/Class/HID/Src/usbh_hid_mouse.c ****   */
  63:./Libraries/STM32_USB_Host_Library/Class/HID/Src/usbh_hid_mouse.c **** 
  64:./Libraries/STM32_USB_Host_Library/Class/HID/Src/usbh_hid_mouse.c **** 
  65:./Libraries/STM32_USB_Host_Library/Class/HID/Src/usbh_hid_mouse.c **** /** @defgroup USBH_HID_MOUSE_Private_Macros
  66:./Libraries/STM32_USB_Host_Library/Class/HID/Src/usbh_hid_mouse.c ****   * @{
  67:./Libraries/STM32_USB_Host_Library/Class/HID/Src/usbh_hid_mouse.c ****   */
  68:./Libraries/STM32_USB_Host_Library/Class/HID/Src/usbh_hid_mouse.c **** /**
  69:./Libraries/STM32_USB_Host_Library/Class/HID/Src/usbh_hid_mouse.c ****   * @}
  70:./Libraries/STM32_USB_Host_Library/Class/HID/Src/usbh_hid_mouse.c ****   */
  71:./Libraries/STM32_USB_Host_Library/Class/HID/Src/usbh_hid_mouse.c **** 
  72:./Libraries/STM32_USB_Host_Library/Class/HID/Src/usbh_hid_mouse.c **** /** @defgroup USBH_HID_MOUSE_Private_FunctionPrototypes
ARM GAS  /tmp/ccpDRd7E.s 			page 4


  73:./Libraries/STM32_USB_Host_Library/Class/HID/Src/usbh_hid_mouse.c ****   * @{
  74:./Libraries/STM32_USB_Host_Library/Class/HID/Src/usbh_hid_mouse.c ****   */
  75:./Libraries/STM32_USB_Host_Library/Class/HID/Src/usbh_hid_mouse.c **** static USBH_StatusTypeDef USBH_HID_MouseDecode(USBH_HandleTypeDef *phost);
  76:./Libraries/STM32_USB_Host_Library/Class/HID/Src/usbh_hid_mouse.c **** 
  77:./Libraries/STM32_USB_Host_Library/Class/HID/Src/usbh_hid_mouse.c **** /**
  78:./Libraries/STM32_USB_Host_Library/Class/HID/Src/usbh_hid_mouse.c ****   * @}
  79:./Libraries/STM32_USB_Host_Library/Class/HID/Src/usbh_hid_mouse.c ****   */
  80:./Libraries/STM32_USB_Host_Library/Class/HID/Src/usbh_hid_mouse.c **** 
  81:./Libraries/STM32_USB_Host_Library/Class/HID/Src/usbh_hid_mouse.c **** 
  82:./Libraries/STM32_USB_Host_Library/Class/HID/Src/usbh_hid_mouse.c **** /** @defgroup USBH_HID_MOUSE_Private_Variables
  83:./Libraries/STM32_USB_Host_Library/Class/HID/Src/usbh_hid_mouse.c ****   * @{
  84:./Libraries/STM32_USB_Host_Library/Class/HID/Src/usbh_hid_mouse.c ****   */
  85:./Libraries/STM32_USB_Host_Library/Class/HID/Src/usbh_hid_mouse.c **** HID_MOUSE_Info_TypeDef    mouse_info;
  86:./Libraries/STM32_USB_Host_Library/Class/HID/Src/usbh_hid_mouse.c **** uint32_t                  mouse_report_data[2];
  87:./Libraries/STM32_USB_Host_Library/Class/HID/Src/usbh_hid_mouse.c **** uint32_t                  mouse_rx_report_buf[2];
  88:./Libraries/STM32_USB_Host_Library/Class/HID/Src/usbh_hid_mouse.c **** 
  89:./Libraries/STM32_USB_Host_Library/Class/HID/Src/usbh_hid_mouse.c **** /* Structures defining how to access items in a HID mouse report */
  90:./Libraries/STM32_USB_Host_Library/Class/HID/Src/usbh_hid_mouse.c **** /* Access button 1 state. */
  91:./Libraries/STM32_USB_Host_Library/Class/HID/Src/usbh_hid_mouse.c **** static const HID_Report_ItemTypedef prop_b1 =
  92:./Libraries/STM32_USB_Host_Library/Class/HID/Src/usbh_hid_mouse.c **** {
  93:./Libraries/STM32_USB_Host_Library/Class/HID/Src/usbh_hid_mouse.c ****   (uint8_t *)(void *)mouse_report_data + 0, /*data*/
  94:./Libraries/STM32_USB_Host_Library/Class/HID/Src/usbh_hid_mouse.c ****   1,     /*size*/
  95:./Libraries/STM32_USB_Host_Library/Class/HID/Src/usbh_hid_mouse.c ****   0,     /*shift*/
  96:./Libraries/STM32_USB_Host_Library/Class/HID/Src/usbh_hid_mouse.c ****   0,     /*count (only for array items)*/
  97:./Libraries/STM32_USB_Host_Library/Class/HID/Src/usbh_hid_mouse.c ****   0,     /*signed?*/
  98:./Libraries/STM32_USB_Host_Library/Class/HID/Src/usbh_hid_mouse.c ****   0,     /*min value read can return*/
  99:./Libraries/STM32_USB_Host_Library/Class/HID/Src/usbh_hid_mouse.c ****   1,     /*max value read can return*/
 100:./Libraries/STM32_USB_Host_Library/Class/HID/Src/usbh_hid_mouse.c ****   0,     /*min value device can report*/
 101:./Libraries/STM32_USB_Host_Library/Class/HID/Src/usbh_hid_mouse.c ****   1,     /*max value device can report*/
 102:./Libraries/STM32_USB_Host_Library/Class/HID/Src/usbh_hid_mouse.c ****   1      /*resolution*/
 103:./Libraries/STM32_USB_Host_Library/Class/HID/Src/usbh_hid_mouse.c **** };
 104:./Libraries/STM32_USB_Host_Library/Class/HID/Src/usbh_hid_mouse.c **** 
 105:./Libraries/STM32_USB_Host_Library/Class/HID/Src/usbh_hid_mouse.c **** /* Access button 2 state. */
 106:./Libraries/STM32_USB_Host_Library/Class/HID/Src/usbh_hid_mouse.c **** static const HID_Report_ItemTypedef prop_b2 =
 107:./Libraries/STM32_USB_Host_Library/Class/HID/Src/usbh_hid_mouse.c **** {
 108:./Libraries/STM32_USB_Host_Library/Class/HID/Src/usbh_hid_mouse.c ****   (uint8_t *)(void *)mouse_report_data + 0, /*data*/
 109:./Libraries/STM32_USB_Host_Library/Class/HID/Src/usbh_hid_mouse.c ****   1,     /*size*/
 110:./Libraries/STM32_USB_Host_Library/Class/HID/Src/usbh_hid_mouse.c ****   1,     /*shift*/
 111:./Libraries/STM32_USB_Host_Library/Class/HID/Src/usbh_hid_mouse.c ****   0,     /*count (only for array items)*/
 112:./Libraries/STM32_USB_Host_Library/Class/HID/Src/usbh_hid_mouse.c ****   0,     /*signed?*/
 113:./Libraries/STM32_USB_Host_Library/Class/HID/Src/usbh_hid_mouse.c ****   0,     /*min value read can return*/
 114:./Libraries/STM32_USB_Host_Library/Class/HID/Src/usbh_hid_mouse.c ****   1,     /*max value read can return*/
 115:./Libraries/STM32_USB_Host_Library/Class/HID/Src/usbh_hid_mouse.c ****   0,     /*min value device can report*/
 116:./Libraries/STM32_USB_Host_Library/Class/HID/Src/usbh_hid_mouse.c ****   1,     /*max value device can report*/
 117:./Libraries/STM32_USB_Host_Library/Class/HID/Src/usbh_hid_mouse.c ****   1      /*resolution*/
 118:./Libraries/STM32_USB_Host_Library/Class/HID/Src/usbh_hid_mouse.c **** };
 119:./Libraries/STM32_USB_Host_Library/Class/HID/Src/usbh_hid_mouse.c **** 
 120:./Libraries/STM32_USB_Host_Library/Class/HID/Src/usbh_hid_mouse.c **** /* Access button 3 state. */
 121:./Libraries/STM32_USB_Host_Library/Class/HID/Src/usbh_hid_mouse.c **** static const HID_Report_ItemTypedef prop_b3 =
 122:./Libraries/STM32_USB_Host_Library/Class/HID/Src/usbh_hid_mouse.c **** {
 123:./Libraries/STM32_USB_Host_Library/Class/HID/Src/usbh_hid_mouse.c ****   (uint8_t *)(void *)mouse_report_data + 0, /*data*/
 124:./Libraries/STM32_USB_Host_Library/Class/HID/Src/usbh_hid_mouse.c ****   1,     /*size*/
 125:./Libraries/STM32_USB_Host_Library/Class/HID/Src/usbh_hid_mouse.c ****   2,     /*shift*/
 126:./Libraries/STM32_USB_Host_Library/Class/HID/Src/usbh_hid_mouse.c ****   0,     /*count (only for array items)*/
 127:./Libraries/STM32_USB_Host_Library/Class/HID/Src/usbh_hid_mouse.c ****   0,     /*signed?*/
 128:./Libraries/STM32_USB_Host_Library/Class/HID/Src/usbh_hid_mouse.c ****   0,     /*min value read can return*/
 129:./Libraries/STM32_USB_Host_Library/Class/HID/Src/usbh_hid_mouse.c ****   1,     /*max value read can return*/
ARM GAS  /tmp/ccpDRd7E.s 			page 5


 130:./Libraries/STM32_USB_Host_Library/Class/HID/Src/usbh_hid_mouse.c ****   0,     /*min vale device can report*/
 131:./Libraries/STM32_USB_Host_Library/Class/HID/Src/usbh_hid_mouse.c ****   1,     /*max value device can report*/
 132:./Libraries/STM32_USB_Host_Library/Class/HID/Src/usbh_hid_mouse.c ****   1      /*resolution*/
 133:./Libraries/STM32_USB_Host_Library/Class/HID/Src/usbh_hid_mouse.c **** };
 134:./Libraries/STM32_USB_Host_Library/Class/HID/Src/usbh_hid_mouse.c **** 
 135:./Libraries/STM32_USB_Host_Library/Class/HID/Src/usbh_hid_mouse.c **** /* Access x coordinate change. */
 136:./Libraries/STM32_USB_Host_Library/Class/HID/Src/usbh_hid_mouse.c **** static const HID_Report_ItemTypedef prop_x =
 137:./Libraries/STM32_USB_Host_Library/Class/HID/Src/usbh_hid_mouse.c **** {
 138:./Libraries/STM32_USB_Host_Library/Class/HID/Src/usbh_hid_mouse.c ****   (uint8_t *)(void *)mouse_report_data + 1, /*data*/
 139:./Libraries/STM32_USB_Host_Library/Class/HID/Src/usbh_hid_mouse.c ****   8,     /*size*/
 140:./Libraries/STM32_USB_Host_Library/Class/HID/Src/usbh_hid_mouse.c ****   0,     /*shift*/
 141:./Libraries/STM32_USB_Host_Library/Class/HID/Src/usbh_hid_mouse.c ****   0,     /*count (only for array items)*/
 142:./Libraries/STM32_USB_Host_Library/Class/HID/Src/usbh_hid_mouse.c ****   1,     /*signed?*/
 143:./Libraries/STM32_USB_Host_Library/Class/HID/Src/usbh_hid_mouse.c ****   0,     /*min value read can return*/
 144:./Libraries/STM32_USB_Host_Library/Class/HID/Src/usbh_hid_mouse.c ****   0xFFFF,/*max value read can return*/
 145:./Libraries/STM32_USB_Host_Library/Class/HID/Src/usbh_hid_mouse.c ****   0,     /*min vale device can report*/
 146:./Libraries/STM32_USB_Host_Library/Class/HID/Src/usbh_hid_mouse.c ****   0xFFFF,/*max value device can report*/
 147:./Libraries/STM32_USB_Host_Library/Class/HID/Src/usbh_hid_mouse.c ****   1      /*resolution*/
 148:./Libraries/STM32_USB_Host_Library/Class/HID/Src/usbh_hid_mouse.c **** };
 149:./Libraries/STM32_USB_Host_Library/Class/HID/Src/usbh_hid_mouse.c **** 
 150:./Libraries/STM32_USB_Host_Library/Class/HID/Src/usbh_hid_mouse.c **** /* Access y coordinate change. */
 151:./Libraries/STM32_USB_Host_Library/Class/HID/Src/usbh_hid_mouse.c **** static const HID_Report_ItemTypedef prop_y =
 152:./Libraries/STM32_USB_Host_Library/Class/HID/Src/usbh_hid_mouse.c **** {
 153:./Libraries/STM32_USB_Host_Library/Class/HID/Src/usbh_hid_mouse.c ****   (uint8_t *)(void *)mouse_report_data + 2, /*data*/
 154:./Libraries/STM32_USB_Host_Library/Class/HID/Src/usbh_hid_mouse.c ****   8,     /*size*/
 155:./Libraries/STM32_USB_Host_Library/Class/HID/Src/usbh_hid_mouse.c ****   0,     /*shift*/
 156:./Libraries/STM32_USB_Host_Library/Class/HID/Src/usbh_hid_mouse.c ****   0,     /*count (only for array items)*/
 157:./Libraries/STM32_USB_Host_Library/Class/HID/Src/usbh_hid_mouse.c ****   1,     /*signed?*/
 158:./Libraries/STM32_USB_Host_Library/Class/HID/Src/usbh_hid_mouse.c ****   0,     /*min value read can return*/
 159:./Libraries/STM32_USB_Host_Library/Class/HID/Src/usbh_hid_mouse.c ****   0xFFFF,/*max value read can return*/
 160:./Libraries/STM32_USB_Host_Library/Class/HID/Src/usbh_hid_mouse.c ****   0,     /*min vale device can report*/
 161:./Libraries/STM32_USB_Host_Library/Class/HID/Src/usbh_hid_mouse.c ****   0xFFFF,/*max value device can report*/
 162:./Libraries/STM32_USB_Host_Library/Class/HID/Src/usbh_hid_mouse.c ****   1      /*resolution*/
 163:./Libraries/STM32_USB_Host_Library/Class/HID/Src/usbh_hid_mouse.c **** };
 164:./Libraries/STM32_USB_Host_Library/Class/HID/Src/usbh_hid_mouse.c **** 
 165:./Libraries/STM32_USB_Host_Library/Class/HID/Src/usbh_hid_mouse.c **** 
 166:./Libraries/STM32_USB_Host_Library/Class/HID/Src/usbh_hid_mouse.c **** /**
 167:./Libraries/STM32_USB_Host_Library/Class/HID/Src/usbh_hid_mouse.c ****   * @}
 168:./Libraries/STM32_USB_Host_Library/Class/HID/Src/usbh_hid_mouse.c ****   */
 169:./Libraries/STM32_USB_Host_Library/Class/HID/Src/usbh_hid_mouse.c **** 
 170:./Libraries/STM32_USB_Host_Library/Class/HID/Src/usbh_hid_mouse.c **** 
 171:./Libraries/STM32_USB_Host_Library/Class/HID/Src/usbh_hid_mouse.c **** /** @defgroup USBH_HID_MOUSE_Private_Functions
 172:./Libraries/STM32_USB_Host_Library/Class/HID/Src/usbh_hid_mouse.c ****   * @{
 173:./Libraries/STM32_USB_Host_Library/Class/HID/Src/usbh_hid_mouse.c ****   */
 174:./Libraries/STM32_USB_Host_Library/Class/HID/Src/usbh_hid_mouse.c **** 
 175:./Libraries/STM32_USB_Host_Library/Class/HID/Src/usbh_hid_mouse.c **** /**
 176:./Libraries/STM32_USB_Host_Library/Class/HID/Src/usbh_hid_mouse.c ****   * @brief  USBH_HID_MouseInit
 177:./Libraries/STM32_USB_Host_Library/Class/HID/Src/usbh_hid_mouse.c ****   *         The function init the HID mouse.
 178:./Libraries/STM32_USB_Host_Library/Class/HID/Src/usbh_hid_mouse.c ****   * @param  phost: Host handle
 179:./Libraries/STM32_USB_Host_Library/Class/HID/Src/usbh_hid_mouse.c ****   * @retval USBH Status
 180:./Libraries/STM32_USB_Host_Library/Class/HID/Src/usbh_hid_mouse.c ****   */
 181:./Libraries/STM32_USB_Host_Library/Class/HID/Src/usbh_hid_mouse.c **** USBH_StatusTypeDef USBH_HID_MouseInit(USBH_HandleTypeDef *phost)
 182:./Libraries/STM32_USB_Host_Library/Class/HID/Src/usbh_hid_mouse.c **** {
 111              		.loc 1 182 1
 112              		.cfi_startproc
 113              		@ args = 0, pretend = 0, frame = 16
 114              		@ frame_needed = 1, uses_anonymous_args = 0
ARM GAS  /tmp/ccpDRd7E.s 			page 6


 115 0000 80B5     		push	{r7, lr}
 116              	.LCFI0:
 117              		.cfi_def_cfa_offset 8
 118              		.cfi_offset 7, -8
 119              		.cfi_offset 14, -4
 120 0002 84B0     		sub	sp, sp, #16
 121              	.LCFI1:
 122              		.cfi_def_cfa_offset 24
 123 0004 00AF     		add	r7, sp, #0
 124              	.LCFI2:
 125              		.cfi_def_cfa_register 7
 126 0006 7860     		str	r0, [r7, #4]
 183:./Libraries/STM32_USB_Host_Library/Class/HID/Src/usbh_hid_mouse.c ****   uint32_t i;
 184:./Libraries/STM32_USB_Host_Library/Class/HID/Src/usbh_hid_mouse.c ****   HID_HandleTypeDef *HID_Handle = (HID_HandleTypeDef *) phost->pActiveClass->pData;
 127              		.loc 1 184 62
 128 0008 7B68     		ldr	r3, [r7, #4]
 129 000a D3F87C34 		ldr	r3, [r3, #1148]
 130              		.loc 1 184 22
 131 000e DB69     		ldr	r3, [r3, #28]
 132 0010 BB60     		str	r3, [r7, #8]
 185:./Libraries/STM32_USB_Host_Library/Class/HID/Src/usbh_hid_mouse.c **** 
 186:./Libraries/STM32_USB_Host_Library/Class/HID/Src/usbh_hid_mouse.c ****   mouse_info.x = 0U;
 133              		.loc 1 186 16
 134 0012 1D4B     		ldr	r3, .L6
 135 0014 0022     		movs	r2, #0
 136 0016 1A70     		strb	r2, [r3]
 187:./Libraries/STM32_USB_Host_Library/Class/HID/Src/usbh_hid_mouse.c ****   mouse_info.y = 0U;
 137              		.loc 1 187 16
 138 0018 1B4B     		ldr	r3, .L6
 139 001a 0022     		movs	r2, #0
 140 001c 5A70     		strb	r2, [r3, #1]
 188:./Libraries/STM32_USB_Host_Library/Class/HID/Src/usbh_hid_mouse.c ****   mouse_info.buttons[0] = 0U;
 141              		.loc 1 188 25
 142 001e 1A4B     		ldr	r3, .L6
 143 0020 0022     		movs	r2, #0
 144 0022 9A70     		strb	r2, [r3, #2]
 189:./Libraries/STM32_USB_Host_Library/Class/HID/Src/usbh_hid_mouse.c ****   mouse_info.buttons[1] = 0U;
 145              		.loc 1 189 25
 146 0024 184B     		ldr	r3, .L6
 147 0026 0022     		movs	r2, #0
 148 0028 DA70     		strb	r2, [r3, #3]
 190:./Libraries/STM32_USB_Host_Library/Class/HID/Src/usbh_hid_mouse.c ****   mouse_info.buttons[2] = 0U;
 149              		.loc 1 190 25
 150 002a 174B     		ldr	r3, .L6
 151 002c 0022     		movs	r2, #0
 152 002e 1A71     		strb	r2, [r3, #4]
 191:./Libraries/STM32_USB_Host_Library/Class/HID/Src/usbh_hid_mouse.c **** 
 192:./Libraries/STM32_USB_Host_Library/Class/HID/Src/usbh_hid_mouse.c ****   for (i = 0U; i < (sizeof(mouse_report_data) / sizeof(uint32_t)); i++)
 153              		.loc 1 192 10
 154 0030 0023     		movs	r3, #0
 155 0032 FB60     		str	r3, [r7, #12]
 156              		.loc 1 192 3
 157 0034 0CE0     		b	.L2
 158              	.L3:
 193:./Libraries/STM32_USB_Host_Library/Class/HID/Src/usbh_hid_mouse.c ****   {
 194:./Libraries/STM32_USB_Host_Library/Class/HID/Src/usbh_hid_mouse.c ****     mouse_report_data[i] = 0U;
 159              		.loc 1 194 26 discriminator 3
ARM GAS  /tmp/ccpDRd7E.s 			page 7


 160 0036 154A     		ldr	r2, .L6+4
 161 0038 FB68     		ldr	r3, [r7, #12]
 162 003a 0021     		movs	r1, #0
 163 003c 42F82310 		str	r1, [r2, r3, lsl #2]
 195:./Libraries/STM32_USB_Host_Library/Class/HID/Src/usbh_hid_mouse.c ****     mouse_rx_report_buf[i] = 0U;
 164              		.loc 1 195 28 discriminator 3
 165 0040 134A     		ldr	r2, .L6+8
 166 0042 FB68     		ldr	r3, [r7, #12]
 167 0044 0021     		movs	r1, #0
 168 0046 42F82310 		str	r1, [r2, r3, lsl #2]
 192:./Libraries/STM32_USB_Host_Library/Class/HID/Src/usbh_hid_mouse.c ****   {
 169              		.loc 1 192 69 discriminator 3
 170 004a FB68     		ldr	r3, [r7, #12]
 171 004c 0133     		adds	r3, r3, #1
 172 004e FB60     		str	r3, [r7, #12]
 173              	.L2:
 192:./Libraries/STM32_USB_Host_Library/Class/HID/Src/usbh_hid_mouse.c ****   {
 174              		.loc 1 192 3 discriminator 1
 175 0050 FB68     		ldr	r3, [r7, #12]
 176 0052 012B     		cmp	r3, #1
 177 0054 EFD9     		bls	.L3
 196:./Libraries/STM32_USB_Host_Library/Class/HID/Src/usbh_hid_mouse.c ****   }
 197:./Libraries/STM32_USB_Host_Library/Class/HID/Src/usbh_hid_mouse.c **** 
 198:./Libraries/STM32_USB_Host_Library/Class/HID/Src/usbh_hid_mouse.c ****   if (HID_Handle->length > sizeof(mouse_report_data))
 178              		.loc 1 198 17
 179 0056 BB68     		ldr	r3, [r7, #8]
 180 0058 1B8B     		ldrh	r3, [r3, #24]
 181              		.loc 1 198 6
 182 005a 082B     		cmp	r3, #8
 183 005c 02D9     		bls	.L4
 199:./Libraries/STM32_USB_Host_Library/Class/HID/Src/usbh_hid_mouse.c ****   {
 200:./Libraries/STM32_USB_Host_Library/Class/HID/Src/usbh_hid_mouse.c ****     HID_Handle->length = sizeof(mouse_report_data);
 184              		.loc 1 200 24
 185 005e BB68     		ldr	r3, [r7, #8]
 186 0060 0822     		movs	r2, #8
 187 0062 1A83     		strh	r2, [r3, #24]	@ movhi
 188              	.L4:
 201:./Libraries/STM32_USB_Host_Library/Class/HID/Src/usbh_hid_mouse.c ****   }
 202:./Libraries/STM32_USB_Host_Library/Class/HID/Src/usbh_hid_mouse.c ****   HID_Handle->pData = (uint8_t *)(void *)mouse_rx_report_buf;
 189              		.loc 1 202 21
 190 0064 BB68     		ldr	r3, [r7, #8]
 191 0066 0A4A     		ldr	r2, .L6+8
 192 0068 5A61     		str	r2, [r3, #20]
 203:./Libraries/STM32_USB_Host_Library/Class/HID/Src/usbh_hid_mouse.c ****   USBH_HID_FifoInit(&HID_Handle->fifo, phost->device.Data, HID_QUEUE_SIZE * sizeof(mouse_report_dat
 193              		.loc 1 203 3
 194 006a BB68     		ldr	r3, [r7, #8]
 195 006c 03F10800 		add	r0, r3, #8
 196              		.loc 1 203 53
 197 0070 7B68     		ldr	r3, [r7, #4]
 198 0072 03F50773 		add	r3, r3, #540
 199              		.loc 1 203 3
 200 0076 5022     		movs	r2, #80
 201 0078 1946     		mov	r1, r3
 202 007a FFF7FEFF 		bl	USBH_HID_FifoInit
 204:./Libraries/STM32_USB_Host_Library/Class/HID/Src/usbh_hid_mouse.c **** 
 205:./Libraries/STM32_USB_Host_Library/Class/HID/Src/usbh_hid_mouse.c ****   return USBH_OK;
 203              		.loc 1 205 10
ARM GAS  /tmp/ccpDRd7E.s 			page 8


 204 007e 0023     		movs	r3, #0
 206:./Libraries/STM32_USB_Host_Library/Class/HID/Src/usbh_hid_mouse.c **** }
 205              		.loc 1 206 1
 206 0080 1846     		mov	r0, r3
 207 0082 1037     		adds	r7, r7, #16
 208              	.LCFI3:
 209              		.cfi_def_cfa_offset 8
 210 0084 BD46     		mov	sp, r7
 211              	.LCFI4:
 212              		.cfi_def_cfa_register 13
 213              		@ sp needed
 214 0086 80BD     		pop	{r7, pc}
 215              	.L7:
 216              		.align	2
 217              	.L6:
 218 0088 00000000 		.word	mouse_info
 219 008c 00000000 		.word	mouse_report_data
 220 0090 00000000 		.word	mouse_rx_report_buf
 221              		.cfi_endproc
 222              	.LFE338:
 224              		.section	.text.USBH_HID_GetMouseInfo,"ax",%progbits
 225              		.align	1
 226              		.global	USBH_HID_GetMouseInfo
 227              		.syntax unified
 228              		.thumb
 229              		.thumb_func
 230              		.fpu fpv5-d16
 232              	USBH_HID_GetMouseInfo:
 233              	.LFB339:
 207:./Libraries/STM32_USB_Host_Library/Class/HID/Src/usbh_hid_mouse.c **** 
 208:./Libraries/STM32_USB_Host_Library/Class/HID/Src/usbh_hid_mouse.c **** /**
 209:./Libraries/STM32_USB_Host_Library/Class/HID/Src/usbh_hid_mouse.c ****   * @brief  USBH_HID_GetMouseInfo
 210:./Libraries/STM32_USB_Host_Library/Class/HID/Src/usbh_hid_mouse.c ****   *         The function return mouse information.
 211:./Libraries/STM32_USB_Host_Library/Class/HID/Src/usbh_hid_mouse.c ****   * @param  phost: Host handle
 212:./Libraries/STM32_USB_Host_Library/Class/HID/Src/usbh_hid_mouse.c ****   * @retval mouse information
 213:./Libraries/STM32_USB_Host_Library/Class/HID/Src/usbh_hid_mouse.c ****   */
 214:./Libraries/STM32_USB_Host_Library/Class/HID/Src/usbh_hid_mouse.c **** HID_MOUSE_Info_TypeDef *USBH_HID_GetMouseInfo(USBH_HandleTypeDef *phost)
 215:./Libraries/STM32_USB_Host_Library/Class/HID/Src/usbh_hid_mouse.c **** {
 234              		.loc 1 215 1
 235              		.cfi_startproc
 236              		@ args = 0, pretend = 0, frame = 8
 237              		@ frame_needed = 1, uses_anonymous_args = 0
 238 0000 80B5     		push	{r7, lr}
 239              	.LCFI5:
 240              		.cfi_def_cfa_offset 8
 241              		.cfi_offset 7, -8
 242              		.cfi_offset 14, -4
 243 0002 82B0     		sub	sp, sp, #8
 244              	.LCFI6:
 245              		.cfi_def_cfa_offset 16
 246 0004 00AF     		add	r7, sp, #0
 247              	.LCFI7:
 248              		.cfi_def_cfa_register 7
 249 0006 7860     		str	r0, [r7, #4]
 216:./Libraries/STM32_USB_Host_Library/Class/HID/Src/usbh_hid_mouse.c ****   if (USBH_HID_MouseDecode(phost) == USBH_OK)
 250              		.loc 1 216 7
 251 0008 7868     		ldr	r0, [r7, #4]
ARM GAS  /tmp/ccpDRd7E.s 			page 9


 252 000a FFF7FEFF 		bl	USBH_HID_MouseDecode
 253 000e 0346     		mov	r3, r0
 254              		.loc 1 216 6
 255 0010 002B     		cmp	r3, #0
 256 0012 01D1     		bne	.L9
 217:./Libraries/STM32_USB_Host_Library/Class/HID/Src/usbh_hid_mouse.c ****   {
 218:./Libraries/STM32_USB_Host_Library/Class/HID/Src/usbh_hid_mouse.c ****     return &mouse_info;
 257              		.loc 1 218 12
 258 0014 034B     		ldr	r3, .L11
 259 0016 00E0     		b	.L10
 260              	.L9:
 219:./Libraries/STM32_USB_Host_Library/Class/HID/Src/usbh_hid_mouse.c ****   }
 220:./Libraries/STM32_USB_Host_Library/Class/HID/Src/usbh_hid_mouse.c ****   else
 221:./Libraries/STM32_USB_Host_Library/Class/HID/Src/usbh_hid_mouse.c ****   {
 222:./Libraries/STM32_USB_Host_Library/Class/HID/Src/usbh_hid_mouse.c ****     return NULL;
 261              		.loc 1 222 12
 262 0018 0023     		movs	r3, #0
 263              	.L10:
 223:./Libraries/STM32_USB_Host_Library/Class/HID/Src/usbh_hid_mouse.c ****   }
 224:./Libraries/STM32_USB_Host_Library/Class/HID/Src/usbh_hid_mouse.c **** }
 264              		.loc 1 224 1
 265 001a 1846     		mov	r0, r3
 266 001c 0837     		adds	r7, r7, #8
 267              	.LCFI8:
 268              		.cfi_def_cfa_offset 8
 269 001e BD46     		mov	sp, r7
 270              	.LCFI9:
 271              		.cfi_def_cfa_register 13
 272              		@ sp needed
 273 0020 80BD     		pop	{r7, pc}
 274              	.L12:
 275 0022 00BF     		.align	2
 276              	.L11:
 277 0024 00000000 		.word	mouse_info
 278              		.cfi_endproc
 279              	.LFE339:
 281              		.section	.text.USBH_HID_MouseDecode,"ax",%progbits
 282              		.align	1
 283              		.syntax unified
 284              		.thumb
 285              		.thumb_func
 286              		.fpu fpv5-d16
 288              	USBH_HID_MouseDecode:
 289              	.LFB340:
 225:./Libraries/STM32_USB_Host_Library/Class/HID/Src/usbh_hid_mouse.c **** 
 226:./Libraries/STM32_USB_Host_Library/Class/HID/Src/usbh_hid_mouse.c **** /**
 227:./Libraries/STM32_USB_Host_Library/Class/HID/Src/usbh_hid_mouse.c ****   * @brief  USBH_HID_MouseDecode
 228:./Libraries/STM32_USB_Host_Library/Class/HID/Src/usbh_hid_mouse.c ****   *         The function decode mouse data.
 229:./Libraries/STM32_USB_Host_Library/Class/HID/Src/usbh_hid_mouse.c ****   * @param  phost: Host handle
 230:./Libraries/STM32_USB_Host_Library/Class/HID/Src/usbh_hid_mouse.c ****   * @retval USBH Status
 231:./Libraries/STM32_USB_Host_Library/Class/HID/Src/usbh_hid_mouse.c ****   */
 232:./Libraries/STM32_USB_Host_Library/Class/HID/Src/usbh_hid_mouse.c **** static USBH_StatusTypeDef USBH_HID_MouseDecode(USBH_HandleTypeDef *phost)
 233:./Libraries/STM32_USB_Host_Library/Class/HID/Src/usbh_hid_mouse.c **** {
 290              		.loc 1 233 1
 291              		.cfi_startproc
 292              		@ args = 0, pretend = 0, frame = 16
 293              		@ frame_needed = 1, uses_anonymous_args = 0
ARM GAS  /tmp/ccpDRd7E.s 			page 10


 294 0000 80B5     		push	{r7, lr}
 295              	.LCFI10:
 296              		.cfi_def_cfa_offset 8
 297              		.cfi_offset 7, -8
 298              		.cfi_offset 14, -4
 299 0002 84B0     		sub	sp, sp, #16
 300              	.LCFI11:
 301              		.cfi_def_cfa_offset 24
 302 0004 00AF     		add	r7, sp, #0
 303              	.LCFI12:
 304              		.cfi_def_cfa_register 7
 305 0006 7860     		str	r0, [r7, #4]
 234:./Libraries/STM32_USB_Host_Library/Class/HID/Src/usbh_hid_mouse.c ****   HID_HandleTypeDef *HID_Handle = (HID_HandleTypeDef *) phost->pActiveClass->pData;
 306              		.loc 1 234 62
 307 0008 7B68     		ldr	r3, [r7, #4]
 308 000a D3F87C34 		ldr	r3, [r3, #1148]
 309              		.loc 1 234 22
 310 000e DB69     		ldr	r3, [r3, #28]
 311 0010 FB60     		str	r3, [r7, #12]
 235:./Libraries/STM32_USB_Host_Library/Class/HID/Src/usbh_hid_mouse.c **** 
 236:./Libraries/STM32_USB_Host_Library/Class/HID/Src/usbh_hid_mouse.c ****   if (HID_Handle->length == 0U)
 312              		.loc 1 236 17
 313 0012 FB68     		ldr	r3, [r7, #12]
 314 0014 1B8B     		ldrh	r3, [r3, #24]
 315              		.loc 1 236 6
 316 0016 002B     		cmp	r3, #0
 317 0018 01D1     		bne	.L14
 237:./Libraries/STM32_USB_Host_Library/Class/HID/Src/usbh_hid_mouse.c ****   {
 238:./Libraries/STM32_USB_Host_Library/Class/HID/Src/usbh_hid_mouse.c ****     return USBH_FAIL;
 318              		.loc 1 238 12
 319 001a 0223     		movs	r3, #2
 320 001c 39E0     		b	.L15
 321              	.L14:
 239:./Libraries/STM32_USB_Host_Library/Class/HID/Src/usbh_hid_mouse.c ****   }
 240:./Libraries/STM32_USB_Host_Library/Class/HID/Src/usbh_hid_mouse.c ****   /*Fill report */
 241:./Libraries/STM32_USB_Host_Library/Class/HID/Src/usbh_hid_mouse.c ****   if (USBH_HID_FifoRead(&HID_Handle->fifo, &mouse_report_data, HID_Handle->length) ==  HID_Handle->
 322              		.loc 1 241 7
 323 001e FB68     		ldr	r3, [r7, #12]
 324 0020 03F10800 		add	r0, r3, #8
 325 0024 FB68     		ldr	r3, [r7, #12]
 326 0026 1B8B     		ldrh	r3, [r3, #24]
 327 0028 1A46     		mov	r2, r3
 328 002a 1C49     		ldr	r1, .L17
 329 002c FFF7FEFF 		bl	USBH_HID_FifoRead
 330 0030 0346     		mov	r3, r0
 331 0032 1A46     		mov	r2, r3
 332              		.loc 1 241 98
 333 0034 FB68     		ldr	r3, [r7, #12]
 334 0036 1B8B     		ldrh	r3, [r3, #24]
 335              		.loc 1 241 6
 336 0038 9A42     		cmp	r2, r3
 337 003a 29D1     		bne	.L16
 242:./Libraries/STM32_USB_Host_Library/Class/HID/Src/usbh_hid_mouse.c ****   {
 243:./Libraries/STM32_USB_Host_Library/Class/HID/Src/usbh_hid_mouse.c ****     /*Decode report */
 244:./Libraries/STM32_USB_Host_Library/Class/HID/Src/usbh_hid_mouse.c ****     mouse_info.x = (uint8_t)HID_ReadItem((HID_Report_ItemTypedef *) &prop_x, 0U);
 338              		.loc 1 244 29
 339 003c 0021     		movs	r1, #0
ARM GAS  /tmp/ccpDRd7E.s 			page 11


 340 003e 1848     		ldr	r0, .L17+4
 341 0040 FFF7FEFF 		bl	HID_ReadItem
 342 0044 0346     		mov	r3, r0
 343              		.loc 1 244 20
 344 0046 DAB2     		uxtb	r2, r3
 345              		.loc 1 244 18
 346 0048 164B     		ldr	r3, .L17+8
 347 004a 1A70     		strb	r2, [r3]
 245:./Libraries/STM32_USB_Host_Library/Class/HID/Src/usbh_hid_mouse.c ****     mouse_info.y = (uint8_t)HID_ReadItem((HID_Report_ItemTypedef *) &prop_y, 0U);
 348              		.loc 1 245 29
 349 004c 0021     		movs	r1, #0
 350 004e 1648     		ldr	r0, .L17+12
 351 0050 FFF7FEFF 		bl	HID_ReadItem
 352 0054 0346     		mov	r3, r0
 353              		.loc 1 245 20
 354 0056 DAB2     		uxtb	r2, r3
 355              		.loc 1 245 18
 356 0058 124B     		ldr	r3, .L17+8
 357 005a 5A70     		strb	r2, [r3, #1]
 246:./Libraries/STM32_USB_Host_Library/Class/HID/Src/usbh_hid_mouse.c **** 
 247:./Libraries/STM32_USB_Host_Library/Class/HID/Src/usbh_hid_mouse.c ****     mouse_info.buttons[0] = (uint8_t)HID_ReadItem((HID_Report_ItemTypedef *) &prop_b1, 0U);
 358              		.loc 1 247 38
 359 005c 0021     		movs	r1, #0
 360 005e 1348     		ldr	r0, .L17+16
 361 0060 FFF7FEFF 		bl	HID_ReadItem
 362 0064 0346     		mov	r3, r0
 363              		.loc 1 247 29
 364 0066 DAB2     		uxtb	r2, r3
 365              		.loc 1 247 27
 366 0068 0E4B     		ldr	r3, .L17+8
 367 006a 9A70     		strb	r2, [r3, #2]
 248:./Libraries/STM32_USB_Host_Library/Class/HID/Src/usbh_hid_mouse.c ****     mouse_info.buttons[1] = (uint8_t)HID_ReadItem((HID_Report_ItemTypedef *) &prop_b2, 0U);
 368              		.loc 1 248 38
 369 006c 0021     		movs	r1, #0
 370 006e 1048     		ldr	r0, .L17+20
 371 0070 FFF7FEFF 		bl	HID_ReadItem
 372 0074 0346     		mov	r3, r0
 373              		.loc 1 248 29
 374 0076 DAB2     		uxtb	r2, r3
 375              		.loc 1 248 27
 376 0078 0A4B     		ldr	r3, .L17+8
 377 007a DA70     		strb	r2, [r3, #3]
 249:./Libraries/STM32_USB_Host_Library/Class/HID/Src/usbh_hid_mouse.c ****     mouse_info.buttons[2] = (uint8_t)HID_ReadItem((HID_Report_ItemTypedef *) &prop_b3, 0U);
 378              		.loc 1 249 38
 379 007c 0021     		movs	r1, #0
 380 007e 0D48     		ldr	r0, .L17+24
 381 0080 FFF7FEFF 		bl	HID_ReadItem
 382 0084 0346     		mov	r3, r0
 383              		.loc 1 249 29
 384 0086 DAB2     		uxtb	r2, r3
 385              		.loc 1 249 27
 386 0088 064B     		ldr	r3, .L17+8
 387 008a 1A71     		strb	r2, [r3, #4]
 250:./Libraries/STM32_USB_Host_Library/Class/HID/Src/usbh_hid_mouse.c **** 
 251:./Libraries/STM32_USB_Host_Library/Class/HID/Src/usbh_hid_mouse.c ****     return USBH_OK;
 388              		.loc 1 251 12
 389 008c 0023     		movs	r3, #0
ARM GAS  /tmp/ccpDRd7E.s 			page 12


 390 008e 00E0     		b	.L15
 391              	.L16:
 252:./Libraries/STM32_USB_Host_Library/Class/HID/Src/usbh_hid_mouse.c ****   }
 253:./Libraries/STM32_USB_Host_Library/Class/HID/Src/usbh_hid_mouse.c ****   return   USBH_FAIL;
 392              		.loc 1 253 12
 393 0090 0223     		movs	r3, #2
 394              	.L15:
 254:./Libraries/STM32_USB_Host_Library/Class/HID/Src/usbh_hid_mouse.c **** }
 395              		.loc 1 254 1
 396 0092 1846     		mov	r0, r3
 397 0094 1037     		adds	r7, r7, #16
 398              	.LCFI13:
 399              		.cfi_def_cfa_offset 8
 400 0096 BD46     		mov	sp, r7
 401              	.LCFI14:
 402              		.cfi_def_cfa_register 13
 403              		@ sp needed
 404 0098 80BD     		pop	{r7, pc}
 405              	.L18:
 406 009a 00BF     		.align	2
 407              	.L17:
 408 009c 00000000 		.word	mouse_report_data
 409 00a0 00000000 		.word	prop_x
 410 00a4 00000000 		.word	mouse_info
 411 00a8 00000000 		.word	prop_y
 412 00ac 00000000 		.word	prop_b1
 413 00b0 00000000 		.word	prop_b2
 414 00b4 00000000 		.word	prop_b3
 415              		.cfi_endproc
 416              	.LFE340:
 418              		.text
 419              	.Letext0:
 420              		.file 2 "/usr/lib/gcc/arm-none-eabi/9.2.1/include/stdint.h"
 421              		.file 3 "./Libraries/CMSIS/Core/Include/core_cm7.h"
 422              		.file 4 "./Libraries/CMSIS/Device/ST/STM32H7xx/Include/system_stm32h7xx.h"
 423              		.file 5 "/usr/lib/gcc/arm-none-eabi/9.2.1/include/stddef.h"
 424              		.file 6 "/usr/include/newlib/sys/_types.h"
 425              		.file 7 "/usr/include/newlib/sys/reent.h"
 426              		.file 8 "/usr/include/newlib/sys/lock.h"
 427              		.file 9 "/usr/include/newlib/math.h"
 428              		.file 10 "./Libraries/STM32H7xx_HAL_Driver/Inc/stm32h7xx_hal_def.h"
 429              		.file 11 "./Libraries/STM32H7xx_HAL_Driver/Inc/stm32h7xx_hal_flash.h"
 430              		.file 12 "./Libraries/STM32H7xx_HAL_Driver/Inc/stm32h7xx_hal_uart.h"
 431              		.file 13 "./Libraries/STM32H7xx_HAL_Driver/Inc/stm32h7xx_hal.h"
 432              		.file 14 "/usr/include/newlib/stdlib.h"
 433              		.file 15 "./Libraries/FreeRTOS/Source/CMSIS_RTOS/cmsis_os2.h"
 434              		.file 16 "./Libraries/STM32_USB_Host_Library/Core/Inc/usbh_def.h"
 435              		.file 17 "./Libraries/STM32_USB_Host_Library/Core/Inc/usbh_ctlreq.h"
 436              		.file 18 "./Libraries/STM32_USB_Host_Library/Class/HID/Inc/usbh_hid.h"
 437              		.file 19 "./Libraries/STM32_USB_Host_Library/Class/HID/Inc/usbh_hid_mouse.h"
 438              		.file 20 "./Libraries/STM32_USB_Host_Library/Class/HID/Inc/usbh_hid_parser.h"
ARM GAS  /tmp/ccpDRd7E.s 			page 13

