ARM GAS  /tmp/ccM6gtS8.s 			page 1


   1              		.cpu cortex-m7
   2              		.eabi_attribute 28, 1
   3              		.eabi_attribute 20, 1
   4              		.eabi_attribute 21, 1
   5              		.eabi_attribute 23, 3
   6              		.eabi_attribute 24, 1
   7              		.eabi_attribute 25, 1
   8              		.eabi_attribute 26, 1
   9              		.eabi_attribute 30, 6
  10              		.eabi_attribute 34, 1
  11              		.eabi_attribute 18, 4
  12              		.file	"usbh_hid.c"
  13              		.text
  14              	.Ltext0:
  15              		.cfi_sections	.debug_frame
  16              		.global	HID_Class
  17              		.section	.rodata
  18              		.align	2
  19              	.LC0:
  20 0000 48494400 		.ascii	"HID\000"
  21              		.section	.data.HID_Class,"aw"
  22              		.align	2
  25              	HID_Class:
  26 0000 00000000 		.word	.LC0
  27 0004 03       		.byte	3
  28 0005 000000   		.space	3
  29 0008 00000000 		.word	USBH_HID_InterfaceInit
  30 000c 00000000 		.word	USBH_HID_InterfaceDeInit
  31 0010 00000000 		.word	USBH_HID_ClassRequest
  32 0014 00000000 		.word	USBH_HID_Process
  33 0018 00000000 		.word	USBH_HID_SOFProcess
  34 001c 00000000 		.word	0
  35              		.section	.text.USBH_HID_InterfaceInit,"ax",%progbits
  36              		.align	1
  37              		.arch armv7e-m
  38              		.syntax unified
  39              		.thumb
  40              		.thumb_func
  41              		.fpu fpv5-d16
  43              	USBH_HID_InterfaceInit:
  44              	.LFB338:
  45              		.file 1 "./Libraries/STM32_USB_Host_Library/Class/HID/Src/usbh_hid.c"
   1:./Libraries/STM32_USB_Host_Library/Class/HID/Src/usbh_hid.c **** /**
   2:./Libraries/STM32_USB_Host_Library/Class/HID/Src/usbh_hid.c ****   ******************************************************************************
   3:./Libraries/STM32_USB_Host_Library/Class/HID/Src/usbh_hid.c ****   * @file    usbh_hid.c
   4:./Libraries/STM32_USB_Host_Library/Class/HID/Src/usbh_hid.c ****   * @author  MCD Application Team
   5:./Libraries/STM32_USB_Host_Library/Class/HID/Src/usbh_hid.c ****   * @brief   This file is the HID Layer Handlers for USB Host HID class.
   6:./Libraries/STM32_USB_Host_Library/Class/HID/Src/usbh_hid.c ****   *
   7:./Libraries/STM32_USB_Host_Library/Class/HID/Src/usbh_hid.c ****   * @verbatim
   8:./Libraries/STM32_USB_Host_Library/Class/HID/Src/usbh_hid.c ****   *
   9:./Libraries/STM32_USB_Host_Library/Class/HID/Src/usbh_hid.c ****   *          ===================================================================
  10:./Libraries/STM32_USB_Host_Library/Class/HID/Src/usbh_hid.c ****   *                                HID Class  Description
  11:./Libraries/STM32_USB_Host_Library/Class/HID/Src/usbh_hid.c ****   *          ===================================================================
  12:./Libraries/STM32_USB_Host_Library/Class/HID/Src/usbh_hid.c ****   *           This module manages the HID class V1.11 following the "Device Class Definition
  13:./Libraries/STM32_USB_Host_Library/Class/HID/Src/usbh_hid.c ****   *           for Human Interface Devices (HID) Version 1.11 Jun 27, 2001".
  14:./Libraries/STM32_USB_Host_Library/Class/HID/Src/usbh_hid.c ****   *           This driver implements the following aspects of the specification:
  15:./Libraries/STM32_USB_Host_Library/Class/HID/Src/usbh_hid.c ****   *             - The Boot Interface Subclass
ARM GAS  /tmp/ccM6gtS8.s 			page 2


  16:./Libraries/STM32_USB_Host_Library/Class/HID/Src/usbh_hid.c ****   *             - The Mouse and Keyboard protocols
  17:./Libraries/STM32_USB_Host_Library/Class/HID/Src/usbh_hid.c ****   *
  18:./Libraries/STM32_USB_Host_Library/Class/HID/Src/usbh_hid.c ****   *  @endverbatim
  19:./Libraries/STM32_USB_Host_Library/Class/HID/Src/usbh_hid.c ****   *
  20:./Libraries/STM32_USB_Host_Library/Class/HID/Src/usbh_hid.c ****   ******************************************************************************
  21:./Libraries/STM32_USB_Host_Library/Class/HID/Src/usbh_hid.c ****   * @attention
  22:./Libraries/STM32_USB_Host_Library/Class/HID/Src/usbh_hid.c ****   *
  23:./Libraries/STM32_USB_Host_Library/Class/HID/Src/usbh_hid.c ****   * <h2><center>&copy; Copyright (c) 2015 STMicroelectronics.
  24:./Libraries/STM32_USB_Host_Library/Class/HID/Src/usbh_hid.c ****   * All rights reserved.</center></h2>
  25:./Libraries/STM32_USB_Host_Library/Class/HID/Src/usbh_hid.c ****   *
  26:./Libraries/STM32_USB_Host_Library/Class/HID/Src/usbh_hid.c ****   * This software component is licensed by ST under Ultimate Liberty license
  27:./Libraries/STM32_USB_Host_Library/Class/HID/Src/usbh_hid.c ****   * SLA0044, the "License"; You may not use this file except in compliance with
  28:./Libraries/STM32_USB_Host_Library/Class/HID/Src/usbh_hid.c ****   * the License. You may obtain a copy of the License at:
  29:./Libraries/STM32_USB_Host_Library/Class/HID/Src/usbh_hid.c ****   *                      www.st.com/SLA0044
  30:./Libraries/STM32_USB_Host_Library/Class/HID/Src/usbh_hid.c ****   *
  31:./Libraries/STM32_USB_Host_Library/Class/HID/Src/usbh_hid.c ****   ******************************************************************************
  32:./Libraries/STM32_USB_Host_Library/Class/HID/Src/usbh_hid.c ****   */
  33:./Libraries/STM32_USB_Host_Library/Class/HID/Src/usbh_hid.c **** 
  34:./Libraries/STM32_USB_Host_Library/Class/HID/Src/usbh_hid.c **** /* BSPDependencies
  35:./Libraries/STM32_USB_Host_Library/Class/HID/Src/usbh_hid.c **** - "stm32xxxxx_{eval}{discovery}{nucleo_144}.c"
  36:./Libraries/STM32_USB_Host_Library/Class/HID/Src/usbh_hid.c **** - "stm32xxxxx_{eval}{discovery}_io.c"
  37:./Libraries/STM32_USB_Host_Library/Class/HID/Src/usbh_hid.c **** - "stm32xxxxx_{eval}{discovery}{adafruit}_lcd.c"
  38:./Libraries/STM32_USB_Host_Library/Class/HID/Src/usbh_hid.c **** - "stm32xxxxx_{eval}{discovery}_sdram.c"
  39:./Libraries/STM32_USB_Host_Library/Class/HID/Src/usbh_hid.c **** EndBSPDependencies */
  40:./Libraries/STM32_USB_Host_Library/Class/HID/Src/usbh_hid.c **** 
  41:./Libraries/STM32_USB_Host_Library/Class/HID/Src/usbh_hid.c **** /* Includes ------------------------------------------------------------------*/
  42:./Libraries/STM32_USB_Host_Library/Class/HID/Src/usbh_hid.c **** #include "usbh_hid.h"
  43:./Libraries/STM32_USB_Host_Library/Class/HID/Src/usbh_hid.c **** #include "usbh_hid_parser.h"
  44:./Libraries/STM32_USB_Host_Library/Class/HID/Src/usbh_hid.c **** 
  45:./Libraries/STM32_USB_Host_Library/Class/HID/Src/usbh_hid.c **** 
  46:./Libraries/STM32_USB_Host_Library/Class/HID/Src/usbh_hid.c **** /** @addtogroup USBH_LIB
  47:./Libraries/STM32_USB_Host_Library/Class/HID/Src/usbh_hid.c **** * @{
  48:./Libraries/STM32_USB_Host_Library/Class/HID/Src/usbh_hid.c **** */
  49:./Libraries/STM32_USB_Host_Library/Class/HID/Src/usbh_hid.c **** 
  50:./Libraries/STM32_USB_Host_Library/Class/HID/Src/usbh_hid.c **** /** @addtogroup USBH_CLASS
  51:./Libraries/STM32_USB_Host_Library/Class/HID/Src/usbh_hid.c **** * @{
  52:./Libraries/STM32_USB_Host_Library/Class/HID/Src/usbh_hid.c **** */
  53:./Libraries/STM32_USB_Host_Library/Class/HID/Src/usbh_hid.c **** 
  54:./Libraries/STM32_USB_Host_Library/Class/HID/Src/usbh_hid.c **** /** @addtogroup USBH_HID_CLASS
  55:./Libraries/STM32_USB_Host_Library/Class/HID/Src/usbh_hid.c **** * @{
  56:./Libraries/STM32_USB_Host_Library/Class/HID/Src/usbh_hid.c **** */
  57:./Libraries/STM32_USB_Host_Library/Class/HID/Src/usbh_hid.c **** 
  58:./Libraries/STM32_USB_Host_Library/Class/HID/Src/usbh_hid.c **** /** @defgroup USBH_HID_CORE
  59:./Libraries/STM32_USB_Host_Library/Class/HID/Src/usbh_hid.c **** * @brief    This file includes HID Layer Handlers for USB Host HID class.
  60:./Libraries/STM32_USB_Host_Library/Class/HID/Src/usbh_hid.c **** * @{
  61:./Libraries/STM32_USB_Host_Library/Class/HID/Src/usbh_hid.c **** */
  62:./Libraries/STM32_USB_Host_Library/Class/HID/Src/usbh_hid.c **** 
  63:./Libraries/STM32_USB_Host_Library/Class/HID/Src/usbh_hid.c **** /** @defgroup USBH_HID_CORE_Private_TypesDefinitions
  64:./Libraries/STM32_USB_Host_Library/Class/HID/Src/usbh_hid.c **** * @{
  65:./Libraries/STM32_USB_Host_Library/Class/HID/Src/usbh_hid.c **** */
  66:./Libraries/STM32_USB_Host_Library/Class/HID/Src/usbh_hid.c **** /**
  67:./Libraries/STM32_USB_Host_Library/Class/HID/Src/usbh_hid.c **** * @}
  68:./Libraries/STM32_USB_Host_Library/Class/HID/Src/usbh_hid.c **** */
  69:./Libraries/STM32_USB_Host_Library/Class/HID/Src/usbh_hid.c **** 
  70:./Libraries/STM32_USB_Host_Library/Class/HID/Src/usbh_hid.c **** 
  71:./Libraries/STM32_USB_Host_Library/Class/HID/Src/usbh_hid.c **** /** @defgroup USBH_HID_CORE_Private_Defines
  72:./Libraries/STM32_USB_Host_Library/Class/HID/Src/usbh_hid.c **** * @{
ARM GAS  /tmp/ccM6gtS8.s 			page 3


  73:./Libraries/STM32_USB_Host_Library/Class/HID/Src/usbh_hid.c **** */
  74:./Libraries/STM32_USB_Host_Library/Class/HID/Src/usbh_hid.c **** /**
  75:./Libraries/STM32_USB_Host_Library/Class/HID/Src/usbh_hid.c **** * @}
  76:./Libraries/STM32_USB_Host_Library/Class/HID/Src/usbh_hid.c **** */
  77:./Libraries/STM32_USB_Host_Library/Class/HID/Src/usbh_hid.c **** 
  78:./Libraries/STM32_USB_Host_Library/Class/HID/Src/usbh_hid.c **** 
  79:./Libraries/STM32_USB_Host_Library/Class/HID/Src/usbh_hid.c **** /** @defgroup USBH_HID_CORE_Private_Macros
  80:./Libraries/STM32_USB_Host_Library/Class/HID/Src/usbh_hid.c **** * @{
  81:./Libraries/STM32_USB_Host_Library/Class/HID/Src/usbh_hid.c **** */
  82:./Libraries/STM32_USB_Host_Library/Class/HID/Src/usbh_hid.c **** /**
  83:./Libraries/STM32_USB_Host_Library/Class/HID/Src/usbh_hid.c **** * @}
  84:./Libraries/STM32_USB_Host_Library/Class/HID/Src/usbh_hid.c **** */
  85:./Libraries/STM32_USB_Host_Library/Class/HID/Src/usbh_hid.c **** 
  86:./Libraries/STM32_USB_Host_Library/Class/HID/Src/usbh_hid.c **** 
  87:./Libraries/STM32_USB_Host_Library/Class/HID/Src/usbh_hid.c **** /** @defgroup USBH_HID_CORE_Private_Variables
  88:./Libraries/STM32_USB_Host_Library/Class/HID/Src/usbh_hid.c **** * @{
  89:./Libraries/STM32_USB_Host_Library/Class/HID/Src/usbh_hid.c **** */
  90:./Libraries/STM32_USB_Host_Library/Class/HID/Src/usbh_hid.c **** 
  91:./Libraries/STM32_USB_Host_Library/Class/HID/Src/usbh_hid.c **** /**
  92:./Libraries/STM32_USB_Host_Library/Class/HID/Src/usbh_hid.c **** * @}
  93:./Libraries/STM32_USB_Host_Library/Class/HID/Src/usbh_hid.c **** */
  94:./Libraries/STM32_USB_Host_Library/Class/HID/Src/usbh_hid.c **** 
  95:./Libraries/STM32_USB_Host_Library/Class/HID/Src/usbh_hid.c **** 
  96:./Libraries/STM32_USB_Host_Library/Class/HID/Src/usbh_hid.c **** /** @defgroup USBH_HID_CORE_Private_FunctionPrototypes
  97:./Libraries/STM32_USB_Host_Library/Class/HID/Src/usbh_hid.c **** * @{
  98:./Libraries/STM32_USB_Host_Library/Class/HID/Src/usbh_hid.c **** */
  99:./Libraries/STM32_USB_Host_Library/Class/HID/Src/usbh_hid.c **** 
 100:./Libraries/STM32_USB_Host_Library/Class/HID/Src/usbh_hid.c **** static USBH_StatusTypeDef USBH_HID_InterfaceInit(USBH_HandleTypeDef *phost);
 101:./Libraries/STM32_USB_Host_Library/Class/HID/Src/usbh_hid.c **** static USBH_StatusTypeDef USBH_HID_InterfaceDeInit(USBH_HandleTypeDef *phost);
 102:./Libraries/STM32_USB_Host_Library/Class/HID/Src/usbh_hid.c **** static USBH_StatusTypeDef USBH_HID_ClassRequest(USBH_HandleTypeDef *phost);
 103:./Libraries/STM32_USB_Host_Library/Class/HID/Src/usbh_hid.c **** static USBH_StatusTypeDef USBH_HID_Process(USBH_HandleTypeDef *phost);
 104:./Libraries/STM32_USB_Host_Library/Class/HID/Src/usbh_hid.c **** static USBH_StatusTypeDef USBH_HID_SOFProcess(USBH_HandleTypeDef *phost);
 105:./Libraries/STM32_USB_Host_Library/Class/HID/Src/usbh_hid.c **** static void  USBH_HID_ParseHIDDesc(HID_DescTypeDef *desc, uint8_t *buf);
 106:./Libraries/STM32_USB_Host_Library/Class/HID/Src/usbh_hid.c **** 
 107:./Libraries/STM32_USB_Host_Library/Class/HID/Src/usbh_hid.c **** extern USBH_StatusTypeDef USBH_HID_MouseInit(USBH_HandleTypeDef *phost);
 108:./Libraries/STM32_USB_Host_Library/Class/HID/Src/usbh_hid.c **** extern USBH_StatusTypeDef USBH_HID_KeybdInit(USBH_HandleTypeDef *phost);
 109:./Libraries/STM32_USB_Host_Library/Class/HID/Src/usbh_hid.c **** 
 110:./Libraries/STM32_USB_Host_Library/Class/HID/Src/usbh_hid.c **** USBH_ClassTypeDef  HID_Class =
 111:./Libraries/STM32_USB_Host_Library/Class/HID/Src/usbh_hid.c **** {
 112:./Libraries/STM32_USB_Host_Library/Class/HID/Src/usbh_hid.c ****   "HID",
 113:./Libraries/STM32_USB_Host_Library/Class/HID/Src/usbh_hid.c ****   USB_HID_CLASS,
 114:./Libraries/STM32_USB_Host_Library/Class/HID/Src/usbh_hid.c ****   USBH_HID_InterfaceInit,
 115:./Libraries/STM32_USB_Host_Library/Class/HID/Src/usbh_hid.c ****   USBH_HID_InterfaceDeInit,
 116:./Libraries/STM32_USB_Host_Library/Class/HID/Src/usbh_hid.c ****   USBH_HID_ClassRequest,
 117:./Libraries/STM32_USB_Host_Library/Class/HID/Src/usbh_hid.c ****   USBH_HID_Process,
 118:./Libraries/STM32_USB_Host_Library/Class/HID/Src/usbh_hid.c ****   USBH_HID_SOFProcess,
 119:./Libraries/STM32_USB_Host_Library/Class/HID/Src/usbh_hid.c ****   NULL,
 120:./Libraries/STM32_USB_Host_Library/Class/HID/Src/usbh_hid.c **** };
 121:./Libraries/STM32_USB_Host_Library/Class/HID/Src/usbh_hid.c **** /**
 122:./Libraries/STM32_USB_Host_Library/Class/HID/Src/usbh_hid.c **** * @}
 123:./Libraries/STM32_USB_Host_Library/Class/HID/Src/usbh_hid.c **** */
 124:./Libraries/STM32_USB_Host_Library/Class/HID/Src/usbh_hid.c **** 
 125:./Libraries/STM32_USB_Host_Library/Class/HID/Src/usbh_hid.c **** 
 126:./Libraries/STM32_USB_Host_Library/Class/HID/Src/usbh_hid.c **** /** @defgroup USBH_HID_CORE_Private_Functions
 127:./Libraries/STM32_USB_Host_Library/Class/HID/Src/usbh_hid.c **** * @{
 128:./Libraries/STM32_USB_Host_Library/Class/HID/Src/usbh_hid.c **** */
 129:./Libraries/STM32_USB_Host_Library/Class/HID/Src/usbh_hid.c **** 
ARM GAS  /tmp/ccM6gtS8.s 			page 4


 130:./Libraries/STM32_USB_Host_Library/Class/HID/Src/usbh_hid.c **** 
 131:./Libraries/STM32_USB_Host_Library/Class/HID/Src/usbh_hid.c **** /**
 132:./Libraries/STM32_USB_Host_Library/Class/HID/Src/usbh_hid.c ****   * @brief  USBH_HID_InterfaceInit
 133:./Libraries/STM32_USB_Host_Library/Class/HID/Src/usbh_hid.c ****   *         The function init the HID class.
 134:./Libraries/STM32_USB_Host_Library/Class/HID/Src/usbh_hid.c ****   * @param  phost: Host handle
 135:./Libraries/STM32_USB_Host_Library/Class/HID/Src/usbh_hid.c ****   * @retval USBH Status
 136:./Libraries/STM32_USB_Host_Library/Class/HID/Src/usbh_hid.c ****   */
 137:./Libraries/STM32_USB_Host_Library/Class/HID/Src/usbh_hid.c **** static USBH_StatusTypeDef USBH_HID_InterfaceInit(USBH_HandleTypeDef *phost)
 138:./Libraries/STM32_USB_Host_Library/Class/HID/Src/usbh_hid.c **** {
  46              		.loc 1 138 1
  47              		.cfi_startproc
  48              		@ args = 0, pretend = 0, frame = 24
  49              		@ frame_needed = 1, uses_anonymous_args = 0
  50 0000 90B5     		push	{r4, r7, lr}
  51              	.LCFI0:
  52              		.cfi_def_cfa_offset 12
  53              		.cfi_offset 4, -12
  54              		.cfi_offset 7, -8
  55              		.cfi_offset 14, -4
  56 0002 8BB0     		sub	sp, sp, #44
  57              	.LCFI1:
  58              		.cfi_def_cfa_offset 56
  59 0004 04AF     		add	r7, sp, #16
  60              	.LCFI2:
  61              		.cfi_def_cfa 7, 40
  62 0006 7860     		str	r0, [r7, #4]
 139:./Libraries/STM32_USB_Host_Library/Class/HID/Src/usbh_hid.c ****   USBH_StatusTypeDef status;
 140:./Libraries/STM32_USB_Host_Library/Class/HID/Src/usbh_hid.c ****   HID_HandleTypeDef *HID_Handle;
 141:./Libraries/STM32_USB_Host_Library/Class/HID/Src/usbh_hid.c ****   uint8_t max_ep;
 142:./Libraries/STM32_USB_Host_Library/Class/HID/Src/usbh_hid.c ****   uint8_t num = 0U;
  63              		.loc 1 142 11
  64 0008 0023     		movs	r3, #0
  65 000a FB75     		strb	r3, [r7, #23]
 143:./Libraries/STM32_USB_Host_Library/Class/HID/Src/usbh_hid.c ****   uint8_t interface;
 144:./Libraries/STM32_USB_Host_Library/Class/HID/Src/usbh_hid.c **** 
 145:./Libraries/STM32_USB_Host_Library/Class/HID/Src/usbh_hid.c ****   interface = USBH_FindInterface(phost, phost->pActiveClass->ClassCode, HID_BOOT_CODE, 0xFFU);
  66              		.loc 1 145 46
  67 000c 7B68     		ldr	r3, [r7, #4]
  68 000e D3F87C34 		ldr	r3, [r3, #1148]
  69              		.loc 1 145 15
  70 0012 1979     		ldrb	r1, [r3, #4]	@ zero_extendqisi2
  71 0014 FF23     		movs	r3, #255
  72 0016 0122     		movs	r2, #1
  73 0018 7868     		ldr	r0, [r7, #4]
  74 001a FFF7FEFF 		bl	USBH_FindInterface
  75 001e 0346     		mov	r3, r0
  76 0020 BB75     		strb	r3, [r7, #22]
 146:./Libraries/STM32_USB_Host_Library/Class/HID/Src/usbh_hid.c **** 
 147:./Libraries/STM32_USB_Host_Library/Class/HID/Src/usbh_hid.c ****   if ((interface == 0xFFU) || (interface >= USBH_MAX_NUM_INTERFACES)) /* No Valid Interface */
  77              		.loc 1 147 6
  78 0022 BB7D     		ldrb	r3, [r7, #22]	@ zero_extendqisi2
  79 0024 FF2B     		cmp	r3, #255
  80 0026 02D0     		beq	.L2
  81              		.loc 1 147 28 discriminator 1
  82 0028 BB7D     		ldrb	r3, [r7, #22]	@ zero_extendqisi2
  83 002a 012B     		cmp	r3, #1
  84 002c 01D9     		bls	.L3
ARM GAS  /tmp/ccM6gtS8.s 			page 5


  85              	.L2:
 148:./Libraries/STM32_USB_Host_Library/Class/HID/Src/usbh_hid.c ****   {
 149:./Libraries/STM32_USB_Host_Library/Class/HID/Src/usbh_hid.c ****     USBH_DbgLog("Cannot Find the interface for %s class.", phost->pActiveClass->Name);
 150:./Libraries/STM32_USB_Host_Library/Class/HID/Src/usbh_hid.c ****     return USBH_FAIL;
  86              		.loc 1 150 12
  87 002e 0223     		movs	r3, #2
  88 0030 08E1     		b	.L4
  89              	.L3:
 151:./Libraries/STM32_USB_Host_Library/Class/HID/Src/usbh_hid.c ****   }
 152:./Libraries/STM32_USB_Host_Library/Class/HID/Src/usbh_hid.c **** 
 153:./Libraries/STM32_USB_Host_Library/Class/HID/Src/usbh_hid.c ****   status = USBH_SelectInterface(phost, interface);
  90              		.loc 1 153 12
  91 0032 BB7D     		ldrb	r3, [r7, #22]	@ zero_extendqisi2
  92 0034 1946     		mov	r1, r3
  93 0036 7868     		ldr	r0, [r7, #4]
  94 0038 FFF7FEFF 		bl	USBH_SelectInterface
  95 003c 0346     		mov	r3, r0
  96 003e 7B75     		strb	r3, [r7, #21]
 154:./Libraries/STM32_USB_Host_Library/Class/HID/Src/usbh_hid.c **** 
 155:./Libraries/STM32_USB_Host_Library/Class/HID/Src/usbh_hid.c ****   if (status != USBH_OK)
  97              		.loc 1 155 6
  98 0040 7B7D     		ldrb	r3, [r7, #21]	@ zero_extendqisi2
  99 0042 002B     		cmp	r3, #0
 100 0044 01D0     		beq	.L5
 156:./Libraries/STM32_USB_Host_Library/Class/HID/Src/usbh_hid.c ****   {
 157:./Libraries/STM32_USB_Host_Library/Class/HID/Src/usbh_hid.c ****     return USBH_FAIL;
 101              		.loc 1 157 12
 102 0046 0223     		movs	r3, #2
 103 0048 FCE0     		b	.L4
 104              	.L5:
 158:./Libraries/STM32_USB_Host_Library/Class/HID/Src/usbh_hid.c ****   }
 159:./Libraries/STM32_USB_Host_Library/Class/HID/Src/usbh_hid.c **** 
 160:./Libraries/STM32_USB_Host_Library/Class/HID/Src/usbh_hid.c ****   phost->pActiveClass->pData = (HID_HandleTypeDef *)USBH_malloc(sizeof(HID_HandleTypeDef));
 105              		.loc 1 160 8
 106 004a 7B68     		ldr	r3, [r7, #4]
 107 004c D3F87C44 		ldr	r4, [r3, #1148]
 108              		.loc 1 160 53
 109 0050 3420     		movs	r0, #52
 110 0052 FFF7FEFF 		bl	pvPortMalloc
 111 0056 0346     		mov	r3, r0
 112              		.loc 1 160 30
 113 0058 E361     		str	r3, [r4, #28]
 161:./Libraries/STM32_USB_Host_Library/Class/HID/Src/usbh_hid.c ****   HID_Handle = (HID_HandleTypeDef *) phost->pActiveClass->pData;
 114              		.loc 1 161 43
 115 005a 7B68     		ldr	r3, [r7, #4]
 116 005c D3F87C34 		ldr	r3, [r3, #1148]
 117              		.loc 1 161 14
 118 0060 DB69     		ldr	r3, [r3, #28]
 119 0062 3B61     		str	r3, [r7, #16]
 162:./Libraries/STM32_USB_Host_Library/Class/HID/Src/usbh_hid.c **** 
 163:./Libraries/STM32_USB_Host_Library/Class/HID/Src/usbh_hid.c ****   if (HID_Handle == NULL)
 120              		.loc 1 163 6
 121 0064 3B69     		ldr	r3, [r7, #16]
 122 0066 002B     		cmp	r3, #0
 123 0068 01D1     		bne	.L6
 164:./Libraries/STM32_USB_Host_Library/Class/HID/Src/usbh_hid.c ****   {
 165:./Libraries/STM32_USB_Host_Library/Class/HID/Src/usbh_hid.c ****     USBH_DbgLog("Cannot allocate memory for HID Handle");
ARM GAS  /tmp/ccM6gtS8.s 			page 6


 166:./Libraries/STM32_USB_Host_Library/Class/HID/Src/usbh_hid.c ****     return USBH_FAIL;
 124              		.loc 1 166 12
 125 006a 0223     		movs	r3, #2
 126 006c EAE0     		b	.L4
 127              	.L6:
 167:./Libraries/STM32_USB_Host_Library/Class/HID/Src/usbh_hid.c ****   }
 168:./Libraries/STM32_USB_Host_Library/Class/HID/Src/usbh_hid.c **** 
 169:./Libraries/STM32_USB_Host_Library/Class/HID/Src/usbh_hid.c ****   /* Initialize hid handler */
 170:./Libraries/STM32_USB_Host_Library/Class/HID/Src/usbh_hid.c ****   USBH_memset(HID_Handle, 0, sizeof(HID_HandleTypeDef));
 128              		.loc 1 170 3
 129 006e 3422     		movs	r2, #52
 130 0070 0021     		movs	r1, #0
 131 0072 3869     		ldr	r0, [r7, #16]
 132 0074 FFF7FEFF 		bl	memset
 171:./Libraries/STM32_USB_Host_Library/Class/HID/Src/usbh_hid.c **** 
 172:./Libraries/STM32_USB_Host_Library/Class/HID/Src/usbh_hid.c ****   HID_Handle->state = HID_ERROR;
 133              		.loc 1 172 21
 134 0078 3B69     		ldr	r3, [r7, #16]
 135 007a 0722     		movs	r2, #7
 136 007c 9A70     		strb	r2, [r3, #2]
 173:./Libraries/STM32_USB_Host_Library/Class/HID/Src/usbh_hid.c **** 
 174:./Libraries/STM32_USB_Host_Library/Class/HID/Src/usbh_hid.c ****   /*Decode Bootclass Protocol: Mouse or Keyboard*/
 175:./Libraries/STM32_USB_Host_Library/Class/HID/Src/usbh_hid.c ****   if (phost->device.CfgDesc.Itf_Desc[interface].bInterfaceProtocol == HID_KEYBRD_BOOT_CODE)
 137              		.loc 1 175 48
 138 007e BB7D     		ldrb	r3, [r7, #22]	@ zero_extendqisi2
 139 0080 7A68     		ldr	r2, [r7, #4]
 140 0082 1A21     		movs	r1, #26
 141 0084 01FB03F3 		mul	r3, r1, r3
 142 0088 1344     		add	r3, r3, r2
 143 008a 03F24943 		addw	r3, r3, #1097
 144 008e 1B78     		ldrb	r3, [r3]	@ zero_extendqisi2
 145              		.loc 1 175 6
 146 0090 012B     		cmp	r3, #1
 147 0092 03D1     		bne	.L7
 176:./Libraries/STM32_USB_Host_Library/Class/HID/Src/usbh_hid.c ****   {
 177:./Libraries/STM32_USB_Host_Library/Class/HID/Src/usbh_hid.c ****     USBH_UsrLog("KeyBoard device found!");
 178:./Libraries/STM32_USB_Host_Library/Class/HID/Src/usbh_hid.c ****     HID_Handle->Init = USBH_HID_KeybdInit;
 148              		.loc 1 178 22
 149 0094 3B69     		ldr	r3, [r7, #16]
 150 0096 6D4A     		ldr	r2, .L15
 151 0098 1A63     		str	r2, [r3, #48]
 152 009a 10E0     		b	.L8
 153              	.L7:
 179:./Libraries/STM32_USB_Host_Library/Class/HID/Src/usbh_hid.c ****   }
 180:./Libraries/STM32_USB_Host_Library/Class/HID/Src/usbh_hid.c ****   else if (phost->device.CfgDesc.Itf_Desc[interface].bInterfaceProtocol  == HID_MOUSE_BOOT_CODE)
 154              		.loc 1 180 53
 155 009c BB7D     		ldrb	r3, [r7, #22]	@ zero_extendqisi2
 156 009e 7A68     		ldr	r2, [r7, #4]
 157 00a0 1A21     		movs	r1, #26
 158 00a2 01FB03F3 		mul	r3, r1, r3
 159 00a6 1344     		add	r3, r3, r2
 160 00a8 03F24943 		addw	r3, r3, #1097
 161 00ac 1B78     		ldrb	r3, [r3]	@ zero_extendqisi2
 162              		.loc 1 180 11
 163 00ae 022B     		cmp	r3, #2
 164 00b0 03D1     		bne	.L9
 181:./Libraries/STM32_USB_Host_Library/Class/HID/Src/usbh_hid.c ****   {
ARM GAS  /tmp/ccM6gtS8.s 			page 7


 182:./Libraries/STM32_USB_Host_Library/Class/HID/Src/usbh_hid.c ****     USBH_UsrLog("Mouse device found!");
 183:./Libraries/STM32_USB_Host_Library/Class/HID/Src/usbh_hid.c ****     HID_Handle->Init = USBH_HID_MouseInit;
 165              		.loc 1 183 22
 166 00b2 3B69     		ldr	r3, [r7, #16]
 167 00b4 664A     		ldr	r2, .L15+4
 168 00b6 1A63     		str	r2, [r3, #48]
 169 00b8 01E0     		b	.L8
 170              	.L9:
 184:./Libraries/STM32_USB_Host_Library/Class/HID/Src/usbh_hid.c ****   }
 185:./Libraries/STM32_USB_Host_Library/Class/HID/Src/usbh_hid.c ****   else
 186:./Libraries/STM32_USB_Host_Library/Class/HID/Src/usbh_hid.c ****   {
 187:./Libraries/STM32_USB_Host_Library/Class/HID/Src/usbh_hid.c ****     USBH_UsrLog("Protocol not supported.");
 188:./Libraries/STM32_USB_Host_Library/Class/HID/Src/usbh_hid.c ****     return USBH_FAIL;
 171              		.loc 1 188 12
 172 00ba 0223     		movs	r3, #2
 173 00bc C2E0     		b	.L4
 174              	.L8:
 189:./Libraries/STM32_USB_Host_Library/Class/HID/Src/usbh_hid.c ****   }
 190:./Libraries/STM32_USB_Host_Library/Class/HID/Src/usbh_hid.c **** 
 191:./Libraries/STM32_USB_Host_Library/Class/HID/Src/usbh_hid.c ****   HID_Handle->state     = HID_INIT;
 175              		.loc 1 191 25
 176 00be 3B69     		ldr	r3, [r7, #16]
 177 00c0 0022     		movs	r2, #0
 178 00c2 9A70     		strb	r2, [r3, #2]
 192:./Libraries/STM32_USB_Host_Library/Class/HID/Src/usbh_hid.c ****   HID_Handle->ctl_state = HID_REQ_INIT;
 179              		.loc 1 192 25
 180 00c4 3B69     		ldr	r3, [r7, #16]
 181 00c6 0022     		movs	r2, #0
 182 00c8 5A71     		strb	r2, [r3, #5]
 193:./Libraries/STM32_USB_Host_Library/Class/HID/Src/usbh_hid.c ****   HID_Handle->ep_addr   = phost->device.CfgDesc.Itf_Desc[interface].Ep_Desc[0].bEndpointAddress;
 183              		.loc 1 193 79
 184 00ca BB7D     		ldrb	r3, [r7, #22]	@ zero_extendqisi2
 185 00cc 7A68     		ldr	r2, [r7, #4]
 186 00ce 1A21     		movs	r1, #26
 187 00d0 01FB03F3 		mul	r3, r1, r3
 188 00d4 1344     		add	r3, r3, r2
 189 00d6 03F24E43 		addw	r3, r3, #1102
 190 00da 1A78     		ldrb	r2, [r3]	@ zero_extendqisi2
 191              		.loc 1 193 25
 192 00dc 3B69     		ldr	r3, [r7, #16]
 193 00de 9A76     		strb	r2, [r3, #26]
 194:./Libraries/STM32_USB_Host_Library/Class/HID/Src/usbh_hid.c ****   HID_Handle->length    = phost->device.CfgDesc.Itf_Desc[interface].Ep_Desc[0].wMaxPacketSize;
 194              		.loc 1 194 79
 195 00e0 BB7D     		ldrb	r3, [r7, #22]	@ zero_extendqisi2
 196 00e2 7A68     		ldr	r2, [r7, #4]
 197 00e4 1A21     		movs	r1, #26
 198 00e6 01FB03F3 		mul	r3, r1, r3
 199 00ea 1344     		add	r3, r3, r2
 200 00ec 03F58A63 		add	r3, r3, #1104
 201 00f0 1A88     		ldrh	r2, [r3]
 202              		.loc 1 194 25
 203 00f2 3B69     		ldr	r3, [r7, #16]
 204 00f4 1A83     		strh	r2, [r3, #24]	@ movhi
 195:./Libraries/STM32_USB_Host_Library/Class/HID/Src/usbh_hid.c ****   HID_Handle->poll      = phost->device.CfgDesc.Itf_Desc[interface].Ep_Desc[0].bInterval;
 205              		.loc 1 195 79
 206 00f6 BB7D     		ldrb	r3, [r7, #22]	@ zero_extendqisi2
 207 00f8 7A68     		ldr	r2, [r7, #4]
ARM GAS  /tmp/ccM6gtS8.s 			page 8


 208 00fa 1A21     		movs	r1, #26
 209 00fc 01FB03F3 		mul	r3, r1, r3
 210 0100 1344     		add	r3, r3, r2
 211 0102 03F25243 		addw	r3, r3, #1106
 212 0106 1B78     		ldrb	r3, [r3]	@ zero_extendqisi2
 213 0108 9AB2     		uxth	r2, r3
 214              		.loc 1 195 25
 215 010a 3B69     		ldr	r3, [r7, #16]
 216 010c 9A83     		strh	r2, [r3, #28]	@ movhi
 196:./Libraries/STM32_USB_Host_Library/Class/HID/Src/usbh_hid.c **** 
 197:./Libraries/STM32_USB_Host_Library/Class/HID/Src/usbh_hid.c ****   if (HID_Handle->poll  < HID_MIN_POLL)
 217              		.loc 1 197 17
 218 010e 3B69     		ldr	r3, [r7, #16]
 219 0110 9B8B     		ldrh	r3, [r3, #28]
 220              		.loc 1 197 6
 221 0112 092B     		cmp	r3, #9
 222 0114 02D8     		bhi	.L10
 198:./Libraries/STM32_USB_Host_Library/Class/HID/Src/usbh_hid.c ****   {
 199:./Libraries/STM32_USB_Host_Library/Class/HID/Src/usbh_hid.c ****     HID_Handle->poll = HID_MIN_POLL;
 223              		.loc 1 199 22
 224 0116 3B69     		ldr	r3, [r7, #16]
 225 0118 0A22     		movs	r2, #10
 226 011a 9A83     		strh	r2, [r3, #28]	@ movhi
 227              	.L10:
 200:./Libraries/STM32_USB_Host_Library/Class/HID/Src/usbh_hid.c ****   }
 201:./Libraries/STM32_USB_Host_Library/Class/HID/Src/usbh_hid.c **** 
 202:./Libraries/STM32_USB_Host_Library/Class/HID/Src/usbh_hid.c ****   /* Check fo available number of endpoints */
 203:./Libraries/STM32_USB_Host_Library/Class/HID/Src/usbh_hid.c ****   /* Find the number of EPs in the Interface Descriptor */
 204:./Libraries/STM32_USB_Host_Library/Class/HID/Src/usbh_hid.c ****   /* Choose the lower number in order not to overrun the buffer allocated */
 205:./Libraries/STM32_USB_Host_Library/Class/HID/Src/usbh_hid.c ****   max_ep = ((phost->device.CfgDesc.Itf_Desc[interface].bNumEndpoints <= USBH_MAX_NUM_ENDPOINTS) ?
 228              		.loc 1 205 55
 229 011c BB7D     		ldrb	r3, [r7, #22]	@ zero_extendqisi2
 230 011e 7A68     		ldr	r2, [r7, #4]
 231 0120 1A21     		movs	r1, #26
 232 0122 01FB03F3 		mul	r3, r1, r3
 233 0126 1344     		add	r3, r3, r2
 234 0128 03F24643 		addw	r3, r3, #1094
 235 012c 1B78     		ldrb	r3, [r3]	@ zero_extendqisi2
 236              		.loc 1 205 10
 237 012e 022B     		cmp	r3, #2
 238 0130 28BF     		it	cs
 239 0132 0223     		movcs	r3, #2
 240 0134 FB73     		strb	r3, [r7, #15]
 206:./Libraries/STM32_USB_Host_Library/Class/HID/Src/usbh_hid.c ****              phost->device.CfgDesc.Itf_Desc[interface].bNumEndpoints : USBH_MAX_NUM_ENDPOINTS);
 207:./Libraries/STM32_USB_Host_Library/Class/HID/Src/usbh_hid.c **** 
 208:./Libraries/STM32_USB_Host_Library/Class/HID/Src/usbh_hid.c **** 
 209:./Libraries/STM32_USB_Host_Library/Class/HID/Src/usbh_hid.c ****   /* Decode endpoint IN and OUT address from interface descriptor */
 210:./Libraries/STM32_USB_Host_Library/Class/HID/Src/usbh_hid.c ****   for (num = 0U; num < max_ep; num++)
 241              		.loc 1 210 12
 242 0136 0023     		movs	r3, #0
 243 0138 FB75     		strb	r3, [r7, #23]
 244              		.loc 1 210 3
 245 013a 7DE0     		b	.L11
 246              	.L14:
 211:./Libraries/STM32_USB_Host_Library/Class/HID/Src/usbh_hid.c ****   {
 212:./Libraries/STM32_USB_Host_Library/Class/HID/Src/usbh_hid.c ****     if (phost->device.CfgDesc.Itf_Desc[interface].Ep_Desc[num].bEndpointAddress & 0x80U)
 247              		.loc 1 212 63
ARM GAS  /tmp/ccM6gtS8.s 			page 9


 248 013c BB7D     		ldrb	r3, [r7, #22]	@ zero_extendqisi2
 249 013e F97D     		ldrb	r1, [r7, #23]	@ zero_extendqisi2
 250 0140 7A68     		ldr	r2, [r7, #4]
 251 0142 0131     		adds	r1, r1, #1
 252 0144 C900     		lsls	r1, r1, #3
 253 0146 1A20     		movs	r0, #26
 254 0148 00FB03F3 		mul	r3, r0, r3
 255 014c 0B44     		add	r3, r3, r1
 256 014e 1344     		add	r3, r3, r2
 257 0150 03F24643 		addw	r3, r3, #1094
 258 0154 1B78     		ldrb	r3, [r3]	@ zero_extendqisi2
 259              		.loc 1 212 9
 260 0156 5BB2     		sxtb	r3, r3
 261              		.loc 1 212 8
 262 0158 002B     		cmp	r3, #0
 263 015a 35DA     		bge	.L12
 213:./Libraries/STM32_USB_Host_Library/Class/HID/Src/usbh_hid.c ****     {
 214:./Libraries/STM32_USB_Host_Library/Class/HID/Src/usbh_hid.c ****       HID_Handle->InEp = (phost->device.CfgDesc.Itf_Desc[interface].Ep_Desc[num].bEndpointAddress);
 264              		.loc 1 214 81
 265 015c BB7D     		ldrb	r3, [r7, #22]	@ zero_extendqisi2
 266 015e F97D     		ldrb	r1, [r7, #23]	@ zero_extendqisi2
 267 0160 7A68     		ldr	r2, [r7, #4]
 268 0162 0131     		adds	r1, r1, #1
 269 0164 C900     		lsls	r1, r1, #3
 270 0166 1A20     		movs	r0, #26
 271 0168 00FB03F3 		mul	r3, r0, r3
 272 016c 0B44     		add	r3, r3, r1
 273 016e 1344     		add	r3, r3, r2
 274 0170 03F24643 		addw	r3, r3, #1094
 275 0174 1A78     		ldrb	r2, [r3]	@ zero_extendqisi2
 276              		.loc 1 214 24
 277 0176 3B69     		ldr	r3, [r7, #16]
 278 0178 1A71     		strb	r2, [r3, #4]
 215:./Libraries/STM32_USB_Host_Library/Class/HID/Src/usbh_hid.c ****       HID_Handle->InPipe = USBH_AllocPipe(phost, HID_Handle->InEp);
 279              		.loc 1 215 28
 280 017a 3B69     		ldr	r3, [r7, #16]
 281 017c 1B79     		ldrb	r3, [r3, #4]	@ zero_extendqisi2
 282 017e 1946     		mov	r1, r3
 283 0180 7868     		ldr	r0, [r7, #4]
 284 0182 FFF7FEFF 		bl	USBH_AllocPipe
 285 0186 0346     		mov	r3, r0
 286 0188 1A46     		mov	r2, r3
 287              		.loc 1 215 26
 288 018a 3B69     		ldr	r3, [r7, #16]
 289 018c 5A70     		strb	r2, [r3, #1]
 216:./Libraries/STM32_USB_Host_Library/Class/HID/Src/usbh_hid.c **** 
 217:./Libraries/STM32_USB_Host_Library/Class/HID/Src/usbh_hid.c ****       /* Open pipe for IN endpoint */
 218:./Libraries/STM32_USB_Host_Library/Class/HID/Src/usbh_hid.c ****       USBH_OpenPipe(phost, HID_Handle->InPipe, HID_Handle->InEp, phost->device.address,
 290              		.loc 1 218 7
 291 018e 3B69     		ldr	r3, [r7, #16]
 292 0190 5978     		ldrb	r1, [r3, #1]	@ zero_extendqisi2
 293 0192 3B69     		ldr	r3, [r7, #16]
 294 0194 1879     		ldrb	r0, [r3, #4]	@ zero_extendqisi2
 295 0196 7B68     		ldr	r3, [r7, #4]
 296 0198 93F81C44 		ldrb	r4, [r3, #1052]	@ zero_extendqisi2
 297 019c 7B68     		ldr	r3, [r7, #4]
 298 019e 93F81D34 		ldrb	r3, [r3, #1053]	@ zero_extendqisi2
ARM GAS  /tmp/ccM6gtS8.s 			page 10


 299 01a2 3A69     		ldr	r2, [r7, #16]
 300 01a4 128B     		ldrh	r2, [r2, #24]
 301 01a6 0292     		str	r2, [sp, #8]
 302 01a8 0322     		movs	r2, #3
 303 01aa 0192     		str	r2, [sp, #4]
 304 01ac 0093     		str	r3, [sp]
 305 01ae 2346     		mov	r3, r4
 306 01b0 0246     		mov	r2, r0
 307 01b2 7868     		ldr	r0, [r7, #4]
 308 01b4 FFF7FEFF 		bl	USBH_OpenPipe
 219:./Libraries/STM32_USB_Host_Library/Class/HID/Src/usbh_hid.c ****                     phost->device.speed, USB_EP_TYPE_INTR, HID_Handle->length);
 220:./Libraries/STM32_USB_Host_Library/Class/HID/Src/usbh_hid.c **** 
 221:./Libraries/STM32_USB_Host_Library/Class/HID/Src/usbh_hid.c ****       USBH_LL_SetToggle(phost, HID_Handle->InPipe, 0U);
 309              		.loc 1 221 7
 310 01b8 3B69     		ldr	r3, [r7, #16]
 311 01ba 5B78     		ldrb	r3, [r3, #1]	@ zero_extendqisi2
 312 01bc 0022     		movs	r2, #0
 313 01be 1946     		mov	r1, r3
 314 01c0 7868     		ldr	r0, [r7, #4]
 315 01c2 FFF7FEFF 		bl	USBH_LL_SetToggle
 316 01c6 34E0     		b	.L13
 317              	.L12:
 222:./Libraries/STM32_USB_Host_Library/Class/HID/Src/usbh_hid.c ****     }
 223:./Libraries/STM32_USB_Host_Library/Class/HID/Src/usbh_hid.c ****     else
 224:./Libraries/STM32_USB_Host_Library/Class/HID/Src/usbh_hid.c ****     {
 225:./Libraries/STM32_USB_Host_Library/Class/HID/Src/usbh_hid.c ****       HID_Handle->OutEp = (phost->device.CfgDesc.Itf_Desc[interface].Ep_Desc[num].bEndpointAddress)
 318              		.loc 1 225 82
 319 01c8 BB7D     		ldrb	r3, [r7, #22]	@ zero_extendqisi2
 320 01ca F97D     		ldrb	r1, [r7, #23]	@ zero_extendqisi2
 321 01cc 7A68     		ldr	r2, [r7, #4]
 322 01ce 0131     		adds	r1, r1, #1
 323 01d0 C900     		lsls	r1, r1, #3
 324 01d2 1A20     		movs	r0, #26
 325 01d4 00FB03F3 		mul	r3, r0, r3
 326 01d8 0B44     		add	r3, r3, r1
 327 01da 1344     		add	r3, r3, r2
 328 01dc 03F24643 		addw	r3, r3, #1094
 329 01e0 1A78     		ldrb	r2, [r3]	@ zero_extendqisi2
 330              		.loc 1 225 25
 331 01e2 3B69     		ldr	r3, [r7, #16]
 332 01e4 DA70     		strb	r2, [r3, #3]
 226:./Libraries/STM32_USB_Host_Library/Class/HID/Src/usbh_hid.c ****       HID_Handle->OutPipe  = USBH_AllocPipe(phost, HID_Handle->OutEp);
 333              		.loc 1 226 30
 334 01e6 3B69     		ldr	r3, [r7, #16]
 335 01e8 DB78     		ldrb	r3, [r3, #3]	@ zero_extendqisi2
 336 01ea 1946     		mov	r1, r3
 337 01ec 7868     		ldr	r0, [r7, #4]
 338 01ee FFF7FEFF 		bl	USBH_AllocPipe
 339 01f2 0346     		mov	r3, r0
 340 01f4 1A46     		mov	r2, r3
 341              		.loc 1 226 28
 342 01f6 3B69     		ldr	r3, [r7, #16]
 343 01f8 1A70     		strb	r2, [r3]
 227:./Libraries/STM32_USB_Host_Library/Class/HID/Src/usbh_hid.c **** 
 228:./Libraries/STM32_USB_Host_Library/Class/HID/Src/usbh_hid.c ****       /* Open pipe for OUT endpoint */
 229:./Libraries/STM32_USB_Host_Library/Class/HID/Src/usbh_hid.c ****       USBH_OpenPipe(phost, HID_Handle->OutPipe, HID_Handle->OutEp, phost->device.address,
 344              		.loc 1 229 7
ARM GAS  /tmp/ccM6gtS8.s 			page 11


 345 01fa 3B69     		ldr	r3, [r7, #16]
 346 01fc 1978     		ldrb	r1, [r3]	@ zero_extendqisi2
 347 01fe 3B69     		ldr	r3, [r7, #16]
 348 0200 D878     		ldrb	r0, [r3, #3]	@ zero_extendqisi2
 349 0202 7B68     		ldr	r3, [r7, #4]
 350 0204 93F81C44 		ldrb	r4, [r3, #1052]	@ zero_extendqisi2
 351 0208 7B68     		ldr	r3, [r7, #4]
 352 020a 93F81D34 		ldrb	r3, [r3, #1053]	@ zero_extendqisi2
 353 020e 3A69     		ldr	r2, [r7, #16]
 354 0210 128B     		ldrh	r2, [r2, #24]
 355 0212 0292     		str	r2, [sp, #8]
 356 0214 0322     		movs	r2, #3
 357 0216 0192     		str	r2, [sp, #4]
 358 0218 0093     		str	r3, [sp]
 359 021a 2346     		mov	r3, r4
 360 021c 0246     		mov	r2, r0
 361 021e 7868     		ldr	r0, [r7, #4]
 362 0220 FFF7FEFF 		bl	USBH_OpenPipe
 230:./Libraries/STM32_USB_Host_Library/Class/HID/Src/usbh_hid.c ****                     phost->device.speed, USB_EP_TYPE_INTR, HID_Handle->length);
 231:./Libraries/STM32_USB_Host_Library/Class/HID/Src/usbh_hid.c **** 
 232:./Libraries/STM32_USB_Host_Library/Class/HID/Src/usbh_hid.c ****       USBH_LL_SetToggle(phost, HID_Handle->OutPipe, 0U);
 363              		.loc 1 232 7
 364 0224 3B69     		ldr	r3, [r7, #16]
 365 0226 1B78     		ldrb	r3, [r3]	@ zero_extendqisi2
 366 0228 0022     		movs	r2, #0
 367 022a 1946     		mov	r1, r3
 368 022c 7868     		ldr	r0, [r7, #4]
 369 022e FFF7FEFF 		bl	USBH_LL_SetToggle
 370              	.L13:
 210:./Libraries/STM32_USB_Host_Library/Class/HID/Src/usbh_hid.c ****   {
 371              		.loc 1 210 35 discriminator 2
 372 0232 FB7D     		ldrb	r3, [r7, #23]	@ zero_extendqisi2
 373 0234 0133     		adds	r3, r3, #1
 374 0236 FB75     		strb	r3, [r7, #23]
 375              	.L11:
 210:./Libraries/STM32_USB_Host_Library/Class/HID/Src/usbh_hid.c ****   {
 376              		.loc 1 210 3 discriminator 1
 377 0238 FA7D     		ldrb	r2, [r7, #23]	@ zero_extendqisi2
 378 023a FB7B     		ldrb	r3, [r7, #15]	@ zero_extendqisi2
 379 023c 9A42     		cmp	r2, r3
 380 023e FFF47DAF 		bcc	.L14
 233:./Libraries/STM32_USB_Host_Library/Class/HID/Src/usbh_hid.c ****     }
 234:./Libraries/STM32_USB_Host_Library/Class/HID/Src/usbh_hid.c ****   }
 235:./Libraries/STM32_USB_Host_Library/Class/HID/Src/usbh_hid.c **** 
 236:./Libraries/STM32_USB_Host_Library/Class/HID/Src/usbh_hid.c ****   return USBH_OK;
 381              		.loc 1 236 10
 382 0242 0023     		movs	r3, #0
 383              	.L4:
 237:./Libraries/STM32_USB_Host_Library/Class/HID/Src/usbh_hid.c **** }
 384              		.loc 1 237 1
 385 0244 1846     		mov	r0, r3
 386 0246 1C37     		adds	r7, r7, #28
 387              	.LCFI3:
 388              		.cfi_def_cfa_offset 12
 389 0248 BD46     		mov	sp, r7
 390              	.LCFI4:
 391              		.cfi_def_cfa_register 13
ARM GAS  /tmp/ccM6gtS8.s 			page 12


 392              		@ sp needed
 393 024a 90BD     		pop	{r4, r7, pc}
 394              	.L16:
 395              		.align	2
 396              	.L15:
 397 024c 00000000 		.word	USBH_HID_KeybdInit
 398 0250 00000000 		.word	USBH_HID_MouseInit
 399              		.cfi_endproc
 400              	.LFE338:
 402              		.section	.text.USBH_HID_InterfaceDeInit,"ax",%progbits
 403              		.align	1
 404              		.syntax unified
 405              		.thumb
 406              		.thumb_func
 407              		.fpu fpv5-d16
 409              	USBH_HID_InterfaceDeInit:
 410              	.LFB339:
 238:./Libraries/STM32_USB_Host_Library/Class/HID/Src/usbh_hid.c **** 
 239:./Libraries/STM32_USB_Host_Library/Class/HID/Src/usbh_hid.c **** /**
 240:./Libraries/STM32_USB_Host_Library/Class/HID/Src/usbh_hid.c ****   * @brief  USBH_HID_InterfaceDeInit
 241:./Libraries/STM32_USB_Host_Library/Class/HID/Src/usbh_hid.c ****   *         The function DeInit the Pipes used for the HID class.
 242:./Libraries/STM32_USB_Host_Library/Class/HID/Src/usbh_hid.c ****   * @param  phost: Host handle
 243:./Libraries/STM32_USB_Host_Library/Class/HID/Src/usbh_hid.c ****   * @retval USBH Status
 244:./Libraries/STM32_USB_Host_Library/Class/HID/Src/usbh_hid.c ****   */
 245:./Libraries/STM32_USB_Host_Library/Class/HID/Src/usbh_hid.c **** static USBH_StatusTypeDef USBH_HID_InterfaceDeInit(USBH_HandleTypeDef *phost)
 246:./Libraries/STM32_USB_Host_Library/Class/HID/Src/usbh_hid.c **** {
 411              		.loc 1 246 1
 412              		.cfi_startproc
 413              		@ args = 0, pretend = 0, frame = 16
 414              		@ frame_needed = 1, uses_anonymous_args = 0
 415 0000 80B5     		push	{r7, lr}
 416              	.LCFI5:
 417              		.cfi_def_cfa_offset 8
 418              		.cfi_offset 7, -8
 419              		.cfi_offset 14, -4
 420 0002 84B0     		sub	sp, sp, #16
 421              	.LCFI6:
 422              		.cfi_def_cfa_offset 24
 423 0004 00AF     		add	r7, sp, #0
 424              	.LCFI7:
 425              		.cfi_def_cfa_register 7
 426 0006 7860     		str	r0, [r7, #4]
 247:./Libraries/STM32_USB_Host_Library/Class/HID/Src/usbh_hid.c ****   HID_HandleTypeDef *HID_Handle = (HID_HandleTypeDef *) phost->pActiveClass->pData;
 427              		.loc 1 247 62
 428 0008 7B68     		ldr	r3, [r7, #4]
 429 000a D3F87C34 		ldr	r3, [r3, #1148]
 430              		.loc 1 247 22
 431 000e DB69     		ldr	r3, [r3, #28]
 432 0010 FB60     		str	r3, [r7, #12]
 248:./Libraries/STM32_USB_Host_Library/Class/HID/Src/usbh_hid.c **** 
 249:./Libraries/STM32_USB_Host_Library/Class/HID/Src/usbh_hid.c ****   if (HID_Handle->InPipe != 0x00U)
 433              		.loc 1 249 17
 434 0012 FB68     		ldr	r3, [r7, #12]
 435 0014 5B78     		ldrb	r3, [r3, #1]	@ zero_extendqisi2
 436              		.loc 1 249 6
 437 0016 002B     		cmp	r3, #0
 438 0018 0ED0     		beq	.L18
ARM GAS  /tmp/ccM6gtS8.s 			page 13


 250:./Libraries/STM32_USB_Host_Library/Class/HID/Src/usbh_hid.c ****   {
 251:./Libraries/STM32_USB_Host_Library/Class/HID/Src/usbh_hid.c ****     USBH_ClosePipe(phost, HID_Handle->InPipe);
 439              		.loc 1 251 5
 440 001a FB68     		ldr	r3, [r7, #12]
 441 001c 5B78     		ldrb	r3, [r3, #1]	@ zero_extendqisi2
 442 001e 1946     		mov	r1, r3
 443 0020 7868     		ldr	r0, [r7, #4]
 444 0022 FFF7FEFF 		bl	USBH_ClosePipe
 252:./Libraries/STM32_USB_Host_Library/Class/HID/Src/usbh_hid.c ****     USBH_FreePipe(phost, HID_Handle->InPipe);
 445              		.loc 1 252 5
 446 0026 FB68     		ldr	r3, [r7, #12]
 447 0028 5B78     		ldrb	r3, [r3, #1]	@ zero_extendqisi2
 448 002a 1946     		mov	r1, r3
 449 002c 7868     		ldr	r0, [r7, #4]
 450 002e FFF7FEFF 		bl	USBH_FreePipe
 253:./Libraries/STM32_USB_Host_Library/Class/HID/Src/usbh_hid.c ****     HID_Handle->InPipe = 0U;     /* Reset the pipe as Free */
 451              		.loc 1 253 24
 452 0032 FB68     		ldr	r3, [r7, #12]
 453 0034 0022     		movs	r2, #0
 454 0036 5A70     		strb	r2, [r3, #1]
 455              	.L18:
 254:./Libraries/STM32_USB_Host_Library/Class/HID/Src/usbh_hid.c ****   }
 255:./Libraries/STM32_USB_Host_Library/Class/HID/Src/usbh_hid.c **** 
 256:./Libraries/STM32_USB_Host_Library/Class/HID/Src/usbh_hid.c ****   if (HID_Handle->OutPipe != 0x00U)
 456              		.loc 1 256 17
 457 0038 FB68     		ldr	r3, [r7, #12]
 458 003a 1B78     		ldrb	r3, [r3]	@ zero_extendqisi2
 459              		.loc 1 256 6
 460 003c 002B     		cmp	r3, #0
 461 003e 0ED0     		beq	.L19
 257:./Libraries/STM32_USB_Host_Library/Class/HID/Src/usbh_hid.c ****   {
 258:./Libraries/STM32_USB_Host_Library/Class/HID/Src/usbh_hid.c ****     USBH_ClosePipe(phost, HID_Handle->OutPipe);
 462              		.loc 1 258 5
 463 0040 FB68     		ldr	r3, [r7, #12]
 464 0042 1B78     		ldrb	r3, [r3]	@ zero_extendqisi2
 465 0044 1946     		mov	r1, r3
 466 0046 7868     		ldr	r0, [r7, #4]
 467 0048 FFF7FEFF 		bl	USBH_ClosePipe
 259:./Libraries/STM32_USB_Host_Library/Class/HID/Src/usbh_hid.c ****     USBH_FreePipe(phost, HID_Handle->OutPipe);
 468              		.loc 1 259 5
 469 004c FB68     		ldr	r3, [r7, #12]
 470 004e 1B78     		ldrb	r3, [r3]	@ zero_extendqisi2
 471 0050 1946     		mov	r1, r3
 472 0052 7868     		ldr	r0, [r7, #4]
 473 0054 FFF7FEFF 		bl	USBH_FreePipe
 260:./Libraries/STM32_USB_Host_Library/Class/HID/Src/usbh_hid.c ****     HID_Handle->OutPipe = 0U;     /* Reset the pipe as Free */
 474              		.loc 1 260 25
 475 0058 FB68     		ldr	r3, [r7, #12]
 476 005a 0022     		movs	r2, #0
 477 005c 1A70     		strb	r2, [r3]
 478              	.L19:
 261:./Libraries/STM32_USB_Host_Library/Class/HID/Src/usbh_hid.c ****   }
 262:./Libraries/STM32_USB_Host_Library/Class/HID/Src/usbh_hid.c **** 
 263:./Libraries/STM32_USB_Host_Library/Class/HID/Src/usbh_hid.c ****   if (phost->pActiveClass->pData)
 479              		.loc 1 263 12
 480 005e 7B68     		ldr	r3, [r7, #4]
 481 0060 D3F87C34 		ldr	r3, [r3, #1148]
ARM GAS  /tmp/ccM6gtS8.s 			page 14


 482              		.loc 1 263 26
 483 0064 DB69     		ldr	r3, [r3, #28]
 484              		.loc 1 263 6
 485 0066 002B     		cmp	r3, #0
 486 0068 0BD0     		beq	.L20
 264:./Libraries/STM32_USB_Host_Library/Class/HID/Src/usbh_hid.c ****   {
 265:./Libraries/STM32_USB_Host_Library/Class/HID/Src/usbh_hid.c ****     USBH_free(phost->pActiveClass->pData);
 487              		.loc 1 265 20
 488 006a 7B68     		ldr	r3, [r7, #4]
 489 006c D3F87C34 		ldr	r3, [r3, #1148]
 490              		.loc 1 265 5
 491 0070 DB69     		ldr	r3, [r3, #28]
 492 0072 1846     		mov	r0, r3
 493 0074 FFF7FEFF 		bl	vPortFree
 266:./Libraries/STM32_USB_Host_Library/Class/HID/Src/usbh_hid.c ****     phost->pActiveClass->pData = 0U;
 494              		.loc 1 266 10
 495 0078 7B68     		ldr	r3, [r7, #4]
 496 007a D3F87C34 		ldr	r3, [r3, #1148]
 497              		.loc 1 266 32
 498 007e 0022     		movs	r2, #0
 499 0080 DA61     		str	r2, [r3, #28]
 500              	.L20:
 267:./Libraries/STM32_USB_Host_Library/Class/HID/Src/usbh_hid.c ****   }
 268:./Libraries/STM32_USB_Host_Library/Class/HID/Src/usbh_hid.c **** 
 269:./Libraries/STM32_USB_Host_Library/Class/HID/Src/usbh_hid.c ****   return USBH_OK;
 501              		.loc 1 269 10
 502 0082 0023     		movs	r3, #0
 270:./Libraries/STM32_USB_Host_Library/Class/HID/Src/usbh_hid.c **** }
 503              		.loc 1 270 1
 504 0084 1846     		mov	r0, r3
 505 0086 1037     		adds	r7, r7, #16
 506              	.LCFI8:
 507              		.cfi_def_cfa_offset 8
 508 0088 BD46     		mov	sp, r7
 509              	.LCFI9:
 510              		.cfi_def_cfa_register 13
 511              		@ sp needed
 512 008a 80BD     		pop	{r7, pc}
 513              		.cfi_endproc
 514              	.LFE339:
 516              		.section	.text.USBH_HID_ClassRequest,"ax",%progbits
 517              		.align	1
 518              		.syntax unified
 519              		.thumb
 520              		.thumb_func
 521              		.fpu fpv5-d16
 523              	USBH_HID_ClassRequest:
 524              	.LFB340:
 271:./Libraries/STM32_USB_Host_Library/Class/HID/Src/usbh_hid.c **** 
 272:./Libraries/STM32_USB_Host_Library/Class/HID/Src/usbh_hid.c **** /**
 273:./Libraries/STM32_USB_Host_Library/Class/HID/Src/usbh_hid.c ****   * @brief  USBH_HID_ClassRequest
 274:./Libraries/STM32_USB_Host_Library/Class/HID/Src/usbh_hid.c ****   *         The function is responsible for handling Standard requests
 275:./Libraries/STM32_USB_Host_Library/Class/HID/Src/usbh_hid.c ****   *         for HID class.
 276:./Libraries/STM32_USB_Host_Library/Class/HID/Src/usbh_hid.c ****   * @param  phost: Host handle
 277:./Libraries/STM32_USB_Host_Library/Class/HID/Src/usbh_hid.c ****   * @retval USBH Status
 278:./Libraries/STM32_USB_Host_Library/Class/HID/Src/usbh_hid.c ****   */
 279:./Libraries/STM32_USB_Host_Library/Class/HID/Src/usbh_hid.c **** static USBH_StatusTypeDef USBH_HID_ClassRequest(USBH_HandleTypeDef *phost)
ARM GAS  /tmp/ccM6gtS8.s 			page 15


 280:./Libraries/STM32_USB_Host_Library/Class/HID/Src/usbh_hid.c **** {
 525              		.loc 1 280 1
 526              		.cfi_startproc
 527              		@ args = 0, pretend = 0, frame = 16
 528              		@ frame_needed = 1, uses_anonymous_args = 0
 529 0000 80B5     		push	{r7, lr}
 530              	.LCFI10:
 531              		.cfi_def_cfa_offset 8
 532              		.cfi_offset 7, -8
 533              		.cfi_offset 14, -4
 534 0002 84B0     		sub	sp, sp, #16
 535              	.LCFI11:
 536              		.cfi_def_cfa_offset 24
 537 0004 00AF     		add	r7, sp, #0
 538              	.LCFI12:
 539              		.cfi_def_cfa_register 7
 540 0006 7860     		str	r0, [r7, #4]
 281:./Libraries/STM32_USB_Host_Library/Class/HID/Src/usbh_hid.c **** 
 282:./Libraries/STM32_USB_Host_Library/Class/HID/Src/usbh_hid.c ****   USBH_StatusTypeDef status         = USBH_BUSY;
 541              		.loc 1 282 22
 542 0008 0123     		movs	r3, #1
 543 000a FB73     		strb	r3, [r7, #15]
 283:./Libraries/STM32_USB_Host_Library/Class/HID/Src/usbh_hid.c ****   USBH_StatusTypeDef classReqStatus = USBH_BUSY;
 544              		.loc 1 283 22
 545 000c 0123     		movs	r3, #1
 546 000e BB73     		strb	r3, [r7, #14]
 284:./Libraries/STM32_USB_Host_Library/Class/HID/Src/usbh_hid.c ****   HID_HandleTypeDef *HID_Handle = (HID_HandleTypeDef *) phost->pActiveClass->pData;
 547              		.loc 1 284 62
 548 0010 7B68     		ldr	r3, [r7, #4]
 549 0012 D3F87C34 		ldr	r3, [r3, #1148]
 550              		.loc 1 284 22
 551 0016 DB69     		ldr	r3, [r3, #28]
 552 0018 BB60     		str	r3, [r7, #8]
 285:./Libraries/STM32_USB_Host_Library/Class/HID/Src/usbh_hid.c **** 
 286:./Libraries/STM32_USB_Host_Library/Class/HID/Src/usbh_hid.c ****   /* Switch HID state machine */
 287:./Libraries/STM32_USB_Host_Library/Class/HID/Src/usbh_hid.c ****   switch (HID_Handle->ctl_state)
 553              		.loc 1 287 21
 554 001a BB68     		ldr	r3, [r7, #8]
 555 001c 5B79     		ldrb	r3, [r3, #5]	@ zero_extendqisi2
 556 001e 052B     		cmp	r3, #5
 557 0020 60D8     		bhi	.L37
 558 0022 01A2     		adr	r2, .L25
 559 0024 52F823F0 		ldr	pc, [r2, r3, lsl #2]
 560              		.p2align 2
 561              	.L25:
 562 0028 41000000 		.word	.L27+1
 563 002c E5000000 		.word	.L37+1
 564 0030 5B000000 		.word	.L28+1
 565 0034 41000000 		.word	.L27+1
 566 0038 85000000 		.word	.L26+1
 567 003c AF000000 		.word	.L24+1
 568              		.p2align 1
 569              	.L27:
 288:./Libraries/STM32_USB_Host_Library/Class/HID/Src/usbh_hid.c ****   {
 289:./Libraries/STM32_USB_Host_Library/Class/HID/Src/usbh_hid.c ****   case HID_REQ_INIT:
 290:./Libraries/STM32_USB_Host_Library/Class/HID/Src/usbh_hid.c ****   case HID_REQ_GET_HID_DESC:
 291:./Libraries/STM32_USB_Host_Library/Class/HID/Src/usbh_hid.c **** 
ARM GAS  /tmp/ccM6gtS8.s 			page 16


 292:./Libraries/STM32_USB_Host_Library/Class/HID/Src/usbh_hid.c ****     USBH_HID_ParseHIDDesc(&HID_Handle->HID_Desc, phost->device.CfgDesc_Raw);
 570              		.loc 1 292 5
 571 0040 BB68     		ldr	r3, [r7, #8]
 572 0042 03F12602 		add	r2, r3, #38
 573              		.loc 1 292 63
 574 0046 7B68     		ldr	r3, [r7, #4]
 575 0048 1C33     		adds	r3, r3, #28
 576              		.loc 1 292 5
 577 004a 1946     		mov	r1, r3
 578 004c 1046     		mov	r0, r2
 579 004e FFF7FEFF 		bl	USBH_HID_ParseHIDDesc
 293:./Libraries/STM32_USB_Host_Library/Class/HID/Src/usbh_hid.c **** 
 294:./Libraries/STM32_USB_Host_Library/Class/HID/Src/usbh_hid.c ****     HID_Handle->ctl_state = HID_REQ_GET_REPORT_DESC;
 580              		.loc 1 294 27
 581 0052 BB68     		ldr	r3, [r7, #8]
 582 0054 0222     		movs	r2, #2
 583 0056 5A71     		strb	r2, [r3, #5]
 295:./Libraries/STM32_USB_Host_Library/Class/HID/Src/usbh_hid.c **** 
 296:./Libraries/STM32_USB_Host_Library/Class/HID/Src/usbh_hid.c ****     break;
 584              		.loc 1 296 5
 585 0058 4BE0     		b	.L29
 586              	.L28:
 297:./Libraries/STM32_USB_Host_Library/Class/HID/Src/usbh_hid.c ****   case HID_REQ_GET_REPORT_DESC:
 298:./Libraries/STM32_USB_Host_Library/Class/HID/Src/usbh_hid.c **** 
 299:./Libraries/STM32_USB_Host_Library/Class/HID/Src/usbh_hid.c ****     /* Get Report Desc */
 300:./Libraries/STM32_USB_Host_Library/Class/HID/Src/usbh_hid.c ****     classReqStatus = USBH_HID_GetHIDReportDescriptor(phost, HID_Handle->HID_Desc.wItemLength);
 587              		.loc 1 300 22
 588 005a BB68     		ldr	r3, [r7, #8]
 589 005c DB8D     		ldrh	r3, [r3, #46]
 590 005e 1946     		mov	r1, r3
 591 0060 7868     		ldr	r0, [r7, #4]
 592 0062 FFF7FEFF 		bl	USBH_HID_GetHIDReportDescriptor
 593 0066 0346     		mov	r3, r0
 594 0068 BB73     		strb	r3, [r7, #14]
 301:./Libraries/STM32_USB_Host_Library/Class/HID/Src/usbh_hid.c ****     if (classReqStatus == USBH_OK)
 595              		.loc 1 301 8
 596 006a BB7B     		ldrb	r3, [r7, #14]	@ zero_extendqisi2
 597 006c 002B     		cmp	r3, #0
 598 006e 03D1     		bne	.L30
 302:./Libraries/STM32_USB_Host_Library/Class/HID/Src/usbh_hid.c ****     {
 303:./Libraries/STM32_USB_Host_Library/Class/HID/Src/usbh_hid.c ****       /* The descriptor is available in phost->device.Data */
 304:./Libraries/STM32_USB_Host_Library/Class/HID/Src/usbh_hid.c ****       HID_Handle->ctl_state = HID_REQ_SET_IDLE;
 599              		.loc 1 304 29
 600 0070 BB68     		ldr	r3, [r7, #8]
 601 0072 0422     		movs	r2, #4
 602 0074 5A71     		strb	r2, [r3, #5]
 305:./Libraries/STM32_USB_Host_Library/Class/HID/Src/usbh_hid.c ****     }
 306:./Libraries/STM32_USB_Host_Library/Class/HID/Src/usbh_hid.c ****     else if (classReqStatus == USBH_NOT_SUPPORTED)
 307:./Libraries/STM32_USB_Host_Library/Class/HID/Src/usbh_hid.c ****     {
 308:./Libraries/STM32_USB_Host_Library/Class/HID/Src/usbh_hid.c ****       USBH_ErrLog("Control error: HID: Device Get Report Descriptor request failed");
 309:./Libraries/STM32_USB_Host_Library/Class/HID/Src/usbh_hid.c ****       status = USBH_FAIL;
 310:./Libraries/STM32_USB_Host_Library/Class/HID/Src/usbh_hid.c ****     }
 311:./Libraries/STM32_USB_Host_Library/Class/HID/Src/usbh_hid.c ****     else
 312:./Libraries/STM32_USB_Host_Library/Class/HID/Src/usbh_hid.c ****     {
 313:./Libraries/STM32_USB_Host_Library/Class/HID/Src/usbh_hid.c ****       /* .. */
 314:./Libraries/STM32_USB_Host_Library/Class/HID/Src/usbh_hid.c ****     }
 315:./Libraries/STM32_USB_Host_Library/Class/HID/Src/usbh_hid.c **** 
ARM GAS  /tmp/ccM6gtS8.s 			page 17


 316:./Libraries/STM32_USB_Host_Library/Class/HID/Src/usbh_hid.c ****     break;
 603              		.loc 1 316 5
 604 0076 37E0     		b	.L38
 605              	.L30:
 306:./Libraries/STM32_USB_Host_Library/Class/HID/Src/usbh_hid.c ****     {
 606              		.loc 1 306 13
 607 0078 BB7B     		ldrb	r3, [r7, #14]	@ zero_extendqisi2
 608 007a 032B     		cmp	r3, #3
 609 007c 34D1     		bne	.L38
 309:./Libraries/STM32_USB_Host_Library/Class/HID/Src/usbh_hid.c ****     }
 610              		.loc 1 309 14
 611 007e 0223     		movs	r3, #2
 612 0080 FB73     		strb	r3, [r7, #15]
 613              		.loc 1 316 5
 614 0082 31E0     		b	.L38
 615              	.L26:
 317:./Libraries/STM32_USB_Host_Library/Class/HID/Src/usbh_hid.c **** 
 318:./Libraries/STM32_USB_Host_Library/Class/HID/Src/usbh_hid.c ****   case HID_REQ_SET_IDLE:
 319:./Libraries/STM32_USB_Host_Library/Class/HID/Src/usbh_hid.c **** 
 320:./Libraries/STM32_USB_Host_Library/Class/HID/Src/usbh_hid.c ****     classReqStatus = USBH_HID_SetIdle(phost, 0U, 0U);
 616              		.loc 1 320 22
 617 0084 0022     		movs	r2, #0
 618 0086 0021     		movs	r1, #0
 619 0088 7868     		ldr	r0, [r7, #4]
 620 008a FFF7FEFF 		bl	USBH_HID_SetIdle
 621 008e 0346     		mov	r3, r0
 622 0090 BB73     		strb	r3, [r7, #14]
 321:./Libraries/STM32_USB_Host_Library/Class/HID/Src/usbh_hid.c **** 
 322:./Libraries/STM32_USB_Host_Library/Class/HID/Src/usbh_hid.c ****     /* set Idle */
 323:./Libraries/STM32_USB_Host_Library/Class/HID/Src/usbh_hid.c ****     if (classReqStatus == USBH_OK)
 623              		.loc 1 323 8
 624 0092 BB7B     		ldrb	r3, [r7, #14]	@ zero_extendqisi2
 625 0094 002B     		cmp	r3, #0
 626 0096 03D1     		bne	.L32
 324:./Libraries/STM32_USB_Host_Library/Class/HID/Src/usbh_hid.c ****     {
 325:./Libraries/STM32_USB_Host_Library/Class/HID/Src/usbh_hid.c ****       HID_Handle->ctl_state = HID_REQ_SET_PROTOCOL;
 627              		.loc 1 325 29
 628 0098 BB68     		ldr	r3, [r7, #8]
 629 009a 0522     		movs	r2, #5
 630 009c 5A71     		strb	r2, [r3, #5]
 326:./Libraries/STM32_USB_Host_Library/Class/HID/Src/usbh_hid.c ****     }
 327:./Libraries/STM32_USB_Host_Library/Class/HID/Src/usbh_hid.c ****     else
 328:./Libraries/STM32_USB_Host_Library/Class/HID/Src/usbh_hid.c ****     {
 329:./Libraries/STM32_USB_Host_Library/Class/HID/Src/usbh_hid.c ****       if (classReqStatus == USBH_NOT_SUPPORTED)
 330:./Libraries/STM32_USB_Host_Library/Class/HID/Src/usbh_hid.c ****       {
 331:./Libraries/STM32_USB_Host_Library/Class/HID/Src/usbh_hid.c ****         HID_Handle->ctl_state = HID_REQ_SET_PROTOCOL;
 332:./Libraries/STM32_USB_Host_Library/Class/HID/Src/usbh_hid.c ****       }
 333:./Libraries/STM32_USB_Host_Library/Class/HID/Src/usbh_hid.c ****     }
 334:./Libraries/STM32_USB_Host_Library/Class/HID/Src/usbh_hid.c ****     break;
 631              		.loc 1 334 5
 632 009e 25E0     		b	.L39
 633              	.L32:
 329:./Libraries/STM32_USB_Host_Library/Class/HID/Src/usbh_hid.c ****       {
 634              		.loc 1 329 10
 635 00a0 BB7B     		ldrb	r3, [r7, #14]	@ zero_extendqisi2
 636 00a2 032B     		cmp	r3, #3
 637 00a4 22D1     		bne	.L39
ARM GAS  /tmp/ccM6gtS8.s 			page 18


 331:./Libraries/STM32_USB_Host_Library/Class/HID/Src/usbh_hid.c ****       }
 638              		.loc 1 331 31
 639 00a6 BB68     		ldr	r3, [r7, #8]
 640 00a8 0522     		movs	r2, #5
 641 00aa 5A71     		strb	r2, [r3, #5]
 642              		.loc 1 334 5
 643 00ac 1EE0     		b	.L39
 644              	.L24:
 335:./Libraries/STM32_USB_Host_Library/Class/HID/Src/usbh_hid.c **** 
 336:./Libraries/STM32_USB_Host_Library/Class/HID/Src/usbh_hid.c ****   case HID_REQ_SET_PROTOCOL:
 337:./Libraries/STM32_USB_Host_Library/Class/HID/Src/usbh_hid.c ****     /* set protocol */
 338:./Libraries/STM32_USB_Host_Library/Class/HID/Src/usbh_hid.c ****     classReqStatus = USBH_HID_SetProtocol(phost, 0U);
 645              		.loc 1 338 22
 646 00ae 0021     		movs	r1, #0
 647 00b0 7868     		ldr	r0, [r7, #4]
 648 00b2 FFF7FEFF 		bl	USBH_HID_SetProtocol
 649 00b6 0346     		mov	r3, r0
 650 00b8 BB73     		strb	r3, [r7, #14]
 339:./Libraries/STM32_USB_Host_Library/Class/HID/Src/usbh_hid.c ****     if (classReqStatus == USBH_OK)
 651              		.loc 1 339 8
 652 00ba BB7B     		ldrb	r3, [r7, #14]	@ zero_extendqisi2
 653 00bc 002B     		cmp	r3, #0
 654 00be 0BD1     		bne	.L34
 340:./Libraries/STM32_USB_Host_Library/Class/HID/Src/usbh_hid.c ****     {
 341:./Libraries/STM32_USB_Host_Library/Class/HID/Src/usbh_hid.c ****       HID_Handle->ctl_state = HID_REQ_IDLE;
 655              		.loc 1 341 29
 656 00c0 BB68     		ldr	r3, [r7, #8]
 657 00c2 0122     		movs	r2, #1
 658 00c4 5A71     		strb	r2, [r3, #5]
 342:./Libraries/STM32_USB_Host_Library/Class/HID/Src/usbh_hid.c **** 
 343:./Libraries/STM32_USB_Host_Library/Class/HID/Src/usbh_hid.c ****       /* all requests performed*/
 344:./Libraries/STM32_USB_Host_Library/Class/HID/Src/usbh_hid.c ****       phost->pUser(phost, HOST_USER_CLASS_ACTIVE);
 659              		.loc 1 344 12
 660 00c6 7B68     		ldr	r3, [r7, #4]
 661 00c8 D3F8D434 		ldr	r3, [r3, #1236]
 662              		.loc 1 344 7
 663 00cc 0221     		movs	r1, #2
 664 00ce 7868     		ldr	r0, [r7, #4]
 665 00d0 9847     		blx	r3
 666              	.LVL0:
 345:./Libraries/STM32_USB_Host_Library/Class/HID/Src/usbh_hid.c ****       status = USBH_OK;
 667              		.loc 1 345 14
 668 00d2 0023     		movs	r3, #0
 669 00d4 FB73     		strb	r3, [r7, #15]
 346:./Libraries/STM32_USB_Host_Library/Class/HID/Src/usbh_hid.c ****     }
 347:./Libraries/STM32_USB_Host_Library/Class/HID/Src/usbh_hid.c ****     else if (classReqStatus == USBH_NOT_SUPPORTED)
 348:./Libraries/STM32_USB_Host_Library/Class/HID/Src/usbh_hid.c ****     {
 349:./Libraries/STM32_USB_Host_Library/Class/HID/Src/usbh_hid.c ****       USBH_ErrLog("Control error: HID: Device Set protocol request failed");
 350:./Libraries/STM32_USB_Host_Library/Class/HID/Src/usbh_hid.c ****       status = USBH_FAIL;
 351:./Libraries/STM32_USB_Host_Library/Class/HID/Src/usbh_hid.c ****     }
 352:./Libraries/STM32_USB_Host_Library/Class/HID/Src/usbh_hid.c ****     else
 353:./Libraries/STM32_USB_Host_Library/Class/HID/Src/usbh_hid.c ****     {
 354:./Libraries/STM32_USB_Host_Library/Class/HID/Src/usbh_hid.c ****       /* .. */
 355:./Libraries/STM32_USB_Host_Library/Class/HID/Src/usbh_hid.c ****     }
 356:./Libraries/STM32_USB_Host_Library/Class/HID/Src/usbh_hid.c ****     break;
 670              		.loc 1 356 5
 671 00d6 0BE0     		b	.L40
ARM GAS  /tmp/ccM6gtS8.s 			page 19


 672              	.L34:
 347:./Libraries/STM32_USB_Host_Library/Class/HID/Src/usbh_hid.c ****     {
 673              		.loc 1 347 13
 674 00d8 BB7B     		ldrb	r3, [r7, #14]	@ zero_extendqisi2
 675 00da 032B     		cmp	r3, #3
 676 00dc 08D1     		bne	.L40
 350:./Libraries/STM32_USB_Host_Library/Class/HID/Src/usbh_hid.c ****     }
 677              		.loc 1 350 14
 678 00de 0223     		movs	r3, #2
 679 00e0 FB73     		strb	r3, [r7, #15]
 680              		.loc 1 356 5
 681 00e2 05E0     		b	.L40
 682              	.L37:
 357:./Libraries/STM32_USB_Host_Library/Class/HID/Src/usbh_hid.c **** 
 358:./Libraries/STM32_USB_Host_Library/Class/HID/Src/usbh_hid.c ****   case HID_REQ_IDLE:
 359:./Libraries/STM32_USB_Host_Library/Class/HID/Src/usbh_hid.c ****   default:
 360:./Libraries/STM32_USB_Host_Library/Class/HID/Src/usbh_hid.c ****     break;
 683              		.loc 1 360 5
 684 00e4 00BF     		nop
 685 00e6 04E0     		b	.L29
 686              	.L38:
 316:./Libraries/STM32_USB_Host_Library/Class/HID/Src/usbh_hid.c **** 
 687              		.loc 1 316 5
 688 00e8 00BF     		nop
 689 00ea 02E0     		b	.L29
 690              	.L39:
 334:./Libraries/STM32_USB_Host_Library/Class/HID/Src/usbh_hid.c **** 
 691              		.loc 1 334 5
 692 00ec 00BF     		nop
 693 00ee 00E0     		b	.L29
 694              	.L40:
 356:./Libraries/STM32_USB_Host_Library/Class/HID/Src/usbh_hid.c **** 
 695              		.loc 1 356 5
 696 00f0 00BF     		nop
 697              	.L29:
 361:./Libraries/STM32_USB_Host_Library/Class/HID/Src/usbh_hid.c ****   }
 362:./Libraries/STM32_USB_Host_Library/Class/HID/Src/usbh_hid.c **** 
 363:./Libraries/STM32_USB_Host_Library/Class/HID/Src/usbh_hid.c ****   return status;
 698              		.loc 1 363 10
 699 00f2 FB7B     		ldrb	r3, [r7, #15]	@ zero_extendqisi2
 364:./Libraries/STM32_USB_Host_Library/Class/HID/Src/usbh_hid.c **** }
 700              		.loc 1 364 1
 701 00f4 1846     		mov	r0, r3
 702 00f6 1037     		adds	r7, r7, #16
 703              	.LCFI13:
 704              		.cfi_def_cfa_offset 8
 705 00f8 BD46     		mov	sp, r7
 706              	.LCFI14:
 707              		.cfi_def_cfa_register 13
 708              		@ sp needed
 709 00fa 80BD     		pop	{r7, pc}
 710              		.cfi_endproc
 711              	.LFE340:
 713              		.section	.text.USBH_HID_Process,"ax",%progbits
 714              		.align	1
 715              		.syntax unified
 716              		.thumb
ARM GAS  /tmp/ccM6gtS8.s 			page 20


 717              		.thumb_func
 718              		.fpu fpv5-d16
 720              	USBH_HID_Process:
 721              	.LFB341:
 365:./Libraries/STM32_USB_Host_Library/Class/HID/Src/usbh_hid.c **** 
 366:./Libraries/STM32_USB_Host_Library/Class/HID/Src/usbh_hid.c **** /**
 367:./Libraries/STM32_USB_Host_Library/Class/HID/Src/usbh_hid.c ****   * @brief  USBH_HID_Process
 368:./Libraries/STM32_USB_Host_Library/Class/HID/Src/usbh_hid.c ****   *         The function is for managing state machine for HID data transfers
 369:./Libraries/STM32_USB_Host_Library/Class/HID/Src/usbh_hid.c ****   * @param  phost: Host handle
 370:./Libraries/STM32_USB_Host_Library/Class/HID/Src/usbh_hid.c ****   * @retval USBH Status
 371:./Libraries/STM32_USB_Host_Library/Class/HID/Src/usbh_hid.c ****   */
 372:./Libraries/STM32_USB_Host_Library/Class/HID/Src/usbh_hid.c **** static USBH_StatusTypeDef USBH_HID_Process(USBH_HandleTypeDef *phost)
 373:./Libraries/STM32_USB_Host_Library/Class/HID/Src/usbh_hid.c **** {
 722              		.loc 1 373 1
 723              		.cfi_startproc
 724              		@ args = 0, pretend = 0, frame = 24
 725              		@ frame_needed = 1, uses_anonymous_args = 0
 726 0000 80B5     		push	{r7, lr}
 727              	.LCFI15:
 728              		.cfi_def_cfa_offset 8
 729              		.cfi_offset 7, -8
 730              		.cfi_offset 14, -4
 731 0002 88B0     		sub	sp, sp, #32
 732              	.LCFI16:
 733              		.cfi_def_cfa_offset 40
 734 0004 02AF     		add	r7, sp, #8
 735              	.LCFI17:
 736              		.cfi_def_cfa 7, 32
 737 0006 7860     		str	r0, [r7, #4]
 374:./Libraries/STM32_USB_Host_Library/Class/HID/Src/usbh_hid.c ****   USBH_StatusTypeDef status = USBH_OK;
 738              		.loc 1 374 22
 739 0008 0023     		movs	r3, #0
 740 000a FB75     		strb	r3, [r7, #23]
 375:./Libraries/STM32_USB_Host_Library/Class/HID/Src/usbh_hid.c ****   HID_HandleTypeDef *HID_Handle = (HID_HandleTypeDef *) phost->pActiveClass->pData;
 741              		.loc 1 375 62
 742 000c 7B68     		ldr	r3, [r7, #4]
 743 000e D3F87C34 		ldr	r3, [r3, #1148]
 744              		.loc 1 375 22
 745 0012 DB69     		ldr	r3, [r3, #28]
 746 0014 3B61     		str	r3, [r7, #16]
 376:./Libraries/STM32_USB_Host_Library/Class/HID/Src/usbh_hid.c ****   uint32_t XferSize;
 377:./Libraries/STM32_USB_Host_Library/Class/HID/Src/usbh_hid.c **** 
 378:./Libraries/STM32_USB_Host_Library/Class/HID/Src/usbh_hid.c ****   switch (HID_Handle->state)
 747              		.loc 1 378 21
 748 0016 3B69     		ldr	r3, [r7, #16]
 749 0018 9B78     		ldrb	r3, [r3, #2]	@ zero_extendqisi2
 750 001a 062B     		cmp	r3, #6
 751 001c 00F2E180 		bhi	.L58
 752 0020 01A2     		adr	r2, .L44
 753 0022 52F823F0 		ldr	pc, [r2, r3, lsl #2]
 754 0026 00BF     		.p2align 2
 755              	.L44:
 756 0028 45000000 		.word	.L48+1
 757 002c 71000000 		.word	.L47+1
 758 0030 E3010000 		.word	.L58+1
 759 0034 E3010000 		.word	.L58+1
 760 0038 19010000 		.word	.L46+1
ARM GAS  /tmp/ccM6gtS8.s 			page 21


 761 003c E7000000 		.word	.L45+1
 762 0040 47010000 		.word	.L43+1
 763              		.p2align 1
 764              	.L48:
 379:./Libraries/STM32_USB_Host_Library/Class/HID/Src/usbh_hid.c ****   {
 380:./Libraries/STM32_USB_Host_Library/Class/HID/Src/usbh_hid.c ****     case HID_INIT:
 381:./Libraries/STM32_USB_Host_Library/Class/HID/Src/usbh_hid.c ****       HID_Handle->Init(phost);
 765              		.loc 1 381 17
 766 0044 3B69     		ldr	r3, [r7, #16]
 767 0046 1B6B     		ldr	r3, [r3, #48]
 768              		.loc 1 381 7
 769 0048 7868     		ldr	r0, [r7, #4]
 770 004a 9847     		blx	r3
 771              	.LVL1:
 382:./Libraries/STM32_USB_Host_Library/Class/HID/Src/usbh_hid.c ****       HID_Handle->state = HID_IDLE;
 772              		.loc 1 382 25
 773 004c 3B69     		ldr	r3, [r7, #16]
 774 004e 0122     		movs	r2, #1
 775 0050 9A70     		strb	r2, [r3, #2]
 383:./Libraries/STM32_USB_Host_Library/Class/HID/Src/usbh_hid.c **** 
 384:./Libraries/STM32_USB_Host_Library/Class/HID/Src/usbh_hid.c **** #if (USBH_USE_OS == 1U)
 385:./Libraries/STM32_USB_Host_Library/Class/HID/Src/usbh_hid.c ****       phost->os_msg = (uint32_t)USBH_URB_EVENT;
 776              		.loc 1 385 21
 777 0052 7B68     		ldr	r3, [r7, #4]
 778 0054 0222     		movs	r2, #2
 779 0056 C3F8E024 		str	r2, [r3, #1248]
 386:./Libraries/STM32_USB_Host_Library/Class/HID/Src/usbh_hid.c **** #if (osCMSIS < 0x20000U)
 387:./Libraries/STM32_USB_Host_Library/Class/HID/Src/usbh_hid.c ****       (void)osMessagePut(phost->os_event, phost->os_msg, 0U);
 388:./Libraries/STM32_USB_Host_Library/Class/HID/Src/usbh_hid.c **** #else
 389:./Libraries/STM32_USB_Host_Library/Class/HID/Src/usbh_hid.c ****       (void)osMessageQueuePut(phost->os_event, &phost->os_msg, 0U, NULL);
 780              		.loc 1 389 13
 781 005a 7B68     		ldr	r3, [r7, #4]
 782 005c D3F8D804 		ldr	r0, [r3, #1240]
 783              		.loc 1 389 48
 784 0060 7B68     		ldr	r3, [r7, #4]
 785 0062 03F59C61 		add	r1, r3, #1248
 786              		.loc 1 389 13
 787 0066 0023     		movs	r3, #0
 788 0068 0022     		movs	r2, #0
 789 006a FFF7FEFF 		bl	osMessageQueuePut
 390:./Libraries/STM32_USB_Host_Library/Class/HID/Src/usbh_hid.c **** #endif
 391:./Libraries/STM32_USB_Host_Library/Class/HID/Src/usbh_hid.c **** #endif
 392:./Libraries/STM32_USB_Host_Library/Class/HID/Src/usbh_hid.c ****       break;
 790              		.loc 1 392 7
 791 006e BBE0     		b	.L49
 792              	.L47:
 393:./Libraries/STM32_USB_Host_Library/Class/HID/Src/usbh_hid.c **** 
 394:./Libraries/STM32_USB_Host_Library/Class/HID/Src/usbh_hid.c ****     case HID_IDLE:
 395:./Libraries/STM32_USB_Host_Library/Class/HID/Src/usbh_hid.c ****       status = USBH_HID_GetReport(phost, 0x01U, 0U, HID_Handle->pData, (uint8_t)HID_Handle->length)
 793              		.loc 1 395 16
 794 0070 3B69     		ldr	r3, [r7, #16]
 795 0072 5A69     		ldr	r2, [r3, #20]
 796              		.loc 1 395 91
 797 0074 3B69     		ldr	r3, [r7, #16]
 798 0076 1B8B     		ldrh	r3, [r3, #24]
 799              		.loc 1 395 16
 800 0078 DBB2     		uxtb	r3, r3
ARM GAS  /tmp/ccM6gtS8.s 			page 22


 801 007a 0093     		str	r3, [sp]
 802 007c 1346     		mov	r3, r2
 803 007e 0022     		movs	r2, #0
 804 0080 0121     		movs	r1, #1
 805 0082 7868     		ldr	r0, [r7, #4]
 806 0084 FFF7FEFF 		bl	USBH_HID_GetReport
 807 0088 0346     		mov	r3, r0
 808 008a FB75     		strb	r3, [r7, #23]
 396:./Libraries/STM32_USB_Host_Library/Class/HID/Src/usbh_hid.c ****       if (status == USBH_OK)
 809              		.loc 1 396 10
 810 008c FB7D     		ldrb	r3, [r7, #23]	@ zero_extendqisi2
 811 008e 002B     		cmp	r3, #0
 812 0090 03D1     		bne	.L50
 397:./Libraries/STM32_USB_Host_Library/Class/HID/Src/usbh_hid.c ****       {
 398:./Libraries/STM32_USB_Host_Library/Class/HID/Src/usbh_hid.c ****         HID_Handle->state = HID_SYNC;
 813              		.loc 1 398 27
 814 0092 3B69     		ldr	r3, [r7, #16]
 815 0094 0522     		movs	r2, #5
 816 0096 9A70     		strb	r2, [r3, #2]
 817 0098 16E0     		b	.L51
 818              	.L50:
 399:./Libraries/STM32_USB_Host_Library/Class/HID/Src/usbh_hid.c ****       }
 400:./Libraries/STM32_USB_Host_Library/Class/HID/Src/usbh_hid.c ****       else if (status == USBH_BUSY)
 819              		.loc 1 400 15
 820 009a FB7D     		ldrb	r3, [r7, #23]	@ zero_extendqisi2
 821 009c 012B     		cmp	r3, #1
 822 009e 05D1     		bne	.L52
 401:./Libraries/STM32_USB_Host_Library/Class/HID/Src/usbh_hid.c ****       {
 402:./Libraries/STM32_USB_Host_Library/Class/HID/Src/usbh_hid.c ****         HID_Handle->state = HID_IDLE;
 823              		.loc 1 402 27
 824 00a0 3B69     		ldr	r3, [r7, #16]
 825 00a2 0122     		movs	r2, #1
 826 00a4 9A70     		strb	r2, [r3, #2]
 403:./Libraries/STM32_USB_Host_Library/Class/HID/Src/usbh_hid.c ****         status = USBH_OK;
 827              		.loc 1 403 16
 828 00a6 0023     		movs	r3, #0
 829 00a8 FB75     		strb	r3, [r7, #23]
 830 00aa 0DE0     		b	.L51
 831              	.L52:
 404:./Libraries/STM32_USB_Host_Library/Class/HID/Src/usbh_hid.c ****       }
 405:./Libraries/STM32_USB_Host_Library/Class/HID/Src/usbh_hid.c ****       else if (status == USBH_NOT_SUPPORTED)
 832              		.loc 1 405 15
 833 00ac FB7D     		ldrb	r3, [r7, #23]	@ zero_extendqisi2
 834 00ae 032B     		cmp	r3, #3
 835 00b0 05D1     		bne	.L53
 406:./Libraries/STM32_USB_Host_Library/Class/HID/Src/usbh_hid.c ****       {
 407:./Libraries/STM32_USB_Host_Library/Class/HID/Src/usbh_hid.c ****         HID_Handle->state = HID_SYNC;
 836              		.loc 1 407 27
 837 00b2 3B69     		ldr	r3, [r7, #16]
 838 00b4 0522     		movs	r2, #5
 839 00b6 9A70     		strb	r2, [r3, #2]
 408:./Libraries/STM32_USB_Host_Library/Class/HID/Src/usbh_hid.c ****         status = USBH_OK;
 840              		.loc 1 408 16
 841 00b8 0023     		movs	r3, #0
 842 00ba FB75     		strb	r3, [r7, #23]
 843 00bc 04E0     		b	.L51
 844              	.L53:
ARM GAS  /tmp/ccM6gtS8.s 			page 23


 409:./Libraries/STM32_USB_Host_Library/Class/HID/Src/usbh_hid.c ****       }
 410:./Libraries/STM32_USB_Host_Library/Class/HID/Src/usbh_hid.c ****       else
 411:./Libraries/STM32_USB_Host_Library/Class/HID/Src/usbh_hid.c ****       {
 412:./Libraries/STM32_USB_Host_Library/Class/HID/Src/usbh_hid.c ****         HID_Handle->state = HID_ERROR;
 845              		.loc 1 412 27
 846 00be 3B69     		ldr	r3, [r7, #16]
 847 00c0 0722     		movs	r2, #7
 848 00c2 9A70     		strb	r2, [r3, #2]
 413:./Libraries/STM32_USB_Host_Library/Class/HID/Src/usbh_hid.c ****         status = USBH_FAIL;
 849              		.loc 1 413 16
 850 00c4 0223     		movs	r3, #2
 851 00c6 FB75     		strb	r3, [r7, #23]
 852              	.L51:
 414:./Libraries/STM32_USB_Host_Library/Class/HID/Src/usbh_hid.c ****       }
 415:./Libraries/STM32_USB_Host_Library/Class/HID/Src/usbh_hid.c **** 
 416:./Libraries/STM32_USB_Host_Library/Class/HID/Src/usbh_hid.c **** #if (USBH_USE_OS == 1U)
 417:./Libraries/STM32_USB_Host_Library/Class/HID/Src/usbh_hid.c ****       phost->os_msg = (uint32_t)USBH_URB_EVENT;
 853              		.loc 1 417 21
 854 00c8 7B68     		ldr	r3, [r7, #4]
 855 00ca 0222     		movs	r2, #2
 856 00cc C3F8E024 		str	r2, [r3, #1248]
 418:./Libraries/STM32_USB_Host_Library/Class/HID/Src/usbh_hid.c **** #if (osCMSIS < 0x20000U)
 419:./Libraries/STM32_USB_Host_Library/Class/HID/Src/usbh_hid.c ****       (void)osMessagePut(phost->os_event, phost->os_msg, 0U);
 420:./Libraries/STM32_USB_Host_Library/Class/HID/Src/usbh_hid.c **** #else
 421:./Libraries/STM32_USB_Host_Library/Class/HID/Src/usbh_hid.c ****       (void)osMessageQueuePut(phost->os_event, &phost->os_msg, 0U, NULL);
 857              		.loc 1 421 13
 858 00d0 7B68     		ldr	r3, [r7, #4]
 859 00d2 D3F8D804 		ldr	r0, [r3, #1240]
 860              		.loc 1 421 48
 861 00d6 7B68     		ldr	r3, [r7, #4]
 862 00d8 03F59C61 		add	r1, r3, #1248
 863              		.loc 1 421 13
 864 00dc 0023     		movs	r3, #0
 865 00de 0022     		movs	r2, #0
 866 00e0 FFF7FEFF 		bl	osMessageQueuePut
 422:./Libraries/STM32_USB_Host_Library/Class/HID/Src/usbh_hid.c **** #endif
 423:./Libraries/STM32_USB_Host_Library/Class/HID/Src/usbh_hid.c **** #endif
 424:./Libraries/STM32_USB_Host_Library/Class/HID/Src/usbh_hid.c ****       break;
 867              		.loc 1 424 7
 868 00e4 80E0     		b	.L49
 869              	.L45:
 425:./Libraries/STM32_USB_Host_Library/Class/HID/Src/usbh_hid.c **** 
 426:./Libraries/STM32_USB_Host_Library/Class/HID/Src/usbh_hid.c ****     case HID_SYNC:
 427:./Libraries/STM32_USB_Host_Library/Class/HID/Src/usbh_hid.c ****       /* Sync with start of Even Frame */
 428:./Libraries/STM32_USB_Host_Library/Class/HID/Src/usbh_hid.c ****       if (phost->Timer & 1U)
 870              		.loc 1 428 16
 871 00e6 7B68     		ldr	r3, [r7, #4]
 872 00e8 D3F8C434 		ldr	r3, [r3, #1220]
 873              		.loc 1 428 24
 874 00ec 03F00103 		and	r3, r3, #1
 875              		.loc 1 428 10
 876 00f0 002B     		cmp	r3, #0
 877 00f2 02D0     		beq	.L54
 429:./Libraries/STM32_USB_Host_Library/Class/HID/Src/usbh_hid.c ****       {
 430:./Libraries/STM32_USB_Host_Library/Class/HID/Src/usbh_hid.c ****         HID_Handle->state = HID_GET_DATA;
 878              		.loc 1 430 27
 879 00f4 3B69     		ldr	r3, [r7, #16]
ARM GAS  /tmp/ccM6gtS8.s 			page 24


 880 00f6 0422     		movs	r2, #4
 881 00f8 9A70     		strb	r2, [r3, #2]
 882              	.L54:
 431:./Libraries/STM32_USB_Host_Library/Class/HID/Src/usbh_hid.c ****       }
 432:./Libraries/STM32_USB_Host_Library/Class/HID/Src/usbh_hid.c **** 
 433:./Libraries/STM32_USB_Host_Library/Class/HID/Src/usbh_hid.c **** #if (USBH_USE_OS == 1U)
 434:./Libraries/STM32_USB_Host_Library/Class/HID/Src/usbh_hid.c ****       phost->os_msg = (uint32_t)USBH_URB_EVENT;
 883              		.loc 1 434 21
 884 00fa 7B68     		ldr	r3, [r7, #4]
 885 00fc 0222     		movs	r2, #2
 886 00fe C3F8E024 		str	r2, [r3, #1248]
 435:./Libraries/STM32_USB_Host_Library/Class/HID/Src/usbh_hid.c **** #if (osCMSIS < 0x20000U)
 436:./Libraries/STM32_USB_Host_Library/Class/HID/Src/usbh_hid.c ****       (void)osMessagePut(phost->os_event, phost->os_msg, 0U);
 437:./Libraries/STM32_USB_Host_Library/Class/HID/Src/usbh_hid.c **** #else
 438:./Libraries/STM32_USB_Host_Library/Class/HID/Src/usbh_hid.c ****       (void)osMessageQueuePut(phost->os_event, &phost->os_msg, 0U, NULL);
 887              		.loc 1 438 13
 888 0102 7B68     		ldr	r3, [r7, #4]
 889 0104 D3F8D804 		ldr	r0, [r3, #1240]
 890              		.loc 1 438 48
 891 0108 7B68     		ldr	r3, [r7, #4]
 892 010a 03F59C61 		add	r1, r3, #1248
 893              		.loc 1 438 13
 894 010e 0023     		movs	r3, #0
 895 0110 0022     		movs	r2, #0
 896 0112 FFF7FEFF 		bl	osMessageQueuePut
 439:./Libraries/STM32_USB_Host_Library/Class/HID/Src/usbh_hid.c **** #endif
 440:./Libraries/STM32_USB_Host_Library/Class/HID/Src/usbh_hid.c **** #endif
 441:./Libraries/STM32_USB_Host_Library/Class/HID/Src/usbh_hid.c ****       break;
 897              		.loc 1 441 7
 898 0116 67E0     		b	.L49
 899              	.L46:
 442:./Libraries/STM32_USB_Host_Library/Class/HID/Src/usbh_hid.c **** 
 443:./Libraries/STM32_USB_Host_Library/Class/HID/Src/usbh_hid.c ****     case HID_GET_DATA:
 444:./Libraries/STM32_USB_Host_Library/Class/HID/Src/usbh_hid.c ****       USBH_InterruptReceiveData(phost, HID_Handle->pData,
 900              		.loc 1 444 7
 901 0118 3B69     		ldr	r3, [r7, #16]
 902 011a 5969     		ldr	r1, [r3, #20]
 445:./Libraries/STM32_USB_Host_Library/Class/HID/Src/usbh_hid.c ****                                 (uint8_t)HID_Handle->length,
 903              		.loc 1 445 52
 904 011c 3B69     		ldr	r3, [r7, #16]
 905 011e 1B8B     		ldrh	r3, [r3, #24]
 444:./Libraries/STM32_USB_Host_Library/Class/HID/Src/usbh_hid.c ****                                 (uint8_t)HID_Handle->length,
 906              		.loc 1 444 7
 907 0120 DAB2     		uxtb	r2, r3
 908 0122 3B69     		ldr	r3, [r7, #16]
 909 0124 5B78     		ldrb	r3, [r3, #1]	@ zero_extendqisi2
 910 0126 7868     		ldr	r0, [r7, #4]
 911 0128 FFF7FEFF 		bl	USBH_InterruptReceiveData
 446:./Libraries/STM32_USB_Host_Library/Class/HID/Src/usbh_hid.c ****                                 HID_Handle->InPipe);
 447:./Libraries/STM32_USB_Host_Library/Class/HID/Src/usbh_hid.c **** 
 448:./Libraries/STM32_USB_Host_Library/Class/HID/Src/usbh_hid.c ****       HID_Handle->state = HID_POLL;
 912              		.loc 1 448 25
 913 012c 3B69     		ldr	r3, [r7, #16]
 914 012e 0622     		movs	r2, #6
 915 0130 9A70     		strb	r2, [r3, #2]
 449:./Libraries/STM32_USB_Host_Library/Class/HID/Src/usbh_hid.c ****       HID_Handle->timer = phost->Timer;
 916              		.loc 1 449 32
ARM GAS  /tmp/ccM6gtS8.s 			page 25


 917 0132 7B68     		ldr	r3, [r7, #4]
 918 0134 D3F8C424 		ldr	r2, [r3, #1220]
 919              		.loc 1 449 25
 920 0138 3B69     		ldr	r3, [r7, #16]
 921 013a 1A62     		str	r2, [r3, #32]
 450:./Libraries/STM32_USB_Host_Library/Class/HID/Src/usbh_hid.c ****       HID_Handle->DataReady = 0U;
 922              		.loc 1 450 29
 923 013c 3B69     		ldr	r3, [r7, #16]
 924 013e 0022     		movs	r2, #0
 925 0140 83F82420 		strb	r2, [r3, #36]
 451:./Libraries/STM32_USB_Host_Library/Class/HID/Src/usbh_hid.c ****       break;
 926              		.loc 1 451 7
 927 0144 50E0     		b	.L49
 928              	.L43:
 452:./Libraries/STM32_USB_Host_Library/Class/HID/Src/usbh_hid.c **** 
 453:./Libraries/STM32_USB_Host_Library/Class/HID/Src/usbh_hid.c ****     case HID_POLL:
 454:./Libraries/STM32_USB_Host_Library/Class/HID/Src/usbh_hid.c ****       if (USBH_LL_GetURBState(phost, HID_Handle->InPipe) == USBH_URB_DONE)
 929              		.loc 1 454 11
 930 0146 3B69     		ldr	r3, [r7, #16]
 931 0148 5B78     		ldrb	r3, [r3, #1]	@ zero_extendqisi2
 932 014a 1946     		mov	r1, r3
 933 014c 7868     		ldr	r0, [r7, #4]
 934 014e FFF7FEFF 		bl	USBH_LL_GetURBState
 935 0152 0346     		mov	r3, r0
 936              		.loc 1 454 10
 937 0154 012B     		cmp	r3, #1
 938 0156 2ED1     		bne	.L55
 455:./Libraries/STM32_USB_Host_Library/Class/HID/Src/usbh_hid.c ****       {
 456:./Libraries/STM32_USB_Host_Library/Class/HID/Src/usbh_hid.c ****         XferSize = USBH_LL_GetLastXferSize(phost, HID_Handle->InPipe);
 939              		.loc 1 456 20
 940 0158 3B69     		ldr	r3, [r7, #16]
 941 015a 5B78     		ldrb	r3, [r3, #1]	@ zero_extendqisi2
 942 015c 1946     		mov	r1, r3
 943 015e 7868     		ldr	r0, [r7, #4]
 944 0160 FFF7FEFF 		bl	USBH_LL_GetLastXferSize
 945 0164 F860     		str	r0, [r7, #12]
 457:./Libraries/STM32_USB_Host_Library/Class/HID/Src/usbh_hid.c **** 
 458:./Libraries/STM32_USB_Host_Library/Class/HID/Src/usbh_hid.c ****         if ((HID_Handle->DataReady == 0U) && (XferSize != 0U))
 946              		.loc 1 458 24
 947 0166 3B69     		ldr	r3, [r7, #16]
 948 0168 93F82430 		ldrb	r3, [r3, #36]	@ zero_extendqisi2
 949              		.loc 1 458 12
 950 016c 002B     		cmp	r3, #0
 951 016e 3AD1     		bne	.L59
 952              		.loc 1 458 43 discriminator 1
 953 0170 FB68     		ldr	r3, [r7, #12]
 954 0172 002B     		cmp	r3, #0
 955 0174 37D0     		beq	.L59
 459:./Libraries/STM32_USB_Host_Library/Class/HID/Src/usbh_hid.c ****         {
 460:./Libraries/STM32_USB_Host_Library/Class/HID/Src/usbh_hid.c ****           USBH_HID_FifoWrite(&HID_Handle->fifo, HID_Handle->pData, HID_Handle->length);
 956              		.loc 1 460 11
 957 0176 3B69     		ldr	r3, [r7, #16]
 958 0178 03F10800 		add	r0, r3, #8
 959              		.loc 1 460 59
 960 017c 3B69     		ldr	r3, [r7, #16]
 961 017e 5969     		ldr	r1, [r3, #20]
 962              		.loc 1 460 11
ARM GAS  /tmp/ccM6gtS8.s 			page 26


 963 0180 3B69     		ldr	r3, [r7, #16]
 964 0182 1B8B     		ldrh	r3, [r3, #24]
 965 0184 1A46     		mov	r2, r3
 966 0186 FFF7FEFF 		bl	USBH_HID_FifoWrite
 461:./Libraries/STM32_USB_Host_Library/Class/HID/Src/usbh_hid.c ****           HID_Handle->DataReady = 1U;
 967              		.loc 1 461 33
 968 018a 3B69     		ldr	r3, [r7, #16]
 969 018c 0122     		movs	r2, #1
 970 018e 83F82420 		strb	r2, [r3, #36]
 462:./Libraries/STM32_USB_Host_Library/Class/HID/Src/usbh_hid.c ****           USBH_HID_EventCallback(phost);
 971              		.loc 1 462 11
 972 0192 7868     		ldr	r0, [r7, #4]
 973 0194 FFF7FEFF 		bl	USBH_HID_EventCallback
 463:./Libraries/STM32_USB_Host_Library/Class/HID/Src/usbh_hid.c **** 
 464:./Libraries/STM32_USB_Host_Library/Class/HID/Src/usbh_hid.c **** #if (USBH_USE_OS == 1U)
 465:./Libraries/STM32_USB_Host_Library/Class/HID/Src/usbh_hid.c ****           phost->os_msg = (uint32_t)USBH_URB_EVENT;
 974              		.loc 1 465 25
 975 0198 7B68     		ldr	r3, [r7, #4]
 976 019a 0222     		movs	r2, #2
 977 019c C3F8E024 		str	r2, [r3, #1248]
 466:./Libraries/STM32_USB_Host_Library/Class/HID/Src/usbh_hid.c **** #if (osCMSIS < 0x20000U)
 467:./Libraries/STM32_USB_Host_Library/Class/HID/Src/usbh_hid.c ****           (void)osMessagePut(phost->os_event, phost->os_msg, 0U);
 468:./Libraries/STM32_USB_Host_Library/Class/HID/Src/usbh_hid.c **** #else
 469:./Libraries/STM32_USB_Host_Library/Class/HID/Src/usbh_hid.c ****           (void)osMessageQueuePut(phost->os_event, &phost->os_msg, 0U, NULL);
 978              		.loc 1 469 17
 979 01a0 7B68     		ldr	r3, [r7, #4]
 980 01a2 D3F8D804 		ldr	r0, [r3, #1240]
 981              		.loc 1 469 52
 982 01a6 7B68     		ldr	r3, [r7, #4]
 983 01a8 03F59C61 		add	r1, r3, #1248
 984              		.loc 1 469 17
 985 01ac 0023     		movs	r3, #0
 986 01ae 0022     		movs	r2, #0
 987 01b0 FFF7FEFF 		bl	osMessageQueuePut
 470:./Libraries/STM32_USB_Host_Library/Class/HID/Src/usbh_hid.c **** #endif
 471:./Libraries/STM32_USB_Host_Library/Class/HID/Src/usbh_hid.c **** #endif
 472:./Libraries/STM32_USB_Host_Library/Class/HID/Src/usbh_hid.c ****         }
 473:./Libraries/STM32_USB_Host_Library/Class/HID/Src/usbh_hid.c ****       }
 474:./Libraries/STM32_USB_Host_Library/Class/HID/Src/usbh_hid.c ****       else
 475:./Libraries/STM32_USB_Host_Library/Class/HID/Src/usbh_hid.c ****       {
 476:./Libraries/STM32_USB_Host_Library/Class/HID/Src/usbh_hid.c ****         /* IN Endpoint Stalled */
 477:./Libraries/STM32_USB_Host_Library/Class/HID/Src/usbh_hid.c ****         if (USBH_LL_GetURBState(phost, HID_Handle->InPipe) == USBH_URB_STALL)
 478:./Libraries/STM32_USB_Host_Library/Class/HID/Src/usbh_hid.c ****         {
 479:./Libraries/STM32_USB_Host_Library/Class/HID/Src/usbh_hid.c ****           /* Issue Clear Feature on interrupt IN endpoint */
 480:./Libraries/STM32_USB_Host_Library/Class/HID/Src/usbh_hid.c ****           if (USBH_ClrFeature(phost, HID_Handle->ep_addr) == USBH_OK)
 481:./Libraries/STM32_USB_Host_Library/Class/HID/Src/usbh_hid.c ****           {
 482:./Libraries/STM32_USB_Host_Library/Class/HID/Src/usbh_hid.c ****             /* Change state to issue next IN token */
 483:./Libraries/STM32_USB_Host_Library/Class/HID/Src/usbh_hid.c ****             HID_Handle->state = HID_GET_DATA;
 484:./Libraries/STM32_USB_Host_Library/Class/HID/Src/usbh_hid.c ****           }
 485:./Libraries/STM32_USB_Host_Library/Class/HID/Src/usbh_hid.c ****         }
 486:./Libraries/STM32_USB_Host_Library/Class/HID/Src/usbh_hid.c ****       }
 487:./Libraries/STM32_USB_Host_Library/Class/HID/Src/usbh_hid.c ****       break;
 988              		.loc 1 487 7
 989 01b4 17E0     		b	.L59
 990              	.L55:
 477:./Libraries/STM32_USB_Host_Library/Class/HID/Src/usbh_hid.c ****         {
 991              		.loc 1 477 13
ARM GAS  /tmp/ccM6gtS8.s 			page 27


 992 01b6 3B69     		ldr	r3, [r7, #16]
 993 01b8 5B78     		ldrb	r3, [r3, #1]	@ zero_extendqisi2
 994 01ba 1946     		mov	r1, r3
 995 01bc 7868     		ldr	r0, [r7, #4]
 996 01be FFF7FEFF 		bl	USBH_LL_GetURBState
 997 01c2 0346     		mov	r3, r0
 477:./Libraries/STM32_USB_Host_Library/Class/HID/Src/usbh_hid.c ****         {
 998              		.loc 1 477 12
 999 01c4 052B     		cmp	r3, #5
 1000 01c6 0ED1     		bne	.L59
 480:./Libraries/STM32_USB_Host_Library/Class/HID/Src/usbh_hid.c ****           {
 1001              		.loc 1 480 15
 1002 01c8 3B69     		ldr	r3, [r7, #16]
 1003 01ca 9B7E     		ldrb	r3, [r3, #26]	@ zero_extendqisi2
 1004 01cc 1946     		mov	r1, r3
 1005 01ce 7868     		ldr	r0, [r7, #4]
 1006 01d0 FFF7FEFF 		bl	USBH_ClrFeature
 1007 01d4 0346     		mov	r3, r0
 480:./Libraries/STM32_USB_Host_Library/Class/HID/Src/usbh_hid.c ****           {
 1008              		.loc 1 480 14
 1009 01d6 002B     		cmp	r3, #0
 1010 01d8 05D1     		bne	.L59
 483:./Libraries/STM32_USB_Host_Library/Class/HID/Src/usbh_hid.c ****           }
 1011              		.loc 1 483 31
 1012 01da 3B69     		ldr	r3, [r7, #16]
 1013 01dc 0422     		movs	r2, #4
 1014 01de 9A70     		strb	r2, [r3, #2]
 1015              		.loc 1 487 7
 1016 01e0 01E0     		b	.L59
 1017              	.L58:
 488:./Libraries/STM32_USB_Host_Library/Class/HID/Src/usbh_hid.c **** 
 489:./Libraries/STM32_USB_Host_Library/Class/HID/Src/usbh_hid.c ****     default:
 490:./Libraries/STM32_USB_Host_Library/Class/HID/Src/usbh_hid.c ****       break;
 1018              		.loc 1 490 7
 1019 01e2 00BF     		nop
 1020 01e4 00E0     		b	.L49
 1021              	.L59:
 487:./Libraries/STM32_USB_Host_Library/Class/HID/Src/usbh_hid.c **** 
 1022              		.loc 1 487 7
 1023 01e6 00BF     		nop
 1024              	.L49:
 491:./Libraries/STM32_USB_Host_Library/Class/HID/Src/usbh_hid.c ****   }
 492:./Libraries/STM32_USB_Host_Library/Class/HID/Src/usbh_hid.c **** 
 493:./Libraries/STM32_USB_Host_Library/Class/HID/Src/usbh_hid.c ****   return status;
 1025              		.loc 1 493 10
 1026 01e8 FB7D     		ldrb	r3, [r7, #23]	@ zero_extendqisi2
 494:./Libraries/STM32_USB_Host_Library/Class/HID/Src/usbh_hid.c **** }
 1027              		.loc 1 494 1
 1028 01ea 1846     		mov	r0, r3
 1029 01ec 1837     		adds	r7, r7, #24
 1030              	.LCFI18:
 1031              		.cfi_def_cfa_offset 8
 1032 01ee BD46     		mov	sp, r7
 1033              	.LCFI19:
 1034              		.cfi_def_cfa_register 13
 1035              		@ sp needed
 1036 01f0 80BD     		pop	{r7, pc}
ARM GAS  /tmp/ccM6gtS8.s 			page 28


 1037              		.cfi_endproc
 1038              	.LFE341:
 1040 01f2 00BF     		.section	.text.USBH_HID_SOFProcess,"ax",%progbits
 1041              		.align	1
 1042              		.syntax unified
 1043              		.thumb
 1044              		.thumb_func
 1045              		.fpu fpv5-d16
 1047              	USBH_HID_SOFProcess:
 1048              	.LFB342:
 495:./Libraries/STM32_USB_Host_Library/Class/HID/Src/usbh_hid.c **** 
 496:./Libraries/STM32_USB_Host_Library/Class/HID/Src/usbh_hid.c **** /**
 497:./Libraries/STM32_USB_Host_Library/Class/HID/Src/usbh_hid.c ****   * @brief  USBH_HID_SOFProcess
 498:./Libraries/STM32_USB_Host_Library/Class/HID/Src/usbh_hid.c ****   *         The function is for managing the SOF Process
 499:./Libraries/STM32_USB_Host_Library/Class/HID/Src/usbh_hid.c ****   * @param  phost: Host handle
 500:./Libraries/STM32_USB_Host_Library/Class/HID/Src/usbh_hid.c ****   * @retval USBH Status
 501:./Libraries/STM32_USB_Host_Library/Class/HID/Src/usbh_hid.c ****   */
 502:./Libraries/STM32_USB_Host_Library/Class/HID/Src/usbh_hid.c **** static USBH_StatusTypeDef USBH_HID_SOFProcess(USBH_HandleTypeDef *phost)
 503:./Libraries/STM32_USB_Host_Library/Class/HID/Src/usbh_hid.c **** {
 1049              		.loc 1 503 1
 1050              		.cfi_startproc
 1051              		@ args = 0, pretend = 0, frame = 16
 1052              		@ frame_needed = 1, uses_anonymous_args = 0
 1053 0000 80B5     		push	{r7, lr}
 1054              	.LCFI20:
 1055              		.cfi_def_cfa_offset 8
 1056              		.cfi_offset 7, -8
 1057              		.cfi_offset 14, -4
 1058 0002 84B0     		sub	sp, sp, #16
 1059              	.LCFI21:
 1060              		.cfi_def_cfa_offset 24
 1061 0004 00AF     		add	r7, sp, #0
 1062              	.LCFI22:
 1063              		.cfi_def_cfa_register 7
 1064 0006 7860     		str	r0, [r7, #4]
 504:./Libraries/STM32_USB_Host_Library/Class/HID/Src/usbh_hid.c ****   HID_HandleTypeDef *HID_Handle = (HID_HandleTypeDef *) phost->pActiveClass->pData;
 1065              		.loc 1 504 62
 1066 0008 7B68     		ldr	r3, [r7, #4]
 1067 000a D3F87C34 		ldr	r3, [r3, #1148]
 1068              		.loc 1 504 22
 1069 000e DB69     		ldr	r3, [r3, #28]
 1070 0010 FB60     		str	r3, [r7, #12]
 505:./Libraries/STM32_USB_Host_Library/Class/HID/Src/usbh_hid.c **** 
 506:./Libraries/STM32_USB_Host_Library/Class/HID/Src/usbh_hid.c ****   if (HID_Handle->state == HID_POLL)
 1071              		.loc 1 506 17
 1072 0012 FB68     		ldr	r3, [r7, #12]
 1073 0014 9B78     		ldrb	r3, [r3, #2]	@ zero_extendqisi2
 1074              		.loc 1 506 6
 1075 0016 062B     		cmp	r3, #6
 1076 0018 1AD1     		bne	.L61
 507:./Libraries/STM32_USB_Host_Library/Class/HID/Src/usbh_hid.c ****   {
 508:./Libraries/STM32_USB_Host_Library/Class/HID/Src/usbh_hid.c ****     if ((phost->Timer - HID_Handle->timer) >= HID_Handle->poll)
 1077              		.loc 1 508 15
 1078 001a 7B68     		ldr	r3, [r7, #4]
 1079 001c D3F8C424 		ldr	r2, [r3, #1220]
 1080              		.loc 1 508 35
 1081 0020 FB68     		ldr	r3, [r7, #12]
ARM GAS  /tmp/ccM6gtS8.s 			page 29


 1082 0022 1B6A     		ldr	r3, [r3, #32]
 1083              		.loc 1 508 23
 1084 0024 D31A     		subs	r3, r2, r3
 1085              		.loc 1 508 57
 1086 0026 FA68     		ldr	r2, [r7, #12]
 1087 0028 928B     		ldrh	r2, [r2, #28]
 1088              		.loc 1 508 8
 1089 002a 9342     		cmp	r3, r2
 1090 002c 10D3     		bcc	.L61
 509:./Libraries/STM32_USB_Host_Library/Class/HID/Src/usbh_hid.c ****     {
 510:./Libraries/STM32_USB_Host_Library/Class/HID/Src/usbh_hid.c ****       HID_Handle->state = HID_GET_DATA;
 1091              		.loc 1 510 25
 1092 002e FB68     		ldr	r3, [r7, #12]
 1093 0030 0422     		movs	r2, #4
 1094 0032 9A70     		strb	r2, [r3, #2]
 511:./Libraries/STM32_USB_Host_Library/Class/HID/Src/usbh_hid.c **** 
 512:./Libraries/STM32_USB_Host_Library/Class/HID/Src/usbh_hid.c **** #if (USBH_USE_OS == 1U)
 513:./Libraries/STM32_USB_Host_Library/Class/HID/Src/usbh_hid.c ****       phost->os_msg = (uint32_t)USBH_URB_EVENT;
 1095              		.loc 1 513 21
 1096 0034 7B68     		ldr	r3, [r7, #4]
 1097 0036 0222     		movs	r2, #2
 1098 0038 C3F8E024 		str	r2, [r3, #1248]
 514:./Libraries/STM32_USB_Host_Library/Class/HID/Src/usbh_hid.c **** #if (osCMSIS < 0x20000U)
 515:./Libraries/STM32_USB_Host_Library/Class/HID/Src/usbh_hid.c ****       (void)osMessagePut(phost->os_event, phost->os_msg, 0U);
 516:./Libraries/STM32_USB_Host_Library/Class/HID/Src/usbh_hid.c **** #else
 517:./Libraries/STM32_USB_Host_Library/Class/HID/Src/usbh_hid.c ****       (void)osMessageQueuePut(phost->os_event, &phost->os_msg, 0U, NULL);
 1099              		.loc 1 517 13
 1100 003c 7B68     		ldr	r3, [r7, #4]
 1101 003e D3F8D804 		ldr	r0, [r3, #1240]
 1102              		.loc 1 517 48
 1103 0042 7B68     		ldr	r3, [r7, #4]
 1104 0044 03F59C61 		add	r1, r3, #1248
 1105              		.loc 1 517 13
 1106 0048 0023     		movs	r3, #0
 1107 004a 0022     		movs	r2, #0
 1108 004c FFF7FEFF 		bl	osMessageQueuePut
 1109              	.L61:
 518:./Libraries/STM32_USB_Host_Library/Class/HID/Src/usbh_hid.c **** #endif
 519:./Libraries/STM32_USB_Host_Library/Class/HID/Src/usbh_hid.c **** #endif
 520:./Libraries/STM32_USB_Host_Library/Class/HID/Src/usbh_hid.c ****     }
 521:./Libraries/STM32_USB_Host_Library/Class/HID/Src/usbh_hid.c ****   }
 522:./Libraries/STM32_USB_Host_Library/Class/HID/Src/usbh_hid.c ****   return USBH_OK;
 1110              		.loc 1 522 10
 1111 0050 0023     		movs	r3, #0
 523:./Libraries/STM32_USB_Host_Library/Class/HID/Src/usbh_hid.c **** }
 1112              		.loc 1 523 1
 1113 0052 1846     		mov	r0, r3
 1114 0054 1037     		adds	r7, r7, #16
 1115              	.LCFI23:
 1116              		.cfi_def_cfa_offset 8
 1117 0056 BD46     		mov	sp, r7
 1118              	.LCFI24:
 1119              		.cfi_def_cfa_register 13
 1120              		@ sp needed
 1121 0058 80BD     		pop	{r7, pc}
 1122              		.cfi_endproc
 1123              	.LFE342:
ARM GAS  /tmp/ccM6gtS8.s 			page 30


 1125              		.section	.text.USBH_HID_GetHIDReportDescriptor,"ax",%progbits
 1126              		.align	1
 1127              		.global	USBH_HID_GetHIDReportDescriptor
 1128              		.syntax unified
 1129              		.thumb
 1130              		.thumb_func
 1131              		.fpu fpv5-d16
 1133              	USBH_HID_GetHIDReportDescriptor:
 1134              	.LFB343:
 524:./Libraries/STM32_USB_Host_Library/Class/HID/Src/usbh_hid.c **** 
 525:./Libraries/STM32_USB_Host_Library/Class/HID/Src/usbh_hid.c **** /**
 526:./Libraries/STM32_USB_Host_Library/Class/HID/Src/usbh_hid.c **** * @brief  USBH_Get_HID_ReportDescriptor
 527:./Libraries/STM32_USB_Host_Library/Class/HID/Src/usbh_hid.c ****   *         Issue report Descriptor command to the device. Once the response
 528:./Libraries/STM32_USB_Host_Library/Class/HID/Src/usbh_hid.c ****   *         received, parse the report descriptor and update the status.
 529:./Libraries/STM32_USB_Host_Library/Class/HID/Src/usbh_hid.c ****   * @param  phost: Host handle
 530:./Libraries/STM32_USB_Host_Library/Class/HID/Src/usbh_hid.c ****   * @param  Length : HID Report Descriptor Length
 531:./Libraries/STM32_USB_Host_Library/Class/HID/Src/usbh_hid.c ****   * @retval USBH Status
 532:./Libraries/STM32_USB_Host_Library/Class/HID/Src/usbh_hid.c ****   */
 533:./Libraries/STM32_USB_Host_Library/Class/HID/Src/usbh_hid.c **** USBH_StatusTypeDef USBH_HID_GetHIDReportDescriptor(USBH_HandleTypeDef *phost,
 534:./Libraries/STM32_USB_Host_Library/Class/HID/Src/usbh_hid.c ****                                                    uint16_t length)
 535:./Libraries/STM32_USB_Host_Library/Class/HID/Src/usbh_hid.c **** {
 1135              		.loc 1 535 1
 1136              		.cfi_startproc
 1137              		@ args = 0, pretend = 0, frame = 16
 1138              		@ frame_needed = 1, uses_anonymous_args = 0
 1139 0000 80B5     		push	{r7, lr}
 1140              	.LCFI25:
 1141              		.cfi_def_cfa_offset 8
 1142              		.cfi_offset 7, -8
 1143              		.cfi_offset 14, -4
 1144 0002 86B0     		sub	sp, sp, #24
 1145              	.LCFI26:
 1146              		.cfi_def_cfa_offset 32
 1147 0004 02AF     		add	r7, sp, #8
 1148              	.LCFI27:
 1149              		.cfi_def_cfa 7, 24
 1150 0006 7860     		str	r0, [r7, #4]
 1151 0008 0B46     		mov	r3, r1
 1152 000a 7B80     		strh	r3, [r7, #2]	@ movhi
 536:./Libraries/STM32_USB_Host_Library/Class/HID/Src/usbh_hid.c **** 
 537:./Libraries/STM32_USB_Host_Library/Class/HID/Src/usbh_hid.c ****   USBH_StatusTypeDef status;
 538:./Libraries/STM32_USB_Host_Library/Class/HID/Src/usbh_hid.c **** 
 539:./Libraries/STM32_USB_Host_Library/Class/HID/Src/usbh_hid.c ****   status = USBH_GetDescriptor(phost,
 540:./Libraries/STM32_USB_Host_Library/Class/HID/Src/usbh_hid.c ****                               USB_REQ_RECIPIENT_INTERFACE | USB_REQ_TYPE_STANDARD,
 541:./Libraries/STM32_USB_Host_Library/Class/HID/Src/usbh_hid.c ****                               USB_DESC_HID_REPORT,
 542:./Libraries/STM32_USB_Host_Library/Class/HID/Src/usbh_hid.c ****                               phost->device.Data,
 1153              		.loc 1 542 44
 1154 000c 7B68     		ldr	r3, [r7, #4]
 1155 000e 03F50772 		add	r2, r3, #540
 539:./Libraries/STM32_USB_Host_Library/Class/HID/Src/usbh_hid.c ****                               USB_REQ_RECIPIENT_INTERFACE | USB_REQ_TYPE_STANDARD,
 1156              		.loc 1 539 12
 1157 0012 7B88     		ldrh	r3, [r7, #2]
 1158 0014 0093     		str	r3, [sp]
 1159 0016 1346     		mov	r3, r2
 1160 0018 4FF40852 		mov	r2, #8704
 1161 001c 0121     		movs	r1, #1
 1162 001e 7868     		ldr	r0, [r7, #4]
ARM GAS  /tmp/ccM6gtS8.s 			page 31


 1163 0020 FFF7FEFF 		bl	USBH_GetDescriptor
 1164 0024 0346     		mov	r3, r0
 1165 0026 FB73     		strb	r3, [r7, #15]
 543:./Libraries/STM32_USB_Host_Library/Class/HID/Src/usbh_hid.c ****                               length);
 544:./Libraries/STM32_USB_Host_Library/Class/HID/Src/usbh_hid.c **** 
 545:./Libraries/STM32_USB_Host_Library/Class/HID/Src/usbh_hid.c ****   /* HID report descriptor is available in phost->device.Data.
 546:./Libraries/STM32_USB_Host_Library/Class/HID/Src/usbh_hid.c ****   In case of USB Boot Mode devices for In report handling ,
 547:./Libraries/STM32_USB_Host_Library/Class/HID/Src/usbh_hid.c ****   HID report descriptor parsing is not required.
 548:./Libraries/STM32_USB_Host_Library/Class/HID/Src/usbh_hid.c ****   In case, for supporting Non-Boot Protocol devices and output reports,
 549:./Libraries/STM32_USB_Host_Library/Class/HID/Src/usbh_hid.c ****   user may parse the report descriptor*/
 550:./Libraries/STM32_USB_Host_Library/Class/HID/Src/usbh_hid.c **** 
 551:./Libraries/STM32_USB_Host_Library/Class/HID/Src/usbh_hid.c **** 
 552:./Libraries/STM32_USB_Host_Library/Class/HID/Src/usbh_hid.c ****   return status;
 1166              		.loc 1 552 10
 1167 0028 FB7B     		ldrb	r3, [r7, #15]	@ zero_extendqisi2
 553:./Libraries/STM32_USB_Host_Library/Class/HID/Src/usbh_hid.c **** }
 1168              		.loc 1 553 1
 1169 002a 1846     		mov	r0, r3
 1170 002c 1037     		adds	r7, r7, #16
 1171              	.LCFI28:
 1172              		.cfi_def_cfa_offset 8
 1173 002e BD46     		mov	sp, r7
 1174              	.LCFI29:
 1175              		.cfi_def_cfa_register 13
 1176              		@ sp needed
 1177 0030 80BD     		pop	{r7, pc}
 1178              		.cfi_endproc
 1179              	.LFE343:
 1181              		.section	.text.USBH_HID_GetHIDDescriptor,"ax",%progbits
 1182              		.align	1
 1183              		.global	USBH_HID_GetHIDDescriptor
 1184              		.syntax unified
 1185              		.thumb
 1186              		.thumb_func
 1187              		.fpu fpv5-d16
 1189              	USBH_HID_GetHIDDescriptor:
 1190              	.LFB344:
 554:./Libraries/STM32_USB_Host_Library/Class/HID/Src/usbh_hid.c **** 
 555:./Libraries/STM32_USB_Host_Library/Class/HID/Src/usbh_hid.c **** /**
 556:./Libraries/STM32_USB_Host_Library/Class/HID/Src/usbh_hid.c ****   * @brief  USBH_Get_HID_Descriptor
 557:./Libraries/STM32_USB_Host_Library/Class/HID/Src/usbh_hid.c ****   *         Issue HID Descriptor command to the device. Once the response
 558:./Libraries/STM32_USB_Host_Library/Class/HID/Src/usbh_hid.c ****   *         received, parse the report descriptor and update the status.
 559:./Libraries/STM32_USB_Host_Library/Class/HID/Src/usbh_hid.c ****   * @param  phost: Host handle
 560:./Libraries/STM32_USB_Host_Library/Class/HID/Src/usbh_hid.c ****   * @param  Length : HID Descriptor Length
 561:./Libraries/STM32_USB_Host_Library/Class/HID/Src/usbh_hid.c ****   * @retval USBH Status
 562:./Libraries/STM32_USB_Host_Library/Class/HID/Src/usbh_hid.c ****   */
 563:./Libraries/STM32_USB_Host_Library/Class/HID/Src/usbh_hid.c **** USBH_StatusTypeDef USBH_HID_GetHIDDescriptor(USBH_HandleTypeDef *phost,
 564:./Libraries/STM32_USB_Host_Library/Class/HID/Src/usbh_hid.c ****                                              uint16_t length)
 565:./Libraries/STM32_USB_Host_Library/Class/HID/Src/usbh_hid.c **** {
 1191              		.loc 1 565 1
 1192              		.cfi_startproc
 1193              		@ args = 0, pretend = 0, frame = 16
 1194              		@ frame_needed = 1, uses_anonymous_args = 0
 1195 0000 80B5     		push	{r7, lr}
 1196              	.LCFI30:
 1197              		.cfi_def_cfa_offset 8
 1198              		.cfi_offset 7, -8
ARM GAS  /tmp/ccM6gtS8.s 			page 32


 1199              		.cfi_offset 14, -4
 1200 0002 86B0     		sub	sp, sp, #24
 1201              	.LCFI31:
 1202              		.cfi_def_cfa_offset 32
 1203 0004 02AF     		add	r7, sp, #8
 1204              	.LCFI32:
 1205              		.cfi_def_cfa 7, 24
 1206 0006 7860     		str	r0, [r7, #4]
 1207 0008 0B46     		mov	r3, r1
 1208 000a 7B80     		strh	r3, [r7, #2]	@ movhi
 566:./Libraries/STM32_USB_Host_Library/Class/HID/Src/usbh_hid.c ****   USBH_StatusTypeDef status;
 567:./Libraries/STM32_USB_Host_Library/Class/HID/Src/usbh_hid.c **** 
 568:./Libraries/STM32_USB_Host_Library/Class/HID/Src/usbh_hid.c ****   status = USBH_GetDescriptor(phost,
 569:./Libraries/STM32_USB_Host_Library/Class/HID/Src/usbh_hid.c ****                               USB_REQ_RECIPIENT_INTERFACE | USB_REQ_TYPE_STANDARD,
 570:./Libraries/STM32_USB_Host_Library/Class/HID/Src/usbh_hid.c ****                               USB_DESC_HID,
 571:./Libraries/STM32_USB_Host_Library/Class/HID/Src/usbh_hid.c ****                               phost->device.Data,
 1209              		.loc 1 571 44
 1210 000c 7B68     		ldr	r3, [r7, #4]
 1211 000e 03F50772 		add	r2, r3, #540
 568:./Libraries/STM32_USB_Host_Library/Class/HID/Src/usbh_hid.c ****                               USB_REQ_RECIPIENT_INTERFACE | USB_REQ_TYPE_STANDARD,
 1212              		.loc 1 568 12
 1213 0012 7B88     		ldrh	r3, [r7, #2]
 1214 0014 0093     		str	r3, [sp]
 1215 0016 1346     		mov	r3, r2
 1216 0018 4FF40452 		mov	r2, #8448
 1217 001c 0121     		movs	r1, #1
 1218 001e 7868     		ldr	r0, [r7, #4]
 1219 0020 FFF7FEFF 		bl	USBH_GetDescriptor
 1220 0024 0346     		mov	r3, r0
 1221 0026 FB73     		strb	r3, [r7, #15]
 572:./Libraries/STM32_USB_Host_Library/Class/HID/Src/usbh_hid.c ****                               length);
 573:./Libraries/STM32_USB_Host_Library/Class/HID/Src/usbh_hid.c **** 
 574:./Libraries/STM32_USB_Host_Library/Class/HID/Src/usbh_hid.c ****   return status;
 1222              		.loc 1 574 10
 1223 0028 FB7B     		ldrb	r3, [r7, #15]	@ zero_extendqisi2
 575:./Libraries/STM32_USB_Host_Library/Class/HID/Src/usbh_hid.c **** }
 1224              		.loc 1 575 1
 1225 002a 1846     		mov	r0, r3
 1226 002c 1037     		adds	r7, r7, #16
 1227              	.LCFI33:
 1228              		.cfi_def_cfa_offset 8
 1229 002e BD46     		mov	sp, r7
 1230              	.LCFI34:
 1231              		.cfi_def_cfa_register 13
 1232              		@ sp needed
 1233 0030 80BD     		pop	{r7, pc}
 1234              		.cfi_endproc
 1235              	.LFE344:
 1237              		.section	.text.USBH_HID_SetIdle,"ax",%progbits
 1238              		.align	1
 1239              		.global	USBH_HID_SetIdle
 1240              		.syntax unified
 1241              		.thumb
 1242              		.thumb_func
 1243              		.fpu fpv5-d16
 1245              	USBH_HID_SetIdle:
 1246              	.LFB345:
ARM GAS  /tmp/ccM6gtS8.s 			page 33


 576:./Libraries/STM32_USB_Host_Library/Class/HID/Src/usbh_hid.c **** 
 577:./Libraries/STM32_USB_Host_Library/Class/HID/Src/usbh_hid.c **** /**
 578:./Libraries/STM32_USB_Host_Library/Class/HID/Src/usbh_hid.c ****   * @brief  USBH_Set_Idle
 579:./Libraries/STM32_USB_Host_Library/Class/HID/Src/usbh_hid.c ****   *         Set Idle State.
 580:./Libraries/STM32_USB_Host_Library/Class/HID/Src/usbh_hid.c ****   * @param  phost: Host handle
 581:./Libraries/STM32_USB_Host_Library/Class/HID/Src/usbh_hid.c ****   * @param  duration: Duration for HID Idle request
 582:./Libraries/STM32_USB_Host_Library/Class/HID/Src/usbh_hid.c ****   * @param  reportId : Targeted report ID for Set Idle request
 583:./Libraries/STM32_USB_Host_Library/Class/HID/Src/usbh_hid.c ****   * @retval USBH Status
 584:./Libraries/STM32_USB_Host_Library/Class/HID/Src/usbh_hid.c ****   */
 585:./Libraries/STM32_USB_Host_Library/Class/HID/Src/usbh_hid.c **** USBH_StatusTypeDef USBH_HID_SetIdle(USBH_HandleTypeDef *phost,
 586:./Libraries/STM32_USB_Host_Library/Class/HID/Src/usbh_hid.c ****                                     uint8_t duration,
 587:./Libraries/STM32_USB_Host_Library/Class/HID/Src/usbh_hid.c ****                                     uint8_t reportId)
 588:./Libraries/STM32_USB_Host_Library/Class/HID/Src/usbh_hid.c **** {
 1247              		.loc 1 588 1
 1248              		.cfi_startproc
 1249              		@ args = 0, pretend = 0, frame = 8
 1250              		@ frame_needed = 1, uses_anonymous_args = 0
 1251 0000 80B5     		push	{r7, lr}
 1252              	.LCFI35:
 1253              		.cfi_def_cfa_offset 8
 1254              		.cfi_offset 7, -8
 1255              		.cfi_offset 14, -4
 1256 0002 82B0     		sub	sp, sp, #8
 1257              	.LCFI36:
 1258              		.cfi_def_cfa_offset 16
 1259 0004 00AF     		add	r7, sp, #0
 1260              	.LCFI37:
 1261              		.cfi_def_cfa_register 7
 1262 0006 7860     		str	r0, [r7, #4]
 1263 0008 0B46     		mov	r3, r1
 1264 000a FB70     		strb	r3, [r7, #3]
 1265 000c 1346     		mov	r3, r2
 1266 000e BB70     		strb	r3, [r7, #2]
 589:./Libraries/STM32_USB_Host_Library/Class/HID/Src/usbh_hid.c **** 
 590:./Libraries/STM32_USB_Host_Library/Class/HID/Src/usbh_hid.c ****   phost->Control.setup.b.bmRequestType = USB_H2D | USB_REQ_RECIPIENT_INTERFACE | \
 1267              		.loc 1 590 40
 1268 0010 7B68     		ldr	r3, [r7, #4]
 1269 0012 2122     		movs	r2, #33
 1270 0014 1A74     		strb	r2, [r3, #16]
 591:./Libraries/STM32_USB_Host_Library/Class/HID/Src/usbh_hid.c ****                                          USB_REQ_TYPE_CLASS;
 592:./Libraries/STM32_USB_Host_Library/Class/HID/Src/usbh_hid.c **** 
 593:./Libraries/STM32_USB_Host_Library/Class/HID/Src/usbh_hid.c **** 
 594:./Libraries/STM32_USB_Host_Library/Class/HID/Src/usbh_hid.c ****   phost->Control.setup.b.bRequest = USB_HID_SET_IDLE;
 1271              		.loc 1 594 35
 1272 0016 7B68     		ldr	r3, [r7, #4]
 1273 0018 0A22     		movs	r2, #10
 1274 001a 5A74     		strb	r2, [r3, #17]
 595:./Libraries/STM32_USB_Host_Library/Class/HID/Src/usbh_hid.c ****   phost->Control.setup.b.wValue.w = (uint16_t)(((uint32_t)duration << 8U) | (uint32_t)reportId);
 1275              		.loc 1 595 68
 1276 001c FB78     		ldrb	r3, [r7, #3]	@ zero_extendqisi2
 1277 001e 9BB2     		uxth	r3, r3
 1278 0020 1B02     		lsls	r3, r3, #8
 1279 0022 9AB2     		uxth	r2, r3
 1280              		.loc 1 595 37
 1281 0024 BB78     		ldrb	r3, [r7, #2]	@ zero_extendqisi2
 1282 0026 9BB2     		uxth	r3, r3
 1283 0028 1343     		orrs	r3, r3, r2
ARM GAS  /tmp/ccM6gtS8.s 			page 34


 1284 002a 9AB2     		uxth	r2, r3
 1285              		.loc 1 595 35
 1286 002c 7B68     		ldr	r3, [r7, #4]
 1287 002e 5A82     		strh	r2, [r3, #18]	@ movhi
 596:./Libraries/STM32_USB_Host_Library/Class/HID/Src/usbh_hid.c **** 
 597:./Libraries/STM32_USB_Host_Library/Class/HID/Src/usbh_hid.c ****   phost->Control.setup.b.wIndex.w = 0U;
 1288              		.loc 1 597 35
 1289 0030 7B68     		ldr	r3, [r7, #4]
 1290 0032 0022     		movs	r2, #0
 1291 0034 9A82     		strh	r2, [r3, #20]	@ movhi
 598:./Libraries/STM32_USB_Host_Library/Class/HID/Src/usbh_hid.c ****   phost->Control.setup.b.wLength.w = 0U;
 1292              		.loc 1 598 36
 1293 0036 7B68     		ldr	r3, [r7, #4]
 1294 0038 0022     		movs	r2, #0
 1295 003a DA82     		strh	r2, [r3, #22]	@ movhi
 599:./Libraries/STM32_USB_Host_Library/Class/HID/Src/usbh_hid.c **** 
 600:./Libraries/STM32_USB_Host_Library/Class/HID/Src/usbh_hid.c ****   return USBH_CtlReq(phost, 0U, 0U);
 1296              		.loc 1 600 10
 1297 003c 0022     		movs	r2, #0
 1298 003e 0021     		movs	r1, #0
 1299 0040 7868     		ldr	r0, [r7, #4]
 1300 0042 FFF7FEFF 		bl	USBH_CtlReq
 1301 0046 0346     		mov	r3, r0
 601:./Libraries/STM32_USB_Host_Library/Class/HID/Src/usbh_hid.c **** }
 1302              		.loc 1 601 1
 1303 0048 1846     		mov	r0, r3
 1304 004a 0837     		adds	r7, r7, #8
 1305              	.LCFI38:
 1306              		.cfi_def_cfa_offset 8
 1307 004c BD46     		mov	sp, r7
 1308              	.LCFI39:
 1309              		.cfi_def_cfa_register 13
 1310              		@ sp needed
 1311 004e 80BD     		pop	{r7, pc}
 1312              		.cfi_endproc
 1313              	.LFE345:
 1315              		.section	.text.USBH_HID_SetReport,"ax",%progbits
 1316              		.align	1
 1317              		.global	USBH_HID_SetReport
 1318              		.syntax unified
 1319              		.thumb
 1320              		.thumb_func
 1321              		.fpu fpv5-d16
 1323              	USBH_HID_SetReport:
 1324              	.LFB346:
 602:./Libraries/STM32_USB_Host_Library/Class/HID/Src/usbh_hid.c **** 
 603:./Libraries/STM32_USB_Host_Library/Class/HID/Src/usbh_hid.c **** 
 604:./Libraries/STM32_USB_Host_Library/Class/HID/Src/usbh_hid.c **** /**
 605:./Libraries/STM32_USB_Host_Library/Class/HID/Src/usbh_hid.c ****   * @brief  USBH_HID_Set_Report
 606:./Libraries/STM32_USB_Host_Library/Class/HID/Src/usbh_hid.c ****   *         Issues Set Report
 607:./Libraries/STM32_USB_Host_Library/Class/HID/Src/usbh_hid.c ****   * @param  phost: Host handle
 608:./Libraries/STM32_USB_Host_Library/Class/HID/Src/usbh_hid.c ****   * @param  reportType  : Report type to be sent
 609:./Libraries/STM32_USB_Host_Library/Class/HID/Src/usbh_hid.c ****   * @param  reportId    : Targeted report ID for Set Report request
 610:./Libraries/STM32_USB_Host_Library/Class/HID/Src/usbh_hid.c ****   * @param  reportBuff  : Report Buffer
 611:./Libraries/STM32_USB_Host_Library/Class/HID/Src/usbh_hid.c ****   * @param  reportLen   : Length of data report to be send
 612:./Libraries/STM32_USB_Host_Library/Class/HID/Src/usbh_hid.c ****   * @retval USBH Status
 613:./Libraries/STM32_USB_Host_Library/Class/HID/Src/usbh_hid.c ****   */
ARM GAS  /tmp/ccM6gtS8.s 			page 35


 614:./Libraries/STM32_USB_Host_Library/Class/HID/Src/usbh_hid.c **** USBH_StatusTypeDef USBH_HID_SetReport(USBH_HandleTypeDef *phost,
 615:./Libraries/STM32_USB_Host_Library/Class/HID/Src/usbh_hid.c ****                                       uint8_t reportType,
 616:./Libraries/STM32_USB_Host_Library/Class/HID/Src/usbh_hid.c ****                                       uint8_t reportId,
 617:./Libraries/STM32_USB_Host_Library/Class/HID/Src/usbh_hid.c ****                                       uint8_t *reportBuff,
 618:./Libraries/STM32_USB_Host_Library/Class/HID/Src/usbh_hid.c ****                                       uint8_t reportLen)
 619:./Libraries/STM32_USB_Host_Library/Class/HID/Src/usbh_hid.c **** {
 1325              		.loc 1 619 1
 1326              		.cfi_startproc
 1327              		@ args = 4, pretend = 0, frame = 16
 1328              		@ frame_needed = 1, uses_anonymous_args = 0
 1329 0000 80B5     		push	{r7, lr}
 1330              	.LCFI40:
 1331              		.cfi_def_cfa_offset 8
 1332              		.cfi_offset 7, -8
 1333              		.cfi_offset 14, -4
 1334 0002 84B0     		sub	sp, sp, #16
 1335              	.LCFI41:
 1336              		.cfi_def_cfa_offset 24
 1337 0004 00AF     		add	r7, sp, #0
 1338              	.LCFI42:
 1339              		.cfi_def_cfa_register 7
 1340 0006 F860     		str	r0, [r7, #12]
 1341 0008 7B60     		str	r3, [r7, #4]
 1342 000a 0B46     		mov	r3, r1
 1343 000c FB72     		strb	r3, [r7, #11]
 1344 000e 1346     		mov	r3, r2
 1345 0010 BB72     		strb	r3, [r7, #10]
 620:./Libraries/STM32_USB_Host_Library/Class/HID/Src/usbh_hid.c **** 
 621:./Libraries/STM32_USB_Host_Library/Class/HID/Src/usbh_hid.c ****   phost->Control.setup.b.bmRequestType = USB_H2D | USB_REQ_RECIPIENT_INTERFACE | \
 1346              		.loc 1 621 40
 1347 0012 FB68     		ldr	r3, [r7, #12]
 1348 0014 2122     		movs	r2, #33
 1349 0016 1A74     		strb	r2, [r3, #16]
 622:./Libraries/STM32_USB_Host_Library/Class/HID/Src/usbh_hid.c ****                                          USB_REQ_TYPE_CLASS;
 623:./Libraries/STM32_USB_Host_Library/Class/HID/Src/usbh_hid.c **** 
 624:./Libraries/STM32_USB_Host_Library/Class/HID/Src/usbh_hid.c **** 
 625:./Libraries/STM32_USB_Host_Library/Class/HID/Src/usbh_hid.c ****   phost->Control.setup.b.bRequest = USB_HID_SET_REPORT;
 1350              		.loc 1 625 35
 1351 0018 FB68     		ldr	r3, [r7, #12]
 1352 001a 0922     		movs	r2, #9
 1353 001c 5A74     		strb	r2, [r3, #17]
 626:./Libraries/STM32_USB_Host_Library/Class/HID/Src/usbh_hid.c ****   phost->Control.setup.b.wValue.w = (uint16_t)(((uint32_t)reportType << 8U) | (uint32_t)reportId);
 1354              		.loc 1 626 70
 1355 001e FB7A     		ldrb	r3, [r7, #11]	@ zero_extendqisi2
 1356 0020 9BB2     		uxth	r3, r3
 1357 0022 1B02     		lsls	r3, r3, #8
 1358 0024 9AB2     		uxth	r2, r3
 1359              		.loc 1 626 37
 1360 0026 BB7A     		ldrb	r3, [r7, #10]	@ zero_extendqisi2
 1361 0028 9BB2     		uxth	r3, r3
 1362 002a 1343     		orrs	r3, r3, r2
 1363 002c 9AB2     		uxth	r2, r3
 1364              		.loc 1 626 35
 1365 002e FB68     		ldr	r3, [r7, #12]
 1366 0030 5A82     		strh	r2, [r3, #18]	@ movhi
 627:./Libraries/STM32_USB_Host_Library/Class/HID/Src/usbh_hid.c **** 
 628:./Libraries/STM32_USB_Host_Library/Class/HID/Src/usbh_hid.c ****   phost->Control.setup.b.wIndex.w = 0U;
ARM GAS  /tmp/ccM6gtS8.s 			page 36


 1367              		.loc 1 628 35
 1368 0032 FB68     		ldr	r3, [r7, #12]
 1369 0034 0022     		movs	r2, #0
 1370 0036 9A82     		strh	r2, [r3, #20]	@ movhi
 629:./Libraries/STM32_USB_Host_Library/Class/HID/Src/usbh_hid.c ****   phost->Control.setup.b.wLength.w = reportLen;
 1371              		.loc 1 629 36
 1372 0038 3B7E     		ldrb	r3, [r7, #24]	@ zero_extendqisi2
 1373 003a 9AB2     		uxth	r2, r3
 1374 003c FB68     		ldr	r3, [r7, #12]
 1375 003e DA82     		strh	r2, [r3, #22]	@ movhi
 630:./Libraries/STM32_USB_Host_Library/Class/HID/Src/usbh_hid.c **** 
 631:./Libraries/STM32_USB_Host_Library/Class/HID/Src/usbh_hid.c ****   return USBH_CtlReq(phost, reportBuff, (uint16_t)reportLen);
 1376              		.loc 1 631 10
 1377 0040 3B7E     		ldrb	r3, [r7, #24]	@ zero_extendqisi2
 1378 0042 9BB2     		uxth	r3, r3
 1379 0044 1A46     		mov	r2, r3
 1380 0046 7968     		ldr	r1, [r7, #4]
 1381 0048 F868     		ldr	r0, [r7, #12]
 1382 004a FFF7FEFF 		bl	USBH_CtlReq
 1383 004e 0346     		mov	r3, r0
 632:./Libraries/STM32_USB_Host_Library/Class/HID/Src/usbh_hid.c **** }
 1384              		.loc 1 632 1
 1385 0050 1846     		mov	r0, r3
 1386 0052 1037     		adds	r7, r7, #16
 1387              	.LCFI43:
 1388              		.cfi_def_cfa_offset 8
 1389 0054 BD46     		mov	sp, r7
 1390              	.LCFI44:
 1391              		.cfi_def_cfa_register 13
 1392              		@ sp needed
 1393 0056 80BD     		pop	{r7, pc}
 1394              		.cfi_endproc
 1395              	.LFE346:
 1397              		.section	.text.USBH_HID_GetReport,"ax",%progbits
 1398              		.align	1
 1399              		.global	USBH_HID_GetReport
 1400              		.syntax unified
 1401              		.thumb
 1402              		.thumb_func
 1403              		.fpu fpv5-d16
 1405              	USBH_HID_GetReport:
 1406              	.LFB347:
 633:./Libraries/STM32_USB_Host_Library/Class/HID/Src/usbh_hid.c **** 
 634:./Libraries/STM32_USB_Host_Library/Class/HID/Src/usbh_hid.c **** 
 635:./Libraries/STM32_USB_Host_Library/Class/HID/Src/usbh_hid.c **** /**
 636:./Libraries/STM32_USB_Host_Library/Class/HID/Src/usbh_hid.c ****   * @brief  USBH_HID_GetReport
 637:./Libraries/STM32_USB_Host_Library/Class/HID/Src/usbh_hid.c ****   *         retreive Set Report
 638:./Libraries/STM32_USB_Host_Library/Class/HID/Src/usbh_hid.c ****   * @param  phost: Host handle
 639:./Libraries/STM32_USB_Host_Library/Class/HID/Src/usbh_hid.c ****   * @param  reportType  : Report type to be sent
 640:./Libraries/STM32_USB_Host_Library/Class/HID/Src/usbh_hid.c ****   * @param  reportId    : Targeted report ID for Set Report request
 641:./Libraries/STM32_USB_Host_Library/Class/HID/Src/usbh_hid.c ****   * @param  reportBuff  : Report Buffer
 642:./Libraries/STM32_USB_Host_Library/Class/HID/Src/usbh_hid.c ****   * @param  reportLen   : Length of data report to be send
 643:./Libraries/STM32_USB_Host_Library/Class/HID/Src/usbh_hid.c ****   * @retval USBH Status
 644:./Libraries/STM32_USB_Host_Library/Class/HID/Src/usbh_hid.c ****   */
 645:./Libraries/STM32_USB_Host_Library/Class/HID/Src/usbh_hid.c **** USBH_StatusTypeDef USBH_HID_GetReport(USBH_HandleTypeDef *phost,
 646:./Libraries/STM32_USB_Host_Library/Class/HID/Src/usbh_hid.c ****                                       uint8_t reportType,
 647:./Libraries/STM32_USB_Host_Library/Class/HID/Src/usbh_hid.c ****                                       uint8_t reportId,
ARM GAS  /tmp/ccM6gtS8.s 			page 37


 648:./Libraries/STM32_USB_Host_Library/Class/HID/Src/usbh_hid.c ****                                       uint8_t *reportBuff,
 649:./Libraries/STM32_USB_Host_Library/Class/HID/Src/usbh_hid.c ****                                       uint8_t reportLen)
 650:./Libraries/STM32_USB_Host_Library/Class/HID/Src/usbh_hid.c **** {
 1407              		.loc 1 650 1
 1408              		.cfi_startproc
 1409              		@ args = 4, pretend = 0, frame = 16
 1410              		@ frame_needed = 1, uses_anonymous_args = 0
 1411 0000 80B5     		push	{r7, lr}
 1412              	.LCFI45:
 1413              		.cfi_def_cfa_offset 8
 1414              		.cfi_offset 7, -8
 1415              		.cfi_offset 14, -4
 1416 0002 84B0     		sub	sp, sp, #16
 1417              	.LCFI46:
 1418              		.cfi_def_cfa_offset 24
 1419 0004 00AF     		add	r7, sp, #0
 1420              	.LCFI47:
 1421              		.cfi_def_cfa_register 7
 1422 0006 F860     		str	r0, [r7, #12]
 1423 0008 7B60     		str	r3, [r7, #4]
 1424 000a 0B46     		mov	r3, r1
 1425 000c FB72     		strb	r3, [r7, #11]
 1426 000e 1346     		mov	r3, r2
 1427 0010 BB72     		strb	r3, [r7, #10]
 651:./Libraries/STM32_USB_Host_Library/Class/HID/Src/usbh_hid.c **** 
 652:./Libraries/STM32_USB_Host_Library/Class/HID/Src/usbh_hid.c ****   phost->Control.setup.b.bmRequestType = USB_D2H | USB_REQ_RECIPIENT_INTERFACE | \
 1428              		.loc 1 652 40
 1429 0012 FB68     		ldr	r3, [r7, #12]
 1430 0014 A122     		movs	r2, #161
 1431 0016 1A74     		strb	r2, [r3, #16]
 653:./Libraries/STM32_USB_Host_Library/Class/HID/Src/usbh_hid.c ****                                          USB_REQ_TYPE_CLASS;
 654:./Libraries/STM32_USB_Host_Library/Class/HID/Src/usbh_hid.c **** 
 655:./Libraries/STM32_USB_Host_Library/Class/HID/Src/usbh_hid.c **** 
 656:./Libraries/STM32_USB_Host_Library/Class/HID/Src/usbh_hid.c ****   phost->Control.setup.b.bRequest = USB_HID_GET_REPORT;
 1432              		.loc 1 656 35
 1433 0018 FB68     		ldr	r3, [r7, #12]
 1434 001a 0122     		movs	r2, #1
 1435 001c 5A74     		strb	r2, [r3, #17]
 657:./Libraries/STM32_USB_Host_Library/Class/HID/Src/usbh_hid.c ****   phost->Control.setup.b.wValue.w = (uint16_t)(((uint32_t)reportType << 8U) | (uint32_t)reportId);
 1436              		.loc 1 657 70
 1437 001e FB7A     		ldrb	r3, [r7, #11]	@ zero_extendqisi2
 1438 0020 9BB2     		uxth	r3, r3
 1439 0022 1B02     		lsls	r3, r3, #8
 1440 0024 9AB2     		uxth	r2, r3
 1441              		.loc 1 657 37
 1442 0026 BB7A     		ldrb	r3, [r7, #10]	@ zero_extendqisi2
 1443 0028 9BB2     		uxth	r3, r3
 1444 002a 1343     		orrs	r3, r3, r2
 1445 002c 9AB2     		uxth	r2, r3
 1446              		.loc 1 657 35
 1447 002e FB68     		ldr	r3, [r7, #12]
 1448 0030 5A82     		strh	r2, [r3, #18]	@ movhi
 658:./Libraries/STM32_USB_Host_Library/Class/HID/Src/usbh_hid.c **** 
 659:./Libraries/STM32_USB_Host_Library/Class/HID/Src/usbh_hid.c ****   phost->Control.setup.b.wIndex.w = 0U;
 1449              		.loc 1 659 35
 1450 0032 FB68     		ldr	r3, [r7, #12]
 1451 0034 0022     		movs	r2, #0
ARM GAS  /tmp/ccM6gtS8.s 			page 38


 1452 0036 9A82     		strh	r2, [r3, #20]	@ movhi
 660:./Libraries/STM32_USB_Host_Library/Class/HID/Src/usbh_hid.c ****   phost->Control.setup.b.wLength.w = reportLen;
 1453              		.loc 1 660 36
 1454 0038 3B7E     		ldrb	r3, [r7, #24]	@ zero_extendqisi2
 1455 003a 9AB2     		uxth	r2, r3
 1456 003c FB68     		ldr	r3, [r7, #12]
 1457 003e DA82     		strh	r2, [r3, #22]	@ movhi
 661:./Libraries/STM32_USB_Host_Library/Class/HID/Src/usbh_hid.c **** 
 662:./Libraries/STM32_USB_Host_Library/Class/HID/Src/usbh_hid.c ****   return USBH_CtlReq(phost, reportBuff, (uint16_t)reportLen);
 1458              		.loc 1 662 10
 1459 0040 3B7E     		ldrb	r3, [r7, #24]	@ zero_extendqisi2
 1460 0042 9BB2     		uxth	r3, r3
 1461 0044 1A46     		mov	r2, r3
 1462 0046 7968     		ldr	r1, [r7, #4]
 1463 0048 F868     		ldr	r0, [r7, #12]
 1464 004a FFF7FEFF 		bl	USBH_CtlReq
 1465 004e 0346     		mov	r3, r0
 663:./Libraries/STM32_USB_Host_Library/Class/HID/Src/usbh_hid.c **** }
 1466              		.loc 1 663 1
 1467 0050 1846     		mov	r0, r3
 1468 0052 1037     		adds	r7, r7, #16
 1469              	.LCFI48:
 1470              		.cfi_def_cfa_offset 8
 1471 0054 BD46     		mov	sp, r7
 1472              	.LCFI49:
 1473              		.cfi_def_cfa_register 13
 1474              		@ sp needed
 1475 0056 80BD     		pop	{r7, pc}
 1476              		.cfi_endproc
 1477              	.LFE347:
 1479              		.section	.text.USBH_HID_SetProtocol,"ax",%progbits
 1480              		.align	1
 1481              		.global	USBH_HID_SetProtocol
 1482              		.syntax unified
 1483              		.thumb
 1484              		.thumb_func
 1485              		.fpu fpv5-d16
 1487              	USBH_HID_SetProtocol:
 1488              	.LFB348:
 664:./Libraries/STM32_USB_Host_Library/Class/HID/Src/usbh_hid.c **** 
 665:./Libraries/STM32_USB_Host_Library/Class/HID/Src/usbh_hid.c **** /**
 666:./Libraries/STM32_USB_Host_Library/Class/HID/Src/usbh_hid.c ****   * @brief  USBH_Set_Protocol
 667:./Libraries/STM32_USB_Host_Library/Class/HID/Src/usbh_hid.c ****   *         Set protocol State.
 668:./Libraries/STM32_USB_Host_Library/Class/HID/Src/usbh_hid.c ****   * @param  phost: Host handle
 669:./Libraries/STM32_USB_Host_Library/Class/HID/Src/usbh_hid.c ****   * @param  protocol : Set Protocol for HID : boot/report protocol
 670:./Libraries/STM32_USB_Host_Library/Class/HID/Src/usbh_hid.c ****   * @retval USBH Status
 671:./Libraries/STM32_USB_Host_Library/Class/HID/Src/usbh_hid.c ****   */
 672:./Libraries/STM32_USB_Host_Library/Class/HID/Src/usbh_hid.c **** USBH_StatusTypeDef USBH_HID_SetProtocol(USBH_HandleTypeDef *phost,
 673:./Libraries/STM32_USB_Host_Library/Class/HID/Src/usbh_hid.c ****                                         uint8_t protocol)
 674:./Libraries/STM32_USB_Host_Library/Class/HID/Src/usbh_hid.c **** {
 1489              		.loc 1 674 1
 1490              		.cfi_startproc
 1491              		@ args = 0, pretend = 0, frame = 8
 1492              		@ frame_needed = 1, uses_anonymous_args = 0
 1493 0000 80B5     		push	{r7, lr}
 1494              	.LCFI50:
 1495              		.cfi_def_cfa_offset 8
ARM GAS  /tmp/ccM6gtS8.s 			page 39


 1496              		.cfi_offset 7, -8
 1497              		.cfi_offset 14, -4
 1498 0002 82B0     		sub	sp, sp, #8
 1499              	.LCFI51:
 1500              		.cfi_def_cfa_offset 16
 1501 0004 00AF     		add	r7, sp, #0
 1502              	.LCFI52:
 1503              		.cfi_def_cfa_register 7
 1504 0006 7860     		str	r0, [r7, #4]
 1505 0008 0B46     		mov	r3, r1
 1506 000a FB70     		strb	r3, [r7, #3]
 675:./Libraries/STM32_USB_Host_Library/Class/HID/Src/usbh_hid.c ****   phost->Control.setup.b.bmRequestType = USB_H2D | USB_REQ_RECIPIENT_INTERFACE
 1507              		.loc 1 675 40
 1508 000c 7B68     		ldr	r3, [r7, #4]
 1509 000e 2122     		movs	r2, #33
 1510 0010 1A74     		strb	r2, [r3, #16]
 676:./Libraries/STM32_USB_Host_Library/Class/HID/Src/usbh_hid.c ****                                          | USB_REQ_TYPE_CLASS;
 677:./Libraries/STM32_USB_Host_Library/Class/HID/Src/usbh_hid.c **** 
 678:./Libraries/STM32_USB_Host_Library/Class/HID/Src/usbh_hid.c ****   phost->Control.setup.b.bRequest = USB_HID_SET_PROTOCOL;
 1511              		.loc 1 678 35
 1512 0012 7B68     		ldr	r3, [r7, #4]
 1513 0014 0B22     		movs	r2, #11
 1514 0016 5A74     		strb	r2, [r3, #17]
 679:./Libraries/STM32_USB_Host_Library/Class/HID/Src/usbh_hid.c ****   if (protocol)
 1515              		.loc 1 679 6
 1516 0018 FB78     		ldrb	r3, [r7, #3]	@ zero_extendqisi2
 1517 001a 002B     		cmp	r3, #0
 1518 001c 03D0     		beq	.L74
 680:./Libraries/STM32_USB_Host_Library/Class/HID/Src/usbh_hid.c ****   {
 681:./Libraries/STM32_USB_Host_Library/Class/HID/Src/usbh_hid.c ****     phost->Control.setup.b.wValue.w = 0U;
 1519              		.loc 1 681 37
 1520 001e 7B68     		ldr	r3, [r7, #4]
 1521 0020 0022     		movs	r2, #0
 1522 0022 5A82     		strh	r2, [r3, #18]	@ movhi
 1523 0024 02E0     		b	.L75
 1524              	.L74:
 682:./Libraries/STM32_USB_Host_Library/Class/HID/Src/usbh_hid.c ****   }
 683:./Libraries/STM32_USB_Host_Library/Class/HID/Src/usbh_hid.c ****   else
 684:./Libraries/STM32_USB_Host_Library/Class/HID/Src/usbh_hid.c ****   {
 685:./Libraries/STM32_USB_Host_Library/Class/HID/Src/usbh_hid.c ****     phost->Control.setup.b.wValue.w = 1U;
 1525              		.loc 1 685 37
 1526 0026 7B68     		ldr	r3, [r7, #4]
 1527 0028 0122     		movs	r2, #1
 1528 002a 5A82     		strh	r2, [r3, #18]	@ movhi
 1529              	.L75:
 686:./Libraries/STM32_USB_Host_Library/Class/HID/Src/usbh_hid.c ****   }
 687:./Libraries/STM32_USB_Host_Library/Class/HID/Src/usbh_hid.c **** 
 688:./Libraries/STM32_USB_Host_Library/Class/HID/Src/usbh_hid.c ****   phost->Control.setup.b.wIndex.w = 0U;
 1530              		.loc 1 688 35
 1531 002c 7B68     		ldr	r3, [r7, #4]
 1532 002e 0022     		movs	r2, #0
 1533 0030 9A82     		strh	r2, [r3, #20]	@ movhi
 689:./Libraries/STM32_USB_Host_Library/Class/HID/Src/usbh_hid.c ****   phost->Control.setup.b.wLength.w = 0U;
 1534              		.loc 1 689 36
 1535 0032 7B68     		ldr	r3, [r7, #4]
 1536 0034 0022     		movs	r2, #0
 1537 0036 DA82     		strh	r2, [r3, #22]	@ movhi
ARM GAS  /tmp/ccM6gtS8.s 			page 40


 690:./Libraries/STM32_USB_Host_Library/Class/HID/Src/usbh_hid.c **** 
 691:./Libraries/STM32_USB_Host_Library/Class/HID/Src/usbh_hid.c ****   return USBH_CtlReq(phost, 0U, 0U);
 1538              		.loc 1 691 10
 1539 0038 0022     		movs	r2, #0
 1540 003a 0021     		movs	r1, #0
 1541 003c 7868     		ldr	r0, [r7, #4]
 1542 003e FFF7FEFF 		bl	USBH_CtlReq
 1543 0042 0346     		mov	r3, r0
 692:./Libraries/STM32_USB_Host_Library/Class/HID/Src/usbh_hid.c **** 
 693:./Libraries/STM32_USB_Host_Library/Class/HID/Src/usbh_hid.c **** }
 1544              		.loc 1 693 1
 1545 0044 1846     		mov	r0, r3
 1546 0046 0837     		adds	r7, r7, #8
 1547              	.LCFI53:
 1548              		.cfi_def_cfa_offset 8
 1549 0048 BD46     		mov	sp, r7
 1550              	.LCFI54:
 1551              		.cfi_def_cfa_register 13
 1552              		@ sp needed
 1553 004a 80BD     		pop	{r7, pc}
 1554              		.cfi_endproc
 1555              	.LFE348:
 1557              		.section	.text.USBH_HID_ParseHIDDesc,"ax",%progbits
 1558              		.align	1
 1559              		.syntax unified
 1560              		.thumb
 1561              		.thumb_func
 1562              		.fpu fpv5-d16
 1564              	USBH_HID_ParseHIDDesc:
 1565              	.LFB349:
 694:./Libraries/STM32_USB_Host_Library/Class/HID/Src/usbh_hid.c **** 
 695:./Libraries/STM32_USB_Host_Library/Class/HID/Src/usbh_hid.c **** /**
 696:./Libraries/STM32_USB_Host_Library/Class/HID/Src/usbh_hid.c ****   * @brief  USBH_ParseHIDDesc
 697:./Libraries/STM32_USB_Host_Library/Class/HID/Src/usbh_hid.c ****   *         This function Parse the HID descriptor
 698:./Libraries/STM32_USB_Host_Library/Class/HID/Src/usbh_hid.c ****   * @param  desc: HID Descriptor
 699:./Libraries/STM32_USB_Host_Library/Class/HID/Src/usbh_hid.c ****   * @param  buf: Buffer where the source descriptor is available
 700:./Libraries/STM32_USB_Host_Library/Class/HID/Src/usbh_hid.c ****   * @retval None
 701:./Libraries/STM32_USB_Host_Library/Class/HID/Src/usbh_hid.c ****   */
 702:./Libraries/STM32_USB_Host_Library/Class/HID/Src/usbh_hid.c **** static void  USBH_HID_ParseHIDDesc(HID_DescTypeDef *desc, uint8_t *buf)
 703:./Libraries/STM32_USB_Host_Library/Class/HID/Src/usbh_hid.c **** {
 1566              		.loc 1 703 1
 1567              		.cfi_startproc
 1568              		@ args = 0, pretend = 0, frame = 16
 1569              		@ frame_needed = 1, uses_anonymous_args = 0
 1570 0000 80B5     		push	{r7, lr}
 1571              	.LCFI55:
 1572              		.cfi_def_cfa_offset 8
 1573              		.cfi_offset 7, -8
 1574              		.cfi_offset 14, -4
 1575 0002 84B0     		sub	sp, sp, #16
 1576              	.LCFI56:
 1577              		.cfi_def_cfa_offset 24
 1578 0004 00AF     		add	r7, sp, #0
 1579              	.LCFI57:
 1580              		.cfi_def_cfa_register 7
 1581 0006 7860     		str	r0, [r7, #4]
 1582 0008 3960     		str	r1, [r7]
ARM GAS  /tmp/ccM6gtS8.s 			page 41


 704:./Libraries/STM32_USB_Host_Library/Class/HID/Src/usbh_hid.c ****   USBH_DescHeader_t *pdesc = (USBH_DescHeader_t *)buf;
 1583              		.loc 1 704 22
 1584 000a 3B68     		ldr	r3, [r7]
 1585 000c FB60     		str	r3, [r7, #12]
 705:./Libraries/STM32_USB_Host_Library/Class/HID/Src/usbh_hid.c ****   uint16_t CfgDescLen;
 706:./Libraries/STM32_USB_Host_Library/Class/HID/Src/usbh_hid.c ****   uint16_t ptr;
 707:./Libraries/STM32_USB_Host_Library/Class/HID/Src/usbh_hid.c **** 
 708:./Libraries/STM32_USB_Host_Library/Class/HID/Src/usbh_hid.c ****   CfgDescLen = LE16(buf + 2U);
 1586              		.loc 1 708 16
 1587 000e 3B68     		ldr	r3, [r7]
 1588 0010 0233     		adds	r3, r3, #2
 1589 0012 1B78     		ldrb	r3, [r3]	@ zero_extendqisi2
 1590 0014 9AB2     		uxth	r2, r3
 1591 0016 3B68     		ldr	r3, [r7]
 1592 0018 0333     		adds	r3, r3, #3
 1593 001a 1B78     		ldrb	r3, [r3]	@ zero_extendqisi2
 1594 001c 9BB2     		uxth	r3, r3
 1595 001e 1B02     		lsls	r3, r3, #8
 1596 0020 9BB2     		uxth	r3, r3
 1597              		.loc 1 708 14
 1598 0022 1343     		orrs	r3, r3, r2
 1599 0024 7B81     		strh	r3, [r7, #10]	@ movhi
 709:./Libraries/STM32_USB_Host_Library/Class/HID/Src/usbh_hid.c **** 
 710:./Libraries/STM32_USB_Host_Library/Class/HID/Src/usbh_hid.c ****   if (CfgDescLen > USB_CONFIGURATION_DESC_SIZE)
 1600              		.loc 1 710 6
 1601 0026 7B89     		ldrh	r3, [r7, #10]
 1602 0028 092B     		cmp	r3, #9
 1603 002a 43D9     		bls	.L81
 711:./Libraries/STM32_USB_Host_Library/Class/HID/Src/usbh_hid.c ****   {
 712:./Libraries/STM32_USB_Host_Library/Class/HID/Src/usbh_hid.c ****     ptr = USB_LEN_CFG_DESC;
 1604              		.loc 1 712 9
 1605 002c 0923     		movs	r3, #9
 1606 002e 3B81     		strh	r3, [r7, #8]	@ movhi
 713:./Libraries/STM32_USB_Host_Library/Class/HID/Src/usbh_hid.c **** 
 714:./Libraries/STM32_USB_Host_Library/Class/HID/Src/usbh_hid.c ****     while (ptr < CfgDescLen)
 1607              		.loc 1 714 11
 1608 0030 3CE0     		b	.L79
 1609              	.L80:
 715:./Libraries/STM32_USB_Host_Library/Class/HID/Src/usbh_hid.c ****     {
 716:./Libraries/STM32_USB_Host_Library/Class/HID/Src/usbh_hid.c ****       pdesc = USBH_GetNextDesc((uint8_t *)pdesc, &ptr);
 1610              		.loc 1 716 15
 1611 0032 07F10803 		add	r3, r7, #8
 1612 0036 1946     		mov	r1, r3
 1613 0038 F868     		ldr	r0, [r7, #12]
 1614 003a FFF7FEFF 		bl	USBH_GetNextDesc
 1615 003e F860     		str	r0, [r7, #12]
 717:./Libraries/STM32_USB_Host_Library/Class/HID/Src/usbh_hid.c **** 
 718:./Libraries/STM32_USB_Host_Library/Class/HID/Src/usbh_hid.c ****       if (pdesc->bDescriptorType == USB_DESC_TYPE_HID)
 1616              		.loc 1 718 16
 1617 0040 FB68     		ldr	r3, [r7, #12]
 1618 0042 5B78     		ldrb	r3, [r3, #1]	@ zero_extendqisi2
 1619              		.loc 1 718 10
 1620 0044 212B     		cmp	r3, #33
 1621 0046 31D1     		bne	.L79
 719:./Libraries/STM32_USB_Host_Library/Class/HID/Src/usbh_hid.c ****       {
 720:./Libraries/STM32_USB_Host_Library/Class/HID/Src/usbh_hid.c ****         desc->bLength = *(uint8_t *)((uint8_t *)pdesc + 0U);
 1622              		.loc 1 720 25
ARM GAS  /tmp/ccM6gtS8.s 			page 42


 1623 0048 FB68     		ldr	r3, [r7, #12]
 1624 004a 1A78     		ldrb	r2, [r3]	@ zero_extendqisi2
 1625              		.loc 1 720 23
 1626 004c 7B68     		ldr	r3, [r7, #4]
 1627 004e 1A70     		strb	r2, [r3]
 721:./Libraries/STM32_USB_Host_Library/Class/HID/Src/usbh_hid.c ****         desc->bDescriptorType = *(uint8_t *)((uint8_t *)pdesc + 1U);
 1628              		.loc 1 721 31
 1629 0050 FB68     		ldr	r3, [r7, #12]
 1630 0052 5A78     		ldrb	r2, [r3, #1]	@ zero_extendqisi2
 1631 0054 7B68     		ldr	r3, [r7, #4]
 1632 0056 5A70     		strb	r2, [r3, #1]
 722:./Libraries/STM32_USB_Host_Library/Class/HID/Src/usbh_hid.c ****         desc->bcdHID = LE16((uint8_t *)pdesc + 2U);
 1633              		.loc 1 722 24
 1634 0058 FB68     		ldr	r3, [r7, #12]
 1635 005a 0233     		adds	r3, r3, #2
 1636 005c 1B78     		ldrb	r3, [r3]	@ zero_extendqisi2
 1637 005e 9AB2     		uxth	r2, r3
 1638 0060 FB68     		ldr	r3, [r7, #12]
 1639 0062 0333     		adds	r3, r3, #3
 1640 0064 1B78     		ldrb	r3, [r3]	@ zero_extendqisi2
 1641 0066 9BB2     		uxth	r3, r3
 1642 0068 1B02     		lsls	r3, r3, #8
 1643 006a 9BB2     		uxth	r3, r3
 1644 006c 1343     		orrs	r3, r3, r2
 1645 006e 9AB2     		uxth	r2, r3
 1646              		.loc 1 722 22
 1647 0070 7B68     		ldr	r3, [r7, #4]
 1648 0072 5A80     		strh	r2, [r3, #2]	@ movhi
 723:./Libraries/STM32_USB_Host_Library/Class/HID/Src/usbh_hid.c ****         desc->bCountryCode = *(uint8_t *)((uint8_t *)pdesc + 4U);
 1649              		.loc 1 723 28
 1650 0074 FB68     		ldr	r3, [r7, #12]
 1651 0076 1A79     		ldrb	r2, [r3, #4]	@ zero_extendqisi2
 1652 0078 7B68     		ldr	r3, [r7, #4]
 1653 007a 1A71     		strb	r2, [r3, #4]
 724:./Libraries/STM32_USB_Host_Library/Class/HID/Src/usbh_hid.c ****         desc->bNumDescriptors = *(uint8_t *)((uint8_t *)pdesc + 5U);
 1654              		.loc 1 724 31
 1655 007c FB68     		ldr	r3, [r7, #12]
 1656 007e 5A79     		ldrb	r2, [r3, #5]	@ zero_extendqisi2
 1657 0080 7B68     		ldr	r3, [r7, #4]
 1658 0082 5A71     		strb	r2, [r3, #5]
 725:./Libraries/STM32_USB_Host_Library/Class/HID/Src/usbh_hid.c ****         desc->bReportDescriptorType = *(uint8_t *)((uint8_t *)pdesc + 6U);
 1659              		.loc 1 725 37
 1660 0084 FB68     		ldr	r3, [r7, #12]
 1661 0086 9A79     		ldrb	r2, [r3, #6]	@ zero_extendqisi2
 1662 0088 7B68     		ldr	r3, [r7, #4]
 1663 008a 9A71     		strb	r2, [r3, #6]
 726:./Libraries/STM32_USB_Host_Library/Class/HID/Src/usbh_hid.c ****         desc->wItemLength = LE16((uint8_t *)pdesc + 7U);
 1664              		.loc 1 726 29
 1665 008c FB68     		ldr	r3, [r7, #12]
 1666 008e 0733     		adds	r3, r3, #7
 1667 0090 1B78     		ldrb	r3, [r3]	@ zero_extendqisi2
 1668 0092 9AB2     		uxth	r2, r3
 1669 0094 FB68     		ldr	r3, [r7, #12]
 1670 0096 0833     		adds	r3, r3, #8
 1671 0098 1B78     		ldrb	r3, [r3]	@ zero_extendqisi2
 1672 009a 9BB2     		uxth	r3, r3
 1673 009c 1B02     		lsls	r3, r3, #8
ARM GAS  /tmp/ccM6gtS8.s 			page 43


 1674 009e 9BB2     		uxth	r3, r3
 1675 00a0 1343     		orrs	r3, r3, r2
 1676 00a2 9AB2     		uxth	r2, r3
 1677              		.loc 1 726 27
 1678 00a4 7B68     		ldr	r3, [r7, #4]
 1679 00a6 1A81     		strh	r2, [r3, #8]	@ movhi
 727:./Libraries/STM32_USB_Host_Library/Class/HID/Src/usbh_hid.c ****         break;
 1680              		.loc 1 727 9
 1681 00a8 00BF     		nop
 728:./Libraries/STM32_USB_Host_Library/Class/HID/Src/usbh_hid.c ****       }
 729:./Libraries/STM32_USB_Host_Library/Class/HID/Src/usbh_hid.c ****     }
 730:./Libraries/STM32_USB_Host_Library/Class/HID/Src/usbh_hid.c ****   }
 731:./Libraries/STM32_USB_Host_Library/Class/HID/Src/usbh_hid.c **** }
 1682              		.loc 1 731 1
 1683 00aa 03E0     		b	.L81
 1684              	.L79:
 714:./Libraries/STM32_USB_Host_Library/Class/HID/Src/usbh_hid.c ****     {
 1685              		.loc 1 714 16
 1686 00ac 3B89     		ldrh	r3, [r7, #8]
 714:./Libraries/STM32_USB_Host_Library/Class/HID/Src/usbh_hid.c ****     {
 1687              		.loc 1 714 11
 1688 00ae 7A89     		ldrh	r2, [r7, #10]
 1689 00b0 9A42     		cmp	r2, r3
 1690 00b2 BED8     		bhi	.L80
 1691              	.L81:
 1692              		.loc 1 731 1
 1693 00b4 00BF     		nop
 1694 00b6 1037     		adds	r7, r7, #16
 1695              	.LCFI58:
 1696              		.cfi_def_cfa_offset 8
 1697 00b8 BD46     		mov	sp, r7
 1698              	.LCFI59:
 1699              		.cfi_def_cfa_register 13
 1700              		@ sp needed
 1701 00ba 80BD     		pop	{r7, pc}
 1702              		.cfi_endproc
 1703              	.LFE349:
 1705              		.section	.text.USBH_HID_GetDeviceType,"ax",%progbits
 1706              		.align	1
 1707              		.global	USBH_HID_GetDeviceType
 1708              		.syntax unified
 1709              		.thumb
 1710              		.thumb_func
 1711              		.fpu fpv5-d16
 1713              	USBH_HID_GetDeviceType:
 1714              	.LFB350:
 732:./Libraries/STM32_USB_Host_Library/Class/HID/Src/usbh_hid.c **** 
 733:./Libraries/STM32_USB_Host_Library/Class/HID/Src/usbh_hid.c **** /**
 734:./Libraries/STM32_USB_Host_Library/Class/HID/Src/usbh_hid.c ****   * @brief  USBH_HID_GetDeviceType
 735:./Libraries/STM32_USB_Host_Library/Class/HID/Src/usbh_hid.c ****   *         Return Device function.
 736:./Libraries/STM32_USB_Host_Library/Class/HID/Src/usbh_hid.c ****   * @param  phost: Host handle
 737:./Libraries/STM32_USB_Host_Library/Class/HID/Src/usbh_hid.c ****   * @retval HID function: HID_MOUSE / HID_KEYBOARD
 738:./Libraries/STM32_USB_Host_Library/Class/HID/Src/usbh_hid.c ****   */
 739:./Libraries/STM32_USB_Host_Library/Class/HID/Src/usbh_hid.c **** HID_TypeTypeDef USBH_HID_GetDeviceType(USBH_HandleTypeDef *phost)
 740:./Libraries/STM32_USB_Host_Library/Class/HID/Src/usbh_hid.c **** {
 1715              		.loc 1 740 1
 1716              		.cfi_startproc
ARM GAS  /tmp/ccM6gtS8.s 			page 44


 1717              		@ args = 0, pretend = 0, frame = 16
 1718              		@ frame_needed = 1, uses_anonymous_args = 0
 1719              		@ link register save eliminated.
 1720 0000 80B4     		push	{r7}
 1721              	.LCFI60:
 1722              		.cfi_def_cfa_offset 4
 1723              		.cfi_offset 7, -4
 1724 0002 85B0     		sub	sp, sp, #20
 1725              	.LCFI61:
 1726              		.cfi_def_cfa_offset 24
 1727 0004 00AF     		add	r7, sp, #0
 1728              	.LCFI62:
 1729              		.cfi_def_cfa_register 7
 1730 0006 7860     		str	r0, [r7, #4]
 741:./Libraries/STM32_USB_Host_Library/Class/HID/Src/usbh_hid.c ****   HID_TypeTypeDef   type = HID_UNKNOWN;
 1731              		.loc 1 741 21
 1732 0008 FF23     		movs	r3, #255
 1733 000a FB73     		strb	r3, [r7, #15]
 742:./Libraries/STM32_USB_Host_Library/Class/HID/Src/usbh_hid.c ****   uint8_t InterfaceProtocol;
 743:./Libraries/STM32_USB_Host_Library/Class/HID/Src/usbh_hid.c **** 
 744:./Libraries/STM32_USB_Host_Library/Class/HID/Src/usbh_hid.c ****   if (phost->gState == HOST_CLASS)
 1734              		.loc 1 744 12
 1735 000c 7B68     		ldr	r3, [r7, #4]
 1736 000e 1B78     		ldrb	r3, [r3]
 1737 0010 DBB2     		uxtb	r3, r3
 1738              		.loc 1 744 6
 1739 0012 0B2B     		cmp	r3, #11
 1740 0014 17D1     		bne	.L83
 745:./Libraries/STM32_USB_Host_Library/Class/HID/Src/usbh_hid.c ****   {
 746:./Libraries/STM32_USB_Host_Library/Class/HID/Src/usbh_hid.c ****     InterfaceProtocol = phost->device.CfgDesc.Itf_Desc[phost->device.current_interface].bInterfaceP
 1741              		.loc 1 746 69
 1742 0016 7B68     		ldr	r3, [r7, #4]
 1743 0018 93F82434 		ldrb	r3, [r3, #1060]	@ zero_extendqisi2
 1744 001c 1946     		mov	r1, r3
 1745              		.loc 1 746 23
 1746 001e 7A68     		ldr	r2, [r7, #4]
 1747 0020 1A23     		movs	r3, #26
 1748 0022 03FB01F3 		mul	r3, r3, r1
 1749 0026 1344     		add	r3, r3, r2
 1750 0028 03F24943 		addw	r3, r3, #1097
 1751 002c 1B78     		ldrb	r3, [r3]
 1752 002e BB73     		strb	r3, [r7, #14]
 747:./Libraries/STM32_USB_Host_Library/Class/HID/Src/usbh_hid.c ****     if (InterfaceProtocol == HID_KEYBRD_BOOT_CODE)
 1753              		.loc 1 747 8
 1754 0030 BB7B     		ldrb	r3, [r7, #14]	@ zero_extendqisi2
 1755 0032 012B     		cmp	r3, #1
 1756 0034 02D1     		bne	.L84
 748:./Libraries/STM32_USB_Host_Library/Class/HID/Src/usbh_hid.c ****     {
 749:./Libraries/STM32_USB_Host_Library/Class/HID/Src/usbh_hid.c ****       type = HID_KEYBOARD;
 1757              		.loc 1 749 12
 1758 0036 0223     		movs	r3, #2
 1759 0038 FB73     		strb	r3, [r7, #15]
 1760 003a 04E0     		b	.L83
 1761              	.L84:
 750:./Libraries/STM32_USB_Host_Library/Class/HID/Src/usbh_hid.c ****     }
 751:./Libraries/STM32_USB_Host_Library/Class/HID/Src/usbh_hid.c ****     else
 752:./Libraries/STM32_USB_Host_Library/Class/HID/Src/usbh_hid.c ****     {
ARM GAS  /tmp/ccM6gtS8.s 			page 45


 753:./Libraries/STM32_USB_Host_Library/Class/HID/Src/usbh_hid.c ****       if (InterfaceProtocol == HID_MOUSE_BOOT_CODE)
 1762              		.loc 1 753 10
 1763 003c BB7B     		ldrb	r3, [r7, #14]	@ zero_extendqisi2
 1764 003e 022B     		cmp	r3, #2
 1765 0040 01D1     		bne	.L83
 754:./Libraries/STM32_USB_Host_Library/Class/HID/Src/usbh_hid.c ****       {
 755:./Libraries/STM32_USB_Host_Library/Class/HID/Src/usbh_hid.c ****         type = HID_MOUSE;
 1766              		.loc 1 755 14
 1767 0042 0123     		movs	r3, #1
 1768 0044 FB73     		strb	r3, [r7, #15]
 1769              	.L83:
 756:./Libraries/STM32_USB_Host_Library/Class/HID/Src/usbh_hid.c ****       }
 757:./Libraries/STM32_USB_Host_Library/Class/HID/Src/usbh_hid.c ****     }
 758:./Libraries/STM32_USB_Host_Library/Class/HID/Src/usbh_hid.c ****   }
 759:./Libraries/STM32_USB_Host_Library/Class/HID/Src/usbh_hid.c ****   return type;
 1770              		.loc 1 759 10
 1771 0046 FB7B     		ldrb	r3, [r7, #15]	@ zero_extendqisi2
 760:./Libraries/STM32_USB_Host_Library/Class/HID/Src/usbh_hid.c **** }
 1772              		.loc 1 760 1
 1773 0048 1846     		mov	r0, r3
 1774 004a 1437     		adds	r7, r7, #20
 1775              	.LCFI63:
 1776              		.cfi_def_cfa_offset 4
 1777 004c BD46     		mov	sp, r7
 1778              	.LCFI64:
 1779              		.cfi_def_cfa_register 13
 1780              		@ sp needed
 1781 004e 5DF8047B 		ldr	r7, [sp], #4
 1782              	.LCFI65:
 1783              		.cfi_restore 7
 1784              		.cfi_def_cfa_offset 0
 1785 0052 7047     		bx	lr
 1786              		.cfi_endproc
 1787              	.LFE350:
 1789              		.section	.text.USBH_HID_GetPollInterval,"ax",%progbits
 1790              		.align	1
 1791              		.global	USBH_HID_GetPollInterval
 1792              		.syntax unified
 1793              		.thumb
 1794              		.thumb_func
 1795              		.fpu fpv5-d16
 1797              	USBH_HID_GetPollInterval:
 1798              	.LFB351:
 761:./Libraries/STM32_USB_Host_Library/Class/HID/Src/usbh_hid.c **** 
 762:./Libraries/STM32_USB_Host_Library/Class/HID/Src/usbh_hid.c **** 
 763:./Libraries/STM32_USB_Host_Library/Class/HID/Src/usbh_hid.c **** /**
 764:./Libraries/STM32_USB_Host_Library/Class/HID/Src/usbh_hid.c ****   * @brief  USBH_HID_GetPollInterval
 765:./Libraries/STM32_USB_Host_Library/Class/HID/Src/usbh_hid.c ****   *         Return HID device poll time
 766:./Libraries/STM32_USB_Host_Library/Class/HID/Src/usbh_hid.c ****   * @param  phost: Host handle
 767:./Libraries/STM32_USB_Host_Library/Class/HID/Src/usbh_hid.c ****   * @retval poll time (ms)
 768:./Libraries/STM32_USB_Host_Library/Class/HID/Src/usbh_hid.c ****   */
 769:./Libraries/STM32_USB_Host_Library/Class/HID/Src/usbh_hid.c **** uint8_t USBH_HID_GetPollInterval(USBH_HandleTypeDef *phost)
 770:./Libraries/STM32_USB_Host_Library/Class/HID/Src/usbh_hid.c **** {
 1799              		.loc 1 770 1
 1800              		.cfi_startproc
 1801              		@ args = 0, pretend = 0, frame = 16
 1802              		@ frame_needed = 1, uses_anonymous_args = 0
ARM GAS  /tmp/ccM6gtS8.s 			page 46


 1803              		@ link register save eliminated.
 1804 0000 80B4     		push	{r7}
 1805              	.LCFI66:
 1806              		.cfi_def_cfa_offset 4
 1807              		.cfi_offset 7, -4
 1808 0002 85B0     		sub	sp, sp, #20
 1809              	.LCFI67:
 1810              		.cfi_def_cfa_offset 24
 1811 0004 00AF     		add	r7, sp, #0
 1812              	.LCFI68:
 1813              		.cfi_def_cfa_register 7
 1814 0006 7860     		str	r0, [r7, #4]
 771:./Libraries/STM32_USB_Host_Library/Class/HID/Src/usbh_hid.c ****   HID_HandleTypeDef *HID_Handle = (HID_HandleTypeDef *) phost->pActiveClass->pData;
 1815              		.loc 1 771 62
 1816 0008 7B68     		ldr	r3, [r7, #4]
 1817 000a D3F87C34 		ldr	r3, [r3, #1148]
 1818              		.loc 1 771 22
 1819 000e DB69     		ldr	r3, [r3, #28]
 1820 0010 FB60     		str	r3, [r7, #12]
 772:./Libraries/STM32_USB_Host_Library/Class/HID/Src/usbh_hid.c **** 
 773:./Libraries/STM32_USB_Host_Library/Class/HID/Src/usbh_hid.c ****   if ((phost->gState == HOST_CLASS_REQUEST) ||
 1821              		.loc 1 773 13
 1822 0012 7B68     		ldr	r3, [r7, #4]
 1823 0014 1B78     		ldrb	r3, [r3]
 1824 0016 DBB2     		uxtb	r3, r3
 1825              		.loc 1 773 6
 1826 0018 062B     		cmp	r3, #6
 1827 001a 13D0     		beq	.L87
 774:./Libraries/STM32_USB_Host_Library/Class/HID/Src/usbh_hid.c ****       (phost->gState == HOST_INPUT) ||
 1828              		.loc 1 774 13 discriminator 1
 1829 001c 7B68     		ldr	r3, [r7, #4]
 1830 001e 1B78     		ldrb	r3, [r3]
 1831 0020 DBB2     		uxtb	r3, r3
 773:./Libraries/STM32_USB_Host_Library/Class/HID/Src/usbh_hid.c ****       (phost->gState == HOST_INPUT) ||
 1832              		.loc 1 773 45 discriminator 1
 1833 0022 072B     		cmp	r3, #7
 1834 0024 0ED0     		beq	.L87
 775:./Libraries/STM32_USB_Host_Library/Class/HID/Src/usbh_hid.c ****       (phost->gState == HOST_SET_CONFIGURATION) ||
 1835              		.loc 1 775 13
 1836 0026 7B68     		ldr	r3, [r7, #4]
 1837 0028 1B78     		ldrb	r3, [r3]
 1838 002a DBB2     		uxtb	r3, r3
 774:./Libraries/STM32_USB_Host_Library/Class/HID/Src/usbh_hid.c ****       (phost->gState == HOST_INPUT) ||
 1839              		.loc 1 774 37
 1840 002c 082B     		cmp	r3, #8
 1841 002e 09D0     		beq	.L87
 776:./Libraries/STM32_USB_Host_Library/Class/HID/Src/usbh_hid.c ****       (phost->gState == HOST_CHECK_CLASS) ||
 1842              		.loc 1 776 13
 1843 0030 7B68     		ldr	r3, [r7, #4]
 1844 0032 1B78     		ldrb	r3, [r3]
 1845 0034 DBB2     		uxtb	r3, r3
 775:./Libraries/STM32_USB_Host_Library/Class/HID/Src/usbh_hid.c ****       (phost->gState == HOST_SET_CONFIGURATION) ||
 1846              		.loc 1 775 49
 1847 0036 0A2B     		cmp	r3, #10
 1848 0038 04D0     		beq	.L87
 777:./Libraries/STM32_USB_Host_Library/Class/HID/Src/usbh_hid.c ****       ((phost->gState == HOST_CLASS)))
 1849              		.loc 1 777 14
ARM GAS  /tmp/ccM6gtS8.s 			page 47


 1850 003a 7B68     		ldr	r3, [r7, #4]
 1851 003c 1B78     		ldrb	r3, [r3]
 1852 003e DBB2     		uxtb	r3, r3
 776:./Libraries/STM32_USB_Host_Library/Class/HID/Src/usbh_hid.c ****       (phost->gState == HOST_CHECK_CLASS) ||
 1853              		.loc 1 776 43
 1854 0040 0B2B     		cmp	r3, #11
 1855 0042 03D1     		bne	.L88
 1856              	.L87:
 778:./Libraries/STM32_USB_Host_Library/Class/HID/Src/usbh_hid.c ****   {
 779:./Libraries/STM32_USB_Host_Library/Class/HID/Src/usbh_hid.c ****     return (uint8_t)(HID_Handle->poll);
 1857              		.loc 1 779 32
 1858 0044 FB68     		ldr	r3, [r7, #12]
 1859 0046 9B8B     		ldrh	r3, [r3, #28]
 1860              		.loc 1 779 12
 1861 0048 DBB2     		uxtb	r3, r3
 1862 004a 00E0     		b	.L89
 1863              	.L88:
 780:./Libraries/STM32_USB_Host_Library/Class/HID/Src/usbh_hid.c ****   }
 781:./Libraries/STM32_USB_Host_Library/Class/HID/Src/usbh_hid.c ****   else
 782:./Libraries/STM32_USB_Host_Library/Class/HID/Src/usbh_hid.c ****   {
 783:./Libraries/STM32_USB_Host_Library/Class/HID/Src/usbh_hid.c ****     return 0U;
 1864              		.loc 1 783 12
 1865 004c 0023     		movs	r3, #0
 1866              	.L89:
 784:./Libraries/STM32_USB_Host_Library/Class/HID/Src/usbh_hid.c ****   }
 785:./Libraries/STM32_USB_Host_Library/Class/HID/Src/usbh_hid.c **** }
 1867              		.loc 1 785 1
 1868 004e 1846     		mov	r0, r3
 1869 0050 1437     		adds	r7, r7, #20
 1870              	.LCFI69:
 1871              		.cfi_def_cfa_offset 4
 1872 0052 BD46     		mov	sp, r7
 1873              	.LCFI70:
 1874              		.cfi_def_cfa_register 13
 1875              		@ sp needed
 1876 0054 5DF8047B 		ldr	r7, [sp], #4
 1877              	.LCFI71:
 1878              		.cfi_restore 7
 1879              		.cfi_def_cfa_offset 0
 1880 0058 7047     		bx	lr
 1881              		.cfi_endproc
 1882              	.LFE351:
 1884              		.section	.text.USBH_HID_FifoInit,"ax",%progbits
 1885              		.align	1
 1886              		.global	USBH_HID_FifoInit
 1887              		.syntax unified
 1888              		.thumb
 1889              		.thumb_func
 1890              		.fpu fpv5-d16
 1892              	USBH_HID_FifoInit:
 1893              	.LFB352:
 786:./Libraries/STM32_USB_Host_Library/Class/HID/Src/usbh_hid.c **** /**
 787:./Libraries/STM32_USB_Host_Library/Class/HID/Src/usbh_hid.c ****   * @brief  USBH_HID_FifoInit
 788:./Libraries/STM32_USB_Host_Library/Class/HID/Src/usbh_hid.c ****   *         Initialize FIFO.
 789:./Libraries/STM32_USB_Host_Library/Class/HID/Src/usbh_hid.c ****   * @param  f: Fifo address
 790:./Libraries/STM32_USB_Host_Library/Class/HID/Src/usbh_hid.c ****   * @param  buf: Fifo buffer
 791:./Libraries/STM32_USB_Host_Library/Class/HID/Src/usbh_hid.c ****   * @param  size: Fifo Size
ARM GAS  /tmp/ccM6gtS8.s 			page 48


 792:./Libraries/STM32_USB_Host_Library/Class/HID/Src/usbh_hid.c ****   * @retval none
 793:./Libraries/STM32_USB_Host_Library/Class/HID/Src/usbh_hid.c ****   */
 794:./Libraries/STM32_USB_Host_Library/Class/HID/Src/usbh_hid.c **** void USBH_HID_FifoInit(FIFO_TypeDef *f, uint8_t *buf, uint16_t size)
 795:./Libraries/STM32_USB_Host_Library/Class/HID/Src/usbh_hid.c **** {
 1894              		.loc 1 795 1
 1895              		.cfi_startproc
 1896              		@ args = 0, pretend = 0, frame = 16
 1897              		@ frame_needed = 1, uses_anonymous_args = 0
 1898              		@ link register save eliminated.
 1899 0000 80B4     		push	{r7}
 1900              	.LCFI72:
 1901              		.cfi_def_cfa_offset 4
 1902              		.cfi_offset 7, -4
 1903 0002 85B0     		sub	sp, sp, #20
 1904              	.LCFI73:
 1905              		.cfi_def_cfa_offset 24
 1906 0004 00AF     		add	r7, sp, #0
 1907              	.LCFI74:
 1908              		.cfi_def_cfa_register 7
 1909 0006 F860     		str	r0, [r7, #12]
 1910 0008 B960     		str	r1, [r7, #8]
 1911 000a 1346     		mov	r3, r2
 1912 000c FB80     		strh	r3, [r7, #6]	@ movhi
 796:./Libraries/STM32_USB_Host_Library/Class/HID/Src/usbh_hid.c ****   f->head = 0U;
 1913              		.loc 1 796 11
 1914 000e FB68     		ldr	r3, [r7, #12]
 1915 0010 0022     		movs	r2, #0
 1916 0012 9A80     		strh	r2, [r3, #4]	@ movhi
 797:./Libraries/STM32_USB_Host_Library/Class/HID/Src/usbh_hid.c ****   f->tail = 0U;
 1917              		.loc 1 797 11
 1918 0014 FB68     		ldr	r3, [r7, #12]
 1919 0016 0022     		movs	r2, #0
 1920 0018 DA80     		strh	r2, [r3, #6]	@ movhi
 798:./Libraries/STM32_USB_Host_Library/Class/HID/Src/usbh_hid.c ****   f->lock = 0U;
 1921              		.loc 1 798 11
 1922 001a FB68     		ldr	r3, [r7, #12]
 1923 001c 0022     		movs	r2, #0
 1924 001e 9A72     		strb	r2, [r3, #10]
 799:./Libraries/STM32_USB_Host_Library/Class/HID/Src/usbh_hid.c ****   f->size = size;
 1925              		.loc 1 799 11
 1926 0020 FB68     		ldr	r3, [r7, #12]
 1927 0022 FA88     		ldrh	r2, [r7, #6]	@ movhi
 1928 0024 1A81     		strh	r2, [r3, #8]	@ movhi
 800:./Libraries/STM32_USB_Host_Library/Class/HID/Src/usbh_hid.c ****   f->buf = buf;
 1929              		.loc 1 800 10
 1930 0026 FB68     		ldr	r3, [r7, #12]
 1931 0028 BA68     		ldr	r2, [r7, #8]
 1932 002a 1A60     		str	r2, [r3]
 801:./Libraries/STM32_USB_Host_Library/Class/HID/Src/usbh_hid.c **** }
 1933              		.loc 1 801 1
 1934 002c 00BF     		nop
 1935 002e 1437     		adds	r7, r7, #20
 1936              	.LCFI75:
 1937              		.cfi_def_cfa_offset 4
 1938 0030 BD46     		mov	sp, r7
 1939              	.LCFI76:
 1940              		.cfi_def_cfa_register 13
ARM GAS  /tmp/ccM6gtS8.s 			page 49


 1941              		@ sp needed
 1942 0032 5DF8047B 		ldr	r7, [sp], #4
 1943              	.LCFI77:
 1944              		.cfi_restore 7
 1945              		.cfi_def_cfa_offset 0
 1946 0036 7047     		bx	lr
 1947              		.cfi_endproc
 1948              	.LFE352:
 1950              		.section	.text.USBH_HID_FifoRead,"ax",%progbits
 1951              		.align	1
 1952              		.global	USBH_HID_FifoRead
 1953              		.syntax unified
 1954              		.thumb
 1955              		.thumb_func
 1956              		.fpu fpv5-d16
 1958              	USBH_HID_FifoRead:
 1959              	.LFB353:
 802:./Libraries/STM32_USB_Host_Library/Class/HID/Src/usbh_hid.c **** 
 803:./Libraries/STM32_USB_Host_Library/Class/HID/Src/usbh_hid.c **** /**
 804:./Libraries/STM32_USB_Host_Library/Class/HID/Src/usbh_hid.c ****   * @brief  USBH_HID_FifoRead
 805:./Libraries/STM32_USB_Host_Library/Class/HID/Src/usbh_hid.c ****   *         Read from FIFO.
 806:./Libraries/STM32_USB_Host_Library/Class/HID/Src/usbh_hid.c ****   * @param  f: Fifo address
 807:./Libraries/STM32_USB_Host_Library/Class/HID/Src/usbh_hid.c ****   * @param  buf: read buffer
 808:./Libraries/STM32_USB_Host_Library/Class/HID/Src/usbh_hid.c ****   * @param  nbytes: number of item to read
 809:./Libraries/STM32_USB_Host_Library/Class/HID/Src/usbh_hid.c ****   * @retval number of read items
 810:./Libraries/STM32_USB_Host_Library/Class/HID/Src/usbh_hid.c ****   */
 811:./Libraries/STM32_USB_Host_Library/Class/HID/Src/usbh_hid.c **** uint16_t USBH_HID_FifoRead(FIFO_TypeDef *f, void *buf, uint16_t nbytes)
 812:./Libraries/STM32_USB_Host_Library/Class/HID/Src/usbh_hid.c **** {
 1960              		.loc 1 812 1
 1961              		.cfi_startproc
 1962              		@ args = 0, pretend = 0, frame = 24
 1963              		@ frame_needed = 1, uses_anonymous_args = 0
 1964              		@ link register save eliminated.
 1965 0000 80B4     		push	{r7}
 1966              	.LCFI78:
 1967              		.cfi_def_cfa_offset 4
 1968              		.cfi_offset 7, -4
 1969 0002 87B0     		sub	sp, sp, #28
 1970              	.LCFI79:
 1971              		.cfi_def_cfa_offset 32
 1972 0004 00AF     		add	r7, sp, #0
 1973              	.LCFI80:
 1974              		.cfi_def_cfa_register 7
 1975 0006 F860     		str	r0, [r7, #12]
 1976 0008 B960     		str	r1, [r7, #8]
 1977 000a 1346     		mov	r3, r2
 1978 000c FB80     		strh	r3, [r7, #6]	@ movhi
 813:./Libraries/STM32_USB_Host_Library/Class/HID/Src/usbh_hid.c ****   uint16_t i;
 814:./Libraries/STM32_USB_Host_Library/Class/HID/Src/usbh_hid.c ****   uint8_t *p;
 815:./Libraries/STM32_USB_Host_Library/Class/HID/Src/usbh_hid.c **** 
 816:./Libraries/STM32_USB_Host_Library/Class/HID/Src/usbh_hid.c ****   p = (uint8_t *) buf;
 1979              		.loc 1 816 5
 1980 000e BB68     		ldr	r3, [r7, #8]
 1981 0010 3B61     		str	r3, [r7, #16]
 817:./Libraries/STM32_USB_Host_Library/Class/HID/Src/usbh_hid.c **** 
 818:./Libraries/STM32_USB_Host_Library/Class/HID/Src/usbh_hid.c ****   if (f->lock == 0U)
 1982              		.loc 1 818 8
ARM GAS  /tmp/ccM6gtS8.s 			page 50


 1983 0012 FB68     		ldr	r3, [r7, #12]
 1984 0014 9B7A     		ldrb	r3, [r3, #10]	@ zero_extendqisi2
 1985              		.loc 1 818 6
 1986 0016 002B     		cmp	r3, #0
 1987 0018 31D1     		bne	.L92
 819:./Libraries/STM32_USB_Host_Library/Class/HID/Src/usbh_hid.c ****   {
 820:./Libraries/STM32_USB_Host_Library/Class/HID/Src/usbh_hid.c ****     f->lock = 1U;
 1988              		.loc 1 820 13
 1989 001a FB68     		ldr	r3, [r7, #12]
 1990 001c 0122     		movs	r2, #1
 1991 001e 9A72     		strb	r2, [r3, #10]
 821:./Libraries/STM32_USB_Host_Library/Class/HID/Src/usbh_hid.c **** 
 822:./Libraries/STM32_USB_Host_Library/Class/HID/Src/usbh_hid.c ****     for (i = 0U; i < nbytes; i++)
 1992              		.loc 1 822 12
 1993 0020 0023     		movs	r3, #0
 1994 0022 FB82     		strh	r3, [r7, #22]	@ movhi
 1995              		.loc 1 822 5
 1996 0024 27E0     		b	.L93
 1997              	.L97:
 823:./Libraries/STM32_USB_Host_Library/Class/HID/Src/usbh_hid.c ****     {
 824:./Libraries/STM32_USB_Host_Library/Class/HID/Src/usbh_hid.c ****       if (f->tail != f->head)
 1998              		.loc 1 824 12
 1999 0026 FB68     		ldr	r3, [r7, #12]
 2000 0028 DA88     		ldrh	r2, [r3, #6]
 2001              		.loc 1 824 23
 2002 002a FB68     		ldr	r3, [r7, #12]
 2003 002c 9B88     		ldrh	r3, [r3, #4]
 2004              		.loc 1 824 10
 2005 002e 9A42     		cmp	r2, r3
 2006 0030 19D0     		beq	.L94
 825:./Libraries/STM32_USB_Host_Library/Class/HID/Src/usbh_hid.c ****       {
 826:./Libraries/STM32_USB_Host_Library/Class/HID/Src/usbh_hid.c ****         *p++ = f->buf[f->tail];
 2007              		.loc 1 826 17
 2008 0032 FB68     		ldr	r3, [r7, #12]
 2009 0034 1B68     		ldr	r3, [r3]
 2010              		.loc 1 826 24
 2011 0036 FA68     		ldr	r2, [r7, #12]
 2012 0038 D288     		ldrh	r2, [r2, #6]
 2013              		.loc 1 826 22
 2014 003a 1A44     		add	r2, r2, r3
 2015              		.loc 1 826 11
 2016 003c 3B69     		ldr	r3, [r7, #16]
 2017 003e 591C     		adds	r1, r3, #1
 2018 0040 3961     		str	r1, [r7, #16]
 2019              		.loc 1 826 22
 2020 0042 1278     		ldrb	r2, [r2]	@ zero_extendqisi2
 2021              		.loc 1 826 14
 2022 0044 1A70     		strb	r2, [r3]
 827:./Libraries/STM32_USB_Host_Library/Class/HID/Src/usbh_hid.c ****         f->tail++;
 2023              		.loc 1 827 10
 2024 0046 FB68     		ldr	r3, [r7, #12]
 2025 0048 DB88     		ldrh	r3, [r3, #6]
 2026              		.loc 1 827 16
 2027 004a 0133     		adds	r3, r3, #1
 2028 004c 9AB2     		uxth	r2, r3
 2029 004e FB68     		ldr	r3, [r7, #12]
 2030 0050 DA80     		strh	r2, [r3, #6]	@ movhi
ARM GAS  /tmp/ccM6gtS8.s 			page 51


 828:./Libraries/STM32_USB_Host_Library/Class/HID/Src/usbh_hid.c **** 
 829:./Libraries/STM32_USB_Host_Library/Class/HID/Src/usbh_hid.c ****         if (f->tail == f->size)
 2031              		.loc 1 829 14
 2032 0052 FB68     		ldr	r3, [r7, #12]
 2033 0054 DA88     		ldrh	r2, [r3, #6]
 2034              		.loc 1 829 25
 2035 0056 FB68     		ldr	r3, [r7, #12]
 2036 0058 1B89     		ldrh	r3, [r3, #8]
 2037              		.loc 1 829 12
 2038 005a 9A42     		cmp	r2, r3
 2039 005c 08D1     		bne	.L95
 830:./Libraries/STM32_USB_Host_Library/Class/HID/Src/usbh_hid.c ****         {
 831:./Libraries/STM32_USB_Host_Library/Class/HID/Src/usbh_hid.c ****           f->tail = 0U;
 2040              		.loc 1 831 19
 2041 005e FB68     		ldr	r3, [r7, #12]
 2042 0060 0022     		movs	r2, #0
 2043 0062 DA80     		strh	r2, [r3, #6]	@ movhi
 2044 0064 04E0     		b	.L95
 2045              	.L94:
 832:./Libraries/STM32_USB_Host_Library/Class/HID/Src/usbh_hid.c ****         }
 833:./Libraries/STM32_USB_Host_Library/Class/HID/Src/usbh_hid.c ****       }
 834:./Libraries/STM32_USB_Host_Library/Class/HID/Src/usbh_hid.c ****       else
 835:./Libraries/STM32_USB_Host_Library/Class/HID/Src/usbh_hid.c ****       {
 836:./Libraries/STM32_USB_Host_Library/Class/HID/Src/usbh_hid.c ****         f->lock = 0U;
 2046              		.loc 1 836 17
 2047 0066 FB68     		ldr	r3, [r7, #12]
 2048 0068 0022     		movs	r2, #0
 2049 006a 9A72     		strb	r2, [r3, #10]
 837:./Libraries/STM32_USB_Host_Library/Class/HID/Src/usbh_hid.c ****         return i;
 2050              		.loc 1 837 16
 2051 006c FB8A     		ldrh	r3, [r7, #22]
 2052 006e 0AE0     		b	.L96
 2053              	.L95:
 822:./Libraries/STM32_USB_Host_Library/Class/HID/Src/usbh_hid.c ****     {
 2054              		.loc 1 822 31 discriminator 2
 2055 0070 FB8A     		ldrh	r3, [r7, #22]
 2056 0072 0133     		adds	r3, r3, #1
 2057 0074 FB82     		strh	r3, [r7, #22]	@ movhi
 2058              	.L93:
 822:./Libraries/STM32_USB_Host_Library/Class/HID/Src/usbh_hid.c ****     {
 2059              		.loc 1 822 5 discriminator 1
 2060 0076 FA8A     		ldrh	r2, [r7, #22]
 2061 0078 FB88     		ldrh	r3, [r7, #6]
 2062 007a 9A42     		cmp	r2, r3
 2063 007c D3D3     		bcc	.L97
 2064              	.L92:
 838:./Libraries/STM32_USB_Host_Library/Class/HID/Src/usbh_hid.c ****       }
 839:./Libraries/STM32_USB_Host_Library/Class/HID/Src/usbh_hid.c ****     }
 840:./Libraries/STM32_USB_Host_Library/Class/HID/Src/usbh_hid.c ****   }
 841:./Libraries/STM32_USB_Host_Library/Class/HID/Src/usbh_hid.c **** 
 842:./Libraries/STM32_USB_Host_Library/Class/HID/Src/usbh_hid.c ****   f->lock = 0U;
 2065              		.loc 1 842 11
 2066 007e FB68     		ldr	r3, [r7, #12]
 2067 0080 0022     		movs	r2, #0
 2068 0082 9A72     		strb	r2, [r3, #10]
 843:./Libraries/STM32_USB_Host_Library/Class/HID/Src/usbh_hid.c **** 
 844:./Libraries/STM32_USB_Host_Library/Class/HID/Src/usbh_hid.c ****   return nbytes;
ARM GAS  /tmp/ccM6gtS8.s 			page 52


 2069              		.loc 1 844 10
 2070 0084 FB88     		ldrh	r3, [r7, #6]
 2071              	.L96:
 845:./Libraries/STM32_USB_Host_Library/Class/HID/Src/usbh_hid.c **** }
 2072              		.loc 1 845 1
 2073 0086 1846     		mov	r0, r3
 2074 0088 1C37     		adds	r7, r7, #28
 2075              	.LCFI81:
 2076              		.cfi_def_cfa_offset 4
 2077 008a BD46     		mov	sp, r7
 2078              	.LCFI82:
 2079              		.cfi_def_cfa_register 13
 2080              		@ sp needed
 2081 008c 5DF8047B 		ldr	r7, [sp], #4
 2082              	.LCFI83:
 2083              		.cfi_restore 7
 2084              		.cfi_def_cfa_offset 0
 2085 0090 7047     		bx	lr
 2086              		.cfi_endproc
 2087              	.LFE353:
 2089              		.section	.text.USBH_HID_FifoWrite,"ax",%progbits
 2090              		.align	1
 2091              		.global	USBH_HID_FifoWrite
 2092              		.syntax unified
 2093              		.thumb
 2094              		.thumb_func
 2095              		.fpu fpv5-d16
 2097              	USBH_HID_FifoWrite:
 2098              	.LFB354:
 846:./Libraries/STM32_USB_Host_Library/Class/HID/Src/usbh_hid.c **** 
 847:./Libraries/STM32_USB_Host_Library/Class/HID/Src/usbh_hid.c **** /**
 848:./Libraries/STM32_USB_Host_Library/Class/HID/Src/usbh_hid.c ****   * @brief  USBH_HID_FifoWrite
 849:./Libraries/STM32_USB_Host_Library/Class/HID/Src/usbh_hid.c ****   *         Write To FIFO.
 850:./Libraries/STM32_USB_Host_Library/Class/HID/Src/usbh_hid.c ****   * @param  f: Fifo address
 851:./Libraries/STM32_USB_Host_Library/Class/HID/Src/usbh_hid.c ****   * @param  buf: read buffer
 852:./Libraries/STM32_USB_Host_Library/Class/HID/Src/usbh_hid.c ****   * @param  nbytes: number of item to write
 853:./Libraries/STM32_USB_Host_Library/Class/HID/Src/usbh_hid.c ****   * @retval number of written items
 854:./Libraries/STM32_USB_Host_Library/Class/HID/Src/usbh_hid.c ****   */
 855:./Libraries/STM32_USB_Host_Library/Class/HID/Src/usbh_hid.c **** uint16_t USBH_HID_FifoWrite(FIFO_TypeDef *f, void *buf, uint16_t  nbytes)
 856:./Libraries/STM32_USB_Host_Library/Class/HID/Src/usbh_hid.c **** {
 2099              		.loc 1 856 1
 2100              		.cfi_startproc
 2101              		@ args = 0, pretend = 0, frame = 24
 2102              		@ frame_needed = 1, uses_anonymous_args = 0
 2103              		@ link register save eliminated.
 2104 0000 80B4     		push	{r7}
 2105              	.LCFI84:
 2106              		.cfi_def_cfa_offset 4
 2107              		.cfi_offset 7, -4
 2108 0002 87B0     		sub	sp, sp, #28
 2109              	.LCFI85:
 2110              		.cfi_def_cfa_offset 32
 2111 0004 00AF     		add	r7, sp, #0
 2112              	.LCFI86:
 2113              		.cfi_def_cfa_register 7
 2114 0006 F860     		str	r0, [r7, #12]
 2115 0008 B960     		str	r1, [r7, #8]
ARM GAS  /tmp/ccM6gtS8.s 			page 53


 2116 000a 1346     		mov	r3, r2
 2117 000c FB80     		strh	r3, [r7, #6]	@ movhi
 857:./Libraries/STM32_USB_Host_Library/Class/HID/Src/usbh_hid.c ****   uint16_t i;
 858:./Libraries/STM32_USB_Host_Library/Class/HID/Src/usbh_hid.c ****   uint8_t *p;
 859:./Libraries/STM32_USB_Host_Library/Class/HID/Src/usbh_hid.c **** 
 860:./Libraries/STM32_USB_Host_Library/Class/HID/Src/usbh_hid.c ****   p = (uint8_t *) buf;
 2118              		.loc 1 860 5
 2119 000e BB68     		ldr	r3, [r7, #8]
 2120 0010 3B61     		str	r3, [r7, #16]
 861:./Libraries/STM32_USB_Host_Library/Class/HID/Src/usbh_hid.c **** 
 862:./Libraries/STM32_USB_Host_Library/Class/HID/Src/usbh_hid.c ****   if (f->lock == 0U)
 2121              		.loc 1 862 8
 2122 0012 FB68     		ldr	r3, [r7, #12]
 2123 0014 9B7A     		ldrb	r3, [r3, #10]	@ zero_extendqisi2
 2124              		.loc 1 862 6
 2125 0016 002B     		cmp	r3, #0
 2126 0018 3CD1     		bne	.L99
 863:./Libraries/STM32_USB_Host_Library/Class/HID/Src/usbh_hid.c ****   {
 864:./Libraries/STM32_USB_Host_Library/Class/HID/Src/usbh_hid.c ****     f->lock = 1U;
 2127              		.loc 1 864 13
 2128 001a FB68     		ldr	r3, [r7, #12]
 2129 001c 0122     		movs	r2, #1
 2130 001e 9A72     		strb	r2, [r3, #10]
 865:./Libraries/STM32_USB_Host_Library/Class/HID/Src/usbh_hid.c **** 
 866:./Libraries/STM32_USB_Host_Library/Class/HID/Src/usbh_hid.c ****     for (i = 0U; i < nbytes; i++)
 2131              		.loc 1 866 12
 2132 0020 0023     		movs	r3, #0
 2133 0022 FB82     		strh	r3, [r7, #22]	@ movhi
 2134              		.loc 1 866 5
 2135 0024 32E0     		b	.L100
 2136              	.L105:
 867:./Libraries/STM32_USB_Host_Library/Class/HID/Src/usbh_hid.c ****     {
 868:./Libraries/STM32_USB_Host_Library/Class/HID/Src/usbh_hid.c ****       if ((f->head + 1U == f->tail) ||
 2137              		.loc 1 868 13
 2138 0026 FB68     		ldr	r3, [r7, #12]
 2139 0028 9B88     		ldrh	r3, [r3, #4]
 2140              		.loc 1 868 20
 2141 002a 0133     		adds	r3, r3, #1
 2142              		.loc 1 868 29
 2143 002c FA68     		ldr	r2, [r7, #12]
 2144 002e D288     		ldrh	r2, [r2, #6]
 2145              		.loc 1 868 10
 2146 0030 9342     		cmp	r3, r2
 2147 0032 0AD0     		beq	.L101
 869:./Libraries/STM32_USB_Host_Library/Class/HID/Src/usbh_hid.c ****           ((f->head + 1U == f->size) && (f->tail == 0U)))
 2148              		.loc 1 869 14 discriminator 1
 2149 0034 FB68     		ldr	r3, [r7, #12]
 2150 0036 9B88     		ldrh	r3, [r3, #4]
 2151              		.loc 1 869 21 discriminator 1
 2152 0038 0133     		adds	r3, r3, #1
 2153              		.loc 1 869 30 discriminator 1
 2154 003a FA68     		ldr	r2, [r7, #12]
 2155 003c 1289     		ldrh	r2, [r2, #8]
 868:./Libraries/STM32_USB_Host_Library/Class/HID/Src/usbh_hid.c ****           ((f->head + 1U == f->size) && (f->tail == 0U)))
 2156              		.loc 1 868 37 discriminator 1
 2157 003e 9342     		cmp	r3, r2
 2158 0040 08D1     		bne	.L102
ARM GAS  /tmp/ccM6gtS8.s 			page 54


 2159              		.loc 1 869 43
 2160 0042 FB68     		ldr	r3, [r7, #12]
 2161 0044 DB88     		ldrh	r3, [r3, #6]
 2162              		.loc 1 869 38
 2163 0046 002B     		cmp	r3, #0
 2164 0048 04D1     		bne	.L102
 2165              	.L101:
 870:./Libraries/STM32_USB_Host_Library/Class/HID/Src/usbh_hid.c ****       {
 871:./Libraries/STM32_USB_Host_Library/Class/HID/Src/usbh_hid.c ****         f->lock = 0U;
 2166              		.loc 1 871 17
 2167 004a FB68     		ldr	r3, [r7, #12]
 2168 004c 0022     		movs	r2, #0
 2169 004e 9A72     		strb	r2, [r3, #10]
 872:./Libraries/STM32_USB_Host_Library/Class/HID/Src/usbh_hid.c ****         return i;
 2170              		.loc 1 872 16
 2171 0050 FB8A     		ldrh	r3, [r7, #22]
 2172 0052 23E0     		b	.L103
 2173              	.L102:
 873:./Libraries/STM32_USB_Host_Library/Class/HID/Src/usbh_hid.c ****       }
 874:./Libraries/STM32_USB_Host_Library/Class/HID/Src/usbh_hid.c ****       else
 875:./Libraries/STM32_USB_Host_Library/Class/HID/Src/usbh_hid.c ****       {
 876:./Libraries/STM32_USB_Host_Library/Class/HID/Src/usbh_hid.c ****         f->buf[f->head] = *p++;
 2174              		.loc 1 876 29
 2175 0054 3B69     		ldr	r3, [r7, #16]
 2176 0056 5A1C     		adds	r2, r3, #1
 2177 0058 3A61     		str	r2, [r7, #16]
 2178              		.loc 1 876 10
 2179 005a FA68     		ldr	r2, [r7, #12]
 2180 005c 1268     		ldr	r2, [r2]
 2181              		.loc 1 876 17
 2182 005e F968     		ldr	r1, [r7, #12]
 2183 0060 8988     		ldrh	r1, [r1, #4]
 2184              		.loc 1 876 15
 2185 0062 0A44     		add	r2, r2, r1
 2186              		.loc 1 876 27
 2187 0064 1B78     		ldrb	r3, [r3]	@ zero_extendqisi2
 2188              		.loc 1 876 25
 2189 0066 1370     		strb	r3, [r2]
 877:./Libraries/STM32_USB_Host_Library/Class/HID/Src/usbh_hid.c ****         f->head++;
 2190              		.loc 1 877 10
 2191 0068 FB68     		ldr	r3, [r7, #12]
 2192 006a 9B88     		ldrh	r3, [r3, #4]
 2193              		.loc 1 877 16
 2194 006c 0133     		adds	r3, r3, #1
 2195 006e 9AB2     		uxth	r2, r3
 2196 0070 FB68     		ldr	r3, [r7, #12]
 2197 0072 9A80     		strh	r2, [r3, #4]	@ movhi
 878:./Libraries/STM32_USB_Host_Library/Class/HID/Src/usbh_hid.c **** 
 879:./Libraries/STM32_USB_Host_Library/Class/HID/Src/usbh_hid.c ****         if (f->head == f->size)
 2198              		.loc 1 879 14
 2199 0074 FB68     		ldr	r3, [r7, #12]
 2200 0076 9A88     		ldrh	r2, [r3, #4]
 2201              		.loc 1 879 25
 2202 0078 FB68     		ldr	r3, [r7, #12]
 2203 007a 1B89     		ldrh	r3, [r3, #8]
 2204              		.loc 1 879 12
 2205 007c 9A42     		cmp	r2, r3
ARM GAS  /tmp/ccM6gtS8.s 			page 55


 2206 007e 02D1     		bne	.L104
 880:./Libraries/STM32_USB_Host_Library/Class/HID/Src/usbh_hid.c ****         {
 881:./Libraries/STM32_USB_Host_Library/Class/HID/Src/usbh_hid.c ****           f->head = 0U;
 2207              		.loc 1 881 19
 2208 0080 FB68     		ldr	r3, [r7, #12]
 2209 0082 0022     		movs	r2, #0
 2210 0084 9A80     		strh	r2, [r3, #4]	@ movhi
 2211              	.L104:
 866:./Libraries/STM32_USB_Host_Library/Class/HID/Src/usbh_hid.c ****     {
 2212              		.loc 1 866 31 discriminator 2
 2213 0086 FB8A     		ldrh	r3, [r7, #22]
 2214 0088 0133     		adds	r3, r3, #1
 2215 008a FB82     		strh	r3, [r7, #22]	@ movhi
 2216              	.L100:
 866:./Libraries/STM32_USB_Host_Library/Class/HID/Src/usbh_hid.c ****     {
 2217              		.loc 1 866 5 discriminator 1
 2218 008c FA8A     		ldrh	r2, [r7, #22]
 2219 008e FB88     		ldrh	r3, [r7, #6]
 2220 0090 9A42     		cmp	r2, r3
 2221 0092 C8D3     		bcc	.L105
 2222              	.L99:
 882:./Libraries/STM32_USB_Host_Library/Class/HID/Src/usbh_hid.c ****         }
 883:./Libraries/STM32_USB_Host_Library/Class/HID/Src/usbh_hid.c ****       }
 884:./Libraries/STM32_USB_Host_Library/Class/HID/Src/usbh_hid.c ****     }
 885:./Libraries/STM32_USB_Host_Library/Class/HID/Src/usbh_hid.c ****   }
 886:./Libraries/STM32_USB_Host_Library/Class/HID/Src/usbh_hid.c **** 
 887:./Libraries/STM32_USB_Host_Library/Class/HID/Src/usbh_hid.c ****   f->lock = 0U;
 2223              		.loc 1 887 11
 2224 0094 FB68     		ldr	r3, [r7, #12]
 2225 0096 0022     		movs	r2, #0
 2226 0098 9A72     		strb	r2, [r3, #10]
 888:./Libraries/STM32_USB_Host_Library/Class/HID/Src/usbh_hid.c **** 
 889:./Libraries/STM32_USB_Host_Library/Class/HID/Src/usbh_hid.c ****   return nbytes;
 2227              		.loc 1 889 10
 2228 009a FB88     		ldrh	r3, [r7, #6]
 2229              	.L103:
 890:./Libraries/STM32_USB_Host_Library/Class/HID/Src/usbh_hid.c **** }
 2230              		.loc 1 890 1
 2231 009c 1846     		mov	r0, r3
 2232 009e 1C37     		adds	r7, r7, #28
 2233              	.LCFI87:
 2234              		.cfi_def_cfa_offset 4
 2235 00a0 BD46     		mov	sp, r7
 2236              	.LCFI88:
 2237              		.cfi_def_cfa_register 13
 2238              		@ sp needed
 2239 00a2 5DF8047B 		ldr	r7, [sp], #4
 2240              	.LCFI89:
 2241              		.cfi_restore 7
 2242              		.cfi_def_cfa_offset 0
 2243 00a6 7047     		bx	lr
 2244              		.cfi_endproc
 2245              	.LFE354:
 2247              		.section	.text.USBH_HID_EventCallback,"ax",%progbits
 2248              		.align	1
 2249              		.weak	USBH_HID_EventCallback
 2250              		.syntax unified
ARM GAS  /tmp/ccM6gtS8.s 			page 56


 2251              		.thumb
 2252              		.thumb_func
 2253              		.fpu fpv5-d16
 2255              	USBH_HID_EventCallback:
 2256              	.LFB355:
 891:./Libraries/STM32_USB_Host_Library/Class/HID/Src/usbh_hid.c **** 
 892:./Libraries/STM32_USB_Host_Library/Class/HID/Src/usbh_hid.c **** /**
 893:./Libraries/STM32_USB_Host_Library/Class/HID/Src/usbh_hid.c **** * @brief  The function is a callback about HID Data events
 894:./Libraries/STM32_USB_Host_Library/Class/HID/Src/usbh_hid.c **** *  @param  phost: Selected device
 895:./Libraries/STM32_USB_Host_Library/Class/HID/Src/usbh_hid.c **** * @retval None
 896:./Libraries/STM32_USB_Host_Library/Class/HID/Src/usbh_hid.c **** */
 897:./Libraries/STM32_USB_Host_Library/Class/HID/Src/usbh_hid.c **** __weak void USBH_HID_EventCallback(USBH_HandleTypeDef *phost)
 898:./Libraries/STM32_USB_Host_Library/Class/HID/Src/usbh_hid.c **** {
 2257              		.loc 1 898 1
 2258              		.cfi_startproc
 2259              		@ args = 0, pretend = 0, frame = 8
 2260              		@ frame_needed = 1, uses_anonymous_args = 0
 2261              		@ link register save eliminated.
 2262 0000 80B4     		push	{r7}
 2263              	.LCFI90:
 2264              		.cfi_def_cfa_offset 4
 2265              		.cfi_offset 7, -4
 2266 0002 83B0     		sub	sp, sp, #12
 2267              	.LCFI91:
 2268              		.cfi_def_cfa_offset 16
 2269 0004 00AF     		add	r7, sp, #0
 2270              	.LCFI92:
 2271              		.cfi_def_cfa_register 7
 2272 0006 7860     		str	r0, [r7, #4]
 899:./Libraries/STM32_USB_Host_Library/Class/HID/Src/usbh_hid.c ****   /* Prevent unused argument(s) compilation warning */
 900:./Libraries/STM32_USB_Host_Library/Class/HID/Src/usbh_hid.c ****   UNUSED(phost);
 901:./Libraries/STM32_USB_Host_Library/Class/HID/Src/usbh_hid.c **** }
 2273              		.loc 1 901 1
 2274 0008 00BF     		nop
 2275 000a 0C37     		adds	r7, r7, #12
 2276              	.LCFI93:
 2277              		.cfi_def_cfa_offset 4
 2278 000c BD46     		mov	sp, r7
 2279              	.LCFI94:
 2280              		.cfi_def_cfa_register 13
 2281              		@ sp needed
 2282 000e 5DF8047B 		ldr	r7, [sp], #4
 2283              	.LCFI95:
 2284              		.cfi_restore 7
 2285              		.cfi_def_cfa_offset 0
 2286 0012 7047     		bx	lr
 2287              		.cfi_endproc
 2288              	.LFE355:
 2290              		.text
 2291              	.Letext0:
 2292              		.file 2 "/usr/lib/gcc/arm-none-eabi/9.2.1/include/stdint.h"
 2293              		.file 3 "./Libraries/CMSIS/Core/Include/core_cm7.h"
 2294              		.file 4 "./Libraries/CMSIS/Device/ST/STM32H7xx/Include/system_stm32h7xx.h"
 2295              		.file 5 "/usr/lib/gcc/arm-none-eabi/9.2.1/include/stddef.h"
 2296              		.file 6 "/usr/include/newlib/sys/_types.h"
 2297              		.file 7 "/usr/include/newlib/sys/reent.h"
 2298              		.file 8 "/usr/include/newlib/sys/lock.h"
ARM GAS  /tmp/ccM6gtS8.s 			page 57


 2299              		.file 9 "/usr/include/newlib/math.h"
 2300              		.file 10 "./Libraries/STM32H7xx_HAL_Driver/Inc/stm32h7xx_hal_def.h"
 2301              		.file 11 "./Libraries/STM32H7xx_HAL_Driver/Inc/stm32h7xx_hal_flash.h"
 2302              		.file 12 "./Libraries/STM32H7xx_HAL_Driver/Inc/stm32h7xx_hal_uart.h"
 2303              		.file 13 "./Libraries/STM32H7xx_HAL_Driver/Inc/stm32h7xx_hal.h"
 2304              		.file 14 "/usr/include/newlib/stdlib.h"
 2305              		.file 15 "./Libraries/FreeRTOS/Source/CMSIS_RTOS/cmsis_os2.h"
 2306              		.file 16 "./Libraries/STM32_USB_Host_Library/Core/Inc/usbh_def.h"
 2307              		.file 17 "./Libraries/STM32_USB_Host_Library/Core/Inc/usbh_ctlreq.h"
 2308              		.file 18 "./Libraries/STM32_USB_Host_Library/Class/HID/Inc/usbh_hid.h"
ARM GAS  /tmp/ccM6gtS8.s 			page 58


DEFINED SYMBOLS
                            *ABS*:0000000000000000 usbh_hid.c
     /tmp/ccM6gtS8.s:25     .data.HID_Class:0000000000000000 HID_Class
     /tmp/ccM6gtS8.s:18     .rodata:0000000000000000 $d
     /tmp/ccM6gtS8.s:22     .data.HID_Class:0000000000000000 $d
     /tmp/ccM6gtS8.s:43     .text.USBH_HID_InterfaceInit:0000000000000000 USBH_HID_InterfaceInit
     /tmp/ccM6gtS8.s:409    .text.USBH_HID_InterfaceDeInit:0000000000000000 USBH_HID_InterfaceDeInit
     /tmp/ccM6gtS8.s:523    .text.USBH_HID_ClassRequest:0000000000000000 USBH_HID_ClassRequest
     /tmp/ccM6gtS8.s:720    .text.USBH_HID_Process:0000000000000000 USBH_HID_Process
     /tmp/ccM6gtS8.s:1047   .text.USBH_HID_SOFProcess:0000000000000000 USBH_HID_SOFProcess
     /tmp/ccM6gtS8.s:36     .text.USBH_HID_InterfaceInit:0000000000000000 $t
     /tmp/ccM6gtS8.s:397    .text.USBH_HID_InterfaceInit:000000000000024c $d
     /tmp/ccM6gtS8.s:403    .text.USBH_HID_InterfaceDeInit:0000000000000000 $t
     /tmp/ccM6gtS8.s:517    .text.USBH_HID_ClassRequest:0000000000000000 $t
     /tmp/ccM6gtS8.s:562    .text.USBH_HID_ClassRequest:0000000000000028 $d
     /tmp/ccM6gtS8.s:568    .text.USBH_HID_ClassRequest:0000000000000040 $t
     /tmp/ccM6gtS8.s:1564   .text.USBH_HID_ParseHIDDesc:0000000000000000 USBH_HID_ParseHIDDesc
     /tmp/ccM6gtS8.s:1133   .text.USBH_HID_GetHIDReportDescriptor:0000000000000000 USBH_HID_GetHIDReportDescriptor
     /tmp/ccM6gtS8.s:1245   .text.USBH_HID_SetIdle:0000000000000000 USBH_HID_SetIdle
     /tmp/ccM6gtS8.s:1487   .text.USBH_HID_SetProtocol:0000000000000000 USBH_HID_SetProtocol
     /tmp/ccM6gtS8.s:714    .text.USBH_HID_Process:0000000000000000 $t
     /tmp/ccM6gtS8.s:756    .text.USBH_HID_Process:0000000000000028 $d
     /tmp/ccM6gtS8.s:763    .text.USBH_HID_Process:0000000000000044 $t
     /tmp/ccM6gtS8.s:1405   .text.USBH_HID_GetReport:0000000000000000 USBH_HID_GetReport
     /tmp/ccM6gtS8.s:2097   .text.USBH_HID_FifoWrite:0000000000000000 USBH_HID_FifoWrite
     /tmp/ccM6gtS8.s:2255   .text.USBH_HID_EventCallback:0000000000000000 USBH_HID_EventCallback
     /tmp/ccM6gtS8.s:1041   .text.USBH_HID_SOFProcess:0000000000000000 $t
     /tmp/ccM6gtS8.s:1126   .text.USBH_HID_GetHIDReportDescriptor:0000000000000000 $t
     /tmp/ccM6gtS8.s:1182   .text.USBH_HID_GetHIDDescriptor:0000000000000000 $t
     /tmp/ccM6gtS8.s:1189   .text.USBH_HID_GetHIDDescriptor:0000000000000000 USBH_HID_GetHIDDescriptor
     /tmp/ccM6gtS8.s:1238   .text.USBH_HID_SetIdle:0000000000000000 $t
     /tmp/ccM6gtS8.s:1316   .text.USBH_HID_SetReport:0000000000000000 $t
     /tmp/ccM6gtS8.s:1323   .text.USBH_HID_SetReport:0000000000000000 USBH_HID_SetReport
     /tmp/ccM6gtS8.s:1398   .text.USBH_HID_GetReport:0000000000000000 $t
     /tmp/ccM6gtS8.s:1480   .text.USBH_HID_SetProtocol:0000000000000000 $t
     /tmp/ccM6gtS8.s:1558   .text.USBH_HID_ParseHIDDesc:0000000000000000 $t
     /tmp/ccM6gtS8.s:1706   .text.USBH_HID_GetDeviceType:0000000000000000 $t
     /tmp/ccM6gtS8.s:1713   .text.USBH_HID_GetDeviceType:0000000000000000 USBH_HID_GetDeviceType
     /tmp/ccM6gtS8.s:1790   .text.USBH_HID_GetPollInterval:0000000000000000 $t
     /tmp/ccM6gtS8.s:1797   .text.USBH_HID_GetPollInterval:0000000000000000 USBH_HID_GetPollInterval
     /tmp/ccM6gtS8.s:1885   .text.USBH_HID_FifoInit:0000000000000000 $t
     /tmp/ccM6gtS8.s:1892   .text.USBH_HID_FifoInit:0000000000000000 USBH_HID_FifoInit
     /tmp/ccM6gtS8.s:1951   .text.USBH_HID_FifoRead:0000000000000000 $t
     /tmp/ccM6gtS8.s:1958   .text.USBH_HID_FifoRead:0000000000000000 USBH_HID_FifoRead
     /tmp/ccM6gtS8.s:2090   .text.USBH_HID_FifoWrite:0000000000000000 $t
     /tmp/ccM6gtS8.s:2248   .text.USBH_HID_EventCallback:0000000000000000 $t

UNDEFINED SYMBOLS
USBH_FindInterface
USBH_SelectInterface
pvPortMalloc
memset
USBH_AllocPipe
USBH_OpenPipe
USBH_LL_SetToggle
USBH_HID_KeybdInit
USBH_HID_MouseInit
ARM GAS  /tmp/ccM6gtS8.s 			page 59


USBH_ClosePipe
USBH_FreePipe
vPortFree
osMessageQueuePut
USBH_InterruptReceiveData
USBH_LL_GetURBState
USBH_LL_GetLastXferSize
USBH_ClrFeature
USBH_GetDescriptor
USBH_CtlReq
USBH_GetNextDesc
