ARM GAS  /tmp/ccLKNEvV.s 			page 1


   1              		.cpu cortex-m7
   2              		.eabi_attribute 28, 1
   3              		.eabi_attribute 20, 1
   4              		.eabi_attribute 21, 1
   5              		.eabi_attribute 23, 3
   6              		.eabi_attribute 24, 1
   7              		.eabi_attribute 25, 1
   8              		.eabi_attribute 26, 1
   9              		.eabi_attribute 30, 2
  10              		.eabi_attribute 34, 1
  11              		.eabi_attribute 18, 4
  12              		.file	"usbh_core.c"
  13              		.text
  14              	.Ltext0:
  15              		.cfi_sections	.debug_frame
  16              		.section	.rodata.USBH_Init.str1.4,"aMS",%progbits,1
  17              		.align	2
  18              	.LC0:
  19 0000 55534248 		.ascii	"USBH_Queue\000"
  19      5F517565 
  19      756500
  20              		.section	.text.USBH_Init,"ax",%progbits
  21              		.align	1
  22              		.p2align 2,,3
  23              		.global	USBH_Init
  24              		.arch armv7e-m
  25              		.syntax unified
  26              		.thumb
  27              		.thumb_func
  28              		.fpu fpv5-d16
  30              	USBH_Init:
  31              	.LVL0:
  32              	.LFB338:
  33              		.file 1 "./Libraries/STM32_USB_Host_Library/Core/Src/usbh_core.c"
   1:./Libraries/STM32_USB_Host_Library/Core/Src/usbh_core.c **** /**
   2:./Libraries/STM32_USB_Host_Library/Core/Src/usbh_core.c ****   ******************************************************************************
   3:./Libraries/STM32_USB_Host_Library/Core/Src/usbh_core.c ****   * @file    usbh_core.c
   4:./Libraries/STM32_USB_Host_Library/Core/Src/usbh_core.c ****   * @author  MCD Application Team
   5:./Libraries/STM32_USB_Host_Library/Core/Src/usbh_core.c ****   * @brief   This file implements the functions for the core state machine process
   6:./Libraries/STM32_USB_Host_Library/Core/Src/usbh_core.c ****   *          the enumeration and the control transfer process
   7:./Libraries/STM32_USB_Host_Library/Core/Src/usbh_core.c ****   ******************************************************************************
   8:./Libraries/STM32_USB_Host_Library/Core/Src/usbh_core.c ****   * @attention
   9:./Libraries/STM32_USB_Host_Library/Core/Src/usbh_core.c ****   *
  10:./Libraries/STM32_USB_Host_Library/Core/Src/usbh_core.c ****   * <h2><center>&copy; Copyright (c) 2015 STMicroelectronics.
  11:./Libraries/STM32_USB_Host_Library/Core/Src/usbh_core.c ****   * All rights reserved.</center></h2>
  12:./Libraries/STM32_USB_Host_Library/Core/Src/usbh_core.c ****   *
  13:./Libraries/STM32_USB_Host_Library/Core/Src/usbh_core.c ****   * This software component is licensed by ST under Ultimate Liberty license
  14:./Libraries/STM32_USB_Host_Library/Core/Src/usbh_core.c ****   * SLA0044, the "License"; You may not use this file except in compliance with
  15:./Libraries/STM32_USB_Host_Library/Core/Src/usbh_core.c ****   * the License. You may obtain a copy of the License at:
  16:./Libraries/STM32_USB_Host_Library/Core/Src/usbh_core.c ****   *                      www.st.com/SLA0044
  17:./Libraries/STM32_USB_Host_Library/Core/Src/usbh_core.c ****   *
  18:./Libraries/STM32_USB_Host_Library/Core/Src/usbh_core.c ****   ******************************************************************************
  19:./Libraries/STM32_USB_Host_Library/Core/Src/usbh_core.c ****   */
  20:./Libraries/STM32_USB_Host_Library/Core/Src/usbh_core.c **** 
  21:./Libraries/STM32_USB_Host_Library/Core/Src/usbh_core.c **** /* Includes ------------------------------------------------------------------*/
  22:./Libraries/STM32_USB_Host_Library/Core/Src/usbh_core.c **** #include "usbh_core.h"
  23:./Libraries/STM32_USB_Host_Library/Core/Src/usbh_core.c **** 
ARM GAS  /tmp/ccLKNEvV.s 			page 2


  24:./Libraries/STM32_USB_Host_Library/Core/Src/usbh_core.c **** 
  25:./Libraries/STM32_USB_Host_Library/Core/Src/usbh_core.c **** /** @addtogroup USBH_LIB
  26:./Libraries/STM32_USB_Host_Library/Core/Src/usbh_core.c ****   * @{
  27:./Libraries/STM32_USB_Host_Library/Core/Src/usbh_core.c ****   */
  28:./Libraries/STM32_USB_Host_Library/Core/Src/usbh_core.c **** 
  29:./Libraries/STM32_USB_Host_Library/Core/Src/usbh_core.c **** /** @addtogroup USBH_LIB_CORE
  30:./Libraries/STM32_USB_Host_Library/Core/Src/usbh_core.c ****   * @{
  31:./Libraries/STM32_USB_Host_Library/Core/Src/usbh_core.c ****   */
  32:./Libraries/STM32_USB_Host_Library/Core/Src/usbh_core.c **** 
  33:./Libraries/STM32_USB_Host_Library/Core/Src/usbh_core.c **** /** @defgroup USBH_CORE
  34:./Libraries/STM32_USB_Host_Library/Core/Src/usbh_core.c ****   * @brief This file handles the basic enumeration when a device is connected
  35:./Libraries/STM32_USB_Host_Library/Core/Src/usbh_core.c ****   *          to the host.
  36:./Libraries/STM32_USB_Host_Library/Core/Src/usbh_core.c ****   * @{
  37:./Libraries/STM32_USB_Host_Library/Core/Src/usbh_core.c ****   */
  38:./Libraries/STM32_USB_Host_Library/Core/Src/usbh_core.c **** 
  39:./Libraries/STM32_USB_Host_Library/Core/Src/usbh_core.c **** 
  40:./Libraries/STM32_USB_Host_Library/Core/Src/usbh_core.c **** /** @defgroup USBH_CORE_Private_Defines
  41:./Libraries/STM32_USB_Host_Library/Core/Src/usbh_core.c ****   * @{
  42:./Libraries/STM32_USB_Host_Library/Core/Src/usbh_core.c ****   */
  43:./Libraries/STM32_USB_Host_Library/Core/Src/usbh_core.c **** #define USBH_ADDRESS_DEFAULT                     0x00U
  44:./Libraries/STM32_USB_Host_Library/Core/Src/usbh_core.c **** #define USBH_ADDRESS_ASSIGNED                    0x01U
  45:./Libraries/STM32_USB_Host_Library/Core/Src/usbh_core.c **** #define USBH_MPS_DEFAULT                         0x40U
  46:./Libraries/STM32_USB_Host_Library/Core/Src/usbh_core.c **** /**
  47:./Libraries/STM32_USB_Host_Library/Core/Src/usbh_core.c ****   * @}
  48:./Libraries/STM32_USB_Host_Library/Core/Src/usbh_core.c ****   */
  49:./Libraries/STM32_USB_Host_Library/Core/Src/usbh_core.c **** 
  50:./Libraries/STM32_USB_Host_Library/Core/Src/usbh_core.c **** /** @defgroup USBH_CORE_Private_Macros
  51:./Libraries/STM32_USB_Host_Library/Core/Src/usbh_core.c ****   * @{
  52:./Libraries/STM32_USB_Host_Library/Core/Src/usbh_core.c ****   */
  53:./Libraries/STM32_USB_Host_Library/Core/Src/usbh_core.c **** /**
  54:./Libraries/STM32_USB_Host_Library/Core/Src/usbh_core.c ****   * @}
  55:./Libraries/STM32_USB_Host_Library/Core/Src/usbh_core.c ****   */
  56:./Libraries/STM32_USB_Host_Library/Core/Src/usbh_core.c **** 
  57:./Libraries/STM32_USB_Host_Library/Core/Src/usbh_core.c **** 
  58:./Libraries/STM32_USB_Host_Library/Core/Src/usbh_core.c **** /** @defgroup USBH_CORE_Private_Variables
  59:./Libraries/STM32_USB_Host_Library/Core/Src/usbh_core.c ****   * @{
  60:./Libraries/STM32_USB_Host_Library/Core/Src/usbh_core.c ****   */
  61:./Libraries/STM32_USB_Host_Library/Core/Src/usbh_core.c **** #if (USBH_USE_OS == 1U)
  62:./Libraries/STM32_USB_Host_Library/Core/Src/usbh_core.c **** #if (osCMSIS >= 0x20000U)
  63:./Libraries/STM32_USB_Host_Library/Core/Src/usbh_core.c **** osThreadAttr_t USBH_Thread_Atrr;
  64:./Libraries/STM32_USB_Host_Library/Core/Src/usbh_core.c **** #endif
  65:./Libraries/STM32_USB_Host_Library/Core/Src/usbh_core.c **** #endif
  66:./Libraries/STM32_USB_Host_Library/Core/Src/usbh_core.c **** 
  67:./Libraries/STM32_USB_Host_Library/Core/Src/usbh_core.c **** 
  68:./Libraries/STM32_USB_Host_Library/Core/Src/usbh_core.c **** /**
  69:./Libraries/STM32_USB_Host_Library/Core/Src/usbh_core.c ****   * @}
  70:./Libraries/STM32_USB_Host_Library/Core/Src/usbh_core.c ****   */
  71:./Libraries/STM32_USB_Host_Library/Core/Src/usbh_core.c **** 
  72:./Libraries/STM32_USB_Host_Library/Core/Src/usbh_core.c **** 
  73:./Libraries/STM32_USB_Host_Library/Core/Src/usbh_core.c **** /** @defgroup USBH_CORE_Private_Functions
  74:./Libraries/STM32_USB_Host_Library/Core/Src/usbh_core.c ****   * @{
  75:./Libraries/STM32_USB_Host_Library/Core/Src/usbh_core.c ****   */
  76:./Libraries/STM32_USB_Host_Library/Core/Src/usbh_core.c **** static USBH_StatusTypeDef USBH_HandleEnum(USBH_HandleTypeDef *phost);
  77:./Libraries/STM32_USB_Host_Library/Core/Src/usbh_core.c **** static void USBH_HandleSof(USBH_HandleTypeDef *phost);
  78:./Libraries/STM32_USB_Host_Library/Core/Src/usbh_core.c **** static USBH_StatusTypeDef DeInitStateMachine(USBH_HandleTypeDef *phost);
  79:./Libraries/STM32_USB_Host_Library/Core/Src/usbh_core.c **** 
  80:./Libraries/STM32_USB_Host_Library/Core/Src/usbh_core.c **** #if (USBH_USE_OS == 1U)
ARM GAS  /tmp/ccLKNEvV.s 			page 3


  81:./Libraries/STM32_USB_Host_Library/Core/Src/usbh_core.c **** #if (osCMSIS < 0x20000U)
  82:./Libraries/STM32_USB_Host_Library/Core/Src/usbh_core.c **** static void USBH_Process_OS(void const *argument);
  83:./Libraries/STM32_USB_Host_Library/Core/Src/usbh_core.c **** #else
  84:./Libraries/STM32_USB_Host_Library/Core/Src/usbh_core.c **** static void USBH_Process_OS(void *argument);
  85:./Libraries/STM32_USB_Host_Library/Core/Src/usbh_core.c **** #endif
  86:./Libraries/STM32_USB_Host_Library/Core/Src/usbh_core.c **** #endif
  87:./Libraries/STM32_USB_Host_Library/Core/Src/usbh_core.c **** 
  88:./Libraries/STM32_USB_Host_Library/Core/Src/usbh_core.c **** 
  89:./Libraries/STM32_USB_Host_Library/Core/Src/usbh_core.c **** /**
  90:./Libraries/STM32_USB_Host_Library/Core/Src/usbh_core.c ****   * @brief  HCD_Init
  91:./Libraries/STM32_USB_Host_Library/Core/Src/usbh_core.c ****   *         Initialize the HOST Core.
  92:./Libraries/STM32_USB_Host_Library/Core/Src/usbh_core.c ****   * @param  phost: Host Handle
  93:./Libraries/STM32_USB_Host_Library/Core/Src/usbh_core.c ****   * @param  pUsrFunc: User Callback
  94:./Libraries/STM32_USB_Host_Library/Core/Src/usbh_core.c ****   * @retval USBH Status
  95:./Libraries/STM32_USB_Host_Library/Core/Src/usbh_core.c ****   */
  96:./Libraries/STM32_USB_Host_Library/Core/Src/usbh_core.c **** USBH_StatusTypeDef  USBH_Init(USBH_HandleTypeDef *phost,
  97:./Libraries/STM32_USB_Host_Library/Core/Src/usbh_core.c ****                               void (*pUsrFunc)(USBH_HandleTypeDef *phost,
  98:./Libraries/STM32_USB_Host_Library/Core/Src/usbh_core.c ****                               uint8_t id), uint8_t id)
  99:./Libraries/STM32_USB_Host_Library/Core/Src/usbh_core.c **** {
  34              		.loc 1 99 1 view -0
  35              		.cfi_startproc
  36              		@ args = 0, pretend = 0, frame = 0
  37              		@ frame_needed = 0, uses_anonymous_args = 0
 100:./Libraries/STM32_USB_Host_Library/Core/Src/usbh_core.c ****   /* Check whether the USB Host handle is valid */
 101:./Libraries/STM32_USB_Host_Library/Core/Src/usbh_core.c ****   if (phost == NULL)
  38              		.loc 1 101 3 view .LVU1
  39              		.loc 1 101 6 is_stmt 0 view .LVU2
  40 0000 0028     		cmp	r0, #0
  41 0002 4DD0     		beq	.L6
  99:./Libraries/STM32_USB_Host_Library/Core/Src/usbh_core.c ****   /* Check whether the USB Host handle is valid */
  42              		.loc 1 99 1 view .LVU3
  43 0004 38B5     		push	{r3, r4, r5, lr}
  44              	.LCFI0:
  45              		.cfi_def_cfa_offset 16
  46              		.cfi_offset 3, -16
  47              		.cfi_offset 4, -12
  48              		.cfi_offset 5, -8
  49              		.cfi_offset 14, -4
  50 0006 0546     		mov	r5, r0
 102:./Libraries/STM32_USB_Host_Library/Core/Src/usbh_core.c ****   {
 103:./Libraries/STM32_USB_Host_Library/Core/Src/usbh_core.c ****     USBH_ErrLog("Invalid Host handle");
 104:./Libraries/STM32_USB_Host_Library/Core/Src/usbh_core.c ****     return USBH_FAIL;
 105:./Libraries/STM32_USB_Host_Library/Core/Src/usbh_core.c ****   }
 106:./Libraries/STM32_USB_Host_Library/Core/Src/usbh_core.c **** 
 107:./Libraries/STM32_USB_Host_Library/Core/Src/usbh_core.c ****   /* Set DRiver ID */
 108:./Libraries/STM32_USB_Host_Library/Core/Src/usbh_core.c ****   phost->id = id;
  51              		.loc 1 108 3 is_stmt 1 view .LVU4
 109:./Libraries/STM32_USB_Host_Library/Core/Src/usbh_core.c **** 
 110:./Libraries/STM32_USB_Host_Library/Core/Src/usbh_core.c ****   /* Unlink class*/
 111:./Libraries/STM32_USB_Host_Library/Core/Src/usbh_core.c ****   phost->pActiveClass = NULL;
  52              		.loc 1 111 23 is_stmt 0 view .LVU5
  53 0008 0024     		movs	r4, #0
  54 000a 00F59063 		add	r3, r0, #1152
  55 000e 00F2BC40 		addw	r0, r0, #1212
  56              	.LVL1:
 108:./Libraries/STM32_USB_Host_Library/Core/Src/usbh_core.c **** 
  57              		.loc 1 108 13 view .LVU6
ARM GAS  /tmp/ccLKNEvV.s 			page 4


  58 0012 85F8CC24 		strb	r2, [r5, #1228]
  59              		.loc 1 111 3 is_stmt 1 view .LVU7
  60              	.LBB14:
  61              	.LBB15:
 112:./Libraries/STM32_USB_Host_Library/Core/Src/usbh_core.c ****   phost->ClassNumber = 0U;
 113:./Libraries/STM32_USB_Host_Library/Core/Src/usbh_core.c **** 
 114:./Libraries/STM32_USB_Host_Library/Core/Src/usbh_core.c ****   /* Restore default states and prepare EP0 */
 115:./Libraries/STM32_USB_Host_Library/Core/Src/usbh_core.c ****   DeInitStateMachine(phost);
 116:./Libraries/STM32_USB_Host_Library/Core/Src/usbh_core.c **** 
 117:./Libraries/STM32_USB_Host_Library/Core/Src/usbh_core.c ****   /* Restore default Device connection states */
 118:./Libraries/STM32_USB_Host_Library/Core/Src/usbh_core.c ****   phost->device.PortEnabled = 0U;
 119:./Libraries/STM32_USB_Host_Library/Core/Src/usbh_core.c ****   phost->device.is_connected = 0U;
 120:./Libraries/STM32_USB_Host_Library/Core/Src/usbh_core.c ****   phost->device.is_disconnected = 0U;
 121:./Libraries/STM32_USB_Host_Library/Core/Src/usbh_core.c ****   phost->device.is_ReEnumerated = 0U;
 122:./Libraries/STM32_USB_Host_Library/Core/Src/usbh_core.c **** 
 123:./Libraries/STM32_USB_Host_Library/Core/Src/usbh_core.c ****   /* Assign User process */
 124:./Libraries/STM32_USB_Host_Library/Core/Src/usbh_core.c ****   if (pUsrFunc != NULL)
 125:./Libraries/STM32_USB_Host_Library/Core/Src/usbh_core.c ****   {
 126:./Libraries/STM32_USB_Host_Library/Core/Src/usbh_core.c ****     phost->pUser = pUsrFunc;
 127:./Libraries/STM32_USB_Host_Library/Core/Src/usbh_core.c ****   }
 128:./Libraries/STM32_USB_Host_Library/Core/Src/usbh_core.c **** 
 129:./Libraries/STM32_USB_Host_Library/Core/Src/usbh_core.c **** #if (USBH_USE_OS == 1U)
 130:./Libraries/STM32_USB_Host_Library/Core/Src/usbh_core.c **** #if (osCMSIS < 0x20000U)
 131:./Libraries/STM32_USB_Host_Library/Core/Src/usbh_core.c **** 
 132:./Libraries/STM32_USB_Host_Library/Core/Src/usbh_core.c ****   /* Create USB Host Queue */
 133:./Libraries/STM32_USB_Host_Library/Core/Src/usbh_core.c ****   osMessageQDef(USBH_Queue, MSGQUEUE_OBJECTS, uint16_t);
 134:./Libraries/STM32_USB_Host_Library/Core/Src/usbh_core.c ****   phost->os_event = osMessageCreate(osMessageQ(USBH_Queue), NULL);
 135:./Libraries/STM32_USB_Host_Library/Core/Src/usbh_core.c **** 
 136:./Libraries/STM32_USB_Host_Library/Core/Src/usbh_core.c ****   /* Create USB Host Task */
 137:./Libraries/STM32_USB_Host_Library/Core/Src/usbh_core.c **** #if defined (USBH_PROCESS_STACK_SIZE)
 138:./Libraries/STM32_USB_Host_Library/Core/Src/usbh_core.c ****   osThreadDef(USBH_Thread, USBH_Process_OS, USBH_PROCESS_PRIO, 0U, USBH_PROCESS_STACK_SIZE);
 139:./Libraries/STM32_USB_Host_Library/Core/Src/usbh_core.c **** #else
 140:./Libraries/STM32_USB_Host_Library/Core/Src/usbh_core.c ****   osThreadDef(USBH_Thread, USBH_Process_OS, USBH_PROCESS_PRIO, 0U, 8U * configMINIMAL_STACK_SIZE);
 141:./Libraries/STM32_USB_Host_Library/Core/Src/usbh_core.c **** #endif /* defined (USBH_PROCESS_STACK_SIZE) */
 142:./Libraries/STM32_USB_Host_Library/Core/Src/usbh_core.c **** 
 143:./Libraries/STM32_USB_Host_Library/Core/Src/usbh_core.c ****   phost->thread = osThreadCreate(osThread(USBH_Thread), phost);
 144:./Libraries/STM32_USB_Host_Library/Core/Src/usbh_core.c **** 
 145:./Libraries/STM32_USB_Host_Library/Core/Src/usbh_core.c **** #else
 146:./Libraries/STM32_USB_Host_Library/Core/Src/usbh_core.c **** 
 147:./Libraries/STM32_USB_Host_Library/Core/Src/usbh_core.c ****   /* Create USB Host Queue */
 148:./Libraries/STM32_USB_Host_Library/Core/Src/usbh_core.c ****   phost->os_event = osMessageQueueNew(MSGQUEUE_OBJECTS, sizeof(uint32_t), NULL);
 149:./Libraries/STM32_USB_Host_Library/Core/Src/usbh_core.c **** 
 150:./Libraries/STM32_USB_Host_Library/Core/Src/usbh_core.c ****   /* Create USB Host Task */
 151:./Libraries/STM32_USB_Host_Library/Core/Src/usbh_core.c ****   USBH_Thread_Atrr.name = "USBH_Queue";
 152:./Libraries/STM32_USB_Host_Library/Core/Src/usbh_core.c **** 
 153:./Libraries/STM32_USB_Host_Library/Core/Src/usbh_core.c **** #if defined (USBH_PROCESS_STACK_SIZE)
 154:./Libraries/STM32_USB_Host_Library/Core/Src/usbh_core.c ****   USBH_Thread_Atrr.stack_size = USBH_PROCESS_STACK_SIZE;
 155:./Libraries/STM32_USB_Host_Library/Core/Src/usbh_core.c **** #else
 156:./Libraries/STM32_USB_Host_Library/Core/Src/usbh_core.c ****   USBH_Thread_Atrr.stack_size = (8U * configMINIMAL_STACK_SIZE);
 157:./Libraries/STM32_USB_Host_Library/Core/Src/usbh_core.c **** #endif /* defined (USBH_PROCESS_STACK_SIZE) */
 158:./Libraries/STM32_USB_Host_Library/Core/Src/usbh_core.c **** 
 159:./Libraries/STM32_USB_Host_Library/Core/Src/usbh_core.c ****   USBH_Thread_Atrr.priority = USBH_PROCESS_PRIO;
 160:./Libraries/STM32_USB_Host_Library/Core/Src/usbh_core.c ****   phost->thread = osThreadNew(USBH_Process_OS, phost, &USBH_Thread_Atrr);
 161:./Libraries/STM32_USB_Host_Library/Core/Src/usbh_core.c **** 
 162:./Libraries/STM32_USB_Host_Library/Core/Src/usbh_core.c **** #endif /* (osCMSIS < 0x20000U) */
 163:./Libraries/STM32_USB_Host_Library/Core/Src/usbh_core.c **** #endif /* (USBH_USE_OS == 1U) */
 164:./Libraries/STM32_USB_Host_Library/Core/Src/usbh_core.c **** 
ARM GAS  /tmp/ccLKNEvV.s 			page 5


 165:./Libraries/STM32_USB_Host_Library/Core/Src/usbh_core.c ****   /* Initialize low level driver */
 166:./Libraries/STM32_USB_Host_Library/Core/Src/usbh_core.c ****   USBH_LL_Init(phost);
 167:./Libraries/STM32_USB_Host_Library/Core/Src/usbh_core.c **** 
 168:./Libraries/STM32_USB_Host_Library/Core/Src/usbh_core.c ****   return USBH_OK;
 169:./Libraries/STM32_USB_Host_Library/Core/Src/usbh_core.c **** }
 170:./Libraries/STM32_USB_Host_Library/Core/Src/usbh_core.c **** 
 171:./Libraries/STM32_USB_Host_Library/Core/Src/usbh_core.c **** 
 172:./Libraries/STM32_USB_Host_Library/Core/Src/usbh_core.c **** /**
 173:./Libraries/STM32_USB_Host_Library/Core/Src/usbh_core.c ****   * @brief  HCD_Init
 174:./Libraries/STM32_USB_Host_Library/Core/Src/usbh_core.c ****   *         De-Initialize the Host portion of the driver.
 175:./Libraries/STM32_USB_Host_Library/Core/Src/usbh_core.c ****   * @param  phost: Host Handle
 176:./Libraries/STM32_USB_Host_Library/Core/Src/usbh_core.c ****   * @retval USBH Status
 177:./Libraries/STM32_USB_Host_Library/Core/Src/usbh_core.c ****   */
 178:./Libraries/STM32_USB_Host_Library/Core/Src/usbh_core.c **** USBH_StatusTypeDef USBH_DeInit(USBH_HandleTypeDef *phost)
 179:./Libraries/STM32_USB_Host_Library/Core/Src/usbh_core.c **** {
 180:./Libraries/STM32_USB_Host_Library/Core/Src/usbh_core.c ****   DeInitStateMachine(phost);
 181:./Libraries/STM32_USB_Host_Library/Core/Src/usbh_core.c **** 
 182:./Libraries/STM32_USB_Host_Library/Core/Src/usbh_core.c ****   /* Restore default Device connection states */
 183:./Libraries/STM32_USB_Host_Library/Core/Src/usbh_core.c ****   phost->device.PortEnabled = 0U;
 184:./Libraries/STM32_USB_Host_Library/Core/Src/usbh_core.c ****   phost->device.is_connected = 0U;
 185:./Libraries/STM32_USB_Host_Library/Core/Src/usbh_core.c ****   phost->device.is_disconnected = 0U;
 186:./Libraries/STM32_USB_Host_Library/Core/Src/usbh_core.c ****   phost->device.is_ReEnumerated = 0U;
 187:./Libraries/STM32_USB_Host_Library/Core/Src/usbh_core.c ****   phost->device.RstCnt = 0U;
 188:./Libraries/STM32_USB_Host_Library/Core/Src/usbh_core.c ****   phost->device.EnumCnt = 0U;
 189:./Libraries/STM32_USB_Host_Library/Core/Src/usbh_core.c **** 
 190:./Libraries/STM32_USB_Host_Library/Core/Src/usbh_core.c ****   if (phost->pData != NULL)
 191:./Libraries/STM32_USB_Host_Library/Core/Src/usbh_core.c ****   {
 192:./Libraries/STM32_USB_Host_Library/Core/Src/usbh_core.c ****     USBH_LL_Stop(phost);
 193:./Libraries/STM32_USB_Host_Library/Core/Src/usbh_core.c ****   }
 194:./Libraries/STM32_USB_Host_Library/Core/Src/usbh_core.c **** 
 195:./Libraries/STM32_USB_Host_Library/Core/Src/usbh_core.c ****   return USBH_OK;
 196:./Libraries/STM32_USB_Host_Library/Core/Src/usbh_core.c **** }
 197:./Libraries/STM32_USB_Host_Library/Core/Src/usbh_core.c **** 
 198:./Libraries/STM32_USB_Host_Library/Core/Src/usbh_core.c **** 
 199:./Libraries/STM32_USB_Host_Library/Core/Src/usbh_core.c **** /**
 200:./Libraries/STM32_USB_Host_Library/Core/Src/usbh_core.c ****   * @brief  DeInitStateMachine
 201:./Libraries/STM32_USB_Host_Library/Core/Src/usbh_core.c ****   *         De-Initialize the Host state machine.
 202:./Libraries/STM32_USB_Host_Library/Core/Src/usbh_core.c ****   * @param  phost: Host Handle
 203:./Libraries/STM32_USB_Host_Library/Core/Src/usbh_core.c ****   * @retval USBH Status
 204:./Libraries/STM32_USB_Host_Library/Core/Src/usbh_core.c ****   */
 205:./Libraries/STM32_USB_Host_Library/Core/Src/usbh_core.c **** static USBH_StatusTypeDef DeInitStateMachine(USBH_HandleTypeDef *phost)
 206:./Libraries/STM32_USB_Host_Library/Core/Src/usbh_core.c **** {
 207:./Libraries/STM32_USB_Host_Library/Core/Src/usbh_core.c ****   uint32_t i = 0U;
 208:./Libraries/STM32_USB_Host_Library/Core/Src/usbh_core.c **** 
 209:./Libraries/STM32_USB_Host_Library/Core/Src/usbh_core.c ****   /* Clear Pipes flags*/
 210:./Libraries/STM32_USB_Host_Library/Core/Src/usbh_core.c ****   for (i = 0U; i < USBH_MAX_PIPES_NBR; i++)
 211:./Libraries/STM32_USB_Host_Library/Core/Src/usbh_core.c ****   {
 212:./Libraries/STM32_USB_Host_Library/Core/Src/usbh_core.c ****     phost->Pipes[i] = 0U;
  62              		.loc 1 212 21 is_stmt 0 view .LVU8
  63 0016 2246     		mov	r2, r4
  64              	.LVL2:
  65              		.loc 1 212 21 view .LVU9
  66              	.LBE15:
  67              	.LBE14:
 111:./Libraries/STM32_USB_Host_Library/Core/Src/usbh_core.c ****   phost->ClassNumber = 0U;
  68              		.loc 1 111 23 view .LVU10
  69 0018 C5F87C44 		str	r4, [r5, #1148]
ARM GAS  /tmp/ccLKNEvV.s 			page 6


 112:./Libraries/STM32_USB_Host_Library/Core/Src/usbh_core.c ****   phost->ClassNumber = 0U;
  70              		.loc 1 112 3 is_stmt 1 view .LVU11
 112:./Libraries/STM32_USB_Host_Library/Core/Src/usbh_core.c ****   phost->ClassNumber = 0U;
  71              		.loc 1 112 22 is_stmt 0 view .LVU12
  72 001c C5F88044 		str	r4, [r5, #1152]
 115:./Libraries/STM32_USB_Host_Library/Core/Src/usbh_core.c **** 
  73              		.loc 1 115 3 is_stmt 1 view .LVU13
  74              	.LVL3:
  75              	.LBB20:
  76              	.LBI14:
 205:./Libraries/STM32_USB_Host_Library/Core/Src/usbh_core.c **** {
  77              		.loc 1 205 27 view .LVU14
  78              	.LBB16:
 207:./Libraries/STM32_USB_Host_Library/Core/Src/usbh_core.c **** 
  79              		.loc 1 207 3 view .LVU15
 210:./Libraries/STM32_USB_Host_Library/Core/Src/usbh_core.c ****   {
  80              		.loc 1 210 3 view .LVU16
 210:./Libraries/STM32_USB_Host_Library/Core/Src/usbh_core.c ****   {
  81              		.loc 1 210 16 view .LVU17
  82              	.L3:
  83              		.loc 1 212 5 view .LVU18
  84              		.loc 1 212 21 is_stmt 0 view .LVU19
  85 0020 43F8042F 		str	r2, [r3, #4]!
 210:./Libraries/STM32_USB_Host_Library/Core/Src/usbh_core.c ****   {
  86              		.loc 1 210 40 is_stmt 1 view .LVU20
 210:./Libraries/STM32_USB_Host_Library/Core/Src/usbh_core.c ****   {
  87              		.loc 1 210 16 view .LVU21
 210:./Libraries/STM32_USB_Host_Library/Core/Src/usbh_core.c ****   {
  88              		.loc 1 210 3 is_stmt 0 view .LVU22
  89 0024 8342     		cmp	r3, r0
  90 0026 FBD1     		bne	.L3
  91 0028 05F21B23 		addw	r3, r5, #539
  92 002c 05F21B44 		addw	r4, r5, #1051
 213:./Libraries/STM32_USB_Host_Library/Core/Src/usbh_core.c ****   }
 214:./Libraries/STM32_USB_Host_Library/Core/Src/usbh_core.c **** 
 215:./Libraries/STM32_USB_Host_Library/Core/Src/usbh_core.c ****   for (i = 0U; i < USBH_MAX_DATA_BUFFER; i++)
 216:./Libraries/STM32_USB_Host_Library/Core/Src/usbh_core.c ****   {
 217:./Libraries/STM32_USB_Host_Library/Core/Src/usbh_core.c ****     phost->device.Data[i] = 0U;
  93              		.loc 1 217 27 view .LVU23
  94 0030 0022     		movs	r2, #0
  95              	.L4:
  96              		.loc 1 217 5 is_stmt 1 view .LVU24
  97              		.loc 1 217 27 is_stmt 0 view .LVU25
  98 0032 03F8012F 		strb	r2, [r3, #1]!
 215:./Libraries/STM32_USB_Host_Library/Core/Src/usbh_core.c ****   {
  99              		.loc 1 215 42 is_stmt 1 view .LVU26
 215:./Libraries/STM32_USB_Host_Library/Core/Src/usbh_core.c ****   {
 100              		.loc 1 215 16 view .LVU27
 215:./Libraries/STM32_USB_Host_Library/Core/Src/usbh_core.c ****   {
 101              		.loc 1 215 3 is_stmt 0 view .LVU28
 102 0036 A342     		cmp	r3, r4
 103 0038 FBD1     		bne	.L4
 218:./Libraries/STM32_USB_Host_Library/Core/Src/usbh_core.c ****   }
 219:./Libraries/STM32_USB_Host_Library/Core/Src/usbh_core.c **** 
 220:./Libraries/STM32_USB_Host_Library/Core/Src/usbh_core.c ****   phost->gState = HOST_IDLE;
 104              		.loc 1 220 3 is_stmt 1 view .LVU29
 221:./Libraries/STM32_USB_Host_Library/Core/Src/usbh_core.c ****   phost->EnumState = ENUM_IDLE;
ARM GAS  /tmp/ccLKNEvV.s 			page 7


 222:./Libraries/STM32_USB_Host_Library/Core/Src/usbh_core.c ****   phost->RequestState = CMD_SEND;
 105              		.loc 1 222 23 is_stmt 0 view .LVU30
 106 003a 0123     		movs	r3, #1
 223:./Libraries/STM32_USB_Host_Library/Core/Src/usbh_core.c ****   phost->Timer = 0U;
 224:./Libraries/STM32_USB_Host_Library/Core/Src/usbh_core.c **** 
 225:./Libraries/STM32_USB_Host_Library/Core/Src/usbh_core.c ****   phost->Control.state = CTRL_SETUP;
 226:./Libraries/STM32_USB_Host_Library/Core/Src/usbh_core.c ****   phost->Control.pipe_size = USBH_MPS_DEFAULT;
 107              		.loc 1 226 28 view .LVU31
 108 003c 4024     		movs	r4, #64
 227:./Libraries/STM32_USB_Host_Library/Core/Src/usbh_core.c ****   phost->Control.errorcount = 0U;
 228:./Libraries/STM32_USB_Host_Library/Core/Src/usbh_core.c **** 
 229:./Libraries/STM32_USB_Host_Library/Core/Src/usbh_core.c ****   phost->device.address = USBH_ADDRESS_DEFAULT;
 109              		.loc 1 229 25 view .LVU32
 110 003e 4FF48070 		mov	r0, #256
 220:./Libraries/STM32_USB_Host_Library/Core/Src/usbh_core.c ****   phost->EnumState = ENUM_IDLE;
 111              		.loc 1 220 17 view .LVU33
 112 0042 2A70     		strb	r2, [r5]
 221:./Libraries/STM32_USB_Host_Library/Core/Src/usbh_core.c ****   phost->RequestState = CMD_SEND;
 113              		.loc 1 221 3 is_stmt 1 view .LVU34
 221:./Libraries/STM32_USB_Host_Library/Core/Src/usbh_core.c ****   phost->RequestState = CMD_SEND;
 114              		.loc 1 221 20 is_stmt 0 view .LVU35
 115 0044 6A70     		strb	r2, [r5, #1]
 222:./Libraries/STM32_USB_Host_Library/Core/Src/usbh_core.c ****   phost->Timer = 0U;
 116              		.loc 1 222 3 is_stmt 1 view .LVU36
 223:./Libraries/STM32_USB_Host_Library/Core/Src/usbh_core.c **** 
 117              		.loc 1 223 16 is_stmt 0 view .LVU37
 118 0046 C5F8C424 		str	r2, [r5, #1220]
 119              	.LBE16:
 120              	.LBE20:
 118:./Libraries/STM32_USB_Host_Library/Core/Src/usbh_core.c ****   phost->device.is_connected = 0U;
 121              		.loc 1 118 29 view .LVU38
 122 004a 85F82324 		strb	r2, [r5, #1059]
 119:./Libraries/STM32_USB_Host_Library/Core/Src/usbh_core.c ****   phost->device.is_disconnected = 0U;
 123              		.loc 1 119 30 view .LVU39
 124 004e 85F82024 		strb	r2, [r5, #1056]
 125              	.LBB21:
 126              	.LBB17:
 222:./Libraries/STM32_USB_Host_Library/Core/Src/usbh_core.c ****   phost->Timer = 0U;
 127              		.loc 1 222 23 view .LVU40
 128 0052 AB70     		strb	r3, [r5, #2]
 223:./Libraries/STM32_USB_Host_Library/Core/Src/usbh_core.c **** 
 129              		.loc 1 223 3 is_stmt 1 view .LVU41
 225:./Libraries/STM32_USB_Host_Library/Core/Src/usbh_core.c ****   phost->Control.pipe_size = USBH_MPS_DEFAULT;
 130              		.loc 1 225 3 view .LVU42
 226:./Libraries/STM32_USB_Host_Library/Core/Src/usbh_core.c ****   phost->Control.errorcount = 0U;
 131              		.loc 1 226 3 view .LVU43
 132              	.LBE17:
 133              	.LBE21:
 120:./Libraries/STM32_USB_Host_Library/Core/Src/usbh_core.c ****   phost->device.is_ReEnumerated = 0U;
 134              		.loc 1 120 33 is_stmt 0 view .LVU44
 135 0054 85F82124 		strb	r2, [r5, #1057]
 136              	.LBB22:
 137              	.LBB18:
 225:./Libraries/STM32_USB_Host_Library/Core/Src/usbh_core.c ****   phost->Control.pipe_size = USBH_MPS_DEFAULT;
 138              		.loc 1 225 24 view .LVU45
 139 0058 2B83     		strh	r3, [r5, #24]	@ movhi
 140              	.LBE18:
ARM GAS  /tmp/ccLKNEvV.s 			page 8


 141              	.LBE22:
 121:./Libraries/STM32_USB_Host_Library/Core/Src/usbh_core.c **** 
 142              		.loc 1 121 33 view .LVU46
 143 005a 85F82224 		strb	r2, [r5, #1058]
 144              	.LBB23:
 145              	.LBB19:
 226:./Libraries/STM32_USB_Host_Library/Core/Src/usbh_core.c ****   phost->Control.errorcount = 0U;
 146              		.loc 1 226 28 view .LVU47
 147 005e AC71     		strb	r4, [r5, #6]
 227:./Libraries/STM32_USB_Host_Library/Core/Src/usbh_core.c **** 
 148              		.loc 1 227 3 is_stmt 1 view .LVU48
 149              		.loc 1 229 3 view .LVU49
 230:./Libraries/STM32_USB_Host_Library/Core/Src/usbh_core.c ****   phost->device.speed = USBH_SPEED_FULL;
 150              		.loc 1 230 3 view .LVU50
 231:./Libraries/STM32_USB_Host_Library/Core/Src/usbh_core.c ****   phost->device.RstCnt = 0U;
 151              		.loc 1 231 3 view .LVU51
 232:./Libraries/STM32_USB_Host_Library/Core/Src/usbh_core.c ****   phost->device.EnumCnt = 0U;
 152              		.loc 1 232 3 view .LVU52
 229:./Libraries/STM32_USB_Host_Library/Core/Src/usbh_core.c ****   phost->device.speed = USBH_SPEED_FULL;
 153              		.loc 1 229 25 is_stmt 0 view .LVU53
 154 0060 C5F81C04 		str	r0, [r5, #1052]
 233:./Libraries/STM32_USB_Host_Library/Core/Src/usbh_core.c **** 
 234:./Libraries/STM32_USB_Host_Library/Core/Src/usbh_core.c ****   return USBH_OK;
 155              		.loc 1 234 3 is_stmt 1 view .LVU54
 156              	.LVL4:
 157              		.loc 1 234 3 is_stmt 0 view .LVU55
 158              	.LBE19:
 159              	.LBE23:
 118:./Libraries/STM32_USB_Host_Library/Core/Src/usbh_core.c ****   phost->device.is_connected = 0U;
 160              		.loc 1 118 3 is_stmt 1 view .LVU56
 119:./Libraries/STM32_USB_Host_Library/Core/Src/usbh_core.c ****   phost->device.is_disconnected = 0U;
 161              		.loc 1 119 3 view .LVU57
 120:./Libraries/STM32_USB_Host_Library/Core/Src/usbh_core.c ****   phost->device.is_ReEnumerated = 0U;
 162              		.loc 1 120 3 view .LVU58
 121:./Libraries/STM32_USB_Host_Library/Core/Src/usbh_core.c **** 
 163              		.loc 1 121 3 view .LVU59
 124:./Libraries/STM32_USB_Host_Library/Core/Src/usbh_core.c ****   {
 164              		.loc 1 124 3 view .LVU60
 124:./Libraries/STM32_USB_Host_Library/Core/Src/usbh_core.c ****   {
 165              		.loc 1 124 6 is_stmt 0 view .LVU61
 166 0064 09B1     		cbz	r1, .L5
 126:./Libraries/STM32_USB_Host_Library/Core/Src/usbh_core.c ****   }
 167              		.loc 1 126 5 is_stmt 1 view .LVU62
 126:./Libraries/STM32_USB_Host_Library/Core/Src/usbh_core.c ****   }
 168              		.loc 1 126 18 is_stmt 0 view .LVU63
 169 0066 C5F8D414 		str	r1, [r5, #1236]
 170              	.L5:
 148:./Libraries/STM32_USB_Host_Library/Core/Src/usbh_core.c **** 
 171              		.loc 1 148 3 is_stmt 1 view .LVU64
 148:./Libraries/STM32_USB_Host_Library/Core/Src/usbh_core.c **** 
 172              		.loc 1 148 21 is_stmt 0 view .LVU65
 173 006a 0022     		movs	r2, #0
 174 006c 0421     		movs	r1, #4
 175              	.LVL5:
 148:./Libraries/STM32_USB_Host_Library/Core/Src/usbh_core.c **** 
 176              		.loc 1 148 21 view .LVU66
 177 006e 1020     		movs	r0, #16
ARM GAS  /tmp/ccLKNEvV.s 			page 9


 154:./Libraries/STM32_USB_Host_Library/Core/Src/usbh_core.c **** #else
 178              		.loc 1 154 31 view .LVU67
 179 0070 4FF48064 		mov	r4, #1024
 148:./Libraries/STM32_USB_Host_Library/Core/Src/usbh_core.c **** 
 180              		.loc 1 148 21 view .LVU68
 181 0074 FFF7FEFF 		bl	osMessageQueueNew
 182              	.LVL6:
 151:./Libraries/STM32_USB_Host_Library/Core/Src/usbh_core.c **** 
 183              		.loc 1 151 25 view .LVU69
 184 0078 0A4A     		ldr	r2, .L17
 185 007a 0B49     		ldr	r1, .L17+4
 159:./Libraries/STM32_USB_Host_Library/Core/Src/usbh_core.c ****   phost->thread = osThreadNew(USBH_Process_OS, phost, &USBH_Thread_Atrr);
 186              		.loc 1 159 29 view .LVU70
 187 007c 1823     		movs	r3, #24
 148:./Libraries/STM32_USB_Host_Library/Core/Src/usbh_core.c **** 
 188              		.loc 1 148 19 view .LVU71
 189 007e C5F8D804 		str	r0, [r5, #1240]
 151:./Libraries/STM32_USB_Host_Library/Core/Src/usbh_core.c **** 
 190              		.loc 1 151 3 is_stmt 1 view .LVU72
 151:./Libraries/STM32_USB_Host_Library/Core/Src/usbh_core.c **** 
 191              		.loc 1 151 25 is_stmt 0 view .LVU73
 192 0082 1160     		str	r1, [r2]
 154:./Libraries/STM32_USB_Host_Library/Core/Src/usbh_core.c **** #else
 193              		.loc 1 154 3 is_stmt 1 view .LVU74
 160:./Libraries/STM32_USB_Host_Library/Core/Src/usbh_core.c **** 
 194              		.loc 1 160 19 is_stmt 0 view .LVU75
 195 0084 2946     		mov	r1, r5
 196 0086 0948     		ldr	r0, .L17+8
 159:./Libraries/STM32_USB_Host_Library/Core/Src/usbh_core.c ****   phost->thread = osThreadNew(USBH_Process_OS, phost, &USBH_Thread_Atrr);
 197              		.loc 1 159 29 view .LVU76
 198 0088 9361     		str	r3, [r2, #24]
 154:./Libraries/STM32_USB_Host_Library/Core/Src/usbh_core.c **** #else
 199              		.loc 1 154 31 view .LVU77
 200 008a 5461     		str	r4, [r2, #20]
 159:./Libraries/STM32_USB_Host_Library/Core/Src/usbh_core.c ****   phost->thread = osThreadNew(USBH_Process_OS, phost, &USBH_Thread_Atrr);
 201              		.loc 1 159 3 is_stmt 1 view .LVU78
 160:./Libraries/STM32_USB_Host_Library/Core/Src/usbh_core.c **** 
 202              		.loc 1 160 3 view .LVU79
 160:./Libraries/STM32_USB_Host_Library/Core/Src/usbh_core.c **** 
 203              		.loc 1 160 19 is_stmt 0 view .LVU80
 204 008c FFF7FEFF 		bl	osThreadNew
 205              	.LVL7:
 206 0090 0346     		mov	r3, r0
 166:./Libraries/STM32_USB_Host_Library/Core/Src/usbh_core.c **** 
 207              		.loc 1 166 3 view .LVU81
 208 0092 2846     		mov	r0, r5
 160:./Libraries/STM32_USB_Host_Library/Core/Src/usbh_core.c **** 
 209              		.loc 1 160 17 view .LVU82
 210 0094 C5F8DC34 		str	r3, [r5, #1244]
 166:./Libraries/STM32_USB_Host_Library/Core/Src/usbh_core.c **** 
 211              		.loc 1 166 3 is_stmt 1 view .LVU83
 212 0098 FFF7FEFF 		bl	USBH_LL_Init
 213              	.LVL8:
 168:./Libraries/STM32_USB_Host_Library/Core/Src/usbh_core.c **** }
 214              		.loc 1 168 3 view .LVU84
 168:./Libraries/STM32_USB_Host_Library/Core/Src/usbh_core.c **** }
 215              		.loc 1 168 10 is_stmt 0 view .LVU85
ARM GAS  /tmp/ccLKNEvV.s 			page 10


 216 009c 0020     		movs	r0, #0
 169:./Libraries/STM32_USB_Host_Library/Core/Src/usbh_core.c **** 
 217              		.loc 1 169 1 view .LVU86
 218 009e 38BD     		pop	{r3, r4, r5, pc}
 219              	.LVL9:
 220              	.L6:
 221              	.LCFI1:
 222              		.cfi_def_cfa_offset 0
 223              		.cfi_restore 3
 224              		.cfi_restore 4
 225              		.cfi_restore 5
 226              		.cfi_restore 14
 104:./Libraries/STM32_USB_Host_Library/Core/Src/usbh_core.c ****   }
 227              		.loc 1 104 12 view .LVU87
 228 00a0 0220     		movs	r0, #2
 229              	.LVL10:
 169:./Libraries/STM32_USB_Host_Library/Core/Src/usbh_core.c **** 
 230              		.loc 1 169 1 view .LVU88
 231 00a2 7047     		bx	lr
 232              	.L18:
 233              		.align	2
 234              	.L17:
 235 00a4 00000000 		.word	USBH_Thread_Atrr
 236 00a8 00000000 		.word	.LC0
 237 00ac 00000000 		.word	USBH_Process_OS
 238              		.cfi_endproc
 239              	.LFE338:
 241              		.section	.text.USBH_DeInit,"ax",%progbits
 242              		.align	1
 243              		.p2align 2,,3
 244              		.global	USBH_DeInit
 245              		.syntax unified
 246              		.thumb
 247              		.thumb_func
 248              		.fpu fpv5-d16
 250              	USBH_DeInit:
 251              	.LVL11:
 252              	.LFB339:
 179:./Libraries/STM32_USB_Host_Library/Core/Src/usbh_core.c ****   DeInitStateMachine(phost);
 253              		.loc 1 179 1 is_stmt 1 view -0
 254              		.cfi_startproc
 255              		@ args = 0, pretend = 0, frame = 0
 256              		@ frame_needed = 0, uses_anonymous_args = 0
 180:./Libraries/STM32_USB_Host_Library/Core/Src/usbh_core.c **** 
 257              		.loc 1 180 3 view .LVU90
 179:./Libraries/STM32_USB_Host_Library/Core/Src/usbh_core.c ****   DeInitStateMachine(phost);
 258              		.loc 1 179 1 is_stmt 0 view .LVU91
 259 0000 38B5     		push	{r3, r4, r5, lr}
 260              	.LCFI2:
 261              		.cfi_def_cfa_offset 16
 262              		.cfi_offset 3, -16
 263              		.cfi_offset 4, -12
 264              		.cfi_offset 5, -8
 265              		.cfi_offset 14, -4
 266              	.LBB24:
 267              	.LBB25:
 212:./Libraries/STM32_USB_Host_Library/Core/Src/usbh_core.c ****   }
ARM GAS  /tmp/ccLKNEvV.s 			page 11


 268              		.loc 1 212 21 view .LVU92
 269 0002 0021     		movs	r1, #0
 270              	.LVL12:
 212:./Libraries/STM32_USB_Host_Library/Core/Src/usbh_core.c ****   }
 271              		.loc 1 212 21 view .LVU93
 272              	.LBE25:
 273              	.LBI24:
 205:./Libraries/STM32_USB_Host_Library/Core/Src/usbh_core.c **** {
 274              		.loc 1 205 27 is_stmt 1 view .LVU94
 275              	.LBB26:
 207:./Libraries/STM32_USB_Host_Library/Core/Src/usbh_core.c **** 
 276              		.loc 1 207 3 view .LVU95
 210:./Libraries/STM32_USB_Host_Library/Core/Src/usbh_core.c ****   {
 277              		.loc 1 210 3 view .LVU96
 210:./Libraries/STM32_USB_Host_Library/Core/Src/usbh_core.c ****   {
 278              		.loc 1 210 16 view .LVU97
 279 0004 00F59063 		add	r3, r0, #1152
 280 0008 00F2BC42 		addw	r2, r0, #1212
 281              	.LVL13:
 282              	.L20:
 212:./Libraries/STM32_USB_Host_Library/Core/Src/usbh_core.c ****   }
 283              		.loc 1 212 5 view .LVU98
 212:./Libraries/STM32_USB_Host_Library/Core/Src/usbh_core.c ****   }
 284              		.loc 1 212 21 is_stmt 0 view .LVU99
 285 000c 43F8041F 		str	r1, [r3, #4]!
 210:./Libraries/STM32_USB_Host_Library/Core/Src/usbh_core.c ****   {
 286              		.loc 1 210 40 is_stmt 1 view .LVU100
 210:./Libraries/STM32_USB_Host_Library/Core/Src/usbh_core.c ****   {
 287              		.loc 1 210 16 view .LVU101
 210:./Libraries/STM32_USB_Host_Library/Core/Src/usbh_core.c ****   {
 288              		.loc 1 210 3 is_stmt 0 view .LVU102
 289 0010 9342     		cmp	r3, r2
 290 0012 FBD1     		bne	.L20
 291 0014 00F21B23 		addw	r3, r0, #539
 292 0018 00F21B41 		addw	r1, r0, #1051
 217:./Libraries/STM32_USB_Host_Library/Core/Src/usbh_core.c ****   }
 293              		.loc 1 217 27 view .LVU103
 294 001c 0022     		movs	r2, #0
 295              	.L21:
 217:./Libraries/STM32_USB_Host_Library/Core/Src/usbh_core.c ****   }
 296              		.loc 1 217 5 is_stmt 1 view .LVU104
 217:./Libraries/STM32_USB_Host_Library/Core/Src/usbh_core.c ****   }
 297              		.loc 1 217 27 is_stmt 0 view .LVU105
 298 001e 03F8012F 		strb	r2, [r3, #1]!
 215:./Libraries/STM32_USB_Host_Library/Core/Src/usbh_core.c ****   {
 299              		.loc 1 215 42 is_stmt 1 view .LVU106
 215:./Libraries/STM32_USB_Host_Library/Core/Src/usbh_core.c ****   {
 300              		.loc 1 215 16 view .LVU107
 215:./Libraries/STM32_USB_Host_Library/Core/Src/usbh_core.c ****   {
 301              		.loc 1 215 3 is_stmt 0 view .LVU108
 302 0022 8B42     		cmp	r3, r1
 303 0024 FBD1     		bne	.L21
 220:./Libraries/STM32_USB_Host_Library/Core/Src/usbh_core.c ****   phost->EnumState = ENUM_IDLE;
 304              		.loc 1 220 3 is_stmt 1 view .LVU109
 222:./Libraries/STM32_USB_Host_Library/Core/Src/usbh_core.c ****   phost->Timer = 0U;
 305              		.loc 1 222 23 is_stmt 0 view .LVU110
 306 0026 0123     		movs	r3, #1
ARM GAS  /tmp/ccLKNEvV.s 			page 12


 226:./Libraries/STM32_USB_Host_Library/Core/Src/usbh_core.c ****   phost->Control.errorcount = 0U;
 307              		.loc 1 226 28 view .LVU111
 308 0028 4025     		movs	r5, #64
 229:./Libraries/STM32_USB_Host_Library/Core/Src/usbh_core.c ****   phost->device.speed = USBH_SPEED_FULL;
 309              		.loc 1 229 25 view .LVU112
 310 002a 4FF48074 		mov	r4, #256
 311              	.LBE26:
 312              	.LBE24:
 190:./Libraries/STM32_USB_Host_Library/Core/Src/usbh_core.c ****   {
 313              		.loc 1 190 6 view .LVU113
 314 002e D0F8D014 		ldr	r1, [r0, #1232]
 315              	.LBB31:
 316              	.LBB27:
 220:./Libraries/STM32_USB_Host_Library/Core/Src/usbh_core.c ****   phost->EnumState = ENUM_IDLE;
 317              		.loc 1 220 17 view .LVU114
 318 0032 0270     		strb	r2, [r0]
 221:./Libraries/STM32_USB_Host_Library/Core/Src/usbh_core.c ****   phost->RequestState = CMD_SEND;
 319              		.loc 1 221 3 is_stmt 1 view .LVU115
 221:./Libraries/STM32_USB_Host_Library/Core/Src/usbh_core.c ****   phost->RequestState = CMD_SEND;
 320              		.loc 1 221 20 is_stmt 0 view .LVU116
 321 0034 4270     		strb	r2, [r0, #1]
 222:./Libraries/STM32_USB_Host_Library/Core/Src/usbh_core.c ****   phost->Timer = 0U;
 322              		.loc 1 222 3 is_stmt 1 view .LVU117
 223:./Libraries/STM32_USB_Host_Library/Core/Src/usbh_core.c **** 
 323              		.loc 1 223 16 is_stmt 0 view .LVU118
 324 0036 C0F8C424 		str	r2, [r0, #1220]
 325              	.LBE27:
 326              	.LBE31:
 183:./Libraries/STM32_USB_Host_Library/Core/Src/usbh_core.c ****   phost->device.is_connected = 0U;
 327              		.loc 1 183 29 view .LVU119
 328 003a 80F82324 		strb	r2, [r0, #1059]
 184:./Libraries/STM32_USB_Host_Library/Core/Src/usbh_core.c ****   phost->device.is_disconnected = 0U;
 329              		.loc 1 184 30 view .LVU120
 330 003e 80F82024 		strb	r2, [r0, #1056]
 331              	.LBB32:
 332              	.LBB28:
 222:./Libraries/STM32_USB_Host_Library/Core/Src/usbh_core.c ****   phost->Timer = 0U;
 333              		.loc 1 222 23 view .LVU121
 334 0042 8370     		strb	r3, [r0, #2]
 223:./Libraries/STM32_USB_Host_Library/Core/Src/usbh_core.c **** 
 335              		.loc 1 223 3 is_stmt 1 view .LVU122
 225:./Libraries/STM32_USB_Host_Library/Core/Src/usbh_core.c ****   phost->Control.pipe_size = USBH_MPS_DEFAULT;
 336              		.loc 1 225 3 view .LVU123
 226:./Libraries/STM32_USB_Host_Library/Core/Src/usbh_core.c ****   phost->Control.errorcount = 0U;
 337              		.loc 1 226 3 view .LVU124
 338              	.LBE28:
 339              	.LBE32:
 185:./Libraries/STM32_USB_Host_Library/Core/Src/usbh_core.c ****   phost->device.is_ReEnumerated = 0U;
 340              		.loc 1 185 33 is_stmt 0 view .LVU125
 341 0044 80F82124 		strb	r2, [r0, #1057]
 342              	.LBB33:
 343              	.LBB29:
 225:./Libraries/STM32_USB_Host_Library/Core/Src/usbh_core.c ****   phost->Control.pipe_size = USBH_MPS_DEFAULT;
 344              		.loc 1 225 24 view .LVU126
 345 0048 0383     		strh	r3, [r0, #24]	@ movhi
 346              	.LBE29:
 347              	.LBE33:
ARM GAS  /tmp/ccLKNEvV.s 			page 13


 186:./Libraries/STM32_USB_Host_Library/Core/Src/usbh_core.c ****   phost->device.RstCnt = 0U;
 348              		.loc 1 186 33 view .LVU127
 349 004a 80F82224 		strb	r2, [r0, #1058]
 350              	.LBB34:
 351              	.LBB30:
 226:./Libraries/STM32_USB_Host_Library/Core/Src/usbh_core.c ****   phost->Control.errorcount = 0U;
 352              		.loc 1 226 28 view .LVU128
 353 004e 8571     		strb	r5, [r0, #6]
 227:./Libraries/STM32_USB_Host_Library/Core/Src/usbh_core.c **** 
 354              		.loc 1 227 3 is_stmt 1 view .LVU129
 229:./Libraries/STM32_USB_Host_Library/Core/Src/usbh_core.c ****   phost->device.speed = USBH_SPEED_FULL;
 355              		.loc 1 229 3 view .LVU130
 230:./Libraries/STM32_USB_Host_Library/Core/Src/usbh_core.c ****   phost->device.RstCnt = 0U;
 356              		.loc 1 230 3 view .LVU131
 231:./Libraries/STM32_USB_Host_Library/Core/Src/usbh_core.c ****   phost->device.EnumCnt = 0U;
 357              		.loc 1 231 3 view .LVU132
 232:./Libraries/STM32_USB_Host_Library/Core/Src/usbh_core.c **** 
 358              		.loc 1 232 3 view .LVU133
 229:./Libraries/STM32_USB_Host_Library/Core/Src/usbh_core.c ****   phost->device.speed = USBH_SPEED_FULL;
 359              		.loc 1 229 25 is_stmt 0 view .LVU134
 360 0050 C0F81C44 		str	r4, [r0, #1052]
 361              		.loc 1 234 3 is_stmt 1 view .LVU135
 362              	.LVL14:
 363              		.loc 1 234 3 is_stmt 0 view .LVU136
 364              	.LBE30:
 365              	.LBE34:
 183:./Libraries/STM32_USB_Host_Library/Core/Src/usbh_core.c ****   phost->device.is_connected = 0U;
 366              		.loc 1 183 3 is_stmt 1 view .LVU137
 184:./Libraries/STM32_USB_Host_Library/Core/Src/usbh_core.c ****   phost->device.is_disconnected = 0U;
 367              		.loc 1 184 3 view .LVU138
 185:./Libraries/STM32_USB_Host_Library/Core/Src/usbh_core.c ****   phost->device.is_ReEnumerated = 0U;
 368              		.loc 1 185 3 view .LVU139
 186:./Libraries/STM32_USB_Host_Library/Core/Src/usbh_core.c ****   phost->device.RstCnt = 0U;
 369              		.loc 1 186 3 view .LVU140
 187:./Libraries/STM32_USB_Host_Library/Core/Src/usbh_core.c ****   phost->device.EnumCnt = 0U;
 370              		.loc 1 187 3 view .LVU141
 188:./Libraries/STM32_USB_Host_Library/Core/Src/usbh_core.c **** 
 371              		.loc 1 188 3 view .LVU142
 190:./Libraries/STM32_USB_Host_Library/Core/Src/usbh_core.c ****   {
 372              		.loc 1 190 3 view .LVU143
 190:./Libraries/STM32_USB_Host_Library/Core/Src/usbh_core.c ****   {
 373              		.loc 1 190 6 is_stmt 0 view .LVU144
 374 0054 09B1     		cbz	r1, .L22
 192:./Libraries/STM32_USB_Host_Library/Core/Src/usbh_core.c ****   }
 375              		.loc 1 192 5 is_stmt 1 view .LVU145
 376 0056 FFF7FEFF 		bl	USBH_LL_Stop
 377              	.LVL15:
 378              	.L22:
 195:./Libraries/STM32_USB_Host_Library/Core/Src/usbh_core.c **** }
 379              		.loc 1 195 3 view .LVU146
 196:./Libraries/STM32_USB_Host_Library/Core/Src/usbh_core.c **** 
 380              		.loc 1 196 1 is_stmt 0 view .LVU147
 381 005a 0020     		movs	r0, #0
 382 005c 38BD     		pop	{r3, r4, r5, pc}
 383              		.cfi_endproc
 384              	.LFE339:
 386 005e 00BF     		.section	.text.USBH_RegisterClass,"ax",%progbits
ARM GAS  /tmp/ccLKNEvV.s 			page 14


 387              		.align	1
 388              		.p2align 2,,3
 389              		.global	USBH_RegisterClass
 390              		.syntax unified
 391              		.thumb
 392              		.thumb_func
 393              		.fpu fpv5-d16
 395              	USBH_RegisterClass:
 396              	.LVL16:
 397              	.LFB341:
 235:./Libraries/STM32_USB_Host_Library/Core/Src/usbh_core.c **** }
 236:./Libraries/STM32_USB_Host_Library/Core/Src/usbh_core.c **** 
 237:./Libraries/STM32_USB_Host_Library/Core/Src/usbh_core.c **** 
 238:./Libraries/STM32_USB_Host_Library/Core/Src/usbh_core.c **** /**
 239:./Libraries/STM32_USB_Host_Library/Core/Src/usbh_core.c ****   * @brief  USBH_RegisterClass
 240:./Libraries/STM32_USB_Host_Library/Core/Src/usbh_core.c ****   *         Link class driver to Host Core.
 241:./Libraries/STM32_USB_Host_Library/Core/Src/usbh_core.c ****   * @param  phost : Host Handle
 242:./Libraries/STM32_USB_Host_Library/Core/Src/usbh_core.c ****   * @param  pclass: Class handle
 243:./Libraries/STM32_USB_Host_Library/Core/Src/usbh_core.c ****   * @retval USBH Status
 244:./Libraries/STM32_USB_Host_Library/Core/Src/usbh_core.c ****   */
 245:./Libraries/STM32_USB_Host_Library/Core/Src/usbh_core.c **** USBH_StatusTypeDef USBH_RegisterClass(USBH_HandleTypeDef *phost, USBH_ClassTypeDef *pclass)
 246:./Libraries/STM32_USB_Host_Library/Core/Src/usbh_core.c **** {
 398              		.loc 1 246 1 is_stmt 1 view -0
 399              		.cfi_startproc
 400              		@ args = 0, pretend = 0, frame = 0
 401              		@ frame_needed = 0, uses_anonymous_args = 0
 402              		@ link register save eliminated.
 247:./Libraries/STM32_USB_Host_Library/Core/Src/usbh_core.c ****   USBH_StatusTypeDef status = USBH_OK;
 403              		.loc 1 247 3 view .LVU149
 248:./Libraries/STM32_USB_Host_Library/Core/Src/usbh_core.c **** 
 249:./Libraries/STM32_USB_Host_Library/Core/Src/usbh_core.c ****   if (pclass != NULL)
 404              		.loc 1 249 3 view .LVU150
 246:./Libraries/STM32_USB_Host_Library/Core/Src/usbh_core.c ****   USBH_StatusTypeDef status = USBH_OK;
 405              		.loc 1 246 1 is_stmt 0 view .LVU151
 406 0000 0346     		mov	r3, r0
 407              		.loc 1 249 6 view .LVU152
 408 0002 41B1     		cbz	r1, .L32
 250:./Libraries/STM32_USB_Host_Library/Core/Src/usbh_core.c ****   {
 251:./Libraries/STM32_USB_Host_Library/Core/Src/usbh_core.c ****     if (phost->ClassNumber < USBH_MAX_NUM_SUPPORTED_CLASS)
 409              		.loc 1 251 5 is_stmt 1 view .LVU153
 410              		.loc 1 251 8 is_stmt 0 view .LVU154
 411 0004 D0F88004 		ldr	r0, [r0, #1152]
 412              	.LVL17:
 413              		.loc 1 251 8 view .LVU155
 414 0008 28B9     		cbnz	r0, .L32
 252:./Libraries/STM32_USB_Host_Library/Core/Src/usbh_core.c ****     {
 253:./Libraries/STM32_USB_Host_Library/Core/Src/usbh_core.c ****       /* link the class to the USB Host handle */
 254:./Libraries/STM32_USB_Host_Library/Core/Src/usbh_core.c ****       phost->pClass[phost->ClassNumber++] = pclass;
 415              		.loc 1 254 7 is_stmt 1 view .LVU156
 416              		.loc 1 254 39 is_stmt 0 view .LVU157
 417 000a 0122     		movs	r2, #1
 418              		.loc 1 254 43 view .LVU158
 419 000c C3F87814 		str	r1, [r3, #1144]
 255:./Libraries/STM32_USB_Host_Library/Core/Src/usbh_core.c ****       status = USBH_OK;
 420              		.loc 1 255 7 is_stmt 1 view .LVU159
 254:./Libraries/STM32_USB_Host_Library/Core/Src/usbh_core.c ****       status = USBH_OK;
 421              		.loc 1 254 39 is_stmt 0 view .LVU160
ARM GAS  /tmp/ccLKNEvV.s 			page 15


 422 0010 C3F88024 		str	r2, [r3, #1152]
 423 0014 7047     		bx	lr
 424              	.L32:
 256:./Libraries/STM32_USB_Host_Library/Core/Src/usbh_core.c ****     }
 257:./Libraries/STM32_USB_Host_Library/Core/Src/usbh_core.c ****     else
 258:./Libraries/STM32_USB_Host_Library/Core/Src/usbh_core.c ****     {
 259:./Libraries/STM32_USB_Host_Library/Core/Src/usbh_core.c ****       USBH_ErrLog("Max Class Number reached");
 260:./Libraries/STM32_USB_Host_Library/Core/Src/usbh_core.c ****       status = USBH_FAIL;
 261:./Libraries/STM32_USB_Host_Library/Core/Src/usbh_core.c ****     }
 262:./Libraries/STM32_USB_Host_Library/Core/Src/usbh_core.c ****   }
 263:./Libraries/STM32_USB_Host_Library/Core/Src/usbh_core.c ****   else
 264:./Libraries/STM32_USB_Host_Library/Core/Src/usbh_core.c ****   {
 265:./Libraries/STM32_USB_Host_Library/Core/Src/usbh_core.c ****     USBH_ErrLog("Invalid Class handle");
 266:./Libraries/STM32_USB_Host_Library/Core/Src/usbh_core.c ****     status = USBH_FAIL;
 425              		.loc 1 266 12 view .LVU161
 426 0016 0220     		movs	r0, #2
 427              	.LVL18:
 267:./Libraries/STM32_USB_Host_Library/Core/Src/usbh_core.c ****   }
 268:./Libraries/STM32_USB_Host_Library/Core/Src/usbh_core.c **** 
 269:./Libraries/STM32_USB_Host_Library/Core/Src/usbh_core.c ****   return status;
 428              		.loc 1 269 3 is_stmt 1 view .LVU162
 270:./Libraries/STM32_USB_Host_Library/Core/Src/usbh_core.c **** }
 429              		.loc 1 270 1 is_stmt 0 view .LVU163
 430 0018 7047     		bx	lr
 431              		.cfi_endproc
 432              	.LFE341:
 434 001a 00BF     		.section	.text.USBH_SelectInterface,"ax",%progbits
 435              		.align	1
 436              		.p2align 2,,3
 437              		.global	USBH_SelectInterface
 438              		.syntax unified
 439              		.thumb
 440              		.thumb_func
 441              		.fpu fpv5-d16
 443              	USBH_SelectInterface:
 444              	.LVL19:
 445              	.LFB342:
 271:./Libraries/STM32_USB_Host_Library/Core/Src/usbh_core.c **** 
 272:./Libraries/STM32_USB_Host_Library/Core/Src/usbh_core.c **** 
 273:./Libraries/STM32_USB_Host_Library/Core/Src/usbh_core.c **** /**
 274:./Libraries/STM32_USB_Host_Library/Core/Src/usbh_core.c ****   * @brief  USBH_SelectInterface
 275:./Libraries/STM32_USB_Host_Library/Core/Src/usbh_core.c ****   *         Select current interface.
 276:./Libraries/STM32_USB_Host_Library/Core/Src/usbh_core.c ****   * @param  phost: Host Handle
 277:./Libraries/STM32_USB_Host_Library/Core/Src/usbh_core.c ****   * @param  interface: Interface number
 278:./Libraries/STM32_USB_Host_Library/Core/Src/usbh_core.c ****   * @retval USBH Status
 279:./Libraries/STM32_USB_Host_Library/Core/Src/usbh_core.c ****   */
 280:./Libraries/STM32_USB_Host_Library/Core/Src/usbh_core.c **** USBH_StatusTypeDef USBH_SelectInterface(USBH_HandleTypeDef *phost, uint8_t interface)
 281:./Libraries/STM32_USB_Host_Library/Core/Src/usbh_core.c **** {
 446              		.loc 1 281 1 is_stmt 1 view -0
 447              		.cfi_startproc
 448              		@ args = 0, pretend = 0, frame = 0
 449              		@ frame_needed = 0, uses_anonymous_args = 0
 450              		@ link register save eliminated.
 282:./Libraries/STM32_USB_Host_Library/Core/Src/usbh_core.c ****   USBH_StatusTypeDef status = USBH_OK;
 451              		.loc 1 282 3 view .LVU165
 283:./Libraries/STM32_USB_Host_Library/Core/Src/usbh_core.c **** 
 284:./Libraries/STM32_USB_Host_Library/Core/Src/usbh_core.c ****   if (interface < phost->device.CfgDesc.bNumInterfaces)
ARM GAS  /tmp/ccLKNEvV.s 			page 16


 452              		.loc 1 284 3 view .LVU166
 453              		.loc 1 284 6 is_stmt 0 view .LVU167
 454 0000 90F83C34 		ldrb	r3, [r0, #1084]	@ zero_extendqisi2
 455 0004 8B42     		cmp	r3, r1
 456 0006 03D9     		bls	.L35
 285:./Libraries/STM32_USB_Host_Library/Core/Src/usbh_core.c ****   {
 286:./Libraries/STM32_USB_Host_Library/Core/Src/usbh_core.c ****     phost->device.current_interface = interface;
 457              		.loc 1 286 5 is_stmt 1 view .LVU168
 458              		.loc 1 286 37 is_stmt 0 view .LVU169
 459 0008 80F82414 		strb	r1, [r0, #1060]
 287:./Libraries/STM32_USB_Host_Library/Core/Src/usbh_core.c ****     USBH_UsrLog("Switching to Interface (#%d)", interface);
 460              		.loc 1 287 59 is_stmt 1 view .LVU170
 288:./Libraries/STM32_USB_Host_Library/Core/Src/usbh_core.c ****     USBH_UsrLog("Class    : %xh", phost->device.CfgDesc.Itf_Desc[interface].bInterfaceClass);
 461              		.loc 1 288 93 view .LVU171
 289:./Libraries/STM32_USB_Host_Library/Core/Src/usbh_core.c ****     USBH_UsrLog("SubClass : %xh", phost->device.CfgDesc.Itf_Desc[interface].bInterfaceSubClass);
 462              		.loc 1 289 96 view .LVU172
 290:./Libraries/STM32_USB_Host_Library/Core/Src/usbh_core.c ****     USBH_UsrLog("Protocol : %xh", phost->device.CfgDesc.Itf_Desc[interface].bInterfaceProtocol);
 463              		.loc 1 290 96 view .LVU173
 282:./Libraries/STM32_USB_Host_Library/Core/Src/usbh_core.c **** 
 464              		.loc 1 282 22 is_stmt 0 view .LVU174
 465 000c 0020     		movs	r0, #0
 466              	.LVL20:
 282:./Libraries/STM32_USB_Host_Library/Core/Src/usbh_core.c **** 
 467              		.loc 1 282 22 view .LVU175
 468 000e 7047     		bx	lr
 469              	.LVL21:
 470              	.L35:
 291:./Libraries/STM32_USB_Host_Library/Core/Src/usbh_core.c ****   }
 292:./Libraries/STM32_USB_Host_Library/Core/Src/usbh_core.c ****   else
 293:./Libraries/STM32_USB_Host_Library/Core/Src/usbh_core.c ****   {
 294:./Libraries/STM32_USB_Host_Library/Core/Src/usbh_core.c ****     USBH_ErrLog("Cannot Select This Interface.");
 295:./Libraries/STM32_USB_Host_Library/Core/Src/usbh_core.c ****     status = USBH_FAIL;
 471              		.loc 1 295 12 view .LVU176
 472 0010 0220     		movs	r0, #2
 473              	.LVL22:
 296:./Libraries/STM32_USB_Host_Library/Core/Src/usbh_core.c ****   }
 297:./Libraries/STM32_USB_Host_Library/Core/Src/usbh_core.c **** 
 298:./Libraries/STM32_USB_Host_Library/Core/Src/usbh_core.c ****   return status;
 474              		.loc 1 298 3 is_stmt 1 view .LVU177
 299:./Libraries/STM32_USB_Host_Library/Core/Src/usbh_core.c **** }
 475              		.loc 1 299 1 is_stmt 0 view .LVU178
 476 0012 7047     		bx	lr
 477              		.cfi_endproc
 478              	.LFE342:
 480              		.section	.text.USBH_GetActiveClass,"ax",%progbits
 481              		.align	1
 482              		.p2align 2,,3
 483              		.global	USBH_GetActiveClass
 484              		.syntax unified
 485              		.thumb
 486              		.thumb_func
 487              		.fpu fpv5-d16
 489              	USBH_GetActiveClass:
 490              	.LVL23:
 491              	.LFB343:
 300:./Libraries/STM32_USB_Host_Library/Core/Src/usbh_core.c **** 
 301:./Libraries/STM32_USB_Host_Library/Core/Src/usbh_core.c **** 
ARM GAS  /tmp/ccLKNEvV.s 			page 17


 302:./Libraries/STM32_USB_Host_Library/Core/Src/usbh_core.c **** /**
 303:./Libraries/STM32_USB_Host_Library/Core/Src/usbh_core.c ****   * @brief  USBH_GetActiveClass
 304:./Libraries/STM32_USB_Host_Library/Core/Src/usbh_core.c ****   *         Return Device Class.
 305:./Libraries/STM32_USB_Host_Library/Core/Src/usbh_core.c ****   * @param  phost: Host Handle
 306:./Libraries/STM32_USB_Host_Library/Core/Src/usbh_core.c ****   * @param  interface: Interface index
 307:./Libraries/STM32_USB_Host_Library/Core/Src/usbh_core.c ****   * @retval Class Code
 308:./Libraries/STM32_USB_Host_Library/Core/Src/usbh_core.c ****   */
 309:./Libraries/STM32_USB_Host_Library/Core/Src/usbh_core.c **** uint8_t USBH_GetActiveClass(USBH_HandleTypeDef *phost)
 310:./Libraries/STM32_USB_Host_Library/Core/Src/usbh_core.c **** {
 492              		.loc 1 310 1 is_stmt 1 view -0
 493              		.cfi_startproc
 494              		@ args = 0, pretend = 0, frame = 0
 495              		@ frame_needed = 0, uses_anonymous_args = 0
 496              		@ link register save eliminated.
 311:./Libraries/STM32_USB_Host_Library/Core/Src/usbh_core.c ****   return (phost->device.CfgDesc.Itf_Desc[0].bInterfaceClass);
 497              		.loc 1 311 3 view .LVU180
 312:./Libraries/STM32_USB_Host_Library/Core/Src/usbh_core.c **** }
 498              		.loc 1 312 1 is_stmt 0 view .LVU181
 499 0000 90F84704 		ldrb	r0, [r0, #1095]	@ zero_extendqisi2
 500              	.LVL24:
 501              		.loc 1 312 1 view .LVU182
 502 0004 7047     		bx	lr
 503              		.cfi_endproc
 504              	.LFE343:
 506 0006 00BF     		.section	.text.USBH_FindInterface,"ax",%progbits
 507              		.align	1
 508              		.p2align 2,,3
 509              		.global	USBH_FindInterface
 510              		.syntax unified
 511              		.thumb
 512              		.thumb_func
 513              		.fpu fpv5-d16
 515              	USBH_FindInterface:
 516              	.LVL25:
 517              	.LFB344:
 313:./Libraries/STM32_USB_Host_Library/Core/Src/usbh_core.c **** 
 314:./Libraries/STM32_USB_Host_Library/Core/Src/usbh_core.c **** 
 315:./Libraries/STM32_USB_Host_Library/Core/Src/usbh_core.c **** /**
 316:./Libraries/STM32_USB_Host_Library/Core/Src/usbh_core.c ****   * @brief  USBH_FindInterface
 317:./Libraries/STM32_USB_Host_Library/Core/Src/usbh_core.c ****   *         Find the interface index for a specific class.
 318:./Libraries/STM32_USB_Host_Library/Core/Src/usbh_core.c ****   * @param  phost: Host Handle
 319:./Libraries/STM32_USB_Host_Library/Core/Src/usbh_core.c ****   * @param  Class: Class code
 320:./Libraries/STM32_USB_Host_Library/Core/Src/usbh_core.c ****   * @param  SubClass: SubClass code
 321:./Libraries/STM32_USB_Host_Library/Core/Src/usbh_core.c ****   * @param  Protocol: Protocol code
 322:./Libraries/STM32_USB_Host_Library/Core/Src/usbh_core.c ****   * @retval interface index in the configuration structure
 323:./Libraries/STM32_USB_Host_Library/Core/Src/usbh_core.c ****   * @note : (1)interface index 0xFF means interface index not found
 324:./Libraries/STM32_USB_Host_Library/Core/Src/usbh_core.c ****   */
 325:./Libraries/STM32_USB_Host_Library/Core/Src/usbh_core.c **** uint8_t  USBH_FindInterface(USBH_HandleTypeDef *phost, uint8_t Class, uint8_t SubClass, uint8_t Pro
 326:./Libraries/STM32_USB_Host_Library/Core/Src/usbh_core.c **** {
 518              		.loc 1 326 1 is_stmt 1 view -0
 519              		.cfi_startproc
 520              		@ args = 0, pretend = 0, frame = 0
 521              		@ frame_needed = 0, uses_anonymous_args = 0
 522              		@ link register save eliminated.
 327:./Libraries/STM32_USB_Host_Library/Core/Src/usbh_core.c ****   USBH_InterfaceDescTypeDef *pif;
 523              		.loc 1 327 3 view .LVU184
 328:./Libraries/STM32_USB_Host_Library/Core/Src/usbh_core.c ****   USBH_CfgDescTypeDef *pcfg;
ARM GAS  /tmp/ccLKNEvV.s 			page 18


 524              		.loc 1 328 3 view .LVU185
 329:./Libraries/STM32_USB_Host_Library/Core/Src/usbh_core.c ****   uint8_t if_ix = 0U;
 525              		.loc 1 329 3 view .LVU186
 330:./Libraries/STM32_USB_Host_Library/Core/Src/usbh_core.c **** 
 331:./Libraries/STM32_USB_Host_Library/Core/Src/usbh_core.c ****   pif = (USBH_InterfaceDescTypeDef *)0;
 526              		.loc 1 331 3 view .LVU187
 332:./Libraries/STM32_USB_Host_Library/Core/Src/usbh_core.c ****   pcfg = &phost->device.CfgDesc;
 527              		.loc 1 332 3 view .LVU188
 333:./Libraries/STM32_USB_Host_Library/Core/Src/usbh_core.c **** 
 334:./Libraries/STM32_USB_Host_Library/Core/Src/usbh_core.c ****   while (if_ix < USBH_MAX_NUM_INTERFACES)
 528              		.loc 1 334 3 view .LVU189
 529              		.loc 1 334 9 view .LVU190
 326:./Libraries/STM32_USB_Host_Library/Core/Src/usbh_core.c ****   USBH_InterfaceDescTypeDef *pif;
 530              		.loc 1 326 1 is_stmt 0 view .LVU191
 531 0000 F0B4     		push	{r4, r5, r6, r7}
 532              	.LCFI3:
 533              		.cfi_def_cfa_offset 16
 534              		.cfi_offset 4, -16
 535              		.cfi_offset 5, -12
 536              		.cfi_offset 6, -8
 537              		.cfi_offset 7, -4
 538 0002 A1F1FF07 		sub	r7, r1, #255
 326:./Libraries/STM32_USB_Host_Library/Core/Src/usbh_core.c ****   USBH_InterfaceDescTypeDef *pif;
 539              		.loc 1 326 1 view .LVU192
 540 0006 0024     		movs	r4, #0
 541 0008 B7FA87F7 		clz	r7, r7
 542 000c 7F09     		lsrs	r7, r7, #5
 543              	.LVL26:
 544              	.L42:
 335:./Libraries/STM32_USB_Host_Library/Core/Src/usbh_core.c ****   {
 336:./Libraries/STM32_USB_Host_Library/Core/Src/usbh_core.c ****     pif = &pcfg->Itf_Desc[if_ix];
 337:./Libraries/STM32_USB_Host_Library/Core/Src/usbh_core.c ****     if (((pif->bInterfaceClass == Class) || (Class == 0xFFU)) &&
 338:./Libraries/STM32_USB_Host_Library/Core/Src/usbh_core.c ****         ((pif->bInterfaceSubClass == SubClass) || (SubClass == 0xFFU)) &&
 339:./Libraries/STM32_USB_Host_Library/Core/Src/usbh_core.c ****         ((pif->bInterfaceProtocol == Protocol) || (Protocol == 0xFFU)))
 340:./Libraries/STM32_USB_Host_Library/Core/Src/usbh_core.c ****     {
 341:./Libraries/STM32_USB_Host_Library/Core/Src/usbh_core.c ****       return  if_ix;
 342:./Libraries/STM32_USB_Host_Library/Core/Src/usbh_core.c ****     }
 343:./Libraries/STM32_USB_Host_Library/Core/Src/usbh_core.c ****     if_ix++;
 545              		.loc 1 343 5 is_stmt 1 view .LVU193
 334:./Libraries/STM32_USB_Host_Library/Core/Src/usbh_core.c ****   {
 546              		.loc 1 334 9 view .LVU194
 337:./Libraries/STM32_USB_Host_Library/Core/Src/usbh_core.c ****         ((pif->bInterfaceSubClass == SubClass) || (SubClass == 0xFFU)) &&
 547              		.loc 1 337 8 is_stmt 0 view .LVU195
 548 000e 90F84764 		ldrb	r6, [r0, #1095]	@ zero_extendqisi2
 549 0012 E5B2     		uxtb	r5, r4
 550              	.LVL27:
 336:./Libraries/STM32_USB_Host_Library/Core/Src/usbh_core.c ****     if (((pif->bInterfaceClass == Class) || (Class == 0xFFU)) &&
 551              		.loc 1 336 5 is_stmt 1 view .LVU196
 337:./Libraries/STM32_USB_Host_Library/Core/Src/usbh_core.c ****         ((pif->bInterfaceSubClass == SubClass) || (SubClass == 0xFFU)) &&
 552              		.loc 1 337 5 view .LVU197
 337:./Libraries/STM32_USB_Host_Library/Core/Src/usbh_core.c ****         ((pif->bInterfaceSubClass == SubClass) || (SubClass == 0xFFU)) &&
 553              		.loc 1 337 42 is_stmt 0 view .LVU198
 554 0014 8E42     		cmp	r6, r1
 555 0016 06D0     		beq	.L44
 556 0018 2FB9     		cbnz	r7, .L44
 557              	.L38:
 558 001a 1A30     		adds	r0, r0, #26
ARM GAS  /tmp/ccLKNEvV.s 			page 19


 334:./Libraries/STM32_USB_Host_Library/Core/Src/usbh_core.c ****   {
 559              		.loc 1 334 9 view .LVU199
 560 001c 94B1     		cbz	r4, .L43
 561              	.L53:
 344:./Libraries/STM32_USB_Host_Library/Core/Src/usbh_core.c ****   }
 345:./Libraries/STM32_USB_Host_Library/Core/Src/usbh_core.c ****   return 0xFFU;
 562              		.loc 1 345 10 view .LVU200
 563 001e FF25     		movs	r5, #255
 564              	.LVL28:
 565              	.L41:
 346:./Libraries/STM32_USB_Host_Library/Core/Src/usbh_core.c **** }
 566              		.loc 1 346 1 view .LVU201
 567 0020 2846     		mov	r0, r5
 568 0022 F0BC     		pop	{r4, r5, r6, r7}
 569              	.LCFI4:
 570              		.cfi_remember_state
 571              		.cfi_restore 7
 572              		.cfi_restore 6
 573              		.cfi_restore 5
 574              		.cfi_restore 4
 575              		.cfi_def_cfa_offset 0
 576              	.LVL29:
 577              		.loc 1 346 1 view .LVU202
 578 0024 7047     		bx	lr
 579              	.LVL30:
 580              	.L44:
 581              	.LCFI5:
 582              		.cfi_restore_state
 337:./Libraries/STM32_USB_Host_Library/Core/Src/usbh_core.c ****         ((pif->bInterfaceSubClass == SubClass) || (SubClass == 0xFFU)) &&
 583              		.loc 1 337 63 discriminator 3 view .LVU203
 584 0026 90F84864 		ldrb	r6, [r0, #1096]	@ zero_extendqisi2
 338:./Libraries/STM32_USB_Host_Library/Core/Src/usbh_core.c ****         ((pif->bInterfaceProtocol == Protocol) || (Protocol == 0xFFU)))
 585              		.loc 1 338 48 discriminator 3 view .LVU204
 586 002a 9642     		cmp	r6, r2
 587 002c 01D0     		beq	.L45
 588 002e FF2A     		cmp	r2, #255
 589 0030 F3D1     		bne	.L38
 590              	.L45:
 338:./Libraries/STM32_USB_Host_Library/Core/Src/usbh_core.c ****         ((pif->bInterfaceProtocol == Protocol) || (Protocol == 0xFFU)))
 591              		.loc 1 338 72 discriminator 1 view .LVU205
 592 0032 90F84964 		ldrb	r6, [r0, #1097]	@ zero_extendqisi2
 339:./Libraries/STM32_USB_Host_Library/Core/Src/usbh_core.c ****     {
 593              		.loc 1 339 48 discriminator 1 view .LVU206
 594 0036 9E42     		cmp	r6, r3
 595 0038 F2D0     		beq	.L41
 596 003a FF2B     		cmp	r3, #255
 597 003c F0D0     		beq	.L41
 598 003e 1A30     		adds	r0, r0, #26
 334:./Libraries/STM32_USB_Host_Library/Core/Src/usbh_core.c ****   {
 599              		.loc 1 334 9 view .LVU207
 600 0040 002C     		cmp	r4, #0
 601 0042 ECD1     		bne	.L53
 602              	.L43:
 603 0044 0124     		movs	r4, #1
 604              	.LVL31:
 334:./Libraries/STM32_USB_Host_Library/Core/Src/usbh_core.c ****   {
 605              		.loc 1 334 9 view .LVU208
ARM GAS  /tmp/ccLKNEvV.s 			page 20


 606 0046 E2E7     		b	.L42
 607              		.cfi_endproc
 608              	.LFE344:
 610              		.section	.text.USBH_FindInterfaceIndex,"ax",%progbits
 611              		.align	1
 612              		.p2align 2,,3
 613              		.global	USBH_FindInterfaceIndex
 614              		.syntax unified
 615              		.thumb
 616              		.thumb_func
 617              		.fpu fpv5-d16
 619              	USBH_FindInterfaceIndex:
 620              	.LVL32:
 621              	.LFB345:
 347:./Libraries/STM32_USB_Host_Library/Core/Src/usbh_core.c **** 
 348:./Libraries/STM32_USB_Host_Library/Core/Src/usbh_core.c **** 
 349:./Libraries/STM32_USB_Host_Library/Core/Src/usbh_core.c **** /**
 350:./Libraries/STM32_USB_Host_Library/Core/Src/usbh_core.c ****   * @brief  USBH_FindInterfaceIndex
 351:./Libraries/STM32_USB_Host_Library/Core/Src/usbh_core.c ****   *         Find the interface index for a specific class interface and alternate setting number.
 352:./Libraries/STM32_USB_Host_Library/Core/Src/usbh_core.c ****   * @param  phost: Host Handle
 353:./Libraries/STM32_USB_Host_Library/Core/Src/usbh_core.c ****   * @param  interface_number: interface number
 354:./Libraries/STM32_USB_Host_Library/Core/Src/usbh_core.c ****   * @param  alt_settings    : alternate setting number
 355:./Libraries/STM32_USB_Host_Library/Core/Src/usbh_core.c ****   * @retval interface index in the configuration structure
 356:./Libraries/STM32_USB_Host_Library/Core/Src/usbh_core.c ****   * @note : (1)interface index 0xFF means interface index not found
 357:./Libraries/STM32_USB_Host_Library/Core/Src/usbh_core.c ****   */
 358:./Libraries/STM32_USB_Host_Library/Core/Src/usbh_core.c **** uint8_t  USBH_FindInterfaceIndex(USBH_HandleTypeDef *phost, uint8_t interface_number, uint8_t alt_s
 359:./Libraries/STM32_USB_Host_Library/Core/Src/usbh_core.c **** {
 622              		.loc 1 359 1 is_stmt 1 view -0
 623              		.cfi_startproc
 624              		@ args = 0, pretend = 0, frame = 0
 625              		@ frame_needed = 0, uses_anonymous_args = 0
 626              		@ link register save eliminated.
 360:./Libraries/STM32_USB_Host_Library/Core/Src/usbh_core.c ****   USBH_InterfaceDescTypeDef *pif;
 627              		.loc 1 360 3 view .LVU210
 361:./Libraries/STM32_USB_Host_Library/Core/Src/usbh_core.c ****   USBH_CfgDescTypeDef *pcfg;
 628              		.loc 1 361 3 view .LVU211
 362:./Libraries/STM32_USB_Host_Library/Core/Src/usbh_core.c ****   uint8_t if_ix = 0U;
 629              		.loc 1 362 3 view .LVU212
 363:./Libraries/STM32_USB_Host_Library/Core/Src/usbh_core.c **** 
 364:./Libraries/STM32_USB_Host_Library/Core/Src/usbh_core.c ****   pif = (USBH_InterfaceDescTypeDef *)0;
 630              		.loc 1 364 3 view .LVU213
 365:./Libraries/STM32_USB_Host_Library/Core/Src/usbh_core.c ****   pcfg = &phost->device.CfgDesc;
 631              		.loc 1 365 3 view .LVU214
 366:./Libraries/STM32_USB_Host_Library/Core/Src/usbh_core.c **** 
 367:./Libraries/STM32_USB_Host_Library/Core/Src/usbh_core.c ****   while (if_ix < USBH_MAX_NUM_INTERFACES)
 632              		.loc 1 367 3 view .LVU215
 633              		.loc 1 367 9 view .LVU216
 368:./Libraries/STM32_USB_Host_Library/Core/Src/usbh_core.c ****   {
 369:./Libraries/STM32_USB_Host_Library/Core/Src/usbh_core.c ****     pif = &pcfg->Itf_Desc[if_ix];
 634              		.loc 1 369 5 view .LVU217
 370:./Libraries/STM32_USB_Host_Library/Core/Src/usbh_core.c ****     if ((pif->bInterfaceNumber == interface_number) && (pif->bAlternateSetting == alt_settings))
 635              		.loc 1 370 5 view .LVU218
 636              		.loc 1 370 8 is_stmt 0 view .LVU219
 637 0000 90F84434 		ldrb	r3, [r0, #1092]	@ zero_extendqisi2
 638 0004 8B42     		cmp	r3, r1
 639 0006 05D0     		beq	.L60
 640              	.L55:
ARM GAS  /tmp/ccLKNEvV.s 			page 21


 371:./Libraries/STM32_USB_Host_Library/Core/Src/usbh_core.c ****     {
 372:./Libraries/STM32_USB_Host_Library/Core/Src/usbh_core.c ****       return  if_ix;
 373:./Libraries/STM32_USB_Host_Library/Core/Src/usbh_core.c ****     }
 374:./Libraries/STM32_USB_Host_Library/Core/Src/usbh_core.c ****     if_ix++;
 641              		.loc 1 374 5 is_stmt 1 view .LVU220
 642              	.LVL33:
 367:./Libraries/STM32_USB_Host_Library/Core/Src/usbh_core.c ****   {
 643              		.loc 1 367 9 view .LVU221
 369:./Libraries/STM32_USB_Host_Library/Core/Src/usbh_core.c ****     if ((pif->bInterfaceNumber == interface_number) && (pif->bAlternateSetting == alt_settings))
 644              		.loc 1 369 5 view .LVU222
 370:./Libraries/STM32_USB_Host_Library/Core/Src/usbh_core.c ****     {
 645              		.loc 1 370 5 view .LVU223
 370:./Libraries/STM32_USB_Host_Library/Core/Src/usbh_core.c ****     {
 646              		.loc 1 370 8 is_stmt 0 view .LVU224
 647 0008 90F85E34 		ldrb	r3, [r0, #1118]	@ zero_extendqisi2
 648 000c 8B42     		cmp	r3, r1
 649 000e 07D0     		beq	.L61
 375:./Libraries/STM32_USB_Host_Library/Core/Src/usbh_core.c ****   }
 376:./Libraries/STM32_USB_Host_Library/Core/Src/usbh_core.c ****   return 0xFFU;
 650              		.loc 1 376 10 view .LVU225
 651 0010 FF20     		movs	r0, #255
 652              	.LVL34:
 377:./Libraries/STM32_USB_Host_Library/Core/Src/usbh_core.c **** }
 653              		.loc 1 377 1 view .LVU226
 654 0012 7047     		bx	lr
 655              	.LVL35:
 656              	.L60:
 370:./Libraries/STM32_USB_Host_Library/Core/Src/usbh_core.c ****     {
 657              		.loc 1 370 53 view .LVU227
 658 0014 90F84534 		ldrb	r3, [r0, #1093]	@ zero_extendqisi2
 659 0018 9342     		cmp	r3, r2
 660 001a F5D1     		bne	.L55
 362:./Libraries/STM32_USB_Host_Library/Core/Src/usbh_core.c **** 
 661              		.loc 1 362 11 view .LVU228
 662 001c 0020     		movs	r0, #0
 663              	.LVL36:
 362:./Libraries/STM32_USB_Host_Library/Core/Src/usbh_core.c **** 
 664              		.loc 1 362 11 view .LVU229
 665 001e 7047     		bx	lr
 666              	.LVL37:
 667              	.L61:
 370:./Libraries/STM32_USB_Host_Library/Core/Src/usbh_core.c ****     {
 668              		.loc 1 370 53 view .LVU230
 669 0020 90F85F04 		ldrb	r0, [r0, #1119]	@ zero_extendqisi2
 670              	.LVL38:
 374:./Libraries/STM32_USB_Host_Library/Core/Src/usbh_core.c ****   }
 671              		.loc 1 374 10 view .LVU231
 672 0024 9042     		cmp	r0, r2
 673 0026 14BF     		ite	ne
 674 0028 FF20     		movne	r0, #255
 675 002a 0120     		moveq	r0, #1
 676 002c 7047     		bx	lr
 677              		.cfi_endproc
 678              	.LFE345:
 680 002e 00BF     		.section	.text.USBH_Start,"ax",%progbits
 681              		.align	1
 682              		.p2align 2,,3
ARM GAS  /tmp/ccLKNEvV.s 			page 22


 683              		.global	USBH_Start
 684              		.syntax unified
 685              		.thumb
 686              		.thumb_func
 687              		.fpu fpv5-d16
 689              	USBH_Start:
 690              	.LVL39:
 691              	.LFB346:
 378:./Libraries/STM32_USB_Host_Library/Core/Src/usbh_core.c **** 
 379:./Libraries/STM32_USB_Host_Library/Core/Src/usbh_core.c **** 
 380:./Libraries/STM32_USB_Host_Library/Core/Src/usbh_core.c **** /**
 381:./Libraries/STM32_USB_Host_Library/Core/Src/usbh_core.c ****   * @brief  USBH_Start
 382:./Libraries/STM32_USB_Host_Library/Core/Src/usbh_core.c ****   *         Start the USB Host Core.
 383:./Libraries/STM32_USB_Host_Library/Core/Src/usbh_core.c ****   * @param  phost: Host Handle
 384:./Libraries/STM32_USB_Host_Library/Core/Src/usbh_core.c ****   * @retval USBH Status
 385:./Libraries/STM32_USB_Host_Library/Core/Src/usbh_core.c ****   */
 386:./Libraries/STM32_USB_Host_Library/Core/Src/usbh_core.c **** USBH_StatusTypeDef  USBH_Start(USBH_HandleTypeDef *phost)
 387:./Libraries/STM32_USB_Host_Library/Core/Src/usbh_core.c **** {
 692              		.loc 1 387 1 is_stmt 1 view -0
 693              		.cfi_startproc
 694              		@ args = 0, pretend = 0, frame = 0
 695              		@ frame_needed = 0, uses_anonymous_args = 0
 388:./Libraries/STM32_USB_Host_Library/Core/Src/usbh_core.c ****   /* Start the low level driver  */
 389:./Libraries/STM32_USB_Host_Library/Core/Src/usbh_core.c ****   USBH_LL_Start(phost);
 696              		.loc 1 389 3 view .LVU233
 387:./Libraries/STM32_USB_Host_Library/Core/Src/usbh_core.c ****   /* Start the low level driver  */
 697              		.loc 1 387 1 is_stmt 0 view .LVU234
 698 0000 10B5     		push	{r4, lr}
 699              	.LCFI6:
 700              		.cfi_def_cfa_offset 8
 701              		.cfi_offset 4, -8
 702              		.cfi_offset 14, -4
 387:./Libraries/STM32_USB_Host_Library/Core/Src/usbh_core.c ****   /* Start the low level driver  */
 703              		.loc 1 387 1 view .LVU235
 704 0002 0446     		mov	r4, r0
 705              		.loc 1 389 3 view .LVU236
 706 0004 FFF7FEFF 		bl	USBH_LL_Start
 707              	.LVL40:
 390:./Libraries/STM32_USB_Host_Library/Core/Src/usbh_core.c **** 
 391:./Libraries/STM32_USB_Host_Library/Core/Src/usbh_core.c ****   /* Activate VBUS on the port */
 392:./Libraries/STM32_USB_Host_Library/Core/Src/usbh_core.c ****   USBH_LL_DriverVBUS(phost, TRUE);
 708              		.loc 1 392 3 is_stmt 1 view .LVU237
 709 0008 0121     		movs	r1, #1
 710 000a 2046     		mov	r0, r4
 711 000c FFF7FEFF 		bl	USBH_LL_DriverVBUS
 712              	.LVL41:
 393:./Libraries/STM32_USB_Host_Library/Core/Src/usbh_core.c **** 
 394:./Libraries/STM32_USB_Host_Library/Core/Src/usbh_core.c ****   return USBH_OK;
 713              		.loc 1 394 3 view .LVU238
 395:./Libraries/STM32_USB_Host_Library/Core/Src/usbh_core.c **** }
 714              		.loc 1 395 1 is_stmt 0 view .LVU239
 715 0010 0020     		movs	r0, #0
 716 0012 10BD     		pop	{r4, pc}
 717              		.loc 1 395 1 view .LVU240
 718              		.cfi_endproc
 719              	.LFE346:
 721              		.section	.text.USBH_Stop,"ax",%progbits
ARM GAS  /tmp/ccLKNEvV.s 			page 23


 722              		.align	1
 723              		.p2align 2,,3
 724              		.global	USBH_Stop
 725              		.syntax unified
 726              		.thumb
 727              		.thumb_func
 728              		.fpu fpv5-d16
 730              	USBH_Stop:
 731              	.LVL42:
 732              	.LFB347:
 396:./Libraries/STM32_USB_Host_Library/Core/Src/usbh_core.c **** 
 397:./Libraries/STM32_USB_Host_Library/Core/Src/usbh_core.c **** 
 398:./Libraries/STM32_USB_Host_Library/Core/Src/usbh_core.c **** /**
 399:./Libraries/STM32_USB_Host_Library/Core/Src/usbh_core.c ****   * @brief  USBH_Stop
 400:./Libraries/STM32_USB_Host_Library/Core/Src/usbh_core.c ****   *         Stop the USB Host Core.
 401:./Libraries/STM32_USB_Host_Library/Core/Src/usbh_core.c ****   * @param  phost: Host Handle
 402:./Libraries/STM32_USB_Host_Library/Core/Src/usbh_core.c ****   * @retval USBH Status
 403:./Libraries/STM32_USB_Host_Library/Core/Src/usbh_core.c ****   */
 404:./Libraries/STM32_USB_Host_Library/Core/Src/usbh_core.c **** USBH_StatusTypeDef  USBH_Stop(USBH_HandleTypeDef *phost)
 405:./Libraries/STM32_USB_Host_Library/Core/Src/usbh_core.c **** {
 733              		.loc 1 405 1 is_stmt 1 view -0
 734              		.cfi_startproc
 735              		@ args = 0, pretend = 0, frame = 0
 736              		@ frame_needed = 0, uses_anonymous_args = 0
 406:./Libraries/STM32_USB_Host_Library/Core/Src/usbh_core.c ****   /* DeActivate VBUS on the port */
 407:./Libraries/STM32_USB_Host_Library/Core/Src/usbh_core.c ****   USBH_LL_DriverVBUS(phost, FALSE);
 737              		.loc 1 407 3 view .LVU242
 405:./Libraries/STM32_USB_Host_Library/Core/Src/usbh_core.c ****   /* DeActivate VBUS on the port */
 738              		.loc 1 405 1 is_stmt 0 view .LVU243
 739 0000 10B5     		push	{r4, lr}
 740              	.LCFI7:
 741              		.cfi_def_cfa_offset 8
 742              		.cfi_offset 4, -8
 743              		.cfi_offset 14, -4
 405:./Libraries/STM32_USB_Host_Library/Core/Src/usbh_core.c ****   /* DeActivate VBUS on the port */
 744              		.loc 1 405 1 view .LVU244
 745 0002 0446     		mov	r4, r0
 746              		.loc 1 407 3 view .LVU245
 747 0004 0021     		movs	r1, #0
 748 0006 FFF7FEFF 		bl	USBH_LL_DriverVBUS
 749              	.LVL43:
 408:./Libraries/STM32_USB_Host_Library/Core/Src/usbh_core.c **** 
 409:./Libraries/STM32_USB_Host_Library/Core/Src/usbh_core.c ****   /* Stop and cleanup the low level driver  */
 410:./Libraries/STM32_USB_Host_Library/Core/Src/usbh_core.c ****   USBH_LL_Stop(phost);
 750              		.loc 1 410 3 is_stmt 1 view .LVU246
 751 000a 2046     		mov	r0, r4
 752 000c FFF7FEFF 		bl	USBH_LL_Stop
 753              	.LVL44:
 411:./Libraries/STM32_USB_Host_Library/Core/Src/usbh_core.c **** 
 412:./Libraries/STM32_USB_Host_Library/Core/Src/usbh_core.c ****   /* Free Control Pipes */
 413:./Libraries/STM32_USB_Host_Library/Core/Src/usbh_core.c ****   USBH_FreePipe(phost, phost->Control.pipe_in);
 754              		.loc 1 413 3 view .LVU247
 755 0010 2179     		ldrb	r1, [r4, #4]	@ zero_extendqisi2
 756 0012 2046     		mov	r0, r4
 757 0014 FFF7FEFF 		bl	USBH_FreePipe
 758              	.LVL45:
 414:./Libraries/STM32_USB_Host_Library/Core/Src/usbh_core.c ****   USBH_FreePipe(phost, phost->Control.pipe_out);
ARM GAS  /tmp/ccLKNEvV.s 			page 24


 759              		.loc 1 414 3 view .LVU248
 760 0018 6179     		ldrb	r1, [r4, #5]	@ zero_extendqisi2
 761 001a 2046     		mov	r0, r4
 762 001c FFF7FEFF 		bl	USBH_FreePipe
 763              	.LVL46:
 415:./Libraries/STM32_USB_Host_Library/Core/Src/usbh_core.c **** 
 416:./Libraries/STM32_USB_Host_Library/Core/Src/usbh_core.c ****   return USBH_OK;
 764              		.loc 1 416 3 view .LVU249
 417:./Libraries/STM32_USB_Host_Library/Core/Src/usbh_core.c **** }
 765              		.loc 1 417 1 is_stmt 0 view .LVU250
 766 0020 0020     		movs	r0, #0
 767 0022 10BD     		pop	{r4, pc}
 768              		.loc 1 417 1 view .LVU251
 769              		.cfi_endproc
 770              	.LFE347:
 772              		.section	.text.USBH_ReEnumerate,"ax",%progbits
 773              		.align	1
 774              		.p2align 2,,3
 775              		.global	USBH_ReEnumerate
 776              		.syntax unified
 777              		.thumb
 778              		.thumb_func
 779              		.fpu fpv5-d16
 781              	USBH_ReEnumerate:
 782              	.LVL47:
 783              	.LFB348:
 418:./Libraries/STM32_USB_Host_Library/Core/Src/usbh_core.c **** 
 419:./Libraries/STM32_USB_Host_Library/Core/Src/usbh_core.c **** 
 420:./Libraries/STM32_USB_Host_Library/Core/Src/usbh_core.c **** /**
 421:./Libraries/STM32_USB_Host_Library/Core/Src/usbh_core.c ****   * @brief  HCD_ReEnumerate
 422:./Libraries/STM32_USB_Host_Library/Core/Src/usbh_core.c ****   *         Perform a new Enumeration phase.
 423:./Libraries/STM32_USB_Host_Library/Core/Src/usbh_core.c ****   * @param  phost: Host Handle
 424:./Libraries/STM32_USB_Host_Library/Core/Src/usbh_core.c ****   * @retval USBH Status
 425:./Libraries/STM32_USB_Host_Library/Core/Src/usbh_core.c ****   */
 426:./Libraries/STM32_USB_Host_Library/Core/Src/usbh_core.c **** USBH_StatusTypeDef USBH_ReEnumerate(USBH_HandleTypeDef *phost)
 427:./Libraries/STM32_USB_Host_Library/Core/Src/usbh_core.c **** {
 784              		.loc 1 427 1 is_stmt 1 view -0
 785              		.cfi_startproc
 786              		@ args = 0, pretend = 0, frame = 0
 787              		@ frame_needed = 0, uses_anonymous_args = 0
 428:./Libraries/STM32_USB_Host_Library/Core/Src/usbh_core.c ****   if (USBH_IsPortEnabled(phost))
 788              		.loc 1 428 3 view .LVU253
 427:./Libraries/STM32_USB_Host_Library/Core/Src/usbh_core.c ****   if (USBH_IsPortEnabled(phost))
 789              		.loc 1 427 1 is_stmt 0 view .LVU254
 790 0000 38B5     		push	{r3, r4, r5, lr}
 791              	.LCFI8:
 792              		.cfi_def_cfa_offset 16
 793              		.cfi_offset 3, -16
 794              		.cfi_offset 4, -12
 795              		.cfi_offset 5, -8
 796              		.cfi_offset 14, -4
 797              		.loc 1 428 6 view .LVU255
 798 0002 90F82334 		ldrb	r3, [r0, #1059]	@ zero_extendqisi2
 427:./Libraries/STM32_USB_Host_Library/Core/Src/usbh_core.c ****   if (USBH_IsPortEnabled(phost))
 799              		.loc 1 427 1 view .LVU256
 800 0006 0446     		mov	r4, r0
 801              	.LVL48:
ARM GAS  /tmp/ccLKNEvV.s 			page 25


 802              	.LBB35:
 803              	.LBI35:
 429:./Libraries/STM32_USB_Host_Library/Core/Src/usbh_core.c ****   {
 430:./Libraries/STM32_USB_Host_Library/Core/Src/usbh_core.c ****     phost->device.is_ReEnumerated = 1U;
 431:./Libraries/STM32_USB_Host_Library/Core/Src/usbh_core.c **** 
 432:./Libraries/STM32_USB_Host_Library/Core/Src/usbh_core.c ****     /* Stop Host */
 433:./Libraries/STM32_USB_Host_Library/Core/Src/usbh_core.c ****     USBH_Stop(phost);
 434:./Libraries/STM32_USB_Host_Library/Core/Src/usbh_core.c **** 
 435:./Libraries/STM32_USB_Host_Library/Core/Src/usbh_core.c ****     phost->device.is_disconnected = 1U;
 436:./Libraries/STM32_USB_Host_Library/Core/Src/usbh_core.c ****   }
 437:./Libraries/STM32_USB_Host_Library/Core/Src/usbh_core.c **** 
 438:./Libraries/STM32_USB_Host_Library/Core/Src/usbh_core.c **** #if (USBH_USE_OS == 1U)
 439:./Libraries/STM32_USB_Host_Library/Core/Src/usbh_core.c ****   phost->os_msg = (uint32_t)USBH_PORT_EVENT;
 440:./Libraries/STM32_USB_Host_Library/Core/Src/usbh_core.c **** #if (osCMSIS < 0x20000U)
 441:./Libraries/STM32_USB_Host_Library/Core/Src/usbh_core.c ****   (void)osMessagePut(phost->os_event, phost->os_msg, 0U);
 442:./Libraries/STM32_USB_Host_Library/Core/Src/usbh_core.c **** #else
 443:./Libraries/STM32_USB_Host_Library/Core/Src/usbh_core.c ****   (void)osMessageQueuePut(phost->os_event, &phost->os_msg, 0U, NULL);
 444:./Libraries/STM32_USB_Host_Library/Core/Src/usbh_core.c **** #endif
 445:./Libraries/STM32_USB_Host_Library/Core/Src/usbh_core.c **** #endif
 446:./Libraries/STM32_USB_Host_Library/Core/Src/usbh_core.c **** 
 447:./Libraries/STM32_USB_Host_Library/Core/Src/usbh_core.c ****   return USBH_OK;
 448:./Libraries/STM32_USB_Host_Library/Core/Src/usbh_core.c **** }
 449:./Libraries/STM32_USB_Host_Library/Core/Src/usbh_core.c **** 
 450:./Libraries/STM32_USB_Host_Library/Core/Src/usbh_core.c **** 
 451:./Libraries/STM32_USB_Host_Library/Core/Src/usbh_core.c **** /**
 452:./Libraries/STM32_USB_Host_Library/Core/Src/usbh_core.c ****   * @brief  USBH_Process
 453:./Libraries/STM32_USB_Host_Library/Core/Src/usbh_core.c ****   *         Background process of the USB Core.
 454:./Libraries/STM32_USB_Host_Library/Core/Src/usbh_core.c ****   * @param  phost: Host Handle
 455:./Libraries/STM32_USB_Host_Library/Core/Src/usbh_core.c ****   * @retval USBH Status
 456:./Libraries/STM32_USB_Host_Library/Core/Src/usbh_core.c ****   */
 457:./Libraries/STM32_USB_Host_Library/Core/Src/usbh_core.c **** USBH_StatusTypeDef  USBH_Process(USBH_HandleTypeDef *phost)
 458:./Libraries/STM32_USB_Host_Library/Core/Src/usbh_core.c **** {
 459:./Libraries/STM32_USB_Host_Library/Core/Src/usbh_core.c ****   __IO USBH_StatusTypeDef status = USBH_FAIL;
 460:./Libraries/STM32_USB_Host_Library/Core/Src/usbh_core.c ****   uint8_t idx = 0U;
 461:./Libraries/STM32_USB_Host_Library/Core/Src/usbh_core.c **** 
 462:./Libraries/STM32_USB_Host_Library/Core/Src/usbh_core.c ****   /* check for Host pending port disconnect event */
 463:./Libraries/STM32_USB_Host_Library/Core/Src/usbh_core.c ****   if (phost->device.is_disconnected == 1U)
 464:./Libraries/STM32_USB_Host_Library/Core/Src/usbh_core.c ****   {
 465:./Libraries/STM32_USB_Host_Library/Core/Src/usbh_core.c ****     phost->gState = HOST_DEV_DISCONNECTED;
 466:./Libraries/STM32_USB_Host_Library/Core/Src/usbh_core.c ****   }
 467:./Libraries/STM32_USB_Host_Library/Core/Src/usbh_core.c **** 
 468:./Libraries/STM32_USB_Host_Library/Core/Src/usbh_core.c ****   switch (phost->gState)
 469:./Libraries/STM32_USB_Host_Library/Core/Src/usbh_core.c ****   {
 470:./Libraries/STM32_USB_Host_Library/Core/Src/usbh_core.c ****     case HOST_IDLE :
 471:./Libraries/STM32_USB_Host_Library/Core/Src/usbh_core.c **** 
 472:./Libraries/STM32_USB_Host_Library/Core/Src/usbh_core.c ****       if (phost->device.is_connected)
 473:./Libraries/STM32_USB_Host_Library/Core/Src/usbh_core.c ****       {
 474:./Libraries/STM32_USB_Host_Library/Core/Src/usbh_core.c ****         USBH_UsrLog("USB Device Connected");
 475:./Libraries/STM32_USB_Host_Library/Core/Src/usbh_core.c **** 
 476:./Libraries/STM32_USB_Host_Library/Core/Src/usbh_core.c ****         /* Wait for 200 ms after connection */
 477:./Libraries/STM32_USB_Host_Library/Core/Src/usbh_core.c ****         phost->gState = HOST_DEV_WAIT_FOR_ATTACHMENT;
 478:./Libraries/STM32_USB_Host_Library/Core/Src/usbh_core.c ****         USBH_Delay(200U);
 479:./Libraries/STM32_USB_Host_Library/Core/Src/usbh_core.c ****         USBH_LL_ResetPort(phost);
 480:./Libraries/STM32_USB_Host_Library/Core/Src/usbh_core.c **** 
 481:./Libraries/STM32_USB_Host_Library/Core/Src/usbh_core.c ****         /* Make sure to start with Default address */
 482:./Libraries/STM32_USB_Host_Library/Core/Src/usbh_core.c ****         phost->device.address = USBH_ADDRESS_DEFAULT;
 483:./Libraries/STM32_USB_Host_Library/Core/Src/usbh_core.c ****         phost->Timeout = 0U;
ARM GAS  /tmp/ccLKNEvV.s 			page 26


 484:./Libraries/STM32_USB_Host_Library/Core/Src/usbh_core.c **** 
 485:./Libraries/STM32_USB_Host_Library/Core/Src/usbh_core.c **** #if (USBH_USE_OS == 1U)
 486:./Libraries/STM32_USB_Host_Library/Core/Src/usbh_core.c ****         phost->os_msg = (uint32_t)USBH_PORT_EVENT;
 487:./Libraries/STM32_USB_Host_Library/Core/Src/usbh_core.c **** #if (osCMSIS < 0x20000U)
 488:./Libraries/STM32_USB_Host_Library/Core/Src/usbh_core.c ****         (void)osMessagePut(phost->os_event, phost->os_msg, 0U);
 489:./Libraries/STM32_USB_Host_Library/Core/Src/usbh_core.c **** #else
 490:./Libraries/STM32_USB_Host_Library/Core/Src/usbh_core.c ****         (void)osMessageQueuePut(phost->os_event, &phost->os_msg, 0U, NULL);
 491:./Libraries/STM32_USB_Host_Library/Core/Src/usbh_core.c **** #endif
 492:./Libraries/STM32_USB_Host_Library/Core/Src/usbh_core.c **** #endif
 493:./Libraries/STM32_USB_Host_Library/Core/Src/usbh_core.c ****       }
 494:./Libraries/STM32_USB_Host_Library/Core/Src/usbh_core.c ****       break;
 495:./Libraries/STM32_USB_Host_Library/Core/Src/usbh_core.c **** 
 496:./Libraries/STM32_USB_Host_Library/Core/Src/usbh_core.c ****     case HOST_DEV_WAIT_FOR_ATTACHMENT: /* Wait for Port Enabled */
 497:./Libraries/STM32_USB_Host_Library/Core/Src/usbh_core.c **** 
 498:./Libraries/STM32_USB_Host_Library/Core/Src/usbh_core.c ****       if (phost->device.PortEnabled == 1U)
 499:./Libraries/STM32_USB_Host_Library/Core/Src/usbh_core.c ****       {
 500:./Libraries/STM32_USB_Host_Library/Core/Src/usbh_core.c ****         USBH_UsrLog("USB Device Reset Completed");
 501:./Libraries/STM32_USB_Host_Library/Core/Src/usbh_core.c ****         phost->device.RstCnt = 0U;
 502:./Libraries/STM32_USB_Host_Library/Core/Src/usbh_core.c ****         phost->gState = HOST_DEV_ATTACHED;
 503:./Libraries/STM32_USB_Host_Library/Core/Src/usbh_core.c ****       }
 504:./Libraries/STM32_USB_Host_Library/Core/Src/usbh_core.c ****       else
 505:./Libraries/STM32_USB_Host_Library/Core/Src/usbh_core.c ****       {
 506:./Libraries/STM32_USB_Host_Library/Core/Src/usbh_core.c ****         if (phost->Timeout > USBH_DEV_RESET_TIMEOUT)
 507:./Libraries/STM32_USB_Host_Library/Core/Src/usbh_core.c ****         {
 508:./Libraries/STM32_USB_Host_Library/Core/Src/usbh_core.c ****           phost->device.RstCnt++;
 509:./Libraries/STM32_USB_Host_Library/Core/Src/usbh_core.c ****           if (phost->device.RstCnt > 3U)
 510:./Libraries/STM32_USB_Host_Library/Core/Src/usbh_core.c ****           {
 511:./Libraries/STM32_USB_Host_Library/Core/Src/usbh_core.c ****             /* Buggy Device can't complete reset */
 512:./Libraries/STM32_USB_Host_Library/Core/Src/usbh_core.c ****             USBH_UsrLog("USB Reset Failed, Please unplug the Device.");
 513:./Libraries/STM32_USB_Host_Library/Core/Src/usbh_core.c ****             phost->gState = HOST_ABORT_STATE;
 514:./Libraries/STM32_USB_Host_Library/Core/Src/usbh_core.c ****           }
 515:./Libraries/STM32_USB_Host_Library/Core/Src/usbh_core.c ****           else
 516:./Libraries/STM32_USB_Host_Library/Core/Src/usbh_core.c ****           {
 517:./Libraries/STM32_USB_Host_Library/Core/Src/usbh_core.c ****             phost->gState = HOST_IDLE;
 518:./Libraries/STM32_USB_Host_Library/Core/Src/usbh_core.c ****           }
 519:./Libraries/STM32_USB_Host_Library/Core/Src/usbh_core.c ****         }
 520:./Libraries/STM32_USB_Host_Library/Core/Src/usbh_core.c ****         else
 521:./Libraries/STM32_USB_Host_Library/Core/Src/usbh_core.c ****         {
 522:./Libraries/STM32_USB_Host_Library/Core/Src/usbh_core.c ****           phost->Timeout += 10U;
 523:./Libraries/STM32_USB_Host_Library/Core/Src/usbh_core.c ****           USBH_Delay(10U);
 524:./Libraries/STM32_USB_Host_Library/Core/Src/usbh_core.c ****         }
 525:./Libraries/STM32_USB_Host_Library/Core/Src/usbh_core.c ****       }
 526:./Libraries/STM32_USB_Host_Library/Core/Src/usbh_core.c **** #if (USBH_USE_OS == 1U)
 527:./Libraries/STM32_USB_Host_Library/Core/Src/usbh_core.c ****       phost->os_msg = (uint32_t)USBH_PORT_EVENT;
 528:./Libraries/STM32_USB_Host_Library/Core/Src/usbh_core.c **** #if (osCMSIS < 0x20000U)
 529:./Libraries/STM32_USB_Host_Library/Core/Src/usbh_core.c ****       (void)osMessagePut(phost->os_event, phost->os_msg, 0U);
 530:./Libraries/STM32_USB_Host_Library/Core/Src/usbh_core.c **** #else
 531:./Libraries/STM32_USB_Host_Library/Core/Src/usbh_core.c ****       (void)osMessageQueuePut(phost->os_event, &phost->os_msg, 0U, NULL);
 532:./Libraries/STM32_USB_Host_Library/Core/Src/usbh_core.c **** #endif
 533:./Libraries/STM32_USB_Host_Library/Core/Src/usbh_core.c **** #endif
 534:./Libraries/STM32_USB_Host_Library/Core/Src/usbh_core.c ****       break;
 535:./Libraries/STM32_USB_Host_Library/Core/Src/usbh_core.c **** 
 536:./Libraries/STM32_USB_Host_Library/Core/Src/usbh_core.c ****     case HOST_DEV_ATTACHED :
 537:./Libraries/STM32_USB_Host_Library/Core/Src/usbh_core.c **** 
 538:./Libraries/STM32_USB_Host_Library/Core/Src/usbh_core.c ****       if (phost->pUser != NULL)
 539:./Libraries/STM32_USB_Host_Library/Core/Src/usbh_core.c ****       {
 540:./Libraries/STM32_USB_Host_Library/Core/Src/usbh_core.c ****         phost->pUser(phost, HOST_USER_CONNECTION);
ARM GAS  /tmp/ccLKNEvV.s 			page 27


 541:./Libraries/STM32_USB_Host_Library/Core/Src/usbh_core.c ****       }
 542:./Libraries/STM32_USB_Host_Library/Core/Src/usbh_core.c **** 
 543:./Libraries/STM32_USB_Host_Library/Core/Src/usbh_core.c ****       /* Wait for 100 ms after Reset */
 544:./Libraries/STM32_USB_Host_Library/Core/Src/usbh_core.c ****       USBH_Delay(100U);
 545:./Libraries/STM32_USB_Host_Library/Core/Src/usbh_core.c **** 
 546:./Libraries/STM32_USB_Host_Library/Core/Src/usbh_core.c ****       phost->device.speed = USBH_LL_GetSpeed(phost);
 547:./Libraries/STM32_USB_Host_Library/Core/Src/usbh_core.c **** 
 548:./Libraries/STM32_USB_Host_Library/Core/Src/usbh_core.c ****       phost->gState = HOST_ENUMERATION;
 549:./Libraries/STM32_USB_Host_Library/Core/Src/usbh_core.c **** 
 550:./Libraries/STM32_USB_Host_Library/Core/Src/usbh_core.c ****       phost->Control.pipe_out = USBH_AllocPipe(phost, 0x00U);
 551:./Libraries/STM32_USB_Host_Library/Core/Src/usbh_core.c ****       phost->Control.pipe_in  = USBH_AllocPipe(phost, 0x80U);
 552:./Libraries/STM32_USB_Host_Library/Core/Src/usbh_core.c **** 
 553:./Libraries/STM32_USB_Host_Library/Core/Src/usbh_core.c ****       /* Open Control pipes */
 554:./Libraries/STM32_USB_Host_Library/Core/Src/usbh_core.c ****       USBH_OpenPipe(phost, phost->Control.pipe_in, 0x80U,
 555:./Libraries/STM32_USB_Host_Library/Core/Src/usbh_core.c ****                     phost->device.address, phost->device.speed,
 556:./Libraries/STM32_USB_Host_Library/Core/Src/usbh_core.c ****                     USBH_EP_CONTROL, (uint16_t)phost->Control.pipe_size);
 557:./Libraries/STM32_USB_Host_Library/Core/Src/usbh_core.c **** 
 558:./Libraries/STM32_USB_Host_Library/Core/Src/usbh_core.c ****       /* Open Control pipes */
 559:./Libraries/STM32_USB_Host_Library/Core/Src/usbh_core.c ****       USBH_OpenPipe(phost, phost->Control.pipe_out, 0x00U,
 560:./Libraries/STM32_USB_Host_Library/Core/Src/usbh_core.c ****                     phost->device.address, phost->device.speed,
 561:./Libraries/STM32_USB_Host_Library/Core/Src/usbh_core.c ****                     USBH_EP_CONTROL, (uint16_t)phost->Control.pipe_size);
 562:./Libraries/STM32_USB_Host_Library/Core/Src/usbh_core.c **** 
 563:./Libraries/STM32_USB_Host_Library/Core/Src/usbh_core.c **** #if (USBH_USE_OS == 1U)
 564:./Libraries/STM32_USB_Host_Library/Core/Src/usbh_core.c ****       phost->os_msg = (uint32_t)USBH_PORT_EVENT;
 565:./Libraries/STM32_USB_Host_Library/Core/Src/usbh_core.c **** #if (osCMSIS < 0x20000U)
 566:./Libraries/STM32_USB_Host_Library/Core/Src/usbh_core.c ****       (void)osMessagePut(phost->os_event, phost->os_msg, 0U);
 567:./Libraries/STM32_USB_Host_Library/Core/Src/usbh_core.c **** #else
 568:./Libraries/STM32_USB_Host_Library/Core/Src/usbh_core.c ****       (void)osMessageQueuePut(phost->os_event, &phost->os_msg, 0U, NULL);
 569:./Libraries/STM32_USB_Host_Library/Core/Src/usbh_core.c **** #endif
 570:./Libraries/STM32_USB_Host_Library/Core/Src/usbh_core.c **** #endif
 571:./Libraries/STM32_USB_Host_Library/Core/Src/usbh_core.c ****       break;
 572:./Libraries/STM32_USB_Host_Library/Core/Src/usbh_core.c **** 
 573:./Libraries/STM32_USB_Host_Library/Core/Src/usbh_core.c ****     case HOST_ENUMERATION:
 574:./Libraries/STM32_USB_Host_Library/Core/Src/usbh_core.c ****       /* Check for enumeration status */
 575:./Libraries/STM32_USB_Host_Library/Core/Src/usbh_core.c ****       status = USBH_HandleEnum(phost);
 576:./Libraries/STM32_USB_Host_Library/Core/Src/usbh_core.c ****       if (status == USBH_OK)
 577:./Libraries/STM32_USB_Host_Library/Core/Src/usbh_core.c ****       {
 578:./Libraries/STM32_USB_Host_Library/Core/Src/usbh_core.c ****         /* The function shall return USBH_OK when full enumeration is complete */
 579:./Libraries/STM32_USB_Host_Library/Core/Src/usbh_core.c ****         USBH_UsrLog("Enumeration done.");
 580:./Libraries/STM32_USB_Host_Library/Core/Src/usbh_core.c **** 
 581:./Libraries/STM32_USB_Host_Library/Core/Src/usbh_core.c ****         phost->device.current_interface = 0U;
 582:./Libraries/STM32_USB_Host_Library/Core/Src/usbh_core.c **** 
 583:./Libraries/STM32_USB_Host_Library/Core/Src/usbh_core.c ****         if (phost->device.DevDesc.bNumConfigurations == 1U)
 584:./Libraries/STM32_USB_Host_Library/Core/Src/usbh_core.c ****         {
 585:./Libraries/STM32_USB_Host_Library/Core/Src/usbh_core.c ****           USBH_UsrLog("This device has only 1 configuration.");
 586:./Libraries/STM32_USB_Host_Library/Core/Src/usbh_core.c ****           phost->gState = HOST_SET_CONFIGURATION;
 587:./Libraries/STM32_USB_Host_Library/Core/Src/usbh_core.c ****         }
 588:./Libraries/STM32_USB_Host_Library/Core/Src/usbh_core.c ****         else
 589:./Libraries/STM32_USB_Host_Library/Core/Src/usbh_core.c ****         {
 590:./Libraries/STM32_USB_Host_Library/Core/Src/usbh_core.c ****           phost->gState = HOST_INPUT;
 591:./Libraries/STM32_USB_Host_Library/Core/Src/usbh_core.c ****         }
 592:./Libraries/STM32_USB_Host_Library/Core/Src/usbh_core.c **** #if (USBH_USE_OS == 1U)
 593:./Libraries/STM32_USB_Host_Library/Core/Src/usbh_core.c ****         phost->os_msg = (uint32_t)USBH_STATE_CHANGED_EVENT;
 594:./Libraries/STM32_USB_Host_Library/Core/Src/usbh_core.c **** #if (osCMSIS < 0x20000U)
 595:./Libraries/STM32_USB_Host_Library/Core/Src/usbh_core.c ****         (void)osMessagePut(phost->os_event, phost->os_msg, 0U);
 596:./Libraries/STM32_USB_Host_Library/Core/Src/usbh_core.c **** #else
 597:./Libraries/STM32_USB_Host_Library/Core/Src/usbh_core.c ****         (void)osMessageQueuePut(phost->os_event, &phost->os_msg, 0U, NULL);
ARM GAS  /tmp/ccLKNEvV.s 			page 28


 598:./Libraries/STM32_USB_Host_Library/Core/Src/usbh_core.c **** #endif
 599:./Libraries/STM32_USB_Host_Library/Core/Src/usbh_core.c **** #endif
 600:./Libraries/STM32_USB_Host_Library/Core/Src/usbh_core.c ****       }
 601:./Libraries/STM32_USB_Host_Library/Core/Src/usbh_core.c ****       break;
 602:./Libraries/STM32_USB_Host_Library/Core/Src/usbh_core.c **** 
 603:./Libraries/STM32_USB_Host_Library/Core/Src/usbh_core.c ****     case HOST_INPUT:
 604:./Libraries/STM32_USB_Host_Library/Core/Src/usbh_core.c ****     {
 605:./Libraries/STM32_USB_Host_Library/Core/Src/usbh_core.c ****       /* user callback for end of device basic enumeration */
 606:./Libraries/STM32_USB_Host_Library/Core/Src/usbh_core.c ****       if (phost->pUser != NULL)
 607:./Libraries/STM32_USB_Host_Library/Core/Src/usbh_core.c ****       {
 608:./Libraries/STM32_USB_Host_Library/Core/Src/usbh_core.c ****         phost->pUser(phost, HOST_USER_SELECT_CONFIGURATION);
 609:./Libraries/STM32_USB_Host_Library/Core/Src/usbh_core.c ****         phost->gState = HOST_SET_CONFIGURATION;
 610:./Libraries/STM32_USB_Host_Library/Core/Src/usbh_core.c **** 
 611:./Libraries/STM32_USB_Host_Library/Core/Src/usbh_core.c **** #if (USBH_USE_OS == 1U)
 612:./Libraries/STM32_USB_Host_Library/Core/Src/usbh_core.c ****         phost->os_msg = (uint32_t)USBH_STATE_CHANGED_EVENT;
 613:./Libraries/STM32_USB_Host_Library/Core/Src/usbh_core.c **** #if (osCMSIS < 0x20000U)
 614:./Libraries/STM32_USB_Host_Library/Core/Src/usbh_core.c ****         (void)osMessagePut(phost->os_event, phost->os_msg, 0U);
 615:./Libraries/STM32_USB_Host_Library/Core/Src/usbh_core.c **** #else
 616:./Libraries/STM32_USB_Host_Library/Core/Src/usbh_core.c ****         (void)osMessageQueuePut(phost->os_event, &phost->os_msg, 0U, NULL);
 617:./Libraries/STM32_USB_Host_Library/Core/Src/usbh_core.c **** #endif
 618:./Libraries/STM32_USB_Host_Library/Core/Src/usbh_core.c **** #endif
 619:./Libraries/STM32_USB_Host_Library/Core/Src/usbh_core.c ****       }
 620:./Libraries/STM32_USB_Host_Library/Core/Src/usbh_core.c ****     }
 621:./Libraries/STM32_USB_Host_Library/Core/Src/usbh_core.c ****     break;
 622:./Libraries/STM32_USB_Host_Library/Core/Src/usbh_core.c **** 
 623:./Libraries/STM32_USB_Host_Library/Core/Src/usbh_core.c ****     case HOST_SET_CONFIGURATION:
 624:./Libraries/STM32_USB_Host_Library/Core/Src/usbh_core.c ****       /* set configuration */
 625:./Libraries/STM32_USB_Host_Library/Core/Src/usbh_core.c ****       if (USBH_SetCfg(phost, (uint16_t)phost->device.CfgDesc.bConfigurationValue) == USBH_OK)
 626:./Libraries/STM32_USB_Host_Library/Core/Src/usbh_core.c ****       {
 627:./Libraries/STM32_USB_Host_Library/Core/Src/usbh_core.c ****         phost->gState = HOST_SET_WAKEUP_FEATURE;
 628:./Libraries/STM32_USB_Host_Library/Core/Src/usbh_core.c ****         USBH_UsrLog("Default configuration set.");
 629:./Libraries/STM32_USB_Host_Library/Core/Src/usbh_core.c ****       }
 630:./Libraries/STM32_USB_Host_Library/Core/Src/usbh_core.c **** 
 631:./Libraries/STM32_USB_Host_Library/Core/Src/usbh_core.c **** #if (USBH_USE_OS == 1U)
 632:./Libraries/STM32_USB_Host_Library/Core/Src/usbh_core.c ****       phost->os_msg = (uint32_t)USBH_PORT_EVENT;
 633:./Libraries/STM32_USB_Host_Library/Core/Src/usbh_core.c **** #if (osCMSIS < 0x20000U)
 634:./Libraries/STM32_USB_Host_Library/Core/Src/usbh_core.c ****       (void)osMessagePut(phost->os_event, phost->os_msg, 0U);
 635:./Libraries/STM32_USB_Host_Library/Core/Src/usbh_core.c **** #else
 636:./Libraries/STM32_USB_Host_Library/Core/Src/usbh_core.c ****       (void)osMessageQueuePut(phost->os_event, &phost->os_msg, 0U, NULL);
 637:./Libraries/STM32_USB_Host_Library/Core/Src/usbh_core.c **** #endif
 638:./Libraries/STM32_USB_Host_Library/Core/Src/usbh_core.c **** #endif
 639:./Libraries/STM32_USB_Host_Library/Core/Src/usbh_core.c ****       break;
 640:./Libraries/STM32_USB_Host_Library/Core/Src/usbh_core.c **** 
 641:./Libraries/STM32_USB_Host_Library/Core/Src/usbh_core.c ****     case  HOST_SET_WAKEUP_FEATURE:
 642:./Libraries/STM32_USB_Host_Library/Core/Src/usbh_core.c **** 
 643:./Libraries/STM32_USB_Host_Library/Core/Src/usbh_core.c ****       if ((phost->device.CfgDesc.bmAttributes) & (1U << 5))
 644:./Libraries/STM32_USB_Host_Library/Core/Src/usbh_core.c ****       {
 645:./Libraries/STM32_USB_Host_Library/Core/Src/usbh_core.c ****         if (USBH_SetFeature(phost, FEATURE_SELECTOR_REMOTEWAKEUP) == USBH_OK)
 646:./Libraries/STM32_USB_Host_Library/Core/Src/usbh_core.c ****         {
 647:./Libraries/STM32_USB_Host_Library/Core/Src/usbh_core.c ****           USBH_UsrLog("Device remote wakeup enabled");
 648:./Libraries/STM32_USB_Host_Library/Core/Src/usbh_core.c ****           phost->gState = HOST_CHECK_CLASS;
 649:./Libraries/STM32_USB_Host_Library/Core/Src/usbh_core.c ****         }
 650:./Libraries/STM32_USB_Host_Library/Core/Src/usbh_core.c ****       }
 651:./Libraries/STM32_USB_Host_Library/Core/Src/usbh_core.c ****       else
 652:./Libraries/STM32_USB_Host_Library/Core/Src/usbh_core.c ****       {
 653:./Libraries/STM32_USB_Host_Library/Core/Src/usbh_core.c ****         phost->gState = HOST_CHECK_CLASS;
 654:./Libraries/STM32_USB_Host_Library/Core/Src/usbh_core.c ****       }
ARM GAS  /tmp/ccLKNEvV.s 			page 29


 655:./Libraries/STM32_USB_Host_Library/Core/Src/usbh_core.c **** 
 656:./Libraries/STM32_USB_Host_Library/Core/Src/usbh_core.c **** #if (USBH_USE_OS == 1U)
 657:./Libraries/STM32_USB_Host_Library/Core/Src/usbh_core.c ****       phost->os_msg = (uint32_t)USBH_PORT_EVENT;
 658:./Libraries/STM32_USB_Host_Library/Core/Src/usbh_core.c **** #if (osCMSIS < 0x20000U)
 659:./Libraries/STM32_USB_Host_Library/Core/Src/usbh_core.c ****       (void)osMessagePut(phost->os_event, phost->os_msg, 0U);
 660:./Libraries/STM32_USB_Host_Library/Core/Src/usbh_core.c **** #else
 661:./Libraries/STM32_USB_Host_Library/Core/Src/usbh_core.c ****       (void)osMessageQueuePut(phost->os_event, &phost->os_msg, 0U, NULL);
 662:./Libraries/STM32_USB_Host_Library/Core/Src/usbh_core.c **** #endif
 663:./Libraries/STM32_USB_Host_Library/Core/Src/usbh_core.c **** #endif
 664:./Libraries/STM32_USB_Host_Library/Core/Src/usbh_core.c ****       break;
 665:./Libraries/STM32_USB_Host_Library/Core/Src/usbh_core.c **** 
 666:./Libraries/STM32_USB_Host_Library/Core/Src/usbh_core.c ****     case HOST_CHECK_CLASS:
 667:./Libraries/STM32_USB_Host_Library/Core/Src/usbh_core.c **** 
 668:./Libraries/STM32_USB_Host_Library/Core/Src/usbh_core.c ****       if (phost->ClassNumber == 0U)
 669:./Libraries/STM32_USB_Host_Library/Core/Src/usbh_core.c ****       {
 670:./Libraries/STM32_USB_Host_Library/Core/Src/usbh_core.c ****         USBH_UsrLog("No Class has been registered.");
 671:./Libraries/STM32_USB_Host_Library/Core/Src/usbh_core.c ****       }
 672:./Libraries/STM32_USB_Host_Library/Core/Src/usbh_core.c ****       else
 673:./Libraries/STM32_USB_Host_Library/Core/Src/usbh_core.c ****       {
 674:./Libraries/STM32_USB_Host_Library/Core/Src/usbh_core.c ****         phost->pActiveClass = NULL;
 675:./Libraries/STM32_USB_Host_Library/Core/Src/usbh_core.c **** 
 676:./Libraries/STM32_USB_Host_Library/Core/Src/usbh_core.c ****         for (idx = 0U; idx < USBH_MAX_NUM_SUPPORTED_CLASS; idx++)
 677:./Libraries/STM32_USB_Host_Library/Core/Src/usbh_core.c ****         {
 678:./Libraries/STM32_USB_Host_Library/Core/Src/usbh_core.c ****           if (phost->pClass[idx]->ClassCode == phost->device.CfgDesc.Itf_Desc[0].bInterfaceClass)
 679:./Libraries/STM32_USB_Host_Library/Core/Src/usbh_core.c ****           {
 680:./Libraries/STM32_USB_Host_Library/Core/Src/usbh_core.c ****             phost->pActiveClass = phost->pClass[idx];
 681:./Libraries/STM32_USB_Host_Library/Core/Src/usbh_core.c ****             break;
 682:./Libraries/STM32_USB_Host_Library/Core/Src/usbh_core.c ****           }
 683:./Libraries/STM32_USB_Host_Library/Core/Src/usbh_core.c ****         }
 684:./Libraries/STM32_USB_Host_Library/Core/Src/usbh_core.c **** 
 685:./Libraries/STM32_USB_Host_Library/Core/Src/usbh_core.c ****         if (phost->pActiveClass != NULL)
 686:./Libraries/STM32_USB_Host_Library/Core/Src/usbh_core.c ****         {
 687:./Libraries/STM32_USB_Host_Library/Core/Src/usbh_core.c ****           if (phost->pActiveClass->Init(phost) == USBH_OK)
 688:./Libraries/STM32_USB_Host_Library/Core/Src/usbh_core.c ****           {
 689:./Libraries/STM32_USB_Host_Library/Core/Src/usbh_core.c ****             phost->gState = HOST_CLASS_REQUEST;
 690:./Libraries/STM32_USB_Host_Library/Core/Src/usbh_core.c ****             USBH_UsrLog("%s class started.", phost->pActiveClass->Name);
 691:./Libraries/STM32_USB_Host_Library/Core/Src/usbh_core.c **** 
 692:./Libraries/STM32_USB_Host_Library/Core/Src/usbh_core.c ****             /* Inform user that a class has been activated */
 693:./Libraries/STM32_USB_Host_Library/Core/Src/usbh_core.c ****             phost->pUser(phost, HOST_USER_CLASS_SELECTED);
 694:./Libraries/STM32_USB_Host_Library/Core/Src/usbh_core.c ****           }
 695:./Libraries/STM32_USB_Host_Library/Core/Src/usbh_core.c ****           else
 696:./Libraries/STM32_USB_Host_Library/Core/Src/usbh_core.c ****           {
 697:./Libraries/STM32_USB_Host_Library/Core/Src/usbh_core.c ****             phost->gState = HOST_ABORT_STATE;
 698:./Libraries/STM32_USB_Host_Library/Core/Src/usbh_core.c ****             USBH_UsrLog("Device not supporting %s class.", phost->pActiveClass->Name);
 699:./Libraries/STM32_USB_Host_Library/Core/Src/usbh_core.c ****           }
 700:./Libraries/STM32_USB_Host_Library/Core/Src/usbh_core.c ****         }
 701:./Libraries/STM32_USB_Host_Library/Core/Src/usbh_core.c ****         else
 702:./Libraries/STM32_USB_Host_Library/Core/Src/usbh_core.c ****         {
 703:./Libraries/STM32_USB_Host_Library/Core/Src/usbh_core.c ****           phost->gState = HOST_ABORT_STATE;
 704:./Libraries/STM32_USB_Host_Library/Core/Src/usbh_core.c ****           USBH_UsrLog("No registered class for this device.");
 705:./Libraries/STM32_USB_Host_Library/Core/Src/usbh_core.c ****         }
 706:./Libraries/STM32_USB_Host_Library/Core/Src/usbh_core.c ****       }
 707:./Libraries/STM32_USB_Host_Library/Core/Src/usbh_core.c **** 
 708:./Libraries/STM32_USB_Host_Library/Core/Src/usbh_core.c **** #if (USBH_USE_OS == 1U)
 709:./Libraries/STM32_USB_Host_Library/Core/Src/usbh_core.c ****       phost->os_msg = (uint32_t)USBH_STATE_CHANGED_EVENT;
 710:./Libraries/STM32_USB_Host_Library/Core/Src/usbh_core.c **** #if (osCMSIS < 0x20000U)
 711:./Libraries/STM32_USB_Host_Library/Core/Src/usbh_core.c ****       (void)osMessagePut(phost->os_event, phost->os_msg, 0U);
ARM GAS  /tmp/ccLKNEvV.s 			page 30


 712:./Libraries/STM32_USB_Host_Library/Core/Src/usbh_core.c **** #else
 713:./Libraries/STM32_USB_Host_Library/Core/Src/usbh_core.c ****       (void)osMessageQueuePut(phost->os_event, &phost->os_msg, 0U, NULL);
 714:./Libraries/STM32_USB_Host_Library/Core/Src/usbh_core.c **** #endif
 715:./Libraries/STM32_USB_Host_Library/Core/Src/usbh_core.c **** #endif
 716:./Libraries/STM32_USB_Host_Library/Core/Src/usbh_core.c ****       break;
 717:./Libraries/STM32_USB_Host_Library/Core/Src/usbh_core.c **** 
 718:./Libraries/STM32_USB_Host_Library/Core/Src/usbh_core.c ****     case HOST_CLASS_REQUEST:
 719:./Libraries/STM32_USB_Host_Library/Core/Src/usbh_core.c ****       /* process class standard control requests state machine */
 720:./Libraries/STM32_USB_Host_Library/Core/Src/usbh_core.c ****       if (phost->pActiveClass != NULL)
 721:./Libraries/STM32_USB_Host_Library/Core/Src/usbh_core.c ****       {
 722:./Libraries/STM32_USB_Host_Library/Core/Src/usbh_core.c ****         status = phost->pActiveClass->Requests(phost);
 723:./Libraries/STM32_USB_Host_Library/Core/Src/usbh_core.c **** 
 724:./Libraries/STM32_USB_Host_Library/Core/Src/usbh_core.c ****         if (status == USBH_OK)
 725:./Libraries/STM32_USB_Host_Library/Core/Src/usbh_core.c ****         {
 726:./Libraries/STM32_USB_Host_Library/Core/Src/usbh_core.c ****           phost->gState = HOST_CLASS;
 727:./Libraries/STM32_USB_Host_Library/Core/Src/usbh_core.c ****         }
 728:./Libraries/STM32_USB_Host_Library/Core/Src/usbh_core.c ****         else if (status == USBH_FAIL)
 729:./Libraries/STM32_USB_Host_Library/Core/Src/usbh_core.c ****         {
 730:./Libraries/STM32_USB_Host_Library/Core/Src/usbh_core.c ****           phost->gState = HOST_ABORT_STATE;
 731:./Libraries/STM32_USB_Host_Library/Core/Src/usbh_core.c ****           USBH_ErrLog("Device not responding Please Unplug.");
 732:./Libraries/STM32_USB_Host_Library/Core/Src/usbh_core.c ****         }
 733:./Libraries/STM32_USB_Host_Library/Core/Src/usbh_core.c ****         else
 734:./Libraries/STM32_USB_Host_Library/Core/Src/usbh_core.c ****         {
 735:./Libraries/STM32_USB_Host_Library/Core/Src/usbh_core.c ****           /* .. */
 736:./Libraries/STM32_USB_Host_Library/Core/Src/usbh_core.c ****         }
 737:./Libraries/STM32_USB_Host_Library/Core/Src/usbh_core.c ****       }
 738:./Libraries/STM32_USB_Host_Library/Core/Src/usbh_core.c ****       else
 739:./Libraries/STM32_USB_Host_Library/Core/Src/usbh_core.c ****       {
 740:./Libraries/STM32_USB_Host_Library/Core/Src/usbh_core.c ****         phost->gState = HOST_ABORT_STATE;
 741:./Libraries/STM32_USB_Host_Library/Core/Src/usbh_core.c ****         USBH_ErrLog("Invalid Class Driver.");
 742:./Libraries/STM32_USB_Host_Library/Core/Src/usbh_core.c ****       }
 743:./Libraries/STM32_USB_Host_Library/Core/Src/usbh_core.c **** #if (USBH_USE_OS == 1U)
 744:./Libraries/STM32_USB_Host_Library/Core/Src/usbh_core.c ****       phost->os_msg = (uint32_t)USBH_STATE_CHANGED_EVENT;
 745:./Libraries/STM32_USB_Host_Library/Core/Src/usbh_core.c **** #if (osCMSIS < 0x20000U)
 746:./Libraries/STM32_USB_Host_Library/Core/Src/usbh_core.c ****       (void)osMessagePut(phost->os_event, phost->os_msg, 0U);
 747:./Libraries/STM32_USB_Host_Library/Core/Src/usbh_core.c **** #else
 748:./Libraries/STM32_USB_Host_Library/Core/Src/usbh_core.c ****       (void)osMessageQueuePut(phost->os_event, &phost->os_msg, 0U, NULL);
 749:./Libraries/STM32_USB_Host_Library/Core/Src/usbh_core.c **** #endif
 750:./Libraries/STM32_USB_Host_Library/Core/Src/usbh_core.c **** #endif
 751:./Libraries/STM32_USB_Host_Library/Core/Src/usbh_core.c ****       break;
 752:./Libraries/STM32_USB_Host_Library/Core/Src/usbh_core.c **** 
 753:./Libraries/STM32_USB_Host_Library/Core/Src/usbh_core.c ****     case HOST_CLASS:
 754:./Libraries/STM32_USB_Host_Library/Core/Src/usbh_core.c ****       /* process class state machine */
 755:./Libraries/STM32_USB_Host_Library/Core/Src/usbh_core.c ****       if (phost->pActiveClass != NULL)
 756:./Libraries/STM32_USB_Host_Library/Core/Src/usbh_core.c ****       {
 757:./Libraries/STM32_USB_Host_Library/Core/Src/usbh_core.c ****         phost->pActiveClass->BgndProcess(phost);
 758:./Libraries/STM32_USB_Host_Library/Core/Src/usbh_core.c ****       }
 759:./Libraries/STM32_USB_Host_Library/Core/Src/usbh_core.c ****       break;
 760:./Libraries/STM32_USB_Host_Library/Core/Src/usbh_core.c **** 
 761:./Libraries/STM32_USB_Host_Library/Core/Src/usbh_core.c ****     case HOST_DEV_DISCONNECTED :
 762:./Libraries/STM32_USB_Host_Library/Core/Src/usbh_core.c ****       phost->device.is_disconnected = 0U;
 763:./Libraries/STM32_USB_Host_Library/Core/Src/usbh_core.c **** 
 764:./Libraries/STM32_USB_Host_Library/Core/Src/usbh_core.c ****       DeInitStateMachine(phost);
 765:./Libraries/STM32_USB_Host_Library/Core/Src/usbh_core.c **** 
 766:./Libraries/STM32_USB_Host_Library/Core/Src/usbh_core.c ****       /* Re-Initilaize Host for new Enumeration */
 767:./Libraries/STM32_USB_Host_Library/Core/Src/usbh_core.c ****       if (phost->pActiveClass != NULL)
 768:./Libraries/STM32_USB_Host_Library/Core/Src/usbh_core.c ****       {
ARM GAS  /tmp/ccLKNEvV.s 			page 31


 769:./Libraries/STM32_USB_Host_Library/Core/Src/usbh_core.c ****         phost->pActiveClass->DeInit(phost);
 770:./Libraries/STM32_USB_Host_Library/Core/Src/usbh_core.c ****         phost->pActiveClass = NULL;
 771:./Libraries/STM32_USB_Host_Library/Core/Src/usbh_core.c ****       }
 772:./Libraries/STM32_USB_Host_Library/Core/Src/usbh_core.c **** 
 773:./Libraries/STM32_USB_Host_Library/Core/Src/usbh_core.c ****       if (phost->pUser != NULL)
 774:./Libraries/STM32_USB_Host_Library/Core/Src/usbh_core.c ****       {
 775:./Libraries/STM32_USB_Host_Library/Core/Src/usbh_core.c ****         phost->pUser(phost, HOST_USER_DISCONNECTION);
 776:./Libraries/STM32_USB_Host_Library/Core/Src/usbh_core.c ****       }
 777:./Libraries/STM32_USB_Host_Library/Core/Src/usbh_core.c ****       USBH_UsrLog("USB Device disconnected");
 778:./Libraries/STM32_USB_Host_Library/Core/Src/usbh_core.c **** 
 779:./Libraries/STM32_USB_Host_Library/Core/Src/usbh_core.c ****       if (phost->device.is_ReEnumerated == 1U)
 780:./Libraries/STM32_USB_Host_Library/Core/Src/usbh_core.c ****       {
 781:./Libraries/STM32_USB_Host_Library/Core/Src/usbh_core.c ****         phost->device.is_ReEnumerated = 0U;
 782:./Libraries/STM32_USB_Host_Library/Core/Src/usbh_core.c **** 
 783:./Libraries/STM32_USB_Host_Library/Core/Src/usbh_core.c ****         /* Start the host and re-enable Vbus */
 784:./Libraries/STM32_USB_Host_Library/Core/Src/usbh_core.c ****         USBH_Start(phost);
 785:./Libraries/STM32_USB_Host_Library/Core/Src/usbh_core.c ****       }
 786:./Libraries/STM32_USB_Host_Library/Core/Src/usbh_core.c ****       else
 787:./Libraries/STM32_USB_Host_Library/Core/Src/usbh_core.c ****       {
 788:./Libraries/STM32_USB_Host_Library/Core/Src/usbh_core.c ****         /* Device Disconnection Completed, start USB Driver */
 789:./Libraries/STM32_USB_Host_Library/Core/Src/usbh_core.c ****         USBH_LL_Start(phost);
 790:./Libraries/STM32_USB_Host_Library/Core/Src/usbh_core.c ****       }
 791:./Libraries/STM32_USB_Host_Library/Core/Src/usbh_core.c **** 
 792:./Libraries/STM32_USB_Host_Library/Core/Src/usbh_core.c **** #if (USBH_USE_OS == 1U)
 793:./Libraries/STM32_USB_Host_Library/Core/Src/usbh_core.c ****       phost->os_msg = (uint32_t)USBH_PORT_EVENT;
 794:./Libraries/STM32_USB_Host_Library/Core/Src/usbh_core.c **** #if (osCMSIS < 0x20000U)
 795:./Libraries/STM32_USB_Host_Library/Core/Src/usbh_core.c ****       (void)osMessagePut(phost->os_event, phost->os_msg, 0U);
 796:./Libraries/STM32_USB_Host_Library/Core/Src/usbh_core.c **** #else
 797:./Libraries/STM32_USB_Host_Library/Core/Src/usbh_core.c ****       (void)osMessageQueuePut(phost->os_event, &phost->os_msg, 0U, NULL);
 798:./Libraries/STM32_USB_Host_Library/Core/Src/usbh_core.c **** #endif
 799:./Libraries/STM32_USB_Host_Library/Core/Src/usbh_core.c **** #endif
 800:./Libraries/STM32_USB_Host_Library/Core/Src/usbh_core.c ****       break;
 801:./Libraries/STM32_USB_Host_Library/Core/Src/usbh_core.c **** 
 802:./Libraries/STM32_USB_Host_Library/Core/Src/usbh_core.c ****     case HOST_ABORT_STATE:
 803:./Libraries/STM32_USB_Host_Library/Core/Src/usbh_core.c ****     default :
 804:./Libraries/STM32_USB_Host_Library/Core/Src/usbh_core.c ****       break;
 805:./Libraries/STM32_USB_Host_Library/Core/Src/usbh_core.c ****   }
 806:./Libraries/STM32_USB_Host_Library/Core/Src/usbh_core.c ****   return USBH_OK;
 807:./Libraries/STM32_USB_Host_Library/Core/Src/usbh_core.c **** }
 808:./Libraries/STM32_USB_Host_Library/Core/Src/usbh_core.c **** 
 809:./Libraries/STM32_USB_Host_Library/Core/Src/usbh_core.c **** 
 810:./Libraries/STM32_USB_Host_Library/Core/Src/usbh_core.c **** /**
 811:./Libraries/STM32_USB_Host_Library/Core/Src/usbh_core.c ****   * @brief  USBH_HandleEnum
 812:./Libraries/STM32_USB_Host_Library/Core/Src/usbh_core.c ****   *         This function includes the complete enumeration process
 813:./Libraries/STM32_USB_Host_Library/Core/Src/usbh_core.c ****   * @param  phost: Host Handle
 814:./Libraries/STM32_USB_Host_Library/Core/Src/usbh_core.c ****   * @retval USBH_Status
 815:./Libraries/STM32_USB_Host_Library/Core/Src/usbh_core.c ****   */
 816:./Libraries/STM32_USB_Host_Library/Core/Src/usbh_core.c **** static USBH_StatusTypeDef USBH_HandleEnum(USBH_HandleTypeDef *phost)
 817:./Libraries/STM32_USB_Host_Library/Core/Src/usbh_core.c **** {
 818:./Libraries/STM32_USB_Host_Library/Core/Src/usbh_core.c ****   USBH_StatusTypeDef Status = USBH_BUSY;
 819:./Libraries/STM32_USB_Host_Library/Core/Src/usbh_core.c ****   USBH_StatusTypeDef ReqStatus = USBH_BUSY;
 820:./Libraries/STM32_USB_Host_Library/Core/Src/usbh_core.c **** 
 821:./Libraries/STM32_USB_Host_Library/Core/Src/usbh_core.c ****   switch (phost->EnumState)
 822:./Libraries/STM32_USB_Host_Library/Core/Src/usbh_core.c ****   {
 823:./Libraries/STM32_USB_Host_Library/Core/Src/usbh_core.c ****     case ENUM_IDLE:
 824:./Libraries/STM32_USB_Host_Library/Core/Src/usbh_core.c ****       /* Get Device Desc for only 1st 8 bytes : To get EP0 MaxPacketSize */
 825:./Libraries/STM32_USB_Host_Library/Core/Src/usbh_core.c ****       ReqStatus = USBH_Get_DevDesc(phost, 8U);
ARM GAS  /tmp/ccLKNEvV.s 			page 32


 826:./Libraries/STM32_USB_Host_Library/Core/Src/usbh_core.c ****       if (ReqStatus == USBH_OK)
 827:./Libraries/STM32_USB_Host_Library/Core/Src/usbh_core.c ****       {
 828:./Libraries/STM32_USB_Host_Library/Core/Src/usbh_core.c ****         phost->Control.pipe_size = phost->device.DevDesc.bMaxPacketSize;
 829:./Libraries/STM32_USB_Host_Library/Core/Src/usbh_core.c **** 
 830:./Libraries/STM32_USB_Host_Library/Core/Src/usbh_core.c ****         phost->EnumState = ENUM_GET_FULL_DEV_DESC;
 831:./Libraries/STM32_USB_Host_Library/Core/Src/usbh_core.c **** 
 832:./Libraries/STM32_USB_Host_Library/Core/Src/usbh_core.c ****         /* modify control channels configuration for MaxPacket size */
 833:./Libraries/STM32_USB_Host_Library/Core/Src/usbh_core.c ****         USBH_OpenPipe(phost, phost->Control.pipe_in, 0x80U, phost->device.address,
 834:./Libraries/STM32_USB_Host_Library/Core/Src/usbh_core.c ****                       phost->device.speed, USBH_EP_CONTROL,
 835:./Libraries/STM32_USB_Host_Library/Core/Src/usbh_core.c ****                       (uint16_t)phost->Control.pipe_size);
 836:./Libraries/STM32_USB_Host_Library/Core/Src/usbh_core.c **** 
 837:./Libraries/STM32_USB_Host_Library/Core/Src/usbh_core.c ****         /* Open Control pipes */
 838:./Libraries/STM32_USB_Host_Library/Core/Src/usbh_core.c ****         USBH_OpenPipe(phost, phost->Control.pipe_out, 0x00U, phost->device.address,
 839:./Libraries/STM32_USB_Host_Library/Core/Src/usbh_core.c ****                       phost->device.speed, USBH_EP_CONTROL,
 840:./Libraries/STM32_USB_Host_Library/Core/Src/usbh_core.c ****                       (uint16_t)phost->Control.pipe_size);
 841:./Libraries/STM32_USB_Host_Library/Core/Src/usbh_core.c ****       }
 842:./Libraries/STM32_USB_Host_Library/Core/Src/usbh_core.c ****       else if (ReqStatus == USBH_NOT_SUPPORTED)
 843:./Libraries/STM32_USB_Host_Library/Core/Src/usbh_core.c ****       {
 844:./Libraries/STM32_USB_Host_Library/Core/Src/usbh_core.c ****         USBH_ErrLog("Control error: Get Device Descriptor request failed");
 845:./Libraries/STM32_USB_Host_Library/Core/Src/usbh_core.c ****         phost->device.EnumCnt++;
 846:./Libraries/STM32_USB_Host_Library/Core/Src/usbh_core.c ****         if (phost->device.EnumCnt > 3U)
 847:./Libraries/STM32_USB_Host_Library/Core/Src/usbh_core.c ****         {
 848:./Libraries/STM32_USB_Host_Library/Core/Src/usbh_core.c ****           /* Buggy Device can't complete get device desc request */
 849:./Libraries/STM32_USB_Host_Library/Core/Src/usbh_core.c ****           USBH_UsrLog("Control error, Device not Responding Please unplug the Device.");
 850:./Libraries/STM32_USB_Host_Library/Core/Src/usbh_core.c ****           phost->gState = HOST_ABORT_STATE;
 851:./Libraries/STM32_USB_Host_Library/Core/Src/usbh_core.c ****         }
 852:./Libraries/STM32_USB_Host_Library/Core/Src/usbh_core.c ****         else
 853:./Libraries/STM32_USB_Host_Library/Core/Src/usbh_core.c ****         {
 854:./Libraries/STM32_USB_Host_Library/Core/Src/usbh_core.c ****           /* free control pipes */
 855:./Libraries/STM32_USB_Host_Library/Core/Src/usbh_core.c ****           USBH_FreePipe(phost, phost->Control.pipe_out);
 856:./Libraries/STM32_USB_Host_Library/Core/Src/usbh_core.c ****           USBH_FreePipe(phost, phost->Control.pipe_in);
 857:./Libraries/STM32_USB_Host_Library/Core/Src/usbh_core.c **** 
 858:./Libraries/STM32_USB_Host_Library/Core/Src/usbh_core.c ****           /* Reset the USB Device */
 859:./Libraries/STM32_USB_Host_Library/Core/Src/usbh_core.c ****           phost->gState = HOST_IDLE;
 860:./Libraries/STM32_USB_Host_Library/Core/Src/usbh_core.c ****         }
 861:./Libraries/STM32_USB_Host_Library/Core/Src/usbh_core.c ****       }
 862:./Libraries/STM32_USB_Host_Library/Core/Src/usbh_core.c ****       else
 863:./Libraries/STM32_USB_Host_Library/Core/Src/usbh_core.c ****       {
 864:./Libraries/STM32_USB_Host_Library/Core/Src/usbh_core.c ****         /* .. */
 865:./Libraries/STM32_USB_Host_Library/Core/Src/usbh_core.c ****       }
 866:./Libraries/STM32_USB_Host_Library/Core/Src/usbh_core.c ****       break;
 867:./Libraries/STM32_USB_Host_Library/Core/Src/usbh_core.c **** 
 868:./Libraries/STM32_USB_Host_Library/Core/Src/usbh_core.c ****     case ENUM_GET_FULL_DEV_DESC:
 869:./Libraries/STM32_USB_Host_Library/Core/Src/usbh_core.c ****       /* Get FULL Device Desc  */
 870:./Libraries/STM32_USB_Host_Library/Core/Src/usbh_core.c ****       ReqStatus = USBH_Get_DevDesc(phost, USB_DEVICE_DESC_SIZE);
 871:./Libraries/STM32_USB_Host_Library/Core/Src/usbh_core.c ****       if (ReqStatus == USBH_OK)
 872:./Libraries/STM32_USB_Host_Library/Core/Src/usbh_core.c ****       {
 873:./Libraries/STM32_USB_Host_Library/Core/Src/usbh_core.c ****         USBH_UsrLog("PID: %xh", phost->device.DevDesc.idProduct);
 874:./Libraries/STM32_USB_Host_Library/Core/Src/usbh_core.c ****         USBH_UsrLog("VID: %xh", phost->device.DevDesc.idVendor);
 875:./Libraries/STM32_USB_Host_Library/Core/Src/usbh_core.c **** 
 876:./Libraries/STM32_USB_Host_Library/Core/Src/usbh_core.c ****         phost->EnumState = ENUM_SET_ADDR;
 877:./Libraries/STM32_USB_Host_Library/Core/Src/usbh_core.c ****       }
 878:./Libraries/STM32_USB_Host_Library/Core/Src/usbh_core.c ****       else if (ReqStatus == USBH_NOT_SUPPORTED)
 879:./Libraries/STM32_USB_Host_Library/Core/Src/usbh_core.c ****       {
 880:./Libraries/STM32_USB_Host_Library/Core/Src/usbh_core.c ****         USBH_ErrLog("Control error: Get Full Device Descriptor request failed");
 881:./Libraries/STM32_USB_Host_Library/Core/Src/usbh_core.c ****         phost->device.EnumCnt++;
 882:./Libraries/STM32_USB_Host_Library/Core/Src/usbh_core.c ****         if (phost->device.EnumCnt > 3U)
ARM GAS  /tmp/ccLKNEvV.s 			page 33


 883:./Libraries/STM32_USB_Host_Library/Core/Src/usbh_core.c ****         {
 884:./Libraries/STM32_USB_Host_Library/Core/Src/usbh_core.c ****           /* Buggy Device can't complete get device desc request */
 885:./Libraries/STM32_USB_Host_Library/Core/Src/usbh_core.c ****           USBH_UsrLog("Control error, Device not Responding Please unplug the Device.");
 886:./Libraries/STM32_USB_Host_Library/Core/Src/usbh_core.c ****           phost->gState = HOST_ABORT_STATE;
 887:./Libraries/STM32_USB_Host_Library/Core/Src/usbh_core.c ****         }
 888:./Libraries/STM32_USB_Host_Library/Core/Src/usbh_core.c ****         else
 889:./Libraries/STM32_USB_Host_Library/Core/Src/usbh_core.c ****         {
 890:./Libraries/STM32_USB_Host_Library/Core/Src/usbh_core.c ****           /* Free control pipes */
 891:./Libraries/STM32_USB_Host_Library/Core/Src/usbh_core.c ****           USBH_FreePipe(phost, phost->Control.pipe_out);
 892:./Libraries/STM32_USB_Host_Library/Core/Src/usbh_core.c ****           USBH_FreePipe(phost, phost->Control.pipe_in);
 893:./Libraries/STM32_USB_Host_Library/Core/Src/usbh_core.c **** 
 894:./Libraries/STM32_USB_Host_Library/Core/Src/usbh_core.c ****           /* Reset the USB Device */
 895:./Libraries/STM32_USB_Host_Library/Core/Src/usbh_core.c ****           phost->EnumState = ENUM_IDLE;
 896:./Libraries/STM32_USB_Host_Library/Core/Src/usbh_core.c ****           phost->gState = HOST_IDLE;
 897:./Libraries/STM32_USB_Host_Library/Core/Src/usbh_core.c ****         }
 898:./Libraries/STM32_USB_Host_Library/Core/Src/usbh_core.c ****       }
 899:./Libraries/STM32_USB_Host_Library/Core/Src/usbh_core.c ****       else
 900:./Libraries/STM32_USB_Host_Library/Core/Src/usbh_core.c ****       {
 901:./Libraries/STM32_USB_Host_Library/Core/Src/usbh_core.c ****         /* .. */
 902:./Libraries/STM32_USB_Host_Library/Core/Src/usbh_core.c ****       }
 903:./Libraries/STM32_USB_Host_Library/Core/Src/usbh_core.c ****       break;
 904:./Libraries/STM32_USB_Host_Library/Core/Src/usbh_core.c **** 
 905:./Libraries/STM32_USB_Host_Library/Core/Src/usbh_core.c ****     case ENUM_SET_ADDR:
 906:./Libraries/STM32_USB_Host_Library/Core/Src/usbh_core.c ****       /* set address */
 907:./Libraries/STM32_USB_Host_Library/Core/Src/usbh_core.c ****       ReqStatus = USBH_SetAddress(phost, USBH_DEVICE_ADDRESS);
 908:./Libraries/STM32_USB_Host_Library/Core/Src/usbh_core.c ****       if (ReqStatus == USBH_OK)
 909:./Libraries/STM32_USB_Host_Library/Core/Src/usbh_core.c ****       {
 910:./Libraries/STM32_USB_Host_Library/Core/Src/usbh_core.c ****         USBH_Delay(2U);
 911:./Libraries/STM32_USB_Host_Library/Core/Src/usbh_core.c ****         phost->device.address = USBH_DEVICE_ADDRESS;
 912:./Libraries/STM32_USB_Host_Library/Core/Src/usbh_core.c **** 
 913:./Libraries/STM32_USB_Host_Library/Core/Src/usbh_core.c ****         /* user callback for device address assigned */
 914:./Libraries/STM32_USB_Host_Library/Core/Src/usbh_core.c ****         USBH_UsrLog("Address (#%d) assigned.", phost->device.address);
 915:./Libraries/STM32_USB_Host_Library/Core/Src/usbh_core.c ****         phost->EnumState = ENUM_GET_CFG_DESC;
 916:./Libraries/STM32_USB_Host_Library/Core/Src/usbh_core.c **** 
 917:./Libraries/STM32_USB_Host_Library/Core/Src/usbh_core.c ****         /* modify control channels to update device address */
 918:./Libraries/STM32_USB_Host_Library/Core/Src/usbh_core.c ****         USBH_OpenPipe(phost, phost->Control.pipe_in, 0x80U,  phost->device.address,
 919:./Libraries/STM32_USB_Host_Library/Core/Src/usbh_core.c ****                       phost->device.speed, USBH_EP_CONTROL,
 920:./Libraries/STM32_USB_Host_Library/Core/Src/usbh_core.c ****                       (uint16_t)phost->Control.pipe_size);
 921:./Libraries/STM32_USB_Host_Library/Core/Src/usbh_core.c **** 
 922:./Libraries/STM32_USB_Host_Library/Core/Src/usbh_core.c ****         /* Open Control pipes */
 923:./Libraries/STM32_USB_Host_Library/Core/Src/usbh_core.c ****         USBH_OpenPipe(phost, phost->Control.pipe_out, 0x00U, phost->device.address,
 924:./Libraries/STM32_USB_Host_Library/Core/Src/usbh_core.c ****                       phost->device.speed, USBH_EP_CONTROL,
 925:./Libraries/STM32_USB_Host_Library/Core/Src/usbh_core.c ****                       (uint16_t)phost->Control.pipe_size);
 926:./Libraries/STM32_USB_Host_Library/Core/Src/usbh_core.c ****       }
 927:./Libraries/STM32_USB_Host_Library/Core/Src/usbh_core.c ****       else if (ReqStatus == USBH_NOT_SUPPORTED)
 928:./Libraries/STM32_USB_Host_Library/Core/Src/usbh_core.c ****       {
 929:./Libraries/STM32_USB_Host_Library/Core/Src/usbh_core.c ****         USBH_ErrLog("Control error: Device Set Address request failed");
 930:./Libraries/STM32_USB_Host_Library/Core/Src/usbh_core.c **** 
 931:./Libraries/STM32_USB_Host_Library/Core/Src/usbh_core.c ****         /* Buggy Device can't complete get device desc request */
 932:./Libraries/STM32_USB_Host_Library/Core/Src/usbh_core.c ****         USBH_UsrLog("Control error, Device not Responding Please unplug the Device.");
 933:./Libraries/STM32_USB_Host_Library/Core/Src/usbh_core.c ****         phost->gState = HOST_ABORT_STATE;
 934:./Libraries/STM32_USB_Host_Library/Core/Src/usbh_core.c ****         phost->EnumState = ENUM_IDLE;
 935:./Libraries/STM32_USB_Host_Library/Core/Src/usbh_core.c ****       }
 936:./Libraries/STM32_USB_Host_Library/Core/Src/usbh_core.c ****       else
 937:./Libraries/STM32_USB_Host_Library/Core/Src/usbh_core.c ****       {
 938:./Libraries/STM32_USB_Host_Library/Core/Src/usbh_core.c ****         /* .. */
 939:./Libraries/STM32_USB_Host_Library/Core/Src/usbh_core.c ****       }
ARM GAS  /tmp/ccLKNEvV.s 			page 34


 940:./Libraries/STM32_USB_Host_Library/Core/Src/usbh_core.c ****       break;
 941:./Libraries/STM32_USB_Host_Library/Core/Src/usbh_core.c **** 
 942:./Libraries/STM32_USB_Host_Library/Core/Src/usbh_core.c ****     case ENUM_GET_CFG_DESC:
 943:./Libraries/STM32_USB_Host_Library/Core/Src/usbh_core.c ****       /* get standard configuration descriptor */
 944:./Libraries/STM32_USB_Host_Library/Core/Src/usbh_core.c ****       ReqStatus = USBH_Get_CfgDesc(phost, USB_CONFIGURATION_DESC_SIZE);
 945:./Libraries/STM32_USB_Host_Library/Core/Src/usbh_core.c ****       if (ReqStatus == USBH_OK)
 946:./Libraries/STM32_USB_Host_Library/Core/Src/usbh_core.c ****       {
 947:./Libraries/STM32_USB_Host_Library/Core/Src/usbh_core.c ****         phost->EnumState = ENUM_GET_FULL_CFG_DESC;
 948:./Libraries/STM32_USB_Host_Library/Core/Src/usbh_core.c ****       }
 949:./Libraries/STM32_USB_Host_Library/Core/Src/usbh_core.c ****       else if (ReqStatus == USBH_NOT_SUPPORTED)
 950:./Libraries/STM32_USB_Host_Library/Core/Src/usbh_core.c ****       {
 951:./Libraries/STM32_USB_Host_Library/Core/Src/usbh_core.c ****         USBH_ErrLog("Control error: Get Device configuration descriptor request failed");
 952:./Libraries/STM32_USB_Host_Library/Core/Src/usbh_core.c ****         phost->device.EnumCnt++;
 953:./Libraries/STM32_USB_Host_Library/Core/Src/usbh_core.c ****         if (phost->device.EnumCnt > 3U)
 954:./Libraries/STM32_USB_Host_Library/Core/Src/usbh_core.c ****         {
 955:./Libraries/STM32_USB_Host_Library/Core/Src/usbh_core.c ****           /* Buggy Device can't complete get device desc request */
 956:./Libraries/STM32_USB_Host_Library/Core/Src/usbh_core.c ****           USBH_UsrLog("Control error, Device not Responding Please unplug the Device.");
 957:./Libraries/STM32_USB_Host_Library/Core/Src/usbh_core.c ****           phost->gState = HOST_ABORT_STATE;
 958:./Libraries/STM32_USB_Host_Library/Core/Src/usbh_core.c ****         }
 959:./Libraries/STM32_USB_Host_Library/Core/Src/usbh_core.c ****         else
 960:./Libraries/STM32_USB_Host_Library/Core/Src/usbh_core.c ****         {
 961:./Libraries/STM32_USB_Host_Library/Core/Src/usbh_core.c ****           /* Free control pipes */
 962:./Libraries/STM32_USB_Host_Library/Core/Src/usbh_core.c ****           USBH_FreePipe(phost, phost->Control.pipe_out);
 963:./Libraries/STM32_USB_Host_Library/Core/Src/usbh_core.c ****           USBH_FreePipe(phost, phost->Control.pipe_in);
 964:./Libraries/STM32_USB_Host_Library/Core/Src/usbh_core.c **** 
 965:./Libraries/STM32_USB_Host_Library/Core/Src/usbh_core.c ****           /* Reset the USB Device */
 966:./Libraries/STM32_USB_Host_Library/Core/Src/usbh_core.c ****           phost->EnumState = ENUM_IDLE;
 967:./Libraries/STM32_USB_Host_Library/Core/Src/usbh_core.c ****           phost->gState = HOST_IDLE;
 968:./Libraries/STM32_USB_Host_Library/Core/Src/usbh_core.c ****         }
 969:./Libraries/STM32_USB_Host_Library/Core/Src/usbh_core.c ****       }
 970:./Libraries/STM32_USB_Host_Library/Core/Src/usbh_core.c ****       else
 971:./Libraries/STM32_USB_Host_Library/Core/Src/usbh_core.c ****       {
 972:./Libraries/STM32_USB_Host_Library/Core/Src/usbh_core.c ****         /* .. */
 973:./Libraries/STM32_USB_Host_Library/Core/Src/usbh_core.c ****       }
 974:./Libraries/STM32_USB_Host_Library/Core/Src/usbh_core.c ****       break;
 975:./Libraries/STM32_USB_Host_Library/Core/Src/usbh_core.c **** 
 976:./Libraries/STM32_USB_Host_Library/Core/Src/usbh_core.c ****     case ENUM_GET_FULL_CFG_DESC:
 977:./Libraries/STM32_USB_Host_Library/Core/Src/usbh_core.c ****       /* get FULL config descriptor (config, interface, endpoints) */
 978:./Libraries/STM32_USB_Host_Library/Core/Src/usbh_core.c ****       ReqStatus = USBH_Get_CfgDesc(phost, phost->device.CfgDesc.wTotalLength);
 979:./Libraries/STM32_USB_Host_Library/Core/Src/usbh_core.c ****       if (ReqStatus == USBH_OK)
 980:./Libraries/STM32_USB_Host_Library/Core/Src/usbh_core.c ****       {
 981:./Libraries/STM32_USB_Host_Library/Core/Src/usbh_core.c ****         phost->EnumState = ENUM_GET_MFC_STRING_DESC;
 982:./Libraries/STM32_USB_Host_Library/Core/Src/usbh_core.c ****       }
 983:./Libraries/STM32_USB_Host_Library/Core/Src/usbh_core.c ****       else if (ReqStatus == USBH_NOT_SUPPORTED)
 984:./Libraries/STM32_USB_Host_Library/Core/Src/usbh_core.c ****       {
 985:./Libraries/STM32_USB_Host_Library/Core/Src/usbh_core.c ****         USBH_ErrLog("Control error: Get Device configuration descriptor request failed");
 986:./Libraries/STM32_USB_Host_Library/Core/Src/usbh_core.c ****         phost->device.EnumCnt++;
 987:./Libraries/STM32_USB_Host_Library/Core/Src/usbh_core.c ****         if (phost->device.EnumCnt > 3U)
 988:./Libraries/STM32_USB_Host_Library/Core/Src/usbh_core.c ****         {
 989:./Libraries/STM32_USB_Host_Library/Core/Src/usbh_core.c ****           /* Buggy Device can't complete get device desc request */
 990:./Libraries/STM32_USB_Host_Library/Core/Src/usbh_core.c ****           USBH_UsrLog("Control error, Device not Responding Please unplug the Device.");
 991:./Libraries/STM32_USB_Host_Library/Core/Src/usbh_core.c ****           phost->gState = HOST_ABORT_STATE;
 992:./Libraries/STM32_USB_Host_Library/Core/Src/usbh_core.c ****         }
 993:./Libraries/STM32_USB_Host_Library/Core/Src/usbh_core.c ****         else
 994:./Libraries/STM32_USB_Host_Library/Core/Src/usbh_core.c ****         {
 995:./Libraries/STM32_USB_Host_Library/Core/Src/usbh_core.c ****           /* Free control pipes */
 996:./Libraries/STM32_USB_Host_Library/Core/Src/usbh_core.c ****           USBH_FreePipe(phost, phost->Control.pipe_out);
ARM GAS  /tmp/ccLKNEvV.s 			page 35


 997:./Libraries/STM32_USB_Host_Library/Core/Src/usbh_core.c ****           USBH_FreePipe(phost, phost->Control.pipe_in);
 998:./Libraries/STM32_USB_Host_Library/Core/Src/usbh_core.c **** 
 999:./Libraries/STM32_USB_Host_Library/Core/Src/usbh_core.c ****           /* Reset the USB Device */
1000:./Libraries/STM32_USB_Host_Library/Core/Src/usbh_core.c ****           phost->EnumState = ENUM_IDLE;
1001:./Libraries/STM32_USB_Host_Library/Core/Src/usbh_core.c ****           phost->gState = HOST_IDLE;
1002:./Libraries/STM32_USB_Host_Library/Core/Src/usbh_core.c ****         }
1003:./Libraries/STM32_USB_Host_Library/Core/Src/usbh_core.c ****       }
1004:./Libraries/STM32_USB_Host_Library/Core/Src/usbh_core.c ****       else
1005:./Libraries/STM32_USB_Host_Library/Core/Src/usbh_core.c ****       {
1006:./Libraries/STM32_USB_Host_Library/Core/Src/usbh_core.c ****         /* .. */
1007:./Libraries/STM32_USB_Host_Library/Core/Src/usbh_core.c ****       }
1008:./Libraries/STM32_USB_Host_Library/Core/Src/usbh_core.c ****       break;
1009:./Libraries/STM32_USB_Host_Library/Core/Src/usbh_core.c **** 
1010:./Libraries/STM32_USB_Host_Library/Core/Src/usbh_core.c ****     case ENUM_GET_MFC_STRING_DESC:
1011:./Libraries/STM32_USB_Host_Library/Core/Src/usbh_core.c ****       if (phost->device.DevDesc.iManufacturer != 0U)
1012:./Libraries/STM32_USB_Host_Library/Core/Src/usbh_core.c ****       {
1013:./Libraries/STM32_USB_Host_Library/Core/Src/usbh_core.c ****         /* Check that Manufacturer String is available */
1014:./Libraries/STM32_USB_Host_Library/Core/Src/usbh_core.c ****         ReqStatus = USBH_Get_StringDesc(phost, phost->device.DevDesc.iManufacturer,
1015:./Libraries/STM32_USB_Host_Library/Core/Src/usbh_core.c ****                                         phost->device.Data, 0xFFU);
1016:./Libraries/STM32_USB_Host_Library/Core/Src/usbh_core.c ****         if (ReqStatus == USBH_OK)
1017:./Libraries/STM32_USB_Host_Library/Core/Src/usbh_core.c ****         {
1018:./Libraries/STM32_USB_Host_Library/Core/Src/usbh_core.c ****           /* User callback for Manufacturing string */
1019:./Libraries/STM32_USB_Host_Library/Core/Src/usbh_core.c ****           USBH_UsrLog("Manufacturer : %s", (char *)(void *)phost->device.Data);
1020:./Libraries/STM32_USB_Host_Library/Core/Src/usbh_core.c ****           phost->EnumState = ENUM_GET_PRODUCT_STRING_DESC;
1021:./Libraries/STM32_USB_Host_Library/Core/Src/usbh_core.c **** 
1022:./Libraries/STM32_USB_Host_Library/Core/Src/usbh_core.c **** #if (USBH_USE_OS == 1U)
1023:./Libraries/STM32_USB_Host_Library/Core/Src/usbh_core.c ****           phost->os_msg = (uint32_t)USBH_STATE_CHANGED_EVENT;
1024:./Libraries/STM32_USB_Host_Library/Core/Src/usbh_core.c **** #if (osCMSIS < 0x20000U)
1025:./Libraries/STM32_USB_Host_Library/Core/Src/usbh_core.c ****           (void)osMessagePut(phost->os_event, phost->os_msg, 0U);
1026:./Libraries/STM32_USB_Host_Library/Core/Src/usbh_core.c **** #else
1027:./Libraries/STM32_USB_Host_Library/Core/Src/usbh_core.c ****           (void)osMessageQueuePut(phost->os_event, &phost->os_msg, 0U, NULL);
1028:./Libraries/STM32_USB_Host_Library/Core/Src/usbh_core.c **** #endif
1029:./Libraries/STM32_USB_Host_Library/Core/Src/usbh_core.c **** #endif
1030:./Libraries/STM32_USB_Host_Library/Core/Src/usbh_core.c ****         }
1031:./Libraries/STM32_USB_Host_Library/Core/Src/usbh_core.c ****         else if (ReqStatus == USBH_NOT_SUPPORTED)
1032:./Libraries/STM32_USB_Host_Library/Core/Src/usbh_core.c ****         {
1033:./Libraries/STM32_USB_Host_Library/Core/Src/usbh_core.c ****           USBH_UsrLog("Manufacturer : N/A");
1034:./Libraries/STM32_USB_Host_Library/Core/Src/usbh_core.c ****           phost->EnumState = ENUM_GET_PRODUCT_STRING_DESC;
1035:./Libraries/STM32_USB_Host_Library/Core/Src/usbh_core.c **** 
1036:./Libraries/STM32_USB_Host_Library/Core/Src/usbh_core.c **** #if (USBH_USE_OS == 1U)
1037:./Libraries/STM32_USB_Host_Library/Core/Src/usbh_core.c ****           phost->os_msg = (uint32_t)USBH_STATE_CHANGED_EVENT;
1038:./Libraries/STM32_USB_Host_Library/Core/Src/usbh_core.c **** #if (osCMSIS < 0x20000U)
1039:./Libraries/STM32_USB_Host_Library/Core/Src/usbh_core.c ****           (void)osMessagePut(phost->os_event, phost->os_msg, 0U);
1040:./Libraries/STM32_USB_Host_Library/Core/Src/usbh_core.c **** #else
1041:./Libraries/STM32_USB_Host_Library/Core/Src/usbh_core.c ****           (void)osMessageQueuePut(phost->os_event, &phost->os_msg, 0U, NULL);
1042:./Libraries/STM32_USB_Host_Library/Core/Src/usbh_core.c **** #endif
1043:./Libraries/STM32_USB_Host_Library/Core/Src/usbh_core.c **** #endif
1044:./Libraries/STM32_USB_Host_Library/Core/Src/usbh_core.c ****         }
1045:./Libraries/STM32_USB_Host_Library/Core/Src/usbh_core.c ****         else
1046:./Libraries/STM32_USB_Host_Library/Core/Src/usbh_core.c ****         {
1047:./Libraries/STM32_USB_Host_Library/Core/Src/usbh_core.c ****           /* .. */
1048:./Libraries/STM32_USB_Host_Library/Core/Src/usbh_core.c ****         }
1049:./Libraries/STM32_USB_Host_Library/Core/Src/usbh_core.c ****       }
1050:./Libraries/STM32_USB_Host_Library/Core/Src/usbh_core.c ****       else
1051:./Libraries/STM32_USB_Host_Library/Core/Src/usbh_core.c ****       {
1052:./Libraries/STM32_USB_Host_Library/Core/Src/usbh_core.c ****         USBH_UsrLog("Manufacturer : N/A");
1053:./Libraries/STM32_USB_Host_Library/Core/Src/usbh_core.c ****         phost->EnumState = ENUM_GET_PRODUCT_STRING_DESC;
ARM GAS  /tmp/ccLKNEvV.s 			page 36


1054:./Libraries/STM32_USB_Host_Library/Core/Src/usbh_core.c **** 
1055:./Libraries/STM32_USB_Host_Library/Core/Src/usbh_core.c **** #if (USBH_USE_OS == 1U)
1056:./Libraries/STM32_USB_Host_Library/Core/Src/usbh_core.c ****         phost->os_msg = (uint32_t)USBH_STATE_CHANGED_EVENT;
1057:./Libraries/STM32_USB_Host_Library/Core/Src/usbh_core.c **** #if (osCMSIS < 0x20000U)
1058:./Libraries/STM32_USB_Host_Library/Core/Src/usbh_core.c ****         (void)osMessagePut(phost->os_event, phost->os_msg, 0U);
1059:./Libraries/STM32_USB_Host_Library/Core/Src/usbh_core.c **** #else
1060:./Libraries/STM32_USB_Host_Library/Core/Src/usbh_core.c ****         (void)osMessageQueuePut(phost->os_event, &phost->os_msg, 0U, NULL);
1061:./Libraries/STM32_USB_Host_Library/Core/Src/usbh_core.c **** #endif
1062:./Libraries/STM32_USB_Host_Library/Core/Src/usbh_core.c **** #endif
1063:./Libraries/STM32_USB_Host_Library/Core/Src/usbh_core.c ****       }
1064:./Libraries/STM32_USB_Host_Library/Core/Src/usbh_core.c ****       break;
1065:./Libraries/STM32_USB_Host_Library/Core/Src/usbh_core.c **** 
1066:./Libraries/STM32_USB_Host_Library/Core/Src/usbh_core.c ****     case ENUM_GET_PRODUCT_STRING_DESC:
1067:./Libraries/STM32_USB_Host_Library/Core/Src/usbh_core.c ****       if (phost->device.DevDesc.iProduct != 0U)
1068:./Libraries/STM32_USB_Host_Library/Core/Src/usbh_core.c ****       {
1069:./Libraries/STM32_USB_Host_Library/Core/Src/usbh_core.c ****         /* Check that Product string is available */
1070:./Libraries/STM32_USB_Host_Library/Core/Src/usbh_core.c ****         ReqStatus = USBH_Get_StringDesc(phost, phost->device.DevDesc.iProduct,
1071:./Libraries/STM32_USB_Host_Library/Core/Src/usbh_core.c ****                                         phost->device.Data, 0xFFU);
1072:./Libraries/STM32_USB_Host_Library/Core/Src/usbh_core.c ****         if (ReqStatus == USBH_OK)
1073:./Libraries/STM32_USB_Host_Library/Core/Src/usbh_core.c ****         {
1074:./Libraries/STM32_USB_Host_Library/Core/Src/usbh_core.c ****           /* User callback for Product string */
1075:./Libraries/STM32_USB_Host_Library/Core/Src/usbh_core.c ****           USBH_UsrLog("Product : %s", (char *)(void *)phost->device.Data);
1076:./Libraries/STM32_USB_Host_Library/Core/Src/usbh_core.c ****           phost->EnumState = ENUM_GET_SERIALNUM_STRING_DESC;
1077:./Libraries/STM32_USB_Host_Library/Core/Src/usbh_core.c ****         }
1078:./Libraries/STM32_USB_Host_Library/Core/Src/usbh_core.c ****         else if (ReqStatus == USBH_NOT_SUPPORTED)
1079:./Libraries/STM32_USB_Host_Library/Core/Src/usbh_core.c ****         {
1080:./Libraries/STM32_USB_Host_Library/Core/Src/usbh_core.c ****           USBH_UsrLog("Product : N/A");
1081:./Libraries/STM32_USB_Host_Library/Core/Src/usbh_core.c ****           phost->EnumState = ENUM_GET_SERIALNUM_STRING_DESC;
1082:./Libraries/STM32_USB_Host_Library/Core/Src/usbh_core.c **** 
1083:./Libraries/STM32_USB_Host_Library/Core/Src/usbh_core.c **** #if (USBH_USE_OS == 1U)
1084:./Libraries/STM32_USB_Host_Library/Core/Src/usbh_core.c ****           phost->os_msg = (uint32_t)USBH_STATE_CHANGED_EVENT;
1085:./Libraries/STM32_USB_Host_Library/Core/Src/usbh_core.c **** #if (osCMSIS < 0x20000U)
1086:./Libraries/STM32_USB_Host_Library/Core/Src/usbh_core.c ****           (void)osMessagePut(phost->os_event, phost->os_msg, 0U);
1087:./Libraries/STM32_USB_Host_Library/Core/Src/usbh_core.c **** #else
1088:./Libraries/STM32_USB_Host_Library/Core/Src/usbh_core.c ****           (void)osMessageQueuePut(phost->os_event, &phost->os_msg, 0U, NULL);
1089:./Libraries/STM32_USB_Host_Library/Core/Src/usbh_core.c **** #endif
1090:./Libraries/STM32_USB_Host_Library/Core/Src/usbh_core.c **** #endif
1091:./Libraries/STM32_USB_Host_Library/Core/Src/usbh_core.c ****         }
1092:./Libraries/STM32_USB_Host_Library/Core/Src/usbh_core.c ****         else
1093:./Libraries/STM32_USB_Host_Library/Core/Src/usbh_core.c ****         {
1094:./Libraries/STM32_USB_Host_Library/Core/Src/usbh_core.c ****           /* .. */
1095:./Libraries/STM32_USB_Host_Library/Core/Src/usbh_core.c ****         }
1096:./Libraries/STM32_USB_Host_Library/Core/Src/usbh_core.c ****       }
1097:./Libraries/STM32_USB_Host_Library/Core/Src/usbh_core.c ****       else
1098:./Libraries/STM32_USB_Host_Library/Core/Src/usbh_core.c ****       {
1099:./Libraries/STM32_USB_Host_Library/Core/Src/usbh_core.c ****         USBH_UsrLog("Product : N/A");
1100:./Libraries/STM32_USB_Host_Library/Core/Src/usbh_core.c ****         phost->EnumState = ENUM_GET_SERIALNUM_STRING_DESC;
1101:./Libraries/STM32_USB_Host_Library/Core/Src/usbh_core.c **** 
1102:./Libraries/STM32_USB_Host_Library/Core/Src/usbh_core.c **** #if (USBH_USE_OS == 1U)
1103:./Libraries/STM32_USB_Host_Library/Core/Src/usbh_core.c ****         phost->os_msg = (uint32_t)USBH_STATE_CHANGED_EVENT;
1104:./Libraries/STM32_USB_Host_Library/Core/Src/usbh_core.c **** #if (osCMSIS < 0x20000U)
1105:./Libraries/STM32_USB_Host_Library/Core/Src/usbh_core.c ****         (void)osMessagePut(phost->os_event, phost->os_msg, 0U);
1106:./Libraries/STM32_USB_Host_Library/Core/Src/usbh_core.c **** #else
1107:./Libraries/STM32_USB_Host_Library/Core/Src/usbh_core.c ****         (void)osMessageQueuePut(phost->os_event, &phost->os_msg, 0U, NULL);
1108:./Libraries/STM32_USB_Host_Library/Core/Src/usbh_core.c **** #endif
1109:./Libraries/STM32_USB_Host_Library/Core/Src/usbh_core.c **** #endif
1110:./Libraries/STM32_USB_Host_Library/Core/Src/usbh_core.c ****       }
ARM GAS  /tmp/ccLKNEvV.s 			page 37


1111:./Libraries/STM32_USB_Host_Library/Core/Src/usbh_core.c ****       break;
1112:./Libraries/STM32_USB_Host_Library/Core/Src/usbh_core.c **** 
1113:./Libraries/STM32_USB_Host_Library/Core/Src/usbh_core.c ****     case ENUM_GET_SERIALNUM_STRING_DESC:
1114:./Libraries/STM32_USB_Host_Library/Core/Src/usbh_core.c ****       if (phost->device.DevDesc.iSerialNumber != 0U)
1115:./Libraries/STM32_USB_Host_Library/Core/Src/usbh_core.c ****       {
1116:./Libraries/STM32_USB_Host_Library/Core/Src/usbh_core.c ****         /* Check that Serial number string is available */
1117:./Libraries/STM32_USB_Host_Library/Core/Src/usbh_core.c ****         ReqStatus = USBH_Get_StringDesc(phost, phost->device.DevDesc.iSerialNumber,
1118:./Libraries/STM32_USB_Host_Library/Core/Src/usbh_core.c ****                                         phost->device.Data, 0xFFU);
1119:./Libraries/STM32_USB_Host_Library/Core/Src/usbh_core.c ****         if (ReqStatus == USBH_OK)
1120:./Libraries/STM32_USB_Host_Library/Core/Src/usbh_core.c ****         {
1121:./Libraries/STM32_USB_Host_Library/Core/Src/usbh_core.c ****           /* User callback for Serial number string */
1122:./Libraries/STM32_USB_Host_Library/Core/Src/usbh_core.c ****           USBH_UsrLog("Serial Number : %s", (char *)(void *)phost->device.Data);
1123:./Libraries/STM32_USB_Host_Library/Core/Src/usbh_core.c ****           Status = USBH_OK;
1124:./Libraries/STM32_USB_Host_Library/Core/Src/usbh_core.c ****         }
1125:./Libraries/STM32_USB_Host_Library/Core/Src/usbh_core.c ****         else if (ReqStatus == USBH_NOT_SUPPORTED)
1126:./Libraries/STM32_USB_Host_Library/Core/Src/usbh_core.c ****         {
1127:./Libraries/STM32_USB_Host_Library/Core/Src/usbh_core.c ****           USBH_UsrLog("Serial Number : N/A");
1128:./Libraries/STM32_USB_Host_Library/Core/Src/usbh_core.c ****           Status = USBH_OK;
1129:./Libraries/STM32_USB_Host_Library/Core/Src/usbh_core.c ****         }
1130:./Libraries/STM32_USB_Host_Library/Core/Src/usbh_core.c ****         else
1131:./Libraries/STM32_USB_Host_Library/Core/Src/usbh_core.c ****         {
1132:./Libraries/STM32_USB_Host_Library/Core/Src/usbh_core.c ****           /* .. */
1133:./Libraries/STM32_USB_Host_Library/Core/Src/usbh_core.c ****         }
1134:./Libraries/STM32_USB_Host_Library/Core/Src/usbh_core.c ****       }
1135:./Libraries/STM32_USB_Host_Library/Core/Src/usbh_core.c ****       else
1136:./Libraries/STM32_USB_Host_Library/Core/Src/usbh_core.c ****       {
1137:./Libraries/STM32_USB_Host_Library/Core/Src/usbh_core.c ****         USBH_UsrLog("Serial Number : N/A");
1138:./Libraries/STM32_USB_Host_Library/Core/Src/usbh_core.c ****         Status = USBH_OK;
1139:./Libraries/STM32_USB_Host_Library/Core/Src/usbh_core.c ****       }
1140:./Libraries/STM32_USB_Host_Library/Core/Src/usbh_core.c ****       break;
1141:./Libraries/STM32_USB_Host_Library/Core/Src/usbh_core.c **** 
1142:./Libraries/STM32_USB_Host_Library/Core/Src/usbh_core.c ****     default:
1143:./Libraries/STM32_USB_Host_Library/Core/Src/usbh_core.c ****       break;
1144:./Libraries/STM32_USB_Host_Library/Core/Src/usbh_core.c ****   }
1145:./Libraries/STM32_USB_Host_Library/Core/Src/usbh_core.c ****   return Status;
1146:./Libraries/STM32_USB_Host_Library/Core/Src/usbh_core.c **** }
1147:./Libraries/STM32_USB_Host_Library/Core/Src/usbh_core.c **** 
1148:./Libraries/STM32_USB_Host_Library/Core/Src/usbh_core.c **** 
1149:./Libraries/STM32_USB_Host_Library/Core/Src/usbh_core.c **** /**
1150:./Libraries/STM32_USB_Host_Library/Core/Src/usbh_core.c ****   * @brief  USBH_LL_SetTimer
1151:./Libraries/STM32_USB_Host_Library/Core/Src/usbh_core.c ****   *         Set the initial Host Timer tick
1152:./Libraries/STM32_USB_Host_Library/Core/Src/usbh_core.c ****   * @param  phost: Host Handle
1153:./Libraries/STM32_USB_Host_Library/Core/Src/usbh_core.c ****   * @retval None
1154:./Libraries/STM32_USB_Host_Library/Core/Src/usbh_core.c ****   */
1155:./Libraries/STM32_USB_Host_Library/Core/Src/usbh_core.c **** void  USBH_LL_SetTimer(USBH_HandleTypeDef *phost, uint32_t time)
1156:./Libraries/STM32_USB_Host_Library/Core/Src/usbh_core.c **** {
1157:./Libraries/STM32_USB_Host_Library/Core/Src/usbh_core.c ****   phost->Timer = time;
1158:./Libraries/STM32_USB_Host_Library/Core/Src/usbh_core.c **** }
1159:./Libraries/STM32_USB_Host_Library/Core/Src/usbh_core.c **** 
1160:./Libraries/STM32_USB_Host_Library/Core/Src/usbh_core.c **** 
1161:./Libraries/STM32_USB_Host_Library/Core/Src/usbh_core.c **** /**
1162:./Libraries/STM32_USB_Host_Library/Core/Src/usbh_core.c ****   * @brief  USBH_LL_IncTimer
1163:./Libraries/STM32_USB_Host_Library/Core/Src/usbh_core.c ****   *         Increment Host Timer tick
1164:./Libraries/STM32_USB_Host_Library/Core/Src/usbh_core.c ****   * @param  phost: Host Handle
1165:./Libraries/STM32_USB_Host_Library/Core/Src/usbh_core.c ****   * @retval None
1166:./Libraries/STM32_USB_Host_Library/Core/Src/usbh_core.c ****   */
1167:./Libraries/STM32_USB_Host_Library/Core/Src/usbh_core.c **** void  USBH_LL_IncTimer(USBH_HandleTypeDef *phost)
ARM GAS  /tmp/ccLKNEvV.s 			page 38


1168:./Libraries/STM32_USB_Host_Library/Core/Src/usbh_core.c **** {
1169:./Libraries/STM32_USB_Host_Library/Core/Src/usbh_core.c ****   phost->Timer++;
1170:./Libraries/STM32_USB_Host_Library/Core/Src/usbh_core.c ****   USBH_HandleSof(phost);
1171:./Libraries/STM32_USB_Host_Library/Core/Src/usbh_core.c **** }
1172:./Libraries/STM32_USB_Host_Library/Core/Src/usbh_core.c **** 
1173:./Libraries/STM32_USB_Host_Library/Core/Src/usbh_core.c **** 
1174:./Libraries/STM32_USB_Host_Library/Core/Src/usbh_core.c **** /**
1175:./Libraries/STM32_USB_Host_Library/Core/Src/usbh_core.c ****   * @brief  USBH_HandleSof
1176:./Libraries/STM32_USB_Host_Library/Core/Src/usbh_core.c ****   *         Call SOF process
1177:./Libraries/STM32_USB_Host_Library/Core/Src/usbh_core.c ****   * @param  phost: Host Handle
1178:./Libraries/STM32_USB_Host_Library/Core/Src/usbh_core.c ****   * @retval None
1179:./Libraries/STM32_USB_Host_Library/Core/Src/usbh_core.c ****   */
1180:./Libraries/STM32_USB_Host_Library/Core/Src/usbh_core.c **** static void  USBH_HandleSof(USBH_HandleTypeDef *phost)
1181:./Libraries/STM32_USB_Host_Library/Core/Src/usbh_core.c **** {
1182:./Libraries/STM32_USB_Host_Library/Core/Src/usbh_core.c ****   if ((phost->gState == HOST_CLASS) && (phost->pActiveClass != NULL))
1183:./Libraries/STM32_USB_Host_Library/Core/Src/usbh_core.c ****   {
1184:./Libraries/STM32_USB_Host_Library/Core/Src/usbh_core.c ****     phost->pActiveClass->SOFProcess(phost);
1185:./Libraries/STM32_USB_Host_Library/Core/Src/usbh_core.c ****   }
1186:./Libraries/STM32_USB_Host_Library/Core/Src/usbh_core.c **** }
1187:./Libraries/STM32_USB_Host_Library/Core/Src/usbh_core.c **** 
1188:./Libraries/STM32_USB_Host_Library/Core/Src/usbh_core.c **** 
1189:./Libraries/STM32_USB_Host_Library/Core/Src/usbh_core.c **** /**
1190:./Libraries/STM32_USB_Host_Library/Core/Src/usbh_core.c ****   * @brief  USBH_PortEnabled
1191:./Libraries/STM32_USB_Host_Library/Core/Src/usbh_core.c ****   *         Port Enabled
1192:./Libraries/STM32_USB_Host_Library/Core/Src/usbh_core.c ****   * @param  phost: Host Handle
1193:./Libraries/STM32_USB_Host_Library/Core/Src/usbh_core.c ****   * @retval None
1194:./Libraries/STM32_USB_Host_Library/Core/Src/usbh_core.c ****   */
1195:./Libraries/STM32_USB_Host_Library/Core/Src/usbh_core.c **** void USBH_LL_PortEnabled(USBH_HandleTypeDef *phost)
1196:./Libraries/STM32_USB_Host_Library/Core/Src/usbh_core.c **** {
1197:./Libraries/STM32_USB_Host_Library/Core/Src/usbh_core.c ****   phost->device.PortEnabled = 1U;
1198:./Libraries/STM32_USB_Host_Library/Core/Src/usbh_core.c **** 
1199:./Libraries/STM32_USB_Host_Library/Core/Src/usbh_core.c **** #if (USBH_USE_OS == 1U)
1200:./Libraries/STM32_USB_Host_Library/Core/Src/usbh_core.c ****   phost->os_msg = (uint32_t)USBH_PORT_EVENT;
1201:./Libraries/STM32_USB_Host_Library/Core/Src/usbh_core.c **** #if (osCMSIS < 0x20000U)
1202:./Libraries/STM32_USB_Host_Library/Core/Src/usbh_core.c ****   (void)osMessagePut(phost->os_event, phost->os_msg, 0U);
1203:./Libraries/STM32_USB_Host_Library/Core/Src/usbh_core.c **** #else
1204:./Libraries/STM32_USB_Host_Library/Core/Src/usbh_core.c ****   (void)osMessageQueuePut(phost->os_event, &phost->os_msg, 0U, NULL);
1205:./Libraries/STM32_USB_Host_Library/Core/Src/usbh_core.c **** #endif
1206:./Libraries/STM32_USB_Host_Library/Core/Src/usbh_core.c **** #endif
1207:./Libraries/STM32_USB_Host_Library/Core/Src/usbh_core.c **** 
1208:./Libraries/STM32_USB_Host_Library/Core/Src/usbh_core.c ****   return;
1209:./Libraries/STM32_USB_Host_Library/Core/Src/usbh_core.c **** }
1210:./Libraries/STM32_USB_Host_Library/Core/Src/usbh_core.c **** 
1211:./Libraries/STM32_USB_Host_Library/Core/Src/usbh_core.c **** 
1212:./Libraries/STM32_USB_Host_Library/Core/Src/usbh_core.c **** /**
1213:./Libraries/STM32_USB_Host_Library/Core/Src/usbh_core.c ****   * @brief  USBH_LL_PortDisabled
1214:./Libraries/STM32_USB_Host_Library/Core/Src/usbh_core.c ****   *         Port Disabled
1215:./Libraries/STM32_USB_Host_Library/Core/Src/usbh_core.c ****   * @param  phost: Host Handle
1216:./Libraries/STM32_USB_Host_Library/Core/Src/usbh_core.c ****   * @retval None
1217:./Libraries/STM32_USB_Host_Library/Core/Src/usbh_core.c ****   */
1218:./Libraries/STM32_USB_Host_Library/Core/Src/usbh_core.c **** void USBH_LL_PortDisabled(USBH_HandleTypeDef *phost)
1219:./Libraries/STM32_USB_Host_Library/Core/Src/usbh_core.c **** {
1220:./Libraries/STM32_USB_Host_Library/Core/Src/usbh_core.c ****   phost->device.PortEnabled = 0U;
1221:./Libraries/STM32_USB_Host_Library/Core/Src/usbh_core.c **** 
1222:./Libraries/STM32_USB_Host_Library/Core/Src/usbh_core.c ****   return;
1223:./Libraries/STM32_USB_Host_Library/Core/Src/usbh_core.c **** }
1224:./Libraries/STM32_USB_Host_Library/Core/Src/usbh_core.c **** 
ARM GAS  /tmp/ccLKNEvV.s 			page 39


1225:./Libraries/STM32_USB_Host_Library/Core/Src/usbh_core.c **** 
1226:./Libraries/STM32_USB_Host_Library/Core/Src/usbh_core.c **** /**
1227:./Libraries/STM32_USB_Host_Library/Core/Src/usbh_core.c ****   * @brief  HCD_IsPortEnabled
1228:./Libraries/STM32_USB_Host_Library/Core/Src/usbh_core.c ****   *         Is Port Enabled
1229:./Libraries/STM32_USB_Host_Library/Core/Src/usbh_core.c ****   * @param  phost: Host Handle
1230:./Libraries/STM32_USB_Host_Library/Core/Src/usbh_core.c ****   * @retval None
1231:./Libraries/STM32_USB_Host_Library/Core/Src/usbh_core.c ****   */
1232:./Libraries/STM32_USB_Host_Library/Core/Src/usbh_core.c **** uint8_t USBH_IsPortEnabled(USBH_HandleTypeDef *phost)
 804              		.loc 1 1232 9 is_stmt 1 view .LVU257
 805              	.LBB36:
1233:./Libraries/STM32_USB_Host_Library/Core/Src/usbh_core.c **** {
1234:./Libraries/STM32_USB_Host_Library/Core/Src/usbh_core.c ****   return (phost->device.PortEnabled);
 806              		.loc 1 1234 3 view .LVU258
 807              		.loc 1 1234 3 is_stmt 0 view .LVU259
 808              	.LBE36:
 809              	.LBE35:
 428:./Libraries/STM32_USB_Host_Library/Core/Src/usbh_core.c ****   {
 810              		.loc 1 428 6 view .LVU260
 811 0008 63B9     		cbnz	r3, .L72
 812              	.LVL49:
 813              	.L67:
 439:./Libraries/STM32_USB_Host_Library/Core/Src/usbh_core.c **** #if (osCMSIS < 0x20000U)
 814              		.loc 1 439 3 is_stmt 1 view .LVU261
 443:./Libraries/STM32_USB_Host_Library/Core/Src/usbh_core.c **** #endif
 815              		.loc 1 443 9 is_stmt 0 view .LVU262
 816 000a 0023     		movs	r3, #0
 439:./Libraries/STM32_USB_Host_Library/Core/Src/usbh_core.c **** #if (osCMSIS < 0x20000U)
 817              		.loc 1 439 17 view .LVU263
 818 000c 0122     		movs	r2, #1
 443:./Libraries/STM32_USB_Host_Library/Core/Src/usbh_core.c **** #endif
 819              		.loc 1 443 9 view .LVU264
 820 000e 04F59C61 		add	r1, r4, #1248
 821 0012 D4F8D804 		ldr	r0, [r4, #1240]
 439:./Libraries/STM32_USB_Host_Library/Core/Src/usbh_core.c **** #if (osCMSIS < 0x20000U)
 822              		.loc 1 439 17 view .LVU265
 823 0016 C4F8E024 		str	r2, [r4, #1248]
 443:./Libraries/STM32_USB_Host_Library/Core/Src/usbh_core.c **** #endif
 824              		.loc 1 443 3 is_stmt 1 view .LVU266
 443:./Libraries/STM32_USB_Host_Library/Core/Src/usbh_core.c **** #endif
 825              		.loc 1 443 9 is_stmt 0 view .LVU267
 826 001a 1A46     		mov	r2, r3
 827 001c FFF7FEFF 		bl	osMessageQueuePut
 828              	.LVL50:
 447:./Libraries/STM32_USB_Host_Library/Core/Src/usbh_core.c **** }
 829              		.loc 1 447 3 is_stmt 1 view .LVU268
 448:./Libraries/STM32_USB_Host_Library/Core/Src/usbh_core.c **** 
 830              		.loc 1 448 1 is_stmt 0 view .LVU269
 831 0020 0020     		movs	r0, #0
 832 0022 38BD     		pop	{r3, r4, r5, pc}
 833              	.LVL51:
 834              	.L72:
 430:./Libraries/STM32_USB_Host_Library/Core/Src/usbh_core.c **** 
 835              		.loc 1 430 5 is_stmt 1 view .LVU270
 430:./Libraries/STM32_USB_Host_Library/Core/Src/usbh_core.c **** 
 836              		.loc 1 430 35 is_stmt 0 view .LVU271
 837 0024 0125     		movs	r5, #1
 838 0026 80F82254 		strb	r5, [r0, #1058]
ARM GAS  /tmp/ccLKNEvV.s 			page 40


 433:./Libraries/STM32_USB_Host_Library/Core/Src/usbh_core.c **** 
 839              		.loc 1 433 5 is_stmt 1 view .LVU272
 840 002a FFF7FEFF 		bl	USBH_Stop
 841              	.LVL52:
 435:./Libraries/STM32_USB_Host_Library/Core/Src/usbh_core.c ****   }
 842              		.loc 1 435 5 view .LVU273
 435:./Libraries/STM32_USB_Host_Library/Core/Src/usbh_core.c ****   }
 843              		.loc 1 435 35 is_stmt 0 view .LVU274
 844 002e 84F82154 		strb	r5, [r4, #1057]
 845 0032 EAE7     		b	.L67
 846              		.cfi_endproc
 847              	.LFE348:
 849              		.section	.text.USBH_Process,"ax",%progbits
 850              		.align	1
 851              		.p2align 2,,3
 852              		.global	USBH_Process
 853              		.syntax unified
 854              		.thumb
 855              		.thumb_func
 856              		.fpu fpv5-d16
 858              	USBH_Process:
 859              	.LVL53:
 860              	.LFB349:
 458:./Libraries/STM32_USB_Host_Library/Core/Src/usbh_core.c ****   __IO USBH_StatusTypeDef status = USBH_FAIL;
 861              		.loc 1 458 1 is_stmt 1 view -0
 862              		.cfi_startproc
 863              		@ args = 0, pretend = 0, frame = 8
 864              		@ frame_needed = 0, uses_anonymous_args = 0
 459:./Libraries/STM32_USB_Host_Library/Core/Src/usbh_core.c ****   uint8_t idx = 0U;
 865              		.loc 1 459 3 view .LVU276
 458:./Libraries/STM32_USB_Host_Library/Core/Src/usbh_core.c ****   __IO USBH_StatusTypeDef status = USBH_FAIL;
 866              		.loc 1 458 1 is_stmt 0 view .LVU277
 867 0000 F0B5     		push	{r4, r5, r6, r7, lr}
 868              	.LCFI9:
 869              		.cfi_def_cfa_offset 20
 870              		.cfi_offset 4, -20
 871              		.cfi_offset 5, -16
 872              		.cfi_offset 6, -12
 873              		.cfi_offset 7, -8
 874              		.cfi_offset 14, -4
 459:./Libraries/STM32_USB_Host_Library/Core/Src/usbh_core.c ****   uint8_t idx = 0U;
 875              		.loc 1 459 27 view .LVU278
 876 0002 0223     		movs	r3, #2
 458:./Libraries/STM32_USB_Host_Library/Core/Src/usbh_core.c ****   __IO USBH_StatusTypeDef status = USBH_FAIL;
 877              		.loc 1 458 1 view .LVU279
 878 0004 87B0     		sub	sp, sp, #28
 879              	.LCFI10:
 880              		.cfi_def_cfa_offset 48
 458:./Libraries/STM32_USB_Host_Library/Core/Src/usbh_core.c ****   __IO USBH_StatusTypeDef status = USBH_FAIL;
 881              		.loc 1 458 1 view .LVU280
 882 0006 0446     		mov	r4, r0
 459:./Libraries/STM32_USB_Host_Library/Core/Src/usbh_core.c ****   uint8_t idx = 0U;
 883              		.loc 1 459 27 view .LVU281
 884 0008 8DF81730 		strb	r3, [sp, #23]
 460:./Libraries/STM32_USB_Host_Library/Core/Src/usbh_core.c **** 
 885              		.loc 1 460 3 is_stmt 1 view .LVU282
 886              	.LVL54:
ARM GAS  /tmp/ccLKNEvV.s 			page 41


 463:./Libraries/STM32_USB_Host_Library/Core/Src/usbh_core.c ****   {
 887              		.loc 1 463 3 view .LVU283
 463:./Libraries/STM32_USB_Host_Library/Core/Src/usbh_core.c ****   {
 888              		.loc 1 463 20 is_stmt 0 view .LVU284
 889 000c 90F82134 		ldrb	r3, [r0, #1057]	@ zero_extendqisi2
 463:./Libraries/STM32_USB_Host_Library/Core/Src/usbh_core.c ****   {
 890              		.loc 1 463 6 view .LVU285
 891 0010 012B     		cmp	r3, #1
 892 0012 01D1     		bne	.L74
 465:./Libraries/STM32_USB_Host_Library/Core/Src/usbh_core.c ****   }
 893              		.loc 1 465 5 is_stmt 1 view .LVU286
 465:./Libraries/STM32_USB_Host_Library/Core/Src/usbh_core.c ****   }
 894              		.loc 1 465 19 is_stmt 0 view .LVU287
 895 0014 0323     		movs	r3, #3
 896 0016 0370     		strb	r3, [r0]
 897              	.L74:
 468:./Libraries/STM32_USB_Host_Library/Core/Src/usbh_core.c ****   {
 898              		.loc 1 468 3 is_stmt 1 view .LVU288
 468:./Libraries/STM32_USB_Host_Library/Core/Src/usbh_core.c ****   {
 899              		.loc 1 468 16 is_stmt 0 view .LVU289
 900 0018 2378     		ldrb	r3, [r4]	@ zero_extendqisi2
 901 001a 0B2B     		cmp	r3, #11
 902 001c 1FD8     		bhi	.L155
 903 001e DFE813F0 		tbh	[pc, r3, lsl #1]
 904              	.L77:
 905 0022 2900     		.2byte	(.L87-.L77)/2
 906 0024 4400     		.2byte	(.L86-.L77)/2
 907 0026 5B00     		.2byte	(.L85-.L77)/2
 908 0028 9D00     		.2byte	(.L84-.L77)/2
 909 002a 1E00     		.2byte	(.L155-.L77)/2
 910 002c D700     		.2byte	(.L83-.L77)/2
 911 002e E400     		.2byte	(.L82-.L77)/2
 912 0030 F500     		.2byte	(.L81-.L77)/2
 913 0032 2701     		.2byte	(.L80-.L77)/2
 914 0034 0C00     		.2byte	(.L79-.L77)/2
 915 0036 0B01     		.2byte	(.L78-.L77)/2
 916 0038 2100     		.2byte	(.L76-.L77)/2
 917              		.p2align 1
 918              	.L79:
 643:./Libraries/STM32_USB_Host_Library/Core/Src/usbh_core.c ****       {
 919              		.loc 1 643 7 is_stmt 1 view .LVU290
 643:./Libraries/STM32_USB_Host_Library/Core/Src/usbh_core.c ****       {
 920              		.loc 1 643 10 is_stmt 0 view .LVU291
 921 003a 94F83F34 		ldrb	r3, [r4, #1087]	@ zero_extendqisi2
 922 003e 9B06     		lsls	r3, r3, #26
 923 0040 00F1D181 		bmi	.L176
 924              	.LVL55:
 925              	.L124:
 653:./Libraries/STM32_USB_Host_Library/Core/Src/usbh_core.c ****       }
 926              		.loc 1 653 9 is_stmt 1 view .LVU292
 653:./Libraries/STM32_USB_Host_Library/Core/Src/usbh_core.c ****       }
 927              		.loc 1 653 23 is_stmt 0 view .LVU293
 928 0044 0A23     		movs	r3, #10
 929 0046 2370     		strb	r3, [r4]
 930              	.L137:
 793:./Libraries/STM32_USB_Host_Library/Core/Src/usbh_core.c **** #if (osCMSIS < 0x20000U)
 931              		.loc 1 793 7 is_stmt 1 view .LVU294
ARM GAS  /tmp/ccLKNEvV.s 			page 42


 793:./Libraries/STM32_USB_Host_Library/Core/Src/usbh_core.c **** #if (osCMSIS < 0x20000U)
 932              		.loc 1 793 21 is_stmt 0 view .LVU295
 933 0048 0122     		movs	r2, #1
 934              	.LVL56:
 935              	.L172:
 797:./Libraries/STM32_USB_Host_Library/Core/Src/usbh_core.c **** #endif
 936              		.loc 1 797 13 view .LVU296
 937 004a 0023     		movs	r3, #0
 793:./Libraries/STM32_USB_Host_Library/Core/Src/usbh_core.c **** #if (osCMSIS < 0x20000U)
 938              		.loc 1 793 21 view .LVU297
 939 004c C4F8E024 		str	r2, [r4, #1248]
 797:./Libraries/STM32_USB_Host_Library/Core/Src/usbh_core.c **** #endif
 940              		.loc 1 797 7 is_stmt 1 view .LVU298
 797:./Libraries/STM32_USB_Host_Library/Core/Src/usbh_core.c **** #endif
 941              		.loc 1 797 13 is_stmt 0 view .LVU299
 942 0050 04F59C61 		add	r1, r4, #1248
 943 0054 D4F8D804 		ldr	r0, [r4, #1240]
 944 0058 1A46     		mov	r2, r3
 945 005a FFF7FEFF 		bl	osMessageQueuePut
 946              	.LVL57:
 800:./Libraries/STM32_USB_Host_Library/Core/Src/usbh_core.c **** 
 947              		.loc 1 800 7 is_stmt 1 view .LVU300
 806:./Libraries/STM32_USB_Host_Library/Core/Src/usbh_core.c **** }
 948              		.loc 1 806 3 view .LVU301
 949              	.L155:
 807:./Libraries/STM32_USB_Host_Library/Core/Src/usbh_core.c **** 
 950              		.loc 1 807 1 is_stmt 0 view .LVU302
 951 005e 0020     		movs	r0, #0
 952 0060 07B0     		add	sp, sp, #28
 953              	.LCFI11:
 954              		.cfi_remember_state
 955              		.cfi_def_cfa_offset 20
 956              		@ sp needed
 957 0062 F0BD     		pop	{r4, r5, r6, r7, pc}
 958              	.LVL58:
 959              	.L76:
 960              	.LCFI12:
 961              		.cfi_restore_state
 755:./Libraries/STM32_USB_Host_Library/Core/Src/usbh_core.c ****       {
 962              		.loc 1 755 7 is_stmt 1 view .LVU303
 755:./Libraries/STM32_USB_Host_Library/Core/Src/usbh_core.c ****       {
 963              		.loc 1 755 16 is_stmt 0 view .LVU304
 964 0064 D4F87C34 		ldr	r3, [r4, #1148]
 755:./Libraries/STM32_USB_Host_Library/Core/Src/usbh_core.c ****       {
 965              		.loc 1 755 10 view .LVU305
 966 0068 002B     		cmp	r3, #0
 967 006a F8D0     		beq	.L155
 757:./Libraries/STM32_USB_Host_Library/Core/Src/usbh_core.c ****       }
 968              		.loc 1 757 9 is_stmt 1 view .LVU306
 969 006c 5B69     		ldr	r3, [r3, #20]
 970 006e 2046     		mov	r0, r4
 971              	.LVL59:
 757:./Libraries/STM32_USB_Host_Library/Core/Src/usbh_core.c ****       }
 972              		.loc 1 757 9 is_stmt 0 view .LVU307
 973 0070 9847     		blx	r3
 974              	.LVL60:
 975 0072 F4E7     		b	.L155
ARM GAS  /tmp/ccLKNEvV.s 			page 43


 976              	.LVL61:
 977              	.L87:
 472:./Libraries/STM32_USB_Host_Library/Core/Src/usbh_core.c ****       {
 978              		.loc 1 472 7 is_stmt 1 view .LVU308
 472:./Libraries/STM32_USB_Host_Library/Core/Src/usbh_core.c ****       {
 979              		.loc 1 472 24 is_stmt 0 view .LVU309
 980 0074 94F82034 		ldrb	r3, [r4, #1056]	@ zero_extendqisi2
 472:./Libraries/STM32_USB_Host_Library/Core/Src/usbh_core.c ****       {
 981              		.loc 1 472 10 view .LVU310
 982 0078 002B     		cmp	r3, #0
 983 007a F0D0     		beq	.L155
 474:./Libraries/STM32_USB_Host_Library/Core/Src/usbh_core.c **** 
 984              		.loc 1 474 44 is_stmt 1 view .LVU311
 477:./Libraries/STM32_USB_Host_Library/Core/Src/usbh_core.c ****         USBH_Delay(200U);
 985              		.loc 1 477 9 view .LVU312
 477:./Libraries/STM32_USB_Host_Library/Core/Src/usbh_core.c ****         USBH_Delay(200U);
 986              		.loc 1 477 23 is_stmt 0 view .LVU313
 987 007c 0125     		movs	r5, #1
 478:./Libraries/STM32_USB_Host_Library/Core/Src/usbh_core.c ****         USBH_LL_ResetPort(phost);
 988              		.loc 1 478 9 view .LVU314
 989 007e C820     		movs	r0, #200
 990              	.LVL62:
 477:./Libraries/STM32_USB_Host_Library/Core/Src/usbh_core.c ****         USBH_Delay(200U);
 991              		.loc 1 477 23 view .LVU315
 992 0080 2570     		strb	r5, [r4]
 478:./Libraries/STM32_USB_Host_Library/Core/Src/usbh_core.c ****         USBH_LL_ResetPort(phost);
 993              		.loc 1 478 9 is_stmt 1 view .LVU316
 994 0082 FFF7FEFF 		bl	USBH_Delay
 995              	.LVL63:
 479:./Libraries/STM32_USB_Host_Library/Core/Src/usbh_core.c **** 
 996              		.loc 1 479 9 view .LVU317
 997 0086 2046     		mov	r0, r4
 998 0088 FFF7FEFF 		bl	USBH_LL_ResetPort
 999              	.LVL64:
 482:./Libraries/STM32_USB_Host_Library/Core/Src/usbh_core.c ****         phost->Timeout = 0U;
 1000              		.loc 1 482 9 view .LVU318
 482:./Libraries/STM32_USB_Host_Library/Core/Src/usbh_core.c ****         phost->Timeout = 0U;
 1001              		.loc 1 482 31 is_stmt 0 view .LVU319
 1002 008c 0023     		movs	r3, #0
 490:./Libraries/STM32_USB_Host_Library/Core/Src/usbh_core.c **** #endif
 1003              		.loc 1 490 15 view .LVU320
 1004 008e 04F59C61 		add	r1, r4, #1248
 1005 0092 D4F8D804 		ldr	r0, [r4, #1240]
 1006 0096 1A46     		mov	r2, r3
 486:./Libraries/STM32_USB_Host_Library/Core/Src/usbh_core.c **** #if (osCMSIS < 0x20000U)
 1007              		.loc 1 486 23 view .LVU321
 1008 0098 C4F8E054 		str	r5, [r4, #1248]
 482:./Libraries/STM32_USB_Host_Library/Core/Src/usbh_core.c ****         phost->Timeout = 0U;
 1009              		.loc 1 482 31 view .LVU322
 1010 009c 84F81C34 		strb	r3, [r4, #1052]
 483:./Libraries/STM32_USB_Host_Library/Core/Src/usbh_core.c **** 
 1011              		.loc 1 483 9 is_stmt 1 view .LVU323
 483:./Libraries/STM32_USB_Host_Library/Core/Src/usbh_core.c **** 
 1012              		.loc 1 483 24 is_stmt 0 view .LVU324
 1013 00a0 C4F8C834 		str	r3, [r4, #1224]
 486:./Libraries/STM32_USB_Host_Library/Core/Src/usbh_core.c **** #if (osCMSIS < 0x20000U)
 1014              		.loc 1 486 9 is_stmt 1 view .LVU325
ARM GAS  /tmp/ccLKNEvV.s 			page 44


 490:./Libraries/STM32_USB_Host_Library/Core/Src/usbh_core.c **** #endif
 1015              		.loc 1 490 9 view .LVU326
 490:./Libraries/STM32_USB_Host_Library/Core/Src/usbh_core.c **** #endif
 1016              		.loc 1 490 15 is_stmt 0 view .LVU327
 1017 00a4 FFF7FEFF 		bl	osMessageQueuePut
 1018              	.LVL65:
 1019 00a8 D9E7     		b	.L155
 1020              	.LVL66:
 1021              	.L86:
 498:./Libraries/STM32_USB_Host_Library/Core/Src/usbh_core.c ****       {
 1022              		.loc 1 498 7 is_stmt 1 view .LVU328
 498:./Libraries/STM32_USB_Host_Library/Core/Src/usbh_core.c ****       {
 1023              		.loc 1 498 10 is_stmt 0 view .LVU329
 1024 00aa 94F82334 		ldrb	r3, [r4, #1059]	@ zero_extendqisi2
 1025 00ae 012B     		cmp	r3, #1
 1026 00b0 00F09381 		beq	.L177
 506:./Libraries/STM32_USB_Host_Library/Core/Src/usbh_core.c ****         {
 1027              		.loc 1 506 9 is_stmt 1 view .LVU330
 506:./Libraries/STM32_USB_Host_Library/Core/Src/usbh_core.c ****         {
 1028              		.loc 1 506 18 is_stmt 0 view .LVU331
 1029 00b4 D4F8C834 		ldr	r3, [r4, #1224]
 506:./Libraries/STM32_USB_Host_Library/Core/Src/usbh_core.c ****         {
 1030              		.loc 1 506 12 view .LVU332
 1031 00b8 B3F57A7F 		cmp	r3, #1000
 1032 00bc 40F2EA80 		bls	.L91
 508:./Libraries/STM32_USB_Host_Library/Core/Src/usbh_core.c ****           if (phost->device.RstCnt > 3U)
 1033              		.loc 1 508 11 is_stmt 1 view .LVU333
 508:./Libraries/STM32_USB_Host_Library/Core/Src/usbh_core.c ****           if (phost->device.RstCnt > 3U)
 1034              		.loc 1 508 31 is_stmt 0 view .LVU334
 1035 00c0 94F81F34 		ldrb	r3, [r4, #1055]	@ zero_extendqisi2
 1036 00c4 0133     		adds	r3, r3, #1
 1037 00c6 DBB2     		uxtb	r3, r3
 509:./Libraries/STM32_USB_Host_Library/Core/Src/usbh_core.c ****           {
 1038              		.loc 1 509 14 view .LVU335
 1039 00c8 032B     		cmp	r3, #3
 508:./Libraries/STM32_USB_Host_Library/Core/Src/usbh_core.c ****           if (phost->device.RstCnt > 3U)
 1040              		.loc 1 508 31 view .LVU336
 1041 00ca 84F81F34 		strb	r3, [r4, #1055]
 509:./Libraries/STM32_USB_Host_Library/Core/Src/usbh_core.c ****           {
 1042              		.loc 1 509 11 is_stmt 1 view .LVU337
 512:./Libraries/STM32_USB_Host_Library/Core/Src/usbh_core.c ****             phost->gState = HOST_ABORT_STATE;
 1043              		.loc 1 512 71 view .LVU338
 513:./Libraries/STM32_USB_Host_Library/Core/Src/usbh_core.c ****           }
 1044              		.loc 1 513 13 view .LVU339
 513:./Libraries/STM32_USB_Host_Library/Core/Src/usbh_core.c ****           }
 1045              		.loc 1 513 27 is_stmt 0 view .LVU340
 1046 00ce 8CBF     		ite	hi
 1047 00d0 0D23     		movhi	r3, #13
 517:./Libraries/STM32_USB_Host_Library/Core/Src/usbh_core.c ****           }
 1048              		.loc 1 517 13 is_stmt 1 view .LVU341
 517:./Libraries/STM32_USB_Host_Library/Core/Src/usbh_core.c ****           }
 1049              		.loc 1 517 27 is_stmt 0 view .LVU342
 1050 00d2 0023     		movls	r3, #0
 1051 00d4 2370     		strb	r3, [r4]
 1052 00d6 B7E7     		b	.L137
 1053              	.L85:
 538:./Libraries/STM32_USB_Host_Library/Core/Src/usbh_core.c ****       {
ARM GAS  /tmp/ccLKNEvV.s 			page 45


 1054              		.loc 1 538 7 is_stmt 1 view .LVU343
 538:./Libraries/STM32_USB_Host_Library/Core/Src/usbh_core.c ****       {
 1055              		.loc 1 538 16 is_stmt 0 view .LVU344
 1056 00d8 D4F8D434 		ldr	r3, [r4, #1236]
 538:./Libraries/STM32_USB_Host_Library/Core/Src/usbh_core.c ****       {
 1057              		.loc 1 538 10 view .LVU345
 1058 00dc 13B1     		cbz	r3, .L93
 540:./Libraries/STM32_USB_Host_Library/Core/Src/usbh_core.c ****       }
 1059              		.loc 1 540 9 is_stmt 1 view .LVU346
 1060 00de 0421     		movs	r1, #4
 1061 00e0 2046     		mov	r0, r4
 1062              	.LVL67:
 540:./Libraries/STM32_USB_Host_Library/Core/Src/usbh_core.c ****       }
 1063              		.loc 1 540 9 is_stmt 0 view .LVU347
 1064 00e2 9847     		blx	r3
 1065              	.LVL68:
 1066              	.L93:
 544:./Libraries/STM32_USB_Host_Library/Core/Src/usbh_core.c **** 
 1067              		.loc 1 544 7 is_stmt 1 view .LVU348
 1068 00e4 6420     		movs	r0, #100
 554:./Libraries/STM32_USB_Host_Library/Core/Src/usbh_core.c ****                     phost->device.address, phost->device.speed,
 1069              		.loc 1 554 7 is_stmt 0 view .LVU349
 1070 00e6 0025     		movs	r5, #0
 544:./Libraries/STM32_USB_Host_Library/Core/Src/usbh_core.c **** 
 1071              		.loc 1 544 7 view .LVU350
 1072 00e8 FFF7FEFF 		bl	USBH_Delay
 1073              	.LVL69:
 546:./Libraries/STM32_USB_Host_Library/Core/Src/usbh_core.c **** 
 1074              		.loc 1 546 7 is_stmt 1 view .LVU351
 546:./Libraries/STM32_USB_Host_Library/Core/Src/usbh_core.c **** 
 1075              		.loc 1 546 29 is_stmt 0 view .LVU352
 1076 00ec 2046     		mov	r0, r4
 1077 00ee FFF7FEFF 		bl	USBH_LL_GetSpeed
 1078              	.LVL70:
 548:./Libraries/STM32_USB_Host_Library/Core/Src/usbh_core.c **** 
 1079              		.loc 1 548 21 view .LVU353
 1080 00f2 0523     		movs	r3, #5
 550:./Libraries/STM32_USB_Host_Library/Core/Src/usbh_core.c ****       phost->Control.pipe_in  = USBH_AllocPipe(phost, 0x80U);
 1081              		.loc 1 550 33 view .LVU354
 1082 00f4 2946     		mov	r1, r5
 546:./Libraries/STM32_USB_Host_Library/Core/Src/usbh_core.c **** 
 1083              		.loc 1 546 27 view .LVU355
 1084 00f6 84F81D04 		strb	r0, [r4, #1053]
 548:./Libraries/STM32_USB_Host_Library/Core/Src/usbh_core.c **** 
 1085              		.loc 1 548 7 is_stmt 1 view .LVU356
 548:./Libraries/STM32_USB_Host_Library/Core/Src/usbh_core.c **** 
 1086              		.loc 1 548 21 is_stmt 0 view .LVU357
 1087 00fa 2370     		strb	r3, [r4]
 550:./Libraries/STM32_USB_Host_Library/Core/Src/usbh_core.c ****       phost->Control.pipe_in  = USBH_AllocPipe(phost, 0x80U);
 1088              		.loc 1 550 7 is_stmt 1 view .LVU358
 550:./Libraries/STM32_USB_Host_Library/Core/Src/usbh_core.c ****       phost->Control.pipe_in  = USBH_AllocPipe(phost, 0x80U);
 1089              		.loc 1 550 33 is_stmt 0 view .LVU359
 1090 00fc 2046     		mov	r0, r4
 1091 00fe FFF7FEFF 		bl	USBH_AllocPipe
 1092              	.LVL71:
 1093 0102 0346     		mov	r3, r0
 551:./Libraries/STM32_USB_Host_Library/Core/Src/usbh_core.c **** 
ARM GAS  /tmp/ccLKNEvV.s 			page 46


 1094              		.loc 1 551 33 view .LVU360
 1095 0104 8021     		movs	r1, #128
 1096 0106 2046     		mov	r0, r4
 550:./Libraries/STM32_USB_Host_Library/Core/Src/usbh_core.c ****       phost->Control.pipe_in  = USBH_AllocPipe(phost, 0x80U);
 1097              		.loc 1 550 31 view .LVU361
 1098 0108 6371     		strb	r3, [r4, #5]
 551:./Libraries/STM32_USB_Host_Library/Core/Src/usbh_core.c **** 
 1099              		.loc 1 551 7 is_stmt 1 view .LVU362
 551:./Libraries/STM32_USB_Host_Library/Core/Src/usbh_core.c **** 
 1100              		.loc 1 551 33 is_stmt 0 view .LVU363
 1101 010a FFF7FEFF 		bl	USBH_AllocPipe
 1102              	.LVL72:
 554:./Libraries/STM32_USB_Host_Library/Core/Src/usbh_core.c ****                     phost->device.address, phost->device.speed,
 1103              		.loc 1 554 7 view .LVU364
 1104 010e 94F81D34 		ldrb	r3, [r4, #1053]	@ zero_extendqisi2
 1105 0112 A679     		ldrb	r6, [r4, #6]	@ zero_extendqisi2
 551:./Libraries/STM32_USB_Host_Library/Core/Src/usbh_core.c **** 
 1106              		.loc 1 551 33 view .LVU365
 1107 0114 0146     		mov	r1, r0
 554:./Libraries/STM32_USB_Host_Library/Core/Src/usbh_core.c ****                     phost->device.address, phost->device.speed,
 1108              		.loc 1 554 7 view .LVU366
 1109 0116 8022     		movs	r2, #128
 1110 0118 2046     		mov	r0, r4
 1111 011a 0296     		str	r6, [sp, #8]
 551:./Libraries/STM32_USB_Host_Library/Core/Src/usbh_core.c **** 
 1112              		.loc 1 551 31 view .LVU367
 1113 011c 2171     		strb	r1, [r4, #4]
 554:./Libraries/STM32_USB_Host_Library/Core/Src/usbh_core.c ****                     phost->device.address, phost->device.speed,
 1114              		.loc 1 554 7 is_stmt 1 view .LVU368
 1115 011e CDE90035 		strd	r3, r5, [sp]
 1116 0122 94F81C34 		ldrb	r3, [r4, #1052]	@ zero_extendqisi2
 1117 0126 FFF7FEFF 		bl	USBH_OpenPipe
 1118              	.LVL73:
 559:./Libraries/STM32_USB_Host_Library/Core/Src/usbh_core.c ****                     phost->device.address, phost->device.speed,
 1119              		.loc 1 559 7 view .LVU369
 1120 012a A179     		ldrb	r1, [r4, #6]	@ zero_extendqisi2
 1121 012c 94F81D34 		ldrb	r3, [r4, #1053]	@ zero_extendqisi2
 1122 0130 2A46     		mov	r2, r5
 1123 0132 0195     		str	r5, [sp, #4]
 1124 0134 2046     		mov	r0, r4
 1125 0136 0291     		str	r1, [sp, #8]
 1126 0138 0093     		str	r3, [sp]
 1127 013a 94F81C34 		ldrb	r3, [r4, #1052]	@ zero_extendqisi2
 1128 013e 6179     		ldrb	r1, [r4, #5]	@ zero_extendqisi2
 1129 0140 FFF7FEFF 		bl	USBH_OpenPipe
 1130              	.LVL74:
 564:./Libraries/STM32_USB_Host_Library/Core/Src/usbh_core.c **** #if (osCMSIS < 0x20000U)
 1131              		.loc 1 564 7 view .LVU370
 564:./Libraries/STM32_USB_Host_Library/Core/Src/usbh_core.c **** #if (osCMSIS < 0x20000U)
 1132              		.loc 1 564 21 is_stmt 0 view .LVU371
 1133 0144 0121     		movs	r1, #1
 568:./Libraries/STM32_USB_Host_Library/Core/Src/usbh_core.c **** #endif
 1134              		.loc 1 568 13 view .LVU372
 1135 0146 2B46     		mov	r3, r5
 1136 0148 2A46     		mov	r2, r5
 564:./Libraries/STM32_USB_Host_Library/Core/Src/usbh_core.c **** #if (osCMSIS < 0x20000U)
 1137              		.loc 1 564 21 view .LVU373
ARM GAS  /tmp/ccLKNEvV.s 			page 47


 1138 014a C4F8E014 		str	r1, [r4, #1248]
 568:./Libraries/STM32_USB_Host_Library/Core/Src/usbh_core.c **** #endif
 1139              		.loc 1 568 7 is_stmt 1 view .LVU374
 568:./Libraries/STM32_USB_Host_Library/Core/Src/usbh_core.c **** #endif
 1140              		.loc 1 568 13 is_stmt 0 view .LVU375
 1141 014e 04F59C61 		add	r1, r4, #1248
 1142 0152 D4F8D804 		ldr	r0, [r4, #1240]
 1143 0156 FFF7FEFF 		bl	osMessageQueuePut
 1144              	.LVL75:
 571:./Libraries/STM32_USB_Host_Library/Core/Src/usbh_core.c **** 
 1145              		.loc 1 571 7 is_stmt 1 view .LVU376
 1146 015a 80E7     		b	.L155
 1147              	.LVL76:
 1148              	.L84:
 762:./Libraries/STM32_USB_Host_Library/Core/Src/usbh_core.c **** 
 1149              		.loc 1 762 7 view .LVU377
 762:./Libraries/STM32_USB_Host_Library/Core/Src/usbh_core.c **** 
 1150              		.loc 1 762 37 is_stmt 0 view .LVU378
 1151 015c 0020     		movs	r0, #0
 1152              	.LVL77:
 762:./Libraries/STM32_USB_Host_Library/Core/Src/usbh_core.c **** 
 1153              		.loc 1 762 37 view .LVU379
 1154 015e 04F59063 		add	r3, r4, #1152
 1155 0162 04F2BC41 		addw	r1, r4, #1212
 1156              	.LBB43:
 1157              	.LBB44:
 212:./Libraries/STM32_USB_Host_Library/Core/Src/usbh_core.c ****   }
 1158              		.loc 1 212 21 view .LVU380
 1159 0166 0246     		mov	r2, r0
 1160              	.LBE44:
 1161              	.LBE43:
 762:./Libraries/STM32_USB_Host_Library/Core/Src/usbh_core.c **** 
 1162              		.loc 1 762 37 view .LVU381
 1163 0168 84F82104 		strb	r0, [r4, #1057]
 764:./Libraries/STM32_USB_Host_Library/Core/Src/usbh_core.c **** 
 1164              		.loc 1 764 7 is_stmt 1 view .LVU382
 1165              	.LVL78:
 1166              	.LBB47:
 1167              	.LBI43:
 205:./Libraries/STM32_USB_Host_Library/Core/Src/usbh_core.c **** {
 1168              		.loc 1 205 27 view .LVU383
 1169              	.LBB45:
 207:./Libraries/STM32_USB_Host_Library/Core/Src/usbh_core.c **** 
 1170              		.loc 1 207 3 view .LVU384
 210:./Libraries/STM32_USB_Host_Library/Core/Src/usbh_core.c ****   {
 1171              		.loc 1 210 3 view .LVU385
 210:./Libraries/STM32_USB_Host_Library/Core/Src/usbh_core.c ****   {
 1172              		.loc 1 210 16 view .LVU386
 1173              	.L132:
 212:./Libraries/STM32_USB_Host_Library/Core/Src/usbh_core.c ****   }
 1174              		.loc 1 212 5 view .LVU387
 212:./Libraries/STM32_USB_Host_Library/Core/Src/usbh_core.c ****   }
 1175              		.loc 1 212 21 is_stmt 0 view .LVU388
 1176 016c 43F8042F 		str	r2, [r3, #4]!
 210:./Libraries/STM32_USB_Host_Library/Core/Src/usbh_core.c ****   {
 1177              		.loc 1 210 40 is_stmt 1 view .LVU389
 210:./Libraries/STM32_USB_Host_Library/Core/Src/usbh_core.c ****   {
ARM GAS  /tmp/ccLKNEvV.s 			page 48


 1178              		.loc 1 210 16 view .LVU390
 210:./Libraries/STM32_USB_Host_Library/Core/Src/usbh_core.c ****   {
 1179              		.loc 1 210 3 is_stmt 0 view .LVU391
 1180 0170 9942     		cmp	r1, r3
 1181 0172 FBD1     		bne	.L132
 1182 0174 04F21B23 		addw	r3, r4, #539
 1183 0178 04F21B42 		addw	r2, r4, #1051
 217:./Libraries/STM32_USB_Host_Library/Core/Src/usbh_core.c ****   }
 1184              		.loc 1 217 27 view .LVU392
 1185 017c 0025     		movs	r5, #0
 1186              	.L133:
 217:./Libraries/STM32_USB_Host_Library/Core/Src/usbh_core.c ****   }
 1187              		.loc 1 217 5 is_stmt 1 view .LVU393
 217:./Libraries/STM32_USB_Host_Library/Core/Src/usbh_core.c ****   }
 1188              		.loc 1 217 27 is_stmt 0 view .LVU394
 1189 017e 03F8015F 		strb	r5, [r3, #1]!
 215:./Libraries/STM32_USB_Host_Library/Core/Src/usbh_core.c ****   {
 1190              		.loc 1 215 42 is_stmt 1 view .LVU395
 215:./Libraries/STM32_USB_Host_Library/Core/Src/usbh_core.c ****   {
 1191              		.loc 1 215 16 view .LVU396
 215:./Libraries/STM32_USB_Host_Library/Core/Src/usbh_core.c ****   {
 1192              		.loc 1 215 3 is_stmt 0 view .LVU397
 1193 0182 9A42     		cmp	r2, r3
 1194 0184 FBD1     		bne	.L133
 220:./Libraries/STM32_USB_Host_Library/Core/Src/usbh_core.c ****   phost->EnumState = ENUM_IDLE;
 1195              		.loc 1 220 3 is_stmt 1 view .LVU398
 222:./Libraries/STM32_USB_Host_Library/Core/Src/usbh_core.c ****   phost->Timer = 0U;
 1196              		.loc 1 222 23 is_stmt 0 view .LVU399
 1197 0186 0123     		movs	r3, #1
 226:./Libraries/STM32_USB_Host_Library/Core/Src/usbh_core.c ****   phost->Control.errorcount = 0U;
 1198              		.loc 1 226 28 view .LVU400
 1199 0188 4020     		movs	r0, #64
 229:./Libraries/STM32_USB_Host_Library/Core/Src/usbh_core.c ****   phost->device.speed = USBH_SPEED_FULL;
 1200              		.loc 1 229 25 view .LVU401
 1201 018a 4FF48071 		mov	r1, #256
 1202              	.LBE45:
 1203              	.LBE47:
 767:./Libraries/STM32_USB_Host_Library/Core/Src/usbh_core.c ****       {
 1204              		.loc 1 767 16 view .LVU402
 1205 018e D4F87C24 		ldr	r2, [r4, #1148]
 1206              	.LBB48:
 1207              	.LBB46:
 220:./Libraries/STM32_USB_Host_Library/Core/Src/usbh_core.c ****   phost->EnumState = ENUM_IDLE;
 1208              		.loc 1 220 17 view .LVU403
 1209 0192 2570     		strb	r5, [r4]
 221:./Libraries/STM32_USB_Host_Library/Core/Src/usbh_core.c ****   phost->RequestState = CMD_SEND;
 1210              		.loc 1 221 3 is_stmt 1 view .LVU404
 221:./Libraries/STM32_USB_Host_Library/Core/Src/usbh_core.c ****   phost->RequestState = CMD_SEND;
 1211              		.loc 1 221 20 is_stmt 0 view .LVU405
 1212 0194 6570     		strb	r5, [r4, #1]
 222:./Libraries/STM32_USB_Host_Library/Core/Src/usbh_core.c ****   phost->Timer = 0U;
 1213              		.loc 1 222 3 is_stmt 1 view .LVU406
 223:./Libraries/STM32_USB_Host_Library/Core/Src/usbh_core.c **** 
 1214              		.loc 1 223 16 is_stmt 0 view .LVU407
 1215 0196 C4F8C454 		str	r5, [r4, #1220]
 222:./Libraries/STM32_USB_Host_Library/Core/Src/usbh_core.c ****   phost->Timer = 0U;
 1216              		.loc 1 222 23 view .LVU408
ARM GAS  /tmp/ccLKNEvV.s 			page 49


 1217 019a A370     		strb	r3, [r4, #2]
 223:./Libraries/STM32_USB_Host_Library/Core/Src/usbh_core.c **** 
 1218              		.loc 1 223 3 is_stmt 1 view .LVU409
 225:./Libraries/STM32_USB_Host_Library/Core/Src/usbh_core.c ****   phost->Control.pipe_size = USBH_MPS_DEFAULT;
 1219              		.loc 1 225 3 view .LVU410
 226:./Libraries/STM32_USB_Host_Library/Core/Src/usbh_core.c ****   phost->Control.errorcount = 0U;
 1220              		.loc 1 226 3 view .LVU411
 225:./Libraries/STM32_USB_Host_Library/Core/Src/usbh_core.c ****   phost->Control.pipe_size = USBH_MPS_DEFAULT;
 1221              		.loc 1 225 24 is_stmt 0 view .LVU412
 1222 019c 2383     		strh	r3, [r4, #24]	@ movhi
 226:./Libraries/STM32_USB_Host_Library/Core/Src/usbh_core.c ****   phost->Control.errorcount = 0U;
 1223              		.loc 1 226 28 view .LVU413
 1224 019e A071     		strb	r0, [r4, #6]
 227:./Libraries/STM32_USB_Host_Library/Core/Src/usbh_core.c **** 
 1225              		.loc 1 227 3 is_stmt 1 view .LVU414
 229:./Libraries/STM32_USB_Host_Library/Core/Src/usbh_core.c ****   phost->device.speed = USBH_SPEED_FULL;
 1226              		.loc 1 229 3 view .LVU415
 230:./Libraries/STM32_USB_Host_Library/Core/Src/usbh_core.c ****   phost->device.RstCnt = 0U;
 1227              		.loc 1 230 3 view .LVU416
 231:./Libraries/STM32_USB_Host_Library/Core/Src/usbh_core.c ****   phost->device.EnumCnt = 0U;
 1228              		.loc 1 231 3 view .LVU417
 232:./Libraries/STM32_USB_Host_Library/Core/Src/usbh_core.c **** 
 1229              		.loc 1 232 3 view .LVU418
 229:./Libraries/STM32_USB_Host_Library/Core/Src/usbh_core.c ****   phost->device.speed = USBH_SPEED_FULL;
 1230              		.loc 1 229 25 is_stmt 0 view .LVU419
 1231 01a0 C4F81C14 		str	r1, [r4, #1052]
 234:./Libraries/STM32_USB_Host_Library/Core/Src/usbh_core.c **** }
 1232              		.loc 1 234 3 is_stmt 1 view .LVU420
 1233              	.LVL79:
 234:./Libraries/STM32_USB_Host_Library/Core/Src/usbh_core.c **** }
 1234              		.loc 1 234 3 is_stmt 0 view .LVU421
 1235              	.LBE46:
 1236              	.LBE48:
 767:./Libraries/STM32_USB_Host_Library/Core/Src/usbh_core.c ****       {
 1237              		.loc 1 767 7 is_stmt 1 view .LVU422
 767:./Libraries/STM32_USB_Host_Library/Core/Src/usbh_core.c ****       {
 1238              		.loc 1 767 10 is_stmt 0 view .LVU423
 1239 01a4 22B1     		cbz	r2, .L134
 769:./Libraries/STM32_USB_Host_Library/Core/Src/usbh_core.c ****         phost->pActiveClass = NULL;
 1240              		.loc 1 769 9 is_stmt 1 view .LVU424
 1241 01a6 D368     		ldr	r3, [r2, #12]
 1242 01a8 2046     		mov	r0, r4
 1243 01aa 9847     		blx	r3
 1244              	.LVL80:
 770:./Libraries/STM32_USB_Host_Library/Core/Src/usbh_core.c ****       }
 1245              		.loc 1 770 9 view .LVU425
 770:./Libraries/STM32_USB_Host_Library/Core/Src/usbh_core.c ****       }
 1246              		.loc 1 770 29 is_stmt 0 view .LVU426
 1247 01ac C4F87C54 		str	r5, [r4, #1148]
 1248              	.L134:
 773:./Libraries/STM32_USB_Host_Library/Core/Src/usbh_core.c ****       {
 1249              		.loc 1 773 7 is_stmt 1 view .LVU427
 773:./Libraries/STM32_USB_Host_Library/Core/Src/usbh_core.c ****       {
 1250              		.loc 1 773 16 is_stmt 0 view .LVU428
 1251 01b0 D4F8D434 		ldr	r3, [r4, #1236]
 773:./Libraries/STM32_USB_Host_Library/Core/Src/usbh_core.c ****       {
 1252              		.loc 1 773 10 view .LVU429
ARM GAS  /tmp/ccLKNEvV.s 			page 50


 1253 01b4 13B1     		cbz	r3, .L135
 775:./Libraries/STM32_USB_Host_Library/Core/Src/usbh_core.c ****       }
 1254              		.loc 1 775 9 is_stmt 1 view .LVU430
 1255 01b6 0521     		movs	r1, #5
 1256 01b8 2046     		mov	r0, r4
 1257 01ba 9847     		blx	r3
 1258              	.LVL81:
 1259              	.L135:
 777:./Libraries/STM32_USB_Host_Library/Core/Src/usbh_core.c **** 
 1260              		.loc 1 777 45 view .LVU431
 779:./Libraries/STM32_USB_Host_Library/Core/Src/usbh_core.c ****       {
 1261              		.loc 1 779 7 view .LVU432
 779:./Libraries/STM32_USB_Host_Library/Core/Src/usbh_core.c ****       {
 1262              		.loc 1 779 24 is_stmt 0 view .LVU433
 1263 01bc 94F82234 		ldrb	r3, [r4, #1058]	@ zero_extendqisi2
 779:./Libraries/STM32_USB_Host_Library/Core/Src/usbh_core.c ****       {
 1264              		.loc 1 779 10 view .LVU434
 1265 01c0 012B     		cmp	r3, #1
 779:./Libraries/STM32_USB_Host_Library/Core/Src/usbh_core.c ****       {
 1266              		.loc 1 779 24 view .LVU435
 1267 01c2 DDB2     		uxtb	r5, r3
 779:./Libraries/STM32_USB_Host_Library/Core/Src/usbh_core.c ****       {
 1268              		.loc 1 779 10 view .LVU436
 1269 01c4 00F0FE80 		beq	.L178
 789:./Libraries/STM32_USB_Host_Library/Core/Src/usbh_core.c ****       }
 1270              		.loc 1 789 9 is_stmt 1 view .LVU437
 1271 01c8 2046     		mov	r0, r4
 1272 01ca FFF7FEFF 		bl	USBH_LL_Start
 1273              	.LVL82:
 1274 01ce 3BE7     		b	.L137
 1275              	.LVL83:
 1276              	.L83:
 575:./Libraries/STM32_USB_Host_Library/Core/Src/usbh_core.c ****       if (status == USBH_OK)
 1277              		.loc 1 575 7 view .LVU438
 1278              	.LBB49:
 1279              	.LBI49:
 816:./Libraries/STM32_USB_Host_Library/Core/Src/usbh_core.c **** {
 1280              		.loc 1 816 27 view .LVU439
 1281              	.LBB50:
 818:./Libraries/STM32_USB_Host_Library/Core/Src/usbh_core.c ****   USBH_StatusTypeDef ReqStatus = USBH_BUSY;
 1282              		.loc 1 818 3 view .LVU440
 819:./Libraries/STM32_USB_Host_Library/Core/Src/usbh_core.c **** 
 1283              		.loc 1 819 3 view .LVU441
 821:./Libraries/STM32_USB_Host_Library/Core/Src/usbh_core.c ****   {
 1284              		.loc 1 821 3 view .LVU442
 821:./Libraries/STM32_USB_Host_Library/Core/Src/usbh_core.c ****   {
 1285              		.loc 1 821 16 is_stmt 0 view .LVU443
 1286 01d0 6578     		ldrb	r5, [r4, #1]	@ zero_extendqisi2
 1287 01d2 072D     		cmp	r5, #7
 1288 01d4 77D8     		bhi	.L138
 1289 01d6 DFE815F0 		tbh	[pc, r5, lsl #1]
 1290              	.L96:
 1291 01da B800     		.2byte	(.L103-.L96)/2
 1292 01dc AF00     		.2byte	(.L102-.L96)/2
 1293 01de 9F00     		.2byte	(.L101-.L96)/2
 1294 01e0 9500     		.2byte	(.L100-.L96)/2
 1295 01e2 8A00     		.2byte	(.L99-.L96)/2
ARM GAS  /tmp/ccLKNEvV.s 			page 51


 1296 01e4 6400     		.2byte	(.L98-.L96)/2
 1297 01e6 E300     		.2byte	(.L97-.L96)/2
 1298 01e8 CF00     		.2byte	(.L95-.L96)/2
 1299              	.LVL84:
 1300              		.p2align 1
 1301              	.L82:
 821:./Libraries/STM32_USB_Host_Library/Core/Src/usbh_core.c ****   {
 1302              		.loc 1 821 16 view .LVU444
 1303              	.LBE50:
 1304              	.LBE49:
 720:./Libraries/STM32_USB_Host_Library/Core/Src/usbh_core.c ****       {
 1305              		.loc 1 720 7 is_stmt 1 view .LVU445
 720:./Libraries/STM32_USB_Host_Library/Core/Src/usbh_core.c ****       {
 1306              		.loc 1 720 16 is_stmt 0 view .LVU446
 1307 01ea D4F87C34 		ldr	r3, [r4, #1148]
 720:./Libraries/STM32_USB_Host_Library/Core/Src/usbh_core.c ****       {
 1308              		.loc 1 720 10 view .LVU447
 1309 01ee 002B     		cmp	r3, #0
 1310 01f0 4DD0     		beq	.L129
 722:./Libraries/STM32_USB_Host_Library/Core/Src/usbh_core.c **** 
 1311              		.loc 1 722 9 is_stmt 1 view .LVU448
 722:./Libraries/STM32_USB_Host_Library/Core/Src/usbh_core.c **** 
 1312              		.loc 1 722 18 is_stmt 0 view .LVU449
 1313 01f2 1B69     		ldr	r3, [r3, #16]
 1314 01f4 2046     		mov	r0, r4
 1315              	.LVL85:
 722:./Libraries/STM32_USB_Host_Library/Core/Src/usbh_core.c **** 
 1316              		.loc 1 722 18 view .LVU450
 1317 01f6 9847     		blx	r3
 1318              	.LVL86:
 722:./Libraries/STM32_USB_Host_Library/Core/Src/usbh_core.c **** 
 1319              		.loc 1 722 16 view .LVU451
 1320 01f8 8DF81700 		strb	r0, [sp, #23]
 724:./Libraries/STM32_USB_Host_Library/Core/Src/usbh_core.c ****         {
 1321              		.loc 1 724 9 is_stmt 1 view .LVU452
 724:./Libraries/STM32_USB_Host_Library/Core/Src/usbh_core.c ****         {
 1322              		.loc 1 724 20 is_stmt 0 view .LVU453
 1323 01fc 9DF81730 		ldrb	r3, [sp, #23]	@ zero_extendqisi2
 724:./Libraries/STM32_USB_Host_Library/Core/Src/usbh_core.c ****         {
 1324              		.loc 1 724 12 view .LVU454
 1325 0200 002B     		cmp	r3, #0
 1326 0202 40D1     		bne	.L130
 726:./Libraries/STM32_USB_Host_Library/Core/Src/usbh_core.c ****         }
 1327              		.loc 1 726 11 is_stmt 1 view .LVU455
 726:./Libraries/STM32_USB_Host_Library/Core/Src/usbh_core.c ****         }
 1328              		.loc 1 726 25 is_stmt 0 view .LVU456
 1329 0204 0B23     		movs	r3, #11
 1330 0206 2370     		strb	r3, [r4]
 1331              	.LVL87:
 1332              	.L131:
 741:./Libraries/STM32_USB_Host_Library/Core/Src/usbh_core.c ****       }
 1333              		.loc 1 741 45 is_stmt 1 view .LVU457
 744:./Libraries/STM32_USB_Host_Library/Core/Src/usbh_core.c **** #if (osCMSIS < 0x20000U)
 1334              		.loc 1 744 7 view .LVU458
 744:./Libraries/STM32_USB_Host_Library/Core/Src/usbh_core.c **** #if (osCMSIS < 0x20000U)
 1335              		.loc 1 744 21 is_stmt 0 view .LVU459
 1336 0208 0522     		movs	r2, #5
ARM GAS  /tmp/ccLKNEvV.s 			page 52


 1337 020a 1EE7     		b	.L172
 1338              	.LVL88:
 1339              	.L81:
 606:./Libraries/STM32_USB_Host_Library/Core/Src/usbh_core.c ****       {
 1340              		.loc 1 606 7 is_stmt 1 view .LVU460
 606:./Libraries/STM32_USB_Host_Library/Core/Src/usbh_core.c ****       {
 1341              		.loc 1 606 16 is_stmt 0 view .LVU461
 1342 020c D4F8D434 		ldr	r3, [r4, #1236]
 606:./Libraries/STM32_USB_Host_Library/Core/Src/usbh_core.c ****       {
 1343              		.loc 1 606 10 view .LVU462
 1344 0210 002B     		cmp	r3, #0
 1345 0212 3FF424AF 		beq	.L155
 608:./Libraries/STM32_USB_Host_Library/Core/Src/usbh_core.c ****         phost->gState = HOST_SET_CONFIGURATION;
 1346              		.loc 1 608 9 is_stmt 1 view .LVU463
 1347 0216 2046     		mov	r0, r4
 1348              	.LVL89:
 608:./Libraries/STM32_USB_Host_Library/Core/Src/usbh_core.c ****         phost->gState = HOST_SET_CONFIGURATION;
 1349              		.loc 1 608 9 is_stmt 0 view .LVU464
 1350 0218 0121     		movs	r1, #1
 1351 021a 9847     		blx	r3
 1352              	.LVL90:
 609:./Libraries/STM32_USB_Host_Library/Core/Src/usbh_core.c **** 
 1353              		.loc 1 609 9 is_stmt 1 view .LVU465
 609:./Libraries/STM32_USB_Host_Library/Core/Src/usbh_core.c **** 
 1354              		.loc 1 609 23 is_stmt 0 view .LVU466
 1355 021c 0821     		movs	r1, #8
 612:./Libraries/STM32_USB_Host_Library/Core/Src/usbh_core.c **** #if (osCMSIS < 0x20000U)
 1356              		.loc 1 612 23 view .LVU467
 1357 021e 0522     		movs	r2, #5
 616:./Libraries/STM32_USB_Host_Library/Core/Src/usbh_core.c **** #endif
 1358              		.loc 1 616 15 view .LVU468
 1359 0220 0023     		movs	r3, #0
 609:./Libraries/STM32_USB_Host_Library/Core/Src/usbh_core.c **** 
 1360              		.loc 1 609 23 view .LVU469
 1361 0222 2170     		strb	r1, [r4]
 612:./Libraries/STM32_USB_Host_Library/Core/Src/usbh_core.c **** #if (osCMSIS < 0x20000U)
 1362              		.loc 1 612 9 is_stmt 1 view .LVU470
 616:./Libraries/STM32_USB_Host_Library/Core/Src/usbh_core.c **** #endif
 1363              		.loc 1 616 15 is_stmt 0 view .LVU471
 1364 0224 04F59C61 		add	r1, r4, #1248
 612:./Libraries/STM32_USB_Host_Library/Core/Src/usbh_core.c **** #if (osCMSIS < 0x20000U)
 1365              		.loc 1 612 23 view .LVU472
 1366 0228 C4F8E024 		str	r2, [r4, #1248]
 616:./Libraries/STM32_USB_Host_Library/Core/Src/usbh_core.c **** #endif
 1367              		.loc 1 616 9 is_stmt 1 view .LVU473
 616:./Libraries/STM32_USB_Host_Library/Core/Src/usbh_core.c **** #endif
 1368              		.loc 1 616 15 is_stmt 0 view .LVU474
 1369 022c 1A46     		mov	r2, r3
 1370 022e D4F8D804 		ldr	r0, [r4, #1240]
 1371 0232 FFF7FEFF 		bl	osMessageQueuePut
 1372              	.LVL91:
 1373 0236 12E7     		b	.L155
 1374              	.LVL92:
 1375              	.L78:
 668:./Libraries/STM32_USB_Host_Library/Core/Src/usbh_core.c ****       {
 1376              		.loc 1 668 7 is_stmt 1 view .LVU475
 668:./Libraries/STM32_USB_Host_Library/Core/Src/usbh_core.c ****       {
ARM GAS  /tmp/ccLKNEvV.s 			page 53


 1377              		.loc 1 668 10 is_stmt 0 view .LVU476
 1378 0238 D4F88034 		ldr	r3, [r4, #1152]
 1379 023c 002B     		cmp	r3, #0
 1380 023e E3D0     		beq	.L131
 674:./Libraries/STM32_USB_Host_Library/Core/Src/usbh_core.c **** 
 1381              		.loc 1 674 9 is_stmt 1 view .LVU477
 674:./Libraries/STM32_USB_Host_Library/Core/Src/usbh_core.c **** 
 1382              		.loc 1 674 29 is_stmt 0 view .LVU478
 1383 0240 0021     		movs	r1, #0
 678:./Libraries/STM32_USB_Host_Library/Core/Src/usbh_core.c ****           {
 1384              		.loc 1 678 28 view .LVU479
 1385 0242 D4F87834 		ldr	r3, [r4, #1144]
 678:./Libraries/STM32_USB_Host_Library/Core/Src/usbh_core.c ****           {
 1386              		.loc 1 678 14 view .LVU480
 1387 0246 94F84724 		ldrb	r2, [r4, #1095]	@ zero_extendqisi2
 674:./Libraries/STM32_USB_Host_Library/Core/Src/usbh_core.c **** 
 1388              		.loc 1 674 29 view .LVU481
 1389 024a C4F87C14 		str	r1, [r4, #1148]
 676:./Libraries/STM32_USB_Host_Library/Core/Src/usbh_core.c ****         {
 1390              		.loc 1 676 9 is_stmt 1 view .LVU482
 676:./Libraries/STM32_USB_Host_Library/Core/Src/usbh_core.c ****         {
 1391              		.loc 1 676 24 view .LVU483
 678:./Libraries/STM32_USB_Host_Library/Core/Src/usbh_core.c ****           {
 1392              		.loc 1 678 11 view .LVU484
 678:./Libraries/STM32_USB_Host_Library/Core/Src/usbh_core.c ****           {
 1393              		.loc 1 678 14 is_stmt 0 view .LVU485
 1394 024e 1979     		ldrb	r1, [r3, #4]	@ zero_extendqisi2
 1395 0250 9142     		cmp	r1, r2
 1396 0252 1CD1     		bne	.L129
 680:./Libraries/STM32_USB_Host_Library/Core/Src/usbh_core.c ****             break;
 1397              		.loc 1 680 13 is_stmt 1 view .LVU486
 680:./Libraries/STM32_USB_Host_Library/Core/Src/usbh_core.c ****             break;
 1398              		.loc 1 680 33 is_stmt 0 view .LVU487
 1399 0254 C4F87C34 		str	r3, [r4, #1148]
 681:./Libraries/STM32_USB_Host_Library/Core/Src/usbh_core.c ****           }
 1400              		.loc 1 681 13 is_stmt 1 view .LVU488
 1401              	.LVL93:
 685:./Libraries/STM32_USB_Host_Library/Core/Src/usbh_core.c ****         {
 1402              		.loc 1 685 9 view .LVU489
 687:./Libraries/STM32_USB_Host_Library/Core/Src/usbh_core.c ****           {
 1403              		.loc 1 687 11 view .LVU490
 687:./Libraries/STM32_USB_Host_Library/Core/Src/usbh_core.c ****           {
 1404              		.loc 1 687 15 is_stmt 0 view .LVU491
 1405 0258 2046     		mov	r0, r4
 1406              	.LVL94:
 687:./Libraries/STM32_USB_Host_Library/Core/Src/usbh_core.c ****           {
 1407              		.loc 1 687 15 view .LVU492
 1408 025a 9B68     		ldr	r3, [r3, #8]
 1409 025c 9847     		blx	r3
 1410              	.LVL95:
 687:./Libraries/STM32_USB_Host_Library/Core/Src/usbh_core.c ****           {
 1411              		.loc 1 687 14 view .LVU493
 1412 025e B0B9     		cbnz	r0, .L129
 689:./Libraries/STM32_USB_Host_Library/Core/Src/usbh_core.c ****             USBH_UsrLog("%s class started.", phost->pActiveClass->Name);
 1413              		.loc 1 689 13 is_stmt 1 view .LVU494
 689:./Libraries/STM32_USB_Host_Library/Core/Src/usbh_core.c ****             USBH_UsrLog("%s class started.", phost->pActiveClass->Name);
 1414              		.loc 1 689 27 is_stmt 0 view .LVU495
ARM GAS  /tmp/ccLKNEvV.s 			page 54


 1415 0260 0622     		movs	r2, #6
 693:./Libraries/STM32_USB_Host_Library/Core/Src/usbh_core.c ****           }
 1416              		.loc 1 693 13 view .LVU496
 1417 0262 D4F8D434 		ldr	r3, [r4, #1236]
 1418 0266 0321     		movs	r1, #3
 1419 0268 2046     		mov	r0, r4
 689:./Libraries/STM32_USB_Host_Library/Core/Src/usbh_core.c ****             USBH_UsrLog("%s class started.", phost->pActiveClass->Name);
 1420              		.loc 1 689 27 view .LVU497
 1421 026a 2270     		strb	r2, [r4]
 690:./Libraries/STM32_USB_Host_Library/Core/Src/usbh_core.c **** 
 1422              		.loc 1 690 72 is_stmt 1 view .LVU498
 693:./Libraries/STM32_USB_Host_Library/Core/Src/usbh_core.c ****           }
 1423              		.loc 1 693 13 view .LVU499
 1424 026c 9847     		blx	r3
 1425              	.LVL96:
 1426 026e CBE7     		b	.L131
 1427              	.LVL97:
 1428              	.L80:
 625:./Libraries/STM32_USB_Host_Library/Core/Src/usbh_core.c ****       {
 1429              		.loc 1 625 7 view .LVU500
 625:./Libraries/STM32_USB_Host_Library/Core/Src/usbh_core.c ****       {
 1430              		.loc 1 625 11 is_stmt 0 view .LVU501
 1431 0270 94F83D14 		ldrb	r1, [r4, #1085]	@ zero_extendqisi2
 1432 0274 2046     		mov	r0, r4
 1433              	.LVL98:
 625:./Libraries/STM32_USB_Host_Library/Core/Src/usbh_core.c ****       {
 1434              		.loc 1 625 11 view .LVU502
 1435 0276 FFF7FEFF 		bl	USBH_SetCfg
 1436              	.LVL99:
 625:./Libraries/STM32_USB_Host_Library/Core/Src/usbh_core.c ****       {
 1437              		.loc 1 625 10 view .LVU503
 1438 027a 0028     		cmp	r0, #0
 1439 027c 7FF4E4AE 		bne	.L137
 627:./Libraries/STM32_USB_Host_Library/Core/Src/usbh_core.c ****         USBH_UsrLog("Default configuration set.");
 1440              		.loc 1 627 9 is_stmt 1 view .LVU504
 627:./Libraries/STM32_USB_Host_Library/Core/Src/usbh_core.c ****         USBH_UsrLog("Default configuration set.");
 1441              		.loc 1 627 23 is_stmt 0 view .LVU505
 1442 0280 0923     		movs	r3, #9
 1443 0282 2370     		strb	r3, [r4]
 1444 0284 E0E6     		b	.L137
 1445              	.L130:
 728:./Libraries/STM32_USB_Host_Library/Core/Src/usbh_core.c ****         {
 1446              		.loc 1 728 14 is_stmt 1 view .LVU506
 728:./Libraries/STM32_USB_Host_Library/Core/Src/usbh_core.c ****         {
 1447              		.loc 1 728 25 is_stmt 0 view .LVU507
 1448 0286 9DF81730 		ldrb	r3, [sp, #23]	@ zero_extendqisi2
 728:./Libraries/STM32_USB_Host_Library/Core/Src/usbh_core.c ****         {
 1449              		.loc 1 728 17 view .LVU508
 1450 028a 022B     		cmp	r3, #2
 1451 028c BCD1     		bne	.L131
 1452              	.LVL100:
 1453              	.L129:
 740:./Libraries/STM32_USB_Host_Library/Core/Src/usbh_core.c ****         USBH_ErrLog("Invalid Class Driver.");
 1454              		.loc 1 740 9 is_stmt 1 view .LVU509
 740:./Libraries/STM32_USB_Host_Library/Core/Src/usbh_core.c ****         USBH_ErrLog("Invalid Class Driver.");
 1455              		.loc 1 740 23 is_stmt 0 view .LVU510
 1456 028e 0D23     		movs	r3, #13
ARM GAS  /tmp/ccLKNEvV.s 			page 55


 1457 0290 2370     		strb	r3, [r4]
 1458 0292 B9E7     		b	.L131
 1459              	.LVL101:
 1460              	.L91:
 522:./Libraries/STM32_USB_Host_Library/Core/Src/usbh_core.c ****           USBH_Delay(10U);
 1461              		.loc 1 522 11 is_stmt 1 view .LVU511
 522:./Libraries/STM32_USB_Host_Library/Core/Src/usbh_core.c ****           USBH_Delay(10U);
 1462              		.loc 1 522 26 is_stmt 0 view .LVU512
 1463 0294 0A33     		adds	r3, r3, #10
 523:./Libraries/STM32_USB_Host_Library/Core/Src/usbh_core.c ****         }
 1464              		.loc 1 523 11 view .LVU513
 1465 0296 0A20     		movs	r0, #10
 1466              	.LVL102:
 522:./Libraries/STM32_USB_Host_Library/Core/Src/usbh_core.c ****           USBH_Delay(10U);
 1467              		.loc 1 522 26 view .LVU514
 1468 0298 C4F8C834 		str	r3, [r4, #1224]
 523:./Libraries/STM32_USB_Host_Library/Core/Src/usbh_core.c ****         }
 1469              		.loc 1 523 11 is_stmt 1 view .LVU515
 1470 029c FFF7FEFF 		bl	USBH_Delay
 1471              	.LVL103:
 1472 02a0 D2E6     		b	.L137
 1473              	.LVL104:
 1474              	.L98:
 1475              	.LBB54:
 1476              	.LBB51:
1011:./Libraries/STM32_USB_Host_Library/Core/Src/usbh_core.c ****       {
 1477              		.loc 1 1011 7 view .LVU516
1011:./Libraries/STM32_USB_Host_Library/Core/Src/usbh_core.c ****       {
 1478              		.loc 1 1011 32 is_stmt 0 view .LVU517
 1479 02a2 94F83434 		ldrb	r3, [r4, #1076]	@ zero_extendqisi2
1011:./Libraries/STM32_USB_Host_Library/Core/Src/usbh_core.c ****       {
 1480              		.loc 1 1011 10 view .LVU518
 1481 02a6 002B     		cmp	r3, #0
 1482 02a8 00F0BD80 		beq	.L115
1014:./Libraries/STM32_USB_Host_Library/Core/Src/usbh_core.c ****                                         phost->device.Data, 0xFFU);
 1483              		.loc 1 1014 9 is_stmt 1 view .LVU519
1014:./Libraries/STM32_USB_Host_Library/Core/Src/usbh_core.c ****                                         phost->device.Data, 0xFFU);
 1484              		.loc 1 1014 21 is_stmt 0 view .LVU520
 1485 02ac 1946     		mov	r1, r3
 1486 02ae 04F50772 		add	r2, r4, #540
 1487 02b2 FF23     		movs	r3, #255
 1488 02b4 2046     		mov	r0, r4
 1489              	.LVL105:
1014:./Libraries/STM32_USB_Host_Library/Core/Src/usbh_core.c ****                                         phost->device.Data, 0xFFU);
 1490              		.loc 1 1014 21 view .LVU521
 1491 02b6 FFF7FEFF 		bl	USBH_Get_StringDesc
 1492              	.LVL106:
1016:./Libraries/STM32_USB_Host_Library/Core/Src/usbh_core.c ****         {
 1493              		.loc 1 1016 9 is_stmt 1 view .LVU522
1016:./Libraries/STM32_USB_Host_Library/Core/Src/usbh_core.c ****         {
 1494              		.loc 1 1016 12 is_stmt 0 view .LVU523
 1495 02ba 0028     		cmp	r0, #0
 1496 02bc 00F00381 		beq	.L117
1031:./Libraries/STM32_USB_Host_Library/Core/Src/usbh_core.c ****         {
 1497              		.loc 1 1031 14 is_stmt 1 view .LVU524
1031:./Libraries/STM32_USB_Host_Library/Core/Src/usbh_core.c ****         {
 1498              		.loc 1 1031 17 is_stmt 0 view .LVU525
ARM GAS  /tmp/ccLKNEvV.s 			page 56


 1499 02c0 0328     		cmp	r0, #3
 1500 02c2 00F00081 		beq	.L117
 1501              	.LVL107:
 1502              	.L138:
 821:./Libraries/STM32_USB_Host_Library/Core/Src/usbh_core.c ****   {
 1503              		.loc 1 821 16 view .LVU526
 1504 02c6 0125     		movs	r5, #1
 1505              	.L94:
 1506              	.LVL108:
1145:./Libraries/STM32_USB_Host_Library/Core/Src/usbh_core.c **** }
 1507              		.loc 1 1145 3 is_stmt 1 view .LVU527
1145:./Libraries/STM32_USB_Host_Library/Core/Src/usbh_core.c **** }
 1508              		.loc 1 1145 3 is_stmt 0 view .LVU528
 1509              	.LBE51:
 1510              	.LBE54:
 575:./Libraries/STM32_USB_Host_Library/Core/Src/usbh_core.c ****       if (status == USBH_OK)
 1511              		.loc 1 575 14 view .LVU529
 1512 02c8 8DF81750 		strb	r5, [sp, #23]
 576:./Libraries/STM32_USB_Host_Library/Core/Src/usbh_core.c ****       {
 1513              		.loc 1 576 7 is_stmt 1 view .LVU530
 576:./Libraries/STM32_USB_Host_Library/Core/Src/usbh_core.c ****       {
 1514              		.loc 1 576 18 is_stmt 0 view .LVU531
 1515 02cc 9DF81730 		ldrb	r3, [sp, #23]	@ zero_extendqisi2
 576:./Libraries/STM32_USB_Host_Library/Core/Src/usbh_core.c ****       {
 1516              		.loc 1 576 10 view .LVU532
 1517 02d0 03F0FF02 		and	r2, r3, #255
 1518 02d4 002B     		cmp	r3, #0
 1519 02d6 7FF4C2AE 		bne	.L155
 579:./Libraries/STM32_USB_Host_Library/Core/Src/usbh_core.c **** 
 1520              		.loc 1 579 41 is_stmt 1 view .LVU533
 581:./Libraries/STM32_USB_Host_Library/Core/Src/usbh_core.c **** 
 1521              		.loc 1 581 9 view .LVU534
 583:./Libraries/STM32_USB_Host_Library/Core/Src/usbh_core.c ****         {
 1522              		.loc 1 583 12 is_stmt 0 view .LVU535
 1523 02da 94F83734 		ldrb	r3, [r4, #1079]	@ zero_extendqisi2
 581:./Libraries/STM32_USB_Host_Library/Core/Src/usbh_core.c **** 
 1524              		.loc 1 581 41 view .LVU536
 1525 02de 84F82424 		strb	r2, [r4, #1060]
 583:./Libraries/STM32_USB_Host_Library/Core/Src/usbh_core.c ****         {
 1526              		.loc 1 583 9 is_stmt 1 view .LVU537
 583:./Libraries/STM32_USB_Host_Library/Core/Src/usbh_core.c ****         {
 1527              		.loc 1 583 12 is_stmt 0 view .LVU538
 1528 02e2 012B     		cmp	r3, #1
 585:./Libraries/STM32_USB_Host_Library/Core/Src/usbh_core.c ****           phost->gState = HOST_SET_CONFIGURATION;
 1529              		.loc 1 585 63 is_stmt 1 view .LVU539
 586:./Libraries/STM32_USB_Host_Library/Core/Src/usbh_core.c ****         }
 1530              		.loc 1 586 11 view .LVU540
 586:./Libraries/STM32_USB_Host_Library/Core/Src/usbh_core.c ****         }
 1531              		.loc 1 586 25 is_stmt 0 view .LVU541
 1532 02e4 0CBF     		ite	eq
 1533 02e6 0823     		moveq	r3, #8
 590:./Libraries/STM32_USB_Host_Library/Core/Src/usbh_core.c ****         }
 1534              		.loc 1 590 11 is_stmt 1 view .LVU542
 590:./Libraries/STM32_USB_Host_Library/Core/Src/usbh_core.c ****         }
 1535              		.loc 1 590 25 is_stmt 0 view .LVU543
 1536 02e8 0723     		movne	r3, #7
 1537 02ea 2370     		strb	r3, [r4]
ARM GAS  /tmp/ccLKNEvV.s 			page 57


 1538 02ec 8CE7     		b	.L131
 1539              	.LVL109:
 1540              	.L99:
 1541              	.LBB55:
 1542              	.LBB52:
 978:./Libraries/STM32_USB_Host_Library/Core/Src/usbh_core.c ****       if (ReqStatus == USBH_OK)
 1543              		.loc 1 978 7 is_stmt 1 view .LVU544
 978:./Libraries/STM32_USB_Host_Library/Core/Src/usbh_core.c ****       if (ReqStatus == USBH_OK)
 1544              		.loc 1 978 19 is_stmt 0 view .LVU545
 1545 02ee B4F83A14 		ldrh	r1, [r4, #1082]
 1546 02f2 2046     		mov	r0, r4
 1547              	.LVL110:
 978:./Libraries/STM32_USB_Host_Library/Core/Src/usbh_core.c ****       if (ReqStatus == USBH_OK)
 1548              		.loc 1 978 19 view .LVU546
 1549 02f4 FFF7FEFF 		bl	USBH_Get_CfgDesc
 1550              	.LVL111:
 979:./Libraries/STM32_USB_Host_Library/Core/Src/usbh_core.c ****       {
 1551              		.loc 1 979 7 is_stmt 1 view .LVU547
 979:./Libraries/STM32_USB_Host_Library/Core/Src/usbh_core.c ****       {
 1552              		.loc 1 979 10 is_stmt 0 view .LVU548
 1553 02f8 0028     		cmp	r0, #0
 1554 02fa 7CD1     		bne	.L113
 981:./Libraries/STM32_USB_Host_Library/Core/Src/usbh_core.c ****       }
 1555              		.loc 1 981 9 is_stmt 1 view .LVU549
 981:./Libraries/STM32_USB_Host_Library/Core/Src/usbh_core.c ****       }
 1556              		.loc 1 981 26 is_stmt 0 view .LVU550
 1557 02fc 0523     		movs	r3, #5
 818:./Libraries/STM32_USB_Host_Library/Core/Src/usbh_core.c ****   USBH_StatusTypeDef ReqStatus = USBH_BUSY;
 1558              		.loc 1 818 22 view .LVU551
 1559 02fe 0125     		movs	r5, #1
 981:./Libraries/STM32_USB_Host_Library/Core/Src/usbh_core.c ****       }
 1560              		.loc 1 981 26 view .LVU552
 1561 0300 6370     		strb	r3, [r4, #1]
 1562 0302 E1E7     		b	.L94
 1563              	.LVL112:
 1564              	.L100:
 944:./Libraries/STM32_USB_Host_Library/Core/Src/usbh_core.c ****       if (ReqStatus == USBH_OK)
 1565              		.loc 1 944 7 is_stmt 1 view .LVU553
 944:./Libraries/STM32_USB_Host_Library/Core/Src/usbh_core.c ****       if (ReqStatus == USBH_OK)
 1566              		.loc 1 944 19 is_stmt 0 view .LVU554
 1567 0304 0921     		movs	r1, #9
 1568 0306 2046     		mov	r0, r4
 1569              	.LVL113:
 944:./Libraries/STM32_USB_Host_Library/Core/Src/usbh_core.c ****       if (ReqStatus == USBH_OK)
 1570              		.loc 1 944 19 view .LVU555
 1571 0308 FFF7FEFF 		bl	USBH_Get_CfgDesc
 1572              	.LVL114:
 945:./Libraries/STM32_USB_Host_Library/Core/Src/usbh_core.c ****       {
 1573              		.loc 1 945 7 is_stmt 1 view .LVU556
 945:./Libraries/STM32_USB_Host_Library/Core/Src/usbh_core.c ****       {
 1574              		.loc 1 945 10 is_stmt 0 view .LVU557
 1575 030c 0028     		cmp	r0, #0
 1576 030e 72D1     		bne	.L113
 947:./Libraries/STM32_USB_Host_Library/Core/Src/usbh_core.c ****       }
 1577              		.loc 1 947 9 is_stmt 1 view .LVU558
 947:./Libraries/STM32_USB_Host_Library/Core/Src/usbh_core.c ****       }
 1578              		.loc 1 947 26 is_stmt 0 view .LVU559
ARM GAS  /tmp/ccLKNEvV.s 			page 58


 1579 0310 0423     		movs	r3, #4
 818:./Libraries/STM32_USB_Host_Library/Core/Src/usbh_core.c ****   USBH_StatusTypeDef ReqStatus = USBH_BUSY;
 1580              		.loc 1 818 22 view .LVU560
 1581 0312 0125     		movs	r5, #1
 947:./Libraries/STM32_USB_Host_Library/Core/Src/usbh_core.c ****       }
 1582              		.loc 1 947 26 view .LVU561
 1583 0314 6370     		strb	r3, [r4, #1]
 1584 0316 D7E7     		b	.L94
 1585              	.LVL115:
 1586              	.L101:
 907:./Libraries/STM32_USB_Host_Library/Core/Src/usbh_core.c ****       if (ReqStatus == USBH_OK)
 1587              		.loc 1 907 7 is_stmt 1 view .LVU562
 907:./Libraries/STM32_USB_Host_Library/Core/Src/usbh_core.c ****       if (ReqStatus == USBH_OK)
 1588              		.loc 1 907 19 is_stmt 0 view .LVU563
 1589 0318 0121     		movs	r1, #1
 1590 031a 2046     		mov	r0, r4
 1591              	.LVL116:
 907:./Libraries/STM32_USB_Host_Library/Core/Src/usbh_core.c ****       if (ReqStatus == USBH_OK)
 1592              		.loc 1 907 19 view .LVU564
 1593 031c FFF7FEFF 		bl	USBH_SetAddress
 1594              	.LVL117:
 908:./Libraries/STM32_USB_Host_Library/Core/Src/usbh_core.c ****       {
 1595              		.loc 1 908 7 is_stmt 1 view .LVU565
 908:./Libraries/STM32_USB_Host_Library/Core/Src/usbh_core.c ****       {
 1596              		.loc 1 908 10 is_stmt 0 view .LVU566
 1597 0320 0646     		mov	r6, r0
 1598 0322 0028     		cmp	r0, #0
 1599 0324 00F0BD80 		beq	.L179
 927:./Libraries/STM32_USB_Host_Library/Core/Src/usbh_core.c ****       {
 1600              		.loc 1 927 12 is_stmt 1 view .LVU567
 927:./Libraries/STM32_USB_Host_Library/Core/Src/usbh_core.c ****       {
 1601              		.loc 1 927 15 is_stmt 0 view .LVU568
 1602 0328 0328     		cmp	r0, #3
 1603 032a CCD1     		bne	.L138
 929:./Libraries/STM32_USB_Host_Library/Core/Src/usbh_core.c **** 
 1604              		.loc 1 929 72 is_stmt 1 view .LVU569
 932:./Libraries/STM32_USB_Host_Library/Core/Src/usbh_core.c ****         phost->gState = HOST_ABORT_STATE;
 1605              		.loc 1 932 86 view .LVU570
 933:./Libraries/STM32_USB_Host_Library/Core/Src/usbh_core.c ****         phost->EnumState = ENUM_IDLE;
 1606              		.loc 1 933 9 view .LVU571
 933:./Libraries/STM32_USB_Host_Library/Core/Src/usbh_core.c ****         phost->EnumState = ENUM_IDLE;
 1607              		.loc 1 933 23 is_stmt 0 view .LVU572
 1608 032c 0D22     		movs	r2, #13
 934:./Libraries/STM32_USB_Host_Library/Core/Src/usbh_core.c ****       }
 1609              		.loc 1 934 26 view .LVU573
 1610 032e 0023     		movs	r3, #0
 818:./Libraries/STM32_USB_Host_Library/Core/Src/usbh_core.c ****   USBH_StatusTypeDef ReqStatus = USBH_BUSY;
 1611              		.loc 1 818 22 view .LVU574
 1612 0330 0125     		movs	r5, #1
 933:./Libraries/STM32_USB_Host_Library/Core/Src/usbh_core.c ****         phost->EnumState = ENUM_IDLE;
 1613              		.loc 1 933 23 view .LVU575
 1614 0332 2270     		strb	r2, [r4]
 934:./Libraries/STM32_USB_Host_Library/Core/Src/usbh_core.c ****       }
 1615              		.loc 1 934 9 is_stmt 1 view .LVU576
 934:./Libraries/STM32_USB_Host_Library/Core/Src/usbh_core.c ****       }
 1616              		.loc 1 934 26 is_stmt 0 view .LVU577
 1617 0334 6370     		strb	r3, [r4, #1]
ARM GAS  /tmp/ccLKNEvV.s 			page 59


 1618 0336 C7E7     		b	.L94
 1619              	.LVL118:
 1620              	.L102:
 870:./Libraries/STM32_USB_Host_Library/Core/Src/usbh_core.c ****       if (ReqStatus == USBH_OK)
 1621              		.loc 1 870 7 is_stmt 1 view .LVU578
 870:./Libraries/STM32_USB_Host_Library/Core/Src/usbh_core.c ****       if (ReqStatus == USBH_OK)
 1622              		.loc 1 870 19 is_stmt 0 view .LVU579
 1623 0338 1221     		movs	r1, #18
 1624 033a 2046     		mov	r0, r4
 1625              	.LVL119:
 870:./Libraries/STM32_USB_Host_Library/Core/Src/usbh_core.c ****       if (ReqStatus == USBH_OK)
 1626              		.loc 1 870 19 view .LVU580
 1627 033c FFF7FEFF 		bl	USBH_Get_DevDesc
 1628              	.LVL120:
 871:./Libraries/STM32_USB_Host_Library/Core/Src/usbh_core.c ****       {
 1629              		.loc 1 871 7 is_stmt 1 view .LVU581
 871:./Libraries/STM32_USB_Host_Library/Core/Src/usbh_core.c ****       {
 1630              		.loc 1 871 10 is_stmt 0 view .LVU582
 1631 0340 0028     		cmp	r0, #0
 1632 0342 7ED1     		bne	.L107
 873:./Libraries/STM32_USB_Host_Library/Core/Src/usbh_core.c ****         USBH_UsrLog("VID: %xh", phost->device.DevDesc.idVendor);
 1633              		.loc 1 873 65 is_stmt 1 view .LVU583
 874:./Libraries/STM32_USB_Host_Library/Core/Src/usbh_core.c **** 
 1634              		.loc 1 874 64 view .LVU584
 876:./Libraries/STM32_USB_Host_Library/Core/Src/usbh_core.c ****       }
 1635              		.loc 1 876 9 view .LVU585
 876:./Libraries/STM32_USB_Host_Library/Core/Src/usbh_core.c ****       }
 1636              		.loc 1 876 26 is_stmt 0 view .LVU586
 1637 0344 0223     		movs	r3, #2
 1638 0346 6370     		strb	r3, [r4, #1]
 1639 0348 BEE7     		b	.L94
 1640              	.LVL121:
 1641              	.L103:
 825:./Libraries/STM32_USB_Host_Library/Core/Src/usbh_core.c ****       if (ReqStatus == USBH_OK)
 1642              		.loc 1 825 7 is_stmt 1 view .LVU587
 825:./Libraries/STM32_USB_Host_Library/Core/Src/usbh_core.c ****       if (ReqStatus == USBH_OK)
 1643              		.loc 1 825 19 is_stmt 0 view .LVU588
 1644 034a 0821     		movs	r1, #8
 1645 034c 2046     		mov	r0, r4
 1646              	.LVL122:
 825:./Libraries/STM32_USB_Host_Library/Core/Src/usbh_core.c ****       if (ReqStatus == USBH_OK)
 1647              		.loc 1 825 19 view .LVU589
 1648 034e FFF7FEFF 		bl	USBH_Get_DevDesc
 1649              	.LVL123:
 826:./Libraries/STM32_USB_Host_Library/Core/Src/usbh_core.c ****       {
 1650              		.loc 1 826 7 is_stmt 1 view .LVU590
 826:./Libraries/STM32_USB_Host_Library/Core/Src/usbh_core.c ****       {
 1651              		.loc 1 826 10 is_stmt 0 view .LVU591
 1652 0352 0646     		mov	r6, r0
 1653 0354 0028     		cmp	r0, #0
 1654 0356 00F08480 		beq	.L180
 842:./Libraries/STM32_USB_Host_Library/Core/Src/usbh_core.c ****       {
 1655              		.loc 1 842 12 is_stmt 1 view .LVU592
 842:./Libraries/STM32_USB_Host_Library/Core/Src/usbh_core.c ****       {
 1656              		.loc 1 842 15 is_stmt 0 view .LVU593
 1657 035a 0328     		cmp	r0, #3
 1658 035c B3D1     		bne	.L138
ARM GAS  /tmp/ccLKNEvV.s 			page 60


 844:./Libraries/STM32_USB_Host_Library/Core/Src/usbh_core.c ****         phost->device.EnumCnt++;
 1659              		.loc 1 844 75 is_stmt 1 view .LVU594
 845:./Libraries/STM32_USB_Host_Library/Core/Src/usbh_core.c ****         if (phost->device.EnumCnt > 3U)
 1660              		.loc 1 845 9 view .LVU595
 845:./Libraries/STM32_USB_Host_Library/Core/Src/usbh_core.c ****         if (phost->device.EnumCnt > 3U)
 1661              		.loc 1 845 30 is_stmt 0 view .LVU596
 1662 035e 94F81E34 		ldrb	r3, [r4, #1054]	@ zero_extendqisi2
 1663 0362 0133     		adds	r3, r3, #1
 1664 0364 DBB2     		uxtb	r3, r3
 846:./Libraries/STM32_USB_Host_Library/Core/Src/usbh_core.c ****         {
 1665              		.loc 1 846 12 view .LVU597
 1666 0366 032B     		cmp	r3, #3
 845:./Libraries/STM32_USB_Host_Library/Core/Src/usbh_core.c ****         if (phost->device.EnumCnt > 3U)
 1667              		.loc 1 845 30 view .LVU598
 1668 0368 84F81E34 		strb	r3, [r4, #1054]
 846:./Libraries/STM32_USB_Host_Library/Core/Src/usbh_core.c ****         {
 1669              		.loc 1 846 9 is_stmt 1 view .LVU599
 846:./Libraries/STM32_USB_Host_Library/Core/Src/usbh_core.c ****         {
 1670              		.loc 1 846 12 is_stmt 0 view .LVU600
 1671 036c 40F2BF80 		bls	.L106
 1672              	.L171:
 990:./Libraries/STM32_USB_Host_Library/Core/Src/usbh_core.c ****           phost->gState = HOST_ABORT_STATE;
 1673              		.loc 1 990 88 is_stmt 1 view .LVU601
 991:./Libraries/STM32_USB_Host_Library/Core/Src/usbh_core.c ****         }
 1674              		.loc 1 991 11 view .LVU602
 991:./Libraries/STM32_USB_Host_Library/Core/Src/usbh_core.c ****         }
 1675              		.loc 1 991 25 is_stmt 0 view .LVU603
 1676 0370 0D23     		movs	r3, #13
 818:./Libraries/STM32_USB_Host_Library/Core/Src/usbh_core.c ****   USBH_StatusTypeDef ReqStatus = USBH_BUSY;
 1677              		.loc 1 818 22 view .LVU604
 1678 0372 0125     		movs	r5, #1
 991:./Libraries/STM32_USB_Host_Library/Core/Src/usbh_core.c ****         }
 1679              		.loc 1 991 25 view .LVU605
 1680 0374 2370     		strb	r3, [r4]
 1681 0376 A7E7     		b	.L94
 1682              	.LVL124:
 1683              	.L95:
1114:./Libraries/STM32_USB_Host_Library/Core/Src/usbh_core.c ****       {
 1684              		.loc 1 1114 7 is_stmt 1 view .LVU606
1114:./Libraries/STM32_USB_Host_Library/Core/Src/usbh_core.c ****       {
 1685              		.loc 1 1114 32 is_stmt 0 view .LVU607
 1686 0378 94F83654 		ldrb	r5, [r4, #1078]	@ zero_extendqisi2
1114:./Libraries/STM32_USB_Host_Library/Core/Src/usbh_core.c ****       {
 1687              		.loc 1 1114 10 view .LVU608
 1688 037c 002D     		cmp	r5, #0
 1689 037e A3D0     		beq	.L94
1117:./Libraries/STM32_USB_Host_Library/Core/Src/usbh_core.c ****                                         phost->device.Data, 0xFFU);
 1690              		.loc 1 1117 9 is_stmt 1 view .LVU609
1117:./Libraries/STM32_USB_Host_Library/Core/Src/usbh_core.c ****                                         phost->device.Data, 0xFFU);
 1691              		.loc 1 1117 21 is_stmt 0 view .LVU610
 1692 0380 2946     		mov	r1, r5
 1693 0382 FF23     		movs	r3, #255
 1694 0384 04F50772 		add	r2, r4, #540
 1695 0388 2046     		mov	r0, r4
 1696              	.LVL125:
1117:./Libraries/STM32_USB_Host_Library/Core/Src/usbh_core.c ****                                         phost->device.Data, 0xFFU);
 1697              		.loc 1 1117 21 view .LVU611
ARM GAS  /tmp/ccLKNEvV.s 			page 61


 1698 038a FFF7FEFF 		bl	USBH_Get_StringDesc
 1699              	.LVL126:
1119:./Libraries/STM32_USB_Host_Library/Core/Src/usbh_core.c ****         {
 1700              		.loc 1 1119 9 is_stmt 1 view .LVU612
1125:./Libraries/STM32_USB_Host_Library/Core/Src/usbh_core.c ****         {
 1701              		.loc 1 1125 14 view .LVU613
1125:./Libraries/STM32_USB_Host_Library/Core/Src/usbh_core.c ****         {
 1702              		.loc 1 1125 17 is_stmt 0 view .LVU614
 1703 038e 0028     		cmp	r0, #0
 1704 0390 18BF     		it	ne
 1705 0392 0328     		cmpne	r0, #3
 1706 0394 0CBF     		ite	eq
 1707 0396 0120     		moveq	r0, #1
 1708              	.LVL127:
1125:./Libraries/STM32_USB_Host_Library/Core/Src/usbh_core.c ****         {
 1709              		.loc 1 1125 17 view .LVU615
 1710 0398 0020     		movne	r0, #0
 818:./Libraries/STM32_USB_Host_Library/Core/Src/usbh_core.c ****   USBH_StatusTypeDef ReqStatus = USBH_BUSY;
 1711              		.loc 1 818 22 view .LVU616
 1712 039a 80F00105 		eor	r5, r0, #1
 1713 039e 93E7     		b	.L94
 1714              	.LVL128:
 1715              	.L97:
1067:./Libraries/STM32_USB_Host_Library/Core/Src/usbh_core.c ****       {
 1716              		.loc 1 1067 7 is_stmt 1 view .LVU617
1067:./Libraries/STM32_USB_Host_Library/Core/Src/usbh_core.c ****       {
 1717              		.loc 1 1067 32 is_stmt 0 view .LVU618
 1718 03a0 94F83534 		ldrb	r3, [r4, #1077]	@ zero_extendqisi2
1067:./Libraries/STM32_USB_Host_Library/Core/Src/usbh_core.c ****       {
 1719              		.loc 1 1067 10 view .LVU619
 1720 03a4 002B     		cmp	r3, #0
 1721 03a6 5AD0     		beq	.L118
1070:./Libraries/STM32_USB_Host_Library/Core/Src/usbh_core.c ****                                         phost->device.Data, 0xFFU);
 1722              		.loc 1 1070 9 is_stmt 1 view .LVU620
1070:./Libraries/STM32_USB_Host_Library/Core/Src/usbh_core.c ****                                         phost->device.Data, 0xFFU);
 1723              		.loc 1 1070 21 is_stmt 0 view .LVU621
 1724 03a8 1946     		mov	r1, r3
 1725 03aa 04F50772 		add	r2, r4, #540
 1726 03ae FF23     		movs	r3, #255
 1727 03b0 2046     		mov	r0, r4
 1728              	.LVL129:
1070:./Libraries/STM32_USB_Host_Library/Core/Src/usbh_core.c ****                                         phost->device.Data, 0xFFU);
 1729              		.loc 1 1070 21 view .LVU622
 1730 03b2 FFF7FEFF 		bl	USBH_Get_StringDesc
 1731              	.LVL130:
1072:./Libraries/STM32_USB_Host_Library/Core/Src/usbh_core.c ****         {
 1732              		.loc 1 1072 9 is_stmt 1 view .LVU623
1072:./Libraries/STM32_USB_Host_Library/Core/Src/usbh_core.c ****         {
 1733              		.loc 1 1072 12 is_stmt 0 view .LVU624
 1734 03b6 0028     		cmp	r0, #0
 1735 03b8 40F09480 		bne	.L119
1075:./Libraries/STM32_USB_Host_Library/Core/Src/usbh_core.c ****           phost->EnumState = ENUM_GET_SERIALNUM_STRING_DESC;
 1736              		.loc 1 1075 74 is_stmt 1 view .LVU625
1076:./Libraries/STM32_USB_Host_Library/Core/Src/usbh_core.c ****         }
 1737              		.loc 1 1076 11 view .LVU626
1076:./Libraries/STM32_USB_Host_Library/Core/Src/usbh_core.c ****         }
 1738              		.loc 1 1076 28 is_stmt 0 view .LVU627
ARM GAS  /tmp/ccLKNEvV.s 			page 62


 1739 03bc 0723     		movs	r3, #7
 818:./Libraries/STM32_USB_Host_Library/Core/Src/usbh_core.c ****   USBH_StatusTypeDef ReqStatus = USBH_BUSY;
 1740              		.loc 1 818 22 view .LVU628
 1741 03be 0125     		movs	r5, #1
1076:./Libraries/STM32_USB_Host_Library/Core/Src/usbh_core.c ****         }
 1742              		.loc 1 1076 28 view .LVU629
 1743 03c0 6370     		strb	r3, [r4, #1]
 1744 03c2 81E7     		b	.L94
 1745              	.LVL131:
 1746              	.L178:
1076:./Libraries/STM32_USB_Host_Library/Core/Src/usbh_core.c ****         }
 1747              		.loc 1 1076 28 view .LVU630
 1748              	.LBE52:
 1749              	.LBE55:
 781:./Libraries/STM32_USB_Host_Library/Core/Src/usbh_core.c **** 
 1750              		.loc 1 781 9 is_stmt 1 view .LVU631
 781:./Libraries/STM32_USB_Host_Library/Core/Src/usbh_core.c **** 
 1751              		.loc 1 781 39 is_stmt 0 view .LVU632
 1752 03c4 0023     		movs	r3, #0
 1753              	.LBB56:
 1754              	.LBB57:
 389:./Libraries/STM32_USB_Host_Library/Core/Src/usbh_core.c **** 
 1755              		.loc 1 389 3 view .LVU633
 1756 03c6 2046     		mov	r0, r4
 1757              	.LBE57:
 1758              	.LBE56:
 781:./Libraries/STM32_USB_Host_Library/Core/Src/usbh_core.c **** 
 1759              		.loc 1 781 39 view .LVU634
 1760 03c8 84F82234 		strb	r3, [r4, #1058]
 784:./Libraries/STM32_USB_Host_Library/Core/Src/usbh_core.c ****       }
 1761              		.loc 1 784 9 is_stmt 1 view .LVU635
 1762              	.LVL132:
 1763              	.LBB59:
 1764              	.LBI56:
 386:./Libraries/STM32_USB_Host_Library/Core/Src/usbh_core.c **** {
 1765              		.loc 1 386 21 view .LVU636
 1766              	.LBB58:
 389:./Libraries/STM32_USB_Host_Library/Core/Src/usbh_core.c **** 
 1767              		.loc 1 389 3 view .LVU637
 1768 03cc FFF7FEFF 		bl	USBH_LL_Start
 1769              	.LVL133:
 392:./Libraries/STM32_USB_Host_Library/Core/Src/usbh_core.c **** 
 1770              		.loc 1 392 3 view .LVU638
 1771 03d0 2946     		mov	r1, r5
 1772 03d2 2046     		mov	r0, r4
 1773 03d4 FFF7FEFF 		bl	USBH_LL_DriverVBUS
 1774              	.LVL134:
 394:./Libraries/STM32_USB_Host_Library/Core/Src/usbh_core.c **** }
 1775              		.loc 1 394 3 view .LVU639
 394:./Libraries/STM32_USB_Host_Library/Core/Src/usbh_core.c **** }
 1776              		.loc 1 394 10 is_stmt 0 view .LVU640
 1777 03d8 36E6     		b	.L137
 1778              	.LVL135:
 1779              	.L177:
 394:./Libraries/STM32_USB_Host_Library/Core/Src/usbh_core.c **** }
 1780              		.loc 1 394 10 view .LVU641
 1781              	.LBE58:
ARM GAS  /tmp/ccLKNEvV.s 			page 63


 1782              	.LBE59:
 500:./Libraries/STM32_USB_Host_Library/Core/Src/usbh_core.c ****         phost->device.RstCnt = 0U;
 1783              		.loc 1 500 50 is_stmt 1 view .LVU642
 501:./Libraries/STM32_USB_Host_Library/Core/Src/usbh_core.c ****         phost->gState = HOST_DEV_ATTACHED;
 1784              		.loc 1 501 9 view .LVU643
 501:./Libraries/STM32_USB_Host_Library/Core/Src/usbh_core.c ****         phost->gState = HOST_DEV_ATTACHED;
 1785              		.loc 1 501 30 is_stmt 0 view .LVU644
 1786 03da 0022     		movs	r2, #0
 502:./Libraries/STM32_USB_Host_Library/Core/Src/usbh_core.c ****       }
 1787              		.loc 1 502 23 view .LVU645
 1788 03dc 0223     		movs	r3, #2
 501:./Libraries/STM32_USB_Host_Library/Core/Src/usbh_core.c ****         phost->gState = HOST_DEV_ATTACHED;
 1789              		.loc 1 501 30 view .LVU646
 1790 03de 84F81F24 		strb	r2, [r4, #1055]
 502:./Libraries/STM32_USB_Host_Library/Core/Src/usbh_core.c ****       }
 1791              		.loc 1 502 9 is_stmt 1 view .LVU647
 502:./Libraries/STM32_USB_Host_Library/Core/Src/usbh_core.c ****       }
 1792              		.loc 1 502 23 is_stmt 0 view .LVU648
 1793 03e2 2370     		strb	r3, [r4]
 1794 03e4 30E6     		b	.L137
 1795              	.L176:
 645:./Libraries/STM32_USB_Host_Library/Core/Src/usbh_core.c ****         {
 1796              		.loc 1 645 9 is_stmt 1 view .LVU649
 645:./Libraries/STM32_USB_Host_Library/Core/Src/usbh_core.c ****         {
 1797              		.loc 1 645 13 is_stmt 0 view .LVU650
 1798 03e6 0121     		movs	r1, #1
 1799 03e8 2046     		mov	r0, r4
 1800              	.LVL136:
 645:./Libraries/STM32_USB_Host_Library/Core/Src/usbh_core.c ****         {
 1801              		.loc 1 645 13 view .LVU651
 1802 03ea FFF7FEFF 		bl	USBH_SetFeature
 1803              	.LVL137:
 645:./Libraries/STM32_USB_Host_Library/Core/Src/usbh_core.c ****         {
 1804              		.loc 1 645 12 view .LVU652
 1805 03ee 0028     		cmp	r0, #0
 1806 03f0 7FF42AAE 		bne	.L137
 1807 03f4 26E6     		b	.L124
 1808              	.LVL138:
 1809              	.L113:
 1810              	.LBB60:
 1811              	.LBB53:
 983:./Libraries/STM32_USB_Host_Library/Core/Src/usbh_core.c ****       {
 1812              		.loc 1 983 12 is_stmt 1 view .LVU653
 983:./Libraries/STM32_USB_Host_Library/Core/Src/usbh_core.c ****       {
 1813              		.loc 1 983 15 is_stmt 0 view .LVU654
 1814 03f6 0328     		cmp	r0, #3
 1815 03f8 7FF465AF 		bne	.L138
 985:./Libraries/STM32_USB_Host_Library/Core/Src/usbh_core.c ****         phost->device.EnumCnt++;
 1816              		.loc 1 985 89 is_stmt 1 view .LVU655
 986:./Libraries/STM32_USB_Host_Library/Core/Src/usbh_core.c ****         if (phost->device.EnumCnt > 3U)
 1817              		.loc 1 986 9 view .LVU656
 986:./Libraries/STM32_USB_Host_Library/Core/Src/usbh_core.c ****         if (phost->device.EnumCnt > 3U)
 1818              		.loc 1 986 30 is_stmt 0 view .LVU657
 1819 03fc 94F81E34 		ldrb	r3, [r4, #1054]	@ zero_extendqisi2
 1820 0400 0133     		adds	r3, r3, #1
 1821 0402 DBB2     		uxtb	r3, r3
 987:./Libraries/STM32_USB_Host_Library/Core/Src/usbh_core.c ****         {
ARM GAS  /tmp/ccLKNEvV.s 			page 64


 1822              		.loc 1 987 12 view .LVU658
 1823 0404 032B     		cmp	r3, #3
 986:./Libraries/STM32_USB_Host_Library/Core/Src/usbh_core.c ****         if (phost->device.EnumCnt > 3U)
 1824              		.loc 1 986 30 view .LVU659
 1825 0406 84F81E34 		strb	r3, [r4, #1054]
 987:./Libraries/STM32_USB_Host_Library/Core/Src/usbh_core.c ****         {
 1826              		.loc 1 987 9 is_stmt 1 view .LVU660
 987:./Libraries/STM32_USB_Host_Library/Core/Src/usbh_core.c ****         {
 1827              		.loc 1 987 12 is_stmt 0 view .LVU661
 1828 040a B1D8     		bhi	.L171
 996:./Libraries/STM32_USB_Host_Library/Core/Src/usbh_core.c ****           USBH_FreePipe(phost, phost->Control.pipe_in);
 1829              		.loc 1 996 11 is_stmt 1 view .LVU662
 1830 040c 6179     		ldrb	r1, [r4, #5]	@ zero_extendqisi2
 1831 040e 2046     		mov	r0, r4
 1832              	.LVL139:
 996:./Libraries/STM32_USB_Host_Library/Core/Src/usbh_core.c ****           USBH_FreePipe(phost, phost->Control.pipe_in);
 1833              		.loc 1 996 11 is_stmt 0 view .LVU663
 1834 0410 FFF7FEFF 		bl	USBH_FreePipe
 1835              	.LVL140:
 997:./Libraries/STM32_USB_Host_Library/Core/Src/usbh_core.c **** 
 1836              		.loc 1 997 11 is_stmt 1 view .LVU664
 1837 0414 2179     		ldrb	r1, [r4, #4]	@ zero_extendqisi2
 1838 0416 2046     		mov	r0, r4
 818:./Libraries/STM32_USB_Host_Library/Core/Src/usbh_core.c ****   USBH_StatusTypeDef ReqStatus = USBH_BUSY;
 1839              		.loc 1 818 22 is_stmt 0 view .LVU665
 1840 0418 0125     		movs	r5, #1
 997:./Libraries/STM32_USB_Host_Library/Core/Src/usbh_core.c **** 
 1841              		.loc 1 997 11 view .LVU666
 1842 041a FFF7FEFF 		bl	USBH_FreePipe
 1843              	.LVL141:
1000:./Libraries/STM32_USB_Host_Library/Core/Src/usbh_core.c ****           phost->gState = HOST_IDLE;
 1844              		.loc 1 1000 11 is_stmt 1 view .LVU667
1000:./Libraries/STM32_USB_Host_Library/Core/Src/usbh_core.c ****           phost->gState = HOST_IDLE;
 1845              		.loc 1 1000 28 is_stmt 0 view .LVU668
 1846 041e 0023     		movs	r3, #0
 1847 0420 6370     		strb	r3, [r4, #1]
1001:./Libraries/STM32_USB_Host_Library/Core/Src/usbh_core.c ****         }
 1848              		.loc 1 1001 11 is_stmt 1 view .LVU669
1001:./Libraries/STM32_USB_Host_Library/Core/Src/usbh_core.c ****         }
 1849              		.loc 1 1001 25 is_stmt 0 view .LVU670
 1850 0422 2370     		strb	r3, [r4]
 1851 0424 50E7     		b	.L94
 1852              	.LVL142:
 1853              	.L115:
1052:./Libraries/STM32_USB_Host_Library/Core/Src/usbh_core.c ****         phost->EnumState = ENUM_GET_PRODUCT_STRING_DESC;
 1854              		.loc 1 1052 42 is_stmt 1 view .LVU671
1053:./Libraries/STM32_USB_Host_Library/Core/Src/usbh_core.c **** 
 1855              		.loc 1 1053 9 view .LVU672
1053:./Libraries/STM32_USB_Host_Library/Core/Src/usbh_core.c **** 
 1856              		.loc 1 1053 26 is_stmt 0 view .LVU673
 1857 0426 0621     		movs	r1, #6
 1858              	.L170:
1103:./Libraries/STM32_USB_Host_Library/Core/Src/usbh_core.c **** #if (osCMSIS < 0x20000U)
 1859              		.loc 1 1103 23 view .LVU674
 1860 0428 0520     		movs	r0, #5
 1861              	.LVL143:
1100:./Libraries/STM32_USB_Host_Library/Core/Src/usbh_core.c **** 
ARM GAS  /tmp/ccLKNEvV.s 			page 65


 1862              		.loc 1 1100 26 view .LVU675
 1863 042a 6170     		strb	r1, [r4, #1]
1103:./Libraries/STM32_USB_Host_Library/Core/Src/usbh_core.c **** #if (osCMSIS < 0x20000U)
 1864              		.loc 1 1103 9 is_stmt 1 view .LVU676
1107:./Libraries/STM32_USB_Host_Library/Core/Src/usbh_core.c **** #endif
 1865              		.loc 1 1107 15 is_stmt 0 view .LVU677
 1866 042c 1A46     		mov	r2, r3
 1867 042e 04F59C61 		add	r1, r4, #1248
1103:./Libraries/STM32_USB_Host_Library/Core/Src/usbh_core.c **** #if (osCMSIS < 0x20000U)
 1868              		.loc 1 1103 23 view .LVU678
 1869 0432 C4F8E004 		str	r0, [r4, #1248]
1107:./Libraries/STM32_USB_Host_Library/Core/Src/usbh_core.c **** #endif
 1870              		.loc 1 1107 9 is_stmt 1 view .LVU679
 818:./Libraries/STM32_USB_Host_Library/Core/Src/usbh_core.c ****   USBH_StatusTypeDef ReqStatus = USBH_BUSY;
 1871              		.loc 1 818 22 is_stmt 0 view .LVU680
 1872 0436 0125     		movs	r5, #1
1107:./Libraries/STM32_USB_Host_Library/Core/Src/usbh_core.c **** #endif
 1873              		.loc 1 1107 15 view .LVU681
 1874 0438 D4F8D804 		ldr	r0, [r4, #1240]
 1875 043c FFF7FEFF 		bl	osMessageQueuePut
 1876              	.LVL144:
 1877 0440 42E7     		b	.L94
 1878              	.LVL145:
 1879              	.L107:
 878:./Libraries/STM32_USB_Host_Library/Core/Src/usbh_core.c ****       {
 1880              		.loc 1 878 12 is_stmt 1 view .LVU682
 878:./Libraries/STM32_USB_Host_Library/Core/Src/usbh_core.c ****       {
 1881              		.loc 1 878 15 is_stmt 0 view .LVU683
 1882 0442 0328     		cmp	r0, #3
 1883 0444 7FF43FAF 		bne	.L138
 880:./Libraries/STM32_USB_Host_Library/Core/Src/usbh_core.c ****         phost->device.EnumCnt++;
 1884              		.loc 1 880 80 is_stmt 1 view .LVU684
 881:./Libraries/STM32_USB_Host_Library/Core/Src/usbh_core.c ****         if (phost->device.EnumCnt > 3U)
 1885              		.loc 1 881 9 view .LVU685
 881:./Libraries/STM32_USB_Host_Library/Core/Src/usbh_core.c ****         if (phost->device.EnumCnt > 3U)
 1886              		.loc 1 881 30 is_stmt 0 view .LVU686
 1887 0448 94F81E34 		ldrb	r3, [r4, #1054]	@ zero_extendqisi2
 1888 044c 0133     		adds	r3, r3, #1
 1889 044e DBB2     		uxtb	r3, r3
 882:./Libraries/STM32_USB_Host_Library/Core/Src/usbh_core.c ****         {
 1890              		.loc 1 882 12 view .LVU687
 1891 0450 032B     		cmp	r3, #3
 881:./Libraries/STM32_USB_Host_Library/Core/Src/usbh_core.c ****         if (phost->device.EnumCnt > 3U)
 1892              		.loc 1 881 30 view .LVU688
 1893 0452 84F81E34 		strb	r3, [r4, #1054]
 882:./Libraries/STM32_USB_Host_Library/Core/Src/usbh_core.c ****         {
 1894              		.loc 1 882 9 is_stmt 1 view .LVU689
 882:./Libraries/STM32_USB_Host_Library/Core/Src/usbh_core.c ****         {
 1895              		.loc 1 882 12 is_stmt 0 view .LVU690
 1896 0456 56D9     		bls	.L109
 885:./Libraries/STM32_USB_Host_Library/Core/Src/usbh_core.c ****           phost->gState = HOST_ABORT_STATE;
 1897              		.loc 1 885 88 is_stmt 1 view .LVU691
 886:./Libraries/STM32_USB_Host_Library/Core/Src/usbh_core.c ****         }
 1898              		.loc 1 886 11 view .LVU692
 886:./Libraries/STM32_USB_Host_Library/Core/Src/usbh_core.c ****         }
 1899              		.loc 1 886 25 is_stmt 0 view .LVU693
 1900 0458 0D23     		movs	r3, #13
ARM GAS  /tmp/ccLKNEvV.s 			page 66


 1901 045a 2370     		strb	r3, [r4]
 1902 045c 34E7     		b	.L94
 1903              	.LVL146:
 1904              	.L118:
1099:./Libraries/STM32_USB_Host_Library/Core/Src/usbh_core.c ****         phost->EnumState = ENUM_GET_SERIALNUM_STRING_DESC;
 1905              		.loc 1 1099 37 is_stmt 1 view .LVU694
1100:./Libraries/STM32_USB_Host_Library/Core/Src/usbh_core.c **** 
 1906              		.loc 1 1100 9 view .LVU695
1100:./Libraries/STM32_USB_Host_Library/Core/Src/usbh_core.c **** 
 1907              		.loc 1 1100 26 is_stmt 0 view .LVU696
 1908 045e 0721     		movs	r1, #7
 1909 0460 E2E7     		b	.L170
 1910              	.LVL147:
 1911              	.L180:
 828:./Libraries/STM32_USB_Host_Library/Core/Src/usbh_core.c **** 
 1912              		.loc 1 828 9 is_stmt 1 view .LVU697
 828:./Libraries/STM32_USB_Host_Library/Core/Src/usbh_core.c **** 
 1913              		.loc 1 828 57 is_stmt 0 view .LVU698
 1914 0462 94F82D14 		ldrb	r1, [r4, #1069]	@ zero_extendqisi2
 830:./Libraries/STM32_USB_Host_Library/Core/Src/usbh_core.c **** 
 1915              		.loc 1 830 26 view .LVU699
 1916 0466 0123     		movs	r3, #1
 833:./Libraries/STM32_USB_Host_Library/Core/Src/usbh_core.c ****                       phost->device.speed, USBH_EP_CONTROL,
 1917              		.loc 1 833 9 view .LVU700
 1918 0468 94F81D74 		ldrb	r7, [r4, #1053]	@ zero_extendqisi2
 1919 046c 8022     		movs	r2, #128
 1920 046e 0190     		str	r0, [sp, #4]
 818:./Libraries/STM32_USB_Host_Library/Core/Src/usbh_core.c ****   USBH_StatusTypeDef ReqStatus = USBH_BUSY;
 1921              		.loc 1 818 22 view .LVU701
 1922 0470 1D46     		mov	r5, r3
 828:./Libraries/STM32_USB_Host_Library/Core/Src/usbh_core.c **** 
 1923              		.loc 1 828 34 view .LVU702
 1924 0472 A171     		strb	r1, [r4, #6]
 830:./Libraries/STM32_USB_Host_Library/Core/Src/usbh_core.c **** 
 1925              		.loc 1 830 9 is_stmt 1 view .LVU703
 833:./Libraries/STM32_USB_Host_Library/Core/Src/usbh_core.c ****                       phost->device.speed, USBH_EP_CONTROL,
 1926              		.loc 1 833 9 is_stmt 0 view .LVU704
 1927 0474 2046     		mov	r0, r4
 1928              	.LVL148:
 833:./Libraries/STM32_USB_Host_Library/Core/Src/usbh_core.c ****                       phost->device.speed, USBH_EP_CONTROL,
 1929              		.loc 1 833 9 view .LVU705
 1930 0476 0291     		str	r1, [sp, #8]
 830:./Libraries/STM32_USB_Host_Library/Core/Src/usbh_core.c **** 
 1931              		.loc 1 830 26 view .LVU706
 1932 0478 6370     		strb	r3, [r4, #1]
 833:./Libraries/STM32_USB_Host_Library/Core/Src/usbh_core.c ****                       phost->device.speed, USBH_EP_CONTROL,
 1933              		.loc 1 833 9 is_stmt 1 view .LVU707
 1934 047a 0097     		str	r7, [sp]
 1935 047c 94F81C34 		ldrb	r3, [r4, #1052]	@ zero_extendqisi2
 1936              	.LVL149:
 1937              	.L169:
 918:./Libraries/STM32_USB_Host_Library/Core/Src/usbh_core.c ****                       phost->device.speed, USBH_EP_CONTROL,
 1938              		.loc 1 918 9 is_stmt 0 view .LVU708
 1939 0480 2179     		ldrb	r1, [r4, #4]	@ zero_extendqisi2
 1940 0482 FFF7FEFF 		bl	USBH_OpenPipe
 1941              	.LVL150:
 923:./Libraries/STM32_USB_Host_Library/Core/Src/usbh_core.c ****                       phost->device.speed, USBH_EP_CONTROL,
ARM GAS  /tmp/ccLKNEvV.s 			page 67


 1942              		.loc 1 923 9 is_stmt 1 view .LVU709
 1943 0486 A179     		ldrb	r1, [r4, #6]	@ zero_extendqisi2
 1944 0488 94F81D34 		ldrb	r3, [r4, #1053]	@ zero_extendqisi2
 1945 048c 3246     		mov	r2, r6
 1946 048e 0196     		str	r6, [sp, #4]
 1947 0490 2046     		mov	r0, r4
 1948 0492 0291     		str	r1, [sp, #8]
 1949 0494 0093     		str	r3, [sp]
 1950 0496 94F81C34 		ldrb	r3, [r4, #1052]	@ zero_extendqisi2
 1951 049a 6179     		ldrb	r1, [r4, #5]	@ zero_extendqisi2
 1952 049c FFF7FEFF 		bl	USBH_OpenPipe
 1953              	.LVL151:
 1954 04a0 12E7     		b	.L94
 1955              	.LVL152:
 1956              	.L179:
 910:./Libraries/STM32_USB_Host_Library/Core/Src/usbh_core.c ****         phost->device.address = USBH_DEVICE_ADDRESS;
 1957              		.loc 1 910 9 view .LVU710
 1958 04a2 0220     		movs	r0, #2
 1959              	.LVL153:
 910:./Libraries/STM32_USB_Host_Library/Core/Src/usbh_core.c ****         phost->device.address = USBH_DEVICE_ADDRESS;
 1960              		.loc 1 910 9 is_stmt 0 view .LVU711
 1961 04a4 FFF7FEFF 		bl	USBH_Delay
 1962              	.LVL154:
 911:./Libraries/STM32_USB_Host_Library/Core/Src/usbh_core.c **** 
 1963              		.loc 1 911 9 is_stmt 1 view .LVU712
 918:./Libraries/STM32_USB_Host_Library/Core/Src/usbh_core.c ****                       phost->device.speed, USBH_EP_CONTROL,
 1964              		.loc 1 918 9 is_stmt 0 view .LVU713
 1965 04a8 A779     		ldrb	r7, [r4, #6]	@ zero_extendqisi2
 1966 04aa 94F81D14 		ldrb	r1, [r4, #1053]	@ zero_extendqisi2
 915:./Libraries/STM32_USB_Host_Library/Core/Src/usbh_core.c **** 
 1967              		.loc 1 915 26 view .LVU714
 1968 04ae 0320     		movs	r0, #3
 918:./Libraries/STM32_USB_Host_Library/Core/Src/usbh_core.c ****                       phost->device.speed, USBH_EP_CONTROL,
 1969              		.loc 1 918 9 view .LVU715
 1970 04b0 0123     		movs	r3, #1
 1971 04b2 0196     		str	r6, [sp, #4]
 1972 04b4 8022     		movs	r2, #128
 915:./Libraries/STM32_USB_Host_Library/Core/Src/usbh_core.c **** 
 1973              		.loc 1 915 26 view .LVU716
 1974 04b6 6070     		strb	r0, [r4, #1]
 911:./Libraries/STM32_USB_Host_Library/Core/Src/usbh_core.c **** 
 1975              		.loc 1 911 31 view .LVU717
 1976 04b8 84F81C34 		strb	r3, [r4, #1052]
