ARM GAS  /tmp/ccN0aLJN.s 			page 1


   1              		.cpu cortex-m7
   2              		.eabi_attribute 28, 1
   3              		.eabi_attribute 20, 1
   4              		.eabi_attribute 21, 1
   5              		.eabi_attribute 23, 3
   6              		.eabi_attribute 24, 1
   7              		.eabi_attribute 25, 1
   8              		.eabi_attribute 26, 1
   9              		.eabi_attribute 30, 6
  10              		.eabi_attribute 34, 1
  11              		.eabi_attribute 18, 4
  12              		.file	"usbh_cdc.c"
  13              		.text
  14              	.Ltext0:
  15              		.cfi_sections	.debug_frame
  16              		.global	CDC_Class
  17              		.section	.rodata
  18              		.align	2
  19              	.LC0:
  20 0000 43444300 		.ascii	"CDC\000"
  21              		.section	.data.CDC_Class,"aw"
  22              		.align	2
  25              	CDC_Class:
  26 0000 00000000 		.word	.LC0
  27 0004 02       		.byte	2
  28 0005 000000   		.space	3
  29 0008 00000000 		.word	USBH_CDC_InterfaceInit
  30 000c 00000000 		.word	USBH_CDC_InterfaceDeInit
  31 0010 00000000 		.word	USBH_CDC_ClassRequest
  32 0014 00000000 		.word	USBH_CDC_Process
  33 0018 00000000 		.word	USBH_CDC_SOFProcess
  34 001c 00000000 		.word	0
  35              		.section	.text.USBH_CDC_InterfaceInit,"ax",%progbits
  36              		.align	1
  37              		.arch armv7e-m
  38              		.syntax unified
  39              		.thumb
  40              		.thumb_func
  41              		.fpu fpv5-d16
  43              	USBH_CDC_InterfaceInit:
  44              	.LFB338:
  45              		.file 1 "./Libraries/STM32_USB_Host_Library/Class/CDC/Src/usbh_cdc.c"
   1:./Libraries/STM32_USB_Host_Library/Class/CDC/Src/usbh_cdc.c **** /**
   2:./Libraries/STM32_USB_Host_Library/Class/CDC/Src/usbh_cdc.c ****   ******************************************************************************
   3:./Libraries/STM32_USB_Host_Library/Class/CDC/Src/usbh_cdc.c ****   * @file    usbh_cdc.c
   4:./Libraries/STM32_USB_Host_Library/Class/CDC/Src/usbh_cdc.c ****   * @author  MCD Application Team
   5:./Libraries/STM32_USB_Host_Library/Class/CDC/Src/usbh_cdc.c ****   * @brief   This file is the CDC Layer Handlers for USB Host CDC class.
   6:./Libraries/STM32_USB_Host_Library/Class/CDC/Src/usbh_cdc.c ****   *
   7:./Libraries/STM32_USB_Host_Library/Class/CDC/Src/usbh_cdc.c ****   *  @verbatim
   8:./Libraries/STM32_USB_Host_Library/Class/CDC/Src/usbh_cdc.c ****   *
   9:./Libraries/STM32_USB_Host_Library/Class/CDC/Src/usbh_cdc.c ****   *          ===================================================================
  10:./Libraries/STM32_USB_Host_Library/Class/CDC/Src/usbh_cdc.c ****   *                                CDC Class Driver Description
  11:./Libraries/STM32_USB_Host_Library/Class/CDC/Src/usbh_cdc.c ****   *          ===================================================================
  12:./Libraries/STM32_USB_Host_Library/Class/CDC/Src/usbh_cdc.c ****   *           This driver manages the "Universal Serial Bus Class Definitions for Communications De
  13:./Libraries/STM32_USB_Host_Library/Class/CDC/Src/usbh_cdc.c ****   *           Revision 1.2 November 16, 2007" and the sub-protocol specification of "Universal Seri
  14:./Libraries/STM32_USB_Host_Library/Class/CDC/Src/usbh_cdc.c ****   *           Communications Class Subclass Specification for PSTN Devices Revision 1.2 February 9,
  15:./Libraries/STM32_USB_Host_Library/Class/CDC/Src/usbh_cdc.c ****   *           This driver implements the following aspects of the specification:
ARM GAS  /tmp/ccN0aLJN.s 			page 2


  16:./Libraries/STM32_USB_Host_Library/Class/CDC/Src/usbh_cdc.c ****   *             - Device descriptor management
  17:./Libraries/STM32_USB_Host_Library/Class/CDC/Src/usbh_cdc.c ****   *             - Configuration descriptor management
  18:./Libraries/STM32_USB_Host_Library/Class/CDC/Src/usbh_cdc.c ****   *             - Enumeration as CDC device with 2 data endpoints (IN and OUT) and 1 command endpoi
  19:./Libraries/STM32_USB_Host_Library/Class/CDC/Src/usbh_cdc.c ****   *             - Requests management (as described in section 6.2 in specification)
  20:./Libraries/STM32_USB_Host_Library/Class/CDC/Src/usbh_cdc.c ****   *             - Abstract Control Model compliant
  21:./Libraries/STM32_USB_Host_Library/Class/CDC/Src/usbh_cdc.c ****   *             - Union Functional collection (using 1 IN endpoint for control)
  22:./Libraries/STM32_USB_Host_Library/Class/CDC/Src/usbh_cdc.c ****   *             - Data interface class
  23:./Libraries/STM32_USB_Host_Library/Class/CDC/Src/usbh_cdc.c ****   *
  24:./Libraries/STM32_USB_Host_Library/Class/CDC/Src/usbh_cdc.c ****   *  @endverbatim
  25:./Libraries/STM32_USB_Host_Library/Class/CDC/Src/usbh_cdc.c ****   *
  26:./Libraries/STM32_USB_Host_Library/Class/CDC/Src/usbh_cdc.c ****   ******************************************************************************
  27:./Libraries/STM32_USB_Host_Library/Class/CDC/Src/usbh_cdc.c ****   * @attention
  28:./Libraries/STM32_USB_Host_Library/Class/CDC/Src/usbh_cdc.c ****   *
  29:./Libraries/STM32_USB_Host_Library/Class/CDC/Src/usbh_cdc.c ****   * <h2><center>&copy; Copyright (c) 2015 STMicroelectronics.
  30:./Libraries/STM32_USB_Host_Library/Class/CDC/Src/usbh_cdc.c ****   * All rights reserved.</center></h2>
  31:./Libraries/STM32_USB_Host_Library/Class/CDC/Src/usbh_cdc.c ****   *
  32:./Libraries/STM32_USB_Host_Library/Class/CDC/Src/usbh_cdc.c ****   * This software component is licensed by ST under Ultimate Liberty license
  33:./Libraries/STM32_USB_Host_Library/Class/CDC/Src/usbh_cdc.c ****   * SLA0044, the "License"; You may not use this file except in compliance with
  34:./Libraries/STM32_USB_Host_Library/Class/CDC/Src/usbh_cdc.c ****   * the License. You may obtain a copy of the License at:
  35:./Libraries/STM32_USB_Host_Library/Class/CDC/Src/usbh_cdc.c ****   *                      www.st.com/SLA0044
  36:./Libraries/STM32_USB_Host_Library/Class/CDC/Src/usbh_cdc.c ****   *
  37:./Libraries/STM32_USB_Host_Library/Class/CDC/Src/usbh_cdc.c ****   ******************************************************************************
  38:./Libraries/STM32_USB_Host_Library/Class/CDC/Src/usbh_cdc.c ****   */
  39:./Libraries/STM32_USB_Host_Library/Class/CDC/Src/usbh_cdc.c **** 
  40:./Libraries/STM32_USB_Host_Library/Class/CDC/Src/usbh_cdc.c **** /* BSPDependencies
  41:./Libraries/STM32_USB_Host_Library/Class/CDC/Src/usbh_cdc.c **** - "stm32xxxxx_{eval}{discovery}{nucleo_144}.c"
  42:./Libraries/STM32_USB_Host_Library/Class/CDC/Src/usbh_cdc.c **** - "stm32xxxxx_{eval}{discovery}_io.c"
  43:./Libraries/STM32_USB_Host_Library/Class/CDC/Src/usbh_cdc.c **** - "stm32xxxxx_{eval}{discovery}{adafruit}_sd.c"
  44:./Libraries/STM32_USB_Host_Library/Class/CDC/Src/usbh_cdc.c **** - "stm32xxxxx_{eval}{discovery}{adafruit}_lcd.c"
  45:./Libraries/STM32_USB_Host_Library/Class/CDC/Src/usbh_cdc.c **** - "stm32xxxxx_{eval}{discovery}_sdram.c"
  46:./Libraries/STM32_USB_Host_Library/Class/CDC/Src/usbh_cdc.c **** EndBSPDependencies */
  47:./Libraries/STM32_USB_Host_Library/Class/CDC/Src/usbh_cdc.c **** 
  48:./Libraries/STM32_USB_Host_Library/Class/CDC/Src/usbh_cdc.c **** /* Includes ------------------------------------------------------------------*/
  49:./Libraries/STM32_USB_Host_Library/Class/CDC/Src/usbh_cdc.c **** #include "usbh_cdc.h"
  50:./Libraries/STM32_USB_Host_Library/Class/CDC/Src/usbh_cdc.c **** 
  51:./Libraries/STM32_USB_Host_Library/Class/CDC/Src/usbh_cdc.c **** /** @addtogroup USBH_LIB
  52:./Libraries/STM32_USB_Host_Library/Class/CDC/Src/usbh_cdc.c **** * @{
  53:./Libraries/STM32_USB_Host_Library/Class/CDC/Src/usbh_cdc.c **** */
  54:./Libraries/STM32_USB_Host_Library/Class/CDC/Src/usbh_cdc.c **** 
  55:./Libraries/STM32_USB_Host_Library/Class/CDC/Src/usbh_cdc.c **** /** @addtogroup USBH_CLASS
  56:./Libraries/STM32_USB_Host_Library/Class/CDC/Src/usbh_cdc.c **** * @{
  57:./Libraries/STM32_USB_Host_Library/Class/CDC/Src/usbh_cdc.c **** */
  58:./Libraries/STM32_USB_Host_Library/Class/CDC/Src/usbh_cdc.c **** 
  59:./Libraries/STM32_USB_Host_Library/Class/CDC/Src/usbh_cdc.c **** /** @addtogroup USBH_CDC_CLASS
  60:./Libraries/STM32_USB_Host_Library/Class/CDC/Src/usbh_cdc.c **** * @{
  61:./Libraries/STM32_USB_Host_Library/Class/CDC/Src/usbh_cdc.c **** */
  62:./Libraries/STM32_USB_Host_Library/Class/CDC/Src/usbh_cdc.c **** 
  63:./Libraries/STM32_USB_Host_Library/Class/CDC/Src/usbh_cdc.c **** /** @defgroup USBH_CDC_CORE
  64:./Libraries/STM32_USB_Host_Library/Class/CDC/Src/usbh_cdc.c **** * @brief    This file includes CDC Layer Handlers for USB Host CDC class.
  65:./Libraries/STM32_USB_Host_Library/Class/CDC/Src/usbh_cdc.c **** * @{
  66:./Libraries/STM32_USB_Host_Library/Class/CDC/Src/usbh_cdc.c **** */
  67:./Libraries/STM32_USB_Host_Library/Class/CDC/Src/usbh_cdc.c **** 
  68:./Libraries/STM32_USB_Host_Library/Class/CDC/Src/usbh_cdc.c **** /** @defgroup USBH_CDC_CORE_Private_TypesDefinitions
  69:./Libraries/STM32_USB_Host_Library/Class/CDC/Src/usbh_cdc.c **** * @{
  70:./Libraries/STM32_USB_Host_Library/Class/CDC/Src/usbh_cdc.c **** */
  71:./Libraries/STM32_USB_Host_Library/Class/CDC/Src/usbh_cdc.c **** /**
  72:./Libraries/STM32_USB_Host_Library/Class/CDC/Src/usbh_cdc.c **** * @}
ARM GAS  /tmp/ccN0aLJN.s 			page 3


  73:./Libraries/STM32_USB_Host_Library/Class/CDC/Src/usbh_cdc.c **** */
  74:./Libraries/STM32_USB_Host_Library/Class/CDC/Src/usbh_cdc.c **** 
  75:./Libraries/STM32_USB_Host_Library/Class/CDC/Src/usbh_cdc.c **** 
  76:./Libraries/STM32_USB_Host_Library/Class/CDC/Src/usbh_cdc.c **** /** @defgroup USBH_CDC_CORE_Private_Defines
  77:./Libraries/STM32_USB_Host_Library/Class/CDC/Src/usbh_cdc.c **** * @{
  78:./Libraries/STM32_USB_Host_Library/Class/CDC/Src/usbh_cdc.c **** */
  79:./Libraries/STM32_USB_Host_Library/Class/CDC/Src/usbh_cdc.c **** #define USBH_CDC_BUFFER_SIZE                 1024
  80:./Libraries/STM32_USB_Host_Library/Class/CDC/Src/usbh_cdc.c **** /**
  81:./Libraries/STM32_USB_Host_Library/Class/CDC/Src/usbh_cdc.c **** * @}
  82:./Libraries/STM32_USB_Host_Library/Class/CDC/Src/usbh_cdc.c **** */
  83:./Libraries/STM32_USB_Host_Library/Class/CDC/Src/usbh_cdc.c **** 
  84:./Libraries/STM32_USB_Host_Library/Class/CDC/Src/usbh_cdc.c **** 
  85:./Libraries/STM32_USB_Host_Library/Class/CDC/Src/usbh_cdc.c **** /** @defgroup USBH_CDC_CORE_Private_Macros
  86:./Libraries/STM32_USB_Host_Library/Class/CDC/Src/usbh_cdc.c **** * @{
  87:./Libraries/STM32_USB_Host_Library/Class/CDC/Src/usbh_cdc.c **** */
  88:./Libraries/STM32_USB_Host_Library/Class/CDC/Src/usbh_cdc.c **** /**
  89:./Libraries/STM32_USB_Host_Library/Class/CDC/Src/usbh_cdc.c **** * @}
  90:./Libraries/STM32_USB_Host_Library/Class/CDC/Src/usbh_cdc.c **** */
  91:./Libraries/STM32_USB_Host_Library/Class/CDC/Src/usbh_cdc.c **** 
  92:./Libraries/STM32_USB_Host_Library/Class/CDC/Src/usbh_cdc.c **** 
  93:./Libraries/STM32_USB_Host_Library/Class/CDC/Src/usbh_cdc.c **** /** @defgroup USBH_CDC_CORE_Private_Variables
  94:./Libraries/STM32_USB_Host_Library/Class/CDC/Src/usbh_cdc.c **** * @{
  95:./Libraries/STM32_USB_Host_Library/Class/CDC/Src/usbh_cdc.c **** */
  96:./Libraries/STM32_USB_Host_Library/Class/CDC/Src/usbh_cdc.c **** /**
  97:./Libraries/STM32_USB_Host_Library/Class/CDC/Src/usbh_cdc.c **** * @}
  98:./Libraries/STM32_USB_Host_Library/Class/CDC/Src/usbh_cdc.c **** */
  99:./Libraries/STM32_USB_Host_Library/Class/CDC/Src/usbh_cdc.c **** 
 100:./Libraries/STM32_USB_Host_Library/Class/CDC/Src/usbh_cdc.c **** 
 101:./Libraries/STM32_USB_Host_Library/Class/CDC/Src/usbh_cdc.c **** /** @defgroup USBH_CDC_CORE_Private_FunctionPrototypes
 102:./Libraries/STM32_USB_Host_Library/Class/CDC/Src/usbh_cdc.c **** * @{
 103:./Libraries/STM32_USB_Host_Library/Class/CDC/Src/usbh_cdc.c **** */
 104:./Libraries/STM32_USB_Host_Library/Class/CDC/Src/usbh_cdc.c **** 
 105:./Libraries/STM32_USB_Host_Library/Class/CDC/Src/usbh_cdc.c **** static USBH_StatusTypeDef USBH_CDC_InterfaceInit(USBH_HandleTypeDef *phost);
 106:./Libraries/STM32_USB_Host_Library/Class/CDC/Src/usbh_cdc.c **** 
 107:./Libraries/STM32_USB_Host_Library/Class/CDC/Src/usbh_cdc.c **** static USBH_StatusTypeDef USBH_CDC_InterfaceDeInit(USBH_HandleTypeDef *phost);
 108:./Libraries/STM32_USB_Host_Library/Class/CDC/Src/usbh_cdc.c **** 
 109:./Libraries/STM32_USB_Host_Library/Class/CDC/Src/usbh_cdc.c **** static USBH_StatusTypeDef USBH_CDC_Process(USBH_HandleTypeDef *phost);
 110:./Libraries/STM32_USB_Host_Library/Class/CDC/Src/usbh_cdc.c **** 
 111:./Libraries/STM32_USB_Host_Library/Class/CDC/Src/usbh_cdc.c **** static USBH_StatusTypeDef USBH_CDC_SOFProcess(USBH_HandleTypeDef *phost);
 112:./Libraries/STM32_USB_Host_Library/Class/CDC/Src/usbh_cdc.c **** 
 113:./Libraries/STM32_USB_Host_Library/Class/CDC/Src/usbh_cdc.c **** static USBH_StatusTypeDef USBH_CDC_ClassRequest(USBH_HandleTypeDef *phost);
 114:./Libraries/STM32_USB_Host_Library/Class/CDC/Src/usbh_cdc.c **** 
 115:./Libraries/STM32_USB_Host_Library/Class/CDC/Src/usbh_cdc.c **** static USBH_StatusTypeDef GetLineCoding(USBH_HandleTypeDef *phost,
 116:./Libraries/STM32_USB_Host_Library/Class/CDC/Src/usbh_cdc.c ****                                         CDC_LineCodingTypeDef *linecoding);
 117:./Libraries/STM32_USB_Host_Library/Class/CDC/Src/usbh_cdc.c **** 
 118:./Libraries/STM32_USB_Host_Library/Class/CDC/Src/usbh_cdc.c **** static USBH_StatusTypeDef SetLineCoding(USBH_HandleTypeDef *phost,
 119:./Libraries/STM32_USB_Host_Library/Class/CDC/Src/usbh_cdc.c ****                                         CDC_LineCodingTypeDef *linecoding);
 120:./Libraries/STM32_USB_Host_Library/Class/CDC/Src/usbh_cdc.c **** 
 121:./Libraries/STM32_USB_Host_Library/Class/CDC/Src/usbh_cdc.c **** static void CDC_ProcessTransmission(USBH_HandleTypeDef *phost);
 122:./Libraries/STM32_USB_Host_Library/Class/CDC/Src/usbh_cdc.c **** 
 123:./Libraries/STM32_USB_Host_Library/Class/CDC/Src/usbh_cdc.c **** static void CDC_ProcessReception(USBH_HandleTypeDef *phost);
 124:./Libraries/STM32_USB_Host_Library/Class/CDC/Src/usbh_cdc.c **** 
 125:./Libraries/STM32_USB_Host_Library/Class/CDC/Src/usbh_cdc.c **** USBH_ClassTypeDef  CDC_Class =
 126:./Libraries/STM32_USB_Host_Library/Class/CDC/Src/usbh_cdc.c **** {
 127:./Libraries/STM32_USB_Host_Library/Class/CDC/Src/usbh_cdc.c ****   "CDC",
 128:./Libraries/STM32_USB_Host_Library/Class/CDC/Src/usbh_cdc.c ****   USB_CDC_CLASS,
 129:./Libraries/STM32_USB_Host_Library/Class/CDC/Src/usbh_cdc.c ****   USBH_CDC_InterfaceInit,
ARM GAS  /tmp/ccN0aLJN.s 			page 4


 130:./Libraries/STM32_USB_Host_Library/Class/CDC/Src/usbh_cdc.c ****   USBH_CDC_InterfaceDeInit,
 131:./Libraries/STM32_USB_Host_Library/Class/CDC/Src/usbh_cdc.c ****   USBH_CDC_ClassRequest,
 132:./Libraries/STM32_USB_Host_Library/Class/CDC/Src/usbh_cdc.c ****   USBH_CDC_Process,
 133:./Libraries/STM32_USB_Host_Library/Class/CDC/Src/usbh_cdc.c ****   USBH_CDC_SOFProcess,
 134:./Libraries/STM32_USB_Host_Library/Class/CDC/Src/usbh_cdc.c ****   NULL,
 135:./Libraries/STM32_USB_Host_Library/Class/CDC/Src/usbh_cdc.c **** };
 136:./Libraries/STM32_USB_Host_Library/Class/CDC/Src/usbh_cdc.c **** /**
 137:./Libraries/STM32_USB_Host_Library/Class/CDC/Src/usbh_cdc.c **** * @}
 138:./Libraries/STM32_USB_Host_Library/Class/CDC/Src/usbh_cdc.c **** */
 139:./Libraries/STM32_USB_Host_Library/Class/CDC/Src/usbh_cdc.c **** 
 140:./Libraries/STM32_USB_Host_Library/Class/CDC/Src/usbh_cdc.c **** 
 141:./Libraries/STM32_USB_Host_Library/Class/CDC/Src/usbh_cdc.c **** /** @defgroup USBH_CDC_CORE_Private_Functions
 142:./Libraries/STM32_USB_Host_Library/Class/CDC/Src/usbh_cdc.c **** * @{
 143:./Libraries/STM32_USB_Host_Library/Class/CDC/Src/usbh_cdc.c **** */
 144:./Libraries/STM32_USB_Host_Library/Class/CDC/Src/usbh_cdc.c **** 
 145:./Libraries/STM32_USB_Host_Library/Class/CDC/Src/usbh_cdc.c **** /**
 146:./Libraries/STM32_USB_Host_Library/Class/CDC/Src/usbh_cdc.c ****   * @brief  USBH_CDC_InterfaceInit
 147:./Libraries/STM32_USB_Host_Library/Class/CDC/Src/usbh_cdc.c ****   *         The function init the CDC class.
 148:./Libraries/STM32_USB_Host_Library/Class/CDC/Src/usbh_cdc.c ****   * @param  phost: Host handle
 149:./Libraries/STM32_USB_Host_Library/Class/CDC/Src/usbh_cdc.c ****   * @retval USBH Status
 150:./Libraries/STM32_USB_Host_Library/Class/CDC/Src/usbh_cdc.c ****   */
 151:./Libraries/STM32_USB_Host_Library/Class/CDC/Src/usbh_cdc.c **** static USBH_StatusTypeDef USBH_CDC_InterfaceInit(USBH_HandleTypeDef *phost)
 152:./Libraries/STM32_USB_Host_Library/Class/CDC/Src/usbh_cdc.c **** {
  46              		.loc 1 152 1
  47              		.cfi_startproc
  48              		@ args = 0, pretend = 0, frame = 16
  49              		@ frame_needed = 1, uses_anonymous_args = 0
  50 0000 90B5     		push	{r4, r7, lr}
  51              	.LCFI0:
  52              		.cfi_def_cfa_offset 12
  53              		.cfi_offset 4, -12
  54              		.cfi_offset 7, -8
  55              		.cfi_offset 14, -4
  56 0002 89B0     		sub	sp, sp, #36
  57              	.LCFI1:
  58              		.cfi_def_cfa_offset 48
  59 0004 04AF     		add	r7, sp, #16
  60              	.LCFI2:
  61              		.cfi_def_cfa 7, 32
  62 0006 7860     		str	r0, [r7, #4]
 153:./Libraries/STM32_USB_Host_Library/Class/CDC/Src/usbh_cdc.c **** 
 154:./Libraries/STM32_USB_Host_Library/Class/CDC/Src/usbh_cdc.c ****   USBH_StatusTypeDef status;
 155:./Libraries/STM32_USB_Host_Library/Class/CDC/Src/usbh_cdc.c ****   uint8_t interface;
 156:./Libraries/STM32_USB_Host_Library/Class/CDC/Src/usbh_cdc.c ****   CDC_HandleTypeDef *CDC_Handle;
 157:./Libraries/STM32_USB_Host_Library/Class/CDC/Src/usbh_cdc.c **** 
 158:./Libraries/STM32_USB_Host_Library/Class/CDC/Src/usbh_cdc.c ****   interface = USBH_FindInterface(phost, COMMUNICATION_INTERFACE_CLASS_CODE,
  63              		.loc 1 158 15
  64 0008 0123     		movs	r3, #1
  65 000a 0222     		movs	r2, #2
  66 000c 0221     		movs	r1, #2
  67 000e 7868     		ldr	r0, [r7, #4]
  68 0010 FFF7FEFF 		bl	USBH_FindInterface
  69 0014 0346     		mov	r3, r0
  70 0016 FB73     		strb	r3, [r7, #15]
 159:./Libraries/STM32_USB_Host_Library/Class/CDC/Src/usbh_cdc.c ****                                  ABSTRACT_CONTROL_MODEL, COMMON_AT_COMMAND);
 160:./Libraries/STM32_USB_Host_Library/Class/CDC/Src/usbh_cdc.c **** 
 161:./Libraries/STM32_USB_Host_Library/Class/CDC/Src/usbh_cdc.c ****   if ((interface == 0xFFU) || (interface >= USBH_MAX_NUM_INTERFACES)) /* No Valid Interface */
ARM GAS  /tmp/ccN0aLJN.s 			page 5


  71              		.loc 1 161 6
  72 0018 FB7B     		ldrb	r3, [r7, #15]	@ zero_extendqisi2
  73 001a FF2B     		cmp	r3, #255
  74 001c 02D0     		beq	.L2
  75              		.loc 1 161 28 discriminator 1
  76 001e FB7B     		ldrb	r3, [r7, #15]	@ zero_extendqisi2
  77 0020 012B     		cmp	r3, #1
  78 0022 01D9     		bls	.L3
  79              	.L2:
 162:./Libraries/STM32_USB_Host_Library/Class/CDC/Src/usbh_cdc.c ****   {
 163:./Libraries/STM32_USB_Host_Library/Class/CDC/Src/usbh_cdc.c ****     USBH_DbgLog("Cannot Find the interface for Communication Interface Class.", phost->pActiveClass
 164:./Libraries/STM32_USB_Host_Library/Class/CDC/Src/usbh_cdc.c ****     return USBH_FAIL;
  80              		.loc 1 164 12
  81 0024 0223     		movs	r3, #2
  82 0026 3DE1     		b	.L4
  83              	.L3:
 165:./Libraries/STM32_USB_Host_Library/Class/CDC/Src/usbh_cdc.c ****   }
 166:./Libraries/STM32_USB_Host_Library/Class/CDC/Src/usbh_cdc.c **** 
 167:./Libraries/STM32_USB_Host_Library/Class/CDC/Src/usbh_cdc.c ****   status = USBH_SelectInterface(phost, interface);
  84              		.loc 1 167 12
  85 0028 FB7B     		ldrb	r3, [r7, #15]	@ zero_extendqisi2
  86 002a 1946     		mov	r1, r3
  87 002c 7868     		ldr	r0, [r7, #4]
  88 002e FFF7FEFF 		bl	USBH_SelectInterface
  89 0032 0346     		mov	r3, r0
  90 0034 BB73     		strb	r3, [r7, #14]
 168:./Libraries/STM32_USB_Host_Library/Class/CDC/Src/usbh_cdc.c **** 
 169:./Libraries/STM32_USB_Host_Library/Class/CDC/Src/usbh_cdc.c ****   if (status != USBH_OK)
  91              		.loc 1 169 6
  92 0036 BB7B     		ldrb	r3, [r7, #14]	@ zero_extendqisi2
  93 0038 002B     		cmp	r3, #0
  94 003a 01D0     		beq	.L5
 170:./Libraries/STM32_USB_Host_Library/Class/CDC/Src/usbh_cdc.c ****   {
 171:./Libraries/STM32_USB_Host_Library/Class/CDC/Src/usbh_cdc.c ****     return USBH_FAIL;
  95              		.loc 1 171 12
  96 003c 0223     		movs	r3, #2
  97 003e 31E1     		b	.L4
  98              	.L5:
 172:./Libraries/STM32_USB_Host_Library/Class/CDC/Src/usbh_cdc.c ****   }
 173:./Libraries/STM32_USB_Host_Library/Class/CDC/Src/usbh_cdc.c **** 
 174:./Libraries/STM32_USB_Host_Library/Class/CDC/Src/usbh_cdc.c ****   phost->pActiveClass->pData = (CDC_HandleTypeDef *)USBH_malloc(sizeof(CDC_HandleTypeDef));
  99              		.loc 1 174 8
 100 0040 7B68     		ldr	r3, [r7, #4]
 101 0042 D3F87C44 		ldr	r4, [r3, #1148]
 102              		.loc 1 174 53
 103 0046 5020     		movs	r0, #80
 104 0048 FFF7FEFF 		bl	pvPortMalloc
 105 004c 0346     		mov	r3, r0
 106              		.loc 1 174 30
 107 004e E361     		str	r3, [r4, #28]
 175:./Libraries/STM32_USB_Host_Library/Class/CDC/Src/usbh_cdc.c ****   CDC_Handle = (CDC_HandleTypeDef *) phost->pActiveClass->pData;
 108              		.loc 1 175 43
 109 0050 7B68     		ldr	r3, [r7, #4]
 110 0052 D3F87C34 		ldr	r3, [r3, #1148]
 111              		.loc 1 175 14
 112 0056 DB69     		ldr	r3, [r3, #28]
 113 0058 BB60     		str	r3, [r7, #8]
ARM GAS  /tmp/ccN0aLJN.s 			page 6


 176:./Libraries/STM32_USB_Host_Library/Class/CDC/Src/usbh_cdc.c **** 
 177:./Libraries/STM32_USB_Host_Library/Class/CDC/Src/usbh_cdc.c ****   if (CDC_Handle == NULL)
 114              		.loc 1 177 6
 115 005a BB68     		ldr	r3, [r7, #8]
 116 005c 002B     		cmp	r3, #0
 117 005e 01D1     		bne	.L6
 178:./Libraries/STM32_USB_Host_Library/Class/CDC/Src/usbh_cdc.c ****   {
 179:./Libraries/STM32_USB_Host_Library/Class/CDC/Src/usbh_cdc.c ****     USBH_DbgLog("Cannot allocate memory for CDC Handle");
 180:./Libraries/STM32_USB_Host_Library/Class/CDC/Src/usbh_cdc.c ****     return USBH_FAIL;
 118              		.loc 1 180 12
 119 0060 0223     		movs	r3, #2
 120 0062 1FE1     		b	.L4
 121              	.L6:
 181:./Libraries/STM32_USB_Host_Library/Class/CDC/Src/usbh_cdc.c ****   }
 182:./Libraries/STM32_USB_Host_Library/Class/CDC/Src/usbh_cdc.c **** 
 183:./Libraries/STM32_USB_Host_Library/Class/CDC/Src/usbh_cdc.c ****   /* Initialize cdc handler */
 184:./Libraries/STM32_USB_Host_Library/Class/CDC/Src/usbh_cdc.c ****   USBH_memset(CDC_Handle, 0, sizeof(CDC_HandleTypeDef));
 122              		.loc 1 184 3
 123 0064 5022     		movs	r2, #80
 124 0066 0021     		movs	r1, #0
 125 0068 B868     		ldr	r0, [r7, #8]
 126 006a FFF7FEFF 		bl	memset
 185:./Libraries/STM32_USB_Host_Library/Class/CDC/Src/usbh_cdc.c **** 
 186:./Libraries/STM32_USB_Host_Library/Class/CDC/Src/usbh_cdc.c ****   /*Collect the notification endpoint address and length*/
 187:./Libraries/STM32_USB_Host_Library/Class/CDC/Src/usbh_cdc.c ****   if (phost->device.CfgDesc.Itf_Desc[interface].Ep_Desc[0].bEndpointAddress & 0x80U)
 127              		.loc 1 187 59
 128 006e FB7B     		ldrb	r3, [r7, #15]	@ zero_extendqisi2
 129 0070 7A68     		ldr	r2, [r7, #4]
 130 0072 1A21     		movs	r1, #26
 131 0074 01FB03F3 		mul	r3, r1, r3
 132 0078 1344     		add	r3, r3, r2
 133 007a 03F24E43 		addw	r3, r3, #1102
 134 007e 1B78     		ldrb	r3, [r3]	@ zero_extendqisi2
 135              		.loc 1 187 7
 136 0080 5BB2     		sxtb	r3, r3
 137              		.loc 1 187 6
 138 0082 002B     		cmp	r3, #0
 139 0084 15DA     		bge	.L7
 188:./Libraries/STM32_USB_Host_Library/Class/CDC/Src/usbh_cdc.c ****   {
 189:./Libraries/STM32_USB_Host_Library/Class/CDC/Src/usbh_cdc.c ****     CDC_Handle->CommItf.NotifEp = phost->device.CfgDesc.Itf_Desc[interface].Ep_Desc[0].bEndpointAdd
 140              		.loc 1 189 87
 141 0086 FB7B     		ldrb	r3, [r7, #15]	@ zero_extendqisi2
 142 0088 7A68     		ldr	r2, [r7, #4]
 143 008a 1A21     		movs	r1, #26
 144 008c 01FB03F3 		mul	r3, r1, r3
 145 0090 1344     		add	r3, r3, r2
 146 0092 03F24E43 		addw	r3, r3, #1102
 147 0096 1A78     		ldrb	r2, [r3]	@ zero_extendqisi2
 148              		.loc 1 189 33
 149 0098 BB68     		ldr	r3, [r7, #8]
 150 009a 5A70     		strb	r2, [r3, #1]
 190:./Libraries/STM32_USB_Host_Library/Class/CDC/Src/usbh_cdc.c ****     CDC_Handle->CommItf.NotifEpSize  = phost->device.CfgDesc.Itf_Desc[interface].Ep_Desc[0].wMaxPac
 151              		.loc 1 190 92
 152 009c FB7B     		ldrb	r3, [r7, #15]	@ zero_extendqisi2
 153 009e 7A68     		ldr	r2, [r7, #4]
 154 00a0 1A21     		movs	r1, #26
 155 00a2 01FB03F3 		mul	r3, r1, r3
ARM GAS  /tmp/ccN0aLJN.s 			page 7


 156 00a6 1344     		add	r3, r3, r2
 157 00a8 03F58A63 		add	r3, r3, #1104
 158 00ac 1A88     		ldrh	r2, [r3]
 159              		.loc 1 190 38
 160 00ae BB68     		ldr	r3, [r7, #8]
 161 00b0 5A81     		strh	r2, [r3, #10]	@ movhi
 162              	.L7:
 191:./Libraries/STM32_USB_Host_Library/Class/CDC/Src/usbh_cdc.c ****   }
 192:./Libraries/STM32_USB_Host_Library/Class/CDC/Src/usbh_cdc.c **** 
 193:./Libraries/STM32_USB_Host_Library/Class/CDC/Src/usbh_cdc.c ****   /*Allocate the length for host channel number in*/
 194:./Libraries/STM32_USB_Host_Library/Class/CDC/Src/usbh_cdc.c ****   CDC_Handle->CommItf.NotifPipe = USBH_AllocPipe(phost, CDC_Handle->CommItf.NotifEp);
 163              		.loc 1 194 35
 164 00b2 BB68     		ldr	r3, [r7, #8]
 165 00b4 5B78     		ldrb	r3, [r3, #1]	@ zero_extendqisi2
 166 00b6 1946     		mov	r1, r3
 167 00b8 7868     		ldr	r0, [r7, #4]
 168 00ba FFF7FEFF 		bl	USBH_AllocPipe
 169 00be 0346     		mov	r3, r0
 170 00c0 1A46     		mov	r2, r3
 171              		.loc 1 194 33
 172 00c2 BB68     		ldr	r3, [r7, #8]
 173 00c4 1A70     		strb	r2, [r3]
 195:./Libraries/STM32_USB_Host_Library/Class/CDC/Src/usbh_cdc.c **** 
 196:./Libraries/STM32_USB_Host_Library/Class/CDC/Src/usbh_cdc.c ****   /* Open pipe for Notification endpoint */
 197:./Libraries/STM32_USB_Host_Library/Class/CDC/Src/usbh_cdc.c ****   USBH_OpenPipe(phost, CDC_Handle->CommItf.NotifPipe, CDC_Handle->CommItf.NotifEp,
 174              		.loc 1 197 3
 175 00c6 BB68     		ldr	r3, [r7, #8]
 176 00c8 1978     		ldrb	r1, [r3]	@ zero_extendqisi2
 177 00ca BB68     		ldr	r3, [r7, #8]
 178 00cc 5878     		ldrb	r0, [r3, #1]	@ zero_extendqisi2
 179 00ce 7B68     		ldr	r3, [r7, #4]
 180 00d0 93F81C44 		ldrb	r4, [r3, #1052]	@ zero_extendqisi2
 181 00d4 7B68     		ldr	r3, [r7, #4]
 182 00d6 93F81D34 		ldrb	r3, [r3, #1053]	@ zero_extendqisi2
 183 00da BA68     		ldr	r2, [r7, #8]
 184 00dc 5289     		ldrh	r2, [r2, #10]
 185 00de 0292     		str	r2, [sp, #8]
 186 00e0 0322     		movs	r2, #3
 187 00e2 0192     		str	r2, [sp, #4]
 188 00e4 0093     		str	r3, [sp]
 189 00e6 2346     		mov	r3, r4
 190 00e8 0246     		mov	r2, r0
 191 00ea 7868     		ldr	r0, [r7, #4]
 192 00ec FFF7FEFF 		bl	USBH_OpenPipe
 198:./Libraries/STM32_USB_Host_Library/Class/CDC/Src/usbh_cdc.c ****                 phost->device.address, phost->device.speed, USB_EP_TYPE_INTR,
 199:./Libraries/STM32_USB_Host_Library/Class/CDC/Src/usbh_cdc.c ****                 CDC_Handle->CommItf.NotifEpSize);
 200:./Libraries/STM32_USB_Host_Library/Class/CDC/Src/usbh_cdc.c **** 
 201:./Libraries/STM32_USB_Host_Library/Class/CDC/Src/usbh_cdc.c ****   USBH_LL_SetToggle(phost, CDC_Handle->CommItf.NotifPipe, 0U);
 193              		.loc 1 201 3
 194 00f0 BB68     		ldr	r3, [r7, #8]
 195 00f2 1B78     		ldrb	r3, [r3]	@ zero_extendqisi2
 196 00f4 0022     		movs	r2, #0
 197 00f6 1946     		mov	r1, r3
 198 00f8 7868     		ldr	r0, [r7, #4]
 199 00fa FFF7FEFF 		bl	USBH_LL_SetToggle
 202:./Libraries/STM32_USB_Host_Library/Class/CDC/Src/usbh_cdc.c **** 
 203:./Libraries/STM32_USB_Host_Library/Class/CDC/Src/usbh_cdc.c ****   interface = USBH_FindInterface(phost, DATA_INTERFACE_CLASS_CODE,
ARM GAS  /tmp/ccN0aLJN.s 			page 8


 200              		.loc 1 203 15
 201 00fe 0023     		movs	r3, #0
 202 0100 0022     		movs	r2, #0
 203 0102 0A21     		movs	r1, #10
 204 0104 7868     		ldr	r0, [r7, #4]
 205 0106 FFF7FEFF 		bl	USBH_FindInterface
 206 010a 0346     		mov	r3, r0
 207 010c FB73     		strb	r3, [r7, #15]
 204:./Libraries/STM32_USB_Host_Library/Class/CDC/Src/usbh_cdc.c ****                                  RESERVED, NO_CLASS_SPECIFIC_PROTOCOL_CODE);
 205:./Libraries/STM32_USB_Host_Library/Class/CDC/Src/usbh_cdc.c **** 
 206:./Libraries/STM32_USB_Host_Library/Class/CDC/Src/usbh_cdc.c ****   if ((interface == 0xFFU) || (interface >= USBH_MAX_NUM_INTERFACES)) /* No Valid Interface */
 208              		.loc 1 206 6
 209 010e FB7B     		ldrb	r3, [r7, #15]	@ zero_extendqisi2
 210 0110 FF2B     		cmp	r3, #255
 211 0112 02D0     		beq	.L8
 212              		.loc 1 206 28 discriminator 1
 213 0114 FB7B     		ldrb	r3, [r7, #15]	@ zero_extendqisi2
 214 0116 012B     		cmp	r3, #1
 215 0118 01D9     		bls	.L9
 216              	.L8:
 207:./Libraries/STM32_USB_Host_Library/Class/CDC/Src/usbh_cdc.c ****   {
 208:./Libraries/STM32_USB_Host_Library/Class/CDC/Src/usbh_cdc.c ****     USBH_DbgLog("Cannot Find the interface for Data Interface Class.", phost->pActiveClass->Name);
 209:./Libraries/STM32_USB_Host_Library/Class/CDC/Src/usbh_cdc.c ****     return USBH_FAIL;
 217              		.loc 1 209 12
 218 011a 0223     		movs	r3, #2
 219 011c C2E0     		b	.L4
 220              	.L9:
 210:./Libraries/STM32_USB_Host_Library/Class/CDC/Src/usbh_cdc.c ****   }
 211:./Libraries/STM32_USB_Host_Library/Class/CDC/Src/usbh_cdc.c **** 
 212:./Libraries/STM32_USB_Host_Library/Class/CDC/Src/usbh_cdc.c ****   /*Collect the class specific endpoint address and length*/
 213:./Libraries/STM32_USB_Host_Library/Class/CDC/Src/usbh_cdc.c ****   if (phost->device.CfgDesc.Itf_Desc[interface].Ep_Desc[0].bEndpointAddress & 0x80U)
 221              		.loc 1 213 59
 222 011e FB7B     		ldrb	r3, [r7, #15]	@ zero_extendqisi2
 223 0120 7A68     		ldr	r2, [r7, #4]
 224 0122 1A21     		movs	r1, #26
 225 0124 01FB03F3 		mul	r3, r1, r3
 226 0128 1344     		add	r3, r3, r2
 227 012a 03F24E43 		addw	r3, r3, #1102
 228 012e 1B78     		ldrb	r3, [r3]	@ zero_extendqisi2
 229              		.loc 1 213 7
 230 0130 5BB2     		sxtb	r3, r3
 231              		.loc 1 213 6
 232 0132 002B     		cmp	r3, #0
 233 0134 16DA     		bge	.L10
 214:./Libraries/STM32_USB_Host_Library/Class/CDC/Src/usbh_cdc.c ****   {
 215:./Libraries/STM32_USB_Host_Library/Class/CDC/Src/usbh_cdc.c ****     CDC_Handle->DataItf.InEp = phost->device.CfgDesc.Itf_Desc[interface].Ep_Desc[0].bEndpointAddres
 234              		.loc 1 215 84
 235 0136 FB7B     		ldrb	r3, [r7, #15]	@ zero_extendqisi2
 236 0138 7A68     		ldr	r2, [r7, #4]
 237 013a 1A21     		movs	r1, #26
 238 013c 01FB03F3 		mul	r3, r1, r3
 239 0140 1344     		add	r3, r3, r2
 240 0142 03F24E43 		addw	r3, r3, #1102
 241 0146 1A78     		ldrb	r2, [r3]	@ zero_extendqisi2
 242              		.loc 1 215 30
 243 0148 BB68     		ldr	r3, [r7, #8]
 244 014a DA73     		strb	r2, [r3, #15]
ARM GAS  /tmp/ccN0aLJN.s 			page 9


 216:./Libraries/STM32_USB_Host_Library/Class/CDC/Src/usbh_cdc.c ****     CDC_Handle->DataItf.InEpSize  = phost->device.CfgDesc.Itf_Desc[interface].Ep_Desc[0].wMaxPacket
 245              		.loc 1 216 89
 246 014c FB7B     		ldrb	r3, [r7, #15]	@ zero_extendqisi2
 247 014e 7A68     		ldr	r2, [r7, #4]
 248 0150 1A21     		movs	r1, #26
 249 0152 01FB03F3 		mul	r3, r1, r3
 250 0156 1344     		add	r3, r3, r2
 251 0158 03F58A63 		add	r3, r3, #1104
 252 015c 1A88     		ldrh	r2, [r3]
 253              		.loc 1 216 35
 254 015e BB68     		ldr	r3, [r7, #8]
 255 0160 5A83     		strh	r2, [r3, #26]	@ movhi
 256 0162 15E0     		b	.L11
 257              	.L10:
 217:./Libraries/STM32_USB_Host_Library/Class/CDC/Src/usbh_cdc.c ****   }
 218:./Libraries/STM32_USB_Host_Library/Class/CDC/Src/usbh_cdc.c ****   else
 219:./Libraries/STM32_USB_Host_Library/Class/CDC/Src/usbh_cdc.c ****   {
 220:./Libraries/STM32_USB_Host_Library/Class/CDC/Src/usbh_cdc.c ****     CDC_Handle->DataItf.OutEp = phost->device.CfgDesc.Itf_Desc[interface].Ep_Desc[0].bEndpointAddre
 258              		.loc 1 220 85
 259 0164 FB7B     		ldrb	r3, [r7, #15]	@ zero_extendqisi2
 260 0166 7A68     		ldr	r2, [r7, #4]
 261 0168 1A21     		movs	r1, #26
 262 016a 01FB03F3 		mul	r3, r1, r3
 263 016e 1344     		add	r3, r3, r2
 264 0170 03F24E43 		addw	r3, r3, #1102
 265 0174 1A78     		ldrb	r2, [r3]	@ zero_extendqisi2
 266              		.loc 1 220 31
 267 0176 BB68     		ldr	r3, [r7, #8]
 268 0178 9A73     		strb	r2, [r3, #14]
 221:./Libraries/STM32_USB_Host_Library/Class/CDC/Src/usbh_cdc.c ****     CDC_Handle->DataItf.OutEpSize  = phost->device.CfgDesc.Itf_Desc[interface].Ep_Desc[0].wMaxPacke
 269              		.loc 1 221 90
 270 017a FB7B     		ldrb	r3, [r7, #15]	@ zero_extendqisi2
 271 017c 7A68     		ldr	r2, [r7, #4]
 272 017e 1A21     		movs	r1, #26
 273 0180 01FB03F3 		mul	r3, r1, r3
 274 0184 1344     		add	r3, r3, r2
 275 0186 03F58A63 		add	r3, r3, #1104
 276 018a 1A88     		ldrh	r2, [r3]
 277              		.loc 1 221 36
 278 018c BB68     		ldr	r3, [r7, #8]
 279 018e 1A83     		strh	r2, [r3, #24]	@ movhi
 280              	.L11:
 222:./Libraries/STM32_USB_Host_Library/Class/CDC/Src/usbh_cdc.c ****   }
 223:./Libraries/STM32_USB_Host_Library/Class/CDC/Src/usbh_cdc.c **** 
 224:./Libraries/STM32_USB_Host_Library/Class/CDC/Src/usbh_cdc.c ****   if (phost->device.CfgDesc.Itf_Desc[interface].Ep_Desc[1].bEndpointAddress & 0x80U)
 281              		.loc 1 224 59
 282 0190 FB7B     		ldrb	r3, [r7, #15]	@ zero_extendqisi2
 283 0192 7A68     		ldr	r2, [r7, #4]
 284 0194 1A21     		movs	r1, #26
 285 0196 01FB03F3 		mul	r3, r1, r3
 286 019a 1344     		add	r3, r3, r2
 287 019c 03F25643 		addw	r3, r3, #1110
 288 01a0 1B78     		ldrb	r3, [r3]	@ zero_extendqisi2
 289              		.loc 1 224 7
 290 01a2 5BB2     		sxtb	r3, r3
 291              		.loc 1 224 6
 292 01a4 002B     		cmp	r3, #0
ARM GAS  /tmp/ccN0aLJN.s 			page 10


 293 01a6 16DA     		bge	.L12
 225:./Libraries/STM32_USB_Host_Library/Class/CDC/Src/usbh_cdc.c ****   {
 226:./Libraries/STM32_USB_Host_Library/Class/CDC/Src/usbh_cdc.c ****     CDC_Handle->DataItf.InEp = phost->device.CfgDesc.Itf_Desc[interface].Ep_Desc[1].bEndpointAddres
 294              		.loc 1 226 84
 295 01a8 FB7B     		ldrb	r3, [r7, #15]	@ zero_extendqisi2
 296 01aa 7A68     		ldr	r2, [r7, #4]
 297 01ac 1A21     		movs	r1, #26
 298 01ae 01FB03F3 		mul	r3, r1, r3
 299 01b2 1344     		add	r3, r3, r2
 300 01b4 03F25643 		addw	r3, r3, #1110
 301 01b8 1A78     		ldrb	r2, [r3]	@ zero_extendqisi2
 302              		.loc 1 226 30
 303 01ba BB68     		ldr	r3, [r7, #8]
 304 01bc DA73     		strb	r2, [r3, #15]
 227:./Libraries/STM32_USB_Host_Library/Class/CDC/Src/usbh_cdc.c ****     CDC_Handle->DataItf.InEpSize  = phost->device.CfgDesc.Itf_Desc[interface].Ep_Desc[1].wMaxPacket
 305              		.loc 1 227 89
 306 01be FB7B     		ldrb	r3, [r7, #15]	@ zero_extendqisi2
 307 01c0 7A68     		ldr	r2, [r7, #4]
 308 01c2 1A21     		movs	r1, #26
 309 01c4 01FB03F3 		mul	r3, r1, r3
 310 01c8 1344     		add	r3, r3, r2
 311 01ca 03F58B63 		add	r3, r3, #1112
 312 01ce 1A88     		ldrh	r2, [r3]
 313              		.loc 1 227 35
 314 01d0 BB68     		ldr	r3, [r7, #8]
 315 01d2 5A83     		strh	r2, [r3, #26]	@ movhi
 316 01d4 15E0     		b	.L13
 317              	.L12:
 228:./Libraries/STM32_USB_Host_Library/Class/CDC/Src/usbh_cdc.c ****   }
 229:./Libraries/STM32_USB_Host_Library/Class/CDC/Src/usbh_cdc.c ****   else
 230:./Libraries/STM32_USB_Host_Library/Class/CDC/Src/usbh_cdc.c ****   {
 231:./Libraries/STM32_USB_Host_Library/Class/CDC/Src/usbh_cdc.c ****     CDC_Handle->DataItf.OutEp = phost->device.CfgDesc.Itf_Desc[interface].Ep_Desc[1].bEndpointAddre
 318              		.loc 1 231 85
 319 01d6 FB7B     		ldrb	r3, [r7, #15]	@ zero_extendqisi2
 320 01d8 7A68     		ldr	r2, [r7, #4]
 321 01da 1A21     		movs	r1, #26
 322 01dc 01FB03F3 		mul	r3, r1, r3
 323 01e0 1344     		add	r3, r3, r2
 324 01e2 03F25643 		addw	r3, r3, #1110
 325 01e6 1A78     		ldrb	r2, [r3]	@ zero_extendqisi2
 326              		.loc 1 231 31
 327 01e8 BB68     		ldr	r3, [r7, #8]
 328 01ea 9A73     		strb	r2, [r3, #14]
 232:./Libraries/STM32_USB_Host_Library/Class/CDC/Src/usbh_cdc.c ****     CDC_Handle->DataItf.OutEpSize = phost->device.CfgDesc.Itf_Desc[interface].Ep_Desc[1].wMaxPacket
 329              		.loc 1 232 89
 330 01ec FB7B     		ldrb	r3, [r7, #15]	@ zero_extendqisi2
 331 01ee 7A68     		ldr	r2, [r7, #4]
 332 01f0 1A21     		movs	r1, #26
 333 01f2 01FB03F3 		mul	r3, r1, r3
 334 01f6 1344     		add	r3, r3, r2
 335 01f8 03F58B63 		add	r3, r3, #1112
 336 01fc 1A88     		ldrh	r2, [r3]
 337              		.loc 1 232 35
 338 01fe BB68     		ldr	r3, [r7, #8]
 339 0200 1A83     		strh	r2, [r3, #24]	@ movhi
 340              	.L13:
 233:./Libraries/STM32_USB_Host_Library/Class/CDC/Src/usbh_cdc.c ****   }
ARM GAS  /tmp/ccN0aLJN.s 			page 11


 234:./Libraries/STM32_USB_Host_Library/Class/CDC/Src/usbh_cdc.c **** 
 235:./Libraries/STM32_USB_Host_Library/Class/CDC/Src/usbh_cdc.c ****   /*Allocate the length for host channel number out*/
 236:./Libraries/STM32_USB_Host_Library/Class/CDC/Src/usbh_cdc.c ****   CDC_Handle->DataItf.OutPipe = USBH_AllocPipe(phost, CDC_Handle->DataItf.OutEp);
 341              		.loc 1 236 33
 342 0202 BB68     		ldr	r3, [r7, #8]
 343 0204 9B7B     		ldrb	r3, [r3, #14]	@ zero_extendqisi2
 344 0206 1946     		mov	r1, r3
 345 0208 7868     		ldr	r0, [r7, #4]
 346 020a FFF7FEFF 		bl	USBH_AllocPipe
 347 020e 0346     		mov	r3, r0
 348 0210 1A46     		mov	r2, r3
 349              		.loc 1 236 31
 350 0212 BB68     		ldr	r3, [r7, #8]
 351 0214 5A73     		strb	r2, [r3, #13]
 237:./Libraries/STM32_USB_Host_Library/Class/CDC/Src/usbh_cdc.c **** 
 238:./Libraries/STM32_USB_Host_Library/Class/CDC/Src/usbh_cdc.c ****   /*Allocate the length for host channel number in*/
 239:./Libraries/STM32_USB_Host_Library/Class/CDC/Src/usbh_cdc.c ****   CDC_Handle->DataItf.InPipe = USBH_AllocPipe(phost, CDC_Handle->DataItf.InEp);
 352              		.loc 1 239 32
 353 0216 BB68     		ldr	r3, [r7, #8]
 354 0218 DB7B     		ldrb	r3, [r3, #15]	@ zero_extendqisi2
 355 021a 1946     		mov	r1, r3
 356 021c 7868     		ldr	r0, [r7, #4]
 357 021e FFF7FEFF 		bl	USBH_AllocPipe
 358 0222 0346     		mov	r3, r0
 359 0224 1A46     		mov	r2, r3
 360              		.loc 1 239 30
 361 0226 BB68     		ldr	r3, [r7, #8]
 362 0228 1A73     		strb	r2, [r3, #12]
 240:./Libraries/STM32_USB_Host_Library/Class/CDC/Src/usbh_cdc.c **** 
 241:./Libraries/STM32_USB_Host_Library/Class/CDC/Src/usbh_cdc.c ****   /* Open channel for OUT endpoint */
 242:./Libraries/STM32_USB_Host_Library/Class/CDC/Src/usbh_cdc.c ****   USBH_OpenPipe(phost, CDC_Handle->DataItf.OutPipe, CDC_Handle->DataItf.OutEp,
 363              		.loc 1 242 3
 364 022a BB68     		ldr	r3, [r7, #8]
 365 022c 597B     		ldrb	r1, [r3, #13]	@ zero_extendqisi2
 366 022e BB68     		ldr	r3, [r7, #8]
 367 0230 987B     		ldrb	r0, [r3, #14]	@ zero_extendqisi2
 368 0232 7B68     		ldr	r3, [r7, #4]
 369 0234 93F81C44 		ldrb	r4, [r3, #1052]	@ zero_extendqisi2
 370 0238 7B68     		ldr	r3, [r7, #4]
 371 023a 93F81D34 		ldrb	r3, [r3, #1053]	@ zero_extendqisi2
 372 023e BA68     		ldr	r2, [r7, #8]
 373 0240 128B     		ldrh	r2, [r2, #24]
 374 0242 0292     		str	r2, [sp, #8]
 375 0244 0222     		movs	r2, #2
 376 0246 0192     		str	r2, [sp, #4]
 377 0248 0093     		str	r3, [sp]
 378 024a 2346     		mov	r3, r4
 379 024c 0246     		mov	r2, r0
 380 024e 7868     		ldr	r0, [r7, #4]
 381 0250 FFF7FEFF 		bl	USBH_OpenPipe
 243:./Libraries/STM32_USB_Host_Library/Class/CDC/Src/usbh_cdc.c ****                 phost->device.address, phost->device.speed, USB_EP_TYPE_BULK,
 244:./Libraries/STM32_USB_Host_Library/Class/CDC/Src/usbh_cdc.c ****                 CDC_Handle->DataItf.OutEpSize);
 245:./Libraries/STM32_USB_Host_Library/Class/CDC/Src/usbh_cdc.c **** 
 246:./Libraries/STM32_USB_Host_Library/Class/CDC/Src/usbh_cdc.c ****   /* Open channel for IN endpoint */
 247:./Libraries/STM32_USB_Host_Library/Class/CDC/Src/usbh_cdc.c ****   USBH_OpenPipe(phost, CDC_Handle->DataItf.InPipe, CDC_Handle->DataItf.InEp,
 382              		.loc 1 247 3
 383 0254 BB68     		ldr	r3, [r7, #8]
ARM GAS  /tmp/ccN0aLJN.s 			page 12


 384 0256 197B     		ldrb	r1, [r3, #12]	@ zero_extendqisi2
 385 0258 BB68     		ldr	r3, [r7, #8]
 386 025a D87B     		ldrb	r0, [r3, #15]	@ zero_extendqisi2
 387 025c 7B68     		ldr	r3, [r7, #4]
 388 025e 93F81C44 		ldrb	r4, [r3, #1052]	@ zero_extendqisi2
 389 0262 7B68     		ldr	r3, [r7, #4]
 390 0264 93F81D34 		ldrb	r3, [r3, #1053]	@ zero_extendqisi2
 391 0268 BA68     		ldr	r2, [r7, #8]
 392 026a 528B     		ldrh	r2, [r2, #26]
 393 026c 0292     		str	r2, [sp, #8]
 394 026e 0222     		movs	r2, #2
 395 0270 0192     		str	r2, [sp, #4]
 396 0272 0093     		str	r3, [sp]
 397 0274 2346     		mov	r3, r4
 398 0276 0246     		mov	r2, r0
 399 0278 7868     		ldr	r0, [r7, #4]
 400 027a FFF7FEFF 		bl	USBH_OpenPipe
 248:./Libraries/STM32_USB_Host_Library/Class/CDC/Src/usbh_cdc.c ****                 phost->device.address, phost->device.speed, USB_EP_TYPE_BULK,
 249:./Libraries/STM32_USB_Host_Library/Class/CDC/Src/usbh_cdc.c ****                 CDC_Handle->DataItf.InEpSize);
 250:./Libraries/STM32_USB_Host_Library/Class/CDC/Src/usbh_cdc.c **** 
 251:./Libraries/STM32_USB_Host_Library/Class/CDC/Src/usbh_cdc.c ****   CDC_Handle->state = CDC_IDLE_STATE;
 401              		.loc 1 251 21
 402 027e BB68     		ldr	r3, [r7, #8]
 403 0280 0022     		movs	r2, #0
 404 0282 83F84C20 		strb	r2, [r3, #76]
 252:./Libraries/STM32_USB_Host_Library/Class/CDC/Src/usbh_cdc.c **** 
 253:./Libraries/STM32_USB_Host_Library/Class/CDC/Src/usbh_cdc.c ****   USBH_LL_SetToggle(phost, CDC_Handle->DataItf.OutPipe, 0U);
 405              		.loc 1 253 3
 406 0286 BB68     		ldr	r3, [r7, #8]
 407 0288 5B7B     		ldrb	r3, [r3, #13]	@ zero_extendqisi2
 408 028a 0022     		movs	r2, #0
 409 028c 1946     		mov	r1, r3
 410 028e 7868     		ldr	r0, [r7, #4]
 411 0290 FFF7FEFF 		bl	USBH_LL_SetToggle
 254:./Libraries/STM32_USB_Host_Library/Class/CDC/Src/usbh_cdc.c ****   USBH_LL_SetToggle(phost, CDC_Handle->DataItf.InPipe, 0U);
 412              		.loc 1 254 3
 413 0294 BB68     		ldr	r3, [r7, #8]
 414 0296 1B7B     		ldrb	r3, [r3, #12]	@ zero_extendqisi2
 415 0298 0022     		movs	r2, #0
 416 029a 1946     		mov	r1, r3
 417 029c 7868     		ldr	r0, [r7, #4]
 418 029e FFF7FEFF 		bl	USBH_LL_SetToggle
 255:./Libraries/STM32_USB_Host_Library/Class/CDC/Src/usbh_cdc.c **** 
 256:./Libraries/STM32_USB_Host_Library/Class/CDC/Src/usbh_cdc.c ****   return USBH_OK;
 419              		.loc 1 256 10
 420 02a2 0023     		movs	r3, #0
 421              	.L4:
 257:./Libraries/STM32_USB_Host_Library/Class/CDC/Src/usbh_cdc.c **** }
 422              		.loc 1 257 1
 423 02a4 1846     		mov	r0, r3
 424 02a6 1437     		adds	r7, r7, #20
 425              	.LCFI3:
 426              		.cfi_def_cfa_offset 12
 427 02a8 BD46     		mov	sp, r7
 428              	.LCFI4:
 429              		.cfi_def_cfa_register 13
 430              		@ sp needed
ARM GAS  /tmp/ccN0aLJN.s 			page 13


 431 02aa 90BD     		pop	{r4, r7, pc}
 432              		.cfi_endproc
 433              	.LFE338:
 435              		.section	.text.USBH_CDC_InterfaceDeInit,"ax",%progbits
 436              		.align	1
 437              		.syntax unified
 438              		.thumb
 439              		.thumb_func
 440              		.fpu fpv5-d16
 442              	USBH_CDC_InterfaceDeInit:
 443              	.LFB339:
 258:./Libraries/STM32_USB_Host_Library/Class/CDC/Src/usbh_cdc.c **** 
 259:./Libraries/STM32_USB_Host_Library/Class/CDC/Src/usbh_cdc.c **** 
 260:./Libraries/STM32_USB_Host_Library/Class/CDC/Src/usbh_cdc.c **** 
 261:./Libraries/STM32_USB_Host_Library/Class/CDC/Src/usbh_cdc.c **** /**
 262:./Libraries/STM32_USB_Host_Library/Class/CDC/Src/usbh_cdc.c ****   * @brief  USBH_CDC_InterfaceDeInit
 263:./Libraries/STM32_USB_Host_Library/Class/CDC/Src/usbh_cdc.c ****   *         The function DeInit the Pipes used for the CDC class.
 264:./Libraries/STM32_USB_Host_Library/Class/CDC/Src/usbh_cdc.c ****   * @param  phost: Host handle
 265:./Libraries/STM32_USB_Host_Library/Class/CDC/Src/usbh_cdc.c ****   * @retval USBH Status
 266:./Libraries/STM32_USB_Host_Library/Class/CDC/Src/usbh_cdc.c ****   */
 267:./Libraries/STM32_USB_Host_Library/Class/CDC/Src/usbh_cdc.c **** static USBH_StatusTypeDef USBH_CDC_InterfaceDeInit(USBH_HandleTypeDef *phost)
 268:./Libraries/STM32_USB_Host_Library/Class/CDC/Src/usbh_cdc.c **** {
 444              		.loc 1 268 1
 445              		.cfi_startproc
 446              		@ args = 0, pretend = 0, frame = 16
 447              		@ frame_needed = 1, uses_anonymous_args = 0
 448 0000 80B5     		push	{r7, lr}
 449              	.LCFI5:
 450              		.cfi_def_cfa_offset 8
 451              		.cfi_offset 7, -8
 452              		.cfi_offset 14, -4
 453 0002 84B0     		sub	sp, sp, #16
 454              	.LCFI6:
 455              		.cfi_def_cfa_offset 24
 456 0004 00AF     		add	r7, sp, #0
 457              	.LCFI7:
 458              		.cfi_def_cfa_register 7
 459 0006 7860     		str	r0, [r7, #4]
 269:./Libraries/STM32_USB_Host_Library/Class/CDC/Src/usbh_cdc.c ****   CDC_HandleTypeDef *CDC_Handle = (CDC_HandleTypeDef *) phost->pActiveClass->pData;
 460              		.loc 1 269 62
 461 0008 7B68     		ldr	r3, [r7, #4]
 462 000a D3F87C34 		ldr	r3, [r3, #1148]
 463              		.loc 1 269 22
 464 000e DB69     		ldr	r3, [r3, #28]
 465 0010 FB60     		str	r3, [r7, #12]
 270:./Libraries/STM32_USB_Host_Library/Class/CDC/Src/usbh_cdc.c **** 
 271:./Libraries/STM32_USB_Host_Library/Class/CDC/Src/usbh_cdc.c ****   if (CDC_Handle->CommItf.NotifPipe)
 466              		.loc 1 271 26
 467 0012 FB68     		ldr	r3, [r7, #12]
 468 0014 1B78     		ldrb	r3, [r3]	@ zero_extendqisi2
 469              		.loc 1 271 6
 470 0016 002B     		cmp	r3, #0
 471 0018 0ED0     		beq	.L15
 272:./Libraries/STM32_USB_Host_Library/Class/CDC/Src/usbh_cdc.c ****   {
 273:./Libraries/STM32_USB_Host_Library/Class/CDC/Src/usbh_cdc.c ****     USBH_ClosePipe(phost, CDC_Handle->CommItf.NotifPipe);
 472              		.loc 1 273 5
 473 001a FB68     		ldr	r3, [r7, #12]
ARM GAS  /tmp/ccN0aLJN.s 			page 14


 474 001c 1B78     		ldrb	r3, [r3]	@ zero_extendqisi2
 475 001e 1946     		mov	r1, r3
 476 0020 7868     		ldr	r0, [r7, #4]
 477 0022 FFF7FEFF 		bl	USBH_ClosePipe
 274:./Libraries/STM32_USB_Host_Library/Class/CDC/Src/usbh_cdc.c ****     USBH_FreePipe(phost, CDC_Handle->CommItf.NotifPipe);
 478              		.loc 1 274 5
 479 0026 FB68     		ldr	r3, [r7, #12]
 480 0028 1B78     		ldrb	r3, [r3]	@ zero_extendqisi2
 481 002a 1946     		mov	r1, r3
 482 002c 7868     		ldr	r0, [r7, #4]
 483 002e FFF7FEFF 		bl	USBH_FreePipe
 275:./Libraries/STM32_USB_Host_Library/Class/CDC/Src/usbh_cdc.c ****     CDC_Handle->CommItf.NotifPipe = 0U;     /* Reset the Channel as Free */
 484              		.loc 1 275 35
 485 0032 FB68     		ldr	r3, [r7, #12]
 486 0034 0022     		movs	r2, #0
 487 0036 1A70     		strb	r2, [r3]
 488              	.L15:
 276:./Libraries/STM32_USB_Host_Library/Class/CDC/Src/usbh_cdc.c ****   }
 277:./Libraries/STM32_USB_Host_Library/Class/CDC/Src/usbh_cdc.c **** 
 278:./Libraries/STM32_USB_Host_Library/Class/CDC/Src/usbh_cdc.c ****   if (CDC_Handle->DataItf.InPipe)
 489              		.loc 1 278 26
 490 0038 FB68     		ldr	r3, [r7, #12]
 491 003a 1B7B     		ldrb	r3, [r3, #12]	@ zero_extendqisi2
 492              		.loc 1 278 6
 493 003c 002B     		cmp	r3, #0
 494 003e 0ED0     		beq	.L16
 279:./Libraries/STM32_USB_Host_Library/Class/CDC/Src/usbh_cdc.c ****   {
 280:./Libraries/STM32_USB_Host_Library/Class/CDC/Src/usbh_cdc.c ****     USBH_ClosePipe(phost, CDC_Handle->DataItf.InPipe);
 495              		.loc 1 280 5
 496 0040 FB68     		ldr	r3, [r7, #12]
 497 0042 1B7B     		ldrb	r3, [r3, #12]	@ zero_extendqisi2
 498 0044 1946     		mov	r1, r3
 499 0046 7868     		ldr	r0, [r7, #4]
 500 0048 FFF7FEFF 		bl	USBH_ClosePipe
 281:./Libraries/STM32_USB_Host_Library/Class/CDC/Src/usbh_cdc.c ****     USBH_FreePipe(phost, CDC_Handle->DataItf.InPipe);
 501              		.loc 1 281 5
 502 004c FB68     		ldr	r3, [r7, #12]
 503 004e 1B7B     		ldrb	r3, [r3, #12]	@ zero_extendqisi2
 504 0050 1946     		mov	r1, r3
 505 0052 7868     		ldr	r0, [r7, #4]
 506 0054 FFF7FEFF 		bl	USBH_FreePipe
 282:./Libraries/STM32_USB_Host_Library/Class/CDC/Src/usbh_cdc.c ****     CDC_Handle->DataItf.InPipe = 0U;     /* Reset the Channel as Free */
 507              		.loc 1 282 32
 508 0058 FB68     		ldr	r3, [r7, #12]
 509 005a 0022     		movs	r2, #0
 510 005c 1A73     		strb	r2, [r3, #12]
 511              	.L16:
 283:./Libraries/STM32_USB_Host_Library/Class/CDC/Src/usbh_cdc.c ****   }
 284:./Libraries/STM32_USB_Host_Library/Class/CDC/Src/usbh_cdc.c **** 
 285:./Libraries/STM32_USB_Host_Library/Class/CDC/Src/usbh_cdc.c ****   if (CDC_Handle->DataItf.OutPipe)
 512              		.loc 1 285 26
 513 005e FB68     		ldr	r3, [r7, #12]
 514 0060 5B7B     		ldrb	r3, [r3, #13]	@ zero_extendqisi2
 515              		.loc 1 285 6
 516 0062 002B     		cmp	r3, #0
 517 0064 0ED0     		beq	.L17
 286:./Libraries/STM32_USB_Host_Library/Class/CDC/Src/usbh_cdc.c ****   {
ARM GAS  /tmp/ccN0aLJN.s 			page 15


 287:./Libraries/STM32_USB_Host_Library/Class/CDC/Src/usbh_cdc.c ****     USBH_ClosePipe(phost, CDC_Handle->DataItf.OutPipe);
 518              		.loc 1 287 5
 519 0066 FB68     		ldr	r3, [r7, #12]
 520 0068 5B7B     		ldrb	r3, [r3, #13]	@ zero_extendqisi2
 521 006a 1946     		mov	r1, r3
 522 006c 7868     		ldr	r0, [r7, #4]
 523 006e FFF7FEFF 		bl	USBH_ClosePipe
 288:./Libraries/STM32_USB_Host_Library/Class/CDC/Src/usbh_cdc.c ****     USBH_FreePipe(phost, CDC_Handle->DataItf.OutPipe);
 524              		.loc 1 288 5
 525 0072 FB68     		ldr	r3, [r7, #12]
 526 0074 5B7B     		ldrb	r3, [r3, #13]	@ zero_extendqisi2
 527 0076 1946     		mov	r1, r3
 528 0078 7868     		ldr	r0, [r7, #4]
 529 007a FFF7FEFF 		bl	USBH_FreePipe
 289:./Libraries/STM32_USB_Host_Library/Class/CDC/Src/usbh_cdc.c ****     CDC_Handle->DataItf.OutPipe = 0U;    /* Reset the Channel as Free */
 530              		.loc 1 289 33
 531 007e FB68     		ldr	r3, [r7, #12]
 532 0080 0022     		movs	r2, #0
 533 0082 5A73     		strb	r2, [r3, #13]
 534              	.L17:
 290:./Libraries/STM32_USB_Host_Library/Class/CDC/Src/usbh_cdc.c ****   }
 291:./Libraries/STM32_USB_Host_Library/Class/CDC/Src/usbh_cdc.c **** 
 292:./Libraries/STM32_USB_Host_Library/Class/CDC/Src/usbh_cdc.c ****   if (phost->pActiveClass->pData)
 535              		.loc 1 292 12
 536 0084 7B68     		ldr	r3, [r7, #4]
 537 0086 D3F87C34 		ldr	r3, [r3, #1148]
 538              		.loc 1 292 26
 539 008a DB69     		ldr	r3, [r3, #28]
 540              		.loc 1 292 6
 541 008c 002B     		cmp	r3, #0
 542 008e 0BD0     		beq	.L18
 293:./Libraries/STM32_USB_Host_Library/Class/CDC/Src/usbh_cdc.c ****   {
 294:./Libraries/STM32_USB_Host_Library/Class/CDC/Src/usbh_cdc.c ****     USBH_free(phost->pActiveClass->pData);
 543              		.loc 1 294 20
 544 0090 7B68     		ldr	r3, [r7, #4]
 545 0092 D3F87C34 		ldr	r3, [r3, #1148]
 546              		.loc 1 294 5
 547 0096 DB69     		ldr	r3, [r3, #28]
 548 0098 1846     		mov	r0, r3
 549 009a FFF7FEFF 		bl	vPortFree
 295:./Libraries/STM32_USB_Host_Library/Class/CDC/Src/usbh_cdc.c ****     phost->pActiveClass->pData = 0U;
 550              		.loc 1 295 10
 551 009e 7B68     		ldr	r3, [r7, #4]
 552 00a0 D3F87C34 		ldr	r3, [r3, #1148]
 553              		.loc 1 295 32
 554 00a4 0022     		movs	r2, #0
 555 00a6 DA61     		str	r2, [r3, #28]
 556              	.L18:
 296:./Libraries/STM32_USB_Host_Library/Class/CDC/Src/usbh_cdc.c ****   }
 297:./Libraries/STM32_USB_Host_Library/Class/CDC/Src/usbh_cdc.c **** 
 298:./Libraries/STM32_USB_Host_Library/Class/CDC/Src/usbh_cdc.c ****   return USBH_OK;
 557              		.loc 1 298 10
 558 00a8 0023     		movs	r3, #0
 299:./Libraries/STM32_USB_Host_Library/Class/CDC/Src/usbh_cdc.c **** }
 559              		.loc 1 299 1
 560 00aa 1846     		mov	r0, r3
 561 00ac 1037     		adds	r7, r7, #16
ARM GAS  /tmp/ccN0aLJN.s 			page 16


 562              	.LCFI8:
 563              		.cfi_def_cfa_offset 8
 564 00ae BD46     		mov	sp, r7
 565              	.LCFI9:
 566              		.cfi_def_cfa_register 13
 567              		@ sp needed
 568 00b0 80BD     		pop	{r7, pc}
 569              		.cfi_endproc
 570              	.LFE339:
 572              		.section	.text.USBH_CDC_ClassRequest,"ax",%progbits
 573              		.align	1
 574              		.syntax unified
 575              		.thumb
 576              		.thumb_func
 577              		.fpu fpv5-d16
 579              	USBH_CDC_ClassRequest:
 580              	.LFB340:
 300:./Libraries/STM32_USB_Host_Library/Class/CDC/Src/usbh_cdc.c **** 
 301:./Libraries/STM32_USB_Host_Library/Class/CDC/Src/usbh_cdc.c **** /**
 302:./Libraries/STM32_USB_Host_Library/Class/CDC/Src/usbh_cdc.c ****   * @brief  USBH_CDC_ClassRequest
 303:./Libraries/STM32_USB_Host_Library/Class/CDC/Src/usbh_cdc.c ****   *         The function is responsible for handling Standard requests
 304:./Libraries/STM32_USB_Host_Library/Class/CDC/Src/usbh_cdc.c ****   *         for CDC class.
 305:./Libraries/STM32_USB_Host_Library/Class/CDC/Src/usbh_cdc.c ****   * @param  phost: Host handle
 306:./Libraries/STM32_USB_Host_Library/Class/CDC/Src/usbh_cdc.c ****   * @retval USBH Status
 307:./Libraries/STM32_USB_Host_Library/Class/CDC/Src/usbh_cdc.c ****   */
 308:./Libraries/STM32_USB_Host_Library/Class/CDC/Src/usbh_cdc.c **** static USBH_StatusTypeDef USBH_CDC_ClassRequest(USBH_HandleTypeDef *phost)
 309:./Libraries/STM32_USB_Host_Library/Class/CDC/Src/usbh_cdc.c **** {
 581              		.loc 1 309 1
 582              		.cfi_startproc
 583              		@ args = 0, pretend = 0, frame = 16
 584              		@ frame_needed = 1, uses_anonymous_args = 0
 585 0000 80B5     		push	{r7, lr}
 586              	.LCFI10:
 587              		.cfi_def_cfa_offset 8
 588              		.cfi_offset 7, -8
 589              		.cfi_offset 14, -4
 590 0002 84B0     		sub	sp, sp, #16
 591              	.LCFI11:
 592              		.cfi_def_cfa_offset 24
 593 0004 00AF     		add	r7, sp, #0
 594              	.LCFI12:
 595              		.cfi_def_cfa_register 7
 596 0006 7860     		str	r0, [r7, #4]
 310:./Libraries/STM32_USB_Host_Library/Class/CDC/Src/usbh_cdc.c ****   USBH_StatusTypeDef status;
 311:./Libraries/STM32_USB_Host_Library/Class/CDC/Src/usbh_cdc.c ****   CDC_HandleTypeDef *CDC_Handle = (CDC_HandleTypeDef *) phost->pActiveClass->pData;
 597              		.loc 1 311 62
 598 0008 7B68     		ldr	r3, [r7, #4]
 599 000a D3F87C34 		ldr	r3, [r3, #1148]
 600              		.loc 1 311 22
 601 000e DB69     		ldr	r3, [r3, #28]
 602 0010 FB60     		str	r3, [r7, #12]
 312:./Libraries/STM32_USB_Host_Library/Class/CDC/Src/usbh_cdc.c **** 
 313:./Libraries/STM32_USB_Host_Library/Class/CDC/Src/usbh_cdc.c ****   /* Issue the get line coding request */
 314:./Libraries/STM32_USB_Host_Library/Class/CDC/Src/usbh_cdc.c ****   status = GetLineCoding(phost, &CDC_Handle->LineCoding);
 603              		.loc 1 314 12
 604 0012 FB68     		ldr	r3, [r7, #12]
 605 0014 4033     		adds	r3, r3, #64
ARM GAS  /tmp/ccN0aLJN.s 			page 17


 606 0016 1946     		mov	r1, r3
 607 0018 7868     		ldr	r0, [r7, #4]
 608 001a FFF7FEFF 		bl	GetLineCoding
 609 001e 0346     		mov	r3, r0
 610 0020 FB72     		strb	r3, [r7, #11]
 315:./Libraries/STM32_USB_Host_Library/Class/CDC/Src/usbh_cdc.c ****   if (status == USBH_OK)
 611              		.loc 1 315 6
 612 0022 FB7A     		ldrb	r3, [r7, #11]	@ zero_extendqisi2
 613 0024 002B     		cmp	r3, #0
 614 0026 05D1     		bne	.L21
 316:./Libraries/STM32_USB_Host_Library/Class/CDC/Src/usbh_cdc.c ****   {
 317:./Libraries/STM32_USB_Host_Library/Class/CDC/Src/usbh_cdc.c ****     phost->pUser(phost, HOST_USER_CLASS_ACTIVE);
 615              		.loc 1 317 10
 616 0028 7B68     		ldr	r3, [r7, #4]
 617 002a D3F8D434 		ldr	r3, [r3, #1236]
 618              		.loc 1 317 5
 619 002e 0221     		movs	r1, #2
 620 0030 7868     		ldr	r0, [r7, #4]
 621 0032 9847     		blx	r3
 622              	.LVL0:
 623              	.L21:
 318:./Libraries/STM32_USB_Host_Library/Class/CDC/Src/usbh_cdc.c ****   }
 319:./Libraries/STM32_USB_Host_Library/Class/CDC/Src/usbh_cdc.c ****   else if (status == USBH_NOT_SUPPORTED)
 320:./Libraries/STM32_USB_Host_Library/Class/CDC/Src/usbh_cdc.c ****   {
 321:./Libraries/STM32_USB_Host_Library/Class/CDC/Src/usbh_cdc.c ****     USBH_ErrLog("Control error: CDC: Device Get Line Coding configuration failed");
 322:./Libraries/STM32_USB_Host_Library/Class/CDC/Src/usbh_cdc.c ****   }
 323:./Libraries/STM32_USB_Host_Library/Class/CDC/Src/usbh_cdc.c ****   else
 324:./Libraries/STM32_USB_Host_Library/Class/CDC/Src/usbh_cdc.c ****   {
 325:./Libraries/STM32_USB_Host_Library/Class/CDC/Src/usbh_cdc.c ****     /* .. */
 326:./Libraries/STM32_USB_Host_Library/Class/CDC/Src/usbh_cdc.c ****   }
 327:./Libraries/STM32_USB_Host_Library/Class/CDC/Src/usbh_cdc.c **** 
 328:./Libraries/STM32_USB_Host_Library/Class/CDC/Src/usbh_cdc.c ****   return status;
 624              		.loc 1 328 10
 625 0034 FB7A     		ldrb	r3, [r7, #11]	@ zero_extendqisi2
 329:./Libraries/STM32_USB_Host_Library/Class/CDC/Src/usbh_cdc.c **** }
 626              		.loc 1 329 1
 627 0036 1846     		mov	r0, r3
 628 0038 1037     		adds	r7, r7, #16
 629              	.LCFI13:
 630              		.cfi_def_cfa_offset 8
 631 003a BD46     		mov	sp, r7
 632              	.LCFI14:
 633              		.cfi_def_cfa_register 13
 634              		@ sp needed
 635 003c 80BD     		pop	{r7, pc}
 636              		.cfi_endproc
 637              	.LFE340:
 639              		.section	.text.USBH_CDC_Process,"ax",%progbits
 640              		.align	1
 641              		.syntax unified
 642              		.thumb
 643              		.thumb_func
 644              		.fpu fpv5-d16
 646              	USBH_CDC_Process:
 647              	.LFB341:
 330:./Libraries/STM32_USB_Host_Library/Class/CDC/Src/usbh_cdc.c **** 
 331:./Libraries/STM32_USB_Host_Library/Class/CDC/Src/usbh_cdc.c **** 
ARM GAS  /tmp/ccN0aLJN.s 			page 18


 332:./Libraries/STM32_USB_Host_Library/Class/CDC/Src/usbh_cdc.c **** /**
 333:./Libraries/STM32_USB_Host_Library/Class/CDC/Src/usbh_cdc.c ****   * @brief  USBH_CDC_Process
 334:./Libraries/STM32_USB_Host_Library/Class/CDC/Src/usbh_cdc.c ****   *         The function is for managing state machine for CDC data transfers
 335:./Libraries/STM32_USB_Host_Library/Class/CDC/Src/usbh_cdc.c ****   * @param  phost: Host handle
 336:./Libraries/STM32_USB_Host_Library/Class/CDC/Src/usbh_cdc.c ****   * @retval USBH Status
 337:./Libraries/STM32_USB_Host_Library/Class/CDC/Src/usbh_cdc.c ****   */
 338:./Libraries/STM32_USB_Host_Library/Class/CDC/Src/usbh_cdc.c **** static USBH_StatusTypeDef USBH_CDC_Process(USBH_HandleTypeDef *phost)
 339:./Libraries/STM32_USB_Host_Library/Class/CDC/Src/usbh_cdc.c **** {
 648              		.loc 1 339 1
 649              		.cfi_startproc
 650              		@ args = 0, pretend = 0, frame = 16
 651              		@ frame_needed = 1, uses_anonymous_args = 0
 652 0000 80B5     		push	{r7, lr}
 653              	.LCFI15:
 654              		.cfi_def_cfa_offset 8
 655              		.cfi_offset 7, -8
 656              		.cfi_offset 14, -4
 657 0002 84B0     		sub	sp, sp, #16
 658              	.LCFI16:
 659              		.cfi_def_cfa_offset 24
 660 0004 00AF     		add	r7, sp, #0
 661              	.LCFI17:
 662              		.cfi_def_cfa_register 7
 663 0006 7860     		str	r0, [r7, #4]
 340:./Libraries/STM32_USB_Host_Library/Class/CDC/Src/usbh_cdc.c ****   USBH_StatusTypeDef status = USBH_BUSY;
 664              		.loc 1 340 22
 665 0008 0123     		movs	r3, #1
 666 000a FB73     		strb	r3, [r7, #15]
 341:./Libraries/STM32_USB_Host_Library/Class/CDC/Src/usbh_cdc.c ****   USBH_StatusTypeDef req_status = USBH_OK;
 667              		.loc 1 341 22
 668 000c 0023     		movs	r3, #0
 669 000e BB73     		strb	r3, [r7, #14]
 342:./Libraries/STM32_USB_Host_Library/Class/CDC/Src/usbh_cdc.c ****   CDC_HandleTypeDef *CDC_Handle = (CDC_HandleTypeDef *) phost->pActiveClass->pData;
 670              		.loc 1 342 62
 671 0010 7B68     		ldr	r3, [r7, #4]
 672 0012 D3F87C34 		ldr	r3, [r3, #1148]
 673              		.loc 1 342 22
 674 0016 DB69     		ldr	r3, [r3, #28]
 675 0018 BB60     		str	r3, [r7, #8]
 343:./Libraries/STM32_USB_Host_Library/Class/CDC/Src/usbh_cdc.c **** 
 344:./Libraries/STM32_USB_Host_Library/Class/CDC/Src/usbh_cdc.c ****   switch (CDC_Handle->state)
 676              		.loc 1 344 21
 677 001a BB68     		ldr	r3, [r7, #8]
 678 001c 93F84C30 		ldrb	r3, [r3, #76]	@ zero_extendqisi2
 679 0020 042B     		cmp	r3, #4
 680 0022 77D8     		bhi	.L38
 681 0024 01A2     		adr	r2, .L26
 682 0026 52F823F0 		ldr	pc, [r2, r3, lsl #2]
 683 002a 00BF     		.p2align 2
 684              	.L26:
 685 002c 41000000 		.word	.L30+1
 686 0030 47000000 		.word	.L29+1
 687 0034 77000000 		.word	.L28+1
 688 0038 EB000000 		.word	.L27+1
 689 003c F9000000 		.word	.L25+1
 690              		.p2align 1
 691              	.L30:
ARM GAS  /tmp/ccN0aLJN.s 			page 19


 345:./Libraries/STM32_USB_Host_Library/Class/CDC/Src/usbh_cdc.c ****   {
 346:./Libraries/STM32_USB_Host_Library/Class/CDC/Src/usbh_cdc.c **** 
 347:./Libraries/STM32_USB_Host_Library/Class/CDC/Src/usbh_cdc.c ****     case CDC_IDLE_STATE:
 348:./Libraries/STM32_USB_Host_Library/Class/CDC/Src/usbh_cdc.c ****       status = USBH_OK;
 692              		.loc 1 348 14
 693 0040 0023     		movs	r3, #0
 694 0042 FB73     		strb	r3, [r7, #15]
 349:./Libraries/STM32_USB_Host_Library/Class/CDC/Src/usbh_cdc.c ****       break;
 695              		.loc 1 349 7
 696 0044 6DE0     		b	.L31
 697              	.L29:
 350:./Libraries/STM32_USB_Host_Library/Class/CDC/Src/usbh_cdc.c **** 
 351:./Libraries/STM32_USB_Host_Library/Class/CDC/Src/usbh_cdc.c ****     case CDC_SET_LINE_CODING_STATE:
 352:./Libraries/STM32_USB_Host_Library/Class/CDC/Src/usbh_cdc.c ****       req_status = SetLineCoding(phost, CDC_Handle->pUserLineCoding);
 698              		.loc 1 352 20
 699 0046 BB68     		ldr	r3, [r7, #8]
 700 0048 9B6C     		ldr	r3, [r3, #72]
 701 004a 1946     		mov	r1, r3
 702 004c 7868     		ldr	r0, [r7, #4]
 703 004e FFF7FEFF 		bl	SetLineCoding
 704 0052 0346     		mov	r3, r0
 705 0054 BB73     		strb	r3, [r7, #14]
 353:./Libraries/STM32_USB_Host_Library/Class/CDC/Src/usbh_cdc.c **** 
 354:./Libraries/STM32_USB_Host_Library/Class/CDC/Src/usbh_cdc.c ****       if (req_status == USBH_OK)
 706              		.loc 1 354 10
 707 0056 BB7B     		ldrb	r3, [r7, #14]	@ zero_extendqisi2
 708 0058 002B     		cmp	r3, #0
 709 005a 04D1     		bne	.L32
 355:./Libraries/STM32_USB_Host_Library/Class/CDC/Src/usbh_cdc.c ****       {
 356:./Libraries/STM32_USB_Host_Library/Class/CDC/Src/usbh_cdc.c ****         CDC_Handle->state = CDC_GET_LAST_LINE_CODING_STATE;
 710              		.loc 1 356 27
 711 005c BB68     		ldr	r3, [r7, #8]
 712 005e 0222     		movs	r2, #2
 713 0060 83F84C20 		strb	r2, [r3, #76]
 357:./Libraries/STM32_USB_Host_Library/Class/CDC/Src/usbh_cdc.c ****       }
 358:./Libraries/STM32_USB_Host_Library/Class/CDC/Src/usbh_cdc.c **** 
 359:./Libraries/STM32_USB_Host_Library/Class/CDC/Src/usbh_cdc.c ****       else
 360:./Libraries/STM32_USB_Host_Library/Class/CDC/Src/usbh_cdc.c ****       {
 361:./Libraries/STM32_USB_Host_Library/Class/CDC/Src/usbh_cdc.c ****         if (req_status != USBH_BUSY)
 362:./Libraries/STM32_USB_Host_Library/Class/CDC/Src/usbh_cdc.c ****         {
 363:./Libraries/STM32_USB_Host_Library/Class/CDC/Src/usbh_cdc.c ****           CDC_Handle->state = CDC_ERROR_STATE;
 364:./Libraries/STM32_USB_Host_Library/Class/CDC/Src/usbh_cdc.c ****         }
 365:./Libraries/STM32_USB_Host_Library/Class/CDC/Src/usbh_cdc.c ****       }
 366:./Libraries/STM32_USB_Host_Library/Class/CDC/Src/usbh_cdc.c ****       break;
 714              		.loc 1 366 7
 715 0064 58E0     		b	.L39
 716              	.L32:
 361:./Libraries/STM32_USB_Host_Library/Class/CDC/Src/usbh_cdc.c ****         {
 717              		.loc 1 361 12
 718 0066 BB7B     		ldrb	r3, [r7, #14]	@ zero_extendqisi2
 719 0068 012B     		cmp	r3, #1
 720 006a 55D0     		beq	.L39
 363:./Libraries/STM32_USB_Host_Library/Class/CDC/Src/usbh_cdc.c ****         }
 721              		.loc 1 363 29
 722 006c BB68     		ldr	r3, [r7, #8]
 723 006e 0422     		movs	r2, #4
 724 0070 83F84C20 		strb	r2, [r3, #76]
ARM GAS  /tmp/ccN0aLJN.s 			page 20


 725              		.loc 1 366 7
 726 0074 50E0     		b	.L39
 727              	.L28:
 367:./Libraries/STM32_USB_Host_Library/Class/CDC/Src/usbh_cdc.c **** 
 368:./Libraries/STM32_USB_Host_Library/Class/CDC/Src/usbh_cdc.c **** 
 369:./Libraries/STM32_USB_Host_Library/Class/CDC/Src/usbh_cdc.c ****     case CDC_GET_LAST_LINE_CODING_STATE:
 370:./Libraries/STM32_USB_Host_Library/Class/CDC/Src/usbh_cdc.c ****       req_status = GetLineCoding(phost, &(CDC_Handle->LineCoding));
 728              		.loc 1 370 20
 729 0076 BB68     		ldr	r3, [r7, #8]
 730 0078 4033     		adds	r3, r3, #64
 731 007a 1946     		mov	r1, r3
 732 007c 7868     		ldr	r0, [r7, #4]
 733 007e FFF7FEFF 		bl	GetLineCoding
 734 0082 0346     		mov	r3, r0
 735 0084 BB73     		strb	r3, [r7, #14]
 371:./Libraries/STM32_USB_Host_Library/Class/CDC/Src/usbh_cdc.c **** 
 372:./Libraries/STM32_USB_Host_Library/Class/CDC/Src/usbh_cdc.c ****       if (req_status == USBH_OK)
 736              		.loc 1 372 10
 737 0086 BB7B     		ldrb	r3, [r7, #14]	@ zero_extendqisi2
 738 0088 002B     		cmp	r3, #0
 739 008a 26D1     		bne	.L34
 373:./Libraries/STM32_USB_Host_Library/Class/CDC/Src/usbh_cdc.c ****       {
 374:./Libraries/STM32_USB_Host_Library/Class/CDC/Src/usbh_cdc.c ****         CDC_Handle->state = CDC_IDLE_STATE;
 740              		.loc 1 374 27
 741 008c BB68     		ldr	r3, [r7, #8]
 742 008e 0022     		movs	r2, #0
 743 0090 83F84C20 		strb	r2, [r3, #76]
 375:./Libraries/STM32_USB_Host_Library/Class/CDC/Src/usbh_cdc.c **** 
 376:./Libraries/STM32_USB_Host_Library/Class/CDC/Src/usbh_cdc.c ****         if ((CDC_Handle->LineCoding.b.bCharFormat == CDC_Handle->pUserLineCoding->b.bCharFormat) &&
 744              		.loc 1 376 38
 745 0094 BB68     		ldr	r3, [r7, #8]
 746 0096 93F84420 		ldrb	r2, [r3, #68]	@ zero_extendqisi2
 747              		.loc 1 376 64
 748 009a BB68     		ldr	r3, [r7, #8]
 749 009c 9B6C     		ldr	r3, [r3, #72]
 750              		.loc 1 376 84
 751 009e 1B79     		ldrb	r3, [r3, #4]	@ zero_extendqisi2
 752              		.loc 1 376 12
 753 00a0 9A42     		cmp	r2, r3
 754 00a2 3BD1     		bne	.L40
 377:./Libraries/STM32_USB_Host_Library/Class/CDC/Src/usbh_cdc.c ****             (CDC_Handle->LineCoding.b.bDataBits == CDC_Handle->pUserLineCoding->b.bDataBits) &&
 755              		.loc 1 377 38 discriminator 1
 756 00a4 BB68     		ldr	r3, [r7, #8]
 757 00a6 93F84620 		ldrb	r2, [r3, #70]	@ zero_extendqisi2
 758              		.loc 1 377 62 discriminator 1
 759 00aa BB68     		ldr	r3, [r7, #8]
 760 00ac 9B6C     		ldr	r3, [r3, #72]
 761              		.loc 1 377 82 discriminator 1
 762 00ae 9B79     		ldrb	r3, [r3, #6]	@ zero_extendqisi2
 376:./Libraries/STM32_USB_Host_Library/Class/CDC/Src/usbh_cdc.c ****             (CDC_Handle->LineCoding.b.bDataBits == CDC_Handle->pUserLineCoding->b.bDataBits) &&
 763              		.loc 1 376 98 discriminator 1
 764 00b0 9A42     		cmp	r2, r3
 765 00b2 33D1     		bne	.L40
 378:./Libraries/STM32_USB_Host_Library/Class/CDC/Src/usbh_cdc.c ****             (CDC_Handle->LineCoding.b.bParityType == CDC_Handle->pUserLineCoding->b.bParityType) &&
 766              		.loc 1 378 38
 767 00b4 BB68     		ldr	r3, [r7, #8]
 768 00b6 93F84520 		ldrb	r2, [r3, #69]	@ zero_extendqisi2
ARM GAS  /tmp/ccN0aLJN.s 			page 21


 769              		.loc 1 378 64
 770 00ba BB68     		ldr	r3, [r7, #8]
 771 00bc 9B6C     		ldr	r3, [r3, #72]
 772              		.loc 1 378 84
 773 00be 5B79     		ldrb	r3, [r3, #5]	@ zero_extendqisi2
 377:./Libraries/STM32_USB_Host_Library/Class/CDC/Src/usbh_cdc.c ****             (CDC_Handle->LineCoding.b.bDataBits == CDC_Handle->pUserLineCoding->b.bDataBits) &&
 774              		.loc 1 377 94
 775 00c0 9A42     		cmp	r2, r3
 776 00c2 2BD1     		bne	.L40
 379:./Libraries/STM32_USB_Host_Library/Class/CDC/Src/usbh_cdc.c ****             (CDC_Handle->LineCoding.b.dwDTERate == CDC_Handle->pUserLineCoding->b.dwDTERate))
 777              		.loc 1 379 38
 778 00c4 BB68     		ldr	r3, [r7, #8]
 779 00c6 1A6C     		ldr	r2, [r3, #64]
 780              		.loc 1 379 62
 781 00c8 BB68     		ldr	r3, [r7, #8]
 782 00ca 9B6C     		ldr	r3, [r3, #72]
 783              		.loc 1 379 82
 784 00cc 1B68     		ldr	r3, [r3]
 378:./Libraries/STM32_USB_Host_Library/Class/CDC/Src/usbh_cdc.c ****             (CDC_Handle->LineCoding.b.bParityType == CDC_Handle->pUserLineCoding->b.bParityType) &&
 785              		.loc 1 378 98
 786 00ce 9A42     		cmp	r2, r3
 787 00d0 24D1     		bne	.L40
 380:./Libraries/STM32_USB_Host_Library/Class/CDC/Src/usbh_cdc.c ****         {
 381:./Libraries/STM32_USB_Host_Library/Class/CDC/Src/usbh_cdc.c ****           USBH_CDC_LineCodingChanged(phost);
 788              		.loc 1 381 11
 789 00d2 7868     		ldr	r0, [r7, #4]
 790 00d4 FFF7FEFF 		bl	USBH_CDC_LineCodingChanged
 382:./Libraries/STM32_USB_Host_Library/Class/CDC/Src/usbh_cdc.c ****         }
 383:./Libraries/STM32_USB_Host_Library/Class/CDC/Src/usbh_cdc.c ****       }
 384:./Libraries/STM32_USB_Host_Library/Class/CDC/Src/usbh_cdc.c ****       else
 385:./Libraries/STM32_USB_Host_Library/Class/CDC/Src/usbh_cdc.c ****       {
 386:./Libraries/STM32_USB_Host_Library/Class/CDC/Src/usbh_cdc.c ****         if (req_status != USBH_BUSY)
 387:./Libraries/STM32_USB_Host_Library/Class/CDC/Src/usbh_cdc.c ****         {
 388:./Libraries/STM32_USB_Host_Library/Class/CDC/Src/usbh_cdc.c ****           CDC_Handle->state = CDC_ERROR_STATE;
 389:./Libraries/STM32_USB_Host_Library/Class/CDC/Src/usbh_cdc.c ****         }
 390:./Libraries/STM32_USB_Host_Library/Class/CDC/Src/usbh_cdc.c ****       }
 391:./Libraries/STM32_USB_Host_Library/Class/CDC/Src/usbh_cdc.c ****       break;
 791              		.loc 1 391 7
 792 00d8 20E0     		b	.L40
 793              	.L34:
 386:./Libraries/STM32_USB_Host_Library/Class/CDC/Src/usbh_cdc.c ****         {
 794              		.loc 1 386 12
 795 00da BB7B     		ldrb	r3, [r7, #14]	@ zero_extendqisi2
 796 00dc 012B     		cmp	r3, #1
 797 00de 1DD0     		beq	.L40
 388:./Libraries/STM32_USB_Host_Library/Class/CDC/Src/usbh_cdc.c ****         }
 798              		.loc 1 388 29
 799 00e0 BB68     		ldr	r3, [r7, #8]
 800 00e2 0422     		movs	r2, #4
 801 00e4 83F84C20 		strb	r2, [r3, #76]
 802              		.loc 1 391 7
 803 00e8 18E0     		b	.L40
 804              	.L27:
 392:./Libraries/STM32_USB_Host_Library/Class/CDC/Src/usbh_cdc.c **** 
 393:./Libraries/STM32_USB_Host_Library/Class/CDC/Src/usbh_cdc.c ****     case CDC_TRANSFER_DATA:
 394:./Libraries/STM32_USB_Host_Library/Class/CDC/Src/usbh_cdc.c ****       CDC_ProcessTransmission(phost);
 805              		.loc 1 394 7
ARM GAS  /tmp/ccN0aLJN.s 			page 22


 806 00ea 7868     		ldr	r0, [r7, #4]
 807 00ec FFF7FEFF 		bl	CDC_ProcessTransmission
 395:./Libraries/STM32_USB_Host_Library/Class/CDC/Src/usbh_cdc.c ****       CDC_ProcessReception(phost);
 808              		.loc 1 395 7
 809 00f0 7868     		ldr	r0, [r7, #4]
 810 00f2 FFF7FEFF 		bl	CDC_ProcessReception
 396:./Libraries/STM32_USB_Host_Library/Class/CDC/Src/usbh_cdc.c ****       break;
 811              		.loc 1 396 7
 812 00f6 14E0     		b	.L31
 813              	.L25:
 397:./Libraries/STM32_USB_Host_Library/Class/CDC/Src/usbh_cdc.c **** 
 398:./Libraries/STM32_USB_Host_Library/Class/CDC/Src/usbh_cdc.c ****     case CDC_ERROR_STATE:
 399:./Libraries/STM32_USB_Host_Library/Class/CDC/Src/usbh_cdc.c ****       req_status = USBH_ClrFeature(phost, 0x00U);
 814              		.loc 1 399 20
 815 00f8 0021     		movs	r1, #0
 816 00fa 7868     		ldr	r0, [r7, #4]
 817 00fc FFF7FEFF 		bl	USBH_ClrFeature
 818 0100 0346     		mov	r3, r0
 819 0102 BB73     		strb	r3, [r7, #14]
 400:./Libraries/STM32_USB_Host_Library/Class/CDC/Src/usbh_cdc.c **** 
 401:./Libraries/STM32_USB_Host_Library/Class/CDC/Src/usbh_cdc.c ****       if (req_status == USBH_OK)
 820              		.loc 1 401 10
 821 0104 BB7B     		ldrb	r3, [r7, #14]	@ zero_extendqisi2
 822 0106 002B     		cmp	r3, #0
 823 0108 0AD1     		bne	.L41
 402:./Libraries/STM32_USB_Host_Library/Class/CDC/Src/usbh_cdc.c ****       {
 403:./Libraries/STM32_USB_Host_Library/Class/CDC/Src/usbh_cdc.c ****         /*Change the state to waiting*/
 404:./Libraries/STM32_USB_Host_Library/Class/CDC/Src/usbh_cdc.c ****         CDC_Handle->state = CDC_IDLE_STATE;
 824              		.loc 1 404 27
 825 010a BB68     		ldr	r3, [r7, #8]
 826 010c 0022     		movs	r2, #0
 827 010e 83F84C20 		strb	r2, [r3, #76]
 405:./Libraries/STM32_USB_Host_Library/Class/CDC/Src/usbh_cdc.c ****       }
 406:./Libraries/STM32_USB_Host_Library/Class/CDC/Src/usbh_cdc.c ****       break;
 828              		.loc 1 406 7
 829 0112 05E0     		b	.L41
 830              	.L38:
 407:./Libraries/STM32_USB_Host_Library/Class/CDC/Src/usbh_cdc.c **** 
 408:./Libraries/STM32_USB_Host_Library/Class/CDC/Src/usbh_cdc.c ****     default:
 409:./Libraries/STM32_USB_Host_Library/Class/CDC/Src/usbh_cdc.c ****       break;
 831              		.loc 1 409 7
 832 0114 00BF     		nop
 833 0116 04E0     		b	.L31
 834              	.L39:
 366:./Libraries/STM32_USB_Host_Library/Class/CDC/Src/usbh_cdc.c **** 
 835              		.loc 1 366 7
 836 0118 00BF     		nop
 837 011a 02E0     		b	.L31
 838              	.L40:
 391:./Libraries/STM32_USB_Host_Library/Class/CDC/Src/usbh_cdc.c **** 
 839              		.loc 1 391 7
 840 011c 00BF     		nop
 841 011e 00E0     		b	.L31
 842              	.L41:
 406:./Libraries/STM32_USB_Host_Library/Class/CDC/Src/usbh_cdc.c **** 
 843              		.loc 1 406 7
 844 0120 00BF     		nop
ARM GAS  /tmp/ccN0aLJN.s 			page 23


 845              	.L31:
 410:./Libraries/STM32_USB_Host_Library/Class/CDC/Src/usbh_cdc.c **** 
 411:./Libraries/STM32_USB_Host_Library/Class/CDC/Src/usbh_cdc.c ****   }
 412:./Libraries/STM32_USB_Host_Library/Class/CDC/Src/usbh_cdc.c **** 
 413:./Libraries/STM32_USB_Host_Library/Class/CDC/Src/usbh_cdc.c ****   return status;
 846              		.loc 1 413 10
 847 0122 FB7B     		ldrb	r3, [r7, #15]	@ zero_extendqisi2
 414:./Libraries/STM32_USB_Host_Library/Class/CDC/Src/usbh_cdc.c **** }
 848              		.loc 1 414 1
 849 0124 1846     		mov	r0, r3
 850 0126 1037     		adds	r7, r7, #16
 851              	.LCFI18:
 852              		.cfi_def_cfa_offset 8
 853 0128 BD46     		mov	sp, r7
 854              	.LCFI19:
 855              		.cfi_def_cfa_register 13
 856              		@ sp needed
 857 012a 80BD     		pop	{r7, pc}
 858              		.cfi_endproc
 859              	.LFE341:
 861              		.section	.text.USBH_CDC_SOFProcess,"ax",%progbits
 862              		.align	1
 863              		.syntax unified
 864              		.thumb
 865              		.thumb_func
 866              		.fpu fpv5-d16
 868              	USBH_CDC_SOFProcess:
 869              	.LFB342:
 415:./Libraries/STM32_USB_Host_Library/Class/CDC/Src/usbh_cdc.c **** 
 416:./Libraries/STM32_USB_Host_Library/Class/CDC/Src/usbh_cdc.c **** /**
 417:./Libraries/STM32_USB_Host_Library/Class/CDC/Src/usbh_cdc.c ****   * @brief  USBH_CDC_SOFProcess
 418:./Libraries/STM32_USB_Host_Library/Class/CDC/Src/usbh_cdc.c ****   *         The function is for managing SOF callback
 419:./Libraries/STM32_USB_Host_Library/Class/CDC/Src/usbh_cdc.c ****   * @param  phost: Host handle
 420:./Libraries/STM32_USB_Host_Library/Class/CDC/Src/usbh_cdc.c ****   * @retval USBH Status
 421:./Libraries/STM32_USB_Host_Library/Class/CDC/Src/usbh_cdc.c ****   */
 422:./Libraries/STM32_USB_Host_Library/Class/CDC/Src/usbh_cdc.c **** static USBH_StatusTypeDef USBH_CDC_SOFProcess(USBH_HandleTypeDef *phost)
 423:./Libraries/STM32_USB_Host_Library/Class/CDC/Src/usbh_cdc.c **** {
 870              		.loc 1 423 1
 871              		.cfi_startproc
 872              		@ args = 0, pretend = 0, frame = 8
 873              		@ frame_needed = 1, uses_anonymous_args = 0
 874              		@ link register save eliminated.
 875 0000 80B4     		push	{r7}
 876              	.LCFI20:
 877              		.cfi_def_cfa_offset 4
 878              		.cfi_offset 7, -4
 879 0002 83B0     		sub	sp, sp, #12
 880              	.LCFI21:
 881              		.cfi_def_cfa_offset 16
 882 0004 00AF     		add	r7, sp, #0
 883              	.LCFI22:
 884              		.cfi_def_cfa_register 7
 885 0006 7860     		str	r0, [r7, #4]
 424:./Libraries/STM32_USB_Host_Library/Class/CDC/Src/usbh_cdc.c ****   /* Prevent unused argument(s) compilation warning */
 425:./Libraries/STM32_USB_Host_Library/Class/CDC/Src/usbh_cdc.c ****   UNUSED(phost);
 426:./Libraries/STM32_USB_Host_Library/Class/CDC/Src/usbh_cdc.c **** 
 427:./Libraries/STM32_USB_Host_Library/Class/CDC/Src/usbh_cdc.c ****   return USBH_OK;
ARM GAS  /tmp/ccN0aLJN.s 			page 24


 886              		.loc 1 427 10
 887 0008 0023     		movs	r3, #0
 428:./Libraries/STM32_USB_Host_Library/Class/CDC/Src/usbh_cdc.c **** }
 888              		.loc 1 428 1
 889 000a 1846     		mov	r0, r3
 890 000c 0C37     		adds	r7, r7, #12
 891              	.LCFI23:
 892              		.cfi_def_cfa_offset 4
 893 000e BD46     		mov	sp, r7
 894              	.LCFI24:
 895              		.cfi_def_cfa_register 13
 896              		@ sp needed
 897 0010 5DF8047B 		ldr	r7, [sp], #4
 898              	.LCFI25:
 899              		.cfi_restore 7
 900              		.cfi_def_cfa_offset 0
 901 0014 7047     		bx	lr
 902              		.cfi_endproc
 903              	.LFE342:
 905              		.section	.text.USBH_CDC_Stop,"ax",%progbits
 906              		.align	1
 907              		.global	USBH_CDC_Stop
 908              		.syntax unified
 909              		.thumb
 910              		.thumb_func
 911              		.fpu fpv5-d16
 913              	USBH_CDC_Stop:
 914              	.LFB343:
 429:./Libraries/STM32_USB_Host_Library/Class/CDC/Src/usbh_cdc.c **** 
 430:./Libraries/STM32_USB_Host_Library/Class/CDC/Src/usbh_cdc.c **** 
 431:./Libraries/STM32_USB_Host_Library/Class/CDC/Src/usbh_cdc.c **** /**
 432:./Libraries/STM32_USB_Host_Library/Class/CDC/Src/usbh_cdc.c ****   * @brief  USBH_CDC_Stop
 433:./Libraries/STM32_USB_Host_Library/Class/CDC/Src/usbh_cdc.c ****   *         Stop current CDC Transmission
 434:./Libraries/STM32_USB_Host_Library/Class/CDC/Src/usbh_cdc.c ****   * @param  phost: Host handle
 435:./Libraries/STM32_USB_Host_Library/Class/CDC/Src/usbh_cdc.c ****   * @retval USBH Status
 436:./Libraries/STM32_USB_Host_Library/Class/CDC/Src/usbh_cdc.c ****   */
 437:./Libraries/STM32_USB_Host_Library/Class/CDC/Src/usbh_cdc.c **** USBH_StatusTypeDef  USBH_CDC_Stop(USBH_HandleTypeDef *phost)
 438:./Libraries/STM32_USB_Host_Library/Class/CDC/Src/usbh_cdc.c **** {
 915              		.loc 1 438 1
 916              		.cfi_startproc
 917              		@ args = 0, pretend = 0, frame = 16
 918              		@ frame_needed = 1, uses_anonymous_args = 0
 919 0000 80B5     		push	{r7, lr}
 920              	.LCFI26:
 921              		.cfi_def_cfa_offset 8
 922              		.cfi_offset 7, -8
 923              		.cfi_offset 14, -4
 924 0002 84B0     		sub	sp, sp, #16
 925              	.LCFI27:
 926              		.cfi_def_cfa_offset 24
 927 0004 00AF     		add	r7, sp, #0
 928              	.LCFI28:
 929              		.cfi_def_cfa_register 7
 930 0006 7860     		str	r0, [r7, #4]
 439:./Libraries/STM32_USB_Host_Library/Class/CDC/Src/usbh_cdc.c ****   CDC_HandleTypeDef *CDC_Handle = (CDC_HandleTypeDef *) phost->pActiveClass->pData;
 931              		.loc 1 439 62
 932 0008 7B68     		ldr	r3, [r7, #4]
ARM GAS  /tmp/ccN0aLJN.s 			page 25


 933 000a D3F87C34 		ldr	r3, [r3, #1148]
 934              		.loc 1 439 22
 935 000e DB69     		ldr	r3, [r3, #28]
 936 0010 FB60     		str	r3, [r7, #12]
 440:./Libraries/STM32_USB_Host_Library/Class/CDC/Src/usbh_cdc.c **** 
 441:./Libraries/STM32_USB_Host_Library/Class/CDC/Src/usbh_cdc.c ****   if (phost->gState == HOST_CLASS)
 937              		.loc 1 441 12
 938 0012 7B68     		ldr	r3, [r7, #4]
 939 0014 1B78     		ldrb	r3, [r3]
 940 0016 DBB2     		uxtb	r3, r3
 941              		.loc 1 441 6
 942 0018 0B2B     		cmp	r3, #11
 943 001a 15D1     		bne	.L45
 442:./Libraries/STM32_USB_Host_Library/Class/CDC/Src/usbh_cdc.c ****   {
 443:./Libraries/STM32_USB_Host_Library/Class/CDC/Src/usbh_cdc.c ****     CDC_Handle->state = CDC_IDLE_STATE;
 944              		.loc 1 443 23
 945 001c FB68     		ldr	r3, [r7, #12]
 946 001e 0022     		movs	r2, #0
 947 0020 83F84C20 		strb	r2, [r3, #76]
 444:./Libraries/STM32_USB_Host_Library/Class/CDC/Src/usbh_cdc.c **** 
 445:./Libraries/STM32_USB_Host_Library/Class/CDC/Src/usbh_cdc.c ****     USBH_ClosePipe(phost, CDC_Handle->CommItf.NotifPipe);
 948              		.loc 1 445 5
 949 0024 FB68     		ldr	r3, [r7, #12]
 950 0026 1B78     		ldrb	r3, [r3]	@ zero_extendqisi2
 951 0028 1946     		mov	r1, r3
 952 002a 7868     		ldr	r0, [r7, #4]
 953 002c FFF7FEFF 		bl	USBH_ClosePipe
 446:./Libraries/STM32_USB_Host_Library/Class/CDC/Src/usbh_cdc.c ****     USBH_ClosePipe(phost, CDC_Handle->DataItf.InPipe);
 954              		.loc 1 446 5
 955 0030 FB68     		ldr	r3, [r7, #12]
 956 0032 1B7B     		ldrb	r3, [r3, #12]	@ zero_extendqisi2
 957 0034 1946     		mov	r1, r3
 958 0036 7868     		ldr	r0, [r7, #4]
 959 0038 FFF7FEFF 		bl	USBH_ClosePipe
 447:./Libraries/STM32_USB_Host_Library/Class/CDC/Src/usbh_cdc.c ****     USBH_ClosePipe(phost, CDC_Handle->DataItf.OutPipe);
 960              		.loc 1 447 5
 961 003c FB68     		ldr	r3, [r7, #12]
 962 003e 5B7B     		ldrb	r3, [r3, #13]	@ zero_extendqisi2
 963 0040 1946     		mov	r1, r3
 964 0042 7868     		ldr	r0, [r7, #4]
 965 0044 FFF7FEFF 		bl	USBH_ClosePipe
 966              	.L45:
 448:./Libraries/STM32_USB_Host_Library/Class/CDC/Src/usbh_cdc.c ****   }
 449:./Libraries/STM32_USB_Host_Library/Class/CDC/Src/usbh_cdc.c ****   return USBH_OK;
 967              		.loc 1 449 10
 968 0048 0023     		movs	r3, #0
 450:./Libraries/STM32_USB_Host_Library/Class/CDC/Src/usbh_cdc.c **** }
 969              		.loc 1 450 1
 970 004a 1846     		mov	r0, r3
 971 004c 1037     		adds	r7, r7, #16
 972              	.LCFI29:
 973              		.cfi_def_cfa_offset 8
 974 004e BD46     		mov	sp, r7
 975              	.LCFI30:
 976              		.cfi_def_cfa_register 13
 977              		@ sp needed
 978 0050 80BD     		pop	{r7, pc}
ARM GAS  /tmp/ccN0aLJN.s 			page 26


 979              		.cfi_endproc
 980              	.LFE343:
 982              		.section	.text.GetLineCoding,"ax",%progbits
 983              		.align	1
 984              		.syntax unified
 985              		.thumb
 986              		.thumb_func
 987              		.fpu fpv5-d16
 989              	GetLineCoding:
 990              	.LFB344:
 451:./Libraries/STM32_USB_Host_Library/Class/CDC/Src/usbh_cdc.c **** /**
 452:./Libraries/STM32_USB_Host_Library/Class/CDC/Src/usbh_cdc.c ****   * @brief  This request allows the host to find out the currently
 453:./Libraries/STM32_USB_Host_Library/Class/CDC/Src/usbh_cdc.c ****   *         configured line coding.
 454:./Libraries/STM32_USB_Host_Library/Class/CDC/Src/usbh_cdc.c ****   * @param  pdev: Selected device
 455:./Libraries/STM32_USB_Host_Library/Class/CDC/Src/usbh_cdc.c ****   * @retval USBH_StatusTypeDef : USB ctl xfer status
 456:./Libraries/STM32_USB_Host_Library/Class/CDC/Src/usbh_cdc.c ****   */
 457:./Libraries/STM32_USB_Host_Library/Class/CDC/Src/usbh_cdc.c **** static USBH_StatusTypeDef GetLineCoding(USBH_HandleTypeDef *phost, CDC_LineCodingTypeDef *linecodin
 458:./Libraries/STM32_USB_Host_Library/Class/CDC/Src/usbh_cdc.c **** {
 991              		.loc 1 458 1
 992              		.cfi_startproc
 993              		@ args = 0, pretend = 0, frame = 8
 994              		@ frame_needed = 1, uses_anonymous_args = 0
 995 0000 80B5     		push	{r7, lr}
 996              	.LCFI31:
 997              		.cfi_def_cfa_offset 8
 998              		.cfi_offset 7, -8
 999              		.cfi_offset 14, -4
 1000 0002 82B0     		sub	sp, sp, #8
 1001              	.LCFI32:
 1002              		.cfi_def_cfa_offset 16
 1003 0004 00AF     		add	r7, sp, #0
 1004              	.LCFI33:
 1005              		.cfi_def_cfa_register 7
 1006 0006 7860     		str	r0, [r7, #4]
 1007 0008 3960     		str	r1, [r7]
 459:./Libraries/STM32_USB_Host_Library/Class/CDC/Src/usbh_cdc.c **** 
 460:./Libraries/STM32_USB_Host_Library/Class/CDC/Src/usbh_cdc.c ****   phost->Control.setup.b.bmRequestType = USB_D2H | USB_REQ_TYPE_CLASS | \
 1008              		.loc 1 460 40
 1009 000a 7B68     		ldr	r3, [r7, #4]
 1010 000c A122     		movs	r2, #161
 1011 000e 1A74     		strb	r2, [r3, #16]
 461:./Libraries/STM32_USB_Host_Library/Class/CDC/Src/usbh_cdc.c ****                                          USB_REQ_RECIPIENT_INTERFACE;
 462:./Libraries/STM32_USB_Host_Library/Class/CDC/Src/usbh_cdc.c **** 
 463:./Libraries/STM32_USB_Host_Library/Class/CDC/Src/usbh_cdc.c ****   phost->Control.setup.b.bRequest = CDC_GET_LINE_CODING;
 1012              		.loc 1 463 35
 1013 0010 7B68     		ldr	r3, [r7, #4]
 1014 0012 2122     		movs	r2, #33
 1015 0014 5A74     		strb	r2, [r3, #17]
 464:./Libraries/STM32_USB_Host_Library/Class/CDC/Src/usbh_cdc.c ****   phost->Control.setup.b.wValue.w = 0U;
 1016              		.loc 1 464 35
 1017 0016 7B68     		ldr	r3, [r7, #4]
 1018 0018 0022     		movs	r2, #0
 1019 001a 5A82     		strh	r2, [r3, #18]	@ movhi
 465:./Libraries/STM32_USB_Host_Library/Class/CDC/Src/usbh_cdc.c ****   phost->Control.setup.b.wIndex.w = 0U;
 1020              		.loc 1 465 35
 1021 001c 7B68     		ldr	r3, [r7, #4]
 1022 001e 0022     		movs	r2, #0
ARM GAS  /tmp/ccN0aLJN.s 			page 27


 1023 0020 9A82     		strh	r2, [r3, #20]	@ movhi
 466:./Libraries/STM32_USB_Host_Library/Class/CDC/Src/usbh_cdc.c ****   phost->Control.setup.b.wLength.w = LINE_CODING_STRUCTURE_SIZE;
 1024              		.loc 1 466 36
 1025 0022 7B68     		ldr	r3, [r7, #4]
 1026 0024 0722     		movs	r2, #7
 1027 0026 DA82     		strh	r2, [r3, #22]	@ movhi
 467:./Libraries/STM32_USB_Host_Library/Class/CDC/Src/usbh_cdc.c **** 
 468:./Libraries/STM32_USB_Host_Library/Class/CDC/Src/usbh_cdc.c ****   return USBH_CtlReq(phost, linecoding->Array, LINE_CODING_STRUCTURE_SIZE);
 1028              		.loc 1 468 39
 1029 0028 3B68     		ldr	r3, [r7]
 1030              		.loc 1 468 10
 1031 002a 0722     		movs	r2, #7
 1032 002c 1946     		mov	r1, r3
 1033 002e 7868     		ldr	r0, [r7, #4]
 1034 0030 FFF7FEFF 		bl	USBH_CtlReq
 1035 0034 0346     		mov	r3, r0
 469:./Libraries/STM32_USB_Host_Library/Class/CDC/Src/usbh_cdc.c **** }
 1036              		.loc 1 469 1
 1037 0036 1846     		mov	r0, r3
 1038 0038 0837     		adds	r7, r7, #8
 1039              	.LCFI34:
 1040              		.cfi_def_cfa_offset 8
 1041 003a BD46     		mov	sp, r7
 1042              	.LCFI35:
 1043              		.cfi_def_cfa_register 13
 1044              		@ sp needed
 1045 003c 80BD     		pop	{r7, pc}
 1046              		.cfi_endproc
 1047              	.LFE344:
 1049              		.section	.text.SetLineCoding,"ax",%progbits
 1050              		.align	1
 1051              		.syntax unified
 1052              		.thumb
 1053              		.thumb_func
 1054              		.fpu fpv5-d16
 1056              	SetLineCoding:
 1057              	.LFB345:
 470:./Libraries/STM32_USB_Host_Library/Class/CDC/Src/usbh_cdc.c **** 
 471:./Libraries/STM32_USB_Host_Library/Class/CDC/Src/usbh_cdc.c **** 
 472:./Libraries/STM32_USB_Host_Library/Class/CDC/Src/usbh_cdc.c **** /**
 473:./Libraries/STM32_USB_Host_Library/Class/CDC/Src/usbh_cdc.c ****   * @brief  This request allows the host to specify typical asynchronous
 474:./Libraries/STM32_USB_Host_Library/Class/CDC/Src/usbh_cdc.c ****   * line-character formatting properties
 475:./Libraries/STM32_USB_Host_Library/Class/CDC/Src/usbh_cdc.c ****   * This request applies to asynchronous byte stream data class interfaces
 476:./Libraries/STM32_USB_Host_Library/Class/CDC/Src/usbh_cdc.c ****   * and endpoints
 477:./Libraries/STM32_USB_Host_Library/Class/CDC/Src/usbh_cdc.c ****   * @param  pdev: Selected device
 478:./Libraries/STM32_USB_Host_Library/Class/CDC/Src/usbh_cdc.c ****   * @retval USBH_StatusTypeDef : USB ctl xfer status
 479:./Libraries/STM32_USB_Host_Library/Class/CDC/Src/usbh_cdc.c ****   */
 480:./Libraries/STM32_USB_Host_Library/Class/CDC/Src/usbh_cdc.c **** static USBH_StatusTypeDef SetLineCoding(USBH_HandleTypeDef *phost,
 481:./Libraries/STM32_USB_Host_Library/Class/CDC/Src/usbh_cdc.c ****                                         CDC_LineCodingTypeDef *linecoding)
 482:./Libraries/STM32_USB_Host_Library/Class/CDC/Src/usbh_cdc.c **** {
 1058              		.loc 1 482 1
 1059              		.cfi_startproc
 1060              		@ args = 0, pretend = 0, frame = 8
 1061              		@ frame_needed = 1, uses_anonymous_args = 0
 1062 0000 80B5     		push	{r7, lr}
 1063              	.LCFI36:
 1064              		.cfi_def_cfa_offset 8
ARM GAS  /tmp/ccN0aLJN.s 			page 28


 1065              		.cfi_offset 7, -8
 1066              		.cfi_offset 14, -4
 1067 0002 82B0     		sub	sp, sp, #8
 1068              	.LCFI37:
 1069              		.cfi_def_cfa_offset 16
 1070 0004 00AF     		add	r7, sp, #0
 1071              	.LCFI38:
 1072              		.cfi_def_cfa_register 7
 1073 0006 7860     		str	r0, [r7, #4]
 1074 0008 3960     		str	r1, [r7]
 483:./Libraries/STM32_USB_Host_Library/Class/CDC/Src/usbh_cdc.c ****   phost->Control.setup.b.bmRequestType = USB_H2D | USB_REQ_TYPE_CLASS |
 1075              		.loc 1 483 40
 1076 000a 7B68     		ldr	r3, [r7, #4]
 1077 000c 2122     		movs	r2, #33
 1078 000e 1A74     		strb	r2, [r3, #16]
 484:./Libraries/STM32_USB_Host_Library/Class/CDC/Src/usbh_cdc.c ****                                          USB_REQ_RECIPIENT_INTERFACE;
 485:./Libraries/STM32_USB_Host_Library/Class/CDC/Src/usbh_cdc.c **** 
 486:./Libraries/STM32_USB_Host_Library/Class/CDC/Src/usbh_cdc.c ****   phost->Control.setup.b.bRequest = CDC_SET_LINE_CODING;
 1079              		.loc 1 486 35
 1080 0010 7B68     		ldr	r3, [r7, #4]
 1081 0012 2022     		movs	r2, #32
 1082 0014 5A74     		strb	r2, [r3, #17]
 487:./Libraries/STM32_USB_Host_Library/Class/CDC/Src/usbh_cdc.c ****   phost->Control.setup.b.wValue.w = 0U;
 1083              		.loc 1 487 35
 1084 0016 7B68     		ldr	r3, [r7, #4]
 1085 0018 0022     		movs	r2, #0
 1086 001a 5A82     		strh	r2, [r3, #18]	@ movhi
 488:./Libraries/STM32_USB_Host_Library/Class/CDC/Src/usbh_cdc.c **** 
 489:./Libraries/STM32_USB_Host_Library/Class/CDC/Src/usbh_cdc.c ****   phost->Control.setup.b.wIndex.w = 0U;
 1087              		.loc 1 489 35
 1088 001c 7B68     		ldr	r3, [r7, #4]
 1089 001e 0022     		movs	r2, #0
 1090 0020 9A82     		strh	r2, [r3, #20]	@ movhi
 490:./Libraries/STM32_USB_Host_Library/Class/CDC/Src/usbh_cdc.c **** 
 491:./Libraries/STM32_USB_Host_Library/Class/CDC/Src/usbh_cdc.c ****   phost->Control.setup.b.wLength.w = LINE_CODING_STRUCTURE_SIZE;
 1091              		.loc 1 491 36
 1092 0022 7B68     		ldr	r3, [r7, #4]
 1093 0024 0722     		movs	r2, #7
 1094 0026 DA82     		strh	r2, [r3, #22]	@ movhi
 492:./Libraries/STM32_USB_Host_Library/Class/CDC/Src/usbh_cdc.c **** 
 493:./Libraries/STM32_USB_Host_Library/Class/CDC/Src/usbh_cdc.c ****   return USBH_CtlReq(phost, linecoding->Array, LINE_CODING_STRUCTURE_SIZE);
 1095              		.loc 1 493 39
 1096 0028 3B68     		ldr	r3, [r7]
 1097              		.loc 1 493 10
 1098 002a 0722     		movs	r2, #7
 1099 002c 1946     		mov	r1, r3
 1100 002e 7868     		ldr	r0, [r7, #4]
 1101 0030 FFF7FEFF 		bl	USBH_CtlReq
 1102 0034 0346     		mov	r3, r0
 494:./Libraries/STM32_USB_Host_Library/Class/CDC/Src/usbh_cdc.c **** }
 1103              		.loc 1 494 1
 1104 0036 1846     		mov	r0, r3
 1105 0038 0837     		adds	r7, r7, #8
 1106              	.LCFI39:
 1107              		.cfi_def_cfa_offset 8
 1108 003a BD46     		mov	sp, r7
 1109              	.LCFI40:
ARM GAS  /tmp/ccN0aLJN.s 			page 29


 1110              		.cfi_def_cfa_register 13
 1111              		@ sp needed
 1112 003c 80BD     		pop	{r7, pc}
 1113              		.cfi_endproc
 1114              	.LFE345:
 1116              		.section	.text.USBH_CDC_SetLineCoding,"ax",%progbits
 1117              		.align	1
 1118              		.global	USBH_CDC_SetLineCoding
 1119              		.syntax unified
 1120              		.thumb
 1121              		.thumb_func
 1122              		.fpu fpv5-d16
 1124              	USBH_CDC_SetLineCoding:
 1125              	.LFB346:
 495:./Libraries/STM32_USB_Host_Library/Class/CDC/Src/usbh_cdc.c **** 
 496:./Libraries/STM32_USB_Host_Library/Class/CDC/Src/usbh_cdc.c **** /**
 497:./Libraries/STM32_USB_Host_Library/Class/CDC/Src/usbh_cdc.c **** * @brief  This function prepares the state before issuing the class specific commands
 498:./Libraries/STM32_USB_Host_Library/Class/CDC/Src/usbh_cdc.c **** * @param  None
 499:./Libraries/STM32_USB_Host_Library/Class/CDC/Src/usbh_cdc.c **** * @retval None
 500:./Libraries/STM32_USB_Host_Library/Class/CDC/Src/usbh_cdc.c **** */
 501:./Libraries/STM32_USB_Host_Library/Class/CDC/Src/usbh_cdc.c **** USBH_StatusTypeDef USBH_CDC_SetLineCoding(USBH_HandleTypeDef *phost,
 502:./Libraries/STM32_USB_Host_Library/Class/CDC/Src/usbh_cdc.c ****                                           CDC_LineCodingTypeDef *linecoding)
 503:./Libraries/STM32_USB_Host_Library/Class/CDC/Src/usbh_cdc.c **** {
 1126              		.loc 1 503 1
 1127              		.cfi_startproc
 1128              		@ args = 0, pretend = 0, frame = 16
 1129              		@ frame_needed = 1, uses_anonymous_args = 0
 1130 0000 80B5     		push	{r7, lr}
 1131              	.LCFI41:
 1132              		.cfi_def_cfa_offset 8
 1133              		.cfi_offset 7, -8
 1134              		.cfi_offset 14, -4
 1135 0002 84B0     		sub	sp, sp, #16
 1136              	.LCFI42:
 1137              		.cfi_def_cfa_offset 24
 1138 0004 00AF     		add	r7, sp, #0
 1139              	.LCFI43:
 1140              		.cfi_def_cfa_register 7
 1141 0006 7860     		str	r0, [r7, #4]
 1142 0008 3960     		str	r1, [r7]
 504:./Libraries/STM32_USB_Host_Library/Class/CDC/Src/usbh_cdc.c ****   CDC_HandleTypeDef *CDC_Handle = (CDC_HandleTypeDef *) phost->pActiveClass->pData;
 1143              		.loc 1 504 62
 1144 000a 7B68     		ldr	r3, [r7, #4]
 1145 000c D3F87C34 		ldr	r3, [r3, #1148]
 1146              		.loc 1 504 22
 1147 0010 DB69     		ldr	r3, [r3, #28]
 1148 0012 FB60     		str	r3, [r7, #12]
 505:./Libraries/STM32_USB_Host_Library/Class/CDC/Src/usbh_cdc.c **** 
 506:./Libraries/STM32_USB_Host_Library/Class/CDC/Src/usbh_cdc.c ****   if (phost->gState == HOST_CLASS)
 1149              		.loc 1 506 12
 1150 0014 7B68     		ldr	r3, [r7, #4]
 1151 0016 1B78     		ldrb	r3, [r3]
 1152 0018 DBB2     		uxtb	r3, r3
 1153              		.loc 1 506 6
 1154 001a 0B2B     		cmp	r3, #11
 1155 001c 14D1     		bne	.L52
 507:./Libraries/STM32_USB_Host_Library/Class/CDC/Src/usbh_cdc.c ****   {
ARM GAS  /tmp/ccN0aLJN.s 			page 30


 508:./Libraries/STM32_USB_Host_Library/Class/CDC/Src/usbh_cdc.c ****     CDC_Handle->state = CDC_SET_LINE_CODING_STATE;
 1156              		.loc 1 508 23
 1157 001e FB68     		ldr	r3, [r7, #12]
 1158 0020 0122     		movs	r2, #1
 1159 0022 83F84C20 		strb	r2, [r3, #76]
 509:./Libraries/STM32_USB_Host_Library/Class/CDC/Src/usbh_cdc.c ****     CDC_Handle->pUserLineCoding = linecoding;
 1160              		.loc 1 509 33
 1161 0026 FB68     		ldr	r3, [r7, #12]
 1162 0028 3A68     		ldr	r2, [r7]
 1163 002a 9A64     		str	r2, [r3, #72]
 510:./Libraries/STM32_USB_Host_Library/Class/CDC/Src/usbh_cdc.c **** 
 511:./Libraries/STM32_USB_Host_Library/Class/CDC/Src/usbh_cdc.c **** #if (USBH_USE_OS == 1U)
 512:./Libraries/STM32_USB_Host_Library/Class/CDC/Src/usbh_cdc.c ****     phost->os_msg = (uint32_t)USBH_CLASS_EVENT;
 1164              		.loc 1 512 19
 1165 002c 7B68     		ldr	r3, [r7, #4]
 1166 002e 0422     		movs	r2, #4
 1167 0030 C3F8E024 		str	r2, [r3, #1248]
 513:./Libraries/STM32_USB_Host_Library/Class/CDC/Src/usbh_cdc.c **** #if (osCMSIS < 0x20000U)
 514:./Libraries/STM32_USB_Host_Library/Class/CDC/Src/usbh_cdc.c ****     (void)osMessagePut(phost->os_event, phost->os_msg, 0U);
 515:./Libraries/STM32_USB_Host_Library/Class/CDC/Src/usbh_cdc.c **** #else
 516:./Libraries/STM32_USB_Host_Library/Class/CDC/Src/usbh_cdc.c ****     (void)osMessageQueuePut(phost->os_event, &phost->os_msg, 0U, NULL);
 1168              		.loc 1 516 11
 1169 0034 7B68     		ldr	r3, [r7, #4]
 1170 0036 D3F8D804 		ldr	r0, [r3, #1240]
 1171              		.loc 1 516 46
 1172 003a 7B68     		ldr	r3, [r7, #4]
 1173 003c 03F59C61 		add	r1, r3, #1248
 1174              		.loc 1 516 11
 1175 0040 0023     		movs	r3, #0
 1176 0042 0022     		movs	r2, #0
 1177 0044 FFF7FEFF 		bl	osMessageQueuePut
 1178              	.L52:
 517:./Libraries/STM32_USB_Host_Library/Class/CDC/Src/usbh_cdc.c **** #endif
 518:./Libraries/STM32_USB_Host_Library/Class/CDC/Src/usbh_cdc.c **** #endif
 519:./Libraries/STM32_USB_Host_Library/Class/CDC/Src/usbh_cdc.c ****   }
 520:./Libraries/STM32_USB_Host_Library/Class/CDC/Src/usbh_cdc.c **** 
 521:./Libraries/STM32_USB_Host_Library/Class/CDC/Src/usbh_cdc.c ****   return USBH_OK;
 1179              		.loc 1 521 10
 1180 0048 0023     		movs	r3, #0
 522:./Libraries/STM32_USB_Host_Library/Class/CDC/Src/usbh_cdc.c **** }
 1181              		.loc 1 522 1
 1182 004a 1846     		mov	r0, r3
 1183 004c 1037     		adds	r7, r7, #16
 1184              	.LCFI44:
 1185              		.cfi_def_cfa_offset 8
 1186 004e BD46     		mov	sp, r7
 1187              	.LCFI45:
 1188              		.cfi_def_cfa_register 13
 1189              		@ sp needed
 1190 0050 80BD     		pop	{r7, pc}
 1191              		.cfi_endproc
 1192              	.LFE346:
 1194              		.section	.text.USBH_CDC_GetLineCoding,"ax",%progbits
 1195              		.align	1
 1196              		.global	USBH_CDC_GetLineCoding
 1197              		.syntax unified
 1198              		.thumb
ARM GAS  /tmp/ccN0aLJN.s 			page 31


 1199              		.thumb_func
 1200              		.fpu fpv5-d16
 1202              	USBH_CDC_GetLineCoding:
 1203              	.LFB347:
 523:./Libraries/STM32_USB_Host_Library/Class/CDC/Src/usbh_cdc.c **** 
 524:./Libraries/STM32_USB_Host_Library/Class/CDC/Src/usbh_cdc.c **** /**
 525:./Libraries/STM32_USB_Host_Library/Class/CDC/Src/usbh_cdc.c **** * @brief  This function prepares the state before issuing the class specific commands
 526:./Libraries/STM32_USB_Host_Library/Class/CDC/Src/usbh_cdc.c **** * @param  None
 527:./Libraries/STM32_USB_Host_Library/Class/CDC/Src/usbh_cdc.c **** * @retval None
 528:./Libraries/STM32_USB_Host_Library/Class/CDC/Src/usbh_cdc.c **** */
 529:./Libraries/STM32_USB_Host_Library/Class/CDC/Src/usbh_cdc.c **** USBH_StatusTypeDef  USBH_CDC_GetLineCoding(USBH_HandleTypeDef *phost,
 530:./Libraries/STM32_USB_Host_Library/Class/CDC/Src/usbh_cdc.c ****                                            CDC_LineCodingTypeDef *linecoding)
 531:./Libraries/STM32_USB_Host_Library/Class/CDC/Src/usbh_cdc.c **** {
 1204              		.loc 1 531 1
 1205              		.cfi_startproc
 1206              		@ args = 0, pretend = 0, frame = 16
 1207              		@ frame_needed = 1, uses_anonymous_args = 0
 1208              		@ link register save eliminated.
 1209 0000 80B4     		push	{r7}
 1210              	.LCFI46:
 1211              		.cfi_def_cfa_offset 4
 1212              		.cfi_offset 7, -4
 1213 0002 85B0     		sub	sp, sp, #20
 1214              	.LCFI47:
 1215              		.cfi_def_cfa_offset 24
 1216 0004 00AF     		add	r7, sp, #0
 1217              	.LCFI48:
 1218              		.cfi_def_cfa_register 7
 1219 0006 7860     		str	r0, [r7, #4]
 1220 0008 3960     		str	r1, [r7]
 532:./Libraries/STM32_USB_Host_Library/Class/CDC/Src/usbh_cdc.c ****   CDC_HandleTypeDef *CDC_Handle = (CDC_HandleTypeDef *) phost->pActiveClass->pData;
 1221              		.loc 1 532 62
 1222 000a 7B68     		ldr	r3, [r7, #4]
 1223 000c D3F87C34 		ldr	r3, [r3, #1148]
 1224              		.loc 1 532 22
 1225 0010 DB69     		ldr	r3, [r3, #28]
 1226 0012 FB60     		str	r3, [r7, #12]
 533:./Libraries/STM32_USB_Host_Library/Class/CDC/Src/usbh_cdc.c **** 
 534:./Libraries/STM32_USB_Host_Library/Class/CDC/Src/usbh_cdc.c ****   if ((phost->gState == HOST_CLASS) || (phost->gState == HOST_CLASS_REQUEST))
 1227              		.loc 1 534 13
 1228 0014 7B68     		ldr	r3, [r7, #4]
 1229 0016 1B78     		ldrb	r3, [r3]
 1230 0018 DBB2     		uxtb	r3, r3
 1231              		.loc 1 534 6
 1232 001a 0B2B     		cmp	r3, #11
 1233 001c 04D0     		beq	.L55
 1234              		.loc 1 534 46 discriminator 1
 1235 001e 7B68     		ldr	r3, [r7, #4]
 1236 0020 1B78     		ldrb	r3, [r3]
 1237 0022 DBB2     		uxtb	r3, r3
 1238              		.loc 1 534 37 discriminator 1
 1239 0024 062B     		cmp	r3, #6
 1240 0026 08D1     		bne	.L56
 1241              	.L55:
 535:./Libraries/STM32_USB_Host_Library/Class/CDC/Src/usbh_cdc.c ****   {
 536:./Libraries/STM32_USB_Host_Library/Class/CDC/Src/usbh_cdc.c ****     *linecoding = CDC_Handle->LineCoding;
 1242              		.loc 1 536 17
ARM GAS  /tmp/ccN0aLJN.s 			page 32


 1243 0028 3A68     		ldr	r2, [r7]
 1244 002a FB68     		ldr	r3, [r7, #12]
 1245 002c 4033     		adds	r3, r3, #64
 1246 002e 93E80300 		ldm	r3, {r0, r1}
 1247 0032 82E80300 		stm	r2, {r0, r1}
 537:./Libraries/STM32_USB_Host_Library/Class/CDC/Src/usbh_cdc.c ****     return USBH_OK;
 1248              		.loc 1 537 12
 1249 0036 0023     		movs	r3, #0
 1250 0038 00E0     		b	.L57
 1251              	.L56:
 538:./Libraries/STM32_USB_Host_Library/Class/CDC/Src/usbh_cdc.c ****   }
 539:./Libraries/STM32_USB_Host_Library/Class/CDC/Src/usbh_cdc.c ****   else
 540:./Libraries/STM32_USB_Host_Library/Class/CDC/Src/usbh_cdc.c ****   {
 541:./Libraries/STM32_USB_Host_Library/Class/CDC/Src/usbh_cdc.c ****     return USBH_FAIL;
 1252              		.loc 1 541 12
 1253 003a 0223     		movs	r3, #2
 1254              	.L57:
 542:./Libraries/STM32_USB_Host_Library/Class/CDC/Src/usbh_cdc.c ****   }
 543:./Libraries/STM32_USB_Host_Library/Class/CDC/Src/usbh_cdc.c **** }
 1255              		.loc 1 543 1
 1256 003c 1846     		mov	r0, r3
 1257 003e 1437     		adds	r7, r7, #20
 1258              	.LCFI49:
 1259              		.cfi_def_cfa_offset 4
 1260 0040 BD46     		mov	sp, r7
 1261              	.LCFI50:
 1262              		.cfi_def_cfa_register 13
 1263              		@ sp needed
 1264 0042 5DF8047B 		ldr	r7, [sp], #4
 1265              	.LCFI51:
 1266              		.cfi_restore 7
 1267              		.cfi_def_cfa_offset 0
 1268 0046 7047     		bx	lr
 1269              		.cfi_endproc
 1270              	.LFE347:
 1272              		.section	.text.USBH_CDC_GetLastReceivedDataSize,"ax",%progbits
 1273              		.align	1
 1274              		.global	USBH_CDC_GetLastReceivedDataSize
 1275              		.syntax unified
 1276              		.thumb
 1277              		.thumb_func
 1278              		.fpu fpv5-d16
 1280              	USBH_CDC_GetLastReceivedDataSize:
 1281              	.LFB348:
 544:./Libraries/STM32_USB_Host_Library/Class/CDC/Src/usbh_cdc.c **** 
 545:./Libraries/STM32_USB_Host_Library/Class/CDC/Src/usbh_cdc.c **** /**
 546:./Libraries/STM32_USB_Host_Library/Class/CDC/Src/usbh_cdc.c ****   * @brief  This function return last received data size
 547:./Libraries/STM32_USB_Host_Library/Class/CDC/Src/usbh_cdc.c ****   * @param  None
 548:./Libraries/STM32_USB_Host_Library/Class/CDC/Src/usbh_cdc.c ****   * @retval None
 549:./Libraries/STM32_USB_Host_Library/Class/CDC/Src/usbh_cdc.c ****   */
 550:./Libraries/STM32_USB_Host_Library/Class/CDC/Src/usbh_cdc.c **** uint16_t USBH_CDC_GetLastReceivedDataSize(USBH_HandleTypeDef *phost)
 551:./Libraries/STM32_USB_Host_Library/Class/CDC/Src/usbh_cdc.c **** {
 1282              		.loc 1 551 1
 1283              		.cfi_startproc
 1284              		@ args = 0, pretend = 0, frame = 16
 1285              		@ frame_needed = 1, uses_anonymous_args = 0
 1286 0000 80B5     		push	{r7, lr}
ARM GAS  /tmp/ccN0aLJN.s 			page 33


 1287              	.LCFI52:
 1288              		.cfi_def_cfa_offset 8
 1289              		.cfi_offset 7, -8
 1290              		.cfi_offset 14, -4
 1291 0002 84B0     		sub	sp, sp, #16
 1292              	.LCFI53:
 1293              		.cfi_def_cfa_offset 24
 1294 0004 00AF     		add	r7, sp, #0
 1295              	.LCFI54:
 1296              		.cfi_def_cfa_register 7
 1297 0006 7860     		str	r0, [r7, #4]
 552:./Libraries/STM32_USB_Host_Library/Class/CDC/Src/usbh_cdc.c ****   uint32_t dataSize;
 553:./Libraries/STM32_USB_Host_Library/Class/CDC/Src/usbh_cdc.c ****   CDC_HandleTypeDef *CDC_Handle = (CDC_HandleTypeDef *) phost->pActiveClass->pData;
 1298              		.loc 1 553 62
 1299 0008 7B68     		ldr	r3, [r7, #4]
 1300 000a D3F87C34 		ldr	r3, [r3, #1148]
 1301              		.loc 1 553 22
 1302 000e DB69     		ldr	r3, [r3, #28]
 1303 0010 BB60     		str	r3, [r7, #8]
 554:./Libraries/STM32_USB_Host_Library/Class/CDC/Src/usbh_cdc.c **** 
 555:./Libraries/STM32_USB_Host_Library/Class/CDC/Src/usbh_cdc.c ****   if (phost->gState == HOST_CLASS)
 1304              		.loc 1 555 12
 1305 0012 7B68     		ldr	r3, [r7, #4]
 1306 0014 1B78     		ldrb	r3, [r3]
 1307 0016 DBB2     		uxtb	r3, r3
 1308              		.loc 1 555 6
 1309 0018 0B2B     		cmp	r3, #11
 1310 001a 07D1     		bne	.L59
 556:./Libraries/STM32_USB_Host_Library/Class/CDC/Src/usbh_cdc.c ****   {
 557:./Libraries/STM32_USB_Host_Library/Class/CDC/Src/usbh_cdc.c ****     dataSize = USBH_LL_GetLastXferSize(phost, CDC_Handle->DataItf.InPipe);
 1311              		.loc 1 557 16
 1312 001c BB68     		ldr	r3, [r7, #8]
 1313 001e 1B7B     		ldrb	r3, [r3, #12]	@ zero_extendqisi2
 1314 0020 1946     		mov	r1, r3
 1315 0022 7868     		ldr	r0, [r7, #4]
 1316 0024 FFF7FEFF 		bl	USBH_LL_GetLastXferSize
 1317 0028 F860     		str	r0, [r7, #12]
 1318 002a 01E0     		b	.L60
 1319              	.L59:
 558:./Libraries/STM32_USB_Host_Library/Class/CDC/Src/usbh_cdc.c ****   }
 559:./Libraries/STM32_USB_Host_Library/Class/CDC/Src/usbh_cdc.c ****   else
 560:./Libraries/STM32_USB_Host_Library/Class/CDC/Src/usbh_cdc.c ****   {
 561:./Libraries/STM32_USB_Host_Library/Class/CDC/Src/usbh_cdc.c ****     dataSize =  0U;
 1320              		.loc 1 561 14
 1321 002c 0023     		movs	r3, #0
 1322 002e FB60     		str	r3, [r7, #12]
 1323              	.L60:
 562:./Libraries/STM32_USB_Host_Library/Class/CDC/Src/usbh_cdc.c ****   }
 563:./Libraries/STM32_USB_Host_Library/Class/CDC/Src/usbh_cdc.c **** 
 564:./Libraries/STM32_USB_Host_Library/Class/CDC/Src/usbh_cdc.c ****   return (uint16_t)dataSize;
 1324              		.loc 1 564 10
 1325 0030 FB68     		ldr	r3, [r7, #12]
 1326 0032 9BB2     		uxth	r3, r3
 565:./Libraries/STM32_USB_Host_Library/Class/CDC/Src/usbh_cdc.c **** }
 1327              		.loc 1 565 1
 1328 0034 1846     		mov	r0, r3
 1329 0036 1037     		adds	r7, r7, #16
ARM GAS  /tmp/ccN0aLJN.s 			page 34


 1330              	.LCFI55:
 1331              		.cfi_def_cfa_offset 8
 1332 0038 BD46     		mov	sp, r7
 1333              	.LCFI56:
 1334              		.cfi_def_cfa_register 13
 1335              		@ sp needed
 1336 003a 80BD     		pop	{r7, pc}
 1337              		.cfi_endproc
 1338              	.LFE348:
 1340              		.section	.text.USBH_CDC_Transmit,"ax",%progbits
 1341              		.align	1
 1342              		.global	USBH_CDC_Transmit
 1343              		.syntax unified
 1344              		.thumb
 1345              		.thumb_func
 1346              		.fpu fpv5-d16
 1348              	USBH_CDC_Transmit:
 1349              	.LFB349:
 566:./Libraries/STM32_USB_Host_Library/Class/CDC/Src/usbh_cdc.c **** 
 567:./Libraries/STM32_USB_Host_Library/Class/CDC/Src/usbh_cdc.c **** /**
 568:./Libraries/STM32_USB_Host_Library/Class/CDC/Src/usbh_cdc.c ****   * @brief  This function prepares the state before issuing the class specific commands
 569:./Libraries/STM32_USB_Host_Library/Class/CDC/Src/usbh_cdc.c ****   * @param  None
 570:./Libraries/STM32_USB_Host_Library/Class/CDC/Src/usbh_cdc.c ****   * @retval None
 571:./Libraries/STM32_USB_Host_Library/Class/CDC/Src/usbh_cdc.c ****   */
 572:./Libraries/STM32_USB_Host_Library/Class/CDC/Src/usbh_cdc.c **** USBH_StatusTypeDef  USBH_CDC_Transmit(USBH_HandleTypeDef *phost, uint8_t *pbuff, uint32_t length)
 573:./Libraries/STM32_USB_Host_Library/Class/CDC/Src/usbh_cdc.c **** {
 1350              		.loc 1 573 1
 1351              		.cfi_startproc
 1352              		@ args = 0, pretend = 0, frame = 24
 1353              		@ frame_needed = 1, uses_anonymous_args = 0
 1354 0000 80B5     		push	{r7, lr}
 1355              	.LCFI57:
 1356              		.cfi_def_cfa_offset 8
 1357              		.cfi_offset 7, -8
 1358              		.cfi_offset 14, -4
 1359 0002 86B0     		sub	sp, sp, #24
 1360              	.LCFI58:
 1361              		.cfi_def_cfa_offset 32
 1362 0004 00AF     		add	r7, sp, #0
 1363              	.LCFI59:
 1364              		.cfi_def_cfa_register 7
 1365 0006 F860     		str	r0, [r7, #12]
 1366 0008 B960     		str	r1, [r7, #8]
 1367 000a 7A60     		str	r2, [r7, #4]
 574:./Libraries/STM32_USB_Host_Library/Class/CDC/Src/usbh_cdc.c ****   USBH_StatusTypeDef Status = USBH_BUSY;
 1368              		.loc 1 574 22
 1369 000c 0123     		movs	r3, #1
 1370 000e FB75     		strb	r3, [r7, #23]
 575:./Libraries/STM32_USB_Host_Library/Class/CDC/Src/usbh_cdc.c ****   CDC_HandleTypeDef *CDC_Handle = (CDC_HandleTypeDef *) phost->pActiveClass->pData;
 1371              		.loc 1 575 62
 1372 0010 FB68     		ldr	r3, [r7, #12]
 1373 0012 D3F87C34 		ldr	r3, [r3, #1148]
 1374              		.loc 1 575 22
 1375 0016 DB69     		ldr	r3, [r3, #28]
 1376 0018 3B61     		str	r3, [r7, #16]
 576:./Libraries/STM32_USB_Host_Library/Class/CDC/Src/usbh_cdc.c **** 
 577:./Libraries/STM32_USB_Host_Library/Class/CDC/Src/usbh_cdc.c ****   if ((CDC_Handle->state == CDC_IDLE_STATE) || (CDC_Handle->state == CDC_TRANSFER_DATA))
ARM GAS  /tmp/ccN0aLJN.s 			page 35


 1377              		.loc 1 577 18
 1378 001a 3B69     		ldr	r3, [r7, #16]
 1379 001c 93F84C30 		ldrb	r3, [r3, #76]	@ zero_extendqisi2
 1380              		.loc 1 577 6
 1381 0020 002B     		cmp	r3, #0
 1382 0022 04D0     		beq	.L63
 1383              		.loc 1 577 59 discriminator 1
 1384 0024 3B69     		ldr	r3, [r7, #16]
 1385 0026 93F84C30 		ldrb	r3, [r3, #76]	@ zero_extendqisi2
 1386              		.loc 1 577 45 discriminator 1
 1387 002a 032B     		cmp	r3, #3
 1388 002c 1DD1     		bne	.L64
 1389              	.L63:
 578:./Libraries/STM32_USB_Host_Library/Class/CDC/Src/usbh_cdc.c ****   {
 579:./Libraries/STM32_USB_Host_Library/Class/CDC/Src/usbh_cdc.c ****     CDC_Handle->pTxData = pbuff;
 1390              		.loc 1 579 25
 1391 002e 3B69     		ldr	r3, [r7, #16]
 1392 0030 BA68     		ldr	r2, [r7, #8]
 1393 0032 DA61     		str	r2, [r3, #28]
 580:./Libraries/STM32_USB_Host_Library/Class/CDC/Src/usbh_cdc.c ****     CDC_Handle->TxDataLength = length;
 1394              		.loc 1 580 30
 1395 0034 3B69     		ldr	r3, [r7, #16]
 1396 0036 7A68     		ldr	r2, [r7, #4]
 1397 0038 5A62     		str	r2, [r3, #36]
 581:./Libraries/STM32_USB_Host_Library/Class/CDC/Src/usbh_cdc.c ****     CDC_Handle->state = CDC_TRANSFER_DATA;
 1398              		.loc 1 581 23
 1399 003a 3B69     		ldr	r3, [r7, #16]
 1400 003c 0322     		movs	r2, #3
 1401 003e 83F84C20 		strb	r2, [r3, #76]
 582:./Libraries/STM32_USB_Host_Library/Class/CDC/Src/usbh_cdc.c ****     CDC_Handle->data_tx_state = CDC_SEND_DATA;
 1402              		.loc 1 582 31
 1403 0042 3B69     		ldr	r3, [r7, #16]
 1404 0044 0122     		movs	r2, #1
 1405 0046 83F84D20 		strb	r2, [r3, #77]
 583:./Libraries/STM32_USB_Host_Library/Class/CDC/Src/usbh_cdc.c ****     Status = USBH_OK;
 1406              		.loc 1 583 12
 1407 004a 0023     		movs	r3, #0
 1408 004c FB75     		strb	r3, [r7, #23]
 584:./Libraries/STM32_USB_Host_Library/Class/CDC/Src/usbh_cdc.c **** 
 585:./Libraries/STM32_USB_Host_Library/Class/CDC/Src/usbh_cdc.c **** #if (USBH_USE_OS == 1U)
 586:./Libraries/STM32_USB_Host_Library/Class/CDC/Src/usbh_cdc.c ****     phost->os_msg = (uint32_t)USBH_CLASS_EVENT;
 1409              		.loc 1 586 19
 1410 004e FB68     		ldr	r3, [r7, #12]
 1411 0050 0422     		movs	r2, #4
 1412 0052 C3F8E024 		str	r2, [r3, #1248]
 587:./Libraries/STM32_USB_Host_Library/Class/CDC/Src/usbh_cdc.c **** #if (osCMSIS < 0x20000U)
 588:./Libraries/STM32_USB_Host_Library/Class/CDC/Src/usbh_cdc.c ****     (void)osMessagePut(phost->os_event, phost->os_msg, 0U);
 589:./Libraries/STM32_USB_Host_Library/Class/CDC/Src/usbh_cdc.c **** #else
 590:./Libraries/STM32_USB_Host_Library/Class/CDC/Src/usbh_cdc.c ****     (void)osMessageQueuePut(phost->os_event, &phost->os_msg, 0U, NULL);
 1413              		.loc 1 590 11
 1414 0056 FB68     		ldr	r3, [r7, #12]
 1415 0058 D3F8D804 		ldr	r0, [r3, #1240]
 1416              		.loc 1 590 46
 1417 005c FB68     		ldr	r3, [r7, #12]
 1418 005e 03F59C61 		add	r1, r3, #1248
 1419              		.loc 1 590 11
 1420 0062 0023     		movs	r3, #0
ARM GAS  /tmp/ccN0aLJN.s 			page 36


 1421 0064 0022     		movs	r2, #0
 1422 0066 FFF7FEFF 		bl	osMessageQueuePut
 1423              	.L64:
 591:./Libraries/STM32_USB_Host_Library/Class/CDC/Src/usbh_cdc.c **** #endif
 592:./Libraries/STM32_USB_Host_Library/Class/CDC/Src/usbh_cdc.c **** #endif
 593:./Libraries/STM32_USB_Host_Library/Class/CDC/Src/usbh_cdc.c ****   }
 594:./Libraries/STM32_USB_Host_Library/Class/CDC/Src/usbh_cdc.c ****   return Status;
 1424              		.loc 1 594 10
 1425 006a FB7D     		ldrb	r3, [r7, #23]	@ zero_extendqisi2
 595:./Libraries/STM32_USB_Host_Library/Class/CDC/Src/usbh_cdc.c **** }
 1426              		.loc 1 595 1
 1427 006c 1846     		mov	r0, r3
 1428 006e 1837     		adds	r7, r7, #24
 1429              	.LCFI60:
 1430              		.cfi_def_cfa_offset 8
 1431 0070 BD46     		mov	sp, r7
 1432              	.LCFI61:
 1433              		.cfi_def_cfa_register 13
 1434              		@ sp needed
 1435 0072 80BD     		pop	{r7, pc}
 1436              		.cfi_endproc
 1437              	.LFE349:
 1439              		.section	.text.USBH_CDC_Receive,"ax",%progbits
 1440              		.align	1
 1441              		.global	USBH_CDC_Receive
 1442              		.syntax unified
 1443              		.thumb
 1444              		.thumb_func
 1445              		.fpu fpv5-d16
 1447              	USBH_CDC_Receive:
 1448              	.LFB350:
 596:./Libraries/STM32_USB_Host_Library/Class/CDC/Src/usbh_cdc.c **** 
 597:./Libraries/STM32_USB_Host_Library/Class/CDC/Src/usbh_cdc.c **** 
 598:./Libraries/STM32_USB_Host_Library/Class/CDC/Src/usbh_cdc.c **** /**
 599:./Libraries/STM32_USB_Host_Library/Class/CDC/Src/usbh_cdc.c **** * @brief  This function prepares the state before issuing the class specific commands
 600:./Libraries/STM32_USB_Host_Library/Class/CDC/Src/usbh_cdc.c **** * @param  None
 601:./Libraries/STM32_USB_Host_Library/Class/CDC/Src/usbh_cdc.c **** * @retval None
 602:./Libraries/STM32_USB_Host_Library/Class/CDC/Src/usbh_cdc.c **** */
 603:./Libraries/STM32_USB_Host_Library/Class/CDC/Src/usbh_cdc.c **** USBH_StatusTypeDef  USBH_CDC_Receive(USBH_HandleTypeDef *phost, uint8_t *pbuff, uint32_t length)
 604:./Libraries/STM32_USB_Host_Library/Class/CDC/Src/usbh_cdc.c **** {
 1449              		.loc 1 604 1
 1450              		.cfi_startproc
 1451              		@ args = 0, pretend = 0, frame = 24
 1452              		@ frame_needed = 1, uses_anonymous_args = 0
 1453 0000 80B5     		push	{r7, lr}
 1454              	.LCFI62:
 1455              		.cfi_def_cfa_offset 8
 1456              		.cfi_offset 7, -8
 1457              		.cfi_offset 14, -4
 1458 0002 86B0     		sub	sp, sp, #24
 1459              	.LCFI63:
 1460              		.cfi_def_cfa_offset 32
 1461 0004 00AF     		add	r7, sp, #0
 1462              	.LCFI64:
 1463              		.cfi_def_cfa_register 7
 1464 0006 F860     		str	r0, [r7, #12]
 1465 0008 B960     		str	r1, [r7, #8]
ARM GAS  /tmp/ccN0aLJN.s 			page 37


 1466 000a 7A60     		str	r2, [r7, #4]
 605:./Libraries/STM32_USB_Host_Library/Class/CDC/Src/usbh_cdc.c ****   USBH_StatusTypeDef Status = USBH_BUSY;
 1467              		.loc 1 605 22
 1468 000c 0123     		movs	r3, #1
 1469 000e FB75     		strb	r3, [r7, #23]
 606:./Libraries/STM32_USB_Host_Library/Class/CDC/Src/usbh_cdc.c ****   CDC_HandleTypeDef *CDC_Handle = (CDC_HandleTypeDef *) phost->pActiveClass->pData;
 1470              		.loc 1 606 62
 1471 0010 FB68     		ldr	r3, [r7, #12]
 1472 0012 D3F87C34 		ldr	r3, [r3, #1148]
 1473              		.loc 1 606 22
 1474 0016 DB69     		ldr	r3, [r3, #28]
 1475 0018 3B61     		str	r3, [r7, #16]
 607:./Libraries/STM32_USB_Host_Library/Class/CDC/Src/usbh_cdc.c **** 
 608:./Libraries/STM32_USB_Host_Library/Class/CDC/Src/usbh_cdc.c ****   if ((CDC_Handle->state == CDC_IDLE_STATE) || (CDC_Handle->state == CDC_TRANSFER_DATA))
 1476              		.loc 1 608 18
 1477 001a 3B69     		ldr	r3, [r7, #16]
 1478 001c 93F84C30 		ldrb	r3, [r3, #76]	@ zero_extendqisi2
 1479              		.loc 1 608 6
 1480 0020 002B     		cmp	r3, #0
 1481 0022 04D0     		beq	.L67
 1482              		.loc 1 608 59 discriminator 1
 1483 0024 3B69     		ldr	r3, [r7, #16]
 1484 0026 93F84C30 		ldrb	r3, [r3, #76]	@ zero_extendqisi2
 1485              		.loc 1 608 45 discriminator 1
 1486 002a 032B     		cmp	r3, #3
 1487 002c 1DD1     		bne	.L68
 1488              	.L67:
 609:./Libraries/STM32_USB_Host_Library/Class/CDC/Src/usbh_cdc.c ****   {
 610:./Libraries/STM32_USB_Host_Library/Class/CDC/Src/usbh_cdc.c ****     CDC_Handle->pRxData = pbuff;
 1489              		.loc 1 610 25
 1490 002e 3B69     		ldr	r3, [r7, #16]
 1491 0030 BA68     		ldr	r2, [r7, #8]
 1492 0032 1A62     		str	r2, [r3, #32]
 611:./Libraries/STM32_USB_Host_Library/Class/CDC/Src/usbh_cdc.c ****     CDC_Handle->RxDataLength = length;
 1493              		.loc 1 611 30
 1494 0034 3B69     		ldr	r3, [r7, #16]
 1495 0036 7A68     		ldr	r2, [r7, #4]
 1496 0038 9A62     		str	r2, [r3, #40]
 612:./Libraries/STM32_USB_Host_Library/Class/CDC/Src/usbh_cdc.c ****     CDC_Handle->state = CDC_TRANSFER_DATA;
 1497              		.loc 1 612 23
 1498 003a 3B69     		ldr	r3, [r7, #16]
 1499 003c 0322     		movs	r2, #3
 1500 003e 83F84C20 		strb	r2, [r3, #76]
 613:./Libraries/STM32_USB_Host_Library/Class/CDC/Src/usbh_cdc.c ****     CDC_Handle->data_rx_state = CDC_RECEIVE_DATA;
 1501              		.loc 1 613 31
 1502 0042 3B69     		ldr	r3, [r7, #16]
 1503 0044 0322     		movs	r2, #3
 1504 0046 83F84E20 		strb	r2, [r3, #78]
 614:./Libraries/STM32_USB_Host_Library/Class/CDC/Src/usbh_cdc.c ****     Status = USBH_OK;
 1505              		.loc 1 614 12
 1506 004a 0023     		movs	r3, #0
 1507 004c FB75     		strb	r3, [r7, #23]
 615:./Libraries/STM32_USB_Host_Library/Class/CDC/Src/usbh_cdc.c **** 
 616:./Libraries/STM32_USB_Host_Library/Class/CDC/Src/usbh_cdc.c **** #if (USBH_USE_OS == 1U)
 617:./Libraries/STM32_USB_Host_Library/Class/CDC/Src/usbh_cdc.c ****     phost->os_msg = (uint32_t)USBH_CLASS_EVENT;
 1508              		.loc 1 617 19
 1509 004e FB68     		ldr	r3, [r7, #12]
ARM GAS  /tmp/ccN0aLJN.s 			page 38


 1510 0050 0422     		movs	r2, #4
 1511 0052 C3F8E024 		str	r2, [r3, #1248]
 618:./Libraries/STM32_USB_Host_Library/Class/CDC/Src/usbh_cdc.c **** #if (osCMSIS < 0x20000U)
 619:./Libraries/STM32_USB_Host_Library/Class/CDC/Src/usbh_cdc.c ****     (void)osMessagePut(phost->os_event, phost->os_msg, 0U);
 620:./Libraries/STM32_USB_Host_Library/Class/CDC/Src/usbh_cdc.c **** #else
 621:./Libraries/STM32_USB_Host_Library/Class/CDC/Src/usbh_cdc.c ****     (void)osMessageQueuePut(phost->os_event, &phost->os_msg, 0U, NULL);
 1512              		.loc 1 621 11
 1513 0056 FB68     		ldr	r3, [r7, #12]
 1514 0058 D3F8D804 		ldr	r0, [r3, #1240]
 1515              		.loc 1 621 46
 1516 005c FB68     		ldr	r3, [r7, #12]
 1517 005e 03F59C61 		add	r1, r3, #1248
 1518              		.loc 1 621 11
 1519 0062 0023     		movs	r3, #0
 1520 0064 0022     		movs	r2, #0
 1521 0066 FFF7FEFF 		bl	osMessageQueuePut
 1522              	.L68:
 622:./Libraries/STM32_USB_Host_Library/Class/CDC/Src/usbh_cdc.c **** #endif
 623:./Libraries/STM32_USB_Host_Library/Class/CDC/Src/usbh_cdc.c **** #endif
 624:./Libraries/STM32_USB_Host_Library/Class/CDC/Src/usbh_cdc.c ****   }
 625:./Libraries/STM32_USB_Host_Library/Class/CDC/Src/usbh_cdc.c ****   return Status;
 1523              		.loc 1 625 10
 1524 006a FB7D     		ldrb	r3, [r7, #23]	@ zero_extendqisi2
 626:./Libraries/STM32_USB_Host_Library/Class/CDC/Src/usbh_cdc.c **** }
 1525              		.loc 1 626 1
 1526 006c 1846     		mov	r0, r3
 1527 006e 1837     		adds	r7, r7, #24
 1528              	.LCFI65:
 1529              		.cfi_def_cfa_offset 8
 1530 0070 BD46     		mov	sp, r7
 1531              	.LCFI66:
 1532              		.cfi_def_cfa_register 13
 1533              		@ sp needed
 1534 0072 80BD     		pop	{r7, pc}
 1535              		.cfi_endproc
 1536              	.LFE350:
 1538              		.section	.text.CDC_ProcessTransmission,"ax",%progbits
 1539              		.align	1
 1540              		.syntax unified
 1541              		.thumb
 1542              		.thumb_func
 1543              		.fpu fpv5-d16
 1545              	CDC_ProcessTransmission:
 1546              	.LFB351:
 627:./Libraries/STM32_USB_Host_Library/Class/CDC/Src/usbh_cdc.c **** 
 628:./Libraries/STM32_USB_Host_Library/Class/CDC/Src/usbh_cdc.c **** /**
 629:./Libraries/STM32_USB_Host_Library/Class/CDC/Src/usbh_cdc.c **** * @brief  The function is responsible for sending data to the device
 630:./Libraries/STM32_USB_Host_Library/Class/CDC/Src/usbh_cdc.c **** *  @param  pdev: Selected device
 631:./Libraries/STM32_USB_Host_Library/Class/CDC/Src/usbh_cdc.c **** * @retval None
 632:./Libraries/STM32_USB_Host_Library/Class/CDC/Src/usbh_cdc.c **** */
 633:./Libraries/STM32_USB_Host_Library/Class/CDC/Src/usbh_cdc.c **** static void CDC_ProcessTransmission(USBH_HandleTypeDef *phost)
 634:./Libraries/STM32_USB_Host_Library/Class/CDC/Src/usbh_cdc.c **** {
 1547              		.loc 1 634 1
 1548              		.cfi_startproc
 1549              		@ args = 0, pretend = 0, frame = 16
 1550              		@ frame_needed = 1, uses_anonymous_args = 0
 1551 0000 80B5     		push	{r7, lr}
ARM GAS  /tmp/ccN0aLJN.s 			page 39


 1552              	.LCFI67:
 1553              		.cfi_def_cfa_offset 8
 1554              		.cfi_offset 7, -8
 1555              		.cfi_offset 14, -4
 1556 0002 86B0     		sub	sp, sp, #24
 1557              	.LCFI68:
 1558              		.cfi_def_cfa_offset 32
 1559 0004 02AF     		add	r7, sp, #8
 1560              	.LCFI69:
 1561              		.cfi_def_cfa 7, 24
 1562 0006 7860     		str	r0, [r7, #4]
 635:./Libraries/STM32_USB_Host_Library/Class/CDC/Src/usbh_cdc.c ****   CDC_HandleTypeDef *CDC_Handle = (CDC_HandleTypeDef *) phost->pActiveClass->pData;
 1563              		.loc 1 635 62
 1564 0008 7B68     		ldr	r3, [r7, #4]
 1565 000a D3F87C34 		ldr	r3, [r3, #1148]
 1566              		.loc 1 635 22
 1567 000e DB69     		ldr	r3, [r3, #28]
 1568 0010 FB60     		str	r3, [r7, #12]
 636:./Libraries/STM32_USB_Host_Library/Class/CDC/Src/usbh_cdc.c ****   USBH_URBStateTypeDef URB_Status = USBH_URB_IDLE;
 1569              		.loc 1 636 24
 1570 0012 0023     		movs	r3, #0
 1571 0014 FB72     		strb	r3, [r7, #11]
 637:./Libraries/STM32_USB_Host_Library/Class/CDC/Src/usbh_cdc.c **** 
 638:./Libraries/STM32_USB_Host_Library/Class/CDC/Src/usbh_cdc.c ****   switch (CDC_Handle->data_tx_state)
 1572              		.loc 1 638 21
 1573 0016 FB68     		ldr	r3, [r7, #12]
 1574 0018 93F84D30 		ldrb	r3, [r3, #77]	@ zero_extendqisi2
 1575              		.loc 1 638 3
 1576 001c 012B     		cmp	r3, #1
 1577 001e 02D0     		beq	.L71
 1578 0020 022B     		cmp	r3, #2
 1579 0022 23D0     		beq	.L72
 639:./Libraries/STM32_USB_Host_Library/Class/CDC/Src/usbh_cdc.c ****   {
 640:./Libraries/STM32_USB_Host_Library/Class/CDC/Src/usbh_cdc.c ****     case CDC_SEND_DATA:
 641:./Libraries/STM32_USB_Host_Library/Class/CDC/Src/usbh_cdc.c ****       if (CDC_Handle->TxDataLength > CDC_Handle->DataItf.OutEpSize)
 642:./Libraries/STM32_USB_Host_Library/Class/CDC/Src/usbh_cdc.c ****       {
 643:./Libraries/STM32_USB_Host_Library/Class/CDC/Src/usbh_cdc.c ****         USBH_BulkSendData(phost,
 644:./Libraries/STM32_USB_Host_Library/Class/CDC/Src/usbh_cdc.c ****                           CDC_Handle->pTxData,
 645:./Libraries/STM32_USB_Host_Library/Class/CDC/Src/usbh_cdc.c ****                           CDC_Handle->DataItf.OutEpSize,
 646:./Libraries/STM32_USB_Host_Library/Class/CDC/Src/usbh_cdc.c ****                           CDC_Handle->DataItf.OutPipe,
 647:./Libraries/STM32_USB_Host_Library/Class/CDC/Src/usbh_cdc.c ****                           1U);
 648:./Libraries/STM32_USB_Host_Library/Class/CDC/Src/usbh_cdc.c ****       }
 649:./Libraries/STM32_USB_Host_Library/Class/CDC/Src/usbh_cdc.c ****       else
 650:./Libraries/STM32_USB_Host_Library/Class/CDC/Src/usbh_cdc.c ****       {
 651:./Libraries/STM32_USB_Host_Library/Class/CDC/Src/usbh_cdc.c ****         USBH_BulkSendData(phost,
 652:./Libraries/STM32_USB_Host_Library/Class/CDC/Src/usbh_cdc.c ****                           CDC_Handle->pTxData,
 653:./Libraries/STM32_USB_Host_Library/Class/CDC/Src/usbh_cdc.c ****                           (uint16_t)CDC_Handle->TxDataLength,
 654:./Libraries/STM32_USB_Host_Library/Class/CDC/Src/usbh_cdc.c ****                           CDC_Handle->DataItf.OutPipe,
 655:./Libraries/STM32_USB_Host_Library/Class/CDC/Src/usbh_cdc.c ****                           1U);
 656:./Libraries/STM32_USB_Host_Library/Class/CDC/Src/usbh_cdc.c ****       }
 657:./Libraries/STM32_USB_Host_Library/Class/CDC/Src/usbh_cdc.c **** 
 658:./Libraries/STM32_USB_Host_Library/Class/CDC/Src/usbh_cdc.c ****       CDC_Handle->data_tx_state = CDC_SEND_DATA_WAIT;
 659:./Libraries/STM32_USB_Host_Library/Class/CDC/Src/usbh_cdc.c ****       break;
 660:./Libraries/STM32_USB_Host_Library/Class/CDC/Src/usbh_cdc.c **** 
 661:./Libraries/STM32_USB_Host_Library/Class/CDC/Src/usbh_cdc.c ****     case CDC_SEND_DATA_WAIT:
 662:./Libraries/STM32_USB_Host_Library/Class/CDC/Src/usbh_cdc.c **** 
 663:./Libraries/STM32_USB_Host_Library/Class/CDC/Src/usbh_cdc.c ****       URB_Status = USBH_LL_GetURBState(phost, CDC_Handle->DataItf.OutPipe);
ARM GAS  /tmp/ccN0aLJN.s 			page 40


 664:./Libraries/STM32_USB_Host_Library/Class/CDC/Src/usbh_cdc.c **** 
 665:./Libraries/STM32_USB_Host_Library/Class/CDC/Src/usbh_cdc.c ****       /* Check the status done for transmission */
 666:./Libraries/STM32_USB_Host_Library/Class/CDC/Src/usbh_cdc.c ****       if (URB_Status == USBH_URB_DONE)
 667:./Libraries/STM32_USB_Host_Library/Class/CDC/Src/usbh_cdc.c ****       {
 668:./Libraries/STM32_USB_Host_Library/Class/CDC/Src/usbh_cdc.c ****         if (CDC_Handle->TxDataLength > CDC_Handle->DataItf.OutEpSize)
 669:./Libraries/STM32_USB_Host_Library/Class/CDC/Src/usbh_cdc.c ****         {
 670:./Libraries/STM32_USB_Host_Library/Class/CDC/Src/usbh_cdc.c ****           CDC_Handle->TxDataLength -= CDC_Handle->DataItf.OutEpSize;
 671:./Libraries/STM32_USB_Host_Library/Class/CDC/Src/usbh_cdc.c ****           CDC_Handle->pTxData += CDC_Handle->DataItf.OutEpSize;
 672:./Libraries/STM32_USB_Host_Library/Class/CDC/Src/usbh_cdc.c ****         }
 673:./Libraries/STM32_USB_Host_Library/Class/CDC/Src/usbh_cdc.c ****         else
 674:./Libraries/STM32_USB_Host_Library/Class/CDC/Src/usbh_cdc.c ****         {
 675:./Libraries/STM32_USB_Host_Library/Class/CDC/Src/usbh_cdc.c ****           CDC_Handle->TxDataLength = 0U;
 676:./Libraries/STM32_USB_Host_Library/Class/CDC/Src/usbh_cdc.c ****         }
 677:./Libraries/STM32_USB_Host_Library/Class/CDC/Src/usbh_cdc.c **** 
 678:./Libraries/STM32_USB_Host_Library/Class/CDC/Src/usbh_cdc.c ****         if (CDC_Handle->TxDataLength > 0U)
 679:./Libraries/STM32_USB_Host_Library/Class/CDC/Src/usbh_cdc.c ****         {
 680:./Libraries/STM32_USB_Host_Library/Class/CDC/Src/usbh_cdc.c ****           CDC_Handle->data_tx_state = CDC_SEND_DATA;
 681:./Libraries/STM32_USB_Host_Library/Class/CDC/Src/usbh_cdc.c ****         }
 682:./Libraries/STM32_USB_Host_Library/Class/CDC/Src/usbh_cdc.c ****         else
 683:./Libraries/STM32_USB_Host_Library/Class/CDC/Src/usbh_cdc.c ****         {
 684:./Libraries/STM32_USB_Host_Library/Class/CDC/Src/usbh_cdc.c ****           CDC_Handle->data_tx_state = CDC_IDLE;
 685:./Libraries/STM32_USB_Host_Library/Class/CDC/Src/usbh_cdc.c ****           USBH_CDC_TransmitCallback(phost);
 686:./Libraries/STM32_USB_Host_Library/Class/CDC/Src/usbh_cdc.c ****         }
 687:./Libraries/STM32_USB_Host_Library/Class/CDC/Src/usbh_cdc.c **** 
 688:./Libraries/STM32_USB_Host_Library/Class/CDC/Src/usbh_cdc.c **** #if (USBH_USE_OS == 1U)
 689:./Libraries/STM32_USB_Host_Library/Class/CDC/Src/usbh_cdc.c ****         phost->os_msg = (uint32_t)USBH_CLASS_EVENT;
 690:./Libraries/STM32_USB_Host_Library/Class/CDC/Src/usbh_cdc.c **** #if (osCMSIS < 0x20000U)
 691:./Libraries/STM32_USB_Host_Library/Class/CDC/Src/usbh_cdc.c ****         (void)osMessagePut(phost->os_event, phost->os_msg, 0U);
 692:./Libraries/STM32_USB_Host_Library/Class/CDC/Src/usbh_cdc.c **** #else
 693:./Libraries/STM32_USB_Host_Library/Class/CDC/Src/usbh_cdc.c ****         (void)osMessageQueuePut(phost->os_event, &phost->os_msg, 0U, NULL);
 694:./Libraries/STM32_USB_Host_Library/Class/CDC/Src/usbh_cdc.c **** #endif
 695:./Libraries/STM32_USB_Host_Library/Class/CDC/Src/usbh_cdc.c **** #endif
 696:./Libraries/STM32_USB_Host_Library/Class/CDC/Src/usbh_cdc.c ****       }
 697:./Libraries/STM32_USB_Host_Library/Class/CDC/Src/usbh_cdc.c ****       else
 698:./Libraries/STM32_USB_Host_Library/Class/CDC/Src/usbh_cdc.c ****       {
 699:./Libraries/STM32_USB_Host_Library/Class/CDC/Src/usbh_cdc.c ****         if (URB_Status == USBH_URB_NOTREADY)
 700:./Libraries/STM32_USB_Host_Library/Class/CDC/Src/usbh_cdc.c ****         {
 701:./Libraries/STM32_USB_Host_Library/Class/CDC/Src/usbh_cdc.c ****           CDC_Handle->data_tx_state = CDC_SEND_DATA;
 702:./Libraries/STM32_USB_Host_Library/Class/CDC/Src/usbh_cdc.c **** 
 703:./Libraries/STM32_USB_Host_Library/Class/CDC/Src/usbh_cdc.c **** #if (USBH_USE_OS == 1U)
 704:./Libraries/STM32_USB_Host_Library/Class/CDC/Src/usbh_cdc.c ****           phost->os_msg = (uint32_t)USBH_CLASS_EVENT;
 705:./Libraries/STM32_USB_Host_Library/Class/CDC/Src/usbh_cdc.c **** #if (osCMSIS < 0x20000U)
 706:./Libraries/STM32_USB_Host_Library/Class/CDC/Src/usbh_cdc.c ****           (void)osMessagePut(phost->os_event, phost->os_msg, 0U);
 707:./Libraries/STM32_USB_Host_Library/Class/CDC/Src/usbh_cdc.c **** #else
 708:./Libraries/STM32_USB_Host_Library/Class/CDC/Src/usbh_cdc.c ****           (void)osMessageQueuePut(phost->os_event, &phost->os_msg, 0U, NULL);
 709:./Libraries/STM32_USB_Host_Library/Class/CDC/Src/usbh_cdc.c **** #endif
 710:./Libraries/STM32_USB_Host_Library/Class/CDC/Src/usbh_cdc.c **** #endif
 711:./Libraries/STM32_USB_Host_Library/Class/CDC/Src/usbh_cdc.c ****         }
 712:./Libraries/STM32_USB_Host_Library/Class/CDC/Src/usbh_cdc.c ****       }
 713:./Libraries/STM32_USB_Host_Library/Class/CDC/Src/usbh_cdc.c ****       break;
 714:./Libraries/STM32_USB_Host_Library/Class/CDC/Src/usbh_cdc.c **** 
 715:./Libraries/STM32_USB_Host_Library/Class/CDC/Src/usbh_cdc.c ****     default:
 716:./Libraries/STM32_USB_Host_Library/Class/CDC/Src/usbh_cdc.c ****       break;
 1580              		.loc 1 716 7
 1581 0024 7AE0     		b	.L76
 1582              	.L71:
 641:./Libraries/STM32_USB_Host_Library/Class/CDC/Src/usbh_cdc.c ****       {
ARM GAS  /tmp/ccN0aLJN.s 			page 41


 1583              		.loc 1 641 21
 1584 0026 FB68     		ldr	r3, [r7, #12]
 1585 0028 5B6A     		ldr	r3, [r3, #36]
 641:./Libraries/STM32_USB_Host_Library/Class/CDC/Src/usbh_cdc.c ****       {
 1586              		.loc 1 641 57
 1587 002a FA68     		ldr	r2, [r7, #12]
 1588 002c 128B     		ldrh	r2, [r2, #24]
 641:./Libraries/STM32_USB_Host_Library/Class/CDC/Src/usbh_cdc.c ****       {
 1589              		.loc 1 641 10
 1590 002e 9342     		cmp	r3, r2
 1591 0030 0BD9     		bls	.L74
 643:./Libraries/STM32_USB_Host_Library/Class/CDC/Src/usbh_cdc.c ****                           CDC_Handle->pTxData,
 1592              		.loc 1 643 9
 1593 0032 FB68     		ldr	r3, [r7, #12]
 1594 0034 D969     		ldr	r1, [r3, #28]
 1595 0036 FB68     		ldr	r3, [r7, #12]
 1596 0038 1A8B     		ldrh	r2, [r3, #24]
 1597 003a FB68     		ldr	r3, [r7, #12]
 1598 003c 5B7B     		ldrb	r3, [r3, #13]	@ zero_extendqisi2
 1599 003e 0120     		movs	r0, #1
 1600 0040 0090     		str	r0, [sp]
 1601 0042 7868     		ldr	r0, [r7, #4]
 1602 0044 FFF7FEFF 		bl	USBH_BulkSendData
 1603 0048 0BE0     		b	.L75
 1604              	.L74:
 651:./Libraries/STM32_USB_Host_Library/Class/CDC/Src/usbh_cdc.c ****                           CDC_Handle->pTxData,
 1605              		.loc 1 651 9
 1606 004a FB68     		ldr	r3, [r7, #12]
 1607 004c D969     		ldr	r1, [r3, #28]
 653:./Libraries/STM32_USB_Host_Library/Class/CDC/Src/usbh_cdc.c ****                           CDC_Handle->DataItf.OutPipe,
 1608              		.loc 1 653 47
 1609 004e FB68     		ldr	r3, [r7, #12]
 1610 0050 5B6A     		ldr	r3, [r3, #36]
 651:./Libraries/STM32_USB_Host_Library/Class/CDC/Src/usbh_cdc.c ****                           CDC_Handle->pTxData,
 1611              		.loc 1 651 9
 1612 0052 9AB2     		uxth	r2, r3
 1613 0054 FB68     		ldr	r3, [r7, #12]
 1614 0056 5B7B     		ldrb	r3, [r3, #13]	@ zero_extendqisi2
 1615 0058 0120     		movs	r0, #1
 1616 005a 0090     		str	r0, [sp]
 1617 005c 7868     		ldr	r0, [r7, #4]
 1618 005e FFF7FEFF 		bl	USBH_BulkSendData
 1619              	.L75:
 658:./Libraries/STM32_USB_Host_Library/Class/CDC/Src/usbh_cdc.c ****       break;
 1620              		.loc 1 658 33
 1621 0062 FB68     		ldr	r3, [r7, #12]
 1622 0064 0222     		movs	r2, #2
 1623 0066 83F84D20 		strb	r2, [r3, #77]
 659:./Libraries/STM32_USB_Host_Library/Class/CDC/Src/usbh_cdc.c **** 
 1624              		.loc 1 659 7
 1625 006a 57E0     		b	.L76
 1626              	.L72:
 663:./Libraries/STM32_USB_Host_Library/Class/CDC/Src/usbh_cdc.c **** 
 1627              		.loc 1 663 20
 1628 006c FB68     		ldr	r3, [r7, #12]
 1629 006e 5B7B     		ldrb	r3, [r3, #13]	@ zero_extendqisi2
 1630 0070 1946     		mov	r1, r3
ARM GAS  /tmp/ccN0aLJN.s 			page 42


 1631 0072 7868     		ldr	r0, [r7, #4]
 1632 0074 FFF7FEFF 		bl	USBH_LL_GetURBState
 1633 0078 0346     		mov	r3, r0
 1634 007a FB72     		strb	r3, [r7, #11]
 666:./Libraries/STM32_USB_Host_Library/Class/CDC/Src/usbh_cdc.c ****       {
 1635              		.loc 1 666 10
 1636 007c FB7A     		ldrb	r3, [r7, #11]	@ zero_extendqisi2
 1637 007e 012B     		cmp	r3, #1
 1638 0080 36D1     		bne	.L77
 668:./Libraries/STM32_USB_Host_Library/Class/CDC/Src/usbh_cdc.c ****         {
 1639              		.loc 1 668 23
 1640 0082 FB68     		ldr	r3, [r7, #12]
 1641 0084 5B6A     		ldr	r3, [r3, #36]
 668:./Libraries/STM32_USB_Host_Library/Class/CDC/Src/usbh_cdc.c ****         {
 1642              		.loc 1 668 59
 1643 0086 FA68     		ldr	r2, [r7, #12]
 1644 0088 128B     		ldrh	r2, [r2, #24]
 668:./Libraries/STM32_USB_Host_Library/Class/CDC/Src/usbh_cdc.c ****         {
 1645              		.loc 1 668 12
 1646 008a 9342     		cmp	r3, r2
 1647 008c 0ED9     		bls	.L78
 670:./Libraries/STM32_USB_Host_Library/Class/CDC/Src/usbh_cdc.c ****           CDC_Handle->pTxData += CDC_Handle->DataItf.OutEpSize;
 1648              		.loc 1 670 36
 1649 008e FB68     		ldr	r3, [r7, #12]
 1650 0090 5B6A     		ldr	r3, [r3, #36]
 670:./Libraries/STM32_USB_Host_Library/Class/CDC/Src/usbh_cdc.c ****           CDC_Handle->pTxData += CDC_Handle->DataItf.OutEpSize;
 1651              		.loc 1 670 58
 1652 0092 FA68     		ldr	r2, [r7, #12]
 1653 0094 128B     		ldrh	r2, [r2, #24]
 670:./Libraries/STM32_USB_Host_Library/Class/CDC/Src/usbh_cdc.c ****           CDC_Handle->pTxData += CDC_Handle->DataItf.OutEpSize;
 1654              		.loc 1 670 36
 1655 0096 9A1A     		subs	r2, r3, r2
 1656 0098 FB68     		ldr	r3, [r7, #12]
 1657 009a 5A62     		str	r2, [r3, #36]
 671:./Libraries/STM32_USB_Host_Library/Class/CDC/Src/usbh_cdc.c ****         }
 1658              		.loc 1 671 31
 1659 009c FB68     		ldr	r3, [r7, #12]
 1660 009e DB69     		ldr	r3, [r3, #28]
 671:./Libraries/STM32_USB_Host_Library/Class/CDC/Src/usbh_cdc.c ****         }
 1661              		.loc 1 671 53
 1662 00a0 FA68     		ldr	r2, [r7, #12]
 1663 00a2 128B     		ldrh	r2, [r2, #24]
 671:./Libraries/STM32_USB_Host_Library/Class/CDC/Src/usbh_cdc.c ****         }
 1664              		.loc 1 671 31
 1665 00a4 1A44     		add	r2, r2, r3
 1666 00a6 FB68     		ldr	r3, [r7, #12]
 1667 00a8 DA61     		str	r2, [r3, #28]
 1668 00aa 02E0     		b	.L79
 1669              	.L78:
 675:./Libraries/STM32_USB_Host_Library/Class/CDC/Src/usbh_cdc.c ****         }
 1670              		.loc 1 675 36
 1671 00ac FB68     		ldr	r3, [r7, #12]
 1672 00ae 0022     		movs	r2, #0
 1673 00b0 5A62     		str	r2, [r3, #36]
 1674              	.L79:
 678:./Libraries/STM32_USB_Host_Library/Class/CDC/Src/usbh_cdc.c ****         {
 1675              		.loc 1 678 23
ARM GAS  /tmp/ccN0aLJN.s 			page 43


 1676 00b2 FB68     		ldr	r3, [r7, #12]
 1677 00b4 5B6A     		ldr	r3, [r3, #36]
 678:./Libraries/STM32_USB_Host_Library/Class/CDC/Src/usbh_cdc.c ****         {
 1678              		.loc 1 678 12
 1679 00b6 002B     		cmp	r3, #0
 1680 00b8 04D0     		beq	.L80
 680:./Libraries/STM32_USB_Host_Library/Class/CDC/Src/usbh_cdc.c ****         }
 1681              		.loc 1 680 37
 1682 00ba FB68     		ldr	r3, [r7, #12]
 1683 00bc 0122     		movs	r2, #1
 1684 00be 83F84D20 		strb	r2, [r3, #77]
 1685 00c2 06E0     		b	.L81
 1686              	.L80:
 684:./Libraries/STM32_USB_Host_Library/Class/CDC/Src/usbh_cdc.c ****           USBH_CDC_TransmitCallback(phost);
 1687              		.loc 1 684 37
 1688 00c4 FB68     		ldr	r3, [r7, #12]
 1689 00c6 0022     		movs	r2, #0
 1690 00c8 83F84D20 		strb	r2, [r3, #77]
 685:./Libraries/STM32_USB_Host_Library/Class/CDC/Src/usbh_cdc.c ****         }
 1691              		.loc 1 685 11
 1692 00cc 7868     		ldr	r0, [r7, #4]
 1693 00ce FFF7FEFF 		bl	USBH_CDC_TransmitCallback
 1694              	.L81:
 689:./Libraries/STM32_USB_Host_Library/Class/CDC/Src/usbh_cdc.c **** #if (osCMSIS < 0x20000U)
 1695              		.loc 1 689 23
 1696 00d2 7B68     		ldr	r3, [r7, #4]
 1697 00d4 0422     		movs	r2, #4
 1698 00d6 C3F8E024 		str	r2, [r3, #1248]
 693:./Libraries/STM32_USB_Host_Library/Class/CDC/Src/usbh_cdc.c **** #endif
 1699              		.loc 1 693 15
 1700 00da 7B68     		ldr	r3, [r7, #4]
 1701 00dc D3F8D804 		ldr	r0, [r3, #1240]
 693:./Libraries/STM32_USB_Host_Library/Class/CDC/Src/usbh_cdc.c **** #endif
 1702              		.loc 1 693 50
 1703 00e0 7B68     		ldr	r3, [r7, #4]
 1704 00e2 03F59C61 		add	r1, r3, #1248
 693:./Libraries/STM32_USB_Host_Library/Class/CDC/Src/usbh_cdc.c **** #endif
 1705              		.loc 1 693 15
 1706 00e6 0023     		movs	r3, #0
 1707 00e8 0022     		movs	r2, #0
 1708 00ea FFF7FEFF 		bl	osMessageQueuePut
 713:./Libraries/STM32_USB_Host_Library/Class/CDC/Src/usbh_cdc.c **** 
 1709              		.loc 1 713 7
 1710 00ee 14E0     		b	.L83
 1711              	.L77:
 699:./Libraries/STM32_USB_Host_Library/Class/CDC/Src/usbh_cdc.c ****         {
 1712              		.loc 1 699 12
 1713 00f0 FB7A     		ldrb	r3, [r7, #11]	@ zero_extendqisi2
 1714 00f2 022B     		cmp	r3, #2
 1715 00f4 11D1     		bne	.L83
 701:./Libraries/STM32_USB_Host_Library/Class/CDC/Src/usbh_cdc.c **** 
 1716              		.loc 1 701 37
 1717 00f6 FB68     		ldr	r3, [r7, #12]
 1718 00f8 0122     		movs	r2, #1
 1719 00fa 83F84D20 		strb	r2, [r3, #77]
 704:./Libraries/STM32_USB_Host_Library/Class/CDC/Src/usbh_cdc.c **** #if (osCMSIS < 0x20000U)
 1720              		.loc 1 704 25
ARM GAS  /tmp/ccN0aLJN.s 			page 44


 1721 00fe 7B68     		ldr	r3, [r7, #4]
 1722 0100 0422     		movs	r2, #4
 1723 0102 C3F8E024 		str	r2, [r3, #1248]
 708:./Libraries/STM32_USB_Host_Library/Class/CDC/Src/usbh_cdc.c **** #endif
 1724              		.loc 1 708 17
 1725 0106 7B68     		ldr	r3, [r7, #4]
 1726 0108 D3F8D804 		ldr	r0, [r3, #1240]
 708:./Libraries/STM32_USB_Host_Library/Class/CDC/Src/usbh_cdc.c **** #endif
 1727              		.loc 1 708 52
 1728 010c 7B68     		ldr	r3, [r7, #4]
 1729 010e 03F59C61 		add	r1, r3, #1248
 708:./Libraries/STM32_USB_Host_Library/Class/CDC/Src/usbh_cdc.c **** #endif
 1730              		.loc 1 708 17
 1731 0112 0023     		movs	r3, #0
 1732 0114 0022     		movs	r2, #0
 1733 0116 FFF7FEFF 		bl	osMessageQueuePut
 1734              	.L83:
 713:./Libraries/STM32_USB_Host_Library/Class/CDC/Src/usbh_cdc.c **** 
 1735              		.loc 1 713 7
 1736 011a 00BF     		nop
 1737              	.L76:
 717:./Libraries/STM32_USB_Host_Library/Class/CDC/Src/usbh_cdc.c ****   }
 718:./Libraries/STM32_USB_Host_Library/Class/CDC/Src/usbh_cdc.c **** }
 1738              		.loc 1 718 1
 1739 011c 00BF     		nop
 1740 011e 1037     		adds	r7, r7, #16
 1741              	.LCFI70:
 1742              		.cfi_def_cfa_offset 8
 1743 0120 BD46     		mov	sp, r7
 1744              	.LCFI71:
 1745              		.cfi_def_cfa_register 13
 1746              		@ sp needed
 1747 0122 80BD     		pop	{r7, pc}
 1748              		.cfi_endproc
 1749              	.LFE351:
 1751              		.section	.text.CDC_ProcessReception,"ax",%progbits
 1752              		.align	1
 1753              		.syntax unified
 1754              		.thumb
 1755              		.thumb_func
 1756              		.fpu fpv5-d16
 1758              	CDC_ProcessReception:
 1759              	.LFB352:
 719:./Libraries/STM32_USB_Host_Library/Class/CDC/Src/usbh_cdc.c **** /**
 720:./Libraries/STM32_USB_Host_Library/Class/CDC/Src/usbh_cdc.c **** * @brief  This function responsible for reception of data from the device
 721:./Libraries/STM32_USB_Host_Library/Class/CDC/Src/usbh_cdc.c **** *  @param  pdev: Selected device
 722:./Libraries/STM32_USB_Host_Library/Class/CDC/Src/usbh_cdc.c **** * @retval None
 723:./Libraries/STM32_USB_Host_Library/Class/CDC/Src/usbh_cdc.c **** */
 724:./Libraries/STM32_USB_Host_Library/Class/CDC/Src/usbh_cdc.c **** 
 725:./Libraries/STM32_USB_Host_Library/Class/CDC/Src/usbh_cdc.c **** static void CDC_ProcessReception(USBH_HandleTypeDef *phost)
 726:./Libraries/STM32_USB_Host_Library/Class/CDC/Src/usbh_cdc.c **** {
 1760              		.loc 1 726 1
 1761              		.cfi_startproc
 1762              		@ args = 0, pretend = 0, frame = 24
 1763              		@ frame_needed = 1, uses_anonymous_args = 0
 1764 0000 80B5     		push	{r7, lr}
 1765              	.LCFI72:
ARM GAS  /tmp/ccN0aLJN.s 			page 45


 1766              		.cfi_def_cfa_offset 8
 1767              		.cfi_offset 7, -8
 1768              		.cfi_offset 14, -4
 1769 0002 86B0     		sub	sp, sp, #24
 1770              	.LCFI73:
 1771              		.cfi_def_cfa_offset 32
 1772 0004 00AF     		add	r7, sp, #0
 1773              	.LCFI74:
 1774              		.cfi_def_cfa_register 7
 1775 0006 7860     		str	r0, [r7, #4]
 727:./Libraries/STM32_USB_Host_Library/Class/CDC/Src/usbh_cdc.c ****   CDC_HandleTypeDef *CDC_Handle = (CDC_HandleTypeDef *) phost->pActiveClass->pData;
 1776              		.loc 1 727 62
 1777 0008 7B68     		ldr	r3, [r7, #4]
 1778 000a D3F87C34 		ldr	r3, [r3, #1148]
 1779              		.loc 1 727 22
 1780 000e DB69     		ldr	r3, [r3, #28]
 1781 0010 7B61     		str	r3, [r7, #20]
 728:./Libraries/STM32_USB_Host_Library/Class/CDC/Src/usbh_cdc.c ****   USBH_URBStateTypeDef URB_Status = USBH_URB_IDLE;
 1782              		.loc 1 728 24
 1783 0012 0023     		movs	r3, #0
 1784 0014 FB74     		strb	r3, [r7, #19]
 729:./Libraries/STM32_USB_Host_Library/Class/CDC/Src/usbh_cdc.c ****   uint32_t length;
 730:./Libraries/STM32_USB_Host_Library/Class/CDC/Src/usbh_cdc.c **** 
 731:./Libraries/STM32_USB_Host_Library/Class/CDC/Src/usbh_cdc.c ****   switch (CDC_Handle->data_rx_state)
 1785              		.loc 1 731 21
 1786 0016 7B69     		ldr	r3, [r7, #20]
 1787 0018 93F84E30 		ldrb	r3, [r3, #78]	@ zero_extendqisi2
 1788              		.loc 1 731 3
 1789 001c 032B     		cmp	r3, #3
 1790 001e 02D0     		beq	.L85
 1791 0020 042B     		cmp	r3, #4
 1792 0022 0ED0     		beq	.L86
 732:./Libraries/STM32_USB_Host_Library/Class/CDC/Src/usbh_cdc.c ****   {
 733:./Libraries/STM32_USB_Host_Library/Class/CDC/Src/usbh_cdc.c **** 
 734:./Libraries/STM32_USB_Host_Library/Class/CDC/Src/usbh_cdc.c ****     case CDC_RECEIVE_DATA:
 735:./Libraries/STM32_USB_Host_Library/Class/CDC/Src/usbh_cdc.c **** 
 736:./Libraries/STM32_USB_Host_Library/Class/CDC/Src/usbh_cdc.c ****       USBH_BulkReceiveData(phost,
 737:./Libraries/STM32_USB_Host_Library/Class/CDC/Src/usbh_cdc.c ****                            CDC_Handle->pRxData,
 738:./Libraries/STM32_USB_Host_Library/Class/CDC/Src/usbh_cdc.c ****                            CDC_Handle->DataItf.InEpSize,
 739:./Libraries/STM32_USB_Host_Library/Class/CDC/Src/usbh_cdc.c ****                            CDC_Handle->DataItf.InPipe);
 740:./Libraries/STM32_USB_Host_Library/Class/CDC/Src/usbh_cdc.c **** 
 741:./Libraries/STM32_USB_Host_Library/Class/CDC/Src/usbh_cdc.c ****       CDC_Handle->data_rx_state = CDC_RECEIVE_DATA_WAIT;
 742:./Libraries/STM32_USB_Host_Library/Class/CDC/Src/usbh_cdc.c **** 
 743:./Libraries/STM32_USB_Host_Library/Class/CDC/Src/usbh_cdc.c ****       break;
 744:./Libraries/STM32_USB_Host_Library/Class/CDC/Src/usbh_cdc.c **** 
 745:./Libraries/STM32_USB_Host_Library/Class/CDC/Src/usbh_cdc.c ****     case CDC_RECEIVE_DATA_WAIT:
 746:./Libraries/STM32_USB_Host_Library/Class/CDC/Src/usbh_cdc.c **** 
 747:./Libraries/STM32_USB_Host_Library/Class/CDC/Src/usbh_cdc.c ****       URB_Status = USBH_LL_GetURBState(phost, CDC_Handle->DataItf.InPipe);
 748:./Libraries/STM32_USB_Host_Library/Class/CDC/Src/usbh_cdc.c **** 
 749:./Libraries/STM32_USB_Host_Library/Class/CDC/Src/usbh_cdc.c ****       /*Check the status done for reception*/
 750:./Libraries/STM32_USB_Host_Library/Class/CDC/Src/usbh_cdc.c ****       if (URB_Status == USBH_URB_DONE)
 751:./Libraries/STM32_USB_Host_Library/Class/CDC/Src/usbh_cdc.c ****       {
 752:./Libraries/STM32_USB_Host_Library/Class/CDC/Src/usbh_cdc.c ****         length = USBH_LL_GetLastXferSize(phost, CDC_Handle->DataItf.InPipe);
 753:./Libraries/STM32_USB_Host_Library/Class/CDC/Src/usbh_cdc.c **** 
 754:./Libraries/STM32_USB_Host_Library/Class/CDC/Src/usbh_cdc.c ****         if (((CDC_Handle->RxDataLength - length) > 0U) && (length > CDC_Handle->DataItf.InEpSize))
 755:./Libraries/STM32_USB_Host_Library/Class/CDC/Src/usbh_cdc.c ****         {
 756:./Libraries/STM32_USB_Host_Library/Class/CDC/Src/usbh_cdc.c ****           CDC_Handle->RxDataLength -= length ;
ARM GAS  /tmp/ccN0aLJN.s 			page 46


 757:./Libraries/STM32_USB_Host_Library/Class/CDC/Src/usbh_cdc.c ****           CDC_Handle->pRxData += length;
 758:./Libraries/STM32_USB_Host_Library/Class/CDC/Src/usbh_cdc.c ****           CDC_Handle->data_rx_state = CDC_RECEIVE_DATA;
 759:./Libraries/STM32_USB_Host_Library/Class/CDC/Src/usbh_cdc.c ****         }
 760:./Libraries/STM32_USB_Host_Library/Class/CDC/Src/usbh_cdc.c ****         else
 761:./Libraries/STM32_USB_Host_Library/Class/CDC/Src/usbh_cdc.c ****         {
 762:./Libraries/STM32_USB_Host_Library/Class/CDC/Src/usbh_cdc.c ****           CDC_Handle->data_rx_state = CDC_IDLE;
 763:./Libraries/STM32_USB_Host_Library/Class/CDC/Src/usbh_cdc.c ****           USBH_CDC_ReceiveCallback(phost);
 764:./Libraries/STM32_USB_Host_Library/Class/CDC/Src/usbh_cdc.c ****         }
 765:./Libraries/STM32_USB_Host_Library/Class/CDC/Src/usbh_cdc.c **** 
 766:./Libraries/STM32_USB_Host_Library/Class/CDC/Src/usbh_cdc.c **** #if (USBH_USE_OS == 1U)
 767:./Libraries/STM32_USB_Host_Library/Class/CDC/Src/usbh_cdc.c ****         phost->os_msg = (uint32_t)USBH_CLASS_EVENT;
 768:./Libraries/STM32_USB_Host_Library/Class/CDC/Src/usbh_cdc.c **** #if (osCMSIS < 0x20000U)
 769:./Libraries/STM32_USB_Host_Library/Class/CDC/Src/usbh_cdc.c ****         (void)osMessagePut(phost->os_event, phost->os_msg, 0U);
 770:./Libraries/STM32_USB_Host_Library/Class/CDC/Src/usbh_cdc.c **** #else
 771:./Libraries/STM32_USB_Host_Library/Class/CDC/Src/usbh_cdc.c ****         (void)osMessageQueuePut(phost->os_event, &phost->os_msg, 0U, NULL);
 772:./Libraries/STM32_USB_Host_Library/Class/CDC/Src/usbh_cdc.c **** #endif
 773:./Libraries/STM32_USB_Host_Library/Class/CDC/Src/usbh_cdc.c **** #endif
 774:./Libraries/STM32_USB_Host_Library/Class/CDC/Src/usbh_cdc.c ****       }
 775:./Libraries/STM32_USB_Host_Library/Class/CDC/Src/usbh_cdc.c ****       break;
 776:./Libraries/STM32_USB_Host_Library/Class/CDC/Src/usbh_cdc.c **** 
 777:./Libraries/STM32_USB_Host_Library/Class/CDC/Src/usbh_cdc.c ****     default:
 778:./Libraries/STM32_USB_Host_Library/Class/CDC/Src/usbh_cdc.c ****       break;
 1793              		.loc 1 778 7
 1794 0024 51E0     		b	.L88
 1795              	.L85:
 736:./Libraries/STM32_USB_Host_Library/Class/CDC/Src/usbh_cdc.c ****                            CDC_Handle->pRxData,
 1796              		.loc 1 736 7
 1797 0026 7B69     		ldr	r3, [r7, #20]
 1798 0028 196A     		ldr	r1, [r3, #32]
 1799 002a 7B69     		ldr	r3, [r7, #20]
 1800 002c 5A8B     		ldrh	r2, [r3, #26]
 1801 002e 7B69     		ldr	r3, [r7, #20]
 1802 0030 1B7B     		ldrb	r3, [r3, #12]	@ zero_extendqisi2
 1803 0032 7868     		ldr	r0, [r7, #4]
 1804 0034 FFF7FEFF 		bl	USBH_BulkReceiveData
 741:./Libraries/STM32_USB_Host_Library/Class/CDC/Src/usbh_cdc.c **** 
 1805              		.loc 1 741 33
 1806 0038 7B69     		ldr	r3, [r7, #20]
 1807 003a 0422     		movs	r2, #4
 1808 003c 83F84E20 		strb	r2, [r3, #78]
 743:./Libraries/STM32_USB_Host_Library/Class/CDC/Src/usbh_cdc.c **** 
 1809              		.loc 1 743 7
 1810 0040 43E0     		b	.L88
 1811              	.L86:
 747:./Libraries/STM32_USB_Host_Library/Class/CDC/Src/usbh_cdc.c **** 
 1812              		.loc 1 747 20
 1813 0042 7B69     		ldr	r3, [r7, #20]
 1814 0044 1B7B     		ldrb	r3, [r3, #12]	@ zero_extendqisi2
 1815 0046 1946     		mov	r1, r3
 1816 0048 7868     		ldr	r0, [r7, #4]
 1817 004a FFF7FEFF 		bl	USBH_LL_GetURBState
 1818 004e 0346     		mov	r3, r0
 1819 0050 FB74     		strb	r3, [r7, #19]
 750:./Libraries/STM32_USB_Host_Library/Class/CDC/Src/usbh_cdc.c ****       {
 1820              		.loc 1 750 10
 1821 0052 FB7C     		ldrb	r3, [r7, #19]	@ zero_extendqisi2
 1822 0054 012B     		cmp	r3, #1
ARM GAS  /tmp/ccN0aLJN.s 			page 47


 1823 0056 37D1     		bne	.L92
 752:./Libraries/STM32_USB_Host_Library/Class/CDC/Src/usbh_cdc.c **** 
 1824              		.loc 1 752 18
 1825 0058 7B69     		ldr	r3, [r7, #20]
 1826 005a 1B7B     		ldrb	r3, [r3, #12]	@ zero_extendqisi2
 1827 005c 1946     		mov	r1, r3
 1828 005e 7868     		ldr	r0, [r7, #4]
 1829 0060 FFF7FEFF 		bl	USBH_LL_GetLastXferSize
 1830 0064 F860     		str	r0, [r7, #12]
 754:./Libraries/STM32_USB_Host_Library/Class/CDC/Src/usbh_cdc.c ****         {
 1831              		.loc 1 754 25
 1832 0066 7B69     		ldr	r3, [r7, #20]
 1833 0068 9B6A     		ldr	r3, [r3, #40]
 754:./Libraries/STM32_USB_Host_Library/Class/CDC/Src/usbh_cdc.c ****         {
 1834              		.loc 1 754 12
 1835 006a FA68     		ldr	r2, [r7, #12]
 1836 006c 9A42     		cmp	r2, r3
 1837 006e 16D0     		beq	.L90
 754:./Libraries/STM32_USB_Host_Library/Class/CDC/Src/usbh_cdc.c ****         {
 1838              		.loc 1 754 88 discriminator 1
 1839 0070 7B69     		ldr	r3, [r7, #20]
 1840 0072 5B8B     		ldrh	r3, [r3, #26]
 1841 0074 1A46     		mov	r2, r3
 754:./Libraries/STM32_USB_Host_Library/Class/CDC/Src/usbh_cdc.c ****         {
 1842              		.loc 1 754 56 discriminator 1
 1843 0076 FB68     		ldr	r3, [r7, #12]
 1844 0078 9342     		cmp	r3, r2
 1845 007a 10D9     		bls	.L90
 756:./Libraries/STM32_USB_Host_Library/Class/CDC/Src/usbh_cdc.c ****           CDC_Handle->pRxData += length;
 1846              		.loc 1 756 36
 1847 007c 7B69     		ldr	r3, [r7, #20]
 1848 007e 9A6A     		ldr	r2, [r3, #40]
 1849 0080 FB68     		ldr	r3, [r7, #12]
 1850 0082 D21A     		subs	r2, r2, r3
 1851 0084 7B69     		ldr	r3, [r7, #20]
 1852 0086 9A62     		str	r2, [r3, #40]
 757:./Libraries/STM32_USB_Host_Library/Class/CDC/Src/usbh_cdc.c ****           CDC_Handle->data_rx_state = CDC_RECEIVE_DATA;
 1853              		.loc 1 757 31
 1854 0088 7B69     		ldr	r3, [r7, #20]
 1855 008a 1A6A     		ldr	r2, [r3, #32]
 1856 008c FB68     		ldr	r3, [r7, #12]
 1857 008e 1A44     		add	r2, r2, r3
 1858 0090 7B69     		ldr	r3, [r7, #20]
 1859 0092 1A62     		str	r2, [r3, #32]
 758:./Libraries/STM32_USB_Host_Library/Class/CDC/Src/usbh_cdc.c ****         }
 1860              		.loc 1 758 37
 1861 0094 7B69     		ldr	r3, [r7, #20]
 1862 0096 0322     		movs	r2, #3
 1863 0098 83F84E20 		strb	r2, [r3, #78]
 1864 009c 06E0     		b	.L91
 1865              	.L90:
 762:./Libraries/STM32_USB_Host_Library/Class/CDC/Src/usbh_cdc.c ****           USBH_CDC_ReceiveCallback(phost);
 1866              		.loc 1 762 37
 1867 009e 7B69     		ldr	r3, [r7, #20]
 1868 00a0 0022     		movs	r2, #0
 1869 00a2 83F84E20 		strb	r2, [r3, #78]
 763:./Libraries/STM32_USB_Host_Library/Class/CDC/Src/usbh_cdc.c ****         }
ARM GAS  /tmp/ccN0aLJN.s 			page 48


 1870              		.loc 1 763 11
 1871 00a6 7868     		ldr	r0, [r7, #4]
 1872 00a8 FFF7FEFF 		bl	USBH_CDC_ReceiveCallback
 1873              	.L91:
 767:./Libraries/STM32_USB_Host_Library/Class/CDC/Src/usbh_cdc.c **** #if (osCMSIS < 0x20000U)
 1874              		.loc 1 767 23
 1875 00ac 7B68     		ldr	r3, [r7, #4]
 1876 00ae 0422     		movs	r2, #4
 1877 00b0 C3F8E024 		str	r2, [r3, #1248]
 771:./Libraries/STM32_USB_Host_Library/Class/CDC/Src/usbh_cdc.c **** #endif
 1878              		.loc 1 771 15
 1879 00b4 7B68     		ldr	r3, [r7, #4]
 1880 00b6 D3F8D804 		ldr	r0, [r3, #1240]
 771:./Libraries/STM32_USB_Host_Library/Class/CDC/Src/usbh_cdc.c **** #endif
 1881              		.loc 1 771 50
 1882 00ba 7B68     		ldr	r3, [r7, #4]
 1883 00bc 03F59C61 		add	r1, r3, #1248
 771:./Libraries/STM32_USB_Host_Library/Class/CDC/Src/usbh_cdc.c **** #endif
 1884              		.loc 1 771 15
 1885 00c0 0023     		movs	r3, #0
 1886 00c2 0022     		movs	r2, #0
 1887 00c4 FFF7FEFF 		bl	osMessageQueuePut
 1888              	.L92:
 775:./Libraries/STM32_USB_Host_Library/Class/CDC/Src/usbh_cdc.c **** 
 1889              		.loc 1 775 7
 1890 00c8 00BF     		nop
 1891              	.L88:
 779:./Libraries/STM32_USB_Host_Library/Class/CDC/Src/usbh_cdc.c ****   }
 780:./Libraries/STM32_USB_Host_Library/Class/CDC/Src/usbh_cdc.c **** }
 1892              		.loc 1 780 1
 1893 00ca 00BF     		nop
 1894 00cc 1837     		adds	r7, r7, #24
 1895              	.LCFI75:
 1896              		.cfi_def_cfa_offset 8
 1897 00ce BD46     		mov	sp, r7
 1898              	.LCFI76:
 1899              		.cfi_def_cfa_register 13
 1900              		@ sp needed
 1901 00d0 80BD     		pop	{r7, pc}
 1902              		.cfi_endproc
 1903              	.LFE352:
 1905              		.section	.text.USBH_CDC_TransmitCallback,"ax",%progbits
 1906              		.align	1
 1907              		.weak	USBH_CDC_TransmitCallback
 1908              		.syntax unified
 1909              		.thumb
 1910              		.thumb_func
 1911              		.fpu fpv5-d16
 1913              	USBH_CDC_TransmitCallback:
 1914              	.LFB353:
 781:./Libraries/STM32_USB_Host_Library/Class/CDC/Src/usbh_cdc.c **** 
 782:./Libraries/STM32_USB_Host_Library/Class/CDC/Src/usbh_cdc.c **** /**
 783:./Libraries/STM32_USB_Host_Library/Class/CDC/Src/usbh_cdc.c **** * @brief  The function informs user that data have been received
 784:./Libraries/STM32_USB_Host_Library/Class/CDC/Src/usbh_cdc.c **** *  @param  pdev: Selected device
 785:./Libraries/STM32_USB_Host_Library/Class/CDC/Src/usbh_cdc.c **** * @retval None
 786:./Libraries/STM32_USB_Host_Library/Class/CDC/Src/usbh_cdc.c **** */
 787:./Libraries/STM32_USB_Host_Library/Class/CDC/Src/usbh_cdc.c **** __weak void USBH_CDC_TransmitCallback(USBH_HandleTypeDef *phost)
ARM GAS  /tmp/ccN0aLJN.s 			page 49


 788:./Libraries/STM32_USB_Host_Library/Class/CDC/Src/usbh_cdc.c **** {
 1915              		.loc 1 788 1
 1916              		.cfi_startproc
 1917              		@ args = 0, pretend = 0, frame = 8
 1918              		@ frame_needed = 1, uses_anonymous_args = 0
 1919              		@ link register save eliminated.
 1920 0000 80B4     		push	{r7}
 1921              	.LCFI77:
 1922              		.cfi_def_cfa_offset 4
 1923              		.cfi_offset 7, -4
 1924 0002 83B0     		sub	sp, sp, #12
 1925              	.LCFI78:
 1926              		.cfi_def_cfa_offset 16
 1927 0004 00AF     		add	r7, sp, #0
 1928              	.LCFI79:
 1929              		.cfi_def_cfa_register 7
 1930 0006 7860     		str	r0, [r7, #4]
 789:./Libraries/STM32_USB_Host_Library/Class/CDC/Src/usbh_cdc.c ****   /* Prevent unused argument(s) compilation warning */
 790:./Libraries/STM32_USB_Host_Library/Class/CDC/Src/usbh_cdc.c ****   UNUSED(phost);
 791:./Libraries/STM32_USB_Host_Library/Class/CDC/Src/usbh_cdc.c **** }
 1931              		.loc 1 791 1
 1932 0008 00BF     		nop
 1933 000a 0C37     		adds	r7, r7, #12
 1934              	.LCFI80:
 1935              		.cfi_def_cfa_offset 4
 1936 000c BD46     		mov	sp, r7
 1937              	.LCFI81:
 1938              		.cfi_def_cfa_register 13
 1939              		@ sp needed
 1940 000e 5DF8047B 		ldr	r7, [sp], #4
 1941              	.LCFI82:
 1942              		.cfi_restore 7
 1943              		.cfi_def_cfa_offset 0
 1944 0012 7047     		bx	lr
 1945              		.cfi_endproc
 1946              	.LFE353:
 1948              		.section	.text.USBH_CDC_ReceiveCallback,"ax",%progbits
 1949              		.align	1
 1950              		.weak	USBH_CDC_ReceiveCallback
 1951              		.syntax unified
 1952              		.thumb
 1953              		.thumb_func
 1954              		.fpu fpv5-d16
 1956              	USBH_CDC_ReceiveCallback:
 1957              	.LFB354:
 792:./Libraries/STM32_USB_Host_Library/Class/CDC/Src/usbh_cdc.c **** 
 793:./Libraries/STM32_USB_Host_Library/Class/CDC/Src/usbh_cdc.c **** /**
 794:./Libraries/STM32_USB_Host_Library/Class/CDC/Src/usbh_cdc.c **** * @brief  The function informs user that data have been sent
 795:./Libraries/STM32_USB_Host_Library/Class/CDC/Src/usbh_cdc.c **** *  @param  pdev: Selected device
 796:./Libraries/STM32_USB_Host_Library/Class/CDC/Src/usbh_cdc.c **** * @retval None
 797:./Libraries/STM32_USB_Host_Library/Class/CDC/Src/usbh_cdc.c **** */
 798:./Libraries/STM32_USB_Host_Library/Class/CDC/Src/usbh_cdc.c **** __weak void USBH_CDC_ReceiveCallback(USBH_HandleTypeDef *phost)
 799:./Libraries/STM32_USB_Host_Library/Class/CDC/Src/usbh_cdc.c **** {
 1958              		.loc 1 799 1
 1959              		.cfi_startproc
 1960              		@ args = 0, pretend = 0, frame = 8
 1961              		@ frame_needed = 1, uses_anonymous_args = 0
ARM GAS  /tmp/ccN0aLJN.s 			page 50


 1962              		@ link register save eliminated.
 1963 0000 80B4     		push	{r7}
 1964              	.LCFI83:
 1965              		.cfi_def_cfa_offset 4
 1966              		.cfi_offset 7, -4
 1967 0002 83B0     		sub	sp, sp, #12
 1968              	.LCFI84:
 1969              		.cfi_def_cfa_offset 16
 1970 0004 00AF     		add	r7, sp, #0
 1971              	.LCFI85:
 1972              		.cfi_def_cfa_register 7
 1973 0006 7860     		str	r0, [r7, #4]
 800:./Libraries/STM32_USB_Host_Library/Class/CDC/Src/usbh_cdc.c ****   /* Prevent unused argument(s) compilation warning */
 801:./Libraries/STM32_USB_Host_Library/Class/CDC/Src/usbh_cdc.c ****   UNUSED(phost);
 802:./Libraries/STM32_USB_Host_Library/Class/CDC/Src/usbh_cdc.c **** }
 1974              		.loc 1 802 1
 1975 0008 00BF     		nop
 1976 000a 0C37     		adds	r7, r7, #12
 1977              	.LCFI86:
 1978              		.cfi_def_cfa_offset 4
 1979 000c BD46     		mov	sp, r7
 1980              	.LCFI87:
 1981              		.cfi_def_cfa_register 13
 1982              		@ sp needed
 1983 000e 5DF8047B 		ldr	r7, [sp], #4
 1984              	.LCFI88:
 1985              		.cfi_restore 7
 1986              		.cfi_def_cfa_offset 0
 1987 0012 7047     		bx	lr
 1988              		.cfi_endproc
 1989              	.LFE354:
 1991              		.section	.text.USBH_CDC_LineCodingChanged,"ax",%progbits
 1992              		.align	1
 1993              		.weak	USBH_CDC_LineCodingChanged
 1994              		.syntax unified
 1995              		.thumb
 1996              		.thumb_func
 1997              		.fpu fpv5-d16
 1999              	USBH_CDC_LineCodingChanged:
 2000              	.LFB355:
 803:./Libraries/STM32_USB_Host_Library/Class/CDC/Src/usbh_cdc.c **** 
 804:./Libraries/STM32_USB_Host_Library/Class/CDC/Src/usbh_cdc.c **** /**
 805:./Libraries/STM32_USB_Host_Library/Class/CDC/Src/usbh_cdc.c **** * @brief  The function informs user that Settings have been changed
 806:./Libraries/STM32_USB_Host_Library/Class/CDC/Src/usbh_cdc.c **** *  @param  pdev: Selected device
 807:./Libraries/STM32_USB_Host_Library/Class/CDC/Src/usbh_cdc.c **** * @retval None
 808:./Libraries/STM32_USB_Host_Library/Class/CDC/Src/usbh_cdc.c **** */
 809:./Libraries/STM32_USB_Host_Library/Class/CDC/Src/usbh_cdc.c **** __weak void USBH_CDC_LineCodingChanged(USBH_HandleTypeDef *phost)
 810:./Libraries/STM32_USB_Host_Library/Class/CDC/Src/usbh_cdc.c **** {
 2001              		.loc 1 810 1
 2002              		.cfi_startproc
 2003              		@ args = 0, pretend = 0, frame = 8
 2004              		@ frame_needed = 1, uses_anonymous_args = 0
 2005              		@ link register save eliminated.
 2006 0000 80B4     		push	{r7}
 2007              	.LCFI89:
 2008              		.cfi_def_cfa_offset 4
 2009              		.cfi_offset 7, -4
ARM GAS  /tmp/ccN0aLJN.s 			page 51


 2010 0002 83B0     		sub	sp, sp, #12
 2011              	.LCFI90:
 2012              		.cfi_def_cfa_offset 16
 2013 0004 00AF     		add	r7, sp, #0
 2014              	.LCFI91:
 2015              		.cfi_def_cfa_register 7
 2016 0006 7860     		str	r0, [r7, #4]
 811:./Libraries/STM32_USB_Host_Library/Class/CDC/Src/usbh_cdc.c ****   /* Prevent unused argument(s) compilation warning */
 812:./Libraries/STM32_USB_Host_Library/Class/CDC/Src/usbh_cdc.c ****   UNUSED(phost);
 813:./Libraries/STM32_USB_Host_Library/Class/CDC/Src/usbh_cdc.c **** }
 2017              		.loc 1 813 1
 2018 0008 00BF     		nop
 2019 000a 0C37     		adds	r7, r7, #12
 2020              	.LCFI92:
 2021              		.cfi_def_cfa_offset 4
 2022 000c BD46     		mov	sp, r7
 2023              	.LCFI93:
 2024              		.cfi_def_cfa_register 13
 2025              		@ sp needed
 2026 000e 5DF8047B 		ldr	r7, [sp], #4
 2027              	.LCFI94:
 2028              		.cfi_restore 7
 2029              		.cfi_def_cfa_offset 0
 2030 0012 7047     		bx	lr
 2031              		.cfi_endproc
 2032              	.LFE355:
 2034              		.text
 2035              	.Letext0:
 2036              		.file 2 "/usr/lib/gcc/arm-none-eabi/9.2.1/include/stdint.h"
 2037              		.file 3 "./Libraries/CMSIS/Core/Include/core_cm7.h"
 2038              		.file 4 "./Libraries/CMSIS/Device/ST/STM32H7xx/Include/system_stm32h7xx.h"
 2039              		.file 5 "/usr/lib/gcc/arm-none-eabi/9.2.1/include/stddef.h"
 2040              		.file 6 "/usr/include/newlib/sys/_types.h"
 2041              		.file 7 "/usr/include/newlib/sys/reent.h"
 2042              		.file 8 "/usr/include/newlib/sys/lock.h"
 2043              		.file 9 "/usr/include/newlib/math.h"
 2044              		.file 10 "./Libraries/STM32H7xx_HAL_Driver/Inc/stm32h7xx_hal_def.h"
 2045              		.file 11 "./Libraries/STM32H7xx_HAL_Driver/Inc/stm32h7xx_hal_flash.h"
 2046              		.file 12 "./Libraries/STM32H7xx_HAL_Driver/Inc/stm32h7xx_hal_uart.h"
 2047              		.file 13 "./Libraries/STM32H7xx_HAL_Driver/Inc/stm32h7xx_hal.h"
 2048              		.file 14 "/usr/include/newlib/stdlib.h"
 2049              		.file 15 "./Libraries/FreeRTOS/Source/CMSIS_RTOS/cmsis_os2.h"
 2050              		.file 16 "./Libraries/STM32_USB_Host_Library/Core/Inc/usbh_def.h"
 2051              		.file 17 "./Libraries/STM32_USB_Host_Library/Core/Inc/usbh_ctlreq.h"
 2052              		.file 18 "./Libraries/STM32_USB_Host_Library/Class/CDC/Inc/usbh_cdc.h"
ARM GAS  /tmp/ccN0aLJN.s 			page 52

