ARM GAS  /tmp/ccSE0mVF.s 			page 1


   1              		.cpu cortex-m7
   2              		.eabi_attribute 28, 1
   3              		.eabi_attribute 20, 1
   4              		.eabi_attribute 21, 1
   5              		.eabi_attribute 23, 3
   6              		.eabi_attribute 24, 1
   7              		.eabi_attribute 25, 1
   8              		.eabi_attribute 26, 1
   9              		.eabi_attribute 30, 2
  10              		.eabi_attribute 34, 1
  11              		.eabi_attribute 18, 4
  12              		.file	"usbh_mtp_ptp.c"
  13              		.text
  14              	.Ltext0:
  15              		.cfi_sections	.debug_frame
  16              		.section	.text.PTP_GetArray16,"ax",%progbits
  17              		.align	1
  18              		.p2align 2,,3
  19              		.arch armv7e-m
  20              		.syntax unified
  21              		.thumb
  22              		.thumb_func
  23              		.fpu fpv5-d16
  25              	PTP_GetArray16:
  26              	.LVL0:
  27              	.LFB351:
  28              		.file 1 "./Libraries/STM32_USB_Host_Library/Class/MTP/Src/usbh_mtp_ptp.c"
   1:./Libraries/STM32_USB_Host_Library/Class/MTP/Src/usbh_mtp_ptp.c **** /**
   2:./Libraries/STM32_USB_Host_Library/Class/MTP/Src/usbh_mtp_ptp.c ****   ******************************************************************************
   3:./Libraries/STM32_USB_Host_Library/Class/MTP/Src/usbh_mtp_ptp.c ****   * @file    usbh_mtp_ptp.c
   4:./Libraries/STM32_USB_Host_Library/Class/MTP/Src/usbh_mtp_ptp.c ****   * @author  MCD Application Team
   5:./Libraries/STM32_USB_Host_Library/Class/MTP/Src/usbh_mtp_ptp.c ****   * @brief   This file includes the PTP operations layer
   6:./Libraries/STM32_USB_Host_Library/Class/MTP/Src/usbh_mtp_ptp.c ****   ******************************************************************************
   7:./Libraries/STM32_USB_Host_Library/Class/MTP/Src/usbh_mtp_ptp.c ****   * @attention
   8:./Libraries/STM32_USB_Host_Library/Class/MTP/Src/usbh_mtp_ptp.c ****   *
   9:./Libraries/STM32_USB_Host_Library/Class/MTP/Src/usbh_mtp_ptp.c ****   * <h2><center>&copy; Copyright (c) 2015 STMicroelectronics.
  10:./Libraries/STM32_USB_Host_Library/Class/MTP/Src/usbh_mtp_ptp.c ****   * All rights reserved.</center></h2>
  11:./Libraries/STM32_USB_Host_Library/Class/MTP/Src/usbh_mtp_ptp.c ****   *
  12:./Libraries/STM32_USB_Host_Library/Class/MTP/Src/usbh_mtp_ptp.c ****   * This software component is licensed by ST under Ultimate Liberty license
  13:./Libraries/STM32_USB_Host_Library/Class/MTP/Src/usbh_mtp_ptp.c ****   * SLA0044, the "License"; You may not use this file except in compliance with
  14:./Libraries/STM32_USB_Host_Library/Class/MTP/Src/usbh_mtp_ptp.c ****   * the License. You may obtain a copy of the License at:
  15:./Libraries/STM32_USB_Host_Library/Class/MTP/Src/usbh_mtp_ptp.c ****   *                      www.st.com/SLA0044
  16:./Libraries/STM32_USB_Host_Library/Class/MTP/Src/usbh_mtp_ptp.c ****   *
  17:./Libraries/STM32_USB_Host_Library/Class/MTP/Src/usbh_mtp_ptp.c ****   ******************************************************************************
  18:./Libraries/STM32_USB_Host_Library/Class/MTP/Src/usbh_mtp_ptp.c ****   */
  19:./Libraries/STM32_USB_Host_Library/Class/MTP/Src/usbh_mtp_ptp.c **** 
  20:./Libraries/STM32_USB_Host_Library/Class/MTP/Src/usbh_mtp_ptp.c **** /* BSPDependencies
  21:./Libraries/STM32_USB_Host_Library/Class/MTP/Src/usbh_mtp_ptp.c **** - "stm32xxxxx_{eval}{discovery}.c"
  22:./Libraries/STM32_USB_Host_Library/Class/MTP/Src/usbh_mtp_ptp.c **** - "stm32xxxxx_{eval}{discovery}_io.c"
  23:./Libraries/STM32_USB_Host_Library/Class/MTP/Src/usbh_mtp_ptp.c **** - "stm32xxxxx_{eval}{discovery}_audio.c"
  24:./Libraries/STM32_USB_Host_Library/Class/MTP/Src/usbh_mtp_ptp.c **** - "stm32xxxxx_{eval}{discovery}_sd.c"
  25:./Libraries/STM32_USB_Host_Library/Class/MTP/Src/usbh_mtp_ptp.c **** - "stm32xxxxx_{eval}{discovery}_lcd.c"
  26:./Libraries/STM32_USB_Host_Library/Class/MTP/Src/usbh_mtp_ptp.c **** - "stm32xxxxx_{eval}{discovery}_sdram.c"
  27:./Libraries/STM32_USB_Host_Library/Class/MTP/Src/usbh_mtp_ptp.c **** EndBSPDependencies */
  28:./Libraries/STM32_USB_Host_Library/Class/MTP/Src/usbh_mtp_ptp.c **** 
  29:./Libraries/STM32_USB_Host_Library/Class/MTP/Src/usbh_mtp_ptp.c **** /* Includes ------------------------------------------------------------------*/
  30:./Libraries/STM32_USB_Host_Library/Class/MTP/Src/usbh_mtp_ptp.c **** #include "usbh_mtp_ptp.h"
ARM GAS  /tmp/ccSE0mVF.s 			page 2


  31:./Libraries/STM32_USB_Host_Library/Class/MTP/Src/usbh_mtp_ptp.c **** #include "usbh_mtp.h"
  32:./Libraries/STM32_USB_Host_Library/Class/MTP/Src/usbh_mtp_ptp.c **** 
  33:./Libraries/STM32_USB_Host_Library/Class/MTP/Src/usbh_mtp_ptp.c **** /** @addtogroup USBH_LIB
  34:./Libraries/STM32_USB_Host_Library/Class/MTP/Src/usbh_mtp_ptp.c **** * @{
  35:./Libraries/STM32_USB_Host_Library/Class/MTP/Src/usbh_mtp_ptp.c **** */
  36:./Libraries/STM32_USB_Host_Library/Class/MTP/Src/usbh_mtp_ptp.c **** 
  37:./Libraries/STM32_USB_Host_Library/Class/MTP/Src/usbh_mtp_ptp.c **** /** @addtogroup USBH_CLASS
  38:./Libraries/STM32_USB_Host_Library/Class/MTP/Src/usbh_mtp_ptp.c **** * @{
  39:./Libraries/STM32_USB_Host_Library/Class/MTP/Src/usbh_mtp_ptp.c **** */
  40:./Libraries/STM32_USB_Host_Library/Class/MTP/Src/usbh_mtp_ptp.c **** 
  41:./Libraries/STM32_USB_Host_Library/Class/MTP/Src/usbh_mtp_ptp.c **** /** @addtogroup USBH_MTP_CLASS
  42:./Libraries/STM32_USB_Host_Library/Class/MTP/Src/usbh_mtp_ptp.c **** * @{
  43:./Libraries/STM32_USB_Host_Library/Class/MTP/Src/usbh_mtp_ptp.c **** */
  44:./Libraries/STM32_USB_Host_Library/Class/MTP/Src/usbh_mtp_ptp.c **** 
  45:./Libraries/STM32_USB_Host_Library/Class/MTP/Src/usbh_mtp_ptp.c **** /** @defgroup USBH_MTP_PTP
  46:./Libraries/STM32_USB_Host_Library/Class/MTP/Src/usbh_mtp_ptp.c **** * @brief    This file includes the mass storage related functions
  47:./Libraries/STM32_USB_Host_Library/Class/MTP/Src/usbh_mtp_ptp.c **** * @{
  48:./Libraries/STM32_USB_Host_Library/Class/MTP/Src/usbh_mtp_ptp.c **** */
  49:./Libraries/STM32_USB_Host_Library/Class/MTP/Src/usbh_mtp_ptp.c **** 
  50:./Libraries/STM32_USB_Host_Library/Class/MTP/Src/usbh_mtp_ptp.c **** 
  51:./Libraries/STM32_USB_Host_Library/Class/MTP/Src/usbh_mtp_ptp.c **** /** @defgroup USBH_MTP_PTP_Private_TypesDefinitions
  52:./Libraries/STM32_USB_Host_Library/Class/MTP/Src/usbh_mtp_ptp.c **** * @{
  53:./Libraries/STM32_USB_Host_Library/Class/MTP/Src/usbh_mtp_ptp.c **** */
  54:./Libraries/STM32_USB_Host_Library/Class/MTP/Src/usbh_mtp_ptp.c **** /**
  55:./Libraries/STM32_USB_Host_Library/Class/MTP/Src/usbh_mtp_ptp.c **** * @}
  56:./Libraries/STM32_USB_Host_Library/Class/MTP/Src/usbh_mtp_ptp.c **** */
  57:./Libraries/STM32_USB_Host_Library/Class/MTP/Src/usbh_mtp_ptp.c **** 
  58:./Libraries/STM32_USB_Host_Library/Class/MTP/Src/usbh_mtp_ptp.c **** /** @defgroup USBH_MTP_PTP_Private_Defines
  59:./Libraries/STM32_USB_Host_Library/Class/MTP/Src/usbh_mtp_ptp.c **** * @{
  60:./Libraries/STM32_USB_Host_Library/Class/MTP/Src/usbh_mtp_ptp.c **** */
  61:./Libraries/STM32_USB_Host_Library/Class/MTP/Src/usbh_mtp_ptp.c **** /**
  62:./Libraries/STM32_USB_Host_Library/Class/MTP/Src/usbh_mtp_ptp.c **** * @}
  63:./Libraries/STM32_USB_Host_Library/Class/MTP/Src/usbh_mtp_ptp.c **** */
  64:./Libraries/STM32_USB_Host_Library/Class/MTP/Src/usbh_mtp_ptp.c **** 
  65:./Libraries/STM32_USB_Host_Library/Class/MTP/Src/usbh_mtp_ptp.c **** /** @defgroup USBH_MTP_PTP_Private_Macros
  66:./Libraries/STM32_USB_Host_Library/Class/MTP/Src/usbh_mtp_ptp.c **** * @{
  67:./Libraries/STM32_USB_Host_Library/Class/MTP/Src/usbh_mtp_ptp.c **** */
  68:./Libraries/STM32_USB_Host_Library/Class/MTP/Src/usbh_mtp_ptp.c **** /**
  69:./Libraries/STM32_USB_Host_Library/Class/MTP/Src/usbh_mtp_ptp.c **** * @}
  70:./Libraries/STM32_USB_Host_Library/Class/MTP/Src/usbh_mtp_ptp.c **** */
  71:./Libraries/STM32_USB_Host_Library/Class/MTP/Src/usbh_mtp_ptp.c **** 
  72:./Libraries/STM32_USB_Host_Library/Class/MTP/Src/usbh_mtp_ptp.c **** 
  73:./Libraries/STM32_USB_Host_Library/Class/MTP/Src/usbh_mtp_ptp.c **** /** @defgroup USBH_MTP_PTP_Private_Variables
  74:./Libraries/STM32_USB_Host_Library/Class/MTP/Src/usbh_mtp_ptp.c **** * @{
  75:./Libraries/STM32_USB_Host_Library/Class/MTP/Src/usbh_mtp_ptp.c **** */
  76:./Libraries/STM32_USB_Host_Library/Class/MTP/Src/usbh_mtp_ptp.c **** 
  77:./Libraries/STM32_USB_Host_Library/Class/MTP/Src/usbh_mtp_ptp.c **** /**
  78:./Libraries/STM32_USB_Host_Library/Class/MTP/Src/usbh_mtp_ptp.c **** * @}
  79:./Libraries/STM32_USB_Host_Library/Class/MTP/Src/usbh_mtp_ptp.c **** */
  80:./Libraries/STM32_USB_Host_Library/Class/MTP/Src/usbh_mtp_ptp.c **** 
  81:./Libraries/STM32_USB_Host_Library/Class/MTP/Src/usbh_mtp_ptp.c **** 
  82:./Libraries/STM32_USB_Host_Library/Class/MTP/Src/usbh_mtp_ptp.c **** /** @defgroup USBH_MTP_PTP_Private_FunctionPrototypes
  83:./Libraries/STM32_USB_Host_Library/Class/MTP/Src/usbh_mtp_ptp.c **** * @{
  84:./Libraries/STM32_USB_Host_Library/Class/MTP/Src/usbh_mtp_ptp.c **** */
  85:./Libraries/STM32_USB_Host_Library/Class/MTP/Src/usbh_mtp_ptp.c **** static void PTP_DecodeDeviceInfo(USBH_HandleTypeDef *phost, PTP_DeviceInfoTypedef *dev_info);
  86:./Libraries/STM32_USB_Host_Library/Class/MTP/Src/usbh_mtp_ptp.c **** static void PTP_GetStorageIDs(USBH_HandleTypeDef *phost, PTP_StorageIDsTypedef *stor_ids);
  87:./Libraries/STM32_USB_Host_Library/Class/MTP/Src/usbh_mtp_ptp.c **** static void PTP_GetStorageInfo(USBH_HandleTypeDef *phost, uint32_t storage_id, PTP_StorageInfoTyped
ARM GAS  /tmp/ccSE0mVF.s 			page 3


  88:./Libraries/STM32_USB_Host_Library/Class/MTP/Src/usbh_mtp_ptp.c **** static void PTP_GetObjectInfo(USBH_HandleTypeDef *phost, PTP_ObjectInfoTypedef *object_info);
  89:./Libraries/STM32_USB_Host_Library/Class/MTP/Src/usbh_mtp_ptp.c **** static void PTP_GetObjectPropDesc(USBH_HandleTypeDef *phost, PTP_ObjectPropDescTypeDef *opd, uint32
  90:./Libraries/STM32_USB_Host_Library/Class/MTP/Src/usbh_mtp_ptp.c **** static void PTP_DecodeDeviceInfo(USBH_HandleTypeDef *phost, PTP_DeviceInfoTypedef *dev_info);
  91:./Libraries/STM32_USB_Host_Library/Class/MTP/Src/usbh_mtp_ptp.c **** 
  92:./Libraries/STM32_USB_Host_Library/Class/MTP/Src/usbh_mtp_ptp.c **** static void PTP_GetDevicePropValue(USBH_HandleTypeDef *phost, uint32_t *offset,
  93:./Libraries/STM32_USB_Host_Library/Class/MTP/Src/usbh_mtp_ptp.c ****                                    uint32_t total, PTP_PropertyValueTypedef *value, uint16_t dataty
  94:./Libraries/STM32_USB_Host_Library/Class/MTP/Src/usbh_mtp_ptp.c **** 
  95:./Libraries/STM32_USB_Host_Library/Class/MTP/Src/usbh_mtp_ptp.c **** static uint32_t PTP_GetObjectPropList(USBH_HandleTypeDef *phost,
  96:./Libraries/STM32_USB_Host_Library/Class/MTP/Src/usbh_mtp_ptp.c ****                                       MTP_PropertiesTypedef *props,
  97:./Libraries/STM32_USB_Host_Library/Class/MTP/Src/usbh_mtp_ptp.c ****                                       uint32_t len);
  98:./Libraries/STM32_USB_Host_Library/Class/MTP/Src/usbh_mtp_ptp.c **** 
  99:./Libraries/STM32_USB_Host_Library/Class/MTP/Src/usbh_mtp_ptp.c **** static void PTP_BufferFullCallback(USBH_HandleTypeDef *phost);
 100:./Libraries/STM32_USB_Host_Library/Class/MTP/Src/usbh_mtp_ptp.c **** static void PTP_GetString(uint8_t *str, uint8_t *data, uint16_t *len);
 101:./Libraries/STM32_USB_Host_Library/Class/MTP/Src/usbh_mtp_ptp.c **** static uint32_t PTP_GetArray16(uint16_t *array, uint8_t *data, uint32_t offset);
 102:./Libraries/STM32_USB_Host_Library/Class/MTP/Src/usbh_mtp_ptp.c **** static uint32_t PTP_GetArray32(uint32_t *array, uint8_t *data, uint32_t offset);
 103:./Libraries/STM32_USB_Host_Library/Class/MTP/Src/usbh_mtp_ptp.c **** /**
 104:./Libraries/STM32_USB_Host_Library/Class/MTP/Src/usbh_mtp_ptp.c **** * @}
 105:./Libraries/STM32_USB_Host_Library/Class/MTP/Src/usbh_mtp_ptp.c **** */
 106:./Libraries/STM32_USB_Host_Library/Class/MTP/Src/usbh_mtp_ptp.c **** 
 107:./Libraries/STM32_USB_Host_Library/Class/MTP/Src/usbh_mtp_ptp.c **** 
 108:./Libraries/STM32_USB_Host_Library/Class/MTP/Src/usbh_mtp_ptp.c **** /** @defgroup USBH_MTP_PTP_Exported_Variables
 109:./Libraries/STM32_USB_Host_Library/Class/MTP/Src/usbh_mtp_ptp.c **** * @{
 110:./Libraries/STM32_USB_Host_Library/Class/MTP/Src/usbh_mtp_ptp.c **** */
 111:./Libraries/STM32_USB_Host_Library/Class/MTP/Src/usbh_mtp_ptp.c **** /**
 112:./Libraries/STM32_USB_Host_Library/Class/MTP/Src/usbh_mtp_ptp.c **** * @}
 113:./Libraries/STM32_USB_Host_Library/Class/MTP/Src/usbh_mtp_ptp.c **** */
 114:./Libraries/STM32_USB_Host_Library/Class/MTP/Src/usbh_mtp_ptp.c **** 
 115:./Libraries/STM32_USB_Host_Library/Class/MTP/Src/usbh_mtp_ptp.c **** 
 116:./Libraries/STM32_USB_Host_Library/Class/MTP/Src/usbh_mtp_ptp.c **** /** @defgroup USBH_MTP_PTP_Private_Functions
 117:./Libraries/STM32_USB_Host_Library/Class/MTP/Src/usbh_mtp_ptp.c **** * @{
 118:./Libraries/STM32_USB_Host_Library/Class/MTP/Src/usbh_mtp_ptp.c **** */
 119:./Libraries/STM32_USB_Host_Library/Class/MTP/Src/usbh_mtp_ptp.c **** /**
 120:./Libraries/STM32_USB_Host_Library/Class/MTP/Src/usbh_mtp_ptp.c ****   * @brief  USBH_PTP_Init
 121:./Libraries/STM32_USB_Host_Library/Class/MTP/Src/usbh_mtp_ptp.c ****   *         The function Initializes the BOT protocol.
 122:./Libraries/STM32_USB_Host_Library/Class/MTP/Src/usbh_mtp_ptp.c ****   * @param  phost: Host handle
 123:./Libraries/STM32_USB_Host_Library/Class/MTP/Src/usbh_mtp_ptp.c ****   * @retval USBH Status
 124:./Libraries/STM32_USB_Host_Library/Class/MTP/Src/usbh_mtp_ptp.c ****   */
 125:./Libraries/STM32_USB_Host_Library/Class/MTP/Src/usbh_mtp_ptp.c **** USBH_StatusTypeDef USBH_PTP_Init(USBH_HandleTypeDef *phost)
 126:./Libraries/STM32_USB_Host_Library/Class/MTP/Src/usbh_mtp_ptp.c **** {
 127:./Libraries/STM32_USB_Host_Library/Class/MTP/Src/usbh_mtp_ptp.c ****   MTP_HandleTypeDef *MTP_Handle = (MTP_HandleTypeDef *)phost->pActiveClass->pData;
 128:./Libraries/STM32_USB_Host_Library/Class/MTP/Src/usbh_mtp_ptp.c **** 
 129:./Libraries/STM32_USB_Host_Library/Class/MTP/Src/usbh_mtp_ptp.c ****   /* Set state to idle to be ready for operations */
 130:./Libraries/STM32_USB_Host_Library/Class/MTP/Src/usbh_mtp_ptp.c ****   MTP_Handle->ptp.state = PTP_IDLE;
 131:./Libraries/STM32_USB_Host_Library/Class/MTP/Src/usbh_mtp_ptp.c ****   MTP_Handle->ptp.req_state = PTP_REQ_SEND;
 132:./Libraries/STM32_USB_Host_Library/Class/MTP/Src/usbh_mtp_ptp.c **** 
 133:./Libraries/STM32_USB_Host_Library/Class/MTP/Src/usbh_mtp_ptp.c ****   return USBH_OK;
 134:./Libraries/STM32_USB_Host_Library/Class/MTP/Src/usbh_mtp_ptp.c **** }
 135:./Libraries/STM32_USB_Host_Library/Class/MTP/Src/usbh_mtp_ptp.c **** 
 136:./Libraries/STM32_USB_Host_Library/Class/MTP/Src/usbh_mtp_ptp.c **** /**
 137:./Libraries/STM32_USB_Host_Library/Class/MTP/Src/usbh_mtp_ptp.c ****   * @brief  USBH_PTP_Process
 138:./Libraries/STM32_USB_Host_Library/Class/MTP/Src/usbh_mtp_ptp.c ****   *         The function handle the BOT protocol.
 139:./Libraries/STM32_USB_Host_Library/Class/MTP/Src/usbh_mtp_ptp.c ****   * @param  phost: Host handle
 140:./Libraries/STM32_USB_Host_Library/Class/MTP/Src/usbh_mtp_ptp.c ****   * @param  lun: Logical Unit Number
 141:./Libraries/STM32_USB_Host_Library/Class/MTP/Src/usbh_mtp_ptp.c ****   * @retval USBH Status
 142:./Libraries/STM32_USB_Host_Library/Class/MTP/Src/usbh_mtp_ptp.c ****   */
 143:./Libraries/STM32_USB_Host_Library/Class/MTP/Src/usbh_mtp_ptp.c **** USBH_StatusTypeDef USBH_PTP_Process(USBH_HandleTypeDef *phost)
 144:./Libraries/STM32_USB_Host_Library/Class/MTP/Src/usbh_mtp_ptp.c **** {
ARM GAS  /tmp/ccSE0mVF.s 			page 4


 145:./Libraries/STM32_USB_Host_Library/Class/MTP/Src/usbh_mtp_ptp.c ****   USBH_StatusTypeDef   status = USBH_BUSY;
 146:./Libraries/STM32_USB_Host_Library/Class/MTP/Src/usbh_mtp_ptp.c ****   USBH_URBStateTypeDef URB_Status = USBH_URB_IDLE;
 147:./Libraries/STM32_USB_Host_Library/Class/MTP/Src/usbh_mtp_ptp.c ****   MTP_HandleTypeDef    *MTP_Handle = (MTP_HandleTypeDef *)phost->pActiveClass->pData;
 148:./Libraries/STM32_USB_Host_Library/Class/MTP/Src/usbh_mtp_ptp.c ****   PTP_ContainerTypedef  ptp_container;
 149:./Libraries/STM32_USB_Host_Library/Class/MTP/Src/usbh_mtp_ptp.c ****   uint32_t  len;
 150:./Libraries/STM32_USB_Host_Library/Class/MTP/Src/usbh_mtp_ptp.c **** 
 151:./Libraries/STM32_USB_Host_Library/Class/MTP/Src/usbh_mtp_ptp.c ****   switch (MTP_Handle->ptp.state)
 152:./Libraries/STM32_USB_Host_Library/Class/MTP/Src/usbh_mtp_ptp.c ****   {
 153:./Libraries/STM32_USB_Host_Library/Class/MTP/Src/usbh_mtp_ptp.c ****     case PTP_IDLE:
 154:./Libraries/STM32_USB_Host_Library/Class/MTP/Src/usbh_mtp_ptp.c ****       /*Do Nothing */
 155:./Libraries/STM32_USB_Host_Library/Class/MTP/Src/usbh_mtp_ptp.c ****       break;
 156:./Libraries/STM32_USB_Host_Library/Class/MTP/Src/usbh_mtp_ptp.c **** 
 157:./Libraries/STM32_USB_Host_Library/Class/MTP/Src/usbh_mtp_ptp.c ****     case PTP_OP_REQUEST_STATE:
 158:./Libraries/STM32_USB_Host_Library/Class/MTP/Src/usbh_mtp_ptp.c ****       USBH_BulkSendData(phost,
 159:./Libraries/STM32_USB_Host_Library/Class/MTP/Src/usbh_mtp_ptp.c ****                         (uint8_t *)(void *) & (MTP_Handle->ptp.op_container),
 160:./Libraries/STM32_USB_Host_Library/Class/MTP/Src/usbh_mtp_ptp.c ****                         (uint16_t)MTP_Handle->ptp.op_container.length,
 161:./Libraries/STM32_USB_Host_Library/Class/MTP/Src/usbh_mtp_ptp.c ****                         MTP_Handle->DataOutPipe,
 162:./Libraries/STM32_USB_Host_Library/Class/MTP/Src/usbh_mtp_ptp.c ****                         1U);
 163:./Libraries/STM32_USB_Host_Library/Class/MTP/Src/usbh_mtp_ptp.c ****       MTP_Handle->ptp.state = PTP_OP_REQUEST_WAIT_STATE;
 164:./Libraries/STM32_USB_Host_Library/Class/MTP/Src/usbh_mtp_ptp.c ****       break;
 165:./Libraries/STM32_USB_Host_Library/Class/MTP/Src/usbh_mtp_ptp.c **** 
 166:./Libraries/STM32_USB_Host_Library/Class/MTP/Src/usbh_mtp_ptp.c ****     case PTP_OP_REQUEST_WAIT_STATE:
 167:./Libraries/STM32_USB_Host_Library/Class/MTP/Src/usbh_mtp_ptp.c ****       URB_Status = USBH_LL_GetURBState(phost, MTP_Handle->DataOutPipe);
 168:./Libraries/STM32_USB_Host_Library/Class/MTP/Src/usbh_mtp_ptp.c **** 
 169:./Libraries/STM32_USB_Host_Library/Class/MTP/Src/usbh_mtp_ptp.c ****       if (URB_Status == USBH_URB_DONE)
 170:./Libraries/STM32_USB_Host_Library/Class/MTP/Src/usbh_mtp_ptp.c ****       {
 171:./Libraries/STM32_USB_Host_Library/Class/MTP/Src/usbh_mtp_ptp.c ****         if (MTP_Handle->ptp.flags == PTP_DP_NODATA)
 172:./Libraries/STM32_USB_Host_Library/Class/MTP/Src/usbh_mtp_ptp.c ****         {
 173:./Libraries/STM32_USB_Host_Library/Class/MTP/Src/usbh_mtp_ptp.c ****           MTP_Handle->ptp.state = PTP_RESPONSE_STATE;
 174:./Libraries/STM32_USB_Host_Library/Class/MTP/Src/usbh_mtp_ptp.c ****         }
 175:./Libraries/STM32_USB_Host_Library/Class/MTP/Src/usbh_mtp_ptp.c ****         else  if (MTP_Handle->ptp.flags == PTP_DP_SENDDATA)
 176:./Libraries/STM32_USB_Host_Library/Class/MTP/Src/usbh_mtp_ptp.c ****         {
 177:./Libraries/STM32_USB_Host_Library/Class/MTP/Src/usbh_mtp_ptp.c ****           MTP_Handle->ptp.state = PTP_DATA_OUT_PHASE_STATE;
 178:./Libraries/STM32_USB_Host_Library/Class/MTP/Src/usbh_mtp_ptp.c ****         }
 179:./Libraries/STM32_USB_Host_Library/Class/MTP/Src/usbh_mtp_ptp.c ****         else  if (MTP_Handle->ptp.flags == PTP_DP_GETDATA)
 180:./Libraries/STM32_USB_Host_Library/Class/MTP/Src/usbh_mtp_ptp.c ****         {
 181:./Libraries/STM32_USB_Host_Library/Class/MTP/Src/usbh_mtp_ptp.c ****           MTP_Handle->ptp.state = PTP_DATA_IN_PHASE_STATE;
 182:./Libraries/STM32_USB_Host_Library/Class/MTP/Src/usbh_mtp_ptp.c ****         }
 183:./Libraries/STM32_USB_Host_Library/Class/MTP/Src/usbh_mtp_ptp.c ****         else
 184:./Libraries/STM32_USB_Host_Library/Class/MTP/Src/usbh_mtp_ptp.c ****         {
 185:./Libraries/STM32_USB_Host_Library/Class/MTP/Src/usbh_mtp_ptp.c ****         }
 186:./Libraries/STM32_USB_Host_Library/Class/MTP/Src/usbh_mtp_ptp.c **** 
 187:./Libraries/STM32_USB_Host_Library/Class/MTP/Src/usbh_mtp_ptp.c **** #if (USBH_USE_OS == 1U)
 188:./Libraries/STM32_USB_Host_Library/Class/MTP/Src/usbh_mtp_ptp.c ****         phost->os_msg = (uint32_t)USBH_URB_EVENT;
 189:./Libraries/STM32_USB_Host_Library/Class/MTP/Src/usbh_mtp_ptp.c **** #if (osCMSIS < 0x20000U)
 190:./Libraries/STM32_USB_Host_Library/Class/MTP/Src/usbh_mtp_ptp.c ****         (void)osMessagePut(phost->os_event, phost->os_msg, 0U);
 191:./Libraries/STM32_USB_Host_Library/Class/MTP/Src/usbh_mtp_ptp.c **** #else
 192:./Libraries/STM32_USB_Host_Library/Class/MTP/Src/usbh_mtp_ptp.c ****         (void)osMessageQueuePut(phost->os_event, &phost->os_msg, 0U, NULL);
 193:./Libraries/STM32_USB_Host_Library/Class/MTP/Src/usbh_mtp_ptp.c **** #endif
 194:./Libraries/STM32_USB_Host_Library/Class/MTP/Src/usbh_mtp_ptp.c **** #endif
 195:./Libraries/STM32_USB_Host_Library/Class/MTP/Src/usbh_mtp_ptp.c ****       }
 196:./Libraries/STM32_USB_Host_Library/Class/MTP/Src/usbh_mtp_ptp.c ****       else if (URB_Status == USBH_URB_NOTREADY)
 197:./Libraries/STM32_USB_Host_Library/Class/MTP/Src/usbh_mtp_ptp.c ****       {
 198:./Libraries/STM32_USB_Host_Library/Class/MTP/Src/usbh_mtp_ptp.c ****         /* Resend Request */
 199:./Libraries/STM32_USB_Host_Library/Class/MTP/Src/usbh_mtp_ptp.c ****         MTP_Handle->ptp.state = PTP_OP_REQUEST_STATE;
 200:./Libraries/STM32_USB_Host_Library/Class/MTP/Src/usbh_mtp_ptp.c **** 
 201:./Libraries/STM32_USB_Host_Library/Class/MTP/Src/usbh_mtp_ptp.c **** #if (USBH_USE_OS == 1U)
ARM GAS  /tmp/ccSE0mVF.s 			page 5


 202:./Libraries/STM32_USB_Host_Library/Class/MTP/Src/usbh_mtp_ptp.c ****         phost->os_msg = (uint32_t)USBH_URB_EVENT;
 203:./Libraries/STM32_USB_Host_Library/Class/MTP/Src/usbh_mtp_ptp.c **** #if (osCMSIS < 0x20000U)
 204:./Libraries/STM32_USB_Host_Library/Class/MTP/Src/usbh_mtp_ptp.c ****         (void)osMessagePut(phost->os_event, phost->os_msg, 0U);
 205:./Libraries/STM32_USB_Host_Library/Class/MTP/Src/usbh_mtp_ptp.c **** #else
 206:./Libraries/STM32_USB_Host_Library/Class/MTP/Src/usbh_mtp_ptp.c ****         (void)osMessageQueuePut(phost->os_event, &phost->os_msg, 0U, NULL);
 207:./Libraries/STM32_USB_Host_Library/Class/MTP/Src/usbh_mtp_ptp.c **** #endif
 208:./Libraries/STM32_USB_Host_Library/Class/MTP/Src/usbh_mtp_ptp.c **** #endif
 209:./Libraries/STM32_USB_Host_Library/Class/MTP/Src/usbh_mtp_ptp.c ****       }
 210:./Libraries/STM32_USB_Host_Library/Class/MTP/Src/usbh_mtp_ptp.c ****       else if (URB_Status == USBH_URB_STALL)
 211:./Libraries/STM32_USB_Host_Library/Class/MTP/Src/usbh_mtp_ptp.c ****       {
 212:./Libraries/STM32_USB_Host_Library/Class/MTP/Src/usbh_mtp_ptp.c ****         MTP_Handle->ptp.state  = PTP_ERROR;
 213:./Libraries/STM32_USB_Host_Library/Class/MTP/Src/usbh_mtp_ptp.c **** 
 214:./Libraries/STM32_USB_Host_Library/Class/MTP/Src/usbh_mtp_ptp.c **** #if (USBH_USE_OS == 1U)
 215:./Libraries/STM32_USB_Host_Library/Class/MTP/Src/usbh_mtp_ptp.c ****         phost->os_msg = (uint32_t)USBH_URB_EVENT;
 216:./Libraries/STM32_USB_Host_Library/Class/MTP/Src/usbh_mtp_ptp.c **** #if (osCMSIS < 0x20000U)
 217:./Libraries/STM32_USB_Host_Library/Class/MTP/Src/usbh_mtp_ptp.c ****         (void)osMessagePut(phost->os_event, phost->os_msg, 0U);
 218:./Libraries/STM32_USB_Host_Library/Class/MTP/Src/usbh_mtp_ptp.c **** #else
 219:./Libraries/STM32_USB_Host_Library/Class/MTP/Src/usbh_mtp_ptp.c ****         (void)osMessageQueuePut(phost->os_event, &phost->os_msg, 0U, NULL);
 220:./Libraries/STM32_USB_Host_Library/Class/MTP/Src/usbh_mtp_ptp.c **** #endif
 221:./Libraries/STM32_USB_Host_Library/Class/MTP/Src/usbh_mtp_ptp.c **** #endif
 222:./Libraries/STM32_USB_Host_Library/Class/MTP/Src/usbh_mtp_ptp.c ****       }
 223:./Libraries/STM32_USB_Host_Library/Class/MTP/Src/usbh_mtp_ptp.c ****       else
 224:./Libraries/STM32_USB_Host_Library/Class/MTP/Src/usbh_mtp_ptp.c ****       {
 225:./Libraries/STM32_USB_Host_Library/Class/MTP/Src/usbh_mtp_ptp.c ****       }
 226:./Libraries/STM32_USB_Host_Library/Class/MTP/Src/usbh_mtp_ptp.c ****       break;
 227:./Libraries/STM32_USB_Host_Library/Class/MTP/Src/usbh_mtp_ptp.c **** 
 228:./Libraries/STM32_USB_Host_Library/Class/MTP/Src/usbh_mtp_ptp.c ****     case PTP_DATA_OUT_PHASE_STATE:
 229:./Libraries/STM32_USB_Host_Library/Class/MTP/Src/usbh_mtp_ptp.c **** 
 230:./Libraries/STM32_USB_Host_Library/Class/MTP/Src/usbh_mtp_ptp.c ****       USBH_BulkSendData(phost,
 231:./Libraries/STM32_USB_Host_Library/Class/MTP/Src/usbh_mtp_ptp.c ****                         MTP_Handle->ptp.data_ptr,
 232:./Libraries/STM32_USB_Host_Library/Class/MTP/Src/usbh_mtp_ptp.c ****                         MTP_Handle->DataOutEpSize,
 233:./Libraries/STM32_USB_Host_Library/Class/MTP/Src/usbh_mtp_ptp.c ****                         MTP_Handle->DataOutPipe,
 234:./Libraries/STM32_USB_Host_Library/Class/MTP/Src/usbh_mtp_ptp.c ****                         1U);
 235:./Libraries/STM32_USB_Host_Library/Class/MTP/Src/usbh_mtp_ptp.c **** 
 236:./Libraries/STM32_USB_Host_Library/Class/MTP/Src/usbh_mtp_ptp.c **** 
 237:./Libraries/STM32_USB_Host_Library/Class/MTP/Src/usbh_mtp_ptp.c ****       MTP_Handle->ptp.state  = PTP_DATA_OUT_PHASE_WAIT_STATE;
 238:./Libraries/STM32_USB_Host_Library/Class/MTP/Src/usbh_mtp_ptp.c ****       break;
 239:./Libraries/STM32_USB_Host_Library/Class/MTP/Src/usbh_mtp_ptp.c **** 
 240:./Libraries/STM32_USB_Host_Library/Class/MTP/Src/usbh_mtp_ptp.c ****     case PTP_DATA_OUT_PHASE_WAIT_STATE:
 241:./Libraries/STM32_USB_Host_Library/Class/MTP/Src/usbh_mtp_ptp.c ****       URB_Status = USBH_LL_GetURBState(phost, MTP_Handle->DataOutPipe);
 242:./Libraries/STM32_USB_Host_Library/Class/MTP/Src/usbh_mtp_ptp.c **** 
 243:./Libraries/STM32_USB_Host_Library/Class/MTP/Src/usbh_mtp_ptp.c ****       if (URB_Status == USBH_URB_DONE)
 244:./Libraries/STM32_USB_Host_Library/Class/MTP/Src/usbh_mtp_ptp.c ****       {
 245:./Libraries/STM32_USB_Host_Library/Class/MTP/Src/usbh_mtp_ptp.c ****         /* Adjust Data pointer and data length */
 246:./Libraries/STM32_USB_Host_Library/Class/MTP/Src/usbh_mtp_ptp.c ****         if (MTP_Handle->ptp.data_length > MTP_Handle->DataOutEpSize)
 247:./Libraries/STM32_USB_Host_Library/Class/MTP/Src/usbh_mtp_ptp.c ****         {
 248:./Libraries/STM32_USB_Host_Library/Class/MTP/Src/usbh_mtp_ptp.c ****           MTP_Handle->ptp.data_ptr += MTP_Handle->DataOutEpSize;
 249:./Libraries/STM32_USB_Host_Library/Class/MTP/Src/usbh_mtp_ptp.c ****           MTP_Handle->ptp.data_length -= MTP_Handle->DataOutEpSize;
 250:./Libraries/STM32_USB_Host_Library/Class/MTP/Src/usbh_mtp_ptp.c ****           MTP_Handle->ptp.data_packet += MTP_Handle->DataOutEpSize;
 251:./Libraries/STM32_USB_Host_Library/Class/MTP/Src/usbh_mtp_ptp.c **** 
 252:./Libraries/STM32_USB_Host_Library/Class/MTP/Src/usbh_mtp_ptp.c ****           if (MTP_Handle->ptp.data_packet >= PTP_USB_BULK_PAYLOAD_LEN_READ)
 253:./Libraries/STM32_USB_Host_Library/Class/MTP/Src/usbh_mtp_ptp.c ****           {
 254:./Libraries/STM32_USB_Host_Library/Class/MTP/Src/usbh_mtp_ptp.c ****             PTP_BufferFullCallback(phost);
 255:./Libraries/STM32_USB_Host_Library/Class/MTP/Src/usbh_mtp_ptp.c ****             MTP_Handle->ptp.data_packet = 0U;
 256:./Libraries/STM32_USB_Host_Library/Class/MTP/Src/usbh_mtp_ptp.c ****             MTP_Handle->ptp.iteration++;
 257:./Libraries/STM32_USB_Host_Library/Class/MTP/Src/usbh_mtp_ptp.c ****           }
 258:./Libraries/STM32_USB_Host_Library/Class/MTP/Src/usbh_mtp_ptp.c ****         }
ARM GAS  /tmp/ccSE0mVF.s 			page 6


 259:./Libraries/STM32_USB_Host_Library/Class/MTP/Src/usbh_mtp_ptp.c ****         else
 260:./Libraries/STM32_USB_Host_Library/Class/MTP/Src/usbh_mtp_ptp.c ****         {
 261:./Libraries/STM32_USB_Host_Library/Class/MTP/Src/usbh_mtp_ptp.c ****           MTP_Handle->ptp.data_length = 0U;
 262:./Libraries/STM32_USB_Host_Library/Class/MTP/Src/usbh_mtp_ptp.c ****         }
 263:./Libraries/STM32_USB_Host_Library/Class/MTP/Src/usbh_mtp_ptp.c **** 
 264:./Libraries/STM32_USB_Host_Library/Class/MTP/Src/usbh_mtp_ptp.c ****         /* More Data To be Sent */
 265:./Libraries/STM32_USB_Host_Library/Class/MTP/Src/usbh_mtp_ptp.c ****         if (MTP_Handle->ptp.data_length > 0U)
 266:./Libraries/STM32_USB_Host_Library/Class/MTP/Src/usbh_mtp_ptp.c ****         {
 267:./Libraries/STM32_USB_Host_Library/Class/MTP/Src/usbh_mtp_ptp.c ****           USBH_BulkSendData(phost,
 268:./Libraries/STM32_USB_Host_Library/Class/MTP/Src/usbh_mtp_ptp.c ****                             MTP_Handle->ptp.data_ptr,
 269:./Libraries/STM32_USB_Host_Library/Class/MTP/Src/usbh_mtp_ptp.c ****                             MTP_Handle->DataOutEpSize,
 270:./Libraries/STM32_USB_Host_Library/Class/MTP/Src/usbh_mtp_ptp.c ****                             MTP_Handle->DataOutPipe,
 271:./Libraries/STM32_USB_Host_Library/Class/MTP/Src/usbh_mtp_ptp.c ****                             1U);
 272:./Libraries/STM32_USB_Host_Library/Class/MTP/Src/usbh_mtp_ptp.c ****         }
 273:./Libraries/STM32_USB_Host_Library/Class/MTP/Src/usbh_mtp_ptp.c ****         else
 274:./Libraries/STM32_USB_Host_Library/Class/MTP/Src/usbh_mtp_ptp.c ****         {
 275:./Libraries/STM32_USB_Host_Library/Class/MTP/Src/usbh_mtp_ptp.c ****           /* If value was 0, and successful transfer, then change the state */
 276:./Libraries/STM32_USB_Host_Library/Class/MTP/Src/usbh_mtp_ptp.c ****           MTP_Handle->ptp.state  = PTP_RESPONSE_STATE;
 277:./Libraries/STM32_USB_Host_Library/Class/MTP/Src/usbh_mtp_ptp.c ****         }
 278:./Libraries/STM32_USB_Host_Library/Class/MTP/Src/usbh_mtp_ptp.c **** 
 279:./Libraries/STM32_USB_Host_Library/Class/MTP/Src/usbh_mtp_ptp.c **** #if (USBH_USE_OS == 1U)
 280:./Libraries/STM32_USB_Host_Library/Class/MTP/Src/usbh_mtp_ptp.c ****         phost->os_msg = (uint32_t)USBH_URB_EVENT;
 281:./Libraries/STM32_USB_Host_Library/Class/MTP/Src/usbh_mtp_ptp.c **** #if (osCMSIS < 0x20000U)
 282:./Libraries/STM32_USB_Host_Library/Class/MTP/Src/usbh_mtp_ptp.c ****         (void)osMessagePut(phost->os_event, phost->os_msg, 0U);
 283:./Libraries/STM32_USB_Host_Library/Class/MTP/Src/usbh_mtp_ptp.c **** #else
 284:./Libraries/STM32_USB_Host_Library/Class/MTP/Src/usbh_mtp_ptp.c ****         (void)osMessageQueuePut(phost->os_event, &phost->os_msg, 0U, NULL);
 285:./Libraries/STM32_USB_Host_Library/Class/MTP/Src/usbh_mtp_ptp.c **** #endif
 286:./Libraries/STM32_USB_Host_Library/Class/MTP/Src/usbh_mtp_ptp.c **** #endif
 287:./Libraries/STM32_USB_Host_Library/Class/MTP/Src/usbh_mtp_ptp.c ****       }
 288:./Libraries/STM32_USB_Host_Library/Class/MTP/Src/usbh_mtp_ptp.c ****       else if (URB_Status == USBH_URB_NOTREADY)
 289:./Libraries/STM32_USB_Host_Library/Class/MTP/Src/usbh_mtp_ptp.c ****       {
 290:./Libraries/STM32_USB_Host_Library/Class/MTP/Src/usbh_mtp_ptp.c ****         /* Resend same data */
 291:./Libraries/STM32_USB_Host_Library/Class/MTP/Src/usbh_mtp_ptp.c ****         MTP_Handle->ptp.state = PTP_DATA_OUT_PHASE_STATE;
 292:./Libraries/STM32_USB_Host_Library/Class/MTP/Src/usbh_mtp_ptp.c **** 
 293:./Libraries/STM32_USB_Host_Library/Class/MTP/Src/usbh_mtp_ptp.c **** #if (USBH_USE_OS == 1U)
 294:./Libraries/STM32_USB_Host_Library/Class/MTP/Src/usbh_mtp_ptp.c ****         phost->os_msg = (uint32_t)USBH_URB_EVENT;
 295:./Libraries/STM32_USB_Host_Library/Class/MTP/Src/usbh_mtp_ptp.c **** #if (osCMSIS < 0x20000U)
 296:./Libraries/STM32_USB_Host_Library/Class/MTP/Src/usbh_mtp_ptp.c ****         (void)osMessagePut(phost->os_event, phost->os_msg, 0U);
 297:./Libraries/STM32_USB_Host_Library/Class/MTP/Src/usbh_mtp_ptp.c **** #else
 298:./Libraries/STM32_USB_Host_Library/Class/MTP/Src/usbh_mtp_ptp.c ****         (void)osMessageQueuePut(phost->os_event, &phost->os_msg, 0U, NULL);
 299:./Libraries/STM32_USB_Host_Library/Class/MTP/Src/usbh_mtp_ptp.c **** #endif
 300:./Libraries/STM32_USB_Host_Library/Class/MTP/Src/usbh_mtp_ptp.c **** #endif
 301:./Libraries/STM32_USB_Host_Library/Class/MTP/Src/usbh_mtp_ptp.c ****       }
 302:./Libraries/STM32_USB_Host_Library/Class/MTP/Src/usbh_mtp_ptp.c ****       else if (URB_Status == USBH_URB_STALL)
 303:./Libraries/STM32_USB_Host_Library/Class/MTP/Src/usbh_mtp_ptp.c ****       {
 304:./Libraries/STM32_USB_Host_Library/Class/MTP/Src/usbh_mtp_ptp.c ****         MTP_Handle->ptp.state  = PTP_ERROR;
 305:./Libraries/STM32_USB_Host_Library/Class/MTP/Src/usbh_mtp_ptp.c **** 
 306:./Libraries/STM32_USB_Host_Library/Class/MTP/Src/usbh_mtp_ptp.c **** #if (USBH_USE_OS == 1U)
 307:./Libraries/STM32_USB_Host_Library/Class/MTP/Src/usbh_mtp_ptp.c ****         phost->os_msg = (uint32_t)USBH_URB_EVENT;
 308:./Libraries/STM32_USB_Host_Library/Class/MTP/Src/usbh_mtp_ptp.c **** #if (osCMSIS < 0x20000U)
 309:./Libraries/STM32_USB_Host_Library/Class/MTP/Src/usbh_mtp_ptp.c ****         (void)osMessagePut(phost->os_event, phost->os_msg, 0U);
 310:./Libraries/STM32_USB_Host_Library/Class/MTP/Src/usbh_mtp_ptp.c **** #else
 311:./Libraries/STM32_USB_Host_Library/Class/MTP/Src/usbh_mtp_ptp.c ****         (void)osMessageQueuePut(phost->os_event, &phost->os_msg, 0U, NULL);
 312:./Libraries/STM32_USB_Host_Library/Class/MTP/Src/usbh_mtp_ptp.c **** #endif
 313:./Libraries/STM32_USB_Host_Library/Class/MTP/Src/usbh_mtp_ptp.c **** #endif
 314:./Libraries/STM32_USB_Host_Library/Class/MTP/Src/usbh_mtp_ptp.c ****       }
 315:./Libraries/STM32_USB_Host_Library/Class/MTP/Src/usbh_mtp_ptp.c ****       else
ARM GAS  /tmp/ccSE0mVF.s 			page 7


 316:./Libraries/STM32_USB_Host_Library/Class/MTP/Src/usbh_mtp_ptp.c ****       {
 317:./Libraries/STM32_USB_Host_Library/Class/MTP/Src/usbh_mtp_ptp.c ****         /* .. */
 318:./Libraries/STM32_USB_Host_Library/Class/MTP/Src/usbh_mtp_ptp.c ****       }
 319:./Libraries/STM32_USB_Host_Library/Class/MTP/Src/usbh_mtp_ptp.c ****       break;
 320:./Libraries/STM32_USB_Host_Library/Class/MTP/Src/usbh_mtp_ptp.c **** 
 321:./Libraries/STM32_USB_Host_Library/Class/MTP/Src/usbh_mtp_ptp.c ****     case PTP_DATA_IN_PHASE_STATE:
 322:./Libraries/STM32_USB_Host_Library/Class/MTP/Src/usbh_mtp_ptp.c ****       /* Send first packet */
 323:./Libraries/STM32_USB_Host_Library/Class/MTP/Src/usbh_mtp_ptp.c ****       USBH_BulkReceiveData(phost,
 324:./Libraries/STM32_USB_Host_Library/Class/MTP/Src/usbh_mtp_ptp.c ****                            MTP_Handle->ptp.data_ptr,
 325:./Libraries/STM32_USB_Host_Library/Class/MTP/Src/usbh_mtp_ptp.c ****                            MTP_Handle->DataInEpSize,
 326:./Libraries/STM32_USB_Host_Library/Class/MTP/Src/usbh_mtp_ptp.c ****                            MTP_Handle->DataInPipe);
 327:./Libraries/STM32_USB_Host_Library/Class/MTP/Src/usbh_mtp_ptp.c **** 
 328:./Libraries/STM32_USB_Host_Library/Class/MTP/Src/usbh_mtp_ptp.c ****       MTP_Handle->ptp.state  = PTP_DATA_IN_PHASE_WAIT_STATE;
 329:./Libraries/STM32_USB_Host_Library/Class/MTP/Src/usbh_mtp_ptp.c ****       break;
 330:./Libraries/STM32_USB_Host_Library/Class/MTP/Src/usbh_mtp_ptp.c **** 
 331:./Libraries/STM32_USB_Host_Library/Class/MTP/Src/usbh_mtp_ptp.c ****     case PTP_DATA_IN_PHASE_WAIT_STATE:
 332:./Libraries/STM32_USB_Host_Library/Class/MTP/Src/usbh_mtp_ptp.c ****       URB_Status = USBH_LL_GetURBState(phost, MTP_Handle->DataInPipe);
 333:./Libraries/STM32_USB_Host_Library/Class/MTP/Src/usbh_mtp_ptp.c **** 
 334:./Libraries/STM32_USB_Host_Library/Class/MTP/Src/usbh_mtp_ptp.c ****       if (URB_Status == USBH_URB_DONE)
 335:./Libraries/STM32_USB_Host_Library/Class/MTP/Src/usbh_mtp_ptp.c ****       {
 336:./Libraries/STM32_USB_Host_Library/Class/MTP/Src/usbh_mtp_ptp.c ****         len = USBH_LL_GetLastXferSize(phost, MTP_Handle->DataInPipe);
 337:./Libraries/STM32_USB_Host_Library/Class/MTP/Src/usbh_mtp_ptp.c **** 
 338:./Libraries/STM32_USB_Host_Library/Class/MTP/Src/usbh_mtp_ptp.c ****         if (MTP_Handle->ptp.data_packet_counter++ == 0U)
 339:./Libraries/STM32_USB_Host_Library/Class/MTP/Src/usbh_mtp_ptp.c ****         {
 340:./Libraries/STM32_USB_Host_Library/Class/MTP/Src/usbh_mtp_ptp.c ****           /* This is the first packet; so retrieve exact data length from payload */
 341:./Libraries/STM32_USB_Host_Library/Class/MTP/Src/usbh_mtp_ptp.c ****           MTP_Handle->ptp.data_length = *(uint32_t *)(void *)(MTP_Handle->ptp.data_ptr);
 342:./Libraries/STM32_USB_Host_Library/Class/MTP/Src/usbh_mtp_ptp.c ****           MTP_Handle->ptp.iteration = 0U;
 343:./Libraries/STM32_USB_Host_Library/Class/MTP/Src/usbh_mtp_ptp.c ****         }
 344:./Libraries/STM32_USB_Host_Library/Class/MTP/Src/usbh_mtp_ptp.c **** 
 345:./Libraries/STM32_USB_Host_Library/Class/MTP/Src/usbh_mtp_ptp.c ****         if ((len >=  MTP_Handle->DataInEpSize) && (MTP_Handle->ptp.data_length > 0U))
 346:./Libraries/STM32_USB_Host_Library/Class/MTP/Src/usbh_mtp_ptp.c ****         {
 347:./Libraries/STM32_USB_Host_Library/Class/MTP/Src/usbh_mtp_ptp.c ****           MTP_Handle->ptp.data_ptr += len;
 348:./Libraries/STM32_USB_Host_Library/Class/MTP/Src/usbh_mtp_ptp.c ****           MTP_Handle->ptp.data_length -= len;
 349:./Libraries/STM32_USB_Host_Library/Class/MTP/Src/usbh_mtp_ptp.c ****           MTP_Handle->ptp.data_packet += len;
 350:./Libraries/STM32_USB_Host_Library/Class/MTP/Src/usbh_mtp_ptp.c **** 
 351:./Libraries/STM32_USB_Host_Library/Class/MTP/Src/usbh_mtp_ptp.c ****           if (MTP_Handle->ptp.data_packet >= PTP_USB_BULK_PAYLOAD_LEN_READ)
 352:./Libraries/STM32_USB_Host_Library/Class/MTP/Src/usbh_mtp_ptp.c ****           {
 353:./Libraries/STM32_USB_Host_Library/Class/MTP/Src/usbh_mtp_ptp.c ****             PTP_BufferFullCallback(phost);
 354:./Libraries/STM32_USB_Host_Library/Class/MTP/Src/usbh_mtp_ptp.c ****             MTP_Handle->ptp.data_packet = 0U;
 355:./Libraries/STM32_USB_Host_Library/Class/MTP/Src/usbh_mtp_ptp.c ****             MTP_Handle->ptp.iteration++;
 356:./Libraries/STM32_USB_Host_Library/Class/MTP/Src/usbh_mtp_ptp.c ****           }
 357:./Libraries/STM32_USB_Host_Library/Class/MTP/Src/usbh_mtp_ptp.c **** 
 358:./Libraries/STM32_USB_Host_Library/Class/MTP/Src/usbh_mtp_ptp.c ****           /* Continue receiving data*/
 359:./Libraries/STM32_USB_Host_Library/Class/MTP/Src/usbh_mtp_ptp.c ****           USBH_BulkReceiveData(phost,
 360:./Libraries/STM32_USB_Host_Library/Class/MTP/Src/usbh_mtp_ptp.c ****                                MTP_Handle->ptp.data_ptr,
 361:./Libraries/STM32_USB_Host_Library/Class/MTP/Src/usbh_mtp_ptp.c ****                                MTP_Handle->DataInEpSize,
 362:./Libraries/STM32_USB_Host_Library/Class/MTP/Src/usbh_mtp_ptp.c ****                                MTP_Handle->DataInPipe);
 363:./Libraries/STM32_USB_Host_Library/Class/MTP/Src/usbh_mtp_ptp.c ****         }
 364:./Libraries/STM32_USB_Host_Library/Class/MTP/Src/usbh_mtp_ptp.c ****         else
 365:./Libraries/STM32_USB_Host_Library/Class/MTP/Src/usbh_mtp_ptp.c ****         {
 366:./Libraries/STM32_USB_Host_Library/Class/MTP/Src/usbh_mtp_ptp.c ****           MTP_Handle->ptp.data_length -= len;
 367:./Libraries/STM32_USB_Host_Library/Class/MTP/Src/usbh_mtp_ptp.c ****           MTP_Handle->ptp.state = PTP_RESPONSE_STATE;
 368:./Libraries/STM32_USB_Host_Library/Class/MTP/Src/usbh_mtp_ptp.c **** 
 369:./Libraries/STM32_USB_Host_Library/Class/MTP/Src/usbh_mtp_ptp.c **** #if (USBH_USE_OS == 1U)
 370:./Libraries/STM32_USB_Host_Library/Class/MTP/Src/usbh_mtp_ptp.c ****           phost->os_msg = (uint32_t)USBH_URB_EVENT;
 371:./Libraries/STM32_USB_Host_Library/Class/MTP/Src/usbh_mtp_ptp.c **** #if (osCMSIS < 0x20000U)
 372:./Libraries/STM32_USB_Host_Library/Class/MTP/Src/usbh_mtp_ptp.c ****           (void)osMessagePut(phost->os_event, phost->os_msg, 0U);
ARM GAS  /tmp/ccSE0mVF.s 			page 8


 373:./Libraries/STM32_USB_Host_Library/Class/MTP/Src/usbh_mtp_ptp.c **** #else
 374:./Libraries/STM32_USB_Host_Library/Class/MTP/Src/usbh_mtp_ptp.c ****           (void)osMessageQueuePut(phost->os_event, &phost->os_msg, 0U, NULL);
 375:./Libraries/STM32_USB_Host_Library/Class/MTP/Src/usbh_mtp_ptp.c **** #endif
 376:./Libraries/STM32_USB_Host_Library/Class/MTP/Src/usbh_mtp_ptp.c **** #endif
 377:./Libraries/STM32_USB_Host_Library/Class/MTP/Src/usbh_mtp_ptp.c ****         }
 378:./Libraries/STM32_USB_Host_Library/Class/MTP/Src/usbh_mtp_ptp.c ****       }
 379:./Libraries/STM32_USB_Host_Library/Class/MTP/Src/usbh_mtp_ptp.c ****       else if (URB_Status == USBH_URB_STALL)
 380:./Libraries/STM32_USB_Host_Library/Class/MTP/Src/usbh_mtp_ptp.c ****       {
 381:./Libraries/STM32_USB_Host_Library/Class/MTP/Src/usbh_mtp_ptp.c ****         MTP_Handle->ptp.state  = PTP_ERROR;
 382:./Libraries/STM32_USB_Host_Library/Class/MTP/Src/usbh_mtp_ptp.c **** 
 383:./Libraries/STM32_USB_Host_Library/Class/MTP/Src/usbh_mtp_ptp.c **** #if (USBH_USE_OS == 1U)
 384:./Libraries/STM32_USB_Host_Library/Class/MTP/Src/usbh_mtp_ptp.c ****         phost->os_msg = (uint32_t)USBH_URB_EVENT;
 385:./Libraries/STM32_USB_Host_Library/Class/MTP/Src/usbh_mtp_ptp.c **** #if (osCMSIS < 0x20000U)
 386:./Libraries/STM32_USB_Host_Library/Class/MTP/Src/usbh_mtp_ptp.c ****         (void)osMessagePut(phost->os_event, phost->os_msg, 0U);
 387:./Libraries/STM32_USB_Host_Library/Class/MTP/Src/usbh_mtp_ptp.c **** #else
 388:./Libraries/STM32_USB_Host_Library/Class/MTP/Src/usbh_mtp_ptp.c ****         (void)osMessageQueuePut(phost->os_event, &phost->os_msg, 0U, NULL);
 389:./Libraries/STM32_USB_Host_Library/Class/MTP/Src/usbh_mtp_ptp.c **** #endif
 390:./Libraries/STM32_USB_Host_Library/Class/MTP/Src/usbh_mtp_ptp.c **** #endif
 391:./Libraries/STM32_USB_Host_Library/Class/MTP/Src/usbh_mtp_ptp.c ****       }
 392:./Libraries/STM32_USB_Host_Library/Class/MTP/Src/usbh_mtp_ptp.c ****       else
 393:./Libraries/STM32_USB_Host_Library/Class/MTP/Src/usbh_mtp_ptp.c ****       {
 394:./Libraries/STM32_USB_Host_Library/Class/MTP/Src/usbh_mtp_ptp.c ****         /* .. */
 395:./Libraries/STM32_USB_Host_Library/Class/MTP/Src/usbh_mtp_ptp.c ****       }
 396:./Libraries/STM32_USB_Host_Library/Class/MTP/Src/usbh_mtp_ptp.c ****       break;
 397:./Libraries/STM32_USB_Host_Library/Class/MTP/Src/usbh_mtp_ptp.c **** 
 398:./Libraries/STM32_USB_Host_Library/Class/MTP/Src/usbh_mtp_ptp.c ****     case PTP_RESPONSE_STATE:
 399:./Libraries/STM32_USB_Host_Library/Class/MTP/Src/usbh_mtp_ptp.c ****       USBH_BulkReceiveData(phost,
 400:./Libraries/STM32_USB_Host_Library/Class/MTP/Src/usbh_mtp_ptp.c ****                            (uint8_t *)(void *) & (MTP_Handle->ptp.resp_container),
 401:./Libraries/STM32_USB_Host_Library/Class/MTP/Src/usbh_mtp_ptp.c ****                            PTP_USB_BULK_REQ_RESP_MAX_LEN,
 402:./Libraries/STM32_USB_Host_Library/Class/MTP/Src/usbh_mtp_ptp.c ****                            MTP_Handle->DataInPipe);
 403:./Libraries/STM32_USB_Host_Library/Class/MTP/Src/usbh_mtp_ptp.c **** 
 404:./Libraries/STM32_USB_Host_Library/Class/MTP/Src/usbh_mtp_ptp.c ****       MTP_Handle->ptp.state  = PTP_RESPONSE_WAIT_STATE;
 405:./Libraries/STM32_USB_Host_Library/Class/MTP/Src/usbh_mtp_ptp.c ****       break;
 406:./Libraries/STM32_USB_Host_Library/Class/MTP/Src/usbh_mtp_ptp.c **** 
 407:./Libraries/STM32_USB_Host_Library/Class/MTP/Src/usbh_mtp_ptp.c ****     case PTP_RESPONSE_WAIT_STATE:
 408:./Libraries/STM32_USB_Host_Library/Class/MTP/Src/usbh_mtp_ptp.c ****       URB_Status = USBH_LL_GetURBState(phost, MTP_Handle->DataInPipe);
 409:./Libraries/STM32_USB_Host_Library/Class/MTP/Src/usbh_mtp_ptp.c **** 
 410:./Libraries/STM32_USB_Host_Library/Class/MTP/Src/usbh_mtp_ptp.c ****       if (URB_Status == USBH_URB_DONE)
 411:./Libraries/STM32_USB_Host_Library/Class/MTP/Src/usbh_mtp_ptp.c ****       {
 412:./Libraries/STM32_USB_Host_Library/Class/MTP/Src/usbh_mtp_ptp.c ****         USBH_PTP_GetResponse(phost, &ptp_container);
 413:./Libraries/STM32_USB_Host_Library/Class/MTP/Src/usbh_mtp_ptp.c **** 
 414:./Libraries/STM32_USB_Host_Library/Class/MTP/Src/usbh_mtp_ptp.c ****         if (ptp_container.Code == PTP_RC_OK)
 415:./Libraries/STM32_USB_Host_Library/Class/MTP/Src/usbh_mtp_ptp.c ****         {
 416:./Libraries/STM32_USB_Host_Library/Class/MTP/Src/usbh_mtp_ptp.c ****           status = USBH_OK;
 417:./Libraries/STM32_USB_Host_Library/Class/MTP/Src/usbh_mtp_ptp.c ****         }
 418:./Libraries/STM32_USB_Host_Library/Class/MTP/Src/usbh_mtp_ptp.c ****         else
 419:./Libraries/STM32_USB_Host_Library/Class/MTP/Src/usbh_mtp_ptp.c ****         {
 420:./Libraries/STM32_USB_Host_Library/Class/MTP/Src/usbh_mtp_ptp.c ****           status = USBH_FAIL;
 421:./Libraries/STM32_USB_Host_Library/Class/MTP/Src/usbh_mtp_ptp.c ****         }
 422:./Libraries/STM32_USB_Host_Library/Class/MTP/Src/usbh_mtp_ptp.c ****         MTP_Handle->ptp.req_state = PTP_REQ_SEND;
 423:./Libraries/STM32_USB_Host_Library/Class/MTP/Src/usbh_mtp_ptp.c ****       }
 424:./Libraries/STM32_USB_Host_Library/Class/MTP/Src/usbh_mtp_ptp.c ****       else if (URB_Status == USBH_URB_STALL)
 425:./Libraries/STM32_USB_Host_Library/Class/MTP/Src/usbh_mtp_ptp.c ****       {
 426:./Libraries/STM32_USB_Host_Library/Class/MTP/Src/usbh_mtp_ptp.c ****         MTP_Handle->ptp.state  = PTP_ERROR;
 427:./Libraries/STM32_USB_Host_Library/Class/MTP/Src/usbh_mtp_ptp.c **** 
 428:./Libraries/STM32_USB_Host_Library/Class/MTP/Src/usbh_mtp_ptp.c **** #if (USBH_USE_OS == 1U)
 429:./Libraries/STM32_USB_Host_Library/Class/MTP/Src/usbh_mtp_ptp.c ****         phost->os_msg = (uint32_t)USBH_URB_EVENT;
ARM GAS  /tmp/ccSE0mVF.s 			page 9


 430:./Libraries/STM32_USB_Host_Library/Class/MTP/Src/usbh_mtp_ptp.c **** #if (osCMSIS < 0x20000U)
 431:./Libraries/STM32_USB_Host_Library/Class/MTP/Src/usbh_mtp_ptp.c ****         (void)osMessagePut(phost->os_event, phost->os_msg, 0U);
 432:./Libraries/STM32_USB_Host_Library/Class/MTP/Src/usbh_mtp_ptp.c **** #else
 433:./Libraries/STM32_USB_Host_Library/Class/MTP/Src/usbh_mtp_ptp.c ****         (void)osMessageQueuePut(phost->os_event, &phost->os_msg, 0U, NULL);
 434:./Libraries/STM32_USB_Host_Library/Class/MTP/Src/usbh_mtp_ptp.c **** #endif
 435:./Libraries/STM32_USB_Host_Library/Class/MTP/Src/usbh_mtp_ptp.c **** #endif
 436:./Libraries/STM32_USB_Host_Library/Class/MTP/Src/usbh_mtp_ptp.c ****       }
 437:./Libraries/STM32_USB_Host_Library/Class/MTP/Src/usbh_mtp_ptp.c ****       else
 438:./Libraries/STM32_USB_Host_Library/Class/MTP/Src/usbh_mtp_ptp.c ****       {
 439:./Libraries/STM32_USB_Host_Library/Class/MTP/Src/usbh_mtp_ptp.c ****         /* .. */
 440:./Libraries/STM32_USB_Host_Library/Class/MTP/Src/usbh_mtp_ptp.c ****       }
 441:./Libraries/STM32_USB_Host_Library/Class/MTP/Src/usbh_mtp_ptp.c ****       break;
 442:./Libraries/STM32_USB_Host_Library/Class/MTP/Src/usbh_mtp_ptp.c **** 
 443:./Libraries/STM32_USB_Host_Library/Class/MTP/Src/usbh_mtp_ptp.c ****     case PTP_ERROR:
 444:./Libraries/STM32_USB_Host_Library/Class/MTP/Src/usbh_mtp_ptp.c ****       MTP_Handle->ptp.req_state = PTP_REQ_SEND;
 445:./Libraries/STM32_USB_Host_Library/Class/MTP/Src/usbh_mtp_ptp.c ****       break;
 446:./Libraries/STM32_USB_Host_Library/Class/MTP/Src/usbh_mtp_ptp.c **** 
 447:./Libraries/STM32_USB_Host_Library/Class/MTP/Src/usbh_mtp_ptp.c ****     default:
 448:./Libraries/STM32_USB_Host_Library/Class/MTP/Src/usbh_mtp_ptp.c ****       break;
 449:./Libraries/STM32_USB_Host_Library/Class/MTP/Src/usbh_mtp_ptp.c ****   }
 450:./Libraries/STM32_USB_Host_Library/Class/MTP/Src/usbh_mtp_ptp.c ****   return status;
 451:./Libraries/STM32_USB_Host_Library/Class/MTP/Src/usbh_mtp_ptp.c **** }
 452:./Libraries/STM32_USB_Host_Library/Class/MTP/Src/usbh_mtp_ptp.c **** 
 453:./Libraries/STM32_USB_Host_Library/Class/MTP/Src/usbh_mtp_ptp.c **** /**
 454:./Libraries/STM32_USB_Host_Library/Class/MTP/Src/usbh_mtp_ptp.c ****   * @brief  USBH_PTP_OpenSession
 455:./Libraries/STM32_USB_Host_Library/Class/MTP/Src/usbh_mtp_ptp.c ****   *         Open a new session
 456:./Libraries/STM32_USB_Host_Library/Class/MTP/Src/usbh_mtp_ptp.c ****   * @param  phost: Host handle
 457:./Libraries/STM32_USB_Host_Library/Class/MTP/Src/usbh_mtp_ptp.c ****   * @retval USBH Status
 458:./Libraries/STM32_USB_Host_Library/Class/MTP/Src/usbh_mtp_ptp.c ****   */
 459:./Libraries/STM32_USB_Host_Library/Class/MTP/Src/usbh_mtp_ptp.c **** USBH_StatusTypeDef USBH_PTP_SendRequest(USBH_HandleTypeDef *phost, PTP_ContainerTypedef  *req)
 460:./Libraries/STM32_USB_Host_Library/Class/MTP/Src/usbh_mtp_ptp.c **** {
 461:./Libraries/STM32_USB_Host_Library/Class/MTP/Src/usbh_mtp_ptp.c ****   USBH_StatusTypeDef status = USBH_OK;
 462:./Libraries/STM32_USB_Host_Library/Class/MTP/Src/usbh_mtp_ptp.c ****   MTP_HandleTypeDef *MTP_Handle = (MTP_HandleTypeDef *)phost->pActiveClass->pData;
 463:./Libraries/STM32_USB_Host_Library/Class/MTP/Src/usbh_mtp_ptp.c **** 
 464:./Libraries/STM32_USB_Host_Library/Class/MTP/Src/usbh_mtp_ptp.c ****   /* Clear PTP Data container*/
 465:./Libraries/STM32_USB_Host_Library/Class/MTP/Src/usbh_mtp_ptp.c ****   USBH_memset(&(MTP_Handle->ptp.op_container), 0, sizeof(PTP_OpContainerTypedef));
 466:./Libraries/STM32_USB_Host_Library/Class/MTP/Src/usbh_mtp_ptp.c **** 
 467:./Libraries/STM32_USB_Host_Library/Class/MTP/Src/usbh_mtp_ptp.c ****   /* build appropriate USB container */
 468:./Libraries/STM32_USB_Host_Library/Class/MTP/Src/usbh_mtp_ptp.c ****   MTP_Handle->ptp.op_container.length = PTP_USB_BULK_REQ_LEN - (sizeof(uint32_t) * (5U - req->Npara
 469:./Libraries/STM32_USB_Host_Library/Class/MTP/Src/usbh_mtp_ptp.c ****   MTP_Handle->ptp.op_container.type = PTP_USB_CONTAINER_COMMAND;
 470:./Libraries/STM32_USB_Host_Library/Class/MTP/Src/usbh_mtp_ptp.c ****   MTP_Handle->ptp.op_container.code = req->Code;
 471:./Libraries/STM32_USB_Host_Library/Class/MTP/Src/usbh_mtp_ptp.c ****   MTP_Handle->ptp.op_container.trans_id = req->Transaction_ID;
 472:./Libraries/STM32_USB_Host_Library/Class/MTP/Src/usbh_mtp_ptp.c ****   MTP_Handle->ptp.op_container.param1 = req->Param1;
 473:./Libraries/STM32_USB_Host_Library/Class/MTP/Src/usbh_mtp_ptp.c ****   MTP_Handle->ptp.op_container.param2 = req->Param2;
 474:./Libraries/STM32_USB_Host_Library/Class/MTP/Src/usbh_mtp_ptp.c ****   MTP_Handle->ptp.op_container.param3 = req->Param3;
 475:./Libraries/STM32_USB_Host_Library/Class/MTP/Src/usbh_mtp_ptp.c ****   MTP_Handle->ptp.op_container.param4 = req->Param4;
 476:./Libraries/STM32_USB_Host_Library/Class/MTP/Src/usbh_mtp_ptp.c ****   MTP_Handle->ptp.op_container.param5 = req->Param5;
 477:./Libraries/STM32_USB_Host_Library/Class/MTP/Src/usbh_mtp_ptp.c **** 
 478:./Libraries/STM32_USB_Host_Library/Class/MTP/Src/usbh_mtp_ptp.c ****   return status;
 479:./Libraries/STM32_USB_Host_Library/Class/MTP/Src/usbh_mtp_ptp.c **** }
 480:./Libraries/STM32_USB_Host_Library/Class/MTP/Src/usbh_mtp_ptp.c **** 
 481:./Libraries/STM32_USB_Host_Library/Class/MTP/Src/usbh_mtp_ptp.c **** /**
 482:./Libraries/STM32_USB_Host_Library/Class/MTP/Src/usbh_mtp_ptp.c ****   * @brief  USBH_PTP_OpenSession
 483:./Libraries/STM32_USB_Host_Library/Class/MTP/Src/usbh_mtp_ptp.c ****   *         Open a new session
 484:./Libraries/STM32_USB_Host_Library/Class/MTP/Src/usbh_mtp_ptp.c ****   * @param  phost: Host handle
 485:./Libraries/STM32_USB_Host_Library/Class/MTP/Src/usbh_mtp_ptp.c ****   * @retval USBH Status
 486:./Libraries/STM32_USB_Host_Library/Class/MTP/Src/usbh_mtp_ptp.c ****   */
ARM GAS  /tmp/ccSE0mVF.s 			page 10


 487:./Libraries/STM32_USB_Host_Library/Class/MTP/Src/usbh_mtp_ptp.c **** USBH_StatusTypeDef USBH_PTP_GetResponse(USBH_HandleTypeDef *phost, PTP_ContainerTypedef  *resp)
 488:./Libraries/STM32_USB_Host_Library/Class/MTP/Src/usbh_mtp_ptp.c **** {
 489:./Libraries/STM32_USB_Host_Library/Class/MTP/Src/usbh_mtp_ptp.c ****   USBH_StatusTypeDef status = USBH_OK;
 490:./Libraries/STM32_USB_Host_Library/Class/MTP/Src/usbh_mtp_ptp.c ****   MTP_HandleTypeDef  *MTP_Handle = (MTP_HandleTypeDef *)phost->pActiveClass->pData;
 491:./Libraries/STM32_USB_Host_Library/Class/MTP/Src/usbh_mtp_ptp.c **** 
 492:./Libraries/STM32_USB_Host_Library/Class/MTP/Src/usbh_mtp_ptp.c ****   /* build an appropriate PTPContainer */
 493:./Libraries/STM32_USB_Host_Library/Class/MTP/Src/usbh_mtp_ptp.c ****   resp->Code = MTP_Handle->ptp.resp_container.code;
 494:./Libraries/STM32_USB_Host_Library/Class/MTP/Src/usbh_mtp_ptp.c ****   resp->SessionID = MTP_Handle->ptp.session_id;
 495:./Libraries/STM32_USB_Host_Library/Class/MTP/Src/usbh_mtp_ptp.c ****   resp->Transaction_ID = MTP_Handle->ptp.resp_container.trans_id;
 496:./Libraries/STM32_USB_Host_Library/Class/MTP/Src/usbh_mtp_ptp.c ****   resp->Param1 = MTP_Handle->ptp.resp_container.param1;
 497:./Libraries/STM32_USB_Host_Library/Class/MTP/Src/usbh_mtp_ptp.c ****   resp->Param2 = MTP_Handle->ptp.resp_container.param2;
 498:./Libraries/STM32_USB_Host_Library/Class/MTP/Src/usbh_mtp_ptp.c ****   resp->Param3 = MTP_Handle->ptp.resp_container.param3;
 499:./Libraries/STM32_USB_Host_Library/Class/MTP/Src/usbh_mtp_ptp.c ****   resp->Param4 = MTP_Handle->ptp.resp_container.param4;
 500:./Libraries/STM32_USB_Host_Library/Class/MTP/Src/usbh_mtp_ptp.c ****   resp->Param5 = MTP_Handle->ptp.resp_container.param5;
 501:./Libraries/STM32_USB_Host_Library/Class/MTP/Src/usbh_mtp_ptp.c **** 
 502:./Libraries/STM32_USB_Host_Library/Class/MTP/Src/usbh_mtp_ptp.c ****   return status;
 503:./Libraries/STM32_USB_Host_Library/Class/MTP/Src/usbh_mtp_ptp.c **** }
 504:./Libraries/STM32_USB_Host_Library/Class/MTP/Src/usbh_mtp_ptp.c **** 
 505:./Libraries/STM32_USB_Host_Library/Class/MTP/Src/usbh_mtp_ptp.c **** /**
 506:./Libraries/STM32_USB_Host_Library/Class/MTP/Src/usbh_mtp_ptp.c ****   * @brief  The function informs user that data buffer is full
 507:./Libraries/STM32_USB_Host_Library/Class/MTP/Src/usbh_mtp_ptp.c ****   *  @param  phost: host handle
 508:./Libraries/STM32_USB_Host_Library/Class/MTP/Src/usbh_mtp_ptp.c ****   * @retval None
 509:./Libraries/STM32_USB_Host_Library/Class/MTP/Src/usbh_mtp_ptp.c ****   */
 510:./Libraries/STM32_USB_Host_Library/Class/MTP/Src/usbh_mtp_ptp.c **** static void PTP_BufferFullCallback(USBH_HandleTypeDef *phost)
 511:./Libraries/STM32_USB_Host_Library/Class/MTP/Src/usbh_mtp_ptp.c **** {
 512:./Libraries/STM32_USB_Host_Library/Class/MTP/Src/usbh_mtp_ptp.c ****   MTP_HandleTypeDef *MTP_Handle = (MTP_HandleTypeDef *)phost->pActiveClass->pData;
 513:./Libraries/STM32_USB_Host_Library/Class/MTP/Src/usbh_mtp_ptp.c **** 
 514:./Libraries/STM32_USB_Host_Library/Class/MTP/Src/usbh_mtp_ptp.c ****   switch (MTP_Handle->ptp.data_container.code)
 515:./Libraries/STM32_USB_Host_Library/Class/MTP/Src/usbh_mtp_ptp.c ****   {
 516:./Libraries/STM32_USB_Host_Library/Class/MTP/Src/usbh_mtp_ptp.c ****     case PTP_OC_GetDeviceInfo:
 517:./Libraries/STM32_USB_Host_Library/Class/MTP/Src/usbh_mtp_ptp.c ****       PTP_DecodeDeviceInfo(phost, &(MTP_Handle->info.devinfo));
 518:./Libraries/STM32_USB_Host_Library/Class/MTP/Src/usbh_mtp_ptp.c ****       break;
 519:./Libraries/STM32_USB_Host_Library/Class/MTP/Src/usbh_mtp_ptp.c **** 
 520:./Libraries/STM32_USB_Host_Library/Class/MTP/Src/usbh_mtp_ptp.c ****     case PTP_OC_GetPartialObject:
 521:./Libraries/STM32_USB_Host_Library/Class/MTP/Src/usbh_mtp_ptp.c ****     case PTP_OC_GetObject:
 522:./Libraries/STM32_USB_Host_Library/Class/MTP/Src/usbh_mtp_ptp.c **** 
 523:./Libraries/STM32_USB_Host_Library/Class/MTP/Src/usbh_mtp_ptp.c ****       /* first packet is in the PTP data payload buffer */
 524:./Libraries/STM32_USB_Host_Library/Class/MTP/Src/usbh_mtp_ptp.c ****       if (MTP_Handle->ptp.iteration == 0U)
 525:./Libraries/STM32_USB_Host_Library/Class/MTP/Src/usbh_mtp_ptp.c ****       {
 526:./Libraries/STM32_USB_Host_Library/Class/MTP/Src/usbh_mtp_ptp.c ****         /* copy it to object */
 527:./Libraries/STM32_USB_Host_Library/Class/MTP/Src/usbh_mtp_ptp.c ****         USBH_memcpy(MTP_Handle->ptp.object_ptr, MTP_Handle->ptp.data_container.payload.data, PTP_US
 528:./Libraries/STM32_USB_Host_Library/Class/MTP/Src/usbh_mtp_ptp.c **** 
 529:./Libraries/STM32_USB_Host_Library/Class/MTP/Src/usbh_mtp_ptp.c ****         /* next packet should be directly copied to object */
 530:./Libraries/STM32_USB_Host_Library/Class/MTP/Src/usbh_mtp_ptp.c ****         MTP_Handle->ptp.data_ptr = (MTP_Handle->ptp.object_ptr + PTP_USB_BULK_PAYLOAD_LEN_READ);
 531:./Libraries/STM32_USB_Host_Library/Class/MTP/Src/usbh_mtp_ptp.c ****       }
 532:./Libraries/STM32_USB_Host_Library/Class/MTP/Src/usbh_mtp_ptp.c ****       break;
 533:./Libraries/STM32_USB_Host_Library/Class/MTP/Src/usbh_mtp_ptp.c **** 
 534:./Libraries/STM32_USB_Host_Library/Class/MTP/Src/usbh_mtp_ptp.c ****     case PTP_OC_SendObject:
 535:./Libraries/STM32_USB_Host_Library/Class/MTP/Src/usbh_mtp_ptp.c ****       /* first packet is in the PTP data payload buffer */
 536:./Libraries/STM32_USB_Host_Library/Class/MTP/Src/usbh_mtp_ptp.c ****       if (MTP_Handle->ptp.iteration == 0U)
 537:./Libraries/STM32_USB_Host_Library/Class/MTP/Src/usbh_mtp_ptp.c ****       {
 538:./Libraries/STM32_USB_Host_Library/Class/MTP/Src/usbh_mtp_ptp.c ****         /* next packet should be directly copied to object */
 539:./Libraries/STM32_USB_Host_Library/Class/MTP/Src/usbh_mtp_ptp.c ****         MTP_Handle->ptp.data_ptr = (MTP_Handle->ptp.object_ptr + PTP_USB_BULK_PAYLOAD_LEN_READ);
 540:./Libraries/STM32_USB_Host_Library/Class/MTP/Src/usbh_mtp_ptp.c ****       }
 541:./Libraries/STM32_USB_Host_Library/Class/MTP/Src/usbh_mtp_ptp.c ****       break;
 542:./Libraries/STM32_USB_Host_Library/Class/MTP/Src/usbh_mtp_ptp.c **** 
 543:./Libraries/STM32_USB_Host_Library/Class/MTP/Src/usbh_mtp_ptp.c ****     default:
ARM GAS  /tmp/ccSE0mVF.s 			page 11


 544:./Libraries/STM32_USB_Host_Library/Class/MTP/Src/usbh_mtp_ptp.c ****       break;
 545:./Libraries/STM32_USB_Host_Library/Class/MTP/Src/usbh_mtp_ptp.c **** 
 546:./Libraries/STM32_USB_Host_Library/Class/MTP/Src/usbh_mtp_ptp.c **** 
 547:./Libraries/STM32_USB_Host_Library/Class/MTP/Src/usbh_mtp_ptp.c ****   }
 548:./Libraries/STM32_USB_Host_Library/Class/MTP/Src/usbh_mtp_ptp.c **** }
 549:./Libraries/STM32_USB_Host_Library/Class/MTP/Src/usbh_mtp_ptp.c **** 
 550:./Libraries/STM32_USB_Host_Library/Class/MTP/Src/usbh_mtp_ptp.c **** /**
 551:./Libraries/STM32_USB_Host_Library/Class/MTP/Src/usbh_mtp_ptp.c ****   * @brief  PTP_GetDeviceInfo
 552:./Libraries/STM32_USB_Host_Library/Class/MTP/Src/usbh_mtp_ptp.c ****   *         Gets device info dataset and fills deviceinfo structure.
 553:./Libraries/STM32_USB_Host_Library/Class/MTP/Src/usbh_mtp_ptp.c ****   * @param  phost: Host handle
 554:./Libraries/STM32_USB_Host_Library/Class/MTP/Src/usbh_mtp_ptp.c ****   * @param  dev_info: Device info structure
 555:./Libraries/STM32_USB_Host_Library/Class/MTP/Src/usbh_mtp_ptp.c ****   * @retval None
 556:./Libraries/STM32_USB_Host_Library/Class/MTP/Src/usbh_mtp_ptp.c ****   */
 557:./Libraries/STM32_USB_Host_Library/Class/MTP/Src/usbh_mtp_ptp.c **** static void PTP_DecodeDeviceInfo(USBH_HandleTypeDef *phost, PTP_DeviceInfoTypedef *dev_info)
 558:./Libraries/STM32_USB_Host_Library/Class/MTP/Src/usbh_mtp_ptp.c **** {
 559:./Libraries/STM32_USB_Host_Library/Class/MTP/Src/usbh_mtp_ptp.c ****   MTP_HandleTypeDef    *MTP_Handle = (MTP_HandleTypeDef *)phost->pActiveClass->pData;
 560:./Libraries/STM32_USB_Host_Library/Class/MTP/Src/usbh_mtp_ptp.c ****   uint8_t *data = MTP_Handle->ptp.data_container.payload.data;
 561:./Libraries/STM32_USB_Host_Library/Class/MTP/Src/usbh_mtp_ptp.c ****   uint32_t totallen;
 562:./Libraries/STM32_USB_Host_Library/Class/MTP/Src/usbh_mtp_ptp.c ****   uint16_t len;
 563:./Libraries/STM32_USB_Host_Library/Class/MTP/Src/usbh_mtp_ptp.c **** 
 564:./Libraries/STM32_USB_Host_Library/Class/MTP/Src/usbh_mtp_ptp.c ****   /* Max device info is PTP_USB_BULK_HS_MAX_PACKET_LEN_READ */
 565:./Libraries/STM32_USB_Host_Library/Class/MTP/Src/usbh_mtp_ptp.c ****   USBH_DbgLog(" MTP device info size exceeds internal buffer size.\
 566:./Libraries/STM32_USB_Host_Library/Class/MTP/Src/usbh_mtp_ptp.c ****                only available data are decoded.");
 567:./Libraries/STM32_USB_Host_Library/Class/MTP/Src/usbh_mtp_ptp.c **** 
 568:./Libraries/STM32_USB_Host_Library/Class/MTP/Src/usbh_mtp_ptp.c ****   if (MTP_Handle->ptp.iteration == 0U)
 569:./Libraries/STM32_USB_Host_Library/Class/MTP/Src/usbh_mtp_ptp.c ****   {
 570:./Libraries/STM32_USB_Host_Library/Class/MTP/Src/usbh_mtp_ptp.c ****     dev_info->StandardVersion = LE16(&data[PTP_di_StandardVersion]);
 571:./Libraries/STM32_USB_Host_Library/Class/MTP/Src/usbh_mtp_ptp.c ****     dev_info->VendorExtensionID = LE32(&data[PTP_di_VendorExtensionID]);
 572:./Libraries/STM32_USB_Host_Library/Class/MTP/Src/usbh_mtp_ptp.c ****     dev_info->VendorExtensionVersion = LE16(&data[PTP_di_VendorExtensionVersion]);
 573:./Libraries/STM32_USB_Host_Library/Class/MTP/Src/usbh_mtp_ptp.c ****     PTP_GetString(dev_info->VendorExtensionDesc, &data[PTP_di_VendorExtensionDesc], &len);
 574:./Libraries/STM32_USB_Host_Library/Class/MTP/Src/usbh_mtp_ptp.c **** 
 575:./Libraries/STM32_USB_Host_Library/Class/MTP/Src/usbh_mtp_ptp.c ****     totallen = len * 2U + 1U;
 576:./Libraries/STM32_USB_Host_Library/Class/MTP/Src/usbh_mtp_ptp.c ****     dev_info->FunctionalMode = LE16(&data[PTP_di_FunctionalMode + totallen]);
 577:./Libraries/STM32_USB_Host_Library/Class/MTP/Src/usbh_mtp_ptp.c ****     dev_info->OperationsSupported_len = PTP_GetArray16((uint16_t *)(void *)&dev_info->OperationsSup
 578:./Libraries/STM32_USB_Host_Library/Class/MTP/Src/usbh_mtp_ptp.c ****                                                        data, PTP_di_OperationsSupported + totallen)
 579:./Libraries/STM32_USB_Host_Library/Class/MTP/Src/usbh_mtp_ptp.c **** 
 580:./Libraries/STM32_USB_Host_Library/Class/MTP/Src/usbh_mtp_ptp.c ****     totallen = totallen + dev_info->OperationsSupported_len * sizeof(uint16_t) + sizeof(uint32_t);
 581:./Libraries/STM32_USB_Host_Library/Class/MTP/Src/usbh_mtp_ptp.c ****     dev_info->EventsSupported_len = PTP_GetArray16((uint16_t *)(void *)&dev_info->EventsSupported,
 582:./Libraries/STM32_USB_Host_Library/Class/MTP/Src/usbh_mtp_ptp.c ****                                                    data, PTP_di_OperationsSupported + totallen);
 583:./Libraries/STM32_USB_Host_Library/Class/MTP/Src/usbh_mtp_ptp.c **** 
 584:./Libraries/STM32_USB_Host_Library/Class/MTP/Src/usbh_mtp_ptp.c ****     totallen = totallen + dev_info->EventsSupported_len * sizeof(uint16_t) + sizeof(uint32_t);
 585:./Libraries/STM32_USB_Host_Library/Class/MTP/Src/usbh_mtp_ptp.c ****     dev_info->DevicePropertiesSupported_len = PTP_GetArray16((uint16_t *)(void *)&dev_info->DeviceP
 586:./Libraries/STM32_USB_Host_Library/Class/MTP/Src/usbh_mtp_ptp.c ****                                                              data, PTP_di_OperationsSupported + tot
 587:./Libraries/STM32_USB_Host_Library/Class/MTP/Src/usbh_mtp_ptp.c **** 
 588:./Libraries/STM32_USB_Host_Library/Class/MTP/Src/usbh_mtp_ptp.c ****     totallen = totallen + dev_info->DevicePropertiesSupported_len * sizeof(uint16_t) + sizeof(uint3
 589:./Libraries/STM32_USB_Host_Library/Class/MTP/Src/usbh_mtp_ptp.c **** 
 590:./Libraries/STM32_USB_Host_Library/Class/MTP/Src/usbh_mtp_ptp.c ****     dev_info->CaptureFormats_len = PTP_GetArray16((uint16_t *)(void *)&dev_info->CaptureFormats,
 591:./Libraries/STM32_USB_Host_Library/Class/MTP/Src/usbh_mtp_ptp.c ****                                                   data, PTP_di_OperationsSupported + totallen);
 592:./Libraries/STM32_USB_Host_Library/Class/MTP/Src/usbh_mtp_ptp.c **** 
 593:./Libraries/STM32_USB_Host_Library/Class/MTP/Src/usbh_mtp_ptp.c ****     totallen = totallen + dev_info->CaptureFormats_len * sizeof(uint16_t) + sizeof(uint32_t);
 594:./Libraries/STM32_USB_Host_Library/Class/MTP/Src/usbh_mtp_ptp.c ****     dev_info->ImageFormats_len =  PTP_GetArray16((uint16_t *)(void *)&dev_info->ImageFormats,
 595:./Libraries/STM32_USB_Host_Library/Class/MTP/Src/usbh_mtp_ptp.c ****                                                  data, PTP_di_OperationsSupported + totallen);
 596:./Libraries/STM32_USB_Host_Library/Class/MTP/Src/usbh_mtp_ptp.c **** 
 597:./Libraries/STM32_USB_Host_Library/Class/MTP/Src/usbh_mtp_ptp.c ****     totallen = totallen + dev_info->ImageFormats_len * sizeof(uint16_t) + sizeof(uint32_t);
 598:./Libraries/STM32_USB_Host_Library/Class/MTP/Src/usbh_mtp_ptp.c ****     PTP_GetString(dev_info->Manufacturer, &data[PTP_di_OperationsSupported + totallen], &len);
 599:./Libraries/STM32_USB_Host_Library/Class/MTP/Src/usbh_mtp_ptp.c **** 
 600:./Libraries/STM32_USB_Host_Library/Class/MTP/Src/usbh_mtp_ptp.c ****     totallen += len * 2U + 1U;
ARM GAS  /tmp/ccSE0mVF.s 			page 12


 601:./Libraries/STM32_USB_Host_Library/Class/MTP/Src/usbh_mtp_ptp.c ****     PTP_GetString(dev_info->Model, &data[PTP_di_OperationsSupported + totallen], &len);
 602:./Libraries/STM32_USB_Host_Library/Class/MTP/Src/usbh_mtp_ptp.c **** 
 603:./Libraries/STM32_USB_Host_Library/Class/MTP/Src/usbh_mtp_ptp.c ****     totallen += len * 2U + 1U;
 604:./Libraries/STM32_USB_Host_Library/Class/MTP/Src/usbh_mtp_ptp.c ****     PTP_GetString(dev_info->DeviceVersion, &data[PTP_di_OperationsSupported + totallen], &len);
 605:./Libraries/STM32_USB_Host_Library/Class/MTP/Src/usbh_mtp_ptp.c **** 
 606:./Libraries/STM32_USB_Host_Library/Class/MTP/Src/usbh_mtp_ptp.c ****     totallen += len * 2U + 1U;
 607:./Libraries/STM32_USB_Host_Library/Class/MTP/Src/usbh_mtp_ptp.c ****     PTP_GetString(dev_info->SerialNumber, &data[PTP_di_OperationsSupported + totallen], &len);
 608:./Libraries/STM32_USB_Host_Library/Class/MTP/Src/usbh_mtp_ptp.c ****   }
 609:./Libraries/STM32_USB_Host_Library/Class/MTP/Src/usbh_mtp_ptp.c **** }
 610:./Libraries/STM32_USB_Host_Library/Class/MTP/Src/usbh_mtp_ptp.c **** 
 611:./Libraries/STM32_USB_Host_Library/Class/MTP/Src/usbh_mtp_ptp.c **** /**
 612:./Libraries/STM32_USB_Host_Library/Class/MTP/Src/usbh_mtp_ptp.c ****   * @brief  PTP_GetStorageIDs
 613:./Libraries/STM32_USB_Host_Library/Class/MTP/Src/usbh_mtp_ptp.c ****   *         Gets Storage Ids and fills stor_ids structure.
 614:./Libraries/STM32_USB_Host_Library/Class/MTP/Src/usbh_mtp_ptp.c ****   * @param  phost: Host handle
 615:./Libraries/STM32_USB_Host_Library/Class/MTP/Src/usbh_mtp_ptp.c ****   * @param  stor_ids: Storage IDsstructure
 616:./Libraries/STM32_USB_Host_Library/Class/MTP/Src/usbh_mtp_ptp.c ****   * @retval None
 617:./Libraries/STM32_USB_Host_Library/Class/MTP/Src/usbh_mtp_ptp.c ****   */
 618:./Libraries/STM32_USB_Host_Library/Class/MTP/Src/usbh_mtp_ptp.c **** static void PTP_GetStorageIDs(USBH_HandleTypeDef *phost, PTP_StorageIDsTypedef *stor_ids)
 619:./Libraries/STM32_USB_Host_Library/Class/MTP/Src/usbh_mtp_ptp.c **** {
 620:./Libraries/STM32_USB_Host_Library/Class/MTP/Src/usbh_mtp_ptp.c ****   MTP_HandleTypeDef    *MTP_Handle = (MTP_HandleTypeDef *)phost->pActiveClass->pData;
 621:./Libraries/STM32_USB_Host_Library/Class/MTP/Src/usbh_mtp_ptp.c ****   uint8_t *data = MTP_Handle->ptp.data_container.payload.data;
 622:./Libraries/STM32_USB_Host_Library/Class/MTP/Src/usbh_mtp_ptp.c **** 
 623:./Libraries/STM32_USB_Host_Library/Class/MTP/Src/usbh_mtp_ptp.c ****   stor_ids->n = PTP_GetArray32(stor_ids->Storage, data, 0U);
 624:./Libraries/STM32_USB_Host_Library/Class/MTP/Src/usbh_mtp_ptp.c **** }
 625:./Libraries/STM32_USB_Host_Library/Class/MTP/Src/usbh_mtp_ptp.c **** 
 626:./Libraries/STM32_USB_Host_Library/Class/MTP/Src/usbh_mtp_ptp.c **** 
 627:./Libraries/STM32_USB_Host_Library/Class/MTP/Src/usbh_mtp_ptp.c **** /**
 628:./Libraries/STM32_USB_Host_Library/Class/MTP/Src/usbh_mtp_ptp.c ****   * @brief  PTP_GetStorageInfo
 629:./Libraries/STM32_USB_Host_Library/Class/MTP/Src/usbh_mtp_ptp.c ****   *         Gets Storage Info and fills stor_info structure.
 630:./Libraries/STM32_USB_Host_Library/Class/MTP/Src/usbh_mtp_ptp.c ****   * @param  phost: Host handle
 631:./Libraries/STM32_USB_Host_Library/Class/MTP/Src/usbh_mtp_ptp.c ****   * @param  stor_ids: Storage IDsstructure
 632:./Libraries/STM32_USB_Host_Library/Class/MTP/Src/usbh_mtp_ptp.c ****   * @retval None
 633:./Libraries/STM32_USB_Host_Library/Class/MTP/Src/usbh_mtp_ptp.c ****   */
 634:./Libraries/STM32_USB_Host_Library/Class/MTP/Src/usbh_mtp_ptp.c **** static void PTP_GetStorageInfo(USBH_HandleTypeDef *phost, uint32_t storage_id, PTP_StorageInfoTyped
 635:./Libraries/STM32_USB_Host_Library/Class/MTP/Src/usbh_mtp_ptp.c **** {
 636:./Libraries/STM32_USB_Host_Library/Class/MTP/Src/usbh_mtp_ptp.c ****   /* Prevent unused argument(s) compilation warning */
 637:./Libraries/STM32_USB_Host_Library/Class/MTP/Src/usbh_mtp_ptp.c ****   UNUSED(storage_id);
 638:./Libraries/STM32_USB_Host_Library/Class/MTP/Src/usbh_mtp_ptp.c **** 
 639:./Libraries/STM32_USB_Host_Library/Class/MTP/Src/usbh_mtp_ptp.c ****   MTP_HandleTypeDef    *MTP_Handle = (MTP_HandleTypeDef *)phost->pActiveClass->pData;
 640:./Libraries/STM32_USB_Host_Library/Class/MTP/Src/usbh_mtp_ptp.c ****   uint8_t *data = MTP_Handle->ptp.data_container.payload.data;
 641:./Libraries/STM32_USB_Host_Library/Class/MTP/Src/usbh_mtp_ptp.c ****   uint16_t len;
 642:./Libraries/STM32_USB_Host_Library/Class/MTP/Src/usbh_mtp_ptp.c **** 
 643:./Libraries/STM32_USB_Host_Library/Class/MTP/Src/usbh_mtp_ptp.c ****   stor_info->StorageType = LE16(&data[PTP_si_StorageType]);
 644:./Libraries/STM32_USB_Host_Library/Class/MTP/Src/usbh_mtp_ptp.c ****   stor_info->FilesystemType = LE16(&data[PTP_si_FilesystemType]);
 645:./Libraries/STM32_USB_Host_Library/Class/MTP/Src/usbh_mtp_ptp.c ****   stor_info->AccessCapability = LE16(&data[PTP_si_AccessCapability]);
 646:./Libraries/STM32_USB_Host_Library/Class/MTP/Src/usbh_mtp_ptp.c ****   stor_info->MaxCapability = LE64(&data[PTP_si_MaxCapability]);
 647:./Libraries/STM32_USB_Host_Library/Class/MTP/Src/usbh_mtp_ptp.c ****   stor_info->FreeSpaceInBytes = LE64(&data[PTP_si_FreeSpaceInBytes]);
 648:./Libraries/STM32_USB_Host_Library/Class/MTP/Src/usbh_mtp_ptp.c ****   stor_info->FreeSpaceInImages = LE32(&data[PTP_si_FreeSpaceInImages]);
 649:./Libraries/STM32_USB_Host_Library/Class/MTP/Src/usbh_mtp_ptp.c **** 
 650:./Libraries/STM32_USB_Host_Library/Class/MTP/Src/usbh_mtp_ptp.c ****   PTP_GetString(stor_info->StorageDescription, &data[PTP_si_StorageDescription], &len);
 651:./Libraries/STM32_USB_Host_Library/Class/MTP/Src/usbh_mtp_ptp.c ****   PTP_GetString(stor_info->VolumeLabel, &data[PTP_si_StorageDescription + len * 2U + 1U], &len);
 652:./Libraries/STM32_USB_Host_Library/Class/MTP/Src/usbh_mtp_ptp.c **** }
 653:./Libraries/STM32_USB_Host_Library/Class/MTP/Src/usbh_mtp_ptp.c **** 
 654:./Libraries/STM32_USB_Host_Library/Class/MTP/Src/usbh_mtp_ptp.c **** /**
 655:./Libraries/STM32_USB_Host_Library/Class/MTP/Src/usbh_mtp_ptp.c ****   * @brief  PTP_GetObjectInfo
 656:./Libraries/STM32_USB_Host_Library/Class/MTP/Src/usbh_mtp_ptp.c ****   *         Gets objectInfo and fills object_info structure.
 657:./Libraries/STM32_USB_Host_Library/Class/MTP/Src/usbh_mtp_ptp.c ****   * @param  phost: Host handle
ARM GAS  /tmp/ccSE0mVF.s 			page 13


 658:./Libraries/STM32_USB_Host_Library/Class/MTP/Src/usbh_mtp_ptp.c ****   * @param  object_info: object info structure
 659:./Libraries/STM32_USB_Host_Library/Class/MTP/Src/usbh_mtp_ptp.c ****   * @retval None
 660:./Libraries/STM32_USB_Host_Library/Class/MTP/Src/usbh_mtp_ptp.c ****   */
 661:./Libraries/STM32_USB_Host_Library/Class/MTP/Src/usbh_mtp_ptp.c **** static void PTP_GetObjectInfo(USBH_HandleTypeDef *phost, PTP_ObjectInfoTypedef *object_info)
 662:./Libraries/STM32_USB_Host_Library/Class/MTP/Src/usbh_mtp_ptp.c **** {
 663:./Libraries/STM32_USB_Host_Library/Class/MTP/Src/usbh_mtp_ptp.c ****   MTP_HandleTypeDef    *MTP_Handle = (MTP_HandleTypeDef *)phost->pActiveClass->pData;
 664:./Libraries/STM32_USB_Host_Library/Class/MTP/Src/usbh_mtp_ptp.c ****   uint8_t *data = MTP_Handle->ptp.data_container.payload.data;
 665:./Libraries/STM32_USB_Host_Library/Class/MTP/Src/usbh_mtp_ptp.c ****   uint16_t filenamelen;
 666:./Libraries/STM32_USB_Host_Library/Class/MTP/Src/usbh_mtp_ptp.c **** 
 667:./Libraries/STM32_USB_Host_Library/Class/MTP/Src/usbh_mtp_ptp.c ****   object_info->StorageID = LE32(&data[PTP_oi_StorageID]);
 668:./Libraries/STM32_USB_Host_Library/Class/MTP/Src/usbh_mtp_ptp.c ****   object_info->ObjectFormat = LE16(&data[PTP_oi_ObjectFormat]);
 669:./Libraries/STM32_USB_Host_Library/Class/MTP/Src/usbh_mtp_ptp.c ****   object_info->ProtectionStatus = LE16(&data[PTP_oi_ProtectionStatus]);
 670:./Libraries/STM32_USB_Host_Library/Class/MTP/Src/usbh_mtp_ptp.c ****   object_info->ObjectCompressedSize = LE64(&data[PTP_oi_ObjectCompressedSize]);
 671:./Libraries/STM32_USB_Host_Library/Class/MTP/Src/usbh_mtp_ptp.c **** 
 672:./Libraries/STM32_USB_Host_Library/Class/MTP/Src/usbh_mtp_ptp.c ****   /* For Samsung Galaxy */
 673:./Libraries/STM32_USB_Host_Library/Class/MTP/Src/usbh_mtp_ptp.c ****   if ((data[PTP_oi_filenamelen] == 0U) && (data[PTP_oi_filenamelen + 4U] != 0U))
 674:./Libraries/STM32_USB_Host_Library/Class/MTP/Src/usbh_mtp_ptp.c ****   {
 675:./Libraries/STM32_USB_Host_Library/Class/MTP/Src/usbh_mtp_ptp.c ****     data += 4;
 676:./Libraries/STM32_USB_Host_Library/Class/MTP/Src/usbh_mtp_ptp.c ****   }
 677:./Libraries/STM32_USB_Host_Library/Class/MTP/Src/usbh_mtp_ptp.c ****   object_info->ThumbFormat = LE16(&data[PTP_oi_ThumbFormat]);
 678:./Libraries/STM32_USB_Host_Library/Class/MTP/Src/usbh_mtp_ptp.c ****   object_info->ThumbCompressedSize = LE32(&data[PTP_oi_ThumbCompressedSize]);
 679:./Libraries/STM32_USB_Host_Library/Class/MTP/Src/usbh_mtp_ptp.c ****   object_info->ThumbPixWidth = LE32(&data[PTP_oi_ThumbPixWidth]);
 680:./Libraries/STM32_USB_Host_Library/Class/MTP/Src/usbh_mtp_ptp.c ****   object_info->ThumbPixHeight = LE32(&data[PTP_oi_ThumbPixHeight]);
 681:./Libraries/STM32_USB_Host_Library/Class/MTP/Src/usbh_mtp_ptp.c ****   object_info->ImagePixWidth = LE32(&data[PTP_oi_ImagePixWidth]);
 682:./Libraries/STM32_USB_Host_Library/Class/MTP/Src/usbh_mtp_ptp.c ****   object_info->ImagePixHeight = LE32(&data[PTP_oi_ImagePixHeight]);
 683:./Libraries/STM32_USB_Host_Library/Class/MTP/Src/usbh_mtp_ptp.c ****   object_info->ImageBitDepth = LE32(&data[PTP_oi_ImageBitDepth]);
 684:./Libraries/STM32_USB_Host_Library/Class/MTP/Src/usbh_mtp_ptp.c ****   object_info->ParentObject = LE32(&data[PTP_oi_ParentObject]);
 685:./Libraries/STM32_USB_Host_Library/Class/MTP/Src/usbh_mtp_ptp.c ****   object_info->AssociationType = LE16(&data[PTP_oi_AssociationType]);
 686:./Libraries/STM32_USB_Host_Library/Class/MTP/Src/usbh_mtp_ptp.c ****   object_info->AssociationDesc = LE32(&data[PTP_oi_AssociationDesc]);
 687:./Libraries/STM32_USB_Host_Library/Class/MTP/Src/usbh_mtp_ptp.c ****   object_info->SequenceNumber = LE32(&data[PTP_oi_SequenceNumber]);
 688:./Libraries/STM32_USB_Host_Library/Class/MTP/Src/usbh_mtp_ptp.c ****   PTP_GetString(object_info->Filename, &data[PTP_oi_filenamelen], &filenamelen);
 689:./Libraries/STM32_USB_Host_Library/Class/MTP/Src/usbh_mtp_ptp.c **** }
 690:./Libraries/STM32_USB_Host_Library/Class/MTP/Src/usbh_mtp_ptp.c **** 
 691:./Libraries/STM32_USB_Host_Library/Class/MTP/Src/usbh_mtp_ptp.c **** 
 692:./Libraries/STM32_USB_Host_Library/Class/MTP/Src/usbh_mtp_ptp.c **** /**
 693:./Libraries/STM32_USB_Host_Library/Class/MTP/Src/usbh_mtp_ptp.c ****   * @brief  PTP_GetObjectPropDesc
 694:./Libraries/STM32_USB_Host_Library/Class/MTP/Src/usbh_mtp_ptp.c ****   *         Gets objectInfo and fills object_info structure.
 695:./Libraries/STM32_USB_Host_Library/Class/MTP/Src/usbh_mtp_ptp.c ****   * @param  phost: Host handle
 696:./Libraries/STM32_USB_Host_Library/Class/MTP/Src/usbh_mtp_ptp.c ****   * @param  opd: object prop descriptor structure
 697:./Libraries/STM32_USB_Host_Library/Class/MTP/Src/usbh_mtp_ptp.c ****   * @retval None
 698:./Libraries/STM32_USB_Host_Library/Class/MTP/Src/usbh_mtp_ptp.c ****   */
 699:./Libraries/STM32_USB_Host_Library/Class/MTP/Src/usbh_mtp_ptp.c **** static void PTP_GetObjectPropDesc(USBH_HandleTypeDef *phost, PTP_ObjectPropDescTypeDef *opd, uint32
 700:./Libraries/STM32_USB_Host_Library/Class/MTP/Src/usbh_mtp_ptp.c **** {
 701:./Libraries/STM32_USB_Host_Library/Class/MTP/Src/usbh_mtp_ptp.c ****   MTP_HandleTypeDef    *MTP_Handle = (MTP_HandleTypeDef *)phost->pActiveClass->pData;
 702:./Libraries/STM32_USB_Host_Library/Class/MTP/Src/usbh_mtp_ptp.c ****   uint8_t *data = MTP_Handle->ptp.data_container.payload.data;
 703:./Libraries/STM32_USB_Host_Library/Class/MTP/Src/usbh_mtp_ptp.c ****   uint32_t offset = 0U, i;
 704:./Libraries/STM32_USB_Host_Library/Class/MTP/Src/usbh_mtp_ptp.c **** 
 705:./Libraries/STM32_USB_Host_Library/Class/MTP/Src/usbh_mtp_ptp.c ****   opd->ObjectPropertyCode = LE16(&data[PTP_opd_ObjectPropertyCode]);
 706:./Libraries/STM32_USB_Host_Library/Class/MTP/Src/usbh_mtp_ptp.c ****   opd->DataType = LE16(&data[PTP_opd_DataType]);
 707:./Libraries/STM32_USB_Host_Library/Class/MTP/Src/usbh_mtp_ptp.c ****   opd->GetSet = *(uint8_t *)(&data[PTP_opd_GetSet]);
 708:./Libraries/STM32_USB_Host_Library/Class/MTP/Src/usbh_mtp_ptp.c **** 
 709:./Libraries/STM32_USB_Host_Library/Class/MTP/Src/usbh_mtp_ptp.c ****   offset = PTP_opd_FactoryDefaultValue;
 710:./Libraries/STM32_USB_Host_Library/Class/MTP/Src/usbh_mtp_ptp.c ****   PTP_GetDevicePropValue(phost, &offset, opdlen, &opd->FactoryDefaultValue, opd->DataType);
 711:./Libraries/STM32_USB_Host_Library/Class/MTP/Src/usbh_mtp_ptp.c **** 
 712:./Libraries/STM32_USB_Host_Library/Class/MTP/Src/usbh_mtp_ptp.c ****   opd->GroupCode = LE32(&data[offset]);
 713:./Libraries/STM32_USB_Host_Library/Class/MTP/Src/usbh_mtp_ptp.c ****   offset += sizeof(uint32_t);
 714:./Libraries/STM32_USB_Host_Library/Class/MTP/Src/usbh_mtp_ptp.c **** 
ARM GAS  /tmp/ccSE0mVF.s 			page 14


 715:./Libraries/STM32_USB_Host_Library/Class/MTP/Src/usbh_mtp_ptp.c ****   opd->FormFlag = *(uint8_t *)(&data[offset]);
 716:./Libraries/STM32_USB_Host_Library/Class/MTP/Src/usbh_mtp_ptp.c ****   offset += sizeof(uint8_t);
 717:./Libraries/STM32_USB_Host_Library/Class/MTP/Src/usbh_mtp_ptp.c **** 
 718:./Libraries/STM32_USB_Host_Library/Class/MTP/Src/usbh_mtp_ptp.c ****   switch (opd->FormFlag)
 719:./Libraries/STM32_USB_Host_Library/Class/MTP/Src/usbh_mtp_ptp.c ****   {
 720:./Libraries/STM32_USB_Host_Library/Class/MTP/Src/usbh_mtp_ptp.c ****     case PTP_OPFF_Range:
 721:./Libraries/STM32_USB_Host_Library/Class/MTP/Src/usbh_mtp_ptp.c ****       PTP_GetDevicePropValue(phost, &offset, opdlen, &opd->FORM.Range.MinimumValue, opd->DataType);
 722:./Libraries/STM32_USB_Host_Library/Class/MTP/Src/usbh_mtp_ptp.c ****       PTP_GetDevicePropValue(phost, &offset, opdlen, &opd->FORM.Range.MaximumValue, opd->DataType);
 723:./Libraries/STM32_USB_Host_Library/Class/MTP/Src/usbh_mtp_ptp.c ****       PTP_GetDevicePropValue(phost, &offset, opdlen, &opd->FORM.Range.StepSize, opd->DataType);
 724:./Libraries/STM32_USB_Host_Library/Class/MTP/Src/usbh_mtp_ptp.c ****       break;
 725:./Libraries/STM32_USB_Host_Library/Class/MTP/Src/usbh_mtp_ptp.c **** 
 726:./Libraries/STM32_USB_Host_Library/Class/MTP/Src/usbh_mtp_ptp.c ****     case PTP_OPFF_Enumeration:
 727:./Libraries/STM32_USB_Host_Library/Class/MTP/Src/usbh_mtp_ptp.c **** 
 728:./Libraries/STM32_USB_Host_Library/Class/MTP/Src/usbh_mtp_ptp.c ****       opd->FORM.Enum.NumberOfValues = LE16(&data[offset]);
 729:./Libraries/STM32_USB_Host_Library/Class/MTP/Src/usbh_mtp_ptp.c ****       offset += sizeof(uint16_t);
 730:./Libraries/STM32_USB_Host_Library/Class/MTP/Src/usbh_mtp_ptp.c **** 
 731:./Libraries/STM32_USB_Host_Library/Class/MTP/Src/usbh_mtp_ptp.c ****       for (i = 0U; i < opd->FORM.Enum.NumberOfValues ; i++)
 732:./Libraries/STM32_USB_Host_Library/Class/MTP/Src/usbh_mtp_ptp.c ****       {
 733:./Libraries/STM32_USB_Host_Library/Class/MTP/Src/usbh_mtp_ptp.c ****         PTP_GetDevicePropValue(phost, &offset, opdlen, &opd->FORM.Enum.SupportedValue[i], opd->Data
 734:./Libraries/STM32_USB_Host_Library/Class/MTP/Src/usbh_mtp_ptp.c ****       }
 735:./Libraries/STM32_USB_Host_Library/Class/MTP/Src/usbh_mtp_ptp.c ****       break;
 736:./Libraries/STM32_USB_Host_Library/Class/MTP/Src/usbh_mtp_ptp.c ****     default:
 737:./Libraries/STM32_USB_Host_Library/Class/MTP/Src/usbh_mtp_ptp.c ****       break;
 738:./Libraries/STM32_USB_Host_Library/Class/MTP/Src/usbh_mtp_ptp.c ****   }
 739:./Libraries/STM32_USB_Host_Library/Class/MTP/Src/usbh_mtp_ptp.c **** }
 740:./Libraries/STM32_USB_Host_Library/Class/MTP/Src/usbh_mtp_ptp.c **** 
 741:./Libraries/STM32_USB_Host_Library/Class/MTP/Src/usbh_mtp_ptp.c **** /**
 742:./Libraries/STM32_USB_Host_Library/Class/MTP/Src/usbh_mtp_ptp.c ****   * @brief  PTP_GetDevicePropValue
 743:./Libraries/STM32_USB_Host_Library/Class/MTP/Src/usbh_mtp_ptp.c ****   *         Gets objectInfo and fills object_info structure.
 744:./Libraries/STM32_USB_Host_Library/Class/MTP/Src/usbh_mtp_ptp.c ****   * @param  phost: Host handle
 745:./Libraries/STM32_USB_Host_Library/Class/MTP/Src/usbh_mtp_ptp.c ****   * @param  opd: object prop descriptor structure
 746:./Libraries/STM32_USB_Host_Library/Class/MTP/Src/usbh_mtp_ptp.c ****   * @retval None
 747:./Libraries/STM32_USB_Host_Library/Class/MTP/Src/usbh_mtp_ptp.c ****   */
 748:./Libraries/STM32_USB_Host_Library/Class/MTP/Src/usbh_mtp_ptp.c **** static void PTP_GetDevicePropValue(USBH_HandleTypeDef *phost,
 749:./Libraries/STM32_USB_Host_Library/Class/MTP/Src/usbh_mtp_ptp.c ****                                    uint32_t *offset,
 750:./Libraries/STM32_USB_Host_Library/Class/MTP/Src/usbh_mtp_ptp.c ****                                    uint32_t total,
 751:./Libraries/STM32_USB_Host_Library/Class/MTP/Src/usbh_mtp_ptp.c ****                                    PTP_PropertyValueTypedef *value,
 752:./Libraries/STM32_USB_Host_Library/Class/MTP/Src/usbh_mtp_ptp.c ****                                    uint16_t datatype)
 753:./Libraries/STM32_USB_Host_Library/Class/MTP/Src/usbh_mtp_ptp.c **** {
 754:./Libraries/STM32_USB_Host_Library/Class/MTP/Src/usbh_mtp_ptp.c ****   /* Prevent unused argument(s) compilation warning */
 755:./Libraries/STM32_USB_Host_Library/Class/MTP/Src/usbh_mtp_ptp.c ****   UNUSED(total);
 756:./Libraries/STM32_USB_Host_Library/Class/MTP/Src/usbh_mtp_ptp.c **** 
 757:./Libraries/STM32_USB_Host_Library/Class/MTP/Src/usbh_mtp_ptp.c ****   MTP_HandleTypeDef    *MTP_Handle = (MTP_HandleTypeDef *)phost->pActiveClass->pData;
 758:./Libraries/STM32_USB_Host_Library/Class/MTP/Src/usbh_mtp_ptp.c ****   uint8_t *data = MTP_Handle->ptp.data_container.payload.data;
 759:./Libraries/STM32_USB_Host_Library/Class/MTP/Src/usbh_mtp_ptp.c ****   uint16_t len;
 760:./Libraries/STM32_USB_Host_Library/Class/MTP/Src/usbh_mtp_ptp.c ****   switch (datatype)
 761:./Libraries/STM32_USB_Host_Library/Class/MTP/Src/usbh_mtp_ptp.c ****   {
 762:./Libraries/STM32_USB_Host_Library/Class/MTP/Src/usbh_mtp_ptp.c ****     case PTP_DTC_INT8:
 763:./Libraries/STM32_USB_Host_Library/Class/MTP/Src/usbh_mtp_ptp.c ****       value->i8 = *(int8_t *)(void *) &(data[*offset]);
 764:./Libraries/STM32_USB_Host_Library/Class/MTP/Src/usbh_mtp_ptp.c ****       *offset += 1U;
 765:./Libraries/STM32_USB_Host_Library/Class/MTP/Src/usbh_mtp_ptp.c ****       break;
 766:./Libraries/STM32_USB_Host_Library/Class/MTP/Src/usbh_mtp_ptp.c ****     case PTP_DTC_UINT8:
 767:./Libraries/STM32_USB_Host_Library/Class/MTP/Src/usbh_mtp_ptp.c ****       value->u8 = *(uint8_t *) &(data[*offset]);
 768:./Libraries/STM32_USB_Host_Library/Class/MTP/Src/usbh_mtp_ptp.c ****       *offset += 1U;
 769:./Libraries/STM32_USB_Host_Library/Class/MTP/Src/usbh_mtp_ptp.c ****       break;
 770:./Libraries/STM32_USB_Host_Library/Class/MTP/Src/usbh_mtp_ptp.c ****     case PTP_DTC_INT16:
 771:./Libraries/STM32_USB_Host_Library/Class/MTP/Src/usbh_mtp_ptp.c ****       value->i16 = *(int16_t *)(void *) &(data[*offset]);
ARM GAS  /tmp/ccSE0mVF.s 			page 15


 772:./Libraries/STM32_USB_Host_Library/Class/MTP/Src/usbh_mtp_ptp.c ****       *offset += 2U;
 773:./Libraries/STM32_USB_Host_Library/Class/MTP/Src/usbh_mtp_ptp.c ****       break;
 774:./Libraries/STM32_USB_Host_Library/Class/MTP/Src/usbh_mtp_ptp.c ****     case PTP_DTC_UINT16:
 775:./Libraries/STM32_USB_Host_Library/Class/MTP/Src/usbh_mtp_ptp.c ****       value->u16 = LE16(&(data[*offset]));
 776:./Libraries/STM32_USB_Host_Library/Class/MTP/Src/usbh_mtp_ptp.c ****       *offset += 2U;
 777:./Libraries/STM32_USB_Host_Library/Class/MTP/Src/usbh_mtp_ptp.c ****       break;
 778:./Libraries/STM32_USB_Host_Library/Class/MTP/Src/usbh_mtp_ptp.c ****     case PTP_DTC_INT32:
 779:./Libraries/STM32_USB_Host_Library/Class/MTP/Src/usbh_mtp_ptp.c ****       value->i32 = *(int32_t *)(void *)(&(data[*offset]));
 780:./Libraries/STM32_USB_Host_Library/Class/MTP/Src/usbh_mtp_ptp.c ****       *offset += 4U;
 781:./Libraries/STM32_USB_Host_Library/Class/MTP/Src/usbh_mtp_ptp.c ****       break;
 782:./Libraries/STM32_USB_Host_Library/Class/MTP/Src/usbh_mtp_ptp.c ****     case PTP_DTC_UINT32:
 783:./Libraries/STM32_USB_Host_Library/Class/MTP/Src/usbh_mtp_ptp.c ****       value->u32 = LE32(&(data[*offset]));
 784:./Libraries/STM32_USB_Host_Library/Class/MTP/Src/usbh_mtp_ptp.c ****       *offset += 4U;
 785:./Libraries/STM32_USB_Host_Library/Class/MTP/Src/usbh_mtp_ptp.c ****       break;
 786:./Libraries/STM32_USB_Host_Library/Class/MTP/Src/usbh_mtp_ptp.c ****     case PTP_DTC_INT64:
 787:./Libraries/STM32_USB_Host_Library/Class/MTP/Src/usbh_mtp_ptp.c ****       value->i64 = *(int64_t *)(void *)(&(data[*offset]));
 788:./Libraries/STM32_USB_Host_Library/Class/MTP/Src/usbh_mtp_ptp.c ****       *offset += 8U;
 789:./Libraries/STM32_USB_Host_Library/Class/MTP/Src/usbh_mtp_ptp.c ****       break;
 790:./Libraries/STM32_USB_Host_Library/Class/MTP/Src/usbh_mtp_ptp.c ****     case PTP_DTC_UINT64:
 791:./Libraries/STM32_USB_Host_Library/Class/MTP/Src/usbh_mtp_ptp.c ****       value->u64 = LE64(&(data[*offset]));
 792:./Libraries/STM32_USB_Host_Library/Class/MTP/Src/usbh_mtp_ptp.c ****       *offset += 8U;
 793:./Libraries/STM32_USB_Host_Library/Class/MTP/Src/usbh_mtp_ptp.c ****       break;
 794:./Libraries/STM32_USB_Host_Library/Class/MTP/Src/usbh_mtp_ptp.c **** 
 795:./Libraries/STM32_USB_Host_Library/Class/MTP/Src/usbh_mtp_ptp.c ****     case PTP_DTC_UINT128:
 796:./Libraries/STM32_USB_Host_Library/Class/MTP/Src/usbh_mtp_ptp.c ****       *offset += 16U;
 797:./Libraries/STM32_USB_Host_Library/Class/MTP/Src/usbh_mtp_ptp.c ****       break;
 798:./Libraries/STM32_USB_Host_Library/Class/MTP/Src/usbh_mtp_ptp.c ****     case PTP_DTC_INT128:
 799:./Libraries/STM32_USB_Host_Library/Class/MTP/Src/usbh_mtp_ptp.c ****       *offset += 16U;
 800:./Libraries/STM32_USB_Host_Library/Class/MTP/Src/usbh_mtp_ptp.c ****       break;
 801:./Libraries/STM32_USB_Host_Library/Class/MTP/Src/usbh_mtp_ptp.c **** 
 802:./Libraries/STM32_USB_Host_Library/Class/MTP/Src/usbh_mtp_ptp.c ****     case PTP_DTC_STR:
 803:./Libraries/STM32_USB_Host_Library/Class/MTP/Src/usbh_mtp_ptp.c **** 
 804:./Libraries/STM32_USB_Host_Library/Class/MTP/Src/usbh_mtp_ptp.c ****       PTP_GetString((uint8_t *)(void *)value->str, (uint8_t *) & (data[*offset]), &len);
 805:./Libraries/STM32_USB_Host_Library/Class/MTP/Src/usbh_mtp_ptp.c ****       *offset += len * 2U + 1U;
 806:./Libraries/STM32_USB_Host_Library/Class/MTP/Src/usbh_mtp_ptp.c ****       break;
 807:./Libraries/STM32_USB_Host_Library/Class/MTP/Src/usbh_mtp_ptp.c ****     default:
 808:./Libraries/STM32_USB_Host_Library/Class/MTP/Src/usbh_mtp_ptp.c ****       break;
 809:./Libraries/STM32_USB_Host_Library/Class/MTP/Src/usbh_mtp_ptp.c ****   }
 810:./Libraries/STM32_USB_Host_Library/Class/MTP/Src/usbh_mtp_ptp.c **** }
 811:./Libraries/STM32_USB_Host_Library/Class/MTP/Src/usbh_mtp_ptp.c **** 
 812:./Libraries/STM32_USB_Host_Library/Class/MTP/Src/usbh_mtp_ptp.c **** 
 813:./Libraries/STM32_USB_Host_Library/Class/MTP/Src/usbh_mtp_ptp.c **** /**
 814:./Libraries/STM32_USB_Host_Library/Class/MTP/Src/usbh_mtp_ptp.c ****   * @brief  PTP_GetDevicePropValue
 815:./Libraries/STM32_USB_Host_Library/Class/MTP/Src/usbh_mtp_ptp.c ****   *         Gets objectInfo and fills object_info structure.
 816:./Libraries/STM32_USB_Host_Library/Class/MTP/Src/usbh_mtp_ptp.c ****   * @param  phost: Host handle
 817:./Libraries/STM32_USB_Host_Library/Class/MTP/Src/usbh_mtp_ptp.c ****   * @param  opd: object prop descriptor structure
 818:./Libraries/STM32_USB_Host_Library/Class/MTP/Src/usbh_mtp_ptp.c ****   * @retval None
 819:./Libraries/STM32_USB_Host_Library/Class/MTP/Src/usbh_mtp_ptp.c ****   */
 820:./Libraries/STM32_USB_Host_Library/Class/MTP/Src/usbh_mtp_ptp.c **** static uint32_t PTP_GetObjectPropList(USBH_HandleTypeDef *phost,
 821:./Libraries/STM32_USB_Host_Library/Class/MTP/Src/usbh_mtp_ptp.c ****                                       MTP_PropertiesTypedef *props,
 822:./Libraries/STM32_USB_Host_Library/Class/MTP/Src/usbh_mtp_ptp.c ****                                       uint32_t len)
 823:./Libraries/STM32_USB_Host_Library/Class/MTP/Src/usbh_mtp_ptp.c **** {
 824:./Libraries/STM32_USB_Host_Library/Class/MTP/Src/usbh_mtp_ptp.c ****   MTP_HandleTypeDef    *MTP_Handle = (MTP_HandleTypeDef *)phost->pActiveClass->pData;
 825:./Libraries/STM32_USB_Host_Library/Class/MTP/Src/usbh_mtp_ptp.c ****   uint8_t *data = MTP_Handle->ptp.data_container.payload.data;
 826:./Libraries/STM32_USB_Host_Library/Class/MTP/Src/usbh_mtp_ptp.c ****   uint32_t prop_count;
 827:./Libraries/STM32_USB_Host_Library/Class/MTP/Src/usbh_mtp_ptp.c ****   uint32_t offset = 0U, i;
 828:./Libraries/STM32_USB_Host_Library/Class/MTP/Src/usbh_mtp_ptp.c **** 
ARM GAS  /tmp/ccSE0mVF.s 			page 16


 829:./Libraries/STM32_USB_Host_Library/Class/MTP/Src/usbh_mtp_ptp.c ****   prop_count = LE32(data);
 830:./Libraries/STM32_USB_Host_Library/Class/MTP/Src/usbh_mtp_ptp.c **** 
 831:./Libraries/STM32_USB_Host_Library/Class/MTP/Src/usbh_mtp_ptp.c ****   if (prop_count == 0U)
 832:./Libraries/STM32_USB_Host_Library/Class/MTP/Src/usbh_mtp_ptp.c ****   {
 833:./Libraries/STM32_USB_Host_Library/Class/MTP/Src/usbh_mtp_ptp.c ****     return 0U;
 834:./Libraries/STM32_USB_Host_Library/Class/MTP/Src/usbh_mtp_ptp.c ****   }
 835:./Libraries/STM32_USB_Host_Library/Class/MTP/Src/usbh_mtp_ptp.c **** 
 836:./Libraries/STM32_USB_Host_Library/Class/MTP/Src/usbh_mtp_ptp.c ****   data += sizeof(uint32_t);
 837:./Libraries/STM32_USB_Host_Library/Class/MTP/Src/usbh_mtp_ptp.c ****   len -= sizeof(uint32_t);
 838:./Libraries/STM32_USB_Host_Library/Class/MTP/Src/usbh_mtp_ptp.c **** 
 839:./Libraries/STM32_USB_Host_Library/Class/MTP/Src/usbh_mtp_ptp.c ****   for (i = 0U; i < prop_count; i++)
 840:./Libraries/STM32_USB_Host_Library/Class/MTP/Src/usbh_mtp_ptp.c ****   {
 841:./Libraries/STM32_USB_Host_Library/Class/MTP/Src/usbh_mtp_ptp.c ****     if (len <= 0U)
 842:./Libraries/STM32_USB_Host_Library/Class/MTP/Src/usbh_mtp_ptp.c ****     {
 843:./Libraries/STM32_USB_Host_Library/Class/MTP/Src/usbh_mtp_ptp.c ****       return 0U;
 844:./Libraries/STM32_USB_Host_Library/Class/MTP/Src/usbh_mtp_ptp.c ****     }
 845:./Libraries/STM32_USB_Host_Library/Class/MTP/Src/usbh_mtp_ptp.c **** 
 846:./Libraries/STM32_USB_Host_Library/Class/MTP/Src/usbh_mtp_ptp.c ****     props[i].ObjectHandle = LE32(data);
 847:./Libraries/STM32_USB_Host_Library/Class/MTP/Src/usbh_mtp_ptp.c ****     data += sizeof(uint32_t);
 848:./Libraries/STM32_USB_Host_Library/Class/MTP/Src/usbh_mtp_ptp.c ****     len -= sizeof(uint32_t);
 849:./Libraries/STM32_USB_Host_Library/Class/MTP/Src/usbh_mtp_ptp.c **** 
 850:./Libraries/STM32_USB_Host_Library/Class/MTP/Src/usbh_mtp_ptp.c ****     props[i].property = LE16(data);
 851:./Libraries/STM32_USB_Host_Library/Class/MTP/Src/usbh_mtp_ptp.c ****     data += sizeof(uint16_t);
 852:./Libraries/STM32_USB_Host_Library/Class/MTP/Src/usbh_mtp_ptp.c ****     len -= sizeof(uint16_t);
 853:./Libraries/STM32_USB_Host_Library/Class/MTP/Src/usbh_mtp_ptp.c **** 
 854:./Libraries/STM32_USB_Host_Library/Class/MTP/Src/usbh_mtp_ptp.c ****     props[i].datatype = LE16(data);
 855:./Libraries/STM32_USB_Host_Library/Class/MTP/Src/usbh_mtp_ptp.c ****     data += sizeof(uint16_t);
 856:./Libraries/STM32_USB_Host_Library/Class/MTP/Src/usbh_mtp_ptp.c ****     len -= sizeof(uint16_t);
 857:./Libraries/STM32_USB_Host_Library/Class/MTP/Src/usbh_mtp_ptp.c **** 
 858:./Libraries/STM32_USB_Host_Library/Class/MTP/Src/usbh_mtp_ptp.c ****     offset = 0U;
 859:./Libraries/STM32_USB_Host_Library/Class/MTP/Src/usbh_mtp_ptp.c **** 
 860:./Libraries/STM32_USB_Host_Library/Class/MTP/Src/usbh_mtp_ptp.c ****     PTP_GetDevicePropValue(phost, &offset, len, &props[i].propval, props[i].datatype);
 861:./Libraries/STM32_USB_Host_Library/Class/MTP/Src/usbh_mtp_ptp.c **** 
 862:./Libraries/STM32_USB_Host_Library/Class/MTP/Src/usbh_mtp_ptp.c ****     data += offset;
 863:./Libraries/STM32_USB_Host_Library/Class/MTP/Src/usbh_mtp_ptp.c ****     len -= offset;
 864:./Libraries/STM32_USB_Host_Library/Class/MTP/Src/usbh_mtp_ptp.c ****   }
 865:./Libraries/STM32_USB_Host_Library/Class/MTP/Src/usbh_mtp_ptp.c **** 
 866:./Libraries/STM32_USB_Host_Library/Class/MTP/Src/usbh_mtp_ptp.c ****   return prop_count;
 867:./Libraries/STM32_USB_Host_Library/Class/MTP/Src/usbh_mtp_ptp.c **** }
 868:./Libraries/STM32_USB_Host_Library/Class/MTP/Src/usbh_mtp_ptp.c **** 
 869:./Libraries/STM32_USB_Host_Library/Class/MTP/Src/usbh_mtp_ptp.c **** /**
 870:./Libraries/STM32_USB_Host_Library/Class/MTP/Src/usbh_mtp_ptp.c ****   * @brief  PTP_GetString
 871:./Libraries/STM32_USB_Host_Library/Class/MTP/Src/usbh_mtp_ptp.c ****   *         Gets SCII String from.
 872:./Libraries/STM32_USB_Host_Library/Class/MTP/Src/usbh_mtp_ptp.c ****   * @param  str: ascii string
 873:./Libraries/STM32_USB_Host_Library/Class/MTP/Src/usbh_mtp_ptp.c ****   * @param  data: Device info structure
 874:./Libraries/STM32_USB_Host_Library/Class/MTP/Src/usbh_mtp_ptp.c ****   * @retval None
 875:./Libraries/STM32_USB_Host_Library/Class/MTP/Src/usbh_mtp_ptp.c ****   */
 876:./Libraries/STM32_USB_Host_Library/Class/MTP/Src/usbh_mtp_ptp.c **** static void PTP_GetString(uint8_t *str, uint8_t *data, uint16_t *len)
 877:./Libraries/STM32_USB_Host_Library/Class/MTP/Src/usbh_mtp_ptp.c **** {
 878:./Libraries/STM32_USB_Host_Library/Class/MTP/Src/usbh_mtp_ptp.c ****   uint16_t strlength;
 879:./Libraries/STM32_USB_Host_Library/Class/MTP/Src/usbh_mtp_ptp.c ****   uint16_t idx;
 880:./Libraries/STM32_USB_Host_Library/Class/MTP/Src/usbh_mtp_ptp.c **** 
 881:./Libraries/STM32_USB_Host_Library/Class/MTP/Src/usbh_mtp_ptp.c ****   *len = data[0];
 882:./Libraries/STM32_USB_Host_Library/Class/MTP/Src/usbh_mtp_ptp.c ****   strlength = (uint16_t)(2U * (uint32_t)data[0]);
 883:./Libraries/STM32_USB_Host_Library/Class/MTP/Src/usbh_mtp_ptp.c ****   data ++; /* Adjust the offset ignoring the String Len */
 884:./Libraries/STM32_USB_Host_Library/Class/MTP/Src/usbh_mtp_ptp.c **** 
 885:./Libraries/STM32_USB_Host_Library/Class/MTP/Src/usbh_mtp_ptp.c ****   for (idx = 0U; idx < strlength; idx += 2U)
ARM GAS  /tmp/ccSE0mVF.s 			page 17


 886:./Libraries/STM32_USB_Host_Library/Class/MTP/Src/usbh_mtp_ptp.c ****   {
 887:./Libraries/STM32_USB_Host_Library/Class/MTP/Src/usbh_mtp_ptp.c ****     /* Copy Only the string and ignore the UNICODE ID, hence add the src */
 888:./Libraries/STM32_USB_Host_Library/Class/MTP/Src/usbh_mtp_ptp.c ****     *str = data[idx];
 889:./Libraries/STM32_USB_Host_Library/Class/MTP/Src/usbh_mtp_ptp.c ****     str++;
 890:./Libraries/STM32_USB_Host_Library/Class/MTP/Src/usbh_mtp_ptp.c ****   }
 891:./Libraries/STM32_USB_Host_Library/Class/MTP/Src/usbh_mtp_ptp.c ****   *str = 0U; /* mark end of string */
 892:./Libraries/STM32_USB_Host_Library/Class/MTP/Src/usbh_mtp_ptp.c **** }
 893:./Libraries/STM32_USB_Host_Library/Class/MTP/Src/usbh_mtp_ptp.c **** 
 894:./Libraries/STM32_USB_Host_Library/Class/MTP/Src/usbh_mtp_ptp.c **** /**
 895:./Libraries/STM32_USB_Host_Library/Class/MTP/Src/usbh_mtp_ptp.c ****   * @brief  PTP_GetString
 896:./Libraries/STM32_USB_Host_Library/Class/MTP/Src/usbh_mtp_ptp.c ****   *         Gets SCII String from.
 897:./Libraries/STM32_USB_Host_Library/Class/MTP/Src/usbh_mtp_ptp.c ****   * @param  str: ascii string
 898:./Libraries/STM32_USB_Host_Library/Class/MTP/Src/usbh_mtp_ptp.c ****   * @param  data: Device info structure
 899:./Libraries/STM32_USB_Host_Library/Class/MTP/Src/usbh_mtp_ptp.c ****   * @retval None
 900:./Libraries/STM32_USB_Host_Library/Class/MTP/Src/usbh_mtp_ptp.c ****   */
 901:./Libraries/STM32_USB_Host_Library/Class/MTP/Src/usbh_mtp_ptp.c **** 
 902:./Libraries/STM32_USB_Host_Library/Class/MTP/Src/usbh_mtp_ptp.c **** static uint32_t PTP_GetArray16(uint16_t *array, uint8_t *data, uint32_t offset)
 903:./Libraries/STM32_USB_Host_Library/Class/MTP/Src/usbh_mtp_ptp.c **** {
  29              		.loc 1 903 1 view -0
  30              		.cfi_startproc
  31              		@ args = 0, pretend = 0, frame = 0
  32              		@ frame_needed = 0, uses_anonymous_args = 0
  33              		@ link register save eliminated.
 904:./Libraries/STM32_USB_Host_Library/Class/MTP/Src/usbh_mtp_ptp.c ****   uint32_t size, idx = 0U;
  34              		.loc 1 904 3 view .LVU1
 905:./Libraries/STM32_USB_Host_Library/Class/MTP/Src/usbh_mtp_ptp.c **** 
 906:./Libraries/STM32_USB_Host_Library/Class/MTP/Src/usbh_mtp_ptp.c ****   size = LE32(&data[offset]);
  35              		.loc 1 906 3 view .LVU2
  36              		.loc 1 906 10 is_stmt 0 view .LVU3
  37 0000 8B18     		adds	r3, r1, r2
 903:./Libraries/STM32_USB_Host_Library/Class/MTP/Src/usbh_mtp_ptp.c ****   uint32_t size, idx = 0U;
  38              		.loc 1 903 1 view .LVU4
  39 0002 30B4     		push	{r4, r5}
  40              	.LCFI0:
  41              		.cfi_def_cfa_offset 8
  42              		.cfi_offset 4, -8
  43              		.cfi_offset 5, -4
 903:./Libraries/STM32_USB_Host_Library/Class/MTP/Src/usbh_mtp_ptp.c ****   uint32_t size, idx = 0U;
  44              		.loc 1 903 1 view .LVU5
  45 0004 0446     		mov	r4, r0
  46              		.loc 1 906 10 view .LVU6
  47 0006 9878     		ldrb	r0, [r3, #2]	@ zero_extendqisi2
  48              	.LVL1:
  49              		.loc 1 906 10 view .LVU7
  50 0008 5D78     		ldrb	r5, [r3, #1]	@ zero_extendqisi2
  51 000a 0004     		lsls	r0, r0, #16
  52 000c 895C     		ldrb	r1, [r1, r2]	@ zero_extendqisi2
  53              	.LVL2:
  54              		.loc 1 906 10 view .LVU8
  55 000e DA78     		ldrb	r2, [r3, #3]	@ zero_extendqisi2
  56              	.LVL3:
  57              		.loc 1 906 10 view .LVU9
  58 0010 40EA0520 		orr	r0, r0, r5, lsl #8
  59 0014 0843     		orrs	r0, r0, r1
  60              	.LVL4:
 907:./Libraries/STM32_USB_Host_Library/Class/MTP/Src/usbh_mtp_ptp.c ****   while (size > idx)
  61              		.loc 1 907 3 is_stmt 1 view .LVU10
ARM GAS  /tmp/ccSE0mVF.s 			page 18


  62              		.loc 1 907 9 view .LVU11
  63 0016 50EA0260 		orrs	r0, r0, r2, lsl #24
  64              	.LVL5:
  65              		.loc 1 907 9 is_stmt 0 view .LVU12
  66 001a 08D0     		beq	.L1
  67 001c A21E     		subs	r2, r4, #2
  68 001e 02EB4004 		add	r4, r2, r0, lsl #1
  69              	.LVL6:
  70              	.L3:
 908:./Libraries/STM32_USB_Host_Library/Class/MTP/Src/usbh_mtp_ptp.c ****   {
 909:./Libraries/STM32_USB_Host_Library/Class/MTP/Src/usbh_mtp_ptp.c ****     array[idx] = (uint16_t)data[offset + (sizeof(uint16_t) * (idx + 2U))];
  71              		.loc 1 909 5 is_stmt 1 view .LVU13
  72              		.loc 1 909 18 is_stmt 0 view .LVU14
  73 0022 1979     		ldrb	r1, [r3, #4]	@ zero_extendqisi2
  74 0024 0233     		adds	r3, r3, #2
  75 0026 22F8021F 		strh	r1, [r2, #2]!	@ movhi
 910:./Libraries/STM32_USB_Host_Library/Class/MTP/Src/usbh_mtp_ptp.c ****     idx++;
  76              		.loc 1 910 5 is_stmt 1 view .LVU15
 907:./Libraries/STM32_USB_Host_Library/Class/MTP/Src/usbh_mtp_ptp.c ****   while (size > idx)
  77              		.loc 1 907 9 view .LVU16
  78 002a A242     		cmp	r2, r4
  79 002c F9D1     		bne	.L3
  80              	.L1:
 911:./Libraries/STM32_USB_Host_Library/Class/MTP/Src/usbh_mtp_ptp.c ****   }
 912:./Libraries/STM32_USB_Host_Library/Class/MTP/Src/usbh_mtp_ptp.c ****   return size;
 913:./Libraries/STM32_USB_Host_Library/Class/MTP/Src/usbh_mtp_ptp.c **** }
  81              		.loc 1 913 1 is_stmt 0 view .LVU17
  82 002e 30BC     		pop	{r4, r5}
  83              	.LCFI1:
  84              		.cfi_restore 5
  85              		.cfi_restore 4
  86              		.cfi_def_cfa_offset 0
  87 0030 7047     		bx	lr
  88              		.cfi_endproc
  89              	.LFE351:
  91 0032 00BF     		.section	.text.PTP_DecodeDeviceInfo,"ax",%progbits
  92              		.align	1
  93              		.p2align 2,,3
  94              		.syntax unified
  95              		.thumb
  96              		.thumb_func
  97              		.fpu fpv5-d16
  99              	PTP_DecodeDeviceInfo:
 100              	.LVL7:
 101              	.LFB343:
 558:./Libraries/STM32_USB_Host_Library/Class/MTP/Src/usbh_mtp_ptp.c ****   MTP_HandleTypeDef    *MTP_Handle = (MTP_HandleTypeDef *)phost->pActiveClass->pData;
 102              		.loc 1 558 1 is_stmt 1 view -0
 103              		.cfi_startproc
 104              		@ args = 0, pretend = 0, frame = 0
 105              		@ frame_needed = 0, uses_anonymous_args = 0
 559:./Libraries/STM32_USB_Host_Library/Class/MTP/Src/usbh_mtp_ptp.c ****   uint8_t *data = MTP_Handle->ptp.data_container.payload.data;
 106              		.loc 1 559 3 view .LVU19
 559:./Libraries/STM32_USB_Host_Library/Class/MTP/Src/usbh_mtp_ptp.c ****   uint8_t *data = MTP_Handle->ptp.data_container.payload.data;
 107              		.loc 1 559 25 is_stmt 0 view .LVU20
 108 0000 D0F87C24 		ldr	r2, [r0, #1148]
 558:./Libraries/STM32_USB_Host_Library/Class/MTP/Src/usbh_mtp_ptp.c ****   MTP_HandleTypeDef    *MTP_Handle = (MTP_HandleTypeDef *)phost->pActiveClass->pData;
 109              		.loc 1 558 1 view .LVU21
ARM GAS  /tmp/ccSE0mVF.s 			page 19


 110 0004 F8B5     		push	{r3, r4, r5, r6, r7, lr}
 111              	.LCFI2:
 112              		.cfi_def_cfa_offset 24
 113              		.cfi_offset 3, -24
 114              		.cfi_offset 4, -20
 115              		.cfi_offset 5, -16
 116              		.cfi_offset 6, -12
 117              		.cfi_offset 7, -8
 118              		.cfi_offset 14, -4
 568:./Libraries/STM32_USB_Host_Library/Class/MTP/Src/usbh_mtp_ptp.c ****   {
 119              		.loc 1 568 22 view .LVU22
 120 0006 42F2BC13 		movw	r3, #8636
 558:./Libraries/STM32_USB_Host_Library/Class/MTP/Src/usbh_mtp_ptp.c ****   MTP_HandleTypeDef    *MTP_Handle = (MTP_HandleTypeDef *)phost->pActiveClass->pData;
 121              		.loc 1 558 1 view .LVU23
 122 000a 0D46     		mov	r5, r1
 559:./Libraries/STM32_USB_Host_Library/Class/MTP/Src/usbh_mtp_ptp.c ****   uint8_t *data = MTP_Handle->ptp.data_container.payload.data;
 123              		.loc 1 559 25 view .LVU24
 124 000c D169     		ldr	r1, [r2, #28]
 125              	.LVL8:
 560:./Libraries/STM32_USB_Host_Library/Class/MTP/Src/usbh_mtp_ptp.c ****   uint32_t totallen;
 126              		.loc 1 560 3 is_stmt 1 view .LVU25
 561:./Libraries/STM32_USB_Host_Library/Class/MTP/Src/usbh_mtp_ptp.c ****   uint16_t len;
 127              		.loc 1 561 3 view .LVU26
 562:./Libraries/STM32_USB_Host_Library/Class/MTP/Src/usbh_mtp_ptp.c **** 
 128              		.loc 1 562 3 view .LVU27
 566:./Libraries/STM32_USB_Host_Library/Class/MTP/Src/usbh_mtp_ptp.c **** 
 129              		.loc 1 566 50 view .LVU28
 568:./Libraries/STM32_USB_Host_Library/Class/MTP/Src/usbh_mtp_ptp.c ****   {
 130              		.loc 1 568 3 view .LVU29
 568:./Libraries/STM32_USB_Host_Library/Class/MTP/Src/usbh_mtp_ptp.c ****   {
 131              		.loc 1 568 22 is_stmt 0 view .LVU30
 132 000e CA58     		ldr	r2, [r1, r3]
 568:./Libraries/STM32_USB_Host_Library/Class/MTP/Src/usbh_mtp_ptp.c ****   {
 133              		.loc 1 568 6 view .LVU31
 134 0010 002A     		cmp	r2, #0
 135 0012 40F0EE80 		bne	.L10
 570:./Libraries/STM32_USB_Host_Library/Class/MTP/Src/usbh_mtp_ptp.c ****     dev_info->VendorExtensionID = LE32(&data[PTP_di_VendorExtensionID]);
 136              		.loc 1 570 5 is_stmt 1 view .LVU32
 570:./Libraries/STM32_USB_Host_Library/Class/MTP/Src/usbh_mtp_ptp.c ****     dev_info->VendorExtensionID = LE32(&data[PTP_di_VendorExtensionID]);
 137              		.loc 1 570 33 is_stmt 0 view .LVU33
 138 0016 41F69054 		movw	r4, #7568
 571:./Libraries/STM32_USB_Host_Library/Class/MTP/Src/usbh_mtp_ptp.c ****     dev_info->VendorExtensionVersion = LE16(&data[PTP_di_VendorExtensionVersion]);
 139              		.loc 1 571 35 view .LVU34
 140 001a 41F69250 		movw	r0, #7570
 141              	.LVL9:
 572:./Libraries/STM32_USB_Host_Library/Class/MTP/Src/usbh_mtp_ptp.c ****     PTP_GetString(dev_info->VendorExtensionDesc, &data[PTP_di_VendorExtensionDesc], &len);
 142              		.loc 1 572 40 view .LVU35
 143 001e 41F69653 		movw	r3, #7574
 144              	.LBB30:
 145              	.LBB31:
 881:./Libraries/STM32_USB_Host_Library/Class/MTP/Src/usbh_mtp_ptp.c ****   strlength = (uint16_t)(2U * (uint32_t)data[0]);
 146              		.loc 1 881 14 view .LVU36
 147 0022 41F69856 		movw	r6, #7576
 148              	.LBE31:
 149              	.LBE30:
 570:./Libraries/STM32_USB_Host_Library/Class/MTP/Src/usbh_mtp_ptp.c ****     dev_info->VendorExtensionID = LE32(&data[PTP_di_VendorExtensionID]);
 150              		.loc 1 570 33 view .LVU37
ARM GAS  /tmp/ccSE0mVF.s 			page 20


 151 0026 0C44     		add	r4, r4, r1
 152              	.LVL10:
 571:./Libraries/STM32_USB_Host_Library/Class/MTP/Src/usbh_mtp_ptp.c ****     dev_info->VendorExtensionVersion = LE16(&data[PTP_di_VendorExtensionVersion]);
 153              		.loc 1 571 35 view .LVU38
 154 0028 0844     		add	r0, r0, r1
 572:./Libraries/STM32_USB_Host_Library/Class/MTP/Src/usbh_mtp_ptp.c ****     PTP_GetString(dev_info->VendorExtensionDesc, &data[PTP_di_VendorExtensionDesc], &len);
 155              		.loc 1 572 40 view .LVU39
 156 002a 0B44     		add	r3, r3, r1
 573:./Libraries/STM32_USB_Host_Library/Class/MTP/Src/usbh_mtp_ptp.c **** 
 157              		.loc 1 573 27 view .LVU40
 158 002c 05F10A0C 		add	ip, r5, #10
 570:./Libraries/STM32_USB_Host_Library/Class/MTP/Src/usbh_mtp_ptp.c ****     dev_info->VendorExtensionID = LE32(&data[PTP_di_VendorExtensionID]);
 159              		.loc 1 570 33 view .LVU41
 160 0030 2788     		ldrh	r7, [r4]	@ unaligned
 570:./Libraries/STM32_USB_Host_Library/Class/MTP/Src/usbh_mtp_ptp.c ****     dev_info->VendorExtensionID = LE32(&data[PTP_di_VendorExtensionID]);
 161              		.loc 1 570 31 view .LVU42
 162 0032 2F80     		strh	r7, [r5]	@ movhi
 571:./Libraries/STM32_USB_Host_Library/Class/MTP/Src/usbh_mtp_ptp.c ****     dev_info->VendorExtensionVersion = LE16(&data[PTP_di_VendorExtensionVersion]);
 163              		.loc 1 571 5 is_stmt 1 view .LVU43
 571:./Libraries/STM32_USB_Host_Library/Class/MTP/Src/usbh_mtp_ptp.c ****     dev_info->VendorExtensionVersion = LE16(&data[PTP_di_VendorExtensionVersion]);
 164              		.loc 1 571 35 is_stmt 0 view .LVU44
 165 0034 0068     		ldr	r0, [r0]	@ unaligned
 571:./Libraries/STM32_USB_Host_Library/Class/MTP/Src/usbh_mtp_ptp.c ****     dev_info->VendorExtensionVersion = LE16(&data[PTP_di_VendorExtensionVersion]);
 166              		.loc 1 571 33 view .LVU45
 167 0036 6860     		str	r0, [r5, #4]
 572:./Libraries/STM32_USB_Host_Library/Class/MTP/Src/usbh_mtp_ptp.c ****     PTP_GetString(dev_info->VendorExtensionDesc, &data[PTP_di_VendorExtensionDesc], &len);
 168              		.loc 1 572 5 is_stmt 1 view .LVU46
 572:./Libraries/STM32_USB_Host_Library/Class/MTP/Src/usbh_mtp_ptp.c ****     PTP_GetString(dev_info->VendorExtensionDesc, &data[PTP_di_VendorExtensionDesc], &len);
 169              		.loc 1 572 40 is_stmt 0 view .LVU47
 170 0038 1B88     		ldrh	r3, [r3]	@ unaligned
 572:./Libraries/STM32_USB_Host_Library/Class/MTP/Src/usbh_mtp_ptp.c ****     PTP_GetString(dev_info->VendorExtensionDesc, &data[PTP_di_VendorExtensionDesc], &len);
 171              		.loc 1 572 38 view .LVU48
 172 003a 2B81     		strh	r3, [r5, #8]	@ movhi
 573:./Libraries/STM32_USB_Host_Library/Class/MTP/Src/usbh_mtp_ptp.c **** 
 173              		.loc 1 573 5 is_stmt 1 view .LVU49
 174              	.LVL11:
 175              	.LBB35:
 176              	.LBI30:
 876:./Libraries/STM32_USB_Host_Library/Class/MTP/Src/usbh_mtp_ptp.c **** {
 177              		.loc 1 876 13 view .LVU50
 178              	.LBB32:
 878:./Libraries/STM32_USB_Host_Library/Class/MTP/Src/usbh_mtp_ptp.c ****   uint16_t idx;
 179              		.loc 1 878 3 view .LVU51
 879:./Libraries/STM32_USB_Host_Library/Class/MTP/Src/usbh_mtp_ptp.c **** 
 180              		.loc 1 879 3 view .LVU52
 881:./Libraries/STM32_USB_Host_Library/Class/MTP/Src/usbh_mtp_ptp.c ****   strlength = (uint16_t)(2U * (uint32_t)data[0]);
 181              		.loc 1 881 3 view .LVU53
 881:./Libraries/STM32_USB_Host_Library/Class/MTP/Src/usbh_mtp_ptp.c ****   strlength = (uint16_t)(2U * (uint32_t)data[0]);
 182              		.loc 1 881 14 is_stmt 0 view .LVU54
 183 003c 885D     		ldrb	r0, [r1, r6]	@ zero_extendqisi2
 184              	.LVL12:
 882:./Libraries/STM32_USB_Host_Library/Class/MTP/Src/usbh_mtp_ptp.c ****   data ++; /* Adjust the offset ignoring the String Len */
 185              		.loc 1 882 3 is_stmt 1 view .LVU55
 883:./Libraries/STM32_USB_Host_Library/Class/MTP/Src/usbh_mtp_ptp.c **** 
 186              		.loc 1 883 3 view .LVU56
 885:./Libraries/STM32_USB_Host_Library/Class/MTP/Src/usbh_mtp_ptp.c ****   {
 187              		.loc 1 885 3 view .LVU57
ARM GAS  /tmp/ccSE0mVF.s 			page 21


 885:./Libraries/STM32_USB_Host_Library/Class/MTP/Src/usbh_mtp_ptp.c ****   {
 188              		.loc 1 885 18 view .LVU58
 885:./Libraries/STM32_USB_Host_Library/Class/MTP/Src/usbh_mtp_ptp.c ****   {
 189              		.loc 1 885 3 is_stmt 0 view .LVU59
 190 003e 4700     		lsls	r7, r0, #1
 191 0040 80B1     		cbz	r0, .L12
 192 0042 41F6995E 		movw	lr, #7577
 193 0046 6346     		mov	r3, ip
 194 0048 8E44     		add	lr, lr, r1
 195              	.LVL13:
 196              	.L13:
 888:./Libraries/STM32_USB_Host_Library/Class/MTP/Src/usbh_mtp_ptp.c ****     str++;
 197              		.loc 1 888 5 is_stmt 1 view .LVU60
 888:./Libraries/STM32_USB_Host_Library/Class/MTP/Src/usbh_mtp_ptp.c ****     str++;
 198              		.loc 1 888 16 is_stmt 0 view .LVU61
 199 004a 1EF80260 		ldrb	r6, [lr, r2]	@ zero_extendqisi2
 200 004e 0232     		adds	r2, r2, #2
 201              	.LVL14:
 885:./Libraries/STM32_USB_Host_Library/Class/MTP/Src/usbh_mtp_ptp.c ****   {
 202              		.loc 1 885 3 view .LVU62
 203 0050 91B2     		uxth	r1, r2
 888:./Libraries/STM32_USB_Host_Library/Class/MTP/Src/usbh_mtp_ptp.c ****     str++;
 204              		.loc 1 888 10 view .LVU63
 205 0052 03F8016B 		strb	r6, [r3], #1
 206              	.LVL15:
 889:./Libraries/STM32_USB_Host_Library/Class/MTP/Src/usbh_mtp_ptp.c ****   }
 207              		.loc 1 889 5 is_stmt 1 view .LVU64
 885:./Libraries/STM32_USB_Host_Library/Class/MTP/Src/usbh_mtp_ptp.c ****   {
 208              		.loc 1 885 35 view .LVU65
 885:./Libraries/STM32_USB_Host_Library/Class/MTP/Src/usbh_mtp_ptp.c ****   {
 209              		.loc 1 885 18 view .LVU66
 885:./Libraries/STM32_USB_Host_Library/Class/MTP/Src/usbh_mtp_ptp.c ****   {
 210              		.loc 1 885 3 is_stmt 0 view .LVU67
 211 0056 8F42     		cmp	r7, r1
 212 0058 F7D8     		bhi	.L13
 213 005a 013F     		subs	r7, r7, #1
 214 005c C7F34E07 		ubfx	r7, r7, #1, #15
 215 0060 0137     		adds	r7, r7, #1
 216 0062 BC44     		add	ip, ip, r7
 217              	.LVL16:
 218              	.L12:
 891:./Libraries/STM32_USB_Host_Library/Class/MTP/Src/usbh_mtp_ptp.c **** }
 219              		.loc 1 891 3 is_stmt 1 view .LVU68
 220              	.LBE32:
 221              	.LBE35:
 576:./Libraries/STM32_USB_Host_Library/Class/MTP/Src/usbh_mtp_ptp.c ****     dev_info->OperationsSupported_len = PTP_GetArray16((uint16_t *)(void *)&dev_info->OperationsSup
 222              		.loc 1 576 32 is_stmt 0 view .LVU69
 223 0064 04EB4007 		add	r7, r4, r0, lsl #1
 224              	.LBB36:
 225              	.LBB33:
 891:./Libraries/STM32_USB_Host_Library/Class/MTP/Src/usbh_mtp_ptp.c **** }
 226              		.loc 1 891 8 view .LVU70
 227 0068 0023     		movs	r3, #0
 228              	.LBE33:
 229              	.LBE36:
 575:./Libraries/STM32_USB_Host_Library/Class/MTP/Src/usbh_mtp_ptp.c ****     dev_info->FunctionalMode = LE16(&data[PTP_di_FunctionalMode + totallen]);
 230              		.loc 1 575 20 view .LVU71
ARM GAS  /tmp/ccSE0mVF.s 			page 22


 231 006a 4600     		lsls	r6, r0, #1
 577:./Libraries/STM32_USB_Host_Library/Class/MTP/Src/usbh_mtp_ptp.c ****                                                        data, PTP_di_OperationsSupported + totallen)
 232              		.loc 1 577 41 view .LVU72
 233 006c 2146     		mov	r1, r4
 234              	.LBB37:
 235              	.LBB34:
 891:./Libraries/STM32_USB_Host_Library/Class/MTP/Src/usbh_mtp_ptp.c **** }
 236              		.loc 1 891 8 view .LVU73
 237 006e 8CF80030 		strb	r3, [ip]
 238              	.LVL17:
 891:./Libraries/STM32_USB_Host_Library/Class/MTP/Src/usbh_mtp_ptp.c **** }
 239              		.loc 1 891 8 view .LVU74
 240              	.LBE34:
 241              	.LBE37:
 575:./Libraries/STM32_USB_Host_Library/Class/MTP/Src/usbh_mtp_ptp.c ****     dev_info->FunctionalMode = LE16(&data[PTP_di_FunctionalMode + totallen]);
 242              		.loc 1 575 5 is_stmt 1 view .LVU75
 576:./Libraries/STM32_USB_Host_Library/Class/MTP/Src/usbh_mtp_ptp.c ****     dev_info->OperationsSupported_len = PTP_GetArray16((uint16_t *)(void *)&dev_info->OperationsSup
 243              		.loc 1 576 5 view .LVU76
 577:./Libraries/STM32_USB_Host_Library/Class/MTP/Src/usbh_mtp_ptp.c ****                                                        data, PTP_di_OperationsSupported + totallen)
 244              		.loc 1 577 41 is_stmt 0 view .LVU77
 245 0072 05F58870 		add	r0, r5, #272
 246              	.LVL18:
 576:./Libraries/STM32_USB_Host_Library/Class/MTP/Src/usbh_mtp_ptp.c ****     dev_info->OperationsSupported_len = PTP_GetArray16((uint16_t *)(void *)&dev_info->OperationsSup
 247              		.loc 1 576 32 view .LVU78
 248 0076 97F80AC0 		ldrb	ip, [r7, #10]	@ zero_extendqisi2
 577:./Libraries/STM32_USB_Host_Library/Class/MTP/Src/usbh_mtp_ptp.c ****                                                        data, PTP_di_OperationsSupported + totallen)
 249              		.loc 1 577 41 view .LVU79
 250 007a 06F10B02 		add	r2, r6, #11
 576:./Libraries/STM32_USB_Host_Library/Class/MTP/Src/usbh_mtp_ptp.c ****     dev_info->OperationsSupported_len = PTP_GetArray16((uint16_t *)(void *)&dev_info->OperationsSup
 251              		.loc 1 576 32 view .LVU80
 252 007e 7B7A     		ldrb	r3, [r7, #9]	@ zero_extendqisi2
 575:./Libraries/STM32_USB_Host_Library/Class/MTP/Src/usbh_mtp_ptp.c ****     dev_info->FunctionalMode = LE16(&data[PTP_di_FunctionalMode + totallen]);
 253              		.loc 1 575 14 view .LVU81
 254 0080 0136     		adds	r6, r6, #1
 255              	.LVL19:
 598:./Libraries/STM32_USB_Host_Library/Class/MTP/Src/usbh_mtp_ptp.c **** 
 256              		.loc 1 598 27 view .LVU82
 257 0082 05F5A167 		add	r7, r5, #1288
 576:./Libraries/STM32_USB_Host_Library/Class/MTP/Src/usbh_mtp_ptp.c ****     dev_info->OperationsSupported_len = PTP_GetArray16((uint16_t *)(void *)&dev_info->OperationsSup
 258              		.loc 1 576 32 view .LVU83
 259 0086 43EA0C23 		orr	r3, r3, ip, lsl #8
 576:./Libraries/STM32_USB_Host_Library/Class/MTP/Src/usbh_mtp_ptp.c ****     dev_info->OperationsSupported_len = PTP_GetArray16((uint16_t *)(void *)&dev_info->OperationsSup
 260              		.loc 1 576 30 view .LVU84
 261 008a A5F80A31 		strh	r3, [r5, #266]	@ movhi
 577:./Libraries/STM32_USB_Host_Library/Class/MTP/Src/usbh_mtp_ptp.c ****                                                        data, PTP_di_OperationsSupported + totallen)
 262              		.loc 1 577 5 is_stmt 1 view .LVU85
 577:./Libraries/STM32_USB_Host_Library/Class/MTP/Src/usbh_mtp_ptp.c ****                                                        data, PTP_di_OperationsSupported + totallen)
 263              		.loc 1 577 41 is_stmt 0 view .LVU86
 264 008e FFF7FEFF 		bl	PTP_GetArray16
 265              	.LVL20:
 266 0092 0346     		mov	r3, r0
 581:./Libraries/STM32_USB_Host_Library/Class/MTP/Src/usbh_mtp_ptp.c ****                                                    data, PTP_di_OperationsSupported + totallen);
 267              		.loc 1 581 37 view .LVU87
 268 0094 2146     		mov	r1, r4
 269 0096 05F5EE70 		add	r0, r5, #476
 580:./Libraries/STM32_USB_Host_Library/Class/MTP/Src/usbh_mtp_ptp.c ****     dev_info->EventsSupported_len = PTP_GetArray16((uint16_t *)(void *)&dev_info->EventsSupported,
 270              		.loc 1 580 25 view .LVU88
ARM GAS  /tmp/ccSE0mVF.s 			page 23


 271 009a 06EB4306 		add	r6, r6, r3, lsl #1
 272              	.LVL21:
 577:./Libraries/STM32_USB_Host_Library/Class/MTP/Src/usbh_mtp_ptp.c ****                                                        data, PTP_di_OperationsSupported + totallen)
 273              		.loc 1 577 39 view .LVU89
 274 009e C5F80C31 		str	r3, [r5, #268]
 580:./Libraries/STM32_USB_Host_Library/Class/MTP/Src/usbh_mtp_ptp.c ****     dev_info->EventsSupported_len = PTP_GetArray16((uint16_t *)(void *)&dev_info->EventsSupported,
 275              		.loc 1 580 5 is_stmt 1 view .LVU90
 276              	.LVL22:
 581:./Libraries/STM32_USB_Host_Library/Class/MTP/Src/usbh_mtp_ptp.c ****                                                    data, PTP_di_OperationsSupported + totallen);
 277              		.loc 1 581 5 view .LVU91
 581:./Libraries/STM32_USB_Host_Library/Class/MTP/Src/usbh_mtp_ptp.c ****                                                    data, PTP_di_OperationsSupported + totallen);
 278              		.loc 1 581 37 is_stmt 0 view .LVU92
 279 00a2 06F10E02 		add	r2, r6, #14
 280 00a6 FFF7FEFF 		bl	PTP_GetArray16
 281              	.LVL23:
 282 00aa 0346     		mov	r3, r0
 585:./Libraries/STM32_USB_Host_Library/Class/MTP/Src/usbh_mtp_ptp.c ****                                                              data, PTP_di_OperationsSupported + tot
 283              		.loc 1 585 47 view .LVU93
 284 00ac 2146     		mov	r1, r4
 285 00ae 05F52A70 		add	r0, r5, #680
 584:./Libraries/STM32_USB_Host_Library/Class/MTP/Src/usbh_mtp_ptp.c ****     dev_info->DevicePropertiesSupported_len = PTP_GetArray16((uint16_t *)(void *)&dev_info->DeviceP
 286              		.loc 1 584 25 view .LVU94
 287 00b2 06EB4306 		add	r6, r6, r3, lsl #1
 288              	.LVL24:
 581:./Libraries/STM32_USB_Host_Library/Class/MTP/Src/usbh_mtp_ptp.c ****                                                    data, PTP_di_OperationsSupported + totallen);
 289              		.loc 1 581 35 view .LVU95
 290 00b6 C5F8D831 		str	r3, [r5, #472]
 584:./Libraries/STM32_USB_Host_Library/Class/MTP/Src/usbh_mtp_ptp.c ****     dev_info->DevicePropertiesSupported_len = PTP_GetArray16((uint16_t *)(void *)&dev_info->DeviceP
 291              		.loc 1 584 5 is_stmt 1 view .LVU96
 585:./Libraries/STM32_USB_Host_Library/Class/MTP/Src/usbh_mtp_ptp.c ****                                                              data, PTP_di_OperationsSupported + tot
 292              		.loc 1 585 47 is_stmt 0 view .LVU97
 293 00ba 06F11202 		add	r2, r6, #18
 584:./Libraries/STM32_USB_Host_Library/Class/MTP/Src/usbh_mtp_ptp.c ****     dev_info->DevicePropertiesSupported_len = PTP_GetArray16((uint16_t *)(void *)&dev_info->DeviceP
 294              		.loc 1 584 25 view .LVU98
 295 00be 0436     		adds	r6, r6, #4
 296              	.LVL25:
 585:./Libraries/STM32_USB_Host_Library/Class/MTP/Src/usbh_mtp_ptp.c ****                                                              data, PTP_di_OperationsSupported + tot
 297              		.loc 1 585 5 is_stmt 1 view .LVU99
 585:./Libraries/STM32_USB_Host_Library/Class/MTP/Src/usbh_mtp_ptp.c ****                                                              data, PTP_di_OperationsSupported + tot
 298              		.loc 1 585 47 is_stmt 0 view .LVU100
 299 00c0 FFF7FEFF 		bl	PTP_GetArray16
 300              	.LVL26:
 301 00c4 0246     		mov	r2, r0
 590:./Libraries/STM32_USB_Host_Library/Class/MTP/Src/usbh_mtp_ptp.c ****                                                   data, PTP_di_OperationsSupported + totallen);
 302              		.loc 1 590 36 view .LVU101
 303 00c6 2146     		mov	r1, r4
 304 00c8 05F55D70 		add	r0, r5, #884
 588:./Libraries/STM32_USB_Host_Library/Class/MTP/Src/usbh_mtp_ptp.c **** 
 305              		.loc 1 588 25 view .LVU102
 306 00cc 06EB4203 		add	r3, r6, r2, lsl #1
 585:./Libraries/STM32_USB_Host_Library/Class/MTP/Src/usbh_mtp_ptp.c ****                                                              data, PTP_di_OperationsSupported + tot
 307              		.loc 1 585 45 view .LVU103
 308 00d0 C5F8A422 		str	r2, [r5, #676]
 588:./Libraries/STM32_USB_Host_Library/Class/MTP/Src/usbh_mtp_ptp.c **** 
 309              		.loc 1 588 5 is_stmt 1 view .LVU104
 590:./Libraries/STM32_USB_Host_Library/Class/MTP/Src/usbh_mtp_ptp.c ****                                                   data, PTP_di_OperationsSupported + totallen);
 310              		.loc 1 590 36 is_stmt 0 view .LVU105
ARM GAS  /tmp/ccSE0mVF.s 			page 24


 311 00d4 03F11202 		add	r2, r3, #18
 588:./Libraries/STM32_USB_Host_Library/Class/MTP/Src/usbh_mtp_ptp.c **** 
 312              		.loc 1 588 25 view .LVU106
 313 00d8 1E1D     		adds	r6, r3, #4
 314              	.LVL27:
 590:./Libraries/STM32_USB_Host_Library/Class/MTP/Src/usbh_mtp_ptp.c ****                                                   data, PTP_di_OperationsSupported + totallen);
 315              		.loc 1 590 5 is_stmt 1 view .LVU107
 590:./Libraries/STM32_USB_Host_Library/Class/MTP/Src/usbh_mtp_ptp.c ****                                                   data, PTP_di_OperationsSupported + totallen);
 316              		.loc 1 590 36 is_stmt 0 view .LVU108
 317 00da FFF7FEFF 		bl	PTP_GetArray16
 318              	.LVL28:
 319 00de 0246     		mov	r2, r0
 594:./Libraries/STM32_USB_Host_Library/Class/MTP/Src/usbh_mtp_ptp.c ****                                                  data, PTP_di_OperationsSupported + totallen);
 320              		.loc 1 594 35 view .LVU109
 321 00e0 2146     		mov	r1, r4
 322 00e2 05F58860 		add	r0, r5, #1088
 593:./Libraries/STM32_USB_Host_Library/Class/MTP/Src/usbh_mtp_ptp.c ****     dev_info->ImageFormats_len =  PTP_GetArray16((uint16_t *)(void *)&dev_info->ImageFormats,
 323              		.loc 1 593 25 view .LVU110
 324 00e6 06EB4203 		add	r3, r6, r2, lsl #1
 590:./Libraries/STM32_USB_Host_Library/Class/MTP/Src/usbh_mtp_ptp.c ****                                                   data, PTP_di_OperationsSupported + totallen);
 325              		.loc 1 590 34 view .LVU111
 326 00ea C5F87023 		str	r2, [r5, #880]
 593:./Libraries/STM32_USB_Host_Library/Class/MTP/Src/usbh_mtp_ptp.c ****     dev_info->ImageFormats_len =  PTP_GetArray16((uint16_t *)(void *)&dev_info->ImageFormats,
 327              		.loc 1 593 5 is_stmt 1 view .LVU112
 593:./Libraries/STM32_USB_Host_Library/Class/MTP/Src/usbh_mtp_ptp.c ****     dev_info->ImageFormats_len =  PTP_GetArray16((uint16_t *)(void *)&dev_info->ImageFormats,
 328              		.loc 1 593 25 is_stmt 0 view .LVU113
 329 00ee 1E1D     		adds	r6, r3, #4
 330              	.LVL29:
 594:./Libraries/STM32_USB_Host_Library/Class/MTP/Src/usbh_mtp_ptp.c ****                                                  data, PTP_di_OperationsSupported + totallen);
 331              		.loc 1 594 5 is_stmt 1 view .LVU114
 594:./Libraries/STM32_USB_Host_Library/Class/MTP/Src/usbh_mtp_ptp.c ****                                                  data, PTP_di_OperationsSupported + totallen);
 332              		.loc 1 594 35 is_stmt 0 view .LVU115
 333 00f0 03F11202 		add	r2, r3, #18
 334 00f4 FFF7FEFF 		bl	PTP_GetArray16
 335              	.LVL30:
 594:./Libraries/STM32_USB_Host_Library/Class/MTP/Src/usbh_mtp_ptp.c ****                                                  data, PTP_di_OperationsSupported + totallen);
 336              		.loc 1 594 32 view .LVU116
 337 00f8 C5F83C04 		str	r0, [r5, #1084]
 597:./Libraries/STM32_USB_Host_Library/Class/MTP/Src/usbh_mtp_ptp.c ****     PTP_GetString(dev_info->Manufacturer, &data[PTP_di_OperationsSupported + totallen], &len);
 338              		.loc 1 597 5 is_stmt 1 view .LVU117
 597:./Libraries/STM32_USB_Host_Library/Class/MTP/Src/usbh_mtp_ptp.c ****     PTP_GetString(dev_info->Manufacturer, &data[PTP_di_OperationsSupported + totallen], &len);
 339              		.loc 1 597 25 is_stmt 0 view .LVU118
 340 00fc 06EB4002 		add	r2, r6, r0, lsl #1
 598:./Libraries/STM32_USB_Host_Library/Class/MTP/Src/usbh_mtp_ptp.c **** 
 341              		.loc 1 598 76 view .LVU119
 342 0100 02F11203 		add	r3, r2, #18
 597:./Libraries/STM32_USB_Host_Library/Class/MTP/Src/usbh_mtp_ptp.c ****     PTP_GetString(dev_info->Manufacturer, &data[PTP_di_OperationsSupported + totallen], &len);
 343              		.loc 1 597 14 view .LVU120
 344 0104 0832     		adds	r2, r2, #8
 345              	.LVL31:
 598:./Libraries/STM32_USB_Host_Library/Class/MTP/Src/usbh_mtp_ptp.c **** 
 346              		.loc 1 598 5 is_stmt 1 view .LVU121
 347              	.LBB38:
 348              	.LBB39:
 881:./Libraries/STM32_USB_Host_Library/Class/MTP/Src/usbh_mtp_ptp.c ****   strlength = (uint16_t)(2U * (uint32_t)data[0]);
 349              		.loc 1 881 14 is_stmt 0 view .LVU122
 350 0106 14F803E0 		ldrb	lr, [r4, r3]	@ zero_extendqisi2
ARM GAS  /tmp/ccSE0mVF.s 			page 25


 351              	.LBE39:
 352              	.LBE38:
 598:./Libraries/STM32_USB_Host_Library/Class/MTP/Src/usbh_mtp_ptp.c **** 
 353              		.loc 1 598 5 view .LVU123
 354 010a 2344     		add	r3, r3, r4
 355              	.LVL32:
 356              	.LBB43:
 357              	.LBI38:
 876:./Libraries/STM32_USB_Host_Library/Class/MTP/Src/usbh_mtp_ptp.c **** {
 358              		.loc 1 876 13 is_stmt 1 view .LVU124
 359              	.LBB40:
 878:./Libraries/STM32_USB_Host_Library/Class/MTP/Src/usbh_mtp_ptp.c ****   uint16_t idx;
 360              		.loc 1 878 3 view .LVU125
 879:./Libraries/STM32_USB_Host_Library/Class/MTP/Src/usbh_mtp_ptp.c **** 
 361              		.loc 1 879 3 view .LVU126
 881:./Libraries/STM32_USB_Host_Library/Class/MTP/Src/usbh_mtp_ptp.c ****   strlength = (uint16_t)(2U * (uint32_t)data[0]);
 362              		.loc 1 881 3 view .LVU127
 882:./Libraries/STM32_USB_Host_Library/Class/MTP/Src/usbh_mtp_ptp.c ****   data ++; /* Adjust the offset ignoring the String Len */
 363              		.loc 1 882 3 view .LVU128
 883:./Libraries/STM32_USB_Host_Library/Class/MTP/Src/usbh_mtp_ptp.c **** 
 364              		.loc 1 883 3 view .LVU129
 885:./Libraries/STM32_USB_Host_Library/Class/MTP/Src/usbh_mtp_ptp.c ****   {
 365              		.loc 1 885 3 view .LVU130
 885:./Libraries/STM32_USB_Host_Library/Class/MTP/Src/usbh_mtp_ptp.c ****   {
 366              		.loc 1 885 18 view .LVU131
 885:./Libraries/STM32_USB_Host_Library/Class/MTP/Src/usbh_mtp_ptp.c ****   {
 367              		.loc 1 885 3 is_stmt 0 view .LVU132
 368 010c 4FEA4E0C 		lsl	ip, lr, #1
 369 0110 BEF1000F 		cmp	lr, #0
 370 0114 10D0     		beq	.L14
 371 0116 0CF1FF3C 		add	ip, ip, #-1
 372 011a 3946     		mov	r1, r7
 373 011c CCF34E0C 		ubfx	ip, ip, #1, #15
 374 0120 0CF20956 		addw	r6, ip, #1289
 375 0124 2E44     		add	r6, r6, r5
 376              	.LVL33:
 377              	.L15:
 888:./Libraries/STM32_USB_Host_Library/Class/MTP/Src/usbh_mtp_ptp.c ****     str++;
 378              		.loc 1 888 5 is_stmt 1 view .LVU133
 888:./Libraries/STM32_USB_Host_Library/Class/MTP/Src/usbh_mtp_ptp.c ****     str++;
 379              		.loc 1 888 16 is_stmt 0 view .LVU134
 380 0126 5878     		ldrb	r0, [r3, #1]	@ zero_extendqisi2
 381 0128 0233     		adds	r3, r3, #2
 382              	.LVL34:
 888:./Libraries/STM32_USB_Host_Library/Class/MTP/Src/usbh_mtp_ptp.c ****     str++;
 383              		.loc 1 888 10 view .LVU135
 384 012a 01F8010B 		strb	r0, [r1], #1
 385              	.LVL35:
 889:./Libraries/STM32_USB_Host_Library/Class/MTP/Src/usbh_mtp_ptp.c ****   }
 386              		.loc 1 889 5 is_stmt 1 view .LVU136
 885:./Libraries/STM32_USB_Host_Library/Class/MTP/Src/usbh_mtp_ptp.c ****   {
 387              		.loc 1 885 35 view .LVU137
 885:./Libraries/STM32_USB_Host_Library/Class/MTP/Src/usbh_mtp_ptp.c ****   {
 388              		.loc 1 885 18 view .LVU138
 885:./Libraries/STM32_USB_Host_Library/Class/MTP/Src/usbh_mtp_ptp.c ****   {
 389              		.loc 1 885 3 is_stmt 0 view .LVU139
 390 012e B142     		cmp	r1, r6
ARM GAS  /tmp/ccSE0mVF.s 			page 26


 391 0130 F9D1     		bne	.L15
 392 0132 0CF1010C 		add	ip, ip, #1
 393 0136 6744     		add	r7, r7, ip
 394              	.LVL36:
 395              	.L14:
 891:./Libraries/STM32_USB_Host_Library/Class/MTP/Src/usbh_mtp_ptp.c **** }
 396              		.loc 1 891 3 is_stmt 1 view .LVU140
 397              	.LBE40:
 398              	.LBE43:
 600:./Libraries/STM32_USB_Host_Library/Class/MTP/Src/usbh_mtp_ptp.c ****     PTP_GetString(dev_info->Model, &data[PTP_di_OperationsSupported + totallen], &len);
 399              		.loc 1 600 14 is_stmt 0 view .LVU141
 400 0138 02EB4E02 		add	r2, r2, lr, lsl #1
 401              	.LVL37:
 402              	.LBB44:
 403              	.LBB41:
 891:./Libraries/STM32_USB_Host_Library/Class/MTP/Src/usbh_mtp_ptp.c **** }
 404              		.loc 1 891 8 view .LVU142
 405 013c 0021     		movs	r1, #0
 406              	.LBE41:
 407              	.LBE44:
 601:./Libraries/STM32_USB_Host_Library/Class/MTP/Src/usbh_mtp_ptp.c **** 
 408              		.loc 1 601 27 view .LVU143
 409 013e 05F2076C 		addw	ip, r5, #1543
 601:./Libraries/STM32_USB_Host_Library/Class/MTP/Src/usbh_mtp_ptp.c **** 
 410              		.loc 1 601 69 view .LVU144
 411 0142 02F10B03 		add	r3, r2, #11
 412              	.LBB45:
 413              	.LBB42:
 891:./Libraries/STM32_USB_Host_Library/Class/MTP/Src/usbh_mtp_ptp.c **** }
 414              		.loc 1 891 8 view .LVU145
 415 0146 3970     		strb	r1, [r7]
 416              	.LVL38:
 891:./Libraries/STM32_USB_Host_Library/Class/MTP/Src/usbh_mtp_ptp.c **** }
 417              		.loc 1 891 8 view .LVU146
 418              	.LBE42:
 419              	.LBE45:
 600:./Libraries/STM32_USB_Host_Library/Class/MTP/Src/usbh_mtp_ptp.c ****     PTP_GetString(dev_info->Model, &data[PTP_di_OperationsSupported + totallen], &len);
 420              		.loc 1 600 5 is_stmt 1 view .LVU147
 600:./Libraries/STM32_USB_Host_Library/Class/MTP/Src/usbh_mtp_ptp.c ****     PTP_GetString(dev_info->Model, &data[PTP_di_OperationsSupported + totallen], &len);
 421              		.loc 1 600 14 is_stmt 0 view .LVU148
 422 0148 0132     		adds	r2, r2, #1
 423              	.LVL39:
 601:./Libraries/STM32_USB_Host_Library/Class/MTP/Src/usbh_mtp_ptp.c **** 
 424              		.loc 1 601 5 is_stmt 1 view .LVU149
 425              	.LBB46:
 426              	.LBB47:
 881:./Libraries/STM32_USB_Host_Library/Class/MTP/Src/usbh_mtp_ptp.c ****   strlength = (uint16_t)(2U * (uint32_t)data[0]);
 427              		.loc 1 881 14 is_stmt 0 view .LVU150
 428 014a 14F803E0 		ldrb	lr, [r4, r3]	@ zero_extendqisi2
 429              	.LVL40:
 881:./Libraries/STM32_USB_Host_Library/Class/MTP/Src/usbh_mtp_ptp.c ****   strlength = (uint16_t)(2U * (uint32_t)data[0]);
 430              		.loc 1 881 14 view .LVU151
 431              	.LBE47:
 432              	.LBE46:
 601:./Libraries/STM32_USB_Host_Library/Class/MTP/Src/usbh_mtp_ptp.c **** 
 433              		.loc 1 601 5 view .LVU152
 434 014e 2344     		add	r3, r3, r4
ARM GAS  /tmp/ccSE0mVF.s 			page 27


 435              	.LVL41:
 436              	.LBB51:
 437              	.LBI46:
 876:./Libraries/STM32_USB_Host_Library/Class/MTP/Src/usbh_mtp_ptp.c **** {
 438              		.loc 1 876 13 is_stmt 1 view .LVU153
 439              	.LBB48:
 878:./Libraries/STM32_USB_Host_Library/Class/MTP/Src/usbh_mtp_ptp.c ****   uint16_t idx;
 440              		.loc 1 878 3 view .LVU154
 879:./Libraries/STM32_USB_Host_Library/Class/MTP/Src/usbh_mtp_ptp.c **** 
 441              		.loc 1 879 3 view .LVU155
 881:./Libraries/STM32_USB_Host_Library/Class/MTP/Src/usbh_mtp_ptp.c ****   strlength = (uint16_t)(2U * (uint32_t)data[0]);
 442              		.loc 1 881 3 view .LVU156
 882:./Libraries/STM32_USB_Host_Library/Class/MTP/Src/usbh_mtp_ptp.c ****   data ++; /* Adjust the offset ignoring the String Len */
 443              		.loc 1 882 3 view .LVU157
 883:./Libraries/STM32_USB_Host_Library/Class/MTP/Src/usbh_mtp_ptp.c **** 
 444              		.loc 1 883 3 view .LVU158
 885:./Libraries/STM32_USB_Host_Library/Class/MTP/Src/usbh_mtp_ptp.c ****   {
 445              		.loc 1 885 3 view .LVU159
 885:./Libraries/STM32_USB_Host_Library/Class/MTP/Src/usbh_mtp_ptp.c ****   {
 446              		.loc 1 885 18 view .LVU160
 885:./Libraries/STM32_USB_Host_Library/Class/MTP/Src/usbh_mtp_ptp.c ****   {
 447              		.loc 1 885 3 is_stmt 0 view .LVU161
 448 0150 4FEA4E07 		lsl	r7, lr, #1
 449 0154 BEF1000F 		cmp	lr, #0
 450 0158 0ED0     		beq	.L16
 451 015a 013F     		subs	r7, r7, #1
 452 015c 6146     		mov	r1, ip
 453 015e C7F34E07 		ubfx	r7, r7, #1, #15
 454 0162 07F5C166 		add	r6, r7, #1544
 455 0166 2E44     		add	r6, r6, r5
 456              	.LVL42:
 457              	.L17:
 888:./Libraries/STM32_USB_Host_Library/Class/MTP/Src/usbh_mtp_ptp.c ****     str++;
 458              		.loc 1 888 5 is_stmt 1 view .LVU162
 888:./Libraries/STM32_USB_Host_Library/Class/MTP/Src/usbh_mtp_ptp.c ****     str++;
 459              		.loc 1 888 16 is_stmt 0 view .LVU163
 460 0168 5878     		ldrb	r0, [r3, #1]	@ zero_extendqisi2
 461 016a 0233     		adds	r3, r3, #2
 462              	.LVL43:
 888:./Libraries/STM32_USB_Host_Library/Class/MTP/Src/usbh_mtp_ptp.c ****     str++;
 463              		.loc 1 888 10 view .LVU164
 464 016c 01F8010B 		strb	r0, [r1], #1
 465              	.LVL44:
 889:./Libraries/STM32_USB_Host_Library/Class/MTP/Src/usbh_mtp_ptp.c ****   }
 466              		.loc 1 889 5 is_stmt 1 view .LVU165
 885:./Libraries/STM32_USB_Host_Library/Class/MTP/Src/usbh_mtp_ptp.c ****   {
 467              		.loc 1 885 35 view .LVU166
 885:./Libraries/STM32_USB_Host_Library/Class/MTP/Src/usbh_mtp_ptp.c ****   {
 468              		.loc 1 885 18 view .LVU167
 885:./Libraries/STM32_USB_Host_Library/Class/MTP/Src/usbh_mtp_ptp.c ****   {
 469              		.loc 1 885 3 is_stmt 0 view .LVU168
 470 0170 B142     		cmp	r1, r6
 471 0172 F9D1     		bne	.L17
 472 0174 0137     		adds	r7, r7, #1
 473 0176 BC44     		add	ip, ip, r7
 474              	.LVL45:
 475              	.L16:
ARM GAS  /tmp/ccSE0mVF.s 			page 28


 891:./Libraries/STM32_USB_Host_Library/Class/MTP/Src/usbh_mtp_ptp.c **** }
 476              		.loc 1 891 3 is_stmt 1 view .LVU169
 477              	.LBE48:
 478              	.LBE51:
 603:./Libraries/STM32_USB_Host_Library/Class/MTP/Src/usbh_mtp_ptp.c ****     PTP_GetString(dev_info->DeviceVersion, &data[PTP_di_OperationsSupported + totallen], &len);
 479              		.loc 1 603 14 is_stmt 0 view .LVU170
 480 0178 02EB4E03 		add	r3, r2, lr, lsl #1
 481              	.LBB52:
 482              	.LBB49:
 891:./Libraries/STM32_USB_Host_Library/Class/MTP/Src/usbh_mtp_ptp.c **** }
 483              		.loc 1 891 8 view .LVU171
 484 017c 0021     		movs	r1, #0
 485              	.LBE49:
 486              	.LBE52:
 604:./Libraries/STM32_USB_Host_Library/Class/MTP/Src/usbh_mtp_ptp.c **** 
 487              		.loc 1 604 27 view .LVU172
 488 017e 05F2067E 		addw	lr, r5, #1798
 489              	.LVL46:
 604:./Libraries/STM32_USB_Host_Library/Class/MTP/Src/usbh_mtp_ptp.c **** 
 490              		.loc 1 604 77 view .LVU173
 491 0182 03F10B02 		add	r2, r3, #11
 492              	.LVL47:
 493              	.LBB53:
 494              	.LBB50:
 891:./Libraries/STM32_USB_Host_Library/Class/MTP/Src/usbh_mtp_ptp.c **** }
 495              		.loc 1 891 8 view .LVU174
 496 0186 8CF80010 		strb	r1, [ip]
 497              	.LVL48:
 891:./Libraries/STM32_USB_Host_Library/Class/MTP/Src/usbh_mtp_ptp.c **** }
 498              		.loc 1 891 8 view .LVU175
 499              	.LBE50:
 500              	.LBE53:
 603:./Libraries/STM32_USB_Host_Library/Class/MTP/Src/usbh_mtp_ptp.c ****     PTP_GetString(dev_info->DeviceVersion, &data[PTP_di_OperationsSupported + totallen], &len);
 501              		.loc 1 603 5 is_stmt 1 view .LVU176
 604:./Libraries/STM32_USB_Host_Library/Class/MTP/Src/usbh_mtp_ptp.c **** 
 502              		.loc 1 604 5 view .LVU177
 503              	.LBB54:
 504              	.LBB55:
 881:./Libraries/STM32_USB_Host_Library/Class/MTP/Src/usbh_mtp_ptp.c ****   strlength = (uint16_t)(2U * (uint32_t)data[0]);
 505              		.loc 1 881 14 is_stmt 0 view .LVU178
 506 018a 14F802C0 		ldrb	ip, [r4, r2]	@ zero_extendqisi2
 507              	.LBE55:
 508              	.LBE54:
 604:./Libraries/STM32_USB_Host_Library/Class/MTP/Src/usbh_mtp_ptp.c **** 
 509              		.loc 1 604 5 view .LVU179
 510 018e 2244     		add	r2, r2, r4
 511              	.LVL49:
 512              	.LBB59:
 513              	.LBI54:
 876:./Libraries/STM32_USB_Host_Library/Class/MTP/Src/usbh_mtp_ptp.c **** {
 514              		.loc 1 876 13 is_stmt 1 view .LVU180
 515              	.LBB56:
 878:./Libraries/STM32_USB_Host_Library/Class/MTP/Src/usbh_mtp_ptp.c ****   uint16_t idx;
 516              		.loc 1 878 3 view .LVU181
 879:./Libraries/STM32_USB_Host_Library/Class/MTP/Src/usbh_mtp_ptp.c **** 
 517              		.loc 1 879 3 view .LVU182
 881:./Libraries/STM32_USB_Host_Library/Class/MTP/Src/usbh_mtp_ptp.c ****   strlength = (uint16_t)(2U * (uint32_t)data[0]);
ARM GAS  /tmp/ccSE0mVF.s 			page 29


 518              		.loc 1 881 3 view .LVU183
 882:./Libraries/STM32_USB_Host_Library/Class/MTP/Src/usbh_mtp_ptp.c ****   data ++; /* Adjust the offset ignoring the String Len */
 519              		.loc 1 882 3 view .LVU184
 883:./Libraries/STM32_USB_Host_Library/Class/MTP/Src/usbh_mtp_ptp.c **** 
 520              		.loc 1 883 3 view .LVU185
 885:./Libraries/STM32_USB_Host_Library/Class/MTP/Src/usbh_mtp_ptp.c ****   {
 521              		.loc 1 885 3 view .LVU186
 885:./Libraries/STM32_USB_Host_Library/Class/MTP/Src/usbh_mtp_ptp.c ****   {
 522              		.loc 1 885 18 view .LVU187
 885:./Libraries/STM32_USB_Host_Library/Class/MTP/Src/usbh_mtp_ptp.c ****   {
 523              		.loc 1 885 3 is_stmt 0 view .LVU188
 524 0190 4FEA4C07 		lsl	r7, ip, #1
 525 0194 BCF1000F 		cmp	ip, #0
 526 0198 0ED0     		beq	.L18
 527 019a 013F     		subs	r7, r7, #1
 528 019c 7146     		mov	r1, lr
 529 019e C7F34E07 		ubfx	r7, r7, #1, #15
 530 01a2 07F20776 		addw	r6, r7, #1799
 531 01a6 2E44     		add	r6, r6, r5
 532              	.LVL50:
 533              	.L19:
 888:./Libraries/STM32_USB_Host_Library/Class/MTP/Src/usbh_mtp_ptp.c ****     str++;
 534              		.loc 1 888 5 is_stmt 1 view .LVU189
 888:./Libraries/STM32_USB_Host_Library/Class/MTP/Src/usbh_mtp_ptp.c ****     str++;
 535              		.loc 1 888 16 is_stmt 0 view .LVU190
 536 01a8 5078     		ldrb	r0, [r2, #1]	@ zero_extendqisi2
 537 01aa 0232     		adds	r2, r2, #2
 538              	.LVL51:
 888:./Libraries/STM32_USB_Host_Library/Class/MTP/Src/usbh_mtp_ptp.c ****     str++;
 539              		.loc 1 888 10 view .LVU191
 540 01ac 01F8010B 		strb	r0, [r1], #1
 541              	.LVL52:
 889:./Libraries/STM32_USB_Host_Library/Class/MTP/Src/usbh_mtp_ptp.c ****   }
 542              		.loc 1 889 5 is_stmt 1 view .LVU192
 885:./Libraries/STM32_USB_Host_Library/Class/MTP/Src/usbh_mtp_ptp.c ****   {
 543              		.loc 1 885 35 view .LVU193
 885:./Libraries/STM32_USB_Host_Library/Class/MTP/Src/usbh_mtp_ptp.c ****   {
 544              		.loc 1 885 18 view .LVU194
 885:./Libraries/STM32_USB_Host_Library/Class/MTP/Src/usbh_mtp_ptp.c ****   {
 545              		.loc 1 885 3 is_stmt 0 view .LVU195
 546 01b0 8E42     		cmp	r6, r1
 547 01b2 F9D1     		bne	.L19
 548 01b4 0137     		adds	r7, r7, #1
 549 01b6 BE44     		add	lr, lr, r7
 550              	.LVL53:
 551              	.L18:
 891:./Libraries/STM32_USB_Host_Library/Class/MTP/Src/usbh_mtp_ptp.c **** }
 552              		.loc 1 891 3 is_stmt 1 view .LVU196
 553              	.LBE56:
 554              	.LBE59:
 607:./Libraries/STM32_USB_Host_Library/Class/MTP/Src/usbh_mtp_ptp.c ****   }
 555              		.loc 1 607 76 is_stmt 0 view .LVU197
 556 01b8 0C33     		adds	r3, r3, #12
 557              	.LVL54:
 558              	.LBB60:
 559              	.LBB57:
 891:./Libraries/STM32_USB_Host_Library/Class/MTP/Src/usbh_mtp_ptp.c **** }
ARM GAS  /tmp/ccSE0mVF.s 			page 30


 560              		.loc 1 891 8 view .LVU198
 561 01ba 0022     		movs	r2, #0
 562              	.LBE57:
 563              	.LBE60:
 607:./Libraries/STM32_USB_Host_Library/Class/MTP/Src/usbh_mtp_ptp.c ****   }
 564              		.loc 1 607 27 view .LVU199
 565 01bc 05F60506 		addw	r6, r5, #2053
 607:./Libraries/STM32_USB_Host_Library/Class/MTP/Src/usbh_mtp_ptp.c ****   }
 566              		.loc 1 607 76 view .LVU200
 567 01c0 03EB4C03 		add	r3, r3, ip, lsl #1
 568              	.LVL55:
 569              	.LBB61:
 570              	.LBB58:
 891:./Libraries/STM32_USB_Host_Library/Class/MTP/Src/usbh_mtp_ptp.c **** }
 571              		.loc 1 891 8 view .LVU201
 572 01c4 8EF80020 		strb	r2, [lr]
 573              	.LVL56:
 891:./Libraries/STM32_USB_Host_Library/Class/MTP/Src/usbh_mtp_ptp.c **** }
 574              		.loc 1 891 8 view .LVU202
 575              	.LBE58:
 576              	.LBE61:
 606:./Libraries/STM32_USB_Host_Library/Class/MTP/Src/usbh_mtp_ptp.c ****     PTP_GetString(dev_info->SerialNumber, &data[PTP_di_OperationsSupported + totallen], &len);
 577              		.loc 1 606 5 is_stmt 1 view .LVU203
 607:./Libraries/STM32_USB_Host_Library/Class/MTP/Src/usbh_mtp_ptp.c ****   }
 578              		.loc 1 607 5 view .LVU204
 579              	.LBB62:
 580              	.LBB63:
 881:./Libraries/STM32_USB_Host_Library/Class/MTP/Src/usbh_mtp_ptp.c ****   strlength = (uint16_t)(2U * (uint32_t)data[0]);
 581              		.loc 1 881 14 is_stmt 0 view .LVU205
 582 01c8 E25C     		ldrb	r2, [r4, r3]	@ zero_extendqisi2
 583              	.LBE63:
 584              	.LBE62:
 607:./Libraries/STM32_USB_Host_Library/Class/MTP/Src/usbh_mtp_ptp.c ****   }
 585              		.loc 1 607 5 view .LVU206
 586 01ca 2344     		add	r3, r3, r4
 587              	.LVL57:
 588              	.LBB65:
 589              	.LBI62:
 876:./Libraries/STM32_USB_Host_Library/Class/MTP/Src/usbh_mtp_ptp.c **** {
 590              		.loc 1 876 13 is_stmt 1 view .LVU207
 591              	.LBB64:
 878:./Libraries/STM32_USB_Host_Library/Class/MTP/Src/usbh_mtp_ptp.c ****   uint16_t idx;
 592              		.loc 1 878 3 view .LVU208
 879:./Libraries/STM32_USB_Host_Library/Class/MTP/Src/usbh_mtp_ptp.c **** 
 593              		.loc 1 879 3 view .LVU209
 881:./Libraries/STM32_USB_Host_Library/Class/MTP/Src/usbh_mtp_ptp.c ****   strlength = (uint16_t)(2U * (uint32_t)data[0]);
 594              		.loc 1 881 3 view .LVU210
 882:./Libraries/STM32_USB_Host_Library/Class/MTP/Src/usbh_mtp_ptp.c ****   data ++; /* Adjust the offset ignoring the String Len */
 595              		.loc 1 882 3 view .LVU211
 883:./Libraries/STM32_USB_Host_Library/Class/MTP/Src/usbh_mtp_ptp.c **** 
 596              		.loc 1 883 3 view .LVU212
 885:./Libraries/STM32_USB_Host_Library/Class/MTP/Src/usbh_mtp_ptp.c ****   {
 597              		.loc 1 885 3 view .LVU213
 885:./Libraries/STM32_USB_Host_Library/Class/MTP/Src/usbh_mtp_ptp.c ****   {
 598              		.loc 1 885 18 view .LVU214
 885:./Libraries/STM32_USB_Host_Library/Class/MTP/Src/usbh_mtp_ptp.c ****   {
 599              		.loc 1 885 3 is_stmt 0 view .LVU215
ARM GAS  /tmp/ccSE0mVF.s 			page 31


 600 01cc 5400     		lsls	r4, r2, #1
 601              	.LVL58:
 885:./Libraries/STM32_USB_Host_Library/Class/MTP/Src/usbh_mtp_ptp.c ****   {
 602              		.loc 1 885 3 view .LVU216
 603 01ce 72B1     		cbz	r2, .L20
 604 01d0 013C     		subs	r4, r4, #1
 605 01d2 3246     		mov	r2, r6
 606              	.LVL59:
 885:./Libraries/STM32_USB_Host_Library/Class/MTP/Src/usbh_mtp_ptp.c ****   {
 607              		.loc 1 885 3 view .LVU217
 608 01d4 C4F34E04 		ubfx	r4, r4, #1, #15
 609 01d8 04F60601 		addw	r1, r4, #2054
 610 01dc 2944     		add	r1, r1, r5
 611              	.LVL60:
 612              	.L21:
 888:./Libraries/STM32_USB_Host_Library/Class/MTP/Src/usbh_mtp_ptp.c ****     str++;
 613              		.loc 1 888 5 is_stmt 1 view .LVU218
 888:./Libraries/STM32_USB_Host_Library/Class/MTP/Src/usbh_mtp_ptp.c ****     str++;
 614              		.loc 1 888 16 is_stmt 0 view .LVU219
 615 01de 5878     		ldrb	r0, [r3, #1]	@ zero_extendqisi2
 616 01e0 0233     		adds	r3, r3, #2
 888:./Libraries/STM32_USB_Host_Library/Class/MTP/Src/usbh_mtp_ptp.c ****     str++;
 617              		.loc 1 888 10 view .LVU220
 618 01e2 02F8010B 		strb	r0, [r2], #1
 619              	.LVL61:
 889:./Libraries/STM32_USB_Host_Library/Class/MTP/Src/usbh_mtp_ptp.c ****   }
 620              		.loc 1 889 5 is_stmt 1 view .LVU221
 885:./Libraries/STM32_USB_Host_Library/Class/MTP/Src/usbh_mtp_ptp.c ****   {
 621              		.loc 1 885 35 view .LVU222
 885:./Libraries/STM32_USB_Host_Library/Class/MTP/Src/usbh_mtp_ptp.c ****   {
 622              		.loc 1 885 18 view .LVU223
 885:./Libraries/STM32_USB_Host_Library/Class/MTP/Src/usbh_mtp_ptp.c ****   {
 623              		.loc 1 885 3 is_stmt 0 view .LVU224
 624 01e6 8A42     		cmp	r2, r1
 625 01e8 F9D1     		bne	.L21
 626 01ea 0134     		adds	r4, r4, #1
 627 01ec 2644     		add	r6, r6, r4
 628              	.LVL62:
 629              	.L20:
 891:./Libraries/STM32_USB_Host_Library/Class/MTP/Src/usbh_mtp_ptp.c **** }
 630              		.loc 1 891 3 is_stmt 1 view .LVU225
 891:./Libraries/STM32_USB_Host_Library/Class/MTP/Src/usbh_mtp_ptp.c **** }
 631              		.loc 1 891 8 is_stmt 0 view .LVU226
 632 01ee 0023     		movs	r3, #0
 633 01f0 3370     		strb	r3, [r6]
 634              	.LVL63:
 635              	.L10:
 891:./Libraries/STM32_USB_Host_Library/Class/MTP/Src/usbh_mtp_ptp.c **** }
 636              		.loc 1 891 8 view .LVU227
 637              	.LBE64:
 638              	.LBE65:
 609:./Libraries/STM32_USB_Host_Library/Class/MTP/Src/usbh_mtp_ptp.c **** 
 639              		.loc 1 609 1 view .LVU228
 640 01f2 F8BD     		pop	{r3, r4, r5, r6, r7, pc}
 609:./Libraries/STM32_USB_Host_Library/Class/MTP/Src/usbh_mtp_ptp.c **** 
 641              		.loc 1 609 1 view .LVU229
 642              		.cfi_endproc
ARM GAS  /tmp/ccSE0mVF.s 			page 32


 643              	.LFE343:
 645              		.section	.text.PTP_BufferFullCallback,"ax",%progbits
 646              		.align	1
 647              		.p2align 2,,3
 648              		.syntax unified
 649              		.thumb
 650              		.thumb_func
 651              		.fpu fpv5-d16
 653              	PTP_BufferFullCallback:
 654              	.LVL64:
 655              	.LFB342:
 511:./Libraries/STM32_USB_Host_Library/Class/MTP/Src/usbh_mtp_ptp.c ****   MTP_HandleTypeDef *MTP_Handle = (MTP_HandleTypeDef *)phost->pActiveClass->pData;
 656              		.loc 1 511 1 is_stmt 1 view -0
 657              		.cfi_startproc
 658              		@ args = 0, pretend = 0, frame = 0
 659              		@ frame_needed = 0, uses_anonymous_args = 0
 512:./Libraries/STM32_USB_Host_Library/Class/MTP/Src/usbh_mtp_ptp.c **** 
 660              		.loc 1 512 3 view .LVU231
 512:./Libraries/STM32_USB_Host_Library/Class/MTP/Src/usbh_mtp_ptp.c **** 
 661              		.loc 1 512 22 is_stmt 0 view .LVU232
 662 0000 D0F87C14 		ldr	r1, [r0, #1148]
 514:./Libraries/STM32_USB_Host_Library/Class/MTP/Src/usbh_mtp_ptp.c ****   {
 663              		.loc 1 514 41 view .LVU233
 664 0004 41F68A52 		movw	r2, #7562
 511:./Libraries/STM32_USB_Host_Library/Class/MTP/Src/usbh_mtp_ptp.c ****   MTP_HandleTypeDef *MTP_Handle = (MTP_HandleTypeDef *)phost->pActiveClass->pData;
 665              		.loc 1 511 1 view .LVU234
 666 0008 38B5     		push	{r3, r4, r5, lr}
 667              	.LCFI3:
 668              		.cfi_def_cfa_offset 16
 669              		.cfi_offset 3, -16
 670              		.cfi_offset 4, -12
 671              		.cfi_offset 5, -8
 672              		.cfi_offset 14, -4
 512:./Libraries/STM32_USB_Host_Library/Class/MTP/Src/usbh_mtp_ptp.c **** 
 673              		.loc 1 512 22 view .LVU235
 674 000a CC69     		ldr	r4, [r1, #28]
 675              	.LVL65:
 514:./Libraries/STM32_USB_Host_Library/Class/MTP/Src/usbh_mtp_ptp.c ****   {
 676              		.loc 1 514 3 is_stmt 1 view .LVU236
 677 000c 6FF48053 		mvn	r3, #4096
 678 0010 A25A     		ldrh	r2, [r4, r2]
 679 0012 1344     		add	r3, r3, r2
 680 0014 1A2B     		cmp	r3, #26
 681 0016 1BD8     		bhi	.L43
 682 0018 DFE803F0 		tbb	[pc, r3]
 683              	.L46:
 684 001c 31       		.byte	(.L48-.L46)/2
 685 001d 1A       		.byte	(.L43-.L46)/2
 686 001e 1A       		.byte	(.L43-.L46)/2
 687 001f 1A       		.byte	(.L43-.L46)/2
 688 0020 1A       		.byte	(.L43-.L46)/2
 689 0021 1A       		.byte	(.L43-.L46)/2
 690 0022 1A       		.byte	(.L43-.L46)/2
 691 0023 1A       		.byte	(.L43-.L46)/2
 692 0024 1B       		.byte	(.L45-.L46)/2
 693 0025 1A       		.byte	(.L43-.L46)/2
 694 0026 1A       		.byte	(.L43-.L46)/2
ARM GAS  /tmp/ccSE0mVF.s 			page 33


 695 0027 1A       		.byte	(.L43-.L46)/2
 696 0028 0E       		.byte	(.L47-.L46)/2
 697 0029 1A       		.byte	(.L43-.L46)/2
 698 002a 1A       		.byte	(.L43-.L46)/2
 699 002b 1A       		.byte	(.L43-.L46)/2
 700 002c 1A       		.byte	(.L43-.L46)/2
 701 002d 1A       		.byte	(.L43-.L46)/2
 702 002e 1A       		.byte	(.L43-.L46)/2
 703 002f 1A       		.byte	(.L43-.L46)/2
 704 0030 1A       		.byte	(.L43-.L46)/2
 705 0031 1A       		.byte	(.L43-.L46)/2
 706 0032 1A       		.byte	(.L43-.L46)/2
 707 0033 1A       		.byte	(.L43-.L46)/2
 708 0034 1A       		.byte	(.L43-.L46)/2
 709 0035 1A       		.byte	(.L43-.L46)/2
 710 0036 1B       		.byte	(.L45-.L46)/2
 711 0037 00       		.p2align 1
 712              	.L47:
 536:./Libraries/STM32_USB_Host_Library/Class/MTP/Src/usbh_mtp_ptp.c ****       {
 713              		.loc 1 536 7 view .LVU237
 536:./Libraries/STM32_USB_Host_Library/Class/MTP/Src/usbh_mtp_ptp.c ****       {
 714              		.loc 1 536 26 is_stmt 0 view .LVU238
 715 0038 42F2BC13 		movw	r3, #8636
 536:./Libraries/STM32_USB_Host_Library/Class/MTP/Src/usbh_mtp_ptp.c ****       {
 716              		.loc 1 536 10 view .LVU239
 717 003c E358     		ldr	r3, [r4, r3]
 718 003e 3BB9     		cbnz	r3, .L43
 539:./Libraries/STM32_USB_Host_Library/Class/MTP/Src/usbh_mtp_ptp.c ****       }
 719              		.loc 1 539 9 is_stmt 1 view .LVU240
 539:./Libraries/STM32_USB_Host_Library/Class/MTP/Src/usbh_mtp_ptp.c ****       }
 720              		.loc 1 539 52 is_stmt 0 view .LVU241
 721 0040 42F2C413 		movw	r3, #8644
 539:./Libraries/STM32_USB_Host_Library/Class/MTP/Src/usbh_mtp_ptp.c ****       }
 722              		.loc 1 539 34 view .LVU242
 723 0044 42F2B012 		movw	r2, #8624
 539:./Libraries/STM32_USB_Host_Library/Class/MTP/Src/usbh_mtp_ptp.c ****       }
 724              		.loc 1 539 64 view .LVU243
 725 0048 E358     		ldr	r3, [r4, r3]
 726 004a 03F57D73 		add	r3, r3, #1012
 539:./Libraries/STM32_USB_Host_Library/Class/MTP/Src/usbh_mtp_ptp.c ****       }
 727              		.loc 1 539 34 view .LVU244
 728 004e A350     		str	r3, [r4, r2]
 729              	.L43:
 548:./Libraries/STM32_USB_Host_Library/Class/MTP/Src/usbh_mtp_ptp.c **** 
 730              		.loc 1 548 1 view .LVU245
 731 0050 38BD     		pop	{r3, r4, r5, pc}
 732              	.LVL66:
 733              	.L45:
 524:./Libraries/STM32_USB_Host_Library/Class/MTP/Src/usbh_mtp_ptp.c ****       {
 734              		.loc 1 524 7 is_stmt 1 view .LVU246
 524:./Libraries/STM32_USB_Host_Library/Class/MTP/Src/usbh_mtp_ptp.c ****       {
 735              		.loc 1 524 26 is_stmt 0 view .LVU247
 736 0052 42F2BC13 		movw	r3, #8636
 524:./Libraries/STM32_USB_Host_Library/Class/MTP/Src/usbh_mtp_ptp.c ****       {
 737              		.loc 1 524 10 view .LVU248
 738 0056 E358     		ldr	r3, [r4, r3]
 739 0058 002B     		cmp	r3, #0
ARM GAS  /tmp/ccSE0mVF.s 			page 34


 740 005a F9D1     		bne	.L43
 527:./Libraries/STM32_USB_Host_Library/Class/MTP/Src/usbh_mtp_ptp.c **** 
 741              		.loc 1 527 9 is_stmt 1 view .LVU249
 527:./Libraries/STM32_USB_Host_Library/Class/MTP/Src/usbh_mtp_ptp.c **** 
 742              		.loc 1 527 36 is_stmt 0 view .LVU250
 743 005c 42F2C415 		movw	r5, #8644
 527:./Libraries/STM32_USB_Host_Library/Class/MTP/Src/usbh_mtp_ptp.c **** 
 744              		.loc 1 527 9 view .LVU251
 745 0060 41F69051 		movw	r1, #7568
 746 0064 4FF47D72 		mov	r2, #1012
 747 0068 6059     		ldr	r0, [r4, r5]
 748              	.LVL67:
 527:./Libraries/STM32_USB_Host_Library/Class/MTP/Src/usbh_mtp_ptp.c **** 
 749              		.loc 1 527 9 view .LVU252
 750 006a 2144     		add	r1, r1, r4
 751 006c FFF7FEFF 		bl	memcpy
 752              	.LVL68:
 530:./Libraries/STM32_USB_Host_Library/Class/MTP/Src/usbh_mtp_ptp.c ****       }
 753              		.loc 1 530 9 is_stmt 1 view .LVU253
 530:./Libraries/STM32_USB_Host_Library/Class/MTP/Src/usbh_mtp_ptp.c ****       }
 754              		.loc 1 530 64 is_stmt 0 view .LVU254
 755 0070 6359     		ldr	r3, [r4, r5]
 530:./Libraries/STM32_USB_Host_Library/Class/MTP/Src/usbh_mtp_ptp.c ****       }
 756              		.loc 1 530 34 view .LVU255
 757 0072 42F2B012 		movw	r2, #8624
 530:./Libraries/STM32_USB_Host_Library/Class/MTP/Src/usbh_mtp_ptp.c ****       }
 758              		.loc 1 530 64 view .LVU256
 759 0076 03F57D73 		add	r3, r3, #1012
 530:./Libraries/STM32_USB_Host_Library/Class/MTP/Src/usbh_mtp_ptp.c ****       }
 760              		.loc 1 530 34 view .LVU257
 761 007a A350     		str	r3, [r4, r2]
 548:./Libraries/STM32_USB_Host_Library/Class/MTP/Src/usbh_mtp_ptp.c **** 
 762              		.loc 1 548 1 view .LVU258
 763 007c 38BD     		pop	{r3, r4, r5, pc}
 764              	.LVL69:
 765              	.L48:
 517:./Libraries/STM32_USB_Host_Library/Class/MTP/Src/usbh_mtp_ptp.c ****       break;
 766              		.loc 1 517 7 is_stmt 1 view .LVU259
 767 007e 2146     		mov	r1, r4
 548:./Libraries/STM32_USB_Host_Library/Class/MTP/Src/usbh_mtp_ptp.c **** 
 768              		.loc 1 548 1 is_stmt 0 view .LVU260
 769 0080 BDE83840 		pop	{r3, r4, r5, lr}
 770              	.LCFI4:
 771              		.cfi_restore 14
 772              		.cfi_restore 5
 773              		.cfi_restore 4
 774              		.cfi_restore 3
 775              		.cfi_def_cfa_offset 0
 776              	.LVL70:
 517:./Libraries/STM32_USB_Host_Library/Class/MTP/Src/usbh_mtp_ptp.c ****       break;
 777              		.loc 1 517 7 view .LVU261
 778 0084 FFF7FEBF 		b	PTP_DecodeDeviceInfo
 779              	.LVL71:
 517:./Libraries/STM32_USB_Host_Library/Class/MTP/Src/usbh_mtp_ptp.c ****       break;
 780              		.loc 1 517 7 view .LVU262
 781              		.cfi_endproc
 782              	.LFE342:
ARM GAS  /tmp/ccSE0mVF.s 			page 35


 784              		.section	.text.PTP_GetDevicePropValue.isra.0,"ax",%progbits
 785              		.align	1
 786              		.p2align 2,,3
 787              		.syntax unified
 788              		.thumb
 789              		.thumb_func
 790              		.fpu fpv5-d16
 792              	PTP_GetDevicePropValue.isra.0:
 793              	.LVL72:
 794              	.LFB369:
 748:./Libraries/STM32_USB_Host_Library/Class/MTP/Src/usbh_mtp_ptp.c ****                                    uint32_t *offset,
 795              		.loc 1 748 13 is_stmt 1 view -0
 796              		.cfi_startproc
 797              		@ args = 0, pretend = 0, frame = 0
 798              		@ frame_needed = 0, uses_anonymous_args = 0
 799              		@ link register save eliminated.
 755:./Libraries/STM32_USB_Host_Library/Class/MTP/Src/usbh_mtp_ptp.c **** 
 800              		.loc 1 755 3 view .LVU264
 757:./Libraries/STM32_USB_Host_Library/Class/MTP/Src/usbh_mtp_ptp.c ****   uint8_t *data = MTP_Handle->ptp.data_container.payload.data;
 801              		.loc 1 757 3 view .LVU265
 758:./Libraries/STM32_USB_Host_Library/Class/MTP/Src/usbh_mtp_ptp.c ****   uint16_t len;
 802              		.loc 1 758 3 view .LVU266
 748:./Libraries/STM32_USB_Host_Library/Class/MTP/Src/usbh_mtp_ptp.c ****                                    uint32_t *offset,
 803              		.loc 1 748 13 is_stmt 0 view .LVU267
 804 0000 2DE9F00F 		push	{r4, r5, r6, r7, r8, r9, r10, fp}
 805              	.LCFI5:
 806              		.cfi_def_cfa_offset 32
 807              		.cfi_offset 4, -32
 808              		.cfi_offset 5, -28
 809              		.cfi_offset 6, -24
 810              		.cfi_offset 7, -20
 811              		.cfi_offset 8, -16
 812              		.cfi_offset 9, -12
 813              		.cfi_offset 10, -8
 814              		.cfi_offset 11, -4
 757:./Libraries/STM32_USB_Host_Library/Class/MTP/Src/usbh_mtp_ptp.c ****   uint8_t *data = MTP_Handle->ptp.data_container.payload.data;
 815              		.loc 1 757 25 view .LVU268
 816 0004 D0F87C44 		ldr	r4, [r0, #1148]
 760:./Libraries/STM32_USB_Host_Library/Class/MTP/Src/usbh_mtp_ptp.c ****   {
 817              		.loc 1 760 3 view .LVU269
 818 0008 0A2B     		cmp	r3, #10
 758:./Libraries/STM32_USB_Host_Library/Class/MTP/Src/usbh_mtp_ptp.c ****   uint16_t len;
 819              		.loc 1 758 12 view .LVU270
 820 000a 41F69050 		movw	r0, #7568
 821              	.LVL73:
 758:./Libraries/STM32_USB_Host_Library/Class/MTP/Src/usbh_mtp_ptp.c ****   uint16_t len;
 822              		.loc 1 758 12 view .LVU271
 823 000e E469     		ldr	r4, [r4, #28]
 824 0010 2044     		add	r0, r0, r4
 825              	.LVL74:
 759:./Libraries/STM32_USB_Host_Library/Class/MTP/Src/usbh_mtp_ptp.c ****   switch (datatype)
 826              		.loc 1 759 3 is_stmt 1 view .LVU272
 760:./Libraries/STM32_USB_Host_Library/Class/MTP/Src/usbh_mtp_ptp.c ****   {
 827              		.loc 1 760 3 view .LVU273
 828 0012 0BD8     		bhi	.L51
 829 0014 33B3     		cbz	r3, .L50
 830 0016 023B     		subs	r3, r3, #2
ARM GAS  /tmp/ccSE0mVF.s 			page 36


 831              	.LVL75:
 760:./Libraries/STM32_USB_Host_Library/Class/MTP/Src/usbh_mtp_ptp.c ****   {
 832              		.loc 1 760 3 is_stmt 0 view .LVU274
 833 0018 082B     		cmp	r3, #8
 834 001a 00F28880 		bhi	.L53
 835 001e DFE803F0 		tbb	[pc, r3]
 836              	.L55:
 837 0022 2A       		.byte	(.L62-.L55)/2
 838 0023 31       		.byte	(.L61-.L55)/2
 839 0024 38       		.byte	(.L60-.L55)/2
 840 0025 43       		.byte	(.L59-.L55)/2
 841 0026 4A       		.byte	(.L58-.L55)/2
 842 0027 5B       		.byte	(.L57-.L55)/2
 843 0028 65       		.byte	(.L56-.L55)/2
 844 0029 24       		.byte	(.L54-.L55)/2
 845 002a 24       		.byte	(.L54-.L55)/2
 846              	.LVL76:
 847 002b 00       		.p2align 1
 848              	.L51:
 760:./Libraries/STM32_USB_Host_Library/Class/MTP/Src/usbh_mtp_ptp.c ****   {
 849              		.loc 1 760 3 view .LVU275
 850 002c 4FF6FF74 		movw	r4, #65535
 851 0030 A342     		cmp	r3, r4
 852 0032 17D1     		bne	.L50
 804:./Libraries/STM32_USB_Host_Library/Class/MTP/Src/usbh_mtp_ptp.c ****       *offset += len * 2U + 1U;
 853              		.loc 1 804 7 is_stmt 1 view .LVU276
 854 0034 0C68     		ldr	r4, [r1]
 804:./Libraries/STM32_USB_Host_Library/Class/MTP/Src/usbh_mtp_ptp.c ****       *offset += len * 2U + 1U;
 855              		.loc 1 804 40 is_stmt 0 view .LVU277
 856 0036 1346     		mov	r3, r2
 857              	.LVL77:
 858              	.LBB66:
 859              	.LBB67:
 881:./Libraries/STM32_USB_Host_Library/Class/MTP/Src/usbh_mtp_ptp.c ****   strlength = (uint16_t)(2U * (uint32_t)data[0]);
 860              		.loc 1 881 14 view .LVU278
 861 0038 055D     		ldrb	r5, [r0, r4]	@ zero_extendqisi2
 862              	.LBE67:
 863              	.LBE66:
 804:./Libraries/STM32_USB_Host_Library/Class/MTP/Src/usbh_mtp_ptp.c ****       *offset += len * 2U + 1U;
 864              		.loc 1 804 7 view .LVU279
 865 003a 2044     		add	r0, r0, r4
 866              	.LVL78:
 867              	.LBB69:
 868              	.LBI66:
 876:./Libraries/STM32_USB_Host_Library/Class/MTP/Src/usbh_mtp_ptp.c **** {
 869              		.loc 1 876 13 is_stmt 1 view .LVU280
 870              	.LBB68:
 878:./Libraries/STM32_USB_Host_Library/Class/MTP/Src/usbh_mtp_ptp.c ****   uint16_t idx;
 871              		.loc 1 878 3 view .LVU281
 879:./Libraries/STM32_USB_Host_Library/Class/MTP/Src/usbh_mtp_ptp.c **** 
 872              		.loc 1 879 3 view .LVU282
 881:./Libraries/STM32_USB_Host_Library/Class/MTP/Src/usbh_mtp_ptp.c ****   strlength = (uint16_t)(2U * (uint32_t)data[0]);
 873              		.loc 1 881 3 view .LVU283
 882:./Libraries/STM32_USB_Host_Library/Class/MTP/Src/usbh_mtp_ptp.c ****   data ++; /* Adjust the offset ignoring the String Len */
 874              		.loc 1 882 3 view .LVU284
 883:./Libraries/STM32_USB_Host_Library/Class/MTP/Src/usbh_mtp_ptp.c **** 
 875              		.loc 1 883 3 view .LVU285
ARM GAS  /tmp/ccSE0mVF.s 			page 37


 885:./Libraries/STM32_USB_Host_Library/Class/MTP/Src/usbh_mtp_ptp.c ****   {
 876              		.loc 1 885 3 view .LVU286
 885:./Libraries/STM32_USB_Host_Library/Class/MTP/Src/usbh_mtp_ptp.c ****   {
 877              		.loc 1 885 18 view .LVU287
 885:./Libraries/STM32_USB_Host_Library/Class/MTP/Src/usbh_mtp_ptp.c ****   {
 878              		.loc 1 885 3 is_stmt 0 view .LVU288
 879 003c 6C00     		lsls	r4, r5, #1
 880 003e 55B1     		cbz	r5, .L64
 881              	.LVL79:
 885:./Libraries/STM32_USB_Host_Library/Class/MTP/Src/usbh_mtp_ptp.c ****   {
 882              		.loc 1 885 3 view .LVU289
 883 0040 013C     		subs	r4, r4, #1
 884 0042 C4F34E04 		ubfx	r4, r4, #1, #15
 885 0046 0134     		adds	r4, r4, #1
 886 0048 2244     		add	r2, r2, r4
 887              	.LVL80:
 888              	.L65:
 888:./Libraries/STM32_USB_Host_Library/Class/MTP/Src/usbh_mtp_ptp.c ****     str++;
 889              		.loc 1 888 5 is_stmt 1 view .LVU290
 888:./Libraries/STM32_USB_Host_Library/Class/MTP/Src/usbh_mtp_ptp.c ****     str++;
 890              		.loc 1 888 16 is_stmt 0 view .LVU291
 891 004a 4478     		ldrb	r4, [r0, #1]	@ zero_extendqisi2
 892 004c 0230     		adds	r0, r0, #2
 888:./Libraries/STM32_USB_Host_Library/Class/MTP/Src/usbh_mtp_ptp.c ****     str++;
 893              		.loc 1 888 10 view .LVU292
 894 004e 03F8014B 		strb	r4, [r3], #1
 895              	.LVL81:
 889:./Libraries/STM32_USB_Host_Library/Class/MTP/Src/usbh_mtp_ptp.c ****   }
 896              		.loc 1 889 5 is_stmt 1 view .LVU293
 885:./Libraries/STM32_USB_Host_Library/Class/MTP/Src/usbh_mtp_ptp.c ****   {
 897              		.loc 1 885 35 view .LVU294
 885:./Libraries/STM32_USB_Host_Library/Class/MTP/Src/usbh_mtp_ptp.c ****   {
 898              		.loc 1 885 18 view .LVU295
 885:./Libraries/STM32_USB_Host_Library/Class/MTP/Src/usbh_mtp_ptp.c ****   {
 899              		.loc 1 885 3 is_stmt 0 view .LVU296
 900 0052 9342     		cmp	r3, r2
 901 0054 F9D1     		bne	.L65
 902              	.L64:
 891:./Libraries/STM32_USB_Host_Library/Class/MTP/Src/usbh_mtp_ptp.c **** }
 903              		.loc 1 891 3 is_stmt 1 view .LVU297
 891:./Libraries/STM32_USB_Host_Library/Class/MTP/Src/usbh_mtp_ptp.c **** }
 904              		.loc 1 891 8 is_stmt 0 view .LVU298
 905 0056 0022     		movs	r2, #0
 906 0058 1A70     		strb	r2, [r3]
 907              	.LVL82:
 891:./Libraries/STM32_USB_Host_Library/Class/MTP/Src/usbh_mtp_ptp.c **** }
 908              		.loc 1 891 8 view .LVU299
 909              	.LBE68:
 910              	.LBE69:
 805:./Libraries/STM32_USB_Host_Library/Class/MTP/Src/usbh_mtp_ptp.c ****       break;
 911              		.loc 1 805 7 is_stmt 1 view .LVU300
 805:./Libraries/STM32_USB_Host_Library/Class/MTP/Src/usbh_mtp_ptp.c ****       break;
 912              		.loc 1 805 15 is_stmt 0 view .LVU301
 913 005a 0B68     		ldr	r3, [r1]
 914 005c 0133     		adds	r3, r3, #1
 915 005e 03EB4505 		add	r5, r3, r5, lsl #1
 916              	.LVL83:
ARM GAS  /tmp/ccSE0mVF.s 			page 38


 805:./Libraries/STM32_USB_Host_Library/Class/MTP/Src/usbh_mtp_ptp.c ****       break;
 917              		.loc 1 805 15 view .LVU302
 918 0062 0D60     		str	r5, [r1]
 806:./Libraries/STM32_USB_Host_Library/Class/MTP/Src/usbh_mtp_ptp.c ****     default:
 919              		.loc 1 806 7 is_stmt 1 view .LVU303
 920              	.L50:
 810:./Libraries/STM32_USB_Host_Library/Class/MTP/Src/usbh_mtp_ptp.c **** 
 921              		.loc 1 810 1 is_stmt 0 view .LVU304
 922 0064 BDE8F00F 		pop	{r4, r5, r6, r7, r8, r9, r10, fp}
 923              	.LCFI6:
 924              		.cfi_remember_state
 925              		.cfi_restore 11
 926              		.cfi_restore 10
 927              		.cfi_restore 9
 928              		.cfi_restore 8
 929              		.cfi_restore 7
 930              		.cfi_restore 6
 931              		.cfi_restore 5
 932              		.cfi_restore 4
 933              		.cfi_def_cfa_offset 0
 934 0068 7047     		bx	lr
 935              	.LVL84:
 936              	.L54:
 937              	.LCFI7:
 938              		.cfi_restore_state
 796:./Libraries/STM32_USB_Host_Library/Class/MTP/Src/usbh_mtp_ptp.c ****       break;
 939              		.loc 1 796 7 is_stmt 1 view .LVU305
 796:./Libraries/STM32_USB_Host_Library/Class/MTP/Src/usbh_mtp_ptp.c ****       break;
 940              		.loc 1 796 15 is_stmt 0 view .LVU306
 941 006a 0B68     		ldr	r3, [r1]
 942 006c 1033     		adds	r3, r3, #16
 810:./Libraries/STM32_USB_Host_Library/Class/MTP/Src/usbh_mtp_ptp.c **** 
 943              		.loc 1 810 1 view .LVU307
 944 006e BDE8F00F 		pop	{r4, r5, r6, r7, r8, r9, r10, fp}
 945              	.LCFI8:
 946              		.cfi_remember_state
 947              		.cfi_restore 11
 948              		.cfi_restore 10
 949              		.cfi_restore 9
 950              		.cfi_restore 8
 951              		.cfi_restore 7
 952              		.cfi_restore 6
 953              		.cfi_restore 5
 954              		.cfi_restore 4
 955              		.cfi_def_cfa_offset 0
 796:./Libraries/STM32_USB_Host_Library/Class/MTP/Src/usbh_mtp_ptp.c ****       break;
 956              		.loc 1 796 15 view .LVU308
 957 0072 0B60     		str	r3, [r1]
 797:./Libraries/STM32_USB_Host_Library/Class/MTP/Src/usbh_mtp_ptp.c ****     case PTP_DTC_INT128:
 958              		.loc 1 797 7 is_stmt 1 view .LVU309
 810:./Libraries/STM32_USB_Host_Library/Class/MTP/Src/usbh_mtp_ptp.c **** 
 959              		.loc 1 810 1 is_stmt 0 view .LVU310
 960 0074 7047     		bx	lr
 961              	.L62:
 962              	.LCFI9:
 963              		.cfi_restore_state
 767:./Libraries/STM32_USB_Host_Library/Class/MTP/Src/usbh_mtp_ptp.c ****       *offset += 1U;
ARM GAS  /tmp/ccSE0mVF.s 			page 39


 964              		.loc 1 767 7 is_stmt 1 view .LVU311
 767:./Libraries/STM32_USB_Host_Library/Class/MTP/Src/usbh_mtp_ptp.c ****       *offset += 1U;
 965              		.loc 1 767 19 is_stmt 0 view .LVU312
 966 0076 0B68     		ldr	r3, [r1]
 967 0078 C35C     		ldrb	r3, [r0, r3]	@ zero_extendqisi2
 767:./Libraries/STM32_USB_Host_Library/Class/MTP/Src/usbh_mtp_ptp.c ****       *offset += 1U;
 968              		.loc 1 767 17 view .LVU313
 969 007a 1370     		strb	r3, [r2]
 970              	.LVL85:
 768:./Libraries/STM32_USB_Host_Library/Class/MTP/Src/usbh_mtp_ptp.c ****       break;
 971              		.loc 1 768 7 is_stmt 1 view .LVU314
 768:./Libraries/STM32_USB_Host_Library/Class/MTP/Src/usbh_mtp_ptp.c ****       break;
 972              		.loc 1 768 15 is_stmt 0 view .LVU315
 973 007c 0B68     		ldr	r3, [r1]
 974 007e 0133     		adds	r3, r3, #1
 975 0080 0B60     		str	r3, [r1]
 769:./Libraries/STM32_USB_Host_Library/Class/MTP/Src/usbh_mtp_ptp.c ****     case PTP_DTC_INT16:
 976              		.loc 1 769 7 is_stmt 1 view .LVU316
 977 0082 EFE7     		b	.L50
 978              	.LVL86:
 979              	.L61:
 771:./Libraries/STM32_USB_Host_Library/Class/MTP/Src/usbh_mtp_ptp.c ****       *offset += 2U;
 980              		.loc 1 771 7 view .LVU317
 771:./Libraries/STM32_USB_Host_Library/Class/MTP/Src/usbh_mtp_ptp.c ****       *offset += 2U;
 981              		.loc 1 771 20 is_stmt 0 view .LVU318
 982 0084 0B68     		ldr	r3, [r1]
 983 0086 C35E     		ldrsh	r3, [r0, r3]
 771:./Libraries/STM32_USB_Host_Library/Class/MTP/Src/usbh_mtp_ptp.c ****       *offset += 2U;
 984              		.loc 1 771 18 view .LVU319
 985 0088 1380     		strh	r3, [r2]	@ movhi
 986              	.LVL87:
 772:./Libraries/STM32_USB_Host_Library/Class/MTP/Src/usbh_mtp_ptp.c ****       break;
 987              		.loc 1 772 7 is_stmt 1 view .LVU320
 772:./Libraries/STM32_USB_Host_Library/Class/MTP/Src/usbh_mtp_ptp.c ****       break;
 988              		.loc 1 772 15 is_stmt 0 view .LVU321
 989 008a 0B68     		ldr	r3, [r1]
 990 008c 0233     		adds	r3, r3, #2
 991 008e 0B60     		str	r3, [r1]
 773:./Libraries/STM32_USB_Host_Library/Class/MTP/Src/usbh_mtp_ptp.c ****     case PTP_DTC_UINT16:
 992              		.loc 1 773 7 is_stmt 1 view .LVU322
 993 0090 E8E7     		b	.L50
 994              	.LVL88:
 995              	.L60:
 775:./Libraries/STM32_USB_Host_Library/Class/MTP/Src/usbh_mtp_ptp.c ****       *offset += 2U;
 996              		.loc 1 775 7 view .LVU323
 775:./Libraries/STM32_USB_Host_Library/Class/MTP/Src/usbh_mtp_ptp.c ****       *offset += 2U;
 997              		.loc 1 775 20 is_stmt 0 view .LVU324
 998 0092 0B68     		ldr	r3, [r1]
 999 0094 C418     		adds	r4, r0, r3
 1000 0096 C35C     		ldrb	r3, [r0, r3]	@ zero_extendqisi2
 1001 0098 6078     		ldrb	r0, [r4, #1]	@ zero_extendqisi2
 1002              	.LVL89:
 775:./Libraries/STM32_USB_Host_Library/Class/MTP/Src/usbh_mtp_ptp.c ****       *offset += 2U;
 1003              		.loc 1 775 20 view .LVU325
 1004 009a 43EA0023 		orr	r3, r3, r0, lsl #8
 775:./Libraries/STM32_USB_Host_Library/Class/MTP/Src/usbh_mtp_ptp.c ****       *offset += 2U;
 1005              		.loc 1 775 18 view .LVU326
ARM GAS  /tmp/ccSE0mVF.s 			page 40


 1006 009e 1380     		strh	r3, [r2]	@ movhi
 1007              	.LVL90:
 776:./Libraries/STM32_USB_Host_Library/Class/MTP/Src/usbh_mtp_ptp.c ****       break;
 1008              		.loc 1 776 7 is_stmt 1 view .LVU327
 776:./Libraries/STM32_USB_Host_Library/Class/MTP/Src/usbh_mtp_ptp.c ****       break;
 1009              		.loc 1 776 15 is_stmt 0 view .LVU328
 1010 00a0 0B68     		ldr	r3, [r1]
 1011 00a2 0233     		adds	r3, r3, #2
 1012 00a4 0B60     		str	r3, [r1]
 777:./Libraries/STM32_USB_Host_Library/Class/MTP/Src/usbh_mtp_ptp.c ****     case PTP_DTC_INT32:
 1013              		.loc 1 777 7 is_stmt 1 view .LVU329
 1014 00a6 DDE7     		b	.L50
 1015              	.LVL91:
 1016              	.L59:
 779:./Libraries/STM32_USB_Host_Library/Class/MTP/Src/usbh_mtp_ptp.c ****       *offset += 4U;
 1017              		.loc 1 779 7 view .LVU330
 779:./Libraries/STM32_USB_Host_Library/Class/MTP/Src/usbh_mtp_ptp.c ****       *offset += 4U;
 1018              		.loc 1 779 20 is_stmt 0 view .LVU331
 1019 00a8 0B68     		ldr	r3, [r1]
 1020 00aa C358     		ldr	r3, [r0, r3]
 779:./Libraries/STM32_USB_Host_Library/Class/MTP/Src/usbh_mtp_ptp.c ****       *offset += 4U;
 1021              		.loc 1 779 18 view .LVU332
 1022 00ac 1360     		str	r3, [r2]
 1023              	.LVL92:
 780:./Libraries/STM32_USB_Host_Library/Class/MTP/Src/usbh_mtp_ptp.c ****       break;
 1024              		.loc 1 780 7 is_stmt 1 view .LVU333
 780:./Libraries/STM32_USB_Host_Library/Class/MTP/Src/usbh_mtp_ptp.c ****       break;
 1025              		.loc 1 780 15 is_stmt 0 view .LVU334
 1026 00ae 0B68     		ldr	r3, [r1]
 1027 00b0 0433     		adds	r3, r3, #4
 1028 00b2 0B60     		str	r3, [r1]
 781:./Libraries/STM32_USB_Host_Library/Class/MTP/Src/usbh_mtp_ptp.c ****     case PTP_DTC_UINT32:
 1029              		.loc 1 781 7 is_stmt 1 view .LVU335
 1030 00b4 D6E7     		b	.L50
 1031              	.LVL93:
 1032              	.L58:
 783:./Libraries/STM32_USB_Host_Library/Class/MTP/Src/usbh_mtp_ptp.c ****       *offset += 4U;
 1033              		.loc 1 783 7 view .LVU336
 783:./Libraries/STM32_USB_Host_Library/Class/MTP/Src/usbh_mtp_ptp.c ****       *offset += 4U;
 1034              		.loc 1 783 20 is_stmt 0 view .LVU337
 1035 00b6 0B68     		ldr	r3, [r1]
 1036 00b8 C418     		adds	r4, r0, r3
 1037 00ba C55C     		ldrb	r5, [r0, r3]	@ zero_extendqisi2
 1038 00bc A378     		ldrb	r3, [r4, #2]	@ zero_extendqisi2
 1039 00be 6678     		ldrb	r6, [r4, #1]	@ zero_extendqisi2
 1040 00c0 1B04     		lsls	r3, r3, #16
 1041 00c2 E078     		ldrb	r0, [r4, #3]	@ zero_extendqisi2
 1042              	.LVL94:
 783:./Libraries/STM32_USB_Host_Library/Class/MTP/Src/usbh_mtp_ptp.c ****       *offset += 4U;
 1043              		.loc 1 783 20 view .LVU338
 1044 00c4 43EA0623 		orr	r3, r3, r6, lsl #8
 1045 00c8 2B43     		orrs	r3, r3, r5
 1046 00ca 43EA0063 		orr	r3, r3, r0, lsl #24
 783:./Libraries/STM32_USB_Host_Library/Class/MTP/Src/usbh_mtp_ptp.c ****       *offset += 4U;
 1047              		.loc 1 783 18 view .LVU339
 1048 00ce 1360     		str	r3, [r2]
 1049              	.LVL95:
ARM GAS  /tmp/ccSE0mVF.s 			page 41


 784:./Libraries/STM32_USB_Host_Library/Class/MTP/Src/usbh_mtp_ptp.c ****       break;
 1050              		.loc 1 784 7 is_stmt 1 view .LVU340
 784:./Libraries/STM32_USB_Host_Library/Class/MTP/Src/usbh_mtp_ptp.c ****       break;
 1051              		.loc 1 784 15 is_stmt 0 view .LVU341
 1052 00d0 0B68     		ldr	r3, [r1]
 1053 00d2 0433     		adds	r3, r3, #4
 1054 00d4 0B60     		str	r3, [r1]
 785:./Libraries/STM32_USB_Host_Library/Class/MTP/Src/usbh_mtp_ptp.c ****     case PTP_DTC_INT64:
 1055              		.loc 1 785 7 is_stmt 1 view .LVU342
 1056 00d6 C5E7     		b	.L50
 1057              	.LVL96:
 1058              	.L57:
 787:./Libraries/STM32_USB_Host_Library/Class/MTP/Src/usbh_mtp_ptp.c ****       *offset += 8U;
 1059              		.loc 1 787 7 view .LVU343
 787:./Libraries/STM32_USB_Host_Library/Class/MTP/Src/usbh_mtp_ptp.c ****       *offset += 8U;
 1060              		.loc 1 787 20 is_stmt 0 view .LVU344
 1061 00d8 0B68     		ldr	r3, [r1]
 1062 00da 1844     		add	r0, r0, r3
 1063              	.LVL97:
 787:./Libraries/STM32_USB_Host_Library/Class/MTP/Src/usbh_mtp_ptp.c ****       *offset += 8U;
 1064              		.loc 1 787 20 view .LVU345
 1065 00dc D0E90045 		ldrd	r4, [r0]
 787:./Libraries/STM32_USB_Host_Library/Class/MTP/Src/usbh_mtp_ptp.c ****       *offset += 8U;
 1066              		.loc 1 787 18 view .LVU346
 1067 00e0 C2E90045 		strd	r4, [r2]
 788:./Libraries/STM32_USB_Host_Library/Class/MTP/Src/usbh_mtp_ptp.c ****       break;
 1068              		.loc 1 788 7 is_stmt 1 view .LVU347
 788:./Libraries/STM32_USB_Host_Library/Class/MTP/Src/usbh_mtp_ptp.c ****       break;
 1069              		.loc 1 788 15 is_stmt 0 view .LVU348
 1070 00e4 0B68     		ldr	r3, [r1]
 1071 00e6 0833     		adds	r3, r3, #8
 1072 00e8 0B60     		str	r3, [r1]
 789:./Libraries/STM32_USB_Host_Library/Class/MTP/Src/usbh_mtp_ptp.c ****     case PTP_DTC_UINT64:
 1073              		.loc 1 789 7 is_stmt 1 view .LVU349
 1074 00ea BBE7     		b	.L50
 1075              	.LVL98:
 1076              	.L56:
 791:./Libraries/STM32_USB_Host_Library/Class/MTP/Src/usbh_mtp_ptp.c ****       *offset += 8U;
 1077              		.loc 1 791 7 view .LVU350
 791:./Libraries/STM32_USB_Host_Library/Class/MTP/Src/usbh_mtp_ptp.c ****       *offset += 8U;
 1078              		.loc 1 791 20 is_stmt 0 view .LVU351
 1079 00ec 0B68     		ldr	r3, [r1]
 1080 00ee C618     		adds	r6, r0, r3
 1081 00f0 10F80380 		ldrb	r8, [r0, r3]	@ zero_extendqisi2
 1082 00f4 B478     		ldrb	r4, [r6, #2]	@ zero_extendqisi2
 1083 00f6 96F801A0 		ldrb	r10, [r6, #1]	@ zero_extendqisi2
 1084 00fa 3079     		ldrb	r0, [r6, #4]	@ zero_extendqisi2
 1085              	.LVL99:
 791:./Libraries/STM32_USB_Host_Library/Class/MTP/Src/usbh_mtp_ptp.c ****       *offset += 8U;
 1086              		.loc 1 791 20 view .LVU352
 1087 00fc 2304     		lsls	r3, r4, #16
 1088 00fe 7479     		ldrb	r4, [r6, #5]	@ zero_extendqisi2
 1089 0100 43EA0A23 		orr	r3, r3, r10, lsl #8
 1090 0104 96F806A0 		ldrb	r10, [r6, #6]	@ zero_extendqisi2
 1091 0108 40EA0424 		orr	r4, r0, r4, lsl #8
 1092 010c 43EA0803 		orr	r3, r3, r8
 1093 0110 96F80380 		ldrb	r8, [r6, #3]	@ zero_extendqisi2
ARM GAS  /tmp/ccSE0mVF.s 			page 42


 1094 0114 44EA0A44 		orr	r4, r4, r10, lsl #16
 1095 0118 F679     		ldrb	r6, [r6, #7]	@ zero_extendqisi2
 1096 011a 43EA0863 		orr	r3, r3, r8, lsl #24
 1097 011e 44EA0664 		orr	r4, r4, r6, lsl #24
 791:./Libraries/STM32_USB_Host_Library/Class/MTP/Src/usbh_mtp_ptp.c ****       *offset += 8U;
 1098              		.loc 1 791 18 view .LVU353
 1099 0122 C2E90034 		strd	r3, r4, [r2]
 792:./Libraries/STM32_USB_Host_Library/Class/MTP/Src/usbh_mtp_ptp.c ****       break;
 1100              		.loc 1 792 7 is_stmt 1 view .LVU354
 792:./Libraries/STM32_USB_Host_Library/Class/MTP/Src/usbh_mtp_ptp.c ****       break;
 1101              		.loc 1 792 15 is_stmt 0 view .LVU355
 1102 0126 0B68     		ldr	r3, [r1]
 1103 0128 0833     		adds	r3, r3, #8
 1104 012a 0B60     		str	r3, [r1]
 793:./Libraries/STM32_USB_Host_Library/Class/MTP/Src/usbh_mtp_ptp.c **** 
 1105              		.loc 1 793 7 is_stmt 1 view .LVU356
 1106 012c 9AE7     		b	.L50
 1107              	.LVL100:
 1108              	.L53:
 763:./Libraries/STM32_USB_Host_Library/Class/MTP/Src/usbh_mtp_ptp.c ****       *offset += 1U;
 1109              		.loc 1 763 7 view .LVU357
 763:./Libraries/STM32_USB_Host_Library/Class/MTP/Src/usbh_mtp_ptp.c ****       *offset += 1U;
 1110              		.loc 1 763 19 is_stmt 0 view .LVU358
 1111 012e 0B68     		ldr	r3, [r1]
 1112 0130 C356     		ldrsb	r3, [r0, r3]
 763:./Libraries/STM32_USB_Host_Library/Class/MTP/Src/usbh_mtp_ptp.c ****       *offset += 1U;
 1113              		.loc 1 763 17 view .LVU359
 1114 0132 1370     		strb	r3, [r2]
 1115              	.LVL101:
 764:./Libraries/STM32_USB_Host_Library/Class/MTP/Src/usbh_mtp_ptp.c ****       break;
 1116              		.loc 1 764 7 is_stmt 1 view .LVU360
 764:./Libraries/STM32_USB_Host_Library/Class/MTP/Src/usbh_mtp_ptp.c ****       break;
 1117              		.loc 1 764 15 is_stmt 0 view .LVU361
 1118 0134 0B68     		ldr	r3, [r1]
 1119 0136 0133     		adds	r3, r3, #1
 1120 0138 0B60     		str	r3, [r1]
 765:./Libraries/STM32_USB_Host_Library/Class/MTP/Src/usbh_mtp_ptp.c ****     case PTP_DTC_UINT8:
 1121              		.loc 1 765 7 is_stmt 1 view .LVU362
 1122 013a 93E7     		b	.L50
 1123              		.cfi_endproc
 1124              	.LFE369:
 1126              		.section	.text.PTP_GetArray32.constprop.0,"ax",%progbits
 1127              		.align	1
 1128              		.p2align 2,,3
 1129              		.syntax unified
 1130              		.thumb
 1131              		.thumb_func
 1132              		.fpu fpv5-d16
 1134              	PTP_GetArray32.constprop.0:
 1135              	.LVL102:
 1136              	.LFB371:
 914:./Libraries/STM32_USB_Host_Library/Class/MTP/Src/usbh_mtp_ptp.c **** 
 915:./Libraries/STM32_USB_Host_Library/Class/MTP/Src/usbh_mtp_ptp.c **** /**
 916:./Libraries/STM32_USB_Host_Library/Class/MTP/Src/usbh_mtp_ptp.c ****   * @brief  PTP_GetString
 917:./Libraries/STM32_USB_Host_Library/Class/MTP/Src/usbh_mtp_ptp.c ****   *         Gets SCII String from.
 918:./Libraries/STM32_USB_Host_Library/Class/MTP/Src/usbh_mtp_ptp.c ****   * @param  str: ascii string
 919:./Libraries/STM32_USB_Host_Library/Class/MTP/Src/usbh_mtp_ptp.c ****   * @param  data: Device info structure
ARM GAS  /tmp/ccSE0mVF.s 			page 43


 920:./Libraries/STM32_USB_Host_Library/Class/MTP/Src/usbh_mtp_ptp.c ****   * @retval None
 921:./Libraries/STM32_USB_Host_Library/Class/MTP/Src/usbh_mtp_ptp.c ****   */
 922:./Libraries/STM32_USB_Host_Library/Class/MTP/Src/usbh_mtp_ptp.c **** 
 923:./Libraries/STM32_USB_Host_Library/Class/MTP/Src/usbh_mtp_ptp.c **** static uint32_t PTP_GetArray32(uint32_t *array, uint8_t *data, uint32_t offset)
 1137              		.loc 1 923 17 view -0
 1138              		.cfi_startproc
 1139              		@ args = 0, pretend = 0, frame = 0
 1140              		@ frame_needed = 0, uses_anonymous_args = 0
 1141              		@ link register save eliminated.
 924:./Libraries/STM32_USB_Host_Library/Class/MTP/Src/usbh_mtp_ptp.c **** {
 925:./Libraries/STM32_USB_Host_Library/Class/MTP/Src/usbh_mtp_ptp.c ****   uint32_t size, idx = 0U;
 1142              		.loc 1 925 3 view .LVU364
 926:./Libraries/STM32_USB_Host_Library/Class/MTP/Src/usbh_mtp_ptp.c **** 
 927:./Libraries/STM32_USB_Host_Library/Class/MTP/Src/usbh_mtp_ptp.c ****   size = LE32(&data[offset]);
 1143              		.loc 1 927 3 view .LVU365
 923:./Libraries/STM32_USB_Host_Library/Class/MTP/Src/usbh_mtp_ptp.c **** {
 1144              		.loc 1 923 17 is_stmt 0 view .LVU366
 1145 0000 0246     		mov	r2, r0
 1146              		.loc 1 927 8 view .LVU367
 1147 0002 0868     		ldr	r0, [r1]	@ unaligned
 1148              	.LVL103:
 928:./Libraries/STM32_USB_Host_Library/Class/MTP/Src/usbh_mtp_ptp.c ****   while (size > idx)
 1149              		.loc 1 928 3 is_stmt 1 view .LVU368
 1150              		.loc 1 928 9 view .LVU369
 1151 0004 A8B1     		cbz	r0, .L82
 1152 0006 043A     		subs	r2, r2, #4
 1153              	.LVL104:
 923:./Libraries/STM32_USB_Host_Library/Class/MTP/Src/usbh_mtp_ptp.c **** {
 1154              		.loc 1 923 17 is_stmt 0 view .LVU370
 1155 0008 F0B4     		push	{r4, r5, r6, r7}
 1156              	.LCFI10:
 1157              		.cfi_def_cfa_offset 16
 1158              		.cfi_offset 4, -16
 1159              		.cfi_offset 5, -12
 1160              		.cfi_offset 6, -8
 1161              		.cfi_offset 7, -4
 1162 000a 01EB8007 		add	r7, r1, r0, lsl #2
 1163              	.LVL105:
 1164              	.L76:
 929:./Libraries/STM32_USB_Host_Library/Class/MTP/Src/usbh_mtp_ptp.c ****   {
 930:./Libraries/STM32_USB_Host_Library/Class/MTP/Src/usbh_mtp_ptp.c ****     array[idx] = LE32(&data[offset + (sizeof(uint32_t) * (idx + 1U))]);
 1165              		.loc 1 930 5 is_stmt 1 view .LVU371
 1166              		.loc 1 930 18 is_stmt 0 view .LVU372
 1167 000e 8B79     		ldrb	r3, [r1, #6]	@ zero_extendqisi2
 1168 0010 0431     		adds	r1, r1, #4
 1169 0012 4E78     		ldrb	r6, [r1, #1]	@ zero_extendqisi2
 1170 0014 1B04     		lsls	r3, r3, #16
 1171 0016 0D78     		ldrb	r5, [r1]	@ zero_extendqisi2
 1172 0018 CC78     		ldrb	r4, [r1, #3]	@ zero_extendqisi2
 928:./Libraries/STM32_USB_Host_Library/Class/MTP/Src/usbh_mtp_ptp.c ****   while (size > idx)
 1173              		.loc 1 928 9 view .LVU373
 1174 001a B942     		cmp	r1, r7
 1175              		.loc 1 930 18 view .LVU374
 1176 001c 43EA0623 		orr	r3, r3, r6, lsl #8
 1177 0020 43EA0503 		orr	r3, r3, r5
 1178 0024 43EA0463 		orr	r3, r3, r4, lsl #24
 1179              		.loc 1 930 16 view .LVU375
ARM GAS  /tmp/ccSE0mVF.s 			page 44


 1180 0028 42F8043F 		str	r3, [r2, #4]!
 931:./Libraries/STM32_USB_Host_Library/Class/MTP/Src/usbh_mtp_ptp.c ****     idx++;
 1181              		.loc 1 931 5 is_stmt 1 view .LVU376
 928:./Libraries/STM32_USB_Host_Library/Class/MTP/Src/usbh_mtp_ptp.c ****   while (size > idx)
 1182              		.loc 1 928 9 view .LVU377
 1183 002c EFD1     		bne	.L76
 932:./Libraries/STM32_USB_Host_Library/Class/MTP/Src/usbh_mtp_ptp.c ****   }
 933:./Libraries/STM32_USB_Host_Library/Class/MTP/Src/usbh_mtp_ptp.c ****   return size;
 934:./Libraries/STM32_USB_Host_Library/Class/MTP/Src/usbh_mtp_ptp.c **** }
 1184              		.loc 1 934 1 is_stmt 0 view .LVU378
 1185 002e F0BC     		pop	{r4, r5, r6, r7}
 1186              	.LCFI11:
 1187              		.cfi_restore 7
 1188              		.cfi_restore 6
 1189              		.cfi_restore 5
 1190              		.cfi_restore 4
 1191              		.cfi_def_cfa_offset 0
 1192 0030 7047     		bx	lr
 1193              	.LVL106:
 1194              	.L82:
 1195              		.loc 1 934 1 view .LVU379
 1196 0032 7047     		bx	lr
 1197              		.cfi_endproc
 1198              	.LFE371:
 1200              		.section	.text.USBH_PTP_Init,"ax",%progbits
 1201              		.align	1
 1202              		.p2align 2,,3
 1203              		.global	USBH_PTP_Init
 1204              		.syntax unified
 1205              		.thumb
 1206              		.thumb_func
 1207              		.fpu fpv5-d16
 1209              	USBH_PTP_Init:
 1210              	.LVL107:
 1211              	.LFB338:
 126:./Libraries/STM32_USB_Host_Library/Class/MTP/Src/usbh_mtp_ptp.c ****   MTP_HandleTypeDef *MTP_Handle = (MTP_HandleTypeDef *)phost->pActiveClass->pData;
 1212              		.loc 1 126 1 is_stmt 1 view -0
 1213              		.cfi_startproc
 1214              		@ args = 0, pretend = 0, frame = 0
 1215              		@ frame_needed = 0, uses_anonymous_args = 0
 1216              		@ link register save eliminated.
 127:./Libraries/STM32_USB_Host_Library/Class/MTP/Src/usbh_mtp_ptp.c **** 
 1217              		.loc 1 127 3 view .LVU381
 126:./Libraries/STM32_USB_Host_Library/Class/MTP/Src/usbh_mtp_ptp.c ****   MTP_HandleTypeDef *MTP_Handle = (MTP_HandleTypeDef *)phost->pActiveClass->pData;
 1218              		.loc 1 126 1 is_stmt 0 view .LVU382
 1219 0000 0346     		mov	r3, r0
 130:./Libraries/STM32_USB_Host_Library/Class/MTP/Src/usbh_mtp_ptp.c ****   MTP_Handle->ptp.req_state = PTP_REQ_SEND;
 1220              		.loc 1 130 25 view .LVU383
 1221 0002 4FF48072 		mov	r2, #256
 134:./Libraries/STM32_USB_Host_Library/Class/MTP/Src/usbh_mtp_ptp.c **** 
 1222              		.loc 1 134 1 view .LVU384
 1223 0006 0020     		movs	r0, #0
 1224              	.LVL108:
 127:./Libraries/STM32_USB_Host_Library/Class/MTP/Src/usbh_mtp_ptp.c **** 
 1225              		.loc 1 127 22 view .LVU385
 1226 0008 D3F87C34 		ldr	r3, [r3, #1148]
 1227              	.LVL109:
ARM GAS  /tmp/ccSE0mVF.s 			page 45


 127:./Libraries/STM32_USB_Host_Library/Class/MTP/Src/usbh_mtp_ptp.c **** 
 1228              		.loc 1 127 22 view .LVU386
 1229 000c DB69     		ldr	r3, [r3, #28]
 1230              	.LVL110:
 130:./Libraries/STM32_USB_Host_Library/Class/MTP/Src/usbh_mtp_ptp.c ****   MTP_Handle->ptp.req_state = PTP_REQ_SEND;
 1231              		.loc 1 130 3 is_stmt 1 view .LVU387
 131:./Libraries/STM32_USB_Host_Library/Class/MTP/Src/usbh_mtp_ptp.c **** 
 1232              		.loc 1 131 3 view .LVU388
 130:./Libraries/STM32_USB_Host_Library/Class/MTP/Src/usbh_mtp_ptp.c ****   MTP_Handle->ptp.req_state = PTP_REQ_SEND;
 1233              		.loc 1 130 25 is_stmt 0 view .LVU389
 1234 000e 03F5EB53 		add	r3, r3, #7520
 1235              	.LVL111:
 130:./Libraries/STM32_USB_Host_Library/Class/MTP/Src/usbh_mtp_ptp.c ****   MTP_Handle->ptp.req_state = PTP_REQ_SEND;
 1236              		.loc 1 130 25 view .LVU390
 1237 0012 1A80     		strh	r2, [r3]	@ movhi
 133:./Libraries/STM32_USB_Host_Library/Class/MTP/Src/usbh_mtp_ptp.c **** }
 1238              		.loc 1 133 3 is_stmt 1 view .LVU391
 134:./Libraries/STM32_USB_Host_Library/Class/MTP/Src/usbh_mtp_ptp.c **** 
 1239              		.loc 1 134 1 is_stmt 0 view .LVU392
 1240 0014 7047     		bx	lr
 1241              		.cfi_endproc
 1242              	.LFE338:
 1244 0016 00BF     		.section	.text.USBH_PTP_Process,"ax",%progbits
 1245              		.align	1
 1246              		.p2align 2,,3
 1247              		.global	USBH_PTP_Process
 1248              		.syntax unified
 1249              		.thumb
 1250              		.thumb_func
 1251              		.fpu fpv5-d16
 1253              	USBH_PTP_Process:
 1254              	.LVL112:
 1255              	.LFB339:
 144:./Libraries/STM32_USB_Host_Library/Class/MTP/Src/usbh_mtp_ptp.c ****   USBH_StatusTypeDef   status = USBH_BUSY;
 1256              		.loc 1 144 1 is_stmt 1 view -0
 1257              		.cfi_startproc
 1258              		@ args = 0, pretend = 0, frame = 0
 1259              		@ frame_needed = 0, uses_anonymous_args = 0
 145:./Libraries/STM32_USB_Host_Library/Class/MTP/Src/usbh_mtp_ptp.c ****   USBH_URBStateTypeDef URB_Status = USBH_URB_IDLE;
 1260              		.loc 1 145 3 view .LVU394
 146:./Libraries/STM32_USB_Host_Library/Class/MTP/Src/usbh_mtp_ptp.c ****   MTP_HandleTypeDef    *MTP_Handle = (MTP_HandleTypeDef *)phost->pActiveClass->pData;
 1261              		.loc 1 146 3 view .LVU395
 147:./Libraries/STM32_USB_Host_Library/Class/MTP/Src/usbh_mtp_ptp.c ****   PTP_ContainerTypedef  ptp_container;
 1262              		.loc 1 147 3 view .LVU396
 147:./Libraries/STM32_USB_Host_Library/Class/MTP/Src/usbh_mtp_ptp.c ****   PTP_ContainerTypedef  ptp_container;
 1263              		.loc 1 147 25 is_stmt 0 view .LVU397
 1264 0000 D0F87C34 		ldr	r3, [r0, #1148]
 144:./Libraries/STM32_USB_Host_Library/Class/MTP/Src/usbh_mtp_ptp.c ****   USBH_StatusTypeDef   status = USBH_BUSY;
 1265              		.loc 1 144 1 view .LVU398
 1266 0004 2DE9F047 		push	{r4, r5, r6, r7, r8, r9, r10, lr}
 1267              	.LCFI12:
 1268              		.cfi_def_cfa_offset 32
 1269              		.cfi_offset 4, -32
 1270              		.cfi_offset 5, -28
 1271              		.cfi_offset 6, -24
 1272              		.cfi_offset 7, -20
 1273              		.cfi_offset 8, -16
ARM GAS  /tmp/ccSE0mVF.s 			page 46


 1274              		.cfi_offset 9, -12
 1275              		.cfi_offset 10, -8
 1276              		.cfi_offset 14, -4
 147:./Libraries/STM32_USB_Host_Library/Class/MTP/Src/usbh_mtp_ptp.c ****   PTP_ContainerTypedef  ptp_container;
 1277              		.loc 1 147 25 view .LVU399
 1278 0008 DE69     		ldr	r6, [r3, #28]
 1279              	.LVL113:
 148:./Libraries/STM32_USB_Host_Library/Class/MTP/Src/usbh_mtp_ptp.c ****   uint32_t  len;
 1280              		.loc 1 148 3 is_stmt 1 view .LVU400
 149:./Libraries/STM32_USB_Host_Library/Class/MTP/Src/usbh_mtp_ptp.c **** 
 1281              		.loc 1 149 3 view .LVU401
 151:./Libraries/STM32_USB_Host_Library/Class/MTP/Src/usbh_mtp_ptp.c ****   {
 1282              		.loc 1 151 3 view .LVU402
 144:./Libraries/STM32_USB_Host_Library/Class/MTP/Src/usbh_mtp_ptp.c ****   USBH_StatusTypeDef   status = USBH_BUSY;
 1283              		.loc 1 144 1 is_stmt 0 view .LVU403
 1284 000a 82B0     		sub	sp, sp, #8
 1285              	.LCFI13:
 1286              		.cfi_def_cfa_offset 40
 144:./Libraries/STM32_USB_Host_Library/Class/MTP/Src/usbh_mtp_ptp.c ****   USBH_StatusTypeDef   status = USBH_BUSY;
 1287              		.loc 1 144 1 view .LVU404
 1288 000c 0546     		mov	r5, r0
 151:./Libraries/STM32_USB_Host_Library/Class/MTP/Src/usbh_mtp_ptp.c ****   {
 1289              		.loc 1 151 26 view .LVU405
 1290 000e 06F5EB57 		add	r7, r6, #7520
 1291 0012 3C78     		ldrb	r4, [r7]	@ zero_extendqisi2
 1292 0014 631E     		subs	r3, r4, #1
 1293 0016 082B     		cmp	r3, #8
 1294 0018 15D8     		bhi	.L118
 1295 001a DFE803F0 		tbb	[pc, r3]
 1296              	.L89:
 1297 001e 21       		.byte	(.L97-.L89)/2
 1298 001f 05       		.byte	(.L96-.L89)/2
 1299 0020 34       		.byte	(.L95-.L89)/2
 1300 0021 47       		.byte	(.L94-.L89)/2
 1301 0022 60       		.byte	(.L93-.L89)/2
 1302 0023 72       		.byte	(.L92-.L89)/2
 1303 0024 B3       		.byte	(.L91-.L89)/2
 1304 0025 C3       		.byte	(.L90-.L89)/2
 1305 0026 19       		.byte	(.L88-.L89)/2
 1306 0027 00       		.p2align 1
 1307              	.L96:
 167:./Libraries/STM32_USB_Host_Library/Class/MTP/Src/usbh_mtp_ptp.c **** 
 1308              		.loc 1 167 7 is_stmt 1 view .LVU406
 167:./Libraries/STM32_USB_Host_Library/Class/MTP/Src/usbh_mtp_ptp.c **** 
 1309              		.loc 1 167 20 is_stmt 0 view .LVU407
 1310 0028 41F62D53 		movw	r3, #7469
 1311 002c F15C     		ldrb	r1, [r6, r3]	@ zero_extendqisi2
 1312 002e FFF7FEFF 		bl	USBH_LL_GetURBState
 1313              	.LVL114:
 169:./Libraries/STM32_USB_Host_Library/Class/MTP/Src/usbh_mtp_ptp.c ****       {
 1314              		.loc 1 169 10 view .LVU408
 1315 0032 0128     		cmp	r0, #1
 167:./Libraries/STM32_USB_Host_Library/Class/MTP/Src/usbh_mtp_ptp.c **** 
 1316              		.loc 1 167 20 view .LVU409
 1317 0034 0446     		mov	r4, r0
 1318              	.LVL115:
 169:./Libraries/STM32_USB_Host_Library/Class/MTP/Src/usbh_mtp_ptp.c ****       {
ARM GAS  /tmp/ccSE0mVF.s 			page 47


 1319              		.loc 1 169 7 is_stmt 1 view .LVU410
 169:./Libraries/STM32_USB_Host_Library/Class/MTP/Src/usbh_mtp_ptp.c ****       {
 1320              		.loc 1 169 10 is_stmt 0 view .LVU411
 1321 0036 00F01A81 		beq	.L130
 196:./Libraries/STM32_USB_Host_Library/Class/MTP/Src/usbh_mtp_ptp.c ****       {
 1322              		.loc 1 196 12 is_stmt 1 view .LVU412
 196:./Libraries/STM32_USB_Host_Library/Class/MTP/Src/usbh_mtp_ptp.c ****       {
 1323              		.loc 1 196 15 is_stmt 0 view .LVU413
 1324 003a 0228     		cmp	r0, #2
 1325 003c 00F04681 		beq	.L131
 1326              	.L111:
 379:./Libraries/STM32_USB_Host_Library/Class/MTP/Src/usbh_mtp_ptp.c ****       {
 1327              		.loc 1 379 12 is_stmt 1 view .LVU414
 379:./Libraries/STM32_USB_Host_Library/Class/MTP/Src/usbh_mtp_ptp.c ****       {
 1328              		.loc 1 379 15 is_stmt 0 view .LVU415
 1329 0040 052C     		cmp	r4, #5
 1330 0042 00F0B980 		beq	.L127
 1331              	.LVL116:
 1332              	.L118:
 151:./Libraries/STM32_USB_Host_Library/Class/MTP/Src/usbh_mtp_ptp.c ****   {
 1333              		.loc 1 151 26 view .LVU416
 1334 0046 0124     		movs	r4, #1
 1335              	.LVL117:
 1336              	.L87:
 450:./Libraries/STM32_USB_Host_Library/Class/MTP/Src/usbh_mtp_ptp.c **** }
 1337              		.loc 1 450 3 is_stmt 1 view .LVU417
 451:./Libraries/STM32_USB_Host_Library/Class/MTP/Src/usbh_mtp_ptp.c **** 
 1338              		.loc 1 451 1 is_stmt 0 view .LVU418
 1339 0048 2046     		mov	r0, r4
 1340 004a 02B0     		add	sp, sp, #8
 1341              	.LCFI14:
 1342              		.cfi_remember_state
 1343              		.cfi_def_cfa_offset 32
 1344              		@ sp needed
 1345 004c BDE8F087 		pop	{r4, r5, r6, r7, r8, r9, r10, pc}
 1346              	.LVL118:
 1347              	.L88:
 1348              	.LCFI15:
 1349              		.cfi_restore_state
 444:./Libraries/STM32_USB_Host_Library/Class/MTP/Src/usbh_mtp_ptp.c ****       break;
 1350              		.loc 1 444 7 is_stmt 1 view .LVU419
 444:./Libraries/STM32_USB_Host_Library/Class/MTP/Src/usbh_mtp_ptp.c ****       break;
 1351              		.loc 1 444 33 is_stmt 0 view .LVU420
 1352 0050 0124     		movs	r4, #1
 1353 0052 41F66153 		movw	r3, #7521
 451:./Libraries/STM32_USB_Host_Library/Class/MTP/Src/usbh_mtp_ptp.c **** 
 1354              		.loc 1 451 1 view .LVU421
 1355 0056 2046     		mov	r0, r4
 1356              	.LVL119:
 444:./Libraries/STM32_USB_Host_Library/Class/MTP/Src/usbh_mtp_ptp.c ****       break;
 1357              		.loc 1 444 33 view .LVU422
 1358 0058 F454     		strb	r4, [r6, r3]
 445:./Libraries/STM32_USB_Host_Library/Class/MTP/Src/usbh_mtp_ptp.c **** 
 1359              		.loc 1 445 7 is_stmt 1 view .LVU423
 1360              	.LVL120:
 450:./Libraries/STM32_USB_Host_Library/Class/MTP/Src/usbh_mtp_ptp.c **** }
 1361              		.loc 1 450 3 view .LVU424
ARM GAS  /tmp/ccSE0mVF.s 			page 48


 451:./Libraries/STM32_USB_Host_Library/Class/MTP/Src/usbh_mtp_ptp.c **** 
 1362              		.loc 1 451 1 is_stmt 0 view .LVU425
 1363 005a 02B0     		add	sp, sp, #8
 1364              	.LCFI16:
 1365              		.cfi_remember_state
 1366              		.cfi_def_cfa_offset 32
 1367              		@ sp needed
 1368 005c BDE8F087 		pop	{r4, r5, r6, r7, r8, r9, r10, pc}
 1369              	.LVL121:
 1370              	.L97:
 1371              	.LCFI17:
 1372              		.cfi_restore_state
 158:./Libraries/STM32_USB_Host_Library/Class/MTP/Src/usbh_mtp_ptp.c ****                         (uint8_t *)(void *) & (MTP_Handle->ptp.op_container),
 1373              		.loc 1 158 7 is_stmt 1 view .LVU426
 1374 0060 4FF0010C 		mov	ip, #1
 160:./Libraries/STM32_USB_Host_Library/Class/MTP/Src/usbh_mtp_ptp.c ****                         MTP_Handle->DataOutPipe,
 1375              		.loc 1 160 63 is_stmt 0 view .LVU427
 1376 0064 41F66451 		movw	r1, #7524
 158:./Libraries/STM32_USB_Host_Library/Class/MTP/Src/usbh_mtp_ptp.c ****                         (uint8_t *)(void *) & (MTP_Handle->ptp.op_container),
 1377              		.loc 1 158 7 view .LVU428
 1378 0068 41F62D53 		movw	r3, #7469
 1379 006c 725A     		ldrh	r2, [r6, r1]
 1380 006e 3144     		add	r1, r1, r6
 1381 0070 F35C     		ldrb	r3, [r6, r3]	@ zero_extendqisi2
 1382 0072 CDF800C0 		str	ip, [sp]
 1383 0076 FFF7FEFF 		bl	USBH_BulkSendData
 1384              	.LVL122:
 163:./Libraries/STM32_USB_Host_Library/Class/MTP/Src/usbh_mtp_ptp.c ****       break;
 1385              		.loc 1 163 7 is_stmt 1 view .LVU429
 163:./Libraries/STM32_USB_Host_Library/Class/MTP/Src/usbh_mtp_ptp.c ****       break;
 1386              		.loc 1 163 29 is_stmt 0 view .LVU430
 1387 007a 0223     		movs	r3, #2
 451:./Libraries/STM32_USB_Host_Library/Class/MTP/Src/usbh_mtp_ptp.c **** 
 1388              		.loc 1 451 1 view .LVU431
 1389 007c 2046     		mov	r0, r4
 163:./Libraries/STM32_USB_Host_Library/Class/MTP/Src/usbh_mtp_ptp.c ****       break;
 1390              		.loc 1 163 29 view .LVU432
 1391 007e 3B70     		strb	r3, [r7]
 164:./Libraries/STM32_USB_Host_Library/Class/MTP/Src/usbh_mtp_ptp.c **** 
 1392              		.loc 1 164 7 is_stmt 1 view .LVU433
 1393              	.LVL123:
 450:./Libraries/STM32_USB_Host_Library/Class/MTP/Src/usbh_mtp_ptp.c **** }
 1394              		.loc 1 450 3 view .LVU434
 451:./Libraries/STM32_USB_Host_Library/Class/MTP/Src/usbh_mtp_ptp.c **** 
 1395              		.loc 1 451 1 is_stmt 0 view .LVU435
 1396 0080 02B0     		add	sp, sp, #8
 1397              	.LCFI18:
 1398              		.cfi_remember_state
 1399              		.cfi_def_cfa_offset 32
 1400              		@ sp needed
 1401 0082 BDE8F087 		pop	{r4, r5, r6, r7, r8, r9, r10, pc}
 1402              	.LVL124:
 1403              	.L95:
 1404              	.LCFI19:
 1405              		.cfi_restore_state
 230:./Libraries/STM32_USB_Host_Library/Class/MTP/Src/usbh_mtp_ptp.c ****                         MTP_Handle->ptp.data_ptr,
 1406              		.loc 1 230 7 is_stmt 1 view .LVU436
ARM GAS  /tmp/ccSE0mVF.s 			page 49


 1407 0086 0124     		movs	r4, #1
 1408 0088 41F62D53 		movw	r3, #7469
 1409 008c 41F63252 		movw	r2, #7474
 1410 0090 42F2B011 		movw	r1, #8624
 1411 0094 F35C     		ldrb	r3, [r6, r3]	@ zero_extendqisi2
 1412 0096 B25A     		ldrh	r2, [r6, r2]
 1413 0098 7158     		ldr	r1, [r6, r1]
 1414 009a 0094     		str	r4, [sp]
 1415 009c FFF7FEFF 		bl	USBH_BulkSendData
 1416              	.LVL125:
 237:./Libraries/STM32_USB_Host_Library/Class/MTP/Src/usbh_mtp_ptp.c ****       break;
 1417              		.loc 1 237 7 view .LVU437
 237:./Libraries/STM32_USB_Host_Library/Class/MTP/Src/usbh_mtp_ptp.c ****       break;
 1418              		.loc 1 237 30 is_stmt 0 view .LVU438
 1419 00a0 0423     		movs	r3, #4
 451:./Libraries/STM32_USB_Host_Library/Class/MTP/Src/usbh_mtp_ptp.c **** 
 1420              		.loc 1 451 1 view .LVU439
 1421 00a2 2046     		mov	r0, r4
 237:./Libraries/STM32_USB_Host_Library/Class/MTP/Src/usbh_mtp_ptp.c ****       break;
 1422              		.loc 1 237 30 view .LVU440
 1423 00a4 3B70     		strb	r3, [r7]
 238:./Libraries/STM32_USB_Host_Library/Class/MTP/Src/usbh_mtp_ptp.c **** 
 1424              		.loc 1 238 7 is_stmt 1 view .LVU441
 1425              	.LVL126:
 450:./Libraries/STM32_USB_Host_Library/Class/MTP/Src/usbh_mtp_ptp.c **** }
 1426              		.loc 1 450 3 view .LVU442
 451:./Libraries/STM32_USB_Host_Library/Class/MTP/Src/usbh_mtp_ptp.c **** 
 1427              		.loc 1 451 1 is_stmt 0 view .LVU443
 1428 00a6 02B0     		add	sp, sp, #8
 1429              	.LCFI20:
 1430              		.cfi_remember_state
 1431              		.cfi_def_cfa_offset 32
 1432              		@ sp needed
 1433 00a8 BDE8F087 		pop	{r4, r5, r6, r7, r8, r9, r10, pc}
 1434              	.LVL127:
 1435              	.L94:
 1436              	.LCFI21:
 1437              		.cfi_restore_state
 241:./Libraries/STM32_USB_Host_Library/Class/MTP/Src/usbh_mtp_ptp.c **** 
 1438              		.loc 1 241 7 is_stmt 1 view .LVU444
 241:./Libraries/STM32_USB_Host_Library/Class/MTP/Src/usbh_mtp_ptp.c **** 
 1439              		.loc 1 241 20 is_stmt 0 view .LVU445
 1440 00ac 41F62D53 		movw	r3, #7469
 1441 00b0 F15C     		ldrb	r1, [r6, r3]	@ zero_extendqisi2
 1442 00b2 FFF7FEFF 		bl	USBH_LL_GetURBState
 1443              	.LVL128:
 243:./Libraries/STM32_USB_Host_Library/Class/MTP/Src/usbh_mtp_ptp.c ****       {
 1444              		.loc 1 243 10 view .LVU446
 1445 00b6 0128     		cmp	r0, #1
 241:./Libraries/STM32_USB_Host_Library/Class/MTP/Src/usbh_mtp_ptp.c **** 
 1446              		.loc 1 241 20 view .LVU447
 1447 00b8 0446     		mov	r4, r0
 1448              	.LVL129:
 243:./Libraries/STM32_USB_Host_Library/Class/MTP/Src/usbh_mtp_ptp.c ****       {
 1449              		.loc 1 243 7 is_stmt 1 view .LVU448
 243:./Libraries/STM32_USB_Host_Library/Class/MTP/Src/usbh_mtp_ptp.c ****       {
 1450              		.loc 1 243 10 is_stmt 0 view .LVU449
ARM GAS  /tmp/ccSE0mVF.s 			page 50


 1451 00ba 00F08C80 		beq	.L132
 288:./Libraries/STM32_USB_Host_Library/Class/MTP/Src/usbh_mtp_ptp.c ****       {
 1452              		.loc 1 288 12 is_stmt 1 view .LVU450
 288:./Libraries/STM32_USB_Host_Library/Class/MTP/Src/usbh_mtp_ptp.c ****       {
 1453              		.loc 1 288 15 is_stmt 0 view .LVU451
 1454 00be 0228     		cmp	r0, #2
 1455 00c0 BED1     		bne	.L111
 291:./Libraries/STM32_USB_Host_Library/Class/MTP/Src/usbh_mtp_ptp.c **** 
 1456              		.loc 1 291 9 is_stmt 1 view .LVU452
 291:./Libraries/STM32_USB_Host_Library/Class/MTP/Src/usbh_mtp_ptp.c **** 
 1457              		.loc 1 291 31 is_stmt 0 view .LVU453
 1458 00c2 0322     		movs	r2, #3
 298:./Libraries/STM32_USB_Host_Library/Class/MTP/Src/usbh_mtp_ptp.c **** #endif
 1459              		.loc 1 298 15 view .LVU454
 1460 00c4 0023     		movs	r3, #0
 1461 00c6 05F59C61 		add	r1, r5, #1248
 291:./Libraries/STM32_USB_Host_Library/Class/MTP/Src/usbh_mtp_ptp.c **** 
 1462              		.loc 1 291 31 view .LVU455
 1463 00ca 3A70     		strb	r2, [r7]
 1464              	.LVL130:
 1465              	.L128:
 294:./Libraries/STM32_USB_Host_Library/Class/MTP/Src/usbh_mtp_ptp.c **** #if (osCMSIS < 0x20000U)
 1466              		.loc 1 294 9 is_stmt 1 view .LVU456
 294:./Libraries/STM32_USB_Host_Library/Class/MTP/Src/usbh_mtp_ptp.c **** #if (osCMSIS < 0x20000U)
 1467              		.loc 1 294 23 is_stmt 0 view .LVU457
 1468 00cc C5F8E044 		str	r4, [r5, #1248]
 298:./Libraries/STM32_USB_Host_Library/Class/MTP/Src/usbh_mtp_ptp.c **** #endif
 1469              		.loc 1 298 9 is_stmt 1 view .LVU458
 298:./Libraries/STM32_USB_Host_Library/Class/MTP/Src/usbh_mtp_ptp.c **** #endif
 1470              		.loc 1 298 15 is_stmt 0 view .LVU459
 1471 00d0 1A46     		mov	r2, r3
 1472 00d2 D5F8D804 		ldr	r0, [r5, #1240]
 145:./Libraries/STM32_USB_Host_Library/Class/MTP/Src/usbh_mtp_ptp.c ****   USBH_URBStateTypeDef URB_Status = USBH_URB_IDLE;
 1473              		.loc 1 145 24 view .LVU460
 1474 00d6 0124     		movs	r4, #1
 298:./Libraries/STM32_USB_Host_Library/Class/MTP/Src/usbh_mtp_ptp.c **** #endif
 1475              		.loc 1 298 15 view .LVU461
 1476 00d8 FFF7FEFF 		bl	osMessageQueuePut
 1477              	.LVL131:
 1478 00dc B4E7     		b	.L87
 1479              	.LVL132:
 1480              	.L93:
 323:./Libraries/STM32_USB_Host_Library/Class/MTP/Src/usbh_mtp_ptp.c ****                            MTP_Handle->ptp.data_ptr,
 1481              		.loc 1 323 7 is_stmt 1 view .LVU462
 1482 00de 41F62C53 		movw	r3, #7468
 1483 00e2 41F63452 		movw	r2, #7476
 1484 00e6 42F2B011 		movw	r1, #8624
 145:./Libraries/STM32_USB_Host_Library/Class/MTP/Src/usbh_mtp_ptp.c ****   USBH_URBStateTypeDef URB_Status = USBH_URB_IDLE;
 1485              		.loc 1 145 24 is_stmt 0 view .LVU463
 1486 00ea 0124     		movs	r4, #1
 323:./Libraries/STM32_USB_Host_Library/Class/MTP/Src/usbh_mtp_ptp.c ****                            MTP_Handle->ptp.data_ptr,
 1487              		.loc 1 323 7 view .LVU464
 1488 00ec F35C     		ldrb	r3, [r6, r3]	@ zero_extendqisi2
 1489 00ee B25A     		ldrh	r2, [r6, r2]
 1490 00f0 7158     		ldr	r1, [r6, r1]
 1491 00f2 FFF7FEFF 		bl	USBH_BulkReceiveData
 1492              	.LVL133:
ARM GAS  /tmp/ccSE0mVF.s 			page 51


 328:./Libraries/STM32_USB_Host_Library/Class/MTP/Src/usbh_mtp_ptp.c ****       break;
 1493              		.loc 1 328 7 is_stmt 1 view .LVU465
 328:./Libraries/STM32_USB_Host_Library/Class/MTP/Src/usbh_mtp_ptp.c ****       break;
 1494              		.loc 1 328 30 is_stmt 0 view .LVU466
 1495 00f6 0623     		movs	r3, #6
 451:./Libraries/STM32_USB_Host_Library/Class/MTP/Src/usbh_mtp_ptp.c **** 
 1496              		.loc 1 451 1 view .LVU467
 1497 00f8 2046     		mov	r0, r4
 328:./Libraries/STM32_USB_Host_Library/Class/MTP/Src/usbh_mtp_ptp.c ****       break;
 1498              		.loc 1 328 30 view .LVU468
 1499 00fa 3B70     		strb	r3, [r7]
 329:./Libraries/STM32_USB_Host_Library/Class/MTP/Src/usbh_mtp_ptp.c **** 
 1500              		.loc 1 329 7 is_stmt 1 view .LVU469
 1501              	.LVL134:
 450:./Libraries/STM32_USB_Host_Library/Class/MTP/Src/usbh_mtp_ptp.c **** }
 1502              		.loc 1 450 3 view .LVU470
 451:./Libraries/STM32_USB_Host_Library/Class/MTP/Src/usbh_mtp_ptp.c **** 
 1503              		.loc 1 451 1 is_stmt 0 view .LVU471
 1504 00fc 02B0     		add	sp, sp, #8
 1505              	.LCFI22:
 1506              		.cfi_remember_state
 1507              		.cfi_def_cfa_offset 32
 1508              		@ sp needed
 1509 00fe BDE8F087 		pop	{r4, r5, r6, r7, r8, r9, r10, pc}
 1510              	.LVL135:
 1511              	.L92:
 1512              	.LCFI23:
 1513              		.cfi_restore_state
 332:./Libraries/STM32_USB_Host_Library/Class/MTP/Src/usbh_mtp_ptp.c **** 
 1514              		.loc 1 332 7 is_stmt 1 view .LVU472
 332:./Libraries/STM32_USB_Host_Library/Class/MTP/Src/usbh_mtp_ptp.c **** 
 1515              		.loc 1 332 20 is_stmt 0 view .LVU473
 1516 0102 41F62C58 		movw	r8, #7468
 1517 0106 16F80810 		ldrb	r1, [r6, r8]	@ zero_extendqisi2
 1518 010a FFF7FEFF 		bl	USBH_LL_GetURBState
 1519              	.LVL136:
 334:./Libraries/STM32_USB_Host_Library/Class/MTP/Src/usbh_mtp_ptp.c ****       {
 1520              		.loc 1 334 10 view .LVU474
 1521 010e 0128     		cmp	r0, #1
 332:./Libraries/STM32_USB_Host_Library/Class/MTP/Src/usbh_mtp_ptp.c **** 
 1522              		.loc 1 332 20 view .LVU475
 1523 0110 0446     		mov	r4, r0
 1524              	.LVL137:
 334:./Libraries/STM32_USB_Host_Library/Class/MTP/Src/usbh_mtp_ptp.c ****       {
 1525              		.loc 1 334 7 is_stmt 1 view .LVU476
 334:./Libraries/STM32_USB_Host_Library/Class/MTP/Src/usbh_mtp_ptp.c ****       {
 1526              		.loc 1 334 10 is_stmt 0 view .LVU477
 1527 0112 95D1     		bne	.L111
 336:./Libraries/STM32_USB_Host_Library/Class/MTP/Src/usbh_mtp_ptp.c **** 
 1528              		.loc 1 336 9 is_stmt 1 view .LVU478
 336:./Libraries/STM32_USB_Host_Library/Class/MTP/Src/usbh_mtp_ptp.c **** 
 1529              		.loc 1 336 15 is_stmt 0 view .LVU479
 1530 0114 16F80810 		ldrb	r1, [r6, r8]	@ zero_extendqisi2
 1531 0118 2846     		mov	r0, r5
 1532              	.LVL138:
 336:./Libraries/STM32_USB_Host_Library/Class/MTP/Src/usbh_mtp_ptp.c **** 
 1533              		.loc 1 336 15 view .LVU480
ARM GAS  /tmp/ccSE0mVF.s 			page 52


 1534 011a FFF7FEFF 		bl	USBH_LL_GetLastXferSize
 1535              	.LVL139:
 338:./Libraries/STM32_USB_Host_Library/Class/MTP/Src/usbh_mtp_ptp.c ****         {
 1536              		.loc 1 338 28 view .LVU481
 1537 011e 06F50751 		add	r1, r6, #8640
 1538              	.LVL140:
 338:./Libraries/STM32_USB_Host_Library/Class/MTP/Src/usbh_mtp_ptp.c ****         {
 1539              		.loc 1 338 9 is_stmt 1 view .LVU482
 338:./Libraries/STM32_USB_Host_Library/Class/MTP/Src/usbh_mtp_ptp.c ****         {
 1540              		.loc 1 338 28 is_stmt 0 view .LVU483
 1541 0122 0A68     		ldr	r2, [r1]
 338:./Libraries/STM32_USB_Host_Library/Class/MTP/Src/usbh_mtp_ptp.c ****         {
 1542              		.loc 1 338 48 view .LVU484
 1543 0124 531C     		adds	r3, r2, #1
 1544 0126 0B60     		str	r3, [r1]
 338:./Libraries/STM32_USB_Host_Library/Class/MTP/Src/usbh_mtp_ptp.c ****         {
 1545              		.loc 1 338 12 view .LVU485
 1546 0128 002A     		cmp	r2, #0
 1547 012a 00F0D580 		beq	.L112
 1548 012e 42F2B413 		movw	r3, #8628
 1549 0132 F358     		ldr	r3, [r6, r3]
 1550              	.L113:
 345:./Libraries/STM32_USB_Host_Library/Class/MTP/Src/usbh_mtp_ptp.c ****         {
 1551              		.loc 1 345 9 is_stmt 1 view .LVU486
 345:./Libraries/STM32_USB_Host_Library/Class/MTP/Src/usbh_mtp_ptp.c ****         {
 1552              		.loc 1 345 32 is_stmt 0 view .LVU487
 1553 0134 41F63458 		movw	r8, #7476
 1554 0138 36F80820 		ldrh	r2, [r6, r8]
 345:./Libraries/STM32_USB_Host_Library/Class/MTP/Src/usbh_mtp_ptp.c ****         {
 1555              		.loc 1 345 12 view .LVU488
 1556 013c 8242     		cmp	r2, r0
 1557 013e 00F2B280 		bhi	.L114
 345:./Libraries/STM32_USB_Host_Library/Class/MTP/Src/usbh_mtp_ptp.c ****         {
 1558              		.loc 1 345 48 discriminator 1 view .LVU489
 1559 0142 002B     		cmp	r3, #0
 1560 0144 00F0AF80 		beq	.L114
 347:./Libraries/STM32_USB_Host_Library/Class/MTP/Src/usbh_mtp_ptp.c ****           MTP_Handle->ptp.data_length -= len;
 1561              		.loc 1 347 11 is_stmt 1 view .LVU490
 348:./Libraries/STM32_USB_Host_Library/Class/MTP/Src/usbh_mtp_ptp.c ****           MTP_Handle->ptp.data_packet += len;
 1562              		.loc 1 348 39 is_stmt 0 view .LVU491
 1563 0148 1B1A     		subs	r3, r3, r0
 347:./Libraries/STM32_USB_Host_Library/Class/MTP/Src/usbh_mtp_ptp.c ****           MTP_Handle->ptp.data_length -= len;
 1564              		.loc 1 347 36 view .LVU492
 1565 014a 42F2B01A 		movw	r10, #8624
 349:./Libraries/STM32_USB_Host_Library/Class/MTP/Src/usbh_mtp_ptp.c **** 
 1566              		.loc 1 349 39 view .LVU493
 1567 014e 42F2B819 		movw	r9, #8632
 348:./Libraries/STM32_USB_Host_Library/Class/MTP/Src/usbh_mtp_ptp.c ****           MTP_Handle->ptp.data_packet += len;
 1568              		.loc 1 348 39 view .LVU494
 1569 0152 42F2B41C 		movw	ip, #8628
 347:./Libraries/STM32_USB_Host_Library/Class/MTP/Src/usbh_mtp_ptp.c ****           MTP_Handle->ptp.data_length -= len;
 1570              		.loc 1 347 36 view .LVU495
 1571 0156 56F80A10 		ldr	r1, [r6, r10]
 348:./Libraries/STM32_USB_Host_Library/Class/MTP/Src/usbh_mtp_ptp.c ****           MTP_Handle->ptp.data_packet += len;
 1572              		.loc 1 348 39 view .LVU496
 1573 015a 46F80C30 		str	r3, [r6, ip]
 349:./Libraries/STM32_USB_Host_Library/Class/MTP/Src/usbh_mtp_ptp.c **** 
ARM GAS  /tmp/ccSE0mVF.s 			page 53


 1574              		.loc 1 349 39 view .LVU497
 1575 015e 56F80930 		ldr	r3, [r6, r9]
 347:./Libraries/STM32_USB_Host_Library/Class/MTP/Src/usbh_mtp_ptp.c ****           MTP_Handle->ptp.data_length -= len;
 1576              		.loc 1 347 36 view .LVU498
 1577 0162 0144     		add	r1, r1, r0
 349:./Libraries/STM32_USB_Host_Library/Class/MTP/Src/usbh_mtp_ptp.c **** 
 1578              		.loc 1 349 39 view .LVU499
 1579 0164 1844     		add	r0, r0, r3
 1580              	.LVL141:
 347:./Libraries/STM32_USB_Host_Library/Class/MTP/Src/usbh_mtp_ptp.c ****           MTP_Handle->ptp.data_length -= len;
 1581              		.loc 1 347 36 view .LVU500
 1582 0166 46F80A10 		str	r1, [r6, r10]
 348:./Libraries/STM32_USB_Host_Library/Class/MTP/Src/usbh_mtp_ptp.c ****           MTP_Handle->ptp.data_packet += len;
 1583              		.loc 1 348 11 is_stmt 1 view .LVU501
 349:./Libraries/STM32_USB_Host_Library/Class/MTP/Src/usbh_mtp_ptp.c **** 
 1584              		.loc 1 349 11 view .LVU502
 351:./Libraries/STM32_USB_Host_Library/Class/MTP/Src/usbh_mtp_ptp.c ****           {
 1585              		.loc 1 351 14 is_stmt 0 view .LVU503
 1586 016a B0F57D7F 		cmp	r0, #1012
 349:./Libraries/STM32_USB_Host_Library/Class/MTP/Src/usbh_mtp_ptp.c **** 
 1587              		.loc 1 349 39 view .LVU504
 1588 016e 46F80900 		str	r0, [r6, r9]
 351:./Libraries/STM32_USB_Host_Library/Class/MTP/Src/usbh_mtp_ptp.c ****           {
 1589              		.loc 1 351 11 is_stmt 1 view .LVU505
 351:./Libraries/STM32_USB_Host_Library/Class/MTP/Src/usbh_mtp_ptp.c ****           {
 1590              		.loc 1 351 14 is_stmt 0 view .LVU506
 1591 0172 80F0BC80 		bcs	.L133
 1592              	.L115:
 359:./Libraries/STM32_USB_Host_Library/Class/MTP/Src/usbh_mtp_ptp.c ****                                MTP_Handle->ptp.data_ptr,
 1593              		.loc 1 359 11 is_stmt 1 view .LVU507
 1594 0176 41F62C53 		movw	r3, #7468
 1595 017a 2846     		mov	r0, r5
 1596 017c F35C     		ldrb	r3, [r6, r3]	@ zero_extendqisi2
 1597 017e FFF7FEFF 		bl	USBH_BulkReceiveData
 1598              	.LVL142:
 1599 0182 61E7     		b	.L87
 1600              	.LVL143:
 1601              	.L91:
 399:./Libraries/STM32_USB_Host_Library/Class/MTP/Src/usbh_mtp_ptp.c ****                            (uint8_t *)(void *) & (MTP_Handle->ptp.resp_container),
 1602              		.loc 1 399 7 view .LVU508
 1603 0184 41F62C53 		movw	r3, #7468
 1604 0188 42F28411 		movw	r1, #8580
 145:./Libraries/STM32_USB_Host_Library/Class/MTP/Src/usbh_mtp_ptp.c ****   USBH_URBStateTypeDef URB_Status = USBH_URB_IDLE;
 1605              		.loc 1 145 24 is_stmt 0 view .LVU509
 1606 018c 0124     		movs	r4, #1
 399:./Libraries/STM32_USB_Host_Library/Class/MTP/Src/usbh_mtp_ptp.c ****                            (uint8_t *)(void *) & (MTP_Handle->ptp.resp_container),
 1607              		.loc 1 399 7 view .LVU510
 1608 018e 3F22     		movs	r2, #63
 1609 0190 F35C     		ldrb	r3, [r6, r3]	@ zero_extendqisi2
 1610 0192 3144     		add	r1, r1, r6
 1611 0194 FFF7FEFF 		bl	USBH_BulkReceiveData
 1612              	.LVL144:
 404:./Libraries/STM32_USB_Host_Library/Class/MTP/Src/usbh_mtp_ptp.c ****       break;
 1613              		.loc 1 404 7 is_stmt 1 view .LVU511
 404:./Libraries/STM32_USB_Host_Library/Class/MTP/Src/usbh_mtp_ptp.c ****       break;
 1614              		.loc 1 404 30 is_stmt 0 view .LVU512
 1615 0198 0823     		movs	r3, #8
ARM GAS  /tmp/ccSE0mVF.s 			page 54


 451:./Libraries/STM32_USB_Host_Library/Class/MTP/Src/usbh_mtp_ptp.c **** 
 1616              		.loc 1 451 1 view .LVU513
 1617 019a 2046     		mov	r0, r4
 404:./Libraries/STM32_USB_Host_Library/Class/MTP/Src/usbh_mtp_ptp.c ****       break;
 1618              		.loc 1 404 30 view .LVU514
 1619 019c 3B70     		strb	r3, [r7]
 405:./Libraries/STM32_USB_Host_Library/Class/MTP/Src/usbh_mtp_ptp.c **** 
 1620              		.loc 1 405 7 is_stmt 1 view .LVU515
 1621              	.LVL145:
 450:./Libraries/STM32_USB_Host_Library/Class/MTP/Src/usbh_mtp_ptp.c **** }
 1622              		.loc 1 450 3 view .LVU516
 451:./Libraries/STM32_USB_Host_Library/Class/MTP/Src/usbh_mtp_ptp.c **** 
 1623              		.loc 1 451 1 is_stmt 0 view .LVU517
 1624 019e 02B0     		add	sp, sp, #8
 1625              	.LCFI24:
 1626              		.cfi_remember_state
 1627              		.cfi_def_cfa_offset 32
 1628              		@ sp needed
 1629 01a0 BDE8F087 		pop	{r4, r5, r6, r7, r8, r9, r10, pc}
 1630              	.LVL146:
 1631              	.L90:
 1632              	.LCFI25:
 1633              		.cfi_restore_state
 408:./Libraries/STM32_USB_Host_Library/Class/MTP/Src/usbh_mtp_ptp.c **** 
 1634              		.loc 1 408 7 is_stmt 1 view .LVU518
 408:./Libraries/STM32_USB_Host_Library/Class/MTP/Src/usbh_mtp_ptp.c **** 
 1635              		.loc 1 408 20 is_stmt 0 view .LVU519
 1636 01a4 41F62C53 		movw	r3, #7468
 1637 01a8 F15C     		ldrb	r1, [r6, r3]	@ zero_extendqisi2
 1638 01aa FFF7FEFF 		bl	USBH_LL_GetURBState
 1639              	.LVL147:
 410:./Libraries/STM32_USB_Host_Library/Class/MTP/Src/usbh_mtp_ptp.c ****       {
 1640              		.loc 1 410 7 is_stmt 1 view .LVU520
 410:./Libraries/STM32_USB_Host_Library/Class/MTP/Src/usbh_mtp_ptp.c ****       {
 1641              		.loc 1 410 10 is_stmt 0 view .LVU521
 1642 01ae 0128     		cmp	r0, #1
 1643 01b0 69D0     		beq	.L134
 424:./Libraries/STM32_USB_Host_Library/Class/MTP/Src/usbh_mtp_ptp.c ****       {
 1644              		.loc 1 424 12 is_stmt 1 view .LVU522
 424:./Libraries/STM32_USB_Host_Library/Class/MTP/Src/usbh_mtp_ptp.c ****       {
 1645              		.loc 1 424 15 is_stmt 0 view .LVU523
 1646 01b2 0528     		cmp	r0, #5
 1647 01b4 7FF447AF 		bne	.L118
 1648              	.L127:
 426:./Libraries/STM32_USB_Host_Library/Class/MTP/Src/usbh_mtp_ptp.c **** 
 1649              		.loc 1 426 9 is_stmt 1 view .LVU524
 426:./Libraries/STM32_USB_Host_Library/Class/MTP/Src/usbh_mtp_ptp.c **** 
 1650              		.loc 1 426 32 is_stmt 0 view .LVU525
 1651 01b8 0920     		movs	r0, #9
 1652              	.LVL148:
 429:./Libraries/STM32_USB_Host_Library/Class/MTP/Src/usbh_mtp_ptp.c **** #if (osCMSIS < 0x20000U)
 1653              		.loc 1 429 23 view .LVU526
 1654 01ba 0222     		movs	r2, #2
 433:./Libraries/STM32_USB_Host_Library/Class/MTP/Src/usbh_mtp_ptp.c **** #endif
 1655              		.loc 1 433 15 view .LVU527
 1656 01bc 0023     		movs	r3, #0
 1657 01be 05F59C61 		add	r1, r5, #1248
ARM GAS  /tmp/ccSE0mVF.s 			page 55


 426:./Libraries/STM32_USB_Host_Library/Class/MTP/Src/usbh_mtp_ptp.c **** 
 1658              		.loc 1 426 32 view .LVU528
 1659 01c2 3870     		strb	r0, [r7]
 429:./Libraries/STM32_USB_Host_Library/Class/MTP/Src/usbh_mtp_ptp.c **** #if (osCMSIS < 0x20000U)
 1660              		.loc 1 429 9 is_stmt 1 view .LVU529
 145:./Libraries/STM32_USB_Host_Library/Class/MTP/Src/usbh_mtp_ptp.c ****   USBH_URBStateTypeDef URB_Status = USBH_URB_IDLE;
 1661              		.loc 1 145 24 is_stmt 0 view .LVU530
 1662 01c4 0124     		movs	r4, #1
 429:./Libraries/STM32_USB_Host_Library/Class/MTP/Src/usbh_mtp_ptp.c **** #if (osCMSIS < 0x20000U)
 1663              		.loc 1 429 23 view .LVU531
 1664 01c6 C5F8E024 		str	r2, [r5, #1248]
 433:./Libraries/STM32_USB_Host_Library/Class/MTP/Src/usbh_mtp_ptp.c **** #endif
 1665              		.loc 1 433 9 is_stmt 1 view .LVU532
 433:./Libraries/STM32_USB_Host_Library/Class/MTP/Src/usbh_mtp_ptp.c **** #endif
 1666              		.loc 1 433 15 is_stmt 0 view .LVU533
 1667 01ca 1A46     		mov	r2, r3
 1668 01cc D5F8D804 		ldr	r0, [r5, #1240]
 1669 01d0 FFF7FEFF 		bl	osMessageQueuePut
 1670              	.LVL149:
 1671 01d4 38E7     		b	.L87
 1672              	.LVL150:
 1673              	.L132:
 246:./Libraries/STM32_USB_Host_Library/Class/MTP/Src/usbh_mtp_ptp.c ****         {
 1674              		.loc 1 246 9 is_stmt 1 view .LVU534
 246:./Libraries/STM32_USB_Host_Library/Class/MTP/Src/usbh_mtp_ptp.c ****         {
 1675              		.loc 1 246 28 is_stmt 0 view .LVU535
 1676 01d6 42F2B418 		movw	r8, #8628
 246:./Libraries/STM32_USB_Host_Library/Class/MTP/Src/usbh_mtp_ptp.c ****         {
 1677              		.loc 1 246 53 view .LVU536
 1678 01da 41F63253 		movw	r3, #7474
 246:./Libraries/STM32_USB_Host_Library/Class/MTP/Src/usbh_mtp_ptp.c ****         {
 1679              		.loc 1 246 28 view .LVU537
 1680 01de 56F80820 		ldr	r2, [r6, r8]
 246:./Libraries/STM32_USB_Host_Library/Class/MTP/Src/usbh_mtp_ptp.c ****         {
 1681              		.loc 1 246 41 view .LVU538
 1682 01e2 F35A     		ldrh	r3, [r6, r3]
 246:./Libraries/STM32_USB_Host_Library/Class/MTP/Src/usbh_mtp_ptp.c ****         {
 1683              		.loc 1 246 12 view .LVU539
 1684 01e4 9A42     		cmp	r2, r3
 1685 01e6 3CD9     		bls	.L105
 248:./Libraries/STM32_USB_Host_Library/Class/MTP/Src/usbh_mtp_ptp.c ****           MTP_Handle->ptp.data_length -= MTP_Handle->DataOutEpSize;
 1686              		.loc 1 248 11 is_stmt 1 view .LVU540
 248:./Libraries/STM32_USB_Host_Library/Class/MTP/Src/usbh_mtp_ptp.c ****           MTP_Handle->ptp.data_length -= MTP_Handle->DataOutEpSize;
 1687              		.loc 1 248 36 is_stmt 0 view .LVU541
 1688 01e8 42F2B01C 		movw	ip, #8624
 250:./Libraries/STM32_USB_Host_Library/Class/MTP/Src/usbh_mtp_ptp.c **** 
 1689              		.loc 1 250 39 view .LVU542
 1690 01ec 42F2B819 		movw	r9, #8632
 249:./Libraries/STM32_USB_Host_Library/Class/MTP/Src/usbh_mtp_ptp.c ****           MTP_Handle->ptp.data_packet += MTP_Handle->DataOutEpSize;
 1691              		.loc 1 249 39 view .LVU543
 1692 01f0 D21A     		subs	r2, r2, r3
 248:./Libraries/STM32_USB_Host_Library/Class/MTP/Src/usbh_mtp_ptp.c ****           MTP_Handle->ptp.data_length -= MTP_Handle->DataOutEpSize;
 1693              		.loc 1 248 36 view .LVU544
 1694 01f2 56F80C10 		ldr	r1, [r6, ip]
 250:./Libraries/STM32_USB_Host_Library/Class/MTP/Src/usbh_mtp_ptp.c **** 
 1695              		.loc 1 250 39 view .LVU545
 1696 01f6 56F80900 		ldr	r0, [r6, r9]
ARM GAS  /tmp/ccSE0mVF.s 			page 56


 1697              	.LVL151:
 248:./Libraries/STM32_USB_Host_Library/Class/MTP/Src/usbh_mtp_ptp.c ****           MTP_Handle->ptp.data_length -= MTP_Handle->DataOutEpSize;
 1698              		.loc 1 248 36 view .LVU546
 1699 01fa 1944     		add	r1, r1, r3
 249:./Libraries/STM32_USB_Host_Library/Class/MTP/Src/usbh_mtp_ptp.c ****           MTP_Handle->ptp.data_packet += MTP_Handle->DataOutEpSize;
 1700              		.loc 1 249 39 view .LVU547
 1701 01fc 46F80820 		str	r2, [r6, r8]
 250:./Libraries/STM32_USB_Host_Library/Class/MTP/Src/usbh_mtp_ptp.c **** 
 1702              		.loc 1 250 39 view .LVU548
 1703 0200 0344     		add	r3, r3, r0
 248:./Libraries/STM32_USB_Host_Library/Class/MTP/Src/usbh_mtp_ptp.c ****           MTP_Handle->ptp.data_length -= MTP_Handle->DataOutEpSize;
 1704              		.loc 1 248 36 view .LVU549
 1705 0202 46F80C10 		str	r1, [r6, ip]
 249:./Libraries/STM32_USB_Host_Library/Class/MTP/Src/usbh_mtp_ptp.c ****           MTP_Handle->ptp.data_packet += MTP_Handle->DataOutEpSize;
 1706              		.loc 1 249 11 is_stmt 1 view .LVU550
 250:./Libraries/STM32_USB_Host_Library/Class/MTP/Src/usbh_mtp_ptp.c **** 
 1707              		.loc 1 250 11 view .LVU551
 252:./Libraries/STM32_USB_Host_Library/Class/MTP/Src/usbh_mtp_ptp.c ****           {
 1708              		.loc 1 252 14 is_stmt 0 view .LVU552
 1709 0206 B3F57D7F 		cmp	r3, #1012
 250:./Libraries/STM32_USB_Host_Library/Class/MTP/Src/usbh_mtp_ptp.c **** 
 1710              		.loc 1 250 39 view .LVU553
 1711 020a 46F80930 		str	r3, [r6, r9]
 252:./Libraries/STM32_USB_Host_Library/Class/MTP/Src/usbh_mtp_ptp.c ****           {
 1712              		.loc 1 252 11 is_stmt 1 view .LVU554
 252:./Libraries/STM32_USB_Host_Library/Class/MTP/Src/usbh_mtp_ptp.c ****           {
 1713              		.loc 1 252 14 is_stmt 0 view .LVU555
 1714 020e 1AD2     		bcs	.L135
 1715              	.L106:
 265:./Libraries/STM32_USB_Host_Library/Class/MTP/Src/usbh_mtp_ptp.c ****         {
 1716              		.loc 1 265 9 is_stmt 1 view .LVU556
 265:./Libraries/STM32_USB_Host_Library/Class/MTP/Src/usbh_mtp_ptp.c ****         {
 1717              		.loc 1 265 12 is_stmt 0 view .LVU557
 1718 0210 52B3     		cbz	r2, .L107
 267:./Libraries/STM32_USB_Host_Library/Class/MTP/Src/usbh_mtp_ptp.c ****                             MTP_Handle->ptp.data_ptr,
 1719              		.loc 1 267 11 is_stmt 1 view .LVU558
 1720 0212 0120     		movs	r0, #1
 1721 0214 41F62D53 		movw	r3, #7469
 1722 0218 41F63252 		movw	r2, #7474
 1723 021c 42F2B011 		movw	r1, #8624
 1724 0220 F35C     		ldrb	r3, [r6, r3]	@ zero_extendqisi2
 1725 0222 B25A     		ldrh	r2, [r6, r2]
 1726 0224 7158     		ldr	r1, [r6, r1]
 1727 0226 0090     		str	r0, [sp]
 1728 0228 2846     		mov	r0, r5
 1729 022a FFF7FEFF 		bl	USBH_BulkSendData
 1730              	.LVL152:
 1731              	.L108:
 280:./Libraries/STM32_USB_Host_Library/Class/MTP/Src/usbh_mtp_ptp.c **** #if (osCMSIS < 0x20000U)
 1732              		.loc 1 280 9 view .LVU559
 280:./Libraries/STM32_USB_Host_Library/Class/MTP/Src/usbh_mtp_ptp.c **** #if (osCMSIS < 0x20000U)
 1733              		.loc 1 280 23 is_stmt 0 view .LVU560
 1734 022e 0222     		movs	r2, #2
 284:./Libraries/STM32_USB_Host_Library/Class/MTP/Src/usbh_mtp_ptp.c **** #endif
 1735              		.loc 1 284 15 view .LVU561
 1736 0230 0023     		movs	r3, #0
 1737 0232 05F59C61 		add	r1, r5, #1248
ARM GAS  /tmp/ccSE0mVF.s 			page 57


 1738 0236 D5F8D804 		ldr	r0, [r5, #1240]
 280:./Libraries/STM32_USB_Host_Library/Class/MTP/Src/usbh_mtp_ptp.c **** #if (osCMSIS < 0x20000U)
 1739              		.loc 1 280 23 view .LVU562
 1740 023a C5F8E024 		str	r2, [r5, #1248]
 284:./Libraries/STM32_USB_Host_Library/Class/MTP/Src/usbh_mtp_ptp.c **** #endif
 1741              		.loc 1 284 9 is_stmt 1 view .LVU563
 284:./Libraries/STM32_USB_Host_Library/Class/MTP/Src/usbh_mtp_ptp.c **** #endif
 1742              		.loc 1 284 15 is_stmt 0 view .LVU564
 1743 023e 1A46     		mov	r2, r3
 1744 0240 FFF7FEFF 		bl	osMessageQueuePut
 1745              	.LVL153:
 1746 0244 00E7     		b	.L87
 1747              	.L135:
 254:./Libraries/STM32_USB_Host_Library/Class/MTP/Src/usbh_mtp_ptp.c ****             MTP_Handle->ptp.data_packet = 0U;
 1748              		.loc 1 254 13 is_stmt 1 view .LVU565
 1749 0246 2846     		mov	r0, r5
 1750 0248 FFF7FEFF 		bl	PTP_BufferFullCallback
 1751              	.LVL154:
 255:./Libraries/STM32_USB_Host_Library/Class/MTP/Src/usbh_mtp_ptp.c ****             MTP_Handle->ptp.iteration++;
 1752              		.loc 1 255 13 view .LVU566
 256:./Libraries/STM32_USB_Host_Library/Class/MTP/Src/usbh_mtp_ptp.c ****           }
 1753              		.loc 1 256 38 is_stmt 0 view .LVU567
 1754 024c 42F2BC11 		movw	r1, #8636
 255:./Libraries/STM32_USB_Host_Library/Class/MTP/Src/usbh_mtp_ptp.c ****             MTP_Handle->ptp.iteration++;
 1755              		.loc 1 255 41 view .LVU568
 1756 0250 0020     		movs	r0, #0
 1757 0252 56F80820 		ldr	r2, [r6, r8]
 256:./Libraries/STM32_USB_Host_Library/Class/MTP/Src/usbh_mtp_ptp.c ****           }
 1758              		.loc 1 256 38 view .LVU569
 1759 0256 7358     		ldr	r3, [r6, r1]
 255:./Libraries/STM32_USB_Host_Library/Class/MTP/Src/usbh_mtp_ptp.c ****             MTP_Handle->ptp.iteration++;
 1760              		.loc 1 255 41 view .LVU570
 1761 0258 46F80900 		str	r0, [r6, r9]
 256:./Libraries/STM32_USB_Host_Library/Class/MTP/Src/usbh_mtp_ptp.c ****           }
 1762              		.loc 1 256 13 is_stmt 1 view .LVU571
 256:./Libraries/STM32_USB_Host_Library/Class/MTP/Src/usbh_mtp_ptp.c ****           }
 1763              		.loc 1 256 38 is_stmt 0 view .LVU572
 1764 025c 0133     		adds	r3, r3, #1
 1765 025e 7350     		str	r3, [r6, r1]
 1766 0260 D6E7     		b	.L106
 1767              	.LVL155:
 1768              	.L105:
 261:./Libraries/STM32_USB_Host_Library/Class/MTP/Src/usbh_mtp_ptp.c ****         }
 1769              		.loc 1 261 11 is_stmt 1 view .LVU573
 261:./Libraries/STM32_USB_Host_Library/Class/MTP/Src/usbh_mtp_ptp.c ****         }
 1770              		.loc 1 261 39 is_stmt 0 view .LVU574
 1771 0262 0023     		movs	r3, #0
 1772 0264 46F80830 		str	r3, [r6, r8]
 265:./Libraries/STM32_USB_Host_Library/Class/MTP/Src/usbh_mtp_ptp.c ****         {
 1773              		.loc 1 265 9 is_stmt 1 view .LVU575
 1774              	.LVL156:
 1775              	.L107:
 276:./Libraries/STM32_USB_Host_Library/Class/MTP/Src/usbh_mtp_ptp.c ****         }
 1776              		.loc 1 276 11 view .LVU576
 276:./Libraries/STM32_USB_Host_Library/Class/MTP/Src/usbh_mtp_ptp.c ****         }
 1777              		.loc 1 276 34 is_stmt 0 view .LVU577
 1778 0268 0723     		movs	r3, #7
ARM GAS  /tmp/ccSE0mVF.s 			page 58


 1779 026a 3B70     		strb	r3, [r7]
 1780 026c DFE7     		b	.L108
 1781              	.LVL157:
 1782              	.L130:
 171:./Libraries/STM32_USB_Host_Library/Class/MTP/Src/usbh_mtp_ptp.c ****         {
 1783              		.loc 1 171 9 is_stmt 1 view .LVU578
 171:./Libraries/STM32_USB_Host_Library/Class/MTP/Src/usbh_mtp_ptp.c ****         {
 1784              		.loc 1 171 28 is_stmt 0 view .LVU579
 1785 026e 42F2AC13 		movw	r3, #8620
 1786 0272 F358     		ldr	r3, [r6, r3]
 171:./Libraries/STM32_USB_Host_Library/Class/MTP/Src/usbh_mtp_ptp.c ****         {
 1787              		.loc 1 171 12 view .LVU580
 1788 0274 002B     		cmp	r3, #0
 1789 0276 F7D0     		beq	.L107
 175:./Libraries/STM32_USB_Host_Library/Class/MTP/Src/usbh_mtp_ptp.c ****         {
 1790              		.loc 1 175 15 is_stmt 1 view .LVU581
 175:./Libraries/STM32_USB_Host_Library/Class/MTP/Src/usbh_mtp_ptp.c ****         {
 1791              		.loc 1 175 18 is_stmt 0 view .LVU582
 1792 0278 012B     		cmp	r3, #1
 1793 027a 35D0     		beq	.L136
 179:./Libraries/STM32_USB_Host_Library/Class/MTP/Src/usbh_mtp_ptp.c ****         {
 1794              		.loc 1 179 15 is_stmt 1 view .LVU583
 179:./Libraries/STM32_USB_Host_Library/Class/MTP/Src/usbh_mtp_ptp.c ****         {
 1795              		.loc 1 179 18 is_stmt 0 view .LVU584
 1796 027c 022B     		cmp	r3, #2
 1797 027e D6D1     		bne	.L108
 181:./Libraries/STM32_USB_Host_Library/Class/MTP/Src/usbh_mtp_ptp.c ****         }
 1798              		.loc 1 181 11 is_stmt 1 view .LVU585
 181:./Libraries/STM32_USB_Host_Library/Class/MTP/Src/usbh_mtp_ptp.c ****         }
 1799              		.loc 1 181 33 is_stmt 0 view .LVU586
 1800 0280 0523     		movs	r3, #5
 1801 0282 3B70     		strb	r3, [r7]
 1802 0284 D3E7     		b	.L108
 1803              	.L134:
 412:./Libraries/STM32_USB_Host_Library/Class/MTP/Src/usbh_mtp_ptp.c **** 
 1804              		.loc 1 412 9 is_stmt 1 view .LVU587
 1805              	.LVL158:
 1806              	.LBB70:
 1807              	.LBI70:
 487:./Libraries/STM32_USB_Host_Library/Class/MTP/Src/usbh_mtp_ptp.c **** {
 1808              		.loc 1 487 20 view .LVU588
 1809              	.LBB71:
 489:./Libraries/STM32_USB_Host_Library/Class/MTP/Src/usbh_mtp_ptp.c ****   MTP_HandleTypeDef  *MTP_Handle = (MTP_HandleTypeDef *)phost->pActiveClass->pData;
 1810              		.loc 1 489 3 view .LVU589
 490:./Libraries/STM32_USB_Host_Library/Class/MTP/Src/usbh_mtp_ptp.c **** 
 1811              		.loc 1 490 3 view .LVU590
 493:./Libraries/STM32_USB_Host_Library/Class/MTP/Src/usbh_mtp_ptp.c ****   resp->SessionID = MTP_Handle->ptp.session_id;
 1812              		.loc 1 493 3 view .LVU591
 494:./Libraries/STM32_USB_Host_Library/Class/MTP/Src/usbh_mtp_ptp.c ****   resp->Transaction_ID = MTP_Handle->ptp.resp_container.trans_id;
 1813              		.loc 1 494 3 view .LVU592
 495:./Libraries/STM32_USB_Host_Library/Class/MTP/Src/usbh_mtp_ptp.c ****   resp->Param1 = MTP_Handle->ptp.resp_container.param1;
 1814              		.loc 1 495 3 view .LVU593
 496:./Libraries/STM32_USB_Host_Library/Class/MTP/Src/usbh_mtp_ptp.c ****   resp->Param2 = MTP_Handle->ptp.resp_container.param2;
 1815              		.loc 1 496 3 view .LVU594
 497:./Libraries/STM32_USB_Host_Library/Class/MTP/Src/usbh_mtp_ptp.c ****   resp->Param3 = MTP_Handle->ptp.resp_container.param3;
 1816              		.loc 1 497 3 view .LVU595
 498:./Libraries/STM32_USB_Host_Library/Class/MTP/Src/usbh_mtp_ptp.c ****   resp->Param4 = MTP_Handle->ptp.resp_container.param4;
ARM GAS  /tmp/ccSE0mVF.s 			page 59


 1817              		.loc 1 498 3 view .LVU596
 499:./Libraries/STM32_USB_Host_Library/Class/MTP/Src/usbh_mtp_ptp.c ****   resp->Param5 = MTP_Handle->ptp.resp_container.param5;
 1818              		.loc 1 499 3 view .LVU597
 500:./Libraries/STM32_USB_Host_Library/Class/MTP/Src/usbh_mtp_ptp.c **** 
 1819              		.loc 1 500 3 view .LVU598
 502:./Libraries/STM32_USB_Host_Library/Class/MTP/Src/usbh_mtp_ptp.c **** }
 1820              		.loc 1 502 3 view .LVU599
 502:./Libraries/STM32_USB_Host_Library/Class/MTP/Src/usbh_mtp_ptp.c **** }
 1821              		.loc 1 502 3 is_stmt 0 view .LVU600
 1822              	.LBE71:
 1823              	.LBE70:
 414:./Libraries/STM32_USB_Host_Library/Class/MTP/Src/usbh_mtp_ptp.c ****         {
 1824              		.loc 1 414 9 is_stmt 1 view .LVU601
 1825              	.LBB74:
 1826              	.LBB72:
 490:./Libraries/STM32_USB_Host_Library/Class/MTP/Src/usbh_mtp_ptp.c **** 
 1827              		.loc 1 490 23 is_stmt 0 view .LVU602
 1828 0286 D5F87C44 		ldr	r4, [r5, #1148]
 493:./Libraries/STM32_USB_Host_Library/Class/MTP/Src/usbh_mtp_ptp.c ****   resp->SessionID = MTP_Handle->ptp.session_id;
 1829              		.loc 1 493 46 view .LVU603
 1830 028a 42F28A11 		movw	r1, #8586
 1831              	.LBE72:
 1832              	.LBE74:
 414:./Libraries/STM32_USB_Host_Library/Class/MTP/Src/usbh_mtp_ptp.c ****         {
 1833              		.loc 1 414 12 view .LVU604
 1834 028e 42F20103 		movw	r3, #8193
 422:./Libraries/STM32_USB_Host_Library/Class/MTP/Src/usbh_mtp_ptp.c ****       }
 1835              		.loc 1 422 35 view .LVU605
 1836 0292 41F66152 		movw	r2, #7521
 1837              	.LBB75:
 1838              	.LBB73:
 493:./Libraries/STM32_USB_Host_Library/Class/MTP/Src/usbh_mtp_ptp.c ****   resp->SessionID = MTP_Handle->ptp.session_id;
 1839              		.loc 1 493 46 view .LVU606
 1840 0296 E469     		ldr	r4, [r4, #28]
 1841              	.LBE73:
 1842              	.LBE75:
 414:./Libraries/STM32_USB_Host_Library/Class/MTP/Src/usbh_mtp_ptp.c ****         {
 1843              		.loc 1 414 12 view .LVU607
 1844 0298 645A     		ldrh	r4, [r4, r1]
 422:./Libraries/STM32_USB_Host_Library/Class/MTP/Src/usbh_mtp_ptp.c ****       }
 1845              		.loc 1 422 35 view .LVU608
 1846 029a B054     		strb	r0, [r6, r2]
 1847              	.LVL159:
 420:./Libraries/STM32_USB_Host_Library/Class/MTP/Src/usbh_mtp_ptp.c ****         }
 1848              		.loc 1 420 18 view .LVU609
 1849 029c 9C42     		cmp	r4, r3
 1850 029e 14BF     		ite	ne
 1851 02a0 0224     		movne	r4, #2
 1852 02a2 0024     		moveq	r4, #0
 1853              	.LVL160:
 422:./Libraries/STM32_USB_Host_Library/Class/MTP/Src/usbh_mtp_ptp.c ****       }
 1854              		.loc 1 422 9 is_stmt 1 view .LVU610
 1855 02a4 D0E6     		b	.L87
 1856              	.LVL161:
 1857              	.L114:
 366:./Libraries/STM32_USB_Host_Library/Class/MTP/Src/usbh_mtp_ptp.c ****           MTP_Handle->ptp.state = PTP_RESPONSE_STATE;
 1858              		.loc 1 366 11 view .LVU611
ARM GAS  /tmp/ccSE0mVF.s 			page 60


 366:./Libraries/STM32_USB_Host_Library/Class/MTP/Src/usbh_mtp_ptp.c ****           MTP_Handle->ptp.state = PTP_RESPONSE_STATE;
 1859              		.loc 1 366 39 is_stmt 0 view .LVU612
 1860 02a6 1B1A     		subs	r3, r3, r0
 1861 02a8 42F2B411 		movw	r1, #8628
 367:./Libraries/STM32_USB_Host_Library/Class/MTP/Src/usbh_mtp_ptp.c **** 
 1862              		.loc 1 367 33 view .LVU613
 1863 02ac 0722     		movs	r2, #7
 370:./Libraries/STM32_USB_Host_Library/Class/MTP/Src/usbh_mtp_ptp.c **** #if (osCMSIS < 0x20000U)
 1864              		.loc 1 370 25 view .LVU614
 1865 02ae 4FF0020C 		mov	ip, #2
 366:./Libraries/STM32_USB_Host_Library/Class/MTP/Src/usbh_mtp_ptp.c ****           MTP_Handle->ptp.state = PTP_RESPONSE_STATE;
 1866              		.loc 1 366 39 view .LVU615
 1867 02b2 7350     		str	r3, [r6, r1]
 367:./Libraries/STM32_USB_Host_Library/Class/MTP/Src/usbh_mtp_ptp.c **** 
 1868              		.loc 1 367 11 is_stmt 1 view .LVU616
 374:./Libraries/STM32_USB_Host_Library/Class/MTP/Src/usbh_mtp_ptp.c **** #endif
 1869              		.loc 1 374 17 is_stmt 0 view .LVU617
 1870 02b4 0023     		movs	r3, #0
 367:./Libraries/STM32_USB_Host_Library/Class/MTP/Src/usbh_mtp_ptp.c **** 
 1871              		.loc 1 367 33 view .LVU618
 1872 02b6 3A70     		strb	r2, [r7]
 370:./Libraries/STM32_USB_Host_Library/Class/MTP/Src/usbh_mtp_ptp.c **** #if (osCMSIS < 0x20000U)
 1873              		.loc 1 370 11 is_stmt 1 view .LVU619
 374:./Libraries/STM32_USB_Host_Library/Class/MTP/Src/usbh_mtp_ptp.c **** #endif
 1874              		.loc 1 374 17 is_stmt 0 view .LVU620
 1875 02b8 05F59C61 		add	r1, r5, #1248
 1876 02bc D5F8D804 		ldr	r0, [r5, #1240]
 1877              	.LVL162:
 374:./Libraries/STM32_USB_Host_Library/Class/MTP/Src/usbh_mtp_ptp.c **** #endif
 1878              		.loc 1 374 17 view .LVU621
 1879 02c0 1A46     		mov	r2, r3
 370:./Libraries/STM32_USB_Host_Library/Class/MTP/Src/usbh_mtp_ptp.c **** #if (osCMSIS < 0x20000U)
 1880              		.loc 1 370 25 view .LVU622
 1881 02c2 C5F8E0C4 		str	ip, [r5, #1248]
 374:./Libraries/STM32_USB_Host_Library/Class/MTP/Src/usbh_mtp_ptp.c **** #endif
 1882              		.loc 1 374 11 is_stmt 1 view .LVU623
 374:./Libraries/STM32_USB_Host_Library/Class/MTP/Src/usbh_mtp_ptp.c **** #endif
 1883              		.loc 1 374 17 is_stmt 0 view .LVU624
 1884 02c6 FFF7FEFF 		bl	osMessageQueuePut
 1885              	.LVL163:
 1886 02ca BDE6     		b	.L87
 1887              	.LVL164:
 1888              	.L131:
 199:./Libraries/STM32_USB_Host_Library/Class/MTP/Src/usbh_mtp_ptp.c **** 
 1889              		.loc 1 199 9 is_stmt 1 view .LVU625
 199:./Libraries/STM32_USB_Host_Library/Class/MTP/Src/usbh_mtp_ptp.c **** 
 1890              		.loc 1 199 31 is_stmt 0 view .LVU626
 1891 02cc 0120     		movs	r0, #1
 1892              	.LVL165:
 206:./Libraries/STM32_USB_Host_Library/Class/MTP/Src/usbh_mtp_ptp.c **** #endif
 1893              		.loc 1 206 15 view .LVU627
 1894 02ce 0023     		movs	r3, #0
 1895 02d0 05F59C61 		add	r1, r5, #1248
 199:./Libraries/STM32_USB_Host_Library/Class/MTP/Src/usbh_mtp_ptp.c **** 
 1896              		.loc 1 199 31 view .LVU628
 1897 02d4 3870     		strb	r0, [r7]
 202:./Libraries/STM32_USB_Host_Library/Class/MTP/Src/usbh_mtp_ptp.c **** #if (osCMSIS < 0x20000U)
ARM GAS  /tmp/ccSE0mVF.s 			page 61


 1898              		.loc 1 202 9 is_stmt 1 view .LVU629
 1899 02d6 F9E6     		b	.L128
 1900              	.LVL166:
 1901              	.L112:
 341:./Libraries/STM32_USB_Host_Library/Class/MTP/Src/usbh_mtp_ptp.c ****           MTP_Handle->ptp.iteration = 0U;
 1902              		.loc 1 341 11 view .LVU630
 341:./Libraries/STM32_USB_Host_Library/Class/MTP/Src/usbh_mtp_ptp.c ****           MTP_Handle->ptp.iteration = 0U;
 1903              		.loc 1 341 41 is_stmt 0 view .LVU631
 1904 02d8 42F2B013 		movw	r3, #8624
 342:./Libraries/STM32_USB_Host_Library/Class/MTP/Src/usbh_mtp_ptp.c ****         }
 1905              		.loc 1 342 37 view .LVU632
 1906 02dc 42F2BC11 		movw	r1, #8636
 341:./Libraries/STM32_USB_Host_Library/Class/MTP/Src/usbh_mtp_ptp.c ****           MTP_Handle->ptp.iteration = 0U;
 1907              		.loc 1 341 41 view .LVU633
 1908 02e0 F358     		ldr	r3, [r6, r3]
 1909 02e2 1B68     		ldr	r3, [r3]
 342:./Libraries/STM32_USB_Host_Library/Class/MTP/Src/usbh_mtp_ptp.c ****         }
 1910              		.loc 1 342 11 is_stmt 1 view .LVU634
 342:./Libraries/STM32_USB_Host_Library/Class/MTP/Src/usbh_mtp_ptp.c ****         }
 1911              		.loc 1 342 37 is_stmt 0 view .LVU635
 1912 02e4 7250     		str	r2, [r6, r1]
 1913 02e6 25E7     		b	.L113
 1914              	.LVL167:
 1915              	.L136:
 177:./Libraries/STM32_USB_Host_Library/Class/MTP/Src/usbh_mtp_ptp.c ****         }
 1916              		.loc 1 177 11 is_stmt 1 view .LVU636
 177:./Libraries/STM32_USB_Host_Library/Class/MTP/Src/usbh_mtp_ptp.c ****         }
 1917              		.loc 1 177 33 is_stmt 0 view .LVU637
 1918 02e8 0323     		movs	r3, #3
 1919 02ea 3B70     		strb	r3, [r7]
 1920 02ec 9FE7     		b	.L108
 1921              	.LVL168:
 1922              	.L133:
 353:./Libraries/STM32_USB_Host_Library/Class/MTP/Src/usbh_mtp_ptp.c ****             MTP_Handle->ptp.data_packet = 0U;
 1923              		.loc 1 353 13 is_stmt 1 view .LVU638
 1924 02ee 2846     		mov	r0, r5
 354:./Libraries/STM32_USB_Host_Library/Class/MTP/Src/usbh_mtp_ptp.c ****             MTP_Handle->ptp.iteration++;
 1925              		.loc 1 354 41 is_stmt 0 view .LVU639
 1926 02f0 0027     		movs	r7, #0
 353:./Libraries/STM32_USB_Host_Library/Class/MTP/Src/usbh_mtp_ptp.c ****             MTP_Handle->ptp.data_packet = 0U;
 1927              		.loc 1 353 13 view .LVU640
 1928 02f2 FFF7FEFF 		bl	PTP_BufferFullCallback
 1929              	.LVL169:
 354:./Libraries/STM32_USB_Host_Library/Class/MTP/Src/usbh_mtp_ptp.c ****             MTP_Handle->ptp.iteration++;
 1930              		.loc 1 354 13 is_stmt 1 view .LVU641
 355:./Libraries/STM32_USB_Host_Library/Class/MTP/Src/usbh_mtp_ptp.c ****           }
 1931              		.loc 1 355 38 is_stmt 0 view .LVU642
 1932 02f6 42F2BC10 		movw	r0, #8636
 1933 02fa 56F80A10 		ldr	r1, [r6, r10]
 1934 02fe 3358     		ldr	r3, [r6, r0]
 1935 0300 36F80820 		ldrh	r2, [r6, r8]
 1936 0304 0133     		adds	r3, r3, #1
 354:./Libraries/STM32_USB_Host_Library/Class/MTP/Src/usbh_mtp_ptp.c ****             MTP_Handle->ptp.iteration++;
 1937              		.loc 1 354 41 view .LVU643
 1938 0306 46F80970 		str	r7, [r6, r9]
 355:./Libraries/STM32_USB_Host_Library/Class/MTP/Src/usbh_mtp_ptp.c ****           }
 1939              		.loc 1 355 13 is_stmt 1 view .LVU644
ARM GAS  /tmp/ccSE0mVF.s 			page 62


 355:./Libraries/STM32_USB_Host_Library/Class/MTP/Src/usbh_mtp_ptp.c ****           }
 1940              		.loc 1 355 38 is_stmt 0 view .LVU645
 1941 030a 3350     		str	r3, [r6, r0]
 1942 030c 33E7     		b	.L115
 1943              		.cfi_endproc
 1944              	.LFE339:
 1946 030e 00BF     		.section	.text.USBH_PTP_SendRequest,"ax",%progbits
 1947              		.align	1
 1948              		.p2align 2,,3
 1949              		.global	USBH_PTP_SendRequest
 1950              		.syntax unified
 1951              		.thumb
 1952              		.thumb_func
 1953              		.fpu fpv5-d16
 1955              	USBH_PTP_SendRequest:
 1956              	.LVL170:
 1957              	.LFB340:
 460:./Libraries/STM32_USB_Host_Library/Class/MTP/Src/usbh_mtp_ptp.c ****   USBH_StatusTypeDef status = USBH_OK;
 1958              		.loc 1 460 1 is_stmt 1 view -0
 1959              		.cfi_startproc
 1960              		@ args = 0, pretend = 0, frame = 0
 1961              		@ frame_needed = 0, uses_anonymous_args = 0
 461:./Libraries/STM32_USB_Host_Library/Class/MTP/Src/usbh_mtp_ptp.c ****   MTP_HandleTypeDef *MTP_Handle = (MTP_HandleTypeDef *)phost->pActiveClass->pData;
 1962              		.loc 1 461 3 view .LVU647
 462:./Libraries/STM32_USB_Host_Library/Class/MTP/Src/usbh_mtp_ptp.c **** 
 1963              		.loc 1 462 3 view .LVU648
 460:./Libraries/STM32_USB_Host_Library/Class/MTP/Src/usbh_mtp_ptp.c ****   USBH_StatusTypeDef status = USBH_OK;
 1964              		.loc 1 460 1 is_stmt 0 view .LVU649
 1965 0000 F8B5     		push	{r3, r4, r5, r6, r7, lr}
 1966              	.LCFI26:
 1967              		.cfi_def_cfa_offset 24
 1968              		.cfi_offset 3, -24
 1969              		.cfi_offset 4, -20
 1970              		.cfi_offset 5, -16
 1971              		.cfi_offset 6, -12
 1972              		.cfi_offset 7, -8
 1973              		.cfi_offset 14, -4
 462:./Libraries/STM32_USB_Host_Library/Class/MTP/Src/usbh_mtp_ptp.c **** 
 1974              		.loc 1 462 22 view .LVU650
 1975 0002 D0F87C34 		ldr	r3, [r0, #1148]
 465:./Libraries/STM32_USB_Host_Library/Class/MTP/Src/usbh_mtp_ptp.c **** 
 1976              		.loc 1 465 3 view .LVU651
 1977 0006 41F66456 		movw	r6, #7524
 460:./Libraries/STM32_USB_Host_Library/Class/MTP/Src/usbh_mtp_ptp.c ****   USBH_StatusTypeDef status = USBH_OK;
 1978              		.loc 1 460 1 view .LVU652
 1979 000a 0D46     		mov	r5, r1
 465:./Libraries/STM32_USB_Host_Library/Class/MTP/Src/usbh_mtp_ptp.c **** 
 1980              		.loc 1 465 3 view .LVU653
 1981 000c 2022     		movs	r2, #32
 462:./Libraries/STM32_USB_Host_Library/Class/MTP/Src/usbh_mtp_ptp.c **** 
 1982              		.loc 1 462 22 view .LVU654
 1983 000e DC69     		ldr	r4, [r3, #28]
 1984              	.LVL171:
 465:./Libraries/STM32_USB_Host_Library/Class/MTP/Src/usbh_mtp_ptp.c **** 
 1985              		.loc 1 465 3 is_stmt 1 view .LVU655
 1986 0010 0021     		movs	r1, #0
 1987              	.LVL172:
ARM GAS  /tmp/ccSE0mVF.s 			page 63


 474:./Libraries/STM32_USB_Host_Library/Class/MTP/Src/usbh_mtp_ptp.c ****   MTP_Handle->ptp.op_container.param4 = req->Param4;
 1988              		.loc 1 474 39 is_stmt 0 view .LVU656
 1989 0012 41F67857 		movw	r7, #7544
 465:./Libraries/STM32_USB_Host_Library/Class/MTP/Src/usbh_mtp_ptp.c **** 
 1990              		.loc 1 465 3 view .LVU657
 1991 0016 A019     		adds	r0, r4, r6
 1992              	.LVL173:
 465:./Libraries/STM32_USB_Host_Library/Class/MTP/Src/usbh_mtp_ptp.c **** 
 1993              		.loc 1 465 3 view .LVU658
 1994 0018 FFF7FEFF 		bl	memset
 1995              	.LVL174:
 468:./Libraries/STM32_USB_Host_Library/Class/MTP/Src/usbh_mtp_ptp.c ****   MTP_Handle->ptp.op_container.type = PTP_USB_CONTAINER_COMMAND;
 1996              		.loc 1 468 3 is_stmt 1 view .LVU659
 468:./Libraries/STM32_USB_Host_Library/Class/MTP/Src/usbh_mtp_ptp.c ****   MTP_Handle->ptp.op_container.type = PTP_USB_CONTAINER_COMMAND;
 1997              		.loc 1 468 93 is_stmt 0 view .LVU660
 1998 001c 95F82030 		ldrb	r3, [r5, #32]	@ zero_extendqisi2
 469:./Libraries/STM32_USB_Host_Library/Class/MTP/Src/usbh_mtp_ptp.c ****   MTP_Handle->ptp.op_container.code = req->Code;
 1999              		.loc 1 469 37 view .LVU661
 2000 0020 41F66852 		movw	r2, #7528
 2001 0024 0120     		movs	r0, #1
 470:./Libraries/STM32_USB_Host_Library/Class/MTP/Src/usbh_mtp_ptp.c ****   MTP_Handle->ptp.op_container.trans_id = req->Transaction_ID;
 2002              		.loc 1 470 37 view .LVU662
 2003 0026 2988     		ldrh	r1, [r5]
 468:./Libraries/STM32_USB_Host_Library/Class/MTP/Src/usbh_mtp_ptp.c ****   MTP_Handle->ptp.op_container.type = PTP_USB_CONTAINER_COMMAND;
 2004              		.loc 1 468 62 view .LVU663
 2005 0028 0333     		adds	r3, r3, #3
 469:./Libraries/STM32_USB_Host_Library/Class/MTP/Src/usbh_mtp_ptp.c ****   MTP_Handle->ptp.op_container.code = req->Code;
 2006              		.loc 1 469 37 view .LVU664
 2007 002a A052     		strh	r0, [r4, r2]	@ movhi
 470:./Libraries/STM32_USB_Host_Library/Class/MTP/Src/usbh_mtp_ptp.c ****   MTP_Handle->ptp.op_container.trans_id = req->Transaction_ID;
 2008              		.loc 1 470 37 view .LVU665
 2009 002c 41F66A52 		movw	r2, #7530
 471:./Libraries/STM32_USB_Host_Library/Class/MTP/Src/usbh_mtp_ptp.c ****   MTP_Handle->ptp.op_container.param1 = req->Param1;
 2010              		.loc 1 471 41 view .LVU666
 2011 0030 A868     		ldr	r0, [r5, #8]
 468:./Libraries/STM32_USB_Host_Library/Class/MTP/Src/usbh_mtp_ptp.c ****   MTP_Handle->ptp.op_container.type = PTP_USB_CONTAINER_COMMAND;
 2012              		.loc 1 468 62 view .LVU667
 2013 0032 9B00     		lsls	r3, r3, #2
 470:./Libraries/STM32_USB_Host_Library/Class/MTP/Src/usbh_mtp_ptp.c ****   MTP_Handle->ptp.op_container.trans_id = req->Transaction_ID;
 2014              		.loc 1 470 37 view .LVU668
 2015 0034 A152     		strh	r1, [r4, r2]	@ movhi
 471:./Libraries/STM32_USB_Host_Library/Class/MTP/Src/usbh_mtp_ptp.c ****   MTP_Handle->ptp.op_container.param1 = req->Param1;
 2016              		.loc 1 471 41 view .LVU669
 2017 0036 41F66C51 		movw	r1, #7532
 472:./Libraries/STM32_USB_Host_Library/Class/MTP/Src/usbh_mtp_ptp.c ****   MTP_Handle->ptp.op_container.param2 = req->Param2;
 2018              		.loc 1 472 39 view .LVU670
 2019 003a D5F80CE0 		ldr	lr, [r5, #12]
 2020 003e 41F6705C 		movw	ip, #7536
 468:./Libraries/STM32_USB_Host_Library/Class/MTP/Src/usbh_mtp_ptp.c ****   MTP_Handle->ptp.op_container.type = PTP_USB_CONTAINER_COMMAND;
 2021              		.loc 1 468 39 view .LVU671
 2022 0042 A351     		str	r3, [r4, r6]
 469:./Libraries/STM32_USB_Host_Library/Class/MTP/Src/usbh_mtp_ptp.c ****   MTP_Handle->ptp.op_container.code = req->Code;
 2023              		.loc 1 469 3 is_stmt 1 view .LVU672
 470:./Libraries/STM32_USB_Host_Library/Class/MTP/Src/usbh_mtp_ptp.c ****   MTP_Handle->ptp.op_container.trans_id = req->Transaction_ID;
 2024              		.loc 1 470 3 view .LVU673
 471:./Libraries/STM32_USB_Host_Library/Class/MTP/Src/usbh_mtp_ptp.c ****   MTP_Handle->ptp.op_container.param1 = req->Param1;
 2025              		.loc 1 471 3 view .LVU674
ARM GAS  /tmp/ccSE0mVF.s 			page 64


 473:./Libraries/STM32_USB_Host_Library/Class/MTP/Src/usbh_mtp_ptp.c ****   MTP_Handle->ptp.op_container.param3 = req->Param3;
 2026              		.loc 1 473 39 is_stmt 0 view .LVU675
 2027 0044 41F67452 		movw	r2, #7540
 471:./Libraries/STM32_USB_Host_Library/Class/MTP/Src/usbh_mtp_ptp.c ****   MTP_Handle->ptp.op_container.param1 = req->Param1;
 2028              		.loc 1 471 41 view .LVU676
 2029 0048 6050     		str	r0, [r4, r1]
 472:./Libraries/STM32_USB_Host_Library/Class/MTP/Src/usbh_mtp_ptp.c ****   MTP_Handle->ptp.op_container.param2 = req->Param2;
 2030              		.loc 1 472 3 is_stmt 1 view .LVU677
 476:./Libraries/STM32_USB_Host_Library/Class/MTP/Src/usbh_mtp_ptp.c **** 
 2031              		.loc 1 476 39 is_stmt 0 view .LVU678
 2032 004a 04F5EC53 		add	r3, r4, #7552
 473:./Libraries/STM32_USB_Host_Library/Class/MTP/Src/usbh_mtp_ptp.c ****   MTP_Handle->ptp.op_container.param3 = req->Param3;
 2033              		.loc 1 473 39 view .LVU679
 2034 004e 2869     		ldr	r0, [r5, #16]
 475:./Libraries/STM32_USB_Host_Library/Class/MTP/Src/usbh_mtp_ptp.c ****   MTP_Handle->ptp.op_container.param5 = req->Param5;
 2035              		.loc 1 475 39 view .LVU680
 2036 0050 41F67C51 		movw	r1, #7548
 472:./Libraries/STM32_USB_Host_Library/Class/MTP/Src/usbh_mtp_ptp.c ****   MTP_Handle->ptp.op_container.param2 = req->Param2;
 2037              		.loc 1 472 39 view .LVU681
 2038 0054 44F80CE0 		str	lr, [r4, ip]
 473:./Libraries/STM32_USB_Host_Library/Class/MTP/Src/usbh_mtp_ptp.c ****   MTP_Handle->ptp.op_container.param3 = req->Param3;
 2039              		.loc 1 473 3 is_stmt 1 view .LVU682
 473:./Libraries/STM32_USB_Host_Library/Class/MTP/Src/usbh_mtp_ptp.c ****   MTP_Handle->ptp.op_container.param3 = req->Param3;
 2040              		.loc 1 473 39 is_stmt 0 view .LVU683
 2041 0058 A050     		str	r0, [r4, r2]
 474:./Libraries/STM32_USB_Host_Library/Class/MTP/Src/usbh_mtp_ptp.c ****   MTP_Handle->ptp.op_container.param4 = req->Param4;
 2042              		.loc 1 474 3 is_stmt 1 view .LVU684
 479:./Libraries/STM32_USB_Host_Library/Class/MTP/Src/usbh_mtp_ptp.c **** 
 2043              		.loc 1 479 1 is_stmt 0 view .LVU685
 2044 005a 0020     		movs	r0, #0
 476:./Libraries/STM32_USB_Host_Library/Class/MTP/Src/usbh_mtp_ptp.c **** 
 2045              		.loc 1 476 39 view .LVU686
 2046 005c EA69     		ldr	r2, [r5, #28]
 475:./Libraries/STM32_USB_Host_Library/Class/MTP/Src/usbh_mtp_ptp.c ****   MTP_Handle->ptp.op_container.param5 = req->Param5;
 2047              		.loc 1 475 39 view .LVU687
 2048 005e D5E905C6 		ldrd	ip, r6, [r5, #20]
 474:./Libraries/STM32_USB_Host_Library/Class/MTP/Src/usbh_mtp_ptp.c ****   MTP_Handle->ptp.op_container.param4 = req->Param4;
 2049              		.loc 1 474 39 view .LVU688
 2050 0062 44F807C0 		str	ip, [r4, r7]
 475:./Libraries/STM32_USB_Host_Library/Class/MTP/Src/usbh_mtp_ptp.c ****   MTP_Handle->ptp.op_container.param5 = req->Param5;
 2051              		.loc 1 475 3 is_stmt 1 view .LVU689
 475:./Libraries/STM32_USB_Host_Library/Class/MTP/Src/usbh_mtp_ptp.c ****   MTP_Handle->ptp.op_container.param5 = req->Param5;
 2052              		.loc 1 475 39 is_stmt 0 view .LVU690
 2053 0066 6650     		str	r6, [r4, r1]
 476:./Libraries/STM32_USB_Host_Library/Class/MTP/Src/usbh_mtp_ptp.c **** 
 2054              		.loc 1 476 3 is_stmt 1 view .LVU691
 476:./Libraries/STM32_USB_Host_Library/Class/MTP/Src/usbh_mtp_ptp.c **** 
 2055              		.loc 1 476 39 is_stmt 0 view .LVU692
 2056 0068 1A60     		str	r2, [r3]
 478:./Libraries/STM32_USB_Host_Library/Class/MTP/Src/usbh_mtp_ptp.c **** }
 2057              		.loc 1 478 3 is_stmt 1 view .LVU693
 479:./Libraries/STM32_USB_Host_Library/Class/MTP/Src/usbh_mtp_ptp.c **** 
 2058              		.loc 1 479 1 is_stmt 0 view .LVU694
 2059 006a F8BD     		pop	{r3, r4, r5, r6, r7, pc}
 479:./Libraries/STM32_USB_Host_Library/Class/MTP/Src/usbh_mtp_ptp.c **** 
 2060              		.loc 1 479 1 view .LVU695
 2061              		.cfi_endproc
ARM GAS  /tmp/ccSE0mVF.s 			page 65


 2062              	.LFE340:
 2064              		.section	.text.USBH_PTP_GetResponse,"ax",%progbits
 2065              		.align	1
 2066              		.p2align 2,,3
 2067              		.global	USBH_PTP_GetResponse
 2068              		.syntax unified
 2069              		.thumb
 2070              		.thumb_func
 2071              		.fpu fpv5-d16
 2073              	USBH_PTP_GetResponse:
 2074              	.LVL175:
 2075              	.LFB341:
 488:./Libraries/STM32_USB_Host_Library/Class/MTP/Src/usbh_mtp_ptp.c ****   USBH_StatusTypeDef status = USBH_OK;
 2076              		.loc 1 488 1 is_stmt 1 view -0
 2077              		.cfi_startproc
 2078              		@ args = 0, pretend = 0, frame = 0
 2079              		@ frame_needed = 0, uses_anonymous_args = 0
 489:./Libraries/STM32_USB_Host_Library/Class/MTP/Src/usbh_mtp_ptp.c ****   MTP_HandleTypeDef  *MTP_Handle = (MTP_HandleTypeDef *)phost->pActiveClass->pData;
 2080              		.loc 1 489 3 view .LVU697
 490:./Libraries/STM32_USB_Host_Library/Class/MTP/Src/usbh_mtp_ptp.c **** 
 2081              		.loc 1 490 3 view .LVU698
 490:./Libraries/STM32_USB_Host_Library/Class/MTP/Src/usbh_mtp_ptp.c **** 
 2082              		.loc 1 490 23 is_stmt 0 view .LVU699
 2083 0000 D0F87C34 		ldr	r3, [r0, #1148]
 493:./Libraries/STM32_USB_Host_Library/Class/MTP/Src/usbh_mtp_ptp.c ****   resp->SessionID = MTP_Handle->ptp.session_id;
 2084              		.loc 1 493 46 view .LVU700
 2085 0004 42F28A1C 		movw	ip, #8586
 496:./Libraries/STM32_USB_Host_Library/Class/MTP/Src/usbh_mtp_ptp.c ****   resp->Param2 = MTP_Handle->ptp.resp_container.param2;
 2086              		.loc 1 496 48 view .LVU701
 2087 0008 42F29010 		movw	r0, #8592
 2088              	.LVL176:
 499:./Libraries/STM32_USB_Host_Library/Class/MTP/Src/usbh_mtp_ptp.c ****   resp->Param5 = MTP_Handle->ptp.resp_container.param5;
 2089              		.loc 1 499 48 view .LVU702
 2090 000c 42F29C12 		movw	r2, #8604
 490:./Libraries/STM32_USB_Host_Library/Class/MTP/Src/usbh_mtp_ptp.c **** 
 2091              		.loc 1 490 23 view .LVU703
 2092 0010 DB69     		ldr	r3, [r3, #28]
 2093              	.LVL177:
 493:./Libraries/STM32_USB_Host_Library/Class/MTP/Src/usbh_mtp_ptp.c ****   resp->SessionID = MTP_Handle->ptp.session_id;
 2094              		.loc 1 493 3 is_stmt 1 view .LVU704
 488:./Libraries/STM32_USB_Host_Library/Class/MTP/Src/usbh_mtp_ptp.c ****   USBH_StatusTypeDef status = USBH_OK;
 2095              		.loc 1 488 1 is_stmt 0 view .LVU705
 2096 0012 F0B5     		push	{r4, r5, r6, r7, lr}
 2097              	.LCFI27:
 2098              		.cfi_def_cfa_offset 20
 2099              		.cfi_offset 4, -20
 2100              		.cfi_offset 5, -16
 2101              		.cfi_offset 6, -12
 2102              		.cfi_offset 7, -8
 2103              		.cfi_offset 14, -4
 493:./Libraries/STM32_USB_Host_Library/Class/MTP/Src/usbh_mtp_ptp.c ****   resp->SessionID = MTP_Handle->ptp.session_id;
 2104              		.loc 1 493 14 view .LVU706
 2105 0014 33F80CE0 		ldrh	lr, [r3, ip]
 494:./Libraries/STM32_USB_Host_Library/Class/MTP/Src/usbh_mtp_ptp.c ****   resp->Transaction_ID = MTP_Handle->ptp.resp_container.trans_id;
 2106              		.loc 1 494 36 view .LVU707
 2107 0018 42F2A817 		movw	r7, #8616
 500:./Libraries/STM32_USB_Host_Library/Class/MTP/Src/usbh_mtp_ptp.c **** 
ARM GAS  /tmp/ccSE0mVF.s 			page 66


 2108              		.loc 1 500 48 view .LVU708
 2109 001c 42F2A01C 		movw	ip, #8608
 495:./Libraries/STM32_USB_Host_Library/Class/MTP/Src/usbh_mtp_ptp.c ****   resp->Param1 = MTP_Handle->ptp.resp_container.param1;
 2110              		.loc 1 495 56 view .LVU709
 2111 0020 42F28C16 		movw	r6, #8588
 497:./Libraries/STM32_USB_Host_Library/Class/MTP/Src/usbh_mtp_ptp.c ****   resp->Param3 = MTP_Handle->ptp.resp_container.param3;
 2112              		.loc 1 497 48 view .LVU710
 2113 0024 42F29415 		movw	r5, #8596
 498:./Libraries/STM32_USB_Host_Library/Class/MTP/Src/usbh_mtp_ptp.c ****   resp->Param4 = MTP_Handle->ptp.resp_container.param4;
 2114              		.loc 1 498 48 view .LVU711
 2115 0028 42F29814 		movw	r4, #8600
 496:./Libraries/STM32_USB_Host_Library/Class/MTP/Src/usbh_mtp_ptp.c ****   resp->Param2 = MTP_Handle->ptp.resp_container.param2;
 2116              		.loc 1 496 16 view .LVU712
 2117 002c 1858     		ldr	r0, [r3, r0]
 494:./Libraries/STM32_USB_Host_Library/Class/MTP/Src/usbh_mtp_ptp.c ****   resp->Transaction_ID = MTP_Handle->ptp.resp_container.trans_id;
 2118              		.loc 1 494 19 view .LVU713
 2119 002e DF59     		ldr	r7, [r3, r7]
 495:./Libraries/STM32_USB_Host_Library/Class/MTP/Src/usbh_mtp_ptp.c ****   resp->Param1 = MTP_Handle->ptp.resp_container.param1;
 2120              		.loc 1 495 24 view .LVU714
 2121 0030 9E59     		ldr	r6, [r3, r6]
 497:./Libraries/STM32_USB_Host_Library/Class/MTP/Src/usbh_mtp_ptp.c ****   resp->Param3 = MTP_Handle->ptp.resp_container.param3;
 2122              		.loc 1 497 16 view .LVU715
 2123 0032 5D59     		ldr	r5, [r3, r5]
 498:./Libraries/STM32_USB_Host_Library/Class/MTP/Src/usbh_mtp_ptp.c ****   resp->Param4 = MTP_Handle->ptp.resp_container.param4;
 2124              		.loc 1 498 16 view .LVU716
 2125 0034 1C59     		ldr	r4, [r3, r4]
 499:./Libraries/STM32_USB_Host_Library/Class/MTP/Src/usbh_mtp_ptp.c ****   resp->Param5 = MTP_Handle->ptp.resp_container.param5;
 2126              		.loc 1 499 16 view .LVU717
 2127 0036 9A58     		ldr	r2, [r3, r2]
 500:./Libraries/STM32_USB_Host_Library/Class/MTP/Src/usbh_mtp_ptp.c **** 
 2128              		.loc 1 500 16 view .LVU718
 2129 0038 53F80C30 		ldr	r3, [r3, ip]
 2130              	.LVL178:
 493:./Libraries/STM32_USB_Host_Library/Class/MTP/Src/usbh_mtp_ptp.c ****   resp->SessionID = MTP_Handle->ptp.session_id;
 2131              		.loc 1 493 14 view .LVU719
 2132 003c A1F800E0 		strh	lr, [r1]	@ movhi
 494:./Libraries/STM32_USB_Host_Library/Class/MTP/Src/usbh_mtp_ptp.c ****   resp->Transaction_ID = MTP_Handle->ptp.resp_container.trans_id;
 2133              		.loc 1 494 3 is_stmt 1 view .LVU720
 496:./Libraries/STM32_USB_Host_Library/Class/MTP/Src/usbh_mtp_ptp.c ****   resp->Param2 = MTP_Handle->ptp.resp_container.param2;
 2134              		.loc 1 496 16 is_stmt 0 view .LVU721
 2135 0040 C860     		str	r0, [r1, #12]
 503:./Libraries/STM32_USB_Host_Library/Class/MTP/Src/usbh_mtp_ptp.c **** 
 2136              		.loc 1 503 1 view .LVU722
 2137 0042 0020     		movs	r0, #0
 495:./Libraries/STM32_USB_Host_Library/Class/MTP/Src/usbh_mtp_ptp.c ****   resp->Param1 = MTP_Handle->ptp.resp_container.param1;
 2138              		.loc 1 495 24 view .LVU723
 2139 0044 C1E90176 		strd	r7, r6, [r1, #4]
 496:./Libraries/STM32_USB_Host_Library/Class/MTP/Src/usbh_mtp_ptp.c ****   resp->Param2 = MTP_Handle->ptp.resp_container.param2;
 2140              		.loc 1 496 3 is_stmt 1 view .LVU724
 497:./Libraries/STM32_USB_Host_Library/Class/MTP/Src/usbh_mtp_ptp.c ****   resp->Param3 = MTP_Handle->ptp.resp_container.param3;
 2141              		.loc 1 497 3 view .LVU725
 498:./Libraries/STM32_USB_Host_Library/Class/MTP/Src/usbh_mtp_ptp.c ****   resp->Param4 = MTP_Handle->ptp.resp_container.param4;
 2142              		.loc 1 498 16 is_stmt 0 view .LVU726
 2143 0048 C1E90454 		strd	r5, r4, [r1, #16]
 499:./Libraries/STM32_USB_Host_Library/Class/MTP/Src/usbh_mtp_ptp.c ****   resp->Param5 = MTP_Handle->ptp.resp_container.param5;
 2144              		.loc 1 499 3 is_stmt 1 view .LVU727
 500:./Libraries/STM32_USB_Host_Library/Class/MTP/Src/usbh_mtp_ptp.c **** 
ARM GAS  /tmp/ccSE0mVF.s 			page 67


 2145              		.loc 1 500 16 is_stmt 0 view .LVU728
 2146 004c C1E90623 		strd	r2, r3, [r1, #24]
 502:./Libraries/STM32_USB_Host_Library/Class/MTP/Src/usbh_mtp_ptp.c **** }
 2147              		.loc 1 502 3 is_stmt 1 view .LVU729
 503:./Libraries/STM32_USB_Host_Library/Class/MTP/Src/usbh_mtp_ptp.c **** 
 2148              		.loc 1 503 1 is_stmt 0 view .LVU730
 2149 0050 F0BD     		pop	{r4, r5, r6, r7, pc}
 2150              		.cfi_endproc
 2151              	.LFE341:
 2153 0052 00BF     		.section	.text.USBH_PTP_OpenSession,"ax",%progbits
 2154              		.align	1
 2155              		.p2align 2,,3
 2156              		.global	USBH_PTP_OpenSession
 2157              		.syntax unified
 2158              		.thumb
 2159              		.thumb_func
 2160              		.fpu fpv5-d16
 2162              	USBH_PTP_OpenSession:
 2163              	.LVL179:
 2164              	.LFB353:
 935:./Libraries/STM32_USB_Host_Library/Class/MTP/Src/usbh_mtp_ptp.c **** 
 936:./Libraries/STM32_USB_Host_Library/Class/MTP/Src/usbh_mtp_ptp.c **** /*******************************************************************************
 937:./Libraries/STM32_USB_Host_Library/Class/MTP/Src/usbh_mtp_ptp.c **** 
 938:./Libraries/STM32_USB_Host_Library/Class/MTP/Src/usbh_mtp_ptp.c ****                           PTP Requests
 939:./Libraries/STM32_USB_Host_Library/Class/MTP/Src/usbh_mtp_ptp.c **** 
 940:./Libraries/STM32_USB_Host_Library/Class/MTP/Src/usbh_mtp_ptp.c **** *******************************************************************************/
 941:./Libraries/STM32_USB_Host_Library/Class/MTP/Src/usbh_mtp_ptp.c **** /**
 942:./Libraries/STM32_USB_Host_Library/Class/MTP/Src/usbh_mtp_ptp.c ****   * @brief  USBH_PTP_OpenSession
 943:./Libraries/STM32_USB_Host_Library/Class/MTP/Src/usbh_mtp_ptp.c ****   *         Open a new session
 944:./Libraries/STM32_USB_Host_Library/Class/MTP/Src/usbh_mtp_ptp.c ****   * @param  phost: Host handle
 945:./Libraries/STM32_USB_Host_Library/Class/MTP/Src/usbh_mtp_ptp.c ****   * @param  session: Session ID (MUST BE > 0U)
 946:./Libraries/STM32_USB_Host_Library/Class/MTP/Src/usbh_mtp_ptp.c ****   * @retval USBH Status
 947:./Libraries/STM32_USB_Host_Library/Class/MTP/Src/usbh_mtp_ptp.c ****   */
 948:./Libraries/STM32_USB_Host_Library/Class/MTP/Src/usbh_mtp_ptp.c **** USBH_StatusTypeDef USBH_PTP_OpenSession(USBH_HandleTypeDef *phost, uint32_t session)
 949:./Libraries/STM32_USB_Host_Library/Class/MTP/Src/usbh_mtp_ptp.c **** {
 2165              		.loc 1 949 1 is_stmt 1 view -0
 2166              		.cfi_startproc
 2167              		@ args = 0, pretend = 0, frame = 40
 2168              		@ frame_needed = 0, uses_anonymous_args = 0
 950:./Libraries/STM32_USB_Host_Library/Class/MTP/Src/usbh_mtp_ptp.c ****   USBH_StatusTypeDef   status = USBH_BUSY;
 2169              		.loc 1 950 3 view .LVU732
 951:./Libraries/STM32_USB_Host_Library/Class/MTP/Src/usbh_mtp_ptp.c ****   MTP_HandleTypeDef    *MTP_Handle = (MTP_HandleTypeDef *)phost->pActiveClass->pData;
 2170              		.loc 1 951 3 view .LVU733
 949:./Libraries/STM32_USB_Host_Library/Class/MTP/Src/usbh_mtp_ptp.c ****   USBH_StatusTypeDef   status = USBH_BUSY;
 2171              		.loc 1 949 1 is_stmt 0 view .LVU734
 2172 0000 0A46     		mov	r2, r1
 2173              		.loc 1 951 25 view .LVU735
 2174 0002 D0F87C14 		ldr	r1, [r0, #1148]
 2175              	.LVL180:
 952:./Libraries/STM32_USB_Host_Library/Class/MTP/Src/usbh_mtp_ptp.c ****   PTP_ContainerTypedef  ptp_container;
 953:./Libraries/STM32_USB_Host_Library/Class/MTP/Src/usbh_mtp_ptp.c **** 
 954:./Libraries/STM32_USB_Host_Library/Class/MTP/Src/usbh_mtp_ptp.c ****   switch (MTP_Handle->ptp.req_state)
 2176              		.loc 1 954 26 view .LVU736
 2177 0006 41F66153 		movw	r3, #7521
 949:./Libraries/STM32_USB_Host_Library/Class/MTP/Src/usbh_mtp_ptp.c ****   USBH_StatusTypeDef   status = USBH_BUSY;
 2178              		.loc 1 949 1 view .LVU737
 2179 000a F0B5     		push	{r4, r5, r6, r7, lr}
ARM GAS  /tmp/ccSE0mVF.s 			page 68


 2180              	.LCFI28:
 2181              		.cfi_def_cfa_offset 20
 2182              		.cfi_offset 4, -20
 2183              		.cfi_offset 5, -16
 2184              		.cfi_offset 6, -12
 2185              		.cfi_offset 7, -8
 2186              		.cfi_offset 14, -4
 951:./Libraries/STM32_USB_Host_Library/Class/MTP/Src/usbh_mtp_ptp.c ****   PTP_ContainerTypedef  ptp_container;
 2187              		.loc 1 951 25 view .LVU738
 2188 000c CE69     		ldr	r6, [r1, #28]
 2189              	.LVL181:
 952:./Libraries/STM32_USB_Host_Library/Class/MTP/Src/usbh_mtp_ptp.c ****   PTP_ContainerTypedef  ptp_container;
 2190              		.loc 1 952 3 is_stmt 1 view .LVU739
 2191              		.loc 1 954 3 view .LVU740
 949:./Libraries/STM32_USB_Host_Library/Class/MTP/Src/usbh_mtp_ptp.c ****   USBH_StatusTypeDef   status = USBH_BUSY;
 2192              		.loc 1 949 1 is_stmt 0 view .LVU741
 2193 000e 8BB0     		sub	sp, sp, #44
 2194              	.LCFI29:
 2195              		.cfi_def_cfa_offset 64
 2196              		.loc 1 954 26 view .LVU742
 2197 0010 F45C     		ldrb	r4, [r6, r3]	@ zero_extendqisi2
 2198              		.loc 1 954 3 view .LVU743
 2199 0012 012C     		cmp	r4, #1
 2200 0014 0BD0     		beq	.L142
 2201 0016 022C     		cmp	r4, #2
 2202 0018 05D1     		bne	.L146
 955:./Libraries/STM32_USB_Host_Library/Class/MTP/Src/usbh_mtp_ptp.c ****   {
 956:./Libraries/STM32_USB_Host_Library/Class/MTP/Src/usbh_mtp_ptp.c ****     case PTP_REQ_SEND:
 957:./Libraries/STM32_USB_Host_Library/Class/MTP/Src/usbh_mtp_ptp.c ****       /* Init session params */
 958:./Libraries/STM32_USB_Host_Library/Class/MTP/Src/usbh_mtp_ptp.c ****       MTP_Handle->ptp.transaction_id = 0x00000000U;
 959:./Libraries/STM32_USB_Host_Library/Class/MTP/Src/usbh_mtp_ptp.c ****       MTP_Handle->ptp.session_id = session;
 960:./Libraries/STM32_USB_Host_Library/Class/MTP/Src/usbh_mtp_ptp.c ****       MTP_Handle->ptp.flags = PTP_DP_NODATA;
 961:./Libraries/STM32_USB_Host_Library/Class/MTP/Src/usbh_mtp_ptp.c **** 
 962:./Libraries/STM32_USB_Host_Library/Class/MTP/Src/usbh_mtp_ptp.c ****       /* Fill operation request params */
 963:./Libraries/STM32_USB_Host_Library/Class/MTP/Src/usbh_mtp_ptp.c ****       ptp_container.Code = PTP_OC_OpenSession;
 964:./Libraries/STM32_USB_Host_Library/Class/MTP/Src/usbh_mtp_ptp.c ****       ptp_container.SessionID = session;
 965:./Libraries/STM32_USB_Host_Library/Class/MTP/Src/usbh_mtp_ptp.c ****       ptp_container.Transaction_ID = MTP_Handle->ptp.transaction_id ++;
 966:./Libraries/STM32_USB_Host_Library/Class/MTP/Src/usbh_mtp_ptp.c ****       ptp_container.Param1 = session;
 967:./Libraries/STM32_USB_Host_Library/Class/MTP/Src/usbh_mtp_ptp.c ****       ptp_container.Nparam = 1U;
 968:./Libraries/STM32_USB_Host_Library/Class/MTP/Src/usbh_mtp_ptp.c **** 
 969:./Libraries/STM32_USB_Host_Library/Class/MTP/Src/usbh_mtp_ptp.c ****       /* convert request packet inti USB raw packet*/
 970:./Libraries/STM32_USB_Host_Library/Class/MTP/Src/usbh_mtp_ptp.c ****       USBH_PTP_SendRequest(phost, &ptp_container);
 971:./Libraries/STM32_USB_Host_Library/Class/MTP/Src/usbh_mtp_ptp.c **** 
 972:./Libraries/STM32_USB_Host_Library/Class/MTP/Src/usbh_mtp_ptp.c ****       /* Setup State machine and start transfer */
 973:./Libraries/STM32_USB_Host_Library/Class/MTP/Src/usbh_mtp_ptp.c ****       MTP_Handle->ptp.state = PTP_OP_REQUEST_STATE;
 974:./Libraries/STM32_USB_Host_Library/Class/MTP/Src/usbh_mtp_ptp.c ****       MTP_Handle->ptp.req_state = PTP_REQ_WAIT;
 975:./Libraries/STM32_USB_Host_Library/Class/MTP/Src/usbh_mtp_ptp.c ****       status = USBH_BUSY;
 976:./Libraries/STM32_USB_Host_Library/Class/MTP/Src/usbh_mtp_ptp.c **** 
 977:./Libraries/STM32_USB_Host_Library/Class/MTP/Src/usbh_mtp_ptp.c **** #if (USBH_USE_OS == 1U)
 978:./Libraries/STM32_USB_Host_Library/Class/MTP/Src/usbh_mtp_ptp.c ****       phost->os_msg = (uint32_t)USBH_STATE_CHANGED_EVENT;
 979:./Libraries/STM32_USB_Host_Library/Class/MTP/Src/usbh_mtp_ptp.c **** #if (osCMSIS < 0x20000U)
 980:./Libraries/STM32_USB_Host_Library/Class/MTP/Src/usbh_mtp_ptp.c ****       (void)osMessagePut(phost->os_event, phost->os_msg, 0U);
 981:./Libraries/STM32_USB_Host_Library/Class/MTP/Src/usbh_mtp_ptp.c **** #else
 982:./Libraries/STM32_USB_Host_Library/Class/MTP/Src/usbh_mtp_ptp.c ****       (void)osMessageQueuePut(phost->os_event, &phost->os_msg, 0U, NULL);
 983:./Libraries/STM32_USB_Host_Library/Class/MTP/Src/usbh_mtp_ptp.c **** #endif
 984:./Libraries/STM32_USB_Host_Library/Class/MTP/Src/usbh_mtp_ptp.c **** #endif
 985:./Libraries/STM32_USB_Host_Library/Class/MTP/Src/usbh_mtp_ptp.c ****       break;
ARM GAS  /tmp/ccSE0mVF.s 			page 69


 986:./Libraries/STM32_USB_Host_Library/Class/MTP/Src/usbh_mtp_ptp.c **** 
 987:./Libraries/STM32_USB_Host_Library/Class/MTP/Src/usbh_mtp_ptp.c ****     case PTP_REQ_WAIT:
 988:./Libraries/STM32_USB_Host_Library/Class/MTP/Src/usbh_mtp_ptp.c ****       status = USBH_PTP_Process(phost);
 2203              		.loc 1 988 7 is_stmt 1 view .LVU744
 2204              		.loc 1 988 16 is_stmt 0 view .LVU745
 2205 001a FFF7FEFF 		bl	USBH_PTP_Process
 2206              	.LVL182:
 2207              		.loc 1 988 16 view .LVU746
 2208 001e 0446     		mov	r4, r0
 2209              	.LVL183:
 989:./Libraries/STM32_USB_Host_Library/Class/MTP/Src/usbh_mtp_ptp.c ****       break;
 2210              		.loc 1 989 7 is_stmt 1 view .LVU747
 990:./Libraries/STM32_USB_Host_Library/Class/MTP/Src/usbh_mtp_ptp.c **** 
 991:./Libraries/STM32_USB_Host_Library/Class/MTP/Src/usbh_mtp_ptp.c ****     default:
 992:./Libraries/STM32_USB_Host_Library/Class/MTP/Src/usbh_mtp_ptp.c ****       break;
 993:./Libraries/STM32_USB_Host_Library/Class/MTP/Src/usbh_mtp_ptp.c ****   }
 994:./Libraries/STM32_USB_Host_Library/Class/MTP/Src/usbh_mtp_ptp.c ****   return status;
 2211              		.loc 1 994 3 view .LVU748
 995:./Libraries/STM32_USB_Host_Library/Class/MTP/Src/usbh_mtp_ptp.c **** }
 2212              		.loc 1 995 1 is_stmt 0 view .LVU749
 2213 0020 2046     		mov	r0, r4
 2214 0022 0BB0     		add	sp, sp, #44
 2215              	.LCFI30:
 2216              		.cfi_remember_state
 2217              		.cfi_def_cfa_offset 20
 2218              		@ sp needed
 2219 0024 F0BD     		pop	{r4, r5, r6, r7, pc}
 2220              	.LVL184:
 2221              	.L146:
 2222              	.LCFI31:
 2223              		.cfi_restore_state
 954:./Libraries/STM32_USB_Host_Library/Class/MTP/Src/usbh_mtp_ptp.c ****   {
 2224              		.loc 1 954 3 view .LVU750
 2225 0026 0124     		movs	r4, #1
 2226              	.LVL185:
 994:./Libraries/STM32_USB_Host_Library/Class/MTP/Src/usbh_mtp_ptp.c **** }
 2227              		.loc 1 994 3 is_stmt 1 view .LVU751
 2228              		.loc 1 995 1 is_stmt 0 view .LVU752
 2229 0028 2046     		mov	r0, r4
 2230              	.LVL186:
 2231              		.loc 1 995 1 view .LVU753
 2232 002a 0BB0     		add	sp, sp, #44
 2233              	.LCFI32:
 2234              		.cfi_remember_state
 2235              		.cfi_def_cfa_offset 20
 2236              		@ sp needed
 2237 002c F0BD     		pop	{r4, r5, r6, r7, pc}
 2238              	.LVL187:
 2239              	.L142:
 2240              	.LCFI33:
 2241              		.cfi_restore_state
 958:./Libraries/STM32_USB_Host_Library/Class/MTP/Src/usbh_mtp_ptp.c ****       MTP_Handle->ptp.session_id = session;
 2242              		.loc 1 958 7 is_stmt 1 view .LVU754
 959:./Libraries/STM32_USB_Host_Library/Class/MTP/Src/usbh_mtp_ptp.c ****       MTP_Handle->ptp.flags = PTP_DP_NODATA;
 2243              		.loc 1 959 7 view .LVU755
 959:./Libraries/STM32_USB_Host_Library/Class/MTP/Src/usbh_mtp_ptp.c ****       MTP_Handle->ptp.flags = PTP_DP_NODATA;
 2244              		.loc 1 959 34 is_stmt 0 view .LVU756
ARM GAS  /tmp/ccSE0mVF.s 			page 70


 2245 002e 42F2A811 		movw	r1, #8616
 960:./Libraries/STM32_USB_Host_Library/Class/MTP/Src/usbh_mtp_ptp.c **** 
 2246              		.loc 1 960 29 view .LVU757
 2247 0032 0027     		movs	r7, #0
 2248 0034 42F2AC13 		movw	r3, #8620
 2249 0038 0546     		mov	r5, r0
 959:./Libraries/STM32_USB_Host_Library/Class/MTP/Src/usbh_mtp_ptp.c ****       MTP_Handle->ptp.flags = PTP_DP_NODATA;
 2250              		.loc 1 959 34 view .LVU758
 2251 003a 7250     		str	r2, [r6, r1]
 960:./Libraries/STM32_USB_Host_Library/Class/MTP/Src/usbh_mtp_ptp.c **** 
 2252              		.loc 1 960 7 is_stmt 1 view .LVU759
 965:./Libraries/STM32_USB_Host_Library/Class/MTP/Src/usbh_mtp_ptp.c ****       ptp_container.Param1 = session;
 2253              		.loc 1 965 69 is_stmt 0 view .LVU760
 2254 003c 42F2A411 		movw	r1, #8612
 960:./Libraries/STM32_USB_Host_Library/Class/MTP/Src/usbh_mtp_ptp.c **** 
 2255              		.loc 1 960 29 view .LVU761
 2256 0040 F750     		str	r7, [r6, r3]
 963:./Libraries/STM32_USB_Host_Library/Class/MTP/Src/usbh_mtp_ptp.c ****       ptp_container.SessionID = session;
 2257              		.loc 1 963 7 is_stmt 1 view .LVU762
 963:./Libraries/STM32_USB_Host_Library/Class/MTP/Src/usbh_mtp_ptp.c ****       ptp_container.SessionID = session;
 2258              		.loc 1 963 26 is_stmt 0 view .LVU763
 2259 0042 41F20203 		movw	r3, #4098
 965:./Libraries/STM32_USB_Host_Library/Class/MTP/Src/usbh_mtp_ptp.c ****       ptp_container.Param1 = session;
 2260              		.loc 1 965 69 view .LVU764
 2261 0046 7450     		str	r4, [r6, r1]
 970:./Libraries/STM32_USB_Host_Library/Class/MTP/Src/usbh_mtp_ptp.c **** 
 2262              		.loc 1 970 7 view .LVU765
 2263 0048 01A9     		add	r1, sp, #4
 964:./Libraries/STM32_USB_Host_Library/Class/MTP/Src/usbh_mtp_ptp.c ****       ptp_container.Transaction_ID = MTP_Handle->ptp.transaction_id ++;
 2264              		.loc 1 964 31 view .LVU766
 2265 004a 0292     		str	r2, [sp, #8]
 973:./Libraries/STM32_USB_Host_Library/Class/MTP/Src/usbh_mtp_ptp.c ****       MTP_Handle->ptp.req_state = PTP_REQ_WAIT;
 2266              		.loc 1 973 29 view .LVU767
 2267 004c 06F5EB56 		add	r6, r6, #7520
 2268              	.LVL188:
 966:./Libraries/STM32_USB_Host_Library/Class/MTP/Src/usbh_mtp_ptp.c ****       ptp_container.Nparam = 1U;
 2269              		.loc 1 966 28 view .LVU768
 2270 0050 0492     		str	r2, [sp, #16]
 963:./Libraries/STM32_USB_Host_Library/Class/MTP/Src/usbh_mtp_ptp.c ****       ptp_container.SessionID = session;
 2271              		.loc 1 963 26 view .LVU769
 2272 0052 ADF80430 		strh	r3, [sp, #4]	@ movhi
 964:./Libraries/STM32_USB_Host_Library/Class/MTP/Src/usbh_mtp_ptp.c ****       ptp_container.Transaction_ID = MTP_Handle->ptp.transaction_id ++;
 2273              		.loc 1 964 7 is_stmt 1 view .LVU770
 965:./Libraries/STM32_USB_Host_Library/Class/MTP/Src/usbh_mtp_ptp.c ****       ptp_container.Param1 = session;
 2274              		.loc 1 965 7 view .LVU771
 966:./Libraries/STM32_USB_Host_Library/Class/MTP/Src/usbh_mtp_ptp.c ****       ptp_container.Nparam = 1U;
 2275              		.loc 1 966 7 view .LVU772
 967:./Libraries/STM32_USB_Host_Library/Class/MTP/Src/usbh_mtp_ptp.c **** 
 2276              		.loc 1 967 7 view .LVU773
 970:./Libraries/STM32_USB_Host_Library/Class/MTP/Src/usbh_mtp_ptp.c **** 
 2277              		.loc 1 970 7 view .LVU774
 967:./Libraries/STM32_USB_Host_Library/Class/MTP/Src/usbh_mtp_ptp.c **** 
 2278              		.loc 1 967 28 is_stmt 0 view .LVU775
 2279 0056 8DF82440 		strb	r4, [sp, #36]
 2280              	.LVL189:
 965:./Libraries/STM32_USB_Host_Library/Class/MTP/Src/usbh_mtp_ptp.c ****       ptp_container.Param1 = session;
 2281              		.loc 1 965 36 view .LVU776
ARM GAS  /tmp/ccSE0mVF.s 			page 71


 2282 005a 0397     		str	r7, [sp, #12]
 970:./Libraries/STM32_USB_Host_Library/Class/MTP/Src/usbh_mtp_ptp.c **** 
 2283              		.loc 1 970 7 view .LVU777
 2284 005c FFF7FEFF 		bl	USBH_PTP_SendRequest
 2285              	.LVL190:
 973:./Libraries/STM32_USB_Host_Library/Class/MTP/Src/usbh_mtp_ptp.c ****       MTP_Handle->ptp.req_state = PTP_REQ_WAIT;
 2286              		.loc 1 973 7 is_stmt 1 view .LVU778
 974:./Libraries/STM32_USB_Host_Library/Class/MTP/Src/usbh_mtp_ptp.c ****       status = USBH_BUSY;
 2287              		.loc 1 974 7 view .LVU779
 978:./Libraries/STM32_USB_Host_Library/Class/MTP/Src/usbh_mtp_ptp.c **** #if (osCMSIS < 0x20000U)
 2288              		.loc 1 978 21 is_stmt 0 view .LVU780
 2289 0060 4FF0050C 		mov	ip, #5
 973:./Libraries/STM32_USB_Host_Library/Class/MTP/Src/usbh_mtp_ptp.c ****       MTP_Handle->ptp.req_state = PTP_REQ_WAIT;
 2290              		.loc 1 973 29 view .LVU781
 2291 0064 40F20122 		movw	r2, #513
 982:./Libraries/STM32_USB_Host_Library/Class/MTP/Src/usbh_mtp_ptp.c **** #endif
 2292              		.loc 1 982 13 view .LVU782
 2293 0068 3B46     		mov	r3, r7
 2294 006a 05F59C61 		add	r1, r5, #1248
 973:./Libraries/STM32_USB_Host_Library/Class/MTP/Src/usbh_mtp_ptp.c ****       MTP_Handle->ptp.req_state = PTP_REQ_WAIT;
 2295              		.loc 1 973 29 view .LVU783
 2296 006e 3280     		strh	r2, [r6]	@ movhi
 975:./Libraries/STM32_USB_Host_Library/Class/MTP/Src/usbh_mtp_ptp.c **** 
 2297              		.loc 1 975 7 is_stmt 1 view .LVU784
 978:./Libraries/STM32_USB_Host_Library/Class/MTP/Src/usbh_mtp_ptp.c **** #if (osCMSIS < 0x20000U)
 2298              		.loc 1 978 7 view .LVU785
 982:./Libraries/STM32_USB_Host_Library/Class/MTP/Src/usbh_mtp_ptp.c **** #endif
 2299              		.loc 1 982 13 is_stmt 0 view .LVU786
 2300 0070 3A46     		mov	r2, r7
 2301 0072 D5F8D804 		ldr	r0, [r5, #1240]
 978:./Libraries/STM32_USB_Host_Library/Class/MTP/Src/usbh_mtp_ptp.c **** #if (osCMSIS < 0x20000U)
 2302              		.loc 1 978 21 view .LVU787
 2303 0076 C5F8E0C4 		str	ip, [r5, #1248]
 982:./Libraries/STM32_USB_Host_Library/Class/MTP/Src/usbh_mtp_ptp.c **** #endif
 2304              		.loc 1 982 7 is_stmt 1 view .LVU788
 982:./Libraries/STM32_USB_Host_Library/Class/MTP/Src/usbh_mtp_ptp.c **** #endif
 2305              		.loc 1 982 13 is_stmt 0 view .LVU789
 2306 007a FFF7FEFF 		bl	osMessageQueuePut
 2307              	.LVL191:
 985:./Libraries/STM32_USB_Host_Library/Class/MTP/Src/usbh_mtp_ptp.c **** 
 2308              		.loc 1 985 7 is_stmt 1 view .LVU790
 994:./Libraries/STM32_USB_Host_Library/Class/MTP/Src/usbh_mtp_ptp.c **** }
 2309              		.loc 1 994 3 view .LVU791
 2310              		.loc 1 995 1 is_stmt 0 view .LVU792
 2311 007e 2046     		mov	r0, r4
 2312 0080 0BB0     		add	sp, sp, #44
 2313              	.LCFI34:
 2314              		.cfi_def_cfa_offset 20
 2315              		@ sp needed
 2316 0082 F0BD     		pop	{r4, r5, r6, r7, pc}
 2317              		.loc 1 995 1 view .LVU793
 2318              		.cfi_endproc
 2319              	.LFE353:
 2321              		.section	.text.USBH_PTP_GetDevicePropDesc,"ax",%progbits
 2322              		.align	1
 2323              		.p2align 2,,3
 2324              		.global	USBH_PTP_GetDevicePropDesc
ARM GAS  /tmp/ccSE0mVF.s 			page 72


 2325              		.syntax unified
 2326              		.thumb
 2327              		.thumb_func
 2328              		.fpu fpv5-d16
 2330              	USBH_PTP_GetDevicePropDesc:
 2331              	.LVL192:
 2332              	.LFB354:
 996:./Libraries/STM32_USB_Host_Library/Class/MTP/Src/usbh_mtp_ptp.c **** 
 997:./Libraries/STM32_USB_Host_Library/Class/MTP/Src/usbh_mtp_ptp.c **** /**
 998:./Libraries/STM32_USB_Host_Library/Class/MTP/Src/usbh_mtp_ptp.c ****   * @brief  USBH_PTP_GetDevicePropDesc
 999:./Libraries/STM32_USB_Host_Library/Class/MTP/Src/usbh_mtp_ptp.c ****   *         Gets object partially
1000:./Libraries/STM32_USB_Host_Library/Class/MTP/Src/usbh_mtp_ptp.c ****   * @param  phost: Host handle
1001:./Libraries/STM32_USB_Host_Library/Class/MTP/Src/usbh_mtp_ptp.c ****   * @param  dev_info: Device info structure
1002:./Libraries/STM32_USB_Host_Library/Class/MTP/Src/usbh_mtp_ptp.c ****   * @retval USBH Status
1003:./Libraries/STM32_USB_Host_Library/Class/MTP/Src/usbh_mtp_ptp.c ****   */
1004:./Libraries/STM32_USB_Host_Library/Class/MTP/Src/usbh_mtp_ptp.c **** USBH_StatusTypeDef USBH_PTP_GetDevicePropDesc(USBH_HandleTypeDef *phost,
1005:./Libraries/STM32_USB_Host_Library/Class/MTP/Src/usbh_mtp_ptp.c ****                                               uint16_t propcode,
1006:./Libraries/STM32_USB_Host_Library/Class/MTP/Src/usbh_mtp_ptp.c ****                                               PTP_DevicePropDescTypdef *devicepropertydesc)
1007:./Libraries/STM32_USB_Host_Library/Class/MTP/Src/usbh_mtp_ptp.c **** {
 2333              		.loc 1 1007 1 is_stmt 1 view -0
 2334              		.cfi_startproc
 2335              		@ args = 0, pretend = 0, frame = 40
 2336              		@ frame_needed = 0, uses_anonymous_args = 0
1008:./Libraries/STM32_USB_Host_Library/Class/MTP/Src/usbh_mtp_ptp.c ****   USBH_StatusTypeDef status = USBH_BUSY;
 2337              		.loc 1 1008 3 view .LVU795
1009:./Libraries/STM32_USB_Host_Library/Class/MTP/Src/usbh_mtp_ptp.c ****   MTP_HandleTypeDef *MTP_Handle = (MTP_HandleTypeDef *)phost->pActiveClass->pData;
 2338              		.loc 1 1009 3 view .LVU796
1007:./Libraries/STM32_USB_Host_Library/Class/MTP/Src/usbh_mtp_ptp.c ****   USBH_StatusTypeDef status = USBH_BUSY;
 2339              		.loc 1 1007 1 is_stmt 0 view .LVU797
 2340 0000 2DE9F041 		push	{r4, r5, r6, r7, r8, lr}
 2341              	.LCFI35:
 2342              		.cfi_def_cfa_offset 24
 2343              		.cfi_offset 4, -24
 2344              		.cfi_offset 5, -20
 2345              		.cfi_offset 6, -16
 2346              		.cfi_offset 7, -12
 2347              		.cfi_offset 8, -8
 2348              		.cfi_offset 14, -4
 2349              		.loc 1 1009 22 view .LVU798
 2350 0004 D0F87C44 		ldr	r4, [r0, #1148]
1010:./Libraries/STM32_USB_Host_Library/Class/MTP/Src/usbh_mtp_ptp.c ****   PTP_ContainerTypedef ptp_container;
1011:./Libraries/STM32_USB_Host_Library/Class/MTP/Src/usbh_mtp_ptp.c ****   uint8_t *data = MTP_Handle->ptp.data_container.payload.data;
1012:./Libraries/STM32_USB_Host_Library/Class/MTP/Src/usbh_mtp_ptp.c **** 
1013:./Libraries/STM32_USB_Host_Library/Class/MTP/Src/usbh_mtp_ptp.c ****   switch (MTP_Handle->ptp.req_state)
 2351              		.loc 1 1013 26 view .LVU799
 2352 0008 41F66153 		movw	r3, #7521
1007:./Libraries/STM32_USB_Host_Library/Class/MTP/Src/usbh_mtp_ptp.c ****   USBH_StatusTypeDef status = USBH_BUSY;
 2353              		.loc 1 1007 1 view .LVU800
 2354 000c 8AB0     		sub	sp, sp, #40
 2355              	.LCFI36:
 2356              		.cfi_def_cfa_offset 64
1009:./Libraries/STM32_USB_Host_Library/Class/MTP/Src/usbh_mtp_ptp.c ****   PTP_ContainerTypedef ptp_container;
 2357              		.loc 1 1009 22 view .LVU801
 2358 000e E469     		ldr	r4, [r4, #28]
 2359              	.LVL193:
1010:./Libraries/STM32_USB_Host_Library/Class/MTP/Src/usbh_mtp_ptp.c ****   PTP_ContainerTypedef ptp_container;
 2360              		.loc 1 1010 3 is_stmt 1 view .LVU802
ARM GAS  /tmp/ccSE0mVF.s 			page 73


1011:./Libraries/STM32_USB_Host_Library/Class/MTP/Src/usbh_mtp_ptp.c **** 
 2361              		.loc 1 1011 3 view .LVU803
 2362              		.loc 1 1013 3 view .LVU804
 2363              		.loc 1 1013 26 is_stmt 0 view .LVU805
 2364 0010 E55C     		ldrb	r5, [r4, r3]	@ zero_extendqisi2
 2365              		.loc 1 1013 3 view .LVU806
 2366 0012 012D     		cmp	r5, #1
 2367 0014 1FD0     		beq	.L148
 2368 0016 022D     		cmp	r5, #2
 2369 0018 18D1     		bne	.L152
1014:./Libraries/STM32_USB_Host_Library/Class/MTP/Src/usbh_mtp_ptp.c ****   {
1015:./Libraries/STM32_USB_Host_Library/Class/MTP/Src/usbh_mtp_ptp.c ****     case PTP_REQ_SEND:
1016:./Libraries/STM32_USB_Host_Library/Class/MTP/Src/usbh_mtp_ptp.c ****       /* Set operation request type */
1017:./Libraries/STM32_USB_Host_Library/Class/MTP/Src/usbh_mtp_ptp.c ****       MTP_Handle->ptp.flags = PTP_DP_GETDATA;
1018:./Libraries/STM32_USB_Host_Library/Class/MTP/Src/usbh_mtp_ptp.c ****       MTP_Handle->ptp.data_ptr = (uint8_t *)(void *) & (MTP_Handle->ptp.data_container);
1019:./Libraries/STM32_USB_Host_Library/Class/MTP/Src/usbh_mtp_ptp.c ****       MTP_Handle->ptp.data_length = 0U;
1020:./Libraries/STM32_USB_Host_Library/Class/MTP/Src/usbh_mtp_ptp.c ****       MTP_Handle->ptp.data_packet_counter = 0U;
1021:./Libraries/STM32_USB_Host_Library/Class/MTP/Src/usbh_mtp_ptp.c ****       MTP_Handle->ptp.data_packet = 0U;
1022:./Libraries/STM32_USB_Host_Library/Class/MTP/Src/usbh_mtp_ptp.c **** 
1023:./Libraries/STM32_USB_Host_Library/Class/MTP/Src/usbh_mtp_ptp.c ****       /* Fill operation request params */
1024:./Libraries/STM32_USB_Host_Library/Class/MTP/Src/usbh_mtp_ptp.c ****       ptp_container.Code = PTP_OC_GetDevicePropDesc;
1025:./Libraries/STM32_USB_Host_Library/Class/MTP/Src/usbh_mtp_ptp.c ****       ptp_container.SessionID = MTP_Handle->ptp.session_id;
1026:./Libraries/STM32_USB_Host_Library/Class/MTP/Src/usbh_mtp_ptp.c ****       ptp_container.Transaction_ID = MTP_Handle->ptp.transaction_id ++;
1027:./Libraries/STM32_USB_Host_Library/Class/MTP/Src/usbh_mtp_ptp.c ****       ptp_container.Param1 = propcode;
1028:./Libraries/STM32_USB_Host_Library/Class/MTP/Src/usbh_mtp_ptp.c ****       ptp_container.Nparam = 1U;
1029:./Libraries/STM32_USB_Host_Library/Class/MTP/Src/usbh_mtp_ptp.c **** 
1030:./Libraries/STM32_USB_Host_Library/Class/MTP/Src/usbh_mtp_ptp.c ****       /* convert request packet into USB raw packet*/
1031:./Libraries/STM32_USB_Host_Library/Class/MTP/Src/usbh_mtp_ptp.c ****       USBH_PTP_SendRequest(phost, &ptp_container);
1032:./Libraries/STM32_USB_Host_Library/Class/MTP/Src/usbh_mtp_ptp.c **** 
1033:./Libraries/STM32_USB_Host_Library/Class/MTP/Src/usbh_mtp_ptp.c ****       /* Setup State machine and start transfer */
1034:./Libraries/STM32_USB_Host_Library/Class/MTP/Src/usbh_mtp_ptp.c ****       MTP_Handle->ptp.state = PTP_OP_REQUEST_STATE;
1035:./Libraries/STM32_USB_Host_Library/Class/MTP/Src/usbh_mtp_ptp.c ****       MTP_Handle->ptp.req_state = PTP_REQ_WAIT;
1036:./Libraries/STM32_USB_Host_Library/Class/MTP/Src/usbh_mtp_ptp.c ****       status = USBH_BUSY;
1037:./Libraries/STM32_USB_Host_Library/Class/MTP/Src/usbh_mtp_ptp.c **** 
1038:./Libraries/STM32_USB_Host_Library/Class/MTP/Src/usbh_mtp_ptp.c **** #if (USBH_USE_OS == 1U)
1039:./Libraries/STM32_USB_Host_Library/Class/MTP/Src/usbh_mtp_ptp.c ****       phost->os_msg = (uint32_t)USBH_STATE_CHANGED_EVENT;
1040:./Libraries/STM32_USB_Host_Library/Class/MTP/Src/usbh_mtp_ptp.c **** #if (osCMSIS < 0x20000U)
1041:./Libraries/STM32_USB_Host_Library/Class/MTP/Src/usbh_mtp_ptp.c ****       (void)osMessagePut(phost->os_event, phost->os_msg, 0U);
1042:./Libraries/STM32_USB_Host_Library/Class/MTP/Src/usbh_mtp_ptp.c **** #else
1043:./Libraries/STM32_USB_Host_Library/Class/MTP/Src/usbh_mtp_ptp.c ****       (void)osMessageQueuePut(phost->os_event, &phost->os_msg, 0U, NULL);
1044:./Libraries/STM32_USB_Host_Library/Class/MTP/Src/usbh_mtp_ptp.c **** #endif
1045:./Libraries/STM32_USB_Host_Library/Class/MTP/Src/usbh_mtp_ptp.c **** #endif
1046:./Libraries/STM32_USB_Host_Library/Class/MTP/Src/usbh_mtp_ptp.c ****       break;
1047:./Libraries/STM32_USB_Host_Library/Class/MTP/Src/usbh_mtp_ptp.c **** 
1048:./Libraries/STM32_USB_Host_Library/Class/MTP/Src/usbh_mtp_ptp.c ****     case PTP_REQ_WAIT:
1049:./Libraries/STM32_USB_Host_Library/Class/MTP/Src/usbh_mtp_ptp.c ****       status = USBH_PTP_Process(phost);
 2370              		.loc 1 1049 7 is_stmt 1 view .LVU807
 2371 001a 1746     		mov	r7, r2
 2372              		.loc 1 1049 16 is_stmt 0 view .LVU808
 2373 001c FFF7FEFF 		bl	USBH_PTP_Process
 2374              	.LVL194:
1050:./Libraries/STM32_USB_Host_Library/Class/MTP/Src/usbh_mtp_ptp.c **** 
1051:./Libraries/STM32_USB_Host_Library/Class/MTP/Src/usbh_mtp_ptp.c ****       if (status == USBH_OK)
 2375              		.loc 1 1051 7 is_stmt 1 view .LVU809
 2376              		.loc 1 1051 10 is_stmt 0 view .LVU810
 2377 0020 0546     		mov	r5, r0
 2378 0022 78B9     		cbnz	r0, .L150
ARM GAS  /tmp/ccSE0mVF.s 			page 74


1052:./Libraries/STM32_USB_Host_Library/Class/MTP/Src/usbh_mtp_ptp.c ****       {
1053:./Libraries/STM32_USB_Host_Library/Class/MTP/Src/usbh_mtp_ptp.c ****         devicepropertydesc->DevicePropertyCode = LE16(&data[PTP_dpd_DevicePropertyCode]);
 2379              		.loc 1 1053 9 is_stmt 1 view .LVU811
 2380              		.loc 1 1053 50 is_stmt 0 view .LVU812
 2381 0024 41F69052 		movw	r2, #7568
1054:./Libraries/STM32_USB_Host_Library/Class/MTP/Src/usbh_mtp_ptp.c ****         devicepropertydesc->DataType = LE16(&data[PTP_dpd_DataType]);
 2382              		.loc 1 1054 40 view .LVU813
 2383 0028 41F69253 		movw	r3, #7570
1055:./Libraries/STM32_USB_Host_Library/Class/MTP/Src/usbh_mtp_ptp.c ****         devicepropertydesc->GetSet = *(uint8_t *)(&data[PTP_dpd_GetSet]);
 2384              		.loc 1 1055 36 view .LVU814
 2385 002c 41F69451 		movw	r1, #7572
1053:./Libraries/STM32_USB_Host_Library/Class/MTP/Src/usbh_mtp_ptp.c ****         devicepropertydesc->DataType = LE16(&data[PTP_dpd_DataType]);
 2386              		.loc 1 1053 50 view .LVU815
 2387 0030 2244     		add	r2, r2, r4
 2388              	.LVL195:
1054:./Libraries/STM32_USB_Host_Library/Class/MTP/Src/usbh_mtp_ptp.c ****         devicepropertydesc->DataType = LE16(&data[PTP_dpd_DataType]);
 2389              		.loc 1 1054 40 view .LVU816
 2390 0032 2344     		add	r3, r3, r4
1053:./Libraries/STM32_USB_Host_Library/Class/MTP/Src/usbh_mtp_ptp.c ****         devicepropertydesc->DataType = LE16(&data[PTP_dpd_DataType]);
 2391              		.loc 1 1053 50 view .LVU817
 2392 0034 1288     		ldrh	r2, [r2]	@ unaligned
 2393              	.LVL196:
1053:./Libraries/STM32_USB_Host_Library/Class/MTP/Src/usbh_mtp_ptp.c ****         devicepropertydesc->DataType = LE16(&data[PTP_dpd_DataType]);
 2394              		.loc 1 1053 48 view .LVU818
 2395 0036 3A80     		strh	r2, [r7]	@ movhi
1054:./Libraries/STM32_USB_Host_Library/Class/MTP/Src/usbh_mtp_ptp.c ****         devicepropertydesc->DataType = LE16(&data[PTP_dpd_DataType]);
 2396              		.loc 1 1054 9 is_stmt 1 view .LVU819
1054:./Libraries/STM32_USB_Host_Library/Class/MTP/Src/usbh_mtp_ptp.c ****         devicepropertydesc->DataType = LE16(&data[PTP_dpd_DataType]);
 2397              		.loc 1 1054 40 is_stmt 0 view .LVU820
 2398 0038 1B88     		ldrh	r3, [r3]	@ unaligned
1054:./Libraries/STM32_USB_Host_Library/Class/MTP/Src/usbh_mtp_ptp.c ****         devicepropertydesc->DataType = LE16(&data[PTP_dpd_DataType]);
 2399              		.loc 1 1054 38 view .LVU821
 2400 003a 7B80     		strh	r3, [r7, #2]	@ movhi
 2401              		.loc 1 1055 9 is_stmt 1 view .LVU822
 2402              		.loc 1 1055 36 is_stmt 0 view .LVU823
 2403 003c 635C     		ldrb	r3, [r4, r1]	@ zero_extendqisi2
1056:./Libraries/STM32_USB_Host_Library/Class/MTP/Src/usbh_mtp_ptp.c ****         devicepropertydesc->FormFlag = PTP_DPFF_None;
 2404              		.loc 1 1056 38 view .LVU824
 2405 003e 87F80802 		strb	r0, [r7, #520]
1055:./Libraries/STM32_USB_Host_Library/Class/MTP/Src/usbh_mtp_ptp.c ****         devicepropertydesc->GetSet = *(uint8_t *)(&data[PTP_dpd_GetSet]);
 2406              		.loc 1 1055 36 view .LVU825
 2407 0042 3B71     		strb	r3, [r7, #4]
 2408              		.loc 1 1056 9 is_stmt 1 view .LVU826
 2409              	.L150:
 2410              	.LVL197:
1057:./Libraries/STM32_USB_Host_Library/Class/MTP/Src/usbh_mtp_ptp.c ****       }
1058:./Libraries/STM32_USB_Host_Library/Class/MTP/Src/usbh_mtp_ptp.c ****       break;
1059:./Libraries/STM32_USB_Host_Library/Class/MTP/Src/usbh_mtp_ptp.c **** 
1060:./Libraries/STM32_USB_Host_Library/Class/MTP/Src/usbh_mtp_ptp.c ****     default:
1061:./Libraries/STM32_USB_Host_Library/Class/MTP/Src/usbh_mtp_ptp.c ****       break;
1062:./Libraries/STM32_USB_Host_Library/Class/MTP/Src/usbh_mtp_ptp.c ****   }
1063:./Libraries/STM32_USB_Host_Library/Class/MTP/Src/usbh_mtp_ptp.c ****   return status;
 2411              		.loc 1 1063 3 view .LVU827
1064:./Libraries/STM32_USB_Host_Library/Class/MTP/Src/usbh_mtp_ptp.c **** }
 2412              		.loc 1 1064 1 is_stmt 0 view .LVU828
 2413 0044 2846     		mov	r0, r5
 2414 0046 0AB0     		add	sp, sp, #40
ARM GAS  /tmp/ccSE0mVF.s 			page 75


 2415              	.LCFI37:
 2416              		.cfi_remember_state
 2417              		.cfi_def_cfa_offset 24
 2418              		@ sp needed
 2419 0048 BDE8F081 		pop	{r4, r5, r6, r7, r8, pc}
 2420              	.LVL198:
 2421              	.L152:
 2422              	.LCFI38:
 2423              		.cfi_restore_state
1013:./Libraries/STM32_USB_Host_Library/Class/MTP/Src/usbh_mtp_ptp.c ****   {
 2424              		.loc 1 1013 3 view .LVU829
 2425 004c 0125     		movs	r5, #1
 2426              	.LVL199:
1063:./Libraries/STM32_USB_Host_Library/Class/MTP/Src/usbh_mtp_ptp.c **** }
 2427              		.loc 1 1063 3 is_stmt 1 view .LVU830
 2428              		.loc 1 1064 1 is_stmt 0 view .LVU831
 2429 004e 2846     		mov	r0, r5
 2430              	.LVL200:
 2431              		.loc 1 1064 1 view .LVU832
 2432 0050 0AB0     		add	sp, sp, #40
 2433              	.LCFI39:
 2434              		.cfi_remember_state
 2435              		.cfi_def_cfa_offset 24
 2436              		@ sp needed
 2437 0052 BDE8F081 		pop	{r4, r5, r6, r7, r8, pc}
 2438              	.LVL201:
 2439              	.L148:
 2440              	.LCFI40:
 2441              		.cfi_restore_state
1017:./Libraries/STM32_USB_Host_Library/Class/MTP/Src/usbh_mtp_ptp.c ****       MTP_Handle->ptp.data_ptr = (uint8_t *)(void *) & (MTP_Handle->ptp.data_container);
 2442              		.loc 1 1017 7 is_stmt 1 view .LVU833
1018:./Libraries/STM32_USB_Host_Library/Class/MTP/Src/usbh_mtp_ptp.c ****       MTP_Handle->ptp.data_length = 0U;
 2443              		.loc 1 1018 54 is_stmt 0 view .LVU834
 2444 0056 41F68453 		movw	r3, #7556
1026:./Libraries/STM32_USB_Host_Library/Class/MTP/Src/usbh_mtp_ptp.c ****       ptp_container.Param1 = propcode;
 2445              		.loc 1 1026 53 view .LVU835
 2446 005a 42F2A412 		movw	r2, #8612
 2447              	.LVL202:
1018:./Libraries/STM32_USB_Host_Library/Class/MTP/Src/usbh_mtp_ptp.c ****       MTP_Handle->ptp.data_length = 0U;
 2448              		.loc 1 1018 32 view .LVU836
 2449 005e 42F2B01E 		movw	lr, #8624
1025:./Libraries/STM32_USB_Host_Library/Class/MTP/Src/usbh_mtp_ptp.c ****       ptp_container.Transaction_ID = MTP_Handle->ptp.transaction_id ++;
 2450              		.loc 1 1025 48 view .LVU837
 2451 0062 42F2A81C 		movw	ip, #8616
1018:./Libraries/STM32_USB_Host_Library/Class/MTP/Src/usbh_mtp_ptp.c ****       MTP_Handle->ptp.data_length = 0U;
 2452              		.loc 1 1018 54 view .LVU838
 2453 0066 2344     		add	r3, r3, r4
1026:./Libraries/STM32_USB_Host_Library/Class/MTP/Src/usbh_mtp_ptp.c ****       ptp_container.Param1 = propcode;
 2454              		.loc 1 1026 53 view .LVU839
 2455 0068 A758     		ldr	r7, [r4, r2]
1025:./Libraries/STM32_USB_Host_Library/Class/MTP/Src/usbh_mtp_ptp.c ****       ptp_container.Transaction_ID = MTP_Handle->ptp.transaction_id ++;
 2456              		.loc 1 1025 31 view .LVU840
 2457 006a 54F80CC0 		ldr	ip, [r4, ip]
1017:./Libraries/STM32_USB_Host_Library/Class/MTP/Src/usbh_mtp_ptp.c ****       MTP_Handle->ptp.data_ptr = (uint8_t *)(void *) & (MTP_Handle->ptp.data_container);
 2458              		.loc 1 1017 29 view .LVU841
 2459 006e 4FF00208 		mov	r8, #2
1018:./Libraries/STM32_USB_Host_Library/Class/MTP/Src/usbh_mtp_ptp.c ****       MTP_Handle->ptp.data_length = 0U;
ARM GAS  /tmp/ccSE0mVF.s 			page 76


 2460              		.loc 1 1018 32 view .LVU842
 2461 0072 44F80E30 		str	r3, [r4, lr]
1017:./Libraries/STM32_USB_Host_Library/Class/MTP/Src/usbh_mtp_ptp.c ****       MTP_Handle->ptp.data_ptr = (uint8_t *)(void *) & (MTP_Handle->ptp.data_container);
 2462              		.loc 1 1017 29 view .LVU843
 2463 0076 42F2AC13 		movw	r3, #8620
1026:./Libraries/STM32_USB_Host_Library/Class/MTP/Src/usbh_mtp_ptp.c ****       ptp_container.Param1 = propcode;
 2464              		.loc 1 1026 69 view .LVU844
 2465 007a 07F1010E 		add	lr, r7, #1
1027:./Libraries/STM32_USB_Host_Library/Class/MTP/Src/usbh_mtp_ptp.c ****       ptp_container.Nparam = 1U;
 2466              		.loc 1 1027 28 view .LVU845
 2467 007e 0491     		str	r1, [sp, #16]
1017:./Libraries/STM32_USB_Host_Library/Class/MTP/Src/usbh_mtp_ptp.c ****       MTP_Handle->ptp.data_ptr = (uint8_t *)(void *) & (MTP_Handle->ptp.data_container);
 2468              		.loc 1 1017 29 view .LVU846
 2469 0080 44F80380 		str	r8, [r4, r3]
1018:./Libraries/STM32_USB_Host_Library/Class/MTP/Src/usbh_mtp_ptp.c ****       MTP_Handle->ptp.data_length = 0U;
 2470              		.loc 1 1018 7 is_stmt 1 view .LVU847
1019:./Libraries/STM32_USB_Host_Library/Class/MTP/Src/usbh_mtp_ptp.c ****       MTP_Handle->ptp.data_packet_counter = 0U;
 2471              		.loc 1 1019 7 view .LVU848
1019:./Libraries/STM32_USB_Host_Library/Class/MTP/Src/usbh_mtp_ptp.c ****       MTP_Handle->ptp.data_packet_counter = 0U;
 2472              		.loc 1 1019 35 is_stmt 0 view .LVU849
 2473 0084 42F2B411 		movw	r1, #8628
 2474              	.LVL203:
1020:./Libraries/STM32_USB_Host_Library/Class/MTP/Src/usbh_mtp_ptp.c ****       MTP_Handle->ptp.data_packet = 0U;
 2475              		.loc 1 1020 43 view .LVU850
 2476 0088 04F50753 		add	r3, r4, #8640
1026:./Libraries/STM32_USB_Host_Library/Class/MTP/Src/usbh_mtp_ptp.c ****       ptp_container.Param1 = propcode;
 2477              		.loc 1 1026 36 view .LVU851
 2478 008c 0397     		str	r7, [sp, #12]
1019:./Libraries/STM32_USB_Host_Library/Class/MTP/Src/usbh_mtp_ptp.c ****       MTP_Handle->ptp.data_packet_counter = 0U;
 2479              		.loc 1 1019 35 view .LVU852
 2480 008e 0027     		movs	r7, #0
1025:./Libraries/STM32_USB_Host_Library/Class/MTP/Src/usbh_mtp_ptp.c ****       ptp_container.Transaction_ID = MTP_Handle->ptp.transaction_id ++;
 2481              		.loc 1 1025 31 view .LVU853
 2482 0090 CDF808C0 		str	ip, [sp, #8]
1021:./Libraries/STM32_USB_Host_Library/Class/MTP/Src/usbh_mtp_ptp.c **** 
 2483              		.loc 1 1021 35 view .LVU854
 2484 0094 42F2B81C 		movw	ip, #8632
 2485 0098 0646     		mov	r6, r0
1019:./Libraries/STM32_USB_Host_Library/Class/MTP/Src/usbh_mtp_ptp.c ****       MTP_Handle->ptp.data_packet_counter = 0U;
 2486              		.loc 1 1019 35 view .LVU855
 2487 009a 6750     		str	r7, [r4, r1]
1020:./Libraries/STM32_USB_Host_Library/Class/MTP/Src/usbh_mtp_ptp.c ****       MTP_Handle->ptp.data_packet = 0U;
 2488              		.loc 1 1020 7 is_stmt 1 view .LVU856
1031:./Libraries/STM32_USB_Host_Library/Class/MTP/Src/usbh_mtp_ptp.c **** 
 2489              		.loc 1 1031 7 is_stmt 0 view .LVU857
 2490 009c 01A9     		add	r1, sp, #4
1020:./Libraries/STM32_USB_Host_Library/Class/MTP/Src/usbh_mtp_ptp.c ****       MTP_Handle->ptp.data_packet = 0U;
 2491              		.loc 1 1020 43 view .LVU858
 2492 009e 1F60     		str	r7, [r3]
1021:./Libraries/STM32_USB_Host_Library/Class/MTP/Src/usbh_mtp_ptp.c **** 
 2493              		.loc 1 1021 7 is_stmt 1 view .LVU859
1024:./Libraries/STM32_USB_Host_Library/Class/MTP/Src/usbh_mtp_ptp.c ****       ptp_container.SessionID = MTP_Handle->ptp.session_id;
 2494              		.loc 1 1024 26 is_stmt 0 view .LVU860
 2495 00a0 41F21403 		movw	r3, #4116
1026:./Libraries/STM32_USB_Host_Library/Class/MTP/Src/usbh_mtp_ptp.c ****       ptp_container.Param1 = propcode;
 2496              		.loc 1 1026 69 view .LVU861
 2497 00a4 44F802E0 		str	lr, [r4, r2]
ARM GAS  /tmp/ccSE0mVF.s 			page 77


1021:./Libraries/STM32_USB_Host_Library/Class/MTP/Src/usbh_mtp_ptp.c **** 
 2498              		.loc 1 1021 35 view .LVU862
 2499 00a8 44F80C70 		str	r7, [r4, ip]
1024:./Libraries/STM32_USB_Host_Library/Class/MTP/Src/usbh_mtp_ptp.c ****       ptp_container.SessionID = MTP_Handle->ptp.session_id;
 2500              		.loc 1 1024 7 is_stmt 1 view .LVU863
1024:./Libraries/STM32_USB_Host_Library/Class/MTP/Src/usbh_mtp_ptp.c ****       ptp_container.SessionID = MTP_Handle->ptp.session_id;
 2501              		.loc 1 1024 26 is_stmt 0 view .LVU864
 2502 00ac ADF80430 		strh	r3, [sp, #4]	@ movhi
1025:./Libraries/STM32_USB_Host_Library/Class/MTP/Src/usbh_mtp_ptp.c ****       ptp_container.Transaction_ID = MTP_Handle->ptp.transaction_id ++;
 2503              		.loc 1 1025 7 is_stmt 1 view .LVU865
1026:./Libraries/STM32_USB_Host_Library/Class/MTP/Src/usbh_mtp_ptp.c ****       ptp_container.Param1 = propcode;
 2504              		.loc 1 1026 7 view .LVU866
1027:./Libraries/STM32_USB_Host_Library/Class/MTP/Src/usbh_mtp_ptp.c ****       ptp_container.Nparam = 1U;
 2505              		.loc 1 1027 7 view .LVU867
1028:./Libraries/STM32_USB_Host_Library/Class/MTP/Src/usbh_mtp_ptp.c **** 
 2506              		.loc 1 1028 7 view .LVU868
1031:./Libraries/STM32_USB_Host_Library/Class/MTP/Src/usbh_mtp_ptp.c **** 
 2507              		.loc 1 1031 7 view .LVU869
1028:./Libraries/STM32_USB_Host_Library/Class/MTP/Src/usbh_mtp_ptp.c **** 
 2508              		.loc 1 1028 28 is_stmt 0 view .LVU870
 2509 00b0 8DF82450 		strb	r5, [sp, #36]
1031:./Libraries/STM32_USB_Host_Library/Class/MTP/Src/usbh_mtp_ptp.c **** 
 2510              		.loc 1 1031 7 view .LVU871
 2511 00b4 FFF7FEFF 		bl	USBH_PTP_SendRequest
 2512              	.LVL204:
1034:./Libraries/STM32_USB_Host_Library/Class/MTP/Src/usbh_mtp_ptp.c ****       MTP_Handle->ptp.req_state = PTP_REQ_WAIT;
 2513              		.loc 1 1034 7 is_stmt 1 view .LVU872
1035:./Libraries/STM32_USB_Host_Library/Class/MTP/Src/usbh_mtp_ptp.c ****       status = USBH_BUSY;
 2514              		.loc 1 1035 7 view .LVU873
1034:./Libraries/STM32_USB_Host_Library/Class/MTP/Src/usbh_mtp_ptp.c ****       MTP_Handle->ptp.req_state = PTP_REQ_WAIT;
 2515              		.loc 1 1034 29 is_stmt 0 view .LVU874
 2516 00b8 04F5EB52 		add	r2, r4, #7520
 2517 00bc 40F20121 		movw	r1, #513
1039:./Libraries/STM32_USB_Host_Library/Class/MTP/Src/usbh_mtp_ptp.c **** #if (osCMSIS < 0x20000U)
 2518              		.loc 1 1039 21 view .LVU875
 2519 00c0 0524     		movs	r4, #5
 2520              	.LVL205:
1043:./Libraries/STM32_USB_Host_Library/Class/MTP/Src/usbh_mtp_ptp.c **** #endif
 2521              		.loc 1 1043 13 view .LVU876
 2522 00c2 3B46     		mov	r3, r7
1034:./Libraries/STM32_USB_Host_Library/Class/MTP/Src/usbh_mtp_ptp.c ****       MTP_Handle->ptp.req_state = PTP_REQ_WAIT;
 2523              		.loc 1 1034 29 view .LVU877
 2524 00c4 1180     		strh	r1, [r2]	@ movhi
1036:./Libraries/STM32_USB_Host_Library/Class/MTP/Src/usbh_mtp_ptp.c **** 
 2525              		.loc 1 1036 7 is_stmt 1 view .LVU878
1039:./Libraries/STM32_USB_Host_Library/Class/MTP/Src/usbh_mtp_ptp.c **** #if (osCMSIS < 0x20000U)
 2526              		.loc 1 1039 7 view .LVU879
1043:./Libraries/STM32_USB_Host_Library/Class/MTP/Src/usbh_mtp_ptp.c **** #endif
 2527              		.loc 1 1043 13 is_stmt 0 view .LVU880
 2528 00c6 3A46     		mov	r2, r7
 2529              	.LVL206:
1043:./Libraries/STM32_USB_Host_Library/Class/MTP/Src/usbh_mtp_ptp.c **** #endif
 2530              		.loc 1 1043 13 view .LVU881
 2531 00c8 D6F8D804 		ldr	r0, [r6, #1240]
 2532 00cc 06F59C61 		add	r1, r6, #1248
1039:./Libraries/STM32_USB_Host_Library/Class/MTP/Src/usbh_mtp_ptp.c **** #if (osCMSIS < 0x20000U)
 2533              		.loc 1 1039 21 view .LVU882
ARM GAS  /tmp/ccSE0mVF.s 			page 78


 2534 00d0 C6F8E044 		str	r4, [r6, #1248]
1043:./Libraries/STM32_USB_Host_Library/Class/MTP/Src/usbh_mtp_ptp.c **** #endif
 2535              		.loc 1 1043 7 is_stmt 1 view .LVU883
1043:./Libraries/STM32_USB_Host_Library/Class/MTP/Src/usbh_mtp_ptp.c **** #endif
 2536              		.loc 1 1043 13 is_stmt 0 view .LVU884
 2537 00d4 FFF7FEFF 		bl	osMessageQueuePut
 2538              	.LVL207:
1046:./Libraries/STM32_USB_Host_Library/Class/MTP/Src/usbh_mtp_ptp.c **** 
 2539              		.loc 1 1046 7 is_stmt 1 view .LVU885
1063:./Libraries/STM32_USB_Host_Library/Class/MTP/Src/usbh_mtp_ptp.c **** }
 2540              		.loc 1 1063 3 view .LVU886
 2541              		.loc 1 1064 1 is_stmt 0 view .LVU887
 2542 00d8 2846     		mov	r0, r5
 2543 00da 0AB0     		add	sp, sp, #40
 2544              	.LCFI41:
 2545              		.cfi_def_cfa_offset 24
 2546              		@ sp needed
 2547 00dc BDE8F081 		pop	{r4, r5, r6, r7, r8, pc}
 2548              		.loc 1 1064 1 view .LVU888
 2549              		.cfi_endproc
 2550              	.LFE354:
 2552              		.section	.text.USBH_PTP_GetDeviceInfo,"ax",%progbits
 2553              		.align	1
 2554              		.p2align 2,,3
 2555              		.global	USBH_PTP_GetDeviceInfo
 2556              		.syntax unified
 2557              		.thumb
 2558              		.thumb_func
 2559              		.fpu fpv5-d16
 2561              	USBH_PTP_GetDeviceInfo:
 2562              	.LVL208:
 2563              	.LFB355:
1065:./Libraries/STM32_USB_Host_Library/Class/MTP/Src/usbh_mtp_ptp.c **** /**
1066:./Libraries/STM32_USB_Host_Library/Class/MTP/Src/usbh_mtp_ptp.c ****   * @brief  USBH_PTP_GetDeviceInfo
1067:./Libraries/STM32_USB_Host_Library/Class/MTP/Src/usbh_mtp_ptp.c ****   *         Gets device info dataset and fills deviceinfo structure.
1068:./Libraries/STM32_USB_Host_Library/Class/MTP/Src/usbh_mtp_ptp.c ****   * @param  phost: Host handle
1069:./Libraries/STM32_USB_Host_Library/Class/MTP/Src/usbh_mtp_ptp.c ****   * @param  dev_info: Device info structure
1070:./Libraries/STM32_USB_Host_Library/Class/MTP/Src/usbh_mtp_ptp.c ****   * @retval USBH Status
1071:./Libraries/STM32_USB_Host_Library/Class/MTP/Src/usbh_mtp_ptp.c ****   */
1072:./Libraries/STM32_USB_Host_Library/Class/MTP/Src/usbh_mtp_ptp.c **** USBH_StatusTypeDef USBH_PTP_GetDeviceInfo(USBH_HandleTypeDef *phost, PTP_DeviceInfoTypedef *dev_inf
1073:./Libraries/STM32_USB_Host_Library/Class/MTP/Src/usbh_mtp_ptp.c **** {
 2564              		.loc 1 1073 1 is_stmt 1 view -0
 2565              		.cfi_startproc
 2566              		@ args = 0, pretend = 0, frame = 40
 2567              		@ frame_needed = 0, uses_anonymous_args = 0
1074:./Libraries/STM32_USB_Host_Library/Class/MTP/Src/usbh_mtp_ptp.c ****   USBH_StatusTypeDef status = USBH_BUSY;
 2568              		.loc 1 1074 3 view .LVU890
1075:./Libraries/STM32_USB_Host_Library/Class/MTP/Src/usbh_mtp_ptp.c ****   MTP_HandleTypeDef *MTP_Handle = (MTP_HandleTypeDef *)phost->pActiveClass->pData;
 2569              		.loc 1 1075 3 view .LVU891
 2570              		.loc 1 1075 22 is_stmt 0 view .LVU892
 2571 0000 D0F87C24 		ldr	r2, [r0, #1148]
1076:./Libraries/STM32_USB_Host_Library/Class/MTP/Src/usbh_mtp_ptp.c ****   PTP_ContainerTypedef ptp_container;
1077:./Libraries/STM32_USB_Host_Library/Class/MTP/Src/usbh_mtp_ptp.c **** 
1078:./Libraries/STM32_USB_Host_Library/Class/MTP/Src/usbh_mtp_ptp.c ****   switch (MTP_Handle->ptp.req_state)
 2572              		.loc 1 1078 26 view .LVU893
 2573 0004 41F66153 		movw	r3, #7521
1073:./Libraries/STM32_USB_Host_Library/Class/MTP/Src/usbh_mtp_ptp.c ****   USBH_StatusTypeDef status = USBH_BUSY;
ARM GAS  /tmp/ccSE0mVF.s 			page 79


 2574              		.loc 1 1073 1 view .LVU894
 2575 0008 F0B5     		push	{r4, r5, r6, r7, lr}
 2576              	.LCFI42:
 2577              		.cfi_def_cfa_offset 20
 2578              		.cfi_offset 4, -20
 2579              		.cfi_offset 5, -16
 2580              		.cfi_offset 6, -12
 2581              		.cfi_offset 7, -8
 2582              		.cfi_offset 14, -4
1075:./Libraries/STM32_USB_Host_Library/Class/MTP/Src/usbh_mtp_ptp.c ****   MTP_HandleTypeDef *MTP_Handle = (MTP_HandleTypeDef *)phost->pActiveClass->pData;
 2583              		.loc 1 1075 22 view .LVU895
 2584 000a D469     		ldr	r4, [r2, #28]
 2585              	.LVL209:
1076:./Libraries/STM32_USB_Host_Library/Class/MTP/Src/usbh_mtp_ptp.c ****   PTP_ContainerTypedef ptp_container;
 2586              		.loc 1 1076 3 is_stmt 1 view .LVU896
 2587              		.loc 1 1078 3 view .LVU897
1073:./Libraries/STM32_USB_Host_Library/Class/MTP/Src/usbh_mtp_ptp.c ****   USBH_StatusTypeDef status = USBH_BUSY;
 2588              		.loc 1 1073 1 is_stmt 0 view .LVU898
 2589 000c 8BB0     		sub	sp, sp, #44
 2590              	.LCFI43:
 2591              		.cfi_def_cfa_offset 64
1073:./Libraries/STM32_USB_Host_Library/Class/MTP/Src/usbh_mtp_ptp.c ****   USBH_StatusTypeDef status = USBH_BUSY;
 2592              		.loc 1 1073 1 view .LVU899
 2593 000e 0646     		mov	r6, r0
 2594              		.loc 1 1078 26 view .LVU900
 2595 0010 E55C     		ldrb	r5, [r4, r3]	@ zero_extendqisi2
 2596              		.loc 1 1078 3 view .LVU901
 2597 0012 012D     		cmp	r5, #1
 2598 0014 0ED0     		beq	.L154
 2599 0016 022D     		cmp	r5, #2
 2600 0018 08D1     		bne	.L158
1079:./Libraries/STM32_USB_Host_Library/Class/MTP/Src/usbh_mtp_ptp.c ****   {
1080:./Libraries/STM32_USB_Host_Library/Class/MTP/Src/usbh_mtp_ptp.c ****     case PTP_REQ_SEND:
1081:./Libraries/STM32_USB_Host_Library/Class/MTP/Src/usbh_mtp_ptp.c ****       /* Set operation request type */
1082:./Libraries/STM32_USB_Host_Library/Class/MTP/Src/usbh_mtp_ptp.c ****       MTP_Handle->ptp.flags = PTP_DP_GETDATA;
1083:./Libraries/STM32_USB_Host_Library/Class/MTP/Src/usbh_mtp_ptp.c ****       MTP_Handle->ptp.data_ptr = (uint8_t *)(void *) &(MTP_Handle->ptp.data_container);
1084:./Libraries/STM32_USB_Host_Library/Class/MTP/Src/usbh_mtp_ptp.c ****       MTP_Handle->ptp.data_length = 0U;
1085:./Libraries/STM32_USB_Host_Library/Class/MTP/Src/usbh_mtp_ptp.c ****       MTP_Handle->ptp.data_packet_counter = 0U;
1086:./Libraries/STM32_USB_Host_Library/Class/MTP/Src/usbh_mtp_ptp.c ****       MTP_Handle->ptp.data_packet = 0U;
1087:./Libraries/STM32_USB_Host_Library/Class/MTP/Src/usbh_mtp_ptp.c **** 
1088:./Libraries/STM32_USB_Host_Library/Class/MTP/Src/usbh_mtp_ptp.c ****       /* Fill operation request params */
1089:./Libraries/STM32_USB_Host_Library/Class/MTP/Src/usbh_mtp_ptp.c ****       ptp_container.Code = PTP_OC_GetDeviceInfo;
1090:./Libraries/STM32_USB_Host_Library/Class/MTP/Src/usbh_mtp_ptp.c ****       ptp_container.SessionID = MTP_Handle->ptp.session_id;
1091:./Libraries/STM32_USB_Host_Library/Class/MTP/Src/usbh_mtp_ptp.c ****       ptp_container.Transaction_ID = MTP_Handle->ptp.transaction_id++;
1092:./Libraries/STM32_USB_Host_Library/Class/MTP/Src/usbh_mtp_ptp.c ****       ptp_container.Nparam = 0U;
1093:./Libraries/STM32_USB_Host_Library/Class/MTP/Src/usbh_mtp_ptp.c **** 
1094:./Libraries/STM32_USB_Host_Library/Class/MTP/Src/usbh_mtp_ptp.c ****       /* convert request packet inti USB raw packet*/
1095:./Libraries/STM32_USB_Host_Library/Class/MTP/Src/usbh_mtp_ptp.c ****       USBH_PTP_SendRequest(phost, &ptp_container);
1096:./Libraries/STM32_USB_Host_Library/Class/MTP/Src/usbh_mtp_ptp.c **** 
1097:./Libraries/STM32_USB_Host_Library/Class/MTP/Src/usbh_mtp_ptp.c ****       /* Setup State machine and start transfer */
1098:./Libraries/STM32_USB_Host_Library/Class/MTP/Src/usbh_mtp_ptp.c ****       MTP_Handle->ptp.state = PTP_OP_REQUEST_STATE;
1099:./Libraries/STM32_USB_Host_Library/Class/MTP/Src/usbh_mtp_ptp.c ****       MTP_Handle->ptp.req_state = PTP_REQ_WAIT;
1100:./Libraries/STM32_USB_Host_Library/Class/MTP/Src/usbh_mtp_ptp.c ****       status = USBH_BUSY;
1101:./Libraries/STM32_USB_Host_Library/Class/MTP/Src/usbh_mtp_ptp.c **** 
1102:./Libraries/STM32_USB_Host_Library/Class/MTP/Src/usbh_mtp_ptp.c **** #if (USBH_USE_OS == 1U)
1103:./Libraries/STM32_USB_Host_Library/Class/MTP/Src/usbh_mtp_ptp.c ****       phost->os_msg = (uint32_t)USBH_STATE_CHANGED_EVENT;
1104:./Libraries/STM32_USB_Host_Library/Class/MTP/Src/usbh_mtp_ptp.c **** #if (osCMSIS < 0x20000U)
ARM GAS  /tmp/ccSE0mVF.s 			page 80


1105:./Libraries/STM32_USB_Host_Library/Class/MTP/Src/usbh_mtp_ptp.c ****       (void)osMessagePut(phost->os_event, phost->os_msg, 0U);
1106:./Libraries/STM32_USB_Host_Library/Class/MTP/Src/usbh_mtp_ptp.c **** #else
1107:./Libraries/STM32_USB_Host_Library/Class/MTP/Src/usbh_mtp_ptp.c ****       (void)osMessageQueuePut(phost->os_event, &phost->os_msg, 0U, NULL);
1108:./Libraries/STM32_USB_Host_Library/Class/MTP/Src/usbh_mtp_ptp.c **** #endif
1109:./Libraries/STM32_USB_Host_Library/Class/MTP/Src/usbh_mtp_ptp.c **** #endif
1110:./Libraries/STM32_USB_Host_Library/Class/MTP/Src/usbh_mtp_ptp.c ****       break;
1111:./Libraries/STM32_USB_Host_Library/Class/MTP/Src/usbh_mtp_ptp.c **** 
1112:./Libraries/STM32_USB_Host_Library/Class/MTP/Src/usbh_mtp_ptp.c ****     case PTP_REQ_WAIT:
1113:./Libraries/STM32_USB_Host_Library/Class/MTP/Src/usbh_mtp_ptp.c ****       status = USBH_PTP_Process(phost);
 2601              		.loc 1 1113 7 is_stmt 1 view .LVU902
 2602 001a 0F46     		mov	r7, r1
 2603              		.loc 1 1113 16 is_stmt 0 view .LVU903
 2604 001c FFF7FEFF 		bl	USBH_PTP_Process
 2605              	.LVL210:
1114:./Libraries/STM32_USB_Host_Library/Class/MTP/Src/usbh_mtp_ptp.c **** 
1115:./Libraries/STM32_USB_Host_Library/Class/MTP/Src/usbh_mtp_ptp.c ****       if (status == USBH_OK)
 2606              		.loc 1 1115 7 is_stmt 1 view .LVU904
 2607              		.loc 1 1115 10 is_stmt 0 view .LVU905
 2608 0020 0546     		mov	r5, r0
 2609 0022 0028     		cmp	r0, #0
 2610 0024 47D0     		beq	.L159
 2611              	.LVL211:
1116:./Libraries/STM32_USB_Host_Library/Class/MTP/Src/usbh_mtp_ptp.c ****       {
1117:./Libraries/STM32_USB_Host_Library/Class/MTP/Src/usbh_mtp_ptp.c ****         PTP_DecodeDeviceInfo(phost, dev_info);
1118:./Libraries/STM32_USB_Host_Library/Class/MTP/Src/usbh_mtp_ptp.c ****       }
1119:./Libraries/STM32_USB_Host_Library/Class/MTP/Src/usbh_mtp_ptp.c ****       break;
1120:./Libraries/STM32_USB_Host_Library/Class/MTP/Src/usbh_mtp_ptp.c **** 
1121:./Libraries/STM32_USB_Host_Library/Class/MTP/Src/usbh_mtp_ptp.c ****     default:
1122:./Libraries/STM32_USB_Host_Library/Class/MTP/Src/usbh_mtp_ptp.c ****       break;
1123:./Libraries/STM32_USB_Host_Library/Class/MTP/Src/usbh_mtp_ptp.c ****   }
1124:./Libraries/STM32_USB_Host_Library/Class/MTP/Src/usbh_mtp_ptp.c ****   return status;
 2612              		.loc 1 1124 3 is_stmt 1 view .LVU906
1125:./Libraries/STM32_USB_Host_Library/Class/MTP/Src/usbh_mtp_ptp.c **** }
 2613              		.loc 1 1125 1 is_stmt 0 view .LVU907
 2614 0026 2846     		mov	r0, r5
 2615 0028 0BB0     		add	sp, sp, #44
 2616              	.LCFI44:
 2617              		.cfi_remember_state
 2618              		.cfi_def_cfa_offset 20
 2619              		@ sp needed
 2620 002a F0BD     		pop	{r4, r5, r6, r7, pc}
 2621              	.LVL212:
 2622              	.L158:
 2623              	.LCFI45:
 2624              		.cfi_restore_state
1078:./Libraries/STM32_USB_Host_Library/Class/MTP/Src/usbh_mtp_ptp.c ****   {
 2625              		.loc 1 1078 3 view .LVU908
 2626 002c 0125     		movs	r5, #1
 2627              	.LVL213:
1124:./Libraries/STM32_USB_Host_Library/Class/MTP/Src/usbh_mtp_ptp.c **** }
 2628              		.loc 1 1124 3 is_stmt 1 view .LVU909
 2629              		.loc 1 1125 1 is_stmt 0 view .LVU910
 2630 002e 2846     		mov	r0, r5
 2631              	.LVL214:
 2632              		.loc 1 1125 1 view .LVU911
 2633 0030 0BB0     		add	sp, sp, #44
 2634              	.LCFI46:
ARM GAS  /tmp/ccSE0mVF.s 			page 81


 2635              		.cfi_remember_state
 2636              		.cfi_def_cfa_offset 20
 2637              		@ sp needed
 2638 0032 F0BD     		pop	{r4, r5, r6, r7, pc}
 2639              	.LVL215:
 2640              	.L154:
 2641              	.LCFI47:
 2642              		.cfi_restore_state
1082:./Libraries/STM32_USB_Host_Library/Class/MTP/Src/usbh_mtp_ptp.c ****       MTP_Handle->ptp.data_ptr = (uint8_t *)(void *) &(MTP_Handle->ptp.data_container);
 2643              		.loc 1 1082 7 is_stmt 1 view .LVU912
1083:./Libraries/STM32_USB_Host_Library/Class/MTP/Src/usbh_mtp_ptp.c ****       MTP_Handle->ptp.data_length = 0U;
 2644              		.loc 1 1083 54 is_stmt 0 view .LVU913
 2645 0034 41F68453 		movw	r3, #7556
1091:./Libraries/STM32_USB_Host_Library/Class/MTP/Src/usbh_mtp_ptp.c ****       ptp_container.Nparam = 0U;
 2646              		.loc 1 1091 53 view .LVU914
 2647 0038 42F2A412 		movw	r2, #8612
1083:./Libraries/STM32_USB_Host_Library/Class/MTP/Src/usbh_mtp_ptp.c ****       MTP_Handle->ptp.data_length = 0U;
 2648              		.loc 1 1083 32 view .LVU915
 2649 003c 42F2B01E 		movw	lr, #8624
1090:./Libraries/STM32_USB_Host_Library/Class/MTP/Src/usbh_mtp_ptp.c ****       ptp_container.Transaction_ID = MTP_Handle->ptp.transaction_id++;
 2650              		.loc 1 1090 48 view .LVU916
 2651 0040 42F2A81C 		movw	ip, #8616
1083:./Libraries/STM32_USB_Host_Library/Class/MTP/Src/usbh_mtp_ptp.c ****       MTP_Handle->ptp.data_length = 0U;
 2652              		.loc 1 1083 54 view .LVU917
 2653 0044 2344     		add	r3, r3, r4
1091:./Libraries/STM32_USB_Host_Library/Class/MTP/Src/usbh_mtp_ptp.c ****       ptp_container.Nparam = 0U;
 2654              		.loc 1 1091 53 view .LVU918
 2655 0046 A158     		ldr	r1, [r4, r2]
 2656              	.LVL216:
1082:./Libraries/STM32_USB_Host_Library/Class/MTP/Src/usbh_mtp_ptp.c ****       MTP_Handle->ptp.data_ptr = (uint8_t *)(void *) &(MTP_Handle->ptp.data_container);
 2657              		.loc 1 1082 29 view .LVU919
 2658 0048 42F2AC17 		movw	r7, #8620
1090:./Libraries/STM32_USB_Host_Library/Class/MTP/Src/usbh_mtp_ptp.c ****       ptp_container.Transaction_ID = MTP_Handle->ptp.transaction_id++;
 2659              		.loc 1 1090 31 view .LVU920
 2660 004c 54F80CC0 		ldr	ip, [r4, ip]
1083:./Libraries/STM32_USB_Host_Library/Class/MTP/Src/usbh_mtp_ptp.c ****       MTP_Handle->ptp.data_length = 0U;
 2661              		.loc 1 1083 32 view .LVU921
 2662 0050 44F80E30 		str	r3, [r4, lr]
1082:./Libraries/STM32_USB_Host_Library/Class/MTP/Src/usbh_mtp_ptp.c ****       MTP_Handle->ptp.data_ptr = (uint8_t *)(void *) &(MTP_Handle->ptp.data_container);
 2663              		.loc 1 1082 29 view .LVU922
 2664 0054 0223     		movs	r3, #2
1091:./Libraries/STM32_USB_Host_Library/Class/MTP/Src/usbh_mtp_ptp.c ****       ptp_container.Nparam = 0U;
 2665              		.loc 1 1091 68 view .LVU923
 2666 0056 01F1010E 		add	lr, r1, #1
1091:./Libraries/STM32_USB_Host_Library/Class/MTP/Src/usbh_mtp_ptp.c ****       ptp_container.Nparam = 0U;
 2667              		.loc 1 1091 36 view .LVU924
 2668 005a 0391     		str	r1, [sp, #12]
1082:./Libraries/STM32_USB_Host_Library/Class/MTP/Src/usbh_mtp_ptp.c ****       MTP_Handle->ptp.data_ptr = (uint8_t *)(void *) &(MTP_Handle->ptp.data_container);
 2669              		.loc 1 1082 29 view .LVU925
 2670 005c E351     		str	r3, [r4, r7]
1083:./Libraries/STM32_USB_Host_Library/Class/MTP/Src/usbh_mtp_ptp.c ****       MTP_Handle->ptp.data_length = 0U;
 2671              		.loc 1 1083 7 is_stmt 1 view .LVU926
1084:./Libraries/STM32_USB_Host_Library/Class/MTP/Src/usbh_mtp_ptp.c ****       MTP_Handle->ptp.data_packet_counter = 0U;
 2672              		.loc 1 1084 7 view .LVU927
1084:./Libraries/STM32_USB_Host_Library/Class/MTP/Src/usbh_mtp_ptp.c ****       MTP_Handle->ptp.data_packet_counter = 0U;
 2673              		.loc 1 1084 35 is_stmt 0 view .LVU928
 2674 005e 42F2B411 		movw	r1, #8628
ARM GAS  /tmp/ccSE0mVF.s 			page 82


 2675 0062 0027     		movs	r7, #0
1085:./Libraries/STM32_USB_Host_Library/Class/MTP/Src/usbh_mtp_ptp.c ****       MTP_Handle->ptp.data_packet = 0U;
 2676              		.loc 1 1085 43 view .LVU929
 2677 0064 04F50753 		add	r3, r4, #8640
1090:./Libraries/STM32_USB_Host_Library/Class/MTP/Src/usbh_mtp_ptp.c ****       ptp_container.Transaction_ID = MTP_Handle->ptp.transaction_id++;
 2678              		.loc 1 1090 31 view .LVU930
 2679 0068 CDF808C0 		str	ip, [sp, #8]
1086:./Libraries/STM32_USB_Host_Library/Class/MTP/Src/usbh_mtp_ptp.c **** 
 2680              		.loc 1 1086 35 view .LVU931
 2681 006c 42F2B81C 		movw	ip, #8632
1084:./Libraries/STM32_USB_Host_Library/Class/MTP/Src/usbh_mtp_ptp.c ****       MTP_Handle->ptp.data_packet_counter = 0U;
 2682              		.loc 1 1084 35 view .LVU932
 2683 0070 6750     		str	r7, [r4, r1]
1085:./Libraries/STM32_USB_Host_Library/Class/MTP/Src/usbh_mtp_ptp.c ****       MTP_Handle->ptp.data_packet = 0U;
 2684              		.loc 1 1085 7 is_stmt 1 view .LVU933
1095:./Libraries/STM32_USB_Host_Library/Class/MTP/Src/usbh_mtp_ptp.c **** 
 2685              		.loc 1 1095 7 is_stmt 0 view .LVU934
 2686 0072 01A9     		add	r1, sp, #4
1085:./Libraries/STM32_USB_Host_Library/Class/MTP/Src/usbh_mtp_ptp.c ****       MTP_Handle->ptp.data_packet = 0U;
 2687              		.loc 1 1085 43 view .LVU935
 2688 0074 1F60     		str	r7, [r3]
1086:./Libraries/STM32_USB_Host_Library/Class/MTP/Src/usbh_mtp_ptp.c **** 
 2689              		.loc 1 1086 7 is_stmt 1 view .LVU936
1089:./Libraries/STM32_USB_Host_Library/Class/MTP/Src/usbh_mtp_ptp.c ****       ptp_container.SessionID = MTP_Handle->ptp.session_id;
 2690              		.loc 1 1089 26 is_stmt 0 view .LVU937
 2691 0076 41F20103 		movw	r3, #4097
1091:./Libraries/STM32_USB_Host_Library/Class/MTP/Src/usbh_mtp_ptp.c ****       ptp_container.Nparam = 0U;
 2692              		.loc 1 1091 68 view .LVU938
 2693 007a 44F802E0 		str	lr, [r4, r2]
1086:./Libraries/STM32_USB_Host_Library/Class/MTP/Src/usbh_mtp_ptp.c **** 
 2694              		.loc 1 1086 35 view .LVU939
 2695 007e 44F80C70 		str	r7, [r4, ip]
1089:./Libraries/STM32_USB_Host_Library/Class/MTP/Src/usbh_mtp_ptp.c ****       ptp_container.SessionID = MTP_Handle->ptp.session_id;
 2696              		.loc 1 1089 7 is_stmt 1 view .LVU940
1098:./Libraries/STM32_USB_Host_Library/Class/MTP/Src/usbh_mtp_ptp.c ****       MTP_Handle->ptp.req_state = PTP_REQ_WAIT;
 2697              		.loc 1 1098 29 is_stmt 0 view .LVU941
 2698 0082 04F5EB54 		add	r4, r4, #7520
 2699              	.LVL217:
1089:./Libraries/STM32_USB_Host_Library/Class/MTP/Src/usbh_mtp_ptp.c ****       ptp_container.SessionID = MTP_Handle->ptp.session_id;
 2700              		.loc 1 1089 26 view .LVU942
 2701 0086 ADF80430 		strh	r3, [sp, #4]	@ movhi
1090:./Libraries/STM32_USB_Host_Library/Class/MTP/Src/usbh_mtp_ptp.c ****       ptp_container.Transaction_ID = MTP_Handle->ptp.transaction_id++;
 2702              		.loc 1 1090 7 is_stmt 1 view .LVU943
1091:./Libraries/STM32_USB_Host_Library/Class/MTP/Src/usbh_mtp_ptp.c ****       ptp_container.Nparam = 0U;
 2703              		.loc 1 1091 7 view .LVU944
1092:./Libraries/STM32_USB_Host_Library/Class/MTP/Src/usbh_mtp_ptp.c **** 
 2704              		.loc 1 1092 7 view .LVU945
1095:./Libraries/STM32_USB_Host_Library/Class/MTP/Src/usbh_mtp_ptp.c **** 
 2705              		.loc 1 1095 7 view .LVU946
1092:./Libraries/STM32_USB_Host_Library/Class/MTP/Src/usbh_mtp_ptp.c **** 
 2706              		.loc 1 1092 28 is_stmt 0 view .LVU947
 2707 008a 8DF82470 		strb	r7, [sp, #36]
 2708              	.LVL218:
1095:./Libraries/STM32_USB_Host_Library/Class/MTP/Src/usbh_mtp_ptp.c **** 
 2709              		.loc 1 1095 7 view .LVU948
 2710 008e FFF7FEFF 		bl	USBH_PTP_SendRequest
 2711              	.LVL219:
ARM GAS  /tmp/ccSE0mVF.s 			page 83


1098:./Libraries/STM32_USB_Host_Library/Class/MTP/Src/usbh_mtp_ptp.c ****       MTP_Handle->ptp.req_state = PTP_REQ_WAIT;
 2712              		.loc 1 1098 7 is_stmt 1 view .LVU949
1099:./Libraries/STM32_USB_Host_Library/Class/MTP/Src/usbh_mtp_ptp.c ****       status = USBH_BUSY;
 2713              		.loc 1 1099 7 view .LVU950
1103:./Libraries/STM32_USB_Host_Library/Class/MTP/Src/usbh_mtp_ptp.c **** #if (osCMSIS < 0x20000U)
 2714              		.loc 1 1103 21 is_stmt 0 view .LVU951
 2715 0092 4FF0050C 		mov	ip, #5
1098:./Libraries/STM32_USB_Host_Library/Class/MTP/Src/usbh_mtp_ptp.c ****       MTP_Handle->ptp.req_state = PTP_REQ_WAIT;
 2716              		.loc 1 1098 29 view .LVU952
 2717 0096 40F20122 		movw	r2, #513
1107:./Libraries/STM32_USB_Host_Library/Class/MTP/Src/usbh_mtp_ptp.c **** #endif
 2718              		.loc 1 1107 13 view .LVU953
 2719 009a 3B46     		mov	r3, r7
 2720 009c 06F59C61 		add	r1, r6, #1248
1098:./Libraries/STM32_USB_Host_Library/Class/MTP/Src/usbh_mtp_ptp.c ****       MTP_Handle->ptp.req_state = PTP_REQ_WAIT;
 2721              		.loc 1 1098 29 view .LVU954
 2722 00a0 2280     		strh	r2, [r4]	@ movhi
1100:./Libraries/STM32_USB_Host_Library/Class/MTP/Src/usbh_mtp_ptp.c **** 
 2723              		.loc 1 1100 7 is_stmt 1 view .LVU955
1103:./Libraries/STM32_USB_Host_Library/Class/MTP/Src/usbh_mtp_ptp.c **** #if (osCMSIS < 0x20000U)
 2724              		.loc 1 1103 7 view .LVU956
1107:./Libraries/STM32_USB_Host_Library/Class/MTP/Src/usbh_mtp_ptp.c **** #endif
 2725              		.loc 1 1107 13 is_stmt 0 view .LVU957
 2726 00a2 3A46     		mov	r2, r7
 2727 00a4 D6F8D804 		ldr	r0, [r6, #1240]
1103:./Libraries/STM32_USB_Host_Library/Class/MTP/Src/usbh_mtp_ptp.c **** #if (osCMSIS < 0x20000U)
 2728              		.loc 1 1103 21 view .LVU958
 2729 00a8 C6F8E0C4 		str	ip, [r6, #1248]
1107:./Libraries/STM32_USB_Host_Library/Class/MTP/Src/usbh_mtp_ptp.c **** #endif
 2730              		.loc 1 1107 7 is_stmt 1 view .LVU959
1107:./Libraries/STM32_USB_Host_Library/Class/MTP/Src/usbh_mtp_ptp.c **** #endif
 2731              		.loc 1 1107 13 is_stmt 0 view .LVU960
 2732 00ac FFF7FEFF 		bl	osMessageQueuePut
 2733              	.LVL220:
1110:./Libraries/STM32_USB_Host_Library/Class/MTP/Src/usbh_mtp_ptp.c **** 
 2734              		.loc 1 1110 7 is_stmt 1 view .LVU961
1124:./Libraries/STM32_USB_Host_Library/Class/MTP/Src/usbh_mtp_ptp.c **** }
 2735              		.loc 1 1124 3 view .LVU962
 2736              		.loc 1 1125 1 is_stmt 0 view .LVU963
 2737 00b0 2846     		mov	r0, r5
 2738 00b2 0BB0     		add	sp, sp, #44
 2739              	.LCFI48:
 2740              		.cfi_remember_state
 2741              		.cfi_def_cfa_offset 20
 2742              		@ sp needed
 2743 00b4 F0BD     		pop	{r4, r5, r6, r7, pc}
 2744              	.LVL221:
 2745              	.L159:
 2746              	.LCFI49:
 2747              		.cfi_restore_state
1117:./Libraries/STM32_USB_Host_Library/Class/MTP/Src/usbh_mtp_ptp.c ****       }
 2748              		.loc 1 1117 9 is_stmt 1 view .LVU964
 2749 00b6 3046     		mov	r0, r6
 2750              	.LVL222:
1117:./Libraries/STM32_USB_Host_Library/Class/MTP/Src/usbh_mtp_ptp.c ****       }
 2751              		.loc 1 1117 9 is_stmt 0 view .LVU965
 2752 00b8 3946     		mov	r1, r7
ARM GAS  /tmp/ccSE0mVF.s 			page 84


 2753 00ba FFF7FEFF 		bl	PTP_DecodeDeviceInfo
 2754              	.LVL223:
1124:./Libraries/STM32_USB_Host_Library/Class/MTP/Src/usbh_mtp_ptp.c **** }
 2755              		.loc 1 1124 3 is_stmt 1 view .LVU966
 2756              		.loc 1 1125 1 is_stmt 0 view .LVU967
 2757 00be 2846     		mov	r0, r5
 2758 00c0 0BB0     		add	sp, sp, #44
 2759              	.LCFI50:
 2760              		.cfi_def_cfa_offset 20
 2761              		@ sp needed
 2762 00c2 F0BD     		pop	{r4, r5, r6, r7, pc}
 2763              		.loc 1 1125 1 view .LVU968
 2764              		.cfi_endproc
 2765              	.LFE355:
 2767              		.section	.text.USBH_PTP_GetStorageIds,"ax",%progbits
 2768              		.align	1
 2769              		.p2align 2,,3
 2770              		.global	USBH_PTP_GetStorageIds
 2771              		.syntax unified
 2772              		.thumb
 2773              		.thumb_func
 2774              		.fpu fpv5-d16
 2776              	USBH_PTP_GetStorageIds:
 2777              	.LVL224:
 2778              	.LFB356:
1126:./Libraries/STM32_USB_Host_Library/Class/MTP/Src/usbh_mtp_ptp.c **** 
1127:./Libraries/STM32_USB_Host_Library/Class/MTP/Src/usbh_mtp_ptp.c **** /**
1128:./Libraries/STM32_USB_Host_Library/Class/MTP/Src/usbh_mtp_ptp.c ****   * @brief  USBH_PTP_GetStorageIds
1129:./Libraries/STM32_USB_Host_Library/Class/MTP/Src/usbh_mtp_ptp.c ****   *         Gets device info dataset and fills deviceinfo structure.
1130:./Libraries/STM32_USB_Host_Library/Class/MTP/Src/usbh_mtp_ptp.c ****   * @param  phost: Host handle
1131:./Libraries/STM32_USB_Host_Library/Class/MTP/Src/usbh_mtp_ptp.c ****   * @param  dev_info: Device info structure
1132:./Libraries/STM32_USB_Host_Library/Class/MTP/Src/usbh_mtp_ptp.c ****   * @retval USBH Status
1133:./Libraries/STM32_USB_Host_Library/Class/MTP/Src/usbh_mtp_ptp.c ****   */
1134:./Libraries/STM32_USB_Host_Library/Class/MTP/Src/usbh_mtp_ptp.c **** USBH_StatusTypeDef USBH_PTP_GetStorageIds(USBH_HandleTypeDef *phost, PTP_StorageIDsTypedef *storage
1135:./Libraries/STM32_USB_Host_Library/Class/MTP/Src/usbh_mtp_ptp.c **** {
 2779              		.loc 1 1135 1 is_stmt 1 view -0
 2780              		.cfi_startproc
 2781              		@ args = 0, pretend = 0, frame = 40
 2782              		@ frame_needed = 0, uses_anonymous_args = 0
1136:./Libraries/STM32_USB_Host_Library/Class/MTP/Src/usbh_mtp_ptp.c ****   USBH_StatusTypeDef status = USBH_BUSY;
 2783              		.loc 1 1136 3 view .LVU970
1137:./Libraries/STM32_USB_Host_Library/Class/MTP/Src/usbh_mtp_ptp.c ****   MTP_HandleTypeDef *MTP_Handle = (MTP_HandleTypeDef *)phost->pActiveClass->pData;
 2784              		.loc 1 1137 3 view .LVU971
 2785              		.loc 1 1137 22 is_stmt 0 view .LVU972
 2786 0000 D0F87C24 		ldr	r2, [r0, #1148]
1138:./Libraries/STM32_USB_Host_Library/Class/MTP/Src/usbh_mtp_ptp.c ****   PTP_ContainerTypedef ptp_container;
1139:./Libraries/STM32_USB_Host_Library/Class/MTP/Src/usbh_mtp_ptp.c **** 
1140:./Libraries/STM32_USB_Host_Library/Class/MTP/Src/usbh_mtp_ptp.c ****   switch (MTP_Handle->ptp.req_state)
 2787              		.loc 1 1140 26 view .LVU973
 2788 0004 41F66153 		movw	r3, #7521
1135:./Libraries/STM32_USB_Host_Library/Class/MTP/Src/usbh_mtp_ptp.c ****   USBH_StatusTypeDef status = USBH_BUSY;
 2789              		.loc 1 1135 1 view .LVU974
 2790 0008 F0B5     		push	{r4, r5, r6, r7, lr}
 2791              	.LCFI51:
 2792              		.cfi_def_cfa_offset 20
 2793              		.cfi_offset 4, -20
 2794              		.cfi_offset 5, -16
ARM GAS  /tmp/ccSE0mVF.s 			page 85


 2795              		.cfi_offset 6, -12
 2796              		.cfi_offset 7, -8
 2797              		.cfi_offset 14, -4
1137:./Libraries/STM32_USB_Host_Library/Class/MTP/Src/usbh_mtp_ptp.c ****   MTP_HandleTypeDef *MTP_Handle = (MTP_HandleTypeDef *)phost->pActiveClass->pData;
 2798              		.loc 1 1137 22 view .LVU975
 2799 000a D469     		ldr	r4, [r2, #28]
 2800              	.LVL225:
1138:./Libraries/STM32_USB_Host_Library/Class/MTP/Src/usbh_mtp_ptp.c ****   PTP_ContainerTypedef ptp_container;
 2801              		.loc 1 1138 3 is_stmt 1 view .LVU976
 2802              		.loc 1 1140 3 view .LVU977
1135:./Libraries/STM32_USB_Host_Library/Class/MTP/Src/usbh_mtp_ptp.c ****   USBH_StatusTypeDef status = USBH_BUSY;
 2803              		.loc 1 1135 1 is_stmt 0 view .LVU978
 2804 000c 8BB0     		sub	sp, sp, #44
 2805              	.LCFI52:
 2806              		.cfi_def_cfa_offset 64
1135:./Libraries/STM32_USB_Host_Library/Class/MTP/Src/usbh_mtp_ptp.c ****   USBH_StatusTypeDef status = USBH_BUSY;
 2807              		.loc 1 1135 1 view .LVU979
 2808 000e 0646     		mov	r6, r0
 2809              		.loc 1 1140 26 view .LVU980
 2810 0010 E55C     		ldrb	r5, [r4, r3]	@ zero_extendqisi2
 2811              		.loc 1 1140 3 view .LVU981
 2812 0012 012D     		cmp	r5, #1
 2813 0014 0ED0     		beq	.L161
 2814 0016 022D     		cmp	r5, #2
 2815 0018 08D1     		bne	.L165
1141:./Libraries/STM32_USB_Host_Library/Class/MTP/Src/usbh_mtp_ptp.c ****   {
1142:./Libraries/STM32_USB_Host_Library/Class/MTP/Src/usbh_mtp_ptp.c ****     case PTP_REQ_SEND:
1143:./Libraries/STM32_USB_Host_Library/Class/MTP/Src/usbh_mtp_ptp.c ****       /* Set operation request type */
1144:./Libraries/STM32_USB_Host_Library/Class/MTP/Src/usbh_mtp_ptp.c ****       MTP_Handle->ptp.flags = PTP_DP_GETDATA;
1145:./Libraries/STM32_USB_Host_Library/Class/MTP/Src/usbh_mtp_ptp.c ****       MTP_Handle->ptp.data_ptr = (uint8_t *)(void *) &(MTP_Handle->ptp.data_container);
1146:./Libraries/STM32_USB_Host_Library/Class/MTP/Src/usbh_mtp_ptp.c ****       MTP_Handle->ptp.data_length = 0U;
1147:./Libraries/STM32_USB_Host_Library/Class/MTP/Src/usbh_mtp_ptp.c ****       MTP_Handle->ptp.data_packet_counter = 0U;
1148:./Libraries/STM32_USB_Host_Library/Class/MTP/Src/usbh_mtp_ptp.c ****       MTP_Handle->ptp.data_packet = 0U;
1149:./Libraries/STM32_USB_Host_Library/Class/MTP/Src/usbh_mtp_ptp.c **** 
1150:./Libraries/STM32_USB_Host_Library/Class/MTP/Src/usbh_mtp_ptp.c ****       /* Fill operation request params */
1151:./Libraries/STM32_USB_Host_Library/Class/MTP/Src/usbh_mtp_ptp.c ****       ptp_container.Code = PTP_OC_GetStorageIDs;
1152:./Libraries/STM32_USB_Host_Library/Class/MTP/Src/usbh_mtp_ptp.c ****       ptp_container.SessionID = MTP_Handle->ptp.session_id;
1153:./Libraries/STM32_USB_Host_Library/Class/MTP/Src/usbh_mtp_ptp.c ****       ptp_container.Transaction_ID = MTP_Handle->ptp.transaction_id++;
1154:./Libraries/STM32_USB_Host_Library/Class/MTP/Src/usbh_mtp_ptp.c ****       ptp_container.Nparam = 0U;
1155:./Libraries/STM32_USB_Host_Library/Class/MTP/Src/usbh_mtp_ptp.c **** 
1156:./Libraries/STM32_USB_Host_Library/Class/MTP/Src/usbh_mtp_ptp.c ****       /* convert request packet inti USB raw packet*/
1157:./Libraries/STM32_USB_Host_Library/Class/MTP/Src/usbh_mtp_ptp.c ****       USBH_PTP_SendRequest(phost, &ptp_container);
1158:./Libraries/STM32_USB_Host_Library/Class/MTP/Src/usbh_mtp_ptp.c **** 
1159:./Libraries/STM32_USB_Host_Library/Class/MTP/Src/usbh_mtp_ptp.c ****       /* Setup State machine and start transfer */
1160:./Libraries/STM32_USB_Host_Library/Class/MTP/Src/usbh_mtp_ptp.c ****       MTP_Handle->ptp.state = PTP_OP_REQUEST_STATE;
1161:./Libraries/STM32_USB_Host_Library/Class/MTP/Src/usbh_mtp_ptp.c ****       MTP_Handle->ptp.req_state = PTP_REQ_WAIT;
1162:./Libraries/STM32_USB_Host_Library/Class/MTP/Src/usbh_mtp_ptp.c ****       status = USBH_BUSY;
1163:./Libraries/STM32_USB_Host_Library/Class/MTP/Src/usbh_mtp_ptp.c **** 
1164:./Libraries/STM32_USB_Host_Library/Class/MTP/Src/usbh_mtp_ptp.c **** #if (USBH_USE_OS == 1U)
1165:./Libraries/STM32_USB_Host_Library/Class/MTP/Src/usbh_mtp_ptp.c ****       phost->os_msg = (uint32_t)USBH_STATE_CHANGED_EVENT;
1166:./Libraries/STM32_USB_Host_Library/Class/MTP/Src/usbh_mtp_ptp.c **** #if (osCMSIS < 0x20000U)
1167:./Libraries/STM32_USB_Host_Library/Class/MTP/Src/usbh_mtp_ptp.c ****       (void)osMessagePut(phost->os_event, phost->os_msg, 0U);
1168:./Libraries/STM32_USB_Host_Library/Class/MTP/Src/usbh_mtp_ptp.c **** #else
1169:./Libraries/STM32_USB_Host_Library/Class/MTP/Src/usbh_mtp_ptp.c ****       (void)osMessageQueuePut(phost->os_event, &phost->os_msg, 0U, NULL);
1170:./Libraries/STM32_USB_Host_Library/Class/MTP/Src/usbh_mtp_ptp.c **** #endif
1171:./Libraries/STM32_USB_Host_Library/Class/MTP/Src/usbh_mtp_ptp.c **** #endif
1172:./Libraries/STM32_USB_Host_Library/Class/MTP/Src/usbh_mtp_ptp.c ****       break;
ARM GAS  /tmp/ccSE0mVF.s 			page 86


1173:./Libraries/STM32_USB_Host_Library/Class/MTP/Src/usbh_mtp_ptp.c **** 
1174:./Libraries/STM32_USB_Host_Library/Class/MTP/Src/usbh_mtp_ptp.c ****     case PTP_REQ_WAIT:
1175:./Libraries/STM32_USB_Host_Library/Class/MTP/Src/usbh_mtp_ptp.c ****       status = USBH_PTP_Process(phost);
 2816              		.loc 1 1175 7 is_stmt 1 view .LVU982
 2817 001a 0F46     		mov	r7, r1
 2818              		.loc 1 1175 16 is_stmt 0 view .LVU983
 2819 001c FFF7FEFF 		bl	USBH_PTP_Process
 2820              	.LVL226:
1176:./Libraries/STM32_USB_Host_Library/Class/MTP/Src/usbh_mtp_ptp.c **** 
1177:./Libraries/STM32_USB_Host_Library/Class/MTP/Src/usbh_mtp_ptp.c ****       if (status == USBH_OK)
 2821              		.loc 1 1177 7 is_stmt 1 view .LVU984
 2822              		.loc 1 1177 10 is_stmt 0 view .LVU985
 2823 0020 0546     		mov	r5, r0
 2824 0022 0028     		cmp	r0, #0
 2825 0024 47D0     		beq	.L166
 2826              	.LVL227:
1178:./Libraries/STM32_USB_Host_Library/Class/MTP/Src/usbh_mtp_ptp.c ****       {
1179:./Libraries/STM32_USB_Host_Library/Class/MTP/Src/usbh_mtp_ptp.c ****         PTP_GetStorageIDs(phost, storage_ids);
1180:./Libraries/STM32_USB_Host_Library/Class/MTP/Src/usbh_mtp_ptp.c ****       }
1181:./Libraries/STM32_USB_Host_Library/Class/MTP/Src/usbh_mtp_ptp.c ****       break;
1182:./Libraries/STM32_USB_Host_Library/Class/MTP/Src/usbh_mtp_ptp.c **** 
1183:./Libraries/STM32_USB_Host_Library/Class/MTP/Src/usbh_mtp_ptp.c ****     default:
1184:./Libraries/STM32_USB_Host_Library/Class/MTP/Src/usbh_mtp_ptp.c ****       break;
1185:./Libraries/STM32_USB_Host_Library/Class/MTP/Src/usbh_mtp_ptp.c ****   }
1186:./Libraries/STM32_USB_Host_Library/Class/MTP/Src/usbh_mtp_ptp.c ****   return status;
 2827              		.loc 1 1186 3 is_stmt 1 view .LVU986
1187:./Libraries/STM32_USB_Host_Library/Class/MTP/Src/usbh_mtp_ptp.c **** }
 2828              		.loc 1 1187 1 is_stmt 0 view .LVU987
 2829 0026 2846     		mov	r0, r5
 2830 0028 0BB0     		add	sp, sp, #44
 2831              	.LCFI53:
 2832              		.cfi_remember_state
 2833              		.cfi_def_cfa_offset 20
 2834              		@ sp needed
 2835 002a F0BD     		pop	{r4, r5, r6, r7, pc}
 2836              	.LVL228:
 2837              	.L165:
 2838              	.LCFI54:
 2839              		.cfi_restore_state
1140:./Libraries/STM32_USB_Host_Library/Class/MTP/Src/usbh_mtp_ptp.c ****   {
 2840              		.loc 1 1140 3 view .LVU988
 2841 002c 0125     		movs	r5, #1
 2842              	.LVL229:
1186:./Libraries/STM32_USB_Host_Library/Class/MTP/Src/usbh_mtp_ptp.c **** }
 2843              		.loc 1 1186 3 is_stmt 1 view .LVU989
 2844              		.loc 1 1187 1 is_stmt 0 view .LVU990
 2845 002e 2846     		mov	r0, r5
 2846              	.LVL230:
 2847              		.loc 1 1187 1 view .LVU991
 2848 0030 0BB0     		add	sp, sp, #44
 2849              	.LCFI55:
 2850              		.cfi_remember_state
 2851              		.cfi_def_cfa_offset 20
 2852              		@ sp needed
 2853 0032 F0BD     		pop	{r4, r5, r6, r7, pc}
 2854              	.LVL231:
 2855              	.L161:
ARM GAS  /tmp/ccSE0mVF.s 			page 87


 2856              	.LCFI56:
 2857              		.cfi_restore_state
1144:./Libraries/STM32_USB_Host_Library/Class/MTP/Src/usbh_mtp_ptp.c ****       MTP_Handle->ptp.data_ptr = (uint8_t *)(void *) &(MTP_Handle->ptp.data_container);
 2858              		.loc 1 1144 7 is_stmt 1 view .LVU992
1145:./Libraries/STM32_USB_Host_Library/Class/MTP/Src/usbh_mtp_ptp.c ****       MTP_Handle->ptp.data_length = 0U;
 2859              		.loc 1 1145 54 is_stmt 0 view .LVU993
 2860 0034 41F68453 		movw	r3, #7556
1153:./Libraries/STM32_USB_Host_Library/Class/MTP/Src/usbh_mtp_ptp.c ****       ptp_container.Nparam = 0U;
 2861              		.loc 1 1153 53 view .LVU994
 2862 0038 42F2A412 		movw	r2, #8612
1145:./Libraries/STM32_USB_Host_Library/Class/MTP/Src/usbh_mtp_ptp.c ****       MTP_Handle->ptp.data_length = 0U;
 2863              		.loc 1 1145 32 view .LVU995
 2864 003c 42F2B01E 		movw	lr, #8624
1152:./Libraries/STM32_USB_Host_Library/Class/MTP/Src/usbh_mtp_ptp.c ****       ptp_container.Transaction_ID = MTP_Handle->ptp.transaction_id++;
 2865              		.loc 1 1152 48 view .LVU996
 2866 0040 42F2A81C 		movw	ip, #8616
1145:./Libraries/STM32_USB_Host_Library/Class/MTP/Src/usbh_mtp_ptp.c ****       MTP_Handle->ptp.data_length = 0U;
 2867              		.loc 1 1145 54 view .LVU997
 2868 0044 2344     		add	r3, r3, r4
1153:./Libraries/STM32_USB_Host_Library/Class/MTP/Src/usbh_mtp_ptp.c ****       ptp_container.Nparam = 0U;
 2869              		.loc 1 1153 53 view .LVU998
 2870 0046 A158     		ldr	r1, [r4, r2]
 2871              	.LVL232:
1144:./Libraries/STM32_USB_Host_Library/Class/MTP/Src/usbh_mtp_ptp.c ****       MTP_Handle->ptp.data_ptr = (uint8_t *)(void *) &(MTP_Handle->ptp.data_container);
 2872              		.loc 1 1144 29 view .LVU999
 2873 0048 42F2AC17 		movw	r7, #8620
1152:./Libraries/STM32_USB_Host_Library/Class/MTP/Src/usbh_mtp_ptp.c ****       ptp_container.Transaction_ID = MTP_Handle->ptp.transaction_id++;
 2874              		.loc 1 1152 31 view .LVU1000
 2875 004c 54F80CC0 		ldr	ip, [r4, ip]
1145:./Libraries/STM32_USB_Host_Library/Class/MTP/Src/usbh_mtp_ptp.c ****       MTP_Handle->ptp.data_length = 0U;
 2876              		.loc 1 1145 32 view .LVU1001
 2877 0050 44F80E30 		str	r3, [r4, lr]
1144:./Libraries/STM32_USB_Host_Library/Class/MTP/Src/usbh_mtp_ptp.c ****       MTP_Handle->ptp.data_ptr = (uint8_t *)(void *) &(MTP_Handle->ptp.data_container);
 2878              		.loc 1 1144 29 view .LVU1002
 2879 0054 0223     		movs	r3, #2
1153:./Libraries/STM32_USB_Host_Library/Class/MTP/Src/usbh_mtp_ptp.c ****       ptp_container.Nparam = 0U;
 2880              		.loc 1 1153 68 view .LVU1003
 2881 0056 01F1010E 		add	lr, r1, #1
1153:./Libraries/STM32_USB_Host_Library/Class/MTP/Src/usbh_mtp_ptp.c ****       ptp_container.Nparam = 0U;
 2882              		.loc 1 1153 36 view .LVU1004
 2883 005a 0391     		str	r1, [sp, #12]
1144:./Libraries/STM32_USB_Host_Library/Class/MTP/Src/usbh_mtp_ptp.c ****       MTP_Handle->ptp.data_ptr = (uint8_t *)(void *) &(MTP_Handle->ptp.data_container);
 2884              		.loc 1 1144 29 view .LVU1005
 2885 005c E351     		str	r3, [r4, r7]
1145:./Libraries/STM32_USB_Host_Library/Class/MTP/Src/usbh_mtp_ptp.c ****       MTP_Handle->ptp.data_length = 0U;
 2886              		.loc 1 1145 7 is_stmt 1 view .LVU1006
1146:./Libraries/STM32_USB_Host_Library/Class/MTP/Src/usbh_mtp_ptp.c ****       MTP_Handle->ptp.data_packet_counter = 0U;
 2887              		.loc 1 1146 7 view .LVU1007
1146:./Libraries/STM32_USB_Host_Library/Class/MTP/Src/usbh_mtp_ptp.c ****       MTP_Handle->ptp.data_packet_counter = 0U;
 2888              		.loc 1 1146 35 is_stmt 0 view .LVU1008
 2889 005e 42F2B411 		movw	r1, #8628
 2890 0062 0027     		movs	r7, #0
1147:./Libraries/STM32_USB_Host_Library/Class/MTP/Src/usbh_mtp_ptp.c ****       MTP_Handle->ptp.data_packet = 0U;
 2891              		.loc 1 1147 43 view .LVU1009
 2892 0064 04F50753 		add	r3, r4, #8640
1152:./Libraries/STM32_USB_Host_Library/Class/MTP/Src/usbh_mtp_ptp.c ****       ptp_container.Transaction_ID = MTP_Handle->ptp.transaction_id++;
 2893              		.loc 1 1152 31 view .LVU1010
ARM GAS  /tmp/ccSE0mVF.s 			page 88


 2894 0068 CDF808C0 		str	ip, [sp, #8]
1148:./Libraries/STM32_USB_Host_Library/Class/MTP/Src/usbh_mtp_ptp.c **** 
 2895              		.loc 1 1148 35 view .LVU1011
 2896 006c 42F2B81C 		movw	ip, #8632
1146:./Libraries/STM32_USB_Host_Library/Class/MTP/Src/usbh_mtp_ptp.c ****       MTP_Handle->ptp.data_packet_counter = 0U;
 2897              		.loc 1 1146 35 view .LVU1012
 2898 0070 6750     		str	r7, [r4, r1]
1147:./Libraries/STM32_USB_Host_Library/Class/MTP/Src/usbh_mtp_ptp.c ****       MTP_Handle->ptp.data_packet = 0U;
 2899              		.loc 1 1147 7 is_stmt 1 view .LVU1013
1157:./Libraries/STM32_USB_Host_Library/Class/MTP/Src/usbh_mtp_ptp.c **** 
 2900              		.loc 1 1157 7 is_stmt 0 view .LVU1014
 2901 0072 01A9     		add	r1, sp, #4
1147:./Libraries/STM32_USB_Host_Library/Class/MTP/Src/usbh_mtp_ptp.c ****       MTP_Handle->ptp.data_packet = 0U;
 2902              		.loc 1 1147 43 view .LVU1015
 2903 0074 1F60     		str	r7, [r3]
1148:./Libraries/STM32_USB_Host_Library/Class/MTP/Src/usbh_mtp_ptp.c **** 
 2904              		.loc 1 1148 7 is_stmt 1 view .LVU1016
1151:./Libraries/STM32_USB_Host_Library/Class/MTP/Src/usbh_mtp_ptp.c ****       ptp_container.SessionID = MTP_Handle->ptp.session_id;
 2905              		.loc 1 1151 26 is_stmt 0 view .LVU1017
 2906 0076 41F20403 		movw	r3, #4100
1153:./Libraries/STM32_USB_Host_Library/Class/MTP/Src/usbh_mtp_ptp.c ****       ptp_container.Nparam = 0U;
 2907              		.loc 1 1153 68 view .LVU1018
 2908 007a 44F802E0 		str	lr, [r4, r2]
1148:./Libraries/STM32_USB_Host_Library/Class/MTP/Src/usbh_mtp_ptp.c **** 
 2909              		.loc 1 1148 35 view .LVU1019
 2910 007e 44F80C70 		str	r7, [r4, ip]
1151:./Libraries/STM32_USB_Host_Library/Class/MTP/Src/usbh_mtp_ptp.c ****       ptp_container.SessionID = MTP_Handle->ptp.session_id;
 2911              		.loc 1 1151 7 is_stmt 1 view .LVU1020
1160:./Libraries/STM32_USB_Host_Library/Class/MTP/Src/usbh_mtp_ptp.c ****       MTP_Handle->ptp.req_state = PTP_REQ_WAIT;
 2912              		.loc 1 1160 29 is_stmt 0 view .LVU1021
 2913 0082 04F5EB54 		add	r4, r4, #7520
 2914              	.LVL233:
1151:./Libraries/STM32_USB_Host_Library/Class/MTP/Src/usbh_mtp_ptp.c ****       ptp_container.SessionID = MTP_Handle->ptp.session_id;
 2915              		.loc 1 1151 26 view .LVU1022
 2916 0086 ADF80430 		strh	r3, [sp, #4]	@ movhi
1152:./Libraries/STM32_USB_Host_Library/Class/MTP/Src/usbh_mtp_ptp.c ****       ptp_container.Transaction_ID = MTP_Handle->ptp.transaction_id++;
 2917              		.loc 1 1152 7 is_stmt 1 view .LVU1023
1153:./Libraries/STM32_USB_Host_Library/Class/MTP/Src/usbh_mtp_ptp.c ****       ptp_container.Nparam = 0U;
 2918              		.loc 1 1153 7 view .LVU1024
1154:./Libraries/STM32_USB_Host_Library/Class/MTP/Src/usbh_mtp_ptp.c **** 
 2919              		.loc 1 1154 7 view .LVU1025
1157:./Libraries/STM32_USB_Host_Library/Class/MTP/Src/usbh_mtp_ptp.c **** 
 2920              		.loc 1 1157 7 view .LVU1026
1154:./Libraries/STM32_USB_Host_Library/Class/MTP/Src/usbh_mtp_ptp.c **** 
 2921              		.loc 1 1154 28 is_stmt 0 view .LVU1027
 2922 008a 8DF82470 		strb	r7, [sp, #36]
 2923              	.LVL234:
1157:./Libraries/STM32_USB_Host_Library/Class/MTP/Src/usbh_mtp_ptp.c **** 
 2924              		.loc 1 1157 7 view .LVU1028
 2925 008e FFF7FEFF 		bl	USBH_PTP_SendRequest
 2926              	.LVL235:
1160:./Libraries/STM32_USB_Host_Library/Class/MTP/Src/usbh_mtp_ptp.c ****       MTP_Handle->ptp.req_state = PTP_REQ_WAIT;
 2927              		.loc 1 1160 7 is_stmt 1 view .LVU1029
1161:./Libraries/STM32_USB_Host_Library/Class/MTP/Src/usbh_mtp_ptp.c ****       status = USBH_BUSY;
 2928              		.loc 1 1161 7 view .LVU1030
1165:./Libraries/STM32_USB_Host_Library/Class/MTP/Src/usbh_mtp_ptp.c **** #if (osCMSIS < 0x20000U)
 2929              		.loc 1 1165 21 is_stmt 0 view .LVU1031
ARM GAS  /tmp/ccSE0mVF.s 			page 89


 2930 0092 4FF0050C 		mov	ip, #5
1160:./Libraries/STM32_USB_Host_Library/Class/MTP/Src/usbh_mtp_ptp.c ****       MTP_Handle->ptp.req_state = PTP_REQ_WAIT;
 2931              		.loc 1 1160 29 view .LVU1032
 2932 0096 40F20122 		movw	r2, #513
1169:./Libraries/STM32_USB_Host_Library/Class/MTP/Src/usbh_mtp_ptp.c **** #endif
 2933              		.loc 1 1169 13 view .LVU1033
 2934 009a 3B46     		mov	r3, r7
 2935 009c 06F59C61 		add	r1, r6, #1248
1160:./Libraries/STM32_USB_Host_Library/Class/MTP/Src/usbh_mtp_ptp.c ****       MTP_Handle->ptp.req_state = PTP_REQ_WAIT;
 2936              		.loc 1 1160 29 view .LVU1034
 2937 00a0 2280     		strh	r2, [r4]	@ movhi
1162:./Libraries/STM32_USB_Host_Library/Class/MTP/Src/usbh_mtp_ptp.c **** 
 2938              		.loc 1 1162 7 is_stmt 1 view .LVU1035
1165:./Libraries/STM32_USB_Host_Library/Class/MTP/Src/usbh_mtp_ptp.c **** #if (osCMSIS < 0x20000U)
 2939              		.loc 1 1165 7 view .LVU1036
1169:./Libraries/STM32_USB_Host_Library/Class/MTP/Src/usbh_mtp_ptp.c **** #endif
 2940              		.loc 1 1169 13 is_stmt 0 view .LVU1037
 2941 00a2 3A46     		mov	r2, r7
 2942 00a4 D6F8D804 		ldr	r0, [r6, #1240]
1165:./Libraries/STM32_USB_Host_Library/Class/MTP/Src/usbh_mtp_ptp.c **** #if (osCMSIS < 0x20000U)
 2943              		.loc 1 1165 21 view .LVU1038
 2944 00a8 C6F8E0C4 		str	ip, [r6, #1248]
1169:./Libraries/STM32_USB_Host_Library/Class/MTP/Src/usbh_mtp_ptp.c **** #endif
 2945              		.loc 1 1169 7 is_stmt 1 view .LVU1039
1169:./Libraries/STM32_USB_Host_Library/Class/MTP/Src/usbh_mtp_ptp.c **** #endif
 2946              		.loc 1 1169 13 is_stmt 0 view .LVU1040
 2947 00ac FFF7FEFF 		bl	osMessageQueuePut
 2948              	.LVL236:
1172:./Libraries/STM32_USB_Host_Library/Class/MTP/Src/usbh_mtp_ptp.c **** 
 2949              		.loc 1 1172 7 is_stmt 1 view .LVU1041
1186:./Libraries/STM32_USB_Host_Library/Class/MTP/Src/usbh_mtp_ptp.c **** }
 2950              		.loc 1 1186 3 view .LVU1042
 2951              		.loc 1 1187 1 is_stmt 0 view .LVU1043
 2952 00b0 2846     		mov	r0, r5
 2953 00b2 0BB0     		add	sp, sp, #44
 2954              	.LCFI57:
 2955              		.cfi_remember_state
 2956              		.cfi_def_cfa_offset 20
 2957              		@ sp needed
 2958 00b4 F0BD     		pop	{r4, r5, r6, r7, pc}
 2959              	.LVL237:
 2960              	.L166:
 2961              	.LCFI58:
 2962              		.cfi_restore_state
1179:./Libraries/STM32_USB_Host_Library/Class/MTP/Src/usbh_mtp_ptp.c ****       }
 2963              		.loc 1 1179 9 is_stmt 1 view .LVU1044
 2964              	.LBB76:
 2965              	.LBI76:
 618:./Libraries/STM32_USB_Host_Library/Class/MTP/Src/usbh_mtp_ptp.c **** {
 2966              		.loc 1 618 13 view .LVU1045
 2967              	.LBB77:
 620:./Libraries/STM32_USB_Host_Library/Class/MTP/Src/usbh_mtp_ptp.c ****   uint8_t *data = MTP_Handle->ptp.data_container.payload.data;
 2968              		.loc 1 620 3 view .LVU1046
 621:./Libraries/STM32_USB_Host_Library/Class/MTP/Src/usbh_mtp_ptp.c **** 
 2969              		.loc 1 621 3 view .LVU1047
 623:./Libraries/STM32_USB_Host_Library/Class/MTP/Src/usbh_mtp_ptp.c **** }
 2970              		.loc 1 623 3 view .LVU1048
ARM GAS  /tmp/ccSE0mVF.s 			page 90


 620:./Libraries/STM32_USB_Host_Library/Class/MTP/Src/usbh_mtp_ptp.c ****   uint8_t *data = MTP_Handle->ptp.data_container.payload.data;
 2971              		.loc 1 620 25 is_stmt 0 view .LVU1049
 2972 00b6 D6F87C34 		ldr	r3, [r6, #1148]
 623:./Libraries/STM32_USB_Host_Library/Class/MTP/Src/usbh_mtp_ptp.c **** }
 2973              		.loc 1 623 17 view .LVU1050
 2974 00ba 41F69051 		movw	r1, #7568
 2975 00be 381D     		adds	r0, r7, #4
 2976              	.LVL238:
 621:./Libraries/STM32_USB_Host_Library/Class/MTP/Src/usbh_mtp_ptp.c **** 
 2977              		.loc 1 621 12 view .LVU1051
 2978 00c0 DB69     		ldr	r3, [r3, #28]
 623:./Libraries/STM32_USB_Host_Library/Class/MTP/Src/usbh_mtp_ptp.c **** }
 2979              		.loc 1 623 17 view .LVU1052
 2980 00c2 1944     		add	r1, r1, r3
 2981 00c4 FFF7FEFF 		bl	PTP_GetArray32.constprop.0
 2982              	.LVL239:
 623:./Libraries/STM32_USB_Host_Library/Class/MTP/Src/usbh_mtp_ptp.c **** }
 2983              		.loc 1 623 15 view .LVU1053
 2984 00c8 3860     		str	r0, [r7]
 2985              	.LVL240:
 623:./Libraries/STM32_USB_Host_Library/Class/MTP/Src/usbh_mtp_ptp.c **** }
 2986              		.loc 1 623 15 view .LVU1054
 2987              	.LBE77:
 2988              	.LBE76:
1186:./Libraries/STM32_USB_Host_Library/Class/MTP/Src/usbh_mtp_ptp.c **** }
 2989              		.loc 1 1186 3 is_stmt 1 view .LVU1055
 2990              		.loc 1 1187 1 is_stmt 0 view .LVU1056
 2991 00ca 2846     		mov	r0, r5
 2992 00cc 0BB0     		add	sp, sp, #44
 2993              	.LCFI59:
 2994              		.cfi_def_cfa_offset 20
 2995              		@ sp needed
 2996 00ce F0BD     		pop	{r4, r5, r6, r7, pc}
 2997              		.loc 1 1187 1 view .LVU1057
 2998              		.cfi_endproc
 2999              	.LFE356:
 3001              		.section	.text.USBH_PTP_GetStorageInfo,"ax",%progbits
 3002              		.align	1
 3003              		.p2align 2,,3
 3004              		.global	USBH_PTP_GetStorageInfo
 3005              		.syntax unified
 3006              		.thumb
 3007              		.thumb_func
 3008              		.fpu fpv5-d16
 3010              	USBH_PTP_GetStorageInfo:
 3011              	.LVL241:
 3012              	.LFB357:
1188:./Libraries/STM32_USB_Host_Library/Class/MTP/Src/usbh_mtp_ptp.c **** 
1189:./Libraries/STM32_USB_Host_Library/Class/MTP/Src/usbh_mtp_ptp.c **** /**
1190:./Libraries/STM32_USB_Host_Library/Class/MTP/Src/usbh_mtp_ptp.c ****   * @brief  USBH_PTP_GetDeviceInfo
1191:./Libraries/STM32_USB_Host_Library/Class/MTP/Src/usbh_mtp_ptp.c ****   *         Gets device info dataset and fills deviceinfo structure.
1192:./Libraries/STM32_USB_Host_Library/Class/MTP/Src/usbh_mtp_ptp.c ****   * @param  phost: Host handle
1193:./Libraries/STM32_USB_Host_Library/Class/MTP/Src/usbh_mtp_ptp.c ****   * @param  dev_info: Device info structure
1194:./Libraries/STM32_USB_Host_Library/Class/MTP/Src/usbh_mtp_ptp.c ****   * @retval USBH Status
1195:./Libraries/STM32_USB_Host_Library/Class/MTP/Src/usbh_mtp_ptp.c ****   */
1196:./Libraries/STM32_USB_Host_Library/Class/MTP/Src/usbh_mtp_ptp.c **** USBH_StatusTypeDef USBH_PTP_GetStorageInfo(USBH_HandleTypeDef *phost,
1197:./Libraries/STM32_USB_Host_Library/Class/MTP/Src/usbh_mtp_ptp.c ****                                            uint32_t storage_id,
ARM GAS  /tmp/ccSE0mVF.s 			page 91


1198:./Libraries/STM32_USB_Host_Library/Class/MTP/Src/usbh_mtp_ptp.c ****                                            PTP_StorageInfoTypedef *storage_info)
1199:./Libraries/STM32_USB_Host_Library/Class/MTP/Src/usbh_mtp_ptp.c **** {
 3013              		.loc 1 1199 1 is_stmt 1 view -0
 3014              		.cfi_startproc
 3015              		@ args = 0, pretend = 0, frame = 40
 3016              		@ frame_needed = 0, uses_anonymous_args = 0
 3017              		.loc 1 1199 1 is_stmt 0 view .LVU1059
 3018 0000 2DE9F041 		push	{r4, r5, r6, r7, r8, lr}
 3019              	.LCFI60:
 3020              		.cfi_def_cfa_offset 24
 3021              		.cfi_offset 4, -24
 3022              		.cfi_offset 5, -20
 3023              		.cfi_offset 6, -16
 3024              		.cfi_offset 7, -12
 3025              		.cfi_offset 8, -8
 3026              		.cfi_offset 14, -4
 3027 0004 1646     		mov	r6, r2
1200:./Libraries/STM32_USB_Host_Library/Class/MTP/Src/usbh_mtp_ptp.c ****   USBH_StatusTypeDef   status = USBH_BUSY;
1201:./Libraries/STM32_USB_Host_Library/Class/MTP/Src/usbh_mtp_ptp.c ****   MTP_HandleTypeDef    *MTP_Handle = (MTP_HandleTypeDef *)phost->pActiveClass->pData;
 3028              		.loc 1 1201 25 view .LVU1060
 3029 0006 D0F87C24 		ldr	r2, [r0, #1148]
 3030              	.LVL242:
1202:./Libraries/STM32_USB_Host_Library/Class/MTP/Src/usbh_mtp_ptp.c ****   PTP_ContainerTypedef  ptp_container;
1203:./Libraries/STM32_USB_Host_Library/Class/MTP/Src/usbh_mtp_ptp.c **** 
1204:./Libraries/STM32_USB_Host_Library/Class/MTP/Src/usbh_mtp_ptp.c ****   switch (MTP_Handle->ptp.req_state)
 3031              		.loc 1 1204 26 view .LVU1061
 3032 000a 41F66153 		movw	r3, #7521
1199:./Libraries/STM32_USB_Host_Library/Class/MTP/Src/usbh_mtp_ptp.c ****   USBH_StatusTypeDef   status = USBH_BUSY;
 3033              		.loc 1 1199 1 view .LVU1062
 3034 000e 8AB0     		sub	sp, sp, #40
 3035              	.LCFI61:
 3036              		.cfi_def_cfa_offset 64
1201:./Libraries/STM32_USB_Host_Library/Class/MTP/Src/usbh_mtp_ptp.c ****   PTP_ContainerTypedef  ptp_container;
 3037              		.loc 1 1201 25 view .LVU1063
 3038 0010 D569     		ldr	r5, [r2, #28]
1199:./Libraries/STM32_USB_Host_Library/Class/MTP/Src/usbh_mtp_ptp.c ****   USBH_StatusTypeDef   status = USBH_BUSY;
 3039              		.loc 1 1199 1 view .LVU1064
 3040 0012 0746     		mov	r7, r0
1200:./Libraries/STM32_USB_Host_Library/Class/MTP/Src/usbh_mtp_ptp.c ****   MTP_HandleTypeDef    *MTP_Handle = (MTP_HandleTypeDef *)phost->pActiveClass->pData;
 3041              		.loc 1 1200 3 is_stmt 1 view .LVU1065
 3042              	.LVL243:
1201:./Libraries/STM32_USB_Host_Library/Class/MTP/Src/usbh_mtp_ptp.c ****   PTP_ContainerTypedef  ptp_container;
 3043              		.loc 1 1201 3 view .LVU1066
1202:./Libraries/STM32_USB_Host_Library/Class/MTP/Src/usbh_mtp_ptp.c **** 
 3044              		.loc 1 1202 3 view .LVU1067
 3045              		.loc 1 1204 3 view .LVU1068
 3046              		.loc 1 1204 26 is_stmt 0 view .LVU1069
 3047 0014 EC5C     		ldrb	r4, [r5, r3]	@ zero_extendqisi2
 3048              		.loc 1 1204 3 view .LVU1070
 3049 0016 012C     		cmp	r4, #1
 3050 0018 0FD0     		beq	.L168
 3051 001a 022C     		cmp	r4, #2
 3052 001c 08D1     		bne	.L184
1205:./Libraries/STM32_USB_Host_Library/Class/MTP/Src/usbh_mtp_ptp.c ****   {
1206:./Libraries/STM32_USB_Host_Library/Class/MTP/Src/usbh_mtp_ptp.c ****     case PTP_REQ_SEND:
1207:./Libraries/STM32_USB_Host_Library/Class/MTP/Src/usbh_mtp_ptp.c ****       /* Set operation request type */
1208:./Libraries/STM32_USB_Host_Library/Class/MTP/Src/usbh_mtp_ptp.c ****       MTP_Handle->ptp.flags = PTP_DP_GETDATA;
ARM GAS  /tmp/ccSE0mVF.s 			page 92


1209:./Libraries/STM32_USB_Host_Library/Class/MTP/Src/usbh_mtp_ptp.c ****       MTP_Handle->ptp.data_ptr = (uint8_t *)(void *) &(MTP_Handle->ptp.data_container);
1210:./Libraries/STM32_USB_Host_Library/Class/MTP/Src/usbh_mtp_ptp.c ****       MTP_Handle->ptp.data_length = 0U;
1211:./Libraries/STM32_USB_Host_Library/Class/MTP/Src/usbh_mtp_ptp.c ****       MTP_Handle->ptp.data_packet_counter = 0U;
1212:./Libraries/STM32_USB_Host_Library/Class/MTP/Src/usbh_mtp_ptp.c ****       MTP_Handle->ptp.data_packet = 0U;
1213:./Libraries/STM32_USB_Host_Library/Class/MTP/Src/usbh_mtp_ptp.c **** 
1214:./Libraries/STM32_USB_Host_Library/Class/MTP/Src/usbh_mtp_ptp.c ****       /* Fill operation request params */
1215:./Libraries/STM32_USB_Host_Library/Class/MTP/Src/usbh_mtp_ptp.c ****       ptp_container.Code = PTP_OC_GetStorageInfo;
1216:./Libraries/STM32_USB_Host_Library/Class/MTP/Src/usbh_mtp_ptp.c ****       ptp_container.SessionID = MTP_Handle->ptp.session_id;
1217:./Libraries/STM32_USB_Host_Library/Class/MTP/Src/usbh_mtp_ptp.c ****       ptp_container.Transaction_ID = MTP_Handle->ptp.transaction_id++;
1218:./Libraries/STM32_USB_Host_Library/Class/MTP/Src/usbh_mtp_ptp.c ****       ptp_container.Param1 = storage_id;
1219:./Libraries/STM32_USB_Host_Library/Class/MTP/Src/usbh_mtp_ptp.c ****       ptp_container.Nparam = 1U;
1220:./Libraries/STM32_USB_Host_Library/Class/MTP/Src/usbh_mtp_ptp.c **** 
1221:./Libraries/STM32_USB_Host_Library/Class/MTP/Src/usbh_mtp_ptp.c ****       /* convert request packet inti USB raw packet*/
1222:./Libraries/STM32_USB_Host_Library/Class/MTP/Src/usbh_mtp_ptp.c ****       USBH_PTP_SendRequest(phost, &ptp_container);
1223:./Libraries/STM32_USB_Host_Library/Class/MTP/Src/usbh_mtp_ptp.c **** 
1224:./Libraries/STM32_USB_Host_Library/Class/MTP/Src/usbh_mtp_ptp.c ****       /* Setup State machine and start transfer */
1225:./Libraries/STM32_USB_Host_Library/Class/MTP/Src/usbh_mtp_ptp.c ****       MTP_Handle->ptp.state = PTP_OP_REQUEST_STATE;
1226:./Libraries/STM32_USB_Host_Library/Class/MTP/Src/usbh_mtp_ptp.c ****       MTP_Handle->ptp.req_state = PTP_REQ_WAIT;
1227:./Libraries/STM32_USB_Host_Library/Class/MTP/Src/usbh_mtp_ptp.c ****       status = USBH_BUSY;
1228:./Libraries/STM32_USB_Host_Library/Class/MTP/Src/usbh_mtp_ptp.c **** 
1229:./Libraries/STM32_USB_Host_Library/Class/MTP/Src/usbh_mtp_ptp.c **** #if (USBH_USE_OS == 1U)
1230:./Libraries/STM32_USB_Host_Library/Class/MTP/Src/usbh_mtp_ptp.c ****       phost->os_msg = (uint32_t)USBH_STATE_CHANGED_EVENT;
1231:./Libraries/STM32_USB_Host_Library/Class/MTP/Src/usbh_mtp_ptp.c **** #if (osCMSIS < 0x20000U)
1232:./Libraries/STM32_USB_Host_Library/Class/MTP/Src/usbh_mtp_ptp.c ****       (void)osMessagePut(phost->os_event, phost->os_msg, 0U);
1233:./Libraries/STM32_USB_Host_Library/Class/MTP/Src/usbh_mtp_ptp.c **** #else
1234:./Libraries/STM32_USB_Host_Library/Class/MTP/Src/usbh_mtp_ptp.c ****       (void)osMessageQueuePut(phost->os_event, &phost->os_msg, 0U, NULL);
1235:./Libraries/STM32_USB_Host_Library/Class/MTP/Src/usbh_mtp_ptp.c **** #endif
1236:./Libraries/STM32_USB_Host_Library/Class/MTP/Src/usbh_mtp_ptp.c **** #endif
1237:./Libraries/STM32_USB_Host_Library/Class/MTP/Src/usbh_mtp_ptp.c ****       break;
1238:./Libraries/STM32_USB_Host_Library/Class/MTP/Src/usbh_mtp_ptp.c **** 
1239:./Libraries/STM32_USB_Host_Library/Class/MTP/Src/usbh_mtp_ptp.c ****     case PTP_REQ_WAIT:
1240:./Libraries/STM32_USB_Host_Library/Class/MTP/Src/usbh_mtp_ptp.c ****       status = USBH_PTP_Process(phost);
 3053              		.loc 1 1240 7 is_stmt 1 view .LVU1071
 3054              		.loc 1 1240 16 is_stmt 0 view .LVU1072
 3055 001e FFF7FEFF 		bl	USBH_PTP_Process
 3056              	.LVL244:
1241:./Libraries/STM32_USB_Host_Library/Class/MTP/Src/usbh_mtp_ptp.c **** 
1242:./Libraries/STM32_USB_Host_Library/Class/MTP/Src/usbh_mtp_ptp.c ****       if (status == USBH_OK)
 3057              		.loc 1 1242 7 is_stmt 1 view .LVU1073
 3058              		.loc 1 1242 10 is_stmt 0 view .LVU1074
 3059 0022 0446     		mov	r4, r0
 3060 0024 0028     		cmp	r0, #0
 3061 0026 4DD0     		beq	.L185
 3062              	.LVL245:
1243:./Libraries/STM32_USB_Host_Library/Class/MTP/Src/usbh_mtp_ptp.c ****       {
1244:./Libraries/STM32_USB_Host_Library/Class/MTP/Src/usbh_mtp_ptp.c ****         PTP_GetStorageInfo(phost, storage_id, storage_info);
1245:./Libraries/STM32_USB_Host_Library/Class/MTP/Src/usbh_mtp_ptp.c ****       }
1246:./Libraries/STM32_USB_Host_Library/Class/MTP/Src/usbh_mtp_ptp.c ****       break;
1247:./Libraries/STM32_USB_Host_Library/Class/MTP/Src/usbh_mtp_ptp.c **** 
1248:./Libraries/STM32_USB_Host_Library/Class/MTP/Src/usbh_mtp_ptp.c ****     default:
1249:./Libraries/STM32_USB_Host_Library/Class/MTP/Src/usbh_mtp_ptp.c ****       break;
1250:./Libraries/STM32_USB_Host_Library/Class/MTP/Src/usbh_mtp_ptp.c ****   }
1251:./Libraries/STM32_USB_Host_Library/Class/MTP/Src/usbh_mtp_ptp.c ****   return status;
 3063              		.loc 1 1251 3 is_stmt 1 view .LVU1075
1252:./Libraries/STM32_USB_Host_Library/Class/MTP/Src/usbh_mtp_ptp.c **** }
 3064              		.loc 1 1252 1 is_stmt 0 view .LVU1076
 3065 0028 2046     		mov	r0, r4
ARM GAS  /tmp/ccSE0mVF.s 			page 93


 3066 002a 0AB0     		add	sp, sp, #40
 3067              	.LCFI62:
 3068              		.cfi_remember_state
 3069              		.cfi_def_cfa_offset 24
 3070              		@ sp needed
 3071 002c BDE8F081 		pop	{r4, r5, r6, r7, r8, pc}
 3072              	.LVL246:
 3073              	.L184:
 3074              	.LCFI63:
 3075              		.cfi_restore_state
1204:./Libraries/STM32_USB_Host_Library/Class/MTP/Src/usbh_mtp_ptp.c ****   {
 3076              		.loc 1 1204 3 view .LVU1077
 3077 0030 0124     		movs	r4, #1
 3078              	.LVL247:
1251:./Libraries/STM32_USB_Host_Library/Class/MTP/Src/usbh_mtp_ptp.c **** }
 3079              		.loc 1 1251 3 is_stmt 1 view .LVU1078
 3080              		.loc 1 1252 1 is_stmt 0 view .LVU1079
 3081 0032 2046     		mov	r0, r4
 3082              	.LVL248:
 3083              		.loc 1 1252 1 view .LVU1080
 3084 0034 0AB0     		add	sp, sp, #40
 3085              	.LCFI64:
 3086              		.cfi_remember_state
 3087              		.cfi_def_cfa_offset 24
 3088              		@ sp needed
 3089 0036 BDE8F081 		pop	{r4, r5, r6, r7, r8, pc}
 3090              	.LVL249:
 3091              	.L168:
 3092              	.LCFI65:
 3093              		.cfi_restore_state
1208:./Libraries/STM32_USB_Host_Library/Class/MTP/Src/usbh_mtp_ptp.c ****       MTP_Handle->ptp.data_ptr = (uint8_t *)(void *) &(MTP_Handle->ptp.data_container);
 3094              		.loc 1 1208 7 is_stmt 1 view .LVU1081
1209:./Libraries/STM32_USB_Host_Library/Class/MTP/Src/usbh_mtp_ptp.c ****       MTP_Handle->ptp.data_length = 0U;
 3095              		.loc 1 1209 54 is_stmt 0 view .LVU1082
 3096 003a 41F68453 		movw	r3, #7556
1217:./Libraries/STM32_USB_Host_Library/Class/MTP/Src/usbh_mtp_ptp.c ****       ptp_container.Param1 = storage_id;
 3097              		.loc 1 1217 53 view .LVU1083
 3098 003e 42F2A412 		movw	r2, #8612
1209:./Libraries/STM32_USB_Host_Library/Class/MTP/Src/usbh_mtp_ptp.c ****       MTP_Handle->ptp.data_length = 0U;
 3099              		.loc 1 1209 32 view .LVU1084
 3100 0042 42F2B01E 		movw	lr, #8624
1216:./Libraries/STM32_USB_Host_Library/Class/MTP/Src/usbh_mtp_ptp.c ****       ptp_container.Transaction_ID = MTP_Handle->ptp.transaction_id++;
 3101              		.loc 1 1216 48 view .LVU1085
 3102 0046 42F2A81C 		movw	ip, #8616
1209:./Libraries/STM32_USB_Host_Library/Class/MTP/Src/usbh_mtp_ptp.c ****       MTP_Handle->ptp.data_length = 0U;
 3103              		.loc 1 1209 54 view .LVU1086
 3104 004a 2B44     		add	r3, r3, r5
1217:./Libraries/STM32_USB_Host_Library/Class/MTP/Src/usbh_mtp_ptp.c ****       ptp_container.Param1 = storage_id;
 3105              		.loc 1 1217 53 view .LVU1087
 3106 004c AE58     		ldr	r6, [r5, r2]
 3107              	.LVL250:
1216:./Libraries/STM32_USB_Host_Library/Class/MTP/Src/usbh_mtp_ptp.c ****       ptp_container.Transaction_ID = MTP_Handle->ptp.transaction_id++;
 3108              		.loc 1 1216 31 view .LVU1088
 3109 004e 55F80CC0 		ldr	ip, [r5, ip]
1208:./Libraries/STM32_USB_Host_Library/Class/MTP/Src/usbh_mtp_ptp.c ****       MTP_Handle->ptp.data_ptr = (uint8_t *)(void *) &(MTP_Handle->ptp.data_container);
 3110              		.loc 1 1208 29 view .LVU1089
 3111 0052 4FF00208 		mov	r8, #2
ARM GAS  /tmp/ccSE0mVF.s 			page 94


1209:./Libraries/STM32_USB_Host_Library/Class/MTP/Src/usbh_mtp_ptp.c ****       MTP_Handle->ptp.data_length = 0U;
 3112              		.loc 1 1209 32 view .LVU1090
 3113 0056 45F80E30 		str	r3, [r5, lr]
1208:./Libraries/STM32_USB_Host_Library/Class/MTP/Src/usbh_mtp_ptp.c ****       MTP_Handle->ptp.data_ptr = (uint8_t *)(void *) &(MTP_Handle->ptp.data_container);
 3114              		.loc 1 1208 29 view .LVU1091
 3115 005a 42F2AC13 		movw	r3, #8620
1217:./Libraries/STM32_USB_Host_Library/Class/MTP/Src/usbh_mtp_ptp.c ****       ptp_container.Param1 = storage_id;
 3116              		.loc 1 1217 68 view .LVU1092
 3117 005e 06F1010E 		add	lr, r6, #1
1218:./Libraries/STM32_USB_Host_Library/Class/MTP/Src/usbh_mtp_ptp.c ****       ptp_container.Nparam = 1U;
 3118              		.loc 1 1218 28 view .LVU1093
 3119 0062 0491     		str	r1, [sp, #16]
1208:./Libraries/STM32_USB_Host_Library/Class/MTP/Src/usbh_mtp_ptp.c ****       MTP_Handle->ptp.data_ptr = (uint8_t *)(void *) &(MTP_Handle->ptp.data_container);
 3120              		.loc 1 1208 29 view .LVU1094
 3121 0064 45F80380 		str	r8, [r5, r3]
1209:./Libraries/STM32_USB_Host_Library/Class/MTP/Src/usbh_mtp_ptp.c ****       MTP_Handle->ptp.data_length = 0U;
 3122              		.loc 1 1209 7 is_stmt 1 view .LVU1095
1210:./Libraries/STM32_USB_Host_Library/Class/MTP/Src/usbh_mtp_ptp.c ****       MTP_Handle->ptp.data_packet_counter = 0U;
 3123              		.loc 1 1210 7 view .LVU1096
1210:./Libraries/STM32_USB_Host_Library/Class/MTP/Src/usbh_mtp_ptp.c ****       MTP_Handle->ptp.data_packet_counter = 0U;
 3124              		.loc 1 1210 35 is_stmt 0 view .LVU1097
 3125 0068 42F2B411 		movw	r1, #8628
 3126              	.LVL251:
1211:./Libraries/STM32_USB_Host_Library/Class/MTP/Src/usbh_mtp_ptp.c ****       MTP_Handle->ptp.data_packet = 0U;
 3127              		.loc 1 1211 43 view .LVU1098
 3128 006c 05F50753 		add	r3, r5, #8640
1217:./Libraries/STM32_USB_Host_Library/Class/MTP/Src/usbh_mtp_ptp.c ****       ptp_container.Param1 = storage_id;
 3129              		.loc 1 1217 36 view .LVU1099
 3130 0070 0396     		str	r6, [sp, #12]
1210:./Libraries/STM32_USB_Host_Library/Class/MTP/Src/usbh_mtp_ptp.c ****       MTP_Handle->ptp.data_packet_counter = 0U;
 3131              		.loc 1 1210 35 view .LVU1100
 3132 0072 0026     		movs	r6, #0
1216:./Libraries/STM32_USB_Host_Library/Class/MTP/Src/usbh_mtp_ptp.c ****       ptp_container.Transaction_ID = MTP_Handle->ptp.transaction_id++;
 3133              		.loc 1 1216 31 view .LVU1101
 3134 0074 CDF808C0 		str	ip, [sp, #8]
1212:./Libraries/STM32_USB_Host_Library/Class/MTP/Src/usbh_mtp_ptp.c **** 
 3135              		.loc 1 1212 35 view .LVU1102
 3136 0078 42F2B81C 		movw	ip, #8632
1219:./Libraries/STM32_USB_Host_Library/Class/MTP/Src/usbh_mtp_ptp.c **** 
 3137              		.loc 1 1219 28 view .LVU1103
 3138 007c 8DF82440 		strb	r4, [sp, #36]
1210:./Libraries/STM32_USB_Host_Library/Class/MTP/Src/usbh_mtp_ptp.c ****       MTP_Handle->ptp.data_packet_counter = 0U;
 3139              		.loc 1 1210 35 view .LVU1104
 3140 0080 6E50     		str	r6, [r5, r1]
1211:./Libraries/STM32_USB_Host_Library/Class/MTP/Src/usbh_mtp_ptp.c ****       MTP_Handle->ptp.data_packet = 0U;
 3141              		.loc 1 1211 7 is_stmt 1 view .LVU1105
1222:./Libraries/STM32_USB_Host_Library/Class/MTP/Src/usbh_mtp_ptp.c **** 
 3142              		.loc 1 1222 7 is_stmt 0 view .LVU1106
 3143 0082 01A9     		add	r1, sp, #4
1211:./Libraries/STM32_USB_Host_Library/Class/MTP/Src/usbh_mtp_ptp.c ****       MTP_Handle->ptp.data_packet = 0U;
 3144              		.loc 1 1211 43 view .LVU1107
 3145 0084 1E60     		str	r6, [r3]
1212:./Libraries/STM32_USB_Host_Library/Class/MTP/Src/usbh_mtp_ptp.c **** 
 3146              		.loc 1 1212 7 is_stmt 1 view .LVU1108
1215:./Libraries/STM32_USB_Host_Library/Class/MTP/Src/usbh_mtp_ptp.c ****       ptp_container.SessionID = MTP_Handle->ptp.session_id;
 3147              		.loc 1 1215 26 is_stmt 0 view .LVU1109
 3148 0086 41F20503 		movw	r3, #4101
ARM GAS  /tmp/ccSE0mVF.s 			page 95


1217:./Libraries/STM32_USB_Host_Library/Class/MTP/Src/usbh_mtp_ptp.c ****       ptp_container.Param1 = storage_id;
 3149              		.loc 1 1217 68 view .LVU1110
 3150 008a 45F802E0 		str	lr, [r5, r2]
1212:./Libraries/STM32_USB_Host_Library/Class/MTP/Src/usbh_mtp_ptp.c **** 
 3151              		.loc 1 1212 35 view .LVU1111
 3152 008e 45F80C60 		str	r6, [r5, ip]
1215:./Libraries/STM32_USB_Host_Library/Class/MTP/Src/usbh_mtp_ptp.c ****       ptp_container.SessionID = MTP_Handle->ptp.session_id;
 3153              		.loc 1 1215 7 is_stmt 1 view .LVU1112
1225:./Libraries/STM32_USB_Host_Library/Class/MTP/Src/usbh_mtp_ptp.c ****       MTP_Handle->ptp.req_state = PTP_REQ_WAIT;
 3154              		.loc 1 1225 29 is_stmt 0 view .LVU1113
 3155 0092 05F5EB55 		add	r5, r5, #7520
 3156              	.LVL252:
1215:./Libraries/STM32_USB_Host_Library/Class/MTP/Src/usbh_mtp_ptp.c ****       ptp_container.SessionID = MTP_Handle->ptp.session_id;
 3157              		.loc 1 1215 26 view .LVU1114
 3158 0096 ADF80430 		strh	r3, [sp, #4]	@ movhi
1216:./Libraries/STM32_USB_Host_Library/Class/MTP/Src/usbh_mtp_ptp.c ****       ptp_container.Transaction_ID = MTP_Handle->ptp.transaction_id++;
 3159              		.loc 1 1216 7 is_stmt 1 view .LVU1115
1217:./Libraries/STM32_USB_Host_Library/Class/MTP/Src/usbh_mtp_ptp.c ****       ptp_container.Param1 = storage_id;
 3160              		.loc 1 1217 7 view .LVU1116
1218:./Libraries/STM32_USB_Host_Library/Class/MTP/Src/usbh_mtp_ptp.c ****       ptp_container.Nparam = 1U;
 3161              		.loc 1 1218 7 view .LVU1117
1219:./Libraries/STM32_USB_Host_Library/Class/MTP/Src/usbh_mtp_ptp.c **** 
 3162              		.loc 1 1219 7 view .LVU1118
1222:./Libraries/STM32_USB_Host_Library/Class/MTP/Src/usbh_mtp_ptp.c **** 
 3163              		.loc 1 1222 7 view .LVU1119
 3164 009a FFF7FEFF 		bl	USBH_PTP_SendRequest
 3165              	.LVL253:
1225:./Libraries/STM32_USB_Host_Library/Class/MTP/Src/usbh_mtp_ptp.c ****       MTP_Handle->ptp.req_state = PTP_REQ_WAIT;
 3166              		.loc 1 1225 7 view .LVU1120
1226:./Libraries/STM32_USB_Host_Library/Class/MTP/Src/usbh_mtp_ptp.c ****       status = USBH_BUSY;
 3167              		.loc 1 1226 7 view .LVU1121
1225:./Libraries/STM32_USB_Host_Library/Class/MTP/Src/usbh_mtp_ptp.c ****       MTP_Handle->ptp.req_state = PTP_REQ_WAIT;
 3168              		.loc 1 1225 29 is_stmt 0 view .LVU1122
 3169 009e 40F20122 		movw	r2, #513
1230:./Libraries/STM32_USB_Host_Library/Class/MTP/Src/usbh_mtp_ptp.c **** #if (osCMSIS < 0x20000U)
 3170              		.loc 1 1230 21 view .LVU1123
 3171 00a2 4FF0050C 		mov	ip, #5
1234:./Libraries/STM32_USB_Host_Library/Class/MTP/Src/usbh_mtp_ptp.c **** #endif
 3172              		.loc 1 1234 13 view .LVU1124
 3173 00a6 3346     		mov	r3, r6
 3174 00a8 07F59C61 		add	r1, r7, #1248
1225:./Libraries/STM32_USB_Host_Library/Class/MTP/Src/usbh_mtp_ptp.c ****       MTP_Handle->ptp.req_state = PTP_REQ_WAIT;
 3175              		.loc 1 1225 29 view .LVU1125
 3176 00ac 2A80     		strh	r2, [r5]	@ movhi
1227:./Libraries/STM32_USB_Host_Library/Class/MTP/Src/usbh_mtp_ptp.c **** 
 3177              		.loc 1 1227 7 is_stmt 1 view .LVU1126
1230:./Libraries/STM32_USB_Host_Library/Class/MTP/Src/usbh_mtp_ptp.c **** #if (osCMSIS < 0x20000U)
 3178              		.loc 1 1230 7 view .LVU1127
1234:./Libraries/STM32_USB_Host_Library/Class/MTP/Src/usbh_mtp_ptp.c **** #endif
 3179              		.loc 1 1234 13 is_stmt 0 view .LVU1128
 3180 00ae 3246     		mov	r2, r6
 3181 00b0 D7F8D804 		ldr	r0, [r7, #1240]
1230:./Libraries/STM32_USB_Host_Library/Class/MTP/Src/usbh_mtp_ptp.c **** #if (osCMSIS < 0x20000U)
 3182              		.loc 1 1230 21 view .LVU1129
 3183 00b4 C7F8E0C4 		str	ip, [r7, #1248]
1234:./Libraries/STM32_USB_Host_Library/Class/MTP/Src/usbh_mtp_ptp.c **** #endif
 3184              		.loc 1 1234 7 is_stmt 1 view .LVU1130
ARM GAS  /tmp/ccSE0mVF.s 			page 96


1234:./Libraries/STM32_USB_Host_Library/Class/MTP/Src/usbh_mtp_ptp.c **** #endif
 3185              		.loc 1 1234 13 is_stmt 0 view .LVU1131
 3186 00b8 FFF7FEFF 		bl	osMessageQueuePut
 3187              	.LVL254:
1237:./Libraries/STM32_USB_Host_Library/Class/MTP/Src/usbh_mtp_ptp.c **** 
 3188              		.loc 1 1237 7 is_stmt 1 view .LVU1132
1251:./Libraries/STM32_USB_Host_Library/Class/MTP/Src/usbh_mtp_ptp.c **** }
 3189              		.loc 1 1251 3 view .LVU1133
 3190              		.loc 1 1252 1 is_stmt 0 view .LVU1134
 3191 00bc 2046     		mov	r0, r4
 3192 00be 0AB0     		add	sp, sp, #40
 3193              	.LCFI66:
 3194              		.cfi_remember_state
 3195              		.cfi_def_cfa_offset 24
 3196              		@ sp needed
 3197 00c0 BDE8F081 		pop	{r4, r5, r6, r7, r8, pc}
 3198              	.LVL255:
 3199              	.L185:
 3200              	.LCFI67:
 3201              		.cfi_restore_state
1244:./Libraries/STM32_USB_Host_Library/Class/MTP/Src/usbh_mtp_ptp.c ****       }
 3202              		.loc 1 1244 9 is_stmt 1 view .LVU1135
 3203              	.LBB84:
 3204              	.LBI84:
 634:./Libraries/STM32_USB_Host_Library/Class/MTP/Src/usbh_mtp_ptp.c **** {
 3205              		.loc 1 634 13 view .LVU1136
 3206              	.LBB85:
 637:./Libraries/STM32_USB_Host_Library/Class/MTP/Src/usbh_mtp_ptp.c **** 
 3207              		.loc 1 637 3 view .LVU1137
 639:./Libraries/STM32_USB_Host_Library/Class/MTP/Src/usbh_mtp_ptp.c ****   uint8_t *data = MTP_Handle->ptp.data_container.payload.data;
 3208              		.loc 1 639 3 view .LVU1138
 639:./Libraries/STM32_USB_Host_Library/Class/MTP/Src/usbh_mtp_ptp.c ****   uint8_t *data = MTP_Handle->ptp.data_container.payload.data;
 3209              		.loc 1 639 25 is_stmt 0 view .LVU1139
 3210 00c4 D7F87C34 		ldr	r3, [r7, #1148]
 640:./Libraries/STM32_USB_Host_Library/Class/MTP/Src/usbh_mtp_ptp.c ****   uint16_t len;
 3211              		.loc 1 640 12 view .LVU1140
 3212 00c8 41F69052 		movw	r2, #7568
 644:./Libraries/STM32_USB_Host_Library/Class/MTP/Src/usbh_mtp_ptp.c ****   stor_info->AccessCapability = LE16(&data[PTP_si_AccessCapability]);
 3213              		.loc 1 644 31 view .LVU1141
 3214 00cc 41F69255 		movw	r5, #7570
 3215              	.LVL256:
 645:./Libraries/STM32_USB_Host_Library/Class/MTP/Src/usbh_mtp_ptp.c ****   stor_info->MaxCapability = LE64(&data[PTP_si_MaxCapability]);
 3216              		.loc 1 645 33 view .LVU1142
 3217 00d0 41F69457 		movw	r7, #7572
 3218              	.LVL257:
 639:./Libraries/STM32_USB_Host_Library/Class/MTP/Src/usbh_mtp_ptp.c ****   uint8_t *data = MTP_Handle->ptp.data_container.payload.data;
 3219              		.loc 1 639 25 view .LVU1143
 3220 00d4 D869     		ldr	r0, [r3, #28]
 3221              	.LVL258:
 640:./Libraries/STM32_USB_Host_Library/Class/MTP/Src/usbh_mtp_ptp.c ****   uint16_t len;
 3222              		.loc 1 640 3 is_stmt 1 view .LVU1144
 646:./Libraries/STM32_USB_Host_Library/Class/MTP/Src/usbh_mtp_ptp.c ****   stor_info->FreeSpaceInBytes = LE64(&data[PTP_si_FreeSpaceInBytes]);
 3223              		.loc 1 646 30 is_stmt 0 view .LVU1145
 3224 00d6 41F69651 		movw	r1, #7574
 647:./Libraries/STM32_USB_Host_Library/Class/MTP/Src/usbh_mtp_ptp.c ****   stor_info->FreeSpaceInImages = LE32(&data[PTP_si_FreeSpaceInImages]);
 3225              		.loc 1 647 33 view .LVU1146
 3226 00da 41F69E53 		movw	r3, #7582
ARM GAS  /tmp/ccSE0mVF.s 			page 97


 650:./Libraries/STM32_USB_Host_Library/Class/MTP/Src/usbh_mtp_ptp.c ****   PTP_GetString(stor_info->VolumeLabel, &data[PTP_si_StorageDescription + len * 2U + 1U], &len);
 3227              		.loc 1 650 26 view .LVU1147
 3228 00de 06F11C0E 		add	lr, r6, #28
 640:./Libraries/STM32_USB_Host_Library/Class/MTP/Src/usbh_mtp_ptp.c ****   uint16_t len;
 3229              		.loc 1 640 12 view .LVU1148
 3230 00e2 0244     		add	r2, r2, r0
 3231              	.LVL259:
 641:./Libraries/STM32_USB_Host_Library/Class/MTP/Src/usbh_mtp_ptp.c **** 
 3232              		.loc 1 641 3 is_stmt 1 view .LVU1149
 643:./Libraries/STM32_USB_Host_Library/Class/MTP/Src/usbh_mtp_ptp.c ****   stor_info->FilesystemType = LE16(&data[PTP_si_FilesystemType]);
 3233              		.loc 1 643 3 view .LVU1150
 644:./Libraries/STM32_USB_Host_Library/Class/MTP/Src/usbh_mtp_ptp.c ****   stor_info->AccessCapability = LE16(&data[PTP_si_AccessCapability]);
 3234              		.loc 1 644 31 is_stmt 0 view .LVU1151
 3235 00e4 0544     		add	r5, r5, r0
 645:./Libraries/STM32_USB_Host_Library/Class/MTP/Src/usbh_mtp_ptp.c ****   stor_info->MaxCapability = LE64(&data[PTP_si_MaxCapability]);
 3236              		.loc 1 645 33 view .LVU1152
 3237 00e6 0744     		add	r7, r7, r0
 646:./Libraries/STM32_USB_Host_Library/Class/MTP/Src/usbh_mtp_ptp.c ****   stor_info->FreeSpaceInBytes = LE64(&data[PTP_si_FreeSpaceInBytes]);
 3238              		.loc 1 646 30 view .LVU1153
 3239 00e8 0144     		add	r1, r1, r0
 643:./Libraries/STM32_USB_Host_Library/Class/MTP/Src/usbh_mtp_ptp.c ****   stor_info->FilesystemType = LE16(&data[PTP_si_FilesystemType]);
 3240              		.loc 1 643 28 view .LVU1154
 3241 00ea B2F800C0 		ldrh	ip, [r2]	@ unaligned
 647:./Libraries/STM32_USB_Host_Library/Class/MTP/Src/usbh_mtp_ptp.c ****   stor_info->FreeSpaceInImages = LE32(&data[PTP_si_FreeSpaceInImages]);
 3242              		.loc 1 647 33 view .LVU1155
 3243 00ee 0344     		add	r3, r3, r0
 643:./Libraries/STM32_USB_Host_Library/Class/MTP/Src/usbh_mtp_ptp.c ****   stor_info->FilesystemType = LE16(&data[PTP_si_FilesystemType]);
 3244              		.loc 1 643 26 view .LVU1156
 3245 00f0 A6F800C0 		strh	ip, [r6]	@ movhi
 644:./Libraries/STM32_USB_Host_Library/Class/MTP/Src/usbh_mtp_ptp.c ****   stor_info->AccessCapability = LE16(&data[PTP_si_AccessCapability]);
 3246              		.loc 1 644 3 is_stmt 1 view .LVU1157
 644:./Libraries/STM32_USB_Host_Library/Class/MTP/Src/usbh_mtp_ptp.c ****   stor_info->AccessCapability = LE16(&data[PTP_si_AccessCapability]);
 3247              		.loc 1 644 31 is_stmt 0 view .LVU1158
 3248 00f4 B5F800C0 		ldrh	ip, [r5]	@ unaligned
 648:./Libraries/STM32_USB_Host_Library/Class/MTP/Src/usbh_mtp_ptp.c **** 
 3249              		.loc 1 648 34 view .LVU1159
 3250 00f8 41F6A655 		movw	r5, #7590
 644:./Libraries/STM32_USB_Host_Library/Class/MTP/Src/usbh_mtp_ptp.c ****   stor_info->AccessCapability = LE16(&data[PTP_si_AccessCapability]);
 3251              		.loc 1 644 29 view .LVU1160
 3252 00fc A6F802C0 		strh	ip, [r6, #2]	@ movhi
 645:./Libraries/STM32_USB_Host_Library/Class/MTP/Src/usbh_mtp_ptp.c ****   stor_info->MaxCapability = LE64(&data[PTP_si_MaxCapability]);
 3253              		.loc 1 645 3 is_stmt 1 view .LVU1161
 648:./Libraries/STM32_USB_Host_Library/Class/MTP/Src/usbh_mtp_ptp.c **** 
 3254              		.loc 1 648 34 is_stmt 0 view .LVU1162
 3255 0100 0544     		add	r5, r5, r0
 645:./Libraries/STM32_USB_Host_Library/Class/MTP/Src/usbh_mtp_ptp.c ****   stor_info->MaxCapability = LE64(&data[PTP_si_MaxCapability]);
 3256              		.loc 1 645 33 view .LVU1163
 3257 0102 B7F800C0 		ldrh	ip, [r7]	@ unaligned
 3258              	.LBB86:
 3259              	.LBB87:
 881:./Libraries/STM32_USB_Host_Library/Class/MTP/Src/usbh_mtp_ptp.c ****   strlength = (uint16_t)(2U * (uint32_t)data[0]);
 3260              		.loc 1 881 14 view .LVU1164
 3261 0106 41F6AA57 		movw	r7, #7594
 3262              	.LBE87:
 3263              	.LBE86:
 645:./Libraries/STM32_USB_Host_Library/Class/MTP/Src/usbh_mtp_ptp.c ****   stor_info->MaxCapability = LE64(&data[PTP_si_MaxCapability]);
 3264              		.loc 1 645 31 view .LVU1165
ARM GAS  /tmp/ccSE0mVF.s 			page 98


 3265 010a A6F804C0 		strh	ip, [r6, #4]	@ movhi
 646:./Libraries/STM32_USB_Host_Library/Class/MTP/Src/usbh_mtp_ptp.c ****   stor_info->FreeSpaceInBytes = LE64(&data[PTP_si_FreeSpaceInBytes]);
 3266              		.loc 1 646 3 is_stmt 1 view .LVU1166
 646:./Libraries/STM32_USB_Host_Library/Class/MTP/Src/usbh_mtp_ptp.c ****   stor_info->FreeSpaceInBytes = LE64(&data[PTP_si_FreeSpaceInBytes]);
 3267              		.loc 1 646 30 is_stmt 0 view .LVU1167
 3268 010e D1F800C0 		ldr	ip, [r1]	@ unaligned
 3269 0112 4968     		ldr	r1, [r1, #4]	@ unaligned
 646:./Libraries/STM32_USB_Host_Library/Class/MTP/Src/usbh_mtp_ptp.c ****   stor_info->FreeSpaceInBytes = LE64(&data[PTP_si_FreeSpaceInBytes]);
 3270              		.loc 1 646 28 view .LVU1168
 3271 0114 C6E902C1 		strd	ip, r1, [r6, #8]
 647:./Libraries/STM32_USB_Host_Library/Class/MTP/Src/usbh_mtp_ptp.c ****   stor_info->FreeSpaceInImages = LE32(&data[PTP_si_FreeSpaceInImages]);
 3272              		.loc 1 647 3 is_stmt 1 view .LVU1169
 647:./Libraries/STM32_USB_Host_Library/Class/MTP/Src/usbh_mtp_ptp.c ****   stor_info->FreeSpaceInImages = LE32(&data[PTP_si_FreeSpaceInImages]);
 3273              		.loc 1 647 33 is_stmt 0 view .LVU1170
 3274 0118 1968     		ldr	r1, [r3]	@ unaligned
 3275 011a 5B68     		ldr	r3, [r3, #4]	@ unaligned
 647:./Libraries/STM32_USB_Host_Library/Class/MTP/Src/usbh_mtp_ptp.c ****   stor_info->FreeSpaceInImages = LE32(&data[PTP_si_FreeSpaceInImages]);
 3276              		.loc 1 647 31 view .LVU1171
 3277 011c 3161     		str	r1, [r6, #16]
 3278 011e 7361     		str	r3, [r6, #20]
 648:./Libraries/STM32_USB_Host_Library/Class/MTP/Src/usbh_mtp_ptp.c **** 
 3279              		.loc 1 648 3 is_stmt 1 view .LVU1172
 648:./Libraries/STM32_USB_Host_Library/Class/MTP/Src/usbh_mtp_ptp.c **** 
 3280              		.loc 1 648 34 is_stmt 0 view .LVU1173
 3281 0120 2B68     		ldr	r3, [r5]	@ unaligned
 648:./Libraries/STM32_USB_Host_Library/Class/MTP/Src/usbh_mtp_ptp.c **** 
 3282              		.loc 1 648 32 view .LVU1174
 3283 0122 B361     		str	r3, [r6, #24]
 650:./Libraries/STM32_USB_Host_Library/Class/MTP/Src/usbh_mtp_ptp.c ****   PTP_GetString(stor_info->VolumeLabel, &data[PTP_si_StorageDescription + len * 2U + 1U], &len);
 3284              		.loc 1 650 3 is_stmt 1 view .LVU1175
 3285              	.LVL260:
 3286              	.LBB91:
 3287              	.LBI86:
 876:./Libraries/STM32_USB_Host_Library/Class/MTP/Src/usbh_mtp_ptp.c **** {
 3288              		.loc 1 876 13 view .LVU1176
 3289              	.LBB88:
 878:./Libraries/STM32_USB_Host_Library/Class/MTP/Src/usbh_mtp_ptp.c ****   uint16_t idx;
 3290              		.loc 1 878 3 view .LVU1177
 879:./Libraries/STM32_USB_Host_Library/Class/MTP/Src/usbh_mtp_ptp.c **** 
 3291              		.loc 1 879 3 view .LVU1178
 881:./Libraries/STM32_USB_Host_Library/Class/MTP/Src/usbh_mtp_ptp.c ****   strlength = (uint16_t)(2U * (uint32_t)data[0]);
 3292              		.loc 1 881 3 view .LVU1179
 881:./Libraries/STM32_USB_Host_Library/Class/MTP/Src/usbh_mtp_ptp.c ****   strlength = (uint16_t)(2U * (uint32_t)data[0]);
 3293              		.loc 1 881 14 is_stmt 0 view .LVU1180
 3294 0124 10F80780 		ldrb	r8, [r0, r7]	@ zero_extendqisi2
 3295              	.LVL261:
 882:./Libraries/STM32_USB_Host_Library/Class/MTP/Src/usbh_mtp_ptp.c ****   data ++; /* Adjust the offset ignoring the String Len */
 3296              		.loc 1 882 3 is_stmt 1 view .LVU1181
 883:./Libraries/STM32_USB_Host_Library/Class/MTP/Src/usbh_mtp_ptp.c **** 
 3297              		.loc 1 883 3 view .LVU1182
 885:./Libraries/STM32_USB_Host_Library/Class/MTP/Src/usbh_mtp_ptp.c ****   {
 3298              		.loc 1 885 3 view .LVU1183
 885:./Libraries/STM32_USB_Host_Library/Class/MTP/Src/usbh_mtp_ptp.c ****   {
 3299              		.loc 1 885 18 view .LVU1184
 885:./Libraries/STM32_USB_Host_Library/Class/MTP/Src/usbh_mtp_ptp.c ****   {
 3300              		.loc 1 885 3 is_stmt 0 view .LVU1185
 3301 0128 4FEA4807 		lsl	r7, r8, #1
ARM GAS  /tmp/ccSE0mVF.s 			page 99


 3302 012c B8F1000F 		cmp	r8, #0
 3303 0130 11D0     		beq	.L171
 3304 0132 41F6AB5C 		movw	ip, #7595
 3305 0136 7146     		mov	r1, lr
 3306 0138 2346     		mov	r3, r4
 3307 013a 8444     		add	ip, ip, r0
 3308              	.LVL262:
 3309              	.L172:
 888:./Libraries/STM32_USB_Host_Library/Class/MTP/Src/usbh_mtp_ptp.c ****     str++;
 3310              		.loc 1 888 5 is_stmt 1 view .LVU1186
 888:./Libraries/STM32_USB_Host_Library/Class/MTP/Src/usbh_mtp_ptp.c ****     str++;
 3311              		.loc 1 888 16 is_stmt 0 view .LVU1187
 3312 013c 1CF80350 		ldrb	r5, [ip, r3]	@ zero_extendqisi2
 3313 0140 0233     		adds	r3, r3, #2
 3314              	.LVL263:
 885:./Libraries/STM32_USB_Host_Library/Class/MTP/Src/usbh_mtp_ptp.c ****   {
 3315              		.loc 1 885 3 view .LVU1188
 3316 0142 98B2     		uxth	r0, r3
 888:./Libraries/STM32_USB_Host_Library/Class/MTP/Src/usbh_mtp_ptp.c ****     str++;
 3317              		.loc 1 888 10 view .LVU1189
 3318 0144 01F8015B 		strb	r5, [r1], #1
 3319              	.LVL264:
 889:./Libraries/STM32_USB_Host_Library/Class/MTP/Src/usbh_mtp_ptp.c ****   }
 3320              		.loc 1 889 5 is_stmt 1 view .LVU1190
 885:./Libraries/STM32_USB_Host_Library/Class/MTP/Src/usbh_mtp_ptp.c ****   {
 3321              		.loc 1 885 35 view .LVU1191
 885:./Libraries/STM32_USB_Host_Library/Class/MTP/Src/usbh_mtp_ptp.c ****   {
 3322              		.loc 1 885 18 view .LVU1192
 885:./Libraries/STM32_USB_Host_Library/Class/MTP/Src/usbh_mtp_ptp.c ****   {
 3323              		.loc 1 885 3 is_stmt 0 view .LVU1193
 3324 0148 B842     		cmp	r0, r7
 3325 014a F7D3     		bcc	.L172
 3326 014c 013F     		subs	r7, r7, #1
 3327 014e C7F34E07 		ubfx	r7, r7, #1, #15
 3328 0152 0137     		adds	r7, r7, #1
 3329 0154 BE44     		add	lr, lr, r7
 3330              	.LVL265:
 3331              	.L171:
 891:./Libraries/STM32_USB_Host_Library/Class/MTP/Src/usbh_mtp_ptp.c **** }
 3332              		.loc 1 891 3 is_stmt 1 view .LVU1194
 3333              	.LBE88:
 3334              	.LBE91:
 651:./Libraries/STM32_USB_Host_Library/Class/MTP/Src/usbh_mtp_ptp.c **** }
 3335              		.loc 1 651 46 is_stmt 0 view .LVU1195
 3336 0156 1B23     		movs	r3, #27
 3337              	.LBB92:
 3338              	.LBB89:
 891:./Libraries/STM32_USB_Host_Library/Class/MTP/Src/usbh_mtp_ptp.c **** }
 3339              		.loc 1 891 8 view .LVU1196
 3340 0158 0021     		movs	r1, #0
 3341              	.LBE89:
 3342              	.LBE92:
 651:./Libraries/STM32_USB_Host_Library/Class/MTP/Src/usbh_mtp_ptp.c **** }
 3343              		.loc 1 651 26 view .LVU1197
 3344 015a 06F21B15 		addw	r5, r6, #283
 651:./Libraries/STM32_USB_Host_Library/Class/MTP/Src/usbh_mtp_ptp.c **** }
 3345              		.loc 1 651 46 view .LVU1198
ARM GAS  /tmp/ccSE0mVF.s 			page 100


 3346 015e 03EB4803 		add	r3, r3, r8, lsl #1
 3347              	.LBB93:
 3348              	.LBB90:
 891:./Libraries/STM32_USB_Host_Library/Class/MTP/Src/usbh_mtp_ptp.c **** }
 3349              		.loc 1 891 8 view .LVU1199
 3350 0162 8EF80010 		strb	r1, [lr]
 3351              	.LVL266:
 891:./Libraries/STM32_USB_Host_Library/Class/MTP/Src/usbh_mtp_ptp.c **** }
 3352              		.loc 1 891 8 view .LVU1200
 3353              	.LBE90:
 3354              	.LBE93:
 651:./Libraries/STM32_USB_Host_Library/Class/MTP/Src/usbh_mtp_ptp.c **** }
 3355              		.loc 1 651 3 is_stmt 1 view .LVU1201
 3356              	.LBB94:
 3357              	.LBB95:
 881:./Libraries/STM32_USB_Host_Library/Class/MTP/Src/usbh_mtp_ptp.c ****   strlength = (uint16_t)(2U * (uint32_t)data[0]);
 3358              		.loc 1 881 14 is_stmt 0 view .LVU1202
 3359 0166 D15C     		ldrb	r1, [r2, r3]	@ zero_extendqisi2
 3360              	.LBE95:
 3361              	.LBE94:
 651:./Libraries/STM32_USB_Host_Library/Class/MTP/Src/usbh_mtp_ptp.c **** }
 3362              		.loc 1 651 3 view .LVU1203
 3363 0168 1344     		add	r3, r3, r2
 3364              	.LVL267:
 3365              	.LBB98:
 3366              	.LBI94:
 876:./Libraries/STM32_USB_Host_Library/Class/MTP/Src/usbh_mtp_ptp.c **** {
 3367              		.loc 1 876 13 is_stmt 1 view .LVU1204
 3368              	.LBB96:
 878:./Libraries/STM32_USB_Host_Library/Class/MTP/Src/usbh_mtp_ptp.c ****   uint16_t idx;
 3369              		.loc 1 878 3 view .LVU1205
 879:./Libraries/STM32_USB_Host_Library/Class/MTP/Src/usbh_mtp_ptp.c **** 
 3370              		.loc 1 879 3 view .LVU1206
 881:./Libraries/STM32_USB_Host_Library/Class/MTP/Src/usbh_mtp_ptp.c ****   strlength = (uint16_t)(2U * (uint32_t)data[0]);
 3371              		.loc 1 881 3 view .LVU1207
 882:./Libraries/STM32_USB_Host_Library/Class/MTP/Src/usbh_mtp_ptp.c ****   data ++; /* Adjust the offset ignoring the String Len */
 3372              		.loc 1 882 3 view .LVU1208
 883:./Libraries/STM32_USB_Host_Library/Class/MTP/Src/usbh_mtp_ptp.c **** 
 3373              		.loc 1 883 3 view .LVU1209
 885:./Libraries/STM32_USB_Host_Library/Class/MTP/Src/usbh_mtp_ptp.c ****   {
 3374              		.loc 1 885 3 view .LVU1210
 885:./Libraries/STM32_USB_Host_Library/Class/MTP/Src/usbh_mtp_ptp.c ****   {
 3375              		.loc 1 885 18 view .LVU1211
 885:./Libraries/STM32_USB_Host_Library/Class/MTP/Src/usbh_mtp_ptp.c ****   {
 3376              		.loc 1 885 3 is_stmt 0 view .LVU1212
 3377 016a 4800     		lsls	r0, r1, #1
 3378 016c 71B1     		cbz	r1, .L173
 3379 016e 0138     		subs	r0, r0, #1
 3380 0170 2A46     		mov	r2, r5
 3381              	.LVL268:
 885:./Libraries/STM32_USB_Host_Library/Class/MTP/Src/usbh_mtp_ptp.c ****   {
 3382              		.loc 1 885 3 view .LVU1213
 3383 0172 C0F34E00 		ubfx	r0, r0, #1, #15
 3384 0176 00F58E71 		add	r1, r0, #284
 3385              	.LVL269:
 885:./Libraries/STM32_USB_Host_Library/Class/MTP/Src/usbh_mtp_ptp.c ****   {
 3386              		.loc 1 885 3 view .LVU1214
ARM GAS  /tmp/ccSE0mVF.s 			page 101


 3387 017a 0E44     		add	r6, r6, r1
 3388              	.LVL270:
 3389              	.L174:
 888:./Libraries/STM32_USB_Host_Library/Class/MTP/Src/usbh_mtp_ptp.c ****     str++;
 3390              		.loc 1 888 5 is_stmt 1 view .LVU1215
 888:./Libraries/STM32_USB_Host_Library/Class/MTP/Src/usbh_mtp_ptp.c ****     str++;
 3391              		.loc 1 888 16 is_stmt 0 view .LVU1216
 3392 017c 5978     		ldrb	r1, [r3, #1]	@ zero_extendqisi2
 3393 017e 0233     		adds	r3, r3, #2
 888:./Libraries/STM32_USB_Host_Library/Class/MTP/Src/usbh_mtp_ptp.c ****     str++;
 3394              		.loc 1 888 10 view .LVU1217
 3395 0180 02F8011B 		strb	r1, [r2], #1
 3396              	.LVL271:
 889:./Libraries/STM32_USB_Host_Library/Class/MTP/Src/usbh_mtp_ptp.c ****   }
 3397              		.loc 1 889 5 is_stmt 1 view .LVU1218
 885:./Libraries/STM32_USB_Host_Library/Class/MTP/Src/usbh_mtp_ptp.c ****   {
 3398              		.loc 1 885 35 view .LVU1219
 885:./Libraries/STM32_USB_Host_Library/Class/MTP/Src/usbh_mtp_ptp.c ****   {
 3399              		.loc 1 885 18 view .LVU1220
 885:./Libraries/STM32_USB_Host_Library/Class/MTP/Src/usbh_mtp_ptp.c ****   {
 3400              		.loc 1 885 3 is_stmt 0 view .LVU1221
 3401 0184 9642     		cmp	r6, r2
 3402 0186 F9D1     		bne	.L174
 3403 0188 0130     		adds	r0, r0, #1
 3404 018a 0544     		add	r5, r5, r0
 3405              	.LVL272:
 3406              	.L173:
 891:./Libraries/STM32_USB_Host_Library/Class/MTP/Src/usbh_mtp_ptp.c **** }
 3407              		.loc 1 891 3 is_stmt 1 view .LVU1222
 891:./Libraries/STM32_USB_Host_Library/Class/MTP/Src/usbh_mtp_ptp.c **** }
 3408              		.loc 1 891 8 is_stmt 0 view .LVU1223
 3409 018c 0023     		movs	r3, #0
 3410              	.LBE96:
 3411              	.LBE98:
 3412              	.LBE85:
 3413              	.LBE84:
 3414              		.loc 1 1252 1 view .LVU1224
 3415 018e 2046     		mov	r0, r4
 3416              	.LBB101:
 3417              	.LBB100:
 3418              	.LBB99:
 3419              	.LBB97:
 891:./Libraries/STM32_USB_Host_Library/Class/MTP/Src/usbh_mtp_ptp.c **** }
 3420              		.loc 1 891 8 view .LVU1225
 3421 0190 2B70     		strb	r3, [r5]
 3422              	.LVL273:
 891:./Libraries/STM32_USB_Host_Library/Class/MTP/Src/usbh_mtp_ptp.c **** }
 3423              		.loc 1 891 8 view .LVU1226
 3424              	.LBE97:
 3425              	.LBE99:
 3426              	.LBE100:
 3427              	.LBE101:
1251:./Libraries/STM32_USB_Host_Library/Class/MTP/Src/usbh_mtp_ptp.c **** }
 3428              		.loc 1 1251 3 is_stmt 1 view .LVU1227
 3429              		.loc 1 1252 1 is_stmt 0 view .LVU1228
 3430 0192 0AB0     		add	sp, sp, #40
 3431              	.LCFI68:
ARM GAS  /tmp/ccSE0mVF.s 			page 102


 3432              		.cfi_def_cfa_offset 24
 3433              		@ sp needed
 3434 0194 BDE8F081 		pop	{r4, r5, r6, r7, r8, pc}
 3435              		.loc 1 1252 1 view .LVU1229
 3436              		.cfi_endproc
 3437              	.LFE357:
 3439              		.section	.text.USBH_PTP_GetNumObjects,"ax",%progbits
 3440              		.align	1
 3441              		.p2align 2,,3
 3442              		.global	USBH_PTP_GetNumObjects
 3443              		.syntax unified
 3444              		.thumb
 3445              		.thumb_func
 3446              		.fpu fpv5-d16
 3448              	USBH_PTP_GetNumObjects:
 3449              	.LVL274:
 3450              	.LFB358:
1253:./Libraries/STM32_USB_Host_Library/Class/MTP/Src/usbh_mtp_ptp.c **** 
1254:./Libraries/STM32_USB_Host_Library/Class/MTP/Src/usbh_mtp_ptp.c **** /**
1255:./Libraries/STM32_USB_Host_Library/Class/MTP/Src/usbh_mtp_ptp.c ****   * @brief  USBH_PTP_GetNumObjects
1256:./Libraries/STM32_USB_Host_Library/Class/MTP/Src/usbh_mtp_ptp.c ****   *         Gets device info dataset and fills deviceinfo structure.
1257:./Libraries/STM32_USB_Host_Library/Class/MTP/Src/usbh_mtp_ptp.c ****   * @param  phost: Host handle
1258:./Libraries/STM32_USB_Host_Library/Class/MTP/Src/usbh_mtp_ptp.c ****   * @param  dev_info: Device info structure
1259:./Libraries/STM32_USB_Host_Library/Class/MTP/Src/usbh_mtp_ptp.c ****   * @retval USBH Status
1260:./Libraries/STM32_USB_Host_Library/Class/MTP/Src/usbh_mtp_ptp.c ****   */
1261:./Libraries/STM32_USB_Host_Library/Class/MTP/Src/usbh_mtp_ptp.c **** USBH_StatusTypeDef USBH_PTP_GetNumObjects(USBH_HandleTypeDef *phost,
1262:./Libraries/STM32_USB_Host_Library/Class/MTP/Src/usbh_mtp_ptp.c ****                                           uint32_t storage_id,
1263:./Libraries/STM32_USB_Host_Library/Class/MTP/Src/usbh_mtp_ptp.c ****                                           uint32_t objectformatcode,
1264:./Libraries/STM32_USB_Host_Library/Class/MTP/Src/usbh_mtp_ptp.c ****                                           uint32_t associationOH,
1265:./Libraries/STM32_USB_Host_Library/Class/MTP/Src/usbh_mtp_ptp.c ****                                           uint32_t *numobs)
1266:./Libraries/STM32_USB_Host_Library/Class/MTP/Src/usbh_mtp_ptp.c **** {
 3451              		.loc 1 1266 1 is_stmt 1 view -0
 3452              		.cfi_startproc
 3453              		@ args = 4, pretend = 0, frame = 40
 3454              		@ frame_needed = 0, uses_anonymous_args = 0
1267:./Libraries/STM32_USB_Host_Library/Class/MTP/Src/usbh_mtp_ptp.c ****   USBH_StatusTypeDef   status = USBH_BUSY;
 3455              		.loc 1 1267 3 view .LVU1231
1268:./Libraries/STM32_USB_Host_Library/Class/MTP/Src/usbh_mtp_ptp.c ****   MTP_HandleTypeDef    *MTP_Handle = (MTP_HandleTypeDef *)phost->pActiveClass->pData;
 3456              		.loc 1 1268 3 view .LVU1232
1266:./Libraries/STM32_USB_Host_Library/Class/MTP/Src/usbh_mtp_ptp.c ****   USBH_StatusTypeDef   status = USBH_BUSY;
 3457              		.loc 1 1266 1 is_stmt 0 view .LVU1233
 3458 0000 2DE9F041 		push	{r4, r5, r6, r7, r8, lr}
 3459              	.LCFI69:
 3460              		.cfi_def_cfa_offset 24
 3461              		.cfi_offset 4, -24
 3462              		.cfi_offset 5, -20
 3463              		.cfi_offset 6, -16
 3464              		.cfi_offset 7, -12
 3465              		.cfi_offset 8, -8
 3466              		.cfi_offset 14, -4
 3467              		.loc 1 1268 25 view .LVU1234
 3468 0004 D0F87C44 		ldr	r4, [r0, #1148]
1269:./Libraries/STM32_USB_Host_Library/Class/MTP/Src/usbh_mtp_ptp.c ****   PTP_ContainerTypedef  ptp_container;
1270:./Libraries/STM32_USB_Host_Library/Class/MTP/Src/usbh_mtp_ptp.c **** 
1271:./Libraries/STM32_USB_Host_Library/Class/MTP/Src/usbh_mtp_ptp.c ****   switch (MTP_Handle->ptp.req_state)
 3469              		.loc 1 1271 26 view .LVU1235
 3470 0008 41F66157 		movw	r7, #7521
ARM GAS  /tmp/ccSE0mVF.s 			page 103


1266:./Libraries/STM32_USB_Host_Library/Class/MTP/Src/usbh_mtp_ptp.c ****   USBH_StatusTypeDef   status = USBH_BUSY;
 3471              		.loc 1 1266 1 view .LVU1236
 3472 000c 8AB0     		sub	sp, sp, #40
 3473              	.LCFI70:
 3474              		.cfi_def_cfa_offset 64
1268:./Libraries/STM32_USB_Host_Library/Class/MTP/Src/usbh_mtp_ptp.c ****   PTP_ContainerTypedef  ptp_container;
 3475              		.loc 1 1268 25 view .LVU1237
 3476 000e E669     		ldr	r6, [r4, #28]
 3477              	.LVL275:
1269:./Libraries/STM32_USB_Host_Library/Class/MTP/Src/usbh_mtp_ptp.c ****   PTP_ContainerTypedef  ptp_container;
 3478              		.loc 1 1269 3 is_stmt 1 view .LVU1238
 3479              		.loc 1 1271 3 view .LVU1239
 3480              		.loc 1 1271 26 is_stmt 0 view .LVU1240
 3481 0010 F45D     		ldrb	r4, [r6, r7]	@ zero_extendqisi2
 3482              		.loc 1 1271 3 view .LVU1241
 3483 0012 012C     		cmp	r4, #1
 3484 0014 13D0     		beq	.L187
 3485 0016 022C     		cmp	r4, #2
 3486 0018 0CD1     		bne	.L191
1272:./Libraries/STM32_USB_Host_Library/Class/MTP/Src/usbh_mtp_ptp.c ****   {
1273:./Libraries/STM32_USB_Host_Library/Class/MTP/Src/usbh_mtp_ptp.c ****     case PTP_REQ_SEND:
1274:./Libraries/STM32_USB_Host_Library/Class/MTP/Src/usbh_mtp_ptp.c ****       /* Set operation request type */
1275:./Libraries/STM32_USB_Host_Library/Class/MTP/Src/usbh_mtp_ptp.c ****       MTP_Handle->ptp.flags = PTP_DP_NODATA;
1276:./Libraries/STM32_USB_Host_Library/Class/MTP/Src/usbh_mtp_ptp.c **** 
1277:./Libraries/STM32_USB_Host_Library/Class/MTP/Src/usbh_mtp_ptp.c ****       /* Fill operation request params */
1278:./Libraries/STM32_USB_Host_Library/Class/MTP/Src/usbh_mtp_ptp.c ****       ptp_container.Code = PTP_OC_GetNumObjects;
1279:./Libraries/STM32_USB_Host_Library/Class/MTP/Src/usbh_mtp_ptp.c ****       ptp_container.SessionID = MTP_Handle->ptp.session_id;
1280:./Libraries/STM32_USB_Host_Library/Class/MTP/Src/usbh_mtp_ptp.c ****       ptp_container.Transaction_ID = MTP_Handle->ptp.transaction_id++;
1281:./Libraries/STM32_USB_Host_Library/Class/MTP/Src/usbh_mtp_ptp.c ****       ptp_container.Param1 = storage_id;
1282:./Libraries/STM32_USB_Host_Library/Class/MTP/Src/usbh_mtp_ptp.c ****       ptp_container.Param2 = objectformatcode;
1283:./Libraries/STM32_USB_Host_Library/Class/MTP/Src/usbh_mtp_ptp.c ****       ptp_container.Param3 = associationOH;
1284:./Libraries/STM32_USB_Host_Library/Class/MTP/Src/usbh_mtp_ptp.c ****       ptp_container.Nparam = 3U;
1285:./Libraries/STM32_USB_Host_Library/Class/MTP/Src/usbh_mtp_ptp.c **** 
1286:./Libraries/STM32_USB_Host_Library/Class/MTP/Src/usbh_mtp_ptp.c ****       /* convert request packet into USB raw packet*/
1287:./Libraries/STM32_USB_Host_Library/Class/MTP/Src/usbh_mtp_ptp.c ****       USBH_PTP_SendRequest(phost, &ptp_container);
1288:./Libraries/STM32_USB_Host_Library/Class/MTP/Src/usbh_mtp_ptp.c **** 
1289:./Libraries/STM32_USB_Host_Library/Class/MTP/Src/usbh_mtp_ptp.c ****       /* Setup State machine and start transfer */
1290:./Libraries/STM32_USB_Host_Library/Class/MTP/Src/usbh_mtp_ptp.c ****       MTP_Handle->ptp.state = PTP_OP_REQUEST_STATE;
1291:./Libraries/STM32_USB_Host_Library/Class/MTP/Src/usbh_mtp_ptp.c ****       MTP_Handle->ptp.req_state = PTP_REQ_WAIT;
1292:./Libraries/STM32_USB_Host_Library/Class/MTP/Src/usbh_mtp_ptp.c ****       status = USBH_BUSY;
1293:./Libraries/STM32_USB_Host_Library/Class/MTP/Src/usbh_mtp_ptp.c **** 
1294:./Libraries/STM32_USB_Host_Library/Class/MTP/Src/usbh_mtp_ptp.c **** #if (USBH_USE_OS == 1U)
1295:./Libraries/STM32_USB_Host_Library/Class/MTP/Src/usbh_mtp_ptp.c ****       phost->os_msg = (uint32_t)USBH_STATE_CHANGED_EVENT;
1296:./Libraries/STM32_USB_Host_Library/Class/MTP/Src/usbh_mtp_ptp.c **** #if (osCMSIS < 0x20000U)
1297:./Libraries/STM32_USB_Host_Library/Class/MTP/Src/usbh_mtp_ptp.c ****       (void)osMessagePut(phost->os_event, phost->os_msg, 0U);
1298:./Libraries/STM32_USB_Host_Library/Class/MTP/Src/usbh_mtp_ptp.c **** #else
1299:./Libraries/STM32_USB_Host_Library/Class/MTP/Src/usbh_mtp_ptp.c ****       (void)osMessageQueuePut(phost->os_event, &phost->os_msg, 0U, NULL);
1300:./Libraries/STM32_USB_Host_Library/Class/MTP/Src/usbh_mtp_ptp.c **** #endif
1301:./Libraries/STM32_USB_Host_Library/Class/MTP/Src/usbh_mtp_ptp.c **** #endif
1302:./Libraries/STM32_USB_Host_Library/Class/MTP/Src/usbh_mtp_ptp.c ****       break;
1303:./Libraries/STM32_USB_Host_Library/Class/MTP/Src/usbh_mtp_ptp.c **** 
1304:./Libraries/STM32_USB_Host_Library/Class/MTP/Src/usbh_mtp_ptp.c ****     case PTP_REQ_WAIT:
1305:./Libraries/STM32_USB_Host_Library/Class/MTP/Src/usbh_mtp_ptp.c ****       status = USBH_PTP_Process(phost);
 3487              		.loc 1 1305 7 is_stmt 1 view .LVU1242
 3488              		.loc 1 1305 16 is_stmt 0 view .LVU1243
 3489 001a FFF7FEFF 		bl	USBH_PTP_Process
 3490              	.LVL276:
ARM GAS  /tmp/ccSE0mVF.s 			page 104


1306:./Libraries/STM32_USB_Host_Library/Class/MTP/Src/usbh_mtp_ptp.c **** 
1307:./Libraries/STM32_USB_Host_Library/Class/MTP/Src/usbh_mtp_ptp.c ****       if (status == USBH_OK)
 3491              		.loc 1 1307 7 is_stmt 1 view .LVU1244
 3492              		.loc 1 1307 10 is_stmt 0 view .LVU1245
 3493 001e 0446     		mov	r4, r0
 3494 0020 20B9     		cbnz	r0, .L189
1308:./Libraries/STM32_USB_Host_Library/Class/MTP/Src/usbh_mtp_ptp.c ****       {
1309:./Libraries/STM32_USB_Host_Library/Class/MTP/Src/usbh_mtp_ptp.c ****         *numobs = MTP_Handle->ptp.resp_container.param1;
 3495              		.loc 1 1309 9 is_stmt 1 view .LVU1246
 3496              		.loc 1 1309 49 is_stmt 0 view .LVU1247
 3497 0022 42F29013 		movw	r3, #8592
 3498              		.loc 1 1309 17 view .LVU1248
 3499 0026 109A     		ldr	r2, [sp, #64]
 3500              		.loc 1 1309 49 view .LVU1249
 3501 0028 F358     		ldr	r3, [r6, r3]
 3502              		.loc 1 1309 17 view .LVU1250
 3503 002a 1360     		str	r3, [r2]
 3504              	.L189:
 3505              	.LVL277:
1310:./Libraries/STM32_USB_Host_Library/Class/MTP/Src/usbh_mtp_ptp.c ****       }
1311:./Libraries/STM32_USB_Host_Library/Class/MTP/Src/usbh_mtp_ptp.c ****       break;
1312:./Libraries/STM32_USB_Host_Library/Class/MTP/Src/usbh_mtp_ptp.c **** 
1313:./Libraries/STM32_USB_Host_Library/Class/MTP/Src/usbh_mtp_ptp.c ****     default:
1314:./Libraries/STM32_USB_Host_Library/Class/MTP/Src/usbh_mtp_ptp.c ****       break;
1315:./Libraries/STM32_USB_Host_Library/Class/MTP/Src/usbh_mtp_ptp.c ****   }
1316:./Libraries/STM32_USB_Host_Library/Class/MTP/Src/usbh_mtp_ptp.c ****   return status;
 3506              		.loc 1 1316 3 is_stmt 1 view .LVU1251
1317:./Libraries/STM32_USB_Host_Library/Class/MTP/Src/usbh_mtp_ptp.c **** }
 3507              		.loc 1 1317 1 is_stmt 0 view .LVU1252
 3508 002c 2046     		mov	r0, r4
 3509 002e 0AB0     		add	sp, sp, #40
 3510              	.LCFI71:
 3511              		.cfi_remember_state
 3512              		.cfi_def_cfa_offset 24
 3513              		@ sp needed
 3514 0030 BDE8F081 		pop	{r4, r5, r6, r7, r8, pc}
 3515              	.LVL278:
 3516              	.L191:
 3517              	.LCFI72:
 3518              		.cfi_restore_state
1271:./Libraries/STM32_USB_Host_Library/Class/MTP/Src/usbh_mtp_ptp.c ****   {
 3519              		.loc 1 1271 3 view .LVU1253
 3520 0034 0124     		movs	r4, #1
 3521              	.LVL279:
1316:./Libraries/STM32_USB_Host_Library/Class/MTP/Src/usbh_mtp_ptp.c **** }
 3522              		.loc 1 1316 3 is_stmt 1 view .LVU1254
 3523              		.loc 1 1317 1 is_stmt 0 view .LVU1255
 3524 0036 2046     		mov	r0, r4
 3525              	.LVL280:
 3526              		.loc 1 1317 1 view .LVU1256
 3527 0038 0AB0     		add	sp, sp, #40
 3528              	.LCFI73:
 3529              		.cfi_remember_state
 3530              		.cfi_def_cfa_offset 24
 3531              		@ sp needed
 3532 003a BDE8F081 		pop	{r4, r5, r6, r7, r8, pc}
 3533              	.LVL281:
ARM GAS  /tmp/ccSE0mVF.s 			page 105


 3534              	.L187:
 3535              	.LCFI74:
 3536              		.cfi_restore_state
1275:./Libraries/STM32_USB_Host_Library/Class/MTP/Src/usbh_mtp_ptp.c **** 
 3537              		.loc 1 1275 7 is_stmt 1 view .LVU1257
1280:./Libraries/STM32_USB_Host_Library/Class/MTP/Src/usbh_mtp_ptp.c ****       ptp_container.Param1 = storage_id;
 3538              		.loc 1 1280 53 is_stmt 0 view .LVU1258
 3539 003e 42F2A41E 		movw	lr, #8612
1279:./Libraries/STM32_USB_Host_Library/Class/MTP/Src/usbh_mtp_ptp.c ****       ptp_container.Transaction_ID = MTP_Handle->ptp.transaction_id++;
 3540              		.loc 1 1279 48 view .LVU1259
 3541 0042 42F2A817 		movw	r7, #8616
1281:./Libraries/STM32_USB_Host_Library/Class/MTP/Src/usbh_mtp_ptp.c ****       ptp_container.Param2 = objectformatcode;
 3542              		.loc 1 1281 28 view .LVU1260
 3543 0046 0491     		str	r1, [sp, #16]
1275:./Libraries/STM32_USB_Host_Library/Class/MTP/Src/usbh_mtp_ptp.c **** 
 3544              		.loc 1 1275 29 view .LVU1261
 3545 0048 42F2AC18 		movw	r8, #8620
1280:./Libraries/STM32_USB_Host_Library/Class/MTP/Src/usbh_mtp_ptp.c ****       ptp_container.Param1 = storage_id;
 3546              		.loc 1 1280 53 view .LVU1262
 3547 004c 56F80E10 		ldr	r1, [r6, lr]
 3548              	.LVL282:
1280:./Libraries/STM32_USB_Host_Library/Class/MTP/Src/usbh_mtp_ptp.c ****       ptp_container.Param1 = storage_id;
 3549              		.loc 1 1280 53 view .LVU1263
 3550 0050 0546     		mov	r5, r0
1279:./Libraries/STM32_USB_Host_Library/Class/MTP/Src/usbh_mtp_ptp.c ****       ptp_container.Transaction_ID = MTP_Handle->ptp.transaction_id++;
 3551              		.loc 1 1279 31 view .LVU1264
 3552 0052 F759     		ldr	r7, [r6, r7]
1282:./Libraries/STM32_USB_Host_Library/Class/MTP/Src/usbh_mtp_ptp.c ****       ptp_container.Param3 = associationOH;
 3553              		.loc 1 1282 28 view .LVU1265
 3554 0054 0592     		str	r2, [sp, #20]
1280:./Libraries/STM32_USB_Host_Library/Class/MTP/Src/usbh_mtp_ptp.c ****       ptp_container.Param1 = storage_id;
 3555              		.loc 1 1280 68 view .LVU1266
 3556 0056 4A1C     		adds	r2, r1, #1
 3557              	.LVL283:
1279:./Libraries/STM32_USB_Host_Library/Class/MTP/Src/usbh_mtp_ptp.c ****       ptp_container.Transaction_ID = MTP_Handle->ptp.transaction_id++;
 3558              		.loc 1 1279 31 view .LVU1267
 3559 0058 0297     		str	r7, [sp, #8]
1275:./Libraries/STM32_USB_Host_Library/Class/MTP/Src/usbh_mtp_ptp.c **** 
 3560              		.loc 1 1275 29 view .LVU1268
 3561 005a 0027     		movs	r7, #0
1283:./Libraries/STM32_USB_Host_Library/Class/MTP/Src/usbh_mtp_ptp.c ****       ptp_container.Nparam = 3U;
 3562              		.loc 1 1283 28 view .LVU1269
 3563 005c 0693     		str	r3, [sp, #24]
1284:./Libraries/STM32_USB_Host_Library/Class/MTP/Src/usbh_mtp_ptp.c **** 
 3564              		.loc 1 1284 28 view .LVU1270
 3565 005e 0323     		movs	r3, #3
 3566              	.LVL284:
1275:./Libraries/STM32_USB_Host_Library/Class/MTP/Src/usbh_mtp_ptp.c **** 
 3567              		.loc 1 1275 29 view .LVU1271
 3568 0060 46F80870 		str	r7, [r6, r8]
1278:./Libraries/STM32_USB_Host_Library/Class/MTP/Src/usbh_mtp_ptp.c ****       ptp_container.SessionID = MTP_Handle->ptp.session_id;
 3569              		.loc 1 1278 7 is_stmt 1 view .LVU1272
1280:./Libraries/STM32_USB_Host_Library/Class/MTP/Src/usbh_mtp_ptp.c ****       ptp_container.Param1 = storage_id;
 3570              		.loc 1 1280 68 is_stmt 0 view .LVU1273
 3571 0064 46F80E20 		str	r2, [r6, lr]
1278:./Libraries/STM32_USB_Host_Library/Class/MTP/Src/usbh_mtp_ptp.c ****       ptp_container.SessionID = MTP_Handle->ptp.session_id;
 3572              		.loc 1 1278 26 view .LVU1274
ARM GAS  /tmp/ccSE0mVF.s 			page 106


 3573 0068 41F20602 		movw	r2, #4102
1280:./Libraries/STM32_USB_Host_Library/Class/MTP/Src/usbh_mtp_ptp.c ****       ptp_container.Param1 = storage_id;
 3574              		.loc 1 1280 36 view .LVU1275
 3575 006c 0391     		str	r1, [sp, #12]
1287:./Libraries/STM32_USB_Host_Library/Class/MTP/Src/usbh_mtp_ptp.c **** 
 3576              		.loc 1 1287 7 view .LVU1276
 3577 006e 01A9     		add	r1, sp, #4
1278:./Libraries/STM32_USB_Host_Library/Class/MTP/Src/usbh_mtp_ptp.c ****       ptp_container.SessionID = MTP_Handle->ptp.session_id;
 3578              		.loc 1 1278 26 view .LVU1277
 3579 0070 ADF80420 		strh	r2, [sp, #4]	@ movhi
1279:./Libraries/STM32_USB_Host_Library/Class/MTP/Src/usbh_mtp_ptp.c ****       ptp_container.Transaction_ID = MTP_Handle->ptp.transaction_id++;
 3580              		.loc 1 1279 7 is_stmt 1 view .LVU1278
1280:./Libraries/STM32_USB_Host_Library/Class/MTP/Src/usbh_mtp_ptp.c ****       ptp_container.Param1 = storage_id;
 3581              		.loc 1 1280 7 view .LVU1279
1281:./Libraries/STM32_USB_Host_Library/Class/MTP/Src/usbh_mtp_ptp.c ****       ptp_container.Param2 = objectformatcode;
 3582              		.loc 1 1281 7 view .LVU1280
1282:./Libraries/STM32_USB_Host_Library/Class/MTP/Src/usbh_mtp_ptp.c ****       ptp_container.Param3 = associationOH;
 3583              		.loc 1 1282 7 view .LVU1281
1283:./Libraries/STM32_USB_Host_Library/Class/MTP/Src/usbh_mtp_ptp.c ****       ptp_container.Nparam = 3U;
 3584              		.loc 1 1283 7 view .LVU1282
1284:./Libraries/STM32_USB_Host_Library/Class/MTP/Src/usbh_mtp_ptp.c **** 
 3585              		.loc 1 1284 7 view .LVU1283
1284:./Libraries/STM32_USB_Host_Library/Class/MTP/Src/usbh_mtp_ptp.c **** 
 3586              		.loc 1 1284 28 is_stmt 0 view .LVU1284
 3587 0074 8DF82430 		strb	r3, [sp, #36]
1287:./Libraries/STM32_USB_Host_Library/Class/MTP/Src/usbh_mtp_ptp.c **** 
 3588              		.loc 1 1287 7 is_stmt 1 view .LVU1285
 3589 0078 FFF7FEFF 		bl	USBH_PTP_SendRequest
 3590              	.LVL285:
1290:./Libraries/STM32_USB_Host_Library/Class/MTP/Src/usbh_mtp_ptp.c ****       MTP_Handle->ptp.req_state = PTP_REQ_WAIT;
 3591              		.loc 1 1290 7 view .LVU1286
1291:./Libraries/STM32_USB_Host_Library/Class/MTP/Src/usbh_mtp_ptp.c ****       status = USBH_BUSY;
 3592              		.loc 1 1291 7 view .LVU1287
1290:./Libraries/STM32_USB_Host_Library/Class/MTP/Src/usbh_mtp_ptp.c ****       MTP_Handle->ptp.req_state = PTP_REQ_WAIT;
 3593              		.loc 1 1290 29 is_stmt 0 view .LVU1288
 3594 007c 06F5EB52 		add	r2, r6, #7520
 3595 0080 40F20121 		movw	r1, #513
1295:./Libraries/STM32_USB_Host_Library/Class/MTP/Src/usbh_mtp_ptp.c **** #if (osCMSIS < 0x20000U)
 3596              		.loc 1 1295 21 view .LVU1289
 3597 0084 0526     		movs	r6, #5
 3598              	.LVL286:
1299:./Libraries/STM32_USB_Host_Library/Class/MTP/Src/usbh_mtp_ptp.c **** #endif
 3599              		.loc 1 1299 13 view .LVU1290
 3600 0086 3B46     		mov	r3, r7
1290:./Libraries/STM32_USB_Host_Library/Class/MTP/Src/usbh_mtp_ptp.c ****       MTP_Handle->ptp.req_state = PTP_REQ_WAIT;
 3601              		.loc 1 1290 29 view .LVU1291
 3602 0088 1180     		strh	r1, [r2]	@ movhi
1292:./Libraries/STM32_USB_Host_Library/Class/MTP/Src/usbh_mtp_ptp.c **** 
 3603              		.loc 1 1292 7 is_stmt 1 view .LVU1292
1295:./Libraries/STM32_USB_Host_Library/Class/MTP/Src/usbh_mtp_ptp.c **** #if (osCMSIS < 0x20000U)
 3604              		.loc 1 1295 7 view .LVU1293
1299:./Libraries/STM32_USB_Host_Library/Class/MTP/Src/usbh_mtp_ptp.c **** #endif
 3605              		.loc 1 1299 13 is_stmt 0 view .LVU1294
 3606 008a 3A46     		mov	r2, r7
 3607              	.LVL287:
1299:./Libraries/STM32_USB_Host_Library/Class/MTP/Src/usbh_mtp_ptp.c **** #endif
 3608              		.loc 1 1299 13 view .LVU1295
ARM GAS  /tmp/ccSE0mVF.s 			page 107


 3609 008c D5F8D804 		ldr	r0, [r5, #1240]
 3610 0090 05F59C61 		add	r1, r5, #1248
1295:./Libraries/STM32_USB_Host_Library/Class/MTP/Src/usbh_mtp_ptp.c **** #if (osCMSIS < 0x20000U)
 3611              		.loc 1 1295 21 view .LVU1296
 3612 0094 C5F8E064 		str	r6, [r5, #1248]
1299:./Libraries/STM32_USB_Host_Library/Class/MTP/Src/usbh_mtp_ptp.c **** #endif
 3613              		.loc 1 1299 7 is_stmt 1 view .LVU1297
1299:./Libraries/STM32_USB_Host_Library/Class/MTP/Src/usbh_mtp_ptp.c **** #endif
 3614              		.loc 1 1299 13 is_stmt 0 view .LVU1298
 3615 0098 FFF7FEFF 		bl	osMessageQueuePut
 3616              	.LVL288:
1302:./Libraries/STM32_USB_Host_Library/Class/MTP/Src/usbh_mtp_ptp.c **** 
 3617              		.loc 1 1302 7 is_stmt 1 view .LVU1299
1316:./Libraries/STM32_USB_Host_Library/Class/MTP/Src/usbh_mtp_ptp.c **** }
 3618              		.loc 1 1316 3 view .LVU1300
 3619              		.loc 1 1317 1 is_stmt 0 view .LVU1301
 3620 009c 2046     		mov	r0, r4
 3621 009e 0AB0     		add	sp, sp, #40
 3622              	.LCFI75:
 3623              		.cfi_def_cfa_offset 24
 3624              		@ sp needed
 3625 00a0 BDE8F081 		pop	{r4, r5, r6, r7, r8, pc}
 3626              		.loc 1 1317 1 view .LVU1302
 3627              		.cfi_endproc
 3628              	.LFE358:
 3630              		.section	.text.USBH_PTP_GetObjectHandles,"ax",%progbits
 3631              		.align	1
 3632              		.p2align 2,,3
 3633              		.global	USBH_PTP_GetObjectHandles
 3634              		.syntax unified
 3635              		.thumb
 3636              		.thumb_func
 3637              		.fpu fpv5-d16
 3639              	USBH_PTP_GetObjectHandles:
 3640              	.LVL289:
 3641              	.LFB359:
1318:./Libraries/STM32_USB_Host_Library/Class/MTP/Src/usbh_mtp_ptp.c **** 
1319:./Libraries/STM32_USB_Host_Library/Class/MTP/Src/usbh_mtp_ptp.c **** /**
1320:./Libraries/STM32_USB_Host_Library/Class/MTP/Src/usbh_mtp_ptp.c ****   * @brief  USBH_PTP_GetObjectHandles
1321:./Libraries/STM32_USB_Host_Library/Class/MTP/Src/usbh_mtp_ptp.c ****   *         Gets device info dataset and fills deviceinfo structure.
1322:./Libraries/STM32_USB_Host_Library/Class/MTP/Src/usbh_mtp_ptp.c ****   * @param  phost: Host handle
1323:./Libraries/STM32_USB_Host_Library/Class/MTP/Src/usbh_mtp_ptp.c ****   * @param  dev_info: Device info structure
1324:./Libraries/STM32_USB_Host_Library/Class/MTP/Src/usbh_mtp_ptp.c ****   * @retval USBH Status
1325:./Libraries/STM32_USB_Host_Library/Class/MTP/Src/usbh_mtp_ptp.c ****   */
1326:./Libraries/STM32_USB_Host_Library/Class/MTP/Src/usbh_mtp_ptp.c **** USBH_StatusTypeDef USBH_PTP_GetObjectHandles(USBH_HandleTypeDef *phost,
1327:./Libraries/STM32_USB_Host_Library/Class/MTP/Src/usbh_mtp_ptp.c ****                                              uint32_t storage_id,
1328:./Libraries/STM32_USB_Host_Library/Class/MTP/Src/usbh_mtp_ptp.c ****                                              uint32_t objectformatcode,
1329:./Libraries/STM32_USB_Host_Library/Class/MTP/Src/usbh_mtp_ptp.c ****                                              uint32_t associationOH,
1330:./Libraries/STM32_USB_Host_Library/Class/MTP/Src/usbh_mtp_ptp.c ****                                              PTP_ObjectHandlesTypedef *objecthandles)
1331:./Libraries/STM32_USB_Host_Library/Class/MTP/Src/usbh_mtp_ptp.c **** {
 3642              		.loc 1 1331 1 is_stmt 1 view -0
 3643              		.cfi_startproc
 3644              		@ args = 4, pretend = 0, frame = 40
 3645              		@ frame_needed = 0, uses_anonymous_args = 0
1332:./Libraries/STM32_USB_Host_Library/Class/MTP/Src/usbh_mtp_ptp.c ****   USBH_StatusTypeDef   status = USBH_BUSY;
 3646              		.loc 1 1332 3 view .LVU1304
1333:./Libraries/STM32_USB_Host_Library/Class/MTP/Src/usbh_mtp_ptp.c ****   MTP_HandleTypeDef    *MTP_Handle = (MTP_HandleTypeDef *)phost->pActiveClass->pData;
ARM GAS  /tmp/ccSE0mVF.s 			page 108


 3647              		.loc 1 1333 3 view .LVU1305
1331:./Libraries/STM32_USB_Host_Library/Class/MTP/Src/usbh_mtp_ptp.c ****   USBH_StatusTypeDef   status = USBH_BUSY;
 3648              		.loc 1 1331 1 is_stmt 0 view .LVU1306
 3649 0000 2DE9F041 		push	{r4, r5, r6, r7, r8, lr}
 3650              	.LCFI76:
 3651              		.cfi_def_cfa_offset 24
 3652              		.cfi_offset 4, -24
 3653              		.cfi_offset 5, -20
 3654              		.cfi_offset 6, -16
 3655              		.cfi_offset 7, -12
 3656              		.cfi_offset 8, -8
 3657              		.cfi_offset 14, -4
 3658              		.loc 1 1333 25 view .LVU1307
 3659 0004 D0F87C44 		ldr	r4, [r0, #1148]
1334:./Libraries/STM32_USB_Host_Library/Class/MTP/Src/usbh_mtp_ptp.c ****   PTP_ContainerTypedef  ptp_container;
1335:./Libraries/STM32_USB_Host_Library/Class/MTP/Src/usbh_mtp_ptp.c **** 
1336:./Libraries/STM32_USB_Host_Library/Class/MTP/Src/usbh_mtp_ptp.c ****   switch (MTP_Handle->ptp.req_state)
 3660              		.loc 1 1336 26 view .LVU1308
 3661 0008 41F66155 		movw	r5, #7521
1331:./Libraries/STM32_USB_Host_Library/Class/MTP/Src/usbh_mtp_ptp.c ****   USBH_StatusTypeDef   status = USBH_BUSY;
 3662              		.loc 1 1331 1 view .LVU1309
 3663 000c 8AB0     		sub	sp, sp, #40
 3664              	.LCFI77:
 3665              		.cfi_def_cfa_offset 64
1333:./Libraries/STM32_USB_Host_Library/Class/MTP/Src/usbh_mtp_ptp.c ****   PTP_ContainerTypedef  ptp_container;
 3666              		.loc 1 1333 25 view .LVU1310
 3667 000e E469     		ldr	r4, [r4, #28]
 3668              	.LVL290:
1334:./Libraries/STM32_USB_Host_Library/Class/MTP/Src/usbh_mtp_ptp.c ****   PTP_ContainerTypedef  ptp_container;
 3669              		.loc 1 1334 3 is_stmt 1 view .LVU1311
 3670              		.loc 1 1336 3 view .LVU1312
 3671              		.loc 1 1336 26 is_stmt 0 view .LVU1313
 3672 0010 655D     		ldrb	r5, [r4, r5]	@ zero_extendqisi2
 3673              		.loc 1 1336 3 view .LVU1314
 3674 0012 012D     		cmp	r5, #1
 3675 0014 0FD0     		beq	.L193
 3676 0016 022D     		cmp	r5, #2
 3677 0018 08D1     		bne	.L197
1337:./Libraries/STM32_USB_Host_Library/Class/MTP/Src/usbh_mtp_ptp.c ****   {
1338:./Libraries/STM32_USB_Host_Library/Class/MTP/Src/usbh_mtp_ptp.c ****     case PTP_REQ_SEND:
1339:./Libraries/STM32_USB_Host_Library/Class/MTP/Src/usbh_mtp_ptp.c ****       /* Set operation request type */
1340:./Libraries/STM32_USB_Host_Library/Class/MTP/Src/usbh_mtp_ptp.c ****       MTP_Handle->ptp.flags = PTP_DP_GETDATA;
1341:./Libraries/STM32_USB_Host_Library/Class/MTP/Src/usbh_mtp_ptp.c ****       MTP_Handle->ptp.data_ptr = (uint8_t *)(void *) &(MTP_Handle->ptp.data_container);
1342:./Libraries/STM32_USB_Host_Library/Class/MTP/Src/usbh_mtp_ptp.c ****       MTP_Handle->ptp.data_length = 0U;
1343:./Libraries/STM32_USB_Host_Library/Class/MTP/Src/usbh_mtp_ptp.c ****       MTP_Handle->ptp.data_packet_counter = 0U;
1344:./Libraries/STM32_USB_Host_Library/Class/MTP/Src/usbh_mtp_ptp.c ****       MTP_Handle->ptp.data_packet = 0U;
1345:./Libraries/STM32_USB_Host_Library/Class/MTP/Src/usbh_mtp_ptp.c **** 
1346:./Libraries/STM32_USB_Host_Library/Class/MTP/Src/usbh_mtp_ptp.c ****       /* Fill operation request params */
1347:./Libraries/STM32_USB_Host_Library/Class/MTP/Src/usbh_mtp_ptp.c ****       ptp_container.Code = PTP_OC_GetObjectHandles;
1348:./Libraries/STM32_USB_Host_Library/Class/MTP/Src/usbh_mtp_ptp.c ****       ptp_container.SessionID = MTP_Handle->ptp.session_id;
1349:./Libraries/STM32_USB_Host_Library/Class/MTP/Src/usbh_mtp_ptp.c ****       ptp_container.Transaction_ID = MTP_Handle->ptp.transaction_id++;
1350:./Libraries/STM32_USB_Host_Library/Class/MTP/Src/usbh_mtp_ptp.c ****       ptp_container.Param1 = storage_id;
1351:./Libraries/STM32_USB_Host_Library/Class/MTP/Src/usbh_mtp_ptp.c ****       ptp_container.Param2 = objectformatcode;
1352:./Libraries/STM32_USB_Host_Library/Class/MTP/Src/usbh_mtp_ptp.c ****       ptp_container.Param3 = associationOH;
1353:./Libraries/STM32_USB_Host_Library/Class/MTP/Src/usbh_mtp_ptp.c ****       ptp_container.Nparam = 3U;
1354:./Libraries/STM32_USB_Host_Library/Class/MTP/Src/usbh_mtp_ptp.c **** 
1355:./Libraries/STM32_USB_Host_Library/Class/MTP/Src/usbh_mtp_ptp.c ****       /* convert request packet into USB raw packet*/
ARM GAS  /tmp/ccSE0mVF.s 			page 109


1356:./Libraries/STM32_USB_Host_Library/Class/MTP/Src/usbh_mtp_ptp.c ****       USBH_PTP_SendRequest(phost, &ptp_container);
1357:./Libraries/STM32_USB_Host_Library/Class/MTP/Src/usbh_mtp_ptp.c **** 
1358:./Libraries/STM32_USB_Host_Library/Class/MTP/Src/usbh_mtp_ptp.c ****       /* Setup State machine and start transfer */
1359:./Libraries/STM32_USB_Host_Library/Class/MTP/Src/usbh_mtp_ptp.c ****       MTP_Handle->ptp.state = PTP_OP_REQUEST_STATE;
1360:./Libraries/STM32_USB_Host_Library/Class/MTP/Src/usbh_mtp_ptp.c ****       MTP_Handle->ptp.req_state = PTP_REQ_WAIT;
1361:./Libraries/STM32_USB_Host_Library/Class/MTP/Src/usbh_mtp_ptp.c ****       status = USBH_BUSY;
1362:./Libraries/STM32_USB_Host_Library/Class/MTP/Src/usbh_mtp_ptp.c **** 
1363:./Libraries/STM32_USB_Host_Library/Class/MTP/Src/usbh_mtp_ptp.c **** #if (USBH_USE_OS == 1U)
1364:./Libraries/STM32_USB_Host_Library/Class/MTP/Src/usbh_mtp_ptp.c ****       phost->os_msg = (uint32_t)USBH_STATE_CHANGED_EVENT;
1365:./Libraries/STM32_USB_Host_Library/Class/MTP/Src/usbh_mtp_ptp.c **** #if (osCMSIS < 0x20000U)
1366:./Libraries/STM32_USB_Host_Library/Class/MTP/Src/usbh_mtp_ptp.c ****       (void)osMessagePut(phost->os_event, phost->os_msg, 0U);
1367:./Libraries/STM32_USB_Host_Library/Class/MTP/Src/usbh_mtp_ptp.c **** #else
1368:./Libraries/STM32_USB_Host_Library/Class/MTP/Src/usbh_mtp_ptp.c ****       (void)osMessageQueuePut(phost->os_event, &phost->os_msg, 0U, NULL);
1369:./Libraries/STM32_USB_Host_Library/Class/MTP/Src/usbh_mtp_ptp.c **** #endif
1370:./Libraries/STM32_USB_Host_Library/Class/MTP/Src/usbh_mtp_ptp.c **** #endif
1371:./Libraries/STM32_USB_Host_Library/Class/MTP/Src/usbh_mtp_ptp.c ****       break;
1372:./Libraries/STM32_USB_Host_Library/Class/MTP/Src/usbh_mtp_ptp.c **** 
1373:./Libraries/STM32_USB_Host_Library/Class/MTP/Src/usbh_mtp_ptp.c ****     case PTP_REQ_WAIT:
1374:./Libraries/STM32_USB_Host_Library/Class/MTP/Src/usbh_mtp_ptp.c ****       status = USBH_PTP_Process(phost);
 3678              		.loc 1 1374 7 is_stmt 1 view .LVU1315
 3679              		.loc 1 1374 16 is_stmt 0 view .LVU1316
 3680 001a FFF7FEFF 		bl	USBH_PTP_Process
 3681              	.LVL291:
1375:./Libraries/STM32_USB_Host_Library/Class/MTP/Src/usbh_mtp_ptp.c **** 
1376:./Libraries/STM32_USB_Host_Library/Class/MTP/Src/usbh_mtp_ptp.c ****       if (status == USBH_OK)
 3682              		.loc 1 1376 7 is_stmt 1 view .LVU1317
 3683              		.loc 1 1376 10 is_stmt 0 view .LVU1318
 3684 001e 0546     		mov	r5, r0
 3685 0020 0028     		cmp	r0, #0
 3686 0022 4FD0     		beq	.L198
 3687              	.LVL292:
1377:./Libraries/STM32_USB_Host_Library/Class/MTP/Src/usbh_mtp_ptp.c ****       {
1378:./Libraries/STM32_USB_Host_Library/Class/MTP/Src/usbh_mtp_ptp.c ****         objecthandles->n = PTP_GetArray32(objecthandles->Handler,
1379:./Libraries/STM32_USB_Host_Library/Class/MTP/Src/usbh_mtp_ptp.c ****                                           MTP_Handle->ptp.data_container.payload.data,
1380:./Libraries/STM32_USB_Host_Library/Class/MTP/Src/usbh_mtp_ptp.c ****                                           0U);
1381:./Libraries/STM32_USB_Host_Library/Class/MTP/Src/usbh_mtp_ptp.c ****       }
1382:./Libraries/STM32_USB_Host_Library/Class/MTP/Src/usbh_mtp_ptp.c ****       break;
1383:./Libraries/STM32_USB_Host_Library/Class/MTP/Src/usbh_mtp_ptp.c **** 
1384:./Libraries/STM32_USB_Host_Library/Class/MTP/Src/usbh_mtp_ptp.c ****     default:
1385:./Libraries/STM32_USB_Host_Library/Class/MTP/Src/usbh_mtp_ptp.c ****       break;
1386:./Libraries/STM32_USB_Host_Library/Class/MTP/Src/usbh_mtp_ptp.c ****   }
1387:./Libraries/STM32_USB_Host_Library/Class/MTP/Src/usbh_mtp_ptp.c ****   return status;
 3688              		.loc 1 1387 3 is_stmt 1 view .LVU1319
1388:./Libraries/STM32_USB_Host_Library/Class/MTP/Src/usbh_mtp_ptp.c **** }
 3689              		.loc 1 1388 1 is_stmt 0 view .LVU1320
 3690 0024 2846     		mov	r0, r5
 3691 0026 0AB0     		add	sp, sp, #40
 3692              	.LCFI78:
 3693              		.cfi_remember_state
 3694              		.cfi_def_cfa_offset 24
 3695              		@ sp needed
 3696 0028 BDE8F081 		pop	{r4, r5, r6, r7, r8, pc}
 3697              	.LVL293:
 3698              	.L197:
 3699              	.LCFI79:
 3700              		.cfi_restore_state
1336:./Libraries/STM32_USB_Host_Library/Class/MTP/Src/usbh_mtp_ptp.c ****   {
ARM GAS  /tmp/ccSE0mVF.s 			page 110


 3701              		.loc 1 1336 3 view .LVU1321
 3702 002c 0125     		movs	r5, #1
 3703              	.LVL294:
1387:./Libraries/STM32_USB_Host_Library/Class/MTP/Src/usbh_mtp_ptp.c **** }
 3704              		.loc 1 1387 3 is_stmt 1 view .LVU1322
 3705              		.loc 1 1388 1 is_stmt 0 view .LVU1323
 3706 002e 2846     		mov	r0, r5
 3707              	.LVL295:
 3708              		.loc 1 1388 1 view .LVU1324
 3709 0030 0AB0     		add	sp, sp, #40
 3710              	.LCFI80:
 3711              		.cfi_remember_state
 3712              		.cfi_def_cfa_offset 24
 3713              		@ sp needed
 3714 0032 BDE8F081 		pop	{r4, r5, r6, r7, r8, pc}
 3715              	.LVL296:
 3716              	.L193:
 3717              	.LCFI81:
 3718              		.cfi_restore_state
1340:./Libraries/STM32_USB_Host_Library/Class/MTP/Src/usbh_mtp_ptp.c ****       MTP_Handle->ptp.data_ptr = (uint8_t *)(void *) &(MTP_Handle->ptp.data_container);
 3719              		.loc 1 1340 7 is_stmt 1 view .LVU1325
1341:./Libraries/STM32_USB_Host_Library/Class/MTP/Src/usbh_mtp_ptp.c ****       MTP_Handle->ptp.data_length = 0U;
 3720              		.loc 1 1341 54 is_stmt 0 view .LVU1326
 3721 0036 41F68457 		movw	r7, #7556
1349:./Libraries/STM32_USB_Host_Library/Class/MTP/Src/usbh_mtp_ptp.c ****       ptp_container.Param1 = storage_id;
 3722              		.loc 1 1349 53 view .LVU1327
 3723 003a 42F2A41C 		movw	ip, #8612
1341:./Libraries/STM32_USB_Host_Library/Class/MTP/Src/usbh_mtp_ptp.c ****       MTP_Handle->ptp.data_length = 0U;
 3724              		.loc 1 1341 32 view .LVU1328
 3725 003e 42F2B018 		movw	r8, #8624
1348:./Libraries/STM32_USB_Host_Library/Class/MTP/Src/usbh_mtp_ptp.c ****       ptp_container.Transaction_ID = MTP_Handle->ptp.transaction_id++;
 3726              		.loc 1 1348 48 view .LVU1329
 3727 0042 42F2A81E 		movw	lr, #8616
1341:./Libraries/STM32_USB_Host_Library/Class/MTP/Src/usbh_mtp_ptp.c ****       MTP_Handle->ptp.data_length = 0U;
 3728              		.loc 1 1341 54 view .LVU1330
 3729 0046 2744     		add	r7, r7, r4
1350:./Libraries/STM32_USB_Host_Library/Class/MTP/Src/usbh_mtp_ptp.c ****       ptp_container.Param2 = objectformatcode;
 3730              		.loc 1 1350 28 view .LVU1331
 3731 0048 0491     		str	r1, [sp, #16]
1348:./Libraries/STM32_USB_Host_Library/Class/MTP/Src/usbh_mtp_ptp.c ****       ptp_container.Transaction_ID = MTP_Handle->ptp.transaction_id++;
 3732              		.loc 1 1348 31 view .LVU1332
 3733 004a 54F80EE0 		ldr	lr, [r4, lr]
 3734 004e 0646     		mov	r6, r0
1349:./Libraries/STM32_USB_Host_Library/Class/MTP/Src/usbh_mtp_ptp.c ****       ptp_container.Param1 = storage_id;
 3735              		.loc 1 1349 53 view .LVU1333
 3736 0050 54F80C10 		ldr	r1, [r4, ip]
 3737              	.LVL297:
1352:./Libraries/STM32_USB_Host_Library/Class/MTP/Src/usbh_mtp_ptp.c ****       ptp_container.Nparam = 3U;
 3738              		.loc 1 1352 28 view .LVU1334
 3739 0054 0693     		str	r3, [sp, #24]
1340:./Libraries/STM32_USB_Host_Library/Class/MTP/Src/usbh_mtp_ptp.c ****       MTP_Handle->ptp.data_ptr = (uint8_t *)(void *) &(MTP_Handle->ptp.data_container);
 3740              		.loc 1 1340 29 view .LVU1335
 3741 0056 0223     		movs	r3, #2
 3742              	.LVL298:
1341:./Libraries/STM32_USB_Host_Library/Class/MTP/Src/usbh_mtp_ptp.c ****       MTP_Handle->ptp.data_length = 0U;
 3743              		.loc 1 1341 32 view .LVU1336
 3744 0058 44F80870 		str	r7, [r4, r8]
ARM GAS  /tmp/ccSE0mVF.s 			page 111


1340:./Libraries/STM32_USB_Host_Library/Class/MTP/Src/usbh_mtp_ptp.c ****       MTP_Handle->ptp.data_ptr = (uint8_t *)(void *) &(MTP_Handle->ptp.data_container);
 3745              		.loc 1 1340 29 view .LVU1337
 3746 005c 42F2AC17 		movw	r7, #8620
1351:./Libraries/STM32_USB_Host_Library/Class/MTP/Src/usbh_mtp_ptp.c ****       ptp_container.Param3 = associationOH;
 3747              		.loc 1 1351 28 view .LVU1338
 3748 0060 0592     		str	r2, [sp, #20]
1342:./Libraries/STM32_USB_Host_Library/Class/MTP/Src/usbh_mtp_ptp.c ****       MTP_Handle->ptp.data_packet_counter = 0U;
 3749              		.loc 1 1342 35 view .LVU1339
 3750 0062 42F2B412 		movw	r2, #8628
 3751              	.LVL299:
1340:./Libraries/STM32_USB_Host_Library/Class/MTP/Src/usbh_mtp_ptp.c ****       MTP_Handle->ptp.data_ptr = (uint8_t *)(void *) &(MTP_Handle->ptp.data_container);
 3752              		.loc 1 1340 29 view .LVU1340
 3753 0066 E351     		str	r3, [r4, r7]
1341:./Libraries/STM32_USB_Host_Library/Class/MTP/Src/usbh_mtp_ptp.c ****       MTP_Handle->ptp.data_length = 0U;
 3754              		.loc 1 1341 7 is_stmt 1 view .LVU1341
1342:./Libraries/STM32_USB_Host_Library/Class/MTP/Src/usbh_mtp_ptp.c ****       MTP_Handle->ptp.data_packet_counter = 0U;
 3755              		.loc 1 1342 7 view .LVU1342
1342:./Libraries/STM32_USB_Host_Library/Class/MTP/Src/usbh_mtp_ptp.c ****       MTP_Handle->ptp.data_packet_counter = 0U;
 3756              		.loc 1 1342 35 is_stmt 0 view .LVU1343
 3757 0068 0027     		movs	r7, #0
1343:./Libraries/STM32_USB_Host_Library/Class/MTP/Src/usbh_mtp_ptp.c ****       MTP_Handle->ptp.data_packet = 0U;
 3758              		.loc 1 1343 43 view .LVU1344
 3759 006a 04F50753 		add	r3, r4, #8640
1349:./Libraries/STM32_USB_Host_Library/Class/MTP/Src/usbh_mtp_ptp.c ****       ptp_container.Param1 = storage_id;
 3760              		.loc 1 1349 68 view .LVU1345
 3761 006e 01F10108 		add	r8, r1, #1
1348:./Libraries/STM32_USB_Host_Library/Class/MTP/Src/usbh_mtp_ptp.c ****       ptp_container.Transaction_ID = MTP_Handle->ptp.transaction_id++;
 3762              		.loc 1 1348 31 view .LVU1346
 3763 0072 CDF808E0 		str	lr, [sp, #8]
1344:./Libraries/STM32_USB_Host_Library/Class/MTP/Src/usbh_mtp_ptp.c **** 
 3764              		.loc 1 1344 35 view .LVU1347
 3765 0076 42F2B81E 		movw	lr, #8632
1342:./Libraries/STM32_USB_Host_Library/Class/MTP/Src/usbh_mtp_ptp.c ****       MTP_Handle->ptp.data_packet_counter = 0U;
 3766              		.loc 1 1342 35 view .LVU1348
 3767 007a A750     		str	r7, [r4, r2]
1343:./Libraries/STM32_USB_Host_Library/Class/MTP/Src/usbh_mtp_ptp.c ****       MTP_Handle->ptp.data_packet = 0U;
 3768              		.loc 1 1343 7 is_stmt 1 view .LVU1349
1347:./Libraries/STM32_USB_Host_Library/Class/MTP/Src/usbh_mtp_ptp.c ****       ptp_container.SessionID = MTP_Handle->ptp.session_id;
 3769              		.loc 1 1347 26 is_stmt 0 view .LVU1350
 3770 007c 41F20702 		movw	r2, #4103
1343:./Libraries/STM32_USB_Host_Library/Class/MTP/Src/usbh_mtp_ptp.c ****       MTP_Handle->ptp.data_packet = 0U;
 3771              		.loc 1 1343 43 view .LVU1351
 3772 0080 1F60     		str	r7, [r3]
1344:./Libraries/STM32_USB_Host_Library/Class/MTP/Src/usbh_mtp_ptp.c **** 
 3773              		.loc 1 1344 7 is_stmt 1 view .LVU1352
1353:./Libraries/STM32_USB_Host_Library/Class/MTP/Src/usbh_mtp_ptp.c **** 
 3774              		.loc 1 1353 28 is_stmt 0 view .LVU1353
 3775 0082 0323     		movs	r3, #3
1349:./Libraries/STM32_USB_Host_Library/Class/MTP/Src/usbh_mtp_ptp.c ****       ptp_container.Param1 = storage_id;
 3776              		.loc 1 1349 68 view .LVU1354
 3777 0084 44F80C80 		str	r8, [r4, ip]
1349:./Libraries/STM32_USB_Host_Library/Class/MTP/Src/usbh_mtp_ptp.c ****       ptp_container.Param1 = storage_id;
 3778              		.loc 1 1349 36 view .LVU1355
 3779 0088 0391     		str	r1, [sp, #12]
1356:./Libraries/STM32_USB_Host_Library/Class/MTP/Src/usbh_mtp_ptp.c **** 
 3780              		.loc 1 1356 7 view .LVU1356
 3781 008a 01A9     		add	r1, sp, #4
ARM GAS  /tmp/ccSE0mVF.s 			page 112


1344:./Libraries/STM32_USB_Host_Library/Class/MTP/Src/usbh_mtp_ptp.c **** 
 3782              		.loc 1 1344 35 view .LVU1357
 3783 008c 44F80E70 		str	r7, [r4, lr]
1347:./Libraries/STM32_USB_Host_Library/Class/MTP/Src/usbh_mtp_ptp.c ****       ptp_container.SessionID = MTP_Handle->ptp.session_id;
 3784              		.loc 1 1347 7 is_stmt 1 view .LVU1358
1347:./Libraries/STM32_USB_Host_Library/Class/MTP/Src/usbh_mtp_ptp.c ****       ptp_container.SessionID = MTP_Handle->ptp.session_id;
 3785              		.loc 1 1347 26 is_stmt 0 view .LVU1359
 3786 0090 ADF80420 		strh	r2, [sp, #4]	@ movhi
1348:./Libraries/STM32_USB_Host_Library/Class/MTP/Src/usbh_mtp_ptp.c ****       ptp_container.Transaction_ID = MTP_Handle->ptp.transaction_id++;
 3787              		.loc 1 1348 7 is_stmt 1 view .LVU1360
1349:./Libraries/STM32_USB_Host_Library/Class/MTP/Src/usbh_mtp_ptp.c ****       ptp_container.Param1 = storage_id;
 3788              		.loc 1 1349 7 view .LVU1361
1350:./Libraries/STM32_USB_Host_Library/Class/MTP/Src/usbh_mtp_ptp.c ****       ptp_container.Param2 = objectformatcode;
 3789              		.loc 1 1350 7 view .LVU1362
1351:./Libraries/STM32_USB_Host_Library/Class/MTP/Src/usbh_mtp_ptp.c ****       ptp_container.Param3 = associationOH;
 3790              		.loc 1 1351 7 view .LVU1363
1352:./Libraries/STM32_USB_Host_Library/Class/MTP/Src/usbh_mtp_ptp.c ****       ptp_container.Nparam = 3U;
 3791              		.loc 1 1352 7 view .LVU1364
1353:./Libraries/STM32_USB_Host_Library/Class/MTP/Src/usbh_mtp_ptp.c **** 
 3792              		.loc 1 1353 7 view .LVU1365
1353:./Libraries/STM32_USB_Host_Library/Class/MTP/Src/usbh_mtp_ptp.c **** 
 3793              		.loc 1 1353 28 is_stmt 0 view .LVU1366
 3794 0094 8DF82430 		strb	r3, [sp, #36]
1356:./Libraries/STM32_USB_Host_Library/Class/MTP/Src/usbh_mtp_ptp.c **** 
 3795              		.loc 1 1356 7 is_stmt 1 view .LVU1367
 3796 0098 FFF7FEFF 		bl	USBH_PTP_SendRequest
 3797              	.LVL300:
1359:./Libraries/STM32_USB_Host_Library/Class/MTP/Src/usbh_mtp_ptp.c ****       MTP_Handle->ptp.req_state = PTP_REQ_WAIT;
 3798              		.loc 1 1359 7 view .LVU1368
1360:./Libraries/STM32_USB_Host_Library/Class/MTP/Src/usbh_mtp_ptp.c ****       status = USBH_BUSY;
 3799              		.loc 1 1360 7 view .LVU1369
1359:./Libraries/STM32_USB_Host_Library/Class/MTP/Src/usbh_mtp_ptp.c ****       MTP_Handle->ptp.req_state = PTP_REQ_WAIT;
 3800              		.loc 1 1359 29 is_stmt 0 view .LVU1370
 3801 009c 04F5EB52 		add	r2, r4, #7520
 3802 00a0 40F20121 		movw	r1, #513
1364:./Libraries/STM32_USB_Host_Library/Class/MTP/Src/usbh_mtp_ptp.c **** #if (osCMSIS < 0x20000U)
 3803              		.loc 1 1364 21 view .LVU1371
 3804 00a4 0524     		movs	r4, #5
 3805              	.LVL301:
1368:./Libraries/STM32_USB_Host_Library/Class/MTP/Src/usbh_mtp_ptp.c **** #endif
 3806              		.loc 1 1368 13 view .LVU1372
 3807 00a6 3B46     		mov	r3, r7
1359:./Libraries/STM32_USB_Host_Library/Class/MTP/Src/usbh_mtp_ptp.c ****       MTP_Handle->ptp.req_state = PTP_REQ_WAIT;
 3808              		.loc 1 1359 29 view .LVU1373
 3809 00a8 1180     		strh	r1, [r2]	@ movhi
1361:./Libraries/STM32_USB_Host_Library/Class/MTP/Src/usbh_mtp_ptp.c **** 
 3810              		.loc 1 1361 7 is_stmt 1 view .LVU1374
1364:./Libraries/STM32_USB_Host_Library/Class/MTP/Src/usbh_mtp_ptp.c **** #if (osCMSIS < 0x20000U)
 3811              		.loc 1 1364 7 view .LVU1375
1368:./Libraries/STM32_USB_Host_Library/Class/MTP/Src/usbh_mtp_ptp.c **** #endif
 3812              		.loc 1 1368 13 is_stmt 0 view .LVU1376
 3813 00aa 3A46     		mov	r2, r7
 3814              	.LVL302:
1368:./Libraries/STM32_USB_Host_Library/Class/MTP/Src/usbh_mtp_ptp.c **** #endif
 3815              		.loc 1 1368 13 view .LVU1377
 3816 00ac D6F8D804 		ldr	r0, [r6, #1240]
 3817 00b0 06F59C61 		add	r1, r6, #1248
ARM GAS  /tmp/ccSE0mVF.s 			page 113


1364:./Libraries/STM32_USB_Host_Library/Class/MTP/Src/usbh_mtp_ptp.c **** #if (osCMSIS < 0x20000U)
 3818              		.loc 1 1364 21 view .LVU1378
 3819 00b4 C6F8E044 		str	r4, [r6, #1248]
1368:./Libraries/STM32_USB_Host_Library/Class/MTP/Src/usbh_mtp_ptp.c **** #endif
 3820              		.loc 1 1368 7 is_stmt 1 view .LVU1379
1368:./Libraries/STM32_USB_Host_Library/Class/MTP/Src/usbh_mtp_ptp.c **** #endif
 3821              		.loc 1 1368 13 is_stmt 0 view .LVU1380
 3822 00b8 FFF7FEFF 		bl	osMessageQueuePut
 3823              	.LVL303:
1371:./Libraries/STM32_USB_Host_Library/Class/MTP/Src/usbh_mtp_ptp.c **** 
 3824              		.loc 1 1371 7 is_stmt 1 view .LVU1381
1387:./Libraries/STM32_USB_Host_Library/Class/MTP/Src/usbh_mtp_ptp.c **** }
 3825              		.loc 1 1387 3 view .LVU1382
 3826              		.loc 1 1388 1 is_stmt 0 view .LVU1383
 3827 00bc 2846     		mov	r0, r5
 3828 00be 0AB0     		add	sp, sp, #40
 3829              	.LCFI82:
 3830              		.cfi_remember_state
 3831              		.cfi_def_cfa_offset 24
 3832              		@ sp needed
 3833 00c0 BDE8F081 		pop	{r4, r5, r6, r7, r8, pc}
 3834              	.LVL304:
 3835              	.L198:
 3836              	.LCFI83:
 3837              		.cfi_restore_state
1378:./Libraries/STM32_USB_Host_Library/Class/MTP/Src/usbh_mtp_ptp.c ****                                           MTP_Handle->ptp.data_container.payload.data,
 3838              		.loc 1 1378 9 is_stmt 1 view .LVU1384
1378:./Libraries/STM32_USB_Host_Library/Class/MTP/Src/usbh_mtp_ptp.c ****                                           MTP_Handle->ptp.data_container.payload.data,
 3839              		.loc 1 1378 28 is_stmt 0 view .LVU1385
 3840 00c4 109B     		ldr	r3, [sp, #64]
 3841 00c6 41F69051 		movw	r1, #7568
 3842 00ca 181D     		adds	r0, r3, #4
 3843              	.LVL305:
1378:./Libraries/STM32_USB_Host_Library/Class/MTP/Src/usbh_mtp_ptp.c ****                                           MTP_Handle->ptp.data_container.payload.data,
 3844              		.loc 1 1378 28 view .LVU1386
 3845 00cc 2144     		add	r1, r1, r4
 3846 00ce FFF7FEFF 		bl	PTP_GetArray32.constprop.0
 3847              	.LVL306:
1378:./Libraries/STM32_USB_Host_Library/Class/MTP/Src/usbh_mtp_ptp.c ****                                           MTP_Handle->ptp.data_container.payload.data,
 3848              		.loc 1 1378 26 view .LVU1387
 3849 00d2 109B     		ldr	r3, [sp, #64]
 3850 00d4 1860     		str	r0, [r3]
 3851              	.LVL307:
1387:./Libraries/STM32_USB_Host_Library/Class/MTP/Src/usbh_mtp_ptp.c **** }
 3852              		.loc 1 1387 3 is_stmt 1 view .LVU1388
 3853              		.loc 1 1388 1 is_stmt 0 view .LVU1389
 3854 00d6 2846     		mov	r0, r5
 3855 00d8 0AB0     		add	sp, sp, #40
 3856              	.LCFI84:
 3857              		.cfi_def_cfa_offset 24
 3858              		@ sp needed
 3859 00da BDE8F081 		pop	{r4, r5, r6, r7, r8, pc}
 3860              		.loc 1 1388 1 view .LVU1390
 3861              		.cfi_endproc
 3862              	.LFE359:
 3864 00de 00BF     		.section	.text.USBH_PTP_GetObjectInfo,"ax",%progbits
 3865              		.align	1
ARM GAS  /tmp/ccSE0mVF.s 			page 114


 3866              		.p2align 2,,3
 3867              		.global	USBH_PTP_GetObjectInfo
 3868              		.syntax unified
 3869              		.thumb
 3870              		.thumb_func
 3871              		.fpu fpv5-d16
 3873              	USBH_PTP_GetObjectInfo:
 3874              	.LVL308:
 3875              	.LFB360:
1389:./Libraries/STM32_USB_Host_Library/Class/MTP/Src/usbh_mtp_ptp.c **** 
1390:./Libraries/STM32_USB_Host_Library/Class/MTP/Src/usbh_mtp_ptp.c **** /**
1391:./Libraries/STM32_USB_Host_Library/Class/MTP/Src/usbh_mtp_ptp.c ****   * @brief  USBH_PTP_GetObjectInfo
1392:./Libraries/STM32_USB_Host_Library/Class/MTP/Src/usbh_mtp_ptp.c ****   *         Gets objert info
1393:./Libraries/STM32_USB_Host_Library/Class/MTP/Src/usbh_mtp_ptp.c ****   * @param  phost: Host handle
1394:./Libraries/STM32_USB_Host_Library/Class/MTP/Src/usbh_mtp_ptp.c ****   * @param  dev_info: Device info structure
1395:./Libraries/STM32_USB_Host_Library/Class/MTP/Src/usbh_mtp_ptp.c ****   * @retval USBH Status
1396:./Libraries/STM32_USB_Host_Library/Class/MTP/Src/usbh_mtp_ptp.c ****   */
1397:./Libraries/STM32_USB_Host_Library/Class/MTP/Src/usbh_mtp_ptp.c **** USBH_StatusTypeDef USBH_PTP_GetObjectInfo(USBH_HandleTypeDef *phost,
1398:./Libraries/STM32_USB_Host_Library/Class/MTP/Src/usbh_mtp_ptp.c ****                                           uint32_t handle,
1399:./Libraries/STM32_USB_Host_Library/Class/MTP/Src/usbh_mtp_ptp.c ****                                           PTP_ObjectInfoTypedef *object_info)
1400:./Libraries/STM32_USB_Host_Library/Class/MTP/Src/usbh_mtp_ptp.c **** {
 3876              		.loc 1 1400 1 is_stmt 1 view -0
 3877              		.cfi_startproc
 3878              		@ args = 0, pretend = 0, frame = 40
 3879              		@ frame_needed = 0, uses_anonymous_args = 0
1401:./Libraries/STM32_USB_Host_Library/Class/MTP/Src/usbh_mtp_ptp.c ****   USBH_StatusTypeDef   status = USBH_BUSY;
 3880              		.loc 1 1401 3 view .LVU1392
1402:./Libraries/STM32_USB_Host_Library/Class/MTP/Src/usbh_mtp_ptp.c ****   MTP_HandleTypeDef    *MTP_Handle = (MTP_HandleTypeDef *)phost->pActiveClass->pData;
 3881              		.loc 1 1402 3 view .LVU1393
1400:./Libraries/STM32_USB_Host_Library/Class/MTP/Src/usbh_mtp_ptp.c ****   USBH_StatusTypeDef   status = USBH_BUSY;
 3882              		.loc 1 1400 1 is_stmt 0 view .LVU1394
 3883 0000 2DE9F041 		push	{r4, r5, r6, r7, r8, lr}
 3884              	.LCFI85:
 3885              		.cfi_def_cfa_offset 24
 3886              		.cfi_offset 4, -24
 3887              		.cfi_offset 5, -20
 3888              		.cfi_offset 6, -16
 3889              		.cfi_offset 7, -12
 3890              		.cfi_offset 8, -8
 3891              		.cfi_offset 14, -4
 3892 0004 1646     		mov	r6, r2
 3893              		.loc 1 1402 25 view .LVU1395
 3894 0006 D0F87C24 		ldr	r2, [r0, #1148]
 3895              	.LVL309:
1403:./Libraries/STM32_USB_Host_Library/Class/MTP/Src/usbh_mtp_ptp.c ****   PTP_ContainerTypedef  ptp_container;
1404:./Libraries/STM32_USB_Host_Library/Class/MTP/Src/usbh_mtp_ptp.c **** 
1405:./Libraries/STM32_USB_Host_Library/Class/MTP/Src/usbh_mtp_ptp.c ****   switch (MTP_Handle->ptp.req_state)
 3896              		.loc 1 1405 26 view .LVU1396
 3897 000a 41F66153 		movw	r3, #7521
1400:./Libraries/STM32_USB_Host_Library/Class/MTP/Src/usbh_mtp_ptp.c ****   USBH_StatusTypeDef   status = USBH_BUSY;
 3898              		.loc 1 1400 1 view .LVU1397
 3899 000e 8AB0     		sub	sp, sp, #40
 3900              	.LCFI86:
 3901              		.cfi_def_cfa_offset 64
1402:./Libraries/STM32_USB_Host_Library/Class/MTP/Src/usbh_mtp_ptp.c ****   PTP_ContainerTypedef  ptp_container;
 3902              		.loc 1 1402 25 view .LVU1398
 3903 0010 D569     		ldr	r5, [r2, #28]
ARM GAS  /tmp/ccSE0mVF.s 			page 115


 3904              	.LVL310:
1403:./Libraries/STM32_USB_Host_Library/Class/MTP/Src/usbh_mtp_ptp.c ****   PTP_ContainerTypedef  ptp_container;
 3905              		.loc 1 1403 3 is_stmt 1 view .LVU1399
 3906              		.loc 1 1405 3 view .LVU1400
1400:./Libraries/STM32_USB_Host_Library/Class/MTP/Src/usbh_mtp_ptp.c ****   USBH_StatusTypeDef   status = USBH_BUSY;
 3907              		.loc 1 1400 1 is_stmt 0 view .LVU1401
 3908 0012 0746     		mov	r7, r0
 3909              		.loc 1 1405 26 view .LVU1402
 3910 0014 EC5C     		ldrb	r4, [r5, r3]	@ zero_extendqisi2
 3911              		.loc 1 1405 3 view .LVU1403
 3912 0016 012C     		cmp	r4, #1
 3913 0018 0FD0     		beq	.L200
 3914 001a 022C     		cmp	r4, #2
 3915 001c 08D1     		bne	.L213
1406:./Libraries/STM32_USB_Host_Library/Class/MTP/Src/usbh_mtp_ptp.c ****   {
1407:./Libraries/STM32_USB_Host_Library/Class/MTP/Src/usbh_mtp_ptp.c ****     case PTP_REQ_SEND:
1408:./Libraries/STM32_USB_Host_Library/Class/MTP/Src/usbh_mtp_ptp.c ****       /* Set operation request type */
1409:./Libraries/STM32_USB_Host_Library/Class/MTP/Src/usbh_mtp_ptp.c ****       MTP_Handle->ptp.flags = PTP_DP_GETDATA;
1410:./Libraries/STM32_USB_Host_Library/Class/MTP/Src/usbh_mtp_ptp.c ****       MTP_Handle->ptp.data_ptr = (uint8_t *)(void *) &(MTP_Handle->ptp.data_container);
1411:./Libraries/STM32_USB_Host_Library/Class/MTP/Src/usbh_mtp_ptp.c ****       MTP_Handle->ptp.data_length = 0U;
1412:./Libraries/STM32_USB_Host_Library/Class/MTP/Src/usbh_mtp_ptp.c ****       MTP_Handle->ptp.data_packet_counter = 0U;
1413:./Libraries/STM32_USB_Host_Library/Class/MTP/Src/usbh_mtp_ptp.c ****       MTP_Handle->ptp.data_packet = 0U;
1414:./Libraries/STM32_USB_Host_Library/Class/MTP/Src/usbh_mtp_ptp.c **** 
1415:./Libraries/STM32_USB_Host_Library/Class/MTP/Src/usbh_mtp_ptp.c ****       /* Fill operation request params */
1416:./Libraries/STM32_USB_Host_Library/Class/MTP/Src/usbh_mtp_ptp.c ****       ptp_container.Code = PTP_OC_GetObjectInfo;
1417:./Libraries/STM32_USB_Host_Library/Class/MTP/Src/usbh_mtp_ptp.c ****       ptp_container.SessionID = MTP_Handle->ptp.session_id;
1418:./Libraries/STM32_USB_Host_Library/Class/MTP/Src/usbh_mtp_ptp.c ****       ptp_container.Transaction_ID = MTP_Handle->ptp.transaction_id++;
1419:./Libraries/STM32_USB_Host_Library/Class/MTP/Src/usbh_mtp_ptp.c ****       ptp_container.Param1 = handle;
1420:./Libraries/STM32_USB_Host_Library/Class/MTP/Src/usbh_mtp_ptp.c ****       ptp_container.Nparam = 1U;
1421:./Libraries/STM32_USB_Host_Library/Class/MTP/Src/usbh_mtp_ptp.c **** 
1422:./Libraries/STM32_USB_Host_Library/Class/MTP/Src/usbh_mtp_ptp.c ****       /* convert request packet into USB raw packet*/
1423:./Libraries/STM32_USB_Host_Library/Class/MTP/Src/usbh_mtp_ptp.c ****       USBH_PTP_SendRequest(phost, &ptp_container);
1424:./Libraries/STM32_USB_Host_Library/Class/MTP/Src/usbh_mtp_ptp.c **** 
1425:./Libraries/STM32_USB_Host_Library/Class/MTP/Src/usbh_mtp_ptp.c ****       /* Setup State machine and start transfer */
1426:./Libraries/STM32_USB_Host_Library/Class/MTP/Src/usbh_mtp_ptp.c ****       MTP_Handle->ptp.state = PTP_OP_REQUEST_STATE;
1427:./Libraries/STM32_USB_Host_Library/Class/MTP/Src/usbh_mtp_ptp.c ****       MTP_Handle->ptp.req_state = PTP_REQ_WAIT;
1428:./Libraries/STM32_USB_Host_Library/Class/MTP/Src/usbh_mtp_ptp.c ****       status = USBH_BUSY;
1429:./Libraries/STM32_USB_Host_Library/Class/MTP/Src/usbh_mtp_ptp.c **** 
1430:./Libraries/STM32_USB_Host_Library/Class/MTP/Src/usbh_mtp_ptp.c **** #if (USBH_USE_OS == 1U)
1431:./Libraries/STM32_USB_Host_Library/Class/MTP/Src/usbh_mtp_ptp.c ****       phost->os_msg = (uint32_t)USBH_STATE_CHANGED_EVENT;
1432:./Libraries/STM32_USB_Host_Library/Class/MTP/Src/usbh_mtp_ptp.c **** #if (osCMSIS < 0x20000U)
1433:./Libraries/STM32_USB_Host_Library/Class/MTP/Src/usbh_mtp_ptp.c ****       (void)osMessagePut(phost->os_event, phost->os_msg, 0U);
1434:./Libraries/STM32_USB_Host_Library/Class/MTP/Src/usbh_mtp_ptp.c **** #else
1435:./Libraries/STM32_USB_Host_Library/Class/MTP/Src/usbh_mtp_ptp.c ****       (void)osMessageQueuePut(phost->os_event, &phost->os_msg, 0U, NULL);
1436:./Libraries/STM32_USB_Host_Library/Class/MTP/Src/usbh_mtp_ptp.c **** #endif
1437:./Libraries/STM32_USB_Host_Library/Class/MTP/Src/usbh_mtp_ptp.c **** #endif
1438:./Libraries/STM32_USB_Host_Library/Class/MTP/Src/usbh_mtp_ptp.c ****       break;
1439:./Libraries/STM32_USB_Host_Library/Class/MTP/Src/usbh_mtp_ptp.c **** 
1440:./Libraries/STM32_USB_Host_Library/Class/MTP/Src/usbh_mtp_ptp.c ****     case PTP_REQ_WAIT:
1441:./Libraries/STM32_USB_Host_Library/Class/MTP/Src/usbh_mtp_ptp.c ****       status = USBH_PTP_Process(phost);
 3916              		.loc 1 1441 7 is_stmt 1 view .LVU1404
 3917              		.loc 1 1441 16 is_stmt 0 view .LVU1405
 3918 001e FFF7FEFF 		bl	USBH_PTP_Process
 3919              	.LVL311:
1442:./Libraries/STM32_USB_Host_Library/Class/MTP/Src/usbh_mtp_ptp.c **** 
1443:./Libraries/STM32_USB_Host_Library/Class/MTP/Src/usbh_mtp_ptp.c ****       if (status == USBH_OK)
 3920              		.loc 1 1443 7 is_stmt 1 view .LVU1406
ARM GAS  /tmp/ccSE0mVF.s 			page 116


 3921              		.loc 1 1443 10 is_stmt 0 view .LVU1407
 3922 0022 0446     		mov	r4, r0
 3923 0024 0028     		cmp	r0, #0
 3924 0026 4DD0     		beq	.L214
 3925              	.LVL312:
1444:./Libraries/STM32_USB_Host_Library/Class/MTP/Src/usbh_mtp_ptp.c ****       {
1445:./Libraries/STM32_USB_Host_Library/Class/MTP/Src/usbh_mtp_ptp.c ****         PTP_GetObjectInfo(phost, object_info);
1446:./Libraries/STM32_USB_Host_Library/Class/MTP/Src/usbh_mtp_ptp.c ****       }
1447:./Libraries/STM32_USB_Host_Library/Class/MTP/Src/usbh_mtp_ptp.c ****       break;
1448:./Libraries/STM32_USB_Host_Library/Class/MTP/Src/usbh_mtp_ptp.c **** 
1449:./Libraries/STM32_USB_Host_Library/Class/MTP/Src/usbh_mtp_ptp.c ****     default:
1450:./Libraries/STM32_USB_Host_Library/Class/MTP/Src/usbh_mtp_ptp.c ****       break;
1451:./Libraries/STM32_USB_Host_Library/Class/MTP/Src/usbh_mtp_ptp.c ****   }
1452:./Libraries/STM32_USB_Host_Library/Class/MTP/Src/usbh_mtp_ptp.c ****   return status;
 3926              		.loc 1 1452 3 is_stmt 1 view .LVU1408
1453:./Libraries/STM32_USB_Host_Library/Class/MTP/Src/usbh_mtp_ptp.c **** }
 3927              		.loc 1 1453 1 is_stmt 0 view .LVU1409
 3928 0028 2046     		mov	r0, r4
 3929 002a 0AB0     		add	sp, sp, #40
 3930              	.LCFI87:
 3931              		.cfi_remember_state
 3932              		.cfi_def_cfa_offset 24
 3933              		@ sp needed
 3934 002c BDE8F081 		pop	{r4, r5, r6, r7, r8, pc}
 3935              	.LVL313:
 3936              	.L213:
 3937              	.LCFI88:
 3938              		.cfi_restore_state
1405:./Libraries/STM32_USB_Host_Library/Class/MTP/Src/usbh_mtp_ptp.c ****   {
 3939              		.loc 1 1405 3 view .LVU1410
 3940 0030 0124     		movs	r4, #1
 3941              	.LVL314:
1452:./Libraries/STM32_USB_Host_Library/Class/MTP/Src/usbh_mtp_ptp.c **** }
 3942              		.loc 1 1452 3 is_stmt 1 view .LVU1411
 3943              		.loc 1 1453 1 is_stmt 0 view .LVU1412
 3944 0032 2046     		mov	r0, r4
 3945              	.LVL315:
 3946              		.loc 1 1453 1 view .LVU1413
 3947 0034 0AB0     		add	sp, sp, #40
 3948              	.LCFI89:
 3949              		.cfi_remember_state
 3950              		.cfi_def_cfa_offset 24
 3951              		@ sp needed
 3952 0036 BDE8F081 		pop	{r4, r5, r6, r7, r8, pc}
 3953              	.LVL316:
 3954              	.L200:
 3955              	.LCFI90:
 3956              		.cfi_restore_state
1409:./Libraries/STM32_USB_Host_Library/Class/MTP/Src/usbh_mtp_ptp.c ****       MTP_Handle->ptp.data_ptr = (uint8_t *)(void *) &(MTP_Handle->ptp.data_container);
 3957              		.loc 1 1409 7 is_stmt 1 view .LVU1414
1410:./Libraries/STM32_USB_Host_Library/Class/MTP/Src/usbh_mtp_ptp.c ****       MTP_Handle->ptp.data_length = 0U;
 3958              		.loc 1 1410 54 is_stmt 0 view .LVU1415
 3959 003a 41F68453 		movw	r3, #7556
1418:./Libraries/STM32_USB_Host_Library/Class/MTP/Src/usbh_mtp_ptp.c ****       ptp_container.Param1 = handle;
 3960              		.loc 1 1418 53 view .LVU1416
 3961 003e 42F2A412 		movw	r2, #8612
1410:./Libraries/STM32_USB_Host_Library/Class/MTP/Src/usbh_mtp_ptp.c ****       MTP_Handle->ptp.data_length = 0U;
ARM GAS  /tmp/ccSE0mVF.s 			page 117


 3962              		.loc 1 1410 32 view .LVU1417
 3963 0042 42F2B01E 		movw	lr, #8624
1417:./Libraries/STM32_USB_Host_Library/Class/MTP/Src/usbh_mtp_ptp.c ****       ptp_container.Transaction_ID = MTP_Handle->ptp.transaction_id++;
 3964              		.loc 1 1417 48 view .LVU1418
 3965 0046 42F2A81C 		movw	ip, #8616
1410:./Libraries/STM32_USB_Host_Library/Class/MTP/Src/usbh_mtp_ptp.c ****       MTP_Handle->ptp.data_length = 0U;
 3966              		.loc 1 1410 54 view .LVU1419
 3967 004a 2B44     		add	r3, r3, r5
1418:./Libraries/STM32_USB_Host_Library/Class/MTP/Src/usbh_mtp_ptp.c ****       ptp_container.Param1 = handle;
 3968              		.loc 1 1418 53 view .LVU1420
 3969 004c AE58     		ldr	r6, [r5, r2]
 3970              	.LVL317:
1417:./Libraries/STM32_USB_Host_Library/Class/MTP/Src/usbh_mtp_ptp.c ****       ptp_container.Transaction_ID = MTP_Handle->ptp.transaction_id++;
 3971              		.loc 1 1417 31 view .LVU1421
 3972 004e 55F80CC0 		ldr	ip, [r5, ip]
1409:./Libraries/STM32_USB_Host_Library/Class/MTP/Src/usbh_mtp_ptp.c ****       MTP_Handle->ptp.data_ptr = (uint8_t *)(void *) &(MTP_Handle->ptp.data_container);
 3973              		.loc 1 1409 29 view .LVU1422
 3974 0052 4FF00208 		mov	r8, #2
1410:./Libraries/STM32_USB_Host_Library/Class/MTP/Src/usbh_mtp_ptp.c ****       MTP_Handle->ptp.data_length = 0U;
 3975              		.loc 1 1410 32 view .LVU1423
 3976 0056 45F80E30 		str	r3, [r5, lr]
1409:./Libraries/STM32_USB_Host_Library/Class/MTP/Src/usbh_mtp_ptp.c ****       MTP_Handle->ptp.data_ptr = (uint8_t *)(void *) &(MTP_Handle->ptp.data_container);
 3977              		.loc 1 1409 29 view .LVU1424
 3978 005a 42F2AC13 		movw	r3, #8620
1418:./Libraries/STM32_USB_Host_Library/Class/MTP/Src/usbh_mtp_ptp.c ****       ptp_container.Param1 = handle;
 3979              		.loc 1 1418 68 view .LVU1425
 3980 005e 06F1010E 		add	lr, r6, #1
1419:./Libraries/STM32_USB_Host_Library/Class/MTP/Src/usbh_mtp_ptp.c ****       ptp_container.Nparam = 1U;
 3981              		.loc 1 1419 28 view .LVU1426
 3982 0062 0491     		str	r1, [sp, #16]
1409:./Libraries/STM32_USB_Host_Library/Class/MTP/Src/usbh_mtp_ptp.c ****       MTP_Handle->ptp.data_ptr = (uint8_t *)(void *) &(MTP_Handle->ptp.data_container);
 3983              		.loc 1 1409 29 view .LVU1427
 3984 0064 45F80380 		str	r8, [r5, r3]
1410:./Libraries/STM32_USB_Host_Library/Class/MTP/Src/usbh_mtp_ptp.c ****       MTP_Handle->ptp.data_length = 0U;
 3985              		.loc 1 1410 7 is_stmt 1 view .LVU1428
1411:./Libraries/STM32_USB_Host_Library/Class/MTP/Src/usbh_mtp_ptp.c ****       MTP_Handle->ptp.data_packet_counter = 0U;
 3986              		.loc 1 1411 7 view .LVU1429
1411:./Libraries/STM32_USB_Host_Library/Class/MTP/Src/usbh_mtp_ptp.c ****       MTP_Handle->ptp.data_packet_counter = 0U;
 3987              		.loc 1 1411 35 is_stmt 0 view .LVU1430
 3988 0068 42F2B411 		movw	r1, #8628
 3989              	.LVL318:
1412:./Libraries/STM32_USB_Host_Library/Class/MTP/Src/usbh_mtp_ptp.c ****       MTP_Handle->ptp.data_packet = 0U;
 3990              		.loc 1 1412 43 view .LVU1431
 3991 006c 05F50753 		add	r3, r5, #8640
1418:./Libraries/STM32_USB_Host_Library/Class/MTP/Src/usbh_mtp_ptp.c ****       ptp_container.Param1 = handle;
 3992              		.loc 1 1418 36 view .LVU1432
 3993 0070 0396     		str	r6, [sp, #12]
1411:./Libraries/STM32_USB_Host_Library/Class/MTP/Src/usbh_mtp_ptp.c ****       MTP_Handle->ptp.data_packet_counter = 0U;
 3994              		.loc 1 1411 35 view .LVU1433
 3995 0072 0026     		movs	r6, #0
1417:./Libraries/STM32_USB_Host_Library/Class/MTP/Src/usbh_mtp_ptp.c ****       ptp_container.Transaction_ID = MTP_Handle->ptp.transaction_id++;
 3996              		.loc 1 1417 31 view .LVU1434
 3997 0074 CDF808C0 		str	ip, [sp, #8]
1413:./Libraries/STM32_USB_Host_Library/Class/MTP/Src/usbh_mtp_ptp.c **** 
 3998              		.loc 1 1413 35 view .LVU1435
 3999 0078 42F2B81C 		movw	ip, #8632
1420:./Libraries/STM32_USB_Host_Library/Class/MTP/Src/usbh_mtp_ptp.c **** 
ARM GAS  /tmp/ccSE0mVF.s 			page 118


 4000              		.loc 1 1420 28 view .LVU1436
 4001 007c 8DF82440 		strb	r4, [sp, #36]
1411:./Libraries/STM32_USB_Host_Library/Class/MTP/Src/usbh_mtp_ptp.c ****       MTP_Handle->ptp.data_packet_counter = 0U;
 4002              		.loc 1 1411 35 view .LVU1437
 4003 0080 6E50     		str	r6, [r5, r1]
1412:./Libraries/STM32_USB_Host_Library/Class/MTP/Src/usbh_mtp_ptp.c ****       MTP_Handle->ptp.data_packet = 0U;
 4004              		.loc 1 1412 7 is_stmt 1 view .LVU1438
1423:./Libraries/STM32_USB_Host_Library/Class/MTP/Src/usbh_mtp_ptp.c **** 
 4005              		.loc 1 1423 7 is_stmt 0 view .LVU1439
 4006 0082 01A9     		add	r1, sp, #4
1412:./Libraries/STM32_USB_Host_Library/Class/MTP/Src/usbh_mtp_ptp.c ****       MTP_Handle->ptp.data_packet = 0U;
 4007              		.loc 1 1412 43 view .LVU1440
 4008 0084 1E60     		str	r6, [r3]
1413:./Libraries/STM32_USB_Host_Library/Class/MTP/Src/usbh_mtp_ptp.c **** 
 4009              		.loc 1 1413 7 is_stmt 1 view .LVU1441
1416:./Libraries/STM32_USB_Host_Library/Class/MTP/Src/usbh_mtp_ptp.c ****       ptp_container.SessionID = MTP_Handle->ptp.session_id;
 4010              		.loc 1 1416 26 is_stmt 0 view .LVU1442
 4011 0086 41F20803 		movw	r3, #4104
1418:./Libraries/STM32_USB_Host_Library/Class/MTP/Src/usbh_mtp_ptp.c ****       ptp_container.Param1 = handle;
 4012              		.loc 1 1418 68 view .LVU1443
 4013 008a 45F802E0 		str	lr, [r5, r2]
1413:./Libraries/STM32_USB_Host_Library/Class/MTP/Src/usbh_mtp_ptp.c **** 
 4014              		.loc 1 1413 35 view .LVU1444
 4015 008e 45F80C60 		str	r6, [r5, ip]
1416:./Libraries/STM32_USB_Host_Library/Class/MTP/Src/usbh_mtp_ptp.c ****       ptp_container.SessionID = MTP_Handle->ptp.session_id;
 4016              		.loc 1 1416 7 is_stmt 1 view .LVU1445
1426:./Libraries/STM32_USB_Host_Library/Class/MTP/Src/usbh_mtp_ptp.c ****       MTP_Handle->ptp.req_state = PTP_REQ_WAIT;
 4017              		.loc 1 1426 29 is_stmt 0 view .LVU1446
 4018 0092 05F5EB55 		add	r5, r5, #7520
 4019              	.LVL319:
1416:./Libraries/STM32_USB_Host_Library/Class/MTP/Src/usbh_mtp_ptp.c ****       ptp_container.SessionID = MTP_Handle->ptp.session_id;
 4020              		.loc 1 1416 26 view .LVU1447
 4021 0096 ADF80430 		strh	r3, [sp, #4]	@ movhi
1417:./Libraries/STM32_USB_Host_Library/Class/MTP/Src/usbh_mtp_ptp.c ****       ptp_container.Transaction_ID = MTP_Handle->ptp.transaction_id++;
 4022              		.loc 1 1417 7 is_stmt 1 view .LVU1448
1418:./Libraries/STM32_USB_Host_Library/Class/MTP/Src/usbh_mtp_ptp.c ****       ptp_container.Param1 = handle;
 4023              		.loc 1 1418 7 view .LVU1449
1419:./Libraries/STM32_USB_Host_Library/Class/MTP/Src/usbh_mtp_ptp.c ****       ptp_container.Nparam = 1U;
 4024              		.loc 1 1419 7 view .LVU1450
1420:./Libraries/STM32_USB_Host_Library/Class/MTP/Src/usbh_mtp_ptp.c **** 
 4025              		.loc 1 1420 7 view .LVU1451
1423:./Libraries/STM32_USB_Host_Library/Class/MTP/Src/usbh_mtp_ptp.c **** 
 4026              		.loc 1 1423 7 view .LVU1452
 4027 009a FFF7FEFF 		bl	USBH_PTP_SendRequest
 4028              	.LVL320:
1426:./Libraries/STM32_USB_Host_Library/Class/MTP/Src/usbh_mtp_ptp.c ****       MTP_Handle->ptp.req_state = PTP_REQ_WAIT;
 4029              		.loc 1 1426 7 view .LVU1453
1427:./Libraries/STM32_USB_Host_Library/Class/MTP/Src/usbh_mtp_ptp.c ****       status = USBH_BUSY;
 4030              		.loc 1 1427 7 view .LVU1454
1426:./Libraries/STM32_USB_Host_Library/Class/MTP/Src/usbh_mtp_ptp.c ****       MTP_Handle->ptp.req_state = PTP_REQ_WAIT;
 4031              		.loc 1 1426 29 is_stmt 0 view .LVU1455
 4032 009e 40F20122 		movw	r2, #513
1431:./Libraries/STM32_USB_Host_Library/Class/MTP/Src/usbh_mtp_ptp.c **** #if (osCMSIS < 0x20000U)
 4033              		.loc 1 1431 21 view .LVU1456
 4034 00a2 4FF0050C 		mov	ip, #5
1435:./Libraries/STM32_USB_Host_Library/Class/MTP/Src/usbh_mtp_ptp.c **** #endif
 4035              		.loc 1 1435 13 view .LVU1457
ARM GAS  /tmp/ccSE0mVF.s 			page 119


 4036 00a6 3346     		mov	r3, r6
 4037 00a8 07F59C61 		add	r1, r7, #1248
1426:./Libraries/STM32_USB_Host_Library/Class/MTP/Src/usbh_mtp_ptp.c ****       MTP_Handle->ptp.req_state = PTP_REQ_WAIT;
 4038              		.loc 1 1426 29 view .LVU1458
 4039 00ac 2A80     		strh	r2, [r5]	@ movhi
1428:./Libraries/STM32_USB_Host_Library/Class/MTP/Src/usbh_mtp_ptp.c **** 
 4040              		.loc 1 1428 7 is_stmt 1 view .LVU1459
1431:./Libraries/STM32_USB_Host_Library/Class/MTP/Src/usbh_mtp_ptp.c **** #if (osCMSIS < 0x20000U)
 4041              		.loc 1 1431 7 view .LVU1460
1435:./Libraries/STM32_USB_Host_Library/Class/MTP/Src/usbh_mtp_ptp.c **** #endif
 4042              		.loc 1 1435 13 is_stmt 0 view .LVU1461
 4043 00ae 3246     		mov	r2, r6
 4044 00b0 D7F8D804 		ldr	r0, [r7, #1240]
1431:./Libraries/STM32_USB_Host_Library/Class/MTP/Src/usbh_mtp_ptp.c **** #if (osCMSIS < 0x20000U)
 4045              		.loc 1 1431 21 view .LVU1462
 4046 00b4 C7F8E0C4 		str	ip, [r7, #1248]
1435:./Libraries/STM32_USB_Host_Library/Class/MTP/Src/usbh_mtp_ptp.c **** #endif
 4047              		.loc 1 1435 7 is_stmt 1 view .LVU1463
1435:./Libraries/STM32_USB_Host_Library/Class/MTP/Src/usbh_mtp_ptp.c **** #endif
 4048              		.loc 1 1435 13 is_stmt 0 view .LVU1464
 4049 00b8 FFF7FEFF 		bl	osMessageQueuePut
 4050              	.LVL321:
1438:./Libraries/STM32_USB_Host_Library/Class/MTP/Src/usbh_mtp_ptp.c **** 
 4051              		.loc 1 1438 7 is_stmt 1 view .LVU1465
1452:./Libraries/STM32_USB_Host_Library/Class/MTP/Src/usbh_mtp_ptp.c **** }
 4052              		.loc 1 1452 3 view .LVU1466
 4053              		.loc 1 1453 1 is_stmt 0 view .LVU1467
 4054 00bc 2046     		mov	r0, r4
 4055 00be 0AB0     		add	sp, sp, #40
 4056              	.LCFI91:
 4057              		.cfi_remember_state
 4058              		.cfi_def_cfa_offset 24
 4059              		@ sp needed
 4060 00c0 BDE8F081 		pop	{r4, r5, r6, r7, r8, pc}
 4061              	.LVL322:
 4062              	.L214:
 4063              	.LCFI92:
 4064              		.cfi_restore_state
1445:./Libraries/STM32_USB_Host_Library/Class/MTP/Src/usbh_mtp_ptp.c ****       }
 4065              		.loc 1 1445 9 is_stmt 1 view .LVU1468
 4066              	.LBB106:
 4067              	.LBI106:
 661:./Libraries/STM32_USB_Host_Library/Class/MTP/Src/usbh_mtp_ptp.c **** {
 4068              		.loc 1 661 13 view .LVU1469
 4069              	.LBB107:
 663:./Libraries/STM32_USB_Host_Library/Class/MTP/Src/usbh_mtp_ptp.c ****   uint8_t *data = MTP_Handle->ptp.data_container.payload.data;
 4070              		.loc 1 663 3 view .LVU1470
 663:./Libraries/STM32_USB_Host_Library/Class/MTP/Src/usbh_mtp_ptp.c ****   uint8_t *data = MTP_Handle->ptp.data_container.payload.data;
 4071              		.loc 1 663 25 is_stmt 0 view .LVU1471
 4072 00c4 D7F87C24 		ldr	r2, [r7, #1148]
 664:./Libraries/STM32_USB_Host_Library/Class/MTP/Src/usbh_mtp_ptp.c ****   uint16_t filenamelen;
 4073              		.loc 1 664 12 view .LVU1472
 4074 00c8 41F69053 		movw	r3, #7568
 668:./Libraries/STM32_USB_Host_Library/Class/MTP/Src/usbh_mtp_ptp.c ****   object_info->ProtectionStatus = LE16(&data[PTP_oi_ProtectionStatus]);
 4075              		.loc 1 668 31 view .LVU1473
 4076 00cc 41F69450 		movw	r0, #7572
 4077              	.LVL323:
ARM GAS  /tmp/ccSE0mVF.s 			page 120


 669:./Libraries/STM32_USB_Host_Library/Class/MTP/Src/usbh_mtp_ptp.c ****   object_info->ObjectCompressedSize = LE64(&data[PTP_oi_ObjectCompressedSize]);
 4078              		.loc 1 669 35 view .LVU1474
 4079 00d0 41F69655 		movw	r5, #7574
 4080              	.LVL324:
 663:./Libraries/STM32_USB_Host_Library/Class/MTP/Src/usbh_mtp_ptp.c ****   uint8_t *data = MTP_Handle->ptp.data_container.payload.data;
 4081              		.loc 1 663 25 view .LVU1475
 4082 00d4 D269     		ldr	r2, [r2, #28]
 4083              	.LVL325:
 664:./Libraries/STM32_USB_Host_Library/Class/MTP/Src/usbh_mtp_ptp.c ****   uint16_t filenamelen;
 4084              		.loc 1 664 3 is_stmt 1 view .LVU1476
 670:./Libraries/STM32_USB_Host_Library/Class/MTP/Src/usbh_mtp_ptp.c **** 
 4085              		.loc 1 670 39 is_stmt 0 view .LVU1477
 4086 00d6 41F69851 		movw	r1, #7576
 673:./Libraries/STM32_USB_Host_Library/Class/MTP/Src/usbh_mtp_ptp.c ****   {
 4087              		.loc 1 673 12 view .LVU1478
 4088 00da 41F6C457 		movw	r7, #7620
 4089              	.LVL326:
 664:./Libraries/STM32_USB_Host_Library/Class/MTP/Src/usbh_mtp_ptp.c ****   uint16_t filenamelen;
 4090              		.loc 1 664 12 view .LVU1479
 4091 00de 1344     		add	r3, r3, r2
 4092              	.LVL327:
 665:./Libraries/STM32_USB_Host_Library/Class/MTP/Src/usbh_mtp_ptp.c **** 
 4093              		.loc 1 665 3 is_stmt 1 view .LVU1480
 667:./Libraries/STM32_USB_Host_Library/Class/MTP/Src/usbh_mtp_ptp.c ****   object_info->ObjectFormat = LE16(&data[PTP_oi_ObjectFormat]);
 4094              		.loc 1 667 3 view .LVU1481
 668:./Libraries/STM32_USB_Host_Library/Class/MTP/Src/usbh_mtp_ptp.c ****   object_info->ProtectionStatus = LE16(&data[PTP_oi_ProtectionStatus]);
 4095              		.loc 1 668 31 is_stmt 0 view .LVU1482
 4096 00e0 1044     		add	r0, r0, r2
 669:./Libraries/STM32_USB_Host_Library/Class/MTP/Src/usbh_mtp_ptp.c ****   object_info->ObjectCompressedSize = LE64(&data[PTP_oi_ObjectCompressedSize]);
 4097              		.loc 1 669 35 view .LVU1483
 4098 00e2 1544     		add	r5, r5, r2
 670:./Libraries/STM32_USB_Host_Library/Class/MTP/Src/usbh_mtp_ptp.c **** 
 4099              		.loc 1 670 39 view .LVU1484
 4100 00e4 1144     		add	r1, r1, r2
 667:./Libraries/STM32_USB_Host_Library/Class/MTP/Src/usbh_mtp_ptp.c ****   object_info->ObjectFormat = LE16(&data[PTP_oi_ObjectFormat]);
 4101              		.loc 1 667 28 view .LVU1485
 4102 00e6 D3F800C0 		ldr	ip, [r3]	@ unaligned
 667:./Libraries/STM32_USB_Host_Library/Class/MTP/Src/usbh_mtp_ptp.c ****   object_info->ObjectFormat = LE16(&data[PTP_oi_ObjectFormat]);
 4103              		.loc 1 667 26 view .LVU1486
 4104 00ea C6F800C0 		str	ip, [r6]
 668:./Libraries/STM32_USB_Host_Library/Class/MTP/Src/usbh_mtp_ptp.c ****   object_info->ProtectionStatus = LE16(&data[PTP_oi_ProtectionStatus]);
 4105              		.loc 1 668 3 is_stmt 1 view .LVU1487
 668:./Libraries/STM32_USB_Host_Library/Class/MTP/Src/usbh_mtp_ptp.c ****   object_info->ProtectionStatus = LE16(&data[PTP_oi_ProtectionStatus]);
 4106              		.loc 1 668 31 is_stmt 0 view .LVU1488
 4107 00ee B0F800C0 		ldrh	ip, [r0]	@ unaligned
 668:./Libraries/STM32_USB_Host_Library/Class/MTP/Src/usbh_mtp_ptp.c ****   object_info->ProtectionStatus = LE16(&data[PTP_oi_ProtectionStatus]);
 4108              		.loc 1 668 29 view .LVU1489
 4109 00f2 A6F804C0 		strh	ip, [r6, #4]	@ movhi
 669:./Libraries/STM32_USB_Host_Library/Class/MTP/Src/usbh_mtp_ptp.c ****   object_info->ObjectCompressedSize = LE64(&data[PTP_oi_ObjectCompressedSize]);
 4110              		.loc 1 669 3 is_stmt 1 view .LVU1490
 669:./Libraries/STM32_USB_Host_Library/Class/MTP/Src/usbh_mtp_ptp.c ****   object_info->ObjectCompressedSize = LE64(&data[PTP_oi_ObjectCompressedSize]);
 4111              		.loc 1 669 35 is_stmt 0 view .LVU1491
 4112 00f6 2D88     		ldrh	r5, [r5]	@ unaligned
 669:./Libraries/STM32_USB_Host_Library/Class/MTP/Src/usbh_mtp_ptp.c ****   object_info->ObjectCompressedSize = LE64(&data[PTP_oi_ObjectCompressedSize]);
 4113              		.loc 1 669 33 view .LVU1492
 4114 00f8 F580     		strh	r5, [r6, #6]	@ movhi
 670:./Libraries/STM32_USB_Host_Library/Class/MTP/Src/usbh_mtp_ptp.c **** 
ARM GAS  /tmp/ccSE0mVF.s 			page 121


 4115              		.loc 1 670 3 is_stmt 1 view .LVU1493
 670:./Libraries/STM32_USB_Host_Library/Class/MTP/Src/usbh_mtp_ptp.c **** 
 4116              		.loc 1 670 39 is_stmt 0 view .LVU1494
 4117 00fa 0D68     		ldr	r5, [r1]	@ unaligned
 4118 00fc 4968     		ldr	r1, [r1, #4]	@ unaligned
 670:./Libraries/STM32_USB_Host_Library/Class/MTP/Src/usbh_mtp_ptp.c **** 
 4119              		.loc 1 670 37 view .LVU1495
 4120 00fe C6E90251 		strd	r5, r1, [r6, #8]
 673:./Libraries/STM32_USB_Host_Library/Class/MTP/Src/usbh_mtp_ptp.c ****   {
 4121              		.loc 1 673 3 is_stmt 1 view .LVU1496
 673:./Libraries/STM32_USB_Host_Library/Class/MTP/Src/usbh_mtp_ptp.c ****   {
 4122              		.loc 1 673 6 is_stmt 0 view .LVU1497
 4123 0102 D15D     		ldrb	r1, [r2, r7]	@ zero_extendqisi2
 4124 0104 29B9     		cbnz	r1, .L203
 673:./Libraries/STM32_USB_Host_Library/Class/MTP/Src/usbh_mtp_ptp.c ****   {
 4125              		.loc 1 673 48 view .LVU1498
 4126 0106 41F6C851 		movw	r1, #7624
 673:./Libraries/STM32_USB_Host_Library/Class/MTP/Src/usbh_mtp_ptp.c ****   {
 4127              		.loc 1 673 40 view .LVU1499
 4128 010a 525C     		ldrb	r2, [r2, r1]	@ zero_extendqisi2
 4129              	.LVL328:
 675:./Libraries/STM32_USB_Host_Library/Class/MTP/Src/usbh_mtp_ptp.c ****   }
 4130              		.loc 1 675 10 view .LVU1500
 4131 010c 002A     		cmp	r2, #0
 4132 010e 18BF     		it	ne
 4133 0110 0346     		movne	r3, r0
 4134              	.LVL329:
 4135              	.L203:
 677:./Libraries/STM32_USB_Host_Library/Class/MTP/Src/usbh_mtp_ptp.c ****   object_info->ThumbCompressedSize = LE32(&data[PTP_oi_ThumbCompressedSize]);
 4136              		.loc 1 677 3 is_stmt 1 view .LVU1501
 677:./Libraries/STM32_USB_Host_Library/Class/MTP/Src/usbh_mtp_ptp.c ****   object_info->ThumbCompressedSize = LE32(&data[PTP_oi_ThumbCompressedSize]);
 4137              		.loc 1 677 30 is_stmt 0 view .LVU1502
 4138 0112 9A89     		ldrh	r2, [r3, #12]	@ unaligned
 688:./Libraries/STM32_USB_Host_Library/Class/MTP/Src/usbh_mtp_ptp.c **** }
 4139              		.loc 1 688 28 view .LVU1503
 4140 0114 06F13C05 		add	r5, r6, #60
 677:./Libraries/STM32_USB_Host_Library/Class/MTP/Src/usbh_mtp_ptp.c ****   object_info->ThumbCompressedSize = LE32(&data[PTP_oi_ThumbCompressedSize]);
 4141              		.loc 1 677 28 view .LVU1504
 4142 0118 3282     		strh	r2, [r6, #16]	@ movhi
 678:./Libraries/STM32_USB_Host_Library/Class/MTP/Src/usbh_mtp_ptp.c ****   object_info->ThumbPixWidth = LE32(&data[PTP_oi_ThumbPixWidth]);
 4143              		.loc 1 678 3 is_stmt 1 view .LVU1505
 678:./Libraries/STM32_USB_Host_Library/Class/MTP/Src/usbh_mtp_ptp.c ****   object_info->ThumbPixWidth = LE32(&data[PTP_oi_ThumbPixWidth]);
 4144              		.loc 1 678 38 is_stmt 0 view .LVU1506
 4145 011a D3F80E20 		ldr	r2, [r3, #14]	@ unaligned
 678:./Libraries/STM32_USB_Host_Library/Class/MTP/Src/usbh_mtp_ptp.c ****   object_info->ThumbPixWidth = LE32(&data[PTP_oi_ThumbPixWidth]);
 4146              		.loc 1 678 36 view .LVU1507
 4147 011e 7261     		str	r2, [r6, #20]
 679:./Libraries/STM32_USB_Host_Library/Class/MTP/Src/usbh_mtp_ptp.c ****   object_info->ThumbPixHeight = LE32(&data[PTP_oi_ThumbPixHeight]);
 4148              		.loc 1 679 3 is_stmt 1 view .LVU1508
 679:./Libraries/STM32_USB_Host_Library/Class/MTP/Src/usbh_mtp_ptp.c ****   object_info->ThumbPixHeight = LE32(&data[PTP_oi_ThumbPixHeight]);
 4149              		.loc 1 679 32 is_stmt 0 view .LVU1509
 4150 0120 D3F81220 		ldr	r2, [r3, #18]	@ unaligned
 679:./Libraries/STM32_USB_Host_Library/Class/MTP/Src/usbh_mtp_ptp.c ****   object_info->ThumbPixHeight = LE32(&data[PTP_oi_ThumbPixHeight]);
 4151              		.loc 1 679 30 view .LVU1510
 4152 0124 B261     		str	r2, [r6, #24]
 680:./Libraries/STM32_USB_Host_Library/Class/MTP/Src/usbh_mtp_ptp.c ****   object_info->ImagePixWidth = LE32(&data[PTP_oi_ImagePixWidth]);
 4153              		.loc 1 680 3 is_stmt 1 view .LVU1511
ARM GAS  /tmp/ccSE0mVF.s 			page 122


 680:./Libraries/STM32_USB_Host_Library/Class/MTP/Src/usbh_mtp_ptp.c ****   object_info->ImagePixWidth = LE32(&data[PTP_oi_ImagePixWidth]);
 4154              		.loc 1 680 33 is_stmt 0 view .LVU1512
 4155 0126 D3F81620 		ldr	r2, [r3, #22]	@ unaligned
 680:./Libraries/STM32_USB_Host_Library/Class/MTP/Src/usbh_mtp_ptp.c ****   object_info->ImagePixWidth = LE32(&data[PTP_oi_ImagePixWidth]);
 4156              		.loc 1 680 31 view .LVU1513
 4157 012a F261     		str	r2, [r6, #28]
 681:./Libraries/STM32_USB_Host_Library/Class/MTP/Src/usbh_mtp_ptp.c ****   object_info->ImagePixHeight = LE32(&data[PTP_oi_ImagePixHeight]);
 4158              		.loc 1 681 3 is_stmt 1 view .LVU1514
 681:./Libraries/STM32_USB_Host_Library/Class/MTP/Src/usbh_mtp_ptp.c ****   object_info->ImagePixHeight = LE32(&data[PTP_oi_ImagePixHeight]);
 4159              		.loc 1 681 32 is_stmt 0 view .LVU1515
 4160 012c D3F81A20 		ldr	r2, [r3, #26]	@ unaligned
 681:./Libraries/STM32_USB_Host_Library/Class/MTP/Src/usbh_mtp_ptp.c ****   object_info->ImagePixHeight = LE32(&data[PTP_oi_ImagePixHeight]);
 4161              		.loc 1 681 30 view .LVU1516
 4162 0130 3262     		str	r2, [r6, #32]
 682:./Libraries/STM32_USB_Host_Library/Class/MTP/Src/usbh_mtp_ptp.c ****   object_info->ImageBitDepth = LE32(&data[PTP_oi_ImageBitDepth]);
 4163              		.loc 1 682 3 is_stmt 1 view .LVU1517
 682:./Libraries/STM32_USB_Host_Library/Class/MTP/Src/usbh_mtp_ptp.c ****   object_info->ImageBitDepth = LE32(&data[PTP_oi_ImageBitDepth]);
 4164              		.loc 1 682 33 is_stmt 0 view .LVU1518
 4165 0132 D3F81E20 		ldr	r2, [r3, #30]	@ unaligned
 682:./Libraries/STM32_USB_Host_Library/Class/MTP/Src/usbh_mtp_ptp.c ****   object_info->ImageBitDepth = LE32(&data[PTP_oi_ImageBitDepth]);
 4166              		.loc 1 682 31 view .LVU1519
 4167 0136 7262     		str	r2, [r6, #36]
 683:./Libraries/STM32_USB_Host_Library/Class/MTP/Src/usbh_mtp_ptp.c ****   object_info->ParentObject = LE32(&data[PTP_oi_ParentObject]);
 4168              		.loc 1 683 3 is_stmt 1 view .LVU1520
 683:./Libraries/STM32_USB_Host_Library/Class/MTP/Src/usbh_mtp_ptp.c ****   object_info->ParentObject = LE32(&data[PTP_oi_ParentObject]);
 4169              		.loc 1 683 32 is_stmt 0 view .LVU1521
 4170 0138 D3F82220 		ldr	r2, [r3, #34]	@ unaligned
 683:./Libraries/STM32_USB_Host_Library/Class/MTP/Src/usbh_mtp_ptp.c ****   object_info->ParentObject = LE32(&data[PTP_oi_ParentObject]);
 4171              		.loc 1 683 30 view .LVU1522
 4172 013c B262     		str	r2, [r6, #40]
 684:./Libraries/STM32_USB_Host_Library/Class/MTP/Src/usbh_mtp_ptp.c ****   object_info->AssociationType = LE16(&data[PTP_oi_AssociationType]);
 4173              		.loc 1 684 3 is_stmt 1 view .LVU1523
 684:./Libraries/STM32_USB_Host_Library/Class/MTP/Src/usbh_mtp_ptp.c ****   object_info->AssociationType = LE16(&data[PTP_oi_AssociationType]);
 4174              		.loc 1 684 31 is_stmt 0 view .LVU1524
 4175 013e D3F82620 		ldr	r2, [r3, #38]	@ unaligned
 684:./Libraries/STM32_USB_Host_Library/Class/MTP/Src/usbh_mtp_ptp.c ****   object_info->AssociationType = LE16(&data[PTP_oi_AssociationType]);
 4176              		.loc 1 684 29 view .LVU1525
 4177 0142 F262     		str	r2, [r6, #44]
 685:./Libraries/STM32_USB_Host_Library/Class/MTP/Src/usbh_mtp_ptp.c ****   object_info->AssociationDesc = LE32(&data[PTP_oi_AssociationDesc]);
 4178              		.loc 1 685 3 is_stmt 1 view .LVU1526
 685:./Libraries/STM32_USB_Host_Library/Class/MTP/Src/usbh_mtp_ptp.c ****   object_info->AssociationDesc = LE32(&data[PTP_oi_AssociationDesc]);
 4179              		.loc 1 685 34 is_stmt 0 view .LVU1527
 4180 0144 5A8D     		ldrh	r2, [r3, #42]	@ unaligned
 685:./Libraries/STM32_USB_Host_Library/Class/MTP/Src/usbh_mtp_ptp.c ****   object_info->AssociationDesc = LE32(&data[PTP_oi_AssociationDesc]);
 4181              		.loc 1 685 32 view .LVU1528
 4182 0146 3286     		strh	r2, [r6, #48]	@ movhi
 686:./Libraries/STM32_USB_Host_Library/Class/MTP/Src/usbh_mtp_ptp.c ****   object_info->SequenceNumber = LE32(&data[PTP_oi_SequenceNumber]);
 4183              		.loc 1 686 3 is_stmt 1 view .LVU1529
 686:./Libraries/STM32_USB_Host_Library/Class/MTP/Src/usbh_mtp_ptp.c ****   object_info->SequenceNumber = LE32(&data[PTP_oi_SequenceNumber]);
 4184              		.loc 1 686 34 is_stmt 0 view .LVU1530
 4185 0148 DA6A     		ldr	r2, [r3, #44]	@ unaligned
 686:./Libraries/STM32_USB_Host_Library/Class/MTP/Src/usbh_mtp_ptp.c ****   object_info->SequenceNumber = LE32(&data[PTP_oi_SequenceNumber]);
 4186              		.loc 1 686 32 view .LVU1531
 4187 014a 7263     		str	r2, [r6, #52]
 687:./Libraries/STM32_USB_Host_Library/Class/MTP/Src/usbh_mtp_ptp.c ****   PTP_GetString(object_info->Filename, &data[PTP_oi_filenamelen], &filenamelen);
 4188              		.loc 1 687 3 is_stmt 1 view .LVU1532
 687:./Libraries/STM32_USB_Host_Library/Class/MTP/Src/usbh_mtp_ptp.c ****   PTP_GetString(object_info->Filename, &data[PTP_oi_filenamelen], &filenamelen);
ARM GAS  /tmp/ccSE0mVF.s 			page 123


 4189              		.loc 1 687 33 is_stmt 0 view .LVU1533
 4190 014c 1A6B     		ldr	r2, [r3, #48]	@ unaligned
 687:./Libraries/STM32_USB_Host_Library/Class/MTP/Src/usbh_mtp_ptp.c ****   PTP_GetString(object_info->Filename, &data[PTP_oi_filenamelen], &filenamelen);
 4191              		.loc 1 687 31 view .LVU1534
 4192 014e B263     		str	r2, [r6, #56]
 688:./Libraries/STM32_USB_Host_Library/Class/MTP/Src/usbh_mtp_ptp.c **** }
 4193              		.loc 1 688 3 is_stmt 1 view .LVU1535
 4194              	.LVL330:
 4195              	.LBB108:
 4196              	.LBI108:
 876:./Libraries/STM32_USB_Host_Library/Class/MTP/Src/usbh_mtp_ptp.c **** {
 4197              		.loc 1 876 13 view .LVU1536
 4198              	.LBB109:
 878:./Libraries/STM32_USB_Host_Library/Class/MTP/Src/usbh_mtp_ptp.c ****   uint16_t idx;
 4199              		.loc 1 878 3 view .LVU1537
 879:./Libraries/STM32_USB_Host_Library/Class/MTP/Src/usbh_mtp_ptp.c **** 
 4200              		.loc 1 879 3 view .LVU1538
 881:./Libraries/STM32_USB_Host_Library/Class/MTP/Src/usbh_mtp_ptp.c ****   strlength = (uint16_t)(2U * (uint32_t)data[0]);
 4201              		.loc 1 881 3 view .LVU1539
 882:./Libraries/STM32_USB_Host_Library/Class/MTP/Src/usbh_mtp_ptp.c ****   data ++; /* Adjust the offset ignoring the String Len */
 4202              		.loc 1 882 3 view .LVU1540
 881:./Libraries/STM32_USB_Host_Library/Class/MTP/Src/usbh_mtp_ptp.c ****   strlength = (uint16_t)(2U * (uint32_t)data[0]);
 4203              		.loc 1 881 14 is_stmt 0 view .LVU1541
 4204 0150 93F83420 		ldrb	r2, [r3, #52]	@ zero_extendqisi2
 4205              	.LVL331:
 883:./Libraries/STM32_USB_Host_Library/Class/MTP/Src/usbh_mtp_ptp.c **** 
 4206              		.loc 1 883 3 is_stmt 1 view .LVU1542
 885:./Libraries/STM32_USB_Host_Library/Class/MTP/Src/usbh_mtp_ptp.c ****   {
 4207              		.loc 1 885 3 view .LVU1543
 885:./Libraries/STM32_USB_Host_Library/Class/MTP/Src/usbh_mtp_ptp.c ****   {
 4208              		.loc 1 885 18 view .LVU1544
 885:./Libraries/STM32_USB_Host_Library/Class/MTP/Src/usbh_mtp_ptp.c ****   {
 4209              		.loc 1 885 3 is_stmt 0 view .LVU1545
 4210 0154 5000     		lsls	r0, r2, #1
 4211 0156 7AB1     		cbz	r2, .L204
 4212 0158 0138     		subs	r0, r0, #1
 4213 015a 2A46     		mov	r2, r5
 4214              	.LVL332:
 885:./Libraries/STM32_USB_Host_Library/Class/MTP/Src/usbh_mtp_ptp.c ****   {
 4215              		.loc 1 885 3 view .LVU1546
 4216 015c C0F34E00 		ubfx	r0, r0, #1, #15
 4217 0160 00F13D01 		add	r1, r0, #61
 4218 0164 0E44     		add	r6, r6, r1
 4219              	.LVL333:
 4220              	.L205:
 888:./Libraries/STM32_USB_Host_Library/Class/MTP/Src/usbh_mtp_ptp.c ****     str++;
 4221              		.loc 1 888 5 is_stmt 1 view .LVU1547
 888:./Libraries/STM32_USB_Host_Library/Class/MTP/Src/usbh_mtp_ptp.c ****     str++;
 4222              		.loc 1 888 16 is_stmt 0 view .LVU1548
 4223 0166 93F83510 		ldrb	r1, [r3, #53]	@ zero_extendqisi2
 4224 016a 0233     		adds	r3, r3, #2
 888:./Libraries/STM32_USB_Host_Library/Class/MTP/Src/usbh_mtp_ptp.c ****     str++;
 4225              		.loc 1 888 10 view .LVU1549
 4226 016c 02F8011B 		strb	r1, [r2], #1
 4227              	.LVL334:
 889:./Libraries/STM32_USB_Host_Library/Class/MTP/Src/usbh_mtp_ptp.c ****   }
 4228              		.loc 1 889 5 is_stmt 1 view .LVU1550
ARM GAS  /tmp/ccSE0mVF.s 			page 124


 885:./Libraries/STM32_USB_Host_Library/Class/MTP/Src/usbh_mtp_ptp.c ****   {
 4229              		.loc 1 885 35 view .LVU1551
 885:./Libraries/STM32_USB_Host_Library/Class/MTP/Src/usbh_mtp_ptp.c ****   {
 4230              		.loc 1 885 18 view .LVU1552
 885:./Libraries/STM32_USB_Host_Library/Class/MTP/Src/usbh_mtp_ptp.c ****   {
 4231              		.loc 1 885 3 is_stmt 0 view .LVU1553
 4232 0170 9642     		cmp	r6, r2
 4233 0172 F8D1     		bne	.L205
 4234 0174 0130     		adds	r0, r0, #1
 4235 0176 0544     		add	r5, r5, r0
 4236              	.LVL335:
 4237              	.L204:
 891:./Libraries/STM32_USB_Host_Library/Class/MTP/Src/usbh_mtp_ptp.c **** }
 4238              		.loc 1 891 3 is_stmt 1 view .LVU1554
 891:./Libraries/STM32_USB_Host_Library/Class/MTP/Src/usbh_mtp_ptp.c **** }
 4239              		.loc 1 891 8 is_stmt 0 view .LVU1555
 4240 0178 0023     		movs	r3, #0
 4241              	.LBE109:
 4242              	.LBE108:
 4243              	.LBE107:
 4244              	.LBE106:
 4245              		.loc 1 1453 1 view .LVU1556
 4246 017a 2046     		mov	r0, r4
 4247              	.LBB113:
 4248              	.LBB112:
 4249              	.LBB111:
 4250              	.LBB110:
 891:./Libraries/STM32_USB_Host_Library/Class/MTP/Src/usbh_mtp_ptp.c **** }
 4251              		.loc 1 891 8 view .LVU1557
 4252 017c 2B70     		strb	r3, [r5]
 4253              	.LVL336:
 891:./Libraries/STM32_USB_Host_Library/Class/MTP/Src/usbh_mtp_ptp.c **** }
 4254              		.loc 1 891 8 view .LVU1558
 4255              	.LBE110:
 4256              	.LBE111:
 4257              	.LBE112:
 4258              	.LBE113:
1452:./Libraries/STM32_USB_Host_Library/Class/MTP/Src/usbh_mtp_ptp.c **** }
 4259              		.loc 1 1452 3 is_stmt 1 view .LVU1559
 4260              		.loc 1 1453 1 is_stmt 0 view .LVU1560
 4261 017e 0AB0     		add	sp, sp, #40
 4262              	.LCFI93:
 4263              		.cfi_def_cfa_offset 24
 4264              		@ sp needed
 4265 0180 BDE8F081 		pop	{r4, r5, r6, r7, r8, pc}
 4266              		.loc 1 1453 1 view .LVU1561
 4267              		.cfi_endproc
 4268              	.LFE360:
 4270              		.section	.text.USBH_PTP_DeleteObject,"ax",%progbits
 4271              		.align	1
 4272              		.p2align 2,,3
 4273              		.global	USBH_PTP_DeleteObject
 4274              		.syntax unified
 4275              		.thumb
 4276              		.thumb_func
 4277              		.fpu fpv5-d16
 4279              	USBH_PTP_DeleteObject:
ARM GAS  /tmp/ccSE0mVF.s 			page 125


 4280              	.LVL337:
 4281              	.LFB361:
1454:./Libraries/STM32_USB_Host_Library/Class/MTP/Src/usbh_mtp_ptp.c **** 
1455:./Libraries/STM32_USB_Host_Library/Class/MTP/Src/usbh_mtp_ptp.c **** /**
1456:./Libraries/STM32_USB_Host_Library/Class/MTP/Src/usbh_mtp_ptp.c ****   * @brief  USBH_PTP_DeleteObject
1457:./Libraries/STM32_USB_Host_Library/Class/MTP/Src/usbh_mtp_ptp.c ****   *         Delete an object.
1458:./Libraries/STM32_USB_Host_Library/Class/MTP/Src/usbh_mtp_ptp.c ****   * @param  phost: Host handle
1459:./Libraries/STM32_USB_Host_Library/Class/MTP/Src/usbh_mtp_ptp.c ****   * @param  handle : Object Handle
1460:./Libraries/STM32_USB_Host_Library/Class/MTP/Src/usbh_mtp_ptp.c ****   * @retval USBH Status
1461:./Libraries/STM32_USB_Host_Library/Class/MTP/Src/usbh_mtp_ptp.c ****   */
1462:./Libraries/STM32_USB_Host_Library/Class/MTP/Src/usbh_mtp_ptp.c **** USBH_StatusTypeDef USBH_PTP_DeleteObject(USBH_HandleTypeDef *phost,
1463:./Libraries/STM32_USB_Host_Library/Class/MTP/Src/usbh_mtp_ptp.c ****                                          uint32_t handle,
1464:./Libraries/STM32_USB_Host_Library/Class/MTP/Src/usbh_mtp_ptp.c ****                                          uint32_t objectformatcode)
1465:./Libraries/STM32_USB_Host_Library/Class/MTP/Src/usbh_mtp_ptp.c **** {
 4282              		.loc 1 1465 1 is_stmt 1 view -0
 4283              		.cfi_startproc
 4284              		@ args = 0, pretend = 0, frame = 40
 4285              		@ frame_needed = 0, uses_anonymous_args = 0
1466:./Libraries/STM32_USB_Host_Library/Class/MTP/Src/usbh_mtp_ptp.c ****   USBH_StatusTypeDef   status = USBH_BUSY;
 4286              		.loc 1 1466 3 view .LVU1563
1467:./Libraries/STM32_USB_Host_Library/Class/MTP/Src/usbh_mtp_ptp.c ****   MTP_HandleTypeDef    *MTP_Handle = (MTP_HandleTypeDef *)phost->pActiveClass->pData;
 4287              		.loc 1 1467 3 view .LVU1564
1465:./Libraries/STM32_USB_Host_Library/Class/MTP/Src/usbh_mtp_ptp.c ****   USBH_StatusTypeDef   status = USBH_BUSY;
 4288              		.loc 1 1465 1 is_stmt 0 view .LVU1565
 4289 0000 F0B5     		push	{r4, r5, r6, r7, lr}
 4290              	.LCFI94:
 4291              		.cfi_def_cfa_offset 20
 4292              		.cfi_offset 4, -20
 4293              		.cfi_offset 5, -16
 4294              		.cfi_offset 6, -12
 4295              		.cfi_offset 7, -8
 4296              		.cfi_offset 14, -4
 4297              		.loc 1 1467 25 view .LVU1566
 4298 0002 D0F87C44 		ldr	r4, [r0, #1148]
1468:./Libraries/STM32_USB_Host_Library/Class/MTP/Src/usbh_mtp_ptp.c ****   PTP_ContainerTypedef  ptp_container;
1469:./Libraries/STM32_USB_Host_Library/Class/MTP/Src/usbh_mtp_ptp.c **** 
1470:./Libraries/STM32_USB_Host_Library/Class/MTP/Src/usbh_mtp_ptp.c ****   switch (MTP_Handle->ptp.req_state)
 4299              		.loc 1 1470 26 view .LVU1567
 4300 0006 41F66153 		movw	r3, #7521
1465:./Libraries/STM32_USB_Host_Library/Class/MTP/Src/usbh_mtp_ptp.c ****   USBH_StatusTypeDef   status = USBH_BUSY;
 4301              		.loc 1 1465 1 view .LVU1568
 4302 000a 8BB0     		sub	sp, sp, #44
 4303              	.LCFI95:
 4304              		.cfi_def_cfa_offset 64
1467:./Libraries/STM32_USB_Host_Library/Class/MTP/Src/usbh_mtp_ptp.c ****   PTP_ContainerTypedef  ptp_container;
 4305              		.loc 1 1467 25 view .LVU1569
 4306 000c E669     		ldr	r6, [r4, #28]
 4307              	.LVL338:
1468:./Libraries/STM32_USB_Host_Library/Class/MTP/Src/usbh_mtp_ptp.c ****   PTP_ContainerTypedef  ptp_container;
 4308              		.loc 1 1468 3 is_stmt 1 view .LVU1570
 4309              		.loc 1 1470 3 view .LVU1571
 4310              		.loc 1 1470 26 is_stmt 0 view .LVU1572
 4311 000e F45C     		ldrb	r4, [r6, r3]	@ zero_extendqisi2
 4312              		.loc 1 1470 3 view .LVU1573
 4313 0010 012C     		cmp	r4, #1
 4314 0012 0BD0     		beq	.L216
 4315 0014 022C     		cmp	r4, #2
ARM GAS  /tmp/ccSE0mVF.s 			page 126


 4316 0016 05D1     		bne	.L220
1471:./Libraries/STM32_USB_Host_Library/Class/MTP/Src/usbh_mtp_ptp.c ****   {
1472:./Libraries/STM32_USB_Host_Library/Class/MTP/Src/usbh_mtp_ptp.c ****     case PTP_REQ_SEND:
1473:./Libraries/STM32_USB_Host_Library/Class/MTP/Src/usbh_mtp_ptp.c ****       /* Set operation request type */
1474:./Libraries/STM32_USB_Host_Library/Class/MTP/Src/usbh_mtp_ptp.c ****       MTP_Handle->ptp.flags = PTP_DP_NODATA;
1475:./Libraries/STM32_USB_Host_Library/Class/MTP/Src/usbh_mtp_ptp.c **** 
1476:./Libraries/STM32_USB_Host_Library/Class/MTP/Src/usbh_mtp_ptp.c ****       /* Fill operation request params */
1477:./Libraries/STM32_USB_Host_Library/Class/MTP/Src/usbh_mtp_ptp.c ****       ptp_container.Code = PTP_OC_DeleteObject;
1478:./Libraries/STM32_USB_Host_Library/Class/MTP/Src/usbh_mtp_ptp.c ****       ptp_container.SessionID = MTP_Handle->ptp.session_id;
1479:./Libraries/STM32_USB_Host_Library/Class/MTP/Src/usbh_mtp_ptp.c ****       ptp_container.Transaction_ID = MTP_Handle->ptp.transaction_id++;
1480:./Libraries/STM32_USB_Host_Library/Class/MTP/Src/usbh_mtp_ptp.c ****       ptp_container.Param1 = handle;
1481:./Libraries/STM32_USB_Host_Library/Class/MTP/Src/usbh_mtp_ptp.c ****       ptp_container.Param2 = objectformatcode;
1482:./Libraries/STM32_USB_Host_Library/Class/MTP/Src/usbh_mtp_ptp.c ****       ptp_container.Nparam = 2U;
1483:./Libraries/STM32_USB_Host_Library/Class/MTP/Src/usbh_mtp_ptp.c **** 
1484:./Libraries/STM32_USB_Host_Library/Class/MTP/Src/usbh_mtp_ptp.c ****       /* convert request packet into USB raw packet*/
1485:./Libraries/STM32_USB_Host_Library/Class/MTP/Src/usbh_mtp_ptp.c ****       USBH_PTP_SendRequest(phost, &ptp_container);
1486:./Libraries/STM32_USB_Host_Library/Class/MTP/Src/usbh_mtp_ptp.c **** 
1487:./Libraries/STM32_USB_Host_Library/Class/MTP/Src/usbh_mtp_ptp.c ****       /* Setup State machine and start transfer */
1488:./Libraries/STM32_USB_Host_Library/Class/MTP/Src/usbh_mtp_ptp.c ****       MTP_Handle->ptp.state = PTP_OP_REQUEST_STATE;
1489:./Libraries/STM32_USB_Host_Library/Class/MTP/Src/usbh_mtp_ptp.c ****       MTP_Handle->ptp.req_state = PTP_REQ_WAIT;
1490:./Libraries/STM32_USB_Host_Library/Class/MTP/Src/usbh_mtp_ptp.c ****       status = USBH_BUSY;
1491:./Libraries/STM32_USB_Host_Library/Class/MTP/Src/usbh_mtp_ptp.c **** 
1492:./Libraries/STM32_USB_Host_Library/Class/MTP/Src/usbh_mtp_ptp.c **** #if (USBH_USE_OS == 1U)
1493:./Libraries/STM32_USB_Host_Library/Class/MTP/Src/usbh_mtp_ptp.c ****       phost->os_msg = (uint32_t)USBH_STATE_CHANGED_EVENT;
1494:./Libraries/STM32_USB_Host_Library/Class/MTP/Src/usbh_mtp_ptp.c **** #if (osCMSIS < 0x20000U)
1495:./Libraries/STM32_USB_Host_Library/Class/MTP/Src/usbh_mtp_ptp.c ****       (void)osMessagePut(phost->os_event, phost->os_msg, 0U);
1496:./Libraries/STM32_USB_Host_Library/Class/MTP/Src/usbh_mtp_ptp.c **** #else
1497:./Libraries/STM32_USB_Host_Library/Class/MTP/Src/usbh_mtp_ptp.c ****       (void)osMessageQueuePut(phost->os_event, &phost->os_msg, 0U, NULL);
1498:./Libraries/STM32_USB_Host_Library/Class/MTP/Src/usbh_mtp_ptp.c **** #endif
1499:./Libraries/STM32_USB_Host_Library/Class/MTP/Src/usbh_mtp_ptp.c **** #endif
1500:./Libraries/STM32_USB_Host_Library/Class/MTP/Src/usbh_mtp_ptp.c ****       break;
1501:./Libraries/STM32_USB_Host_Library/Class/MTP/Src/usbh_mtp_ptp.c **** 
1502:./Libraries/STM32_USB_Host_Library/Class/MTP/Src/usbh_mtp_ptp.c ****     case PTP_REQ_WAIT:
1503:./Libraries/STM32_USB_Host_Library/Class/MTP/Src/usbh_mtp_ptp.c ****       status = USBH_PTP_Process(phost);
 4317              		.loc 1 1503 7 is_stmt 1 view .LVU1574
 4318              		.loc 1 1503 16 is_stmt 0 view .LVU1575
 4319 0018 FFF7FEFF 		bl	USBH_PTP_Process
 4320              	.LVL339:
 4321              		.loc 1 1503 16 view .LVU1576
 4322 001c 0446     		mov	r4, r0
 4323              	.LVL340:
1504:./Libraries/STM32_USB_Host_Library/Class/MTP/Src/usbh_mtp_ptp.c ****       break;
 4324              		.loc 1 1504 7 is_stmt 1 view .LVU1577
1505:./Libraries/STM32_USB_Host_Library/Class/MTP/Src/usbh_mtp_ptp.c **** 
1506:./Libraries/STM32_USB_Host_Library/Class/MTP/Src/usbh_mtp_ptp.c ****     default:
1507:./Libraries/STM32_USB_Host_Library/Class/MTP/Src/usbh_mtp_ptp.c ****       break;
1508:./Libraries/STM32_USB_Host_Library/Class/MTP/Src/usbh_mtp_ptp.c ****   }
1509:./Libraries/STM32_USB_Host_Library/Class/MTP/Src/usbh_mtp_ptp.c ****   return status;
 4325              		.loc 1 1509 3 view .LVU1578
1510:./Libraries/STM32_USB_Host_Library/Class/MTP/Src/usbh_mtp_ptp.c **** }
 4326              		.loc 1 1510 1 is_stmt 0 view .LVU1579
 4327 001e 2046     		mov	r0, r4
 4328 0020 0BB0     		add	sp, sp, #44
 4329              	.LCFI96:
 4330              		.cfi_remember_state
 4331              		.cfi_def_cfa_offset 20
 4332              		@ sp needed
ARM GAS  /tmp/ccSE0mVF.s 			page 127


 4333 0022 F0BD     		pop	{r4, r5, r6, r7, pc}
 4334              	.LVL341:
 4335              	.L220:
 4336              	.LCFI97:
 4337              		.cfi_restore_state
1470:./Libraries/STM32_USB_Host_Library/Class/MTP/Src/usbh_mtp_ptp.c ****   {
 4338              		.loc 1 1470 3 view .LVU1580
 4339 0024 0124     		movs	r4, #1
 4340              	.LVL342:
1509:./Libraries/STM32_USB_Host_Library/Class/MTP/Src/usbh_mtp_ptp.c **** }
 4341              		.loc 1 1509 3 is_stmt 1 view .LVU1581
 4342              		.loc 1 1510 1 is_stmt 0 view .LVU1582
 4343 0026 2046     		mov	r0, r4
 4344              	.LVL343:
 4345              		.loc 1 1510 1 view .LVU1583
 4346 0028 0BB0     		add	sp, sp, #44
 4347              	.LCFI98:
 4348              		.cfi_remember_state
 4349              		.cfi_def_cfa_offset 20
 4350              		@ sp needed
 4351 002a F0BD     		pop	{r4, r5, r6, r7, pc}
 4352              	.LVL344:
 4353              	.L216:
 4354              	.LCFI99:
 4355              		.cfi_restore_state
1474:./Libraries/STM32_USB_Host_Library/Class/MTP/Src/usbh_mtp_ptp.c **** 
 4356              		.loc 1 1474 7 is_stmt 1 view .LVU1584
1479:./Libraries/STM32_USB_Host_Library/Class/MTP/Src/usbh_mtp_ptp.c ****       ptp_container.Param1 = handle;
 4357              		.loc 1 1479 53 is_stmt 0 view .LVU1585
 4358 002c 42F2A413 		movw	r3, #8612
1480:./Libraries/STM32_USB_Host_Library/Class/MTP/Src/usbh_mtp_ptp.c ****       ptp_container.Param2 = objectformatcode;
 4359              		.loc 1 1480 28 view .LVU1586
 4360 0030 0491     		str	r1, [sp, #16]
1478:./Libraries/STM32_USB_Host_Library/Class/MTP/Src/usbh_mtp_ptp.c ****       ptp_container.Transaction_ID = MTP_Handle->ptp.transaction_id++;
 4361              		.loc 1 1478 48 view .LVU1587
 4362 0032 42F2A817 		movw	r7, #8616
1474:./Libraries/STM32_USB_Host_Library/Class/MTP/Src/usbh_mtp_ptp.c **** 
 4363              		.loc 1 1474 29 view .LVU1588
 4364 0036 42F2AC1E 		movw	lr, #8620
1479:./Libraries/STM32_USB_Host_Library/Class/MTP/Src/usbh_mtp_ptp.c ****       ptp_container.Param1 = handle;
 4365              		.loc 1 1479 53 view .LVU1589
 4366 003a F158     		ldr	r1, [r6, r3]
 4367              	.LVL345:
1479:./Libraries/STM32_USB_Host_Library/Class/MTP/Src/usbh_mtp_ptp.c ****       ptp_container.Param1 = handle;
 4368              		.loc 1 1479 53 view .LVU1590
 4369 003c 0546     		mov	r5, r0
1478:./Libraries/STM32_USB_Host_Library/Class/MTP/Src/usbh_mtp_ptp.c ****       ptp_container.Transaction_ID = MTP_Handle->ptp.transaction_id++;
 4370              		.loc 1 1478 31 view .LVU1591
 4371 003e 56F807C0 		ldr	ip, [r6, r7]
1474:./Libraries/STM32_USB_Host_Library/Class/MTP/Src/usbh_mtp_ptp.c **** 
 4372              		.loc 1 1474 29 view .LVU1592
 4373 0042 0027     		movs	r7, #0
1481:./Libraries/STM32_USB_Host_Library/Class/MTP/Src/usbh_mtp_ptp.c ****       ptp_container.Nparam = 2U;
 4374              		.loc 1 1481 28 view .LVU1593
 4375 0044 0592     		str	r2, [sp, #20]
1479:./Libraries/STM32_USB_Host_Library/Class/MTP/Src/usbh_mtp_ptp.c ****       ptp_container.Param1 = handle;
 4376              		.loc 1 1479 68 view .LVU1594
ARM GAS  /tmp/ccSE0mVF.s 			page 128


 4377 0046 4A1C     		adds	r2, r1, #1
 4378              	.LVL346:
1474:./Libraries/STM32_USB_Host_Library/Class/MTP/Src/usbh_mtp_ptp.c **** 
 4379              		.loc 1 1474 29 view .LVU1595
 4380 0048 46F80E70 		str	r7, [r6, lr]
1477:./Libraries/STM32_USB_Host_Library/Class/MTP/Src/usbh_mtp_ptp.c ****       ptp_container.SessionID = MTP_Handle->ptp.session_id;
 4381              		.loc 1 1477 7 is_stmt 1 view .LVU1596
1479:./Libraries/STM32_USB_Host_Library/Class/MTP/Src/usbh_mtp_ptp.c ****       ptp_container.Param1 = handle;
 4382              		.loc 1 1479 68 is_stmt 0 view .LVU1597
 4383 004c F250     		str	r2, [r6, r3]
1477:./Libraries/STM32_USB_Host_Library/Class/MTP/Src/usbh_mtp_ptp.c ****       ptp_container.SessionID = MTP_Handle->ptp.session_id;
 4384              		.loc 1 1477 26 view .LVU1598
 4385 004e 41F20B02 		movw	r2, #4107
1482:./Libraries/STM32_USB_Host_Library/Class/MTP/Src/usbh_mtp_ptp.c **** 
 4386              		.loc 1 1482 28 view .LVU1599
 4387 0052 0223     		movs	r3, #2
1479:./Libraries/STM32_USB_Host_Library/Class/MTP/Src/usbh_mtp_ptp.c ****       ptp_container.Param1 = handle;
 4388              		.loc 1 1479 36 view .LVU1600
 4389 0054 0391     		str	r1, [sp, #12]
1485:./Libraries/STM32_USB_Host_Library/Class/MTP/Src/usbh_mtp_ptp.c **** 
 4390              		.loc 1 1485 7 view .LVU1601
 4391 0056 01A9     		add	r1, sp, #4
1478:./Libraries/STM32_USB_Host_Library/Class/MTP/Src/usbh_mtp_ptp.c ****       ptp_container.Transaction_ID = MTP_Handle->ptp.transaction_id++;
 4392              		.loc 1 1478 31 view .LVU1602
 4393 0058 CDF808C0 		str	ip, [sp, #8]
1477:./Libraries/STM32_USB_Host_Library/Class/MTP/Src/usbh_mtp_ptp.c ****       ptp_container.SessionID = MTP_Handle->ptp.session_id;
 4394              		.loc 1 1477 26 view .LVU1603
 4395 005c ADF80420 		strh	r2, [sp, #4]	@ movhi
1478:./Libraries/STM32_USB_Host_Library/Class/MTP/Src/usbh_mtp_ptp.c ****       ptp_container.Transaction_ID = MTP_Handle->ptp.transaction_id++;
 4396              		.loc 1 1478 7 is_stmt 1 view .LVU1604
1479:./Libraries/STM32_USB_Host_Library/Class/MTP/Src/usbh_mtp_ptp.c ****       ptp_container.Param1 = handle;
 4397              		.loc 1 1479 7 view .LVU1605
1480:./Libraries/STM32_USB_Host_Library/Class/MTP/Src/usbh_mtp_ptp.c ****       ptp_container.Param2 = objectformatcode;
 4398              		.loc 1 1480 7 view .LVU1606
1481:./Libraries/STM32_USB_Host_Library/Class/MTP/Src/usbh_mtp_ptp.c ****       ptp_container.Nparam = 2U;
 4399              		.loc 1 1481 7 view .LVU1607
1482:./Libraries/STM32_USB_Host_Library/Class/MTP/Src/usbh_mtp_ptp.c **** 
 4400              		.loc 1 1482 7 view .LVU1608
1488:./Libraries/STM32_USB_Host_Library/Class/MTP/Src/usbh_mtp_ptp.c ****       MTP_Handle->ptp.req_state = PTP_REQ_WAIT;
 4401              		.loc 1 1488 29 is_stmt 0 view .LVU1609
 4402 0060 06F5EB56 		add	r6, r6, #7520
 4403              	.LVL347:
1482:./Libraries/STM32_USB_Host_Library/Class/MTP/Src/usbh_mtp_ptp.c **** 
 4404              		.loc 1 1482 28 view .LVU1610
 4405 0064 8DF82430 		strb	r3, [sp, #36]
 4406              	.LVL348:
1485:./Libraries/STM32_USB_Host_Library/Class/MTP/Src/usbh_mtp_ptp.c **** 
 4407              		.loc 1 1485 7 is_stmt 1 view .LVU1611
 4408 0068 FFF7FEFF 		bl	USBH_PTP_SendRequest
 4409              	.LVL349:
1488:./Libraries/STM32_USB_Host_Library/Class/MTP/Src/usbh_mtp_ptp.c ****       MTP_Handle->ptp.req_state = PTP_REQ_WAIT;
 4410              		.loc 1 1488 7 view .LVU1612
1489:./Libraries/STM32_USB_Host_Library/Class/MTP/Src/usbh_mtp_ptp.c ****       status = USBH_BUSY;
 4411              		.loc 1 1489 7 view .LVU1613
1493:./Libraries/STM32_USB_Host_Library/Class/MTP/Src/usbh_mtp_ptp.c **** #if (osCMSIS < 0x20000U)
 4412              		.loc 1 1493 21 is_stmt 0 view .LVU1614
 4413 006c 4FF0050C 		mov	ip, #5
ARM GAS  /tmp/ccSE0mVF.s 			page 129


1488:./Libraries/STM32_USB_Host_Library/Class/MTP/Src/usbh_mtp_ptp.c ****       MTP_Handle->ptp.req_state = PTP_REQ_WAIT;
 4414              		.loc 1 1488 29 view .LVU1615
 4415 0070 40F20122 		movw	r2, #513
1497:./Libraries/STM32_USB_Host_Library/Class/MTP/Src/usbh_mtp_ptp.c **** #endif
 4416              		.loc 1 1497 13 view .LVU1616
 4417 0074 3B46     		mov	r3, r7
 4418 0076 05F59C61 		add	r1, r5, #1248
1488:./Libraries/STM32_USB_Host_Library/Class/MTP/Src/usbh_mtp_ptp.c ****       MTP_Handle->ptp.req_state = PTP_REQ_WAIT;
 4419              		.loc 1 1488 29 view .LVU1617
 4420 007a 3280     		strh	r2, [r6]	@ movhi
1490:./Libraries/STM32_USB_Host_Library/Class/MTP/Src/usbh_mtp_ptp.c **** 
 4421              		.loc 1 1490 7 is_stmt 1 view .LVU1618
1493:./Libraries/STM32_USB_Host_Library/Class/MTP/Src/usbh_mtp_ptp.c **** #if (osCMSIS < 0x20000U)
 4422              		.loc 1 1493 7 view .LVU1619
1497:./Libraries/STM32_USB_Host_Library/Class/MTP/Src/usbh_mtp_ptp.c **** #endif
 4423              		.loc 1 1497 13 is_stmt 0 view .LVU1620
 4424 007c 3A46     		mov	r2, r7
 4425 007e D5F8D804 		ldr	r0, [r5, #1240]
1493:./Libraries/STM32_USB_Host_Library/Class/MTP/Src/usbh_mtp_ptp.c **** #if (osCMSIS < 0x20000U)
 4426              		.loc 1 1493 21 view .LVU1621
 4427 0082 C5F8E0C4 		str	ip, [r5, #1248]
1497:./Libraries/STM32_USB_Host_Library/Class/MTP/Src/usbh_mtp_ptp.c **** #endif
 4428              		.loc 1 1497 7 is_stmt 1 view .LVU1622
1497:./Libraries/STM32_USB_Host_Library/Class/MTP/Src/usbh_mtp_ptp.c **** #endif
 4429              		.loc 1 1497 13 is_stmt 0 view .LVU1623
 4430 0086 FFF7FEFF 		bl	osMessageQueuePut
 4431              	.LVL350:
1500:./Libraries/STM32_USB_Host_Library/Class/MTP/Src/usbh_mtp_ptp.c **** 
 4432              		.loc 1 1500 7 is_stmt 1 view .LVU1624
1509:./Libraries/STM32_USB_Host_Library/Class/MTP/Src/usbh_mtp_ptp.c **** }
 4433              		.loc 1 1509 3 view .LVU1625
 4434              		.loc 1 1510 1 is_stmt 0 view .LVU1626
 4435 008a 2046     		mov	r0, r4
 4436 008c 0BB0     		add	sp, sp, #44
 4437              	.LCFI100:
 4438              		.cfi_def_cfa_offset 20
 4439              		@ sp needed
 4440 008e F0BD     		pop	{r4, r5, r6, r7, pc}
 4441              		.loc 1 1510 1 view .LVU1627
 4442              		.cfi_endproc
 4443              	.LFE361:
 4445              		.section	.text.USBH_PTP_GetObject,"ax",%progbits
 4446              		.align	1
 4447              		.p2align 2,,3
 4448              		.global	USBH_PTP_GetObject
 4449              		.syntax unified
 4450              		.thumb
 4451              		.thumb_func
 4452              		.fpu fpv5-d16
 4454              	USBH_PTP_GetObject:
 4455              	.LVL351:
 4456              	.LFB362:
1511:./Libraries/STM32_USB_Host_Library/Class/MTP/Src/usbh_mtp_ptp.c **** 
1512:./Libraries/STM32_USB_Host_Library/Class/MTP/Src/usbh_mtp_ptp.c **** /**
1513:./Libraries/STM32_USB_Host_Library/Class/MTP/Src/usbh_mtp_ptp.c ****   * @brief  USBH_PTP_GetObject
1514:./Libraries/STM32_USB_Host_Library/Class/MTP/Src/usbh_mtp_ptp.c ****   *         Gets object
1515:./Libraries/STM32_USB_Host_Library/Class/MTP/Src/usbh_mtp_ptp.c ****   * @param  phost: Host handle
ARM GAS  /tmp/ccSE0mVF.s 			page 130


1516:./Libraries/STM32_USB_Host_Library/Class/MTP/Src/usbh_mtp_ptp.c ****   * @param  dev_info: Device info structure
1517:./Libraries/STM32_USB_Host_Library/Class/MTP/Src/usbh_mtp_ptp.c ****   * @retval USBH Status
1518:./Libraries/STM32_USB_Host_Library/Class/MTP/Src/usbh_mtp_ptp.c ****   */
1519:./Libraries/STM32_USB_Host_Library/Class/MTP/Src/usbh_mtp_ptp.c **** USBH_StatusTypeDef USBH_PTP_GetObject(USBH_HandleTypeDef *phost,
1520:./Libraries/STM32_USB_Host_Library/Class/MTP/Src/usbh_mtp_ptp.c ****                                       uint32_t handle,
1521:./Libraries/STM32_USB_Host_Library/Class/MTP/Src/usbh_mtp_ptp.c ****                                       uint8_t *object)
1522:./Libraries/STM32_USB_Host_Library/Class/MTP/Src/usbh_mtp_ptp.c **** {
 4457              		.loc 1 1522 1 is_stmt 1 view -0
 4458              		.cfi_startproc
 4459              		@ args = 0, pretend = 0, frame = 40
 4460              		@ frame_needed = 0, uses_anonymous_args = 0
1523:./Libraries/STM32_USB_Host_Library/Class/MTP/Src/usbh_mtp_ptp.c ****   USBH_StatusTypeDef status = USBH_BUSY;
 4461              		.loc 1 1523 3 view .LVU1629
1524:./Libraries/STM32_USB_Host_Library/Class/MTP/Src/usbh_mtp_ptp.c ****   MTP_HandleTypeDef *MTP_Handle = (MTP_HandleTypeDef *)phost->pActiveClass->pData;
 4462              		.loc 1 1524 3 view .LVU1630
1522:./Libraries/STM32_USB_Host_Library/Class/MTP/Src/usbh_mtp_ptp.c ****   USBH_StatusTypeDef status = USBH_BUSY;
 4463              		.loc 1 1522 1 is_stmt 0 view .LVU1631
 4464 0000 2DE9F043 		push	{r4, r5, r6, r7, r8, r9, lr}
 4465              	.LCFI101:
 4466              		.cfi_def_cfa_offset 28
 4467              		.cfi_offset 4, -28
 4468              		.cfi_offset 5, -24
 4469              		.cfi_offset 6, -20
 4470              		.cfi_offset 7, -16
 4471              		.cfi_offset 8, -12
 4472              		.cfi_offset 9, -8
 4473              		.cfi_offset 14, -4
 4474              		.loc 1 1524 22 view .LVU1632
 4475 0004 D0F87C44 		ldr	r4, [r0, #1148]
1525:./Libraries/STM32_USB_Host_Library/Class/MTP/Src/usbh_mtp_ptp.c ****   PTP_ContainerTypedef ptp_container;
1526:./Libraries/STM32_USB_Host_Library/Class/MTP/Src/usbh_mtp_ptp.c **** 
1527:./Libraries/STM32_USB_Host_Library/Class/MTP/Src/usbh_mtp_ptp.c ****   switch (MTP_Handle->ptp.req_state)
 4476              		.loc 1 1527 26 view .LVU1633
 4477 0008 41F66153 		movw	r3, #7521
1522:./Libraries/STM32_USB_Host_Library/Class/MTP/Src/usbh_mtp_ptp.c ****   USBH_StatusTypeDef status = USBH_BUSY;
 4478              		.loc 1 1522 1 view .LVU1634
 4479 000c 8BB0     		sub	sp, sp, #44
 4480              	.LCFI102:
 4481              		.cfi_def_cfa_offset 72
1524:./Libraries/STM32_USB_Host_Library/Class/MTP/Src/usbh_mtp_ptp.c ****   PTP_ContainerTypedef ptp_container;
 4482              		.loc 1 1524 22 view .LVU1635
 4483 000e E469     		ldr	r4, [r4, #28]
 4484              	.LVL352:
1525:./Libraries/STM32_USB_Host_Library/Class/MTP/Src/usbh_mtp_ptp.c ****   PTP_ContainerTypedef ptp_container;
 4485              		.loc 1 1525 3 is_stmt 1 view .LVU1636
 4486              		.loc 1 1527 3 view .LVU1637
 4487              		.loc 1 1527 26 is_stmt 0 view .LVU1638
 4488 0010 E55C     		ldrb	r5, [r4, r3]	@ zero_extendqisi2
 4489              		.loc 1 1527 3 view .LVU1639
 4490 0012 012D     		cmp	r5, #1
 4491 0014 1CD0     		beq	.L222
 4492 0016 022D     		cmp	r5, #2
 4493 0018 15D1     		bne	.L226
1528:./Libraries/STM32_USB_Host_Library/Class/MTP/Src/usbh_mtp_ptp.c ****   {
1529:./Libraries/STM32_USB_Host_Library/Class/MTP/Src/usbh_mtp_ptp.c ****     case PTP_REQ_SEND:
1530:./Libraries/STM32_USB_Host_Library/Class/MTP/Src/usbh_mtp_ptp.c **** 
1531:./Libraries/STM32_USB_Host_Library/Class/MTP/Src/usbh_mtp_ptp.c ****       /* Set operation request type */
ARM GAS  /tmp/ccSE0mVF.s 			page 131


1532:./Libraries/STM32_USB_Host_Library/Class/MTP/Src/usbh_mtp_ptp.c ****       MTP_Handle->ptp.flags = PTP_DP_GETDATA;
1533:./Libraries/STM32_USB_Host_Library/Class/MTP/Src/usbh_mtp_ptp.c ****       MTP_Handle->ptp.data_ptr = (uint8_t *)(void *) &(MTP_Handle->ptp.data_container);
1534:./Libraries/STM32_USB_Host_Library/Class/MTP/Src/usbh_mtp_ptp.c ****       MTP_Handle->ptp.data_length = 0U;
1535:./Libraries/STM32_USB_Host_Library/Class/MTP/Src/usbh_mtp_ptp.c ****       MTP_Handle->ptp.data_packet_counter = 0U;
1536:./Libraries/STM32_USB_Host_Library/Class/MTP/Src/usbh_mtp_ptp.c ****       MTP_Handle->ptp.data_packet = 0U;
1537:./Libraries/STM32_USB_Host_Library/Class/MTP/Src/usbh_mtp_ptp.c **** 
1538:./Libraries/STM32_USB_Host_Library/Class/MTP/Src/usbh_mtp_ptp.c ****       /* set object control params */
1539:./Libraries/STM32_USB_Host_Library/Class/MTP/Src/usbh_mtp_ptp.c ****       MTP_Handle->ptp.object_ptr = object;
1540:./Libraries/STM32_USB_Host_Library/Class/MTP/Src/usbh_mtp_ptp.c **** 
1541:./Libraries/STM32_USB_Host_Library/Class/MTP/Src/usbh_mtp_ptp.c ****       /* Fill operation request params */
1542:./Libraries/STM32_USB_Host_Library/Class/MTP/Src/usbh_mtp_ptp.c ****       ptp_container.Code = PTP_OC_GetObject;
1543:./Libraries/STM32_USB_Host_Library/Class/MTP/Src/usbh_mtp_ptp.c ****       ptp_container.SessionID = MTP_Handle->ptp.session_id;
1544:./Libraries/STM32_USB_Host_Library/Class/MTP/Src/usbh_mtp_ptp.c ****       ptp_container.Transaction_ID = MTP_Handle->ptp.transaction_id++;
1545:./Libraries/STM32_USB_Host_Library/Class/MTP/Src/usbh_mtp_ptp.c ****       ptp_container.Param1 = handle;
1546:./Libraries/STM32_USB_Host_Library/Class/MTP/Src/usbh_mtp_ptp.c ****       ptp_container.Nparam = 1U;
1547:./Libraries/STM32_USB_Host_Library/Class/MTP/Src/usbh_mtp_ptp.c **** 
1548:./Libraries/STM32_USB_Host_Library/Class/MTP/Src/usbh_mtp_ptp.c **** 
1549:./Libraries/STM32_USB_Host_Library/Class/MTP/Src/usbh_mtp_ptp.c ****       /* convert request packet into USB raw packet*/
1550:./Libraries/STM32_USB_Host_Library/Class/MTP/Src/usbh_mtp_ptp.c ****       USBH_PTP_SendRequest(phost, &ptp_container);
1551:./Libraries/STM32_USB_Host_Library/Class/MTP/Src/usbh_mtp_ptp.c **** 
1552:./Libraries/STM32_USB_Host_Library/Class/MTP/Src/usbh_mtp_ptp.c ****       /* Setup State machine and start transfer */
1553:./Libraries/STM32_USB_Host_Library/Class/MTP/Src/usbh_mtp_ptp.c ****       MTP_Handle->ptp.state = PTP_OP_REQUEST_STATE;
1554:./Libraries/STM32_USB_Host_Library/Class/MTP/Src/usbh_mtp_ptp.c ****       MTP_Handle->ptp.req_state = PTP_REQ_WAIT;
1555:./Libraries/STM32_USB_Host_Library/Class/MTP/Src/usbh_mtp_ptp.c ****       status = USBH_BUSY;
1556:./Libraries/STM32_USB_Host_Library/Class/MTP/Src/usbh_mtp_ptp.c **** 
1557:./Libraries/STM32_USB_Host_Library/Class/MTP/Src/usbh_mtp_ptp.c **** #if (USBH_USE_OS == 1U)
1558:./Libraries/STM32_USB_Host_Library/Class/MTP/Src/usbh_mtp_ptp.c ****       phost->os_msg = (uint32_t)USBH_STATE_CHANGED_EVENT;
1559:./Libraries/STM32_USB_Host_Library/Class/MTP/Src/usbh_mtp_ptp.c **** #if (osCMSIS < 0x20000U)
1560:./Libraries/STM32_USB_Host_Library/Class/MTP/Src/usbh_mtp_ptp.c ****       (void)osMessagePut(phost->os_event, phost->os_msg, 0U);
1561:./Libraries/STM32_USB_Host_Library/Class/MTP/Src/usbh_mtp_ptp.c **** #else
1562:./Libraries/STM32_USB_Host_Library/Class/MTP/Src/usbh_mtp_ptp.c ****       (void)osMessageQueuePut(phost->os_event, &phost->os_msg, 0U, NULL);
1563:./Libraries/STM32_USB_Host_Library/Class/MTP/Src/usbh_mtp_ptp.c **** #endif
1564:./Libraries/STM32_USB_Host_Library/Class/MTP/Src/usbh_mtp_ptp.c **** #endif
1565:./Libraries/STM32_USB_Host_Library/Class/MTP/Src/usbh_mtp_ptp.c ****       break;
1566:./Libraries/STM32_USB_Host_Library/Class/MTP/Src/usbh_mtp_ptp.c **** 
1567:./Libraries/STM32_USB_Host_Library/Class/MTP/Src/usbh_mtp_ptp.c ****     case PTP_REQ_WAIT:
1568:./Libraries/STM32_USB_Host_Library/Class/MTP/Src/usbh_mtp_ptp.c ****       status = USBH_PTP_Process(phost);
 4494              		.loc 1 1568 7 is_stmt 1 view .LVU1640
 4495              		.loc 1 1568 16 is_stmt 0 view .LVU1641
 4496 001a FFF7FEFF 		bl	USBH_PTP_Process
 4497              	.LVL353:
1569:./Libraries/STM32_USB_Host_Library/Class/MTP/Src/usbh_mtp_ptp.c **** 
1570:./Libraries/STM32_USB_Host_Library/Class/MTP/Src/usbh_mtp_ptp.c ****       if (status == USBH_OK)
 4498              		.loc 1 1570 7 is_stmt 1 view .LVU1642
 4499              		.loc 1 1570 10 is_stmt 0 view .LVU1643
 4500 001e 0546     		mov	r5, r0
 4501 0020 68B9     		cbnz	r0, .L224
1571:./Libraries/STM32_USB_Host_Library/Class/MTP/Src/usbh_mtp_ptp.c ****       {
1572:./Libraries/STM32_USB_Host_Library/Class/MTP/Src/usbh_mtp_ptp.c ****         /* first packet is in the PTP data payload buffer */
1573:./Libraries/STM32_USB_Host_Library/Class/MTP/Src/usbh_mtp_ptp.c ****         if (MTP_Handle->ptp.iteration == 0U)
 4502              		.loc 1 1573 9 is_stmt 1 view .LVU1644
 4503              		.loc 1 1573 28 is_stmt 0 view .LVU1645
 4504 0022 42F2BC13 		movw	r3, #8636
 4505              		.loc 1 1573 12 view .LVU1646
 4506 0026 E358     		ldr	r3, [r4, r3]
 4507 0028 4BB9     		cbnz	r3, .L224
1574:./Libraries/STM32_USB_Host_Library/Class/MTP/Src/usbh_mtp_ptp.c ****         {
ARM GAS  /tmp/ccSE0mVF.s 			page 132


1575:./Libraries/STM32_USB_Host_Library/Class/MTP/Src/usbh_mtp_ptp.c ****           /* copy it to object */
1576:./Libraries/STM32_USB_Host_Library/Class/MTP/Src/usbh_mtp_ptp.c ****           USBH_memcpy(MTP_Handle->ptp.object_ptr,
 4508              		.loc 1 1576 11 is_stmt 1 view .LVU1647
 4509              		.loc 1 1576 38 is_stmt 0 view .LVU1648
 4510 002a 42F2C413 		movw	r3, #8644
 4511              		.loc 1 1576 11 view .LVU1649
 4512 002e 41F69051 		movw	r1, #7568
 4513 0032 4FF47D72 		mov	r2, #1012
 4514 0036 E058     		ldr	r0, [r4, r3]
 4515              	.LVL354:
 4516              		.loc 1 1576 11 view .LVU1650
 4517 0038 2144     		add	r1, r1, r4
 4518 003a FFF7FEFF 		bl	memcpy
 4519              	.LVL355:
 4520              	.L224:
1577:./Libraries/STM32_USB_Host_Library/Class/MTP/Src/usbh_mtp_ptp.c ****                       MTP_Handle->ptp.data_container.payload.data,
1578:./Libraries/STM32_USB_Host_Library/Class/MTP/Src/usbh_mtp_ptp.c ****                       PTP_USB_BULK_PAYLOAD_LEN_READ);
1579:./Libraries/STM32_USB_Host_Library/Class/MTP/Src/usbh_mtp_ptp.c ****         }
1580:./Libraries/STM32_USB_Host_Library/Class/MTP/Src/usbh_mtp_ptp.c ****       }
1581:./Libraries/STM32_USB_Host_Library/Class/MTP/Src/usbh_mtp_ptp.c ****       break;
1582:./Libraries/STM32_USB_Host_Library/Class/MTP/Src/usbh_mtp_ptp.c **** 
1583:./Libraries/STM32_USB_Host_Library/Class/MTP/Src/usbh_mtp_ptp.c ****     default:
1584:./Libraries/STM32_USB_Host_Library/Class/MTP/Src/usbh_mtp_ptp.c ****       break;
1585:./Libraries/STM32_USB_Host_Library/Class/MTP/Src/usbh_mtp_ptp.c ****   }
1586:./Libraries/STM32_USB_Host_Library/Class/MTP/Src/usbh_mtp_ptp.c ****   return status;
 4521              		.loc 1 1586 3 is_stmt 1 view .LVU1651
1587:./Libraries/STM32_USB_Host_Library/Class/MTP/Src/usbh_mtp_ptp.c **** }
 4522              		.loc 1 1587 1 is_stmt 0 view .LVU1652
 4523 003e 2846     		mov	r0, r5
 4524 0040 0BB0     		add	sp, sp, #44
 4525              	.LCFI103:
 4526              		.cfi_remember_state
 4527              		.cfi_def_cfa_offset 28
 4528              		@ sp needed
 4529 0042 BDE8F083 		pop	{r4, r5, r6, r7, r8, r9, pc}
 4530              	.LVL356:
 4531              	.L226:
 4532              	.LCFI104:
 4533              		.cfi_restore_state
1527:./Libraries/STM32_USB_Host_Library/Class/MTP/Src/usbh_mtp_ptp.c ****   {
 4534              		.loc 1 1527 3 view .LVU1653
 4535 0046 0125     		movs	r5, #1
 4536              	.LVL357:
1586:./Libraries/STM32_USB_Host_Library/Class/MTP/Src/usbh_mtp_ptp.c **** }
 4537              		.loc 1 1586 3 is_stmt 1 view .LVU1654
 4538              		.loc 1 1587 1 is_stmt 0 view .LVU1655
 4539 0048 2846     		mov	r0, r5
 4540              	.LVL358:
 4541              		.loc 1 1587 1 view .LVU1656
 4542 004a 0BB0     		add	sp, sp, #44
 4543              	.LCFI105:
 4544              		.cfi_remember_state
 4545              		.cfi_def_cfa_offset 28
 4546              		@ sp needed
 4547 004c BDE8F083 		pop	{r4, r5, r6, r7, r8, r9, pc}
 4548              	.LVL359:
 4549              	.L222:
ARM GAS  /tmp/ccSE0mVF.s 			page 133


 4550              	.LCFI106:
 4551              		.cfi_restore_state
1532:./Libraries/STM32_USB_Host_Library/Class/MTP/Src/usbh_mtp_ptp.c ****       MTP_Handle->ptp.data_ptr = (uint8_t *)(void *) &(MTP_Handle->ptp.data_container);
 4552              		.loc 1 1532 7 is_stmt 1 view .LVU1657
1533:./Libraries/STM32_USB_Host_Library/Class/MTP/Src/usbh_mtp_ptp.c ****       MTP_Handle->ptp.data_length = 0U;
 4553              		.loc 1 1533 54 is_stmt 0 view .LVU1658
 4554 0050 41F68453 		movw	r3, #7556
1544:./Libraries/STM32_USB_Host_Library/Class/MTP/Src/usbh_mtp_ptp.c ****       ptp_container.Param1 = handle;
 4555              		.loc 1 1544 53 view .LVU1659
 4556 0054 42F2A41C 		movw	ip, #8612
1533:./Libraries/STM32_USB_Host_Library/Class/MTP/Src/usbh_mtp_ptp.c ****       MTP_Handle->ptp.data_length = 0U;
 4557              		.loc 1 1533 32 view .LVU1660
 4558 0058 42F2B01E 		movw	lr, #8624
1543:./Libraries/STM32_USB_Host_Library/Class/MTP/Src/usbh_mtp_ptp.c ****       ptp_container.Transaction_ID = MTP_Handle->ptp.transaction_id++;
 4559              		.loc 1 1543 48 view .LVU1661
 4560 005c 42F2A818 		movw	r8, #8616
1533:./Libraries/STM32_USB_Host_Library/Class/MTP/Src/usbh_mtp_ptp.c ****       MTP_Handle->ptp.data_length = 0U;
 4561              		.loc 1 1533 54 view .LVU1662
 4562 0060 2344     		add	r3, r3, r4
1544:./Libraries/STM32_USB_Host_Library/Class/MTP/Src/usbh_mtp_ptp.c ****       ptp_container.Param1 = handle;
 4563              		.loc 1 1544 53 view .LVU1663
 4564 0062 54F80C70 		ldr	r7, [r4, ip]
1543:./Libraries/STM32_USB_Host_Library/Class/MTP/Src/usbh_mtp_ptp.c ****       ptp_container.Transaction_ID = MTP_Handle->ptp.transaction_id++;
 4565              		.loc 1 1543 31 view .LVU1664
 4566 0066 54F80880 		ldr	r8, [r4, r8]
1532:./Libraries/STM32_USB_Host_Library/Class/MTP/Src/usbh_mtp_ptp.c ****       MTP_Handle->ptp.data_ptr = (uint8_t *)(void *) &(MTP_Handle->ptp.data_container);
 4567              		.loc 1 1532 29 view .LVU1665
 4568 006a 4FF00209 		mov	r9, #2
1533:./Libraries/STM32_USB_Host_Library/Class/MTP/Src/usbh_mtp_ptp.c ****       MTP_Handle->ptp.data_length = 0U;
 4569              		.loc 1 1533 32 view .LVU1666
 4570 006e 44F80E30 		str	r3, [r4, lr]
1532:./Libraries/STM32_USB_Host_Library/Class/MTP/Src/usbh_mtp_ptp.c ****       MTP_Handle->ptp.data_ptr = (uint8_t *)(void *) &(MTP_Handle->ptp.data_container);
 4571              		.loc 1 1532 29 view .LVU1667
 4572 0072 42F2AC1E 		movw	lr, #8620
1544:./Libraries/STM32_USB_Host_Library/Class/MTP/Src/usbh_mtp_ptp.c ****       ptp_container.Param1 = handle;
 4573              		.loc 1 1544 68 view .LVU1668
 4574 0076 7B1C     		adds	r3, r7, #1
1545:./Libraries/STM32_USB_Host_Library/Class/MTP/Src/usbh_mtp_ptp.c ****       ptp_container.Nparam = 1U;
 4575              		.loc 1 1545 28 view .LVU1669
 4576 0078 0491     		str	r1, [sp, #16]
1532:./Libraries/STM32_USB_Host_Library/Class/MTP/Src/usbh_mtp_ptp.c ****       MTP_Handle->ptp.data_ptr = (uint8_t *)(void *) &(MTP_Handle->ptp.data_container);
 4577              		.loc 1 1532 29 view .LVU1670
 4578 007a 44F80E90 		str	r9, [r4, lr]
1533:./Libraries/STM32_USB_Host_Library/Class/MTP/Src/usbh_mtp_ptp.c ****       MTP_Handle->ptp.data_length = 0U;
 4579              		.loc 1 1533 7 is_stmt 1 view .LVU1671
1534:./Libraries/STM32_USB_Host_Library/Class/MTP/Src/usbh_mtp_ptp.c ****       MTP_Handle->ptp.data_packet_counter = 0U;
 4580              		.loc 1 1534 7 view .LVU1672
1534:./Libraries/STM32_USB_Host_Library/Class/MTP/Src/usbh_mtp_ptp.c ****       MTP_Handle->ptp.data_packet_counter = 0U;
 4581              		.loc 1 1534 35 is_stmt 0 view .LVU1673
 4582 007e 42F2B411 		movw	r1, #8628
 4583              	.LVL360:
1535:./Libraries/STM32_USB_Host_Library/Class/MTP/Src/usbh_mtp_ptp.c ****       MTP_Handle->ptp.data_packet = 0U;
 4584              		.loc 1 1535 43 view .LVU1674
 4585 0082 04F5075E 		add	lr, r4, #8640
1544:./Libraries/STM32_USB_Host_Library/Class/MTP/Src/usbh_mtp_ptp.c ****       ptp_container.Param1 = handle;
 4586              		.loc 1 1544 36 view .LVU1675
 4587 0086 0397     		str	r7, [sp, #12]
ARM GAS  /tmp/ccSE0mVF.s 			page 134


1534:./Libraries/STM32_USB_Host_Library/Class/MTP/Src/usbh_mtp_ptp.c ****       MTP_Handle->ptp.data_packet_counter = 0U;
 4588              		.loc 1 1534 35 view .LVU1676
 4589 0088 0027     		movs	r7, #0
 4590 008a 0646     		mov	r6, r0
1546:./Libraries/STM32_USB_Host_Library/Class/MTP/Src/usbh_mtp_ptp.c **** 
 4591              		.loc 1 1546 28 view .LVU1677
 4592 008c 8DF82450 		strb	r5, [sp, #36]
1534:./Libraries/STM32_USB_Host_Library/Class/MTP/Src/usbh_mtp_ptp.c ****       MTP_Handle->ptp.data_packet_counter = 0U;
 4593              		.loc 1 1534 35 view .LVU1678
 4594 0090 6750     		str	r7, [r4, r1]
1535:./Libraries/STM32_USB_Host_Library/Class/MTP/Src/usbh_mtp_ptp.c ****       MTP_Handle->ptp.data_packet = 0U;
 4595              		.loc 1 1535 7 is_stmt 1 view .LVU1679
1536:./Libraries/STM32_USB_Host_Library/Class/MTP/Src/usbh_mtp_ptp.c **** 
 4596              		.loc 1 1536 35 is_stmt 0 view .LVU1680
 4597 0092 42F2B811 		movw	r1, #8632
1535:./Libraries/STM32_USB_Host_Library/Class/MTP/Src/usbh_mtp_ptp.c ****       MTP_Handle->ptp.data_packet = 0U;
 4598              		.loc 1 1535 43 view .LVU1681
 4599 0096 CEF80070 		str	r7, [lr]
1536:./Libraries/STM32_USB_Host_Library/Class/MTP/Src/usbh_mtp_ptp.c **** 
 4600              		.loc 1 1536 7 is_stmt 1 view .LVU1682
1539:./Libraries/STM32_USB_Host_Library/Class/MTP/Src/usbh_mtp_ptp.c **** 
 4601              		.loc 1 1539 34 is_stmt 0 view .LVU1683
 4602 009a 42F2C41E 		movw	lr, #8644
1544:./Libraries/STM32_USB_Host_Library/Class/MTP/Src/usbh_mtp_ptp.c ****       ptp_container.Param1 = handle;
 4603              		.loc 1 1544 68 view .LVU1684
 4604 009e 44F80C30 		str	r3, [r4, ip]
1542:./Libraries/STM32_USB_Host_Library/Class/MTP/Src/usbh_mtp_ptp.c ****       ptp_container.SessionID = MTP_Handle->ptp.session_id;
 4605              		.loc 1 1542 26 view .LVU1685
 4606 00a2 41F20903 		movw	r3, #4105
1536:./Libraries/STM32_USB_Host_Library/Class/MTP/Src/usbh_mtp_ptp.c **** 
 4607              		.loc 1 1536 35 view .LVU1686
 4608 00a6 6750     		str	r7, [r4, r1]
1539:./Libraries/STM32_USB_Host_Library/Class/MTP/Src/usbh_mtp_ptp.c **** 
 4609              		.loc 1 1539 7 is_stmt 1 view .LVU1687
1550:./Libraries/STM32_USB_Host_Library/Class/MTP/Src/usbh_mtp_ptp.c **** 
 4610              		.loc 1 1550 7 is_stmt 0 view .LVU1688
 4611 00a8 01A9     		add	r1, sp, #4
1539:./Libraries/STM32_USB_Host_Library/Class/MTP/Src/usbh_mtp_ptp.c **** 
 4612              		.loc 1 1539 34 view .LVU1689
 4613 00aa 44F80E20 		str	r2, [r4, lr]
1542:./Libraries/STM32_USB_Host_Library/Class/MTP/Src/usbh_mtp_ptp.c ****       ptp_container.SessionID = MTP_Handle->ptp.session_id;
 4614              		.loc 1 1542 7 is_stmt 1 view .LVU1690
1542:./Libraries/STM32_USB_Host_Library/Class/MTP/Src/usbh_mtp_ptp.c ****       ptp_container.SessionID = MTP_Handle->ptp.session_id;
 4615              		.loc 1 1542 26 is_stmt 0 view .LVU1691
 4616 00ae ADF80430 		strh	r3, [sp, #4]	@ movhi
1543:./Libraries/STM32_USB_Host_Library/Class/MTP/Src/usbh_mtp_ptp.c ****       ptp_container.Transaction_ID = MTP_Handle->ptp.transaction_id++;
 4617              		.loc 1 1543 7 is_stmt 1 view .LVU1692
1544:./Libraries/STM32_USB_Host_Library/Class/MTP/Src/usbh_mtp_ptp.c ****       ptp_container.Param1 = handle;
 4618              		.loc 1 1544 7 view .LVU1693
1545:./Libraries/STM32_USB_Host_Library/Class/MTP/Src/usbh_mtp_ptp.c ****       ptp_container.Nparam = 1U;
 4619              		.loc 1 1545 7 view .LVU1694
1546:./Libraries/STM32_USB_Host_Library/Class/MTP/Src/usbh_mtp_ptp.c **** 
 4620              		.loc 1 1546 7 view .LVU1695
1550:./Libraries/STM32_USB_Host_Library/Class/MTP/Src/usbh_mtp_ptp.c **** 
 4621              		.loc 1 1550 7 view .LVU1696
1543:./Libraries/STM32_USB_Host_Library/Class/MTP/Src/usbh_mtp_ptp.c ****       ptp_container.Transaction_ID = MTP_Handle->ptp.transaction_id++;
 4622              		.loc 1 1543 31 is_stmt 0 view .LVU1697
ARM GAS  /tmp/ccSE0mVF.s 			page 135


 4623 00b2 CDF80880 		str	r8, [sp, #8]
1550:./Libraries/STM32_USB_Host_Library/Class/MTP/Src/usbh_mtp_ptp.c **** 
 4624              		.loc 1 1550 7 view .LVU1698
 4625 00b6 FFF7FEFF 		bl	USBH_PTP_SendRequest
 4626              	.LVL361:
1553:./Libraries/STM32_USB_Host_Library/Class/MTP/Src/usbh_mtp_ptp.c ****       MTP_Handle->ptp.req_state = PTP_REQ_WAIT;
 4627              		.loc 1 1553 7 is_stmt 1 view .LVU1699
1554:./Libraries/STM32_USB_Host_Library/Class/MTP/Src/usbh_mtp_ptp.c ****       status = USBH_BUSY;
 4628              		.loc 1 1554 7 view .LVU1700
1553:./Libraries/STM32_USB_Host_Library/Class/MTP/Src/usbh_mtp_ptp.c ****       MTP_Handle->ptp.req_state = PTP_REQ_WAIT;
 4629              		.loc 1 1553 29 is_stmt 0 view .LVU1701
 4630 00ba 04F5EB52 		add	r2, r4, #7520
 4631 00be 40F20121 		movw	r1, #513
1558:./Libraries/STM32_USB_Host_Library/Class/MTP/Src/usbh_mtp_ptp.c **** #if (osCMSIS < 0x20000U)
 4632              		.loc 1 1558 21 view .LVU1702
 4633 00c2 0524     		movs	r4, #5
 4634              	.LVL362:
1562:./Libraries/STM32_USB_Host_Library/Class/MTP/Src/usbh_mtp_ptp.c **** #endif
 4635              		.loc 1 1562 13 view .LVU1703
 4636 00c4 3B46     		mov	r3, r7
1553:./Libraries/STM32_USB_Host_Library/Class/MTP/Src/usbh_mtp_ptp.c ****       MTP_Handle->ptp.req_state = PTP_REQ_WAIT;
 4637              		.loc 1 1553 29 view .LVU1704
 4638 00c6 1180     		strh	r1, [r2]	@ movhi
1555:./Libraries/STM32_USB_Host_Library/Class/MTP/Src/usbh_mtp_ptp.c **** 
 4639              		.loc 1 1555 7 is_stmt 1 view .LVU1705
1558:./Libraries/STM32_USB_Host_Library/Class/MTP/Src/usbh_mtp_ptp.c **** #if (osCMSIS < 0x20000U)
 4640              		.loc 1 1558 7 view .LVU1706
1562:./Libraries/STM32_USB_Host_Library/Class/MTP/Src/usbh_mtp_ptp.c **** #endif
 4641              		.loc 1 1562 13 is_stmt 0 view .LVU1707
 4642 00c8 3A46     		mov	r2, r7
 4643              	.LVL363:
1562:./Libraries/STM32_USB_Host_Library/Class/MTP/Src/usbh_mtp_ptp.c **** #endif
 4644              		.loc 1 1562 13 view .LVU1708
 4645 00ca D6F8D804 		ldr	r0, [r6, #1240]
 4646 00ce 06F59C61 		add	r1, r6, #1248
1558:./Libraries/STM32_USB_Host_Library/Class/MTP/Src/usbh_mtp_ptp.c **** #if (osCMSIS < 0x20000U)
 4647              		.loc 1 1558 21 view .LVU1709
 4648 00d2 C6F8E044 		str	r4, [r6, #1248]
1562:./Libraries/STM32_USB_Host_Library/Class/MTP/Src/usbh_mtp_ptp.c **** #endif
 4649              		.loc 1 1562 7 is_stmt 1 view .LVU1710
1562:./Libraries/STM32_USB_Host_Library/Class/MTP/Src/usbh_mtp_ptp.c **** #endif
 4650              		.loc 1 1562 13 is_stmt 0 view .LVU1711
 4651 00d6 FFF7FEFF 		bl	osMessageQueuePut
 4652              	.LVL364:
1565:./Libraries/STM32_USB_Host_Library/Class/MTP/Src/usbh_mtp_ptp.c **** 
 4653              		.loc 1 1565 7 is_stmt 1 view .LVU1712
1586:./Libraries/STM32_USB_Host_Library/Class/MTP/Src/usbh_mtp_ptp.c **** }
 4654              		.loc 1 1586 3 view .LVU1713
 4655              		.loc 1 1587 1 is_stmt 0 view .LVU1714
 4656 00da 2846     		mov	r0, r5
 4657 00dc 0BB0     		add	sp, sp, #44
 4658              	.LCFI107:
 4659              		.cfi_def_cfa_offset 28
 4660              		@ sp needed
 4661 00de BDE8F083 		pop	{r4, r5, r6, r7, r8, r9, pc}
 4662              		.loc 1 1587 1 view .LVU1715
 4663              		.cfi_endproc
ARM GAS  /tmp/ccSE0mVF.s 			page 136


 4664              	.LFE362:
 4666 00e2 00BF     		.section	.text.USBH_PTP_GetPartialObject,"ax",%progbits
 4667              		.align	1
 4668              		.p2align 2,,3
 4669              		.global	USBH_PTP_GetPartialObject
 4670              		.syntax unified
 4671              		.thumb
 4672              		.thumb_func
 4673              		.fpu fpv5-d16
 4675              	USBH_PTP_GetPartialObject:
 4676              	.LVL365:
 4677              	.LFB363:
1588:./Libraries/STM32_USB_Host_Library/Class/MTP/Src/usbh_mtp_ptp.c **** 
1589:./Libraries/STM32_USB_Host_Library/Class/MTP/Src/usbh_mtp_ptp.c **** /**
1590:./Libraries/STM32_USB_Host_Library/Class/MTP/Src/usbh_mtp_ptp.c ****   * @brief  USBH_PTP_GetPartialObject
1591:./Libraries/STM32_USB_Host_Library/Class/MTP/Src/usbh_mtp_ptp.c ****   *         Gets object partially
1592:./Libraries/STM32_USB_Host_Library/Class/MTP/Src/usbh_mtp_ptp.c ****   * @param  phost: Host handle
1593:./Libraries/STM32_USB_Host_Library/Class/MTP/Src/usbh_mtp_ptp.c ****   * @param  dev_info: Device info structure
1594:./Libraries/STM32_USB_Host_Library/Class/MTP/Src/usbh_mtp_ptp.c ****   * @retval USBH Status
1595:./Libraries/STM32_USB_Host_Library/Class/MTP/Src/usbh_mtp_ptp.c ****   */
1596:./Libraries/STM32_USB_Host_Library/Class/MTP/Src/usbh_mtp_ptp.c **** USBH_StatusTypeDef USBH_PTP_GetPartialObject(USBH_HandleTypeDef *phost,
1597:./Libraries/STM32_USB_Host_Library/Class/MTP/Src/usbh_mtp_ptp.c ****                                              uint32_t handle,
1598:./Libraries/STM32_USB_Host_Library/Class/MTP/Src/usbh_mtp_ptp.c ****                                              uint32_t offset,
1599:./Libraries/STM32_USB_Host_Library/Class/MTP/Src/usbh_mtp_ptp.c ****                                              uint32_t maxbytes,
1600:./Libraries/STM32_USB_Host_Library/Class/MTP/Src/usbh_mtp_ptp.c ****                                              uint8_t *object,
1601:./Libraries/STM32_USB_Host_Library/Class/MTP/Src/usbh_mtp_ptp.c ****                                              uint32_t *len)
1602:./Libraries/STM32_USB_Host_Library/Class/MTP/Src/usbh_mtp_ptp.c **** {
 4678              		.loc 1 1602 1 is_stmt 1 view -0
 4679              		.cfi_startproc
 4680              		@ args = 8, pretend = 0, frame = 40
 4681              		@ frame_needed = 0, uses_anonymous_args = 0
1603:./Libraries/STM32_USB_Host_Library/Class/MTP/Src/usbh_mtp_ptp.c ****   USBH_StatusTypeDef status = USBH_BUSY;
 4682              		.loc 1 1603 3 view .LVU1717
1604:./Libraries/STM32_USB_Host_Library/Class/MTP/Src/usbh_mtp_ptp.c ****   MTP_HandleTypeDef *MTP_Handle = (MTP_HandleTypeDef *)phost->pActiveClass->pData;
 4683              		.loc 1 1604 3 view .LVU1718
1602:./Libraries/STM32_USB_Host_Library/Class/MTP/Src/usbh_mtp_ptp.c ****   USBH_StatusTypeDef status = USBH_BUSY;
 4684              		.loc 1 1602 1 is_stmt 0 view .LVU1719
 4685 0000 2DE9F041 		push	{r4, r5, r6, r7, r8, lr}
 4686              	.LCFI108:
 4687              		.cfi_def_cfa_offset 24
 4688              		.cfi_offset 4, -24
 4689              		.cfi_offset 5, -20
 4690              		.cfi_offset 6, -16
 4691              		.cfi_offset 7, -12
 4692              		.cfi_offset 8, -8
 4693              		.cfi_offset 14, -4
 4694              		.loc 1 1604 22 view .LVU1720
 4695 0004 D0F87C44 		ldr	r4, [r0, #1148]
1605:./Libraries/STM32_USB_Host_Library/Class/MTP/Src/usbh_mtp_ptp.c ****   PTP_ContainerTypedef ptp_container;
1606:./Libraries/STM32_USB_Host_Library/Class/MTP/Src/usbh_mtp_ptp.c **** 
1607:./Libraries/STM32_USB_Host_Library/Class/MTP/Src/usbh_mtp_ptp.c ****   switch (MTP_Handle->ptp.req_state)
 4696              		.loc 1 1607 26 view .LVU1721
 4697 0008 41F66155 		movw	r5, #7521
1602:./Libraries/STM32_USB_Host_Library/Class/MTP/Src/usbh_mtp_ptp.c ****   USBH_StatusTypeDef status = USBH_BUSY;
 4698              		.loc 1 1602 1 view .LVU1722
 4699 000c 8AB0     		sub	sp, sp, #40
 4700              	.LCFI109:
ARM GAS  /tmp/ccSE0mVF.s 			page 137


 4701              		.cfi_def_cfa_offset 64
1604:./Libraries/STM32_USB_Host_Library/Class/MTP/Src/usbh_mtp_ptp.c ****   PTP_ContainerTypedef ptp_container;
 4702              		.loc 1 1604 22 view .LVU1723
 4703 000e E469     		ldr	r4, [r4, #28]
 4704              	.LVL366:
1605:./Libraries/STM32_USB_Host_Library/Class/MTP/Src/usbh_mtp_ptp.c ****   PTP_ContainerTypedef ptp_container;
 4705              		.loc 1 1605 3 is_stmt 1 view .LVU1724
 4706              		.loc 1 1607 3 view .LVU1725
 4707              		.loc 1 1607 26 is_stmt 0 view .LVU1726
 4708 0010 655D     		ldrb	r5, [r4, r5]	@ zero_extendqisi2
 4709              		.loc 1 1607 3 view .LVU1727
 4710 0012 012D     		cmp	r5, #1
 4711 0014 1FD0     		beq	.L228
 4712 0016 022D     		cmp	r5, #2
 4713 0018 18D1     		bne	.L232
1608:./Libraries/STM32_USB_Host_Library/Class/MTP/Src/usbh_mtp_ptp.c ****   {
1609:./Libraries/STM32_USB_Host_Library/Class/MTP/Src/usbh_mtp_ptp.c ****     case PTP_REQ_SEND:
1610:./Libraries/STM32_USB_Host_Library/Class/MTP/Src/usbh_mtp_ptp.c ****       /* Set operation request type */
1611:./Libraries/STM32_USB_Host_Library/Class/MTP/Src/usbh_mtp_ptp.c ****       MTP_Handle->ptp.flags = PTP_DP_GETDATA;
1612:./Libraries/STM32_USB_Host_Library/Class/MTP/Src/usbh_mtp_ptp.c ****       MTP_Handle->ptp.data_ptr = (uint8_t *)(void *) &(MTP_Handle->ptp.data_container);
1613:./Libraries/STM32_USB_Host_Library/Class/MTP/Src/usbh_mtp_ptp.c ****       MTP_Handle->ptp.data_length = 0U;
1614:./Libraries/STM32_USB_Host_Library/Class/MTP/Src/usbh_mtp_ptp.c ****       MTP_Handle->ptp.data_packet_counter = 0U;
1615:./Libraries/STM32_USB_Host_Library/Class/MTP/Src/usbh_mtp_ptp.c ****       MTP_Handle->ptp.data_packet = 0U;
1616:./Libraries/STM32_USB_Host_Library/Class/MTP/Src/usbh_mtp_ptp.c **** 
1617:./Libraries/STM32_USB_Host_Library/Class/MTP/Src/usbh_mtp_ptp.c ****       /* set object control params */
1618:./Libraries/STM32_USB_Host_Library/Class/MTP/Src/usbh_mtp_ptp.c ****       MTP_Handle->ptp.object_ptr = object;
1619:./Libraries/STM32_USB_Host_Library/Class/MTP/Src/usbh_mtp_ptp.c **** 
1620:./Libraries/STM32_USB_Host_Library/Class/MTP/Src/usbh_mtp_ptp.c ****       /* Fill operation request params */
1621:./Libraries/STM32_USB_Host_Library/Class/MTP/Src/usbh_mtp_ptp.c ****       ptp_container.Code = PTP_OC_GetPartialObject;
1622:./Libraries/STM32_USB_Host_Library/Class/MTP/Src/usbh_mtp_ptp.c ****       ptp_container.SessionID = MTP_Handle->ptp.session_id;
1623:./Libraries/STM32_USB_Host_Library/Class/MTP/Src/usbh_mtp_ptp.c ****       ptp_container.Transaction_ID = MTP_Handle->ptp.transaction_id++;
1624:./Libraries/STM32_USB_Host_Library/Class/MTP/Src/usbh_mtp_ptp.c ****       ptp_container.Param1 = handle;
1625:./Libraries/STM32_USB_Host_Library/Class/MTP/Src/usbh_mtp_ptp.c ****       ptp_container.Param2 = offset;
1626:./Libraries/STM32_USB_Host_Library/Class/MTP/Src/usbh_mtp_ptp.c ****       ptp_container.Param3 = maxbytes;
1627:./Libraries/STM32_USB_Host_Library/Class/MTP/Src/usbh_mtp_ptp.c ****       ptp_container.Nparam = 3U;
1628:./Libraries/STM32_USB_Host_Library/Class/MTP/Src/usbh_mtp_ptp.c **** 
1629:./Libraries/STM32_USB_Host_Library/Class/MTP/Src/usbh_mtp_ptp.c ****       /* convert request packet into USB raw packet*/
1630:./Libraries/STM32_USB_Host_Library/Class/MTP/Src/usbh_mtp_ptp.c ****       USBH_PTP_SendRequest(phost, &ptp_container);
1631:./Libraries/STM32_USB_Host_Library/Class/MTP/Src/usbh_mtp_ptp.c **** 
1632:./Libraries/STM32_USB_Host_Library/Class/MTP/Src/usbh_mtp_ptp.c ****       /* Setup State machine and start transfer */
1633:./Libraries/STM32_USB_Host_Library/Class/MTP/Src/usbh_mtp_ptp.c ****       MTP_Handle->ptp.state = PTP_OP_REQUEST_STATE;
1634:./Libraries/STM32_USB_Host_Library/Class/MTP/Src/usbh_mtp_ptp.c ****       MTP_Handle->ptp.req_state = PTP_REQ_WAIT;
1635:./Libraries/STM32_USB_Host_Library/Class/MTP/Src/usbh_mtp_ptp.c ****       status = USBH_BUSY;
1636:./Libraries/STM32_USB_Host_Library/Class/MTP/Src/usbh_mtp_ptp.c **** 
1637:./Libraries/STM32_USB_Host_Library/Class/MTP/Src/usbh_mtp_ptp.c **** #if (USBH_USE_OS == 1U)
1638:./Libraries/STM32_USB_Host_Library/Class/MTP/Src/usbh_mtp_ptp.c ****       phost->os_msg = (uint32_t)USBH_STATE_CHANGED_EVENT;
1639:./Libraries/STM32_USB_Host_Library/Class/MTP/Src/usbh_mtp_ptp.c **** #if (osCMSIS < 0x20000U)
1640:./Libraries/STM32_USB_Host_Library/Class/MTP/Src/usbh_mtp_ptp.c ****       (void)osMessagePut(phost->os_event, phost->os_msg, 0U);
1641:./Libraries/STM32_USB_Host_Library/Class/MTP/Src/usbh_mtp_ptp.c **** #else
1642:./Libraries/STM32_USB_Host_Library/Class/MTP/Src/usbh_mtp_ptp.c ****       (void)osMessageQueuePut(phost->os_event, &phost->os_msg, 0U, NULL);
1643:./Libraries/STM32_USB_Host_Library/Class/MTP/Src/usbh_mtp_ptp.c **** #endif
1644:./Libraries/STM32_USB_Host_Library/Class/MTP/Src/usbh_mtp_ptp.c **** #endif
1645:./Libraries/STM32_USB_Host_Library/Class/MTP/Src/usbh_mtp_ptp.c ****       break;
1646:./Libraries/STM32_USB_Host_Library/Class/MTP/Src/usbh_mtp_ptp.c **** 
1647:./Libraries/STM32_USB_Host_Library/Class/MTP/Src/usbh_mtp_ptp.c ****     case PTP_REQ_WAIT:
1648:./Libraries/STM32_USB_Host_Library/Class/MTP/Src/usbh_mtp_ptp.c ****       status = USBH_PTP_Process(phost);
 4714              		.loc 1 1648 7 is_stmt 1 view .LVU1728
ARM GAS  /tmp/ccSE0mVF.s 			page 138


 4715              		.loc 1 1648 16 is_stmt 0 view .LVU1729
 4716 001a FFF7FEFF 		bl	USBH_PTP_Process
 4717              	.LVL367:
1649:./Libraries/STM32_USB_Host_Library/Class/MTP/Src/usbh_mtp_ptp.c **** 
1650:./Libraries/STM32_USB_Host_Library/Class/MTP/Src/usbh_mtp_ptp.c ****       if (status == USBH_OK)
 4718              		.loc 1 1650 7 is_stmt 1 view .LVU1730
 4719              		.loc 1 1650 10 is_stmt 0 view .LVU1731
 4720 001e 0546     		mov	r5, r0
 4721 0020 80B9     		cbnz	r0, .L230
1651:./Libraries/STM32_USB_Host_Library/Class/MTP/Src/usbh_mtp_ptp.c ****       {
1652:./Libraries/STM32_USB_Host_Library/Class/MTP/Src/usbh_mtp_ptp.c ****         *len = MTP_Handle->ptp.resp_container.param1;
 4722              		.loc 1 1652 9 is_stmt 1 view .LVU1732
 4723              		.loc 1 1652 46 is_stmt 0 view .LVU1733
 4724 0022 42F29012 		movw	r2, #8592
1653:./Libraries/STM32_USB_Host_Library/Class/MTP/Src/usbh_mtp_ptp.c ****         /* first packet is in the PTP data payload buffer */
1654:./Libraries/STM32_USB_Host_Library/Class/MTP/Src/usbh_mtp_ptp.c ****         if (MTP_Handle->ptp.iteration == 0U)
 4725              		.loc 1 1654 28 view .LVU1734
 4726 0026 42F2BC13 		movw	r3, #8636
1652:./Libraries/STM32_USB_Host_Library/Class/MTP/Src/usbh_mtp_ptp.c ****         /* first packet is in the PTP data payload buffer */
 4727              		.loc 1 1652 14 view .LVU1735
 4728 002a 1199     		ldr	r1, [sp, #68]
1652:./Libraries/STM32_USB_Host_Library/Class/MTP/Src/usbh_mtp_ptp.c ****         /* first packet is in the PTP data payload buffer */
 4729              		.loc 1 1652 46 view .LVU1736
 4730 002c A258     		ldr	r2, [r4, r2]
1652:./Libraries/STM32_USB_Host_Library/Class/MTP/Src/usbh_mtp_ptp.c ****         /* first packet is in the PTP data payload buffer */
 4731              		.loc 1 1652 14 view .LVU1737
 4732 002e 0A60     		str	r2, [r1]
 4733              		.loc 1 1654 9 is_stmt 1 view .LVU1738
 4734              		.loc 1 1654 12 is_stmt 0 view .LVU1739
 4735 0030 E358     		ldr	r3, [r4, r3]
 4736 0032 3BB9     		cbnz	r3, .L230
1655:./Libraries/STM32_USB_Host_Library/Class/MTP/Src/usbh_mtp_ptp.c ****         {
1656:./Libraries/STM32_USB_Host_Library/Class/MTP/Src/usbh_mtp_ptp.c ****           /* copy it to object */
1657:./Libraries/STM32_USB_Host_Library/Class/MTP/Src/usbh_mtp_ptp.c ****           USBH_memcpy(MTP_Handle->ptp.object_ptr,
 4737              		.loc 1 1657 11 is_stmt 1 view .LVU1740
 4738              		.loc 1 1657 38 is_stmt 0 view .LVU1741
 4739 0034 42F2C413 		movw	r3, #8644
 4740              		.loc 1 1657 11 view .LVU1742
 4741 0038 41F69051 		movw	r1, #7568
 4742 003c E058     		ldr	r0, [r4, r3]
 4743              	.LVL368:
 4744              		.loc 1 1657 11 view .LVU1743
 4745 003e 2144     		add	r1, r1, r4
 4746 0040 FFF7FEFF 		bl	memcpy
 4747              	.LVL369:
 4748              	.L230:
1658:./Libraries/STM32_USB_Host_Library/Class/MTP/Src/usbh_mtp_ptp.c ****                       MTP_Handle->ptp.data_container.payload.data, *len);
1659:./Libraries/STM32_USB_Host_Library/Class/MTP/Src/usbh_mtp_ptp.c ****         }
1660:./Libraries/STM32_USB_Host_Library/Class/MTP/Src/usbh_mtp_ptp.c ****       }
1661:./Libraries/STM32_USB_Host_Library/Class/MTP/Src/usbh_mtp_ptp.c ****       break;
1662:./Libraries/STM32_USB_Host_Library/Class/MTP/Src/usbh_mtp_ptp.c **** 
1663:./Libraries/STM32_USB_Host_Library/Class/MTP/Src/usbh_mtp_ptp.c ****     default:
1664:./Libraries/STM32_USB_Host_Library/Class/MTP/Src/usbh_mtp_ptp.c ****       break;
1665:./Libraries/STM32_USB_Host_Library/Class/MTP/Src/usbh_mtp_ptp.c ****   }
1666:./Libraries/STM32_USB_Host_Library/Class/MTP/Src/usbh_mtp_ptp.c ****   return status;
 4749              		.loc 1 1666 3 is_stmt 1 view .LVU1744
1667:./Libraries/STM32_USB_Host_Library/Class/MTP/Src/usbh_mtp_ptp.c **** }
ARM GAS  /tmp/ccSE0mVF.s 			page 139


 4750              		.loc 1 1667 1 is_stmt 0 view .LVU1745
 4751 0044 2846     		mov	r0, r5
 4752 0046 0AB0     		add	sp, sp, #40
 4753              	.LCFI110:
 4754              		.cfi_remember_state
 4755              		.cfi_def_cfa_offset 24
 4756              		@ sp needed
 4757 0048 BDE8F081 		pop	{r4, r5, r6, r7, r8, pc}
 4758              	.LVL370:
 4759              	.L232:
 4760              	.LCFI111:
 4761              		.cfi_restore_state
1607:./Libraries/STM32_USB_Host_Library/Class/MTP/Src/usbh_mtp_ptp.c ****   {
 4762              		.loc 1 1607 3 view .LVU1746
 4763 004c 0125     		movs	r5, #1
 4764              	.LVL371:
1666:./Libraries/STM32_USB_Host_Library/Class/MTP/Src/usbh_mtp_ptp.c **** }
 4765              		.loc 1 1666 3 is_stmt 1 view .LVU1747
 4766              		.loc 1 1667 1 is_stmt 0 view .LVU1748
 4767 004e 2846     		mov	r0, r5
 4768              	.LVL372:
 4769              		.loc 1 1667 1 view .LVU1749
 4770 0050 0AB0     		add	sp, sp, #40
 4771              	.LCFI112:
 4772              		.cfi_remember_state
 4773              		.cfi_def_cfa_offset 24
 4774              		@ sp needed
 4775 0052 BDE8F081 		pop	{r4, r5, r6, r7, r8, pc}
 4776              	.LVL373:
 4777              	.L228:
 4778              	.LCFI113:
 4779              		.cfi_restore_state
1611:./Libraries/STM32_USB_Host_Library/Class/MTP/Src/usbh_mtp_ptp.c ****       MTP_Handle->ptp.data_ptr = (uint8_t *)(void *) &(MTP_Handle->ptp.data_container);
 4780              		.loc 1 1611 7 is_stmt 1 view .LVU1750
1612:./Libraries/STM32_USB_Host_Library/Class/MTP/Src/usbh_mtp_ptp.c ****       MTP_Handle->ptp.data_length = 0U;
 4781              		.loc 1 1612 54 is_stmt 0 view .LVU1751
 4782 0056 41F68457 		movw	r7, #7556
1623:./Libraries/STM32_USB_Host_Library/Class/MTP/Src/usbh_mtp_ptp.c ****       ptp_container.Param1 = handle;
 4783              		.loc 1 1623 53 view .LVU1752
 4784 005a 42F2A41C 		movw	ip, #8612
1612:./Libraries/STM32_USB_Host_Library/Class/MTP/Src/usbh_mtp_ptp.c ****       MTP_Handle->ptp.data_length = 0U;
 4785              		.loc 1 1612 32 view .LVU1753
 4786 005e 42F2B018 		movw	r8, #8624
1622:./Libraries/STM32_USB_Host_Library/Class/MTP/Src/usbh_mtp_ptp.c ****       ptp_container.Transaction_ID = MTP_Handle->ptp.transaction_id++;
 4787              		.loc 1 1622 48 view .LVU1754
 4788 0062 42F2A81E 		movw	lr, #8616
1612:./Libraries/STM32_USB_Host_Library/Class/MTP/Src/usbh_mtp_ptp.c ****       MTP_Handle->ptp.data_length = 0U;
 4789              		.loc 1 1612 54 view .LVU1755
 4790 0066 2744     		add	r7, r7, r4
1624:./Libraries/STM32_USB_Host_Library/Class/MTP/Src/usbh_mtp_ptp.c ****       ptp_container.Param2 = offset;
 4791              		.loc 1 1624 28 view .LVU1756
 4792 0068 0491     		str	r1, [sp, #16]
1622:./Libraries/STM32_USB_Host_Library/Class/MTP/Src/usbh_mtp_ptp.c ****       ptp_container.Transaction_ID = MTP_Handle->ptp.transaction_id++;
 4793              		.loc 1 1622 31 view .LVU1757
 4794 006a 54F80EE0 		ldr	lr, [r4, lr]
 4795 006e 0646     		mov	r6, r0
1623:./Libraries/STM32_USB_Host_Library/Class/MTP/Src/usbh_mtp_ptp.c ****       ptp_container.Param1 = handle;
ARM GAS  /tmp/ccSE0mVF.s 			page 140


 4796              		.loc 1 1623 53 view .LVU1758
 4797 0070 54F80C10 		ldr	r1, [r4, ip]
 4798              	.LVL374:
1626:./Libraries/STM32_USB_Host_Library/Class/MTP/Src/usbh_mtp_ptp.c ****       ptp_container.Nparam = 3U;
 4799              		.loc 1 1626 28 view .LVU1759
 4800 0074 0693     		str	r3, [sp, #24]
1611:./Libraries/STM32_USB_Host_Library/Class/MTP/Src/usbh_mtp_ptp.c ****       MTP_Handle->ptp.data_ptr = (uint8_t *)(void *) &(MTP_Handle->ptp.data_container);
 4801              		.loc 1 1611 29 view .LVU1760
 4802 0076 0223     		movs	r3, #2
 4803              	.LVL375:
1612:./Libraries/STM32_USB_Host_Library/Class/MTP/Src/usbh_mtp_ptp.c ****       MTP_Handle->ptp.data_length = 0U;
 4804              		.loc 1 1612 32 view .LVU1761
 4805 0078 44F80870 		str	r7, [r4, r8]
1611:./Libraries/STM32_USB_Host_Library/Class/MTP/Src/usbh_mtp_ptp.c ****       MTP_Handle->ptp.data_ptr = (uint8_t *)(void *) &(MTP_Handle->ptp.data_container);
 4806              		.loc 1 1611 29 view .LVU1762
 4807 007c 42F2AC17 		movw	r7, #8620
1625:./Libraries/STM32_USB_Host_Library/Class/MTP/Src/usbh_mtp_ptp.c ****       ptp_container.Param3 = maxbytes;
 4808              		.loc 1 1625 28 view .LVU1763
 4809 0080 0592     		str	r2, [sp, #20]
1613:./Libraries/STM32_USB_Host_Library/Class/MTP/Src/usbh_mtp_ptp.c ****       MTP_Handle->ptp.data_packet_counter = 0U;
 4810              		.loc 1 1613 35 view .LVU1764
 4811 0082 42F2B412 		movw	r2, #8628
 4812              	.LVL376:
1611:./Libraries/STM32_USB_Host_Library/Class/MTP/Src/usbh_mtp_ptp.c ****       MTP_Handle->ptp.data_ptr = (uint8_t *)(void *) &(MTP_Handle->ptp.data_container);
 4813              		.loc 1 1611 29 view .LVU1765
 4814 0086 E351     		str	r3, [r4, r7]
1612:./Libraries/STM32_USB_Host_Library/Class/MTP/Src/usbh_mtp_ptp.c ****       MTP_Handle->ptp.data_length = 0U;
 4815              		.loc 1 1612 7 is_stmt 1 view .LVU1766
1613:./Libraries/STM32_USB_Host_Library/Class/MTP/Src/usbh_mtp_ptp.c ****       MTP_Handle->ptp.data_packet_counter = 0U;
 4816              		.loc 1 1613 7 view .LVU1767
1613:./Libraries/STM32_USB_Host_Library/Class/MTP/Src/usbh_mtp_ptp.c ****       MTP_Handle->ptp.data_packet_counter = 0U;
 4817              		.loc 1 1613 35 is_stmt 0 view .LVU1768
 4818 0088 0027     		movs	r7, #0
1614:./Libraries/STM32_USB_Host_Library/Class/MTP/Src/usbh_mtp_ptp.c ****       MTP_Handle->ptp.data_packet = 0U;
 4819              		.loc 1 1614 43 view .LVU1769
 4820 008a 04F50753 		add	r3, r4, #8640
1623:./Libraries/STM32_USB_Host_Library/Class/MTP/Src/usbh_mtp_ptp.c ****       ptp_container.Param1 = handle;
 4821              		.loc 1 1623 68 view .LVU1770
 4822 008e 01F10108 		add	r8, r1, #1
1613:./Libraries/STM32_USB_Host_Library/Class/MTP/Src/usbh_mtp_ptp.c ****       MTP_Handle->ptp.data_packet_counter = 0U;
 4823              		.loc 1 1613 35 view .LVU1771
 4824 0092 A750     		str	r7, [r4, r2]
1614:./Libraries/STM32_USB_Host_Library/Class/MTP/Src/usbh_mtp_ptp.c ****       MTP_Handle->ptp.data_packet = 0U;
 4825              		.loc 1 1614 7 is_stmt 1 view .LVU1772
1621:./Libraries/STM32_USB_Host_Library/Class/MTP/Src/usbh_mtp_ptp.c ****       ptp_container.SessionID = MTP_Handle->ptp.session_id;
 4826              		.loc 1 1621 26 is_stmt 0 view .LVU1773
 4827 0094 41F21B02 		movw	r2, #4123
1614:./Libraries/STM32_USB_Host_Library/Class/MTP/Src/usbh_mtp_ptp.c ****       MTP_Handle->ptp.data_packet = 0U;
 4828              		.loc 1 1614 43 view .LVU1774
 4829 0098 1F60     		str	r7, [r3]
1615:./Libraries/STM32_USB_Host_Library/Class/MTP/Src/usbh_mtp_ptp.c **** 
 4830              		.loc 1 1615 7 is_stmt 1 view .LVU1775
1623:./Libraries/STM32_USB_Host_Library/Class/MTP/Src/usbh_mtp_ptp.c ****       ptp_container.Param1 = handle;
 4831              		.loc 1 1623 36 is_stmt 0 view .LVU1776
 4832 009a 0391     		str	r1, [sp, #12]
1615:./Libraries/STM32_USB_Host_Library/Class/MTP/Src/usbh_mtp_ptp.c **** 
 4833              		.loc 1 1615 35 view .LVU1777
ARM GAS  /tmp/ccSE0mVF.s 			page 141


 4834 009c 42F2B811 		movw	r1, #8632
1618:./Libraries/STM32_USB_Host_Library/Class/MTP/Src/usbh_mtp_ptp.c **** 
 4835              		.loc 1 1618 34 view .LVU1778
 4836 00a0 109B     		ldr	r3, [sp, #64]
1622:./Libraries/STM32_USB_Host_Library/Class/MTP/Src/usbh_mtp_ptp.c ****       ptp_container.Transaction_ID = MTP_Handle->ptp.transaction_id++;
 4837              		.loc 1 1622 31 view .LVU1779
 4838 00a2 CDF808E0 		str	lr, [sp, #8]
1618:./Libraries/STM32_USB_Host_Library/Class/MTP/Src/usbh_mtp_ptp.c **** 
 4839              		.loc 1 1618 34 view .LVU1780
 4840 00a6 42F2C41E 		movw	lr, #8644
1623:./Libraries/STM32_USB_Host_Library/Class/MTP/Src/usbh_mtp_ptp.c ****       ptp_container.Param1 = handle;
 4841              		.loc 1 1623 68 view .LVU1781
 4842 00aa 44F80C80 		str	r8, [r4, ip]
1627:./Libraries/STM32_USB_Host_Library/Class/MTP/Src/usbh_mtp_ptp.c **** 
 4843              		.loc 1 1627 28 view .LVU1782
 4844 00ae 4FF0030C 		mov	ip, #3
1615:./Libraries/STM32_USB_Host_Library/Class/MTP/Src/usbh_mtp_ptp.c **** 
 4845              		.loc 1 1615 35 view .LVU1783
 4846 00b2 6750     		str	r7, [r4, r1]
1618:./Libraries/STM32_USB_Host_Library/Class/MTP/Src/usbh_mtp_ptp.c **** 
 4847              		.loc 1 1618 7 is_stmt 1 view .LVU1784
1630:./Libraries/STM32_USB_Host_Library/Class/MTP/Src/usbh_mtp_ptp.c **** 
 4848              		.loc 1 1630 7 is_stmt 0 view .LVU1785
 4849 00b4 01A9     		add	r1, sp, #4
1618:./Libraries/STM32_USB_Host_Library/Class/MTP/Src/usbh_mtp_ptp.c **** 
 4850              		.loc 1 1618 34 view .LVU1786
 4851 00b6 44F80E30 		str	r3, [r4, lr]
1621:./Libraries/STM32_USB_Host_Library/Class/MTP/Src/usbh_mtp_ptp.c ****       ptp_container.SessionID = MTP_Handle->ptp.session_id;
 4852              		.loc 1 1621 7 is_stmt 1 view .LVU1787
1621:./Libraries/STM32_USB_Host_Library/Class/MTP/Src/usbh_mtp_ptp.c ****       ptp_container.SessionID = MTP_Handle->ptp.session_id;
 4853              		.loc 1 1621 26 is_stmt 0 view .LVU1788
 4854 00ba ADF80420 		strh	r2, [sp, #4]	@ movhi
1622:./Libraries/STM32_USB_Host_Library/Class/MTP/Src/usbh_mtp_ptp.c ****       ptp_container.Transaction_ID = MTP_Handle->ptp.transaction_id++;
 4855              		.loc 1 1622 7 is_stmt 1 view .LVU1789
1623:./Libraries/STM32_USB_Host_Library/Class/MTP/Src/usbh_mtp_ptp.c ****       ptp_container.Param1 = handle;
 4856              		.loc 1 1623 7 view .LVU1790
1624:./Libraries/STM32_USB_Host_Library/Class/MTP/Src/usbh_mtp_ptp.c ****       ptp_container.Param2 = offset;
 4857              		.loc 1 1624 7 view .LVU1791
1625:./Libraries/STM32_USB_Host_Library/Class/MTP/Src/usbh_mtp_ptp.c ****       ptp_container.Param3 = maxbytes;
 4858              		.loc 1 1625 7 view .LVU1792
1626:./Libraries/STM32_USB_Host_Library/Class/MTP/Src/usbh_mtp_ptp.c ****       ptp_container.Nparam = 3U;
 4859              		.loc 1 1626 7 view .LVU1793
1627:./Libraries/STM32_USB_Host_Library/Class/MTP/Src/usbh_mtp_ptp.c **** 
 4860              		.loc 1 1627 7 view .LVU1794
1627:./Libraries/STM32_USB_Host_Library/Class/MTP/Src/usbh_mtp_ptp.c **** 
 4861              		.loc 1 1627 28 is_stmt 0 view .LVU1795
 4862 00be 8DF824C0 		strb	ip, [sp, #36]
1630:./Libraries/STM32_USB_Host_Library/Class/MTP/Src/usbh_mtp_ptp.c **** 
 4863              		.loc 1 1630 7 is_stmt 1 view .LVU1796
 4864 00c2 FFF7FEFF 		bl	USBH_PTP_SendRequest
 4865              	.LVL377:
1633:./Libraries/STM32_USB_Host_Library/Class/MTP/Src/usbh_mtp_ptp.c ****       MTP_Handle->ptp.req_state = PTP_REQ_WAIT;
 4866              		.loc 1 1633 7 view .LVU1797
1634:./Libraries/STM32_USB_Host_Library/Class/MTP/Src/usbh_mtp_ptp.c ****       status = USBH_BUSY;
 4867              		.loc 1 1634 7 view .LVU1798
1633:./Libraries/STM32_USB_Host_Library/Class/MTP/Src/usbh_mtp_ptp.c ****       MTP_Handle->ptp.req_state = PTP_REQ_WAIT;
 4868              		.loc 1 1633 29 is_stmt 0 view .LVU1799
ARM GAS  /tmp/ccSE0mVF.s 			page 142


 4869 00c6 04F5EB52 		add	r2, r4, #7520
 4870 00ca 40F20121 		movw	r1, #513
1638:./Libraries/STM32_USB_Host_Library/Class/MTP/Src/usbh_mtp_ptp.c **** #if (osCMSIS < 0x20000U)
 4871              		.loc 1 1638 21 view .LVU1800
 4872 00ce 0524     		movs	r4, #5
 4873              	.LVL378:
1642:./Libraries/STM32_USB_Host_Library/Class/MTP/Src/usbh_mtp_ptp.c **** #endif
 4874              		.loc 1 1642 13 view .LVU1801
 4875 00d0 3B46     		mov	r3, r7
1633:./Libraries/STM32_USB_Host_Library/Class/MTP/Src/usbh_mtp_ptp.c ****       MTP_Handle->ptp.req_state = PTP_REQ_WAIT;
 4876              		.loc 1 1633 29 view .LVU1802
 4877 00d2 1180     		strh	r1, [r2]	@ movhi
1635:./Libraries/STM32_USB_Host_Library/Class/MTP/Src/usbh_mtp_ptp.c **** 
 4878              		.loc 1 1635 7 is_stmt 1 view .LVU1803
1638:./Libraries/STM32_USB_Host_Library/Class/MTP/Src/usbh_mtp_ptp.c **** #if (osCMSIS < 0x20000U)
 4879              		.loc 1 1638 7 view .LVU1804
1642:./Libraries/STM32_USB_Host_Library/Class/MTP/Src/usbh_mtp_ptp.c **** #endif
 4880              		.loc 1 1642 13 is_stmt 0 view .LVU1805
 4881 00d4 3A46     		mov	r2, r7
 4882              	.LVL379:
1642:./Libraries/STM32_USB_Host_Library/Class/MTP/Src/usbh_mtp_ptp.c **** #endif
 4883              		.loc 1 1642 13 view .LVU1806
 4884 00d6 D6F8D804 		ldr	r0, [r6, #1240]
 4885 00da 06F59C61 		add	r1, r6, #1248
1638:./Libraries/STM32_USB_Host_Library/Class/MTP/Src/usbh_mtp_ptp.c **** #if (osCMSIS < 0x20000U)
 4886              		.loc 1 1638 21 view .LVU1807
 4887 00de C6F8E044 		str	r4, [r6, #1248]
1642:./Libraries/STM32_USB_Host_Library/Class/MTP/Src/usbh_mtp_ptp.c **** #endif
 4888              		.loc 1 1642 7 is_stmt 1 view .LVU1808
1642:./Libraries/STM32_USB_Host_Library/Class/MTP/Src/usbh_mtp_ptp.c **** #endif
 4889              		.loc 1 1642 13 is_stmt 0 view .LVU1809
 4890 00e2 FFF7FEFF 		bl	osMessageQueuePut
 4891              	.LVL380:
1645:./Libraries/STM32_USB_Host_Library/Class/MTP/Src/usbh_mtp_ptp.c **** 
 4892              		.loc 1 1645 7 is_stmt 1 view .LVU1810
1666:./Libraries/STM32_USB_Host_Library/Class/MTP/Src/usbh_mtp_ptp.c **** }
 4893              		.loc 1 1666 3 view .LVU1811
 4894              		.loc 1 1667 1 is_stmt 0 view .LVU1812
 4895 00e6 2846     		mov	r0, r5
 4896 00e8 0AB0     		add	sp, sp, #40
 4897              	.LCFI114:
 4898              		.cfi_def_cfa_offset 24
 4899              		@ sp needed
 4900 00ea BDE8F081 		pop	{r4, r5, r6, r7, r8, pc}
 4901              		.loc 1 1667 1 view .LVU1813
 4902              		.cfi_endproc
 4903              	.LFE363:
 4905 00ee 00BF     		.section	.text.USBH_PTP_GetObjectPropsSupported,"ax",%progbits
 4906              		.align	1
 4907              		.p2align 2,,3
 4908              		.global	USBH_PTP_GetObjectPropsSupported
 4909              		.syntax unified
 4910              		.thumb
 4911              		.thumb_func
 4912              		.fpu fpv5-d16
 4914              	USBH_PTP_GetObjectPropsSupported:
 4915              	.LVL381:
ARM GAS  /tmp/ccSE0mVF.s 			page 143


 4916              	.LFB364:
1668:./Libraries/STM32_USB_Host_Library/Class/MTP/Src/usbh_mtp_ptp.c **** 
1669:./Libraries/STM32_USB_Host_Library/Class/MTP/Src/usbh_mtp_ptp.c **** /**
1670:./Libraries/STM32_USB_Host_Library/Class/MTP/Src/usbh_mtp_ptp.c ****   * @brief  USBH_PTP_GetObjectPropsSupported
1671:./Libraries/STM32_USB_Host_Library/Class/MTP/Src/usbh_mtp_ptp.c ****   *         Gets object partially
1672:./Libraries/STM32_USB_Host_Library/Class/MTP/Src/usbh_mtp_ptp.c ****   * @param  phost: Host handle
1673:./Libraries/STM32_USB_Host_Library/Class/MTP/Src/usbh_mtp_ptp.c ****   * @param  dev_info: Device info structure
1674:./Libraries/STM32_USB_Host_Library/Class/MTP/Src/usbh_mtp_ptp.c ****   * @retval USBH Status
1675:./Libraries/STM32_USB_Host_Library/Class/MTP/Src/usbh_mtp_ptp.c ****   */
1676:./Libraries/STM32_USB_Host_Library/Class/MTP/Src/usbh_mtp_ptp.c **** USBH_StatusTypeDef USBH_PTP_GetObjectPropsSupported(USBH_HandleTypeDef *phost,
1677:./Libraries/STM32_USB_Host_Library/Class/MTP/Src/usbh_mtp_ptp.c ****                                                     uint16_t ofc,
1678:./Libraries/STM32_USB_Host_Library/Class/MTP/Src/usbh_mtp_ptp.c ****                                                     uint32_t *propnum,
1679:./Libraries/STM32_USB_Host_Library/Class/MTP/Src/usbh_mtp_ptp.c ****                                                     uint16_t *props)
1680:./Libraries/STM32_USB_Host_Library/Class/MTP/Src/usbh_mtp_ptp.c **** {
 4917              		.loc 1 1680 1 is_stmt 1 view -0
 4918              		.cfi_startproc
 4919              		@ args = 0, pretend = 0, frame = 40
 4920              		@ frame_needed = 0, uses_anonymous_args = 0
1681:./Libraries/STM32_USB_Host_Library/Class/MTP/Src/usbh_mtp_ptp.c ****   USBH_StatusTypeDef status = USBH_BUSY;
 4921              		.loc 1 1681 3 view .LVU1815
1682:./Libraries/STM32_USB_Host_Library/Class/MTP/Src/usbh_mtp_ptp.c ****   MTP_HandleTypeDef *MTP_Handle = (MTP_HandleTypeDef *)phost->pActiveClass->pData;
 4922              		.loc 1 1682 3 view .LVU1816
1680:./Libraries/STM32_USB_Host_Library/Class/MTP/Src/usbh_mtp_ptp.c ****   USBH_StatusTypeDef status = USBH_BUSY;
 4923              		.loc 1 1680 1 is_stmt 0 view .LVU1817
 4924 0000 2DE9F041 		push	{r4, r5, r6, r7, r8, lr}
 4925              	.LCFI115:
 4926              		.cfi_def_cfa_offset 24
 4927              		.cfi_offset 4, -24
 4928              		.cfi_offset 5, -20
 4929              		.cfi_offset 6, -16
 4930              		.cfi_offset 7, -12
 4931              		.cfi_offset 8, -8
 4932              		.cfi_offset 14, -4
 4933              		.loc 1 1682 22 view .LVU1818
 4934 0004 D0F87C44 		ldr	r4, [r0, #1148]
1683:./Libraries/STM32_USB_Host_Library/Class/MTP/Src/usbh_mtp_ptp.c ****   PTP_ContainerTypedef ptp_container;
1684:./Libraries/STM32_USB_Host_Library/Class/MTP/Src/usbh_mtp_ptp.c **** 
1685:./Libraries/STM32_USB_Host_Library/Class/MTP/Src/usbh_mtp_ptp.c ****   switch (MTP_Handle->ptp.req_state)
 4935              		.loc 1 1685 26 view .LVU1819
 4936 0008 41F6615C 		movw	ip, #7521
1680:./Libraries/STM32_USB_Host_Library/Class/MTP/Src/usbh_mtp_ptp.c ****   USBH_StatusTypeDef status = USBH_BUSY;
 4937              		.loc 1 1680 1 view .LVU1820
 4938 000c 8AB0     		sub	sp, sp, #40
 4939              	.LCFI116:
 4940              		.cfi_def_cfa_offset 64
1682:./Libraries/STM32_USB_Host_Library/Class/MTP/Src/usbh_mtp_ptp.c ****   PTP_ContainerTypedef ptp_container;
 4941              		.loc 1 1682 22 view .LVU1821
 4942 000e E569     		ldr	r5, [r4, #28]
 4943              	.LVL382:
1683:./Libraries/STM32_USB_Host_Library/Class/MTP/Src/usbh_mtp_ptp.c ****   PTP_ContainerTypedef ptp_container;
 4944              		.loc 1 1683 3 is_stmt 1 view .LVU1822
 4945              		.loc 1 1685 3 view .LVU1823
 4946              		.loc 1 1685 26 is_stmt 0 view .LVU1824
 4947 0010 15F80C40 		ldrb	r4, [r5, ip]	@ zero_extendqisi2
 4948              		.loc 1 1685 3 view .LVU1825
 4949 0014 012C     		cmp	r4, #1
 4950 0016 11D0     		beq	.L234
ARM GAS  /tmp/ccSE0mVF.s 			page 144


 4951 0018 022C     		cmp	r4, #2
 4952 001a 0AD1     		bne	.L238
1686:./Libraries/STM32_USB_Host_Library/Class/MTP/Src/usbh_mtp_ptp.c ****   {
1687:./Libraries/STM32_USB_Host_Library/Class/MTP/Src/usbh_mtp_ptp.c ****     case PTP_REQ_SEND:
1688:./Libraries/STM32_USB_Host_Library/Class/MTP/Src/usbh_mtp_ptp.c ****       /* Set operation request type */
1689:./Libraries/STM32_USB_Host_Library/Class/MTP/Src/usbh_mtp_ptp.c ****       MTP_Handle->ptp.flags = PTP_DP_GETDATA;
1690:./Libraries/STM32_USB_Host_Library/Class/MTP/Src/usbh_mtp_ptp.c ****       MTP_Handle->ptp.data_ptr = (uint8_t *)(void *) &(MTP_Handle->ptp.data_container);
1691:./Libraries/STM32_USB_Host_Library/Class/MTP/Src/usbh_mtp_ptp.c ****       MTP_Handle->ptp.data_length = 0U;
1692:./Libraries/STM32_USB_Host_Library/Class/MTP/Src/usbh_mtp_ptp.c ****       MTP_Handle->ptp.data_packet_counter = 0U;
1693:./Libraries/STM32_USB_Host_Library/Class/MTP/Src/usbh_mtp_ptp.c ****       MTP_Handle->ptp.data_packet = 0U;
1694:./Libraries/STM32_USB_Host_Library/Class/MTP/Src/usbh_mtp_ptp.c **** 
1695:./Libraries/STM32_USB_Host_Library/Class/MTP/Src/usbh_mtp_ptp.c ****       /* Fill operation request params */
1696:./Libraries/STM32_USB_Host_Library/Class/MTP/Src/usbh_mtp_ptp.c ****       ptp_container.Code = PTP_OC_GetObjectPropsSupported;
1697:./Libraries/STM32_USB_Host_Library/Class/MTP/Src/usbh_mtp_ptp.c ****       ptp_container.SessionID = MTP_Handle->ptp.session_id;
1698:./Libraries/STM32_USB_Host_Library/Class/MTP/Src/usbh_mtp_ptp.c ****       ptp_container.Transaction_ID = MTP_Handle->ptp.transaction_id++;
1699:./Libraries/STM32_USB_Host_Library/Class/MTP/Src/usbh_mtp_ptp.c ****       ptp_container.Param1 = ofc;
1700:./Libraries/STM32_USB_Host_Library/Class/MTP/Src/usbh_mtp_ptp.c ****       ptp_container.Nparam = 1U;
1701:./Libraries/STM32_USB_Host_Library/Class/MTP/Src/usbh_mtp_ptp.c **** 
1702:./Libraries/STM32_USB_Host_Library/Class/MTP/Src/usbh_mtp_ptp.c ****       /* convert request packet into USB raw packet*/
1703:./Libraries/STM32_USB_Host_Library/Class/MTP/Src/usbh_mtp_ptp.c ****       USBH_PTP_SendRequest(phost, &ptp_container);
1704:./Libraries/STM32_USB_Host_Library/Class/MTP/Src/usbh_mtp_ptp.c **** 
1705:./Libraries/STM32_USB_Host_Library/Class/MTP/Src/usbh_mtp_ptp.c ****       /* Setup State machine and start transfer */
1706:./Libraries/STM32_USB_Host_Library/Class/MTP/Src/usbh_mtp_ptp.c ****       MTP_Handle->ptp.state = PTP_OP_REQUEST_STATE;
1707:./Libraries/STM32_USB_Host_Library/Class/MTP/Src/usbh_mtp_ptp.c ****       MTP_Handle->ptp.req_state = PTP_REQ_WAIT;
1708:./Libraries/STM32_USB_Host_Library/Class/MTP/Src/usbh_mtp_ptp.c ****       status = USBH_BUSY;
1709:./Libraries/STM32_USB_Host_Library/Class/MTP/Src/usbh_mtp_ptp.c **** 
1710:./Libraries/STM32_USB_Host_Library/Class/MTP/Src/usbh_mtp_ptp.c **** #if (USBH_USE_OS == 1U)
1711:./Libraries/STM32_USB_Host_Library/Class/MTP/Src/usbh_mtp_ptp.c ****       phost->os_msg = (uint32_t)USBH_STATE_CHANGED_EVENT;
1712:./Libraries/STM32_USB_Host_Library/Class/MTP/Src/usbh_mtp_ptp.c **** #if (osCMSIS < 0x20000U)
1713:./Libraries/STM32_USB_Host_Library/Class/MTP/Src/usbh_mtp_ptp.c ****       (void)osMessagePut(phost->os_event, phost->os_msg, 0U);
1714:./Libraries/STM32_USB_Host_Library/Class/MTP/Src/usbh_mtp_ptp.c **** #else
1715:./Libraries/STM32_USB_Host_Library/Class/MTP/Src/usbh_mtp_ptp.c ****       (void)osMessageQueuePut(phost->os_event, &phost->os_msg, 0U, NULL);
1716:./Libraries/STM32_USB_Host_Library/Class/MTP/Src/usbh_mtp_ptp.c **** #endif
1717:./Libraries/STM32_USB_Host_Library/Class/MTP/Src/usbh_mtp_ptp.c **** #endif
1718:./Libraries/STM32_USB_Host_Library/Class/MTP/Src/usbh_mtp_ptp.c ****       break;
1719:./Libraries/STM32_USB_Host_Library/Class/MTP/Src/usbh_mtp_ptp.c **** 
1720:./Libraries/STM32_USB_Host_Library/Class/MTP/Src/usbh_mtp_ptp.c ****     case PTP_REQ_WAIT:
1721:./Libraries/STM32_USB_Host_Library/Class/MTP/Src/usbh_mtp_ptp.c ****       status = USBH_PTP_Process(phost);
 4953              		.loc 1 1721 7 is_stmt 1 view .LVU1826
 4954 001c 9046     		mov	r8, r2
 4955 001e 1F46     		mov	r7, r3
 4956              		.loc 1 1721 16 is_stmt 0 view .LVU1827
 4957 0020 FFF7FEFF 		bl	USBH_PTP_Process
 4958              	.LVL383:
1722:./Libraries/STM32_USB_Host_Library/Class/MTP/Src/usbh_mtp_ptp.c **** 
1723:./Libraries/STM32_USB_Host_Library/Class/MTP/Src/usbh_mtp_ptp.c ****       if (status == USBH_OK)
 4959              		.loc 1 1723 7 is_stmt 1 view .LVU1828
 4960              		.loc 1 1723 10 is_stmt 0 view .LVU1829
 4961 0024 0446     		mov	r4, r0
 4962 0026 0028     		cmp	r0, #0
 4963 0028 4DD0     		beq	.L239
 4964              	.LVL384:
1724:./Libraries/STM32_USB_Host_Library/Class/MTP/Src/usbh_mtp_ptp.c ****       {
1725:./Libraries/STM32_USB_Host_Library/Class/MTP/Src/usbh_mtp_ptp.c ****         *propnum = PTP_GetArray16(props, MTP_Handle->ptp.data_container.payload.data, 0U);
1726:./Libraries/STM32_USB_Host_Library/Class/MTP/Src/usbh_mtp_ptp.c ****       }
1727:./Libraries/STM32_USB_Host_Library/Class/MTP/Src/usbh_mtp_ptp.c ****       break;
1728:./Libraries/STM32_USB_Host_Library/Class/MTP/Src/usbh_mtp_ptp.c **** 
ARM GAS  /tmp/ccSE0mVF.s 			page 145


1729:./Libraries/STM32_USB_Host_Library/Class/MTP/Src/usbh_mtp_ptp.c ****     default:
1730:./Libraries/STM32_USB_Host_Library/Class/MTP/Src/usbh_mtp_ptp.c ****       break;
1731:./Libraries/STM32_USB_Host_Library/Class/MTP/Src/usbh_mtp_ptp.c ****   }
1732:./Libraries/STM32_USB_Host_Library/Class/MTP/Src/usbh_mtp_ptp.c ****   return status;
 4965              		.loc 1 1732 3 is_stmt 1 view .LVU1830
1733:./Libraries/STM32_USB_Host_Library/Class/MTP/Src/usbh_mtp_ptp.c **** }
 4966              		.loc 1 1733 1 is_stmt 0 view .LVU1831
 4967 002a 2046     		mov	r0, r4
 4968 002c 0AB0     		add	sp, sp, #40
 4969              	.LCFI117:
 4970              		.cfi_remember_state
 4971              		.cfi_def_cfa_offset 24
 4972              		@ sp needed
 4973 002e BDE8F081 		pop	{r4, r5, r6, r7, r8, pc}
 4974              	.LVL385:
 4975              	.L238:
 4976              	.LCFI118:
 4977              		.cfi_restore_state
1685:./Libraries/STM32_USB_Host_Library/Class/MTP/Src/usbh_mtp_ptp.c ****   {
 4978              		.loc 1 1685 3 view .LVU1832
 4979 0032 0124     		movs	r4, #1
 4980              	.LVL386:
1732:./Libraries/STM32_USB_Host_Library/Class/MTP/Src/usbh_mtp_ptp.c **** }
 4981              		.loc 1 1732 3 is_stmt 1 view .LVU1833
 4982              		.loc 1 1733 1 is_stmt 0 view .LVU1834
 4983 0034 2046     		mov	r0, r4
 4984              	.LVL387:
 4985              		.loc 1 1733 1 view .LVU1835
 4986 0036 0AB0     		add	sp, sp, #40
 4987              	.LCFI119:
 4988              		.cfi_remember_state
 4989              		.cfi_def_cfa_offset 24
 4990              		@ sp needed
 4991 0038 BDE8F081 		pop	{r4, r5, r6, r7, r8, pc}
 4992              	.LVL388:
 4993              	.L234:
 4994              	.LCFI120:
 4995              		.cfi_restore_state
1689:./Libraries/STM32_USB_Host_Library/Class/MTP/Src/usbh_mtp_ptp.c ****       MTP_Handle->ptp.data_ptr = (uint8_t *)(void *) &(MTP_Handle->ptp.data_container);
 4996              		.loc 1 1689 7 is_stmt 1 view .LVU1836
1690:./Libraries/STM32_USB_Host_Library/Class/MTP/Src/usbh_mtp_ptp.c ****       MTP_Handle->ptp.data_length = 0U;
 4997              		.loc 1 1690 54 is_stmt 0 view .LVU1837
 4998 003c 41F68453 		movw	r3, #7556
 4999              	.LVL389:
1698:./Libraries/STM32_USB_Host_Library/Class/MTP/Src/usbh_mtp_ptp.c ****       ptp_container.Param1 = ofc;
 5000              		.loc 1 1698 53 view .LVU1838
 5001 0040 42F2A412 		movw	r2, #8612
 5002              	.LVL390:
1690:./Libraries/STM32_USB_Host_Library/Class/MTP/Src/usbh_mtp_ptp.c ****       MTP_Handle->ptp.data_length = 0U;
 5003              		.loc 1 1690 32 view .LVU1839
 5004 0044 42F2B01E 		movw	lr, #8624
1697:./Libraries/STM32_USB_Host_Library/Class/MTP/Src/usbh_mtp_ptp.c ****       ptp_container.Transaction_ID = MTP_Handle->ptp.transaction_id++;
 5005              		.loc 1 1697 48 view .LVU1840
 5006 0048 42F2A81C 		movw	ip, #8616
1690:./Libraries/STM32_USB_Host_Library/Class/MTP/Src/usbh_mtp_ptp.c ****       MTP_Handle->ptp.data_length = 0U;
 5007              		.loc 1 1690 54 view .LVU1841
 5008 004c 2B44     		add	r3, r3, r5
ARM GAS  /tmp/ccSE0mVF.s 			page 146


1698:./Libraries/STM32_USB_Host_Library/Class/MTP/Src/usbh_mtp_ptp.c ****       ptp_container.Param1 = ofc;
 5009              		.loc 1 1698 53 view .LVU1842
 5010 004e AF58     		ldr	r7, [r5, r2]
1697:./Libraries/STM32_USB_Host_Library/Class/MTP/Src/usbh_mtp_ptp.c ****       ptp_container.Transaction_ID = MTP_Handle->ptp.transaction_id++;
 5011              		.loc 1 1697 31 view .LVU1843
 5012 0050 55F80CC0 		ldr	ip, [r5, ip]
1689:./Libraries/STM32_USB_Host_Library/Class/MTP/Src/usbh_mtp_ptp.c ****       MTP_Handle->ptp.data_ptr = (uint8_t *)(void *) &(MTP_Handle->ptp.data_container);
 5013              		.loc 1 1689 29 view .LVU1844
 5014 0054 4FF00208 		mov	r8, #2
1690:./Libraries/STM32_USB_Host_Library/Class/MTP/Src/usbh_mtp_ptp.c ****       MTP_Handle->ptp.data_length = 0U;
 5015              		.loc 1 1690 32 view .LVU1845
 5016 0058 45F80E30 		str	r3, [r5, lr]
1689:./Libraries/STM32_USB_Host_Library/Class/MTP/Src/usbh_mtp_ptp.c ****       MTP_Handle->ptp.data_ptr = (uint8_t *)(void *) &(MTP_Handle->ptp.data_container);
 5017              		.loc 1 1689 29 view .LVU1846
 5018 005c 42F2AC13 		movw	r3, #8620
1698:./Libraries/STM32_USB_Host_Library/Class/MTP/Src/usbh_mtp_ptp.c ****       ptp_container.Param1 = ofc;
 5019              		.loc 1 1698 68 view .LVU1847
 5020 0060 07F1010E 		add	lr, r7, #1
1699:./Libraries/STM32_USB_Host_Library/Class/MTP/Src/usbh_mtp_ptp.c ****       ptp_container.Nparam = 1U;
 5021              		.loc 1 1699 28 view .LVU1848
 5022 0064 0491     		str	r1, [sp, #16]
1689:./Libraries/STM32_USB_Host_Library/Class/MTP/Src/usbh_mtp_ptp.c ****       MTP_Handle->ptp.data_ptr = (uint8_t *)(void *) &(MTP_Handle->ptp.data_container);
 5023              		.loc 1 1689 29 view .LVU1849
 5024 0066 45F80380 		str	r8, [r5, r3]
1690:./Libraries/STM32_USB_Host_Library/Class/MTP/Src/usbh_mtp_ptp.c ****       MTP_Handle->ptp.data_length = 0U;
 5025              		.loc 1 1690 7 is_stmt 1 view .LVU1850
1691:./Libraries/STM32_USB_Host_Library/Class/MTP/Src/usbh_mtp_ptp.c ****       MTP_Handle->ptp.data_packet_counter = 0U;
 5026              		.loc 1 1691 7 view .LVU1851
1691:./Libraries/STM32_USB_Host_Library/Class/MTP/Src/usbh_mtp_ptp.c ****       MTP_Handle->ptp.data_packet_counter = 0U;
 5027              		.loc 1 1691 35 is_stmt 0 view .LVU1852
 5028 006a 42F2B411 		movw	r1, #8628
 5029              	.LVL391:
1692:./Libraries/STM32_USB_Host_Library/Class/MTP/Src/usbh_mtp_ptp.c ****       MTP_Handle->ptp.data_packet = 0U;
 5030              		.loc 1 1692 43 view .LVU1853
 5031 006e 05F50753 		add	r3, r5, #8640
1698:./Libraries/STM32_USB_Host_Library/Class/MTP/Src/usbh_mtp_ptp.c ****       ptp_container.Param1 = ofc;
 5032              		.loc 1 1698 36 view .LVU1854
 5033 0072 0397     		str	r7, [sp, #12]
1691:./Libraries/STM32_USB_Host_Library/Class/MTP/Src/usbh_mtp_ptp.c ****       MTP_Handle->ptp.data_packet_counter = 0U;
 5034              		.loc 1 1691 35 view .LVU1855
 5035 0074 0027     		movs	r7, #0
1697:./Libraries/STM32_USB_Host_Library/Class/MTP/Src/usbh_mtp_ptp.c ****       ptp_container.Transaction_ID = MTP_Handle->ptp.transaction_id++;
 5036              		.loc 1 1697 31 view .LVU1856
 5037 0076 CDF808C0 		str	ip, [sp, #8]
1693:./Libraries/STM32_USB_Host_Library/Class/MTP/Src/usbh_mtp_ptp.c **** 
 5038              		.loc 1 1693 35 view .LVU1857
 5039 007a 42F2B81C 		movw	ip, #8632
 5040 007e 0646     		mov	r6, r0
1691:./Libraries/STM32_USB_Host_Library/Class/MTP/Src/usbh_mtp_ptp.c ****       MTP_Handle->ptp.data_packet_counter = 0U;
 5041              		.loc 1 1691 35 view .LVU1858
 5042 0080 6F50     		str	r7, [r5, r1]
1692:./Libraries/STM32_USB_Host_Library/Class/MTP/Src/usbh_mtp_ptp.c ****       MTP_Handle->ptp.data_packet = 0U;
 5043              		.loc 1 1692 7 is_stmt 1 view .LVU1859
1703:./Libraries/STM32_USB_Host_Library/Class/MTP/Src/usbh_mtp_ptp.c **** 
 5044              		.loc 1 1703 7 is_stmt 0 view .LVU1860
 5045 0082 01A9     		add	r1, sp, #4
1692:./Libraries/STM32_USB_Host_Library/Class/MTP/Src/usbh_mtp_ptp.c ****       MTP_Handle->ptp.data_packet = 0U;
ARM GAS  /tmp/ccSE0mVF.s 			page 147


 5046              		.loc 1 1692 43 view .LVU1861
 5047 0084 1F60     		str	r7, [r3]
1693:./Libraries/STM32_USB_Host_Library/Class/MTP/Src/usbh_mtp_ptp.c **** 
 5048              		.loc 1 1693 7 is_stmt 1 view .LVU1862
1696:./Libraries/STM32_USB_Host_Library/Class/MTP/Src/usbh_mtp_ptp.c ****       ptp_container.SessionID = MTP_Handle->ptp.session_id;
 5049              		.loc 1 1696 26 is_stmt 0 view .LVU1863
 5050 0086 49F60103 		movw	r3, #38913
1698:./Libraries/STM32_USB_Host_Library/Class/MTP/Src/usbh_mtp_ptp.c ****       ptp_container.Param1 = ofc;
 5051              		.loc 1 1698 68 view .LVU1864
 5052 008a 45F802E0 		str	lr, [r5, r2]
1693:./Libraries/STM32_USB_Host_Library/Class/MTP/Src/usbh_mtp_ptp.c **** 
 5053              		.loc 1 1693 35 view .LVU1865
 5054 008e 45F80C70 		str	r7, [r5, ip]
1696:./Libraries/STM32_USB_Host_Library/Class/MTP/Src/usbh_mtp_ptp.c ****       ptp_container.SessionID = MTP_Handle->ptp.session_id;
 5055              		.loc 1 1696 7 is_stmt 1 view .LVU1866
1696:./Libraries/STM32_USB_Host_Library/Class/MTP/Src/usbh_mtp_ptp.c ****       ptp_container.SessionID = MTP_Handle->ptp.session_id;
 5056              		.loc 1 1696 26 is_stmt 0 view .LVU1867
 5057 0092 ADF80430 		strh	r3, [sp, #4]	@ movhi
1697:./Libraries/STM32_USB_Host_Library/Class/MTP/Src/usbh_mtp_ptp.c ****       ptp_container.Transaction_ID = MTP_Handle->ptp.transaction_id++;
 5058              		.loc 1 1697 7 is_stmt 1 view .LVU1868
1698:./Libraries/STM32_USB_Host_Library/Class/MTP/Src/usbh_mtp_ptp.c ****       ptp_container.Param1 = ofc;
 5059              		.loc 1 1698 7 view .LVU1869
1699:./Libraries/STM32_USB_Host_Library/Class/MTP/Src/usbh_mtp_ptp.c ****       ptp_container.Nparam = 1U;
 5060              		.loc 1 1699 7 view .LVU1870
1700:./Libraries/STM32_USB_Host_Library/Class/MTP/Src/usbh_mtp_ptp.c **** 
 5061              		.loc 1 1700 7 view .LVU1871
1703:./Libraries/STM32_USB_Host_Library/Class/MTP/Src/usbh_mtp_ptp.c **** 
 5062              		.loc 1 1703 7 view .LVU1872
1700:./Libraries/STM32_USB_Host_Library/Class/MTP/Src/usbh_mtp_ptp.c **** 
 5063              		.loc 1 1700 28 is_stmt 0 view .LVU1873
 5064 0096 8DF82440 		strb	r4, [sp, #36]
1703:./Libraries/STM32_USB_Host_Library/Class/MTP/Src/usbh_mtp_ptp.c **** 
 5065              		.loc 1 1703 7 view .LVU1874
 5066 009a FFF7FEFF 		bl	USBH_PTP_SendRequest
 5067              	.LVL392:
1706:./Libraries/STM32_USB_Host_Library/Class/MTP/Src/usbh_mtp_ptp.c ****       MTP_Handle->ptp.req_state = PTP_REQ_WAIT;
 5068              		.loc 1 1706 7 is_stmt 1 view .LVU1875
1707:./Libraries/STM32_USB_Host_Library/Class/MTP/Src/usbh_mtp_ptp.c ****       status = USBH_BUSY;
 5069              		.loc 1 1707 7 view .LVU1876
1706:./Libraries/STM32_USB_Host_Library/Class/MTP/Src/usbh_mtp_ptp.c ****       MTP_Handle->ptp.req_state = PTP_REQ_WAIT;
 5070              		.loc 1 1706 29 is_stmt 0 view .LVU1877
 5071 009e 05F5EB52 		add	r2, r5, #7520
 5072 00a2 40F20121 		movw	r1, #513
1711:./Libraries/STM32_USB_Host_Library/Class/MTP/Src/usbh_mtp_ptp.c **** #if (osCMSIS < 0x20000U)
 5073              		.loc 1 1711 21 view .LVU1878
 5074 00a6 0525     		movs	r5, #5
 5075              	.LVL393:
1715:./Libraries/STM32_USB_Host_Library/Class/MTP/Src/usbh_mtp_ptp.c **** #endif
 5076              		.loc 1 1715 13 view .LVU1879
 5077 00a8 3B46     		mov	r3, r7
1706:./Libraries/STM32_USB_Host_Library/Class/MTP/Src/usbh_mtp_ptp.c ****       MTP_Handle->ptp.req_state = PTP_REQ_WAIT;
 5078              		.loc 1 1706 29 view .LVU1880
 5079 00aa 1180     		strh	r1, [r2]	@ movhi
1708:./Libraries/STM32_USB_Host_Library/Class/MTP/Src/usbh_mtp_ptp.c **** 
 5080              		.loc 1 1708 7 is_stmt 1 view .LVU1881
1711:./Libraries/STM32_USB_Host_Library/Class/MTP/Src/usbh_mtp_ptp.c **** #if (osCMSIS < 0x20000U)
 5081              		.loc 1 1711 7 view .LVU1882
ARM GAS  /tmp/ccSE0mVF.s 			page 148


1715:./Libraries/STM32_USB_Host_Library/Class/MTP/Src/usbh_mtp_ptp.c **** #endif
 5082              		.loc 1 1715 13 is_stmt 0 view .LVU1883
 5083 00ac 3A46     		mov	r2, r7
 5084              	.LVL394:
1715:./Libraries/STM32_USB_Host_Library/Class/MTP/Src/usbh_mtp_ptp.c **** #endif
 5085              		.loc 1 1715 13 view .LVU1884
 5086 00ae D6F8D804 		ldr	r0, [r6, #1240]
 5087 00b2 06F59C61 		add	r1, r6, #1248
1711:./Libraries/STM32_USB_Host_Library/Class/MTP/Src/usbh_mtp_ptp.c **** #if (osCMSIS < 0x20000U)
 5088              		.loc 1 1711 21 view .LVU1885
 5089 00b6 C6F8E054 		str	r5, [r6, #1248]
1715:./Libraries/STM32_USB_Host_Library/Class/MTP/Src/usbh_mtp_ptp.c **** #endif
 5090              		.loc 1 1715 7 is_stmt 1 view .LVU1886
1715:./Libraries/STM32_USB_Host_Library/Class/MTP/Src/usbh_mtp_ptp.c **** #endif
 5091              		.loc 1 1715 13 is_stmt 0 view .LVU1887
 5092 00ba FFF7FEFF 		bl	osMessageQueuePut
 5093              	.LVL395:
1718:./Libraries/STM32_USB_Host_Library/Class/MTP/Src/usbh_mtp_ptp.c **** 
 5094              		.loc 1 1718 7 is_stmt 1 view .LVU1888
1732:./Libraries/STM32_USB_Host_Library/Class/MTP/Src/usbh_mtp_ptp.c **** }
 5095              		.loc 1 1732 3 view .LVU1889
 5096              		.loc 1 1733 1 is_stmt 0 view .LVU1890
 5097 00be 2046     		mov	r0, r4
 5098 00c0 0AB0     		add	sp, sp, #40
 5099              	.LCFI121:
 5100              		.cfi_remember_state
 5101              		.cfi_def_cfa_offset 24
 5102              		@ sp needed
 5103 00c2 BDE8F081 		pop	{r4, r5, r6, r7, r8, pc}
 5104              	.LVL396:
 5105              	.L239:
 5106              	.LCFI122:
 5107              		.cfi_restore_state
1725:./Libraries/STM32_USB_Host_Library/Class/MTP/Src/usbh_mtp_ptp.c ****       }
 5108              		.loc 1 1725 9 is_stmt 1 view .LVU1891
1725:./Libraries/STM32_USB_Host_Library/Class/MTP/Src/usbh_mtp_ptp.c ****       }
 5109              		.loc 1 1725 20 is_stmt 0 view .LVU1892
 5110 00c6 41F69051 		movw	r1, #7568
 5111 00ca 3846     		mov	r0, r7
 5112              	.LVL397:
1725:./Libraries/STM32_USB_Host_Library/Class/MTP/Src/usbh_mtp_ptp.c ****       }
 5113              		.loc 1 1725 20 view .LVU1893
 5114 00cc 2246     		mov	r2, r4
 5115 00ce 2944     		add	r1, r1, r5
 5116 00d0 FFF7FEFF 		bl	PTP_GetArray16
 5117              	.LVL398:
1725:./Libraries/STM32_USB_Host_Library/Class/MTP/Src/usbh_mtp_ptp.c ****       }
 5118              		.loc 1 1725 18 view .LVU1894
 5119 00d4 C8F80000 		str	r0, [r8]
 5120              	.LVL399:
1732:./Libraries/STM32_USB_Host_Library/Class/MTP/Src/usbh_mtp_ptp.c **** }
 5121              		.loc 1 1732 3 is_stmt 1 view .LVU1895
 5122              		.loc 1 1733 1 is_stmt 0 view .LVU1896
 5123 00d8 2046     		mov	r0, r4
 5124 00da 0AB0     		add	sp, sp, #40
 5125              	.LCFI123:
 5126              		.cfi_def_cfa_offset 24
ARM GAS  /tmp/ccSE0mVF.s 			page 149


 5127              		@ sp needed
 5128 00dc BDE8F081 		pop	{r4, r5, r6, r7, r8, pc}
 5129              		.loc 1 1733 1 view .LVU1897
 5130              		.cfi_endproc
 5131              	.LFE364:
 5133              		.section	.text.USBH_PTP_GetObjectPropDesc,"ax",%progbits
 5134              		.align	1
 5135              		.p2align 2,,3
 5136              		.global	USBH_PTP_GetObjectPropDesc
 5137              		.syntax unified
 5138              		.thumb
 5139              		.thumb_func
 5140              		.fpu fpv5-d16
 5142              	USBH_PTP_GetObjectPropDesc:
 5143              	.LVL400:
 5144              	.LFB365:
1734:./Libraries/STM32_USB_Host_Library/Class/MTP/Src/usbh_mtp_ptp.c **** 
1735:./Libraries/STM32_USB_Host_Library/Class/MTP/Src/usbh_mtp_ptp.c **** /**
1736:./Libraries/STM32_USB_Host_Library/Class/MTP/Src/usbh_mtp_ptp.c ****   * @brief  USBH_PTP_GetObjectPropDesc
1737:./Libraries/STM32_USB_Host_Library/Class/MTP/Src/usbh_mtp_ptp.c ****   *         Gets object partially
1738:./Libraries/STM32_USB_Host_Library/Class/MTP/Src/usbh_mtp_ptp.c ****   * @param  phost: Host handle
1739:./Libraries/STM32_USB_Host_Library/Class/MTP/Src/usbh_mtp_ptp.c ****   * @param  dev_info: Device info structure
1740:./Libraries/STM32_USB_Host_Library/Class/MTP/Src/usbh_mtp_ptp.c ****   * @retval USBH Status
1741:./Libraries/STM32_USB_Host_Library/Class/MTP/Src/usbh_mtp_ptp.c ****   */
1742:./Libraries/STM32_USB_Host_Library/Class/MTP/Src/usbh_mtp_ptp.c **** USBH_StatusTypeDef USBH_PTP_GetObjectPropDesc(USBH_HandleTypeDef *phost,
1743:./Libraries/STM32_USB_Host_Library/Class/MTP/Src/usbh_mtp_ptp.c ****                                               uint16_t opc,
1744:./Libraries/STM32_USB_Host_Library/Class/MTP/Src/usbh_mtp_ptp.c ****                                               uint16_t ofc,
1745:./Libraries/STM32_USB_Host_Library/Class/MTP/Src/usbh_mtp_ptp.c ****                                               PTP_ObjectPropDescTypeDef *opd)
1746:./Libraries/STM32_USB_Host_Library/Class/MTP/Src/usbh_mtp_ptp.c **** {
 5145              		.loc 1 1746 1 is_stmt 1 view -0
 5146              		.cfi_startproc
 5147              		@ args = 0, pretend = 0, frame = 40
 5148              		@ frame_needed = 0, uses_anonymous_args = 0
1747:./Libraries/STM32_USB_Host_Library/Class/MTP/Src/usbh_mtp_ptp.c ****   USBH_StatusTypeDef status = USBH_BUSY;
 5149              		.loc 1 1747 3 view .LVU1899
1748:./Libraries/STM32_USB_Host_Library/Class/MTP/Src/usbh_mtp_ptp.c ****   MTP_HandleTypeDef *MTP_Handle = (MTP_HandleTypeDef *)phost->pActiveClass->pData;
 5150              		.loc 1 1748 3 view .LVU1900
1746:./Libraries/STM32_USB_Host_Library/Class/MTP/Src/usbh_mtp_ptp.c ****   USBH_StatusTypeDef status = USBH_BUSY;
 5151              		.loc 1 1746 1 is_stmt 0 view .LVU1901
 5152 0000 2DE9F04F 		push	{r4, r5, r6, r7, r8, r9, r10, fp, lr}
 5153              	.LCFI124:
 5154              		.cfi_def_cfa_offset 36
 5155              		.cfi_offset 4, -36
 5156              		.cfi_offset 5, -32
 5157              		.cfi_offset 6, -28
 5158              		.cfi_offset 7, -24
 5159              		.cfi_offset 8, -20
 5160              		.cfi_offset 9, -16
 5161              		.cfi_offset 10, -12
 5162              		.cfi_offset 11, -8
 5163              		.cfi_offset 14, -4
 5164              		.loc 1 1748 22 view .LVU1902
 5165 0004 D0F87C44 		ldr	r4, [r0, #1148]
1749:./Libraries/STM32_USB_Host_Library/Class/MTP/Src/usbh_mtp_ptp.c ****   PTP_ContainerTypedef ptp_container;
1750:./Libraries/STM32_USB_Host_Library/Class/MTP/Src/usbh_mtp_ptp.c **** 
1751:./Libraries/STM32_USB_Host_Library/Class/MTP/Src/usbh_mtp_ptp.c ****   switch (MTP_Handle->ptp.req_state)
 5166              		.loc 1 1751 26 view .LVU1903
ARM GAS  /tmp/ccSE0mVF.s 			page 150


 5167 0008 41F66155 		movw	r5, #7521
1746:./Libraries/STM32_USB_Host_Library/Class/MTP/Src/usbh_mtp_ptp.c ****   USBH_StatusTypeDef status = USBH_BUSY;
 5168              		.loc 1 1746 1 view .LVU1904
 5169 000c 8BB0     		sub	sp, sp, #44
 5170              	.LCFI125:
 5171              		.cfi_def_cfa_offset 80
1746:./Libraries/STM32_USB_Host_Library/Class/MTP/Src/usbh_mtp_ptp.c ****   USBH_StatusTypeDef status = USBH_BUSY;
 5172              		.loc 1 1746 1 view .LVU1905
 5173 000e 0646     		mov	r6, r0
1748:./Libraries/STM32_USB_Host_Library/Class/MTP/Src/usbh_mtp_ptp.c ****   PTP_ContainerTypedef ptp_container;
 5174              		.loc 1 1748 22 view .LVU1906
 5175 0010 E469     		ldr	r4, [r4, #28]
 5176              	.LVL401:
1749:./Libraries/STM32_USB_Host_Library/Class/MTP/Src/usbh_mtp_ptp.c ****   PTP_ContainerTypedef ptp_container;
 5177              		.loc 1 1749 3 is_stmt 1 view .LVU1907
 5178              		.loc 1 1751 3 view .LVU1908
 5179              		.loc 1 1751 26 is_stmt 0 view .LVU1909
 5180 0012 655D     		ldrb	r5, [r4, r5]	@ zero_extendqisi2
 5181              		.loc 1 1751 3 view .LVU1910
 5182 0014 012D     		cmp	r5, #1
 5183 0016 10D0     		beq	.L241
 5184 0018 022D     		cmp	r5, #2
 5185 001a 09D1     		bne	.L252
1752:./Libraries/STM32_USB_Host_Library/Class/MTP/Src/usbh_mtp_ptp.c ****   {
1753:./Libraries/STM32_USB_Host_Library/Class/MTP/Src/usbh_mtp_ptp.c ****     case PTP_REQ_SEND:
1754:./Libraries/STM32_USB_Host_Library/Class/MTP/Src/usbh_mtp_ptp.c **** 
1755:./Libraries/STM32_USB_Host_Library/Class/MTP/Src/usbh_mtp_ptp.c ****       /* Set operation request type */
1756:./Libraries/STM32_USB_Host_Library/Class/MTP/Src/usbh_mtp_ptp.c ****       MTP_Handle->ptp.flags = PTP_DP_GETDATA;
1757:./Libraries/STM32_USB_Host_Library/Class/MTP/Src/usbh_mtp_ptp.c ****       MTP_Handle->ptp.data_ptr = (uint8_t *)(void *) &(MTP_Handle->ptp.data_container);
1758:./Libraries/STM32_USB_Host_Library/Class/MTP/Src/usbh_mtp_ptp.c ****       MTP_Handle->ptp.data_length = 0U;
1759:./Libraries/STM32_USB_Host_Library/Class/MTP/Src/usbh_mtp_ptp.c ****       MTP_Handle->ptp.data_packet_counter = 0U;
1760:./Libraries/STM32_USB_Host_Library/Class/MTP/Src/usbh_mtp_ptp.c ****       MTP_Handle->ptp.data_packet = 0U;
1761:./Libraries/STM32_USB_Host_Library/Class/MTP/Src/usbh_mtp_ptp.c **** 
1762:./Libraries/STM32_USB_Host_Library/Class/MTP/Src/usbh_mtp_ptp.c ****       /* Fill operation request params */
1763:./Libraries/STM32_USB_Host_Library/Class/MTP/Src/usbh_mtp_ptp.c ****       ptp_container.Code = PTP_OC_GetObjectPropDesc;
1764:./Libraries/STM32_USB_Host_Library/Class/MTP/Src/usbh_mtp_ptp.c ****       ptp_container.SessionID = MTP_Handle->ptp.session_id;
1765:./Libraries/STM32_USB_Host_Library/Class/MTP/Src/usbh_mtp_ptp.c ****       ptp_container.Transaction_ID = MTP_Handle->ptp.transaction_id++;
1766:./Libraries/STM32_USB_Host_Library/Class/MTP/Src/usbh_mtp_ptp.c ****       ptp_container.Param1 = opc;
1767:./Libraries/STM32_USB_Host_Library/Class/MTP/Src/usbh_mtp_ptp.c ****       ptp_container.Param2 = ofc;
1768:./Libraries/STM32_USB_Host_Library/Class/MTP/Src/usbh_mtp_ptp.c ****       ptp_container.Nparam = 2U;
1769:./Libraries/STM32_USB_Host_Library/Class/MTP/Src/usbh_mtp_ptp.c **** 
1770:./Libraries/STM32_USB_Host_Library/Class/MTP/Src/usbh_mtp_ptp.c ****       /* convert request packet into USB raw packet*/
1771:./Libraries/STM32_USB_Host_Library/Class/MTP/Src/usbh_mtp_ptp.c ****       USBH_PTP_SendRequest(phost, &ptp_container);
1772:./Libraries/STM32_USB_Host_Library/Class/MTP/Src/usbh_mtp_ptp.c **** 
1773:./Libraries/STM32_USB_Host_Library/Class/MTP/Src/usbh_mtp_ptp.c ****       /* Setup State machine and start transfer */
1774:./Libraries/STM32_USB_Host_Library/Class/MTP/Src/usbh_mtp_ptp.c ****       MTP_Handle->ptp.state = PTP_OP_REQUEST_STATE;
1775:./Libraries/STM32_USB_Host_Library/Class/MTP/Src/usbh_mtp_ptp.c ****       MTP_Handle->ptp.req_state = PTP_REQ_WAIT;
1776:./Libraries/STM32_USB_Host_Library/Class/MTP/Src/usbh_mtp_ptp.c ****       status = USBH_BUSY;
1777:./Libraries/STM32_USB_Host_Library/Class/MTP/Src/usbh_mtp_ptp.c **** 
1778:./Libraries/STM32_USB_Host_Library/Class/MTP/Src/usbh_mtp_ptp.c **** #if (USBH_USE_OS == 1U)
1779:./Libraries/STM32_USB_Host_Library/Class/MTP/Src/usbh_mtp_ptp.c ****       phost->os_msg = (uint32_t)USBH_STATE_CHANGED_EVENT;
1780:./Libraries/STM32_USB_Host_Library/Class/MTP/Src/usbh_mtp_ptp.c **** #if (osCMSIS < 0x20000U)
1781:./Libraries/STM32_USB_Host_Library/Class/MTP/Src/usbh_mtp_ptp.c ****       (void)osMessagePut(phost->os_event, phost->os_msg, 0U);
1782:./Libraries/STM32_USB_Host_Library/Class/MTP/Src/usbh_mtp_ptp.c **** #else
1783:./Libraries/STM32_USB_Host_Library/Class/MTP/Src/usbh_mtp_ptp.c ****       (void)osMessageQueuePut(phost->os_event, &phost->os_msg, 0U, NULL);
1784:./Libraries/STM32_USB_Host_Library/Class/MTP/Src/usbh_mtp_ptp.c **** #endif
1785:./Libraries/STM32_USB_Host_Library/Class/MTP/Src/usbh_mtp_ptp.c **** #endif
ARM GAS  /tmp/ccSE0mVF.s 			page 151


1786:./Libraries/STM32_USB_Host_Library/Class/MTP/Src/usbh_mtp_ptp.c ****       break;
1787:./Libraries/STM32_USB_Host_Library/Class/MTP/Src/usbh_mtp_ptp.c **** 
1788:./Libraries/STM32_USB_Host_Library/Class/MTP/Src/usbh_mtp_ptp.c ****     case PTP_REQ_WAIT:
1789:./Libraries/STM32_USB_Host_Library/Class/MTP/Src/usbh_mtp_ptp.c ****       status = USBH_PTP_Process(phost);
 5186              		.loc 1 1789 7 is_stmt 1 view .LVU1911
 5187 001c 1F46     		mov	r7, r3
 5188              		.loc 1 1789 16 is_stmt 0 view .LVU1912
 5189 001e FFF7FEFF 		bl	USBH_PTP_Process
 5190              	.LVL402:
1790:./Libraries/STM32_USB_Host_Library/Class/MTP/Src/usbh_mtp_ptp.c **** 
1791:./Libraries/STM32_USB_Host_Library/Class/MTP/Src/usbh_mtp_ptp.c ****       if (status == USBH_OK)
 5191              		.loc 1 1791 7 is_stmt 1 view .LVU1913
 5192              		.loc 1 1791 10 is_stmt 0 view .LVU1914
 5193 0022 0546     		mov	r5, r0
 5194 0024 0028     		cmp	r0, #0
 5195 0026 4ED0     		beq	.L253
 5196              	.LVL403:
 5197              	.L243:
1792:./Libraries/STM32_USB_Host_Library/Class/MTP/Src/usbh_mtp_ptp.c ****       {
1793:./Libraries/STM32_USB_Host_Library/Class/MTP/Src/usbh_mtp_ptp.c ****         PTP_GetObjectPropDesc(phost, opd, MTP_Handle->ptp.data_length);
1794:./Libraries/STM32_USB_Host_Library/Class/MTP/Src/usbh_mtp_ptp.c ****       }
1795:./Libraries/STM32_USB_Host_Library/Class/MTP/Src/usbh_mtp_ptp.c ****       break;
1796:./Libraries/STM32_USB_Host_Library/Class/MTP/Src/usbh_mtp_ptp.c **** 
1797:./Libraries/STM32_USB_Host_Library/Class/MTP/Src/usbh_mtp_ptp.c ****     default:
1798:./Libraries/STM32_USB_Host_Library/Class/MTP/Src/usbh_mtp_ptp.c ****       break;
1799:./Libraries/STM32_USB_Host_Library/Class/MTP/Src/usbh_mtp_ptp.c ****   }
1800:./Libraries/STM32_USB_Host_Library/Class/MTP/Src/usbh_mtp_ptp.c ****   return status;
 5198              		.loc 1 1800 3 is_stmt 1 view .LVU1915
1801:./Libraries/STM32_USB_Host_Library/Class/MTP/Src/usbh_mtp_ptp.c **** }
 5199              		.loc 1 1801 1 is_stmt 0 view .LVU1916
 5200 0028 2846     		mov	r0, r5
 5201 002a 0BB0     		add	sp, sp, #44
 5202              	.LCFI126:
 5203              		.cfi_remember_state
 5204              		.cfi_def_cfa_offset 36
 5205              		@ sp needed
 5206 002c BDE8F08F 		pop	{r4, r5, r6, r7, r8, r9, r10, fp, pc}
 5207              	.LVL404:
 5208              	.L252:
 5209              	.LCFI127:
 5210              		.cfi_restore_state
1751:./Libraries/STM32_USB_Host_Library/Class/MTP/Src/usbh_mtp_ptp.c ****   {
 5211              		.loc 1 1751 3 view .LVU1917
 5212 0030 0125     		movs	r5, #1
 5213              	.LVL405:
1800:./Libraries/STM32_USB_Host_Library/Class/MTP/Src/usbh_mtp_ptp.c **** }
 5214              		.loc 1 1800 3 is_stmt 1 view .LVU1918
 5215              		.loc 1 1801 1 is_stmt 0 view .LVU1919
 5216 0032 2846     		mov	r0, r5
 5217              	.LVL406:
 5218              		.loc 1 1801 1 view .LVU1920
 5219 0034 0BB0     		add	sp, sp, #44
 5220              	.LCFI128:
 5221              		.cfi_remember_state
 5222              		.cfi_def_cfa_offset 36
 5223              		@ sp needed
 5224 0036 BDE8F08F 		pop	{r4, r5, r6, r7, r8, r9, r10, fp, pc}
ARM GAS  /tmp/ccSE0mVF.s 			page 152


 5225              	.LVL407:
 5226              	.L241:
 5227              	.LCFI129:
 5228              		.cfi_restore_state
1756:./Libraries/STM32_USB_Host_Library/Class/MTP/Src/usbh_mtp_ptp.c ****       MTP_Handle->ptp.data_ptr = (uint8_t *)(void *) &(MTP_Handle->ptp.data_container);
 5229              		.loc 1 1756 7 is_stmt 1 view .LVU1921
1757:./Libraries/STM32_USB_Host_Library/Class/MTP/Src/usbh_mtp_ptp.c ****       MTP_Handle->ptp.data_length = 0U;
 5230              		.loc 1 1757 54 is_stmt 0 view .LVU1922
 5231 003a 41F68453 		movw	r3, #7556
 5232              	.LVL408:
1757:./Libraries/STM32_USB_Host_Library/Class/MTP/Src/usbh_mtp_ptp.c ****       MTP_Handle->ptp.data_length = 0U;
 5233              		.loc 1 1757 54 view .LVU1923
 5234 003e 8C46     		mov	ip, r1
1765:./Libraries/STM32_USB_Host_Library/Class/MTP/Src/usbh_mtp_ptp.c ****       ptp_container.Param1 = opc;
 5235              		.loc 1 1765 53 view .LVU1924
 5236 0040 42F2A419 		movw	r9, #8612
1757:./Libraries/STM32_USB_Host_Library/Class/MTP/Src/usbh_mtp_ptp.c ****       MTP_Handle->ptp.data_length = 0U;
 5237              		.loc 1 1757 32 view .LVU1925
 5238 0044 42F2B017 		movw	r7, #8624
1757:./Libraries/STM32_USB_Host_Library/Class/MTP/Src/usbh_mtp_ptp.c ****       MTP_Handle->ptp.data_length = 0U;
 5239              		.loc 1 1757 54 view .LVU1926
 5240 0048 2344     		add	r3, r3, r4
1764:./Libraries/STM32_USB_Host_Library/Class/MTP/Src/usbh_mtp_ptp.c ****       ptp_container.Transaction_ID = MTP_Handle->ptp.transaction_id++;
 5241              		.loc 1 1764 48 view .LVU1927
 5242 004a 42F2A811 		movw	r1, #8616
 5243              	.LVL409:
1765:./Libraries/STM32_USB_Host_Library/Class/MTP/Src/usbh_mtp_ptp.c ****       ptp_container.Param1 = opc;
 5244              		.loc 1 1765 53 view .LVU1928
 5245 004e 54F809E0 		ldr	lr, [r4, r9]
1756:./Libraries/STM32_USB_Host_Library/Class/MTP/Src/usbh_mtp_ptp.c ****       MTP_Handle->ptp.data_ptr = (uint8_t *)(void *) &(MTP_Handle->ptp.data_container);
 5246              		.loc 1 1756 29 view .LVU1929
 5247 0052 4FF00208 		mov	r8, #2
1764:./Libraries/STM32_USB_Host_Library/Class/MTP/Src/usbh_mtp_ptp.c ****       ptp_container.Transaction_ID = MTP_Handle->ptp.transaction_id++;
 5248              		.loc 1 1764 31 view .LVU1930
 5249 0056 6158     		ldr	r1, [r4, r1]
1756:./Libraries/STM32_USB_Host_Library/Class/MTP/Src/usbh_mtp_ptp.c ****       MTP_Handle->ptp.data_ptr = (uint8_t *)(void *) &(MTP_Handle->ptp.data_container);
 5250              		.loc 1 1756 29 view .LVU1931
 5251 0058 42F2AC1B 		movw	fp, #8620
1757:./Libraries/STM32_USB_Host_Library/Class/MTP/Src/usbh_mtp_ptp.c ****       MTP_Handle->ptp.data_length = 0U;
 5252              		.loc 1 1757 32 view .LVU1932
 5253 005c E351     		str	r3, [r4, r7]
1758:./Libraries/STM32_USB_Host_Library/Class/MTP/Src/usbh_mtp_ptp.c ****       MTP_Handle->ptp.data_packet_counter = 0U;
 5254              		.loc 1 1758 35 view .LVU1933
 5255 005e 42F2B41A 		movw	r10, #8628
 5256 0062 0027     		movs	r7, #0
1756:./Libraries/STM32_USB_Host_Library/Class/MTP/Src/usbh_mtp_ptp.c ****       MTP_Handle->ptp.data_ptr = (uint8_t *)(void *) &(MTP_Handle->ptp.data_container);
 5257              		.loc 1 1756 29 view .LVU1934
 5258 0064 44F80B80 		str	r8, [r4, fp]
1757:./Libraries/STM32_USB_Host_Library/Class/MTP/Src/usbh_mtp_ptp.c ****       MTP_Handle->ptp.data_length = 0U;
 5259              		.loc 1 1757 7 is_stmt 1 view .LVU1935
1758:./Libraries/STM32_USB_Host_Library/Class/MTP/Src/usbh_mtp_ptp.c ****       MTP_Handle->ptp.data_packet_counter = 0U;
 5260              		.loc 1 1758 7 view .LVU1936
1759:./Libraries/STM32_USB_Host_Library/Class/MTP/Src/usbh_mtp_ptp.c ****       MTP_Handle->ptp.data_packet = 0U;
 5261              		.loc 1 1759 43 is_stmt 0 view .LVU1937
 5262 0068 04F50753 		add	r3, r4, #8640
1758:./Libraries/STM32_USB_Host_Library/Class/MTP/Src/usbh_mtp_ptp.c ****       MTP_Handle->ptp.data_packet_counter = 0U;
 5263              		.loc 1 1758 35 view .LVU1938
ARM GAS  /tmp/ccSE0mVF.s 			page 153


 5264 006c 44F80A70 		str	r7, [r4, r10]
1759:./Libraries/STM32_USB_Host_Library/Class/MTP/Src/usbh_mtp_ptp.c ****       MTP_Handle->ptp.data_packet = 0U;
 5265              		.loc 1 1759 7 is_stmt 1 view .LVU1939
1760:./Libraries/STM32_USB_Host_Library/Class/MTP/Src/usbh_mtp_ptp.c **** 
 5266              		.loc 1 1760 35 is_stmt 0 view .LVU1940
 5267 0070 42F2B81A 		movw	r10, #8632
1759:./Libraries/STM32_USB_Host_Library/Class/MTP/Src/usbh_mtp_ptp.c ****       MTP_Handle->ptp.data_packet = 0U;
 5268              		.loc 1 1759 43 view .LVU1941
 5269 0074 1F60     		str	r7, [r3]
1760:./Libraries/STM32_USB_Host_Library/Class/MTP/Src/usbh_mtp_ptp.c **** 
 5270              		.loc 1 1760 7 is_stmt 1 view .LVU1942
1765:./Libraries/STM32_USB_Host_Library/Class/MTP/Src/usbh_mtp_ptp.c ****       ptp_container.Param1 = opc;
 5271              		.loc 1 1765 68 is_stmt 0 view .LVU1943
 5272 0076 0EF10103 		add	r3, lr, #1
1760:./Libraries/STM32_USB_Host_Library/Class/MTP/Src/usbh_mtp_ptp.c **** 
 5273              		.loc 1 1760 35 view .LVU1944
 5274 007a 44F80A70 		str	r7, [r4, r10]
1763:./Libraries/STM32_USB_Host_Library/Class/MTP/Src/usbh_mtp_ptp.c ****       ptp_container.SessionID = MTP_Handle->ptp.session_id;
 5275              		.loc 1 1763 7 is_stmt 1 view .LVU1945
1763:./Libraries/STM32_USB_Host_Library/Class/MTP/Src/usbh_mtp_ptp.c ****       ptp_container.SessionID = MTP_Handle->ptp.session_id;
 5276              		.loc 1 1763 26 is_stmt 0 view .LVU1946
 5277 007e 49F6020A 		movw	r10, #38914
1764:./Libraries/STM32_USB_Host_Library/Class/MTP/Src/usbh_mtp_ptp.c ****       ptp_container.Transaction_ID = MTP_Handle->ptp.transaction_id++;
 5278              		.loc 1 1764 31 view .LVU1947
 5279 0082 0291     		str	r1, [sp, #8]
1771:./Libraries/STM32_USB_Host_Library/Class/MTP/Src/usbh_mtp_ptp.c **** 
 5280              		.loc 1 1771 7 view .LVU1948
 5281 0084 01A9     		add	r1, sp, #4
1763:./Libraries/STM32_USB_Host_Library/Class/MTP/Src/usbh_mtp_ptp.c ****       ptp_container.SessionID = MTP_Handle->ptp.session_id;
 5282              		.loc 1 1763 26 view .LVU1949
 5283 0086 ADF804A0 		strh	r10, [sp, #4]	@ movhi
1764:./Libraries/STM32_USB_Host_Library/Class/MTP/Src/usbh_mtp_ptp.c ****       ptp_container.Transaction_ID = MTP_Handle->ptp.transaction_id++;
 5284              		.loc 1 1764 7 is_stmt 1 view .LVU1950
1765:./Libraries/STM32_USB_Host_Library/Class/MTP/Src/usbh_mtp_ptp.c ****       ptp_container.Param1 = opc;
 5285              		.loc 1 1765 7 view .LVU1951
1765:./Libraries/STM32_USB_Host_Library/Class/MTP/Src/usbh_mtp_ptp.c ****       ptp_container.Param1 = opc;
 5286              		.loc 1 1765 68 is_stmt 0 view .LVU1952
 5287 008a 44F80930 		str	r3, [r4, r9]
1774:./Libraries/STM32_USB_Host_Library/Class/MTP/Src/usbh_mtp_ptp.c ****       MTP_Handle->ptp.req_state = PTP_REQ_WAIT;
 5288              		.loc 1 1774 29 view .LVU1953
 5289 008e 04F5EB54 		add	r4, r4, #7520
 5290              	.LVL410:
1767:./Libraries/STM32_USB_Host_Library/Class/MTP/Src/usbh_mtp_ptp.c ****       ptp_container.Nparam = 2U;
 5291              		.loc 1 1767 28 view .LVU1954
 5292 0092 0592     		str	r2, [sp, #20]
1768:./Libraries/STM32_USB_Host_Library/Class/MTP/Src/usbh_mtp_ptp.c **** 
 5293              		.loc 1 1768 28 view .LVU1955
 5294 0094 8DF82480 		strb	r8, [sp, #36]
 5295              	.LVL411:
1766:./Libraries/STM32_USB_Host_Library/Class/MTP/Src/usbh_mtp_ptp.c ****       ptp_container.Param2 = ofc;
 5296              		.loc 1 1766 28 view .LVU1956
 5297 0098 CDE903EC 		strd	lr, ip, [sp, #12]
1767:./Libraries/STM32_USB_Host_Library/Class/MTP/Src/usbh_mtp_ptp.c ****       ptp_container.Nparam = 2U;
 5298              		.loc 1 1767 7 is_stmt 1 view .LVU1957
1768:./Libraries/STM32_USB_Host_Library/Class/MTP/Src/usbh_mtp_ptp.c **** 
 5299              		.loc 1 1768 7 view .LVU1958
1771:./Libraries/STM32_USB_Host_Library/Class/MTP/Src/usbh_mtp_ptp.c **** 
ARM GAS  /tmp/ccSE0mVF.s 			page 154


 5300              		.loc 1 1771 7 view .LVU1959
 5301 009c FFF7FEFF 		bl	USBH_PTP_SendRequest
 5302              	.LVL412:
1774:./Libraries/STM32_USB_Host_Library/Class/MTP/Src/usbh_mtp_ptp.c ****       MTP_Handle->ptp.req_state = PTP_REQ_WAIT;
 5303              		.loc 1 1774 7 view .LVU1960
1775:./Libraries/STM32_USB_Host_Library/Class/MTP/Src/usbh_mtp_ptp.c ****       status = USBH_BUSY;
 5304              		.loc 1 1775 7 view .LVU1961
1779:./Libraries/STM32_USB_Host_Library/Class/MTP/Src/usbh_mtp_ptp.c **** #if (osCMSIS < 0x20000U)
 5305              		.loc 1 1779 21 is_stmt 0 view .LVU1962
 5306 00a0 4FF0050C 		mov	ip, #5
1774:./Libraries/STM32_USB_Host_Library/Class/MTP/Src/usbh_mtp_ptp.c ****       MTP_Handle->ptp.req_state = PTP_REQ_WAIT;
 5307              		.loc 1 1774 29 view .LVU1963
 5308 00a4 40F20122 		movw	r2, #513
1783:./Libraries/STM32_USB_Host_Library/Class/MTP/Src/usbh_mtp_ptp.c **** #endif
 5309              		.loc 1 1783 13 view .LVU1964
 5310 00a8 3B46     		mov	r3, r7
 5311 00aa 06F59C61 		add	r1, r6, #1248
1774:./Libraries/STM32_USB_Host_Library/Class/MTP/Src/usbh_mtp_ptp.c ****       MTP_Handle->ptp.req_state = PTP_REQ_WAIT;
 5312              		.loc 1 1774 29 view .LVU1965
 5313 00ae 2280     		strh	r2, [r4]	@ movhi
1776:./Libraries/STM32_USB_Host_Library/Class/MTP/Src/usbh_mtp_ptp.c **** 
 5314              		.loc 1 1776 7 is_stmt 1 view .LVU1966
1779:./Libraries/STM32_USB_Host_Library/Class/MTP/Src/usbh_mtp_ptp.c **** #if (osCMSIS < 0x20000U)
 5315              		.loc 1 1779 7 view .LVU1967
1783:./Libraries/STM32_USB_Host_Library/Class/MTP/Src/usbh_mtp_ptp.c **** #endif
 5316              		.loc 1 1783 13 is_stmt 0 view .LVU1968
 5317 00b0 3A46     		mov	r2, r7
 5318 00b2 D6F8D804 		ldr	r0, [r6, #1240]
1779:./Libraries/STM32_USB_Host_Library/Class/MTP/Src/usbh_mtp_ptp.c **** #if (osCMSIS < 0x20000U)
 5319              		.loc 1 1779 21 view .LVU1969
 5320 00b6 C6F8E0C4 		str	ip, [r6, #1248]
1783:./Libraries/STM32_USB_Host_Library/Class/MTP/Src/usbh_mtp_ptp.c **** #endif
 5321              		.loc 1 1783 7 is_stmt 1 view .LVU1970
1783:./Libraries/STM32_USB_Host_Library/Class/MTP/Src/usbh_mtp_ptp.c **** #endif
 5322              		.loc 1 1783 13 is_stmt 0 view .LVU1971
 5323 00ba FFF7FEFF 		bl	osMessageQueuePut
 5324              	.LVL413:
1786:./Libraries/STM32_USB_Host_Library/Class/MTP/Src/usbh_mtp_ptp.c **** 
 5325              		.loc 1 1786 7 is_stmt 1 view .LVU1972
1800:./Libraries/STM32_USB_Host_Library/Class/MTP/Src/usbh_mtp_ptp.c **** }
 5326              		.loc 1 1800 3 view .LVU1973
 5327              		.loc 1 1801 1 is_stmt 0 view .LVU1974
 5328 00be 2846     		mov	r0, r5
 5329 00c0 0BB0     		add	sp, sp, #44
 5330              	.LCFI130:
 5331              		.cfi_remember_state
 5332              		.cfi_def_cfa_offset 36
 5333              		@ sp needed
 5334 00c2 BDE8F08F 		pop	{r4, r5, r6, r7, r8, r9, r10, fp, pc}
 5335              	.LVL414:
 5336              	.L253:
 5337              	.LCFI131:
 5338              		.cfi_restore_state
1793:./Libraries/STM32_USB_Host_Library/Class/MTP/Src/usbh_mtp_ptp.c ****       }
 5339              		.loc 1 1793 9 is_stmt 1 view .LVU1975
 5340              	.LBB116:
 5341              	.LBI116:
ARM GAS  /tmp/ccSE0mVF.s 			page 155


 699:./Libraries/STM32_USB_Host_Library/Class/MTP/Src/usbh_mtp_ptp.c **** {
 5342              		.loc 1 699 13 view .LVU1976
 5343              	.LBB117:
 701:./Libraries/STM32_USB_Host_Library/Class/MTP/Src/usbh_mtp_ptp.c ****   uint8_t *data = MTP_Handle->ptp.data_container.payload.data;
 5344              		.loc 1 701 3 view .LVU1977
 701:./Libraries/STM32_USB_Host_Library/Class/MTP/Src/usbh_mtp_ptp.c ****   uint8_t *data = MTP_Handle->ptp.data_container.payload.data;
 5345              		.loc 1 701 25 is_stmt 0 view .LVU1978
 5346 00c6 D6F87C24 		ldr	r2, [r6, #1148]
 702:./Libraries/STM32_USB_Host_Library/Class/MTP/Src/usbh_mtp_ptp.c ****   uint32_t offset = 0U, i;
 5347              		.loc 1 702 12 view .LVU1979
 5348 00ca 41F69054 		movw	r4, #7568
 5349              	.LVL415:
 706:./Libraries/STM32_USB_Host_Library/Class/MTP/Src/usbh_mtp_ptp.c ****   opd->GetSet = *(uint8_t *)(&data[PTP_opd_GetSet]);
 5350              		.loc 1 706 19 view .LVU1980
 5351 00ce 41F69253 		movw	r3, #7570
 707:./Libraries/STM32_USB_Host_Library/Class/MTP/Src/usbh_mtp_ptp.c **** 
 5352              		.loc 1 707 15 view .LVU1981
 5353 00d2 41F6945C 		movw	ip, #7572
 701:./Libraries/STM32_USB_Host_Library/Class/MTP/Src/usbh_mtp_ptp.c ****   uint8_t *data = MTP_Handle->ptp.data_container.payload.data;
 5354              		.loc 1 701 25 view .LVU1982
 5355 00d6 D069     		ldr	r0, [r2, #28]
 5356              	.LVL416:
 702:./Libraries/STM32_USB_Host_Library/Class/MTP/Src/usbh_mtp_ptp.c ****   uint32_t offset = 0U, i;
 5357              		.loc 1 702 3 is_stmt 1 view .LVU1983
 709:./Libraries/STM32_USB_Host_Library/Class/MTP/Src/usbh_mtp_ptp.c ****   PTP_GetDevicePropValue(phost, &offset, opdlen, &opd->FactoryDefaultValue, opd->DataType);
 5358              		.loc 1 709 10 is_stmt 0 view .LVU1984
 5359 00d8 4FF0050E 		mov	lr, #5
 710:./Libraries/STM32_USB_Host_Library/Class/MTP/Src/usbh_mtp_ptp.c **** 
 5360              		.loc 1 710 3 view .LVU1985
 5361 00dc 01A9     		add	r1, sp, #4
 702:./Libraries/STM32_USB_Host_Library/Class/MTP/Src/usbh_mtp_ptp.c ****   uint32_t offset = 0U, i;
 5362              		.loc 1 702 12 view .LVU1986
 5363 00de 0444     		add	r4, r4, r0
 5364              	.LVL417:
 703:./Libraries/STM32_USB_Host_Library/Class/MTP/Src/usbh_mtp_ptp.c **** 
 5365              		.loc 1 703 3 is_stmt 1 view .LVU1987
 705:./Libraries/STM32_USB_Host_Library/Class/MTP/Src/usbh_mtp_ptp.c ****   opd->DataType = LE16(&data[PTP_opd_DataType]);
 5366              		.loc 1 705 3 view .LVU1988
 706:./Libraries/STM32_USB_Host_Library/Class/MTP/Src/usbh_mtp_ptp.c ****   opd->GetSet = *(uint8_t *)(&data[PTP_opd_GetSet]);
 5367              		.loc 1 706 19 is_stmt 0 view .LVU1989
 5368 00e0 0344     		add	r3, r3, r0
 705:./Libraries/STM32_USB_Host_Library/Class/MTP/Src/usbh_mtp_ptp.c ****   opd->DataType = LE16(&data[PTP_opd_DataType]);
 5369              		.loc 1 705 29 view .LVU1990
 5370 00e2 2288     		ldrh	r2, [r4]	@ unaligned
 705:./Libraries/STM32_USB_Host_Library/Class/MTP/Src/usbh_mtp_ptp.c ****   opd->DataType = LE16(&data[PTP_opd_DataType]);
 5371              		.loc 1 705 27 view .LVU1991
 5372 00e4 3A80     		strh	r2, [r7]	@ movhi
 706:./Libraries/STM32_USB_Host_Library/Class/MTP/Src/usbh_mtp_ptp.c ****   opd->GetSet = *(uint8_t *)(&data[PTP_opd_GetSet]);
 5373              		.loc 1 706 3 is_stmt 1 view .LVU1992
 710:./Libraries/STM32_USB_Host_Library/Class/MTP/Src/usbh_mtp_ptp.c **** 
 5374              		.loc 1 710 3 is_stmt 0 view .LVU1993
 5375 00e6 07F10802 		add	r2, r7, #8
 706:./Libraries/STM32_USB_Host_Library/Class/MTP/Src/usbh_mtp_ptp.c ****   opd->GetSet = *(uint8_t *)(&data[PTP_opd_GetSet]);
 5376              		.loc 1 706 19 view .LVU1994
 5377 00ea 1B88     		ldrh	r3, [r3]	@ unaligned
 706:./Libraries/STM32_USB_Host_Library/Class/MTP/Src/usbh_mtp_ptp.c ****   opd->GetSet = *(uint8_t *)(&data[PTP_opd_GetSet]);
 5378              		.loc 1 706 17 view .LVU1995
ARM GAS  /tmp/ccSE0mVF.s 			page 156


 5379 00ec 7B80     		strh	r3, [r7, #2]	@ movhi
 707:./Libraries/STM32_USB_Host_Library/Class/MTP/Src/usbh_mtp_ptp.c **** 
 5380              		.loc 1 707 3 is_stmt 1 view .LVU1996
 707:./Libraries/STM32_USB_Host_Library/Class/MTP/Src/usbh_mtp_ptp.c **** 
 5381              		.loc 1 707 15 is_stmt 0 view .LVU1997
 5382 00ee 10F80CC0 		ldrb	ip, [r0, ip]	@ zero_extendqisi2
 710:./Libraries/STM32_USB_Host_Library/Class/MTP/Src/usbh_mtp_ptp.c **** 
 5383              		.loc 1 710 3 view .LVU1998
 5384 00f2 3046     		mov	r0, r6
 5385              	.LVL418:
 709:./Libraries/STM32_USB_Host_Library/Class/MTP/Src/usbh_mtp_ptp.c ****   PTP_GetDevicePropValue(phost, &offset, opdlen, &opd->FactoryDefaultValue, opd->DataType);
 5386              		.loc 1 709 10 view .LVU1999
 5387 00f4 CDF804E0 		str	lr, [sp, #4]
 707:./Libraries/STM32_USB_Host_Library/Class/MTP/Src/usbh_mtp_ptp.c **** 
 5388              		.loc 1 707 15 view .LVU2000
 5389 00f8 87F804C0 		strb	ip, [r7, #4]
 5390              	.LVL419:
 709:./Libraries/STM32_USB_Host_Library/Class/MTP/Src/usbh_mtp_ptp.c ****   PTP_GetDevicePropValue(phost, &offset, opdlen, &opd->FactoryDefaultValue, opd->DataType);
 5391              		.loc 1 709 3 is_stmt 1 view .LVU2001
 710:./Libraries/STM32_USB_Host_Library/Class/MTP/Src/usbh_mtp_ptp.c **** 
 5392              		.loc 1 710 3 view .LVU2002
 5393 00fc FFF7FEFF 		bl	PTP_GetDevicePropValue.isra.0
 5394              	.LVL420:
 712:./Libraries/STM32_USB_Host_Library/Class/MTP/Src/usbh_mtp_ptp.c ****   offset += sizeof(uint32_t);
 5395              		.loc 1 712 3 view .LVU2003
 712:./Libraries/STM32_USB_Host_Library/Class/MTP/Src/usbh_mtp_ptp.c ****   offset += sizeof(uint32_t);
 5396              		.loc 1 712 20 is_stmt 0 view .LVU2004
 5397 0100 019A     		ldr	r2, [sp, #4]
 5398 0102 A118     		adds	r1, r4, r2
 5399 0104 14F802E0 		ldrb	lr, [r4, r2]	@ zero_extendqisi2
 5400 0108 8B78     		ldrb	r3, [r1, #2]	@ zero_extendqisi2
 5401 010a 4878     		ldrb	r0, [r1, #1]	@ zero_extendqisi2
 5402 010c 1B04     		lsls	r3, r3, #16
 5403 010e 91F803C0 		ldrb	ip, [r1, #3]	@ zero_extendqisi2
 5404 0112 43EA0023 		orr	r3, r3, r0, lsl #8
 713:./Libraries/STM32_USB_Host_Library/Class/MTP/Src/usbh_mtp_ptp.c **** 
 5405              		.loc 1 713 10 view .LVU2005
 5406 0116 101D     		adds	r0, r2, #4
 712:./Libraries/STM32_USB_Host_Library/Class/MTP/Src/usbh_mtp_ptp.c ****   offset += sizeof(uint32_t);
 5407              		.loc 1 712 20 view .LVU2006
 5408 0118 43EA0E03 		orr	r3, r3, lr
 713:./Libraries/STM32_USB_Host_Library/Class/MTP/Src/usbh_mtp_ptp.c **** 
 5409              		.loc 1 713 10 view .LVU2007
 5410 011c 0190     		str	r0, [sp, #4]
 712:./Libraries/STM32_USB_Host_Library/Class/MTP/Src/usbh_mtp_ptp.c ****   offset += sizeof(uint32_t);
 5411              		.loc 1 712 20 view .LVU2008
 5412 011e 43EA0C63 		orr	r3, r3, ip, lsl #24
 716:./Libraries/STM32_USB_Host_Library/Class/MTP/Src/usbh_mtp_ptp.c **** 
 5413              		.loc 1 716 10 view .LVU2009
 5414 0122 02F1050C 		add	ip, r2, #5
 712:./Libraries/STM32_USB_Host_Library/Class/MTP/Src/usbh_mtp_ptp.c ****   offset += sizeof(uint32_t);
 5415              		.loc 1 712 18 view .LVU2010
 5416 0126 C7F80831 		str	r3, [r7, #264]
 713:./Libraries/STM32_USB_Host_Library/Class/MTP/Src/usbh_mtp_ptp.c **** 
 5417              		.loc 1 713 3 is_stmt 1 view .LVU2011
 715:./Libraries/STM32_USB_Host_Library/Class/MTP/Src/usbh_mtp_ptp.c ****   offset += sizeof(uint8_t);
 5418              		.loc 1 715 3 view .LVU2012
ARM GAS  /tmp/ccSE0mVF.s 			page 157


 715:./Libraries/STM32_USB_Host_Library/Class/MTP/Src/usbh_mtp_ptp.c ****   offset += sizeof(uint8_t);
 5419              		.loc 1 715 19 is_stmt 0 view .LVU2013
 5420 012a 235C     		ldrb	r3, [r4, r0]	@ zero_extendqisi2
 716:./Libraries/STM32_USB_Host_Library/Class/MTP/Src/usbh_mtp_ptp.c **** 
 5421              		.loc 1 716 10 view .LVU2014
 5422 012c CDF804C0 		str	ip, [sp, #4]
 718:./Libraries/STM32_USB_Host_Library/Class/MTP/Src/usbh_mtp_ptp.c ****   {
 5423              		.loc 1 718 3 view .LVU2015
 5424 0130 012B     		cmp	r3, #1
 715:./Libraries/STM32_USB_Host_Library/Class/MTP/Src/usbh_mtp_ptp.c ****   offset += sizeof(uint8_t);
 5425              		.loc 1 715 17 view .LVU2016
 5426 0132 87F80C31 		strb	r3, [r7, #268]
 716:./Libraries/STM32_USB_Host_Library/Class/MTP/Src/usbh_mtp_ptp.c **** 
 5427              		.loc 1 716 3 is_stmt 1 view .LVU2017
 718:./Libraries/STM32_USB_Host_Library/Class/MTP/Src/usbh_mtp_ptp.c ****   {
 5428              		.loc 1 718 3 view .LVU2018
 5429 0136 1FD0     		beq	.L244
 5430 0138 022B     		cmp	r3, #2
 5431 013a 7FF475AF 		bne	.L243
 728:./Libraries/STM32_USB_Host_Library/Class/MTP/Src/usbh_mtp_ptp.c ****       offset += sizeof(uint16_t);
 5432              		.loc 1 728 7 view .LVU2019
 728:./Libraries/STM32_USB_Host_Library/Class/MTP/Src/usbh_mtp_ptp.c ****       offset += sizeof(uint16_t);
 5433              		.loc 1 728 39 is_stmt 0 view .LVU2020
 5434 013e 8979     		ldrb	r1, [r1, #6]	@ zero_extendqisi2
 729:./Libraries/STM32_USB_Host_Library/Class/MTP/Src/usbh_mtp_ptp.c **** 
 5435              		.loc 1 729 14 view .LVU2021
 5436 0140 0732     		adds	r2, r2, #7
 728:./Libraries/STM32_USB_Host_Library/Class/MTP/Src/usbh_mtp_ptp.c ****       offset += sizeof(uint16_t);
 5437              		.loc 1 728 39 view .LVU2022
 5438 0142 14F80C30 		ldrb	r3, [r4, ip]	@ zero_extendqisi2
 729:./Libraries/STM32_USB_Host_Library/Class/MTP/Src/usbh_mtp_ptp.c **** 
 5439              		.loc 1 729 14 view .LVU2023
 5440 0146 0192     		str	r2, [sp, #4]
 728:./Libraries/STM32_USB_Host_Library/Class/MTP/Src/usbh_mtp_ptp.c ****       offset += sizeof(uint16_t);
 5441              		.loc 1 728 39 view .LVU2024
 5442 0148 43EA0123 		orr	r3, r3, r1, lsl #8
 728:./Libraries/STM32_USB_Host_Library/Class/MTP/Src/usbh_mtp_ptp.c ****       offset += sizeof(uint16_t);
 5443              		.loc 1 728 37 view .LVU2025
 5444 014c A7F81031 		strh	r3, [r7, #272]	@ movhi
 729:./Libraries/STM32_USB_Host_Library/Class/MTP/Src/usbh_mtp_ptp.c **** 
 5445              		.loc 1 729 7 is_stmt 1 view .LVU2026
 731:./Libraries/STM32_USB_Host_Library/Class/MTP/Src/usbh_mtp_ptp.c ****       {
 5446              		.loc 1 731 7 view .LVU2027
 5447              	.LVL421:
 731:./Libraries/STM32_USB_Host_Library/Class/MTP/Src/usbh_mtp_ptp.c ****       {
 5448              		.loc 1 731 20 view .LVU2028
 731:./Libraries/STM32_USB_Host_Library/Class/MTP/Src/usbh_mtp_ptp.c ****       {
 5449              		.loc 1 731 7 is_stmt 0 view .LVU2029
 5450 0150 002B     		cmp	r3, #0
 5451 0152 3FF469AF 		beq	.L243
 5452 0156 07F58C78 		add	r8, r7, #280
 731:./Libraries/STM32_USB_Host_Library/Class/MTP/Src/usbh_mtp_ptp.c ****       {
 5453              		.loc 1 731 14 view .LVU2030
 5454 015a 2C46     		mov	r4, r5
 5455              	.LVL422:
 5456              	.L248:
 733:./Libraries/STM32_USB_Host_Library/Class/MTP/Src/usbh_mtp_ptp.c ****       }
ARM GAS  /tmp/ccSE0mVF.s 			page 158


 5457              		.loc 1 733 9 is_stmt 1 view .LVU2031
 5458 015c 7B88     		ldrh	r3, [r7, #2]
 5459 015e 4246     		mov	r2, r8
 5460 0160 01A9     		add	r1, sp, #4
 5461 0162 3046     		mov	r0, r6
 5462 0164 FFF7FEFF 		bl	PTP_GetDevicePropValue.isra.0
 5463              	.LVL423:
 731:./Libraries/STM32_USB_Host_Library/Class/MTP/Src/usbh_mtp_ptp.c ****       {
 5464              		.loc 1 731 56 view .LVU2032
 731:./Libraries/STM32_USB_Host_Library/Class/MTP/Src/usbh_mtp_ptp.c ****       {
 5465              		.loc 1 731 57 is_stmt 0 view .LVU2033
 5466 0168 0134     		adds	r4, r4, #1
 5467              	.LVL424:
 731:./Libraries/STM32_USB_Host_Library/Class/MTP/Src/usbh_mtp_ptp.c ****       {
 5468              		.loc 1 731 20 is_stmt 1 view .LVU2034
 731:./Libraries/STM32_USB_Host_Library/Class/MTP/Src/usbh_mtp_ptp.c ****       {
 5469              		.loc 1 731 38 is_stmt 0 view .LVU2035
 5470 016a B7F81031 		ldrh	r3, [r7, #272]
 5471 016e 08F58078 		add	r8, r8, #256
 731:./Libraries/STM32_USB_Host_Library/Class/MTP/Src/usbh_mtp_ptp.c ****       {
 5472              		.loc 1 731 7 view .LVU2036
 5473 0172 9C42     		cmp	r4, r3
 5474 0174 F2D3     		bcc	.L248
 5475 0176 57E7     		b	.L243
 5476              	.LVL425:
 5477              	.L244:
 721:./Libraries/STM32_USB_Host_Library/Class/MTP/Src/usbh_mtp_ptp.c ****       PTP_GetDevicePropValue(phost, &offset, opdlen, &opd->FORM.Range.MaximumValue, opd->DataType);
 5478              		.loc 1 721 7 is_stmt 1 view .LVU2037
 5479 0178 7B88     		ldrh	r3, [r7, #2]
 5480 017a 07F58872 		add	r2, r7, #272
 5481 017e 01A9     		add	r1, sp, #4
 5482 0180 3046     		mov	r0, r6
 5483 0182 FFF7FEFF 		bl	PTP_GetDevicePropValue.isra.0
 5484              	.LVL426:
 722:./Libraries/STM32_USB_Host_Library/Class/MTP/Src/usbh_mtp_ptp.c ****       PTP_GetDevicePropValue(phost, &offset, opdlen, &opd->FORM.Range.StepSize, opd->DataType);
 5485              		.loc 1 722 7 view .LVU2038
 5486 0186 7B88     		ldrh	r3, [r7, #2]
 5487 0188 07F50472 		add	r2, r7, #528
 5488 018c 01A9     		add	r1, sp, #4
 5489 018e 3046     		mov	r0, r6
 5490 0190 FFF7FEFF 		bl	PTP_GetDevicePropValue.isra.0
 5491              	.LVL427:
 723:./Libraries/STM32_USB_Host_Library/Class/MTP/Src/usbh_mtp_ptp.c ****       break;
 5492              		.loc 1 723 7 view .LVU2039
 5493 0194 01A9     		add	r1, sp, #4
 5494 0196 3046     		mov	r0, r6
 5495 0198 7B88     		ldrh	r3, [r7, #2]
 5496 019a 07F54472 		add	r2, r7, #784
 5497 019e FFF7FEFF 		bl	PTP_GetDevicePropValue.isra.0
 5498              	.LVL428:
 724:./Libraries/STM32_USB_Host_Library/Class/MTP/Src/usbh_mtp_ptp.c **** 
 5499              		.loc 1 724 7 view .LVU2040
 5500 01a2 41E7     		b	.L243
 5501              	.LBE117:
 5502              	.LBE116:
 5503              		.cfi_endproc
 5504              	.LFE365:
ARM GAS  /tmp/ccSE0mVF.s 			page 159


 5506              		.section	.text.USBH_PTP_GetObjectPropList,"ax",%progbits
 5507              		.align	1
 5508              		.p2align 2,,3
 5509              		.global	USBH_PTP_GetObjectPropList
 5510              		.syntax unified
 5511              		.thumb
 5512              		.thumb_func
 5513              		.fpu fpv5-d16
 5515              	USBH_PTP_GetObjectPropList:
 5516              	.LVL429:
 5517              	.LFB366:
1802:./Libraries/STM32_USB_Host_Library/Class/MTP/Src/usbh_mtp_ptp.c **** 
1803:./Libraries/STM32_USB_Host_Library/Class/MTP/Src/usbh_mtp_ptp.c **** /**
1804:./Libraries/STM32_USB_Host_Library/Class/MTP/Src/usbh_mtp_ptp.c ****   * @brief  USBH_PTP_GetObjectPropList
1805:./Libraries/STM32_USB_Host_Library/Class/MTP/Src/usbh_mtp_ptp.c ****   *         Gets object partially
1806:./Libraries/STM32_USB_Host_Library/Class/MTP/Src/usbh_mtp_ptp.c ****   * @param  phost: Host handle
1807:./Libraries/STM32_USB_Host_Library/Class/MTP/Src/usbh_mtp_ptp.c ****   * @param  dev_info: Device info structure
1808:./Libraries/STM32_USB_Host_Library/Class/MTP/Src/usbh_mtp_ptp.c ****   * @retval USBH Status
1809:./Libraries/STM32_USB_Host_Library/Class/MTP/Src/usbh_mtp_ptp.c ****   */
1810:./Libraries/STM32_USB_Host_Library/Class/MTP/Src/usbh_mtp_ptp.c **** USBH_StatusTypeDef USBH_PTP_GetObjectPropList(USBH_HandleTypeDef *phost,
1811:./Libraries/STM32_USB_Host_Library/Class/MTP/Src/usbh_mtp_ptp.c ****                                               uint32_t handle,
1812:./Libraries/STM32_USB_Host_Library/Class/MTP/Src/usbh_mtp_ptp.c ****                                               MTP_PropertiesTypedef *pprops,
1813:./Libraries/STM32_USB_Host_Library/Class/MTP/Src/usbh_mtp_ptp.c ****                                               uint32_t *nrofprops)
1814:./Libraries/STM32_USB_Host_Library/Class/MTP/Src/usbh_mtp_ptp.c **** {
 5518              		.loc 1 1814 1 view -0
 5519              		.cfi_startproc
 5520              		@ args = 0, pretend = 0, frame = 48
 5521              		@ frame_needed = 0, uses_anonymous_args = 0
1815:./Libraries/STM32_USB_Host_Library/Class/MTP/Src/usbh_mtp_ptp.c ****   /* Prevent unused argument(s) compilation warning */
1816:./Libraries/STM32_USB_Host_Library/Class/MTP/Src/usbh_mtp_ptp.c ****   UNUSED(nrofprops);
 5522              		.loc 1 1816 3 view .LVU2042
1817:./Libraries/STM32_USB_Host_Library/Class/MTP/Src/usbh_mtp_ptp.c **** 
1818:./Libraries/STM32_USB_Host_Library/Class/MTP/Src/usbh_mtp_ptp.c ****   USBH_StatusTypeDef status = USBH_BUSY;
 5523              		.loc 1 1818 3 view .LVU2043
1819:./Libraries/STM32_USB_Host_Library/Class/MTP/Src/usbh_mtp_ptp.c ****   MTP_HandleTypeDef *MTP_Handle = (MTP_HandleTypeDef *)phost->pActiveClass->pData;
 5524              		.loc 1 1819 3 view .LVU2044
1814:./Libraries/STM32_USB_Host_Library/Class/MTP/Src/usbh_mtp_ptp.c ****   /* Prevent unused argument(s) compilation warning */
 5525              		.loc 1 1814 1 is_stmt 0 view .LVU2045
 5526 0000 2DE9F04F 		push	{r4, r5, r6, r7, r8, r9, r10, fp, lr}
 5527              	.LCFI132:
 5528              		.cfi_def_cfa_offset 36
 5529              		.cfi_offset 4, -36
 5530              		.cfi_offset 5, -32
 5531              		.cfi_offset 6, -28
 5532              		.cfi_offset 7, -24
 5533              		.cfi_offset 8, -20
 5534              		.cfi_offset 9, -16
 5535              		.cfi_offset 10, -12
 5536              		.cfi_offset 11, -8
 5537              		.cfi_offset 14, -4
 5538              		.loc 1 1819 22 view .LVU2046
 5539 0004 D0F87C54 		ldr	r5, [r0, #1148]
1820:./Libraries/STM32_USB_Host_Library/Class/MTP/Src/usbh_mtp_ptp.c ****   PTP_ContainerTypedef ptp_container;
1821:./Libraries/STM32_USB_Host_Library/Class/MTP/Src/usbh_mtp_ptp.c **** 
1822:./Libraries/STM32_USB_Host_Library/Class/MTP/Src/usbh_mtp_ptp.c ****   switch (MTP_Handle->ptp.req_state)
 5540              		.loc 1 1822 26 view .LVU2047
 5541 0008 41F66153 		movw	r3, #7521
ARM GAS  /tmp/ccSE0mVF.s 			page 160


 5542              	.LVL430:
1814:./Libraries/STM32_USB_Host_Library/Class/MTP/Src/usbh_mtp_ptp.c ****   /* Prevent unused argument(s) compilation warning */
 5543              		.loc 1 1814 1 view .LVU2048
 5544 000c 8DB0     		sub	sp, sp, #52
 5545              	.LCFI133:
 5546              		.cfi_def_cfa_offset 88
1814:./Libraries/STM32_USB_Host_Library/Class/MTP/Src/usbh_mtp_ptp.c ****   /* Prevent unused argument(s) compilation warning */
 5547              		.loc 1 1814 1 view .LVU2049
 5548 000e 0646     		mov	r6, r0
1819:./Libraries/STM32_USB_Host_Library/Class/MTP/Src/usbh_mtp_ptp.c ****   PTP_ContainerTypedef ptp_container;
 5549              		.loc 1 1819 22 view .LVU2050
 5550 0010 EF69     		ldr	r7, [r5, #28]
 5551              	.LVL431:
1820:./Libraries/STM32_USB_Host_Library/Class/MTP/Src/usbh_mtp_ptp.c ****   PTP_ContainerTypedef ptp_container;
 5552              		.loc 1 1820 3 is_stmt 1 view .LVU2051
 5553              		.loc 1 1822 3 view .LVU2052
 5554              		.loc 1 1822 26 is_stmt 0 view .LVU2053
 5555 0012 FD5C     		ldrb	r5, [r7, r3]	@ zero_extendqisi2
 5556              		.loc 1 1822 3 view .LVU2054
 5557 0014 012D     		cmp	r5, #1
 5558 0016 10D0     		beq	.L255
 5559 0018 022D     		cmp	r5, #2
 5560 001a 09D1     		bne	.L269
1823:./Libraries/STM32_USB_Host_Library/Class/MTP/Src/usbh_mtp_ptp.c ****   {
1824:./Libraries/STM32_USB_Host_Library/Class/MTP/Src/usbh_mtp_ptp.c ****     case PTP_REQ_SEND:
1825:./Libraries/STM32_USB_Host_Library/Class/MTP/Src/usbh_mtp_ptp.c **** 
1826:./Libraries/STM32_USB_Host_Library/Class/MTP/Src/usbh_mtp_ptp.c ****       /* Set operation request type */
1827:./Libraries/STM32_USB_Host_Library/Class/MTP/Src/usbh_mtp_ptp.c ****       MTP_Handle->ptp.flags = PTP_DP_GETDATA;
1828:./Libraries/STM32_USB_Host_Library/Class/MTP/Src/usbh_mtp_ptp.c ****       MTP_Handle->ptp.data_ptr = (uint8_t *)(void *) &(MTP_Handle->ptp.data_container);
1829:./Libraries/STM32_USB_Host_Library/Class/MTP/Src/usbh_mtp_ptp.c ****       MTP_Handle->ptp.data_length = 0U;
1830:./Libraries/STM32_USB_Host_Library/Class/MTP/Src/usbh_mtp_ptp.c ****       MTP_Handle->ptp.data_packet_counter = 0U;
1831:./Libraries/STM32_USB_Host_Library/Class/MTP/Src/usbh_mtp_ptp.c ****       MTP_Handle->ptp.data_packet = 0U;
1832:./Libraries/STM32_USB_Host_Library/Class/MTP/Src/usbh_mtp_ptp.c **** 
1833:./Libraries/STM32_USB_Host_Library/Class/MTP/Src/usbh_mtp_ptp.c ****       /* copy first packet of the object into data container */
1834:./Libraries/STM32_USB_Host_Library/Class/MTP/Src/usbh_mtp_ptp.c ****       USBH_memcpy(MTP_Handle->ptp.data_container.payload.data,
1835:./Libraries/STM32_USB_Host_Library/Class/MTP/Src/usbh_mtp_ptp.c ****                   MTP_Handle->ptp.object_ptr, PTP_USB_BULK_PAYLOAD_LEN_READ);
1836:./Libraries/STM32_USB_Host_Library/Class/MTP/Src/usbh_mtp_ptp.c **** 
1837:./Libraries/STM32_USB_Host_Library/Class/MTP/Src/usbh_mtp_ptp.c ****       /* Fill operation request params */
1838:./Libraries/STM32_USB_Host_Library/Class/MTP/Src/usbh_mtp_ptp.c ****       ptp_container.Code = PTP_OC_GetObjPropList;
1839:./Libraries/STM32_USB_Host_Library/Class/MTP/Src/usbh_mtp_ptp.c ****       ptp_container.SessionID = MTP_Handle->ptp.session_id;
1840:./Libraries/STM32_USB_Host_Library/Class/MTP/Src/usbh_mtp_ptp.c ****       ptp_container.Transaction_ID = MTP_Handle->ptp.transaction_id++;
1841:./Libraries/STM32_USB_Host_Library/Class/MTP/Src/usbh_mtp_ptp.c ****       ptp_container.Param1 = handle;
1842:./Libraries/STM32_USB_Host_Library/Class/MTP/Src/usbh_mtp_ptp.c ****       ptp_container.Param2 = 0x00000000U;  /* 0x00000000U should be "all formats" */
1843:./Libraries/STM32_USB_Host_Library/Class/MTP/Src/usbh_mtp_ptp.c ****       ptp_container.Param3 = 0xFFFFFFFFU;  /* 0xFFFFFFFFU should be "all properties" */
1844:./Libraries/STM32_USB_Host_Library/Class/MTP/Src/usbh_mtp_ptp.c ****       ptp_container.Param4 = 0x00000000U;
1845:./Libraries/STM32_USB_Host_Library/Class/MTP/Src/usbh_mtp_ptp.c ****       ptp_container.Param5 = 0xFFFFFFFFU;  /* Return full tree below the Param1 handle */
1846:./Libraries/STM32_USB_Host_Library/Class/MTP/Src/usbh_mtp_ptp.c ****       ptp_container.Nparam = 5U;
1847:./Libraries/STM32_USB_Host_Library/Class/MTP/Src/usbh_mtp_ptp.c **** 
1848:./Libraries/STM32_USB_Host_Library/Class/MTP/Src/usbh_mtp_ptp.c ****       /* convert request packet into USB raw packet*/
1849:./Libraries/STM32_USB_Host_Library/Class/MTP/Src/usbh_mtp_ptp.c ****       USBH_PTP_SendRequest(phost, &ptp_container);
1850:./Libraries/STM32_USB_Host_Library/Class/MTP/Src/usbh_mtp_ptp.c **** 
1851:./Libraries/STM32_USB_Host_Library/Class/MTP/Src/usbh_mtp_ptp.c ****       /* Setup State machine and start transfer */
1852:./Libraries/STM32_USB_Host_Library/Class/MTP/Src/usbh_mtp_ptp.c ****       MTP_Handle->ptp.state = PTP_OP_REQUEST_STATE;
1853:./Libraries/STM32_USB_Host_Library/Class/MTP/Src/usbh_mtp_ptp.c ****       MTP_Handle->ptp.req_state = PTP_REQ_WAIT;
1854:./Libraries/STM32_USB_Host_Library/Class/MTP/Src/usbh_mtp_ptp.c ****       status = USBH_BUSY;
1855:./Libraries/STM32_USB_Host_Library/Class/MTP/Src/usbh_mtp_ptp.c **** 
1856:./Libraries/STM32_USB_Host_Library/Class/MTP/Src/usbh_mtp_ptp.c **** #if (USBH_USE_OS == 1U)
ARM GAS  /tmp/ccSE0mVF.s 			page 161


1857:./Libraries/STM32_USB_Host_Library/Class/MTP/Src/usbh_mtp_ptp.c ****       phost->os_msg = (uint32_t)USBH_STATE_CHANGED_EVENT;
1858:./Libraries/STM32_USB_Host_Library/Class/MTP/Src/usbh_mtp_ptp.c **** #if (osCMSIS < 0x20000U)
1859:./Libraries/STM32_USB_Host_Library/Class/MTP/Src/usbh_mtp_ptp.c ****       (void)osMessagePut(phost->os_event, phost->os_msg, 0U);
1860:./Libraries/STM32_USB_Host_Library/Class/MTP/Src/usbh_mtp_ptp.c **** #else
1861:./Libraries/STM32_USB_Host_Library/Class/MTP/Src/usbh_mtp_ptp.c ****       (void)osMessageQueuePut(phost->os_event, &phost->os_msg, 0U, NULL);
1862:./Libraries/STM32_USB_Host_Library/Class/MTP/Src/usbh_mtp_ptp.c **** #endif
1863:./Libraries/STM32_USB_Host_Library/Class/MTP/Src/usbh_mtp_ptp.c **** #endif
1864:./Libraries/STM32_USB_Host_Library/Class/MTP/Src/usbh_mtp_ptp.c ****       break;
1865:./Libraries/STM32_USB_Host_Library/Class/MTP/Src/usbh_mtp_ptp.c **** 
1866:./Libraries/STM32_USB_Host_Library/Class/MTP/Src/usbh_mtp_ptp.c ****     case PTP_REQ_WAIT:
1867:./Libraries/STM32_USB_Host_Library/Class/MTP/Src/usbh_mtp_ptp.c ****       status = USBH_PTP_Process(phost);
 5561              		.loc 1 1867 7 is_stmt 1 view .LVU2055
 5562 001c 1446     		mov	r4, r2
 5563              		.loc 1 1867 16 is_stmt 0 view .LVU2056
 5564 001e FFF7FEFF 		bl	USBH_PTP_Process
 5565              	.LVL432:
1868:./Libraries/STM32_USB_Host_Library/Class/MTP/Src/usbh_mtp_ptp.c **** 
1869:./Libraries/STM32_USB_Host_Library/Class/MTP/Src/usbh_mtp_ptp.c ****       if (status == USBH_OK)
 5566              		.loc 1 1869 7 is_stmt 1 view .LVU2057
 5567              		.loc 1 1869 10 is_stmt 0 view .LVU2058
 5568 0022 0546     		mov	r5, r0
 5569 0024 0028     		cmp	r0, #0
 5570 0026 5CD0     		beq	.L270
 5571              	.LVL433:
 5572              	.L257:
1870:./Libraries/STM32_USB_Host_Library/Class/MTP/Src/usbh_mtp_ptp.c ****       {
1871:./Libraries/STM32_USB_Host_Library/Class/MTP/Src/usbh_mtp_ptp.c ****         PTP_GetObjectPropList(phost, pprops,  MTP_Handle->ptp.data_length);
1872:./Libraries/STM32_USB_Host_Library/Class/MTP/Src/usbh_mtp_ptp.c ****       }
1873:./Libraries/STM32_USB_Host_Library/Class/MTP/Src/usbh_mtp_ptp.c ****       break;
1874:./Libraries/STM32_USB_Host_Library/Class/MTP/Src/usbh_mtp_ptp.c **** 
1875:./Libraries/STM32_USB_Host_Library/Class/MTP/Src/usbh_mtp_ptp.c ****     default:
1876:./Libraries/STM32_USB_Host_Library/Class/MTP/Src/usbh_mtp_ptp.c ****       break;
1877:./Libraries/STM32_USB_Host_Library/Class/MTP/Src/usbh_mtp_ptp.c ****   }
1878:./Libraries/STM32_USB_Host_Library/Class/MTP/Src/usbh_mtp_ptp.c ****   return status;
 5573              		.loc 1 1878 3 is_stmt 1 view .LVU2059
1879:./Libraries/STM32_USB_Host_Library/Class/MTP/Src/usbh_mtp_ptp.c **** }
 5574              		.loc 1 1879 1 is_stmt 0 view .LVU2060
 5575 0028 2846     		mov	r0, r5
 5576 002a 0DB0     		add	sp, sp, #52
 5577              	.LCFI134:
 5578              		.cfi_remember_state
 5579              		.cfi_def_cfa_offset 36
 5580              		@ sp needed
 5581 002c BDE8F08F 		pop	{r4, r5, r6, r7, r8, r9, r10, fp, pc}
 5582              	.LVL434:
 5583              	.L269:
 5584              	.LCFI135:
 5585              		.cfi_restore_state
1822:./Libraries/STM32_USB_Host_Library/Class/MTP/Src/usbh_mtp_ptp.c ****   {
 5586              		.loc 1 1822 3 view .LVU2061
 5587 0030 0125     		movs	r5, #1
 5588              	.LVL435:
1878:./Libraries/STM32_USB_Host_Library/Class/MTP/Src/usbh_mtp_ptp.c **** }
 5589              		.loc 1 1878 3 is_stmt 1 view .LVU2062
 5590              		.loc 1 1879 1 is_stmt 0 view .LVU2063
 5591 0032 2846     		mov	r0, r5
 5592              	.LVL436:
ARM GAS  /tmp/ccSE0mVF.s 			page 162


 5593              		.loc 1 1879 1 view .LVU2064
 5594 0034 0DB0     		add	sp, sp, #52
 5595              	.LCFI136:
 5596              		.cfi_remember_state
 5597              		.cfi_def_cfa_offset 36
 5598              		@ sp needed
 5599 0036 BDE8F08F 		pop	{r4, r5, r6, r7, r8, r9, r10, fp, pc}
 5600              	.LVL437:
 5601              	.L255:
 5602              	.LCFI137:
 5603              		.cfi_restore_state
1827:./Libraries/STM32_USB_Host_Library/Class/MTP/Src/usbh_mtp_ptp.c ****       MTP_Handle->ptp.data_ptr = (uint8_t *)(void *) &(MTP_Handle->ptp.data_container);
 5604              		.loc 1 1827 7 is_stmt 1 view .LVU2065
1828:./Libraries/STM32_USB_Host_Library/Class/MTP/Src/usbh_mtp_ptp.c ****       MTP_Handle->ptp.data_length = 0U;
 5605              		.loc 1 1828 54 is_stmt 0 view .LVU2066
 5606 003a 41F68453 		movw	r3, #7556
 5607 003e 8846     		mov	r8, r1
1827:./Libraries/STM32_USB_Host_Library/Class/MTP/Src/usbh_mtp_ptp.c ****       MTP_Handle->ptp.data_ptr = (uint8_t *)(void *) &(MTP_Handle->ptp.data_container);
 5608              		.loc 1 1827 29 view .LVU2067
 5609 0040 42F2AC10 		movw	r0, #8620
 5610              	.LVL438:
1828:./Libraries/STM32_USB_Host_Library/Class/MTP/Src/usbh_mtp_ptp.c ****       MTP_Handle->ptp.data_length = 0U;
 5611              		.loc 1 1828 32 view .LVU2068
 5612 0044 42F2B011 		movw	r1, #8624
 5613              	.LVL439:
1828:./Libraries/STM32_USB_Host_Library/Class/MTP/Src/usbh_mtp_ptp.c ****       MTP_Handle->ptp.data_length = 0U;
 5614              		.loc 1 1828 54 view .LVU2069
 5615 0048 3B44     		add	r3, r3, r7
1827:./Libraries/STM32_USB_Host_Library/Class/MTP/Src/usbh_mtp_ptp.c ****       MTP_Handle->ptp.data_ptr = (uint8_t *)(void *) &(MTP_Handle->ptp.data_container);
 5616              		.loc 1 1827 29 view .LVU2070
 5617 004a 4FF0020C 		mov	ip, #2
1829:./Libraries/STM32_USB_Host_Library/Class/MTP/Src/usbh_mtp_ptp.c ****       MTP_Handle->ptp.data_packet_counter = 0U;
 5618              		.loc 1 1829 35 view .LVU2071
 5619 004e 0024     		movs	r4, #0
1830:./Libraries/STM32_USB_Host_Library/Class/MTP/Src/usbh_mtp_ptp.c ****       MTP_Handle->ptp.data_packet = 0U;
 5620              		.loc 1 1830 43 view .LVU2072
 5621 0050 07F5075E 		add	lr, r7, #8640
1827:./Libraries/STM32_USB_Host_Library/Class/MTP/Src/usbh_mtp_ptp.c ****       MTP_Handle->ptp.data_ptr = (uint8_t *)(void *) &(MTP_Handle->ptp.data_container);
 5622              		.loc 1 1827 29 view .LVU2073
 5623 0054 47F800C0 		str	ip, [r7, r0]
1828:./Libraries/STM32_USB_Host_Library/Class/MTP/Src/usbh_mtp_ptp.c ****       MTP_Handle->ptp.data_length = 0U;
 5624              		.loc 1 1828 7 is_stmt 1 view .LVU2074
1829:./Libraries/STM32_USB_Host_Library/Class/MTP/Src/usbh_mtp_ptp.c ****       MTP_Handle->ptp.data_packet_counter = 0U;
 5625              		.loc 1 1829 35 is_stmt 0 view .LVU2075
 5626 0058 42F2B412 		movw	r2, #8628
 5627              	.LVL440:
1828:./Libraries/STM32_USB_Host_Library/Class/MTP/Src/usbh_mtp_ptp.c ****       MTP_Handle->ptp.data_length = 0U;
 5628              		.loc 1 1828 32 view .LVU2076
 5629 005c 7B50     		str	r3, [r7, r1]
1829:./Libraries/STM32_USB_Host_Library/Class/MTP/Src/usbh_mtp_ptp.c ****       MTP_Handle->ptp.data_packet_counter = 0U;
 5630              		.loc 1 1829 7 is_stmt 1 view .LVU2077
1831:./Libraries/STM32_USB_Host_Library/Class/MTP/Src/usbh_mtp_ptp.c **** 
 5631              		.loc 1 1831 35 is_stmt 0 view .LVU2078
 5632 005e 42F2B81C 		movw	ip, #8632
1835:./Libraries/STM32_USB_Host_Library/Class/MTP/Src/usbh_mtp_ptp.c **** 
 5633              		.loc 1 1835 34 view .LVU2079
 5634 0062 42F2C413 		movw	r3, #8644
ARM GAS  /tmp/ccSE0mVF.s 			page 163


1834:./Libraries/STM32_USB_Host_Library/Class/MTP/Src/usbh_mtp_ptp.c ****                   MTP_Handle->ptp.object_ptr, PTP_USB_BULK_PAYLOAD_LEN_READ);
 5635              		.loc 1 1834 7 view .LVU2080
 5636 0066 41F69050 		movw	r0, #7568
1829:./Libraries/STM32_USB_Host_Library/Class/MTP/Src/usbh_mtp_ptp.c ****       MTP_Handle->ptp.data_packet_counter = 0U;
 5637              		.loc 1 1829 35 view .LVU2081
 5638 006a BC50     		str	r4, [r7, r2]
1830:./Libraries/STM32_USB_Host_Library/Class/MTP/Src/usbh_mtp_ptp.c ****       MTP_Handle->ptp.data_packet = 0U;
 5639              		.loc 1 1830 7 is_stmt 1 view .LVU2082
1834:./Libraries/STM32_USB_Host_Library/Class/MTP/Src/usbh_mtp_ptp.c ****                   MTP_Handle->ptp.object_ptr, PTP_USB_BULK_PAYLOAD_LEN_READ);
 5640              		.loc 1 1834 7 is_stmt 0 view .LVU2083
 5641 006c 4FF47D72 		mov	r2, #1012
 5642 0070 F958     		ldr	r1, [r7, r3]
 5643 0072 3844     		add	r0, r0, r7
1830:./Libraries/STM32_USB_Host_Library/Class/MTP/Src/usbh_mtp_ptp.c ****       MTP_Handle->ptp.data_packet = 0U;
 5644              		.loc 1 1830 43 view .LVU2084
 5645 0074 CEF80040 		str	r4, [lr]
1831:./Libraries/STM32_USB_Host_Library/Class/MTP/Src/usbh_mtp_ptp.c **** 
 5646              		.loc 1 1831 7 is_stmt 1 view .LVU2085
1846:./Libraries/STM32_USB_Host_Library/Class/MTP/Src/usbh_mtp_ptp.c **** 
 5647              		.loc 1 1846 28 is_stmt 0 view .LVU2086
 5648 0078 4FF00509 		mov	r9, #5
1831:./Libraries/STM32_USB_Host_Library/Class/MTP/Src/usbh_mtp_ptp.c **** 
 5649              		.loc 1 1831 35 view .LVU2087
 5650 007c 47F80C40 		str	r4, [r7, ip]
1834:./Libraries/STM32_USB_Host_Library/Class/MTP/Src/usbh_mtp_ptp.c ****                   MTP_Handle->ptp.object_ptr, PTP_USB_BULK_PAYLOAD_LEN_READ);
 5651              		.loc 1 1834 7 is_stmt 1 view .LVU2088
 5652 0080 FFF7FEFF 		bl	memcpy
 5653              	.LVL441:
1838:./Libraries/STM32_USB_Host_Library/Class/MTP/Src/usbh_mtp_ptp.c ****       ptp_container.SessionID = MTP_Handle->ptp.session_id;
 5654              		.loc 1 1838 7 view .LVU2089
1840:./Libraries/STM32_USB_Host_Library/Class/MTP/Src/usbh_mtp_ptp.c ****       ptp_container.Param1 = handle;
 5655              		.loc 1 1840 53 is_stmt 0 view .LVU2090
 5656 0084 42F2A411 		movw	r1, #8612
1839:./Libraries/STM32_USB_Host_Library/Class/MTP/Src/usbh_mtp_ptp.c ****       ptp_container.Transaction_ID = MTP_Handle->ptp.transaction_id++;
 5657              		.loc 1 1839 48 view .LVU2091
 5658 0088 42F2A813 		movw	r3, #8616
1838:./Libraries/STM32_USB_Host_Library/Class/MTP/Src/usbh_mtp_ptp.c ****       ptp_container.SessionID = MTP_Handle->ptp.session_id;
 5659              		.loc 1 1838 26 view .LVU2092
 5660 008c 49F6050C 		movw	ip, #38917
1840:./Libraries/STM32_USB_Host_Library/Class/MTP/Src/usbh_mtp_ptp.c ****       ptp_container.Param1 = handle;
 5661              		.loc 1 1840 53 view .LVU2093
 5662 0090 7A58     		ldr	r2, [r7, r1]
1839:./Libraries/STM32_USB_Host_Library/Class/MTP/Src/usbh_mtp_ptp.c ****       ptp_container.Transaction_ID = MTP_Handle->ptp.transaction_id++;
 5663              		.loc 1 1839 31 view .LVU2094
 5664 0092 FB58     		ldr	r3, [r7, r3]
1840:./Libraries/STM32_USB_Host_Library/Class/MTP/Src/usbh_mtp_ptp.c ****       ptp_container.Param1 = handle;
 5665              		.loc 1 1840 68 view .LVU2095
 5666 0094 501C     		adds	r0, r2, #1
1838:./Libraries/STM32_USB_Host_Library/Class/MTP/Src/usbh_mtp_ptp.c ****       ptp_container.SessionID = MTP_Handle->ptp.session_id;
 5667              		.loc 1 1838 26 view .LVU2096
 5668 0096 ADF80CC0 		strh	ip, [sp, #12]	@ movhi
1839:./Libraries/STM32_USB_Host_Library/Class/MTP/Src/usbh_mtp_ptp.c ****       ptp_container.Transaction_ID = MTP_Handle->ptp.transaction_id++;
 5669              		.loc 1 1839 7 is_stmt 1 view .LVU2097
1839:./Libraries/STM32_USB_Host_Library/Class/MTP/Src/usbh_mtp_ptp.c ****       ptp_container.Transaction_ID = MTP_Handle->ptp.transaction_id++;
 5670              		.loc 1 1839 31 is_stmt 0 view .LVU2098
 5671 009a 0493     		str	r3, [sp, #16]
1840:./Libraries/STM32_USB_Host_Library/Class/MTP/Src/usbh_mtp_ptp.c ****       ptp_container.Param1 = handle;
ARM GAS  /tmp/ccSE0mVF.s 			page 164


 5672              		.loc 1 1840 7 is_stmt 1 view .LVU2099
1843:./Libraries/STM32_USB_Host_Library/Class/MTP/Src/usbh_mtp_ptp.c ****       ptp_container.Param4 = 0x00000000U;
 5673              		.loc 1 1843 28 is_stmt 0 view .LVU2100
 5674 009c 4FF0FF33 		mov	r3, #-1
1840:./Libraries/STM32_USB_Host_Library/Class/MTP/Src/usbh_mtp_ptp.c ****       ptp_container.Param1 = handle;
 5675              		.loc 1 1840 68 view .LVU2101
 5676 00a0 7850     		str	r0, [r7, r1]
1849:./Libraries/STM32_USB_Host_Library/Class/MTP/Src/usbh_mtp_ptp.c **** 
 5677              		.loc 1 1849 7 view .LVU2102
 5678 00a2 03A9     		add	r1, sp, #12
 5679 00a4 3046     		mov	r0, r6
1840:./Libraries/STM32_USB_Host_Library/Class/MTP/Src/usbh_mtp_ptp.c ****       ptp_container.Param1 = handle;
 5680              		.loc 1 1840 36 view .LVU2103
 5681 00a6 0592     		str	r2, [sp, #20]
1841:./Libraries/STM32_USB_Host_Library/Class/MTP/Src/usbh_mtp_ptp.c ****       ptp_container.Param2 = 0x00000000U;  /* 0x00000000U should be "all formats" */
 5682              		.loc 1 1841 7 is_stmt 1 view .LVU2104
1843:./Libraries/STM32_USB_Host_Library/Class/MTP/Src/usbh_mtp_ptp.c ****       ptp_container.Param4 = 0x00000000U;
 5683              		.loc 1 1843 28 is_stmt 0 view .LVU2105
 5684 00a8 0893     		str	r3, [sp, #32]
1852:./Libraries/STM32_USB_Host_Library/Class/MTP/Src/usbh_mtp_ptp.c ****       MTP_Handle->ptp.req_state = PTP_REQ_WAIT;
 5685              		.loc 1 1852 29 view .LVU2106
 5686 00aa 07F5EB57 		add	r7, r7, #7520
 5687              	.LVL442:
1845:./Libraries/STM32_USB_Host_Library/Class/MTP/Src/usbh_mtp_ptp.c ****       ptp_container.Nparam = 5U;
 5688              		.loc 1 1845 28 view .LVU2107
 5689 00ae 0A93     		str	r3, [sp, #40]
1842:./Libraries/STM32_USB_Host_Library/Class/MTP/Src/usbh_mtp_ptp.c ****       ptp_container.Param3 = 0xFFFFFFFFU;  /* 0xFFFFFFFFU should be "all properties" */
 5690              		.loc 1 1842 28 view .LVU2108
 5691 00b0 0794     		str	r4, [sp, #28]
1844:./Libraries/STM32_USB_Host_Library/Class/MTP/Src/usbh_mtp_ptp.c ****       ptp_container.Param5 = 0xFFFFFFFFU;  /* Return full tree below the Param1 handle */
 5692              		.loc 1 1844 28 view .LVU2109
 5693 00b2 0994     		str	r4, [sp, #36]
1841:./Libraries/STM32_USB_Host_Library/Class/MTP/Src/usbh_mtp_ptp.c ****       ptp_container.Param2 = 0x00000000U;  /* 0x00000000U should be "all formats" */
 5694              		.loc 1 1841 28 view .LVU2110
 5695 00b4 CDF81880 		str	r8, [sp, #24]
1842:./Libraries/STM32_USB_Host_Library/Class/MTP/Src/usbh_mtp_ptp.c ****       ptp_container.Param3 = 0xFFFFFFFFU;  /* 0xFFFFFFFFU should be "all properties" */
 5696              		.loc 1 1842 7 is_stmt 1 view .LVU2111
1843:./Libraries/STM32_USB_Host_Library/Class/MTP/Src/usbh_mtp_ptp.c ****       ptp_container.Param4 = 0x00000000U;
 5697              		.loc 1 1843 7 view .LVU2112
1844:./Libraries/STM32_USB_Host_Library/Class/MTP/Src/usbh_mtp_ptp.c ****       ptp_container.Param5 = 0xFFFFFFFFU;  /* Return full tree below the Param1 handle */
 5698              		.loc 1 1844 7 view .LVU2113
1845:./Libraries/STM32_USB_Host_Library/Class/MTP/Src/usbh_mtp_ptp.c ****       ptp_container.Nparam = 5U;
 5699              		.loc 1 1845 7 view .LVU2114
1846:./Libraries/STM32_USB_Host_Library/Class/MTP/Src/usbh_mtp_ptp.c **** 
 5700              		.loc 1 1846 7 view .LVU2115
1846:./Libraries/STM32_USB_Host_Library/Class/MTP/Src/usbh_mtp_ptp.c **** 
 5701              		.loc 1 1846 28 is_stmt 0 view .LVU2116
 5702 00b8 8DF82C90 		strb	r9, [sp, #44]
1849:./Libraries/STM32_USB_Host_Library/Class/MTP/Src/usbh_mtp_ptp.c **** 
 5703              		.loc 1 1849 7 is_stmt 1 view .LVU2117
 5704 00bc FFF7FEFF 		bl	USBH_PTP_SendRequest
 5705              	.LVL443:
1852:./Libraries/STM32_USB_Host_Library/Class/MTP/Src/usbh_mtp_ptp.c ****       MTP_Handle->ptp.req_state = PTP_REQ_WAIT;
 5706              		.loc 1 1852 7 view .LVU2118
1853:./Libraries/STM32_USB_Host_Library/Class/MTP/Src/usbh_mtp_ptp.c ****       status = USBH_BUSY;
 5707              		.loc 1 1853 7 view .LVU2119
1852:./Libraries/STM32_USB_Host_Library/Class/MTP/Src/usbh_mtp_ptp.c ****       MTP_Handle->ptp.req_state = PTP_REQ_WAIT;
ARM GAS  /tmp/ccSE0mVF.s 			page 165


 5708              		.loc 1 1852 29 is_stmt 0 view .LVU2120
 5709 00c0 40F20122 		movw	r2, #513
1861:./Libraries/STM32_USB_Host_Library/Class/MTP/Src/usbh_mtp_ptp.c **** #endif
 5710              		.loc 1 1861 13 view .LVU2121
 5711 00c4 06F59C61 		add	r1, r6, #1248
 5712 00c8 2346     		mov	r3, r4
1852:./Libraries/STM32_USB_Host_Library/Class/MTP/Src/usbh_mtp_ptp.c ****       MTP_Handle->ptp.req_state = PTP_REQ_WAIT;
 5713              		.loc 1 1852 29 view .LVU2122
 5714 00ca 3A80     		strh	r2, [r7]	@ movhi
1854:./Libraries/STM32_USB_Host_Library/Class/MTP/Src/usbh_mtp_ptp.c **** 
 5715              		.loc 1 1854 7 is_stmt 1 view .LVU2123
1857:./Libraries/STM32_USB_Host_Library/Class/MTP/Src/usbh_mtp_ptp.c **** #if (osCMSIS < 0x20000U)
 5716              		.loc 1 1857 7 view .LVU2124
1861:./Libraries/STM32_USB_Host_Library/Class/MTP/Src/usbh_mtp_ptp.c **** #endif
 5717              		.loc 1 1861 13 is_stmt 0 view .LVU2125
 5718 00cc 2246     		mov	r2, r4
 5719 00ce D6F8D804 		ldr	r0, [r6, #1240]
1857:./Libraries/STM32_USB_Host_Library/Class/MTP/Src/usbh_mtp_ptp.c **** #if (osCMSIS < 0x20000U)
 5720              		.loc 1 1857 21 view .LVU2126
 5721 00d2 C6F8E094 		str	r9, [r6, #1248]
1861:./Libraries/STM32_USB_Host_Library/Class/MTP/Src/usbh_mtp_ptp.c **** #endif
 5722              		.loc 1 1861 7 is_stmt 1 view .LVU2127
1861:./Libraries/STM32_USB_Host_Library/Class/MTP/Src/usbh_mtp_ptp.c **** #endif
 5723              		.loc 1 1861 13 is_stmt 0 view .LVU2128
 5724 00d6 FFF7FEFF 		bl	osMessageQueuePut
 5725              	.LVL444:
1864:./Libraries/STM32_USB_Host_Library/Class/MTP/Src/usbh_mtp_ptp.c **** 
 5726              		.loc 1 1864 7 is_stmt 1 view .LVU2129
1878:./Libraries/STM32_USB_Host_Library/Class/MTP/Src/usbh_mtp_ptp.c **** }
 5727              		.loc 1 1878 3 view .LVU2130
 5728              		.loc 1 1879 1 is_stmt 0 view .LVU2131
 5729 00da 2846     		mov	r0, r5
 5730 00dc 0DB0     		add	sp, sp, #52
 5731              	.LCFI138:
 5732              		.cfi_remember_state
 5733              		.cfi_def_cfa_offset 36
 5734              		@ sp needed
 5735 00de BDE8F08F 		pop	{r4, r5, r6, r7, r8, r9, r10, fp, pc}
 5736              	.LVL445:
 5737              	.L270:
 5738              	.LCFI139:
 5739              		.cfi_restore_state
1871:./Libraries/STM32_USB_Host_Library/Class/MTP/Src/usbh_mtp_ptp.c ****       }
 5740              		.loc 1 1871 9 is_stmt 1 view .LVU2132
 5741              	.LBB120:
 5742              	.LBB121:
 824:./Libraries/STM32_USB_Host_Library/Class/MTP/Src/usbh_mtp_ptp.c ****   uint8_t *data = MTP_Handle->ptp.data_container.payload.data;
 5743              		.loc 1 824 25 is_stmt 0 view .LVU2133
 5744 00e2 D6F87C24 		ldr	r2, [r6, #1148]
 829:./Libraries/STM32_USB_Host_Library/Class/MTP/Src/usbh_mtp_ptp.c **** 
 5745              		.loc 1 829 14 view .LVU2134
 5746 00e6 41F69053 		movw	r3, #7568
 5747              	.LBE121:
 5748              	.LBE120:
1871:./Libraries/STM32_USB_Host_Library/Class/MTP/Src/usbh_mtp_ptp.c ****       }
 5749              		.loc 1 1871 9 view .LVU2135
 5750 00ea 42F2B411 		movw	r1, #8628
ARM GAS  /tmp/ccSE0mVF.s 			page 166


 5751              	.LBB124:
 5752              	.LBB122:
 824:./Libraries/STM32_USB_Host_Library/Class/MTP/Src/usbh_mtp_ptp.c ****   uint8_t *data = MTP_Handle->ptp.data_container.payload.data;
 5753              		.loc 1 824 25 view .LVU2136
 5754 00ee D269     		ldr	r2, [r2, #28]
 5755              	.LBE122:
 5756              	.LBE124:
1871:./Libraries/STM32_USB_Host_Library/Class/MTP/Src/usbh_mtp_ptp.c ****       }
 5757              		.loc 1 1871 9 view .LVU2137
 5758 00f0 7F58     		ldr	r7, [r7, r1]
 5759              	.LVL446:
 5760              	.LBB125:
 5761              	.LBI120:
 820:./Libraries/STM32_USB_Host_Library/Class/MTP/Src/usbh_mtp_ptp.c ****                                       MTP_PropertiesTypedef *props,
 5762              		.loc 1 820 17 is_stmt 1 view .LVU2138
 5763              	.LBB123:
 824:./Libraries/STM32_USB_Host_Library/Class/MTP/Src/usbh_mtp_ptp.c ****   uint8_t *data = MTP_Handle->ptp.data_container.payload.data;
 5764              		.loc 1 824 3 view .LVU2139
 825:./Libraries/STM32_USB_Host_Library/Class/MTP/Src/usbh_mtp_ptp.c ****   uint32_t prop_count;
 5765              		.loc 1 825 3 view .LVU2140
 826:./Libraries/STM32_USB_Host_Library/Class/MTP/Src/usbh_mtp_ptp.c ****   uint32_t offset = 0U, i;
 5766              		.loc 1 826 3 view .LVU2141
 827:./Libraries/STM32_USB_Host_Library/Class/MTP/Src/usbh_mtp_ptp.c **** 
 5767              		.loc 1 827 3 view .LVU2142
 829:./Libraries/STM32_USB_Host_Library/Class/MTP/Src/usbh_mtp_ptp.c **** 
 5768              		.loc 1 829 14 is_stmt 0 view .LVU2143
 5769 00f2 1344     		add	r3, r3, r2
 5770              	.LVL447:
 827:./Libraries/STM32_USB_Host_Library/Class/MTP/Src/usbh_mtp_ptp.c **** 
 5771              		.loc 1 827 12 view .LVU2144
 5772 00f4 0390     		str	r0, [sp, #12]
 829:./Libraries/STM32_USB_Host_Library/Class/MTP/Src/usbh_mtp_ptp.c **** 
 5773              		.loc 1 829 3 is_stmt 1 view .LVU2145
 829:./Libraries/STM32_USB_Host_Library/Class/MTP/Src/usbh_mtp_ptp.c **** 
 5774              		.loc 1 829 14 is_stmt 0 view .LVU2146
 5775 00f6 D3F800A0 		ldr	r10, [r3]	@ unaligned
 5776              	.LVL448:
 831:./Libraries/STM32_USB_Host_Library/Class/MTP/Src/usbh_mtp_ptp.c ****   {
 5777              		.loc 1 831 3 is_stmt 1 view .LVU2147
 831:./Libraries/STM32_USB_Host_Library/Class/MTP/Src/usbh_mtp_ptp.c ****   {
 5778              		.loc 1 831 6 is_stmt 0 view .LVU2148
 5779 00fa BAF1000F 		cmp	r10, #0
 5780 00fe 93D0     		beq	.L257
 836:./Libraries/STM32_USB_Host_Library/Class/MTP/Src/usbh_mtp_ptp.c ****   len -= sizeof(uint32_t);
 5781              		.loc 1 836 3 is_stmt 1 view .LVU2149
 836:./Libraries/STM32_USB_Host_Library/Class/MTP/Src/usbh_mtp_ptp.c ****   len -= sizeof(uint32_t);
 5782              		.loc 1 836 8 is_stmt 0 view .LVU2150
 5783 0100 41F69453 		movw	r3, #7572
 5784              	.LVL449:
 837:./Libraries/STM32_USB_Host_Library/Class/MTP/Src/usbh_mtp_ptp.c **** 
 5785              		.loc 1 837 7 view .LVU2151
 5786 0104 043F     		subs	r7, r7, #4
 5787              	.LVL450:
 837:./Libraries/STM32_USB_Host_Library/Class/MTP/Src/usbh_mtp_ptp.c **** 
 5788              		.loc 1 837 7 view .LVU2152
 5789 0106 0834     		adds	r4, r4, #8
 5790              	.LVL451:
ARM GAS  /tmp/ccSE0mVF.s 			page 167


 839:./Libraries/STM32_USB_Host_Library/Class/MTP/Src/usbh_mtp_ptp.c ****   {
 5791              		.loc 1 839 10 view .LVU2153
 5792 0108 8046     		mov	r8, r0
 836:./Libraries/STM32_USB_Host_Library/Class/MTP/Src/usbh_mtp_ptp.c ****   len -= sizeof(uint32_t);
 5793              		.loc 1 836 8 view .LVU2154
 5794 010a 1344     		add	r3, r3, r2
 5795              	.LVL452:
 837:./Libraries/STM32_USB_Host_Library/Class/MTP/Src/usbh_mtp_ptp.c **** 
 5796              		.loc 1 837 3 is_stmt 1 view .LVU2155
 839:./Libraries/STM32_USB_Host_Library/Class/MTP/Src/usbh_mtp_ptp.c ****   {
 5797              		.loc 1 839 3 view .LVU2156
 839:./Libraries/STM32_USB_Host_Library/Class/MTP/Src/usbh_mtp_ptp.c ****   {
 5798              		.loc 1 839 16 view .LVU2157
 863:./Libraries/STM32_USB_Host_Library/Class/MTP/Src/usbh_mtp_ptp.c ****   }
 5799              		.loc 1 863 9 is_stmt 0 view .LVU2158
 5800 010c 6FF0070B 		mvn	fp, #7
 5801 0110 0190     		str	r0, [sp, #4]
 5802              	.LVL453:
 5803              	.L259:
 841:./Libraries/STM32_USB_Host_Library/Class/MTP/Src/usbh_mtp_ptp.c ****     {
 5804              		.loc 1 841 5 is_stmt 1 view .LVU2159
 846:./Libraries/STM32_USB_Host_Library/Class/MTP/Src/usbh_mtp_ptp.c ****     data += sizeof(uint32_t);
 5805              		.loc 1 846 5 view .LVU2160
 860:./Libraries/STM32_USB_Host_Library/Class/MTP/Src/usbh_mtp_ptp.c **** 
 5806              		.loc 1 860 5 is_stmt 0 view .LVU2161
 5807 0112 2246     		mov	r2, r4
 5808 0114 03A9     		add	r1, sp, #12
 5809 0116 3046     		mov	r0, r6
 855:./Libraries/STM32_USB_Host_Library/Class/MTP/Src/usbh_mtp_ptp.c ****     len -= sizeof(uint16_t);
 5810              		.loc 1 855 10 view .LVU2162
 5811 0118 03F10809 		add	r9, r3, #8
 839:./Libraries/STM32_USB_Host_Library/Class/MTP/Src/usbh_mtp_ptp.c ****   {
 5812              		.loc 1 839 33 view .LVU2163
 5813 011c 08F10108 		add	r8, r8, #1
 5814              	.LVL454:
 841:./Libraries/STM32_USB_Host_Library/Class/MTP/Src/usbh_mtp_ptp.c ****     {
 5815              		.loc 1 841 8 view .LVU2164
 5816 0120 BFB1     		cbz	r7, .L267
 5817              	.LVL455:
 846:./Libraries/STM32_USB_Host_Library/Class/MTP/Src/usbh_mtp_ptp.c ****     data += sizeof(uint32_t);
 5818              		.loc 1 846 29 view .LVU2165
 5819 0122 D3F800C0 		ldr	ip, [r3]	@ unaligned
 858:./Libraries/STM32_USB_Host_Library/Class/MTP/Src/usbh_mtp_ptp.c **** 
 5820              		.loc 1 858 12 view .LVU2166
 5821 0126 0025     		movs	r5, #0
 846:./Libraries/STM32_USB_Host_Library/Class/MTP/Src/usbh_mtp_ptp.c ****     data += sizeof(uint32_t);
 5822              		.loc 1 846 27 view .LVU2167
 5823 0128 44F804CC 		str	ip, [r4, #-4]
 847:./Libraries/STM32_USB_Host_Library/Class/MTP/Src/usbh_mtp_ptp.c ****     len -= sizeof(uint32_t);
 5824              		.loc 1 847 5 is_stmt 1 view .LVU2168
 5825              	.LVL456:
 848:./Libraries/STM32_USB_Host_Library/Class/MTP/Src/usbh_mtp_ptp.c **** 
 5826              		.loc 1 848 5 view .LVU2169
 850:./Libraries/STM32_USB_Host_Library/Class/MTP/Src/usbh_mtp_ptp.c ****     data += sizeof(uint16_t);
 5827              		.loc 1 850 5 view .LVU2170
 850:./Libraries/STM32_USB_Host_Library/Class/MTP/Src/usbh_mtp_ptp.c ****     data += sizeof(uint16_t);
 5828              		.loc 1 850 25 is_stmt 0 view .LVU2171
ARM GAS  /tmp/ccSE0mVF.s 			page 168


 5829 012c B3F804C0 		ldrh	ip, [r3, #4]	@ unaligned
 850:./Libraries/STM32_USB_Host_Library/Class/MTP/Src/usbh_mtp_ptp.c ****     data += sizeof(uint16_t);
 5830              		.loc 1 850 23 view .LVU2172
 5831 0130 24F808CC 		strh	ip, [r4, #-8]	@ movhi
 851:./Libraries/STM32_USB_Host_Library/Class/MTP/Src/usbh_mtp_ptp.c ****     len -= sizeof(uint16_t);
 5832              		.loc 1 851 5 is_stmt 1 view .LVU2173
 5833              	.LVL457:
 852:./Libraries/STM32_USB_Host_Library/Class/MTP/Src/usbh_mtp_ptp.c **** 
 5834              		.loc 1 852 5 view .LVU2174
 854:./Libraries/STM32_USB_Host_Library/Class/MTP/Src/usbh_mtp_ptp.c ****     data += sizeof(uint16_t);
 5835              		.loc 1 854 5 view .LVU2175
 854:./Libraries/STM32_USB_Host_Library/Class/MTP/Src/usbh_mtp_ptp.c ****     data += sizeof(uint16_t);
 5836              		.loc 1 854 25 is_stmt 0 view .LVU2176
 5837 0134 DB88     		ldrh	r3, [r3, #6]	@ unaligned
 5838              	.LVL458:
 858:./Libraries/STM32_USB_Host_Library/Class/MTP/Src/usbh_mtp_ptp.c **** 
 5839              		.loc 1 858 12 view .LVU2177
 5840 0136 0395     		str	r5, [sp, #12]
 854:./Libraries/STM32_USB_Host_Library/Class/MTP/Src/usbh_mtp_ptp.c ****     data += sizeof(uint16_t);
 5841              		.loc 1 854 23 view .LVU2178
 5842 0138 24F8063C 		strh	r3, [r4, #-6]	@ movhi
 855:./Libraries/STM32_USB_Host_Library/Class/MTP/Src/usbh_mtp_ptp.c ****     len -= sizeof(uint16_t);
 5843              		.loc 1 855 5 is_stmt 1 view .LVU2179
 5844              	.LVL459:
 856:./Libraries/STM32_USB_Host_Library/Class/MTP/Src/usbh_mtp_ptp.c **** 
 5845              		.loc 1 856 5 view .LVU2180
 858:./Libraries/STM32_USB_Host_Library/Class/MTP/Src/usbh_mtp_ptp.c **** 
 5846              		.loc 1 858 5 view .LVU2181
 860:./Libraries/STM32_USB_Host_Library/Class/MTP/Src/usbh_mtp_ptp.c **** 
 5847              		.loc 1 860 5 view .LVU2182
 5848 013c 04F58474 		add	r4, r4, #264
 5849 0140 FFF7FEFF 		bl	PTP_GetDevicePropValue.isra.0
 5850              	.LVL460:
 862:./Libraries/STM32_USB_Host_Library/Class/MTP/Src/usbh_mtp_ptp.c ****     len -= offset;
 5851              		.loc 1 862 5 view .LVU2183
 862:./Libraries/STM32_USB_Host_Library/Class/MTP/Src/usbh_mtp_ptp.c ****     len -= offset;
 5852              		.loc 1 862 10 is_stmt 0 view .LVU2184
 5853 0144 039B     		ldr	r3, [sp, #12]
 839:./Libraries/STM32_USB_Host_Library/Class/MTP/Src/usbh_mtp_ptp.c ****   {
 5854              		.loc 1 839 3 view .LVU2185
 5855 0146 C245     		cmp	r10, r8
 863:./Libraries/STM32_USB_Host_Library/Class/MTP/Src/usbh_mtp_ptp.c ****   }
 5856              		.loc 1 863 9 view .LVU2186
 5857 0148 ABEB0302 		sub	r2, fp, r3
 862:./Libraries/STM32_USB_Host_Library/Class/MTP/Src/usbh_mtp_ptp.c ****     len -= offset;
 5858              		.loc 1 862 10 view .LVU2187
 5859 014c 4B44     		add	r3, r3, r9
 5860              	.LVL461:
 863:./Libraries/STM32_USB_Host_Library/Class/MTP/Src/usbh_mtp_ptp.c ****   }
 5861              		.loc 1 863 5 is_stmt 1 view .LVU2188
 863:./Libraries/STM32_USB_Host_Library/Class/MTP/Src/usbh_mtp_ptp.c ****   }
 5862              		.loc 1 863 9 is_stmt 0 view .LVU2189
 5863 014e 1744     		add	r7, r7, r2
 5864              	.LVL462:
 839:./Libraries/STM32_USB_Host_Library/Class/MTP/Src/usbh_mtp_ptp.c ****   {
 5865              		.loc 1 839 32 is_stmt 1 view .LVU2190
 839:./Libraries/STM32_USB_Host_Library/Class/MTP/Src/usbh_mtp_ptp.c ****   {
ARM GAS  /tmp/ccSE0mVF.s 			page 169


 5866              		.loc 1 839 16 view .LVU2191
 839:./Libraries/STM32_USB_Host_Library/Class/MTP/Src/usbh_mtp_ptp.c ****   {
 5867              		.loc 1 839 3 is_stmt 0 view .LVU2192
 5868 0150 DFD1     		bne	.L259
 5869              	.LVL463:
 5870              	.L267:
 839:./Libraries/STM32_USB_Host_Library/Class/MTP/Src/usbh_mtp_ptp.c ****   {
 5871              		.loc 1 839 3 view .LVU2193
 5872 0152 019D     		ldr	r5, [sp, #4]
 5873 0154 68E7     		b	.L257
 5874              	.LBE123:
 5875              	.LBE125:
 5876              		.cfi_endproc
 5877              	.LFE366:
 5879 0156 00BF     		.section	.text.USBH_PTP_SendObject,"ax",%progbits
 5880              		.align	1
 5881              		.p2align 2,,3
 5882              		.global	USBH_PTP_SendObject
 5883              		.syntax unified
 5884              		.thumb
 5885              		.thumb_func
 5886              		.fpu fpv5-d16
 5888              	USBH_PTP_SendObject:
 5889              	.LVL464:
 5890              	.LFB367:
1880:./Libraries/STM32_USB_Host_Library/Class/MTP/Src/usbh_mtp_ptp.c **** 
1881:./Libraries/STM32_USB_Host_Library/Class/MTP/Src/usbh_mtp_ptp.c **** /**
1882:./Libraries/STM32_USB_Host_Library/Class/MTP/Src/usbh_mtp_ptp.c ****   * @brief  USBH_PTP_SendObject
1883:./Libraries/STM32_USB_Host_Library/Class/MTP/Src/usbh_mtp_ptp.c ****   *         Send an object
1884:./Libraries/STM32_USB_Host_Library/Class/MTP/Src/usbh_mtp_ptp.c ****   * @param  phost: Host handle
1885:./Libraries/STM32_USB_Host_Library/Class/MTP/Src/usbh_mtp_ptp.c ****   * @param  dev_info: Device info structure
1886:./Libraries/STM32_USB_Host_Library/Class/MTP/Src/usbh_mtp_ptp.c ****   * @retval USBH Status
1887:./Libraries/STM32_USB_Host_Library/Class/MTP/Src/usbh_mtp_ptp.c ****   */
1888:./Libraries/STM32_USB_Host_Library/Class/MTP/Src/usbh_mtp_ptp.c **** USBH_StatusTypeDef USBH_PTP_SendObject(USBH_HandleTypeDef *phost,
1889:./Libraries/STM32_USB_Host_Library/Class/MTP/Src/usbh_mtp_ptp.c ****                                        uint32_t handle,
1890:./Libraries/STM32_USB_Host_Library/Class/MTP/Src/usbh_mtp_ptp.c ****                                        uint8_t *object,
1891:./Libraries/STM32_USB_Host_Library/Class/MTP/Src/usbh_mtp_ptp.c ****                                        uint32_t size)
1892:./Libraries/STM32_USB_Host_Library/Class/MTP/Src/usbh_mtp_ptp.c **** {
 5891              		.loc 1 1892 1 is_stmt 1 view -0
 5892              		.cfi_startproc
 5893              		@ args = 0, pretend = 0, frame = 40
 5894              		@ frame_needed = 0, uses_anonymous_args = 0
1893:./Libraries/STM32_USB_Host_Library/Class/MTP/Src/usbh_mtp_ptp.c ****   /* Prevent unused argument(s) compilation warning */
1894:./Libraries/STM32_USB_Host_Library/Class/MTP/Src/usbh_mtp_ptp.c ****   UNUSED(handle);
 5895              		.loc 1 1894 3 view .LVU2195
1895:./Libraries/STM32_USB_Host_Library/Class/MTP/Src/usbh_mtp_ptp.c **** 
1896:./Libraries/STM32_USB_Host_Library/Class/MTP/Src/usbh_mtp_ptp.c ****   USBH_StatusTypeDef status = USBH_BUSY;
 5896              		.loc 1 1896 3 view .LVU2196
1897:./Libraries/STM32_USB_Host_Library/Class/MTP/Src/usbh_mtp_ptp.c ****   MTP_HandleTypeDef *MTP_Handle = (MTP_HandleTypeDef *)phost->pActiveClass->pData;
 5897              		.loc 1 1897 3 view .LVU2197
1892:./Libraries/STM32_USB_Host_Library/Class/MTP/Src/usbh_mtp_ptp.c ****   /* Prevent unused argument(s) compilation warning */
 5898              		.loc 1 1892 1 is_stmt 0 view .LVU2198
 5899 0000 2DE9F047 		push	{r4, r5, r6, r7, r8, r9, r10, lr}
 5900              	.LCFI140:
 5901              		.cfi_def_cfa_offset 32
 5902              		.cfi_offset 4, -32
 5903              		.cfi_offset 5, -28
ARM GAS  /tmp/ccSE0mVF.s 			page 170


 5904              		.cfi_offset 6, -24
 5905              		.cfi_offset 7, -20
 5906              		.cfi_offset 8, -16
 5907              		.cfi_offset 9, -12
 5908              		.cfi_offset 10, -8
 5909              		.cfi_offset 14, -4
 5910              		.loc 1 1897 22 view .LVU2199
 5911 0004 D0F87C44 		ldr	r4, [r0, #1148]
1898:./Libraries/STM32_USB_Host_Library/Class/MTP/Src/usbh_mtp_ptp.c ****   PTP_ContainerTypedef ptp_container;
1899:./Libraries/STM32_USB_Host_Library/Class/MTP/Src/usbh_mtp_ptp.c **** 
1900:./Libraries/STM32_USB_Host_Library/Class/MTP/Src/usbh_mtp_ptp.c ****   switch (MTP_Handle->ptp.req_state)
 5912              		.loc 1 1900 26 view .LVU2200
 5913 0008 41F66151 		movw	r1, #7521
 5914              	.LVL465:
1892:./Libraries/STM32_USB_Host_Library/Class/MTP/Src/usbh_mtp_ptp.c ****   /* Prevent unused argument(s) compilation warning */
 5915              		.loc 1 1892 1 view .LVU2201
 5916 000c 8AB0     		sub	sp, sp, #40
 5917              	.LCFI141:
 5918              		.cfi_def_cfa_offset 72
1897:./Libraries/STM32_USB_Host_Library/Class/MTP/Src/usbh_mtp_ptp.c ****   PTP_ContainerTypedef ptp_container;
 5919              		.loc 1 1897 22 view .LVU2202
 5920 000e E469     		ldr	r4, [r4, #28]
 5921              	.LVL466:
1898:./Libraries/STM32_USB_Host_Library/Class/MTP/Src/usbh_mtp_ptp.c ****   PTP_ContainerTypedef ptp_container;
 5922              		.loc 1 1898 3 is_stmt 1 view .LVU2203
 5923              		.loc 1 1900 3 view .LVU2204
 5924              		.loc 1 1900 26 is_stmt 0 view .LVU2205
 5925 0010 655C     		ldrb	r5, [r4, r1]	@ zero_extendqisi2
 5926              		.loc 1 1900 3 view .LVU2206
 5927 0012 012D     		cmp	r5, #1
 5928 0014 0DD0     		beq	.L272
 5929 0016 022D     		cmp	r5, #2
 5930 0018 06D1     		bne	.L276
1901:./Libraries/STM32_USB_Host_Library/Class/MTP/Src/usbh_mtp_ptp.c ****   {
1902:./Libraries/STM32_USB_Host_Library/Class/MTP/Src/usbh_mtp_ptp.c ****     case PTP_REQ_SEND:
1903:./Libraries/STM32_USB_Host_Library/Class/MTP/Src/usbh_mtp_ptp.c ****       /* Set operation request type */
1904:./Libraries/STM32_USB_Host_Library/Class/MTP/Src/usbh_mtp_ptp.c ****       MTP_Handle->ptp.flags = PTP_DP_SENDDATA;
1905:./Libraries/STM32_USB_Host_Library/Class/MTP/Src/usbh_mtp_ptp.c ****       MTP_Handle->ptp.data_ptr = (uint8_t *)(void *) &(MTP_Handle->ptp.data_container);
1906:./Libraries/STM32_USB_Host_Library/Class/MTP/Src/usbh_mtp_ptp.c ****       MTP_Handle->ptp.data_packet_counter = 0U;
1907:./Libraries/STM32_USB_Host_Library/Class/MTP/Src/usbh_mtp_ptp.c ****       MTP_Handle->ptp.data_packet = 0U;
1908:./Libraries/STM32_USB_Host_Library/Class/MTP/Src/usbh_mtp_ptp.c ****       MTP_Handle->ptp.iteration = 0U;
1909:./Libraries/STM32_USB_Host_Library/Class/MTP/Src/usbh_mtp_ptp.c **** 
1910:./Libraries/STM32_USB_Host_Library/Class/MTP/Src/usbh_mtp_ptp.c ****       /* set object control params */
1911:./Libraries/STM32_USB_Host_Library/Class/MTP/Src/usbh_mtp_ptp.c ****       MTP_Handle->ptp.object_ptr = object;
1912:./Libraries/STM32_USB_Host_Library/Class/MTP/Src/usbh_mtp_ptp.c ****       MTP_Handle->ptp.data_length = size;
1913:./Libraries/STM32_USB_Host_Library/Class/MTP/Src/usbh_mtp_ptp.c **** 
1914:./Libraries/STM32_USB_Host_Library/Class/MTP/Src/usbh_mtp_ptp.c ****       /* Fill operation request params */
1915:./Libraries/STM32_USB_Host_Library/Class/MTP/Src/usbh_mtp_ptp.c ****       ptp_container.Code = PTP_OC_SendObject;
1916:./Libraries/STM32_USB_Host_Library/Class/MTP/Src/usbh_mtp_ptp.c ****       ptp_container.SessionID = MTP_Handle->ptp.session_id;
1917:./Libraries/STM32_USB_Host_Library/Class/MTP/Src/usbh_mtp_ptp.c ****       ptp_container.Transaction_ID = MTP_Handle->ptp.transaction_id ++;
1918:./Libraries/STM32_USB_Host_Library/Class/MTP/Src/usbh_mtp_ptp.c ****       ptp_container.Nparam = 0U;
1919:./Libraries/STM32_USB_Host_Library/Class/MTP/Src/usbh_mtp_ptp.c **** 
1920:./Libraries/STM32_USB_Host_Library/Class/MTP/Src/usbh_mtp_ptp.c ****       /* convert request packet into USB raw packet*/
1921:./Libraries/STM32_USB_Host_Library/Class/MTP/Src/usbh_mtp_ptp.c ****       USBH_PTP_SendRequest(phost, &ptp_container);
1922:./Libraries/STM32_USB_Host_Library/Class/MTP/Src/usbh_mtp_ptp.c **** 
1923:./Libraries/STM32_USB_Host_Library/Class/MTP/Src/usbh_mtp_ptp.c ****       /* Setup State machine and start transfer */
1924:./Libraries/STM32_USB_Host_Library/Class/MTP/Src/usbh_mtp_ptp.c ****       MTP_Handle->ptp.state = PTP_OP_REQUEST_STATE;
ARM GAS  /tmp/ccSE0mVF.s 			page 171


1925:./Libraries/STM32_USB_Host_Library/Class/MTP/Src/usbh_mtp_ptp.c ****       MTP_Handle->ptp.req_state = PTP_REQ_WAIT;
1926:./Libraries/STM32_USB_Host_Library/Class/MTP/Src/usbh_mtp_ptp.c ****       status = USBH_BUSY;
1927:./Libraries/STM32_USB_Host_Library/Class/MTP/Src/usbh_mtp_ptp.c **** 
1928:./Libraries/STM32_USB_Host_Library/Class/MTP/Src/usbh_mtp_ptp.c **** #if (USBH_USE_OS == 1U)
1929:./Libraries/STM32_USB_Host_Library/Class/MTP/Src/usbh_mtp_ptp.c ****       phost->os_msg = (uint32_t)USBH_STATE_CHANGED_EVENT;
1930:./Libraries/STM32_USB_Host_Library/Class/MTP/Src/usbh_mtp_ptp.c **** #if (osCMSIS < 0x20000U)
1931:./Libraries/STM32_USB_Host_Library/Class/MTP/Src/usbh_mtp_ptp.c ****       (void)osMessagePut(phost->os_event, phost->os_msg, 0U);
1932:./Libraries/STM32_USB_Host_Library/Class/MTP/Src/usbh_mtp_ptp.c **** #else
1933:./Libraries/STM32_USB_Host_Library/Class/MTP/Src/usbh_mtp_ptp.c ****       (void)osMessageQueuePut(phost->os_event, &phost->os_msg, 0U, NULL);
1934:./Libraries/STM32_USB_Host_Library/Class/MTP/Src/usbh_mtp_ptp.c **** #endif
1935:./Libraries/STM32_USB_Host_Library/Class/MTP/Src/usbh_mtp_ptp.c **** #endif
1936:./Libraries/STM32_USB_Host_Library/Class/MTP/Src/usbh_mtp_ptp.c ****       break;
1937:./Libraries/STM32_USB_Host_Library/Class/MTP/Src/usbh_mtp_ptp.c **** 
1938:./Libraries/STM32_USB_Host_Library/Class/MTP/Src/usbh_mtp_ptp.c ****     case PTP_REQ_WAIT:
1939:./Libraries/STM32_USB_Host_Library/Class/MTP/Src/usbh_mtp_ptp.c ****       status = USBH_PTP_Process(phost);
 5931              		.loc 1 1939 7 is_stmt 1 view .LVU2207
 5932              		.loc 1 1939 16 is_stmt 0 view .LVU2208
 5933 001a FFF7FEFF 		bl	USBH_PTP_Process
 5934              	.LVL467:
 5935              		.loc 1 1939 16 view .LVU2209
 5936 001e 0546     		mov	r5, r0
 5937              	.LVL468:
1940:./Libraries/STM32_USB_Host_Library/Class/MTP/Src/usbh_mtp_ptp.c ****       break;
 5938              		.loc 1 1940 7 is_stmt 1 view .LVU2210
1941:./Libraries/STM32_USB_Host_Library/Class/MTP/Src/usbh_mtp_ptp.c **** 
1942:./Libraries/STM32_USB_Host_Library/Class/MTP/Src/usbh_mtp_ptp.c ****     default:
1943:./Libraries/STM32_USB_Host_Library/Class/MTP/Src/usbh_mtp_ptp.c ****       break;
1944:./Libraries/STM32_USB_Host_Library/Class/MTP/Src/usbh_mtp_ptp.c ****   }
1945:./Libraries/STM32_USB_Host_Library/Class/MTP/Src/usbh_mtp_ptp.c ****   return status;
 5939              		.loc 1 1945 3 view .LVU2211
1946:./Libraries/STM32_USB_Host_Library/Class/MTP/Src/usbh_mtp_ptp.c **** }
 5940              		.loc 1 1946 1 is_stmt 0 view .LVU2212
 5941 0020 2846     		mov	r0, r5
 5942 0022 0AB0     		add	sp, sp, #40
 5943              	.LCFI142:
 5944              		.cfi_remember_state
 5945              		.cfi_def_cfa_offset 32
 5946              		@ sp needed
 5947 0024 BDE8F087 		pop	{r4, r5, r6, r7, r8, r9, r10, pc}
 5948              	.LVL469:
 5949              	.L276:
 5950              	.LCFI143:
 5951              		.cfi_restore_state
1900:./Libraries/STM32_USB_Host_Library/Class/MTP/Src/usbh_mtp_ptp.c ****   {
 5952              		.loc 1 1900 3 view .LVU2213
 5953 0028 0125     		movs	r5, #1
 5954              	.LVL470:
1945:./Libraries/STM32_USB_Host_Library/Class/MTP/Src/usbh_mtp_ptp.c **** }
 5955              		.loc 1 1945 3 is_stmt 1 view .LVU2214
 5956              		.loc 1 1946 1 is_stmt 0 view .LVU2215
 5957 002a 2846     		mov	r0, r5
 5958              	.LVL471:
 5959              		.loc 1 1946 1 view .LVU2216
 5960 002c 0AB0     		add	sp, sp, #40
 5961              	.LCFI144:
 5962              		.cfi_remember_state
 5963              		.cfi_def_cfa_offset 32
ARM GAS  /tmp/ccSE0mVF.s 			page 172


 5964              		@ sp needed
 5965 002e BDE8F087 		pop	{r4, r5, r6, r7, r8, r9, r10, pc}
 5966              	.LVL472:
 5967              	.L272:
 5968              	.LCFI145:
 5969              		.cfi_restore_state
1904:./Libraries/STM32_USB_Host_Library/Class/MTP/Src/usbh_mtp_ptp.c ****       MTP_Handle->ptp.data_ptr = (uint8_t *)(void *) &(MTP_Handle->ptp.data_container);
 5970              		.loc 1 1904 7 is_stmt 1 view .LVU2217
1917:./Libraries/STM32_USB_Host_Library/Class/MTP/Src/usbh_mtp_ptp.c ****       ptp_container.Nparam = 0U;
 5971              		.loc 1 1917 53 is_stmt 0 view .LVU2218
 5972 0032 42F2A41C 		movw	ip, #8612
1905:./Libraries/STM32_USB_Host_Library/Class/MTP/Src/usbh_mtp_ptp.c ****       MTP_Handle->ptp.data_packet_counter = 0U;
 5973              		.loc 1 1905 54 view .LVU2219
 5974 0036 41F68451 		movw	r1, #7556
1905:./Libraries/STM32_USB_Host_Library/Class/MTP/Src/usbh_mtp_ptp.c ****       MTP_Handle->ptp.data_packet_counter = 0U;
 5975              		.loc 1 1905 32 view .LVU2220
 5976 003a 42F2B018 		movw	r8, #8624
1904:./Libraries/STM32_USB_Host_Library/Class/MTP/Src/usbh_mtp_ptp.c ****       MTP_Handle->ptp.data_ptr = (uint8_t *)(void *) &(MTP_Handle->ptp.data_container);
 5977              		.loc 1 1904 29 view .LVU2221
 5978 003e 42F2AC19 		movw	r9, #8620
1917:./Libraries/STM32_USB_Host_Library/Class/MTP/Src/usbh_mtp_ptp.c ****       ptp_container.Nparam = 0U;
 5979              		.loc 1 1917 53 view .LVU2222
 5980 0042 54F80CE0 		ldr	lr, [r4, ip]
1905:./Libraries/STM32_USB_Host_Library/Class/MTP/Src/usbh_mtp_ptp.c ****       MTP_Handle->ptp.data_packet_counter = 0U;
 5981              		.loc 1 1905 54 view .LVU2223
 5982 0046 2144     		add	r1, r1, r4
1916:./Libraries/STM32_USB_Host_Library/Class/MTP/Src/usbh_mtp_ptp.c ****       ptp_container.Transaction_ID = MTP_Handle->ptp.transaction_id ++;
 5983              		.loc 1 1916 48 view .LVU2224
 5984 0048 42F2A817 		movw	r7, #8616
1904:./Libraries/STM32_USB_Host_Library/Class/MTP/Src/usbh_mtp_ptp.c ****       MTP_Handle->ptp.data_ptr = (uint8_t *)(void *) &(MTP_Handle->ptp.data_container);
 5985              		.loc 1 1904 29 view .LVU2225
 5986 004c 44F80950 		str	r5, [r4, r9]
1905:./Libraries/STM32_USB_Host_Library/Class/MTP/Src/usbh_mtp_ptp.c ****       MTP_Handle->ptp.data_packet_counter = 0U;
 5987              		.loc 1 1905 7 is_stmt 1 view .LVU2226
1905:./Libraries/STM32_USB_Host_Library/Class/MTP/Src/usbh_mtp_ptp.c ****       MTP_Handle->ptp.data_packet_counter = 0U;
 5988              		.loc 1 1905 32 is_stmt 0 view .LVU2227
 5989 0050 44F80810 		str	r1, [r4, r8]
1906:./Libraries/STM32_USB_Host_Library/Class/MTP/Src/usbh_mtp_ptp.c ****       MTP_Handle->ptp.data_packet = 0U;
 5990              		.loc 1 1906 7 is_stmt 1 view .LVU2228
1917:./Libraries/STM32_USB_Host_Library/Class/MTP/Src/usbh_mtp_ptp.c ****       ptp_container.Nparam = 0U;
 5991              		.loc 1 1917 69 is_stmt 0 view .LVU2229
 5992 0054 0EF10101 		add	r1, lr, #1
1916:./Libraries/STM32_USB_Host_Library/Class/MTP/Src/usbh_mtp_ptp.c ****       ptp_container.Transaction_ID = MTP_Handle->ptp.transaction_id ++;
 5993              		.loc 1 1916 31 view .LVU2230
 5994 0058 54F807A0 		ldr	r10, [r4, r7]
1906:./Libraries/STM32_USB_Host_Library/Class/MTP/Src/usbh_mtp_ptp.c ****       MTP_Handle->ptp.data_packet = 0U;
 5995              		.loc 1 1906 43 view .LVU2231
 5996 005c 04F50758 		add	r8, r4, #8640
 5997 0060 0027     		movs	r7, #0
1917:./Libraries/STM32_USB_Host_Library/Class/MTP/Src/usbh_mtp_ptp.c ****       ptp_container.Nparam = 0U;
 5998              		.loc 1 1917 36 view .LVU2232
 5999 0062 CDF80CE0 		str	lr, [sp, #12]
1907:./Libraries/STM32_USB_Host_Library/Class/MTP/Src/usbh_mtp_ptp.c ****       MTP_Handle->ptp.iteration = 0U;
 6000              		.loc 1 1907 35 view .LVU2233
 6001 0066 42F2B819 		movw	r9, #8632
1912:./Libraries/STM32_USB_Host_Library/Class/MTP/Src/usbh_mtp_ptp.c **** 
 6002              		.loc 1 1912 35 view .LVU2234
ARM GAS  /tmp/ccSE0mVF.s 			page 173


 6003 006a 42F2B41E 		movw	lr, #8628
1906:./Libraries/STM32_USB_Host_Library/Class/MTP/Src/usbh_mtp_ptp.c ****       MTP_Handle->ptp.data_packet = 0U;
 6004              		.loc 1 1906 43 view .LVU2235
 6005 006e C8F80070 		str	r7, [r8]
1907:./Libraries/STM32_USB_Host_Library/Class/MTP/Src/usbh_mtp_ptp.c ****       MTP_Handle->ptp.iteration = 0U;
 6006              		.loc 1 1907 7 is_stmt 1 view .LVU2236
1908:./Libraries/STM32_USB_Host_Library/Class/MTP/Src/usbh_mtp_ptp.c **** 
 6007              		.loc 1 1908 33 is_stmt 0 view .LVU2237
 6008 0072 42F2BC18 		movw	r8, #8636
1917:./Libraries/STM32_USB_Host_Library/Class/MTP/Src/usbh_mtp_ptp.c ****       ptp_container.Nparam = 0U;
 6009              		.loc 1 1917 69 view .LVU2238
 6010 0076 44F80C10 		str	r1, [r4, ip]
1911:./Libraries/STM32_USB_Host_Library/Class/MTP/Src/usbh_mtp_ptp.c ****       MTP_Handle->ptp.data_length = size;
 6011              		.loc 1 1911 34 view .LVU2239
 6012 007a 42F2C411 		movw	r1, #8644
1915:./Libraries/STM32_USB_Host_Library/Class/MTP/Src/usbh_mtp_ptp.c ****       ptp_container.SessionID = MTP_Handle->ptp.session_id;
 6013              		.loc 1 1915 26 view .LVU2240
 6014 007e 41F20D0C 		movw	ip, #4109
1907:./Libraries/STM32_USB_Host_Library/Class/MTP/Src/usbh_mtp_ptp.c ****       MTP_Handle->ptp.iteration = 0U;
 6015              		.loc 1 1907 35 view .LVU2241
 6016 0082 44F80970 		str	r7, [r4, r9]
1908:./Libraries/STM32_USB_Host_Library/Class/MTP/Src/usbh_mtp_ptp.c **** 
 6017              		.loc 1 1908 7 is_stmt 1 view .LVU2242
1908:./Libraries/STM32_USB_Host_Library/Class/MTP/Src/usbh_mtp_ptp.c **** 
 6018              		.loc 1 1908 33 is_stmt 0 view .LVU2243
 6019 0086 44F80870 		str	r7, [r4, r8]
1911:./Libraries/STM32_USB_Host_Library/Class/MTP/Src/usbh_mtp_ptp.c ****       MTP_Handle->ptp.data_length = size;
 6020              		.loc 1 1911 7 is_stmt 1 view .LVU2244
 6021 008a 0646     		mov	r6, r0
1911:./Libraries/STM32_USB_Host_Library/Class/MTP/Src/usbh_mtp_ptp.c ****       MTP_Handle->ptp.data_length = size;
 6022              		.loc 1 1911 34 is_stmt 0 view .LVU2245
 6023 008c 6250     		str	r2, [r4, r1]
1912:./Libraries/STM32_USB_Host_Library/Class/MTP/Src/usbh_mtp_ptp.c **** 
 6024              		.loc 1 1912 7 is_stmt 1 view .LVU2246
1921:./Libraries/STM32_USB_Host_Library/Class/MTP/Src/usbh_mtp_ptp.c **** 
 6025              		.loc 1 1921 7 is_stmt 0 view .LVU2247
 6026 008e 01A9     		add	r1, sp, #4
1912:./Libraries/STM32_USB_Host_Library/Class/MTP/Src/usbh_mtp_ptp.c **** 
 6027              		.loc 1 1912 35 view .LVU2248
 6028 0090 44F80E30 		str	r3, [r4, lr]
1915:./Libraries/STM32_USB_Host_Library/Class/MTP/Src/usbh_mtp_ptp.c ****       ptp_container.SessionID = MTP_Handle->ptp.session_id;
 6029              		.loc 1 1915 7 is_stmt 1 view .LVU2249
1924:./Libraries/STM32_USB_Host_Library/Class/MTP/Src/usbh_mtp_ptp.c ****       MTP_Handle->ptp.req_state = PTP_REQ_WAIT;
 6030              		.loc 1 1924 29 is_stmt 0 view .LVU2250
 6031 0094 04F5EB54 		add	r4, r4, #7520
 6032              	.LVL473:
1915:./Libraries/STM32_USB_Host_Library/Class/MTP/Src/usbh_mtp_ptp.c ****       ptp_container.SessionID = MTP_Handle->ptp.session_id;
 6033              		.loc 1 1915 26 view .LVU2251
 6034 0098 ADF804C0 		strh	ip, [sp, #4]	@ movhi
1916:./Libraries/STM32_USB_Host_Library/Class/MTP/Src/usbh_mtp_ptp.c ****       ptp_container.Transaction_ID = MTP_Handle->ptp.transaction_id ++;
 6035              		.loc 1 1916 7 is_stmt 1 view .LVU2252
1917:./Libraries/STM32_USB_Host_Library/Class/MTP/Src/usbh_mtp_ptp.c ****       ptp_container.Nparam = 0U;
 6036              		.loc 1 1917 7 view .LVU2253
1918:./Libraries/STM32_USB_Host_Library/Class/MTP/Src/usbh_mtp_ptp.c **** 
 6037              		.loc 1 1918 7 view .LVU2254
1921:./Libraries/STM32_USB_Host_Library/Class/MTP/Src/usbh_mtp_ptp.c **** 
 6038              		.loc 1 1921 7 view .LVU2255
ARM GAS  /tmp/ccSE0mVF.s 			page 174


1916:./Libraries/STM32_USB_Host_Library/Class/MTP/Src/usbh_mtp_ptp.c ****       ptp_container.Transaction_ID = MTP_Handle->ptp.transaction_id ++;
 6039              		.loc 1 1916 31 is_stmt 0 view .LVU2256
 6040 009c CDF808A0 		str	r10, [sp, #8]
1918:./Libraries/STM32_USB_Host_Library/Class/MTP/Src/usbh_mtp_ptp.c **** 
 6041              		.loc 1 1918 28 view .LVU2257
 6042 00a0 8DF82470 		strb	r7, [sp, #36]
 6043              	.LVL474:
1921:./Libraries/STM32_USB_Host_Library/Class/MTP/Src/usbh_mtp_ptp.c **** 
 6044              		.loc 1 1921 7 view .LVU2258
 6045 00a4 FFF7FEFF 		bl	USBH_PTP_SendRequest
 6046              	.LVL475:
1924:./Libraries/STM32_USB_Host_Library/Class/MTP/Src/usbh_mtp_ptp.c ****       MTP_Handle->ptp.req_state = PTP_REQ_WAIT;
 6047              		.loc 1 1924 7 is_stmt 1 view .LVU2259
1925:./Libraries/STM32_USB_Host_Library/Class/MTP/Src/usbh_mtp_ptp.c ****       status = USBH_BUSY;
 6048              		.loc 1 1925 7 view .LVU2260
1929:./Libraries/STM32_USB_Host_Library/Class/MTP/Src/usbh_mtp_ptp.c **** #if (osCMSIS < 0x20000U)
 6049              		.loc 1 1929 21 is_stmt 0 view .LVU2261
 6050 00a8 4FF0050C 		mov	ip, #5
1924:./Libraries/STM32_USB_Host_Library/Class/MTP/Src/usbh_mtp_ptp.c ****       MTP_Handle->ptp.req_state = PTP_REQ_WAIT;
 6051              		.loc 1 1924 29 view .LVU2262
 6052 00ac 40F20122 		movw	r2, #513
1933:./Libraries/STM32_USB_Host_Library/Class/MTP/Src/usbh_mtp_ptp.c **** #endif
 6053              		.loc 1 1933 13 view .LVU2263
 6054 00b0 3B46     		mov	r3, r7
 6055 00b2 06F59C61 		add	r1, r6, #1248
1924:./Libraries/STM32_USB_Host_Library/Class/MTP/Src/usbh_mtp_ptp.c ****       MTP_Handle->ptp.req_state = PTP_REQ_WAIT;
 6056              		.loc 1 1924 29 view .LVU2264
 6057 00b6 2280     		strh	r2, [r4]	@ movhi
1926:./Libraries/STM32_USB_Host_Library/Class/MTP/Src/usbh_mtp_ptp.c **** 
 6058              		.loc 1 1926 7 is_stmt 1 view .LVU2265
1929:./Libraries/STM32_USB_Host_Library/Class/MTP/Src/usbh_mtp_ptp.c **** #if (osCMSIS < 0x20000U)
 6059              		.loc 1 1929 7 view .LVU2266
1933:./Libraries/STM32_USB_Host_Library/Class/MTP/Src/usbh_mtp_ptp.c **** #endif
 6060              		.loc 1 1933 13 is_stmt 0 view .LVU2267
 6061 00b8 3A46     		mov	r2, r7
 6062 00ba D6F8D804 		ldr	r0, [r6, #1240]
1929:./Libraries/STM32_USB_Host_Library/Class/MTP/Src/usbh_mtp_ptp.c **** #if (osCMSIS < 0x20000U)
 6063              		.loc 1 1929 21 view .LVU2268
 6064 00be C6F8E0C4 		str	ip, [r6, #1248]
1933:./Libraries/STM32_USB_Host_Library/Class/MTP/Src/usbh_mtp_ptp.c **** #endif
 6065              		.loc 1 1933 7 is_stmt 1 view .LVU2269
1933:./Libraries/STM32_USB_Host_Library/Class/MTP/Src/usbh_mtp_ptp.c **** #endif
 6066              		.loc 1 1933 13 is_stmt 0 view .LVU2270
 6067 00c2 FFF7FEFF 		bl	osMessageQueuePut
 6068              	.LVL476:
1936:./Libraries/STM32_USB_Host_Library/Class/MTP/Src/usbh_mtp_ptp.c **** 
 6069              		.loc 1 1936 7 is_stmt 1 view .LVU2271
1945:./Libraries/STM32_USB_Host_Library/Class/MTP/Src/usbh_mtp_ptp.c **** }
 6070              		.loc 1 1945 3 view .LVU2272
 6071              		.loc 1 1946 1 is_stmt 0 view .LVU2273
 6072 00c6 2846     		mov	r0, r5
 6073 00c8 0AB0     		add	sp, sp, #40
 6074              	.LCFI146:
 6075              		.cfi_def_cfa_offset 32
 6076              		@ sp needed
 6077 00ca BDE8F087 		pop	{r4, r5, r6, r7, r8, r9, r10, pc}
 6078              		.loc 1 1946 1 view .LVU2274
ARM GAS  /tmp/ccSE0mVF.s 			page 175


 6079              		.cfi_endproc
 6080              	.LFE367:
 6082 00ce 00BF     		.text
 6083              	.Letext0:
 6084              		.file 2 "/usr/lib/gcc/arm-none-eabi/9.2.1/include/stdint.h"
 6085              		.file 3 "./Libraries/CMSIS/Core/Include/core_cm7.h"
 6086              		.file 4 "./Libraries/CMSIS/Device/ST/STM32H7xx/Include/system_stm32h7xx.h"
 6087              		.file 5 "/usr/lib/gcc/arm-none-eabi/9.2.1/include/stddef.h"
 6088              		.file 6 "/usr/include/newlib/sys/_types.h"
 6089              		.file 7 "/usr/include/newlib/sys/reent.h"
 6090              		.file 8 "/usr/include/newlib/sys/lock.h"
 6091              		.file 9 "/usr/include/newlib/math.h"
 6092              		.file 10 "./Libraries/STM32H7xx_HAL_Driver/Inc/stm32h7xx_hal_def.h"
 6093              		.file 11 "./Libraries/STM32H7xx_HAL_Driver/Inc/stm32h7xx_hal_flash.h"
 6094              		.file 12 "./Libraries/STM32H7xx_HAL_Driver/Inc/stm32h7xx_hal_uart.h"
 6095              		.file 13 "./Libraries/STM32H7xx_HAL_Driver/Inc/stm32h7xx_hal.h"
 6096              		.file 14 "/usr/include/newlib/stdlib.h"
 6097              		.file 15 "./Libraries/FreeRTOS/Source/CMSIS_RTOS/cmsis_os2.h"
 6098              		.file 16 "./Libraries/STM32_USB_Host_Library/Core/Inc/usbh_def.h"
 6099              		.file 17 "./Libraries/STM32_USB_Host_Library/Core/Inc/usbh_ctlreq.h"
 6100              		.file 18 "./Libraries/STM32_USB_Host_Library/Class/MTP/Inc/usbh_mtp_ptp.h"
 6101              		.file 19 "./Libraries/STM32_USB_Host_Library/Class/MTP/Inc/usbh_mtp.h"
 6102              		.file 20 "<built-in>"
 6103              		.file 21 "./Libraries/STM32_USB_Host_Library/Core/Inc/usbh_core.h"
 6104              		.file 22 "./Libraries/STM32_USB_Host_Library/Core/Inc/usbh_ioreq.h"
ARM GAS  /tmp/ccSE0mVF.s 			page 176


DEFINED SYMBOLS
                            *ABS*:0000000000000000 usbh_mtp_ptp.c
     /tmp/ccSE0mVF.s:17     .text.PTP_GetArray16:0000000000000000 $t
     /tmp/ccSE0mVF.s:25     .text.PTP_GetArray16:0000000000000000 PTP_GetArray16
     /tmp/ccSE0mVF.s:92     .text.PTP_DecodeDeviceInfo:0000000000000000 $t
     /tmp/ccSE0mVF.s:99     .text.PTP_DecodeDeviceInfo:0000000000000000 PTP_DecodeDeviceInfo
     /tmp/ccSE0mVF.s:646    .text.PTP_BufferFullCallback:0000000000000000 $t
     /tmp/ccSE0mVF.s:653    .text.PTP_BufferFullCallback:0000000000000000 PTP_BufferFullCallback
     /tmp/ccSE0mVF.s:684    .text.PTP_BufferFullCallback:000000000000001c $d
     /tmp/ccSE0mVF.s:785    .text.PTP_GetDevicePropValue.isra.0:0000000000000000 $t
     /tmp/ccSE0mVF.s:792    .text.PTP_GetDevicePropValue.isra.0:0000000000000000 PTP_GetDevicePropValue.isra.0
     /tmp/ccSE0mVF.s:837    .text.PTP_GetDevicePropValue.isra.0:0000000000000022 $d
     /tmp/ccSE0mVF.s:1127   .text.PTP_GetArray32.constprop.0:0000000000000000 $t
     /tmp/ccSE0mVF.s:1134   .text.PTP_GetArray32.constprop.0:0000000000000000 PTP_GetArray32.constprop.0
     /tmp/ccSE0mVF.s:1201   .text.USBH_PTP_Init:0000000000000000 $t
     /tmp/ccSE0mVF.s:1209   .text.USBH_PTP_Init:0000000000000000 USBH_PTP_Init
     /tmp/ccSE0mVF.s:1245   .text.USBH_PTP_Process:0000000000000000 $t
     /tmp/ccSE0mVF.s:1253   .text.USBH_PTP_Process:0000000000000000 USBH_PTP_Process
     /tmp/ccSE0mVF.s:1297   .text.USBH_PTP_Process:000000000000001e $d
     /tmp/ccSE0mVF.s:1947   .text.USBH_PTP_SendRequest:0000000000000000 $t
     /tmp/ccSE0mVF.s:1955   .text.USBH_PTP_SendRequest:0000000000000000 USBH_PTP_SendRequest
     /tmp/ccSE0mVF.s:2065   .text.USBH_PTP_GetResponse:0000000000000000 $t
     /tmp/ccSE0mVF.s:2073   .text.USBH_PTP_GetResponse:0000000000000000 USBH_PTP_GetResponse
     /tmp/ccSE0mVF.s:2154   .text.USBH_PTP_OpenSession:0000000000000000 $t
     /tmp/ccSE0mVF.s:2162   .text.USBH_PTP_OpenSession:0000000000000000 USBH_PTP_OpenSession
     /tmp/ccSE0mVF.s:2322   .text.USBH_PTP_GetDevicePropDesc:0000000000000000 $t
     /tmp/ccSE0mVF.s:2330   .text.USBH_PTP_GetDevicePropDesc:0000000000000000 USBH_PTP_GetDevicePropDesc
     /tmp/ccSE0mVF.s:2553   .text.USBH_PTP_GetDeviceInfo:0000000000000000 $t
     /tmp/ccSE0mVF.s:2561   .text.USBH_PTP_GetDeviceInfo:0000000000000000 USBH_PTP_GetDeviceInfo
     /tmp/ccSE0mVF.s:2768   .text.USBH_PTP_GetStorageIds:0000000000000000 $t
     /tmp/ccSE0mVF.s:2776   .text.USBH_PTP_GetStorageIds:0000000000000000 USBH_PTP_GetStorageIds
     /tmp/ccSE0mVF.s:3002   .text.USBH_PTP_GetStorageInfo:0000000000000000 $t
     /tmp/ccSE0mVF.s:3010   .text.USBH_PTP_GetStorageInfo:0000000000000000 USBH_PTP_GetStorageInfo
     /tmp/ccSE0mVF.s:3440   .text.USBH_PTP_GetNumObjects:0000000000000000 $t
     /tmp/ccSE0mVF.s:3448   .text.USBH_PTP_GetNumObjects:0000000000000000 USBH_PTP_GetNumObjects
     /tmp/ccSE0mVF.s:3631   .text.USBH_PTP_GetObjectHandles:0000000000000000 $t
     /tmp/ccSE0mVF.s:3639   .text.USBH_PTP_GetObjectHandles:0000000000000000 USBH_PTP_GetObjectHandles
     /tmp/ccSE0mVF.s:3865   .text.USBH_PTP_GetObjectInfo:0000000000000000 $t
     /tmp/ccSE0mVF.s:3873   .text.USBH_PTP_GetObjectInfo:0000000000000000 USBH_PTP_GetObjectInfo
     /tmp/ccSE0mVF.s:4271   .text.USBH_PTP_DeleteObject:0000000000000000 $t
     /tmp/ccSE0mVF.s:4279   .text.USBH_PTP_DeleteObject:0000000000000000 USBH_PTP_DeleteObject
     /tmp/ccSE0mVF.s:4446   .text.USBH_PTP_GetObject:0000000000000000 $t
     /tmp/ccSE0mVF.s:4454   .text.USBH_PTP_GetObject:0000000000000000 USBH_PTP_GetObject
     /tmp/ccSE0mVF.s:4667   .text.USBH_PTP_GetPartialObject:0000000000000000 $t
     /tmp/ccSE0mVF.s:4675   .text.USBH_PTP_GetPartialObject:0000000000000000 USBH_PTP_GetPartialObject
     /tmp/ccSE0mVF.s:4906   .text.USBH_PTP_GetObjectPropsSupported:0000000000000000 $t
     /tmp/ccSE0mVF.s:4914   .text.USBH_PTP_GetObjectPropsSupported:0000000000000000 USBH_PTP_GetObjectPropsSupported
     /tmp/ccSE0mVF.s:5134   .text.USBH_PTP_GetObjectPropDesc:0000000000000000 $t
     /tmp/ccSE0mVF.s:5142   .text.USBH_PTP_GetObjectPropDesc:0000000000000000 USBH_PTP_GetObjectPropDesc
     /tmp/ccSE0mVF.s:5507   .text.USBH_PTP_GetObjectPropList:0000000000000000 $t
     /tmp/ccSE0mVF.s:5515   .text.USBH_PTP_GetObjectPropList:0000000000000000 USBH_PTP_GetObjectPropList
     /tmp/ccSE0mVF.s:5880   .text.USBH_PTP_SendObject:0000000000000000 $t
     /tmp/ccSE0mVF.s:5888   .text.USBH_PTP_SendObject:0000000000000000 USBH_PTP_SendObject
     /tmp/ccSE0mVF.s:711    .text.PTP_BufferFullCallback:0000000000000037 $d
     /tmp/ccSE0mVF.s:711    .text.PTP_BufferFullCallback:0000000000000038 $t
     /tmp/ccSE0mVF.s:847    .text.PTP_GetDevicePropValue.isra.0:000000000000002b $d
     /tmp/ccSE0mVF.s:847    .text.PTP_GetDevicePropValue.isra.0:000000000000002c $t
ARM GAS  /tmp/ccSE0mVF.s 			page 177


     /tmp/ccSE0mVF.s:1306   .text.USBH_PTP_Process:0000000000000027 $d
     /tmp/ccSE0mVF.s:1306   .text.USBH_PTP_Process:0000000000000028 $t

UNDEFINED SYMBOLS
memcpy
USBH_LL_GetURBState
USBH_BulkSendData
osMessageQueuePut
USBH_BulkReceiveData
USBH_LL_GetLastXferSize
memset
