ARM GAS  /tmp/cccO88Vt.s 			page 1


   1              		.cpu cortex-m7
   2              		.eabi_attribute 28, 1
   3              		.eabi_attribute 20, 1
   4              		.eabi_attribute 21, 1
   5              		.eabi_attribute 23, 3
   6              		.eabi_attribute 24, 1
   7              		.eabi_attribute 25, 1
   8              		.eabi_attribute 26, 1
   9              		.eabi_attribute 30, 2
  10              		.eabi_attribute 34, 1
  11              		.eabi_attribute 18, 4
  12              		.file	"usbh_ioreq.c"
  13              		.text
  14              	.Ltext0:
  15              		.cfi_sections	.debug_frame
  16              		.section	.text.USBH_CtlSendSetup,"ax",%progbits
  17              		.align	1
  18              		.p2align 2,,3
  19              		.global	USBH_CtlSendSetup
  20              		.arch armv7e-m
  21              		.syntax unified
  22              		.thumb
  23              		.thumb_func
  24              		.fpu fpv5-d16
  26              	USBH_CtlSendSetup:
  27              	.LVL0:
  28              	.LFB338:
  29              		.file 1 "./Libraries/STM32_USB_Host_Library/Core/Src/usbh_ioreq.c"
   1:./Libraries/STM32_USB_Host_Library/Core/Src/usbh_ioreq.c **** /**
   2:./Libraries/STM32_USB_Host_Library/Core/Src/usbh_ioreq.c ****   ******************************************************************************
   3:./Libraries/STM32_USB_Host_Library/Core/Src/usbh_ioreq.c ****   * @file    usbh_ioreq.c
   4:./Libraries/STM32_USB_Host_Library/Core/Src/usbh_ioreq.c ****   * @author  MCD Application Team
   5:./Libraries/STM32_USB_Host_Library/Core/Src/usbh_ioreq.c ****   * @brief   This file handles the issuing of the USB transactions
   6:./Libraries/STM32_USB_Host_Library/Core/Src/usbh_ioreq.c ****   ******************************************************************************
   7:./Libraries/STM32_USB_Host_Library/Core/Src/usbh_ioreq.c ****   * @attention
   8:./Libraries/STM32_USB_Host_Library/Core/Src/usbh_ioreq.c ****   *
   9:./Libraries/STM32_USB_Host_Library/Core/Src/usbh_ioreq.c ****   * <h2><center>&copy; Copyright (c) 2015 STMicroelectronics.
  10:./Libraries/STM32_USB_Host_Library/Core/Src/usbh_ioreq.c ****   * All rights reserved.</center></h2>
  11:./Libraries/STM32_USB_Host_Library/Core/Src/usbh_ioreq.c ****   *
  12:./Libraries/STM32_USB_Host_Library/Core/Src/usbh_ioreq.c ****   * This software component is licensed by ST under Ultimate Liberty license
  13:./Libraries/STM32_USB_Host_Library/Core/Src/usbh_ioreq.c ****   * SLA0044, the "License"; You may not use this file except in compliance with
  14:./Libraries/STM32_USB_Host_Library/Core/Src/usbh_ioreq.c ****   * the License. You may obtain a copy of the License at:
  15:./Libraries/STM32_USB_Host_Library/Core/Src/usbh_ioreq.c ****   *                      www.st.com/SLA0044
  16:./Libraries/STM32_USB_Host_Library/Core/Src/usbh_ioreq.c ****   *
  17:./Libraries/STM32_USB_Host_Library/Core/Src/usbh_ioreq.c ****   ******************************************************************************
  18:./Libraries/STM32_USB_Host_Library/Core/Src/usbh_ioreq.c ****   */
  19:./Libraries/STM32_USB_Host_Library/Core/Src/usbh_ioreq.c **** 
  20:./Libraries/STM32_USB_Host_Library/Core/Src/usbh_ioreq.c **** /* Includes ------------------------------------------------------------------*/
  21:./Libraries/STM32_USB_Host_Library/Core/Src/usbh_ioreq.c **** #include "usbh_ioreq.h"
  22:./Libraries/STM32_USB_Host_Library/Core/Src/usbh_ioreq.c **** 
  23:./Libraries/STM32_USB_Host_Library/Core/Src/usbh_ioreq.c **** /** @addtogroup USBH_LIB
  24:./Libraries/STM32_USB_Host_Library/Core/Src/usbh_ioreq.c ****   * @{
  25:./Libraries/STM32_USB_Host_Library/Core/Src/usbh_ioreq.c ****   */
  26:./Libraries/STM32_USB_Host_Library/Core/Src/usbh_ioreq.c **** 
  27:./Libraries/STM32_USB_Host_Library/Core/Src/usbh_ioreq.c **** /** @addtogroup USBH_LIB_CORE
  28:./Libraries/STM32_USB_Host_Library/Core/Src/usbh_ioreq.c **** * @{
  29:./Libraries/STM32_USB_Host_Library/Core/Src/usbh_ioreq.c **** */
ARM GAS  /tmp/cccO88Vt.s 			page 2


  30:./Libraries/STM32_USB_Host_Library/Core/Src/usbh_ioreq.c **** 
  31:./Libraries/STM32_USB_Host_Library/Core/Src/usbh_ioreq.c **** /** @defgroup USBH_IOREQ
  32:./Libraries/STM32_USB_Host_Library/Core/Src/usbh_ioreq.c ****   * @brief This file handles the standard protocol processing (USB v2.0)
  33:./Libraries/STM32_USB_Host_Library/Core/Src/usbh_ioreq.c ****   * @{
  34:./Libraries/STM32_USB_Host_Library/Core/Src/usbh_ioreq.c ****   */
  35:./Libraries/STM32_USB_Host_Library/Core/Src/usbh_ioreq.c **** 
  36:./Libraries/STM32_USB_Host_Library/Core/Src/usbh_ioreq.c **** 
  37:./Libraries/STM32_USB_Host_Library/Core/Src/usbh_ioreq.c **** /** @defgroup USBH_IOREQ_Private_Defines
  38:./Libraries/STM32_USB_Host_Library/Core/Src/usbh_ioreq.c ****   * @{
  39:./Libraries/STM32_USB_Host_Library/Core/Src/usbh_ioreq.c ****   */
  40:./Libraries/STM32_USB_Host_Library/Core/Src/usbh_ioreq.c **** 
  41:./Libraries/STM32_USB_Host_Library/Core/Src/usbh_ioreq.c **** /**
  42:./Libraries/STM32_USB_Host_Library/Core/Src/usbh_ioreq.c ****   * @}
  43:./Libraries/STM32_USB_Host_Library/Core/Src/usbh_ioreq.c ****   */
  44:./Libraries/STM32_USB_Host_Library/Core/Src/usbh_ioreq.c **** 
  45:./Libraries/STM32_USB_Host_Library/Core/Src/usbh_ioreq.c **** 
  46:./Libraries/STM32_USB_Host_Library/Core/Src/usbh_ioreq.c **** /** @defgroup USBH_IOREQ_Private_TypesDefinitions
  47:./Libraries/STM32_USB_Host_Library/Core/Src/usbh_ioreq.c ****   * @{
  48:./Libraries/STM32_USB_Host_Library/Core/Src/usbh_ioreq.c ****   */
  49:./Libraries/STM32_USB_Host_Library/Core/Src/usbh_ioreq.c **** /**
  50:./Libraries/STM32_USB_Host_Library/Core/Src/usbh_ioreq.c ****   * @}
  51:./Libraries/STM32_USB_Host_Library/Core/Src/usbh_ioreq.c ****   */
  52:./Libraries/STM32_USB_Host_Library/Core/Src/usbh_ioreq.c **** 
  53:./Libraries/STM32_USB_Host_Library/Core/Src/usbh_ioreq.c **** 
  54:./Libraries/STM32_USB_Host_Library/Core/Src/usbh_ioreq.c **** 
  55:./Libraries/STM32_USB_Host_Library/Core/Src/usbh_ioreq.c **** /** @defgroup USBH_IOREQ_Private_Macros
  56:./Libraries/STM32_USB_Host_Library/Core/Src/usbh_ioreq.c ****   * @{
  57:./Libraries/STM32_USB_Host_Library/Core/Src/usbh_ioreq.c ****   */
  58:./Libraries/STM32_USB_Host_Library/Core/Src/usbh_ioreq.c **** /**
  59:./Libraries/STM32_USB_Host_Library/Core/Src/usbh_ioreq.c ****   * @}
  60:./Libraries/STM32_USB_Host_Library/Core/Src/usbh_ioreq.c ****   */
  61:./Libraries/STM32_USB_Host_Library/Core/Src/usbh_ioreq.c **** 
  62:./Libraries/STM32_USB_Host_Library/Core/Src/usbh_ioreq.c **** 
  63:./Libraries/STM32_USB_Host_Library/Core/Src/usbh_ioreq.c **** /** @defgroup USBH_IOREQ_Private_Variables
  64:./Libraries/STM32_USB_Host_Library/Core/Src/usbh_ioreq.c ****   * @{
  65:./Libraries/STM32_USB_Host_Library/Core/Src/usbh_ioreq.c ****   */
  66:./Libraries/STM32_USB_Host_Library/Core/Src/usbh_ioreq.c **** /**
  67:./Libraries/STM32_USB_Host_Library/Core/Src/usbh_ioreq.c ****   * @}
  68:./Libraries/STM32_USB_Host_Library/Core/Src/usbh_ioreq.c ****   */
  69:./Libraries/STM32_USB_Host_Library/Core/Src/usbh_ioreq.c **** /** @defgroup USBH_IOREQ_Private_FunctionPrototypes
  70:./Libraries/STM32_USB_Host_Library/Core/Src/usbh_ioreq.c ****   * @{
  71:./Libraries/STM32_USB_Host_Library/Core/Src/usbh_ioreq.c ****   */
  72:./Libraries/STM32_USB_Host_Library/Core/Src/usbh_ioreq.c **** 
  73:./Libraries/STM32_USB_Host_Library/Core/Src/usbh_ioreq.c **** /**
  74:./Libraries/STM32_USB_Host_Library/Core/Src/usbh_ioreq.c ****   * @}
  75:./Libraries/STM32_USB_Host_Library/Core/Src/usbh_ioreq.c ****   */
  76:./Libraries/STM32_USB_Host_Library/Core/Src/usbh_ioreq.c **** 
  77:./Libraries/STM32_USB_Host_Library/Core/Src/usbh_ioreq.c **** 
  78:./Libraries/STM32_USB_Host_Library/Core/Src/usbh_ioreq.c **** /** @defgroup USBH_IOREQ_Private_Functions
  79:./Libraries/STM32_USB_Host_Library/Core/Src/usbh_ioreq.c ****   * @{
  80:./Libraries/STM32_USB_Host_Library/Core/Src/usbh_ioreq.c ****   */
  81:./Libraries/STM32_USB_Host_Library/Core/Src/usbh_ioreq.c **** 
  82:./Libraries/STM32_USB_Host_Library/Core/Src/usbh_ioreq.c **** 
  83:./Libraries/STM32_USB_Host_Library/Core/Src/usbh_ioreq.c **** 
  84:./Libraries/STM32_USB_Host_Library/Core/Src/usbh_ioreq.c **** /**
  85:./Libraries/STM32_USB_Host_Library/Core/Src/usbh_ioreq.c ****   * @brief  USBH_CtlSendSetup
  86:./Libraries/STM32_USB_Host_Library/Core/Src/usbh_ioreq.c ****   *         Sends the Setup Packet to the Device
ARM GAS  /tmp/cccO88Vt.s 			page 3


  87:./Libraries/STM32_USB_Host_Library/Core/Src/usbh_ioreq.c ****   * @param  phost: Host Handle
  88:./Libraries/STM32_USB_Host_Library/Core/Src/usbh_ioreq.c ****   * @param  buff: Buffer pointer from which the Data will be send to Device
  89:./Libraries/STM32_USB_Host_Library/Core/Src/usbh_ioreq.c ****   * @param  pipe_num: Pipe Number
  90:./Libraries/STM32_USB_Host_Library/Core/Src/usbh_ioreq.c ****   * @retval USBH Status
  91:./Libraries/STM32_USB_Host_Library/Core/Src/usbh_ioreq.c ****   */
  92:./Libraries/STM32_USB_Host_Library/Core/Src/usbh_ioreq.c **** USBH_StatusTypeDef USBH_CtlSendSetup(USBH_HandleTypeDef *phost,
  93:./Libraries/STM32_USB_Host_Library/Core/Src/usbh_ioreq.c ****                                      uint8_t *buff,
  94:./Libraries/STM32_USB_Host_Library/Core/Src/usbh_ioreq.c ****                                      uint8_t pipe_num)
  95:./Libraries/STM32_USB_Host_Library/Core/Src/usbh_ioreq.c **** {
  30              		.loc 1 95 1 view -0
  31              		.cfi_startproc
  32              		@ args = 0, pretend = 0, frame = 0
  33              		@ frame_needed = 0, uses_anonymous_args = 0
  96:./Libraries/STM32_USB_Host_Library/Core/Src/usbh_ioreq.c **** 
  97:./Libraries/STM32_USB_Host_Library/Core/Src/usbh_ioreq.c ****   USBH_LL_SubmitURB(phost,                      /* Driver handle    */
  34              		.loc 1 97 3 view .LVU1
  95:./Libraries/STM32_USB_Host_Library/Core/Src/usbh_ioreq.c **** 
  35              		.loc 1 95 1 is_stmt 0 view .LVU2
  36 0000 30B5     		push	{r4, r5, lr}
  37              	.LCFI0:
  38              		.cfi_def_cfa_offset 12
  39              		.cfi_offset 4, -12
  40              		.cfi_offset 5, -8
  41              		.cfi_offset 14, -4
  42              		.loc 1 97 3 view .LVU3
  43 0002 0024     		movs	r4, #0
  95:./Libraries/STM32_USB_Host_Library/Core/Src/usbh_ioreq.c **** 
  44              		.loc 1 95 1 view .LVU4
  45 0004 85B0     		sub	sp, sp, #20
  46              	.LCFI1:
  47              		.cfi_def_cfa_offset 32
  48              		.loc 1 97 3 view .LVU5
  49 0006 0825     		movs	r5, #8
  50 0008 0191     		str	r1, [sp, #4]
  51 000a 2346     		mov	r3, r4
  52 000c 1146     		mov	r1, r2
  53              	.LVL1:
  54              		.loc 1 97 3 view .LVU6
  55 000e 0394     		str	r4, [sp, #12]
  56 0010 2246     		mov	r2, r4
  57              	.LVL2:
  58              		.loc 1 97 3 view .LVU7
  59 0012 0094     		str	r4, [sp]
  60 0014 0295     		str	r5, [sp, #8]
  61 0016 FFF7FEFF 		bl	USBH_LL_SubmitURB
  62              	.LVL3:
  98:./Libraries/STM32_USB_Host_Library/Core/Src/usbh_ioreq.c ****                     pipe_num,             /* Pipe index       */
  99:./Libraries/STM32_USB_Host_Library/Core/Src/usbh_ioreq.c ****                     0U,                    /* Direction : OUT  */
 100:./Libraries/STM32_USB_Host_Library/Core/Src/usbh_ioreq.c ****                     USBH_EP_CONTROL,      /* EP type          */
 101:./Libraries/STM32_USB_Host_Library/Core/Src/usbh_ioreq.c ****                     USBH_PID_SETUP,       /* Type setup       */
 102:./Libraries/STM32_USB_Host_Library/Core/Src/usbh_ioreq.c ****                     buff,                 /* data buffer      */
 103:./Libraries/STM32_USB_Host_Library/Core/Src/usbh_ioreq.c ****                     USBH_SETUP_PKT_SIZE,  /* data length      */
 104:./Libraries/STM32_USB_Host_Library/Core/Src/usbh_ioreq.c ****                     0U);
 105:./Libraries/STM32_USB_Host_Library/Core/Src/usbh_ioreq.c ****   return USBH_OK;
  63              		.loc 1 105 3 is_stmt 1 view .LVU8
 106:./Libraries/STM32_USB_Host_Library/Core/Src/usbh_ioreq.c **** }
  64              		.loc 1 106 1 is_stmt 0 view .LVU9
ARM GAS  /tmp/cccO88Vt.s 			page 4


  65 001a 2046     		mov	r0, r4
  66 001c 05B0     		add	sp, sp, #20
  67              	.LCFI2:
  68              		.cfi_def_cfa_offset 12
  69              		@ sp needed
  70 001e 30BD     		pop	{r4, r5, pc}
  71              		.cfi_endproc
  72              	.LFE338:
  74              		.section	.text.USBH_CtlSendData,"ax",%progbits
  75              		.align	1
  76              		.p2align 2,,3
  77              		.global	USBH_CtlSendData
  78              		.syntax unified
  79              		.thumb
  80              		.thumb_func
  81              		.fpu fpv5-d16
  83              	USBH_CtlSendData:
  84              	.LVL4:
  85              	.LFB339:
 107:./Libraries/STM32_USB_Host_Library/Core/Src/usbh_ioreq.c **** 
 108:./Libraries/STM32_USB_Host_Library/Core/Src/usbh_ioreq.c **** 
 109:./Libraries/STM32_USB_Host_Library/Core/Src/usbh_ioreq.c **** /**
 110:./Libraries/STM32_USB_Host_Library/Core/Src/usbh_ioreq.c ****   * @brief  USBH_CtlSendData
 111:./Libraries/STM32_USB_Host_Library/Core/Src/usbh_ioreq.c ****   *         Sends a data Packet to the Device
 112:./Libraries/STM32_USB_Host_Library/Core/Src/usbh_ioreq.c ****   * @param  phost: Host Handle
 113:./Libraries/STM32_USB_Host_Library/Core/Src/usbh_ioreq.c ****   * @param  buff: Buffer pointer from which the Data will be sent to Device
 114:./Libraries/STM32_USB_Host_Library/Core/Src/usbh_ioreq.c ****   * @param  length: Length of the data to be sent
 115:./Libraries/STM32_USB_Host_Library/Core/Src/usbh_ioreq.c ****   * @param  pipe_num: Pipe Number
 116:./Libraries/STM32_USB_Host_Library/Core/Src/usbh_ioreq.c ****   * @retval USBH Status
 117:./Libraries/STM32_USB_Host_Library/Core/Src/usbh_ioreq.c ****   */
 118:./Libraries/STM32_USB_Host_Library/Core/Src/usbh_ioreq.c **** USBH_StatusTypeDef USBH_CtlSendData(USBH_HandleTypeDef *phost,
 119:./Libraries/STM32_USB_Host_Library/Core/Src/usbh_ioreq.c ****                                     uint8_t *buff,
 120:./Libraries/STM32_USB_Host_Library/Core/Src/usbh_ioreq.c ****                                     uint16_t length,
 121:./Libraries/STM32_USB_Host_Library/Core/Src/usbh_ioreq.c ****                                     uint8_t pipe_num,
 122:./Libraries/STM32_USB_Host_Library/Core/Src/usbh_ioreq.c ****                                     uint8_t do_ping)
 123:./Libraries/STM32_USB_Host_Library/Core/Src/usbh_ioreq.c **** {
  86              		.loc 1 123 1 is_stmt 1 view -0
  87              		.cfi_startproc
  88              		@ args = 4, pretend = 0, frame = 0
  89              		@ frame_needed = 0, uses_anonymous_args = 0
 124:./Libraries/STM32_USB_Host_Library/Core/Src/usbh_ioreq.c ****   if (phost->device.speed != USBH_SPEED_HIGH)
  90              		.loc 1 124 3 view .LVU11
 123:./Libraries/STM32_USB_Host_Library/Core/Src/usbh_ioreq.c ****   if (phost->device.speed != USBH_SPEED_HIGH)
  91              		.loc 1 123 1 is_stmt 0 view .LVU12
  92 0000 70B5     		push	{r4, r5, r6, lr}
  93              	.LCFI3:
  94              		.cfi_def_cfa_offset 16
  95              		.cfi_offset 4, -16
  96              		.cfi_offset 5, -12
  97              		.cfi_offset 6, -8
  98              		.cfi_offset 14, -4
  99              		.loc 1 124 6 view .LVU13
 100 0002 90F81D54 		ldrb	r5, [r0, #1053]	@ zero_extendqisi2
 123:./Libraries/STM32_USB_Host_Library/Core/Src/usbh_ioreq.c ****   if (phost->device.speed != USBH_SPEED_HIGH)
 101              		.loc 1 123 1 view .LVU14
 102 0006 84B0     		sub	sp, sp, #16
 103              	.LCFI4:
ARM GAS  /tmp/cccO88Vt.s 			page 5


 104              		.cfi_def_cfa_offset 32
 123:./Libraries/STM32_USB_Host_Library/Core/Src/usbh_ioreq.c ****   if (phost->device.speed != USBH_SPEED_HIGH)
 105              		.loc 1 123 1 view .LVU15
 106 0008 0E46     		mov	r6, r1
 125:./Libraries/STM32_USB_Host_Library/Core/Src/usbh_ioreq.c ****   {
 126:./Libraries/STM32_USB_Host_Library/Core/Src/usbh_ioreq.c ****     do_ping = 0U;
 127:./Libraries/STM32_USB_Host_Library/Core/Src/usbh_ioreq.c ****   }
 128:./Libraries/STM32_USB_Host_Library/Core/Src/usbh_ioreq.c **** 
 129:./Libraries/STM32_USB_Host_Library/Core/Src/usbh_ioreq.c ****   USBH_LL_SubmitURB(phost,                      /* Driver handle    */
 107              		.loc 1 129 3 view .LVU16
 108 000a 1946     		mov	r1, r3
 109              	.LVL5:
 124:./Libraries/STM32_USB_Host_Library/Core/Src/usbh_ioreq.c ****   {
 110              		.loc 1 124 6 view .LVU17
 111 000c 002D     		cmp	r5, #0
 112              		.loc 1 129 3 view .LVU18
 113 000e 4FF00003 		mov	r3, #0
 114              	.LVL6:
 123:./Libraries/STM32_USB_Host_Library/Core/Src/usbh_ioreq.c ****   if (phost->device.speed != USBH_SPEED_HIGH)
 115              		.loc 1 123 1 view .LVU19
 116 0012 9DF82040 		ldrb	r4, [sp, #32]	@ zero_extendqisi2
 117              		.loc 1 129 3 view .LVU20
 118 0016 4FF00105 		mov	r5, #1
 126:./Libraries/STM32_USB_Host_Library/Core/Src/usbh_ioreq.c ****   }
 119              		.loc 1 126 13 view .LVU21
 120 001a 18BF     		it	ne
 121 001c 1C46     		movne	r4, r3
 122              	.LVL7:
 123              		.loc 1 129 3 is_stmt 1 view .LVU22
 124 001e 0292     		str	r2, [sp, #8]
 125 0020 1A46     		mov	r2, r3
 126              	.LVL8:
 127              		.loc 1 129 3 is_stmt 0 view .LVU23
 128 0022 0394     		str	r4, [sp, #12]
 129 0024 CDE90056 		strd	r5, r6, [sp]
 130 0028 FFF7FEFF 		bl	USBH_LL_SubmitURB
 131              	.LVL9:
 130:./Libraries/STM32_USB_Host_Library/Core/Src/usbh_ioreq.c ****                     pipe_num,             /* Pipe index       */
 131:./Libraries/STM32_USB_Host_Library/Core/Src/usbh_ioreq.c ****                     0U,                   /* Direction : OUT  */
 132:./Libraries/STM32_USB_Host_Library/Core/Src/usbh_ioreq.c ****                     USBH_EP_CONTROL,      /* EP type          */
 133:./Libraries/STM32_USB_Host_Library/Core/Src/usbh_ioreq.c ****                     USBH_PID_DATA,        /* Type Data        */
 134:./Libraries/STM32_USB_Host_Library/Core/Src/usbh_ioreq.c ****                     buff,                 /* data buffer      */
 135:./Libraries/STM32_USB_Host_Library/Core/Src/usbh_ioreq.c ****                     length,               /* data length      */
 136:./Libraries/STM32_USB_Host_Library/Core/Src/usbh_ioreq.c ****                     do_ping);             /* do ping (HS Only)*/
 137:./Libraries/STM32_USB_Host_Library/Core/Src/usbh_ioreq.c **** 
 138:./Libraries/STM32_USB_Host_Library/Core/Src/usbh_ioreq.c ****   return USBH_OK;
 132              		.loc 1 138 3 is_stmt 1 view .LVU24
 139:./Libraries/STM32_USB_Host_Library/Core/Src/usbh_ioreq.c **** }
 133              		.loc 1 139 1 is_stmt 0 view .LVU25
 134 002c 0020     		movs	r0, #0
 135 002e 04B0     		add	sp, sp, #16
 136              	.LCFI5:
 137              		.cfi_def_cfa_offset 16
 138              		@ sp needed
 139 0030 70BD     		pop	{r4, r5, r6, pc}
 140              		.loc 1 139 1 view .LVU26
 141              		.cfi_endproc
ARM GAS  /tmp/cccO88Vt.s 			page 6


 142              	.LFE339:
 144 0032 00BF     		.section	.text.USBH_CtlReceiveData,"ax",%progbits
 145              		.align	1
 146              		.p2align 2,,3
 147              		.global	USBH_CtlReceiveData
 148              		.syntax unified
 149              		.thumb
 150              		.thumb_func
 151              		.fpu fpv5-d16
 153              	USBH_CtlReceiveData:
 154              	.LVL10:
 155              	.LFB340:
 140:./Libraries/STM32_USB_Host_Library/Core/Src/usbh_ioreq.c **** 
 141:./Libraries/STM32_USB_Host_Library/Core/Src/usbh_ioreq.c **** 
 142:./Libraries/STM32_USB_Host_Library/Core/Src/usbh_ioreq.c **** /**
 143:./Libraries/STM32_USB_Host_Library/Core/Src/usbh_ioreq.c ****   * @brief  USBH_CtlReceiveData
 144:./Libraries/STM32_USB_Host_Library/Core/Src/usbh_ioreq.c ****   *         Receives the Device Response to the Setup Packet
 145:./Libraries/STM32_USB_Host_Library/Core/Src/usbh_ioreq.c ****   * @param  phost: Host Handle
 146:./Libraries/STM32_USB_Host_Library/Core/Src/usbh_ioreq.c ****   * @param  buff: Buffer pointer in which the response needs to be copied
 147:./Libraries/STM32_USB_Host_Library/Core/Src/usbh_ioreq.c ****   * @param  length: Length of the data to be received
 148:./Libraries/STM32_USB_Host_Library/Core/Src/usbh_ioreq.c ****   * @param  pipe_num: Pipe Number
 149:./Libraries/STM32_USB_Host_Library/Core/Src/usbh_ioreq.c ****   * @retval USBH Status.
 150:./Libraries/STM32_USB_Host_Library/Core/Src/usbh_ioreq.c ****   */
 151:./Libraries/STM32_USB_Host_Library/Core/Src/usbh_ioreq.c **** USBH_StatusTypeDef USBH_CtlReceiveData(USBH_HandleTypeDef *phost,
 152:./Libraries/STM32_USB_Host_Library/Core/Src/usbh_ioreq.c ****                                        uint8_t *buff,
 153:./Libraries/STM32_USB_Host_Library/Core/Src/usbh_ioreq.c ****                                        uint16_t length,
 154:./Libraries/STM32_USB_Host_Library/Core/Src/usbh_ioreq.c ****                                        uint8_t pipe_num)
 155:./Libraries/STM32_USB_Host_Library/Core/Src/usbh_ioreq.c **** {
 156              		.loc 1 155 1 is_stmt 1 view -0
 157              		.cfi_startproc
 158              		@ args = 0, pretend = 0, frame = 0
 159              		@ frame_needed = 0, uses_anonymous_args = 0
 156:./Libraries/STM32_USB_Host_Library/Core/Src/usbh_ioreq.c ****   USBH_LL_SubmitURB(phost,                      /* Driver handle    */
 160              		.loc 1 156 3 view .LVU28
 155:./Libraries/STM32_USB_Host_Library/Core/Src/usbh_ioreq.c ****   USBH_LL_SubmitURB(phost,                      /* Driver handle    */
 161              		.loc 1 155 1 is_stmt 0 view .LVU29
 162 0000 30B5     		push	{r4, r5, lr}
 163              	.LCFI6:
 164              		.cfi_def_cfa_offset 12
 165              		.cfi_offset 4, -12
 166              		.cfi_offset 5, -8
 167              		.cfi_offset 14, -4
 168              		.loc 1 156 3 view .LVU30
 169 0002 0024     		movs	r4, #0
 155:./Libraries/STM32_USB_Host_Library/Core/Src/usbh_ioreq.c ****   USBH_LL_SubmitURB(phost,                      /* Driver handle    */
 170              		.loc 1 155 1 view .LVU31
 171 0004 85B0     		sub	sp, sp, #20
 172              	.LCFI7:
 173              		.cfi_def_cfa_offset 32
 174              		.loc 1 156 3 view .LVU32
 175 0006 0125     		movs	r5, #1
 176 0008 0394     		str	r4, [sp, #12]
 177 000a 0095     		str	r5, [sp]
 178 000c CDE90112 		strd	r1, r2, [sp, #4]
 179 0010 1946     		mov	r1, r3
 180              	.LVL11:
 181              		.loc 1 156 3 view .LVU33
ARM GAS  /tmp/cccO88Vt.s 			page 7


 182 0012 2A46     		mov	r2, r5
 183              	.LVL12:
 184              		.loc 1 156 3 view .LVU34
 185 0014 2346     		mov	r3, r4
 186              	.LVL13:
 187              		.loc 1 156 3 view .LVU35
 188 0016 FFF7FEFF 		bl	USBH_LL_SubmitURB
 189              	.LVL14:
 157:./Libraries/STM32_USB_Host_Library/Core/Src/usbh_ioreq.c ****                     pipe_num,             /* Pipe index       */
 158:./Libraries/STM32_USB_Host_Library/Core/Src/usbh_ioreq.c ****                     1U,                    /* Direction : IN   */
 159:./Libraries/STM32_USB_Host_Library/Core/Src/usbh_ioreq.c ****                     USBH_EP_CONTROL,      /* EP type          */
 160:./Libraries/STM32_USB_Host_Library/Core/Src/usbh_ioreq.c ****                     USBH_PID_DATA,        /* Type Data        */
 161:./Libraries/STM32_USB_Host_Library/Core/Src/usbh_ioreq.c ****                     buff,                 /* data buffer      */
 162:./Libraries/STM32_USB_Host_Library/Core/Src/usbh_ioreq.c ****                     length,               /* data length      */
 163:./Libraries/STM32_USB_Host_Library/Core/Src/usbh_ioreq.c ****                     0U);
 164:./Libraries/STM32_USB_Host_Library/Core/Src/usbh_ioreq.c ****   return USBH_OK;
 190              		.loc 1 164 3 is_stmt 1 view .LVU36
 165:./Libraries/STM32_USB_Host_Library/Core/Src/usbh_ioreq.c **** 
 166:./Libraries/STM32_USB_Host_Library/Core/Src/usbh_ioreq.c **** }
 191              		.loc 1 166 1 is_stmt 0 view .LVU37
 192 001a 2046     		mov	r0, r4
 193 001c 05B0     		add	sp, sp, #20
 194              	.LCFI8:
 195              		.cfi_def_cfa_offset 12
 196              		@ sp needed
 197 001e 30BD     		pop	{r4, r5, pc}
 198              		.cfi_endproc
 199              	.LFE340:
 201              		.section	.text.USBH_BulkSendData,"ax",%progbits
 202              		.align	1
 203              		.p2align 2,,3
 204              		.global	USBH_BulkSendData
 205              		.syntax unified
 206              		.thumb
 207              		.thumb_func
 208              		.fpu fpv5-d16
 210              	USBH_BulkSendData:
 211              	.LVL15:
 212              	.LFB341:
 167:./Libraries/STM32_USB_Host_Library/Core/Src/usbh_ioreq.c **** 
 168:./Libraries/STM32_USB_Host_Library/Core/Src/usbh_ioreq.c **** 
 169:./Libraries/STM32_USB_Host_Library/Core/Src/usbh_ioreq.c **** /**
 170:./Libraries/STM32_USB_Host_Library/Core/Src/usbh_ioreq.c ****   * @brief  USBH_BulkSendData
 171:./Libraries/STM32_USB_Host_Library/Core/Src/usbh_ioreq.c ****   *         Sends the Bulk Packet to the device
 172:./Libraries/STM32_USB_Host_Library/Core/Src/usbh_ioreq.c ****   * @param  phost: Host Handle
 173:./Libraries/STM32_USB_Host_Library/Core/Src/usbh_ioreq.c ****   * @param  buff: Buffer pointer from which the Data will be sent to Device
 174:./Libraries/STM32_USB_Host_Library/Core/Src/usbh_ioreq.c ****   * @param  length: Length of the data to be sent
 175:./Libraries/STM32_USB_Host_Library/Core/Src/usbh_ioreq.c ****   * @param  pipe_num: Pipe Number
 176:./Libraries/STM32_USB_Host_Library/Core/Src/usbh_ioreq.c ****   * @retval USBH Status
 177:./Libraries/STM32_USB_Host_Library/Core/Src/usbh_ioreq.c ****   */
 178:./Libraries/STM32_USB_Host_Library/Core/Src/usbh_ioreq.c **** USBH_StatusTypeDef USBH_BulkSendData(USBH_HandleTypeDef *phost,
 179:./Libraries/STM32_USB_Host_Library/Core/Src/usbh_ioreq.c ****                                      uint8_t *buff,
 180:./Libraries/STM32_USB_Host_Library/Core/Src/usbh_ioreq.c ****                                      uint16_t length,
 181:./Libraries/STM32_USB_Host_Library/Core/Src/usbh_ioreq.c ****                                      uint8_t pipe_num,
 182:./Libraries/STM32_USB_Host_Library/Core/Src/usbh_ioreq.c ****                                      uint8_t do_ping)
 183:./Libraries/STM32_USB_Host_Library/Core/Src/usbh_ioreq.c **** {
 213              		.loc 1 183 1 is_stmt 1 view -0
ARM GAS  /tmp/cccO88Vt.s 			page 8


 214              		.cfi_startproc
 215              		@ args = 4, pretend = 0, frame = 0
 216              		@ frame_needed = 0, uses_anonymous_args = 0
 184:./Libraries/STM32_USB_Host_Library/Core/Src/usbh_ioreq.c ****   if (phost->device.speed != USBH_SPEED_HIGH)
 217              		.loc 1 184 3 view .LVU39
 183:./Libraries/STM32_USB_Host_Library/Core/Src/usbh_ioreq.c ****   if (phost->device.speed != USBH_SPEED_HIGH)
 218              		.loc 1 183 1 is_stmt 0 view .LVU40
 219 0000 70B5     		push	{r4, r5, r6, lr}
 220              	.LCFI9:
 221              		.cfi_def_cfa_offset 16
 222              		.cfi_offset 4, -16
 223              		.cfi_offset 5, -12
 224              		.cfi_offset 6, -8
 225              		.cfi_offset 14, -4
 226              		.loc 1 184 6 view .LVU41
 227 0002 90F81D44 		ldrb	r4, [r0, #1053]	@ zero_extendqisi2
 183:./Libraries/STM32_USB_Host_Library/Core/Src/usbh_ioreq.c ****   if (phost->device.speed != USBH_SPEED_HIGH)
 228              		.loc 1 183 1 view .LVU42
 229 0006 84B0     		sub	sp, sp, #16
 230              	.LCFI10:
 231              		.cfi_def_cfa_offset 32
 183:./Libraries/STM32_USB_Host_Library/Core/Src/usbh_ioreq.c ****   if (phost->device.speed != USBH_SPEED_HIGH)
 232              		.loc 1 183 1 view .LVU43
 233 0008 0E46     		mov	r6, r1
 185:./Libraries/STM32_USB_Host_Library/Core/Src/usbh_ioreq.c ****   {
 186:./Libraries/STM32_USB_Host_Library/Core/Src/usbh_ioreq.c ****     do_ping = 0U;
 187:./Libraries/STM32_USB_Host_Library/Core/Src/usbh_ioreq.c ****   }
 188:./Libraries/STM32_USB_Host_Library/Core/Src/usbh_ioreq.c **** 
 189:./Libraries/STM32_USB_Host_Library/Core/Src/usbh_ioreq.c ****   USBH_LL_SubmitURB(phost,                      /* Driver handle    */
 234              		.loc 1 189 3 view .LVU44
 235 000a 0125     		movs	r5, #1
 184:./Libraries/STM32_USB_Host_Library/Core/Src/usbh_ioreq.c ****   {
 236              		.loc 1 184 6 view .LVU45
 237 000c 002C     		cmp	r4, #0
 183:./Libraries/STM32_USB_Host_Library/Core/Src/usbh_ioreq.c ****   if (phost->device.speed != USBH_SPEED_HIGH)
 238              		.loc 1 183 1 view .LVU46
 239 000e 9DF82040 		ldrb	r4, [sp, #32]	@ zero_extendqisi2
 240              		.loc 1 189 3 view .LVU47
 241 0012 1946     		mov	r1, r3
 242              	.LVL16:
 243              		.loc 1 189 3 view .LVU48
 244 0014 0292     		str	r2, [sp, #8]
 186:./Libraries/STM32_USB_Host_Library/Core/Src/usbh_ioreq.c ****   }
 245              		.loc 1 186 13 view .LVU49
 246 0016 18BF     		it	ne
 247 0018 0024     		movne	r4, #0
 248              	.LVL17:
 249              		.loc 1 189 3 is_stmt 1 view .LVU50
 250 001a 0223     		movs	r3, #2
 251              	.LVL18:
 252              		.loc 1 189 3 is_stmt 0 view .LVU51
 253 001c 0022     		movs	r2, #0
 254              	.LVL19:
 255              		.loc 1 189 3 view .LVU52
 256 001e 0196     		str	r6, [sp, #4]
 257 0020 0095     		str	r5, [sp]
 258 0022 0394     		str	r4, [sp, #12]
ARM GAS  /tmp/cccO88Vt.s 			page 9


 259 0024 FFF7FEFF 		bl	USBH_LL_SubmitURB
 260              	.LVL20:
 190:./Libraries/STM32_USB_Host_Library/Core/Src/usbh_ioreq.c ****                     pipe_num,             /* Pipe index       */
 191:./Libraries/STM32_USB_Host_Library/Core/Src/usbh_ioreq.c ****                     0U,                    /* Direction : IN   */
 192:./Libraries/STM32_USB_Host_Library/Core/Src/usbh_ioreq.c ****                     USBH_EP_BULK,         /* EP type          */
 193:./Libraries/STM32_USB_Host_Library/Core/Src/usbh_ioreq.c ****                     USBH_PID_DATA,        /* Type Data        */
 194:./Libraries/STM32_USB_Host_Library/Core/Src/usbh_ioreq.c ****                     buff,                 /* data buffer      */
 195:./Libraries/STM32_USB_Host_Library/Core/Src/usbh_ioreq.c ****                     length,               /* data length      */
 196:./Libraries/STM32_USB_Host_Library/Core/Src/usbh_ioreq.c ****                     do_ping);             /* do ping (HS Only)*/
 197:./Libraries/STM32_USB_Host_Library/Core/Src/usbh_ioreq.c ****   return USBH_OK;
 261              		.loc 1 197 3 is_stmt 1 view .LVU53
 198:./Libraries/STM32_USB_Host_Library/Core/Src/usbh_ioreq.c **** }
 262              		.loc 1 198 1 is_stmt 0 view .LVU54
 263 0028 0020     		movs	r0, #0
 264 002a 04B0     		add	sp, sp, #16
 265              	.LCFI11:
 266              		.cfi_def_cfa_offset 16
 267              		@ sp needed
 268 002c 70BD     		pop	{r4, r5, r6, pc}
 269              		.loc 1 198 1 view .LVU55
 270              		.cfi_endproc
 271              	.LFE341:
 273 002e 00BF     		.section	.text.USBH_BulkReceiveData,"ax",%progbits
 274              		.align	1
 275              		.p2align 2,,3
 276              		.global	USBH_BulkReceiveData
 277              		.syntax unified
 278              		.thumb
 279              		.thumb_func
 280              		.fpu fpv5-d16
 282              	USBH_BulkReceiveData:
 283              	.LVL21:
 284              	.LFB342:
 199:./Libraries/STM32_USB_Host_Library/Core/Src/usbh_ioreq.c **** 
 200:./Libraries/STM32_USB_Host_Library/Core/Src/usbh_ioreq.c **** 
 201:./Libraries/STM32_USB_Host_Library/Core/Src/usbh_ioreq.c **** /**
 202:./Libraries/STM32_USB_Host_Library/Core/Src/usbh_ioreq.c ****   * @brief  USBH_BulkReceiveData
 203:./Libraries/STM32_USB_Host_Library/Core/Src/usbh_ioreq.c ****   *         Receives IN bulk packet from device
 204:./Libraries/STM32_USB_Host_Library/Core/Src/usbh_ioreq.c ****   * @param  phost: Host Handle
 205:./Libraries/STM32_USB_Host_Library/Core/Src/usbh_ioreq.c ****   * @param  buff: Buffer pointer in which the received data packet to be copied
 206:./Libraries/STM32_USB_Host_Library/Core/Src/usbh_ioreq.c ****   * @param  length: Length of the data to be received
 207:./Libraries/STM32_USB_Host_Library/Core/Src/usbh_ioreq.c ****   * @param  pipe_num: Pipe Number
 208:./Libraries/STM32_USB_Host_Library/Core/Src/usbh_ioreq.c ****   * @retval USBH Status.
 209:./Libraries/STM32_USB_Host_Library/Core/Src/usbh_ioreq.c ****   */
 210:./Libraries/STM32_USB_Host_Library/Core/Src/usbh_ioreq.c **** USBH_StatusTypeDef USBH_BulkReceiveData(USBH_HandleTypeDef *phost,
 211:./Libraries/STM32_USB_Host_Library/Core/Src/usbh_ioreq.c ****                                         uint8_t *buff,
 212:./Libraries/STM32_USB_Host_Library/Core/Src/usbh_ioreq.c ****                                         uint16_t length,
 213:./Libraries/STM32_USB_Host_Library/Core/Src/usbh_ioreq.c ****                                         uint8_t pipe_num)
 214:./Libraries/STM32_USB_Host_Library/Core/Src/usbh_ioreq.c **** {
 285              		.loc 1 214 1 is_stmt 1 view -0
 286              		.cfi_startproc
 287              		@ args = 0, pretend = 0, frame = 0
 288              		@ frame_needed = 0, uses_anonymous_args = 0
 215:./Libraries/STM32_USB_Host_Library/Core/Src/usbh_ioreq.c ****   USBH_LL_SubmitURB(phost,                      /* Driver handle    */
 289              		.loc 1 215 3 view .LVU57
 214:./Libraries/STM32_USB_Host_Library/Core/Src/usbh_ioreq.c ****   USBH_LL_SubmitURB(phost,                      /* Driver handle    */
 290              		.loc 1 214 1 is_stmt 0 view .LVU58
ARM GAS  /tmp/cccO88Vt.s 			page 10


 291 0000 30B5     		push	{r4, r5, lr}
 292              	.LCFI12:
 293              		.cfi_def_cfa_offset 12
 294              		.cfi_offset 4, -12
 295              		.cfi_offset 5, -8
 296              		.cfi_offset 14, -4
 297              		.loc 1 215 3 view .LVU59
 298 0002 0024     		movs	r4, #0
 214:./Libraries/STM32_USB_Host_Library/Core/Src/usbh_ioreq.c ****   USBH_LL_SubmitURB(phost,                      /* Driver handle    */
 299              		.loc 1 214 1 view .LVU60
 300 0004 85B0     		sub	sp, sp, #20
 301              	.LCFI13:
 302              		.cfi_def_cfa_offset 32
 303              		.loc 1 215 3 view .LVU61
 304 0006 0125     		movs	r5, #1
 305 0008 0394     		str	r4, [sp, #12]
 306 000a 0095     		str	r5, [sp]
 307 000c CDE90112 		strd	r1, r2, [sp, #4]
 308 0010 1946     		mov	r1, r3
 309              	.LVL22:
 310              		.loc 1 215 3 view .LVU62
 311 0012 2A46     		mov	r2, r5
 312              	.LVL23:
 313              		.loc 1 215 3 view .LVU63
 314 0014 0223     		movs	r3, #2
 315              	.LVL24:
 316              		.loc 1 215 3 view .LVU64
 317 0016 FFF7FEFF 		bl	USBH_LL_SubmitURB
 318              	.LVL25:
 216:./Libraries/STM32_USB_Host_Library/Core/Src/usbh_ioreq.c ****                     pipe_num,             /* Pipe index       */
 217:./Libraries/STM32_USB_Host_Library/Core/Src/usbh_ioreq.c ****                     1U,                    /* Direction : IN   */
 218:./Libraries/STM32_USB_Host_Library/Core/Src/usbh_ioreq.c ****                     USBH_EP_BULK,         /* EP type          */
 219:./Libraries/STM32_USB_Host_Library/Core/Src/usbh_ioreq.c ****                     USBH_PID_DATA,        /* Type Data        */
 220:./Libraries/STM32_USB_Host_Library/Core/Src/usbh_ioreq.c ****                     buff,                 /* data buffer      */
 221:./Libraries/STM32_USB_Host_Library/Core/Src/usbh_ioreq.c ****                     length,               /* data length      */
 222:./Libraries/STM32_USB_Host_Library/Core/Src/usbh_ioreq.c ****                     0U);
 223:./Libraries/STM32_USB_Host_Library/Core/Src/usbh_ioreq.c ****   return USBH_OK;
 319              		.loc 1 223 3 is_stmt 1 view .LVU65
 224:./Libraries/STM32_USB_Host_Library/Core/Src/usbh_ioreq.c **** }
 320              		.loc 1 224 1 is_stmt 0 view .LVU66
 321 001a 2046     		mov	r0, r4
 322 001c 05B0     		add	sp, sp, #20
 323              	.LCFI14:
 324              		.cfi_def_cfa_offset 12
 325              		@ sp needed
 326 001e 30BD     		pop	{r4, r5, pc}
 327              		.cfi_endproc
 328              	.LFE342:
 330              		.section	.text.USBH_InterruptReceiveData,"ax",%progbits
 331              		.align	1
 332              		.p2align 2,,3
 333              		.global	USBH_InterruptReceiveData
 334              		.syntax unified
 335              		.thumb
 336              		.thumb_func
 337              		.fpu fpv5-d16
 339              	USBH_InterruptReceiveData:
ARM GAS  /tmp/cccO88Vt.s 			page 11


 340              	.LVL26:
 341              	.LFB343:
 225:./Libraries/STM32_USB_Host_Library/Core/Src/usbh_ioreq.c **** 
 226:./Libraries/STM32_USB_Host_Library/Core/Src/usbh_ioreq.c **** 
 227:./Libraries/STM32_USB_Host_Library/Core/Src/usbh_ioreq.c **** /**
 228:./Libraries/STM32_USB_Host_Library/Core/Src/usbh_ioreq.c ****   * @brief  USBH_InterruptReceiveData
 229:./Libraries/STM32_USB_Host_Library/Core/Src/usbh_ioreq.c ****   *         Receives the Device Response to the Interrupt IN token
 230:./Libraries/STM32_USB_Host_Library/Core/Src/usbh_ioreq.c ****   * @param  phost: Host Handle
 231:./Libraries/STM32_USB_Host_Library/Core/Src/usbh_ioreq.c ****   * @param  buff: Buffer pointer in which the response needs to be copied
 232:./Libraries/STM32_USB_Host_Library/Core/Src/usbh_ioreq.c ****   * @param  length: Length of the data to be received
 233:./Libraries/STM32_USB_Host_Library/Core/Src/usbh_ioreq.c ****   * @param  pipe_num: Pipe Number
 234:./Libraries/STM32_USB_Host_Library/Core/Src/usbh_ioreq.c ****   * @retval USBH Status.
 235:./Libraries/STM32_USB_Host_Library/Core/Src/usbh_ioreq.c ****   */
 236:./Libraries/STM32_USB_Host_Library/Core/Src/usbh_ioreq.c **** USBH_StatusTypeDef USBH_InterruptReceiveData(USBH_HandleTypeDef *phost,
 237:./Libraries/STM32_USB_Host_Library/Core/Src/usbh_ioreq.c ****                                              uint8_t *buff,
 238:./Libraries/STM32_USB_Host_Library/Core/Src/usbh_ioreq.c ****                                              uint8_t length,
 239:./Libraries/STM32_USB_Host_Library/Core/Src/usbh_ioreq.c ****                                              uint8_t pipe_num)
 240:./Libraries/STM32_USB_Host_Library/Core/Src/usbh_ioreq.c **** {
 342              		.loc 1 240 1 is_stmt 1 view -0
 343              		.cfi_startproc
 344              		@ args = 0, pretend = 0, frame = 0
 345              		@ frame_needed = 0, uses_anonymous_args = 0
 241:./Libraries/STM32_USB_Host_Library/Core/Src/usbh_ioreq.c ****   USBH_LL_SubmitURB(phost,                      /* Driver handle    */
 346              		.loc 1 241 3 view .LVU68
 240:./Libraries/STM32_USB_Host_Library/Core/Src/usbh_ioreq.c ****   USBH_LL_SubmitURB(phost,                      /* Driver handle    */
 347              		.loc 1 240 1 is_stmt 0 view .LVU69
 348 0000 30B5     		push	{r4, r5, lr}
 349              	.LCFI15:
 350              		.cfi_def_cfa_offset 12
 351              		.cfi_offset 4, -12
 352              		.cfi_offset 5, -8
 353              		.cfi_offset 14, -4
 354              		.loc 1 241 3 view .LVU70
 355 0002 0024     		movs	r4, #0
 240:./Libraries/STM32_USB_Host_Library/Core/Src/usbh_ioreq.c ****   USBH_LL_SubmitURB(phost,                      /* Driver handle    */
 356              		.loc 1 240 1 view .LVU71
 357 0004 85B0     		sub	sp, sp, #20
 358              	.LCFI16:
 359              		.cfi_def_cfa_offset 32
 360              		.loc 1 241 3 view .LVU72
 361 0006 0125     		movs	r5, #1
 362 0008 0394     		str	r4, [sp, #12]
 363 000a 0095     		str	r5, [sp]
 364 000c CDE90112 		strd	r1, r2, [sp, #4]
 365 0010 1946     		mov	r1, r3
 366              	.LVL27:
 367              		.loc 1 241 3 view .LVU73
 368 0012 2A46     		mov	r2, r5
 369              	.LVL28:
 370              		.loc 1 241 3 view .LVU74
 371 0014 0323     		movs	r3, #3
 372              	.LVL29:
 373              		.loc 1 241 3 view .LVU75
 374 0016 FFF7FEFF 		bl	USBH_LL_SubmitURB
 375              	.LVL30:
 242:./Libraries/STM32_USB_Host_Library/Core/Src/usbh_ioreq.c ****                     pipe_num,             /* Pipe index       */
 243:./Libraries/STM32_USB_Host_Library/Core/Src/usbh_ioreq.c ****                     1U,                   /* Direction : IN   */
ARM GAS  /tmp/cccO88Vt.s 			page 12


 244:./Libraries/STM32_USB_Host_Library/Core/Src/usbh_ioreq.c ****                     USBH_EP_INTERRUPT,    /* EP type          */
 245:./Libraries/STM32_USB_Host_Library/Core/Src/usbh_ioreq.c ****                     USBH_PID_DATA,        /* Type Data        */
 246:./Libraries/STM32_USB_Host_Library/Core/Src/usbh_ioreq.c ****                     buff,                 /* data buffer      */
 247:./Libraries/STM32_USB_Host_Library/Core/Src/usbh_ioreq.c ****                     (uint16_t)length,     /* data length      */
 248:./Libraries/STM32_USB_Host_Library/Core/Src/usbh_ioreq.c ****                     0U);
 249:./Libraries/STM32_USB_Host_Library/Core/Src/usbh_ioreq.c **** 
 250:./Libraries/STM32_USB_Host_Library/Core/Src/usbh_ioreq.c ****   return USBH_OK;
 376              		.loc 1 250 3 is_stmt 1 view .LVU76
 251:./Libraries/STM32_USB_Host_Library/Core/Src/usbh_ioreq.c **** }
 377              		.loc 1 251 1 is_stmt 0 view .LVU77
 378 001a 2046     		mov	r0, r4
 379 001c 05B0     		add	sp, sp, #20
 380              	.LCFI17:
 381              		.cfi_def_cfa_offset 12
 382              		@ sp needed
 383 001e 30BD     		pop	{r4, r5, pc}
 384              		.cfi_endproc
 385              	.LFE343:
 387              		.section	.text.USBH_InterruptSendData,"ax",%progbits
 388              		.align	1
 389              		.p2align 2,,3
 390              		.global	USBH_InterruptSendData
 391              		.syntax unified
 392              		.thumb
 393              		.thumb_func
 394              		.fpu fpv5-d16
 396              	USBH_InterruptSendData:
 397              	.LVL31:
 398              	.LFB344:
 252:./Libraries/STM32_USB_Host_Library/Core/Src/usbh_ioreq.c **** 
 253:./Libraries/STM32_USB_Host_Library/Core/Src/usbh_ioreq.c **** /**
 254:./Libraries/STM32_USB_Host_Library/Core/Src/usbh_ioreq.c ****   * @brief  USBH_InterruptSendData
 255:./Libraries/STM32_USB_Host_Library/Core/Src/usbh_ioreq.c ****   *         Sends the data on Interrupt OUT Endpoint
 256:./Libraries/STM32_USB_Host_Library/Core/Src/usbh_ioreq.c ****   * @param  phost: Host Handle
 257:./Libraries/STM32_USB_Host_Library/Core/Src/usbh_ioreq.c ****   * @param  buff: Buffer pointer from where the data needs to be copied
 258:./Libraries/STM32_USB_Host_Library/Core/Src/usbh_ioreq.c ****   * @param  length: Length of the data to be sent
 259:./Libraries/STM32_USB_Host_Library/Core/Src/usbh_ioreq.c ****   * @param  pipe_num: Pipe Number
 260:./Libraries/STM32_USB_Host_Library/Core/Src/usbh_ioreq.c ****   * @retval USBH Status.
 261:./Libraries/STM32_USB_Host_Library/Core/Src/usbh_ioreq.c ****   */
 262:./Libraries/STM32_USB_Host_Library/Core/Src/usbh_ioreq.c **** USBH_StatusTypeDef USBH_InterruptSendData(USBH_HandleTypeDef *phost,
 263:./Libraries/STM32_USB_Host_Library/Core/Src/usbh_ioreq.c ****                                           uint8_t *buff,
 264:./Libraries/STM32_USB_Host_Library/Core/Src/usbh_ioreq.c ****                                           uint8_t length,
 265:./Libraries/STM32_USB_Host_Library/Core/Src/usbh_ioreq.c ****                                           uint8_t pipe_num)
 266:./Libraries/STM32_USB_Host_Library/Core/Src/usbh_ioreq.c **** {
 399              		.loc 1 266 1 is_stmt 1 view -0
 400              		.cfi_startproc
 401              		@ args = 0, pretend = 0, frame = 0
 402              		@ frame_needed = 0, uses_anonymous_args = 0
 267:./Libraries/STM32_USB_Host_Library/Core/Src/usbh_ioreq.c ****   USBH_LL_SubmitURB(phost,                      /* Driver handle    */
 403              		.loc 1 267 3 view .LVU79
 266:./Libraries/STM32_USB_Host_Library/Core/Src/usbh_ioreq.c ****   USBH_LL_SubmitURB(phost,                      /* Driver handle    */
 404              		.loc 1 266 1 is_stmt 0 view .LVU80
 405 0000 30B5     		push	{r4, r5, lr}
 406              	.LCFI18:
 407              		.cfi_def_cfa_offset 12
 408              		.cfi_offset 4, -12
 409              		.cfi_offset 5, -8
ARM GAS  /tmp/cccO88Vt.s 			page 13


 410              		.cfi_offset 14, -4
 411              		.loc 1 267 3 view .LVU81
 412 0002 0024     		movs	r4, #0
 266:./Libraries/STM32_USB_Host_Library/Core/Src/usbh_ioreq.c ****   USBH_LL_SubmitURB(phost,                      /* Driver handle    */
 413              		.loc 1 266 1 view .LVU82
 414 0004 85B0     		sub	sp, sp, #20
 415              	.LCFI19:
 416              		.cfi_def_cfa_offset 32
 417              		.loc 1 267 3 view .LVU83
 418 0006 0125     		movs	r5, #1
 419 0008 0394     		str	r4, [sp, #12]
 420 000a 0095     		str	r5, [sp]
 421 000c CDE90112 		strd	r1, r2, [sp, #4]
 422 0010 1946     		mov	r1, r3
 423              	.LVL32:
 424              		.loc 1 267 3 view .LVU84
 425 0012 2246     		mov	r2, r4
 426              	.LVL33:
 427              		.loc 1 267 3 view .LVU85
 428 0014 0323     		movs	r3, #3
 429              	.LVL34:
 430              		.loc 1 267 3 view .LVU86
 431 0016 FFF7FEFF 		bl	USBH_LL_SubmitURB
 432              	.LVL35:
 268:./Libraries/STM32_USB_Host_Library/Core/Src/usbh_ioreq.c ****                     pipe_num,             /* Pipe index       */
 269:./Libraries/STM32_USB_Host_Library/Core/Src/usbh_ioreq.c ****                     0U,                   /* Direction : OUT   */
 270:./Libraries/STM32_USB_Host_Library/Core/Src/usbh_ioreq.c ****                     USBH_EP_INTERRUPT,    /* EP type          */
 271:./Libraries/STM32_USB_Host_Library/Core/Src/usbh_ioreq.c ****                     USBH_PID_DATA,        /* Type Data        */
 272:./Libraries/STM32_USB_Host_Library/Core/Src/usbh_ioreq.c ****                     buff,                 /* data buffer      */
 273:./Libraries/STM32_USB_Host_Library/Core/Src/usbh_ioreq.c ****                     (uint16_t)length,     /* data length      */
 274:./Libraries/STM32_USB_Host_Library/Core/Src/usbh_ioreq.c ****                     0U);
 275:./Libraries/STM32_USB_Host_Library/Core/Src/usbh_ioreq.c **** 
 276:./Libraries/STM32_USB_Host_Library/Core/Src/usbh_ioreq.c ****   return USBH_OK;
 433              		.loc 1 276 3 is_stmt 1 view .LVU87
 277:./Libraries/STM32_USB_Host_Library/Core/Src/usbh_ioreq.c **** }
 434              		.loc 1 277 1 is_stmt 0 view .LVU88
 435 001a 2046     		mov	r0, r4
 436 001c 05B0     		add	sp, sp, #20
 437              	.LCFI20:
 438              		.cfi_def_cfa_offset 12
 439              		@ sp needed
 440 001e 30BD     		pop	{r4, r5, pc}
 441              		.cfi_endproc
 442              	.LFE344:
 444              		.section	.text.USBH_IsocReceiveData,"ax",%progbits
 445              		.align	1
 446              		.p2align 2,,3
 447              		.global	USBH_IsocReceiveData
 448              		.syntax unified
 449              		.thumb
 450              		.thumb_func
 451              		.fpu fpv5-d16
 453              	USBH_IsocReceiveData:
 454              	.LVL36:
 455              	.LFB345:
 278:./Libraries/STM32_USB_Host_Library/Core/Src/usbh_ioreq.c **** 
 279:./Libraries/STM32_USB_Host_Library/Core/Src/usbh_ioreq.c **** /**
ARM GAS  /tmp/cccO88Vt.s 			page 14


 280:./Libraries/STM32_USB_Host_Library/Core/Src/usbh_ioreq.c ****   * @brief  USBH_IsocReceiveData
 281:./Libraries/STM32_USB_Host_Library/Core/Src/usbh_ioreq.c ****   *         Receives the Device Response to the Isochronous IN token
 282:./Libraries/STM32_USB_Host_Library/Core/Src/usbh_ioreq.c ****   * @param  phost: Host Handle
 283:./Libraries/STM32_USB_Host_Library/Core/Src/usbh_ioreq.c ****   * @param  buff: Buffer pointer in which the response needs to be copied
 284:./Libraries/STM32_USB_Host_Library/Core/Src/usbh_ioreq.c ****   * @param  length: Length of the data to be received
 285:./Libraries/STM32_USB_Host_Library/Core/Src/usbh_ioreq.c ****   * @param  pipe_num: Pipe Number
 286:./Libraries/STM32_USB_Host_Library/Core/Src/usbh_ioreq.c ****   * @retval USBH Status.
 287:./Libraries/STM32_USB_Host_Library/Core/Src/usbh_ioreq.c ****   */
 288:./Libraries/STM32_USB_Host_Library/Core/Src/usbh_ioreq.c **** USBH_StatusTypeDef USBH_IsocReceiveData(USBH_HandleTypeDef *phost,
 289:./Libraries/STM32_USB_Host_Library/Core/Src/usbh_ioreq.c ****                                         uint8_t *buff,
 290:./Libraries/STM32_USB_Host_Library/Core/Src/usbh_ioreq.c ****                                         uint32_t length,
 291:./Libraries/STM32_USB_Host_Library/Core/Src/usbh_ioreq.c ****                                         uint8_t pipe_num)
 292:./Libraries/STM32_USB_Host_Library/Core/Src/usbh_ioreq.c **** {
 456              		.loc 1 292 1 is_stmt 1 view -0
 457              		.cfi_startproc
 458              		@ args = 0, pretend = 0, frame = 0
 459              		@ frame_needed = 0, uses_anonymous_args = 0
 293:./Libraries/STM32_USB_Host_Library/Core/Src/usbh_ioreq.c ****   USBH_LL_SubmitURB(phost,                      /* Driver handle    */
 460              		.loc 1 293 3 view .LVU90
 292:./Libraries/STM32_USB_Host_Library/Core/Src/usbh_ioreq.c ****   USBH_LL_SubmitURB(phost,                      /* Driver handle    */
 461              		.loc 1 292 1 is_stmt 0 view .LVU91
 462 0000 30B5     		push	{r4, r5, lr}
 463              	.LCFI21:
 464              		.cfi_def_cfa_offset 12
 465              		.cfi_offset 4, -12
 466              		.cfi_offset 5, -8
 467              		.cfi_offset 14, -4
 468              		.loc 1 293 3 view .LVU92
 469 0002 92B2     		uxth	r2, r2
 470              	.LVL37:
 292:./Libraries/STM32_USB_Host_Library/Core/Src/usbh_ioreq.c ****   USBH_LL_SubmitURB(phost,                      /* Driver handle    */
 471              		.loc 1 292 1 view .LVU93
 472 0004 85B0     		sub	sp, sp, #20
 473              	.LCFI22:
 474              		.cfi_def_cfa_offset 32
 475              		.loc 1 293 3 view .LVU94
 476 0006 0125     		movs	r5, #1
 477 0008 0024     		movs	r4, #0
 478 000a 0191     		str	r1, [sp, #4]
 479 000c 1946     		mov	r1, r3
 480              	.LVL38:
 481              		.loc 1 293 3 view .LVU95
 482 000e 0292     		str	r2, [sp, #8]
 483 0010 2B46     		mov	r3, r5
 484              	.LVL39:
 485              		.loc 1 293 3 view .LVU96
 486 0012 2A46     		mov	r2, r5
 487 0014 0394     		str	r4, [sp, #12]
 488 0016 0095     		str	r5, [sp]
 489 0018 FFF7FEFF 		bl	USBH_LL_SubmitURB
 490              	.LVL40:
 294:./Libraries/STM32_USB_Host_Library/Core/Src/usbh_ioreq.c ****                     pipe_num,             /* Pipe index       */
 295:./Libraries/STM32_USB_Host_Library/Core/Src/usbh_ioreq.c ****                     1U,                   /* Direction : IN   */
 296:./Libraries/STM32_USB_Host_Library/Core/Src/usbh_ioreq.c ****                     USBH_EP_ISO,          /* EP type          */
 297:./Libraries/STM32_USB_Host_Library/Core/Src/usbh_ioreq.c ****                     USBH_PID_DATA,        /* Type Data        */
 298:./Libraries/STM32_USB_Host_Library/Core/Src/usbh_ioreq.c ****                     buff,                 /* data buffer      */
 299:./Libraries/STM32_USB_Host_Library/Core/Src/usbh_ioreq.c ****                     (uint16_t)length,     /* data length      */
ARM GAS  /tmp/cccO88Vt.s 			page 15


 300:./Libraries/STM32_USB_Host_Library/Core/Src/usbh_ioreq.c ****                     0U);
 301:./Libraries/STM32_USB_Host_Library/Core/Src/usbh_ioreq.c **** 
 302:./Libraries/STM32_USB_Host_Library/Core/Src/usbh_ioreq.c **** 
 303:./Libraries/STM32_USB_Host_Library/Core/Src/usbh_ioreq.c ****   return USBH_OK;
 491              		.loc 1 303 3 is_stmt 1 view .LVU97
 304:./Libraries/STM32_USB_Host_Library/Core/Src/usbh_ioreq.c **** }
 492              		.loc 1 304 1 is_stmt 0 view .LVU98
 493 001c 2046     		mov	r0, r4
 494 001e 05B0     		add	sp, sp, #20
 495              	.LCFI23:
 496              		.cfi_def_cfa_offset 12
 497              		@ sp needed
 498 0020 30BD     		pop	{r4, r5, pc}
 499              		.cfi_endproc
 500              	.LFE345:
 502 0022 00BF     		.section	.text.USBH_IsocSendData,"ax",%progbits
 503              		.align	1
 504              		.p2align 2,,3
 505              		.global	USBH_IsocSendData
 506              		.syntax unified
 507              		.thumb
 508              		.thumb_func
 509              		.fpu fpv5-d16
 511              	USBH_IsocSendData:
 512              	.LVL41:
 513              	.LFB346:
 305:./Libraries/STM32_USB_Host_Library/Core/Src/usbh_ioreq.c **** 
 306:./Libraries/STM32_USB_Host_Library/Core/Src/usbh_ioreq.c **** /**
 307:./Libraries/STM32_USB_Host_Library/Core/Src/usbh_ioreq.c ****   * @brief  USBH_IsocSendData
 308:./Libraries/STM32_USB_Host_Library/Core/Src/usbh_ioreq.c ****   *         Sends the data on Isochronous OUT Endpoint
 309:./Libraries/STM32_USB_Host_Library/Core/Src/usbh_ioreq.c ****   * @param  phost: Host Handle
 310:./Libraries/STM32_USB_Host_Library/Core/Src/usbh_ioreq.c ****   * @param  buff: Buffer pointer from where the data needs to be copied
 311:./Libraries/STM32_USB_Host_Library/Core/Src/usbh_ioreq.c ****   * @param  length: Length of the data to be sent
 312:./Libraries/STM32_USB_Host_Library/Core/Src/usbh_ioreq.c ****   * @param  pipe_num: Pipe Number
 313:./Libraries/STM32_USB_Host_Library/Core/Src/usbh_ioreq.c ****   * @retval USBH Status.
 314:./Libraries/STM32_USB_Host_Library/Core/Src/usbh_ioreq.c ****   */
 315:./Libraries/STM32_USB_Host_Library/Core/Src/usbh_ioreq.c **** USBH_StatusTypeDef USBH_IsocSendData(USBH_HandleTypeDef *phost,
 316:./Libraries/STM32_USB_Host_Library/Core/Src/usbh_ioreq.c ****                                      uint8_t *buff,
 317:./Libraries/STM32_USB_Host_Library/Core/Src/usbh_ioreq.c ****                                      uint32_t length,
 318:./Libraries/STM32_USB_Host_Library/Core/Src/usbh_ioreq.c ****                                      uint8_t pipe_num)
 319:./Libraries/STM32_USB_Host_Library/Core/Src/usbh_ioreq.c **** {
 514              		.loc 1 319 1 is_stmt 1 view -0
 515              		.cfi_startproc
 516              		@ args = 0, pretend = 0, frame = 0
 517              		@ frame_needed = 0, uses_anonymous_args = 0
 320:./Libraries/STM32_USB_Host_Library/Core/Src/usbh_ioreq.c ****   USBH_LL_SubmitURB(phost,                      /* Driver handle    */
 518              		.loc 1 320 3 view .LVU100
 319:./Libraries/STM32_USB_Host_Library/Core/Src/usbh_ioreq.c ****   USBH_LL_SubmitURB(phost,                      /* Driver handle    */
 519              		.loc 1 319 1 is_stmt 0 view .LVU101
 520 0000 30B5     		push	{r4, r5, lr}
 521              	.LCFI24:
 522              		.cfi_def_cfa_offset 12
 523              		.cfi_offset 4, -12
 524              		.cfi_offset 5, -8
 525              		.cfi_offset 14, -4
 526              		.loc 1 320 3 view .LVU102
 527 0002 92B2     		uxth	r2, r2
ARM GAS  /tmp/cccO88Vt.s 			page 16


 528              	.LVL42:
 319:./Libraries/STM32_USB_Host_Library/Core/Src/usbh_ioreq.c ****   USBH_LL_SubmitURB(phost,                      /* Driver handle    */
 529              		.loc 1 319 1 view .LVU103
 530 0004 85B0     		sub	sp, sp, #20
 531              	.LCFI25:
 532              		.cfi_def_cfa_offset 32
 533              		.loc 1 320 3 view .LVU104
 534 0006 0024     		movs	r4, #0
 535 0008 0125     		movs	r5, #1
 536 000a 0191     		str	r1, [sp, #4]
 537 000c 1946     		mov	r1, r3
 538              	.LVL43:
 539              		.loc 1 320 3 view .LVU105
 540 000e 0292     		str	r2, [sp, #8]
 541 0010 2B46     		mov	r3, r5
 542              	.LVL44:
 543              		.loc 1 320 3 view .LVU106
 544 0012 2246     		mov	r2, r4
 545 0014 0394     		str	r4, [sp, #12]
 546 0016 0095     		str	r5, [sp]
 547 0018 FFF7FEFF 		bl	USBH_LL_SubmitURB
 548              	.LVL45:
 321:./Libraries/STM32_USB_Host_Library/Core/Src/usbh_ioreq.c ****                     pipe_num,             /* Pipe index       */
 322:./Libraries/STM32_USB_Host_Library/Core/Src/usbh_ioreq.c ****                     0U,                   /* Direction : OUT   */
 323:./Libraries/STM32_USB_Host_Library/Core/Src/usbh_ioreq.c ****                     USBH_EP_ISO,          /* EP type          */
 324:./Libraries/STM32_USB_Host_Library/Core/Src/usbh_ioreq.c ****                     USBH_PID_DATA,        /* Type Data        */
 325:./Libraries/STM32_USB_Host_Library/Core/Src/usbh_ioreq.c ****                     buff,                 /* data buffer      */
 326:./Libraries/STM32_USB_Host_Library/Core/Src/usbh_ioreq.c ****                     (uint16_t)length,     /* data length      */
 327:./Libraries/STM32_USB_Host_Library/Core/Src/usbh_ioreq.c ****                     0U);
 328:./Libraries/STM32_USB_Host_Library/Core/Src/usbh_ioreq.c **** 
 329:./Libraries/STM32_USB_Host_Library/Core/Src/usbh_ioreq.c ****   return USBH_OK;
 549              		.loc 1 329 3 is_stmt 1 view .LVU107
 330:./Libraries/STM32_USB_Host_Library/Core/Src/usbh_ioreq.c **** }
 550              		.loc 1 330 1 is_stmt 0 view .LVU108
 551 001c 2046     		mov	r0, r4
 552 001e 05B0     		add	sp, sp, #20
 553              	.LCFI26:
 554              		.cfi_def_cfa_offset 12
 555              		@ sp needed
 556 0020 30BD     		pop	{r4, r5, pc}
 557              		.cfi_endproc
 558              	.LFE346:
 560 0022 00BF     		.text
 561              	.Letext0:
 562              		.file 2 "/usr/lib/gcc/arm-none-eabi/9.2.1/include/stdint.h"
 563              		.file 3 "./Libraries/CMSIS/Core/Include/core_cm7.h"
 564              		.file 4 "./Libraries/CMSIS/Device/ST/STM32H7xx/Include/system_stm32h7xx.h"
 565              		.file 5 "/usr/lib/gcc/arm-none-eabi/9.2.1/include/stddef.h"
 566              		.file 6 "/usr/include/newlib/sys/_types.h"
 567              		.file 7 "/usr/include/newlib/sys/reent.h"
 568              		.file 8 "/usr/include/newlib/sys/lock.h"
 569              		.file 9 "/usr/include/newlib/math.h"
 570              		.file 10 "./Libraries/STM32H7xx_HAL_Driver/Inc/stm32h7xx_hal_def.h"
 571              		.file 11 "./Libraries/STM32H7xx_HAL_Driver/Inc/stm32h7xx_hal_flash.h"
 572              		.file 12 "./Libraries/STM32H7xx_HAL_Driver/Inc/stm32h7xx_hal_uart.h"
 573              		.file 13 "./Libraries/STM32H7xx_HAL_Driver/Inc/stm32h7xx_hal.h"
 574              		.file 14 "/usr/include/newlib/stdlib.h"
ARM GAS  /tmp/cccO88Vt.s 			page 17


 575              		.file 15 "./Libraries/FreeRTOS/Source/CMSIS_RTOS/cmsis_os2.h"
 576              		.file 16 "./Libraries/STM32_USB_Host_Library/Core/Inc/usbh_def.h"
 577              		.file 17 "./Libraries/STM32_USB_Host_Library/Core/Inc/usbh_ctlreq.h"
 578              		.file 18 "./Libraries/STM32_USB_Host_Library/Core/Inc/usbh_core.h"
ARM GAS  /tmp/cccO88Vt.s 			page 18

