ARM GAS  /tmp/ccJoeMU3.s 			page 1


   1              		.cpu cortex-m7
   2              		.eabi_attribute 28, 1
   3              		.eabi_attribute 20, 1
   4              		.eabi_attribute 21, 1
   5              		.eabi_attribute 23, 3
   6              		.eabi_attribute 24, 1
   7              		.eabi_attribute 25, 1
   8              		.eabi_attribute 26, 1
   9              		.eabi_attribute 30, 2
  10              		.eabi_attribute 34, 1
  11              		.eabi_attribute 18, 4
  12              		.file	"usbh_cdc.c"
  13              		.text
  14              	.Ltext0:
  15              		.cfi_sections	.debug_frame
  16              		.section	.text.USBH_CDC_SOFProcess,"ax",%progbits
  17              		.align	1
  18              		.p2align 2,,3
  19              		.arch armv7e-m
  20              		.syntax unified
  21              		.thumb
  22              		.thumb_func
  23              		.fpu fpv5-d16
  25              	USBH_CDC_SOFProcess:
  26              	.LVL0:
  27              	.LFB342:
  28              		.file 1 "./Libraries/STM32_USB_Host_Library/Class/CDC/Src/usbh_cdc.c"
   1:./Libraries/STM32_USB_Host_Library/Class/CDC/Src/usbh_cdc.c **** /**
   2:./Libraries/STM32_USB_Host_Library/Class/CDC/Src/usbh_cdc.c ****   ******************************************************************************
   3:./Libraries/STM32_USB_Host_Library/Class/CDC/Src/usbh_cdc.c ****   * @file    usbh_cdc.c
   4:./Libraries/STM32_USB_Host_Library/Class/CDC/Src/usbh_cdc.c ****   * @author  MCD Application Team
   5:./Libraries/STM32_USB_Host_Library/Class/CDC/Src/usbh_cdc.c ****   * @brief   This file is the CDC Layer Handlers for USB Host CDC class.
   6:./Libraries/STM32_USB_Host_Library/Class/CDC/Src/usbh_cdc.c ****   *
   7:./Libraries/STM32_USB_Host_Library/Class/CDC/Src/usbh_cdc.c ****   *  @verbatim
   8:./Libraries/STM32_USB_Host_Library/Class/CDC/Src/usbh_cdc.c ****   *
   9:./Libraries/STM32_USB_Host_Library/Class/CDC/Src/usbh_cdc.c ****   *          ===================================================================
  10:./Libraries/STM32_USB_Host_Library/Class/CDC/Src/usbh_cdc.c ****   *                                CDC Class Driver Description
  11:./Libraries/STM32_USB_Host_Library/Class/CDC/Src/usbh_cdc.c ****   *          ===================================================================
  12:./Libraries/STM32_USB_Host_Library/Class/CDC/Src/usbh_cdc.c ****   *           This driver manages the "Universal Serial Bus Class Definitions for Communications De
  13:./Libraries/STM32_USB_Host_Library/Class/CDC/Src/usbh_cdc.c ****   *           Revision 1.2 November 16, 2007" and the sub-protocol specification of "Universal Seri
  14:./Libraries/STM32_USB_Host_Library/Class/CDC/Src/usbh_cdc.c ****   *           Communications Class Subclass Specification for PSTN Devices Revision 1.2 February 9,
  15:./Libraries/STM32_USB_Host_Library/Class/CDC/Src/usbh_cdc.c ****   *           This driver implements the following aspects of the specification:
  16:./Libraries/STM32_USB_Host_Library/Class/CDC/Src/usbh_cdc.c ****   *             - Device descriptor management
  17:./Libraries/STM32_USB_Host_Library/Class/CDC/Src/usbh_cdc.c ****   *             - Configuration descriptor management
  18:./Libraries/STM32_USB_Host_Library/Class/CDC/Src/usbh_cdc.c ****   *             - Enumeration as CDC device with 2 data endpoints (IN and OUT) and 1 command endpoi
  19:./Libraries/STM32_USB_Host_Library/Class/CDC/Src/usbh_cdc.c ****   *             - Requests management (as described in section 6.2 in specification)
  20:./Libraries/STM32_USB_Host_Library/Class/CDC/Src/usbh_cdc.c ****   *             - Abstract Control Model compliant
  21:./Libraries/STM32_USB_Host_Library/Class/CDC/Src/usbh_cdc.c ****   *             - Union Functional collection (using 1 IN endpoint for control)
  22:./Libraries/STM32_USB_Host_Library/Class/CDC/Src/usbh_cdc.c ****   *             - Data interface class
  23:./Libraries/STM32_USB_Host_Library/Class/CDC/Src/usbh_cdc.c ****   *
  24:./Libraries/STM32_USB_Host_Library/Class/CDC/Src/usbh_cdc.c ****   *  @endverbatim
  25:./Libraries/STM32_USB_Host_Library/Class/CDC/Src/usbh_cdc.c ****   *
  26:./Libraries/STM32_USB_Host_Library/Class/CDC/Src/usbh_cdc.c ****   ******************************************************************************
  27:./Libraries/STM32_USB_Host_Library/Class/CDC/Src/usbh_cdc.c ****   * @attention
  28:./Libraries/STM32_USB_Host_Library/Class/CDC/Src/usbh_cdc.c ****   *
  29:./Libraries/STM32_USB_Host_Library/Class/CDC/Src/usbh_cdc.c ****   * <h2><center>&copy; Copyright (c) 2015 STMicroelectronics.
  30:./Libraries/STM32_USB_Host_Library/Class/CDC/Src/usbh_cdc.c ****   * All rights reserved.</center></h2>
ARM GAS  /tmp/ccJoeMU3.s 			page 2


  31:./Libraries/STM32_USB_Host_Library/Class/CDC/Src/usbh_cdc.c ****   *
  32:./Libraries/STM32_USB_Host_Library/Class/CDC/Src/usbh_cdc.c ****   * This software component is licensed by ST under Ultimate Liberty license
  33:./Libraries/STM32_USB_Host_Library/Class/CDC/Src/usbh_cdc.c ****   * SLA0044, the "License"; You may not use this file except in compliance with
  34:./Libraries/STM32_USB_Host_Library/Class/CDC/Src/usbh_cdc.c ****   * the License. You may obtain a copy of the License at:
  35:./Libraries/STM32_USB_Host_Library/Class/CDC/Src/usbh_cdc.c ****   *                      www.st.com/SLA0044
  36:./Libraries/STM32_USB_Host_Library/Class/CDC/Src/usbh_cdc.c ****   *
  37:./Libraries/STM32_USB_Host_Library/Class/CDC/Src/usbh_cdc.c ****   ******************************************************************************
  38:./Libraries/STM32_USB_Host_Library/Class/CDC/Src/usbh_cdc.c ****   */
  39:./Libraries/STM32_USB_Host_Library/Class/CDC/Src/usbh_cdc.c **** 
  40:./Libraries/STM32_USB_Host_Library/Class/CDC/Src/usbh_cdc.c **** /* BSPDependencies
  41:./Libraries/STM32_USB_Host_Library/Class/CDC/Src/usbh_cdc.c **** - "stm32xxxxx_{eval}{discovery}{nucleo_144}.c"
  42:./Libraries/STM32_USB_Host_Library/Class/CDC/Src/usbh_cdc.c **** - "stm32xxxxx_{eval}{discovery}_io.c"
  43:./Libraries/STM32_USB_Host_Library/Class/CDC/Src/usbh_cdc.c **** - "stm32xxxxx_{eval}{discovery}{adafruit}_sd.c"
  44:./Libraries/STM32_USB_Host_Library/Class/CDC/Src/usbh_cdc.c **** - "stm32xxxxx_{eval}{discovery}{adafruit}_lcd.c"
  45:./Libraries/STM32_USB_Host_Library/Class/CDC/Src/usbh_cdc.c **** - "stm32xxxxx_{eval}{discovery}_sdram.c"
  46:./Libraries/STM32_USB_Host_Library/Class/CDC/Src/usbh_cdc.c **** EndBSPDependencies */
  47:./Libraries/STM32_USB_Host_Library/Class/CDC/Src/usbh_cdc.c **** 
  48:./Libraries/STM32_USB_Host_Library/Class/CDC/Src/usbh_cdc.c **** /* Includes ------------------------------------------------------------------*/
  49:./Libraries/STM32_USB_Host_Library/Class/CDC/Src/usbh_cdc.c **** #include "usbh_cdc.h"
  50:./Libraries/STM32_USB_Host_Library/Class/CDC/Src/usbh_cdc.c **** 
  51:./Libraries/STM32_USB_Host_Library/Class/CDC/Src/usbh_cdc.c **** /** @addtogroup USBH_LIB
  52:./Libraries/STM32_USB_Host_Library/Class/CDC/Src/usbh_cdc.c **** * @{
  53:./Libraries/STM32_USB_Host_Library/Class/CDC/Src/usbh_cdc.c **** */
  54:./Libraries/STM32_USB_Host_Library/Class/CDC/Src/usbh_cdc.c **** 
  55:./Libraries/STM32_USB_Host_Library/Class/CDC/Src/usbh_cdc.c **** /** @addtogroup USBH_CLASS
  56:./Libraries/STM32_USB_Host_Library/Class/CDC/Src/usbh_cdc.c **** * @{
  57:./Libraries/STM32_USB_Host_Library/Class/CDC/Src/usbh_cdc.c **** */
  58:./Libraries/STM32_USB_Host_Library/Class/CDC/Src/usbh_cdc.c **** 
  59:./Libraries/STM32_USB_Host_Library/Class/CDC/Src/usbh_cdc.c **** /** @addtogroup USBH_CDC_CLASS
  60:./Libraries/STM32_USB_Host_Library/Class/CDC/Src/usbh_cdc.c **** * @{
  61:./Libraries/STM32_USB_Host_Library/Class/CDC/Src/usbh_cdc.c **** */
  62:./Libraries/STM32_USB_Host_Library/Class/CDC/Src/usbh_cdc.c **** 
  63:./Libraries/STM32_USB_Host_Library/Class/CDC/Src/usbh_cdc.c **** /** @defgroup USBH_CDC_CORE
  64:./Libraries/STM32_USB_Host_Library/Class/CDC/Src/usbh_cdc.c **** * @brief    This file includes CDC Layer Handlers for USB Host CDC class.
  65:./Libraries/STM32_USB_Host_Library/Class/CDC/Src/usbh_cdc.c **** * @{
  66:./Libraries/STM32_USB_Host_Library/Class/CDC/Src/usbh_cdc.c **** */
  67:./Libraries/STM32_USB_Host_Library/Class/CDC/Src/usbh_cdc.c **** 
  68:./Libraries/STM32_USB_Host_Library/Class/CDC/Src/usbh_cdc.c **** /** @defgroup USBH_CDC_CORE_Private_TypesDefinitions
  69:./Libraries/STM32_USB_Host_Library/Class/CDC/Src/usbh_cdc.c **** * @{
  70:./Libraries/STM32_USB_Host_Library/Class/CDC/Src/usbh_cdc.c **** */
  71:./Libraries/STM32_USB_Host_Library/Class/CDC/Src/usbh_cdc.c **** /**
  72:./Libraries/STM32_USB_Host_Library/Class/CDC/Src/usbh_cdc.c **** * @}
  73:./Libraries/STM32_USB_Host_Library/Class/CDC/Src/usbh_cdc.c **** */
  74:./Libraries/STM32_USB_Host_Library/Class/CDC/Src/usbh_cdc.c **** 
  75:./Libraries/STM32_USB_Host_Library/Class/CDC/Src/usbh_cdc.c **** 
  76:./Libraries/STM32_USB_Host_Library/Class/CDC/Src/usbh_cdc.c **** /** @defgroup USBH_CDC_CORE_Private_Defines
  77:./Libraries/STM32_USB_Host_Library/Class/CDC/Src/usbh_cdc.c **** * @{
  78:./Libraries/STM32_USB_Host_Library/Class/CDC/Src/usbh_cdc.c **** */
  79:./Libraries/STM32_USB_Host_Library/Class/CDC/Src/usbh_cdc.c **** #define USBH_CDC_BUFFER_SIZE                 1024
  80:./Libraries/STM32_USB_Host_Library/Class/CDC/Src/usbh_cdc.c **** /**
  81:./Libraries/STM32_USB_Host_Library/Class/CDC/Src/usbh_cdc.c **** * @}
  82:./Libraries/STM32_USB_Host_Library/Class/CDC/Src/usbh_cdc.c **** */
  83:./Libraries/STM32_USB_Host_Library/Class/CDC/Src/usbh_cdc.c **** 
  84:./Libraries/STM32_USB_Host_Library/Class/CDC/Src/usbh_cdc.c **** 
  85:./Libraries/STM32_USB_Host_Library/Class/CDC/Src/usbh_cdc.c **** /** @defgroup USBH_CDC_CORE_Private_Macros
  86:./Libraries/STM32_USB_Host_Library/Class/CDC/Src/usbh_cdc.c **** * @{
  87:./Libraries/STM32_USB_Host_Library/Class/CDC/Src/usbh_cdc.c **** */
ARM GAS  /tmp/ccJoeMU3.s 			page 3


  88:./Libraries/STM32_USB_Host_Library/Class/CDC/Src/usbh_cdc.c **** /**
  89:./Libraries/STM32_USB_Host_Library/Class/CDC/Src/usbh_cdc.c **** * @}
  90:./Libraries/STM32_USB_Host_Library/Class/CDC/Src/usbh_cdc.c **** */
  91:./Libraries/STM32_USB_Host_Library/Class/CDC/Src/usbh_cdc.c **** 
  92:./Libraries/STM32_USB_Host_Library/Class/CDC/Src/usbh_cdc.c **** 
  93:./Libraries/STM32_USB_Host_Library/Class/CDC/Src/usbh_cdc.c **** /** @defgroup USBH_CDC_CORE_Private_Variables
  94:./Libraries/STM32_USB_Host_Library/Class/CDC/Src/usbh_cdc.c **** * @{
  95:./Libraries/STM32_USB_Host_Library/Class/CDC/Src/usbh_cdc.c **** */
  96:./Libraries/STM32_USB_Host_Library/Class/CDC/Src/usbh_cdc.c **** /**
  97:./Libraries/STM32_USB_Host_Library/Class/CDC/Src/usbh_cdc.c **** * @}
  98:./Libraries/STM32_USB_Host_Library/Class/CDC/Src/usbh_cdc.c **** */
  99:./Libraries/STM32_USB_Host_Library/Class/CDC/Src/usbh_cdc.c **** 
 100:./Libraries/STM32_USB_Host_Library/Class/CDC/Src/usbh_cdc.c **** 
 101:./Libraries/STM32_USB_Host_Library/Class/CDC/Src/usbh_cdc.c **** /** @defgroup USBH_CDC_CORE_Private_FunctionPrototypes
 102:./Libraries/STM32_USB_Host_Library/Class/CDC/Src/usbh_cdc.c **** * @{
 103:./Libraries/STM32_USB_Host_Library/Class/CDC/Src/usbh_cdc.c **** */
 104:./Libraries/STM32_USB_Host_Library/Class/CDC/Src/usbh_cdc.c **** 
 105:./Libraries/STM32_USB_Host_Library/Class/CDC/Src/usbh_cdc.c **** static USBH_StatusTypeDef USBH_CDC_InterfaceInit(USBH_HandleTypeDef *phost);
 106:./Libraries/STM32_USB_Host_Library/Class/CDC/Src/usbh_cdc.c **** 
 107:./Libraries/STM32_USB_Host_Library/Class/CDC/Src/usbh_cdc.c **** static USBH_StatusTypeDef USBH_CDC_InterfaceDeInit(USBH_HandleTypeDef *phost);
 108:./Libraries/STM32_USB_Host_Library/Class/CDC/Src/usbh_cdc.c **** 
 109:./Libraries/STM32_USB_Host_Library/Class/CDC/Src/usbh_cdc.c **** static USBH_StatusTypeDef USBH_CDC_Process(USBH_HandleTypeDef *phost);
 110:./Libraries/STM32_USB_Host_Library/Class/CDC/Src/usbh_cdc.c **** 
 111:./Libraries/STM32_USB_Host_Library/Class/CDC/Src/usbh_cdc.c **** static USBH_StatusTypeDef USBH_CDC_SOFProcess(USBH_HandleTypeDef *phost);
 112:./Libraries/STM32_USB_Host_Library/Class/CDC/Src/usbh_cdc.c **** 
 113:./Libraries/STM32_USB_Host_Library/Class/CDC/Src/usbh_cdc.c **** static USBH_StatusTypeDef USBH_CDC_ClassRequest(USBH_HandleTypeDef *phost);
 114:./Libraries/STM32_USB_Host_Library/Class/CDC/Src/usbh_cdc.c **** 
 115:./Libraries/STM32_USB_Host_Library/Class/CDC/Src/usbh_cdc.c **** static USBH_StatusTypeDef GetLineCoding(USBH_HandleTypeDef *phost,
 116:./Libraries/STM32_USB_Host_Library/Class/CDC/Src/usbh_cdc.c ****                                         CDC_LineCodingTypeDef *linecoding);
 117:./Libraries/STM32_USB_Host_Library/Class/CDC/Src/usbh_cdc.c **** 
 118:./Libraries/STM32_USB_Host_Library/Class/CDC/Src/usbh_cdc.c **** static USBH_StatusTypeDef SetLineCoding(USBH_HandleTypeDef *phost,
 119:./Libraries/STM32_USB_Host_Library/Class/CDC/Src/usbh_cdc.c ****                                         CDC_LineCodingTypeDef *linecoding);
 120:./Libraries/STM32_USB_Host_Library/Class/CDC/Src/usbh_cdc.c **** 
 121:./Libraries/STM32_USB_Host_Library/Class/CDC/Src/usbh_cdc.c **** static void CDC_ProcessTransmission(USBH_HandleTypeDef *phost);
 122:./Libraries/STM32_USB_Host_Library/Class/CDC/Src/usbh_cdc.c **** 
 123:./Libraries/STM32_USB_Host_Library/Class/CDC/Src/usbh_cdc.c **** static void CDC_ProcessReception(USBH_HandleTypeDef *phost);
 124:./Libraries/STM32_USB_Host_Library/Class/CDC/Src/usbh_cdc.c **** 
 125:./Libraries/STM32_USB_Host_Library/Class/CDC/Src/usbh_cdc.c **** USBH_ClassTypeDef  CDC_Class =
 126:./Libraries/STM32_USB_Host_Library/Class/CDC/Src/usbh_cdc.c **** {
 127:./Libraries/STM32_USB_Host_Library/Class/CDC/Src/usbh_cdc.c ****   "CDC",
 128:./Libraries/STM32_USB_Host_Library/Class/CDC/Src/usbh_cdc.c ****   USB_CDC_CLASS,
 129:./Libraries/STM32_USB_Host_Library/Class/CDC/Src/usbh_cdc.c ****   USBH_CDC_InterfaceInit,
 130:./Libraries/STM32_USB_Host_Library/Class/CDC/Src/usbh_cdc.c ****   USBH_CDC_InterfaceDeInit,
 131:./Libraries/STM32_USB_Host_Library/Class/CDC/Src/usbh_cdc.c ****   USBH_CDC_ClassRequest,
 132:./Libraries/STM32_USB_Host_Library/Class/CDC/Src/usbh_cdc.c ****   USBH_CDC_Process,
 133:./Libraries/STM32_USB_Host_Library/Class/CDC/Src/usbh_cdc.c ****   USBH_CDC_SOFProcess,
 134:./Libraries/STM32_USB_Host_Library/Class/CDC/Src/usbh_cdc.c ****   NULL,
 135:./Libraries/STM32_USB_Host_Library/Class/CDC/Src/usbh_cdc.c **** };
 136:./Libraries/STM32_USB_Host_Library/Class/CDC/Src/usbh_cdc.c **** /**
 137:./Libraries/STM32_USB_Host_Library/Class/CDC/Src/usbh_cdc.c **** * @}
 138:./Libraries/STM32_USB_Host_Library/Class/CDC/Src/usbh_cdc.c **** */
 139:./Libraries/STM32_USB_Host_Library/Class/CDC/Src/usbh_cdc.c **** 
 140:./Libraries/STM32_USB_Host_Library/Class/CDC/Src/usbh_cdc.c **** 
 141:./Libraries/STM32_USB_Host_Library/Class/CDC/Src/usbh_cdc.c **** /** @defgroup USBH_CDC_CORE_Private_Functions
 142:./Libraries/STM32_USB_Host_Library/Class/CDC/Src/usbh_cdc.c **** * @{
 143:./Libraries/STM32_USB_Host_Library/Class/CDC/Src/usbh_cdc.c **** */
 144:./Libraries/STM32_USB_Host_Library/Class/CDC/Src/usbh_cdc.c **** 
ARM GAS  /tmp/ccJoeMU3.s 			page 4


 145:./Libraries/STM32_USB_Host_Library/Class/CDC/Src/usbh_cdc.c **** /**
 146:./Libraries/STM32_USB_Host_Library/Class/CDC/Src/usbh_cdc.c ****   * @brief  USBH_CDC_InterfaceInit
 147:./Libraries/STM32_USB_Host_Library/Class/CDC/Src/usbh_cdc.c ****   *         The function init the CDC class.
 148:./Libraries/STM32_USB_Host_Library/Class/CDC/Src/usbh_cdc.c ****   * @param  phost: Host handle
 149:./Libraries/STM32_USB_Host_Library/Class/CDC/Src/usbh_cdc.c ****   * @retval USBH Status
 150:./Libraries/STM32_USB_Host_Library/Class/CDC/Src/usbh_cdc.c ****   */
 151:./Libraries/STM32_USB_Host_Library/Class/CDC/Src/usbh_cdc.c **** static USBH_StatusTypeDef USBH_CDC_InterfaceInit(USBH_HandleTypeDef *phost)
 152:./Libraries/STM32_USB_Host_Library/Class/CDC/Src/usbh_cdc.c **** {
 153:./Libraries/STM32_USB_Host_Library/Class/CDC/Src/usbh_cdc.c **** 
 154:./Libraries/STM32_USB_Host_Library/Class/CDC/Src/usbh_cdc.c ****   USBH_StatusTypeDef status;
 155:./Libraries/STM32_USB_Host_Library/Class/CDC/Src/usbh_cdc.c ****   uint8_t interface;
 156:./Libraries/STM32_USB_Host_Library/Class/CDC/Src/usbh_cdc.c ****   CDC_HandleTypeDef *CDC_Handle;
 157:./Libraries/STM32_USB_Host_Library/Class/CDC/Src/usbh_cdc.c **** 
 158:./Libraries/STM32_USB_Host_Library/Class/CDC/Src/usbh_cdc.c ****   interface = USBH_FindInterface(phost, COMMUNICATION_INTERFACE_CLASS_CODE,
 159:./Libraries/STM32_USB_Host_Library/Class/CDC/Src/usbh_cdc.c ****                                  ABSTRACT_CONTROL_MODEL, COMMON_AT_COMMAND);
 160:./Libraries/STM32_USB_Host_Library/Class/CDC/Src/usbh_cdc.c **** 
 161:./Libraries/STM32_USB_Host_Library/Class/CDC/Src/usbh_cdc.c ****   if ((interface == 0xFFU) || (interface >= USBH_MAX_NUM_INTERFACES)) /* No Valid Interface */
 162:./Libraries/STM32_USB_Host_Library/Class/CDC/Src/usbh_cdc.c ****   {
 163:./Libraries/STM32_USB_Host_Library/Class/CDC/Src/usbh_cdc.c ****     USBH_DbgLog("Cannot Find the interface for Communication Interface Class.", phost->pActiveClass
 164:./Libraries/STM32_USB_Host_Library/Class/CDC/Src/usbh_cdc.c ****     return USBH_FAIL;
 165:./Libraries/STM32_USB_Host_Library/Class/CDC/Src/usbh_cdc.c ****   }
 166:./Libraries/STM32_USB_Host_Library/Class/CDC/Src/usbh_cdc.c **** 
 167:./Libraries/STM32_USB_Host_Library/Class/CDC/Src/usbh_cdc.c ****   status = USBH_SelectInterface(phost, interface);
 168:./Libraries/STM32_USB_Host_Library/Class/CDC/Src/usbh_cdc.c **** 
 169:./Libraries/STM32_USB_Host_Library/Class/CDC/Src/usbh_cdc.c ****   if (status != USBH_OK)
 170:./Libraries/STM32_USB_Host_Library/Class/CDC/Src/usbh_cdc.c ****   {
 171:./Libraries/STM32_USB_Host_Library/Class/CDC/Src/usbh_cdc.c ****     return USBH_FAIL;
 172:./Libraries/STM32_USB_Host_Library/Class/CDC/Src/usbh_cdc.c ****   }
 173:./Libraries/STM32_USB_Host_Library/Class/CDC/Src/usbh_cdc.c **** 
 174:./Libraries/STM32_USB_Host_Library/Class/CDC/Src/usbh_cdc.c ****   phost->pActiveClass->pData = (CDC_HandleTypeDef *)USBH_malloc(sizeof(CDC_HandleTypeDef));
 175:./Libraries/STM32_USB_Host_Library/Class/CDC/Src/usbh_cdc.c ****   CDC_Handle = (CDC_HandleTypeDef *) phost->pActiveClass->pData;
 176:./Libraries/STM32_USB_Host_Library/Class/CDC/Src/usbh_cdc.c **** 
 177:./Libraries/STM32_USB_Host_Library/Class/CDC/Src/usbh_cdc.c ****   if (CDC_Handle == NULL)
 178:./Libraries/STM32_USB_Host_Library/Class/CDC/Src/usbh_cdc.c ****   {
 179:./Libraries/STM32_USB_Host_Library/Class/CDC/Src/usbh_cdc.c ****     USBH_DbgLog("Cannot allocate memory for CDC Handle");
 180:./Libraries/STM32_USB_Host_Library/Class/CDC/Src/usbh_cdc.c ****     return USBH_FAIL;
 181:./Libraries/STM32_USB_Host_Library/Class/CDC/Src/usbh_cdc.c ****   }
 182:./Libraries/STM32_USB_Host_Library/Class/CDC/Src/usbh_cdc.c **** 
 183:./Libraries/STM32_USB_Host_Library/Class/CDC/Src/usbh_cdc.c ****   /* Initialize cdc handler */
 184:./Libraries/STM32_USB_Host_Library/Class/CDC/Src/usbh_cdc.c ****   USBH_memset(CDC_Handle, 0, sizeof(CDC_HandleTypeDef));
 185:./Libraries/STM32_USB_Host_Library/Class/CDC/Src/usbh_cdc.c **** 
 186:./Libraries/STM32_USB_Host_Library/Class/CDC/Src/usbh_cdc.c ****   /*Collect the notification endpoint address and length*/
 187:./Libraries/STM32_USB_Host_Library/Class/CDC/Src/usbh_cdc.c ****   if (phost->device.CfgDesc.Itf_Desc[interface].Ep_Desc[0].bEndpointAddress & 0x80U)
 188:./Libraries/STM32_USB_Host_Library/Class/CDC/Src/usbh_cdc.c ****   {
 189:./Libraries/STM32_USB_Host_Library/Class/CDC/Src/usbh_cdc.c ****     CDC_Handle->CommItf.NotifEp = phost->device.CfgDesc.Itf_Desc[interface].Ep_Desc[0].bEndpointAdd
 190:./Libraries/STM32_USB_Host_Library/Class/CDC/Src/usbh_cdc.c ****     CDC_Handle->CommItf.NotifEpSize  = phost->device.CfgDesc.Itf_Desc[interface].Ep_Desc[0].wMaxPac
 191:./Libraries/STM32_USB_Host_Library/Class/CDC/Src/usbh_cdc.c ****   }
 192:./Libraries/STM32_USB_Host_Library/Class/CDC/Src/usbh_cdc.c **** 
 193:./Libraries/STM32_USB_Host_Library/Class/CDC/Src/usbh_cdc.c ****   /*Allocate the length for host channel number in*/
 194:./Libraries/STM32_USB_Host_Library/Class/CDC/Src/usbh_cdc.c ****   CDC_Handle->CommItf.NotifPipe = USBH_AllocPipe(phost, CDC_Handle->CommItf.NotifEp);
 195:./Libraries/STM32_USB_Host_Library/Class/CDC/Src/usbh_cdc.c **** 
 196:./Libraries/STM32_USB_Host_Library/Class/CDC/Src/usbh_cdc.c ****   /* Open pipe for Notification endpoint */
 197:./Libraries/STM32_USB_Host_Library/Class/CDC/Src/usbh_cdc.c ****   USBH_OpenPipe(phost, CDC_Handle->CommItf.NotifPipe, CDC_Handle->CommItf.NotifEp,
 198:./Libraries/STM32_USB_Host_Library/Class/CDC/Src/usbh_cdc.c ****                 phost->device.address, phost->device.speed, USB_EP_TYPE_INTR,
 199:./Libraries/STM32_USB_Host_Library/Class/CDC/Src/usbh_cdc.c ****                 CDC_Handle->CommItf.NotifEpSize);
 200:./Libraries/STM32_USB_Host_Library/Class/CDC/Src/usbh_cdc.c **** 
 201:./Libraries/STM32_USB_Host_Library/Class/CDC/Src/usbh_cdc.c ****   USBH_LL_SetToggle(phost, CDC_Handle->CommItf.NotifPipe, 0U);
ARM GAS  /tmp/ccJoeMU3.s 			page 5


 202:./Libraries/STM32_USB_Host_Library/Class/CDC/Src/usbh_cdc.c **** 
 203:./Libraries/STM32_USB_Host_Library/Class/CDC/Src/usbh_cdc.c ****   interface = USBH_FindInterface(phost, DATA_INTERFACE_CLASS_CODE,
 204:./Libraries/STM32_USB_Host_Library/Class/CDC/Src/usbh_cdc.c ****                                  RESERVED, NO_CLASS_SPECIFIC_PROTOCOL_CODE);
 205:./Libraries/STM32_USB_Host_Library/Class/CDC/Src/usbh_cdc.c **** 
 206:./Libraries/STM32_USB_Host_Library/Class/CDC/Src/usbh_cdc.c ****   if ((interface == 0xFFU) || (interface >= USBH_MAX_NUM_INTERFACES)) /* No Valid Interface */
 207:./Libraries/STM32_USB_Host_Library/Class/CDC/Src/usbh_cdc.c ****   {
 208:./Libraries/STM32_USB_Host_Library/Class/CDC/Src/usbh_cdc.c ****     USBH_DbgLog("Cannot Find the interface for Data Interface Class.", phost->pActiveClass->Name);
 209:./Libraries/STM32_USB_Host_Library/Class/CDC/Src/usbh_cdc.c ****     return USBH_FAIL;
 210:./Libraries/STM32_USB_Host_Library/Class/CDC/Src/usbh_cdc.c ****   }
 211:./Libraries/STM32_USB_Host_Library/Class/CDC/Src/usbh_cdc.c **** 
 212:./Libraries/STM32_USB_Host_Library/Class/CDC/Src/usbh_cdc.c ****   /*Collect the class specific endpoint address and length*/
 213:./Libraries/STM32_USB_Host_Library/Class/CDC/Src/usbh_cdc.c ****   if (phost->device.CfgDesc.Itf_Desc[interface].Ep_Desc[0].bEndpointAddress & 0x80U)
 214:./Libraries/STM32_USB_Host_Library/Class/CDC/Src/usbh_cdc.c ****   {
 215:./Libraries/STM32_USB_Host_Library/Class/CDC/Src/usbh_cdc.c ****     CDC_Handle->DataItf.InEp = phost->device.CfgDesc.Itf_Desc[interface].Ep_Desc[0].bEndpointAddres
 216:./Libraries/STM32_USB_Host_Library/Class/CDC/Src/usbh_cdc.c ****     CDC_Handle->DataItf.InEpSize  = phost->device.CfgDesc.Itf_Desc[interface].Ep_Desc[0].wMaxPacket
 217:./Libraries/STM32_USB_Host_Library/Class/CDC/Src/usbh_cdc.c ****   }
 218:./Libraries/STM32_USB_Host_Library/Class/CDC/Src/usbh_cdc.c ****   else
 219:./Libraries/STM32_USB_Host_Library/Class/CDC/Src/usbh_cdc.c ****   {
 220:./Libraries/STM32_USB_Host_Library/Class/CDC/Src/usbh_cdc.c ****     CDC_Handle->DataItf.OutEp = phost->device.CfgDesc.Itf_Desc[interface].Ep_Desc[0].bEndpointAddre
 221:./Libraries/STM32_USB_Host_Library/Class/CDC/Src/usbh_cdc.c ****     CDC_Handle->DataItf.OutEpSize  = phost->device.CfgDesc.Itf_Desc[interface].Ep_Desc[0].wMaxPacke
 222:./Libraries/STM32_USB_Host_Library/Class/CDC/Src/usbh_cdc.c ****   }
 223:./Libraries/STM32_USB_Host_Library/Class/CDC/Src/usbh_cdc.c **** 
 224:./Libraries/STM32_USB_Host_Library/Class/CDC/Src/usbh_cdc.c ****   if (phost->device.CfgDesc.Itf_Desc[interface].Ep_Desc[1].bEndpointAddress & 0x80U)
 225:./Libraries/STM32_USB_Host_Library/Class/CDC/Src/usbh_cdc.c ****   {
 226:./Libraries/STM32_USB_Host_Library/Class/CDC/Src/usbh_cdc.c ****     CDC_Handle->DataItf.InEp = phost->device.CfgDesc.Itf_Desc[interface].Ep_Desc[1].bEndpointAddres
 227:./Libraries/STM32_USB_Host_Library/Class/CDC/Src/usbh_cdc.c ****     CDC_Handle->DataItf.InEpSize  = phost->device.CfgDesc.Itf_Desc[interface].Ep_Desc[1].wMaxPacket
 228:./Libraries/STM32_USB_Host_Library/Class/CDC/Src/usbh_cdc.c ****   }
 229:./Libraries/STM32_USB_Host_Library/Class/CDC/Src/usbh_cdc.c ****   else
 230:./Libraries/STM32_USB_Host_Library/Class/CDC/Src/usbh_cdc.c ****   {
 231:./Libraries/STM32_USB_Host_Library/Class/CDC/Src/usbh_cdc.c ****     CDC_Handle->DataItf.OutEp = phost->device.CfgDesc.Itf_Desc[interface].Ep_Desc[1].bEndpointAddre
 232:./Libraries/STM32_USB_Host_Library/Class/CDC/Src/usbh_cdc.c ****     CDC_Handle->DataItf.OutEpSize = phost->device.CfgDesc.Itf_Desc[interface].Ep_Desc[1].wMaxPacket
 233:./Libraries/STM32_USB_Host_Library/Class/CDC/Src/usbh_cdc.c ****   }
 234:./Libraries/STM32_USB_Host_Library/Class/CDC/Src/usbh_cdc.c **** 
 235:./Libraries/STM32_USB_Host_Library/Class/CDC/Src/usbh_cdc.c ****   /*Allocate the length for host channel number out*/
 236:./Libraries/STM32_USB_Host_Library/Class/CDC/Src/usbh_cdc.c ****   CDC_Handle->DataItf.OutPipe = USBH_AllocPipe(phost, CDC_Handle->DataItf.OutEp);
 237:./Libraries/STM32_USB_Host_Library/Class/CDC/Src/usbh_cdc.c **** 
 238:./Libraries/STM32_USB_Host_Library/Class/CDC/Src/usbh_cdc.c ****   /*Allocate the length for host channel number in*/
 239:./Libraries/STM32_USB_Host_Library/Class/CDC/Src/usbh_cdc.c ****   CDC_Handle->DataItf.InPipe = USBH_AllocPipe(phost, CDC_Handle->DataItf.InEp);
 240:./Libraries/STM32_USB_Host_Library/Class/CDC/Src/usbh_cdc.c **** 
 241:./Libraries/STM32_USB_Host_Library/Class/CDC/Src/usbh_cdc.c ****   /* Open channel for OUT endpoint */
 242:./Libraries/STM32_USB_Host_Library/Class/CDC/Src/usbh_cdc.c ****   USBH_OpenPipe(phost, CDC_Handle->DataItf.OutPipe, CDC_Handle->DataItf.OutEp,
 243:./Libraries/STM32_USB_Host_Library/Class/CDC/Src/usbh_cdc.c ****                 phost->device.address, phost->device.speed, USB_EP_TYPE_BULK,
 244:./Libraries/STM32_USB_Host_Library/Class/CDC/Src/usbh_cdc.c ****                 CDC_Handle->DataItf.OutEpSize);
 245:./Libraries/STM32_USB_Host_Library/Class/CDC/Src/usbh_cdc.c **** 
 246:./Libraries/STM32_USB_Host_Library/Class/CDC/Src/usbh_cdc.c ****   /* Open channel for IN endpoint */
 247:./Libraries/STM32_USB_Host_Library/Class/CDC/Src/usbh_cdc.c ****   USBH_OpenPipe(phost, CDC_Handle->DataItf.InPipe, CDC_Handle->DataItf.InEp,
 248:./Libraries/STM32_USB_Host_Library/Class/CDC/Src/usbh_cdc.c ****                 phost->device.address, phost->device.speed, USB_EP_TYPE_BULK,
 249:./Libraries/STM32_USB_Host_Library/Class/CDC/Src/usbh_cdc.c ****                 CDC_Handle->DataItf.InEpSize);
 250:./Libraries/STM32_USB_Host_Library/Class/CDC/Src/usbh_cdc.c **** 
 251:./Libraries/STM32_USB_Host_Library/Class/CDC/Src/usbh_cdc.c ****   CDC_Handle->state = CDC_IDLE_STATE;
 252:./Libraries/STM32_USB_Host_Library/Class/CDC/Src/usbh_cdc.c **** 
 253:./Libraries/STM32_USB_Host_Library/Class/CDC/Src/usbh_cdc.c ****   USBH_LL_SetToggle(phost, CDC_Handle->DataItf.OutPipe, 0U);
 254:./Libraries/STM32_USB_Host_Library/Class/CDC/Src/usbh_cdc.c ****   USBH_LL_SetToggle(phost, CDC_Handle->DataItf.InPipe, 0U);
 255:./Libraries/STM32_USB_Host_Library/Class/CDC/Src/usbh_cdc.c **** 
 256:./Libraries/STM32_USB_Host_Library/Class/CDC/Src/usbh_cdc.c ****   return USBH_OK;
 257:./Libraries/STM32_USB_Host_Library/Class/CDC/Src/usbh_cdc.c **** }
 258:./Libraries/STM32_USB_Host_Library/Class/CDC/Src/usbh_cdc.c **** 
ARM GAS  /tmp/ccJoeMU3.s 			page 6


 259:./Libraries/STM32_USB_Host_Library/Class/CDC/Src/usbh_cdc.c **** 
 260:./Libraries/STM32_USB_Host_Library/Class/CDC/Src/usbh_cdc.c **** 
 261:./Libraries/STM32_USB_Host_Library/Class/CDC/Src/usbh_cdc.c **** /**
 262:./Libraries/STM32_USB_Host_Library/Class/CDC/Src/usbh_cdc.c ****   * @brief  USBH_CDC_InterfaceDeInit
 263:./Libraries/STM32_USB_Host_Library/Class/CDC/Src/usbh_cdc.c ****   *         The function DeInit the Pipes used for the CDC class.
 264:./Libraries/STM32_USB_Host_Library/Class/CDC/Src/usbh_cdc.c ****   * @param  phost: Host handle
 265:./Libraries/STM32_USB_Host_Library/Class/CDC/Src/usbh_cdc.c ****   * @retval USBH Status
 266:./Libraries/STM32_USB_Host_Library/Class/CDC/Src/usbh_cdc.c ****   */
 267:./Libraries/STM32_USB_Host_Library/Class/CDC/Src/usbh_cdc.c **** static USBH_StatusTypeDef USBH_CDC_InterfaceDeInit(USBH_HandleTypeDef *phost)
 268:./Libraries/STM32_USB_Host_Library/Class/CDC/Src/usbh_cdc.c **** {
 269:./Libraries/STM32_USB_Host_Library/Class/CDC/Src/usbh_cdc.c ****   CDC_HandleTypeDef *CDC_Handle = (CDC_HandleTypeDef *) phost->pActiveClass->pData;
 270:./Libraries/STM32_USB_Host_Library/Class/CDC/Src/usbh_cdc.c **** 
 271:./Libraries/STM32_USB_Host_Library/Class/CDC/Src/usbh_cdc.c ****   if (CDC_Handle->CommItf.NotifPipe)
 272:./Libraries/STM32_USB_Host_Library/Class/CDC/Src/usbh_cdc.c ****   {
 273:./Libraries/STM32_USB_Host_Library/Class/CDC/Src/usbh_cdc.c ****     USBH_ClosePipe(phost, CDC_Handle->CommItf.NotifPipe);
 274:./Libraries/STM32_USB_Host_Library/Class/CDC/Src/usbh_cdc.c ****     USBH_FreePipe(phost, CDC_Handle->CommItf.NotifPipe);
 275:./Libraries/STM32_USB_Host_Library/Class/CDC/Src/usbh_cdc.c ****     CDC_Handle->CommItf.NotifPipe = 0U;     /* Reset the Channel as Free */
 276:./Libraries/STM32_USB_Host_Library/Class/CDC/Src/usbh_cdc.c ****   }
 277:./Libraries/STM32_USB_Host_Library/Class/CDC/Src/usbh_cdc.c **** 
 278:./Libraries/STM32_USB_Host_Library/Class/CDC/Src/usbh_cdc.c ****   if (CDC_Handle->DataItf.InPipe)
 279:./Libraries/STM32_USB_Host_Library/Class/CDC/Src/usbh_cdc.c ****   {
 280:./Libraries/STM32_USB_Host_Library/Class/CDC/Src/usbh_cdc.c ****     USBH_ClosePipe(phost, CDC_Handle->DataItf.InPipe);
 281:./Libraries/STM32_USB_Host_Library/Class/CDC/Src/usbh_cdc.c ****     USBH_FreePipe(phost, CDC_Handle->DataItf.InPipe);
 282:./Libraries/STM32_USB_Host_Library/Class/CDC/Src/usbh_cdc.c ****     CDC_Handle->DataItf.InPipe = 0U;     /* Reset the Channel as Free */
 283:./Libraries/STM32_USB_Host_Library/Class/CDC/Src/usbh_cdc.c ****   }
 284:./Libraries/STM32_USB_Host_Library/Class/CDC/Src/usbh_cdc.c **** 
 285:./Libraries/STM32_USB_Host_Library/Class/CDC/Src/usbh_cdc.c ****   if (CDC_Handle->DataItf.OutPipe)
 286:./Libraries/STM32_USB_Host_Library/Class/CDC/Src/usbh_cdc.c ****   {
 287:./Libraries/STM32_USB_Host_Library/Class/CDC/Src/usbh_cdc.c ****     USBH_ClosePipe(phost, CDC_Handle->DataItf.OutPipe);
 288:./Libraries/STM32_USB_Host_Library/Class/CDC/Src/usbh_cdc.c ****     USBH_FreePipe(phost, CDC_Handle->DataItf.OutPipe);
 289:./Libraries/STM32_USB_Host_Library/Class/CDC/Src/usbh_cdc.c ****     CDC_Handle->DataItf.OutPipe = 0U;    /* Reset the Channel as Free */
 290:./Libraries/STM32_USB_Host_Library/Class/CDC/Src/usbh_cdc.c ****   }
 291:./Libraries/STM32_USB_Host_Library/Class/CDC/Src/usbh_cdc.c **** 
 292:./Libraries/STM32_USB_Host_Library/Class/CDC/Src/usbh_cdc.c ****   if (phost->pActiveClass->pData)
 293:./Libraries/STM32_USB_Host_Library/Class/CDC/Src/usbh_cdc.c ****   {
 294:./Libraries/STM32_USB_Host_Library/Class/CDC/Src/usbh_cdc.c ****     USBH_free(phost->pActiveClass->pData);
 295:./Libraries/STM32_USB_Host_Library/Class/CDC/Src/usbh_cdc.c ****     phost->pActiveClass->pData = 0U;
 296:./Libraries/STM32_USB_Host_Library/Class/CDC/Src/usbh_cdc.c ****   }
 297:./Libraries/STM32_USB_Host_Library/Class/CDC/Src/usbh_cdc.c **** 
 298:./Libraries/STM32_USB_Host_Library/Class/CDC/Src/usbh_cdc.c ****   return USBH_OK;
 299:./Libraries/STM32_USB_Host_Library/Class/CDC/Src/usbh_cdc.c **** }
 300:./Libraries/STM32_USB_Host_Library/Class/CDC/Src/usbh_cdc.c **** 
 301:./Libraries/STM32_USB_Host_Library/Class/CDC/Src/usbh_cdc.c **** /**
 302:./Libraries/STM32_USB_Host_Library/Class/CDC/Src/usbh_cdc.c ****   * @brief  USBH_CDC_ClassRequest
 303:./Libraries/STM32_USB_Host_Library/Class/CDC/Src/usbh_cdc.c ****   *         The function is responsible for handling Standard requests
 304:./Libraries/STM32_USB_Host_Library/Class/CDC/Src/usbh_cdc.c ****   *         for CDC class.
 305:./Libraries/STM32_USB_Host_Library/Class/CDC/Src/usbh_cdc.c ****   * @param  phost: Host handle
 306:./Libraries/STM32_USB_Host_Library/Class/CDC/Src/usbh_cdc.c ****   * @retval USBH Status
 307:./Libraries/STM32_USB_Host_Library/Class/CDC/Src/usbh_cdc.c ****   */
 308:./Libraries/STM32_USB_Host_Library/Class/CDC/Src/usbh_cdc.c **** static USBH_StatusTypeDef USBH_CDC_ClassRequest(USBH_HandleTypeDef *phost)
 309:./Libraries/STM32_USB_Host_Library/Class/CDC/Src/usbh_cdc.c **** {
 310:./Libraries/STM32_USB_Host_Library/Class/CDC/Src/usbh_cdc.c ****   USBH_StatusTypeDef status;
 311:./Libraries/STM32_USB_Host_Library/Class/CDC/Src/usbh_cdc.c ****   CDC_HandleTypeDef *CDC_Handle = (CDC_HandleTypeDef *) phost->pActiveClass->pData;
 312:./Libraries/STM32_USB_Host_Library/Class/CDC/Src/usbh_cdc.c **** 
 313:./Libraries/STM32_USB_Host_Library/Class/CDC/Src/usbh_cdc.c ****   /* Issue the get line coding request */
 314:./Libraries/STM32_USB_Host_Library/Class/CDC/Src/usbh_cdc.c ****   status = GetLineCoding(phost, &CDC_Handle->LineCoding);
 315:./Libraries/STM32_USB_Host_Library/Class/CDC/Src/usbh_cdc.c ****   if (status == USBH_OK)
ARM GAS  /tmp/ccJoeMU3.s 			page 7


 316:./Libraries/STM32_USB_Host_Library/Class/CDC/Src/usbh_cdc.c ****   {
 317:./Libraries/STM32_USB_Host_Library/Class/CDC/Src/usbh_cdc.c ****     phost->pUser(phost, HOST_USER_CLASS_ACTIVE);
 318:./Libraries/STM32_USB_Host_Library/Class/CDC/Src/usbh_cdc.c ****   }
 319:./Libraries/STM32_USB_Host_Library/Class/CDC/Src/usbh_cdc.c ****   else if (status == USBH_NOT_SUPPORTED)
 320:./Libraries/STM32_USB_Host_Library/Class/CDC/Src/usbh_cdc.c ****   {
 321:./Libraries/STM32_USB_Host_Library/Class/CDC/Src/usbh_cdc.c ****     USBH_ErrLog("Control error: CDC: Device Get Line Coding configuration failed");
 322:./Libraries/STM32_USB_Host_Library/Class/CDC/Src/usbh_cdc.c ****   }
 323:./Libraries/STM32_USB_Host_Library/Class/CDC/Src/usbh_cdc.c ****   else
 324:./Libraries/STM32_USB_Host_Library/Class/CDC/Src/usbh_cdc.c ****   {
 325:./Libraries/STM32_USB_Host_Library/Class/CDC/Src/usbh_cdc.c ****     /* .. */
 326:./Libraries/STM32_USB_Host_Library/Class/CDC/Src/usbh_cdc.c ****   }
 327:./Libraries/STM32_USB_Host_Library/Class/CDC/Src/usbh_cdc.c **** 
 328:./Libraries/STM32_USB_Host_Library/Class/CDC/Src/usbh_cdc.c ****   return status;
 329:./Libraries/STM32_USB_Host_Library/Class/CDC/Src/usbh_cdc.c **** }
 330:./Libraries/STM32_USB_Host_Library/Class/CDC/Src/usbh_cdc.c **** 
 331:./Libraries/STM32_USB_Host_Library/Class/CDC/Src/usbh_cdc.c **** 
 332:./Libraries/STM32_USB_Host_Library/Class/CDC/Src/usbh_cdc.c **** /**
 333:./Libraries/STM32_USB_Host_Library/Class/CDC/Src/usbh_cdc.c ****   * @brief  USBH_CDC_Process
 334:./Libraries/STM32_USB_Host_Library/Class/CDC/Src/usbh_cdc.c ****   *         The function is for managing state machine for CDC data transfers
 335:./Libraries/STM32_USB_Host_Library/Class/CDC/Src/usbh_cdc.c ****   * @param  phost: Host handle
 336:./Libraries/STM32_USB_Host_Library/Class/CDC/Src/usbh_cdc.c ****   * @retval USBH Status
 337:./Libraries/STM32_USB_Host_Library/Class/CDC/Src/usbh_cdc.c ****   */
 338:./Libraries/STM32_USB_Host_Library/Class/CDC/Src/usbh_cdc.c **** static USBH_StatusTypeDef USBH_CDC_Process(USBH_HandleTypeDef *phost)
 339:./Libraries/STM32_USB_Host_Library/Class/CDC/Src/usbh_cdc.c **** {
 340:./Libraries/STM32_USB_Host_Library/Class/CDC/Src/usbh_cdc.c ****   USBH_StatusTypeDef status = USBH_BUSY;
 341:./Libraries/STM32_USB_Host_Library/Class/CDC/Src/usbh_cdc.c ****   USBH_StatusTypeDef req_status = USBH_OK;
 342:./Libraries/STM32_USB_Host_Library/Class/CDC/Src/usbh_cdc.c ****   CDC_HandleTypeDef *CDC_Handle = (CDC_HandleTypeDef *) phost->pActiveClass->pData;
 343:./Libraries/STM32_USB_Host_Library/Class/CDC/Src/usbh_cdc.c **** 
 344:./Libraries/STM32_USB_Host_Library/Class/CDC/Src/usbh_cdc.c ****   switch (CDC_Handle->state)
 345:./Libraries/STM32_USB_Host_Library/Class/CDC/Src/usbh_cdc.c ****   {
 346:./Libraries/STM32_USB_Host_Library/Class/CDC/Src/usbh_cdc.c **** 
 347:./Libraries/STM32_USB_Host_Library/Class/CDC/Src/usbh_cdc.c ****     case CDC_IDLE_STATE:
 348:./Libraries/STM32_USB_Host_Library/Class/CDC/Src/usbh_cdc.c ****       status = USBH_OK;
 349:./Libraries/STM32_USB_Host_Library/Class/CDC/Src/usbh_cdc.c ****       break;
 350:./Libraries/STM32_USB_Host_Library/Class/CDC/Src/usbh_cdc.c **** 
 351:./Libraries/STM32_USB_Host_Library/Class/CDC/Src/usbh_cdc.c ****     case CDC_SET_LINE_CODING_STATE:
 352:./Libraries/STM32_USB_Host_Library/Class/CDC/Src/usbh_cdc.c ****       req_status = SetLineCoding(phost, CDC_Handle->pUserLineCoding);
 353:./Libraries/STM32_USB_Host_Library/Class/CDC/Src/usbh_cdc.c **** 
 354:./Libraries/STM32_USB_Host_Library/Class/CDC/Src/usbh_cdc.c ****       if (req_status == USBH_OK)
 355:./Libraries/STM32_USB_Host_Library/Class/CDC/Src/usbh_cdc.c ****       {
 356:./Libraries/STM32_USB_Host_Library/Class/CDC/Src/usbh_cdc.c ****         CDC_Handle->state = CDC_GET_LAST_LINE_CODING_STATE;
 357:./Libraries/STM32_USB_Host_Library/Class/CDC/Src/usbh_cdc.c ****       }
 358:./Libraries/STM32_USB_Host_Library/Class/CDC/Src/usbh_cdc.c **** 
 359:./Libraries/STM32_USB_Host_Library/Class/CDC/Src/usbh_cdc.c ****       else
 360:./Libraries/STM32_USB_Host_Library/Class/CDC/Src/usbh_cdc.c ****       {
 361:./Libraries/STM32_USB_Host_Library/Class/CDC/Src/usbh_cdc.c ****         if (req_status != USBH_BUSY)
 362:./Libraries/STM32_USB_Host_Library/Class/CDC/Src/usbh_cdc.c ****         {
 363:./Libraries/STM32_USB_Host_Library/Class/CDC/Src/usbh_cdc.c ****           CDC_Handle->state = CDC_ERROR_STATE;
 364:./Libraries/STM32_USB_Host_Library/Class/CDC/Src/usbh_cdc.c ****         }
 365:./Libraries/STM32_USB_Host_Library/Class/CDC/Src/usbh_cdc.c ****       }
 366:./Libraries/STM32_USB_Host_Library/Class/CDC/Src/usbh_cdc.c ****       break;
 367:./Libraries/STM32_USB_Host_Library/Class/CDC/Src/usbh_cdc.c **** 
 368:./Libraries/STM32_USB_Host_Library/Class/CDC/Src/usbh_cdc.c **** 
 369:./Libraries/STM32_USB_Host_Library/Class/CDC/Src/usbh_cdc.c ****     case CDC_GET_LAST_LINE_CODING_STATE:
 370:./Libraries/STM32_USB_Host_Library/Class/CDC/Src/usbh_cdc.c ****       req_status = GetLineCoding(phost, &(CDC_Handle->LineCoding));
 371:./Libraries/STM32_USB_Host_Library/Class/CDC/Src/usbh_cdc.c **** 
 372:./Libraries/STM32_USB_Host_Library/Class/CDC/Src/usbh_cdc.c ****       if (req_status == USBH_OK)
ARM GAS  /tmp/ccJoeMU3.s 			page 8


 373:./Libraries/STM32_USB_Host_Library/Class/CDC/Src/usbh_cdc.c ****       {
 374:./Libraries/STM32_USB_Host_Library/Class/CDC/Src/usbh_cdc.c ****         CDC_Handle->state = CDC_IDLE_STATE;
 375:./Libraries/STM32_USB_Host_Library/Class/CDC/Src/usbh_cdc.c **** 
 376:./Libraries/STM32_USB_Host_Library/Class/CDC/Src/usbh_cdc.c ****         if ((CDC_Handle->LineCoding.b.bCharFormat == CDC_Handle->pUserLineCoding->b.bCharFormat) &&
 377:./Libraries/STM32_USB_Host_Library/Class/CDC/Src/usbh_cdc.c ****             (CDC_Handle->LineCoding.b.bDataBits == CDC_Handle->pUserLineCoding->b.bDataBits) &&
 378:./Libraries/STM32_USB_Host_Library/Class/CDC/Src/usbh_cdc.c ****             (CDC_Handle->LineCoding.b.bParityType == CDC_Handle->pUserLineCoding->b.bParityType) &&
 379:./Libraries/STM32_USB_Host_Library/Class/CDC/Src/usbh_cdc.c ****             (CDC_Handle->LineCoding.b.dwDTERate == CDC_Handle->pUserLineCoding->b.dwDTERate))
 380:./Libraries/STM32_USB_Host_Library/Class/CDC/Src/usbh_cdc.c ****         {
 381:./Libraries/STM32_USB_Host_Library/Class/CDC/Src/usbh_cdc.c ****           USBH_CDC_LineCodingChanged(phost);
 382:./Libraries/STM32_USB_Host_Library/Class/CDC/Src/usbh_cdc.c ****         }
 383:./Libraries/STM32_USB_Host_Library/Class/CDC/Src/usbh_cdc.c ****       }
 384:./Libraries/STM32_USB_Host_Library/Class/CDC/Src/usbh_cdc.c ****       else
 385:./Libraries/STM32_USB_Host_Library/Class/CDC/Src/usbh_cdc.c ****       {
 386:./Libraries/STM32_USB_Host_Library/Class/CDC/Src/usbh_cdc.c ****         if (req_status != USBH_BUSY)
 387:./Libraries/STM32_USB_Host_Library/Class/CDC/Src/usbh_cdc.c ****         {
 388:./Libraries/STM32_USB_Host_Library/Class/CDC/Src/usbh_cdc.c ****           CDC_Handle->state = CDC_ERROR_STATE;
 389:./Libraries/STM32_USB_Host_Library/Class/CDC/Src/usbh_cdc.c ****         }
 390:./Libraries/STM32_USB_Host_Library/Class/CDC/Src/usbh_cdc.c ****       }
 391:./Libraries/STM32_USB_Host_Library/Class/CDC/Src/usbh_cdc.c ****       break;
 392:./Libraries/STM32_USB_Host_Library/Class/CDC/Src/usbh_cdc.c **** 
 393:./Libraries/STM32_USB_Host_Library/Class/CDC/Src/usbh_cdc.c ****     case CDC_TRANSFER_DATA:
 394:./Libraries/STM32_USB_Host_Library/Class/CDC/Src/usbh_cdc.c ****       CDC_ProcessTransmission(phost);
 395:./Libraries/STM32_USB_Host_Library/Class/CDC/Src/usbh_cdc.c ****       CDC_ProcessReception(phost);
 396:./Libraries/STM32_USB_Host_Library/Class/CDC/Src/usbh_cdc.c ****       break;
 397:./Libraries/STM32_USB_Host_Library/Class/CDC/Src/usbh_cdc.c **** 
 398:./Libraries/STM32_USB_Host_Library/Class/CDC/Src/usbh_cdc.c ****     case CDC_ERROR_STATE:
 399:./Libraries/STM32_USB_Host_Library/Class/CDC/Src/usbh_cdc.c ****       req_status = USBH_ClrFeature(phost, 0x00U);
 400:./Libraries/STM32_USB_Host_Library/Class/CDC/Src/usbh_cdc.c **** 
 401:./Libraries/STM32_USB_Host_Library/Class/CDC/Src/usbh_cdc.c ****       if (req_status == USBH_OK)
 402:./Libraries/STM32_USB_Host_Library/Class/CDC/Src/usbh_cdc.c ****       {
 403:./Libraries/STM32_USB_Host_Library/Class/CDC/Src/usbh_cdc.c ****         /*Change the state to waiting*/
 404:./Libraries/STM32_USB_Host_Library/Class/CDC/Src/usbh_cdc.c ****         CDC_Handle->state = CDC_IDLE_STATE;
 405:./Libraries/STM32_USB_Host_Library/Class/CDC/Src/usbh_cdc.c ****       }
 406:./Libraries/STM32_USB_Host_Library/Class/CDC/Src/usbh_cdc.c ****       break;
 407:./Libraries/STM32_USB_Host_Library/Class/CDC/Src/usbh_cdc.c **** 
 408:./Libraries/STM32_USB_Host_Library/Class/CDC/Src/usbh_cdc.c ****     default:
 409:./Libraries/STM32_USB_Host_Library/Class/CDC/Src/usbh_cdc.c ****       break;
 410:./Libraries/STM32_USB_Host_Library/Class/CDC/Src/usbh_cdc.c **** 
 411:./Libraries/STM32_USB_Host_Library/Class/CDC/Src/usbh_cdc.c ****   }
 412:./Libraries/STM32_USB_Host_Library/Class/CDC/Src/usbh_cdc.c **** 
 413:./Libraries/STM32_USB_Host_Library/Class/CDC/Src/usbh_cdc.c ****   return status;
 414:./Libraries/STM32_USB_Host_Library/Class/CDC/Src/usbh_cdc.c **** }
 415:./Libraries/STM32_USB_Host_Library/Class/CDC/Src/usbh_cdc.c **** 
 416:./Libraries/STM32_USB_Host_Library/Class/CDC/Src/usbh_cdc.c **** /**
 417:./Libraries/STM32_USB_Host_Library/Class/CDC/Src/usbh_cdc.c ****   * @brief  USBH_CDC_SOFProcess
 418:./Libraries/STM32_USB_Host_Library/Class/CDC/Src/usbh_cdc.c ****   *         The function is for managing SOF callback
 419:./Libraries/STM32_USB_Host_Library/Class/CDC/Src/usbh_cdc.c ****   * @param  phost: Host handle
 420:./Libraries/STM32_USB_Host_Library/Class/CDC/Src/usbh_cdc.c ****   * @retval USBH Status
 421:./Libraries/STM32_USB_Host_Library/Class/CDC/Src/usbh_cdc.c ****   */
 422:./Libraries/STM32_USB_Host_Library/Class/CDC/Src/usbh_cdc.c **** static USBH_StatusTypeDef USBH_CDC_SOFProcess(USBH_HandleTypeDef *phost)
 423:./Libraries/STM32_USB_Host_Library/Class/CDC/Src/usbh_cdc.c **** {
  29              		.loc 1 423 1 view -0
  30              		.cfi_startproc
  31              		@ args = 0, pretend = 0, frame = 0
  32              		@ frame_needed = 0, uses_anonymous_args = 0
  33              		@ link register save eliminated.
 424:./Libraries/STM32_USB_Host_Library/Class/CDC/Src/usbh_cdc.c ****   /* Prevent unused argument(s) compilation warning */
ARM GAS  /tmp/ccJoeMU3.s 			page 9


 425:./Libraries/STM32_USB_Host_Library/Class/CDC/Src/usbh_cdc.c ****   UNUSED(phost);
  34              		.loc 1 425 3 view .LVU1
 426:./Libraries/STM32_USB_Host_Library/Class/CDC/Src/usbh_cdc.c **** 
 427:./Libraries/STM32_USB_Host_Library/Class/CDC/Src/usbh_cdc.c ****   return USBH_OK;
  35              		.loc 1 427 3 view .LVU2
 428:./Libraries/STM32_USB_Host_Library/Class/CDC/Src/usbh_cdc.c **** }
  36              		.loc 1 428 1 is_stmt 0 view .LVU3
  37 0000 0020     		movs	r0, #0
  38              	.LVL1:
  39              		.loc 1 428 1 view .LVU4
  40 0002 7047     		bx	lr
  41              		.cfi_endproc
  42              	.LFE342:
  44              		.section	.text.USBH_CDC_InterfaceDeInit,"ax",%progbits
  45              		.align	1
  46              		.p2align 2,,3
  47              		.syntax unified
  48              		.thumb
  49              		.thumb_func
  50              		.fpu fpv5-d16
  52              	USBH_CDC_InterfaceDeInit:
  53              	.LVL2:
  54              	.LFB339:
 268:./Libraries/STM32_USB_Host_Library/Class/CDC/Src/usbh_cdc.c ****   CDC_HandleTypeDef *CDC_Handle = (CDC_HandleTypeDef *) phost->pActiveClass->pData;
  55              		.loc 1 268 1 is_stmt 1 view -0
  56              		.cfi_startproc
  57              		@ args = 0, pretend = 0, frame = 0
  58              		@ frame_needed = 0, uses_anonymous_args = 0
 269:./Libraries/STM32_USB_Host_Library/Class/CDC/Src/usbh_cdc.c **** 
  59              		.loc 1 269 3 view .LVU6
 268:./Libraries/STM32_USB_Host_Library/Class/CDC/Src/usbh_cdc.c ****   CDC_HandleTypeDef *CDC_Handle = (CDC_HandleTypeDef *) phost->pActiveClass->pData;
  60              		.loc 1 268 1 is_stmt 0 view .LVU7
  61 0000 38B5     		push	{r3, r4, r5, lr}
  62              	.LCFI0:
  63              		.cfi_def_cfa_offset 16
  64              		.cfi_offset 3, -16
  65              		.cfi_offset 4, -12
  66              		.cfi_offset 5, -8
  67              		.cfi_offset 14, -4
 269:./Libraries/STM32_USB_Host_Library/Class/CDC/Src/usbh_cdc.c **** 
  68              		.loc 1 269 22 view .LVU8
  69 0002 D0F87C34 		ldr	r3, [r0, #1148]
 268:./Libraries/STM32_USB_Host_Library/Class/CDC/Src/usbh_cdc.c ****   CDC_HandleTypeDef *CDC_Handle = (CDC_HandleTypeDef *) phost->pActiveClass->pData;
  70              		.loc 1 268 1 view .LVU9
  71 0006 0446     		mov	r4, r0
 269:./Libraries/STM32_USB_Host_Library/Class/CDC/Src/usbh_cdc.c **** 
  72              		.loc 1 269 22 view .LVU10
  73 0008 DD69     		ldr	r5, [r3, #28]
  74              	.LVL3:
 271:./Libraries/STM32_USB_Host_Library/Class/CDC/Src/usbh_cdc.c ****   {
  75              		.loc 1 271 3 is_stmt 1 view .LVU11
 271:./Libraries/STM32_USB_Host_Library/Class/CDC/Src/usbh_cdc.c ****   {
  76              		.loc 1 271 26 is_stmt 0 view .LVU12
  77 000a 2978     		ldrb	r1, [r5]	@ zero_extendqisi2
 271:./Libraries/STM32_USB_Host_Library/Class/CDC/Src/usbh_cdc.c ****   {
  78              		.loc 1 271 6 view .LVU13
  79 000c 79B9     		cbnz	r1, .L21
ARM GAS  /tmp/ccJoeMU3.s 			page 10


 278:./Libraries/STM32_USB_Host_Library/Class/CDC/Src/usbh_cdc.c ****   {
  80              		.loc 1 278 3 is_stmt 1 view .LVU14
 278:./Libraries/STM32_USB_Host_Library/Class/CDC/Src/usbh_cdc.c ****   {
  81              		.loc 1 278 26 is_stmt 0 view .LVU15
  82 000e 297B     		ldrb	r1, [r5, #12]	@ zero_extendqisi2
 278:./Libraries/STM32_USB_Host_Library/Class/CDC/Src/usbh_cdc.c ****   {
  83              		.loc 1 278 6 view .LVU16
  84 0010 C1B9     		cbnz	r1, .L22
  85              	.LVL4:
  86              	.L5:
 285:./Libraries/STM32_USB_Host_Library/Class/CDC/Src/usbh_cdc.c ****   {
  87              		.loc 1 285 3 is_stmt 1 view .LVU17
 285:./Libraries/STM32_USB_Host_Library/Class/CDC/Src/usbh_cdc.c ****   {
  88              		.loc 1 285 26 is_stmt 0 view .LVU18
  89 0012 697B     		ldrb	r1, [r5, #13]	@ zero_extendqisi2
 285:./Libraries/STM32_USB_Host_Library/Class/CDC/Src/usbh_cdc.c ****   {
  90              		.loc 1 285 6 view .LVU19
  91 0014 11BB     		cbnz	r1, .L23
  92              	.L6:
 292:./Libraries/STM32_USB_Host_Library/Class/CDC/Src/usbh_cdc.c ****   {
  93              		.loc 1 292 3 is_stmt 1 view .LVU20
 292:./Libraries/STM32_USB_Host_Library/Class/CDC/Src/usbh_cdc.c ****   {
  94              		.loc 1 292 26 is_stmt 0 view .LVU21
  95 0016 D4F87C34 		ldr	r3, [r4, #1148]
  96 001a D869     		ldr	r0, [r3, #28]
 292:./Libraries/STM32_USB_Host_Library/Class/CDC/Src/usbh_cdc.c ****   {
  97              		.loc 1 292 6 view .LVU22
  98 001c 28B1     		cbz	r0, .L7
 294:./Libraries/STM32_USB_Host_Library/Class/CDC/Src/usbh_cdc.c ****     phost->pActiveClass->pData = 0U;
  99              		.loc 1 294 5 is_stmt 1 view .LVU23
 100 001e FFF7FEFF 		bl	vPortFree
 101              	.LVL5:
 295:./Libraries/STM32_USB_Host_Library/Class/CDC/Src/usbh_cdc.c ****   }
 102              		.loc 1 295 5 view .LVU24
 295:./Libraries/STM32_USB_Host_Library/Class/CDC/Src/usbh_cdc.c ****   }
 103              		.loc 1 295 32 is_stmt 0 view .LVU25
 104 0022 D4F87C34 		ldr	r3, [r4, #1148]
 105 0026 0022     		movs	r2, #0
 106 0028 DA61     		str	r2, [r3, #28]
 107              	.L7:
 298:./Libraries/STM32_USB_Host_Library/Class/CDC/Src/usbh_cdc.c **** }
 108              		.loc 1 298 3 is_stmt 1 view .LVU26
 299:./Libraries/STM32_USB_Host_Library/Class/CDC/Src/usbh_cdc.c **** 
 109              		.loc 1 299 1 is_stmt 0 view .LVU27
 110 002a 0020     		movs	r0, #0
 111 002c 38BD     		pop	{r3, r4, r5, pc}
 112              	.LVL6:
 113              	.L21:
 273:./Libraries/STM32_USB_Host_Library/Class/CDC/Src/usbh_cdc.c ****     USBH_FreePipe(phost, CDC_Handle->CommItf.NotifPipe);
 114              		.loc 1 273 5 is_stmt 1 view .LVU28
 115 002e FFF7FEFF 		bl	USBH_ClosePipe
 116              	.LVL7:
 274:./Libraries/STM32_USB_Host_Library/Class/CDC/Src/usbh_cdc.c ****     CDC_Handle->CommItf.NotifPipe = 0U;     /* Reset the Channel as Free */
 117              		.loc 1 274 5 view .LVU29
 118 0032 2978     		ldrb	r1, [r5]	@ zero_extendqisi2
 119 0034 2046     		mov	r0, r4
 120 0036 FFF7FEFF 		bl	USBH_FreePipe
ARM GAS  /tmp/ccJoeMU3.s 			page 11


 121              	.LVL8:
 275:./Libraries/STM32_USB_Host_Library/Class/CDC/Src/usbh_cdc.c ****   }
 122              		.loc 1 275 5 view .LVU30
 275:./Libraries/STM32_USB_Host_Library/Class/CDC/Src/usbh_cdc.c ****   }
 123              		.loc 1 275 35 is_stmt 0 view .LVU31
 124 003a 0023     		movs	r3, #0
 278:./Libraries/STM32_USB_Host_Library/Class/CDC/Src/usbh_cdc.c ****   {
 125              		.loc 1 278 26 view .LVU32
 126 003c 297B     		ldrb	r1, [r5, #12]	@ zero_extendqisi2
 275:./Libraries/STM32_USB_Host_Library/Class/CDC/Src/usbh_cdc.c ****   }
 127              		.loc 1 275 35 view .LVU33
 128 003e 2B70     		strb	r3, [r5]
 278:./Libraries/STM32_USB_Host_Library/Class/CDC/Src/usbh_cdc.c ****   {
 129              		.loc 1 278 3 is_stmt 1 view .LVU34
 278:./Libraries/STM32_USB_Host_Library/Class/CDC/Src/usbh_cdc.c ****   {
 130              		.loc 1 278 6 is_stmt 0 view .LVU35
 131 0040 0029     		cmp	r1, #0
 132 0042 E6D0     		beq	.L5
 133              	.L22:
 280:./Libraries/STM32_USB_Host_Library/Class/CDC/Src/usbh_cdc.c ****     USBH_FreePipe(phost, CDC_Handle->DataItf.InPipe);
 134              		.loc 1 280 5 is_stmt 1 view .LVU36
 135 0044 2046     		mov	r0, r4
 136 0046 FFF7FEFF 		bl	USBH_ClosePipe
 137              	.LVL9:
 281:./Libraries/STM32_USB_Host_Library/Class/CDC/Src/usbh_cdc.c ****     CDC_Handle->DataItf.InPipe = 0U;     /* Reset the Channel as Free */
 138              		.loc 1 281 5 view .LVU37
 139 004a 297B     		ldrb	r1, [r5, #12]	@ zero_extendqisi2
 140 004c 2046     		mov	r0, r4
 141 004e FFF7FEFF 		bl	USBH_FreePipe
 142              	.LVL10:
 282:./Libraries/STM32_USB_Host_Library/Class/CDC/Src/usbh_cdc.c ****   }
 143              		.loc 1 282 5 view .LVU38
 282:./Libraries/STM32_USB_Host_Library/Class/CDC/Src/usbh_cdc.c ****   }
 144              		.loc 1 282 32 is_stmt 0 view .LVU39
 145 0052 0023     		movs	r3, #0
 285:./Libraries/STM32_USB_Host_Library/Class/CDC/Src/usbh_cdc.c ****   {
 146              		.loc 1 285 26 view .LVU40
 147 0054 697B     		ldrb	r1, [r5, #13]	@ zero_extendqisi2
 282:./Libraries/STM32_USB_Host_Library/Class/CDC/Src/usbh_cdc.c ****   }
 148              		.loc 1 282 32 view .LVU41
 149 0056 2B73     		strb	r3, [r5, #12]
 285:./Libraries/STM32_USB_Host_Library/Class/CDC/Src/usbh_cdc.c ****   {
 150              		.loc 1 285 3 is_stmt 1 view .LVU42
 285:./Libraries/STM32_USB_Host_Library/Class/CDC/Src/usbh_cdc.c ****   {
 151              		.loc 1 285 6 is_stmt 0 view .LVU43
 152 0058 0029     		cmp	r1, #0
 153 005a DCD0     		beq	.L6
 154              	.L23:
 287:./Libraries/STM32_USB_Host_Library/Class/CDC/Src/usbh_cdc.c ****     USBH_FreePipe(phost, CDC_Handle->DataItf.OutPipe);
 155              		.loc 1 287 5 is_stmt 1 view .LVU44
 156 005c 2046     		mov	r0, r4
 157 005e FFF7FEFF 		bl	USBH_ClosePipe
 158              	.LVL11:
 288:./Libraries/STM32_USB_Host_Library/Class/CDC/Src/usbh_cdc.c ****     CDC_Handle->DataItf.OutPipe = 0U;    /* Reset the Channel as Free */
 159              		.loc 1 288 5 view .LVU45
 160 0062 697B     		ldrb	r1, [r5, #13]	@ zero_extendqisi2
 161 0064 2046     		mov	r0, r4
ARM GAS  /tmp/ccJoeMU3.s 			page 12


 162 0066 FFF7FEFF 		bl	USBH_FreePipe
 163              	.LVL12:
 289:./Libraries/STM32_USB_Host_Library/Class/CDC/Src/usbh_cdc.c ****   }
 164              		.loc 1 289 5 view .LVU46
 289:./Libraries/STM32_USB_Host_Library/Class/CDC/Src/usbh_cdc.c ****   }
 165              		.loc 1 289 33 is_stmt 0 view .LVU47
 166 006a 0023     		movs	r3, #0
 167 006c 6B73     		strb	r3, [r5, #13]
 168 006e D2E7     		b	.L6
 169              		.cfi_endproc
 170              	.LFE339:
 172              		.section	.text.USBH_CDC_InterfaceInit,"ax",%progbits
 173              		.align	1
 174              		.p2align 2,,3
 175              		.syntax unified
 176              		.thumb
 177              		.thumb_func
 178              		.fpu fpv5-d16
 180              	USBH_CDC_InterfaceInit:
 181              	.LVL13:
 182              	.LFB338:
 152:./Libraries/STM32_USB_Host_Library/Class/CDC/Src/usbh_cdc.c **** 
 183              		.loc 1 152 1 is_stmt 1 view -0
 184              		.cfi_startproc
 185              		@ args = 0, pretend = 0, frame = 0
 186              		@ frame_needed = 0, uses_anonymous_args = 0
 154:./Libraries/STM32_USB_Host_Library/Class/CDC/Src/usbh_cdc.c ****   uint8_t interface;
 187              		.loc 1 154 3 view .LVU49
 155:./Libraries/STM32_USB_Host_Library/Class/CDC/Src/usbh_cdc.c ****   CDC_HandleTypeDef *CDC_Handle;
 188              		.loc 1 155 3 view .LVU50
 156:./Libraries/STM32_USB_Host_Library/Class/CDC/Src/usbh_cdc.c **** 
 189              		.loc 1 156 3 view .LVU51
 158:./Libraries/STM32_USB_Host_Library/Class/CDC/Src/usbh_cdc.c ****                                  ABSTRACT_CONTROL_MODEL, COMMON_AT_COMMAND);
 190              		.loc 1 158 3 view .LVU52
 158:./Libraries/STM32_USB_Host_Library/Class/CDC/Src/usbh_cdc.c ****                                  ABSTRACT_CONTROL_MODEL, COMMON_AT_COMMAND);
 191              		.loc 1 158 15 is_stmt 0 view .LVU53
 192 0000 0222     		movs	r2, #2
 193 0002 0123     		movs	r3, #1
 152:./Libraries/STM32_USB_Host_Library/Class/CDC/Src/usbh_cdc.c **** 
 194              		.loc 1 152 1 view .LVU54
 195 0004 2DE9F041 		push	{r4, r5, r6, r7, r8, lr}
 196              	.LCFI1:
 197              		.cfi_def_cfa_offset 24
 198              		.cfi_offset 4, -24
 199              		.cfi_offset 5, -20
 200              		.cfi_offset 6, -16
 201              		.cfi_offset 7, -12
 202              		.cfi_offset 8, -8
 203              		.cfi_offset 14, -4
 158:./Libraries/STM32_USB_Host_Library/Class/CDC/Src/usbh_cdc.c ****                                  ABSTRACT_CONTROL_MODEL, COMMON_AT_COMMAND);
 204              		.loc 1 158 15 view .LVU55
 205 0008 1146     		mov	r1, r2
 152:./Libraries/STM32_USB_Host_Library/Class/CDC/Src/usbh_cdc.c **** 
 206              		.loc 1 152 1 view .LVU56
 207 000a 84B0     		sub	sp, sp, #16
 208              	.LCFI2:
 209              		.cfi_def_cfa_offset 40
ARM GAS  /tmp/ccJoeMU3.s 			page 13


 152:./Libraries/STM32_USB_Host_Library/Class/CDC/Src/usbh_cdc.c **** 
 210              		.loc 1 152 1 view .LVU57
 211 000c 0446     		mov	r4, r0
 158:./Libraries/STM32_USB_Host_Library/Class/CDC/Src/usbh_cdc.c ****                                  ABSTRACT_CONTROL_MODEL, COMMON_AT_COMMAND);
 212              		.loc 1 158 15 view .LVU58
 213 000e FFF7FEFF 		bl	USBH_FindInterface
 214              	.LVL14:
 161:./Libraries/STM32_USB_Host_Library/Class/CDC/Src/usbh_cdc.c ****   {
 215              		.loc 1 161 3 is_stmt 1 view .LVU59
 161:./Libraries/STM32_USB_Host_Library/Class/CDC/Src/usbh_cdc.c ****   {
 216              		.loc 1 161 6 is_stmt 0 view .LVU60
 217 0012 0128     		cmp	r0, #1
 218 0014 00F29B80 		bhi	.L27
 167:./Libraries/STM32_USB_Host_Library/Class/CDC/Src/usbh_cdc.c **** 
 219              		.loc 1 167 3 is_stmt 1 view .LVU61
 167:./Libraries/STM32_USB_Host_Library/Class/CDC/Src/usbh_cdc.c **** 
 220              		.loc 1 167 12 is_stmt 0 view .LVU62
 221 0018 0146     		mov	r1, r0
 222 001a 0546     		mov	r5, r0
 223 001c 2046     		mov	r0, r4
 224              	.LVL15:
 167:./Libraries/STM32_USB_Host_Library/Class/CDC/Src/usbh_cdc.c **** 
 225              		.loc 1 167 12 view .LVU63
 226 001e FFF7FEFF 		bl	USBH_SelectInterface
 227              	.LVL16:
 169:./Libraries/STM32_USB_Host_Library/Class/CDC/Src/usbh_cdc.c ****   {
 228              		.loc 1 169 3 is_stmt 1 view .LVU64
 169:./Libraries/STM32_USB_Host_Library/Class/CDC/Src/usbh_cdc.c ****   {
 229              		.loc 1 169 6 is_stmt 0 view .LVU65
 230 0022 0746     		mov	r7, r0
 231 0024 0028     		cmp	r0, #0
 232 0026 40F09280 		bne	.L27
 174:./Libraries/STM32_USB_Host_Library/Class/CDC/Src/usbh_cdc.c ****   CDC_Handle = (CDC_HandleTypeDef *) phost->pActiveClass->pData;
 233              		.loc 1 174 3 is_stmt 1 view .LVU66
 174:./Libraries/STM32_USB_Host_Library/Class/CDC/Src/usbh_cdc.c ****   CDC_Handle = (CDC_HandleTypeDef *) phost->pActiveClass->pData;
 234              		.loc 1 174 53 is_stmt 0 view .LVU67
 235 002a 5020     		movs	r0, #80
 236              	.LVL17:
 174:./Libraries/STM32_USB_Host_Library/Class/CDC/Src/usbh_cdc.c ****   CDC_Handle = (CDC_HandleTypeDef *) phost->pActiveClass->pData;
 237              		.loc 1 174 8 view .LVU68
 238 002c D4F87C64 		ldr	r6, [r4, #1148]
 174:./Libraries/STM32_USB_Host_Library/Class/CDC/Src/usbh_cdc.c ****   CDC_Handle = (CDC_HandleTypeDef *) phost->pActiveClass->pData;
 239              		.loc 1 174 53 view .LVU69
 240 0030 FFF7FEFF 		bl	pvPortMalloc
 241              	.LVL18:
 175:./Libraries/STM32_USB_Host_Library/Class/CDC/Src/usbh_cdc.c **** 
 242              		.loc 1 175 14 view .LVU70
 243 0034 D4F87C34 		ldr	r3, [r4, #1148]
 174:./Libraries/STM32_USB_Host_Library/Class/CDC/Src/usbh_cdc.c ****   CDC_Handle = (CDC_HandleTypeDef *) phost->pActiveClass->pData;
 244              		.loc 1 174 30 view .LVU71
 245 0038 F061     		str	r0, [r6, #28]
 175:./Libraries/STM32_USB_Host_Library/Class/CDC/Src/usbh_cdc.c **** 
 246              		.loc 1 175 3 is_stmt 1 view .LVU72
 175:./Libraries/STM32_USB_Host_Library/Class/CDC/Src/usbh_cdc.c **** 
 247              		.loc 1 175 14 is_stmt 0 view .LVU73
 248 003a DE69     		ldr	r6, [r3, #28]
 249              	.LVL19:
ARM GAS  /tmp/ccJoeMU3.s 			page 14


 177:./Libraries/STM32_USB_Host_Library/Class/CDC/Src/usbh_cdc.c ****   {
 250              		.loc 1 177 3 is_stmt 1 view .LVU74
 177:./Libraries/STM32_USB_Host_Library/Class/CDC/Src/usbh_cdc.c ****   {
 251              		.loc 1 177 6 is_stmt 0 view .LVU75
 252 003c 002E     		cmp	r6, #0
 253 003e 00F08680 		beq	.L27
 184:./Libraries/STM32_USB_Host_Library/Class/CDC/Src/usbh_cdc.c **** 
 254              		.loc 1 184 3 is_stmt 1 view .LVU76
 255 0042 3946     		mov	r1, r7
 256 0044 5022     		movs	r2, #80
 257 0046 3046     		mov	r0, r6
 258 0048 FFF7FEFF 		bl	memset
 259              	.LVL20:
 187:./Libraries/STM32_USB_Host_Library/Class/CDC/Src/usbh_cdc.c ****   {
 260              		.loc 1 187 3 view .LVU77
 187:./Libraries/STM32_USB_Host_Library/Class/CDC/Src/usbh_cdc.c ****   {
 261              		.loc 1 187 59 is_stmt 0 view .LVU78
 262 004c 1A20     		movs	r0, #26
 263 004e 00FB0545 		mla	r5, r0, r5, r4
 187:./Libraries/STM32_USB_Host_Library/Class/CDC/Src/usbh_cdc.c ****   {
 264              		.loc 1 187 6 view .LVU79
 265 0052 95F94E34 		ldrsb	r3, [r5, #1102]
 187:./Libraries/STM32_USB_Host_Library/Class/CDC/Src/usbh_cdc.c ****   {
 266              		.loc 1 187 59 view .LVU80
 267 0056 95F84E14 		ldrb	r1, [r5, #1102]	@ zero_extendqisi2
 187:./Libraries/STM32_USB_Host_Library/Class/CDC/Src/usbh_cdc.c ****   {
 268              		.loc 1 187 6 view .LVU81
 269 005a 002B     		cmp	r3, #0
 270 005c 7CDB     		blt	.L38
 271 005e 3946     		mov	r1, r7
 272              	.L28:
 194:./Libraries/STM32_USB_Host_Library/Class/CDC/Src/usbh_cdc.c **** 
 273              		.loc 1 194 3 is_stmt 1 view .LVU82
 194:./Libraries/STM32_USB_Host_Library/Class/CDC/Src/usbh_cdc.c **** 
 274              		.loc 1 194 35 is_stmt 0 view .LVU83
 275 0060 2046     		mov	r0, r4
 197:./Libraries/STM32_USB_Host_Library/Class/CDC/Src/usbh_cdc.c ****                 phost->device.address, phost->device.speed, USB_EP_TYPE_INTR,
 276              		.loc 1 197 3 view .LVU84
 277 0062 0325     		movs	r5, #3
 194:./Libraries/STM32_USB_Host_Library/Class/CDC/Src/usbh_cdc.c **** 
 278              		.loc 1 194 35 view .LVU85
 279 0064 FFF7FEFF 		bl	USBH_AllocPipe
 280              	.LVL21:
 197:./Libraries/STM32_USB_Host_Library/Class/CDC/Src/usbh_cdc.c ****                 phost->device.address, phost->device.speed, USB_EP_TYPE_INTR,
 281              		.loc 1 197 3 view .LVU86
 282 0068 B6F80AC0 		ldrh	ip, [r6, #10]
 194:./Libraries/STM32_USB_Host_Library/Class/CDC/Src/usbh_cdc.c **** 
 283              		.loc 1 194 33 view .LVU87
 284 006c 3070     		strb	r0, [r6]
 197:./Libraries/STM32_USB_Host_Library/Class/CDC/Src/usbh_cdc.c ****                 phost->device.address, phost->device.speed, USB_EP_TYPE_INTR,
 285              		.loc 1 197 3 is_stmt 1 view .LVU88
 194:./Libraries/STM32_USB_Host_Library/Class/CDC/Src/usbh_cdc.c **** 
 286              		.loc 1 194 35 is_stmt 0 view .LVU89
 287 006e 0146     		mov	r1, r0
 197:./Libraries/STM32_USB_Host_Library/Class/CDC/Src/usbh_cdc.c ****                 phost->device.address, phost->device.speed, USB_EP_TYPE_INTR,
 288              		.loc 1 197 3 view .LVU90
 289 0070 94F81D34 		ldrb	r3, [r4, #1053]	@ zero_extendqisi2
ARM GAS  /tmp/ccJoeMU3.s 			page 15


 290 0074 2046     		mov	r0, r4
 291 0076 7278     		ldrb	r2, [r6, #1]	@ zero_extendqisi2
 292 0078 CDF808C0 		str	ip, [sp, #8]
 293 007c 0093     		str	r3, [sp]
 294 007e 94F81C34 		ldrb	r3, [r4, #1052]	@ zero_extendqisi2
 295 0082 0195     		str	r5, [sp, #4]
 296 0084 FFF7FEFF 		bl	USBH_OpenPipe
 297              	.LVL22:
 201:./Libraries/STM32_USB_Host_Library/Class/CDC/Src/usbh_cdc.c **** 
 298              		.loc 1 201 3 is_stmt 1 view .LVU91
 299 0088 0022     		movs	r2, #0
 300 008a 3178     		ldrb	r1, [r6]	@ zero_extendqisi2
 301 008c 2046     		mov	r0, r4
 302 008e FFF7FEFF 		bl	USBH_LL_SetToggle
 303              	.LVL23:
 203:./Libraries/STM32_USB_Host_Library/Class/CDC/Src/usbh_cdc.c ****                                  RESERVED, NO_CLASS_SPECIFIC_PROTOCOL_CODE);
 304              		.loc 1 203 3 view .LVU92
 203:./Libraries/STM32_USB_Host_Library/Class/CDC/Src/usbh_cdc.c ****                                  RESERVED, NO_CLASS_SPECIFIC_PROTOCOL_CODE);
 305              		.loc 1 203 15 is_stmt 0 view .LVU93
 306 0092 0023     		movs	r3, #0
 307 0094 0A21     		movs	r1, #10
 308 0096 2046     		mov	r0, r4
 309 0098 1A46     		mov	r2, r3
 310 009a FFF7FEFF 		bl	USBH_FindInterface
 311              	.LVL24:
 206:./Libraries/STM32_USB_Host_Library/Class/CDC/Src/usbh_cdc.c ****   {
 312              		.loc 1 206 3 is_stmt 1 view .LVU94
 206:./Libraries/STM32_USB_Host_Library/Class/CDC/Src/usbh_cdc.c ****   {
 313              		.loc 1 206 6 is_stmt 0 view .LVU95
 314 009e 0128     		cmp	r0, #1
 315 00a0 55D8     		bhi	.L27
 213:./Libraries/STM32_USB_Host_Library/Class/CDC/Src/usbh_cdc.c ****   {
 316              		.loc 1 213 3 is_stmt 1 view .LVU96
 213:./Libraries/STM32_USB_Host_Library/Class/CDC/Src/usbh_cdc.c ****   {
 317              		.loc 1 213 59 is_stmt 0 view .LVU97
 318 00a2 1A23     		movs	r3, #26
 319 00a4 03FB0043 		mla	r3, r3, r0, r4
 213:./Libraries/STM32_USB_Host_Library/Class/CDC/Src/usbh_cdc.c ****   {
 320              		.loc 1 213 6 view .LVU98
 321 00a8 93F94E14 		ldrsb	r1, [r3, #1102]
 213:./Libraries/STM32_USB_Host_Library/Class/CDC/Src/usbh_cdc.c ****   {
 322              		.loc 1 213 59 view .LVU99
 323 00ac 93F84E24 		ldrb	r2, [r3, #1102]	@ zero_extendqisi2
 213:./Libraries/STM32_USB_Host_Library/Class/CDC/Src/usbh_cdc.c ****   {
 324              		.loc 1 213 6 view .LVU100
 325 00b0 0029     		cmp	r1, #0
 326 00b2 5CDB     		blt	.L39
 220:./Libraries/STM32_USB_Host_Library/Class/CDC/Src/usbh_cdc.c ****     CDC_Handle->DataItf.OutEpSize  = phost->device.CfgDesc.Itf_Desc[interface].Ep_Desc[0].wMaxPacke
 327              		.loc 1 220 5 is_stmt 1 view .LVU101
 220:./Libraries/STM32_USB_Host_Library/Class/CDC/Src/usbh_cdc.c ****     CDC_Handle->DataItf.OutEpSize  = phost->device.CfgDesc.Itf_Desc[interface].Ep_Desc[0].wMaxPacke
 328              		.loc 1 220 31 is_stmt 0 view .LVU102
 329 00b4 B273     		strb	r2, [r6, #14]
 221:./Libraries/STM32_USB_Host_Library/Class/CDC/Src/usbh_cdc.c ****   }
 330              		.loc 1 221 5 is_stmt 1 view .LVU103
 221:./Libraries/STM32_USB_Host_Library/Class/CDC/Src/usbh_cdc.c ****   }
 331              		.loc 1 221 36 is_stmt 0 view .LVU104
 332 00b6 B3F85034 		ldrh	r3, [r3, #1104]
ARM GAS  /tmp/ccJoeMU3.s 			page 16


 333 00ba 3383     		strh	r3, [r6, #24]	@ movhi
 334              	.L30:
 224:./Libraries/STM32_USB_Host_Library/Class/CDC/Src/usbh_cdc.c ****   {
 335              		.loc 1 224 3 is_stmt 1 view .LVU105
 224:./Libraries/STM32_USB_Host_Library/Class/CDC/Src/usbh_cdc.c ****   {
 336              		.loc 1 224 59 is_stmt 0 view .LVU106
 337 00bc 1A23     		movs	r3, #26
 338 00be 03FB0040 		mla	r0, r3, r0, r4
 339              	.LVL25:
 224:./Libraries/STM32_USB_Host_Library/Class/CDC/Src/usbh_cdc.c ****   {
 340              		.loc 1 224 6 view .LVU107
 341 00c2 90F95634 		ldrsb	r3, [r0, #1110]
 224:./Libraries/STM32_USB_Host_Library/Class/CDC/Src/usbh_cdc.c ****   {
 342              		.loc 1 224 59 view .LVU108
 343 00c6 90F85614 		ldrb	r1, [r0, #1110]	@ zero_extendqisi2
 224:./Libraries/STM32_USB_Host_Library/Class/CDC/Src/usbh_cdc.c ****   {
 344              		.loc 1 224 6 view .LVU109
 345 00ca 002B     		cmp	r3, #0
 346 00cc 49DB     		blt	.L40
 231:./Libraries/STM32_USB_Host_Library/Class/CDC/Src/usbh_cdc.c ****     CDC_Handle->DataItf.OutEpSize = phost->device.CfgDesc.Itf_Desc[interface].Ep_Desc[1].wMaxPacket
 347              		.loc 1 231 5 is_stmt 1 view .LVU110
 231:./Libraries/STM32_USB_Host_Library/Class/CDC/Src/usbh_cdc.c ****     CDC_Handle->DataItf.OutEpSize = phost->device.CfgDesc.Itf_Desc[interface].Ep_Desc[1].wMaxPacket
 348              		.loc 1 231 31 is_stmt 0 view .LVU111
 349 00ce B173     		strb	r1, [r6, #14]
 232:./Libraries/STM32_USB_Host_Library/Class/CDC/Src/usbh_cdc.c ****   }
 350              		.loc 1 232 5 is_stmt 1 view .LVU112
 232:./Libraries/STM32_USB_Host_Library/Class/CDC/Src/usbh_cdc.c ****   }
 351              		.loc 1 232 35 is_stmt 0 view .LVU113
 352 00d0 B0F85834 		ldrh	r3, [r0, #1112]
 353 00d4 3383     		strh	r3, [r6, #24]	@ movhi
 354              	.L32:
 236:./Libraries/STM32_USB_Host_Library/Class/CDC/Src/usbh_cdc.c **** 
 355              		.loc 1 236 3 is_stmt 1 view .LVU114
 236:./Libraries/STM32_USB_Host_Library/Class/CDC/Src/usbh_cdc.c **** 
 356              		.loc 1 236 33 is_stmt 0 view .LVU115
 357 00d6 2046     		mov	r0, r4
 242:./Libraries/STM32_USB_Host_Library/Class/CDC/Src/usbh_cdc.c ****                 phost->device.address, phost->device.speed, USB_EP_TYPE_BULK,
 358              		.loc 1 242 3 view .LVU116
 359 00d8 4FF00208 		mov	r8, #2
 236:./Libraries/STM32_USB_Host_Library/Class/CDC/Src/usbh_cdc.c **** 
 360              		.loc 1 236 33 view .LVU117
 361 00dc FFF7FEFF 		bl	USBH_AllocPipe
 362              	.LVL26:
 363 00e0 0346     		mov	r3, r0
 239:./Libraries/STM32_USB_Host_Library/Class/CDC/Src/usbh_cdc.c **** 
 364              		.loc 1 239 32 view .LVU118
 365 00e2 F17B     		ldrb	r1, [r6, #15]	@ zero_extendqisi2
 366 00e4 2046     		mov	r0, r4
 236:./Libraries/STM32_USB_Host_Library/Class/CDC/Src/usbh_cdc.c **** 
 367              		.loc 1 236 31 view .LVU119
 368 00e6 7373     		strb	r3, [r6, #13]
 239:./Libraries/STM32_USB_Host_Library/Class/CDC/Src/usbh_cdc.c **** 
 369              		.loc 1 239 3 is_stmt 1 view .LVU120
 239:./Libraries/STM32_USB_Host_Library/Class/CDC/Src/usbh_cdc.c **** 
 370              		.loc 1 239 32 is_stmt 0 view .LVU121
 371 00e8 FFF7FEFF 		bl	USBH_AllocPipe
 372              	.LVL27:
ARM GAS  /tmp/ccJoeMU3.s 			page 17


 373 00ec 0346     		mov	r3, r0
 242:./Libraries/STM32_USB_Host_Library/Class/CDC/Src/usbh_cdc.c ****                 phost->device.address, phost->device.speed, USB_EP_TYPE_BULK,
 374              		.loc 1 242 3 view .LVU122
 375 00ee B27B     		ldrb	r2, [r6, #14]	@ zero_extendqisi2
 376 00f0 2046     		mov	r0, r4
 239:./Libraries/STM32_USB_Host_Library/Class/CDC/Src/usbh_cdc.c **** 
 377              		.loc 1 239 30 view .LVU123
 378 00f2 3373     		strb	r3, [r6, #12]
 242:./Libraries/STM32_USB_Host_Library/Class/CDC/Src/usbh_cdc.c ****                 phost->device.address, phost->device.speed, USB_EP_TYPE_BULK,
 379              		.loc 1 242 3 is_stmt 1 view .LVU124
 380 00f4 338B     		ldrh	r3, [r6, #24]
 381 00f6 94F81D54 		ldrb	r5, [r4, #1053]	@ zero_extendqisi2
 382 00fa 717B     		ldrb	r1, [r6, #13]	@ zero_extendqisi2
 383 00fc 0095     		str	r5, [sp]
 251:./Libraries/STM32_USB_Host_Library/Class/CDC/Src/usbh_cdc.c **** 
 384              		.loc 1 251 21 is_stmt 0 view .LVU125
 385 00fe 0025     		movs	r5, #0
 242:./Libraries/STM32_USB_Host_Library/Class/CDC/Src/usbh_cdc.c ****                 phost->device.address, phost->device.speed, USB_EP_TYPE_BULK,
 386              		.loc 1 242 3 view .LVU126
 387 0100 0293     		str	r3, [sp, #8]
 388 0102 94F81C34 		ldrb	r3, [r4, #1052]	@ zero_extendqisi2
 389 0106 CDF80480 		str	r8, [sp, #4]
 390 010a FFF7FEFF 		bl	USBH_OpenPipe
 391              	.LVL28:
 247:./Libraries/STM32_USB_Host_Library/Class/CDC/Src/usbh_cdc.c ****                 phost->device.address, phost->device.speed, USB_EP_TYPE_BULK,
 392              		.loc 1 247 3 is_stmt 1 view .LVU127
 393 010e B6F81AC0 		ldrh	ip, [r6, #26]
 394 0112 F27B     		ldrb	r2, [r6, #15]	@ zero_extendqisi2
 395 0114 2046     		mov	r0, r4
 396 0116 317B     		ldrb	r1, [r6, #12]	@ zero_extendqisi2
 397 0118 CDF80480 		str	r8, [sp, #4]
 398 011c 94F81D34 		ldrb	r3, [r4, #1053]	@ zero_extendqisi2
 399 0120 CDF808C0 		str	ip, [sp, #8]
 400 0124 0093     		str	r3, [sp]
 401 0126 94F81C34 		ldrb	r3, [r4, #1052]	@ zero_extendqisi2
 402 012a FFF7FEFF 		bl	USBH_OpenPipe
 403              	.LVL29:
 251:./Libraries/STM32_USB_Host_Library/Class/CDC/Src/usbh_cdc.c **** 
 404              		.loc 1 251 3 view .LVU128
 253:./Libraries/STM32_USB_Host_Library/Class/CDC/Src/usbh_cdc.c ****   USBH_LL_SetToggle(phost, CDC_Handle->DataItf.InPipe, 0U);
 405              		.loc 1 253 3 is_stmt 0 view .LVU129
 406 012e 2A46     		mov	r2, r5
 407 0130 717B     		ldrb	r1, [r6, #13]	@ zero_extendqisi2
 408 0132 2046     		mov	r0, r4
 251:./Libraries/STM32_USB_Host_Library/Class/CDC/Src/usbh_cdc.c **** 
 409              		.loc 1 251 21 view .LVU130
 410 0134 86F84C50 		strb	r5, [r6, #76]
 253:./Libraries/STM32_USB_Host_Library/Class/CDC/Src/usbh_cdc.c ****   USBH_LL_SetToggle(phost, CDC_Handle->DataItf.InPipe, 0U);
 411              		.loc 1 253 3 is_stmt 1 view .LVU131
 412 0138 FFF7FEFF 		bl	USBH_LL_SetToggle
 413              	.LVL30:
 254:./Libraries/STM32_USB_Host_Library/Class/CDC/Src/usbh_cdc.c **** 
 414              		.loc 1 254 3 view .LVU132
 415 013c 2A46     		mov	r2, r5
 416 013e 317B     		ldrb	r1, [r6, #12]	@ zero_extendqisi2
 417 0140 2046     		mov	r0, r4
 418 0142 FFF7FEFF 		bl	USBH_LL_SetToggle
ARM GAS  /tmp/ccJoeMU3.s 			page 18


 419              	.LVL31:
 256:./Libraries/STM32_USB_Host_Library/Class/CDC/Src/usbh_cdc.c **** }
 420              		.loc 1 256 3 view .LVU133
 257:./Libraries/STM32_USB_Host_Library/Class/CDC/Src/usbh_cdc.c **** 
 421              		.loc 1 257 1 is_stmt 0 view .LVU134
 422 0146 3846     		mov	r0, r7
 423 0148 04B0     		add	sp, sp, #16
 424              	.LCFI3:
 425              		.cfi_remember_state
 426              		.cfi_def_cfa_offset 24
 427              		@ sp needed
 428 014a BDE8F081 		pop	{r4, r5, r6, r7, r8, pc}
 429              	.LVL32:
 430              	.L27:
 431              	.LCFI4:
 432              		.cfi_restore_state
 164:./Libraries/STM32_USB_Host_Library/Class/CDC/Src/usbh_cdc.c ****   }
 433              		.loc 1 164 12 view .LVU135
 434 014e 0227     		movs	r7, #2
 257:./Libraries/STM32_USB_Host_Library/Class/CDC/Src/usbh_cdc.c **** 
 435              		.loc 1 257 1 view .LVU136
 436 0150 3846     		mov	r0, r7
 437 0152 04B0     		add	sp, sp, #16
 438              	.LCFI5:
 439              		.cfi_remember_state
 440              		.cfi_def_cfa_offset 24
 441              		@ sp needed
 442 0154 BDE8F081 		pop	{r4, r5, r6, r7, r8, pc}
 443              	.LVL33:
 444              	.L38:
 445              	.LCFI6:
 446              		.cfi_restore_state
 189:./Libraries/STM32_USB_Host_Library/Class/CDC/Src/usbh_cdc.c ****     CDC_Handle->CommItf.NotifEpSize  = phost->device.CfgDesc.Itf_Desc[interface].Ep_Desc[0].wMaxPac
 447              		.loc 1 189 5 is_stmt 1 view .LVU137
 189:./Libraries/STM32_USB_Host_Library/Class/CDC/Src/usbh_cdc.c ****     CDC_Handle->CommItf.NotifEpSize  = phost->device.CfgDesc.Itf_Desc[interface].Ep_Desc[0].wMaxPac
 448              		.loc 1 189 33 is_stmt 0 view .LVU138
 449 0158 7170     		strb	r1, [r6, #1]
 190:./Libraries/STM32_USB_Host_Library/Class/CDC/Src/usbh_cdc.c ****   }
 450              		.loc 1 190 5 is_stmt 1 view .LVU139
 190:./Libraries/STM32_USB_Host_Library/Class/CDC/Src/usbh_cdc.c ****   }
 451              		.loc 1 190 38 is_stmt 0 view .LVU140
 452 015a B5F85034 		ldrh	r3, [r5, #1104]
 453 015e 7381     		strh	r3, [r6, #10]	@ movhi
 454 0160 7EE7     		b	.L28
 455              	.L40:
 226:./Libraries/STM32_USB_Host_Library/Class/CDC/Src/usbh_cdc.c ****     CDC_Handle->DataItf.InEpSize  = phost->device.CfgDesc.Itf_Desc[interface].Ep_Desc[1].wMaxPacket
 456              		.loc 1 226 5 is_stmt 1 view .LVU141
 226:./Libraries/STM32_USB_Host_Library/Class/CDC/Src/usbh_cdc.c ****     CDC_Handle->DataItf.InEpSize  = phost->device.CfgDesc.Itf_Desc[interface].Ep_Desc[1].wMaxPacket
 457              		.loc 1 226 30 is_stmt 0 view .LVU142
 458 0162 F173     		strb	r1, [r6, #15]
 227:./Libraries/STM32_USB_Host_Library/Class/CDC/Src/usbh_cdc.c ****   }
 459              		.loc 1 227 5 is_stmt 1 view .LVU143
 227:./Libraries/STM32_USB_Host_Library/Class/CDC/Src/usbh_cdc.c ****   }
 460              		.loc 1 227 35 is_stmt 0 view .LVU144
 461 0164 B0F85834 		ldrh	r3, [r0, #1112]
 462 0168 B17B     		ldrb	r1, [r6, #14]	@ zero_extendqisi2
 463 016a 7383     		strh	r3, [r6, #26]	@ movhi
ARM GAS  /tmp/ccJoeMU3.s 			page 19


 464 016c B3E7     		b	.L32
 465              	.LVL34:
 466              	.L39:
 215:./Libraries/STM32_USB_Host_Library/Class/CDC/Src/usbh_cdc.c ****     CDC_Handle->DataItf.InEpSize  = phost->device.CfgDesc.Itf_Desc[interface].Ep_Desc[0].wMaxPacket
 467              		.loc 1 215 5 is_stmt 1 view .LVU145
 215:./Libraries/STM32_USB_Host_Library/Class/CDC/Src/usbh_cdc.c ****     CDC_Handle->DataItf.InEpSize  = phost->device.CfgDesc.Itf_Desc[interface].Ep_Desc[0].wMaxPacket
 468              		.loc 1 215 30 is_stmt 0 view .LVU146
 469 016e F273     		strb	r2, [r6, #15]
 216:./Libraries/STM32_USB_Host_Library/Class/CDC/Src/usbh_cdc.c ****   }
 470              		.loc 1 216 5 is_stmt 1 view .LVU147
 216:./Libraries/STM32_USB_Host_Library/Class/CDC/Src/usbh_cdc.c ****   }
 471              		.loc 1 216 35 is_stmt 0 view .LVU148
 472 0170 B3F85034 		ldrh	r3, [r3, #1104]
 473 0174 7383     		strh	r3, [r6, #26]	@ movhi
 474 0176 A1E7     		b	.L30
 475              		.cfi_endproc
 476              	.LFE338:
 478              		.section	.text.USBH_CDC_ClassRequest,"ax",%progbits
 479              		.align	1
 480              		.p2align 2,,3
 481              		.syntax unified
 482              		.thumb
 483              		.thumb_func
 484              		.fpu fpv5-d16
 486              	USBH_CDC_ClassRequest:
 487              	.LVL35:
 488              	.LFB340:
 309:./Libraries/STM32_USB_Host_Library/Class/CDC/Src/usbh_cdc.c ****   USBH_StatusTypeDef status;
 489              		.loc 1 309 1 is_stmt 1 view -0
 490              		.cfi_startproc
 491              		@ args = 0, pretend = 0, frame = 0
 492              		@ frame_needed = 0, uses_anonymous_args = 0
 310:./Libraries/STM32_USB_Host_Library/Class/CDC/Src/usbh_cdc.c ****   CDC_HandleTypeDef *CDC_Handle = (CDC_HandleTypeDef *) phost->pActiveClass->pData;
 493              		.loc 1 310 3 view .LVU150
 311:./Libraries/STM32_USB_Host_Library/Class/CDC/Src/usbh_cdc.c **** 
 494              		.loc 1 311 3 view .LVU151
 311:./Libraries/STM32_USB_Host_Library/Class/CDC/Src/usbh_cdc.c **** 
 495              		.loc 1 311 22 is_stmt 0 view .LVU152
 496 0000 D0F87C14 		ldr	r1, [r0, #1148]
 497              	.LBB16:
 498              	.LBB17:
 429:./Libraries/STM32_USB_Host_Library/Class/CDC/Src/usbh_cdc.c **** 
 430:./Libraries/STM32_USB_Host_Library/Class/CDC/Src/usbh_cdc.c **** 
 431:./Libraries/STM32_USB_Host_Library/Class/CDC/Src/usbh_cdc.c **** /**
 432:./Libraries/STM32_USB_Host_Library/Class/CDC/Src/usbh_cdc.c ****   * @brief  USBH_CDC_Stop
 433:./Libraries/STM32_USB_Host_Library/Class/CDC/Src/usbh_cdc.c ****   *         Stop current CDC Transmission
 434:./Libraries/STM32_USB_Host_Library/Class/CDC/Src/usbh_cdc.c ****   * @param  phost: Host handle
 435:./Libraries/STM32_USB_Host_Library/Class/CDC/Src/usbh_cdc.c ****   * @retval USBH Status
 436:./Libraries/STM32_USB_Host_Library/Class/CDC/Src/usbh_cdc.c ****   */
 437:./Libraries/STM32_USB_Host_Library/Class/CDC/Src/usbh_cdc.c **** USBH_StatusTypeDef  USBH_CDC_Stop(USBH_HandleTypeDef *phost)
 438:./Libraries/STM32_USB_Host_Library/Class/CDC/Src/usbh_cdc.c **** {
 439:./Libraries/STM32_USB_Host_Library/Class/CDC/Src/usbh_cdc.c ****   CDC_HandleTypeDef *CDC_Handle = (CDC_HandleTypeDef *) phost->pActiveClass->pData;
 440:./Libraries/STM32_USB_Host_Library/Class/CDC/Src/usbh_cdc.c **** 
 441:./Libraries/STM32_USB_Host_Library/Class/CDC/Src/usbh_cdc.c ****   if (phost->gState == HOST_CLASS)
 442:./Libraries/STM32_USB_Host_Library/Class/CDC/Src/usbh_cdc.c ****   {
 443:./Libraries/STM32_USB_Host_Library/Class/CDC/Src/usbh_cdc.c ****     CDC_Handle->state = CDC_IDLE_STATE;
 444:./Libraries/STM32_USB_Host_Library/Class/CDC/Src/usbh_cdc.c **** 
ARM GAS  /tmp/ccJoeMU3.s 			page 20


 445:./Libraries/STM32_USB_Host_Library/Class/CDC/Src/usbh_cdc.c ****     USBH_ClosePipe(phost, CDC_Handle->CommItf.NotifPipe);
 446:./Libraries/STM32_USB_Host_Library/Class/CDC/Src/usbh_cdc.c ****     USBH_ClosePipe(phost, CDC_Handle->DataItf.InPipe);
 447:./Libraries/STM32_USB_Host_Library/Class/CDC/Src/usbh_cdc.c ****     USBH_ClosePipe(phost, CDC_Handle->DataItf.OutPipe);
 448:./Libraries/STM32_USB_Host_Library/Class/CDC/Src/usbh_cdc.c ****   }
 449:./Libraries/STM32_USB_Host_Library/Class/CDC/Src/usbh_cdc.c ****   return USBH_OK;
 450:./Libraries/STM32_USB_Host_Library/Class/CDC/Src/usbh_cdc.c **** }
 451:./Libraries/STM32_USB_Host_Library/Class/CDC/Src/usbh_cdc.c **** /**
 452:./Libraries/STM32_USB_Host_Library/Class/CDC/Src/usbh_cdc.c ****   * @brief  This request allows the host to find out the currently
 453:./Libraries/STM32_USB_Host_Library/Class/CDC/Src/usbh_cdc.c ****   *         configured line coding.
 454:./Libraries/STM32_USB_Host_Library/Class/CDC/Src/usbh_cdc.c ****   * @param  pdev: Selected device
 455:./Libraries/STM32_USB_Host_Library/Class/CDC/Src/usbh_cdc.c ****   * @retval USBH_StatusTypeDef : USB ctl xfer status
 456:./Libraries/STM32_USB_Host_Library/Class/CDC/Src/usbh_cdc.c ****   */
 457:./Libraries/STM32_USB_Host_Library/Class/CDC/Src/usbh_cdc.c **** static USBH_StatusTypeDef GetLineCoding(USBH_HandleTypeDef *phost, CDC_LineCodingTypeDef *linecodin
 458:./Libraries/STM32_USB_Host_Library/Class/CDC/Src/usbh_cdc.c **** {
 459:./Libraries/STM32_USB_Host_Library/Class/CDC/Src/usbh_cdc.c **** 
 460:./Libraries/STM32_USB_Host_Library/Class/CDC/Src/usbh_cdc.c ****   phost->Control.setup.b.bmRequestType = USB_D2H | USB_REQ_TYPE_CLASS | \
 461:./Libraries/STM32_USB_Host_Library/Class/CDC/Src/usbh_cdc.c ****                                          USB_REQ_RECIPIENT_INTERFACE;
 462:./Libraries/STM32_USB_Host_Library/Class/CDC/Src/usbh_cdc.c **** 
 463:./Libraries/STM32_USB_Host_Library/Class/CDC/Src/usbh_cdc.c ****   phost->Control.setup.b.bRequest = CDC_GET_LINE_CODING;
 464:./Libraries/STM32_USB_Host_Library/Class/CDC/Src/usbh_cdc.c ****   phost->Control.setup.b.wValue.w = 0U;
 465:./Libraries/STM32_USB_Host_Library/Class/CDC/Src/usbh_cdc.c ****   phost->Control.setup.b.wIndex.w = 0U;
 466:./Libraries/STM32_USB_Host_Library/Class/CDC/Src/usbh_cdc.c ****   phost->Control.setup.b.wLength.w = LINE_CODING_STRUCTURE_SIZE;
 467:./Libraries/STM32_USB_Host_Library/Class/CDC/Src/usbh_cdc.c **** 
 468:./Libraries/STM32_USB_Host_Library/Class/CDC/Src/usbh_cdc.c ****   return USBH_CtlReq(phost, linecoding->Array, LINE_CODING_STRUCTURE_SIZE);
 499              		.loc 1 468 10 view .LVU153
 500 0004 0722     		movs	r2, #7
 501              	.LBE17:
 502              	.LBE16:
 309:./Libraries/STM32_USB_Host_Library/Class/CDC/Src/usbh_cdc.c ****   USBH_StatusTypeDef status;
 503              		.loc 1 309 1 view .LVU154
 504 0006 38B5     		push	{r3, r4, r5, lr}
 505              	.LCFI7:
 506              		.cfi_def_cfa_offset 16
 507              		.cfi_offset 3, -16
 508              		.cfi_offset 4, -12
 509              		.cfi_offset 5, -8
 510              		.cfi_offset 14, -4
 311:./Libraries/STM32_USB_Host_Library/Class/CDC/Src/usbh_cdc.c **** 
 511              		.loc 1 311 22 view .LVU155
 512 0008 C969     		ldr	r1, [r1, #28]
 513              	.LVL36:
 314:./Libraries/STM32_USB_Host_Library/Class/CDC/Src/usbh_cdc.c ****   if (status == USBH_OK)
 514              		.loc 1 314 3 is_stmt 1 view .LVU156
 515              	.LBB20:
 516              	.LBI16:
 457:./Libraries/STM32_USB_Host_Library/Class/CDC/Src/usbh_cdc.c **** {
 517              		.loc 1 457 27 view .LVU157
 518              	.LBB18:
 460:./Libraries/STM32_USB_Host_Library/Class/CDC/Src/usbh_cdc.c ****                                          USB_REQ_RECIPIENT_INTERFACE;
 519              		.loc 1 460 3 view .LVU158
 463:./Libraries/STM32_USB_Host_Library/Class/CDC/Src/usbh_cdc.c ****   phost->Control.setup.b.wValue.w = 0U;
 520              		.loc 1 463 3 view .LVU159
 464:./Libraries/STM32_USB_Host_Library/Class/CDC/Src/usbh_cdc.c ****   phost->Control.setup.b.wIndex.w = 0U;
 521              		.loc 1 464 3 view .LVU160
 465:./Libraries/STM32_USB_Host_Library/Class/CDC/Src/usbh_cdc.c ****   phost->Control.setup.b.wLength.w = LINE_CODING_STRUCTURE_SIZE;
 522              		.loc 1 465 3 view .LVU161
 466:./Libraries/STM32_USB_Host_Library/Class/CDC/Src/usbh_cdc.c **** 
ARM GAS  /tmp/ccJoeMU3.s 			page 21


 523              		.loc 1 466 3 view .LVU162
 460:./Libraries/STM32_USB_Host_Library/Class/CDC/Src/usbh_cdc.c ****                                          USB_REQ_RECIPIENT_INTERFACE;
 524              		.loc 1 460 40 is_stmt 0 view .LVU163
 525 000a 42F2A115 		movw	r5, #8609
 465:./Libraries/STM32_USB_Host_Library/Class/CDC/Src/usbh_cdc.c ****   phost->Control.setup.b.wLength.w = LINE_CODING_STRUCTURE_SIZE;
 526              		.loc 1 465 35 view .LVU164
 527 000e 4FF4E023 		mov	r3, #458752
 528              	.LBE18:
 529              	.LBE20:
 309:./Libraries/STM32_USB_Host_Library/Class/CDC/Src/usbh_cdc.c ****   USBH_StatusTypeDef status;
 530              		.loc 1 309 1 view .LVU165
 531 0012 0446     		mov	r4, r0
 532              	.LBB21:
 533              	.LBB19:
 460:./Libraries/STM32_USB_Host_Library/Class/CDC/Src/usbh_cdc.c ****                                          USB_REQ_RECIPIENT_INTERFACE;
 534              		.loc 1 460 40 view .LVU166
 535 0014 0561     		str	r5, [r0, #16]
 536              		.loc 1 468 10 view .LVU167
 537 0016 4031     		adds	r1, r1, #64
 538              	.LVL37:
 465:./Libraries/STM32_USB_Host_Library/Class/CDC/Src/usbh_cdc.c ****   phost->Control.setup.b.wLength.w = LINE_CODING_STRUCTURE_SIZE;
 539              		.loc 1 465 35 view .LVU168
 540 0018 4361     		str	r3, [r0, #20]
 541              		.loc 1 468 3 is_stmt 1 view .LVU169
 542              		.loc 1 468 10 is_stmt 0 view .LVU170
 543 001a FFF7FEFF 		bl	USBH_CtlReq
 544              	.LVL38:
 545              		.loc 1 468 10 view .LVU171
 546              	.LBE19:
 547              	.LBE21:
 315:./Libraries/STM32_USB_Host_Library/Class/CDC/Src/usbh_cdc.c ****   {
 548              		.loc 1 315 3 is_stmt 1 view .LVU172
 315:./Libraries/STM32_USB_Host_Library/Class/CDC/Src/usbh_cdc.c ****   {
 549              		.loc 1 315 6 is_stmt 0 view .LVU173
 550 001e 0546     		mov	r5, r0
 551 0020 20B9     		cbnz	r0, .L42
 552              	.LVL39:
 553              	.LBB22:
 554              	.LBI22:
 308:./Libraries/STM32_USB_Host_Library/Class/CDC/Src/usbh_cdc.c **** {
 555              		.loc 1 308 27 is_stmt 1 view .LVU174
 556              	.LBB23:
 317:./Libraries/STM32_USB_Host_Library/Class/CDC/Src/usbh_cdc.c ****   }
 557              		.loc 1 317 5 view .LVU175
 558 0022 D4F8D434 		ldr	r3, [r4, #1236]
 559 0026 2046     		mov	r0, r4
 560              	.LVL40:
 317:./Libraries/STM32_USB_Host_Library/Class/CDC/Src/usbh_cdc.c ****   }
 561              		.loc 1 317 5 is_stmt 0 view .LVU176
 562 0028 0221     		movs	r1, #2
 563 002a 9847     		blx	r3
 564              	.LVL41:
 565              	.L42:
 317:./Libraries/STM32_USB_Host_Library/Class/CDC/Src/usbh_cdc.c ****   }
 566              		.loc 1 317 5 view .LVU177
 567              	.LBE23:
 568              	.LBE22:
ARM GAS  /tmp/ccJoeMU3.s 			page 22


 326:./Libraries/STM32_USB_Host_Library/Class/CDC/Src/usbh_cdc.c **** 
 569              		.loc 1 326 3 is_stmt 1 view .LVU178
 328:./Libraries/STM32_USB_Host_Library/Class/CDC/Src/usbh_cdc.c **** }
 570              		.loc 1 328 3 view .LVU179
 329:./Libraries/STM32_USB_Host_Library/Class/CDC/Src/usbh_cdc.c **** 
 571              		.loc 1 329 1 is_stmt 0 view .LVU180
 572 002c 2846     		mov	r0, r5
 573 002e 38BD     		pop	{r3, r4, r5, pc}
 329:./Libraries/STM32_USB_Host_Library/Class/CDC/Src/usbh_cdc.c **** 
 574              		.loc 1 329 1 view .LVU181
 575              		.cfi_endproc
 576              	.LFE340:
 578              		.section	.text.USBH_CDC_Stop,"ax",%progbits
 579              		.align	1
 580              		.p2align 2,,3
 581              		.global	USBH_CDC_Stop
 582              		.syntax unified
 583              		.thumb
 584              		.thumb_func
 585              		.fpu fpv5-d16
 587              	USBH_CDC_Stop:
 588              	.LVL42:
 589              	.LFB343:
 438:./Libraries/STM32_USB_Host_Library/Class/CDC/Src/usbh_cdc.c ****   CDC_HandleTypeDef *CDC_Handle = (CDC_HandleTypeDef *) phost->pActiveClass->pData;
 590              		.loc 1 438 1 is_stmt 1 view -0
 591              		.cfi_startproc
 592              		@ args = 0, pretend = 0, frame = 0
 593              		@ frame_needed = 0, uses_anonymous_args = 0
 439:./Libraries/STM32_USB_Host_Library/Class/CDC/Src/usbh_cdc.c **** 
 594              		.loc 1 439 3 view .LVU183
 441:./Libraries/STM32_USB_Host_Library/Class/CDC/Src/usbh_cdc.c ****   {
 595              		.loc 1 441 3 view .LVU184
 438:./Libraries/STM32_USB_Host_Library/Class/CDC/Src/usbh_cdc.c ****   CDC_HandleTypeDef *CDC_Handle = (CDC_HandleTypeDef *) phost->pActiveClass->pData;
 596              		.loc 1 438 1 is_stmt 0 view .LVU185
 597 0000 38B5     		push	{r3, r4, r5, lr}
 598              	.LCFI8:
 599              		.cfi_def_cfa_offset 16
 600              		.cfi_offset 3, -16
 601              		.cfi_offset 4, -12
 602              		.cfi_offset 5, -8
 603              		.cfi_offset 14, -4
 441:./Libraries/STM32_USB_Host_Library/Class/CDC/Src/usbh_cdc.c ****   {
 604              		.loc 1 441 12 view .LVU186
 605 0002 0378     		ldrb	r3, [r0]	@ zero_extendqisi2
 441:./Libraries/STM32_USB_Host_Library/Class/CDC/Src/usbh_cdc.c ****   {
 606              		.loc 1 441 6 view .LVU187
 607 0004 0B2B     		cmp	r3, #11
 608 0006 01D0     		beq	.L47
 449:./Libraries/STM32_USB_Host_Library/Class/CDC/Src/usbh_cdc.c **** }
 609              		.loc 1 449 3 is_stmt 1 view .LVU188
 450:./Libraries/STM32_USB_Host_Library/Class/CDC/Src/usbh_cdc.c **** /**
 610              		.loc 1 450 1 is_stmt 0 view .LVU189
 611 0008 0020     		movs	r0, #0
 612              	.LVL43:
 450:./Libraries/STM32_USB_Host_Library/Class/CDC/Src/usbh_cdc.c **** /**
 613              		.loc 1 450 1 view .LVU190
 614 000a 38BD     		pop	{r3, r4, r5, pc}
ARM GAS  /tmp/ccJoeMU3.s 			page 23


 615              	.LVL44:
 616              	.L47:
 439:./Libraries/STM32_USB_Host_Library/Class/CDC/Src/usbh_cdc.c **** 
 617              		.loc 1 439 22 view .LVU191
 618 000c D0F87C24 		ldr	r2, [r0, #1148]
 443:./Libraries/STM32_USB_Host_Library/Class/CDC/Src/usbh_cdc.c **** 
 619              		.loc 1 443 23 view .LVU192
 620 0010 0023     		movs	r3, #0
 621 0012 0446     		mov	r4, r0
 439:./Libraries/STM32_USB_Host_Library/Class/CDC/Src/usbh_cdc.c **** 
 622              		.loc 1 439 22 view .LVU193
 623 0014 D569     		ldr	r5, [r2, #28]
 443:./Libraries/STM32_USB_Host_Library/Class/CDC/Src/usbh_cdc.c **** 
 624              		.loc 1 443 5 is_stmt 1 view .LVU194
 443:./Libraries/STM32_USB_Host_Library/Class/CDC/Src/usbh_cdc.c **** 
 625              		.loc 1 443 23 is_stmt 0 view .LVU195
 626 0016 85F84C30 		strb	r3, [r5, #76]
 627              	.LVL45:
 445:./Libraries/STM32_USB_Host_Library/Class/CDC/Src/usbh_cdc.c ****     USBH_ClosePipe(phost, CDC_Handle->DataItf.InPipe);
 628              		.loc 1 445 5 is_stmt 1 view .LVU196
 629 001a 2978     		ldrb	r1, [r5]	@ zero_extendqisi2
 630 001c FFF7FEFF 		bl	USBH_ClosePipe
 631              	.LVL46:
 446:./Libraries/STM32_USB_Host_Library/Class/CDC/Src/usbh_cdc.c ****     USBH_ClosePipe(phost, CDC_Handle->DataItf.OutPipe);
 632              		.loc 1 446 5 view .LVU197
 633 0020 297B     		ldrb	r1, [r5, #12]	@ zero_extendqisi2
 634 0022 2046     		mov	r0, r4
 635 0024 FFF7FEFF 		bl	USBH_ClosePipe
 636              	.LVL47:
 447:./Libraries/STM32_USB_Host_Library/Class/CDC/Src/usbh_cdc.c ****   }
 637              		.loc 1 447 5 view .LVU198
 638 0028 697B     		ldrb	r1, [r5, #13]	@ zero_extendqisi2
 639 002a 2046     		mov	r0, r4
 640 002c FFF7FEFF 		bl	USBH_ClosePipe
 641              	.LVL48:
 449:./Libraries/STM32_USB_Host_Library/Class/CDC/Src/usbh_cdc.c **** }
 642              		.loc 1 449 3 view .LVU199
 450:./Libraries/STM32_USB_Host_Library/Class/CDC/Src/usbh_cdc.c **** /**
 643              		.loc 1 450 1 is_stmt 0 view .LVU200
 644 0030 0020     		movs	r0, #0
 645 0032 38BD     		pop	{r3, r4, r5, pc}
 450:./Libraries/STM32_USB_Host_Library/Class/CDC/Src/usbh_cdc.c **** /**
 646              		.loc 1 450 1 view .LVU201
 647              		.cfi_endproc
 648              	.LFE343:
 650              		.section	.text.USBH_CDC_SetLineCoding,"ax",%progbits
 651              		.align	1
 652              		.p2align 2,,3
 653              		.global	USBH_CDC_SetLineCoding
 654              		.syntax unified
 655              		.thumb
 656              		.thumb_func
 657              		.fpu fpv5-d16
 659              	USBH_CDC_SetLineCoding:
 660              	.LVL49:
 661              	.LFB346:
 469:./Libraries/STM32_USB_Host_Library/Class/CDC/Src/usbh_cdc.c **** }
ARM GAS  /tmp/ccJoeMU3.s 			page 24


 470:./Libraries/STM32_USB_Host_Library/Class/CDC/Src/usbh_cdc.c **** 
 471:./Libraries/STM32_USB_Host_Library/Class/CDC/Src/usbh_cdc.c **** 
 472:./Libraries/STM32_USB_Host_Library/Class/CDC/Src/usbh_cdc.c **** /**
 473:./Libraries/STM32_USB_Host_Library/Class/CDC/Src/usbh_cdc.c ****   * @brief  This request allows the host to specify typical asynchronous
 474:./Libraries/STM32_USB_Host_Library/Class/CDC/Src/usbh_cdc.c ****   * line-character formatting properties
 475:./Libraries/STM32_USB_Host_Library/Class/CDC/Src/usbh_cdc.c ****   * This request applies to asynchronous byte stream data class interfaces
 476:./Libraries/STM32_USB_Host_Library/Class/CDC/Src/usbh_cdc.c ****   * and endpoints
 477:./Libraries/STM32_USB_Host_Library/Class/CDC/Src/usbh_cdc.c ****   * @param  pdev: Selected device
 478:./Libraries/STM32_USB_Host_Library/Class/CDC/Src/usbh_cdc.c ****   * @retval USBH_StatusTypeDef : USB ctl xfer status
 479:./Libraries/STM32_USB_Host_Library/Class/CDC/Src/usbh_cdc.c ****   */
 480:./Libraries/STM32_USB_Host_Library/Class/CDC/Src/usbh_cdc.c **** static USBH_StatusTypeDef SetLineCoding(USBH_HandleTypeDef *phost,
 481:./Libraries/STM32_USB_Host_Library/Class/CDC/Src/usbh_cdc.c ****                                         CDC_LineCodingTypeDef *linecoding)
 482:./Libraries/STM32_USB_Host_Library/Class/CDC/Src/usbh_cdc.c **** {
 483:./Libraries/STM32_USB_Host_Library/Class/CDC/Src/usbh_cdc.c ****   phost->Control.setup.b.bmRequestType = USB_H2D | USB_REQ_TYPE_CLASS |
 484:./Libraries/STM32_USB_Host_Library/Class/CDC/Src/usbh_cdc.c ****                                          USB_REQ_RECIPIENT_INTERFACE;
 485:./Libraries/STM32_USB_Host_Library/Class/CDC/Src/usbh_cdc.c **** 
 486:./Libraries/STM32_USB_Host_Library/Class/CDC/Src/usbh_cdc.c ****   phost->Control.setup.b.bRequest = CDC_SET_LINE_CODING;
 487:./Libraries/STM32_USB_Host_Library/Class/CDC/Src/usbh_cdc.c ****   phost->Control.setup.b.wValue.w = 0U;
 488:./Libraries/STM32_USB_Host_Library/Class/CDC/Src/usbh_cdc.c **** 
 489:./Libraries/STM32_USB_Host_Library/Class/CDC/Src/usbh_cdc.c ****   phost->Control.setup.b.wIndex.w = 0U;
 490:./Libraries/STM32_USB_Host_Library/Class/CDC/Src/usbh_cdc.c **** 
 491:./Libraries/STM32_USB_Host_Library/Class/CDC/Src/usbh_cdc.c ****   phost->Control.setup.b.wLength.w = LINE_CODING_STRUCTURE_SIZE;
 492:./Libraries/STM32_USB_Host_Library/Class/CDC/Src/usbh_cdc.c **** 
 493:./Libraries/STM32_USB_Host_Library/Class/CDC/Src/usbh_cdc.c ****   return USBH_CtlReq(phost, linecoding->Array, LINE_CODING_STRUCTURE_SIZE);
 494:./Libraries/STM32_USB_Host_Library/Class/CDC/Src/usbh_cdc.c **** }
 495:./Libraries/STM32_USB_Host_Library/Class/CDC/Src/usbh_cdc.c **** 
 496:./Libraries/STM32_USB_Host_Library/Class/CDC/Src/usbh_cdc.c **** /**
 497:./Libraries/STM32_USB_Host_Library/Class/CDC/Src/usbh_cdc.c **** * @brief  This function prepares the state before issuing the class specific commands
 498:./Libraries/STM32_USB_Host_Library/Class/CDC/Src/usbh_cdc.c **** * @param  None
 499:./Libraries/STM32_USB_Host_Library/Class/CDC/Src/usbh_cdc.c **** * @retval None
 500:./Libraries/STM32_USB_Host_Library/Class/CDC/Src/usbh_cdc.c **** */
 501:./Libraries/STM32_USB_Host_Library/Class/CDC/Src/usbh_cdc.c **** USBH_StatusTypeDef USBH_CDC_SetLineCoding(USBH_HandleTypeDef *phost,
 502:./Libraries/STM32_USB_Host_Library/Class/CDC/Src/usbh_cdc.c ****                                           CDC_LineCodingTypeDef *linecoding)
 503:./Libraries/STM32_USB_Host_Library/Class/CDC/Src/usbh_cdc.c **** {
 662              		.loc 1 503 1 is_stmt 1 view -0
 663              		.cfi_startproc
 664              		@ args = 0, pretend = 0, frame = 0
 665              		@ frame_needed = 0, uses_anonymous_args = 0
 504:./Libraries/STM32_USB_Host_Library/Class/CDC/Src/usbh_cdc.c ****   CDC_HandleTypeDef *CDC_Handle = (CDC_HandleTypeDef *) phost->pActiveClass->pData;
 666              		.loc 1 504 3 view .LVU203
 505:./Libraries/STM32_USB_Host_Library/Class/CDC/Src/usbh_cdc.c **** 
 506:./Libraries/STM32_USB_Host_Library/Class/CDC/Src/usbh_cdc.c ****   if (phost->gState == HOST_CLASS)
 667              		.loc 1 506 3 view .LVU204
 668              		.loc 1 506 12 is_stmt 0 view .LVU205
 669 0000 0378     		ldrb	r3, [r0]	@ zero_extendqisi2
 670              		.loc 1 506 6 view .LVU206
 671 0002 0B2B     		cmp	r3, #11
 672 0004 01D0     		beq	.L54
 507:./Libraries/STM32_USB_Host_Library/Class/CDC/Src/usbh_cdc.c ****   {
 508:./Libraries/STM32_USB_Host_Library/Class/CDC/Src/usbh_cdc.c ****     CDC_Handle->state = CDC_SET_LINE_CODING_STATE;
 509:./Libraries/STM32_USB_Host_Library/Class/CDC/Src/usbh_cdc.c ****     CDC_Handle->pUserLineCoding = linecoding;
 510:./Libraries/STM32_USB_Host_Library/Class/CDC/Src/usbh_cdc.c **** 
 511:./Libraries/STM32_USB_Host_Library/Class/CDC/Src/usbh_cdc.c **** #if (USBH_USE_OS == 1U)
 512:./Libraries/STM32_USB_Host_Library/Class/CDC/Src/usbh_cdc.c ****     phost->os_msg = (uint32_t)USBH_CLASS_EVENT;
 513:./Libraries/STM32_USB_Host_Library/Class/CDC/Src/usbh_cdc.c **** #if (osCMSIS < 0x20000U)
 514:./Libraries/STM32_USB_Host_Library/Class/CDC/Src/usbh_cdc.c ****     (void)osMessagePut(phost->os_event, phost->os_msg, 0U);
 515:./Libraries/STM32_USB_Host_Library/Class/CDC/Src/usbh_cdc.c **** #else
ARM GAS  /tmp/ccJoeMU3.s 			page 25


 516:./Libraries/STM32_USB_Host_Library/Class/CDC/Src/usbh_cdc.c ****     (void)osMessageQueuePut(phost->os_event, &phost->os_msg, 0U, NULL);
 517:./Libraries/STM32_USB_Host_Library/Class/CDC/Src/usbh_cdc.c **** #endif
 518:./Libraries/STM32_USB_Host_Library/Class/CDC/Src/usbh_cdc.c **** #endif
 519:./Libraries/STM32_USB_Host_Library/Class/CDC/Src/usbh_cdc.c ****   }
 520:./Libraries/STM32_USB_Host_Library/Class/CDC/Src/usbh_cdc.c **** 
 521:./Libraries/STM32_USB_Host_Library/Class/CDC/Src/usbh_cdc.c ****   return USBH_OK;
 673              		.loc 1 521 3 is_stmt 1 view .LVU207
 522:./Libraries/STM32_USB_Host_Library/Class/CDC/Src/usbh_cdc.c **** }
 674              		.loc 1 522 1 is_stmt 0 view .LVU208
 675 0006 0020     		movs	r0, #0
 676              	.LVL50:
 677              		.loc 1 522 1 view .LVU209
 678 0008 7047     		bx	lr
 679              	.LVL51:
 680              	.L54:
 681              		.loc 1 522 1 view .LVU210
 682 000a 0A46     		mov	r2, r1
 504:./Libraries/STM32_USB_Host_Library/Class/CDC/Src/usbh_cdc.c **** 
 683              		.loc 1 504 22 view .LVU211
 684 000c D0F87C14 		ldr	r1, [r0, #1148]
 685              	.LVL52:
 516:./Libraries/STM32_USB_Host_Library/Class/CDC/Src/usbh_cdc.c **** #endif
 686              		.loc 1 516 11 view .LVU212
 687 0010 0023     		movs	r3, #0
 503:./Libraries/STM32_USB_Host_Library/Class/CDC/Src/usbh_cdc.c ****   CDC_HandleTypeDef *CDC_Handle = (CDC_HandleTypeDef *) phost->pActiveClass->pData;
 688              		.loc 1 503 1 view .LVU213
 689 0012 70B5     		push	{r4, r5, r6, lr}
 690              	.LCFI9:
 691              		.cfi_def_cfa_offset 16
 692              		.cfi_offset 4, -16
 693              		.cfi_offset 5, -12
 694              		.cfi_offset 6, -8
 695              		.cfi_offset 14, -4
 696 0014 0446     		mov	r4, r0
 508:./Libraries/STM32_USB_Host_Library/Class/CDC/Src/usbh_cdc.c ****     CDC_Handle->pUserLineCoding = linecoding;
 697              		.loc 1 508 23 view .LVU214
 698 0016 0126     		movs	r6, #1
 504:./Libraries/STM32_USB_Host_Library/Class/CDC/Src/usbh_cdc.c **** 
 699              		.loc 1 504 22 view .LVU215
 700 0018 C869     		ldr	r0, [r1, #28]
 701              	.LVL53:
 508:./Libraries/STM32_USB_Host_Library/Class/CDC/Src/usbh_cdc.c ****     CDC_Handle->pUserLineCoding = linecoding;
 702              		.loc 1 508 5 is_stmt 1 view .LVU216
 512:./Libraries/STM32_USB_Host_Library/Class/CDC/Src/usbh_cdc.c **** #if (osCMSIS < 0x20000U)
 703              		.loc 1 512 19 is_stmt 0 view .LVU217
 704 001a 0425     		movs	r5, #4
 516:./Libraries/STM32_USB_Host_Library/Class/CDC/Src/usbh_cdc.c **** #endif
 705              		.loc 1 516 11 view .LVU218
 706 001c 04F59C61 		add	r1, r4, #1248
 509:./Libraries/STM32_USB_Host_Library/Class/CDC/Src/usbh_cdc.c **** 
 707              		.loc 1 509 33 view .LVU219
 708 0020 8264     		str	r2, [r0, #72]
 709              	.LVL54:
 516:./Libraries/STM32_USB_Host_Library/Class/CDC/Src/usbh_cdc.c **** #endif
 710              		.loc 1 516 11 view .LVU220
 711 0022 1A46     		mov	r2, r3
 712              	.LVL55:
ARM GAS  /tmp/ccJoeMU3.s 			page 26


 508:./Libraries/STM32_USB_Host_Library/Class/CDC/Src/usbh_cdc.c ****     CDC_Handle->pUserLineCoding = linecoding;
 713              		.loc 1 508 23 view .LVU221
 714 0024 80F84C60 		strb	r6, [r0, #76]
 509:./Libraries/STM32_USB_Host_Library/Class/CDC/Src/usbh_cdc.c **** 
 715              		.loc 1 509 5 is_stmt 1 view .LVU222
 512:./Libraries/STM32_USB_Host_Library/Class/CDC/Src/usbh_cdc.c **** #if (osCMSIS < 0x20000U)
 716              		.loc 1 512 5 view .LVU223
 512:./Libraries/STM32_USB_Host_Library/Class/CDC/Src/usbh_cdc.c **** #if (osCMSIS < 0x20000U)
 717              		.loc 1 512 19 is_stmt 0 view .LVU224
 718 0028 C4F8E054 		str	r5, [r4, #1248]
 516:./Libraries/STM32_USB_Host_Library/Class/CDC/Src/usbh_cdc.c **** #endif
 719              		.loc 1 516 5 is_stmt 1 view .LVU225
 516:./Libraries/STM32_USB_Host_Library/Class/CDC/Src/usbh_cdc.c **** #endif
 720              		.loc 1 516 11 is_stmt 0 view .LVU226
 721 002c D4F8D804 		ldr	r0, [r4, #1240]
 722              	.LVL56:
 516:./Libraries/STM32_USB_Host_Library/Class/CDC/Src/usbh_cdc.c **** #endif
 723              		.loc 1 516 11 view .LVU227
 724 0030 FFF7FEFF 		bl	osMessageQueuePut
 725              	.LVL57:
 521:./Libraries/STM32_USB_Host_Library/Class/CDC/Src/usbh_cdc.c **** }
 726              		.loc 1 521 3 is_stmt 1 view .LVU228
 727              		.loc 1 522 1 is_stmt 0 view .LVU229
 728 0034 0020     		movs	r0, #0
 729 0036 70BD     		pop	{r4, r5, r6, pc}
 730              		.loc 1 522 1 view .LVU230
 731              		.cfi_endproc
 732              	.LFE346:
 734              		.section	.text.USBH_CDC_GetLineCoding,"ax",%progbits
 735              		.align	1
 736              		.p2align 2,,3
 737              		.global	USBH_CDC_GetLineCoding
 738              		.syntax unified
 739              		.thumb
 740              		.thumb_func
 741              		.fpu fpv5-d16
 743              	USBH_CDC_GetLineCoding:
 744              	.LVL58:
 745              	.LFB347:
 523:./Libraries/STM32_USB_Host_Library/Class/CDC/Src/usbh_cdc.c **** 
 524:./Libraries/STM32_USB_Host_Library/Class/CDC/Src/usbh_cdc.c **** /**
 525:./Libraries/STM32_USB_Host_Library/Class/CDC/Src/usbh_cdc.c **** * @brief  This function prepares the state before issuing the class specific commands
 526:./Libraries/STM32_USB_Host_Library/Class/CDC/Src/usbh_cdc.c **** * @param  None
 527:./Libraries/STM32_USB_Host_Library/Class/CDC/Src/usbh_cdc.c **** * @retval None
 528:./Libraries/STM32_USB_Host_Library/Class/CDC/Src/usbh_cdc.c **** */
 529:./Libraries/STM32_USB_Host_Library/Class/CDC/Src/usbh_cdc.c **** USBH_StatusTypeDef  USBH_CDC_GetLineCoding(USBH_HandleTypeDef *phost,
 530:./Libraries/STM32_USB_Host_Library/Class/CDC/Src/usbh_cdc.c ****                                            CDC_LineCodingTypeDef *linecoding)
 531:./Libraries/STM32_USB_Host_Library/Class/CDC/Src/usbh_cdc.c **** {
 746              		.loc 1 531 1 is_stmt 1 view -0
 747              		.cfi_startproc
 748              		@ args = 0, pretend = 0, frame = 0
 749              		@ frame_needed = 0, uses_anonymous_args = 0
 750              		@ link register save eliminated.
 532:./Libraries/STM32_USB_Host_Library/Class/CDC/Src/usbh_cdc.c ****   CDC_HandleTypeDef *CDC_Handle = (CDC_HandleTypeDef *) phost->pActiveClass->pData;
 751              		.loc 1 532 3 view .LVU232
 533:./Libraries/STM32_USB_Host_Library/Class/CDC/Src/usbh_cdc.c **** 
 534:./Libraries/STM32_USB_Host_Library/Class/CDC/Src/usbh_cdc.c ****   if ((phost->gState == HOST_CLASS) || (phost->gState == HOST_CLASS_REQUEST))
ARM GAS  /tmp/ccJoeMU3.s 			page 27


 752              		.loc 1 534 3 view .LVU233
 753              		.loc 1 534 13 is_stmt 0 view .LVU234
 754 0000 0278     		ldrb	r2, [r0]	@ zero_extendqisi2
 531:./Libraries/STM32_USB_Host_Library/Class/CDC/Src/usbh_cdc.c ****   CDC_HandleTypeDef *CDC_Handle = (CDC_HandleTypeDef *) phost->pActiveClass->pData;
 755              		.loc 1 531 1 view .LVU235
 756 0002 0B46     		mov	r3, r1
 757              		.loc 1 534 6 view .LVU236
 758 0004 0B2A     		cmp	r2, #11
 759 0006 05D0     		beq	.L56
 760              		.loc 1 534 46 discriminator 1 view .LVU237
 761 0008 0278     		ldrb	r2, [r0]	@ zero_extendqisi2
 762              		.loc 1 534 37 discriminator 1 view .LVU238
 763 000a 062A     		cmp	r2, #6
 764 000c 02D0     		beq	.L56
 535:./Libraries/STM32_USB_Host_Library/Class/CDC/Src/usbh_cdc.c ****   {
 536:./Libraries/STM32_USB_Host_Library/Class/CDC/Src/usbh_cdc.c ****     *linecoding = CDC_Handle->LineCoding;
 537:./Libraries/STM32_USB_Host_Library/Class/CDC/Src/usbh_cdc.c ****     return USBH_OK;
 538:./Libraries/STM32_USB_Host_Library/Class/CDC/Src/usbh_cdc.c ****   }
 539:./Libraries/STM32_USB_Host_Library/Class/CDC/Src/usbh_cdc.c ****   else
 540:./Libraries/STM32_USB_Host_Library/Class/CDC/Src/usbh_cdc.c ****   {
 541:./Libraries/STM32_USB_Host_Library/Class/CDC/Src/usbh_cdc.c ****     return USBH_FAIL;
 765              		.loc 1 541 12 view .LVU239
 766 000e 0222     		movs	r2, #2
 542:./Libraries/STM32_USB_Host_Library/Class/CDC/Src/usbh_cdc.c ****   }
 543:./Libraries/STM32_USB_Host_Library/Class/CDC/Src/usbh_cdc.c **** }
 767              		.loc 1 543 1 view .LVU240
 768 0010 1046     		mov	r0, r2
 769              	.LVL59:
 770              		.loc 1 543 1 view .LVU241
 771 0012 7047     		bx	lr
 772              	.LVL60:
 773              	.L56:
 536:./Libraries/STM32_USB_Host_Library/Class/CDC/Src/usbh_cdc.c ****     return USBH_OK;
 774              		.loc 1 536 5 is_stmt 1 view .LVU242
 532:./Libraries/STM32_USB_Host_Library/Class/CDC/Src/usbh_cdc.c **** 
 775              		.loc 1 532 22 is_stmt 0 view .LVU243
 776 0014 D0F87C14 		ldr	r1, [r0, #1148]
 777              	.LVL61:
 537:./Libraries/STM32_USB_Host_Library/Class/CDC/Src/usbh_cdc.c ****   }
 778              		.loc 1 537 12 view .LVU244
 779 0018 0022     		movs	r2, #0
 536:./Libraries/STM32_USB_Host_Library/Class/CDC/Src/usbh_cdc.c ****     return USBH_OK;
 780              		.loc 1 536 17 view .LVU245
 781 001a C869     		ldr	r0, [r1, #28]
 782              	.LVL62:
 536:./Libraries/STM32_USB_Host_Library/Class/CDC/Src/usbh_cdc.c ****     return USBH_OK;
 783              		.loc 1 536 17 view .LVU246
 784 001c D0E91001 		ldrd	r0, r1, [r0, #64]
 785 0020 83E80300 		stm	r3, {r0, r1}
 537:./Libraries/STM32_USB_Host_Library/Class/CDC/Src/usbh_cdc.c ****   }
 786              		.loc 1 537 5 is_stmt 1 view .LVU247
 787              		.loc 1 543 1 is_stmt 0 view .LVU248
 788 0024 1046     		mov	r0, r2
 789 0026 7047     		bx	lr
 790              		.cfi_endproc
 791              	.LFE347:
 793              		.section	.text.USBH_CDC_GetLastReceivedDataSize,"ax",%progbits
ARM GAS  /tmp/ccJoeMU3.s 			page 28


 794              		.align	1
 795              		.p2align 2,,3
 796              		.global	USBH_CDC_GetLastReceivedDataSize
 797              		.syntax unified
 798              		.thumb
 799              		.thumb_func
 800              		.fpu fpv5-d16
 802              	USBH_CDC_GetLastReceivedDataSize:
 803              	.LVL63:
 804              	.LFB348:
 544:./Libraries/STM32_USB_Host_Library/Class/CDC/Src/usbh_cdc.c **** 
 545:./Libraries/STM32_USB_Host_Library/Class/CDC/Src/usbh_cdc.c **** /**
 546:./Libraries/STM32_USB_Host_Library/Class/CDC/Src/usbh_cdc.c ****   * @brief  This function return last received data size
 547:./Libraries/STM32_USB_Host_Library/Class/CDC/Src/usbh_cdc.c ****   * @param  None
 548:./Libraries/STM32_USB_Host_Library/Class/CDC/Src/usbh_cdc.c ****   * @retval None
 549:./Libraries/STM32_USB_Host_Library/Class/CDC/Src/usbh_cdc.c ****   */
 550:./Libraries/STM32_USB_Host_Library/Class/CDC/Src/usbh_cdc.c **** uint16_t USBH_CDC_GetLastReceivedDataSize(USBH_HandleTypeDef *phost)
 551:./Libraries/STM32_USB_Host_Library/Class/CDC/Src/usbh_cdc.c **** {
 805              		.loc 1 551 1 is_stmt 1 view -0
 806              		.cfi_startproc
 807              		@ args = 0, pretend = 0, frame = 0
 808              		@ frame_needed = 0, uses_anonymous_args = 0
 552:./Libraries/STM32_USB_Host_Library/Class/CDC/Src/usbh_cdc.c ****   uint32_t dataSize;
 809              		.loc 1 552 3 view .LVU250
 553:./Libraries/STM32_USB_Host_Library/Class/CDC/Src/usbh_cdc.c ****   CDC_HandleTypeDef *CDC_Handle = (CDC_HandleTypeDef *) phost->pActiveClass->pData;
 810              		.loc 1 553 3 view .LVU251
 554:./Libraries/STM32_USB_Host_Library/Class/CDC/Src/usbh_cdc.c **** 
 555:./Libraries/STM32_USB_Host_Library/Class/CDC/Src/usbh_cdc.c ****   if (phost->gState == HOST_CLASS)
 811              		.loc 1 555 3 view .LVU252
 812              		.loc 1 555 12 is_stmt 0 view .LVU253
 813 0000 0278     		ldrb	r2, [r0]	@ zero_extendqisi2
 814              		.loc 1 555 6 view .LVU254
 815 0002 0B2A     		cmp	r2, #11
 816 0004 01D0     		beq	.L69
 817 0006 0020     		movs	r0, #0
 818              	.LVL64:
 556:./Libraries/STM32_USB_Host_Library/Class/CDC/Src/usbh_cdc.c ****   {
 557:./Libraries/STM32_USB_Host_Library/Class/CDC/Src/usbh_cdc.c ****     dataSize = USBH_LL_GetLastXferSize(phost, CDC_Handle->DataItf.InPipe);
 558:./Libraries/STM32_USB_Host_Library/Class/CDC/Src/usbh_cdc.c ****   }
 559:./Libraries/STM32_USB_Host_Library/Class/CDC/Src/usbh_cdc.c ****   else
 560:./Libraries/STM32_USB_Host_Library/Class/CDC/Src/usbh_cdc.c ****   {
 561:./Libraries/STM32_USB_Host_Library/Class/CDC/Src/usbh_cdc.c ****     dataSize =  0U;
 562:./Libraries/STM32_USB_Host_Library/Class/CDC/Src/usbh_cdc.c ****   }
 563:./Libraries/STM32_USB_Host_Library/Class/CDC/Src/usbh_cdc.c **** 
 564:./Libraries/STM32_USB_Host_Library/Class/CDC/Src/usbh_cdc.c ****   return (uint16_t)dataSize;
 819              		.loc 1 564 3 is_stmt 1 view .LVU255
 565:./Libraries/STM32_USB_Host_Library/Class/CDC/Src/usbh_cdc.c **** }
 820              		.loc 1 565 1 is_stmt 0 view .LVU256
 821 0008 7047     		bx	lr
 822              	.LVL65:
 823              	.L69:
 557:./Libraries/STM32_USB_Host_Library/Class/CDC/Src/usbh_cdc.c ****   }
 824              		.loc 1 557 5 is_stmt 1 view .LVU257
 551:./Libraries/STM32_USB_Host_Library/Class/CDC/Src/usbh_cdc.c ****   uint32_t dataSize;
 825              		.loc 1 551 1 is_stmt 0 view .LVU258
 826 000a 08B5     		push	{r3, lr}
 827              	.LCFI10:
ARM GAS  /tmp/ccJoeMU3.s 			page 29


 828              		.cfi_def_cfa_offset 8
 829              		.cfi_offset 3, -8
 830              		.cfi_offset 14, -4
 553:./Libraries/STM32_USB_Host_Library/Class/CDC/Src/usbh_cdc.c **** 
 831              		.loc 1 553 22 view .LVU259
 832 000c D0F87C34 		ldr	r3, [r0, #1148]
 557:./Libraries/STM32_USB_Host_Library/Class/CDC/Src/usbh_cdc.c ****   }
 833              		.loc 1 557 16 view .LVU260
 834 0010 DB69     		ldr	r3, [r3, #28]
 835 0012 197B     		ldrb	r1, [r3, #12]	@ zero_extendqisi2
 836 0014 FFF7FEFF 		bl	USBH_LL_GetLastXferSize
 837              	.LVL66:
 557:./Libraries/STM32_USB_Host_Library/Class/CDC/Src/usbh_cdc.c ****   }
 838              		.loc 1 557 16 view .LVU261
 839 0018 80B2     		uxth	r0, r0
 840              	.LVL67:
 564:./Libraries/STM32_USB_Host_Library/Class/CDC/Src/usbh_cdc.c **** }
 841              		.loc 1 564 3 is_stmt 1 view .LVU262
 842              		.loc 1 565 1 is_stmt 0 view .LVU263
 843 001a 08BD     		pop	{r3, pc}
 844              		.cfi_endproc
 845              	.LFE348:
 847              		.section	.text.USBH_CDC_Transmit,"ax",%progbits
 848              		.align	1
 849              		.p2align 2,,3
 850              		.global	USBH_CDC_Transmit
 851              		.syntax unified
 852              		.thumb
 853              		.thumb_func
 854              		.fpu fpv5-d16
 856              	USBH_CDC_Transmit:
 857              	.LVL68:
 858              	.LFB349:
 566:./Libraries/STM32_USB_Host_Library/Class/CDC/Src/usbh_cdc.c **** 
 567:./Libraries/STM32_USB_Host_Library/Class/CDC/Src/usbh_cdc.c **** /**
 568:./Libraries/STM32_USB_Host_Library/Class/CDC/Src/usbh_cdc.c ****   * @brief  This function prepares the state before issuing the class specific commands
 569:./Libraries/STM32_USB_Host_Library/Class/CDC/Src/usbh_cdc.c ****   * @param  None
 570:./Libraries/STM32_USB_Host_Library/Class/CDC/Src/usbh_cdc.c ****   * @retval None
 571:./Libraries/STM32_USB_Host_Library/Class/CDC/Src/usbh_cdc.c ****   */
 572:./Libraries/STM32_USB_Host_Library/Class/CDC/Src/usbh_cdc.c **** USBH_StatusTypeDef  USBH_CDC_Transmit(USBH_HandleTypeDef *phost, uint8_t *pbuff, uint32_t length)
 573:./Libraries/STM32_USB_Host_Library/Class/CDC/Src/usbh_cdc.c **** {
 859              		.loc 1 573 1 is_stmt 1 view -0
 860              		.cfi_startproc
 861              		@ args = 0, pretend = 0, frame = 0
 862              		@ frame_needed = 0, uses_anonymous_args = 0
 574:./Libraries/STM32_USB_Host_Library/Class/CDC/Src/usbh_cdc.c ****   USBH_StatusTypeDef Status = USBH_BUSY;
 863              		.loc 1 574 3 view .LVU265
 575:./Libraries/STM32_USB_Host_Library/Class/CDC/Src/usbh_cdc.c ****   CDC_HandleTypeDef *CDC_Handle = (CDC_HandleTypeDef *) phost->pActiveClass->pData;
 864              		.loc 1 575 3 view .LVU266
 865              		.loc 1 575 22 is_stmt 0 view .LVU267
 866 0000 D0F87C34 		ldr	r3, [r0, #1148]
 573:./Libraries/STM32_USB_Host_Library/Class/CDC/Src/usbh_cdc.c ****   USBH_StatusTypeDef Status = USBH_BUSY;
 867              		.loc 1 573 1 view .LVU268
 868 0004 70B5     		push	{r4, r5, r6, lr}
 869              	.LCFI11:
 870              		.cfi_def_cfa_offset 16
 871              		.cfi_offset 4, -16
ARM GAS  /tmp/ccJoeMU3.s 			page 30


 872              		.cfi_offset 5, -12
 873              		.cfi_offset 6, -8
 874              		.cfi_offset 14, -4
 573:./Libraries/STM32_USB_Host_Library/Class/CDC/Src/usbh_cdc.c ****   USBH_StatusTypeDef Status = USBH_BUSY;
 875              		.loc 1 573 1 view .LVU269
 876 0006 0446     		mov	r4, r0
 877              		.loc 1 575 22 view .LVU270
 878 0008 D869     		ldr	r0, [r3, #28]
 879              	.LVL69:
 576:./Libraries/STM32_USB_Host_Library/Class/CDC/Src/usbh_cdc.c **** 
 577:./Libraries/STM32_USB_Host_Library/Class/CDC/Src/usbh_cdc.c ****   if ((CDC_Handle->state == CDC_IDLE_STATE) || (CDC_Handle->state == CDC_TRANSFER_DATA))
 880              		.loc 1 577 3 is_stmt 1 view .LVU271
 881              		.loc 1 577 18 is_stmt 0 view .LVU272
 882 000a 90F84C30 		ldrb	r3, [r0, #76]	@ zero_extendqisi2
 883              		.loc 1 577 6 view .LVU273
 884 000e 1BB1     		cbz	r3, .L74
 885 0010 032B     		cmp	r3, #3
 886 0012 01D0     		beq	.L74
 574:./Libraries/STM32_USB_Host_Library/Class/CDC/Src/usbh_cdc.c ****   CDC_HandleTypeDef *CDC_Handle = (CDC_HandleTypeDef *) phost->pActiveClass->pData;
 887              		.loc 1 574 22 view .LVU274
 888 0014 0120     		movs	r0, #1
 889              	.LVL70:
 578:./Libraries/STM32_USB_Host_Library/Class/CDC/Src/usbh_cdc.c ****   {
 579:./Libraries/STM32_USB_Host_Library/Class/CDC/Src/usbh_cdc.c ****     CDC_Handle->pTxData = pbuff;
 580:./Libraries/STM32_USB_Host_Library/Class/CDC/Src/usbh_cdc.c ****     CDC_Handle->TxDataLength = length;
 581:./Libraries/STM32_USB_Host_Library/Class/CDC/Src/usbh_cdc.c ****     CDC_Handle->state = CDC_TRANSFER_DATA;
 582:./Libraries/STM32_USB_Host_Library/Class/CDC/Src/usbh_cdc.c ****     CDC_Handle->data_tx_state = CDC_SEND_DATA;
 583:./Libraries/STM32_USB_Host_Library/Class/CDC/Src/usbh_cdc.c ****     Status = USBH_OK;
 584:./Libraries/STM32_USB_Host_Library/Class/CDC/Src/usbh_cdc.c **** 
 585:./Libraries/STM32_USB_Host_Library/Class/CDC/Src/usbh_cdc.c **** #if (USBH_USE_OS == 1U)
 586:./Libraries/STM32_USB_Host_Library/Class/CDC/Src/usbh_cdc.c ****     phost->os_msg = (uint32_t)USBH_CLASS_EVENT;
 587:./Libraries/STM32_USB_Host_Library/Class/CDC/Src/usbh_cdc.c **** #if (osCMSIS < 0x20000U)
 588:./Libraries/STM32_USB_Host_Library/Class/CDC/Src/usbh_cdc.c ****     (void)osMessagePut(phost->os_event, phost->os_msg, 0U);
 589:./Libraries/STM32_USB_Host_Library/Class/CDC/Src/usbh_cdc.c **** #else
 590:./Libraries/STM32_USB_Host_Library/Class/CDC/Src/usbh_cdc.c ****     (void)osMessageQueuePut(phost->os_event, &phost->os_msg, 0U, NULL);
 591:./Libraries/STM32_USB_Host_Library/Class/CDC/Src/usbh_cdc.c **** #endif
 592:./Libraries/STM32_USB_Host_Library/Class/CDC/Src/usbh_cdc.c **** #endif
 593:./Libraries/STM32_USB_Host_Library/Class/CDC/Src/usbh_cdc.c ****   }
 594:./Libraries/STM32_USB_Host_Library/Class/CDC/Src/usbh_cdc.c ****   return Status;
 890              		.loc 1 594 3 is_stmt 1 view .LVU275
 595:./Libraries/STM32_USB_Host_Library/Class/CDC/Src/usbh_cdc.c **** }
 891              		.loc 1 595 1 is_stmt 0 view .LVU276
 892 0016 70BD     		pop	{r4, r5, r6, pc}
 893              	.LVL71:
 894              	.L74:
 579:./Libraries/STM32_USB_Host_Library/Class/CDC/Src/usbh_cdc.c ****     CDC_Handle->TxDataLength = length;
 895              		.loc 1 579 5 is_stmt 1 view .LVU277
 590:./Libraries/STM32_USB_Host_Library/Class/CDC/Src/usbh_cdc.c **** #endif
 896              		.loc 1 590 11 is_stmt 0 view .LVU278
 897 0018 0023     		movs	r3, #0
 581:./Libraries/STM32_USB_Host_Library/Class/CDC/Src/usbh_cdc.c ****     CDC_Handle->data_tx_state = CDC_SEND_DATA;
 898              		.loc 1 581 23 view .LVU279
 899 001a 40F20316 		movw	r6, #259
 586:./Libraries/STM32_USB_Host_Library/Class/CDC/Src/usbh_cdc.c **** #if (osCMSIS < 0x20000U)
 900              		.loc 1 586 19 view .LVU280
 901 001e 0425     		movs	r5, #4
 579:./Libraries/STM32_USB_Host_Library/Class/CDC/Src/usbh_cdc.c ****     CDC_Handle->TxDataLength = length;
ARM GAS  /tmp/ccJoeMU3.s 			page 31


 902              		.loc 1 579 25 view .LVU281
 903 0020 C161     		str	r1, [r0, #28]
 580:./Libraries/STM32_USB_Host_Library/Class/CDC/Src/usbh_cdc.c ****     CDC_Handle->state = CDC_TRANSFER_DATA;
 904              		.loc 1 580 5 is_stmt 1 view .LVU282
 580:./Libraries/STM32_USB_Host_Library/Class/CDC/Src/usbh_cdc.c ****     CDC_Handle->state = CDC_TRANSFER_DATA;
 905              		.loc 1 580 30 is_stmt 0 view .LVU283
 906 0022 4262     		str	r2, [r0, #36]
 581:./Libraries/STM32_USB_Host_Library/Class/CDC/Src/usbh_cdc.c ****     CDC_Handle->data_tx_state = CDC_SEND_DATA;
 907              		.loc 1 581 5 is_stmt 1 view .LVU284
 582:./Libraries/STM32_USB_Host_Library/Class/CDC/Src/usbh_cdc.c ****     Status = USBH_OK;
 908              		.loc 1 582 5 view .LVU285
 590:./Libraries/STM32_USB_Host_Library/Class/CDC/Src/usbh_cdc.c **** #endif
 909              		.loc 1 590 11 is_stmt 0 view .LVU286
 910 0024 04F59C61 		add	r1, r4, #1248
 911              	.LVL72:
 581:./Libraries/STM32_USB_Host_Library/Class/CDC/Src/usbh_cdc.c ****     CDC_Handle->data_tx_state = CDC_SEND_DATA;
 912              		.loc 1 581 23 view .LVU287
 913 0028 A0F84C60 		strh	r6, [r0, #76]	@ movhi
 583:./Libraries/STM32_USB_Host_Library/Class/CDC/Src/usbh_cdc.c **** 
 914              		.loc 1 583 5 is_stmt 1 view .LVU288
 915              	.LVL73:
 586:./Libraries/STM32_USB_Host_Library/Class/CDC/Src/usbh_cdc.c **** #if (osCMSIS < 0x20000U)
 916              		.loc 1 586 5 view .LVU289
 590:./Libraries/STM32_USB_Host_Library/Class/CDC/Src/usbh_cdc.c **** #endif
 917              		.loc 1 590 11 is_stmt 0 view .LVU290
 918 002c 1A46     		mov	r2, r3
 919              	.LVL74:
 590:./Libraries/STM32_USB_Host_Library/Class/CDC/Src/usbh_cdc.c **** #endif
 920              		.loc 1 590 11 view .LVU291
 921 002e D4F8D804 		ldr	r0, [r4, #1240]
 922              	.LVL75:
 586:./Libraries/STM32_USB_Host_Library/Class/CDC/Src/usbh_cdc.c **** #if (osCMSIS < 0x20000U)
 923              		.loc 1 586 19 view .LVU292
 924 0032 C4F8E054 		str	r5, [r4, #1248]
 590:./Libraries/STM32_USB_Host_Library/Class/CDC/Src/usbh_cdc.c **** #endif
 925              		.loc 1 590 5 is_stmt 1 view .LVU293
 590:./Libraries/STM32_USB_Host_Library/Class/CDC/Src/usbh_cdc.c **** #endif
 926              		.loc 1 590 11 is_stmt 0 view .LVU294
 927 0036 FFF7FEFF 		bl	osMessageQueuePut
 928              	.LVL76:
 583:./Libraries/STM32_USB_Host_Library/Class/CDC/Src/usbh_cdc.c **** 
 929              		.loc 1 583 12 view .LVU295
 930 003a 0020     		movs	r0, #0
 931              	.LVL77:
 594:./Libraries/STM32_USB_Host_Library/Class/CDC/Src/usbh_cdc.c **** }
 932              		.loc 1 594 3 is_stmt 1 view .LVU296
 933              		.loc 1 595 1 is_stmt 0 view .LVU297
 934 003c 70BD     		pop	{r4, r5, r6, pc}
 935              		.loc 1 595 1 view .LVU298
 936              		.cfi_endproc
 937              	.LFE349:
 939 003e 00BF     		.section	.text.USBH_CDC_Receive,"ax",%progbits
 940              		.align	1
 941              		.p2align 2,,3
 942              		.global	USBH_CDC_Receive
 943              		.syntax unified
 944              		.thumb
ARM GAS  /tmp/ccJoeMU3.s 			page 32


 945              		.thumb_func
 946              		.fpu fpv5-d16
 948              	USBH_CDC_Receive:
 949              	.LVL78:
 950              	.LFB350:
 596:./Libraries/STM32_USB_Host_Library/Class/CDC/Src/usbh_cdc.c **** 
 597:./Libraries/STM32_USB_Host_Library/Class/CDC/Src/usbh_cdc.c **** 
 598:./Libraries/STM32_USB_Host_Library/Class/CDC/Src/usbh_cdc.c **** /**
 599:./Libraries/STM32_USB_Host_Library/Class/CDC/Src/usbh_cdc.c **** * @brief  This function prepares the state before issuing the class specific commands
 600:./Libraries/STM32_USB_Host_Library/Class/CDC/Src/usbh_cdc.c **** * @param  None
 601:./Libraries/STM32_USB_Host_Library/Class/CDC/Src/usbh_cdc.c **** * @retval None
 602:./Libraries/STM32_USB_Host_Library/Class/CDC/Src/usbh_cdc.c **** */
 603:./Libraries/STM32_USB_Host_Library/Class/CDC/Src/usbh_cdc.c **** USBH_StatusTypeDef  USBH_CDC_Receive(USBH_HandleTypeDef *phost, uint8_t *pbuff, uint32_t length)
 604:./Libraries/STM32_USB_Host_Library/Class/CDC/Src/usbh_cdc.c **** {
 951              		.loc 1 604 1 is_stmt 1 view -0
 952              		.cfi_startproc
 953              		@ args = 0, pretend = 0, frame = 0
 954              		@ frame_needed = 0, uses_anonymous_args = 0
 605:./Libraries/STM32_USB_Host_Library/Class/CDC/Src/usbh_cdc.c ****   USBH_StatusTypeDef Status = USBH_BUSY;
 955              		.loc 1 605 3 view .LVU300
 606:./Libraries/STM32_USB_Host_Library/Class/CDC/Src/usbh_cdc.c ****   CDC_HandleTypeDef *CDC_Handle = (CDC_HandleTypeDef *) phost->pActiveClass->pData;
 956              		.loc 1 606 3 view .LVU301
 957              		.loc 1 606 22 is_stmt 0 view .LVU302
 958 0000 D0F87C34 		ldr	r3, [r0, #1148]
 604:./Libraries/STM32_USB_Host_Library/Class/CDC/Src/usbh_cdc.c ****   USBH_StatusTypeDef Status = USBH_BUSY;
 959              		.loc 1 604 1 view .LVU303
 960 0004 70B5     		push	{r4, r5, r6, lr}
 961              	.LCFI12:
 962              		.cfi_def_cfa_offset 16
 963              		.cfi_offset 4, -16
 964              		.cfi_offset 5, -12
 965              		.cfi_offset 6, -8
 966              		.cfi_offset 14, -4
 604:./Libraries/STM32_USB_Host_Library/Class/CDC/Src/usbh_cdc.c ****   USBH_StatusTypeDef Status = USBH_BUSY;
 967              		.loc 1 604 1 view .LVU304
 968 0006 0446     		mov	r4, r0
 969              		.loc 1 606 22 view .LVU305
 970 0008 D869     		ldr	r0, [r3, #28]
 971              	.LVL79:
 607:./Libraries/STM32_USB_Host_Library/Class/CDC/Src/usbh_cdc.c **** 
 608:./Libraries/STM32_USB_Host_Library/Class/CDC/Src/usbh_cdc.c ****   if ((CDC_Handle->state == CDC_IDLE_STATE) || (CDC_Handle->state == CDC_TRANSFER_DATA))
 972              		.loc 1 608 3 is_stmt 1 view .LVU306
 973              		.loc 1 608 18 is_stmt 0 view .LVU307
 974 000a 90F84C30 		ldrb	r3, [r0, #76]	@ zero_extendqisi2
 975              		.loc 1 608 6 view .LVU308
 976 000e 1BB1     		cbz	r3, .L80
 977 0010 032B     		cmp	r3, #3
 978 0012 01D0     		beq	.L80
 605:./Libraries/STM32_USB_Host_Library/Class/CDC/Src/usbh_cdc.c ****   CDC_HandleTypeDef *CDC_Handle = (CDC_HandleTypeDef *) phost->pActiveClass->pData;
 979              		.loc 1 605 22 view .LVU309
 980 0014 0120     		movs	r0, #1
 981              	.LVL80:
 609:./Libraries/STM32_USB_Host_Library/Class/CDC/Src/usbh_cdc.c ****   {
 610:./Libraries/STM32_USB_Host_Library/Class/CDC/Src/usbh_cdc.c ****     CDC_Handle->pRxData = pbuff;
 611:./Libraries/STM32_USB_Host_Library/Class/CDC/Src/usbh_cdc.c ****     CDC_Handle->RxDataLength = length;
 612:./Libraries/STM32_USB_Host_Library/Class/CDC/Src/usbh_cdc.c ****     CDC_Handle->state = CDC_TRANSFER_DATA;
 613:./Libraries/STM32_USB_Host_Library/Class/CDC/Src/usbh_cdc.c ****     CDC_Handle->data_rx_state = CDC_RECEIVE_DATA;
ARM GAS  /tmp/ccJoeMU3.s 			page 33


 614:./Libraries/STM32_USB_Host_Library/Class/CDC/Src/usbh_cdc.c ****     Status = USBH_OK;
 615:./Libraries/STM32_USB_Host_Library/Class/CDC/Src/usbh_cdc.c **** 
 616:./Libraries/STM32_USB_Host_Library/Class/CDC/Src/usbh_cdc.c **** #if (USBH_USE_OS == 1U)
 617:./Libraries/STM32_USB_Host_Library/Class/CDC/Src/usbh_cdc.c ****     phost->os_msg = (uint32_t)USBH_CLASS_EVENT;
 618:./Libraries/STM32_USB_Host_Library/Class/CDC/Src/usbh_cdc.c **** #if (osCMSIS < 0x20000U)
 619:./Libraries/STM32_USB_Host_Library/Class/CDC/Src/usbh_cdc.c ****     (void)osMessagePut(phost->os_event, phost->os_msg, 0U);
 620:./Libraries/STM32_USB_Host_Library/Class/CDC/Src/usbh_cdc.c **** #else
 621:./Libraries/STM32_USB_Host_Library/Class/CDC/Src/usbh_cdc.c ****     (void)osMessageQueuePut(phost->os_event, &phost->os_msg, 0U, NULL);
 622:./Libraries/STM32_USB_Host_Library/Class/CDC/Src/usbh_cdc.c **** #endif
 623:./Libraries/STM32_USB_Host_Library/Class/CDC/Src/usbh_cdc.c **** #endif
 624:./Libraries/STM32_USB_Host_Library/Class/CDC/Src/usbh_cdc.c ****   }
 625:./Libraries/STM32_USB_Host_Library/Class/CDC/Src/usbh_cdc.c ****   return Status;
 982              		.loc 1 625 3 is_stmt 1 view .LVU310
 626:./Libraries/STM32_USB_Host_Library/Class/CDC/Src/usbh_cdc.c **** }
 983              		.loc 1 626 1 is_stmt 0 view .LVU311
 984 0016 70BD     		pop	{r4, r5, r6, pc}
 985              	.LVL81:
 986              	.L80:
 610:./Libraries/STM32_USB_Host_Library/Class/CDC/Src/usbh_cdc.c ****     CDC_Handle->RxDataLength = length;
 987              		.loc 1 610 5 is_stmt 1 view .LVU312
 612:./Libraries/STM32_USB_Host_Library/Class/CDC/Src/usbh_cdc.c ****     CDC_Handle->data_rx_state = CDC_RECEIVE_DATA;
 988              		.loc 1 612 23 is_stmt 0 view .LVU313
 989 0018 0325     		movs	r5, #3
 621:./Libraries/STM32_USB_Host_Library/Class/CDC/Src/usbh_cdc.c **** #endif
 990              		.loc 1 621 11 view .LVU314
 991 001a 0023     		movs	r3, #0
 617:./Libraries/STM32_USB_Host_Library/Class/CDC/Src/usbh_cdc.c **** #if (osCMSIS < 0x20000U)
 992              		.loc 1 617 19 view .LVU315
 993 001c 0426     		movs	r6, #4
 610:./Libraries/STM32_USB_Host_Library/Class/CDC/Src/usbh_cdc.c ****     CDC_Handle->RxDataLength = length;
 994              		.loc 1 610 25 view .LVU316
 995 001e 0162     		str	r1, [r0, #32]
 611:./Libraries/STM32_USB_Host_Library/Class/CDC/Src/usbh_cdc.c ****     CDC_Handle->state = CDC_TRANSFER_DATA;
 996              		.loc 1 611 5 is_stmt 1 view .LVU317
 611:./Libraries/STM32_USB_Host_Library/Class/CDC/Src/usbh_cdc.c ****     CDC_Handle->state = CDC_TRANSFER_DATA;
 997              		.loc 1 611 30 is_stmt 0 view .LVU318
 998 0020 8262     		str	r2, [r0, #40]
 612:./Libraries/STM32_USB_Host_Library/Class/CDC/Src/usbh_cdc.c ****     CDC_Handle->data_rx_state = CDC_RECEIVE_DATA;
 999              		.loc 1 612 5 is_stmt 1 view .LVU319
 621:./Libraries/STM32_USB_Host_Library/Class/CDC/Src/usbh_cdc.c **** #endif
 1000              		.loc 1 621 11 is_stmt 0 view .LVU320
 1001 0022 04F59C61 		add	r1, r4, #1248
 1002              	.LVL82:
 612:./Libraries/STM32_USB_Host_Library/Class/CDC/Src/usbh_cdc.c ****     CDC_Handle->data_rx_state = CDC_RECEIVE_DATA;
 1003              		.loc 1 612 23 view .LVU321
 1004 0026 80F84C50 		strb	r5, [r0, #76]
 613:./Libraries/STM32_USB_Host_Library/Class/CDC/Src/usbh_cdc.c ****     Status = USBH_OK;
 1005              		.loc 1 613 5 is_stmt 1 view .LVU322
 621:./Libraries/STM32_USB_Host_Library/Class/CDC/Src/usbh_cdc.c **** #endif
 1006              		.loc 1 621 11 is_stmt 0 view .LVU323
 1007 002a 1A46     		mov	r2, r3
 1008              	.LVL83:
 613:./Libraries/STM32_USB_Host_Library/Class/CDC/Src/usbh_cdc.c ****     Status = USBH_OK;
 1009              		.loc 1 613 31 view .LVU324
 1010 002c 80F84E50 		strb	r5, [r0, #78]
 614:./Libraries/STM32_USB_Host_Library/Class/CDC/Src/usbh_cdc.c **** 
 1011              		.loc 1 614 5 is_stmt 1 view .LVU325
ARM GAS  /tmp/ccJoeMU3.s 			page 34


 1012              	.LVL84:
 617:./Libraries/STM32_USB_Host_Library/Class/CDC/Src/usbh_cdc.c **** #if (osCMSIS < 0x20000U)
 1013              		.loc 1 617 5 view .LVU326
 617:./Libraries/STM32_USB_Host_Library/Class/CDC/Src/usbh_cdc.c **** #if (osCMSIS < 0x20000U)
 1014              		.loc 1 617 19 is_stmt 0 view .LVU327
 1015 0030 C4F8E064 		str	r6, [r4, #1248]
 621:./Libraries/STM32_USB_Host_Library/Class/CDC/Src/usbh_cdc.c **** #endif
 1016              		.loc 1 621 5 is_stmt 1 view .LVU328
 621:./Libraries/STM32_USB_Host_Library/Class/CDC/Src/usbh_cdc.c **** #endif
 1017              		.loc 1 621 11 is_stmt 0 view .LVU329
 1018 0034 D4F8D804 		ldr	r0, [r4, #1240]
 1019              	.LVL85:
 621:./Libraries/STM32_USB_Host_Library/Class/CDC/Src/usbh_cdc.c **** #endif
 1020              		.loc 1 621 11 view .LVU330
 1021 0038 FFF7FEFF 		bl	osMessageQueuePut
 1022              	.LVL86:
 614:./Libraries/STM32_USB_Host_Library/Class/CDC/Src/usbh_cdc.c **** 
 1023              		.loc 1 614 12 view .LVU331
 1024 003c 0020     		movs	r0, #0
 1025              	.LVL87:
 625:./Libraries/STM32_USB_Host_Library/Class/CDC/Src/usbh_cdc.c **** }
 1026              		.loc 1 625 3 is_stmt 1 view .LVU332
 1027              		.loc 1 626 1 is_stmt 0 view .LVU333
 1028 003e 70BD     		pop	{r4, r5, r6, pc}
 1029              		.loc 1 626 1 view .LVU334
 1030              		.cfi_endproc
 1031              	.LFE350:
 1033              		.section	.text.USBH_CDC_TransmitCallback,"ax",%progbits
 1034              		.align	1
 1035              		.p2align 2,,3
 1036              		.weak	USBH_CDC_TransmitCallback
 1037              		.syntax unified
 1038              		.thumb
 1039              		.thumb_func
 1040              		.fpu fpv5-d16
 1042              	USBH_CDC_TransmitCallback:
 1043              	.LFB358:
 1044              		.cfi_startproc
 1045              		@ args = 0, pretend = 0, frame = 0
 1046              		@ frame_needed = 0, uses_anonymous_args = 0
 1047              		@ link register save eliminated.
 1048 0000 7047     		bx	lr
 1049              		.cfi_endproc
 1050              	.LFE358:
 1052 0002 00BF     		.section	.text.USBH_CDC_ReceiveCallback,"ax",%progbits
 1053              		.align	1
 1054              		.p2align 2,,3
 1055              		.weak	USBH_CDC_ReceiveCallback
 1056              		.syntax unified
 1057              		.thumb
 1058              		.thumb_func
 1059              		.fpu fpv5-d16
 1061              	USBH_CDC_ReceiveCallback:
 1062              	.LFB360:
 1063              		.cfi_startproc
 1064              		@ args = 0, pretend = 0, frame = 0
 1065              		@ frame_needed = 0, uses_anonymous_args = 0
ARM GAS  /tmp/ccJoeMU3.s 			page 35


 1066              		@ link register save eliminated.
 1067 0000 7047     		bx	lr
 1068              		.cfi_endproc
 1069              	.LFE360:
 1071 0002 00BF     		.section	.text.USBH_CDC_LineCodingChanged,"ax",%progbits
 1072              		.align	1
 1073              		.p2align 2,,3
 1074              		.weak	USBH_CDC_LineCodingChanged
 1075              		.syntax unified
 1076              		.thumb
 1077              		.thumb_func
 1078              		.fpu fpv5-d16
 1080              	USBH_CDC_LineCodingChanged:
 1081              	.LVL88:
 1082              	.LFB355:
 627:./Libraries/STM32_USB_Host_Library/Class/CDC/Src/usbh_cdc.c **** 
 628:./Libraries/STM32_USB_Host_Library/Class/CDC/Src/usbh_cdc.c **** /**
 629:./Libraries/STM32_USB_Host_Library/Class/CDC/Src/usbh_cdc.c **** * @brief  The function is responsible for sending data to the device
 630:./Libraries/STM32_USB_Host_Library/Class/CDC/Src/usbh_cdc.c **** *  @param  pdev: Selected device
 631:./Libraries/STM32_USB_Host_Library/Class/CDC/Src/usbh_cdc.c **** * @retval None
 632:./Libraries/STM32_USB_Host_Library/Class/CDC/Src/usbh_cdc.c **** */
 633:./Libraries/STM32_USB_Host_Library/Class/CDC/Src/usbh_cdc.c **** static void CDC_ProcessTransmission(USBH_HandleTypeDef *phost)
 634:./Libraries/STM32_USB_Host_Library/Class/CDC/Src/usbh_cdc.c **** {
 635:./Libraries/STM32_USB_Host_Library/Class/CDC/Src/usbh_cdc.c ****   CDC_HandleTypeDef *CDC_Handle = (CDC_HandleTypeDef *) phost->pActiveClass->pData;
 636:./Libraries/STM32_USB_Host_Library/Class/CDC/Src/usbh_cdc.c ****   USBH_URBStateTypeDef URB_Status = USBH_URB_IDLE;
 637:./Libraries/STM32_USB_Host_Library/Class/CDC/Src/usbh_cdc.c **** 
 638:./Libraries/STM32_USB_Host_Library/Class/CDC/Src/usbh_cdc.c ****   switch (CDC_Handle->data_tx_state)
 639:./Libraries/STM32_USB_Host_Library/Class/CDC/Src/usbh_cdc.c ****   {
 640:./Libraries/STM32_USB_Host_Library/Class/CDC/Src/usbh_cdc.c ****     case CDC_SEND_DATA:
 641:./Libraries/STM32_USB_Host_Library/Class/CDC/Src/usbh_cdc.c ****       if (CDC_Handle->TxDataLength > CDC_Handle->DataItf.OutEpSize)
 642:./Libraries/STM32_USB_Host_Library/Class/CDC/Src/usbh_cdc.c ****       {
 643:./Libraries/STM32_USB_Host_Library/Class/CDC/Src/usbh_cdc.c ****         USBH_BulkSendData(phost,
 644:./Libraries/STM32_USB_Host_Library/Class/CDC/Src/usbh_cdc.c ****                           CDC_Handle->pTxData,
 645:./Libraries/STM32_USB_Host_Library/Class/CDC/Src/usbh_cdc.c ****                           CDC_Handle->DataItf.OutEpSize,
 646:./Libraries/STM32_USB_Host_Library/Class/CDC/Src/usbh_cdc.c ****                           CDC_Handle->DataItf.OutPipe,
 647:./Libraries/STM32_USB_Host_Library/Class/CDC/Src/usbh_cdc.c ****                           1U);
 648:./Libraries/STM32_USB_Host_Library/Class/CDC/Src/usbh_cdc.c ****       }
 649:./Libraries/STM32_USB_Host_Library/Class/CDC/Src/usbh_cdc.c ****       else
 650:./Libraries/STM32_USB_Host_Library/Class/CDC/Src/usbh_cdc.c ****       {
 651:./Libraries/STM32_USB_Host_Library/Class/CDC/Src/usbh_cdc.c ****         USBH_BulkSendData(phost,
 652:./Libraries/STM32_USB_Host_Library/Class/CDC/Src/usbh_cdc.c ****                           CDC_Handle->pTxData,
 653:./Libraries/STM32_USB_Host_Library/Class/CDC/Src/usbh_cdc.c ****                           (uint16_t)CDC_Handle->TxDataLength,
 654:./Libraries/STM32_USB_Host_Library/Class/CDC/Src/usbh_cdc.c ****                           CDC_Handle->DataItf.OutPipe,
 655:./Libraries/STM32_USB_Host_Library/Class/CDC/Src/usbh_cdc.c ****                           1U);
 656:./Libraries/STM32_USB_Host_Library/Class/CDC/Src/usbh_cdc.c ****       }
 657:./Libraries/STM32_USB_Host_Library/Class/CDC/Src/usbh_cdc.c **** 
 658:./Libraries/STM32_USB_Host_Library/Class/CDC/Src/usbh_cdc.c ****       CDC_Handle->data_tx_state = CDC_SEND_DATA_WAIT;
 659:./Libraries/STM32_USB_Host_Library/Class/CDC/Src/usbh_cdc.c ****       break;
 660:./Libraries/STM32_USB_Host_Library/Class/CDC/Src/usbh_cdc.c **** 
 661:./Libraries/STM32_USB_Host_Library/Class/CDC/Src/usbh_cdc.c ****     case CDC_SEND_DATA_WAIT:
 662:./Libraries/STM32_USB_Host_Library/Class/CDC/Src/usbh_cdc.c **** 
 663:./Libraries/STM32_USB_Host_Library/Class/CDC/Src/usbh_cdc.c ****       URB_Status = USBH_LL_GetURBState(phost, CDC_Handle->DataItf.OutPipe);
 664:./Libraries/STM32_USB_Host_Library/Class/CDC/Src/usbh_cdc.c **** 
 665:./Libraries/STM32_USB_Host_Library/Class/CDC/Src/usbh_cdc.c ****       /* Check the status done for transmission */
 666:./Libraries/STM32_USB_Host_Library/Class/CDC/Src/usbh_cdc.c ****       if (URB_Status == USBH_URB_DONE)
 667:./Libraries/STM32_USB_Host_Library/Class/CDC/Src/usbh_cdc.c ****       {
 668:./Libraries/STM32_USB_Host_Library/Class/CDC/Src/usbh_cdc.c ****         if (CDC_Handle->TxDataLength > CDC_Handle->DataItf.OutEpSize)
ARM GAS  /tmp/ccJoeMU3.s 			page 36


 669:./Libraries/STM32_USB_Host_Library/Class/CDC/Src/usbh_cdc.c ****         {
 670:./Libraries/STM32_USB_Host_Library/Class/CDC/Src/usbh_cdc.c ****           CDC_Handle->TxDataLength -= CDC_Handle->DataItf.OutEpSize;
 671:./Libraries/STM32_USB_Host_Library/Class/CDC/Src/usbh_cdc.c ****           CDC_Handle->pTxData += CDC_Handle->DataItf.OutEpSize;
 672:./Libraries/STM32_USB_Host_Library/Class/CDC/Src/usbh_cdc.c ****         }
 673:./Libraries/STM32_USB_Host_Library/Class/CDC/Src/usbh_cdc.c ****         else
 674:./Libraries/STM32_USB_Host_Library/Class/CDC/Src/usbh_cdc.c ****         {
 675:./Libraries/STM32_USB_Host_Library/Class/CDC/Src/usbh_cdc.c ****           CDC_Handle->TxDataLength = 0U;
 676:./Libraries/STM32_USB_Host_Library/Class/CDC/Src/usbh_cdc.c ****         }
 677:./Libraries/STM32_USB_Host_Library/Class/CDC/Src/usbh_cdc.c **** 
 678:./Libraries/STM32_USB_Host_Library/Class/CDC/Src/usbh_cdc.c ****         if (CDC_Handle->TxDataLength > 0U)
 679:./Libraries/STM32_USB_Host_Library/Class/CDC/Src/usbh_cdc.c ****         {
 680:./Libraries/STM32_USB_Host_Library/Class/CDC/Src/usbh_cdc.c ****           CDC_Handle->data_tx_state = CDC_SEND_DATA;
 681:./Libraries/STM32_USB_Host_Library/Class/CDC/Src/usbh_cdc.c ****         }
 682:./Libraries/STM32_USB_Host_Library/Class/CDC/Src/usbh_cdc.c ****         else
 683:./Libraries/STM32_USB_Host_Library/Class/CDC/Src/usbh_cdc.c ****         {
 684:./Libraries/STM32_USB_Host_Library/Class/CDC/Src/usbh_cdc.c ****           CDC_Handle->data_tx_state = CDC_IDLE;
 685:./Libraries/STM32_USB_Host_Library/Class/CDC/Src/usbh_cdc.c ****           USBH_CDC_TransmitCallback(phost);
 686:./Libraries/STM32_USB_Host_Library/Class/CDC/Src/usbh_cdc.c ****         }
 687:./Libraries/STM32_USB_Host_Library/Class/CDC/Src/usbh_cdc.c **** 
 688:./Libraries/STM32_USB_Host_Library/Class/CDC/Src/usbh_cdc.c **** #if (USBH_USE_OS == 1U)
 689:./Libraries/STM32_USB_Host_Library/Class/CDC/Src/usbh_cdc.c ****         phost->os_msg = (uint32_t)USBH_CLASS_EVENT;
 690:./Libraries/STM32_USB_Host_Library/Class/CDC/Src/usbh_cdc.c **** #if (osCMSIS < 0x20000U)
 691:./Libraries/STM32_USB_Host_Library/Class/CDC/Src/usbh_cdc.c ****         (void)osMessagePut(phost->os_event, phost->os_msg, 0U);
 692:./Libraries/STM32_USB_Host_Library/Class/CDC/Src/usbh_cdc.c **** #else
 693:./Libraries/STM32_USB_Host_Library/Class/CDC/Src/usbh_cdc.c ****         (void)osMessageQueuePut(phost->os_event, &phost->os_msg, 0U, NULL);
 694:./Libraries/STM32_USB_Host_Library/Class/CDC/Src/usbh_cdc.c **** #endif
 695:./Libraries/STM32_USB_Host_Library/Class/CDC/Src/usbh_cdc.c **** #endif
 696:./Libraries/STM32_USB_Host_Library/Class/CDC/Src/usbh_cdc.c ****       }
 697:./Libraries/STM32_USB_Host_Library/Class/CDC/Src/usbh_cdc.c ****       else
 698:./Libraries/STM32_USB_Host_Library/Class/CDC/Src/usbh_cdc.c ****       {
 699:./Libraries/STM32_USB_Host_Library/Class/CDC/Src/usbh_cdc.c ****         if (URB_Status == USBH_URB_NOTREADY)
 700:./Libraries/STM32_USB_Host_Library/Class/CDC/Src/usbh_cdc.c ****         {
 701:./Libraries/STM32_USB_Host_Library/Class/CDC/Src/usbh_cdc.c ****           CDC_Handle->data_tx_state = CDC_SEND_DATA;
 702:./Libraries/STM32_USB_Host_Library/Class/CDC/Src/usbh_cdc.c **** 
 703:./Libraries/STM32_USB_Host_Library/Class/CDC/Src/usbh_cdc.c **** #if (USBH_USE_OS == 1U)
 704:./Libraries/STM32_USB_Host_Library/Class/CDC/Src/usbh_cdc.c ****           phost->os_msg = (uint32_t)USBH_CLASS_EVENT;
 705:./Libraries/STM32_USB_Host_Library/Class/CDC/Src/usbh_cdc.c **** #if (osCMSIS < 0x20000U)
 706:./Libraries/STM32_USB_Host_Library/Class/CDC/Src/usbh_cdc.c ****           (void)osMessagePut(phost->os_event, phost->os_msg, 0U);
 707:./Libraries/STM32_USB_Host_Library/Class/CDC/Src/usbh_cdc.c **** #else
 708:./Libraries/STM32_USB_Host_Library/Class/CDC/Src/usbh_cdc.c ****           (void)osMessageQueuePut(phost->os_event, &phost->os_msg, 0U, NULL);
 709:./Libraries/STM32_USB_Host_Library/Class/CDC/Src/usbh_cdc.c **** #endif
 710:./Libraries/STM32_USB_Host_Library/Class/CDC/Src/usbh_cdc.c **** #endif
 711:./Libraries/STM32_USB_Host_Library/Class/CDC/Src/usbh_cdc.c ****         }
 712:./Libraries/STM32_USB_Host_Library/Class/CDC/Src/usbh_cdc.c ****       }
 713:./Libraries/STM32_USB_Host_Library/Class/CDC/Src/usbh_cdc.c ****       break;
 714:./Libraries/STM32_USB_Host_Library/Class/CDC/Src/usbh_cdc.c **** 
 715:./Libraries/STM32_USB_Host_Library/Class/CDC/Src/usbh_cdc.c ****     default:
 716:./Libraries/STM32_USB_Host_Library/Class/CDC/Src/usbh_cdc.c ****       break;
 717:./Libraries/STM32_USB_Host_Library/Class/CDC/Src/usbh_cdc.c ****   }
 718:./Libraries/STM32_USB_Host_Library/Class/CDC/Src/usbh_cdc.c **** }
 719:./Libraries/STM32_USB_Host_Library/Class/CDC/Src/usbh_cdc.c **** /**
 720:./Libraries/STM32_USB_Host_Library/Class/CDC/Src/usbh_cdc.c **** * @brief  This function responsible for reception of data from the device
 721:./Libraries/STM32_USB_Host_Library/Class/CDC/Src/usbh_cdc.c **** *  @param  pdev: Selected device
 722:./Libraries/STM32_USB_Host_Library/Class/CDC/Src/usbh_cdc.c **** * @retval None
 723:./Libraries/STM32_USB_Host_Library/Class/CDC/Src/usbh_cdc.c **** */
 724:./Libraries/STM32_USB_Host_Library/Class/CDC/Src/usbh_cdc.c **** 
 725:./Libraries/STM32_USB_Host_Library/Class/CDC/Src/usbh_cdc.c **** static void CDC_ProcessReception(USBH_HandleTypeDef *phost)
ARM GAS  /tmp/ccJoeMU3.s 			page 37


 726:./Libraries/STM32_USB_Host_Library/Class/CDC/Src/usbh_cdc.c **** {
 727:./Libraries/STM32_USB_Host_Library/Class/CDC/Src/usbh_cdc.c ****   CDC_HandleTypeDef *CDC_Handle = (CDC_HandleTypeDef *) phost->pActiveClass->pData;
 728:./Libraries/STM32_USB_Host_Library/Class/CDC/Src/usbh_cdc.c ****   USBH_URBStateTypeDef URB_Status = USBH_URB_IDLE;
 729:./Libraries/STM32_USB_Host_Library/Class/CDC/Src/usbh_cdc.c ****   uint32_t length;
 730:./Libraries/STM32_USB_Host_Library/Class/CDC/Src/usbh_cdc.c **** 
 731:./Libraries/STM32_USB_Host_Library/Class/CDC/Src/usbh_cdc.c ****   switch (CDC_Handle->data_rx_state)
 732:./Libraries/STM32_USB_Host_Library/Class/CDC/Src/usbh_cdc.c ****   {
 733:./Libraries/STM32_USB_Host_Library/Class/CDC/Src/usbh_cdc.c **** 
 734:./Libraries/STM32_USB_Host_Library/Class/CDC/Src/usbh_cdc.c ****     case CDC_RECEIVE_DATA:
 735:./Libraries/STM32_USB_Host_Library/Class/CDC/Src/usbh_cdc.c **** 
 736:./Libraries/STM32_USB_Host_Library/Class/CDC/Src/usbh_cdc.c ****       USBH_BulkReceiveData(phost,
 737:./Libraries/STM32_USB_Host_Library/Class/CDC/Src/usbh_cdc.c ****                            CDC_Handle->pRxData,
 738:./Libraries/STM32_USB_Host_Library/Class/CDC/Src/usbh_cdc.c ****                            CDC_Handle->DataItf.InEpSize,
 739:./Libraries/STM32_USB_Host_Library/Class/CDC/Src/usbh_cdc.c ****                            CDC_Handle->DataItf.InPipe);
 740:./Libraries/STM32_USB_Host_Library/Class/CDC/Src/usbh_cdc.c **** 
 741:./Libraries/STM32_USB_Host_Library/Class/CDC/Src/usbh_cdc.c ****       CDC_Handle->data_rx_state = CDC_RECEIVE_DATA_WAIT;
 742:./Libraries/STM32_USB_Host_Library/Class/CDC/Src/usbh_cdc.c **** 
 743:./Libraries/STM32_USB_Host_Library/Class/CDC/Src/usbh_cdc.c ****       break;
 744:./Libraries/STM32_USB_Host_Library/Class/CDC/Src/usbh_cdc.c **** 
 745:./Libraries/STM32_USB_Host_Library/Class/CDC/Src/usbh_cdc.c ****     case CDC_RECEIVE_DATA_WAIT:
 746:./Libraries/STM32_USB_Host_Library/Class/CDC/Src/usbh_cdc.c **** 
 747:./Libraries/STM32_USB_Host_Library/Class/CDC/Src/usbh_cdc.c ****       URB_Status = USBH_LL_GetURBState(phost, CDC_Handle->DataItf.InPipe);
 748:./Libraries/STM32_USB_Host_Library/Class/CDC/Src/usbh_cdc.c **** 
 749:./Libraries/STM32_USB_Host_Library/Class/CDC/Src/usbh_cdc.c ****       /*Check the status done for reception*/
 750:./Libraries/STM32_USB_Host_Library/Class/CDC/Src/usbh_cdc.c ****       if (URB_Status == USBH_URB_DONE)
 751:./Libraries/STM32_USB_Host_Library/Class/CDC/Src/usbh_cdc.c ****       {
 752:./Libraries/STM32_USB_Host_Library/Class/CDC/Src/usbh_cdc.c ****         length = USBH_LL_GetLastXferSize(phost, CDC_Handle->DataItf.InPipe);
 753:./Libraries/STM32_USB_Host_Library/Class/CDC/Src/usbh_cdc.c **** 
 754:./Libraries/STM32_USB_Host_Library/Class/CDC/Src/usbh_cdc.c ****         if (((CDC_Handle->RxDataLength - length) > 0U) && (length > CDC_Handle->DataItf.InEpSize))
 755:./Libraries/STM32_USB_Host_Library/Class/CDC/Src/usbh_cdc.c ****         {
 756:./Libraries/STM32_USB_Host_Library/Class/CDC/Src/usbh_cdc.c ****           CDC_Handle->RxDataLength -= length ;
 757:./Libraries/STM32_USB_Host_Library/Class/CDC/Src/usbh_cdc.c ****           CDC_Handle->pRxData += length;
 758:./Libraries/STM32_USB_Host_Library/Class/CDC/Src/usbh_cdc.c ****           CDC_Handle->data_rx_state = CDC_RECEIVE_DATA;
 759:./Libraries/STM32_USB_Host_Library/Class/CDC/Src/usbh_cdc.c ****         }
 760:./Libraries/STM32_USB_Host_Library/Class/CDC/Src/usbh_cdc.c ****         else
 761:./Libraries/STM32_USB_Host_Library/Class/CDC/Src/usbh_cdc.c ****         {
 762:./Libraries/STM32_USB_Host_Library/Class/CDC/Src/usbh_cdc.c ****           CDC_Handle->data_rx_state = CDC_IDLE;
 763:./Libraries/STM32_USB_Host_Library/Class/CDC/Src/usbh_cdc.c ****           USBH_CDC_ReceiveCallback(phost);
 764:./Libraries/STM32_USB_Host_Library/Class/CDC/Src/usbh_cdc.c ****         }
 765:./Libraries/STM32_USB_Host_Library/Class/CDC/Src/usbh_cdc.c **** 
 766:./Libraries/STM32_USB_Host_Library/Class/CDC/Src/usbh_cdc.c **** #if (USBH_USE_OS == 1U)
 767:./Libraries/STM32_USB_Host_Library/Class/CDC/Src/usbh_cdc.c ****         phost->os_msg = (uint32_t)USBH_CLASS_EVENT;
 768:./Libraries/STM32_USB_Host_Library/Class/CDC/Src/usbh_cdc.c **** #if (osCMSIS < 0x20000U)
 769:./Libraries/STM32_USB_Host_Library/Class/CDC/Src/usbh_cdc.c ****         (void)osMessagePut(phost->os_event, phost->os_msg, 0U);
 770:./Libraries/STM32_USB_Host_Library/Class/CDC/Src/usbh_cdc.c **** #else
 771:./Libraries/STM32_USB_Host_Library/Class/CDC/Src/usbh_cdc.c ****         (void)osMessageQueuePut(phost->os_event, &phost->os_msg, 0U, NULL);
 772:./Libraries/STM32_USB_Host_Library/Class/CDC/Src/usbh_cdc.c **** #endif
 773:./Libraries/STM32_USB_Host_Library/Class/CDC/Src/usbh_cdc.c **** #endif
 774:./Libraries/STM32_USB_Host_Library/Class/CDC/Src/usbh_cdc.c ****       }
 775:./Libraries/STM32_USB_Host_Library/Class/CDC/Src/usbh_cdc.c ****       break;
 776:./Libraries/STM32_USB_Host_Library/Class/CDC/Src/usbh_cdc.c **** 
 777:./Libraries/STM32_USB_Host_Library/Class/CDC/Src/usbh_cdc.c ****     default:
 778:./Libraries/STM32_USB_Host_Library/Class/CDC/Src/usbh_cdc.c ****       break;
 779:./Libraries/STM32_USB_Host_Library/Class/CDC/Src/usbh_cdc.c ****   }
 780:./Libraries/STM32_USB_Host_Library/Class/CDC/Src/usbh_cdc.c **** }
 781:./Libraries/STM32_USB_Host_Library/Class/CDC/Src/usbh_cdc.c **** 
 782:./Libraries/STM32_USB_Host_Library/Class/CDC/Src/usbh_cdc.c **** /**
ARM GAS  /tmp/ccJoeMU3.s 			page 38


 783:./Libraries/STM32_USB_Host_Library/Class/CDC/Src/usbh_cdc.c **** * @brief  The function informs user that data have been received
 784:./Libraries/STM32_USB_Host_Library/Class/CDC/Src/usbh_cdc.c **** *  @param  pdev: Selected device
 785:./Libraries/STM32_USB_Host_Library/Class/CDC/Src/usbh_cdc.c **** * @retval None
 786:./Libraries/STM32_USB_Host_Library/Class/CDC/Src/usbh_cdc.c **** */
 787:./Libraries/STM32_USB_Host_Library/Class/CDC/Src/usbh_cdc.c **** __weak void USBH_CDC_TransmitCallback(USBH_HandleTypeDef *phost)
 788:./Libraries/STM32_USB_Host_Library/Class/CDC/Src/usbh_cdc.c **** {
 789:./Libraries/STM32_USB_Host_Library/Class/CDC/Src/usbh_cdc.c ****   /* Prevent unused argument(s) compilation warning */
 790:./Libraries/STM32_USB_Host_Library/Class/CDC/Src/usbh_cdc.c ****   UNUSED(phost);
 791:./Libraries/STM32_USB_Host_Library/Class/CDC/Src/usbh_cdc.c **** }
 792:./Libraries/STM32_USB_Host_Library/Class/CDC/Src/usbh_cdc.c **** 
 793:./Libraries/STM32_USB_Host_Library/Class/CDC/Src/usbh_cdc.c **** /**
 794:./Libraries/STM32_USB_Host_Library/Class/CDC/Src/usbh_cdc.c **** * @brief  The function informs user that data have been sent
 795:./Libraries/STM32_USB_Host_Library/Class/CDC/Src/usbh_cdc.c **** *  @param  pdev: Selected device
 796:./Libraries/STM32_USB_Host_Library/Class/CDC/Src/usbh_cdc.c **** * @retval None
 797:./Libraries/STM32_USB_Host_Library/Class/CDC/Src/usbh_cdc.c **** */
 798:./Libraries/STM32_USB_Host_Library/Class/CDC/Src/usbh_cdc.c **** __weak void USBH_CDC_ReceiveCallback(USBH_HandleTypeDef *phost)
 799:./Libraries/STM32_USB_Host_Library/Class/CDC/Src/usbh_cdc.c **** {
 800:./Libraries/STM32_USB_Host_Library/Class/CDC/Src/usbh_cdc.c ****   /* Prevent unused argument(s) compilation warning */
 801:./Libraries/STM32_USB_Host_Library/Class/CDC/Src/usbh_cdc.c ****   UNUSED(phost);
 802:./Libraries/STM32_USB_Host_Library/Class/CDC/Src/usbh_cdc.c **** }
 803:./Libraries/STM32_USB_Host_Library/Class/CDC/Src/usbh_cdc.c **** 
 804:./Libraries/STM32_USB_Host_Library/Class/CDC/Src/usbh_cdc.c **** /**
 805:./Libraries/STM32_USB_Host_Library/Class/CDC/Src/usbh_cdc.c **** * @brief  The function informs user that Settings have been changed
 806:./Libraries/STM32_USB_Host_Library/Class/CDC/Src/usbh_cdc.c **** *  @param  pdev: Selected device
 807:./Libraries/STM32_USB_Host_Library/Class/CDC/Src/usbh_cdc.c **** * @retval None
 808:./Libraries/STM32_USB_Host_Library/Class/CDC/Src/usbh_cdc.c **** */
 809:./Libraries/STM32_USB_Host_Library/Class/CDC/Src/usbh_cdc.c **** __weak void USBH_CDC_LineCodingChanged(USBH_HandleTypeDef *phost)
 810:./Libraries/STM32_USB_Host_Library/Class/CDC/Src/usbh_cdc.c **** {
 1083              		.loc 1 810 1 is_stmt 1 view -0
 1084              		.cfi_startproc
 1085              		@ args = 0, pretend = 0, frame = 0
 1086              		@ frame_needed = 0, uses_anonymous_args = 0
 1087              		@ link register save eliminated.
 811:./Libraries/STM32_USB_Host_Library/Class/CDC/Src/usbh_cdc.c ****   /* Prevent unused argument(s) compilation warning */
 812:./Libraries/STM32_USB_Host_Library/Class/CDC/Src/usbh_cdc.c ****   UNUSED(phost);
 1088              		.loc 1 812 3 view .LVU336
 813:./Libraries/STM32_USB_Host_Library/Class/CDC/Src/usbh_cdc.c **** }
 1089              		.loc 1 813 1 is_stmt 0 view .LVU337
 1090 0000 7047     		bx	lr
 1091              		.cfi_endproc
 1092              	.LFE355:
 1094 0002 00BF     		.section	.text.USBH_CDC_Process,"ax",%progbits
 1095              		.align	1
 1096              		.p2align 2,,3
 1097              		.syntax unified
 1098              		.thumb
 1099              		.thumb_func
 1100              		.fpu fpv5-d16
 1102              	USBH_CDC_Process:
 1103              	.LVL89:
 1104              	.LFB341:
 339:./Libraries/STM32_USB_Host_Library/Class/CDC/Src/usbh_cdc.c ****   USBH_StatusTypeDef status = USBH_BUSY;
 1105              		.loc 1 339 1 is_stmt 1 view -0
 1106              		.cfi_startproc
 1107              		@ args = 0, pretend = 0, frame = 0
 1108              		@ frame_needed = 0, uses_anonymous_args = 0
 340:./Libraries/STM32_USB_Host_Library/Class/CDC/Src/usbh_cdc.c ****   USBH_StatusTypeDef req_status = USBH_OK;
ARM GAS  /tmp/ccJoeMU3.s 			page 39


 1109              		.loc 1 340 3 view .LVU339
 341:./Libraries/STM32_USB_Host_Library/Class/CDC/Src/usbh_cdc.c ****   CDC_HandleTypeDef *CDC_Handle = (CDC_HandleTypeDef *) phost->pActiveClass->pData;
 1110              		.loc 1 341 3 view .LVU340
 342:./Libraries/STM32_USB_Host_Library/Class/CDC/Src/usbh_cdc.c **** 
 1111              		.loc 1 342 3 view .LVU341
 342:./Libraries/STM32_USB_Host_Library/Class/CDC/Src/usbh_cdc.c **** 
 1112              		.loc 1 342 22 is_stmt 0 view .LVU342
 1113 0000 D0F87C34 		ldr	r3, [r0, #1148]
 339:./Libraries/STM32_USB_Host_Library/Class/CDC/Src/usbh_cdc.c ****   USBH_StatusTypeDef status = USBH_BUSY;
 1114              		.loc 1 339 1 view .LVU343
 1115 0004 70B5     		push	{r4, r5, r6, lr}
 1116              	.LCFI13:
 1117              		.cfi_def_cfa_offset 16
 1118              		.cfi_offset 4, -16
 1119              		.cfi_offset 5, -12
 1120              		.cfi_offset 6, -8
 1121              		.cfi_offset 14, -4
 342:./Libraries/STM32_USB_Host_Library/Class/CDC/Src/usbh_cdc.c **** 
 1122              		.loc 1 342 22 view .LVU344
 1123 0006 DE69     		ldr	r6, [r3, #28]
 1124              	.LVL90:
 344:./Libraries/STM32_USB_Host_Library/Class/CDC/Src/usbh_cdc.c ****   {
 1125              		.loc 1 344 3 is_stmt 1 view .LVU345
 339:./Libraries/STM32_USB_Host_Library/Class/CDC/Src/usbh_cdc.c ****   USBH_StatusTypeDef status = USBH_BUSY;
 1126              		.loc 1 339 1 is_stmt 0 view .LVU346
 1127 0008 82B0     		sub	sp, sp, #8
 1128              	.LCFI14:
 1129              		.cfi_def_cfa_offset 24
 339:./Libraries/STM32_USB_Host_Library/Class/CDC/Src/usbh_cdc.c ****   USBH_StatusTypeDef status = USBH_BUSY;
 1130              		.loc 1 339 1 view .LVU347
 1131 000a 0446     		mov	r4, r0
 344:./Libraries/STM32_USB_Host_Library/Class/CDC/Src/usbh_cdc.c ****   {
 1132              		.loc 1 344 21 view .LVU348
 1133 000c 96F84C50 		ldrb	r5, [r6, #76]	@ zero_extendqisi2
 1134 0010 042D     		cmp	r5, #4
 1135 0012 73D8     		bhi	.L96
 1136 0014 DFE805F0 		tbb	[pc, r5]
 1137              	.L88:
 1138 0018 57       		.byte	(.L92-.L88)/2
 1139 0019 7F       		.byte	(.L91-.L88)/2
 1140 001a 5A       		.byte	(.L90-.L88)/2
 1141 001b 03       		.byte	(.L89-.L88)/2
 1142 001c 76       		.byte	(.L87-.L88)/2
 1143 001d 00       		.p2align 1
 1144              	.L89:
 394:./Libraries/STM32_USB_Host_Library/Class/CDC/Src/usbh_cdc.c ****       CDC_ProcessReception(phost);
 1145              		.loc 1 394 7 is_stmt 1 view .LVU349
 1146              	.LVL91:
 1147              	.LBB32:
 1148              	.LBI32:
 633:./Libraries/STM32_USB_Host_Library/Class/CDC/Src/usbh_cdc.c **** {
 1149              		.loc 1 633 13 view .LVU350
 1150              	.LBB33:
 635:./Libraries/STM32_USB_Host_Library/Class/CDC/Src/usbh_cdc.c ****   USBH_URBStateTypeDef URB_Status = USBH_URB_IDLE;
 1151              		.loc 1 635 3 view .LVU351
 636:./Libraries/STM32_USB_Host_Library/Class/CDC/Src/usbh_cdc.c **** 
 1152              		.loc 1 636 3 view .LVU352
ARM GAS  /tmp/ccJoeMU3.s 			page 40


 638:./Libraries/STM32_USB_Host_Library/Class/CDC/Src/usbh_cdc.c ****   {
 1153              		.loc 1 638 3 view .LVU353
 638:./Libraries/STM32_USB_Host_Library/Class/CDC/Src/usbh_cdc.c ****   {
 1154              		.loc 1 638 21 is_stmt 0 view .LVU354
 1155 001e 96F84D50 		ldrb	r5, [r6, #77]	@ zero_extendqisi2
 638:./Libraries/STM32_USB_Host_Library/Class/CDC/Src/usbh_cdc.c ****   {
 1156              		.loc 1 638 3 view .LVU355
 1157 0022 012D     		cmp	r5, #1
 1158 0024 00F09380 		beq	.L97
 1159 0028 022D     		cmp	r5, #2
 1160 002a 20D1     		bne	.L99
 663:./Libraries/STM32_USB_Host_Library/Class/CDC/Src/usbh_cdc.c **** 
 1161              		.loc 1 663 7 is_stmt 1 view .LVU356
 663:./Libraries/STM32_USB_Host_Library/Class/CDC/Src/usbh_cdc.c **** 
 1162              		.loc 1 663 20 is_stmt 0 view .LVU357
 1163 002c 717B     		ldrb	r1, [r6, #13]	@ zero_extendqisi2
 1164 002e FFF7FEFF 		bl	USBH_LL_GetURBState
 1165              	.LVL92:
 666:./Libraries/STM32_USB_Host_Library/Class/CDC/Src/usbh_cdc.c ****       {
 1166              		.loc 1 666 7 is_stmt 1 view .LVU358
 666:./Libraries/STM32_USB_Host_Library/Class/CDC/Src/usbh_cdc.c ****       {
 1167              		.loc 1 666 10 is_stmt 0 view .LVU359
 1168 0032 0128     		cmp	r0, #1
 1169 0034 40F0A780 		bne	.L102
 668:./Libraries/STM32_USB_Host_Library/Class/CDC/Src/usbh_cdc.c ****         {
 1170              		.loc 1 668 9 is_stmt 1 view .LVU360
 668:./Libraries/STM32_USB_Host_Library/Class/CDC/Src/usbh_cdc.c ****         {
 1171              		.loc 1 668 23 is_stmt 0 view .LVU361
 1172 0038 736A     		ldr	r3, [r6, #36]
 668:./Libraries/STM32_USB_Host_Library/Class/CDC/Src/usbh_cdc.c ****         {
 1173              		.loc 1 668 38 view .LVU362
 1174 003a 328B     		ldrh	r2, [r6, #24]
 668:./Libraries/STM32_USB_Host_Library/Class/CDC/Src/usbh_cdc.c ****         {
 1175              		.loc 1 668 12 view .LVU363
 1176 003c 9342     		cmp	r3, r2
 1177 003e 00F2B180 		bhi	.L118
 675:./Libraries/STM32_USB_Host_Library/Class/CDC/Src/usbh_cdc.c ****         }
 1178              		.loc 1 675 11 is_stmt 1 view .LVU364
 675:./Libraries/STM32_USB_Host_Library/Class/CDC/Src/usbh_cdc.c ****         }
 1179              		.loc 1 675 36 is_stmt 0 view .LVU365
 1180 0042 0023     		movs	r3, #0
 1181 0044 7362     		str	r3, [r6, #36]
 678:./Libraries/STM32_USB_Host_Library/Class/CDC/Src/usbh_cdc.c ****         {
 1182              		.loc 1 678 9 is_stmt 1 view .LVU366
 1183              	.L105:
 684:./Libraries/STM32_USB_Host_Library/Class/CDC/Src/usbh_cdc.c ****           USBH_CDC_TransmitCallback(phost);
 1184              		.loc 1 684 11 view .LVU367
 684:./Libraries/STM32_USB_Host_Library/Class/CDC/Src/usbh_cdc.c ****           USBH_CDC_TransmitCallback(phost);
 1185              		.loc 1 684 37 is_stmt 0 view .LVU368
 1186 0046 0023     		movs	r3, #0
 685:./Libraries/STM32_USB_Host_Library/Class/CDC/Src/usbh_cdc.c ****         }
 1187              		.loc 1 685 11 view .LVU369
 1188 0048 2046     		mov	r0, r4
 1189              	.LVL93:
 684:./Libraries/STM32_USB_Host_Library/Class/CDC/Src/usbh_cdc.c ****           USBH_CDC_TransmitCallback(phost);
 1190              		.loc 1 684 37 view .LVU370
 1191 004a 86F84D30 		strb	r3, [r6, #77]
ARM GAS  /tmp/ccJoeMU3.s 			page 41


 685:./Libraries/STM32_USB_Host_Library/Class/CDC/Src/usbh_cdc.c ****         }
 1192              		.loc 1 685 11 is_stmt 1 view .LVU371
 1193 004e FFF7FEFF 		bl	USBH_CDC_TransmitCallback
 1194              	.LVL94:
 1195              	.L106:
 689:./Libraries/STM32_USB_Host_Library/Class/CDC/Src/usbh_cdc.c **** #if (osCMSIS < 0x20000U)
 1196              		.loc 1 689 9 view .LVU372
 693:./Libraries/STM32_USB_Host_Library/Class/CDC/Src/usbh_cdc.c **** #endif
 1197              		.loc 1 693 15 is_stmt 0 view .LVU373
 1198 0052 0023     		movs	r3, #0
 689:./Libraries/STM32_USB_Host_Library/Class/CDC/Src/usbh_cdc.c **** #if (osCMSIS < 0x20000U)
 1199              		.loc 1 689 23 view .LVU374
 1200 0054 0422     		movs	r2, #4
 693:./Libraries/STM32_USB_Host_Library/Class/CDC/Src/usbh_cdc.c **** #endif
 1201              		.loc 1 693 15 view .LVU375
 1202 0056 04F59C61 		add	r1, r4, #1248
 1203 005a D4F8D804 		ldr	r0, [r4, #1240]
 689:./Libraries/STM32_USB_Host_Library/Class/CDC/Src/usbh_cdc.c **** #if (osCMSIS < 0x20000U)
 1204              		.loc 1 689 23 view .LVU376
 1205 005e C4F8E024 		str	r2, [r4, #1248]
 693:./Libraries/STM32_USB_Host_Library/Class/CDC/Src/usbh_cdc.c **** #endif
 1206              		.loc 1 693 9 is_stmt 1 view .LVU377
 693:./Libraries/STM32_USB_Host_Library/Class/CDC/Src/usbh_cdc.c **** #endif
 1207              		.loc 1 693 15 is_stmt 0 view .LVU378
 1208 0062 1A46     		mov	r2, r3
 1209 0064 FFF7FEFF 		bl	osMessageQueuePut
 1210              	.LVL95:
 1211 0068 D4F87C34 		ldr	r3, [r4, #1148]
 1212 006c DE69     		ldr	r6, [r3, #28]
 1213              	.LVL96:
 1214              	.L99:
 693:./Libraries/STM32_USB_Host_Library/Class/CDC/Src/usbh_cdc.c **** #endif
 1215              		.loc 1 693 15 view .LVU379
 1216              	.LBE33:
 1217              	.LBE32:
 395:./Libraries/STM32_USB_Host_Library/Class/CDC/Src/usbh_cdc.c ****       break;
 1218              		.loc 1 395 7 is_stmt 1 view .LVU380
 1219              	.LBB37:
 1220              	.LBI37:
 725:./Libraries/STM32_USB_Host_Library/Class/CDC/Src/usbh_cdc.c **** {
 1221              		.loc 1 725 13 view .LVU381
 1222              	.LBB38:
 727:./Libraries/STM32_USB_Host_Library/Class/CDC/Src/usbh_cdc.c ****   USBH_URBStateTypeDef URB_Status = USBH_URB_IDLE;
 1223              		.loc 1 727 3 view .LVU382
 728:./Libraries/STM32_USB_Host_Library/Class/CDC/Src/usbh_cdc.c ****   uint32_t length;
 1224              		.loc 1 728 3 view .LVU383
 729:./Libraries/STM32_USB_Host_Library/Class/CDC/Src/usbh_cdc.c **** 
 1225              		.loc 1 729 3 view .LVU384
 731:./Libraries/STM32_USB_Host_Library/Class/CDC/Src/usbh_cdc.c ****   {
 1226              		.loc 1 731 3 view .LVU385
 731:./Libraries/STM32_USB_Host_Library/Class/CDC/Src/usbh_cdc.c ****   {
 1227              		.loc 1 731 21 is_stmt 0 view .LVU386
 1228 006e 96F84E30 		ldrb	r3, [r6, #78]	@ zero_extendqisi2
 731:./Libraries/STM32_USB_Host_Library/Class/CDC/Src/usbh_cdc.c ****   {
 1229              		.loc 1 731 3 view .LVU387
 1230 0072 032B     		cmp	r3, #3
 1231 0074 7CD0     		beq	.L108
ARM GAS  /tmp/ccJoeMU3.s 			page 42


 1232 0076 042B     		cmp	r3, #4
 1233 0078 40D1     		bne	.L96
 747:./Libraries/STM32_USB_Host_Library/Class/CDC/Src/usbh_cdc.c **** 
 1234              		.loc 1 747 7 is_stmt 1 view .LVU388
 747:./Libraries/STM32_USB_Host_Library/Class/CDC/Src/usbh_cdc.c **** 
 1235              		.loc 1 747 20 is_stmt 0 view .LVU389
 1236 007a 317B     		ldrb	r1, [r6, #12]	@ zero_extendqisi2
 1237 007c 2046     		mov	r0, r4
 1238 007e FFF7FEFF 		bl	USBH_LL_GetURBState
 1239              	.LVL97:
 750:./Libraries/STM32_USB_Host_Library/Class/CDC/Src/usbh_cdc.c ****       {
 1240              		.loc 1 750 10 view .LVU390
 1241 0082 0128     		cmp	r0, #1
 747:./Libraries/STM32_USB_Host_Library/Class/CDC/Src/usbh_cdc.c **** 
 1242              		.loc 1 747 20 view .LVU391
 1243 0084 0546     		mov	r5, r0
 1244              	.LVL98:
 750:./Libraries/STM32_USB_Host_Library/Class/CDC/Src/usbh_cdc.c ****       {
 1245              		.loc 1 750 7 is_stmt 1 view .LVU392
 750:./Libraries/STM32_USB_Host_Library/Class/CDC/Src/usbh_cdc.c ****       {
 1246              		.loc 1 750 10 is_stmt 0 view .LVU393
 1247 0086 39D1     		bne	.L96
 752:./Libraries/STM32_USB_Host_Library/Class/CDC/Src/usbh_cdc.c **** 
 1248              		.loc 1 752 9 is_stmt 1 view .LVU394
 752:./Libraries/STM32_USB_Host_Library/Class/CDC/Src/usbh_cdc.c **** 
 1249              		.loc 1 752 18 is_stmt 0 view .LVU395
 1250 0088 317B     		ldrb	r1, [r6, #12]	@ zero_extendqisi2
 1251 008a 2046     		mov	r0, r4
 1252              	.LVL99:
 752:./Libraries/STM32_USB_Host_Library/Class/CDC/Src/usbh_cdc.c **** 
 1253              		.loc 1 752 18 view .LVU396
 1254 008c FFF7FEFF 		bl	USBH_LL_GetLastXferSize
 1255              	.LVL100:
 754:./Libraries/STM32_USB_Host_Library/Class/CDC/Src/usbh_cdc.c ****         {
 1256              		.loc 1 754 25 view .LVU397
 1257 0090 B36A     		ldr	r3, [r6, #40]
 1258              	.LVL101:
 754:./Libraries/STM32_USB_Host_Library/Class/CDC/Src/usbh_cdc.c ****         {
 1259              		.loc 1 754 9 is_stmt 1 view .LVU398
 754:./Libraries/STM32_USB_Host_Library/Class/CDC/Src/usbh_cdc.c ****         {
 1260              		.loc 1 754 12 is_stmt 0 view .LVU399
 1261 0092 9842     		cmp	r0, r3
 1262 0094 00F0A080 		beq	.L110
 754:./Libraries/STM32_USB_Host_Library/Class/CDC/Src/usbh_cdc.c ****         {
 1263              		.loc 1 754 88 view .LVU400
 1264 0098 728B     		ldrh	r2, [r6, #26]
 754:./Libraries/STM32_USB_Host_Library/Class/CDC/Src/usbh_cdc.c ****         {
 1265              		.loc 1 754 56 view .LVU401
 1266 009a 9042     		cmp	r0, r2
 1267 009c 40F29C80 		bls	.L110
 756:./Libraries/STM32_USB_Host_Library/Class/CDC/Src/usbh_cdc.c ****           CDC_Handle->pRxData += length;
 1268              		.loc 1 756 11 is_stmt 1 view .LVU402
 757:./Libraries/STM32_USB_Host_Library/Class/CDC/Src/usbh_cdc.c ****           CDC_Handle->data_rx_state = CDC_RECEIVE_DATA;
 1269              		.loc 1 757 31 is_stmt 0 view .LVU403
 1270 00a0 326A     		ldr	r2, [r6, #32]
 756:./Libraries/STM32_USB_Host_Library/Class/CDC/Src/usbh_cdc.c ****           CDC_Handle->pRxData += length;
 1271              		.loc 1 756 36 view .LVU404
ARM GAS  /tmp/ccJoeMU3.s 			page 43


 1272 00a2 1B1A     		subs	r3, r3, r0
 758:./Libraries/STM32_USB_Host_Library/Class/CDC/Src/usbh_cdc.c ****         }
 1273              		.loc 1 758 37 view .LVU405
 1274 00a4 0321     		movs	r1, #3
 757:./Libraries/STM32_USB_Host_Library/Class/CDC/Src/usbh_cdc.c ****           CDC_Handle->data_rx_state = CDC_RECEIVE_DATA;
 1275              		.loc 1 757 31 view .LVU406
 1276 00a6 0244     		add	r2, r2, r0
 756:./Libraries/STM32_USB_Host_Library/Class/CDC/Src/usbh_cdc.c ****           CDC_Handle->pRxData += length;
 1277              		.loc 1 756 36 view .LVU407
 1278 00a8 B362     		str	r3, [r6, #40]
 757:./Libraries/STM32_USB_Host_Library/Class/CDC/Src/usbh_cdc.c ****           CDC_Handle->data_rx_state = CDC_RECEIVE_DATA;
 1279              		.loc 1 757 11 is_stmt 1 view .LVU408
 758:./Libraries/STM32_USB_Host_Library/Class/CDC/Src/usbh_cdc.c ****         }
 1280              		.loc 1 758 37 is_stmt 0 view .LVU409
 1281 00aa 86F84E10 		strb	r1, [r6, #78]
 757:./Libraries/STM32_USB_Host_Library/Class/CDC/Src/usbh_cdc.c ****           CDC_Handle->data_rx_state = CDC_RECEIVE_DATA;
 1282              		.loc 1 757 31 view .LVU410
 1283 00ae 3262     		str	r2, [r6, #32]
 758:./Libraries/STM32_USB_Host_Library/Class/CDC/Src/usbh_cdc.c ****         }
 1284              		.loc 1 758 11 is_stmt 1 view .LVU411
 1285              	.LVL102:
 1286              	.L111:
 767:./Libraries/STM32_USB_Host_Library/Class/CDC/Src/usbh_cdc.c **** #if (osCMSIS < 0x20000U)
 1287              		.loc 1 767 9 view .LVU412
 767:./Libraries/STM32_USB_Host_Library/Class/CDC/Src/usbh_cdc.c **** #if (osCMSIS < 0x20000U)
 1288              		.loc 1 767 23 is_stmt 0 view .LVU413
 1289 00b0 0422     		movs	r2, #4
 771:./Libraries/STM32_USB_Host_Library/Class/CDC/Src/usbh_cdc.c **** #endif
 1290              		.loc 1 771 15 view .LVU414
 1291 00b2 0023     		movs	r3, #0
 1292 00b4 04F59C61 		add	r1, r4, #1248
 1293 00b8 D4F8D804 		ldr	r0, [r4, #1240]
 767:./Libraries/STM32_USB_Host_Library/Class/CDC/Src/usbh_cdc.c **** #if (osCMSIS < 0x20000U)
 1294              		.loc 1 767 23 view .LVU415
 1295 00bc C4F8E024 		str	r2, [r4, #1248]
 771:./Libraries/STM32_USB_Host_Library/Class/CDC/Src/usbh_cdc.c **** #endif
 1296              		.loc 1 771 9 is_stmt 1 view .LVU416
 771:./Libraries/STM32_USB_Host_Library/Class/CDC/Src/usbh_cdc.c **** #endif
 1297              		.loc 1 771 15 is_stmt 0 view .LVU417
 1298 00c0 1A46     		mov	r2, r3
 1299 00c2 FFF7FEFF 		bl	osMessageQueuePut
 1300              	.LVL103:
 1301              	.L92:
 771:./Libraries/STM32_USB_Host_Library/Class/CDC/Src/usbh_cdc.c **** #endif
 1302              		.loc 1 771 15 view .LVU418
 1303              	.LBE38:
 1304              	.LBE37:
 413:./Libraries/STM32_USB_Host_Library/Class/CDC/Src/usbh_cdc.c **** }
 1305              		.loc 1 413 3 is_stmt 1 view .LVU419
 414:./Libraries/STM32_USB_Host_Library/Class/CDC/Src/usbh_cdc.c **** 
 1306              		.loc 1 414 1 is_stmt 0 view .LVU420
 1307 00c6 2846     		mov	r0, r5
 1308 00c8 02B0     		add	sp, sp, #8
 1309              	.LCFI15:
 1310              		.cfi_remember_state
 1311              		.cfi_def_cfa_offset 16
 1312              		@ sp needed
ARM GAS  /tmp/ccJoeMU3.s 			page 44


 1313 00ca 70BD     		pop	{r4, r5, r6, pc}
 1314              	.LVL104:
 1315              	.L90:
 1316              	.LCFI16:
 1317              		.cfi_restore_state
 370:./Libraries/STM32_USB_Host_Library/Class/CDC/Src/usbh_cdc.c **** 
 1318              		.loc 1 370 7 is_stmt 1 view .LVU421
 1319              	.LBB42:
 1320              	.LBI42:
 457:./Libraries/STM32_USB_Host_Library/Class/CDC/Src/usbh_cdc.c **** {
 1321              		.loc 1 457 27 view .LVU422
 1322              	.LBB43:
 460:./Libraries/STM32_USB_Host_Library/Class/CDC/Src/usbh_cdc.c ****                                          USB_REQ_RECIPIENT_INTERFACE;
 1323              		.loc 1 460 3 view .LVU423
 463:./Libraries/STM32_USB_Host_Library/Class/CDC/Src/usbh_cdc.c ****   phost->Control.setup.b.wValue.w = 0U;
 1324              		.loc 1 463 3 view .LVU424
 464:./Libraries/STM32_USB_Host_Library/Class/CDC/Src/usbh_cdc.c ****   phost->Control.setup.b.wIndex.w = 0U;
 1325              		.loc 1 464 3 view .LVU425
 465:./Libraries/STM32_USB_Host_Library/Class/CDC/Src/usbh_cdc.c ****   phost->Control.setup.b.wLength.w = LINE_CODING_STRUCTURE_SIZE;
 1326              		.loc 1 465 3 view .LVU426
 466:./Libraries/STM32_USB_Host_Library/Class/CDC/Src/usbh_cdc.c **** 
 1327              		.loc 1 466 3 view .LVU427
 460:./Libraries/STM32_USB_Host_Library/Class/CDC/Src/usbh_cdc.c ****                                          USB_REQ_RECIPIENT_INTERFACE;
 1328              		.loc 1 460 40 is_stmt 0 view .LVU428
 1329 00cc 42F2A110 		movw	r0, #8609
 1330              	.LVL105:
 465:./Libraries/STM32_USB_Host_Library/Class/CDC/Src/usbh_cdc.c ****   phost->Control.setup.b.wLength.w = LINE_CODING_STRUCTURE_SIZE;
 1331              		.loc 1 465 35 view .LVU429
 1332 00d0 4FF4E023 		mov	r3, #458752
 468:./Libraries/STM32_USB_Host_Library/Class/CDC/Src/usbh_cdc.c **** }
 1333              		.loc 1 468 10 view .LVU430
 1334 00d4 0722     		movs	r2, #7
 1335 00d6 06F14001 		add	r1, r6, #64
 1336              	.LVL106:
 460:./Libraries/STM32_USB_Host_Library/Class/CDC/Src/usbh_cdc.c ****                                          USB_REQ_RECIPIENT_INTERFACE;
 1337              		.loc 1 460 40 view .LVU431
 1338 00da 2061     		str	r0, [r4, #16]
 468:./Libraries/STM32_USB_Host_Library/Class/CDC/Src/usbh_cdc.c **** }
 1339              		.loc 1 468 10 view .LVU432
 1340 00dc 2046     		mov	r0, r4
 465:./Libraries/STM32_USB_Host_Library/Class/CDC/Src/usbh_cdc.c ****   phost->Control.setup.b.wLength.w = LINE_CODING_STRUCTURE_SIZE;
 1341              		.loc 1 465 35 view .LVU433
 1342 00de 6361     		str	r3, [r4, #20]
 468:./Libraries/STM32_USB_Host_Library/Class/CDC/Src/usbh_cdc.c **** }
 1343              		.loc 1 468 3 is_stmt 1 view .LVU434
 468:./Libraries/STM32_USB_Host_Library/Class/CDC/Src/usbh_cdc.c **** }
 1344              		.loc 1 468 10 is_stmt 0 view .LVU435
 1345 00e0 FFF7FEFF 		bl	USBH_CtlReq
 1346              	.LVL107:
 468:./Libraries/STM32_USB_Host_Library/Class/CDC/Src/usbh_cdc.c **** }
 1347              		.loc 1 468 10 view .LVU436
 1348              	.LBE43:
 1349              	.LBE42:
 372:./Libraries/STM32_USB_Host_Library/Class/CDC/Src/usbh_cdc.c ****       {
 1350              		.loc 1 372 7 is_stmt 1 view .LVU437
 372:./Libraries/STM32_USB_Host_Library/Class/CDC/Src/usbh_cdc.c ****       {
 1351              		.loc 1 372 10 is_stmt 0 view .LVU438
ARM GAS  /tmp/ccJoeMU3.s 			page 45


 1352 00e4 60BB     		cbnz	r0, .L95
 374:./Libraries/STM32_USB_Host_Library/Class/CDC/Src/usbh_cdc.c **** 
 1353              		.loc 1 374 9 is_stmt 1 view .LVU439
 376:./Libraries/STM32_USB_Host_Library/Class/CDC/Src/usbh_cdc.c ****             (CDC_Handle->LineCoding.b.bDataBits == CDC_Handle->pUserLineCoding->b.bDataBits) &&
 1354              		.loc 1 376 64 is_stmt 0 view .LVU440
 1355 00e6 B16C     		ldr	r1, [r6, #72]
 377:./Libraries/STM32_USB_Host_Library/Class/CDC/Src/usbh_cdc.c ****             (CDC_Handle->LineCoding.b.bParityType == CDC_Handle->pUserLineCoding->b.bParityType) &&
 1356              		.loc 1 377 94 view .LVU441
 1357 00e8 726C     		ldr	r2, [r6, #68]
 374:./Libraries/STM32_USB_Host_Library/Class/CDC/Src/usbh_cdc.c **** 
 1358              		.loc 1 374 27 view .LVU442
 1359 00ea 86F84C00 		strb	r0, [r6, #76]
 376:./Libraries/STM32_USB_Host_Library/Class/CDC/Src/usbh_cdc.c ****             (CDC_Handle->LineCoding.b.bDataBits == CDC_Handle->pUserLineCoding->b.bDataBits) &&
 1360              		.loc 1 376 9 is_stmt 1 view .LVU443
 377:./Libraries/STM32_USB_Host_Library/Class/CDC/Src/usbh_cdc.c ****             (CDC_Handle->LineCoding.b.bParityType == CDC_Handle->pUserLineCoding->b.bParityType) &&
 1361              		.loc 1 377 94 is_stmt 0 view .LVU444
 1362 00ee 4B68     		ldr	r3, [r1, #4]
 1363 00f0 22F07F42 		bic	r2, r2, #-16777216
 1364 00f4 23F07F43 		bic	r3, r3, #-16777216
 376:./Libraries/STM32_USB_Host_Library/Class/CDC/Src/usbh_cdc.c ****             (CDC_Handle->LineCoding.b.bDataBits == CDC_Handle->pUserLineCoding->b.bDataBits) &&
 1365              		.loc 1 376 12 view .LVU445
 1366 00f8 9A42     		cmp	r2, r3
 1367 00fa 4AD0     		beq	.L119
 1368              	.LVL108:
 1369              	.L96:
 340:./Libraries/STM32_USB_Host_Library/Class/CDC/Src/usbh_cdc.c ****   USBH_StatusTypeDef req_status = USBH_OK;
 1370              		.loc 1 340 22 view .LVU446
 1371 00fc 0125     		movs	r5, #1
 1372              	.LVL109:
 413:./Libraries/STM32_USB_Host_Library/Class/CDC/Src/usbh_cdc.c **** }
 1373              		.loc 1 413 3 is_stmt 1 view .LVU447
 414:./Libraries/STM32_USB_Host_Library/Class/CDC/Src/usbh_cdc.c **** 
 1374              		.loc 1 414 1 is_stmt 0 view .LVU448
 1375 00fe 2846     		mov	r0, r5
 1376 0100 02B0     		add	sp, sp, #8
 1377              	.LCFI17:
 1378              		.cfi_remember_state
 1379              		.cfi_def_cfa_offset 16
 1380              		@ sp needed
 1381 0102 70BD     		pop	{r4, r5, r6, pc}
 1382              	.LVL110:
 1383              	.L87:
 1384              	.LCFI18:
 1385              		.cfi_restore_state
 399:./Libraries/STM32_USB_Host_Library/Class/CDC/Src/usbh_cdc.c **** 
 1386              		.loc 1 399 7 is_stmt 1 view .LVU449
 399:./Libraries/STM32_USB_Host_Library/Class/CDC/Src/usbh_cdc.c **** 
 1387              		.loc 1 399 20 is_stmt 0 view .LVU450
 1388 0104 0021     		movs	r1, #0
 1389 0106 FFF7FEFF 		bl	USBH_ClrFeature
 1390              	.LVL111:
 401:./Libraries/STM32_USB_Host_Library/Class/CDC/Src/usbh_cdc.c ****       {
 1391              		.loc 1 401 7 is_stmt 1 view .LVU451
 401:./Libraries/STM32_USB_Host_Library/Class/CDC/Src/usbh_cdc.c ****       {
 1392              		.loc 1 401 10 is_stmt 0 view .LVU452
 1393 010a 0028     		cmp	r0, #0
 1394 010c F6D1     		bne	.L96
ARM GAS  /tmp/ccJoeMU3.s 			page 46


 404:./Libraries/STM32_USB_Host_Library/Class/CDC/Src/usbh_cdc.c ****       }
 1395              		.loc 1 404 9 is_stmt 1 view .LVU453
 340:./Libraries/STM32_USB_Host_Library/Class/CDC/Src/usbh_cdc.c ****   USBH_StatusTypeDef req_status = USBH_OK;
 1396              		.loc 1 340 22 is_stmt 0 view .LVU454
 1397 010e 0125     		movs	r5, #1
 404:./Libraries/STM32_USB_Host_Library/Class/CDC/Src/usbh_cdc.c ****       }
 1398              		.loc 1 404 27 view .LVU455
 1399 0110 86F84C00 		strb	r0, [r6, #76]
 1400 0114 D7E7     		b	.L92
 1401              	.LVL112:
 1402              	.L91:
 352:./Libraries/STM32_USB_Host_Library/Class/CDC/Src/usbh_cdc.c **** 
 1403              		.loc 1 352 7 is_stmt 1 view .LVU456
 1404              	.LBB44:
 1405              	.LBB45:
 489:./Libraries/STM32_USB_Host_Library/Class/CDC/Src/usbh_cdc.c **** 
 1406              		.loc 1 489 35 is_stmt 0 view .LVU457
 1407 0116 42F22102 		movw	r2, #8225
 1408 011a 4FF4E023 		mov	r3, #458752
 1409              	.LBE45:
 1410              	.LBE44:
 352:./Libraries/STM32_USB_Host_Library/Class/CDC/Src/usbh_cdc.c **** 
 1411              		.loc 1 352 20 view .LVU458
 1412 011e B16C     		ldr	r1, [r6, #72]
 1413              	.LVL113:
 1414              	.LBB47:
 1415              	.LBI44:
 480:./Libraries/STM32_USB_Host_Library/Class/CDC/Src/usbh_cdc.c ****                                         CDC_LineCodingTypeDef *linecoding)
 1416              		.loc 1 480 27 is_stmt 1 view .LVU459
 1417              	.LBB46:
 483:./Libraries/STM32_USB_Host_Library/Class/CDC/Src/usbh_cdc.c ****                                          USB_REQ_RECIPIENT_INTERFACE;
 1418              		.loc 1 483 3 view .LVU460
 486:./Libraries/STM32_USB_Host_Library/Class/CDC/Src/usbh_cdc.c ****   phost->Control.setup.b.wValue.w = 0U;
 1419              		.loc 1 486 3 view .LVU461
 487:./Libraries/STM32_USB_Host_Library/Class/CDC/Src/usbh_cdc.c **** 
 1420              		.loc 1 487 3 view .LVU462
 489:./Libraries/STM32_USB_Host_Library/Class/CDC/Src/usbh_cdc.c **** 
 1421              		.loc 1 489 3 view .LVU463
 491:./Libraries/STM32_USB_Host_Library/Class/CDC/Src/usbh_cdc.c **** 
 1422              		.loc 1 491 3 view .LVU464
 489:./Libraries/STM32_USB_Host_Library/Class/CDC/Src/usbh_cdc.c **** 
 1423              		.loc 1 489 35 is_stmt 0 view .LVU465
 1424 0120 C0E90423 		strd	r2, r3, [r0, #16]
 493:./Libraries/STM32_USB_Host_Library/Class/CDC/Src/usbh_cdc.c **** }
 1425              		.loc 1 493 3 is_stmt 1 view .LVU466
 493:./Libraries/STM32_USB_Host_Library/Class/CDC/Src/usbh_cdc.c **** }
 1426              		.loc 1 493 10 is_stmt 0 view .LVU467
 1427 0124 0722     		movs	r2, #7
 1428 0126 FFF7FEFF 		bl	USBH_CtlReq
 1429              	.LVL114:
 493:./Libraries/STM32_USB_Host_Library/Class/CDC/Src/usbh_cdc.c **** }
 1430              		.loc 1 493 10 view .LVU468
 1431              	.LBE46:
 1432              	.LBE47:
 354:./Libraries/STM32_USB_Host_Library/Class/CDC/Src/usbh_cdc.c ****       {
 1433              		.loc 1 354 7 is_stmt 1 view .LVU469
 354:./Libraries/STM32_USB_Host_Library/Class/CDC/Src/usbh_cdc.c ****       {
ARM GAS  /tmp/ccJoeMU3.s 			page 47


 1434              		.loc 1 354 10 is_stmt 0 view .LVU470
 1435 012a 18B9     		cbnz	r0, .L93
 356:./Libraries/STM32_USB_Host_Library/Class/CDC/Src/usbh_cdc.c ****       }
 1436              		.loc 1 356 9 is_stmt 1 view .LVU471
 356:./Libraries/STM32_USB_Host_Library/Class/CDC/Src/usbh_cdc.c ****       }
 1437              		.loc 1 356 27 is_stmt 0 view .LVU472
 1438 012c 0223     		movs	r3, #2
 1439 012e 86F84C30 		strb	r3, [r6, #76]
 1440 0132 C8E7     		b	.L92
 1441              	.L93:
 361:./Libraries/STM32_USB_Host_Library/Class/CDC/Src/usbh_cdc.c ****         {
 1442              		.loc 1 361 9 is_stmt 1 view .LVU473
 361:./Libraries/STM32_USB_Host_Library/Class/CDC/Src/usbh_cdc.c ****         {
 1443              		.loc 1 361 12 is_stmt 0 view .LVU474
 1444 0134 0128     		cmp	r0, #1
 1445 0136 E1D0     		beq	.L96
 363:./Libraries/STM32_USB_Host_Library/Class/CDC/Src/usbh_cdc.c ****         }
 1446              		.loc 1 363 11 is_stmt 1 view .LVU475
 363:./Libraries/STM32_USB_Host_Library/Class/CDC/Src/usbh_cdc.c ****         }
 1447              		.loc 1 363 29 is_stmt 0 view .LVU476
 1448 0138 0423     		movs	r3, #4
 1449 013a 86F84C30 		strb	r3, [r6, #76]
 1450 013e C2E7     		b	.L92
 1451              	.L95:
 386:./Libraries/STM32_USB_Host_Library/Class/CDC/Src/usbh_cdc.c ****         {
 1452              		.loc 1 386 9 is_stmt 1 view .LVU477
 386:./Libraries/STM32_USB_Host_Library/Class/CDC/Src/usbh_cdc.c ****         {
 1453              		.loc 1 386 12 is_stmt 0 view .LVU478
 1454 0140 0128     		cmp	r0, #1
 1455 0142 DBD0     		beq	.L96
 388:./Libraries/STM32_USB_Host_Library/Class/CDC/Src/usbh_cdc.c ****         }
 1456              		.loc 1 388 11 is_stmt 1 view .LVU479
 388:./Libraries/STM32_USB_Host_Library/Class/CDC/Src/usbh_cdc.c ****         }
 1457              		.loc 1 388 29 is_stmt 0 view .LVU480
 1458 0144 0423     		movs	r3, #4
 340:./Libraries/STM32_USB_Host_Library/Class/CDC/Src/usbh_cdc.c ****   USBH_StatusTypeDef req_status = USBH_OK;
 1459              		.loc 1 340 22 view .LVU481
 1460 0146 0125     		movs	r5, #1
 388:./Libraries/STM32_USB_Host_Library/Class/CDC/Src/usbh_cdc.c ****         }
 1461              		.loc 1 388 29 view .LVU482
 1462 0148 86F84C30 		strb	r3, [r6, #76]
 1463 014c BBE7     		b	.L92
 1464              	.LVL115:
 1465              	.L97:
 1466              	.LBB48:
 1467              	.LBB34:
 641:./Libraries/STM32_USB_Host_Library/Class/CDC/Src/usbh_cdc.c ****       {
 1468              		.loc 1 641 7 is_stmt 1 view .LVU483
 641:./Libraries/STM32_USB_Host_Library/Class/CDC/Src/usbh_cdc.c ****       {
 1469              		.loc 1 641 21 is_stmt 0 view .LVU484
 1470 014e 716A     		ldr	r1, [r6, #36]
 641:./Libraries/STM32_USB_Host_Library/Class/CDC/Src/usbh_cdc.c ****       {
 1471              		.loc 1 641 57 view .LVU485
 1472 0150 328B     		ldrh	r2, [r6, #24]
 643:./Libraries/STM32_USB_Host_Library/Class/CDC/Src/usbh_cdc.c ****                           CDC_Handle->pTxData,
 1473              		.loc 1 643 9 view .LVU486
 1474 0152 737B     		ldrb	r3, [r6, #13]	@ zero_extendqisi2
ARM GAS  /tmp/ccJoeMU3.s 			page 48


 641:./Libraries/STM32_USB_Host_Library/Class/CDC/Src/usbh_cdc.c ****       {
 1475              		.loc 1 641 10 view .LVU487
 1476 0154 9142     		cmp	r1, r2
 643:./Libraries/STM32_USB_Host_Library/Class/CDC/Src/usbh_cdc.c ****                           CDC_Handle->pTxData,
 1477              		.loc 1 643 9 is_stmt 1 view .LVU488
 651:./Libraries/STM32_USB_Host_Library/Class/CDC/Src/usbh_cdc.c ****                           CDC_Handle->pTxData,
 1478              		.loc 1 651 9 view .LVU489
 1479 0156 98BF     		it	ls
 1480 0158 8AB2     		uxthls	r2, r1
 1481 015a F169     		ldr	r1, [r6, #28]
 1482 015c 0095     		str	r5, [sp]
 1483 015e FFF7FEFF 		bl	USBH_BulkSendData
 1484              	.LVL116:
 658:./Libraries/STM32_USB_Host_Library/Class/CDC/Src/usbh_cdc.c ****       break;
 1485              		.loc 1 658 7 view .LVU490
 658:./Libraries/STM32_USB_Host_Library/Class/CDC/Src/usbh_cdc.c ****       break;
 1486              		.loc 1 658 33 is_stmt 0 view .LVU491
 1487 0162 0223     		movs	r3, #2
 1488 0164 86F84D30 		strb	r3, [r6, #77]
 659:./Libraries/STM32_USB_Host_Library/Class/CDC/Src/usbh_cdc.c **** 
 1489              		.loc 1 659 7 is_stmt 1 view .LVU492
 1490 0168 D4F87C34 		ldr	r3, [r4, #1148]
 1491 016c DE69     		ldr	r6, [r3, #28]
 1492              	.LVL117:
 659:./Libraries/STM32_USB_Host_Library/Class/CDC/Src/usbh_cdc.c **** 
 1493              		.loc 1 659 7 is_stmt 0 view .LVU493
 1494 016e 7EE7     		b	.L99
 1495              	.LVL118:
 1496              	.L108:
 659:./Libraries/STM32_USB_Host_Library/Class/CDC/Src/usbh_cdc.c **** 
 1497              		.loc 1 659 7 view .LVU494
 1498              	.LBE34:
 1499              	.LBE48:
 1500              	.LBB49:
 1501              	.LBB39:
 736:./Libraries/STM32_USB_Host_Library/Class/CDC/Src/usbh_cdc.c ****                            CDC_Handle->pRxData,
 1502              		.loc 1 736 7 is_stmt 1 view .LVU495
 1503 0170 337B     		ldrb	r3, [r6, #12]	@ zero_extendqisi2
 1504 0172 2046     		mov	r0, r4
 1505 0174 728B     		ldrh	r2, [r6, #26]
 1506              	.LBE39:
 1507              	.LBE49:
 340:./Libraries/STM32_USB_Host_Library/Class/CDC/Src/usbh_cdc.c ****   USBH_StatusTypeDef req_status = USBH_OK;
 1508              		.loc 1 340 22 is_stmt 0 view .LVU496
 1509 0176 0125     		movs	r5, #1
 1510              	.LBB50:
 1511              	.LBB40:
 736:./Libraries/STM32_USB_Host_Library/Class/CDC/Src/usbh_cdc.c ****                            CDC_Handle->pRxData,
 1512              		.loc 1 736 7 view .LVU497
 1513 0178 316A     		ldr	r1, [r6, #32]
 1514 017a FFF7FEFF 		bl	USBH_BulkReceiveData
 1515              	.LVL119:
 741:./Libraries/STM32_USB_Host_Library/Class/CDC/Src/usbh_cdc.c **** 
 1516              		.loc 1 741 7 is_stmt 1 view .LVU498
 741:./Libraries/STM32_USB_Host_Library/Class/CDC/Src/usbh_cdc.c **** 
 1517              		.loc 1 741 33 is_stmt 0 view .LVU499
 1518 017e 0423     		movs	r3, #4
ARM GAS  /tmp/ccJoeMU3.s 			page 49


 1519 0180 86F84E30 		strb	r3, [r6, #78]
 743:./Libraries/STM32_USB_Host_Library/Class/CDC/Src/usbh_cdc.c **** 
 1520              		.loc 1 743 7 is_stmt 1 view .LVU500
 1521 0184 9FE7     		b	.L92
 1522              	.LVL120:
 1523              	.L102:
 743:./Libraries/STM32_USB_Host_Library/Class/CDC/Src/usbh_cdc.c **** 
 1524              		.loc 1 743 7 is_stmt 0 view .LVU501
 1525              	.LBE40:
 1526              	.LBE50:
 1527              	.LBB51:
 1528              	.LBB35:
 699:./Libraries/STM32_USB_Host_Library/Class/CDC/Src/usbh_cdc.c ****         {
 1529              		.loc 1 699 9 is_stmt 1 view .LVU502
 699:./Libraries/STM32_USB_Host_Library/Class/CDC/Src/usbh_cdc.c ****         {
 1530              		.loc 1 699 12 is_stmt 0 view .LVU503
 1531 0186 0228     		cmp	r0, #2
 1532 0188 17D0     		beq	.L107
 1533              	.LVL121:
 1534              	.L117:
 699:./Libraries/STM32_USB_Host_Library/Class/CDC/Src/usbh_cdc.c ****         {
 1535              		.loc 1 699 12 view .LVU504
 1536 018a D4F87C34 		ldr	r3, [r4, #1148]
 1537 018e DE69     		ldr	r6, [r3, #28]
 1538              	.LVL122:
 699:./Libraries/STM32_USB_Host_Library/Class/CDC/Src/usbh_cdc.c ****         {
 1539              		.loc 1 699 12 view .LVU505
 1540 0190 6DE7     		b	.L99
 1541              	.LVL123:
 1542              	.L119:
 699:./Libraries/STM32_USB_Host_Library/Class/CDC/Src/usbh_cdc.c ****         {
 1543              		.loc 1 699 12 view .LVU506
 1544              	.LBE35:
 1545              	.LBE51:
 378:./Libraries/STM32_USB_Host_Library/Class/CDC/Src/usbh_cdc.c ****             (CDC_Handle->LineCoding.b.dwDTERate == CDC_Handle->pUserLineCoding->b.dwDTERate))
 1546              		.loc 1 378 98 view .LVU507
 1547 0192 326C     		ldr	r2, [r6, #64]
 1548 0194 0B68     		ldr	r3, [r1]
 1549 0196 9A42     		cmp	r2, r3
 1550 0198 B0D1     		bne	.L96
 381:./Libraries/STM32_USB_Host_Library/Class/CDC/Src/usbh_cdc.c ****         }
 1551              		.loc 1 381 11 is_stmt 1 view .LVU508
 1552 019a 2046     		mov	r0, r4
 1553              	.LVL124:
 340:./Libraries/STM32_USB_Host_Library/Class/CDC/Src/usbh_cdc.c ****   USBH_StatusTypeDef req_status = USBH_OK;
 1554              		.loc 1 340 22 is_stmt 0 view .LVU509
 1555 019c 0125     		movs	r5, #1
 381:./Libraries/STM32_USB_Host_Library/Class/CDC/Src/usbh_cdc.c ****         }
 1556              		.loc 1 381 11 view .LVU510
 1557 019e FFF7FEFF 		bl	USBH_CDC_LineCodingChanged
 1558              	.LVL125:
 381:./Libraries/STM32_USB_Host_Library/Class/CDC/Src/usbh_cdc.c ****         }
 1559              		.loc 1 381 11 view .LVU511
 1560 01a2 90E7     		b	.L92
 1561              	.LVL126:
 1562              	.L118:
 1563              	.LBB52:
ARM GAS  /tmp/ccJoeMU3.s 			page 50


 1564              	.LBB36:
 670:./Libraries/STM32_USB_Host_Library/Class/CDC/Src/usbh_cdc.c ****           CDC_Handle->pTxData += CDC_Handle->DataItf.OutEpSize;
 1565              		.loc 1 670 11 is_stmt 1 view .LVU512
 671:./Libraries/STM32_USB_Host_Library/Class/CDC/Src/usbh_cdc.c ****         }
 1566              		.loc 1 671 31 is_stmt 0 view .LVU513
 1567 01a4 F169     		ldr	r1, [r6, #28]
 670:./Libraries/STM32_USB_Host_Library/Class/CDC/Src/usbh_cdc.c ****           CDC_Handle->pTxData += CDC_Handle->DataItf.OutEpSize;
 1568              		.loc 1 670 36 view .LVU514
 1569 01a6 9B1A     		subs	r3, r3, r2
 671:./Libraries/STM32_USB_Host_Library/Class/CDC/Src/usbh_cdc.c ****         }
 1570              		.loc 1 671 31 view .LVU515
 1571 01a8 0A44     		add	r2, r2, r1
 670:./Libraries/STM32_USB_Host_Library/Class/CDC/Src/usbh_cdc.c ****           CDC_Handle->pTxData += CDC_Handle->DataItf.OutEpSize;
 1572              		.loc 1 670 36 view .LVU516
 1573 01aa 7362     		str	r3, [r6, #36]
 671:./Libraries/STM32_USB_Host_Library/Class/CDC/Src/usbh_cdc.c ****         }
 1574              		.loc 1 671 11 is_stmt 1 view .LVU517
 671:./Libraries/STM32_USB_Host_Library/Class/CDC/Src/usbh_cdc.c ****         }
 1575              		.loc 1 671 31 is_stmt 0 view .LVU518
 1576 01ac F261     		str	r2, [r6, #28]
 678:./Libraries/STM32_USB_Host_Library/Class/CDC/Src/usbh_cdc.c ****         {
 1577              		.loc 1 678 9 is_stmt 1 view .LVU519
 678:./Libraries/STM32_USB_Host_Library/Class/CDC/Src/usbh_cdc.c ****         {
 1578              		.loc 1 678 12 is_stmt 0 view .LVU520
 1579 01ae 002B     		cmp	r3, #0
 1580 01b0 3FF449AF 		beq	.L105
 680:./Libraries/STM32_USB_Host_Library/Class/CDC/Src/usbh_cdc.c ****         }
 1581              		.loc 1 680 11 is_stmt 1 view .LVU521
 680:./Libraries/STM32_USB_Host_Library/Class/CDC/Src/usbh_cdc.c ****         }
 1582              		.loc 1 680 37 is_stmt 0 view .LVU522
 1583 01b4 86F84D00 		strb	r0, [r6, #77]
 1584 01b8 4BE7     		b	.L106
 1585              	.L107:
 701:./Libraries/STM32_USB_Host_Library/Class/CDC/Src/usbh_cdc.c **** 
 1586              		.loc 1 701 11 is_stmt 1 view .LVU523
 701:./Libraries/STM32_USB_Host_Library/Class/CDC/Src/usbh_cdc.c **** 
 1587              		.loc 1 701 37 is_stmt 0 view .LVU524
 1588 01ba 0120     		movs	r0, #1
 1589              	.LVL127:
 704:./Libraries/STM32_USB_Host_Library/Class/CDC/Src/usbh_cdc.c **** #if (osCMSIS < 0x20000U)
 1590              		.loc 1 704 25 view .LVU525
 1591 01bc 0422     		movs	r2, #4
 708:./Libraries/STM32_USB_Host_Library/Class/CDC/Src/usbh_cdc.c **** #endif
 1592              		.loc 1 708 17 view .LVU526
 1593 01be 0023     		movs	r3, #0
 1594 01c0 04F59C61 		add	r1, r4, #1248
 701:./Libraries/STM32_USB_Host_Library/Class/CDC/Src/usbh_cdc.c **** 
 1595              		.loc 1 701 37 view .LVU527
 1596 01c4 86F84D00 		strb	r0, [r6, #77]
 704:./Libraries/STM32_USB_Host_Library/Class/CDC/Src/usbh_cdc.c **** #if (osCMSIS < 0x20000U)
 1597              		.loc 1 704 11 is_stmt 1 view .LVU528
 704:./Libraries/STM32_USB_Host_Library/Class/CDC/Src/usbh_cdc.c **** #if (osCMSIS < 0x20000U)
 1598              		.loc 1 704 25 is_stmt 0 view .LVU529
 1599 01c8 C4F8E024 		str	r2, [r4, #1248]
 708:./Libraries/STM32_USB_Host_Library/Class/CDC/Src/usbh_cdc.c **** #endif
 1600              		.loc 1 708 11 is_stmt 1 view .LVU530
 708:./Libraries/STM32_USB_Host_Library/Class/CDC/Src/usbh_cdc.c **** #endif
ARM GAS  /tmp/ccJoeMU3.s 			page 51


 1601              		.loc 1 708 17 is_stmt 0 view .LVU531
 1602 01cc 1A46     		mov	r2, r3
 1603 01ce D4F8D804 		ldr	r0, [r4, #1240]
 1604 01d2 FFF7FEFF 		bl	osMessageQueuePut
 1605              	.LVL128:
 1606 01d6 D8E7     		b	.L117
 1607              	.LVL129:
 1608              	.L110:
 708:./Libraries/STM32_USB_Host_Library/Class/CDC/Src/usbh_cdc.c **** #endif
 1609              		.loc 1 708 17 view .LVU532
 1610              	.LBE36:
 1611              	.LBE52:
 1612              	.LBB53:
 1613              	.LBB41:
 762:./Libraries/STM32_USB_Host_Library/Class/CDC/Src/usbh_cdc.c ****           USBH_CDC_ReceiveCallback(phost);
 1614              		.loc 1 762 11 is_stmt 1 view .LVU533
 762:./Libraries/STM32_USB_Host_Library/Class/CDC/Src/usbh_cdc.c ****           USBH_CDC_ReceiveCallback(phost);
 1615              		.loc 1 762 37 is_stmt 0 view .LVU534
 1616 01d8 0023     		movs	r3, #0
 763:./Libraries/STM32_USB_Host_Library/Class/CDC/Src/usbh_cdc.c ****         }
 1617              		.loc 1 763 11 view .LVU535
 1618 01da 2046     		mov	r0, r4
 1619              	.LVL130:
 762:./Libraries/STM32_USB_Host_Library/Class/CDC/Src/usbh_cdc.c ****           USBH_CDC_ReceiveCallback(phost);
 1620              		.loc 1 762 37 view .LVU536
 1621 01dc 86F84E30 		strb	r3, [r6, #78]
 763:./Libraries/STM32_USB_Host_Library/Class/CDC/Src/usbh_cdc.c ****         }
 1622              		.loc 1 763 11 is_stmt 1 view .LVU537
 1623 01e0 FFF7FEFF 		bl	USBH_CDC_ReceiveCallback
 1624              	.LVL131:
 1625 01e4 64E7     		b	.L111
 1626              	.LBE41:
 1627              	.LBE53:
 1628              		.cfi_endproc
 1629              	.LFE341:
 1631              		.global	CDC_Class
 1632 01e6 00BF     		.section	.rodata.str1.4,"aMS",%progbits,1
 1633              		.align	2
 1634              	.LC0:
 1635 0000 43444300 		.ascii	"CDC\000"
 1636              		.section	.data.CDC_Class,"aw"
 1637              		.align	2
 1640              	CDC_Class:
 1641 0000 00000000 		.word	.LC0
 1642 0004 02       		.byte	2
 1643 0005 000000   		.space	3
 1644 0008 00000000 		.word	USBH_CDC_InterfaceInit
 1645 000c 00000000 		.word	USBH_CDC_InterfaceDeInit
 1646 0010 00000000 		.word	USBH_CDC_ClassRequest
 1647 0014 00000000 		.word	USBH_CDC_Process
 1648 0018 00000000 		.word	USBH_CDC_SOFProcess
 1649 001c 00000000 		.word	0
 1650              		.text
 1651              	.Letext0:
 1652              		.file 2 "/usr/lib/gcc/arm-none-eabi/9.2.1/include/stdint.h"
 1653              		.file 3 "./Libraries/CMSIS/Core/Include/core_cm7.h"
 1654              		.file 4 "./Libraries/CMSIS/Device/ST/STM32H7xx/Include/system_stm32h7xx.h"
ARM GAS  /tmp/ccJoeMU3.s 			page 52


 1655              		.file 5 "/usr/lib/gcc/arm-none-eabi/9.2.1/include/stddef.h"
 1656              		.file 6 "/usr/include/newlib/sys/_types.h"
 1657              		.file 7 "/usr/include/newlib/sys/reent.h"
 1658              		.file 8 "/usr/include/newlib/sys/lock.h"
 1659              		.file 9 "/usr/include/newlib/math.h"
 1660              		.file 10 "./Libraries/STM32H7xx_HAL_Driver/Inc/stm32h7xx_hal_def.h"
 1661              		.file 11 "./Libraries/STM32H7xx_HAL_Driver/Inc/stm32h7xx_hal_flash.h"
 1662              		.file 12 "./Libraries/STM32H7xx_HAL_Driver/Inc/stm32h7xx_hal_uart.h"
 1663              		.file 13 "./Libraries/STM32H7xx_HAL_Driver/Inc/stm32h7xx_hal.h"
 1664              		.file 14 "/usr/include/newlib/stdlib.h"
 1665              		.file 15 "./Libraries/FreeRTOS/Source/CMSIS_RTOS/cmsis_os2.h"
 1666              		.file 16 "./Libraries/STM32_USB_Host_Library/Core/Inc/usbh_def.h"
 1667              		.file 17 "./Libraries/STM32_USB_Host_Library/Core/Inc/usbh_ctlreq.h"
 1668              		.file 18 "./Libraries/STM32_USB_Host_Library/Class/CDC/Inc/usbh_cdc.h"
 1669              		.file 19 "./Libraries/STM32_USB_Host_Library/Core/Inc/usbh_core.h"
 1670              		.file 20 "./Libraries/STM32_USB_Host_Library/Core/Inc/usbh_pipes.h"
 1671              		.file 21 "./Libraries/STM32_USB_Host_Library/Core/Inc/usbh_ioreq.h"
 1672              		.file 22 "./Libraries/FreeRTOS/Source/include/portable.h"
 1673              		.file 23 "<built-in>"
ARM GAS  /tmp/ccJoeMU3.s 			page 53


DEFINED SYMBOLS
                            *ABS*:0000000000000000 usbh_cdc.c
     /tmp/ccJoeMU3.s:17     .text.USBH_CDC_SOFProcess:0000000000000000 $t
     /tmp/ccJoeMU3.s:25     .text.USBH_CDC_SOFProcess:0000000000000000 USBH_CDC_SOFProcess
     /tmp/ccJoeMU3.s:45     .text.USBH_CDC_InterfaceDeInit:0000000000000000 $t
     /tmp/ccJoeMU3.s:52     .text.USBH_CDC_InterfaceDeInit:0000000000000000 USBH_CDC_InterfaceDeInit
     /tmp/ccJoeMU3.s:173    .text.USBH_CDC_InterfaceInit:0000000000000000 $t
     /tmp/ccJoeMU3.s:180    .text.USBH_CDC_InterfaceInit:0000000000000000 USBH_CDC_InterfaceInit
     /tmp/ccJoeMU3.s:479    .text.USBH_CDC_ClassRequest:0000000000000000 $t
     /tmp/ccJoeMU3.s:486    .text.USBH_CDC_ClassRequest:0000000000000000 USBH_CDC_ClassRequest
     /tmp/ccJoeMU3.s:579    .text.USBH_CDC_Stop:0000000000000000 $t
     /tmp/ccJoeMU3.s:587    .text.USBH_CDC_Stop:0000000000000000 USBH_CDC_Stop
     /tmp/ccJoeMU3.s:651    .text.USBH_CDC_SetLineCoding:0000000000000000 $t
     /tmp/ccJoeMU3.s:659    .text.USBH_CDC_SetLineCoding:0000000000000000 USBH_CDC_SetLineCoding
     /tmp/ccJoeMU3.s:735    .text.USBH_CDC_GetLineCoding:0000000000000000 $t
     /tmp/ccJoeMU3.s:743    .text.USBH_CDC_GetLineCoding:0000000000000000 USBH_CDC_GetLineCoding
     /tmp/ccJoeMU3.s:794    .text.USBH_CDC_GetLastReceivedDataSize:0000000000000000 $t
     /tmp/ccJoeMU3.s:802    .text.USBH_CDC_GetLastReceivedDataSize:0000000000000000 USBH_CDC_GetLastReceivedDataSize
     /tmp/ccJoeMU3.s:848    .text.USBH_CDC_Transmit:0000000000000000 $t
     /tmp/ccJoeMU3.s:856    .text.USBH_CDC_Transmit:0000000000000000 USBH_CDC_Transmit
     /tmp/ccJoeMU3.s:940    .text.USBH_CDC_Receive:0000000000000000 $t
     /tmp/ccJoeMU3.s:948    .text.USBH_CDC_Receive:0000000000000000 USBH_CDC_Receive
     /tmp/ccJoeMU3.s:1034   .text.USBH_CDC_TransmitCallback:0000000000000000 $t
     /tmp/ccJoeMU3.s:1042   .text.USBH_CDC_TransmitCallback:0000000000000000 USBH_CDC_TransmitCallback
     /tmp/ccJoeMU3.s:1053   .text.USBH_CDC_ReceiveCallback:0000000000000000 $t
     /tmp/ccJoeMU3.s:1061   .text.USBH_CDC_ReceiveCallback:0000000000000000 USBH_CDC_ReceiveCallback
     /tmp/ccJoeMU3.s:1072   .text.USBH_CDC_LineCodingChanged:0000000000000000 $t
     /tmp/ccJoeMU3.s:1080   .text.USBH_CDC_LineCodingChanged:0000000000000000 USBH_CDC_LineCodingChanged
     /tmp/ccJoeMU3.s:1095   .text.USBH_CDC_Process:0000000000000000 $t
     /tmp/ccJoeMU3.s:1102   .text.USBH_CDC_Process:0000000000000000 USBH_CDC_Process
     /tmp/ccJoeMU3.s:1138   .text.USBH_CDC_Process:0000000000000018 $d
     /tmp/ccJoeMU3.s:1640   .data.CDC_Class:0000000000000000 CDC_Class
     /tmp/ccJoeMU3.s:1633   .rodata.str1.4:0000000000000000 $d
     /tmp/ccJoeMU3.s:1637   .data.CDC_Class:0000000000000000 $d
     /tmp/ccJoeMU3.s:1143   .text.USBH_CDC_Process:000000000000001d $d
     /tmp/ccJoeMU3.s:1143   .text.USBH_CDC_Process:000000000000001e $t

UNDEFINED SYMBOLS
vPortFree
USBH_ClosePipe
USBH_FreePipe
USBH_FindInterface
USBH_SelectInterface
pvPortMalloc
memset
USBH_AllocPipe
USBH_OpenPipe
USBH_LL_SetToggle
USBH_CtlReq
osMessageQueuePut
USBH_LL_GetLastXferSize
USBH_LL_GetURBState
USBH_ClrFeature
USBH_BulkSendData
USBH_BulkReceiveData
