ARM GAS  /tmp/ccP1swG7.s 			page 1


   1              		.cpu cortex-m7
   2              		.eabi_attribute 28, 1
   3              		.eabi_attribute 20, 1
   4              		.eabi_attribute 21, 1
   5              		.eabi_attribute 23, 3
   6              		.eabi_attribute 24, 1
   7              		.eabi_attribute 25, 1
   8              		.eabi_attribute 26, 1
   9              		.eabi_attribute 30, 2
  10              		.eabi_attribute 34, 1
  11              		.eabi_attribute 18, 4
  12              		.file	"usbh_hid.c"
  13              		.text
  14              	.Ltext0:
  15              		.cfi_sections	.debug_frame
  16              		.section	.text.USBH_HID_SOFProcess,"ax",%progbits
  17              		.align	1
  18              		.p2align 2,,3
  19              		.arch armv7e-m
  20              		.syntax unified
  21              		.thumb
  22              		.thumb_func
  23              		.fpu fpv5-d16
  25              	USBH_HID_SOFProcess:
  26              	.LVL0:
  27              	.LFB342:
  28              		.file 1 "./Libraries/STM32_USB_Host_Library/Class/HID/Src/usbh_hid.c"
   1:./Libraries/STM32_USB_Host_Library/Class/HID/Src/usbh_hid.c **** /**
   2:./Libraries/STM32_USB_Host_Library/Class/HID/Src/usbh_hid.c ****   ******************************************************************************
   3:./Libraries/STM32_USB_Host_Library/Class/HID/Src/usbh_hid.c ****   * @file    usbh_hid.c
   4:./Libraries/STM32_USB_Host_Library/Class/HID/Src/usbh_hid.c ****   * @author  MCD Application Team
   5:./Libraries/STM32_USB_Host_Library/Class/HID/Src/usbh_hid.c ****   * @brief   This file is the HID Layer Handlers for USB Host HID class.
   6:./Libraries/STM32_USB_Host_Library/Class/HID/Src/usbh_hid.c ****   *
   7:./Libraries/STM32_USB_Host_Library/Class/HID/Src/usbh_hid.c ****   * @verbatim
   8:./Libraries/STM32_USB_Host_Library/Class/HID/Src/usbh_hid.c ****   *
   9:./Libraries/STM32_USB_Host_Library/Class/HID/Src/usbh_hid.c ****   *          ===================================================================
  10:./Libraries/STM32_USB_Host_Library/Class/HID/Src/usbh_hid.c ****   *                                HID Class  Description
  11:./Libraries/STM32_USB_Host_Library/Class/HID/Src/usbh_hid.c ****   *          ===================================================================
  12:./Libraries/STM32_USB_Host_Library/Class/HID/Src/usbh_hid.c ****   *           This module manages the HID class V1.11 following the "Device Class Definition
  13:./Libraries/STM32_USB_Host_Library/Class/HID/Src/usbh_hid.c ****   *           for Human Interface Devices (HID) Version 1.11 Jun 27, 2001".
  14:./Libraries/STM32_USB_Host_Library/Class/HID/Src/usbh_hid.c ****   *           This driver implements the following aspects of the specification:
  15:./Libraries/STM32_USB_Host_Library/Class/HID/Src/usbh_hid.c ****   *             - The Boot Interface Subclass
  16:./Libraries/STM32_USB_Host_Library/Class/HID/Src/usbh_hid.c ****   *             - The Mouse and Keyboard protocols
  17:./Libraries/STM32_USB_Host_Library/Class/HID/Src/usbh_hid.c ****   *
  18:./Libraries/STM32_USB_Host_Library/Class/HID/Src/usbh_hid.c ****   *  @endverbatim
  19:./Libraries/STM32_USB_Host_Library/Class/HID/Src/usbh_hid.c ****   *
  20:./Libraries/STM32_USB_Host_Library/Class/HID/Src/usbh_hid.c ****   ******************************************************************************
  21:./Libraries/STM32_USB_Host_Library/Class/HID/Src/usbh_hid.c ****   * @attention
  22:./Libraries/STM32_USB_Host_Library/Class/HID/Src/usbh_hid.c ****   *
  23:./Libraries/STM32_USB_Host_Library/Class/HID/Src/usbh_hid.c ****   * <h2><center>&copy; Copyright (c) 2015 STMicroelectronics.
  24:./Libraries/STM32_USB_Host_Library/Class/HID/Src/usbh_hid.c ****   * All rights reserved.</center></h2>
  25:./Libraries/STM32_USB_Host_Library/Class/HID/Src/usbh_hid.c ****   *
  26:./Libraries/STM32_USB_Host_Library/Class/HID/Src/usbh_hid.c ****   * This software component is licensed by ST under Ultimate Liberty license
  27:./Libraries/STM32_USB_Host_Library/Class/HID/Src/usbh_hid.c ****   * SLA0044, the "License"; You may not use this file except in compliance with
  28:./Libraries/STM32_USB_Host_Library/Class/HID/Src/usbh_hid.c ****   * the License. You may obtain a copy of the License at:
  29:./Libraries/STM32_USB_Host_Library/Class/HID/Src/usbh_hid.c ****   *                      www.st.com/SLA0044
  30:./Libraries/STM32_USB_Host_Library/Class/HID/Src/usbh_hid.c ****   *
ARM GAS  /tmp/ccP1swG7.s 			page 2


  31:./Libraries/STM32_USB_Host_Library/Class/HID/Src/usbh_hid.c ****   ******************************************************************************
  32:./Libraries/STM32_USB_Host_Library/Class/HID/Src/usbh_hid.c ****   */
  33:./Libraries/STM32_USB_Host_Library/Class/HID/Src/usbh_hid.c **** 
  34:./Libraries/STM32_USB_Host_Library/Class/HID/Src/usbh_hid.c **** /* BSPDependencies
  35:./Libraries/STM32_USB_Host_Library/Class/HID/Src/usbh_hid.c **** - "stm32xxxxx_{eval}{discovery}{nucleo_144}.c"
  36:./Libraries/STM32_USB_Host_Library/Class/HID/Src/usbh_hid.c **** - "stm32xxxxx_{eval}{discovery}_io.c"
  37:./Libraries/STM32_USB_Host_Library/Class/HID/Src/usbh_hid.c **** - "stm32xxxxx_{eval}{discovery}{adafruit}_lcd.c"
  38:./Libraries/STM32_USB_Host_Library/Class/HID/Src/usbh_hid.c **** - "stm32xxxxx_{eval}{discovery}_sdram.c"
  39:./Libraries/STM32_USB_Host_Library/Class/HID/Src/usbh_hid.c **** EndBSPDependencies */
  40:./Libraries/STM32_USB_Host_Library/Class/HID/Src/usbh_hid.c **** 
  41:./Libraries/STM32_USB_Host_Library/Class/HID/Src/usbh_hid.c **** /* Includes ------------------------------------------------------------------*/
  42:./Libraries/STM32_USB_Host_Library/Class/HID/Src/usbh_hid.c **** #include "usbh_hid.h"
  43:./Libraries/STM32_USB_Host_Library/Class/HID/Src/usbh_hid.c **** #include "usbh_hid_parser.h"
  44:./Libraries/STM32_USB_Host_Library/Class/HID/Src/usbh_hid.c **** 
  45:./Libraries/STM32_USB_Host_Library/Class/HID/Src/usbh_hid.c **** 
  46:./Libraries/STM32_USB_Host_Library/Class/HID/Src/usbh_hid.c **** /** @addtogroup USBH_LIB
  47:./Libraries/STM32_USB_Host_Library/Class/HID/Src/usbh_hid.c **** * @{
  48:./Libraries/STM32_USB_Host_Library/Class/HID/Src/usbh_hid.c **** */
  49:./Libraries/STM32_USB_Host_Library/Class/HID/Src/usbh_hid.c **** 
  50:./Libraries/STM32_USB_Host_Library/Class/HID/Src/usbh_hid.c **** /** @addtogroup USBH_CLASS
  51:./Libraries/STM32_USB_Host_Library/Class/HID/Src/usbh_hid.c **** * @{
  52:./Libraries/STM32_USB_Host_Library/Class/HID/Src/usbh_hid.c **** */
  53:./Libraries/STM32_USB_Host_Library/Class/HID/Src/usbh_hid.c **** 
  54:./Libraries/STM32_USB_Host_Library/Class/HID/Src/usbh_hid.c **** /** @addtogroup USBH_HID_CLASS
  55:./Libraries/STM32_USB_Host_Library/Class/HID/Src/usbh_hid.c **** * @{
  56:./Libraries/STM32_USB_Host_Library/Class/HID/Src/usbh_hid.c **** */
  57:./Libraries/STM32_USB_Host_Library/Class/HID/Src/usbh_hid.c **** 
  58:./Libraries/STM32_USB_Host_Library/Class/HID/Src/usbh_hid.c **** /** @defgroup USBH_HID_CORE
  59:./Libraries/STM32_USB_Host_Library/Class/HID/Src/usbh_hid.c **** * @brief    This file includes HID Layer Handlers for USB Host HID class.
  60:./Libraries/STM32_USB_Host_Library/Class/HID/Src/usbh_hid.c **** * @{
  61:./Libraries/STM32_USB_Host_Library/Class/HID/Src/usbh_hid.c **** */
  62:./Libraries/STM32_USB_Host_Library/Class/HID/Src/usbh_hid.c **** 
  63:./Libraries/STM32_USB_Host_Library/Class/HID/Src/usbh_hid.c **** /** @defgroup USBH_HID_CORE_Private_TypesDefinitions
  64:./Libraries/STM32_USB_Host_Library/Class/HID/Src/usbh_hid.c **** * @{
  65:./Libraries/STM32_USB_Host_Library/Class/HID/Src/usbh_hid.c **** */
  66:./Libraries/STM32_USB_Host_Library/Class/HID/Src/usbh_hid.c **** /**
  67:./Libraries/STM32_USB_Host_Library/Class/HID/Src/usbh_hid.c **** * @}
  68:./Libraries/STM32_USB_Host_Library/Class/HID/Src/usbh_hid.c **** */
  69:./Libraries/STM32_USB_Host_Library/Class/HID/Src/usbh_hid.c **** 
  70:./Libraries/STM32_USB_Host_Library/Class/HID/Src/usbh_hid.c **** 
  71:./Libraries/STM32_USB_Host_Library/Class/HID/Src/usbh_hid.c **** /** @defgroup USBH_HID_CORE_Private_Defines
  72:./Libraries/STM32_USB_Host_Library/Class/HID/Src/usbh_hid.c **** * @{
  73:./Libraries/STM32_USB_Host_Library/Class/HID/Src/usbh_hid.c **** */
  74:./Libraries/STM32_USB_Host_Library/Class/HID/Src/usbh_hid.c **** /**
  75:./Libraries/STM32_USB_Host_Library/Class/HID/Src/usbh_hid.c **** * @}
  76:./Libraries/STM32_USB_Host_Library/Class/HID/Src/usbh_hid.c **** */
  77:./Libraries/STM32_USB_Host_Library/Class/HID/Src/usbh_hid.c **** 
  78:./Libraries/STM32_USB_Host_Library/Class/HID/Src/usbh_hid.c **** 
  79:./Libraries/STM32_USB_Host_Library/Class/HID/Src/usbh_hid.c **** /** @defgroup USBH_HID_CORE_Private_Macros
  80:./Libraries/STM32_USB_Host_Library/Class/HID/Src/usbh_hid.c **** * @{
  81:./Libraries/STM32_USB_Host_Library/Class/HID/Src/usbh_hid.c **** */
  82:./Libraries/STM32_USB_Host_Library/Class/HID/Src/usbh_hid.c **** /**
  83:./Libraries/STM32_USB_Host_Library/Class/HID/Src/usbh_hid.c **** * @}
  84:./Libraries/STM32_USB_Host_Library/Class/HID/Src/usbh_hid.c **** */
  85:./Libraries/STM32_USB_Host_Library/Class/HID/Src/usbh_hid.c **** 
  86:./Libraries/STM32_USB_Host_Library/Class/HID/Src/usbh_hid.c **** 
  87:./Libraries/STM32_USB_Host_Library/Class/HID/Src/usbh_hid.c **** /** @defgroup USBH_HID_CORE_Private_Variables
ARM GAS  /tmp/ccP1swG7.s 			page 3


  88:./Libraries/STM32_USB_Host_Library/Class/HID/Src/usbh_hid.c **** * @{
  89:./Libraries/STM32_USB_Host_Library/Class/HID/Src/usbh_hid.c **** */
  90:./Libraries/STM32_USB_Host_Library/Class/HID/Src/usbh_hid.c **** 
  91:./Libraries/STM32_USB_Host_Library/Class/HID/Src/usbh_hid.c **** /**
  92:./Libraries/STM32_USB_Host_Library/Class/HID/Src/usbh_hid.c **** * @}
  93:./Libraries/STM32_USB_Host_Library/Class/HID/Src/usbh_hid.c **** */
  94:./Libraries/STM32_USB_Host_Library/Class/HID/Src/usbh_hid.c **** 
  95:./Libraries/STM32_USB_Host_Library/Class/HID/Src/usbh_hid.c **** 
  96:./Libraries/STM32_USB_Host_Library/Class/HID/Src/usbh_hid.c **** /** @defgroup USBH_HID_CORE_Private_FunctionPrototypes
  97:./Libraries/STM32_USB_Host_Library/Class/HID/Src/usbh_hid.c **** * @{
  98:./Libraries/STM32_USB_Host_Library/Class/HID/Src/usbh_hid.c **** */
  99:./Libraries/STM32_USB_Host_Library/Class/HID/Src/usbh_hid.c **** 
 100:./Libraries/STM32_USB_Host_Library/Class/HID/Src/usbh_hid.c **** static USBH_StatusTypeDef USBH_HID_InterfaceInit(USBH_HandleTypeDef *phost);
 101:./Libraries/STM32_USB_Host_Library/Class/HID/Src/usbh_hid.c **** static USBH_StatusTypeDef USBH_HID_InterfaceDeInit(USBH_HandleTypeDef *phost);
 102:./Libraries/STM32_USB_Host_Library/Class/HID/Src/usbh_hid.c **** static USBH_StatusTypeDef USBH_HID_ClassRequest(USBH_HandleTypeDef *phost);
 103:./Libraries/STM32_USB_Host_Library/Class/HID/Src/usbh_hid.c **** static USBH_StatusTypeDef USBH_HID_Process(USBH_HandleTypeDef *phost);
 104:./Libraries/STM32_USB_Host_Library/Class/HID/Src/usbh_hid.c **** static USBH_StatusTypeDef USBH_HID_SOFProcess(USBH_HandleTypeDef *phost);
 105:./Libraries/STM32_USB_Host_Library/Class/HID/Src/usbh_hid.c **** static void  USBH_HID_ParseHIDDesc(HID_DescTypeDef *desc, uint8_t *buf);
 106:./Libraries/STM32_USB_Host_Library/Class/HID/Src/usbh_hid.c **** 
 107:./Libraries/STM32_USB_Host_Library/Class/HID/Src/usbh_hid.c **** extern USBH_StatusTypeDef USBH_HID_MouseInit(USBH_HandleTypeDef *phost);
 108:./Libraries/STM32_USB_Host_Library/Class/HID/Src/usbh_hid.c **** extern USBH_StatusTypeDef USBH_HID_KeybdInit(USBH_HandleTypeDef *phost);
 109:./Libraries/STM32_USB_Host_Library/Class/HID/Src/usbh_hid.c **** 
 110:./Libraries/STM32_USB_Host_Library/Class/HID/Src/usbh_hid.c **** USBH_ClassTypeDef  HID_Class =
 111:./Libraries/STM32_USB_Host_Library/Class/HID/Src/usbh_hid.c **** {
 112:./Libraries/STM32_USB_Host_Library/Class/HID/Src/usbh_hid.c ****   "HID",
 113:./Libraries/STM32_USB_Host_Library/Class/HID/Src/usbh_hid.c ****   USB_HID_CLASS,
 114:./Libraries/STM32_USB_Host_Library/Class/HID/Src/usbh_hid.c ****   USBH_HID_InterfaceInit,
 115:./Libraries/STM32_USB_Host_Library/Class/HID/Src/usbh_hid.c ****   USBH_HID_InterfaceDeInit,
 116:./Libraries/STM32_USB_Host_Library/Class/HID/Src/usbh_hid.c ****   USBH_HID_ClassRequest,
 117:./Libraries/STM32_USB_Host_Library/Class/HID/Src/usbh_hid.c ****   USBH_HID_Process,
 118:./Libraries/STM32_USB_Host_Library/Class/HID/Src/usbh_hid.c ****   USBH_HID_SOFProcess,
 119:./Libraries/STM32_USB_Host_Library/Class/HID/Src/usbh_hid.c ****   NULL,
 120:./Libraries/STM32_USB_Host_Library/Class/HID/Src/usbh_hid.c **** };
 121:./Libraries/STM32_USB_Host_Library/Class/HID/Src/usbh_hid.c **** /**
 122:./Libraries/STM32_USB_Host_Library/Class/HID/Src/usbh_hid.c **** * @}
 123:./Libraries/STM32_USB_Host_Library/Class/HID/Src/usbh_hid.c **** */
 124:./Libraries/STM32_USB_Host_Library/Class/HID/Src/usbh_hid.c **** 
 125:./Libraries/STM32_USB_Host_Library/Class/HID/Src/usbh_hid.c **** 
 126:./Libraries/STM32_USB_Host_Library/Class/HID/Src/usbh_hid.c **** /** @defgroup USBH_HID_CORE_Private_Functions
 127:./Libraries/STM32_USB_Host_Library/Class/HID/Src/usbh_hid.c **** * @{
 128:./Libraries/STM32_USB_Host_Library/Class/HID/Src/usbh_hid.c **** */
 129:./Libraries/STM32_USB_Host_Library/Class/HID/Src/usbh_hid.c **** 
 130:./Libraries/STM32_USB_Host_Library/Class/HID/Src/usbh_hid.c **** 
 131:./Libraries/STM32_USB_Host_Library/Class/HID/Src/usbh_hid.c **** /**
 132:./Libraries/STM32_USB_Host_Library/Class/HID/Src/usbh_hid.c ****   * @brief  USBH_HID_InterfaceInit
 133:./Libraries/STM32_USB_Host_Library/Class/HID/Src/usbh_hid.c ****   *         The function init the HID class.
 134:./Libraries/STM32_USB_Host_Library/Class/HID/Src/usbh_hid.c ****   * @param  phost: Host handle
 135:./Libraries/STM32_USB_Host_Library/Class/HID/Src/usbh_hid.c ****   * @retval USBH Status
 136:./Libraries/STM32_USB_Host_Library/Class/HID/Src/usbh_hid.c ****   */
 137:./Libraries/STM32_USB_Host_Library/Class/HID/Src/usbh_hid.c **** static USBH_StatusTypeDef USBH_HID_InterfaceInit(USBH_HandleTypeDef *phost)
 138:./Libraries/STM32_USB_Host_Library/Class/HID/Src/usbh_hid.c **** {
 139:./Libraries/STM32_USB_Host_Library/Class/HID/Src/usbh_hid.c ****   USBH_StatusTypeDef status;
 140:./Libraries/STM32_USB_Host_Library/Class/HID/Src/usbh_hid.c ****   HID_HandleTypeDef *HID_Handle;
 141:./Libraries/STM32_USB_Host_Library/Class/HID/Src/usbh_hid.c ****   uint8_t max_ep;
 142:./Libraries/STM32_USB_Host_Library/Class/HID/Src/usbh_hid.c ****   uint8_t num = 0U;
 143:./Libraries/STM32_USB_Host_Library/Class/HID/Src/usbh_hid.c ****   uint8_t interface;
 144:./Libraries/STM32_USB_Host_Library/Class/HID/Src/usbh_hid.c **** 
ARM GAS  /tmp/ccP1swG7.s 			page 4


 145:./Libraries/STM32_USB_Host_Library/Class/HID/Src/usbh_hid.c ****   interface = USBH_FindInterface(phost, phost->pActiveClass->ClassCode, HID_BOOT_CODE, 0xFFU);
 146:./Libraries/STM32_USB_Host_Library/Class/HID/Src/usbh_hid.c **** 
 147:./Libraries/STM32_USB_Host_Library/Class/HID/Src/usbh_hid.c ****   if ((interface == 0xFFU) || (interface >= USBH_MAX_NUM_INTERFACES)) /* No Valid Interface */
 148:./Libraries/STM32_USB_Host_Library/Class/HID/Src/usbh_hid.c ****   {
 149:./Libraries/STM32_USB_Host_Library/Class/HID/Src/usbh_hid.c ****     USBH_DbgLog("Cannot Find the interface for %s class.", phost->pActiveClass->Name);
 150:./Libraries/STM32_USB_Host_Library/Class/HID/Src/usbh_hid.c ****     return USBH_FAIL;
 151:./Libraries/STM32_USB_Host_Library/Class/HID/Src/usbh_hid.c ****   }
 152:./Libraries/STM32_USB_Host_Library/Class/HID/Src/usbh_hid.c **** 
 153:./Libraries/STM32_USB_Host_Library/Class/HID/Src/usbh_hid.c ****   status = USBH_SelectInterface(phost, interface);
 154:./Libraries/STM32_USB_Host_Library/Class/HID/Src/usbh_hid.c **** 
 155:./Libraries/STM32_USB_Host_Library/Class/HID/Src/usbh_hid.c ****   if (status != USBH_OK)
 156:./Libraries/STM32_USB_Host_Library/Class/HID/Src/usbh_hid.c ****   {
 157:./Libraries/STM32_USB_Host_Library/Class/HID/Src/usbh_hid.c ****     return USBH_FAIL;
 158:./Libraries/STM32_USB_Host_Library/Class/HID/Src/usbh_hid.c ****   }
 159:./Libraries/STM32_USB_Host_Library/Class/HID/Src/usbh_hid.c **** 
 160:./Libraries/STM32_USB_Host_Library/Class/HID/Src/usbh_hid.c ****   phost->pActiveClass->pData = (HID_HandleTypeDef *)USBH_malloc(sizeof(HID_HandleTypeDef));
 161:./Libraries/STM32_USB_Host_Library/Class/HID/Src/usbh_hid.c ****   HID_Handle = (HID_HandleTypeDef *) phost->pActiveClass->pData;
 162:./Libraries/STM32_USB_Host_Library/Class/HID/Src/usbh_hid.c **** 
 163:./Libraries/STM32_USB_Host_Library/Class/HID/Src/usbh_hid.c ****   if (HID_Handle == NULL)
 164:./Libraries/STM32_USB_Host_Library/Class/HID/Src/usbh_hid.c ****   {
 165:./Libraries/STM32_USB_Host_Library/Class/HID/Src/usbh_hid.c ****     USBH_DbgLog("Cannot allocate memory for HID Handle");
 166:./Libraries/STM32_USB_Host_Library/Class/HID/Src/usbh_hid.c ****     return USBH_FAIL;
 167:./Libraries/STM32_USB_Host_Library/Class/HID/Src/usbh_hid.c ****   }
 168:./Libraries/STM32_USB_Host_Library/Class/HID/Src/usbh_hid.c **** 
 169:./Libraries/STM32_USB_Host_Library/Class/HID/Src/usbh_hid.c ****   /* Initialize hid handler */
 170:./Libraries/STM32_USB_Host_Library/Class/HID/Src/usbh_hid.c ****   USBH_memset(HID_Handle, 0, sizeof(HID_HandleTypeDef));
 171:./Libraries/STM32_USB_Host_Library/Class/HID/Src/usbh_hid.c **** 
 172:./Libraries/STM32_USB_Host_Library/Class/HID/Src/usbh_hid.c ****   HID_Handle->state = HID_ERROR;
 173:./Libraries/STM32_USB_Host_Library/Class/HID/Src/usbh_hid.c **** 
 174:./Libraries/STM32_USB_Host_Library/Class/HID/Src/usbh_hid.c ****   /*Decode Bootclass Protocol: Mouse or Keyboard*/
 175:./Libraries/STM32_USB_Host_Library/Class/HID/Src/usbh_hid.c ****   if (phost->device.CfgDesc.Itf_Desc[interface].bInterfaceProtocol == HID_KEYBRD_BOOT_CODE)
 176:./Libraries/STM32_USB_Host_Library/Class/HID/Src/usbh_hid.c ****   {
 177:./Libraries/STM32_USB_Host_Library/Class/HID/Src/usbh_hid.c ****     USBH_UsrLog("KeyBoard device found!");
 178:./Libraries/STM32_USB_Host_Library/Class/HID/Src/usbh_hid.c ****     HID_Handle->Init = USBH_HID_KeybdInit;
 179:./Libraries/STM32_USB_Host_Library/Class/HID/Src/usbh_hid.c ****   }
 180:./Libraries/STM32_USB_Host_Library/Class/HID/Src/usbh_hid.c ****   else if (phost->device.CfgDesc.Itf_Desc[interface].bInterfaceProtocol  == HID_MOUSE_BOOT_CODE)
 181:./Libraries/STM32_USB_Host_Library/Class/HID/Src/usbh_hid.c ****   {
 182:./Libraries/STM32_USB_Host_Library/Class/HID/Src/usbh_hid.c ****     USBH_UsrLog("Mouse device found!");
 183:./Libraries/STM32_USB_Host_Library/Class/HID/Src/usbh_hid.c ****     HID_Handle->Init = USBH_HID_MouseInit;
 184:./Libraries/STM32_USB_Host_Library/Class/HID/Src/usbh_hid.c ****   }
 185:./Libraries/STM32_USB_Host_Library/Class/HID/Src/usbh_hid.c ****   else
 186:./Libraries/STM32_USB_Host_Library/Class/HID/Src/usbh_hid.c ****   {
 187:./Libraries/STM32_USB_Host_Library/Class/HID/Src/usbh_hid.c ****     USBH_UsrLog("Protocol not supported.");
 188:./Libraries/STM32_USB_Host_Library/Class/HID/Src/usbh_hid.c ****     return USBH_FAIL;
 189:./Libraries/STM32_USB_Host_Library/Class/HID/Src/usbh_hid.c ****   }
 190:./Libraries/STM32_USB_Host_Library/Class/HID/Src/usbh_hid.c **** 
 191:./Libraries/STM32_USB_Host_Library/Class/HID/Src/usbh_hid.c ****   HID_Handle->state     = HID_INIT;
 192:./Libraries/STM32_USB_Host_Library/Class/HID/Src/usbh_hid.c ****   HID_Handle->ctl_state = HID_REQ_INIT;
 193:./Libraries/STM32_USB_Host_Library/Class/HID/Src/usbh_hid.c ****   HID_Handle->ep_addr   = phost->device.CfgDesc.Itf_Desc[interface].Ep_Desc[0].bEndpointAddress;
 194:./Libraries/STM32_USB_Host_Library/Class/HID/Src/usbh_hid.c ****   HID_Handle->length    = phost->device.CfgDesc.Itf_Desc[interface].Ep_Desc[0].wMaxPacketSize;
 195:./Libraries/STM32_USB_Host_Library/Class/HID/Src/usbh_hid.c ****   HID_Handle->poll      = phost->device.CfgDesc.Itf_Desc[interface].Ep_Desc[0].bInterval;
 196:./Libraries/STM32_USB_Host_Library/Class/HID/Src/usbh_hid.c **** 
 197:./Libraries/STM32_USB_Host_Library/Class/HID/Src/usbh_hid.c ****   if (HID_Handle->poll  < HID_MIN_POLL)
 198:./Libraries/STM32_USB_Host_Library/Class/HID/Src/usbh_hid.c ****   {
 199:./Libraries/STM32_USB_Host_Library/Class/HID/Src/usbh_hid.c ****     HID_Handle->poll = HID_MIN_POLL;
 200:./Libraries/STM32_USB_Host_Library/Class/HID/Src/usbh_hid.c ****   }
 201:./Libraries/STM32_USB_Host_Library/Class/HID/Src/usbh_hid.c **** 
ARM GAS  /tmp/ccP1swG7.s 			page 5


 202:./Libraries/STM32_USB_Host_Library/Class/HID/Src/usbh_hid.c ****   /* Check fo available number of endpoints */
 203:./Libraries/STM32_USB_Host_Library/Class/HID/Src/usbh_hid.c ****   /* Find the number of EPs in the Interface Descriptor */
 204:./Libraries/STM32_USB_Host_Library/Class/HID/Src/usbh_hid.c ****   /* Choose the lower number in order not to overrun the buffer allocated */
 205:./Libraries/STM32_USB_Host_Library/Class/HID/Src/usbh_hid.c ****   max_ep = ((phost->device.CfgDesc.Itf_Desc[interface].bNumEndpoints <= USBH_MAX_NUM_ENDPOINTS) ?
 206:./Libraries/STM32_USB_Host_Library/Class/HID/Src/usbh_hid.c ****              phost->device.CfgDesc.Itf_Desc[interface].bNumEndpoints : USBH_MAX_NUM_ENDPOINTS);
 207:./Libraries/STM32_USB_Host_Library/Class/HID/Src/usbh_hid.c **** 
 208:./Libraries/STM32_USB_Host_Library/Class/HID/Src/usbh_hid.c **** 
 209:./Libraries/STM32_USB_Host_Library/Class/HID/Src/usbh_hid.c ****   /* Decode endpoint IN and OUT address from interface descriptor */
 210:./Libraries/STM32_USB_Host_Library/Class/HID/Src/usbh_hid.c ****   for (num = 0U; num < max_ep; num++)
 211:./Libraries/STM32_USB_Host_Library/Class/HID/Src/usbh_hid.c ****   {
 212:./Libraries/STM32_USB_Host_Library/Class/HID/Src/usbh_hid.c ****     if (phost->device.CfgDesc.Itf_Desc[interface].Ep_Desc[num].bEndpointAddress & 0x80U)
 213:./Libraries/STM32_USB_Host_Library/Class/HID/Src/usbh_hid.c ****     {
 214:./Libraries/STM32_USB_Host_Library/Class/HID/Src/usbh_hid.c ****       HID_Handle->InEp = (phost->device.CfgDesc.Itf_Desc[interface].Ep_Desc[num].bEndpointAddress);
 215:./Libraries/STM32_USB_Host_Library/Class/HID/Src/usbh_hid.c ****       HID_Handle->InPipe = USBH_AllocPipe(phost, HID_Handle->InEp);
 216:./Libraries/STM32_USB_Host_Library/Class/HID/Src/usbh_hid.c **** 
 217:./Libraries/STM32_USB_Host_Library/Class/HID/Src/usbh_hid.c ****       /* Open pipe for IN endpoint */
 218:./Libraries/STM32_USB_Host_Library/Class/HID/Src/usbh_hid.c ****       USBH_OpenPipe(phost, HID_Handle->InPipe, HID_Handle->InEp, phost->device.address,
 219:./Libraries/STM32_USB_Host_Library/Class/HID/Src/usbh_hid.c ****                     phost->device.speed, USB_EP_TYPE_INTR, HID_Handle->length);
 220:./Libraries/STM32_USB_Host_Library/Class/HID/Src/usbh_hid.c **** 
 221:./Libraries/STM32_USB_Host_Library/Class/HID/Src/usbh_hid.c ****       USBH_LL_SetToggle(phost, HID_Handle->InPipe, 0U);
 222:./Libraries/STM32_USB_Host_Library/Class/HID/Src/usbh_hid.c ****     }
 223:./Libraries/STM32_USB_Host_Library/Class/HID/Src/usbh_hid.c ****     else
 224:./Libraries/STM32_USB_Host_Library/Class/HID/Src/usbh_hid.c ****     {
 225:./Libraries/STM32_USB_Host_Library/Class/HID/Src/usbh_hid.c ****       HID_Handle->OutEp = (phost->device.CfgDesc.Itf_Desc[interface].Ep_Desc[num].bEndpointAddress)
 226:./Libraries/STM32_USB_Host_Library/Class/HID/Src/usbh_hid.c ****       HID_Handle->OutPipe  = USBH_AllocPipe(phost, HID_Handle->OutEp);
 227:./Libraries/STM32_USB_Host_Library/Class/HID/Src/usbh_hid.c **** 
 228:./Libraries/STM32_USB_Host_Library/Class/HID/Src/usbh_hid.c ****       /* Open pipe for OUT endpoint */
 229:./Libraries/STM32_USB_Host_Library/Class/HID/Src/usbh_hid.c ****       USBH_OpenPipe(phost, HID_Handle->OutPipe, HID_Handle->OutEp, phost->device.address,
 230:./Libraries/STM32_USB_Host_Library/Class/HID/Src/usbh_hid.c ****                     phost->device.speed, USB_EP_TYPE_INTR, HID_Handle->length);
 231:./Libraries/STM32_USB_Host_Library/Class/HID/Src/usbh_hid.c **** 
 232:./Libraries/STM32_USB_Host_Library/Class/HID/Src/usbh_hid.c ****       USBH_LL_SetToggle(phost, HID_Handle->OutPipe, 0U);
 233:./Libraries/STM32_USB_Host_Library/Class/HID/Src/usbh_hid.c ****     }
 234:./Libraries/STM32_USB_Host_Library/Class/HID/Src/usbh_hid.c ****   }
 235:./Libraries/STM32_USB_Host_Library/Class/HID/Src/usbh_hid.c **** 
 236:./Libraries/STM32_USB_Host_Library/Class/HID/Src/usbh_hid.c ****   return USBH_OK;
 237:./Libraries/STM32_USB_Host_Library/Class/HID/Src/usbh_hid.c **** }
 238:./Libraries/STM32_USB_Host_Library/Class/HID/Src/usbh_hid.c **** 
 239:./Libraries/STM32_USB_Host_Library/Class/HID/Src/usbh_hid.c **** /**
 240:./Libraries/STM32_USB_Host_Library/Class/HID/Src/usbh_hid.c ****   * @brief  USBH_HID_InterfaceDeInit
 241:./Libraries/STM32_USB_Host_Library/Class/HID/Src/usbh_hid.c ****   *         The function DeInit the Pipes used for the HID class.
 242:./Libraries/STM32_USB_Host_Library/Class/HID/Src/usbh_hid.c ****   * @param  phost: Host handle
 243:./Libraries/STM32_USB_Host_Library/Class/HID/Src/usbh_hid.c ****   * @retval USBH Status
 244:./Libraries/STM32_USB_Host_Library/Class/HID/Src/usbh_hid.c ****   */
 245:./Libraries/STM32_USB_Host_Library/Class/HID/Src/usbh_hid.c **** static USBH_StatusTypeDef USBH_HID_InterfaceDeInit(USBH_HandleTypeDef *phost)
 246:./Libraries/STM32_USB_Host_Library/Class/HID/Src/usbh_hid.c **** {
 247:./Libraries/STM32_USB_Host_Library/Class/HID/Src/usbh_hid.c ****   HID_HandleTypeDef *HID_Handle = (HID_HandleTypeDef *) phost->pActiveClass->pData;
 248:./Libraries/STM32_USB_Host_Library/Class/HID/Src/usbh_hid.c **** 
 249:./Libraries/STM32_USB_Host_Library/Class/HID/Src/usbh_hid.c ****   if (HID_Handle->InPipe != 0x00U)
 250:./Libraries/STM32_USB_Host_Library/Class/HID/Src/usbh_hid.c ****   {
 251:./Libraries/STM32_USB_Host_Library/Class/HID/Src/usbh_hid.c ****     USBH_ClosePipe(phost, HID_Handle->InPipe);
 252:./Libraries/STM32_USB_Host_Library/Class/HID/Src/usbh_hid.c ****     USBH_FreePipe(phost, HID_Handle->InPipe);
 253:./Libraries/STM32_USB_Host_Library/Class/HID/Src/usbh_hid.c ****     HID_Handle->InPipe = 0U;     /* Reset the pipe as Free */
 254:./Libraries/STM32_USB_Host_Library/Class/HID/Src/usbh_hid.c ****   }
 255:./Libraries/STM32_USB_Host_Library/Class/HID/Src/usbh_hid.c **** 
 256:./Libraries/STM32_USB_Host_Library/Class/HID/Src/usbh_hid.c ****   if (HID_Handle->OutPipe != 0x00U)
 257:./Libraries/STM32_USB_Host_Library/Class/HID/Src/usbh_hid.c ****   {
 258:./Libraries/STM32_USB_Host_Library/Class/HID/Src/usbh_hid.c ****     USBH_ClosePipe(phost, HID_Handle->OutPipe);
ARM GAS  /tmp/ccP1swG7.s 			page 6


 259:./Libraries/STM32_USB_Host_Library/Class/HID/Src/usbh_hid.c ****     USBH_FreePipe(phost, HID_Handle->OutPipe);
 260:./Libraries/STM32_USB_Host_Library/Class/HID/Src/usbh_hid.c ****     HID_Handle->OutPipe = 0U;     /* Reset the pipe as Free */
 261:./Libraries/STM32_USB_Host_Library/Class/HID/Src/usbh_hid.c ****   }
 262:./Libraries/STM32_USB_Host_Library/Class/HID/Src/usbh_hid.c **** 
 263:./Libraries/STM32_USB_Host_Library/Class/HID/Src/usbh_hid.c ****   if (phost->pActiveClass->pData)
 264:./Libraries/STM32_USB_Host_Library/Class/HID/Src/usbh_hid.c ****   {
 265:./Libraries/STM32_USB_Host_Library/Class/HID/Src/usbh_hid.c ****     USBH_free(phost->pActiveClass->pData);
 266:./Libraries/STM32_USB_Host_Library/Class/HID/Src/usbh_hid.c ****     phost->pActiveClass->pData = 0U;
 267:./Libraries/STM32_USB_Host_Library/Class/HID/Src/usbh_hid.c ****   }
 268:./Libraries/STM32_USB_Host_Library/Class/HID/Src/usbh_hid.c **** 
 269:./Libraries/STM32_USB_Host_Library/Class/HID/Src/usbh_hid.c ****   return USBH_OK;
 270:./Libraries/STM32_USB_Host_Library/Class/HID/Src/usbh_hid.c **** }
 271:./Libraries/STM32_USB_Host_Library/Class/HID/Src/usbh_hid.c **** 
 272:./Libraries/STM32_USB_Host_Library/Class/HID/Src/usbh_hid.c **** /**
 273:./Libraries/STM32_USB_Host_Library/Class/HID/Src/usbh_hid.c ****   * @brief  USBH_HID_ClassRequest
 274:./Libraries/STM32_USB_Host_Library/Class/HID/Src/usbh_hid.c ****   *         The function is responsible for handling Standard requests
 275:./Libraries/STM32_USB_Host_Library/Class/HID/Src/usbh_hid.c ****   *         for HID class.
 276:./Libraries/STM32_USB_Host_Library/Class/HID/Src/usbh_hid.c ****   * @param  phost: Host handle
 277:./Libraries/STM32_USB_Host_Library/Class/HID/Src/usbh_hid.c ****   * @retval USBH Status
 278:./Libraries/STM32_USB_Host_Library/Class/HID/Src/usbh_hid.c ****   */
 279:./Libraries/STM32_USB_Host_Library/Class/HID/Src/usbh_hid.c **** static USBH_StatusTypeDef USBH_HID_ClassRequest(USBH_HandleTypeDef *phost)
 280:./Libraries/STM32_USB_Host_Library/Class/HID/Src/usbh_hid.c **** {
 281:./Libraries/STM32_USB_Host_Library/Class/HID/Src/usbh_hid.c **** 
 282:./Libraries/STM32_USB_Host_Library/Class/HID/Src/usbh_hid.c ****   USBH_StatusTypeDef status         = USBH_BUSY;
 283:./Libraries/STM32_USB_Host_Library/Class/HID/Src/usbh_hid.c ****   USBH_StatusTypeDef classReqStatus = USBH_BUSY;
 284:./Libraries/STM32_USB_Host_Library/Class/HID/Src/usbh_hid.c ****   HID_HandleTypeDef *HID_Handle = (HID_HandleTypeDef *) phost->pActiveClass->pData;
 285:./Libraries/STM32_USB_Host_Library/Class/HID/Src/usbh_hid.c **** 
 286:./Libraries/STM32_USB_Host_Library/Class/HID/Src/usbh_hid.c ****   /* Switch HID state machine */
 287:./Libraries/STM32_USB_Host_Library/Class/HID/Src/usbh_hid.c ****   switch (HID_Handle->ctl_state)
 288:./Libraries/STM32_USB_Host_Library/Class/HID/Src/usbh_hid.c ****   {
 289:./Libraries/STM32_USB_Host_Library/Class/HID/Src/usbh_hid.c ****   case HID_REQ_INIT:
 290:./Libraries/STM32_USB_Host_Library/Class/HID/Src/usbh_hid.c ****   case HID_REQ_GET_HID_DESC:
 291:./Libraries/STM32_USB_Host_Library/Class/HID/Src/usbh_hid.c **** 
 292:./Libraries/STM32_USB_Host_Library/Class/HID/Src/usbh_hid.c ****     USBH_HID_ParseHIDDesc(&HID_Handle->HID_Desc, phost->device.CfgDesc_Raw);
 293:./Libraries/STM32_USB_Host_Library/Class/HID/Src/usbh_hid.c **** 
 294:./Libraries/STM32_USB_Host_Library/Class/HID/Src/usbh_hid.c ****     HID_Handle->ctl_state = HID_REQ_GET_REPORT_DESC;
 295:./Libraries/STM32_USB_Host_Library/Class/HID/Src/usbh_hid.c **** 
 296:./Libraries/STM32_USB_Host_Library/Class/HID/Src/usbh_hid.c ****     break;
 297:./Libraries/STM32_USB_Host_Library/Class/HID/Src/usbh_hid.c ****   case HID_REQ_GET_REPORT_DESC:
 298:./Libraries/STM32_USB_Host_Library/Class/HID/Src/usbh_hid.c **** 
 299:./Libraries/STM32_USB_Host_Library/Class/HID/Src/usbh_hid.c ****     /* Get Report Desc */
 300:./Libraries/STM32_USB_Host_Library/Class/HID/Src/usbh_hid.c ****     classReqStatus = USBH_HID_GetHIDReportDescriptor(phost, HID_Handle->HID_Desc.wItemLength);
 301:./Libraries/STM32_USB_Host_Library/Class/HID/Src/usbh_hid.c ****     if (classReqStatus == USBH_OK)
 302:./Libraries/STM32_USB_Host_Library/Class/HID/Src/usbh_hid.c ****     {
 303:./Libraries/STM32_USB_Host_Library/Class/HID/Src/usbh_hid.c ****       /* The descriptor is available in phost->device.Data */
 304:./Libraries/STM32_USB_Host_Library/Class/HID/Src/usbh_hid.c ****       HID_Handle->ctl_state = HID_REQ_SET_IDLE;
 305:./Libraries/STM32_USB_Host_Library/Class/HID/Src/usbh_hid.c ****     }
 306:./Libraries/STM32_USB_Host_Library/Class/HID/Src/usbh_hid.c ****     else if (classReqStatus == USBH_NOT_SUPPORTED)
 307:./Libraries/STM32_USB_Host_Library/Class/HID/Src/usbh_hid.c ****     {
 308:./Libraries/STM32_USB_Host_Library/Class/HID/Src/usbh_hid.c ****       USBH_ErrLog("Control error: HID: Device Get Report Descriptor request failed");
 309:./Libraries/STM32_USB_Host_Library/Class/HID/Src/usbh_hid.c ****       status = USBH_FAIL;
 310:./Libraries/STM32_USB_Host_Library/Class/HID/Src/usbh_hid.c ****     }
 311:./Libraries/STM32_USB_Host_Library/Class/HID/Src/usbh_hid.c ****     else
 312:./Libraries/STM32_USB_Host_Library/Class/HID/Src/usbh_hid.c ****     {
 313:./Libraries/STM32_USB_Host_Library/Class/HID/Src/usbh_hid.c ****       /* .. */
 314:./Libraries/STM32_USB_Host_Library/Class/HID/Src/usbh_hid.c ****     }
 315:./Libraries/STM32_USB_Host_Library/Class/HID/Src/usbh_hid.c **** 
ARM GAS  /tmp/ccP1swG7.s 			page 7


 316:./Libraries/STM32_USB_Host_Library/Class/HID/Src/usbh_hid.c ****     break;
 317:./Libraries/STM32_USB_Host_Library/Class/HID/Src/usbh_hid.c **** 
 318:./Libraries/STM32_USB_Host_Library/Class/HID/Src/usbh_hid.c ****   case HID_REQ_SET_IDLE:
 319:./Libraries/STM32_USB_Host_Library/Class/HID/Src/usbh_hid.c **** 
 320:./Libraries/STM32_USB_Host_Library/Class/HID/Src/usbh_hid.c ****     classReqStatus = USBH_HID_SetIdle(phost, 0U, 0U);
 321:./Libraries/STM32_USB_Host_Library/Class/HID/Src/usbh_hid.c **** 
 322:./Libraries/STM32_USB_Host_Library/Class/HID/Src/usbh_hid.c ****     /* set Idle */
 323:./Libraries/STM32_USB_Host_Library/Class/HID/Src/usbh_hid.c ****     if (classReqStatus == USBH_OK)
 324:./Libraries/STM32_USB_Host_Library/Class/HID/Src/usbh_hid.c ****     {
 325:./Libraries/STM32_USB_Host_Library/Class/HID/Src/usbh_hid.c ****       HID_Handle->ctl_state = HID_REQ_SET_PROTOCOL;
 326:./Libraries/STM32_USB_Host_Library/Class/HID/Src/usbh_hid.c ****     }
 327:./Libraries/STM32_USB_Host_Library/Class/HID/Src/usbh_hid.c ****     else
 328:./Libraries/STM32_USB_Host_Library/Class/HID/Src/usbh_hid.c ****     {
 329:./Libraries/STM32_USB_Host_Library/Class/HID/Src/usbh_hid.c ****       if (classReqStatus == USBH_NOT_SUPPORTED)
 330:./Libraries/STM32_USB_Host_Library/Class/HID/Src/usbh_hid.c ****       {
 331:./Libraries/STM32_USB_Host_Library/Class/HID/Src/usbh_hid.c ****         HID_Handle->ctl_state = HID_REQ_SET_PROTOCOL;
 332:./Libraries/STM32_USB_Host_Library/Class/HID/Src/usbh_hid.c ****       }
 333:./Libraries/STM32_USB_Host_Library/Class/HID/Src/usbh_hid.c ****     }
 334:./Libraries/STM32_USB_Host_Library/Class/HID/Src/usbh_hid.c ****     break;
 335:./Libraries/STM32_USB_Host_Library/Class/HID/Src/usbh_hid.c **** 
 336:./Libraries/STM32_USB_Host_Library/Class/HID/Src/usbh_hid.c ****   case HID_REQ_SET_PROTOCOL:
 337:./Libraries/STM32_USB_Host_Library/Class/HID/Src/usbh_hid.c ****     /* set protocol */
 338:./Libraries/STM32_USB_Host_Library/Class/HID/Src/usbh_hid.c ****     classReqStatus = USBH_HID_SetProtocol(phost, 0U);
 339:./Libraries/STM32_USB_Host_Library/Class/HID/Src/usbh_hid.c ****     if (classReqStatus == USBH_OK)
 340:./Libraries/STM32_USB_Host_Library/Class/HID/Src/usbh_hid.c ****     {
 341:./Libraries/STM32_USB_Host_Library/Class/HID/Src/usbh_hid.c ****       HID_Handle->ctl_state = HID_REQ_IDLE;
 342:./Libraries/STM32_USB_Host_Library/Class/HID/Src/usbh_hid.c **** 
 343:./Libraries/STM32_USB_Host_Library/Class/HID/Src/usbh_hid.c ****       /* all requests performed*/
 344:./Libraries/STM32_USB_Host_Library/Class/HID/Src/usbh_hid.c ****       phost->pUser(phost, HOST_USER_CLASS_ACTIVE);
 345:./Libraries/STM32_USB_Host_Library/Class/HID/Src/usbh_hid.c ****       status = USBH_OK;
 346:./Libraries/STM32_USB_Host_Library/Class/HID/Src/usbh_hid.c ****     }
 347:./Libraries/STM32_USB_Host_Library/Class/HID/Src/usbh_hid.c ****     else if (classReqStatus == USBH_NOT_SUPPORTED)
 348:./Libraries/STM32_USB_Host_Library/Class/HID/Src/usbh_hid.c ****     {
 349:./Libraries/STM32_USB_Host_Library/Class/HID/Src/usbh_hid.c ****       USBH_ErrLog("Control error: HID: Device Set protocol request failed");
 350:./Libraries/STM32_USB_Host_Library/Class/HID/Src/usbh_hid.c ****       status = USBH_FAIL;
 351:./Libraries/STM32_USB_Host_Library/Class/HID/Src/usbh_hid.c ****     }
 352:./Libraries/STM32_USB_Host_Library/Class/HID/Src/usbh_hid.c ****     else
 353:./Libraries/STM32_USB_Host_Library/Class/HID/Src/usbh_hid.c ****     {
 354:./Libraries/STM32_USB_Host_Library/Class/HID/Src/usbh_hid.c ****       /* .. */
 355:./Libraries/STM32_USB_Host_Library/Class/HID/Src/usbh_hid.c ****     }
 356:./Libraries/STM32_USB_Host_Library/Class/HID/Src/usbh_hid.c ****     break;
 357:./Libraries/STM32_USB_Host_Library/Class/HID/Src/usbh_hid.c **** 
 358:./Libraries/STM32_USB_Host_Library/Class/HID/Src/usbh_hid.c ****   case HID_REQ_IDLE:
 359:./Libraries/STM32_USB_Host_Library/Class/HID/Src/usbh_hid.c ****   default:
 360:./Libraries/STM32_USB_Host_Library/Class/HID/Src/usbh_hid.c ****     break;
 361:./Libraries/STM32_USB_Host_Library/Class/HID/Src/usbh_hid.c ****   }
 362:./Libraries/STM32_USB_Host_Library/Class/HID/Src/usbh_hid.c **** 
 363:./Libraries/STM32_USB_Host_Library/Class/HID/Src/usbh_hid.c ****   return status;
 364:./Libraries/STM32_USB_Host_Library/Class/HID/Src/usbh_hid.c **** }
 365:./Libraries/STM32_USB_Host_Library/Class/HID/Src/usbh_hid.c **** 
 366:./Libraries/STM32_USB_Host_Library/Class/HID/Src/usbh_hid.c **** /**
 367:./Libraries/STM32_USB_Host_Library/Class/HID/Src/usbh_hid.c ****   * @brief  USBH_HID_Process
 368:./Libraries/STM32_USB_Host_Library/Class/HID/Src/usbh_hid.c ****   *         The function is for managing state machine for HID data transfers
 369:./Libraries/STM32_USB_Host_Library/Class/HID/Src/usbh_hid.c ****   * @param  phost: Host handle
 370:./Libraries/STM32_USB_Host_Library/Class/HID/Src/usbh_hid.c ****   * @retval USBH Status
 371:./Libraries/STM32_USB_Host_Library/Class/HID/Src/usbh_hid.c ****   */
 372:./Libraries/STM32_USB_Host_Library/Class/HID/Src/usbh_hid.c **** static USBH_StatusTypeDef USBH_HID_Process(USBH_HandleTypeDef *phost)
ARM GAS  /tmp/ccP1swG7.s 			page 8


 373:./Libraries/STM32_USB_Host_Library/Class/HID/Src/usbh_hid.c **** {
 374:./Libraries/STM32_USB_Host_Library/Class/HID/Src/usbh_hid.c ****   USBH_StatusTypeDef status = USBH_OK;
 375:./Libraries/STM32_USB_Host_Library/Class/HID/Src/usbh_hid.c ****   HID_HandleTypeDef *HID_Handle = (HID_HandleTypeDef *) phost->pActiveClass->pData;
 376:./Libraries/STM32_USB_Host_Library/Class/HID/Src/usbh_hid.c ****   uint32_t XferSize;
 377:./Libraries/STM32_USB_Host_Library/Class/HID/Src/usbh_hid.c **** 
 378:./Libraries/STM32_USB_Host_Library/Class/HID/Src/usbh_hid.c ****   switch (HID_Handle->state)
 379:./Libraries/STM32_USB_Host_Library/Class/HID/Src/usbh_hid.c ****   {
 380:./Libraries/STM32_USB_Host_Library/Class/HID/Src/usbh_hid.c ****     case HID_INIT:
 381:./Libraries/STM32_USB_Host_Library/Class/HID/Src/usbh_hid.c ****       HID_Handle->Init(phost);
 382:./Libraries/STM32_USB_Host_Library/Class/HID/Src/usbh_hid.c ****       HID_Handle->state = HID_IDLE;
 383:./Libraries/STM32_USB_Host_Library/Class/HID/Src/usbh_hid.c **** 
 384:./Libraries/STM32_USB_Host_Library/Class/HID/Src/usbh_hid.c **** #if (USBH_USE_OS == 1U)
 385:./Libraries/STM32_USB_Host_Library/Class/HID/Src/usbh_hid.c ****       phost->os_msg = (uint32_t)USBH_URB_EVENT;
 386:./Libraries/STM32_USB_Host_Library/Class/HID/Src/usbh_hid.c **** #if (osCMSIS < 0x20000U)
 387:./Libraries/STM32_USB_Host_Library/Class/HID/Src/usbh_hid.c ****       (void)osMessagePut(phost->os_event, phost->os_msg, 0U);
 388:./Libraries/STM32_USB_Host_Library/Class/HID/Src/usbh_hid.c **** #else
 389:./Libraries/STM32_USB_Host_Library/Class/HID/Src/usbh_hid.c ****       (void)osMessageQueuePut(phost->os_event, &phost->os_msg, 0U, NULL);
 390:./Libraries/STM32_USB_Host_Library/Class/HID/Src/usbh_hid.c **** #endif
 391:./Libraries/STM32_USB_Host_Library/Class/HID/Src/usbh_hid.c **** #endif
 392:./Libraries/STM32_USB_Host_Library/Class/HID/Src/usbh_hid.c ****       break;
 393:./Libraries/STM32_USB_Host_Library/Class/HID/Src/usbh_hid.c **** 
 394:./Libraries/STM32_USB_Host_Library/Class/HID/Src/usbh_hid.c ****     case HID_IDLE:
 395:./Libraries/STM32_USB_Host_Library/Class/HID/Src/usbh_hid.c ****       status = USBH_HID_GetReport(phost, 0x01U, 0U, HID_Handle->pData, (uint8_t)HID_Handle->length)
 396:./Libraries/STM32_USB_Host_Library/Class/HID/Src/usbh_hid.c ****       if (status == USBH_OK)
 397:./Libraries/STM32_USB_Host_Library/Class/HID/Src/usbh_hid.c ****       {
 398:./Libraries/STM32_USB_Host_Library/Class/HID/Src/usbh_hid.c ****         HID_Handle->state = HID_SYNC;
 399:./Libraries/STM32_USB_Host_Library/Class/HID/Src/usbh_hid.c ****       }
 400:./Libraries/STM32_USB_Host_Library/Class/HID/Src/usbh_hid.c ****       else if (status == USBH_BUSY)
 401:./Libraries/STM32_USB_Host_Library/Class/HID/Src/usbh_hid.c ****       {
 402:./Libraries/STM32_USB_Host_Library/Class/HID/Src/usbh_hid.c ****         HID_Handle->state = HID_IDLE;
 403:./Libraries/STM32_USB_Host_Library/Class/HID/Src/usbh_hid.c ****         status = USBH_OK;
 404:./Libraries/STM32_USB_Host_Library/Class/HID/Src/usbh_hid.c ****       }
 405:./Libraries/STM32_USB_Host_Library/Class/HID/Src/usbh_hid.c ****       else if (status == USBH_NOT_SUPPORTED)
 406:./Libraries/STM32_USB_Host_Library/Class/HID/Src/usbh_hid.c ****       {
 407:./Libraries/STM32_USB_Host_Library/Class/HID/Src/usbh_hid.c ****         HID_Handle->state = HID_SYNC;
 408:./Libraries/STM32_USB_Host_Library/Class/HID/Src/usbh_hid.c ****         status = USBH_OK;
 409:./Libraries/STM32_USB_Host_Library/Class/HID/Src/usbh_hid.c ****       }
 410:./Libraries/STM32_USB_Host_Library/Class/HID/Src/usbh_hid.c ****       else
 411:./Libraries/STM32_USB_Host_Library/Class/HID/Src/usbh_hid.c ****       {
 412:./Libraries/STM32_USB_Host_Library/Class/HID/Src/usbh_hid.c ****         HID_Handle->state = HID_ERROR;
 413:./Libraries/STM32_USB_Host_Library/Class/HID/Src/usbh_hid.c ****         status = USBH_FAIL;
 414:./Libraries/STM32_USB_Host_Library/Class/HID/Src/usbh_hid.c ****       }
 415:./Libraries/STM32_USB_Host_Library/Class/HID/Src/usbh_hid.c **** 
 416:./Libraries/STM32_USB_Host_Library/Class/HID/Src/usbh_hid.c **** #if (USBH_USE_OS == 1U)
 417:./Libraries/STM32_USB_Host_Library/Class/HID/Src/usbh_hid.c ****       phost->os_msg = (uint32_t)USBH_URB_EVENT;
 418:./Libraries/STM32_USB_Host_Library/Class/HID/Src/usbh_hid.c **** #if (osCMSIS < 0x20000U)
 419:./Libraries/STM32_USB_Host_Library/Class/HID/Src/usbh_hid.c ****       (void)osMessagePut(phost->os_event, phost->os_msg, 0U);
 420:./Libraries/STM32_USB_Host_Library/Class/HID/Src/usbh_hid.c **** #else
 421:./Libraries/STM32_USB_Host_Library/Class/HID/Src/usbh_hid.c ****       (void)osMessageQueuePut(phost->os_event, &phost->os_msg, 0U, NULL);
 422:./Libraries/STM32_USB_Host_Library/Class/HID/Src/usbh_hid.c **** #endif
 423:./Libraries/STM32_USB_Host_Library/Class/HID/Src/usbh_hid.c **** #endif
 424:./Libraries/STM32_USB_Host_Library/Class/HID/Src/usbh_hid.c ****       break;
 425:./Libraries/STM32_USB_Host_Library/Class/HID/Src/usbh_hid.c **** 
 426:./Libraries/STM32_USB_Host_Library/Class/HID/Src/usbh_hid.c ****     case HID_SYNC:
 427:./Libraries/STM32_USB_Host_Library/Class/HID/Src/usbh_hid.c ****       /* Sync with start of Even Frame */
 428:./Libraries/STM32_USB_Host_Library/Class/HID/Src/usbh_hid.c ****       if (phost->Timer & 1U)
 429:./Libraries/STM32_USB_Host_Library/Class/HID/Src/usbh_hid.c ****       {
ARM GAS  /tmp/ccP1swG7.s 			page 9


 430:./Libraries/STM32_USB_Host_Library/Class/HID/Src/usbh_hid.c ****         HID_Handle->state = HID_GET_DATA;
 431:./Libraries/STM32_USB_Host_Library/Class/HID/Src/usbh_hid.c ****       }
 432:./Libraries/STM32_USB_Host_Library/Class/HID/Src/usbh_hid.c **** 
 433:./Libraries/STM32_USB_Host_Library/Class/HID/Src/usbh_hid.c **** #if (USBH_USE_OS == 1U)
 434:./Libraries/STM32_USB_Host_Library/Class/HID/Src/usbh_hid.c ****       phost->os_msg = (uint32_t)USBH_URB_EVENT;
 435:./Libraries/STM32_USB_Host_Library/Class/HID/Src/usbh_hid.c **** #if (osCMSIS < 0x20000U)
 436:./Libraries/STM32_USB_Host_Library/Class/HID/Src/usbh_hid.c ****       (void)osMessagePut(phost->os_event, phost->os_msg, 0U);
 437:./Libraries/STM32_USB_Host_Library/Class/HID/Src/usbh_hid.c **** #else
 438:./Libraries/STM32_USB_Host_Library/Class/HID/Src/usbh_hid.c ****       (void)osMessageQueuePut(phost->os_event, &phost->os_msg, 0U, NULL);
 439:./Libraries/STM32_USB_Host_Library/Class/HID/Src/usbh_hid.c **** #endif
 440:./Libraries/STM32_USB_Host_Library/Class/HID/Src/usbh_hid.c **** #endif
 441:./Libraries/STM32_USB_Host_Library/Class/HID/Src/usbh_hid.c ****       break;
 442:./Libraries/STM32_USB_Host_Library/Class/HID/Src/usbh_hid.c **** 
 443:./Libraries/STM32_USB_Host_Library/Class/HID/Src/usbh_hid.c ****     case HID_GET_DATA:
 444:./Libraries/STM32_USB_Host_Library/Class/HID/Src/usbh_hid.c ****       USBH_InterruptReceiveData(phost, HID_Handle->pData,
 445:./Libraries/STM32_USB_Host_Library/Class/HID/Src/usbh_hid.c ****                                 (uint8_t)HID_Handle->length,
 446:./Libraries/STM32_USB_Host_Library/Class/HID/Src/usbh_hid.c ****                                 HID_Handle->InPipe);
 447:./Libraries/STM32_USB_Host_Library/Class/HID/Src/usbh_hid.c **** 
 448:./Libraries/STM32_USB_Host_Library/Class/HID/Src/usbh_hid.c ****       HID_Handle->state = HID_POLL;
 449:./Libraries/STM32_USB_Host_Library/Class/HID/Src/usbh_hid.c ****       HID_Handle->timer = phost->Timer;
 450:./Libraries/STM32_USB_Host_Library/Class/HID/Src/usbh_hid.c ****       HID_Handle->DataReady = 0U;
 451:./Libraries/STM32_USB_Host_Library/Class/HID/Src/usbh_hid.c ****       break;
 452:./Libraries/STM32_USB_Host_Library/Class/HID/Src/usbh_hid.c **** 
 453:./Libraries/STM32_USB_Host_Library/Class/HID/Src/usbh_hid.c ****     case HID_POLL:
 454:./Libraries/STM32_USB_Host_Library/Class/HID/Src/usbh_hid.c ****       if (USBH_LL_GetURBState(phost, HID_Handle->InPipe) == USBH_URB_DONE)
 455:./Libraries/STM32_USB_Host_Library/Class/HID/Src/usbh_hid.c ****       {
 456:./Libraries/STM32_USB_Host_Library/Class/HID/Src/usbh_hid.c ****         XferSize = USBH_LL_GetLastXferSize(phost, HID_Handle->InPipe);
 457:./Libraries/STM32_USB_Host_Library/Class/HID/Src/usbh_hid.c **** 
 458:./Libraries/STM32_USB_Host_Library/Class/HID/Src/usbh_hid.c ****         if ((HID_Handle->DataReady == 0U) && (XferSize != 0U))
 459:./Libraries/STM32_USB_Host_Library/Class/HID/Src/usbh_hid.c ****         {
 460:./Libraries/STM32_USB_Host_Library/Class/HID/Src/usbh_hid.c ****           USBH_HID_FifoWrite(&HID_Handle->fifo, HID_Handle->pData, HID_Handle->length);
 461:./Libraries/STM32_USB_Host_Library/Class/HID/Src/usbh_hid.c ****           HID_Handle->DataReady = 1U;
 462:./Libraries/STM32_USB_Host_Library/Class/HID/Src/usbh_hid.c ****           USBH_HID_EventCallback(phost);
 463:./Libraries/STM32_USB_Host_Library/Class/HID/Src/usbh_hid.c **** 
 464:./Libraries/STM32_USB_Host_Library/Class/HID/Src/usbh_hid.c **** #if (USBH_USE_OS == 1U)
 465:./Libraries/STM32_USB_Host_Library/Class/HID/Src/usbh_hid.c ****           phost->os_msg = (uint32_t)USBH_URB_EVENT;
 466:./Libraries/STM32_USB_Host_Library/Class/HID/Src/usbh_hid.c **** #if (osCMSIS < 0x20000U)
 467:./Libraries/STM32_USB_Host_Library/Class/HID/Src/usbh_hid.c ****           (void)osMessagePut(phost->os_event, phost->os_msg, 0U);
 468:./Libraries/STM32_USB_Host_Library/Class/HID/Src/usbh_hid.c **** #else
 469:./Libraries/STM32_USB_Host_Library/Class/HID/Src/usbh_hid.c ****           (void)osMessageQueuePut(phost->os_event, &phost->os_msg, 0U, NULL);
 470:./Libraries/STM32_USB_Host_Library/Class/HID/Src/usbh_hid.c **** #endif
 471:./Libraries/STM32_USB_Host_Library/Class/HID/Src/usbh_hid.c **** #endif
 472:./Libraries/STM32_USB_Host_Library/Class/HID/Src/usbh_hid.c ****         }
 473:./Libraries/STM32_USB_Host_Library/Class/HID/Src/usbh_hid.c ****       }
 474:./Libraries/STM32_USB_Host_Library/Class/HID/Src/usbh_hid.c ****       else
 475:./Libraries/STM32_USB_Host_Library/Class/HID/Src/usbh_hid.c ****       {
 476:./Libraries/STM32_USB_Host_Library/Class/HID/Src/usbh_hid.c ****         /* IN Endpoint Stalled */
 477:./Libraries/STM32_USB_Host_Library/Class/HID/Src/usbh_hid.c ****         if (USBH_LL_GetURBState(phost, HID_Handle->InPipe) == USBH_URB_STALL)
 478:./Libraries/STM32_USB_Host_Library/Class/HID/Src/usbh_hid.c ****         {
 479:./Libraries/STM32_USB_Host_Library/Class/HID/Src/usbh_hid.c ****           /* Issue Clear Feature on interrupt IN endpoint */
 480:./Libraries/STM32_USB_Host_Library/Class/HID/Src/usbh_hid.c ****           if (USBH_ClrFeature(phost, HID_Handle->ep_addr) == USBH_OK)
 481:./Libraries/STM32_USB_Host_Library/Class/HID/Src/usbh_hid.c ****           {
 482:./Libraries/STM32_USB_Host_Library/Class/HID/Src/usbh_hid.c ****             /* Change state to issue next IN token */
 483:./Libraries/STM32_USB_Host_Library/Class/HID/Src/usbh_hid.c ****             HID_Handle->state = HID_GET_DATA;
 484:./Libraries/STM32_USB_Host_Library/Class/HID/Src/usbh_hid.c ****           }
 485:./Libraries/STM32_USB_Host_Library/Class/HID/Src/usbh_hid.c ****         }
 486:./Libraries/STM32_USB_Host_Library/Class/HID/Src/usbh_hid.c ****       }
ARM GAS  /tmp/ccP1swG7.s 			page 10


 487:./Libraries/STM32_USB_Host_Library/Class/HID/Src/usbh_hid.c ****       break;
 488:./Libraries/STM32_USB_Host_Library/Class/HID/Src/usbh_hid.c **** 
 489:./Libraries/STM32_USB_Host_Library/Class/HID/Src/usbh_hid.c ****     default:
 490:./Libraries/STM32_USB_Host_Library/Class/HID/Src/usbh_hid.c ****       break;
 491:./Libraries/STM32_USB_Host_Library/Class/HID/Src/usbh_hid.c ****   }
 492:./Libraries/STM32_USB_Host_Library/Class/HID/Src/usbh_hid.c **** 
 493:./Libraries/STM32_USB_Host_Library/Class/HID/Src/usbh_hid.c ****   return status;
 494:./Libraries/STM32_USB_Host_Library/Class/HID/Src/usbh_hid.c **** }
 495:./Libraries/STM32_USB_Host_Library/Class/HID/Src/usbh_hid.c **** 
 496:./Libraries/STM32_USB_Host_Library/Class/HID/Src/usbh_hid.c **** /**
 497:./Libraries/STM32_USB_Host_Library/Class/HID/Src/usbh_hid.c ****   * @brief  USBH_HID_SOFProcess
 498:./Libraries/STM32_USB_Host_Library/Class/HID/Src/usbh_hid.c ****   *         The function is for managing the SOF Process
 499:./Libraries/STM32_USB_Host_Library/Class/HID/Src/usbh_hid.c ****   * @param  phost: Host handle
 500:./Libraries/STM32_USB_Host_Library/Class/HID/Src/usbh_hid.c ****   * @retval USBH Status
 501:./Libraries/STM32_USB_Host_Library/Class/HID/Src/usbh_hid.c ****   */
 502:./Libraries/STM32_USB_Host_Library/Class/HID/Src/usbh_hid.c **** static USBH_StatusTypeDef USBH_HID_SOFProcess(USBH_HandleTypeDef *phost)
 503:./Libraries/STM32_USB_Host_Library/Class/HID/Src/usbh_hid.c **** {
  29              		.loc 1 503 1 view -0
  30              		.cfi_startproc
  31              		@ args = 0, pretend = 0, frame = 0
  32              		@ frame_needed = 0, uses_anonymous_args = 0
 504:./Libraries/STM32_USB_Host_Library/Class/HID/Src/usbh_hid.c ****   HID_HandleTypeDef *HID_Handle = (HID_HandleTypeDef *) phost->pActiveClass->pData;
  33              		.loc 1 504 3 view .LVU1
 503:./Libraries/STM32_USB_Host_Library/Class/HID/Src/usbh_hid.c ****   HID_HandleTypeDef *HID_Handle = (HID_HandleTypeDef *) phost->pActiveClass->pData;
  34              		.loc 1 503 1 is_stmt 0 view .LVU2
  35 0000 38B5     		push	{r3, r4, r5, lr}
  36              	.LCFI0:
  37              		.cfi_def_cfa_offset 16
  38              		.cfi_offset 3, -16
  39              		.cfi_offset 4, -12
  40              		.cfi_offset 5, -8
  41              		.cfi_offset 14, -4
  42              		.loc 1 504 22 view .LVU3
  43 0002 D0F87C34 		ldr	r3, [r0, #1148]
  44 0006 DA69     		ldr	r2, [r3, #28]
  45              	.LVL1:
 505:./Libraries/STM32_USB_Host_Library/Class/HID/Src/usbh_hid.c **** 
 506:./Libraries/STM32_USB_Host_Library/Class/HID/Src/usbh_hid.c ****   if (HID_Handle->state == HID_POLL)
  46              		.loc 1 506 3 is_stmt 1 view .LVU4
  47              		.loc 1 506 6 is_stmt 0 view .LVU5
  48 0008 9378     		ldrb	r3, [r2, #2]	@ zero_extendqisi2
  49 000a 062B     		cmp	r3, #6
  50 000c 01D0     		beq	.L5
  51              	.L2:
 507:./Libraries/STM32_USB_Host_Library/Class/HID/Src/usbh_hid.c ****   {
 508:./Libraries/STM32_USB_Host_Library/Class/HID/Src/usbh_hid.c ****     if ((phost->Timer - HID_Handle->timer) >= HID_Handle->poll)
 509:./Libraries/STM32_USB_Host_Library/Class/HID/Src/usbh_hid.c ****     {
 510:./Libraries/STM32_USB_Host_Library/Class/HID/Src/usbh_hid.c ****       HID_Handle->state = HID_GET_DATA;
 511:./Libraries/STM32_USB_Host_Library/Class/HID/Src/usbh_hid.c **** 
 512:./Libraries/STM32_USB_Host_Library/Class/HID/Src/usbh_hid.c **** #if (USBH_USE_OS == 1U)
 513:./Libraries/STM32_USB_Host_Library/Class/HID/Src/usbh_hid.c ****       phost->os_msg = (uint32_t)USBH_URB_EVENT;
 514:./Libraries/STM32_USB_Host_Library/Class/HID/Src/usbh_hid.c **** #if (osCMSIS < 0x20000U)
 515:./Libraries/STM32_USB_Host_Library/Class/HID/Src/usbh_hid.c ****       (void)osMessagePut(phost->os_event, phost->os_msg, 0U);
 516:./Libraries/STM32_USB_Host_Library/Class/HID/Src/usbh_hid.c **** #else
 517:./Libraries/STM32_USB_Host_Library/Class/HID/Src/usbh_hid.c ****       (void)osMessageQueuePut(phost->os_event, &phost->os_msg, 0U, NULL);
 518:./Libraries/STM32_USB_Host_Library/Class/HID/Src/usbh_hid.c **** #endif
 519:./Libraries/STM32_USB_Host_Library/Class/HID/Src/usbh_hid.c **** #endif
ARM GAS  /tmp/ccP1swG7.s 			page 11


 520:./Libraries/STM32_USB_Host_Library/Class/HID/Src/usbh_hid.c ****     }
 521:./Libraries/STM32_USB_Host_Library/Class/HID/Src/usbh_hid.c ****   }
 522:./Libraries/STM32_USB_Host_Library/Class/HID/Src/usbh_hid.c ****   return USBH_OK;
  52              		.loc 1 522 3 is_stmt 1 view .LVU6
 523:./Libraries/STM32_USB_Host_Library/Class/HID/Src/usbh_hid.c **** }
  53              		.loc 1 523 1 is_stmt 0 view .LVU7
  54 000e 0020     		movs	r0, #0
  55              	.LVL2:
  56              		.loc 1 523 1 view .LVU8
  57 0010 38BD     		pop	{r3, r4, r5, pc}
  58              	.LVL3:
  59              	.L5:
 508:./Libraries/STM32_USB_Host_Library/Class/HID/Src/usbh_hid.c ****     {
  60              		.loc 1 508 5 is_stmt 1 view .LVU9
 508:./Libraries/STM32_USB_Host_Library/Class/HID/Src/usbh_hid.c ****     {
  61              		.loc 1 508 15 is_stmt 0 view .LVU10
  62 0012 D0F8C434 		ldr	r3, [r0, #1220]
 508:./Libraries/STM32_USB_Host_Library/Class/HID/Src/usbh_hid.c ****     {
  63              		.loc 1 508 23 view .LVU11
  64 0016 146A     		ldr	r4, [r2, #32]
 508:./Libraries/STM32_USB_Host_Library/Class/HID/Src/usbh_hid.c ****     {
  65              		.loc 1 508 57 view .LVU12
  66 0018 918B     		ldrh	r1, [r2, #28]
 508:./Libraries/STM32_USB_Host_Library/Class/HID/Src/usbh_hid.c ****     {
  67              		.loc 1 508 23 view .LVU13
  68 001a 1B1B     		subs	r3, r3, r4
 508:./Libraries/STM32_USB_Host_Library/Class/HID/Src/usbh_hid.c ****     {
  69              		.loc 1 508 8 view .LVU14
  70 001c 8B42     		cmp	r3, r1
  71 001e F6D3     		bcc	.L2
 510:./Libraries/STM32_USB_Host_Library/Class/HID/Src/usbh_hid.c **** 
  72              		.loc 1 510 7 is_stmt 1 view .LVU15
 517:./Libraries/STM32_USB_Host_Library/Class/HID/Src/usbh_hid.c **** #endif
  73              		.loc 1 517 13 is_stmt 0 view .LVU16
  74 0020 0023     		movs	r3, #0
 510:./Libraries/STM32_USB_Host_Library/Class/HID/Src/usbh_hid.c **** 
  75              		.loc 1 510 25 view .LVU17
  76 0022 0425     		movs	r5, #4
 513:./Libraries/STM32_USB_Host_Library/Class/HID/Src/usbh_hid.c **** #if (osCMSIS < 0x20000U)
  77              		.loc 1 513 21 view .LVU18
  78 0024 0224     		movs	r4, #2
 517:./Libraries/STM32_USB_Host_Library/Class/HID/Src/usbh_hid.c **** #endif
  79              		.loc 1 517 13 view .LVU19
  80 0026 00F59C61 		add	r1, r0, #1248
 510:./Libraries/STM32_USB_Host_Library/Class/HID/Src/usbh_hid.c **** 
  81              		.loc 1 510 25 view .LVU20
  82 002a 9570     		strb	r5, [r2, #2]
 513:./Libraries/STM32_USB_Host_Library/Class/HID/Src/usbh_hid.c **** #if (osCMSIS < 0x20000U)
  83              		.loc 1 513 7 is_stmt 1 view .LVU21
 517:./Libraries/STM32_USB_Host_Library/Class/HID/Src/usbh_hid.c **** #endif
  84              		.loc 1 517 13 is_stmt 0 view .LVU22
  85 002c 1A46     		mov	r2, r3
  86              	.LVL4:
 513:./Libraries/STM32_USB_Host_Library/Class/HID/Src/usbh_hid.c **** #if (osCMSIS < 0x20000U)
  87              		.loc 1 513 21 view .LVU23
  88 002e C0F8E044 		str	r4, [r0, #1248]
 517:./Libraries/STM32_USB_Host_Library/Class/HID/Src/usbh_hid.c **** #endif
ARM GAS  /tmp/ccP1swG7.s 			page 12


  89              		.loc 1 517 7 is_stmt 1 view .LVU24
 517:./Libraries/STM32_USB_Host_Library/Class/HID/Src/usbh_hid.c **** #endif
  90              		.loc 1 517 13 is_stmt 0 view .LVU25
  91 0032 D0F8D804 		ldr	r0, [r0, #1240]
  92              	.LVL5:
 517:./Libraries/STM32_USB_Host_Library/Class/HID/Src/usbh_hid.c **** #endif
  93              		.loc 1 517 13 view .LVU26
  94 0036 FFF7FEFF 		bl	osMessageQueuePut
  95              	.LVL6:
 522:./Libraries/STM32_USB_Host_Library/Class/HID/Src/usbh_hid.c **** }
  96              		.loc 1 522 3 is_stmt 1 view .LVU27
  97              		.loc 1 523 1 is_stmt 0 view .LVU28
  98 003a 0020     		movs	r0, #0
  99 003c 38BD     		pop	{r3, r4, r5, pc}
 100              		.cfi_endproc
 101              	.LFE342:
 103 003e 00BF     		.section	.text.USBH_HID_InterfaceDeInit,"ax",%progbits
 104              		.align	1
 105              		.p2align 2,,3
 106              		.syntax unified
 107              		.thumb
 108              		.thumb_func
 109              		.fpu fpv5-d16
 111              	USBH_HID_InterfaceDeInit:
 112              	.LVL7:
 113              	.LFB339:
 246:./Libraries/STM32_USB_Host_Library/Class/HID/Src/usbh_hid.c ****   HID_HandleTypeDef *HID_Handle = (HID_HandleTypeDef *) phost->pActiveClass->pData;
 114              		.loc 1 246 1 is_stmt 1 view -0
 115              		.cfi_startproc
 116              		@ args = 0, pretend = 0, frame = 0
 117              		@ frame_needed = 0, uses_anonymous_args = 0
 247:./Libraries/STM32_USB_Host_Library/Class/HID/Src/usbh_hid.c **** 
 118              		.loc 1 247 3 view .LVU30
 246:./Libraries/STM32_USB_Host_Library/Class/HID/Src/usbh_hid.c ****   HID_HandleTypeDef *HID_Handle = (HID_HandleTypeDef *) phost->pActiveClass->pData;
 119              		.loc 1 246 1 is_stmt 0 view .LVU31
 120 0000 38B5     		push	{r3, r4, r5, lr}
 121              	.LCFI1:
 122              		.cfi_def_cfa_offset 16
 123              		.cfi_offset 3, -16
 124              		.cfi_offset 4, -12
 125              		.cfi_offset 5, -8
 126              		.cfi_offset 14, -4
 247:./Libraries/STM32_USB_Host_Library/Class/HID/Src/usbh_hid.c **** 
 127              		.loc 1 247 22 view .LVU32
 128 0002 D0F87C34 		ldr	r3, [r0, #1148]
 246:./Libraries/STM32_USB_Host_Library/Class/HID/Src/usbh_hid.c ****   HID_HandleTypeDef *HID_Handle = (HID_HandleTypeDef *) phost->pActiveClass->pData;
 129              		.loc 1 246 1 view .LVU33
 130 0006 0446     		mov	r4, r0
 247:./Libraries/STM32_USB_Host_Library/Class/HID/Src/usbh_hid.c **** 
 131              		.loc 1 247 22 view .LVU34
 132 0008 DD69     		ldr	r5, [r3, #28]
 133              	.LVL8:
 249:./Libraries/STM32_USB_Host_Library/Class/HID/Src/usbh_hid.c ****   {
 134              		.loc 1 249 3 is_stmt 1 view .LVU35
 249:./Libraries/STM32_USB_Host_Library/Class/HID/Src/usbh_hid.c ****   {
 135              		.loc 1 249 17 is_stmt 0 view .LVU36
 136 000a 6978     		ldrb	r1, [r5, #1]	@ zero_extendqisi2
ARM GAS  /tmp/ccP1swG7.s 			page 13


 249:./Libraries/STM32_USB_Host_Library/Class/HID/Src/usbh_hid.c ****   {
 137              		.loc 1 249 6 view .LVU37
 138 000c 51B9     		cbnz	r1, .L21
 256:./Libraries/STM32_USB_Host_Library/Class/HID/Src/usbh_hid.c ****   {
 139              		.loc 1 256 3 is_stmt 1 view .LVU38
 256:./Libraries/STM32_USB_Host_Library/Class/HID/Src/usbh_hid.c ****   {
 140              		.loc 1 256 17 is_stmt 0 view .LVU39
 141 000e 2978     		ldrb	r1, [r5]	@ zero_extendqisi2
 256:./Libraries/STM32_USB_Host_Library/Class/HID/Src/usbh_hid.c ****   {
 142              		.loc 1 256 6 view .LVU40
 143 0010 91B9     		cbnz	r1, .L10
 144              	.LVL9:
 145              	.L11:
 265:./Libraries/STM32_USB_Host_Library/Class/HID/Src/usbh_hid.c ****     phost->pActiveClass->pData = 0U;
 146              		.loc 1 265 5 is_stmt 1 view .LVU41
 147 0012 2846     		mov	r0, r5
 148 0014 FFF7FEFF 		bl	vPortFree
 149              	.LVL10:
 266:./Libraries/STM32_USB_Host_Library/Class/HID/Src/usbh_hid.c ****   }
 150              		.loc 1 266 5 view .LVU42
 266:./Libraries/STM32_USB_Host_Library/Class/HID/Src/usbh_hid.c ****   }
 151              		.loc 1 266 32 is_stmt 0 view .LVU43
 152 0018 D4F87C34 		ldr	r3, [r4, #1148]
 153 001c 0022     		movs	r2, #0
 270:./Libraries/STM32_USB_Host_Library/Class/HID/Src/usbh_hid.c **** 
 154              		.loc 1 270 1 view .LVU44
 155 001e 0020     		movs	r0, #0
 266:./Libraries/STM32_USB_Host_Library/Class/HID/Src/usbh_hid.c ****   }
 156              		.loc 1 266 32 view .LVU45
 157 0020 DA61     		str	r2, [r3, #28]
 269:./Libraries/STM32_USB_Host_Library/Class/HID/Src/usbh_hid.c **** }
 158              		.loc 1 269 3 is_stmt 1 view .LVU46
 270:./Libraries/STM32_USB_Host_Library/Class/HID/Src/usbh_hid.c **** 
 159              		.loc 1 270 1 is_stmt 0 view .LVU47
 160 0022 38BD     		pop	{r3, r4, r5, pc}
 161              	.LVL11:
 162              	.L21:
 251:./Libraries/STM32_USB_Host_Library/Class/HID/Src/usbh_hid.c ****     USBH_FreePipe(phost, HID_Handle->InPipe);
 163              		.loc 1 251 5 is_stmt 1 view .LVU48
 164 0024 FFF7FEFF 		bl	USBH_ClosePipe
 165              	.LVL12:
 252:./Libraries/STM32_USB_Host_Library/Class/HID/Src/usbh_hid.c ****     HID_Handle->InPipe = 0U;     /* Reset the pipe as Free */
 166              		.loc 1 252 5 view .LVU49
 167 0028 6978     		ldrb	r1, [r5, #1]	@ zero_extendqisi2
 168 002a 2046     		mov	r0, r4
 169 002c FFF7FEFF 		bl	USBH_FreePipe
 170              	.LVL13:
 253:./Libraries/STM32_USB_Host_Library/Class/HID/Src/usbh_hid.c ****   }
 171              		.loc 1 253 5 view .LVU50
 253:./Libraries/STM32_USB_Host_Library/Class/HID/Src/usbh_hid.c ****   }
 172              		.loc 1 253 24 is_stmt 0 view .LVU51
 173 0030 0023     		movs	r3, #0
 256:./Libraries/STM32_USB_Host_Library/Class/HID/Src/usbh_hid.c ****   {
 174              		.loc 1 256 17 view .LVU52
 175 0032 2978     		ldrb	r1, [r5]	@ zero_extendqisi2
 253:./Libraries/STM32_USB_Host_Library/Class/HID/Src/usbh_hid.c ****   }
 176              		.loc 1 253 24 view .LVU53
ARM GAS  /tmp/ccP1swG7.s 			page 14


 177 0034 6B70     		strb	r3, [r5, #1]
 256:./Libraries/STM32_USB_Host_Library/Class/HID/Src/usbh_hid.c ****   {
 178              		.loc 1 256 3 is_stmt 1 view .LVU54
 256:./Libraries/STM32_USB_Host_Library/Class/HID/Src/usbh_hid.c ****   {
 179              		.loc 1 256 6 is_stmt 0 view .LVU55
 180 0036 41B1     		cbz	r1, .L8
 181              	.L10:
 258:./Libraries/STM32_USB_Host_Library/Class/HID/Src/usbh_hid.c ****     USBH_FreePipe(phost, HID_Handle->OutPipe);
 182              		.loc 1 258 5 is_stmt 1 view .LVU56
 183 0038 2046     		mov	r0, r4
 184 003a FFF7FEFF 		bl	USBH_ClosePipe
 185              	.LVL14:
 259:./Libraries/STM32_USB_Host_Library/Class/HID/Src/usbh_hid.c ****     HID_Handle->OutPipe = 0U;     /* Reset the pipe as Free */
 186              		.loc 1 259 5 view .LVU57
 187 003e 2978     		ldrb	r1, [r5]	@ zero_extendqisi2
 188 0040 2046     		mov	r0, r4
 189 0042 FFF7FEFF 		bl	USBH_FreePipe
 190              	.LVL15:
 260:./Libraries/STM32_USB_Host_Library/Class/HID/Src/usbh_hid.c ****   }
 191              		.loc 1 260 5 view .LVU58
 260:./Libraries/STM32_USB_Host_Library/Class/HID/Src/usbh_hid.c ****   }
 192              		.loc 1 260 25 is_stmt 0 view .LVU59
 193 0046 0023     		movs	r3, #0
 194 0048 2B70     		strb	r3, [r5]
 195              	.L8:
 263:./Libraries/STM32_USB_Host_Library/Class/HID/Src/usbh_hid.c ****   {
 196              		.loc 1 263 3 is_stmt 1 view .LVU60
 263:./Libraries/STM32_USB_Host_Library/Class/HID/Src/usbh_hid.c ****   {
 197              		.loc 1 263 26 is_stmt 0 view .LVU61
 198 004a D4F87C34 		ldr	r3, [r4, #1148]
 199 004e DD69     		ldr	r5, [r3, #28]
 200              	.LVL16:
 263:./Libraries/STM32_USB_Host_Library/Class/HID/Src/usbh_hid.c ****   {
 201              		.loc 1 263 6 view .LVU62
 202 0050 002D     		cmp	r5, #0
 203 0052 DED1     		bne	.L11
 270:./Libraries/STM32_USB_Host_Library/Class/HID/Src/usbh_hid.c **** 
 204              		.loc 1 270 1 view .LVU63
 205 0054 0020     		movs	r0, #0
 206 0056 38BD     		pop	{r3, r4, r5, pc}
 270:./Libraries/STM32_USB_Host_Library/Class/HID/Src/usbh_hid.c **** 
 207              		.loc 1 270 1 view .LVU64
 208              		.cfi_endproc
 209              	.LFE339:
 211              		.section	.text.USBH_HID_InterfaceInit,"ax",%progbits
 212              		.align	1
 213              		.p2align 2,,3
 214              		.syntax unified
 215              		.thumb
 216              		.thumb_func
 217              		.fpu fpv5-d16
 219              	USBH_HID_InterfaceInit:
 220              	.LVL17:
 221              	.LFB338:
 138:./Libraries/STM32_USB_Host_Library/Class/HID/Src/usbh_hid.c ****   USBH_StatusTypeDef status;
 222              		.loc 1 138 1 is_stmt 1 view -0
 223              		.cfi_startproc
ARM GAS  /tmp/ccP1swG7.s 			page 15


 224              		@ args = 0, pretend = 0, frame = 0
 225              		@ frame_needed = 0, uses_anonymous_args = 0
 139:./Libraries/STM32_USB_Host_Library/Class/HID/Src/usbh_hid.c ****   HID_HandleTypeDef *HID_Handle;
 226              		.loc 1 139 3 view .LVU66
 140:./Libraries/STM32_USB_Host_Library/Class/HID/Src/usbh_hid.c ****   uint8_t max_ep;
 227              		.loc 1 140 3 view .LVU67
 141:./Libraries/STM32_USB_Host_Library/Class/HID/Src/usbh_hid.c ****   uint8_t num = 0U;
 228              		.loc 1 141 3 view .LVU68
 142:./Libraries/STM32_USB_Host_Library/Class/HID/Src/usbh_hid.c ****   uint8_t interface;
 229              		.loc 1 142 3 view .LVU69
 143:./Libraries/STM32_USB_Host_Library/Class/HID/Src/usbh_hid.c **** 
 230              		.loc 1 143 3 view .LVU70
 145:./Libraries/STM32_USB_Host_Library/Class/HID/Src/usbh_hid.c **** 
 231              		.loc 1 145 3 view .LVU71
 145:./Libraries/STM32_USB_Host_Library/Class/HID/Src/usbh_hid.c **** 
 232              		.loc 1 145 15 is_stmt 0 view .LVU72
 233 0000 D0F87C14 		ldr	r1, [r0, #1148]
 234 0004 FF23     		movs	r3, #255
 235 0006 0122     		movs	r2, #1
 138:./Libraries/STM32_USB_Host_Library/Class/HID/Src/usbh_hid.c ****   USBH_StatusTypeDef status;
 236              		.loc 1 138 1 view .LVU73
 237 0008 2DE9F047 		push	{r4, r5, r6, r7, r8, r9, r10, lr}
 238              	.LCFI2:
 239              		.cfi_def_cfa_offset 32
 240              		.cfi_offset 4, -32
 241              		.cfi_offset 5, -28
 242              		.cfi_offset 6, -24
 243              		.cfi_offset 7, -20
 244              		.cfi_offset 8, -16
 245              		.cfi_offset 9, -12
 246              		.cfi_offset 10, -8
 247              		.cfi_offset 14, -4
 248 000c 84B0     		sub	sp, sp, #16
 249              	.LCFI3:
 250              		.cfi_def_cfa_offset 48
 145:./Libraries/STM32_USB_Host_Library/Class/HID/Src/usbh_hid.c **** 
 251              		.loc 1 145 15 view .LVU74
 252 000e 0979     		ldrb	r1, [r1, #4]	@ zero_extendqisi2
 138:./Libraries/STM32_USB_Host_Library/Class/HID/Src/usbh_hid.c ****   USBH_StatusTypeDef status;
 253              		.loc 1 138 1 view .LVU75
 254 0010 0446     		mov	r4, r0
 145:./Libraries/STM32_USB_Host_Library/Class/HID/Src/usbh_hid.c **** 
 255              		.loc 1 145 15 view .LVU76
 256 0012 FFF7FEFF 		bl	USBH_FindInterface
 257              	.LVL18:
 147:./Libraries/STM32_USB_Host_Library/Class/HID/Src/usbh_hid.c ****   {
 258              		.loc 1 147 3 is_stmt 1 view .LVU77
 147:./Libraries/STM32_USB_Host_Library/Class/HID/Src/usbh_hid.c ****   {
 259              		.loc 1 147 6 is_stmt 0 view .LVU78
 260 0016 0128     		cmp	r0, #1
 261 0018 00F28D80 		bhi	.L23
 153:./Libraries/STM32_USB_Host_Library/Class/HID/Src/usbh_hid.c **** 
 262              		.loc 1 153 3 is_stmt 1 view .LVU79
 153:./Libraries/STM32_USB_Host_Library/Class/HID/Src/usbh_hid.c **** 
 263              		.loc 1 153 12 is_stmt 0 view .LVU80
 264 001c 0146     		mov	r1, r0
 265 001e 0546     		mov	r5, r0
ARM GAS  /tmp/ccP1swG7.s 			page 16


 266 0020 2046     		mov	r0, r4
 267              	.LVL19:
 153:./Libraries/STM32_USB_Host_Library/Class/HID/Src/usbh_hid.c **** 
 268              		.loc 1 153 12 view .LVU81
 269 0022 FFF7FEFF 		bl	USBH_SelectInterface
 270              	.LVL20:
 155:./Libraries/STM32_USB_Host_Library/Class/HID/Src/usbh_hid.c ****   {
 271              		.loc 1 155 3 is_stmt 1 view .LVU82
 155:./Libraries/STM32_USB_Host_Library/Class/HID/Src/usbh_hid.c ****   {
 272              		.loc 1 155 6 is_stmt 0 view .LVU83
 273 0026 0746     		mov	r7, r0
 274 0028 0028     		cmp	r0, #0
 275 002a 40F08480 		bne	.L23
 160:./Libraries/STM32_USB_Host_Library/Class/HID/Src/usbh_hid.c ****   HID_Handle = (HID_HandleTypeDef *) phost->pActiveClass->pData;
 276              		.loc 1 160 3 is_stmt 1 view .LVU84
 160:./Libraries/STM32_USB_Host_Library/Class/HID/Src/usbh_hid.c ****   HID_Handle = (HID_HandleTypeDef *) phost->pActiveClass->pData;
 277              		.loc 1 160 53 is_stmt 0 view .LVU85
 278 002e 3420     		movs	r0, #52
 279              	.LVL21:
 160:./Libraries/STM32_USB_Host_Library/Class/HID/Src/usbh_hid.c ****   HID_Handle = (HID_HandleTypeDef *) phost->pActiveClass->pData;
 280              		.loc 1 160 8 view .LVU86
 281 0030 D4F87C64 		ldr	r6, [r4, #1148]
 160:./Libraries/STM32_USB_Host_Library/Class/HID/Src/usbh_hid.c ****   HID_Handle = (HID_HandleTypeDef *) phost->pActiveClass->pData;
 282              		.loc 1 160 53 view .LVU87
 283 0034 FFF7FEFF 		bl	pvPortMalloc
 284              	.LVL22:
 161:./Libraries/STM32_USB_Host_Library/Class/HID/Src/usbh_hid.c **** 
 285              		.loc 1 161 14 view .LVU88
 286 0038 D4F87C34 		ldr	r3, [r4, #1148]
 160:./Libraries/STM32_USB_Host_Library/Class/HID/Src/usbh_hid.c ****   HID_Handle = (HID_HandleTypeDef *) phost->pActiveClass->pData;
 287              		.loc 1 160 30 view .LVU89
 288 003c F061     		str	r0, [r6, #28]
 161:./Libraries/STM32_USB_Host_Library/Class/HID/Src/usbh_hid.c **** 
 289              		.loc 1 161 3 is_stmt 1 view .LVU90
 161:./Libraries/STM32_USB_Host_Library/Class/HID/Src/usbh_hid.c **** 
 290              		.loc 1 161 14 is_stmt 0 view .LVU91
 291 003e DE69     		ldr	r6, [r3, #28]
 292              	.LVL23:
 163:./Libraries/STM32_USB_Host_Library/Class/HID/Src/usbh_hid.c ****   {
 293              		.loc 1 163 3 is_stmt 1 view .LVU92
 163:./Libraries/STM32_USB_Host_Library/Class/HID/Src/usbh_hid.c ****   {
 294              		.loc 1 163 6 is_stmt 0 view .LVU93
 295 0040 002E     		cmp	r6, #0
 296 0042 78D0     		beq	.L23
 170:./Libraries/STM32_USB_Host_Library/Class/HID/Src/usbh_hid.c **** 
 297              		.loc 1 170 3 is_stmt 1 view .LVU94
 298 0044 3422     		movs	r2, #52
 299 0046 3946     		mov	r1, r7
 300 0048 3046     		mov	r0, r6
 301 004a FFF7FEFF 		bl	memset
 302              	.LVL24:
 172:./Libraries/STM32_USB_Host_Library/Class/HID/Src/usbh_hid.c **** 
 303              		.loc 1 172 3 view .LVU95
 175:./Libraries/STM32_USB_Host_Library/Class/HID/Src/usbh_hid.c ****   {
 304              		.loc 1 175 48 is_stmt 0 view .LVU96
 305 004e 1A23     		movs	r3, #26
 172:./Libraries/STM32_USB_Host_Library/Class/HID/Src/usbh_hid.c **** 
ARM GAS  /tmp/ccP1swG7.s 			page 17


 306              		.loc 1 172 21 view .LVU97
 307 0050 0722     		movs	r2, #7
 175:./Libraries/STM32_USB_Host_Library/Class/HID/Src/usbh_hid.c ****   {
 308              		.loc 1 175 48 view .LVU98
 309 0052 03FB0543 		mla	r3, r3, r5, r4
 172:./Libraries/STM32_USB_Host_Library/Class/HID/Src/usbh_hid.c **** 
 310              		.loc 1 172 21 view .LVU99
 311 0056 B270     		strb	r2, [r6, #2]
 175:./Libraries/STM32_USB_Host_Library/Class/HID/Src/usbh_hid.c ****   {
 312              		.loc 1 175 3 is_stmt 1 view .LVU100
 175:./Libraries/STM32_USB_Host_Library/Class/HID/Src/usbh_hid.c ****   {
 313              		.loc 1 175 48 is_stmt 0 view .LVU101
 314 0058 93F84934 		ldrb	r3, [r3, #1097]	@ zero_extendqisi2
 175:./Libraries/STM32_USB_Host_Library/Class/HID/Src/usbh_hid.c ****   {
 315              		.loc 1 175 6 view .LVU102
 316 005c 012B     		cmp	r3, #1
 317 005e 6FD0     		beq	.L41
 180:./Libraries/STM32_USB_Host_Library/Class/HID/Src/usbh_hid.c ****   {
 318              		.loc 1 180 8 is_stmt 1 view .LVU103
 180:./Libraries/STM32_USB_Host_Library/Class/HID/Src/usbh_hid.c ****   {
 319              		.loc 1 180 11 is_stmt 0 view .LVU104
 320 0060 022B     		cmp	r3, #2
 321 0062 68D1     		bne	.L23
 182:./Libraries/STM32_USB_Host_Library/Class/HID/Src/usbh_hid.c ****     HID_Handle->Init = USBH_HID_MouseInit;
 322              		.loc 1 182 39 is_stmt 1 view .LVU105
 183:./Libraries/STM32_USB_Host_Library/Class/HID/Src/usbh_hid.c ****   }
 323              		.loc 1 183 5 view .LVU106
 183:./Libraries/STM32_USB_Host_Library/Class/HID/Src/usbh_hid.c ****   }
 324              		.loc 1 183 22 is_stmt 0 view .LVU107
 325 0064 384B     		ldr	r3, .L43
 326 0066 3363     		str	r3, [r6, #48]
 327              	.L25:
 191:./Libraries/STM32_USB_Host_Library/Class/HID/Src/usbh_hid.c ****   HID_Handle->ctl_state = HID_REQ_INIT;
 328              		.loc 1 191 3 is_stmt 1 view .LVU108
 193:./Libraries/STM32_USB_Host_Library/Class/HID/Src/usbh_hid.c ****   HID_Handle->length    = phost->device.CfgDesc.Itf_Desc[interface].Ep_Desc[0].wMaxPacketSize;
 329              		.loc 1 193 79 is_stmt 0 view .LVU109
 330 0068 1A22     		movs	r2, #26
 191:./Libraries/STM32_USB_Host_Library/Class/HID/Src/usbh_hid.c ****   HID_Handle->ctl_state = HID_REQ_INIT;
 331              		.loc 1 191 25 view .LVU110
 332 006a 0023     		movs	r3, #0
 193:./Libraries/STM32_USB_Host_Library/Class/HID/Src/usbh_hid.c ****   HID_Handle->length    = phost->device.CfgDesc.Itf_Desc[interface].Ep_Desc[0].wMaxPacketSize;
 333              		.loc 1 193 79 view .LVU111
 334 006c 02FB0542 		mla	r2, r2, r5, r4
 191:./Libraries/STM32_USB_Host_Library/Class/HID/Src/usbh_hid.c ****   HID_Handle->ctl_state = HID_REQ_INIT;
 335              		.loc 1 191 25 view .LVU112
 336 0070 B370     		strb	r3, [r6, #2]
 192:./Libraries/STM32_USB_Host_Library/Class/HID/Src/usbh_hid.c ****   HID_Handle->ep_addr   = phost->device.CfgDesc.Itf_Desc[interface].Ep_Desc[0].bEndpointAddress;
 337              		.loc 1 192 3 is_stmt 1 view .LVU113
 192:./Libraries/STM32_USB_Host_Library/Class/HID/Src/usbh_hid.c ****   HID_Handle->ep_addr   = phost->device.CfgDesc.Itf_Desc[interface].Ep_Desc[0].bEndpointAddress;
 338              		.loc 1 192 25 is_stmt 0 view .LVU114
 339 0072 7371     		strb	r3, [r6, #5]
 193:./Libraries/STM32_USB_Host_Library/Class/HID/Src/usbh_hid.c ****   HID_Handle->length    = phost->device.CfgDesc.Itf_Desc[interface].Ep_Desc[0].wMaxPacketSize;
 340              		.loc 1 193 3 is_stmt 1 view .LVU115
 193:./Libraries/STM32_USB_Host_Library/Class/HID/Src/usbh_hid.c ****   HID_Handle->length    = phost->device.CfgDesc.Itf_Desc[interface].Ep_Desc[0].wMaxPacketSize;
 341              		.loc 1 193 79 is_stmt 0 view .LVU116
 342 0074 92F84E34 		ldrb	r3, [r2, #1102]	@ zero_extendqisi2
 193:./Libraries/STM32_USB_Host_Library/Class/HID/Src/usbh_hid.c ****   HID_Handle->length    = phost->device.CfgDesc.Itf_Desc[interface].Ep_Desc[0].wMaxPacketSize;
ARM GAS  /tmp/ccP1swG7.s 			page 18


 343              		.loc 1 193 25 view .LVU117
 344 0078 B376     		strb	r3, [r6, #26]
 194:./Libraries/STM32_USB_Host_Library/Class/HID/Src/usbh_hid.c ****   HID_Handle->poll      = phost->device.CfgDesc.Itf_Desc[interface].Ep_Desc[0].bInterval;
 345              		.loc 1 194 3 is_stmt 1 view .LVU118
 194:./Libraries/STM32_USB_Host_Library/Class/HID/Src/usbh_hid.c ****   HID_Handle->poll      = phost->device.CfgDesc.Itf_Desc[interface].Ep_Desc[0].bInterval;
 346              		.loc 1 194 25 is_stmt 0 view .LVU119
 347 007a B2F85014 		ldrh	r1, [r2, #1104]
 348 007e 3183     		strh	r1, [r6, #24]	@ movhi
 195:./Libraries/STM32_USB_Host_Library/Class/HID/Src/usbh_hid.c **** 
 349              		.loc 1 195 3 is_stmt 1 view .LVU120
 195:./Libraries/STM32_USB_Host_Library/Class/HID/Src/usbh_hid.c **** 
 350              		.loc 1 195 79 is_stmt 0 view .LVU121
 351 0080 92F85224 		ldrb	r2, [r2, #1106]	@ zero_extendqisi2
 197:./Libraries/STM32_USB_Host_Library/Class/HID/Src/usbh_hid.c ****   {
 352              		.loc 1 197 3 is_stmt 1 view .LVU122
 197:./Libraries/STM32_USB_Host_Library/Class/HID/Src/usbh_hid.c ****   {
 353              		.loc 1 197 6 is_stmt 0 view .LVU123
 354 0084 092A     		cmp	r2, #9
 199:./Libraries/STM32_USB_Host_Library/Class/HID/Src/usbh_hid.c ****   }
 355              		.loc 1 199 5 is_stmt 1 view .LVU124
 205:./Libraries/STM32_USB_Host_Library/Class/HID/Src/usbh_hid.c ****              phost->device.CfgDesc.Itf_Desc[interface].bNumEndpoints : USBH_MAX_NUM_ENDPOINTS);
 356              		.loc 1 205 3 view .LVU125
 199:./Libraries/STM32_USB_Host_Library/Class/HID/Src/usbh_hid.c ****   }
 357              		.loc 1 199 22 is_stmt 0 view .LVU126
 358 0086 98BF     		it	ls
 359 0088 0A22     		movls	r2, #10
 360 008a B283     		strh	r2, [r6, #28]	@ movhi
 205:./Libraries/STM32_USB_Host_Library/Class/HID/Src/usbh_hid.c ****              phost->device.CfgDesc.Itf_Desc[interface].bNumEndpoints : USBH_MAX_NUM_ENDPOINTS);
 361              		.loc 1 205 55 view .LVU127
 362 008c 1A22     		movs	r2, #26
 363 008e 02FB0542 		mla	r2, r2, r5, r4
 364 0092 92F84624 		ldrb	r2, [r2, #1094]	@ zero_extendqisi2
 365              	.LVL25:
 210:./Libraries/STM32_USB_Host_Library/Class/HID/Src/usbh_hid.c ****   {
 366              		.loc 1 210 3 is_stmt 1 view .LVU128
 210:./Libraries/STM32_USB_Host_Library/Class/HID/Src/usbh_hid.c ****   {
 367              		.loc 1 210 18 view .LVU129
 210:./Libraries/STM32_USB_Host_Library/Class/HID/Src/usbh_hid.c ****   {
 368              		.loc 1 210 3 is_stmt 0 view .LVU130
 369 0096 002A     		cmp	r2, #0
 370 0098 4ED0     		beq	.L30
 205:./Libraries/STM32_USB_Host_Library/Class/HID/Src/usbh_hid.c ****              phost->device.CfgDesc.Itf_Desc[interface].bNumEndpoints : USBH_MAX_NUM_ENDPOINTS);
 371              		.loc 1 205 10 view .LVU131
 372 009a 022A     		cmp	r2, #2
 373 009c 2DB2     		sxth	r5, r5
 374 009e 4FF00008 		mov	r8, #0
 375              	.LVL26:
 212:./Libraries/STM32_USB_Host_Library/Class/HID/Src/usbh_hid.c ****     {
 376              		.loc 1 212 5 is_stmt 1 view .LVU132
 214:./Libraries/STM32_USB_Host_Library/Class/HID/Src/usbh_hid.c ****       HID_Handle->InPipe = USBH_AllocPipe(phost, HID_Handle->InEp);
 377              		.loc 1 214 7 view .LVU133
 225:./Libraries/STM32_USB_Host_Library/Class/HID/Src/usbh_hid.c ****       HID_Handle->OutPipe  = USBH_AllocPipe(phost, HID_Handle->OutEp);
 378              		.loc 1 225 7 view .LVU134
 229:./Libraries/STM32_USB_Host_Library/Class/HID/Src/usbh_hid.c ****                     phost->device.speed, USB_EP_TYPE_INTR, HID_Handle->length);
 379              		.loc 1 229 7 is_stmt 0 view .LVU135
 380 00a2 4FF0030A 		mov	r10, #3
 205:./Libraries/STM32_USB_Host_Library/Class/HID/Src/usbh_hid.c ****              phost->device.CfgDesc.Itf_Desc[interface].bNumEndpoints : USBH_MAX_NUM_ENDPOINTS);
ARM GAS  /tmp/ccP1swG7.s 			page 19


 381              		.loc 1 205 10 view .LVU136
 382 00a6 28BF     		it	cs
 383 00a8 0222     		movcs	r2, #2
 384              	.LVL27:
 226:./Libraries/STM32_USB_Host_Library/Class/HID/Src/usbh_hid.c **** 
 385              		.loc 1 226 30 view .LVU137
 386 00aa 1946     		mov	r1, r3
 387 00ac 2046     		mov	r0, r4
 205:./Libraries/STM32_USB_Host_Library/Class/HID/Src/usbh_hid.c ****              phost->device.CfgDesc.Itf_Desc[interface].bNumEndpoints : USBH_MAX_NUM_ENDPOINTS);
 388              		.loc 1 205 10 view .LVU138
 389 00ae 9146     		mov	r9, r2
 390 00b0 05EB4502 		add	r2, r5, r5, lsl #1
 391 00b4 05EB8205 		add	r5, r5, r2, lsl #2
 212:./Libraries/STM32_USB_Host_Library/Class/HID/Src/usbh_hid.c ****     {
 392              		.loc 1 212 8 view .LVU139
 393 00b8 1A06     		lsls	r2, r3, #24
 394 00ba 04EB4505 		add	r5, r4, r5, lsl #1
 395 00be 05F24E45 		addw	r5, r5, #1102
 396 00c2 21D4     		bmi	.L42
 397              	.LVL28:
 398              	.L31:
 225:./Libraries/STM32_USB_Host_Library/Class/HID/Src/usbh_hid.c ****       HID_Handle->OutPipe  = USBH_AllocPipe(phost, HID_Handle->OutEp);
 399              		.loc 1 225 25 view .LVU140
 400 00c4 F370     		strb	r3, [r6, #3]
 226:./Libraries/STM32_USB_Host_Library/Class/HID/Src/usbh_hid.c **** 
 401              		.loc 1 226 7 is_stmt 1 view .LVU141
 226:./Libraries/STM32_USB_Host_Library/Class/HID/Src/usbh_hid.c **** 
 402              		.loc 1 226 30 is_stmt 0 view .LVU142
 403 00c6 FFF7FEFF 		bl	USBH_AllocPipe
 404              	.LVL29:
 226:./Libraries/STM32_USB_Host_Library/Class/HID/Src/usbh_hid.c **** 
 405              		.loc 1 226 30 view .LVU143
 406 00ca 0146     		mov	r1, r0
 229:./Libraries/STM32_USB_Host_Library/Class/HID/Src/usbh_hid.c ****                     phost->device.speed, USB_EP_TYPE_INTR, HID_Handle->length);
 407              		.loc 1 229 7 view .LVU144
 408 00cc B6F818C0 		ldrh	ip, [r6, #24]
 409 00d0 2046     		mov	r0, r4
 226:./Libraries/STM32_USB_Host_Library/Class/HID/Src/usbh_hid.c **** 
 410              		.loc 1 226 28 view .LVU145
 411 00d2 3170     		strb	r1, [r6]
 229:./Libraries/STM32_USB_Host_Library/Class/HID/Src/usbh_hid.c ****                     phost->device.speed, USB_EP_TYPE_INTR, HID_Handle->length);
 412              		.loc 1 229 7 is_stmt 1 view .LVU146
 413 00d4 94F81D34 		ldrb	r3, [r4, #1053]	@ zero_extendqisi2
 414 00d8 F278     		ldrb	r2, [r6, #3]	@ zero_extendqisi2
 415 00da 8DE80814 		stm	sp, {r3, r10, ip}
 416 00de 94F81C34 		ldrb	r3, [r4, #1052]	@ zero_extendqisi2
 417 00e2 FFF7FEFF 		bl	USBH_OpenPipe
 418              	.LVL30:
 232:./Libraries/STM32_USB_Host_Library/Class/HID/Src/usbh_hid.c ****     }
 419              		.loc 1 232 7 view .LVU147
 420 00e6 0022     		movs	r2, #0
 421 00e8 3178     		ldrb	r1, [r6]	@ zero_extendqisi2
 422 00ea 2046     		mov	r0, r4
 423 00ec FFF7FEFF 		bl	USBH_LL_SetToggle
 424              	.LVL31:
 425              	.L32:
 210:./Libraries/STM32_USB_Host_Library/Class/HID/Src/usbh_hid.c ****   {
ARM GAS  /tmp/ccP1swG7.s 			page 20


 426              		.loc 1 210 32 discriminator 2 view .LVU148
 210:./Libraries/STM32_USB_Host_Library/Class/HID/Src/usbh_hid.c ****   {
 427              		.loc 1 210 18 discriminator 2 view .LVU149
 428 00f0 08F10108 		add	r8, r8, #1
 429              	.LVL32:
 210:./Libraries/STM32_USB_Host_Library/Class/HID/Src/usbh_hid.c ****   {
 430              		.loc 1 210 3 is_stmt 0 discriminator 2 view .LVU150
 431 00f4 5FFA88F3 		uxtb	r3, r8
 432 00f8 9945     		cmp	r9, r3
 433 00fa 1DD9     		bls	.L30
 434 00fc 15F83830 		ldrb	r3, [r5, r8, lsl #3]	@ zero_extendqisi2
 435              	.LVL33:
 212:./Libraries/STM32_USB_Host_Library/Class/HID/Src/usbh_hid.c ****     {
 436              		.loc 1 212 5 is_stmt 1 view .LVU151
 214:./Libraries/STM32_USB_Host_Library/Class/HID/Src/usbh_hid.c ****       HID_Handle->InPipe = USBH_AllocPipe(phost, HID_Handle->InEp);
 437              		.loc 1 214 7 view .LVU152
 225:./Libraries/STM32_USB_Host_Library/Class/HID/Src/usbh_hid.c ****       HID_Handle->OutPipe  = USBH_AllocPipe(phost, HID_Handle->OutEp);
 438              		.loc 1 225 7 view .LVU153
 226:./Libraries/STM32_USB_Host_Library/Class/HID/Src/usbh_hid.c **** 
 439              		.loc 1 226 30 is_stmt 0 view .LVU154
 440 0100 2046     		mov	r0, r4
 212:./Libraries/STM32_USB_Host_Library/Class/HID/Src/usbh_hid.c ****     {
 441              		.loc 1 212 8 view .LVU155
 442 0102 1A06     		lsls	r2, r3, #24
 226:./Libraries/STM32_USB_Host_Library/Class/HID/Src/usbh_hid.c **** 
 443              		.loc 1 226 30 view .LVU156
 444 0104 1946     		mov	r1, r3
 212:./Libraries/STM32_USB_Host_Library/Class/HID/Src/usbh_hid.c ****     {
 445              		.loc 1 212 8 view .LVU157
 446 0106 DDD5     		bpl	.L31
 447              	.LVL34:
 448              	.L42:
 214:./Libraries/STM32_USB_Host_Library/Class/HID/Src/usbh_hid.c ****       HID_Handle->InPipe = USBH_AllocPipe(phost, HID_Handle->InEp);
 449              		.loc 1 214 24 view .LVU158
 450 0108 3371     		strb	r3, [r6, #4]
 215:./Libraries/STM32_USB_Host_Library/Class/HID/Src/usbh_hid.c **** 
 451              		.loc 1 215 7 is_stmt 1 view .LVU159
 215:./Libraries/STM32_USB_Host_Library/Class/HID/Src/usbh_hid.c **** 
 452              		.loc 1 215 28 is_stmt 0 view .LVU160
 453 010a FFF7FEFF 		bl	USBH_AllocPipe
 454              	.LVL35:
 215:./Libraries/STM32_USB_Host_Library/Class/HID/Src/usbh_hid.c **** 
 455              		.loc 1 215 28 view .LVU161
 456 010e 0146     		mov	r1, r0
 218:./Libraries/STM32_USB_Host_Library/Class/HID/Src/usbh_hid.c ****                     phost->device.speed, USB_EP_TYPE_INTR, HID_Handle->length);
 457              		.loc 1 218 7 view .LVU162
 458 0110 B6F818C0 		ldrh	ip, [r6, #24]
 459 0114 2046     		mov	r0, r4
 215:./Libraries/STM32_USB_Host_Library/Class/HID/Src/usbh_hid.c **** 
 460              		.loc 1 215 26 view .LVU163
 461 0116 7170     		strb	r1, [r6, #1]
 218:./Libraries/STM32_USB_Host_Library/Class/HID/Src/usbh_hid.c ****                     phost->device.speed, USB_EP_TYPE_INTR, HID_Handle->length);
 462              		.loc 1 218 7 is_stmt 1 view .LVU164
 463 0118 94F81D34 		ldrb	r3, [r4, #1053]	@ zero_extendqisi2
 464 011c 3279     		ldrb	r2, [r6, #4]	@ zero_extendqisi2
 465 011e 8DE80814 		stm	sp, {r3, r10, ip}
 466 0122 94F81C34 		ldrb	r3, [r4, #1052]	@ zero_extendqisi2
ARM GAS  /tmp/ccP1swG7.s 			page 21


 467 0126 FFF7FEFF 		bl	USBH_OpenPipe
 468              	.LVL36:
 221:./Libraries/STM32_USB_Host_Library/Class/HID/Src/usbh_hid.c ****     }
 469              		.loc 1 221 7 view .LVU165
 470 012a 0022     		movs	r2, #0
 471 012c 7178     		ldrb	r1, [r6, #1]	@ zero_extendqisi2
 472 012e 2046     		mov	r0, r4
 473 0130 FFF7FEFF 		bl	USBH_LL_SetToggle
 474              	.LVL37:
 475 0134 DCE7     		b	.L32
 476              	.LVL38:
 477              	.L23:
 150:./Libraries/STM32_USB_Host_Library/Class/HID/Src/usbh_hid.c ****   }
 478              		.loc 1 150 12 is_stmt 0 view .LVU166
 479 0136 0227     		movs	r7, #2
 480              	.LVL39:
 481              	.L30:
 237:./Libraries/STM32_USB_Host_Library/Class/HID/Src/usbh_hid.c **** 
 482              		.loc 1 237 1 view .LVU167
 483 0138 3846     		mov	r0, r7
 484 013a 04B0     		add	sp, sp, #16
 485              	.LCFI4:
 486              		.cfi_remember_state
 487              		.cfi_def_cfa_offset 32
 488              		@ sp needed
 489 013c BDE8F087 		pop	{r4, r5, r6, r7, r8, r9, r10, pc}
 490              	.LVL40:
 491              	.L41:
 492              	.LCFI5:
 493              		.cfi_restore_state
 177:./Libraries/STM32_USB_Host_Library/Class/HID/Src/usbh_hid.c ****     HID_Handle->Init = USBH_HID_KeybdInit;
 494              		.loc 1 177 42 is_stmt 1 view .LVU168
 178:./Libraries/STM32_USB_Host_Library/Class/HID/Src/usbh_hid.c ****   }
 495              		.loc 1 178 5 view .LVU169
 178:./Libraries/STM32_USB_Host_Library/Class/HID/Src/usbh_hid.c ****   }
 496              		.loc 1 178 22 is_stmt 0 view .LVU170
 497 0140 024B     		ldr	r3, .L43+4
 498 0142 3363     		str	r3, [r6, #48]
 499 0144 90E7     		b	.L25
 500              	.L44:
 501 0146 00BF     		.align	2
 502              	.L43:
 503 0148 00000000 		.word	USBH_HID_MouseInit
 504 014c 00000000 		.word	USBH_HID_KeybdInit
 505              		.cfi_endproc
 506              	.LFE338:
 508              		.section	.text.USBH_HID_ClassRequest,"ax",%progbits
 509              		.align	1
 510              		.p2align 2,,3
 511              		.syntax unified
 512              		.thumb
 513              		.thumb_func
 514              		.fpu fpv5-d16
 516              	USBH_HID_ClassRequest:
 517              	.LVL41:
 518              	.LFB340:
 280:./Libraries/STM32_USB_Host_Library/Class/HID/Src/usbh_hid.c **** 
ARM GAS  /tmp/ccP1swG7.s 			page 22


 519              		.loc 1 280 1 is_stmt 1 view -0
 520              		.cfi_startproc
 521              		@ args = 0, pretend = 0, frame = 8
 522              		@ frame_needed = 0, uses_anonymous_args = 0
 282:./Libraries/STM32_USB_Host_Library/Class/HID/Src/usbh_hid.c ****   USBH_StatusTypeDef classReqStatus = USBH_BUSY;
 523              		.loc 1 282 3 view .LVU172
 283:./Libraries/STM32_USB_Host_Library/Class/HID/Src/usbh_hid.c ****   HID_HandleTypeDef *HID_Handle = (HID_HandleTypeDef *) phost->pActiveClass->pData;
 524              		.loc 1 283 3 view .LVU173
 284:./Libraries/STM32_USB_Host_Library/Class/HID/Src/usbh_hid.c **** 
 525              		.loc 1 284 3 view .LVU174
 284:./Libraries/STM32_USB_Host_Library/Class/HID/Src/usbh_hid.c **** 
 526              		.loc 1 284 22 is_stmt 0 view .LVU175
 527 0000 D0F87C34 		ldr	r3, [r0, #1148]
 280:./Libraries/STM32_USB_Host_Library/Class/HID/Src/usbh_hid.c **** 
 528              		.loc 1 280 1 view .LVU176
 529 0004 70B5     		push	{r4, r5, r6, lr}
 530              	.LCFI6:
 531              		.cfi_def_cfa_offset 16
 532              		.cfi_offset 4, -16
 533              		.cfi_offset 5, -12
 534              		.cfi_offset 6, -8
 535              		.cfi_offset 14, -4
 284:./Libraries/STM32_USB_Host_Library/Class/HID/Src/usbh_hid.c **** 
 536              		.loc 1 284 22 view .LVU177
 537 0006 DE69     		ldr	r6, [r3, #28]
 538              	.LVL42:
 287:./Libraries/STM32_USB_Host_Library/Class/HID/Src/usbh_hid.c ****   {
 539              		.loc 1 287 3 is_stmt 1 view .LVU178
 280:./Libraries/STM32_USB_Host_Library/Class/HID/Src/usbh_hid.c **** 
 540              		.loc 1 280 1 is_stmt 0 view .LVU179
 541 0008 84B0     		sub	sp, sp, #16
 542              	.LCFI7:
 543              		.cfi_def_cfa_offset 32
 280:./Libraries/STM32_USB_Host_Library/Class/HID/Src/usbh_hid.c **** 
 544              		.loc 1 280 1 view .LVU180
 545 000a 0446     		mov	r4, r0
 546 000c 7379     		ldrb	r3, [r6, #5]	@ zero_extendqisi2
 547 000e 052B     		cmp	r3, #5
 548 0010 50D8     		bhi	.L61
 549 0012 DFE803F0 		tbb	[pc, r3]
 550              	.L48:
 551 0016 03       		.byte	(.L50-.L48)/2
 552 0017 4F       		.byte	(.L61-.L48)/2
 553 0018 3D       		.byte	(.L51-.L48)/2
 554 0019 03       		.byte	(.L50-.L48)/2
 555 001a 2E       		.byte	(.L49-.L48)/2
 556 001b 1B       		.byte	(.L47-.L48)/2
 557              		.p2align 1
 558              	.L50:
 292:./Libraries/STM32_USB_Host_Library/Class/HID/Src/usbh_hid.c **** 
 559              		.loc 1 292 5 is_stmt 1 view .LVU181
 560              	.LVL43:
 561              	.LBB18:
 562              	.LBI18:
 524:./Libraries/STM32_USB_Host_Library/Class/HID/Src/usbh_hid.c **** 
 525:./Libraries/STM32_USB_Host_Library/Class/HID/Src/usbh_hid.c **** /**
 526:./Libraries/STM32_USB_Host_Library/Class/HID/Src/usbh_hid.c **** * @brief  USBH_Get_HID_ReportDescriptor
ARM GAS  /tmp/ccP1swG7.s 			page 23


 527:./Libraries/STM32_USB_Host_Library/Class/HID/Src/usbh_hid.c ****   *         Issue report Descriptor command to the device. Once the response
 528:./Libraries/STM32_USB_Host_Library/Class/HID/Src/usbh_hid.c ****   *         received, parse the report descriptor and update the status.
 529:./Libraries/STM32_USB_Host_Library/Class/HID/Src/usbh_hid.c ****   * @param  phost: Host handle
 530:./Libraries/STM32_USB_Host_Library/Class/HID/Src/usbh_hid.c ****   * @param  Length : HID Report Descriptor Length
 531:./Libraries/STM32_USB_Host_Library/Class/HID/Src/usbh_hid.c ****   * @retval USBH Status
 532:./Libraries/STM32_USB_Host_Library/Class/HID/Src/usbh_hid.c ****   */
 533:./Libraries/STM32_USB_Host_Library/Class/HID/Src/usbh_hid.c **** USBH_StatusTypeDef USBH_HID_GetHIDReportDescriptor(USBH_HandleTypeDef *phost,
 534:./Libraries/STM32_USB_Host_Library/Class/HID/Src/usbh_hid.c ****                                                    uint16_t length)
 535:./Libraries/STM32_USB_Host_Library/Class/HID/Src/usbh_hid.c **** {
 536:./Libraries/STM32_USB_Host_Library/Class/HID/Src/usbh_hid.c **** 
 537:./Libraries/STM32_USB_Host_Library/Class/HID/Src/usbh_hid.c ****   USBH_StatusTypeDef status;
 538:./Libraries/STM32_USB_Host_Library/Class/HID/Src/usbh_hid.c **** 
 539:./Libraries/STM32_USB_Host_Library/Class/HID/Src/usbh_hid.c ****   status = USBH_GetDescriptor(phost,
 540:./Libraries/STM32_USB_Host_Library/Class/HID/Src/usbh_hid.c ****                               USB_REQ_RECIPIENT_INTERFACE | USB_REQ_TYPE_STANDARD,
 541:./Libraries/STM32_USB_Host_Library/Class/HID/Src/usbh_hid.c ****                               USB_DESC_HID_REPORT,
 542:./Libraries/STM32_USB_Host_Library/Class/HID/Src/usbh_hid.c ****                               phost->device.Data,
 543:./Libraries/STM32_USB_Host_Library/Class/HID/Src/usbh_hid.c ****                               length);
 544:./Libraries/STM32_USB_Host_Library/Class/HID/Src/usbh_hid.c **** 
 545:./Libraries/STM32_USB_Host_Library/Class/HID/Src/usbh_hid.c ****   /* HID report descriptor is available in phost->device.Data.
 546:./Libraries/STM32_USB_Host_Library/Class/HID/Src/usbh_hid.c ****   In case of USB Boot Mode devices for In report handling ,
 547:./Libraries/STM32_USB_Host_Library/Class/HID/Src/usbh_hid.c ****   HID report descriptor parsing is not required.
 548:./Libraries/STM32_USB_Host_Library/Class/HID/Src/usbh_hid.c ****   In case, for supporting Non-Boot Protocol devices and output reports,
 549:./Libraries/STM32_USB_Host_Library/Class/HID/Src/usbh_hid.c ****   user may parse the report descriptor*/
 550:./Libraries/STM32_USB_Host_Library/Class/HID/Src/usbh_hid.c **** 
 551:./Libraries/STM32_USB_Host_Library/Class/HID/Src/usbh_hid.c **** 
 552:./Libraries/STM32_USB_Host_Library/Class/HID/Src/usbh_hid.c ****   return status;
 553:./Libraries/STM32_USB_Host_Library/Class/HID/Src/usbh_hid.c **** }
 554:./Libraries/STM32_USB_Host_Library/Class/HID/Src/usbh_hid.c **** 
 555:./Libraries/STM32_USB_Host_Library/Class/HID/Src/usbh_hid.c **** /**
 556:./Libraries/STM32_USB_Host_Library/Class/HID/Src/usbh_hid.c ****   * @brief  USBH_Get_HID_Descriptor
 557:./Libraries/STM32_USB_Host_Library/Class/HID/Src/usbh_hid.c ****   *         Issue HID Descriptor command to the device. Once the response
 558:./Libraries/STM32_USB_Host_Library/Class/HID/Src/usbh_hid.c ****   *         received, parse the report descriptor and update the status.
 559:./Libraries/STM32_USB_Host_Library/Class/HID/Src/usbh_hid.c ****   * @param  phost: Host handle
 560:./Libraries/STM32_USB_Host_Library/Class/HID/Src/usbh_hid.c ****   * @param  Length : HID Descriptor Length
 561:./Libraries/STM32_USB_Host_Library/Class/HID/Src/usbh_hid.c ****   * @retval USBH Status
 562:./Libraries/STM32_USB_Host_Library/Class/HID/Src/usbh_hid.c ****   */
 563:./Libraries/STM32_USB_Host_Library/Class/HID/Src/usbh_hid.c **** USBH_StatusTypeDef USBH_HID_GetHIDDescriptor(USBH_HandleTypeDef *phost,
 564:./Libraries/STM32_USB_Host_Library/Class/HID/Src/usbh_hid.c ****                                              uint16_t length)
 565:./Libraries/STM32_USB_Host_Library/Class/HID/Src/usbh_hid.c **** {
 566:./Libraries/STM32_USB_Host_Library/Class/HID/Src/usbh_hid.c ****   USBH_StatusTypeDef status;
 567:./Libraries/STM32_USB_Host_Library/Class/HID/Src/usbh_hid.c **** 
 568:./Libraries/STM32_USB_Host_Library/Class/HID/Src/usbh_hid.c ****   status = USBH_GetDescriptor(phost,
 569:./Libraries/STM32_USB_Host_Library/Class/HID/Src/usbh_hid.c ****                               USB_REQ_RECIPIENT_INTERFACE | USB_REQ_TYPE_STANDARD,
 570:./Libraries/STM32_USB_Host_Library/Class/HID/Src/usbh_hid.c ****                               USB_DESC_HID,
 571:./Libraries/STM32_USB_Host_Library/Class/HID/Src/usbh_hid.c ****                               phost->device.Data,
 572:./Libraries/STM32_USB_Host_Library/Class/HID/Src/usbh_hid.c ****                               length);
 573:./Libraries/STM32_USB_Host_Library/Class/HID/Src/usbh_hid.c **** 
 574:./Libraries/STM32_USB_Host_Library/Class/HID/Src/usbh_hid.c ****   return status;
 575:./Libraries/STM32_USB_Host_Library/Class/HID/Src/usbh_hid.c **** }
 576:./Libraries/STM32_USB_Host_Library/Class/HID/Src/usbh_hid.c **** 
 577:./Libraries/STM32_USB_Host_Library/Class/HID/Src/usbh_hid.c **** /**
 578:./Libraries/STM32_USB_Host_Library/Class/HID/Src/usbh_hid.c ****   * @brief  USBH_Set_Idle
 579:./Libraries/STM32_USB_Host_Library/Class/HID/Src/usbh_hid.c ****   *         Set Idle State.
 580:./Libraries/STM32_USB_Host_Library/Class/HID/Src/usbh_hid.c ****   * @param  phost: Host handle
 581:./Libraries/STM32_USB_Host_Library/Class/HID/Src/usbh_hid.c ****   * @param  duration: Duration for HID Idle request
 582:./Libraries/STM32_USB_Host_Library/Class/HID/Src/usbh_hid.c ****   * @param  reportId : Targeted report ID for Set Idle request
 583:./Libraries/STM32_USB_Host_Library/Class/HID/Src/usbh_hid.c ****   * @retval USBH Status
ARM GAS  /tmp/ccP1swG7.s 			page 24


 584:./Libraries/STM32_USB_Host_Library/Class/HID/Src/usbh_hid.c ****   */
 585:./Libraries/STM32_USB_Host_Library/Class/HID/Src/usbh_hid.c **** USBH_StatusTypeDef USBH_HID_SetIdle(USBH_HandleTypeDef *phost,
 586:./Libraries/STM32_USB_Host_Library/Class/HID/Src/usbh_hid.c ****                                     uint8_t duration,
 587:./Libraries/STM32_USB_Host_Library/Class/HID/Src/usbh_hid.c ****                                     uint8_t reportId)
 588:./Libraries/STM32_USB_Host_Library/Class/HID/Src/usbh_hid.c **** {
 589:./Libraries/STM32_USB_Host_Library/Class/HID/Src/usbh_hid.c **** 
 590:./Libraries/STM32_USB_Host_Library/Class/HID/Src/usbh_hid.c ****   phost->Control.setup.b.bmRequestType = USB_H2D | USB_REQ_RECIPIENT_INTERFACE | \
 591:./Libraries/STM32_USB_Host_Library/Class/HID/Src/usbh_hid.c ****                                          USB_REQ_TYPE_CLASS;
 592:./Libraries/STM32_USB_Host_Library/Class/HID/Src/usbh_hid.c **** 
 593:./Libraries/STM32_USB_Host_Library/Class/HID/Src/usbh_hid.c **** 
 594:./Libraries/STM32_USB_Host_Library/Class/HID/Src/usbh_hid.c ****   phost->Control.setup.b.bRequest = USB_HID_SET_IDLE;
 595:./Libraries/STM32_USB_Host_Library/Class/HID/Src/usbh_hid.c ****   phost->Control.setup.b.wValue.w = (uint16_t)(((uint32_t)duration << 8U) | (uint32_t)reportId);
 596:./Libraries/STM32_USB_Host_Library/Class/HID/Src/usbh_hid.c **** 
 597:./Libraries/STM32_USB_Host_Library/Class/HID/Src/usbh_hid.c ****   phost->Control.setup.b.wIndex.w = 0U;
 598:./Libraries/STM32_USB_Host_Library/Class/HID/Src/usbh_hid.c ****   phost->Control.setup.b.wLength.w = 0U;
 599:./Libraries/STM32_USB_Host_Library/Class/HID/Src/usbh_hid.c **** 
 600:./Libraries/STM32_USB_Host_Library/Class/HID/Src/usbh_hid.c ****   return USBH_CtlReq(phost, 0U, 0U);
 601:./Libraries/STM32_USB_Host_Library/Class/HID/Src/usbh_hid.c **** }
 602:./Libraries/STM32_USB_Host_Library/Class/HID/Src/usbh_hid.c **** 
 603:./Libraries/STM32_USB_Host_Library/Class/HID/Src/usbh_hid.c **** 
 604:./Libraries/STM32_USB_Host_Library/Class/HID/Src/usbh_hid.c **** /**
 605:./Libraries/STM32_USB_Host_Library/Class/HID/Src/usbh_hid.c ****   * @brief  USBH_HID_Set_Report
 606:./Libraries/STM32_USB_Host_Library/Class/HID/Src/usbh_hid.c ****   *         Issues Set Report
 607:./Libraries/STM32_USB_Host_Library/Class/HID/Src/usbh_hid.c ****   * @param  phost: Host handle
 608:./Libraries/STM32_USB_Host_Library/Class/HID/Src/usbh_hid.c ****   * @param  reportType  : Report type to be sent
 609:./Libraries/STM32_USB_Host_Library/Class/HID/Src/usbh_hid.c ****   * @param  reportId    : Targeted report ID for Set Report request
 610:./Libraries/STM32_USB_Host_Library/Class/HID/Src/usbh_hid.c ****   * @param  reportBuff  : Report Buffer
 611:./Libraries/STM32_USB_Host_Library/Class/HID/Src/usbh_hid.c ****   * @param  reportLen   : Length of data report to be send
 612:./Libraries/STM32_USB_Host_Library/Class/HID/Src/usbh_hid.c ****   * @retval USBH Status
 613:./Libraries/STM32_USB_Host_Library/Class/HID/Src/usbh_hid.c ****   */
 614:./Libraries/STM32_USB_Host_Library/Class/HID/Src/usbh_hid.c **** USBH_StatusTypeDef USBH_HID_SetReport(USBH_HandleTypeDef *phost,
 615:./Libraries/STM32_USB_Host_Library/Class/HID/Src/usbh_hid.c ****                                       uint8_t reportType,
 616:./Libraries/STM32_USB_Host_Library/Class/HID/Src/usbh_hid.c ****                                       uint8_t reportId,
 617:./Libraries/STM32_USB_Host_Library/Class/HID/Src/usbh_hid.c ****                                       uint8_t *reportBuff,
 618:./Libraries/STM32_USB_Host_Library/Class/HID/Src/usbh_hid.c ****                                       uint8_t reportLen)
 619:./Libraries/STM32_USB_Host_Library/Class/HID/Src/usbh_hid.c **** {
 620:./Libraries/STM32_USB_Host_Library/Class/HID/Src/usbh_hid.c **** 
 621:./Libraries/STM32_USB_Host_Library/Class/HID/Src/usbh_hid.c ****   phost->Control.setup.b.bmRequestType = USB_H2D | USB_REQ_RECIPIENT_INTERFACE | \
 622:./Libraries/STM32_USB_Host_Library/Class/HID/Src/usbh_hid.c ****                                          USB_REQ_TYPE_CLASS;
 623:./Libraries/STM32_USB_Host_Library/Class/HID/Src/usbh_hid.c **** 
 624:./Libraries/STM32_USB_Host_Library/Class/HID/Src/usbh_hid.c **** 
 625:./Libraries/STM32_USB_Host_Library/Class/HID/Src/usbh_hid.c ****   phost->Control.setup.b.bRequest = USB_HID_SET_REPORT;
 626:./Libraries/STM32_USB_Host_Library/Class/HID/Src/usbh_hid.c ****   phost->Control.setup.b.wValue.w = (uint16_t)(((uint32_t)reportType << 8U) | (uint32_t)reportId);
 627:./Libraries/STM32_USB_Host_Library/Class/HID/Src/usbh_hid.c **** 
 628:./Libraries/STM32_USB_Host_Library/Class/HID/Src/usbh_hid.c ****   phost->Control.setup.b.wIndex.w = 0U;
 629:./Libraries/STM32_USB_Host_Library/Class/HID/Src/usbh_hid.c ****   phost->Control.setup.b.wLength.w = reportLen;
 630:./Libraries/STM32_USB_Host_Library/Class/HID/Src/usbh_hid.c **** 
 631:./Libraries/STM32_USB_Host_Library/Class/HID/Src/usbh_hid.c ****   return USBH_CtlReq(phost, reportBuff, (uint16_t)reportLen);
 632:./Libraries/STM32_USB_Host_Library/Class/HID/Src/usbh_hid.c **** }
 633:./Libraries/STM32_USB_Host_Library/Class/HID/Src/usbh_hid.c **** 
 634:./Libraries/STM32_USB_Host_Library/Class/HID/Src/usbh_hid.c **** 
 635:./Libraries/STM32_USB_Host_Library/Class/HID/Src/usbh_hid.c **** /**
 636:./Libraries/STM32_USB_Host_Library/Class/HID/Src/usbh_hid.c ****   * @brief  USBH_HID_GetReport
 637:./Libraries/STM32_USB_Host_Library/Class/HID/Src/usbh_hid.c ****   *         retreive Set Report
 638:./Libraries/STM32_USB_Host_Library/Class/HID/Src/usbh_hid.c ****   * @param  phost: Host handle
 639:./Libraries/STM32_USB_Host_Library/Class/HID/Src/usbh_hid.c ****   * @param  reportType  : Report type to be sent
 640:./Libraries/STM32_USB_Host_Library/Class/HID/Src/usbh_hid.c ****   * @param  reportId    : Targeted report ID for Set Report request
ARM GAS  /tmp/ccP1swG7.s 			page 25


 641:./Libraries/STM32_USB_Host_Library/Class/HID/Src/usbh_hid.c ****   * @param  reportBuff  : Report Buffer
 642:./Libraries/STM32_USB_Host_Library/Class/HID/Src/usbh_hid.c ****   * @param  reportLen   : Length of data report to be send
 643:./Libraries/STM32_USB_Host_Library/Class/HID/Src/usbh_hid.c ****   * @retval USBH Status
 644:./Libraries/STM32_USB_Host_Library/Class/HID/Src/usbh_hid.c ****   */
 645:./Libraries/STM32_USB_Host_Library/Class/HID/Src/usbh_hid.c **** USBH_StatusTypeDef USBH_HID_GetReport(USBH_HandleTypeDef *phost,
 646:./Libraries/STM32_USB_Host_Library/Class/HID/Src/usbh_hid.c ****                                       uint8_t reportType,
 647:./Libraries/STM32_USB_Host_Library/Class/HID/Src/usbh_hid.c ****                                       uint8_t reportId,
 648:./Libraries/STM32_USB_Host_Library/Class/HID/Src/usbh_hid.c ****                                       uint8_t *reportBuff,
 649:./Libraries/STM32_USB_Host_Library/Class/HID/Src/usbh_hid.c ****                                       uint8_t reportLen)
 650:./Libraries/STM32_USB_Host_Library/Class/HID/Src/usbh_hid.c **** {
 651:./Libraries/STM32_USB_Host_Library/Class/HID/Src/usbh_hid.c **** 
 652:./Libraries/STM32_USB_Host_Library/Class/HID/Src/usbh_hid.c ****   phost->Control.setup.b.bmRequestType = USB_D2H | USB_REQ_RECIPIENT_INTERFACE | \
 653:./Libraries/STM32_USB_Host_Library/Class/HID/Src/usbh_hid.c ****                                          USB_REQ_TYPE_CLASS;
 654:./Libraries/STM32_USB_Host_Library/Class/HID/Src/usbh_hid.c **** 
 655:./Libraries/STM32_USB_Host_Library/Class/HID/Src/usbh_hid.c **** 
 656:./Libraries/STM32_USB_Host_Library/Class/HID/Src/usbh_hid.c ****   phost->Control.setup.b.bRequest = USB_HID_GET_REPORT;
 657:./Libraries/STM32_USB_Host_Library/Class/HID/Src/usbh_hid.c ****   phost->Control.setup.b.wValue.w = (uint16_t)(((uint32_t)reportType << 8U) | (uint32_t)reportId);
 658:./Libraries/STM32_USB_Host_Library/Class/HID/Src/usbh_hid.c **** 
 659:./Libraries/STM32_USB_Host_Library/Class/HID/Src/usbh_hid.c ****   phost->Control.setup.b.wIndex.w = 0U;
 660:./Libraries/STM32_USB_Host_Library/Class/HID/Src/usbh_hid.c ****   phost->Control.setup.b.wLength.w = reportLen;
 661:./Libraries/STM32_USB_Host_Library/Class/HID/Src/usbh_hid.c **** 
 662:./Libraries/STM32_USB_Host_Library/Class/HID/Src/usbh_hid.c ****   return USBH_CtlReq(phost, reportBuff, (uint16_t)reportLen);
 663:./Libraries/STM32_USB_Host_Library/Class/HID/Src/usbh_hid.c **** }
 664:./Libraries/STM32_USB_Host_Library/Class/HID/Src/usbh_hid.c **** 
 665:./Libraries/STM32_USB_Host_Library/Class/HID/Src/usbh_hid.c **** /**
 666:./Libraries/STM32_USB_Host_Library/Class/HID/Src/usbh_hid.c ****   * @brief  USBH_Set_Protocol
 667:./Libraries/STM32_USB_Host_Library/Class/HID/Src/usbh_hid.c ****   *         Set protocol State.
 668:./Libraries/STM32_USB_Host_Library/Class/HID/Src/usbh_hid.c ****   * @param  phost: Host handle
 669:./Libraries/STM32_USB_Host_Library/Class/HID/Src/usbh_hid.c ****   * @param  protocol : Set Protocol for HID : boot/report protocol
 670:./Libraries/STM32_USB_Host_Library/Class/HID/Src/usbh_hid.c ****   * @retval USBH Status
 671:./Libraries/STM32_USB_Host_Library/Class/HID/Src/usbh_hid.c ****   */
 672:./Libraries/STM32_USB_Host_Library/Class/HID/Src/usbh_hid.c **** USBH_StatusTypeDef USBH_HID_SetProtocol(USBH_HandleTypeDef *phost,
 673:./Libraries/STM32_USB_Host_Library/Class/HID/Src/usbh_hid.c ****                                         uint8_t protocol)
 674:./Libraries/STM32_USB_Host_Library/Class/HID/Src/usbh_hid.c **** {
 675:./Libraries/STM32_USB_Host_Library/Class/HID/Src/usbh_hid.c ****   phost->Control.setup.b.bmRequestType = USB_H2D | USB_REQ_RECIPIENT_INTERFACE
 676:./Libraries/STM32_USB_Host_Library/Class/HID/Src/usbh_hid.c ****                                          | USB_REQ_TYPE_CLASS;
 677:./Libraries/STM32_USB_Host_Library/Class/HID/Src/usbh_hid.c **** 
 678:./Libraries/STM32_USB_Host_Library/Class/HID/Src/usbh_hid.c ****   phost->Control.setup.b.bRequest = USB_HID_SET_PROTOCOL;
 679:./Libraries/STM32_USB_Host_Library/Class/HID/Src/usbh_hid.c ****   if (protocol)
 680:./Libraries/STM32_USB_Host_Library/Class/HID/Src/usbh_hid.c ****   {
 681:./Libraries/STM32_USB_Host_Library/Class/HID/Src/usbh_hid.c ****     phost->Control.setup.b.wValue.w = 0U;
 682:./Libraries/STM32_USB_Host_Library/Class/HID/Src/usbh_hid.c ****   }
 683:./Libraries/STM32_USB_Host_Library/Class/HID/Src/usbh_hid.c ****   else
 684:./Libraries/STM32_USB_Host_Library/Class/HID/Src/usbh_hid.c ****   {
 685:./Libraries/STM32_USB_Host_Library/Class/HID/Src/usbh_hid.c ****     phost->Control.setup.b.wValue.w = 1U;
 686:./Libraries/STM32_USB_Host_Library/Class/HID/Src/usbh_hid.c ****   }
 687:./Libraries/STM32_USB_Host_Library/Class/HID/Src/usbh_hid.c **** 
 688:./Libraries/STM32_USB_Host_Library/Class/HID/Src/usbh_hid.c ****   phost->Control.setup.b.wIndex.w = 0U;
 689:./Libraries/STM32_USB_Host_Library/Class/HID/Src/usbh_hid.c ****   phost->Control.setup.b.wLength.w = 0U;
 690:./Libraries/STM32_USB_Host_Library/Class/HID/Src/usbh_hid.c **** 
 691:./Libraries/STM32_USB_Host_Library/Class/HID/Src/usbh_hid.c ****   return USBH_CtlReq(phost, 0U, 0U);
 692:./Libraries/STM32_USB_Host_Library/Class/HID/Src/usbh_hid.c **** 
 693:./Libraries/STM32_USB_Host_Library/Class/HID/Src/usbh_hid.c **** }
 694:./Libraries/STM32_USB_Host_Library/Class/HID/Src/usbh_hid.c **** 
 695:./Libraries/STM32_USB_Host_Library/Class/HID/Src/usbh_hid.c **** /**
 696:./Libraries/STM32_USB_Host_Library/Class/HID/Src/usbh_hid.c ****   * @brief  USBH_ParseHIDDesc
 697:./Libraries/STM32_USB_Host_Library/Class/HID/Src/usbh_hid.c ****   *         This function Parse the HID descriptor
ARM GAS  /tmp/ccP1swG7.s 			page 26


 698:./Libraries/STM32_USB_Host_Library/Class/HID/Src/usbh_hid.c ****   * @param  desc: HID Descriptor
 699:./Libraries/STM32_USB_Host_Library/Class/HID/Src/usbh_hid.c ****   * @param  buf: Buffer where the source descriptor is available
 700:./Libraries/STM32_USB_Host_Library/Class/HID/Src/usbh_hid.c ****   * @retval None
 701:./Libraries/STM32_USB_Host_Library/Class/HID/Src/usbh_hid.c ****   */
 702:./Libraries/STM32_USB_Host_Library/Class/HID/Src/usbh_hid.c **** static void  USBH_HID_ParseHIDDesc(HID_DescTypeDef *desc, uint8_t *buf)
 563              		.loc 1 702 14 view .LVU182
 564              	.LBB19:
 703:./Libraries/STM32_USB_Host_Library/Class/HID/Src/usbh_hid.c **** {
 704:./Libraries/STM32_USB_Host_Library/Class/HID/Src/usbh_hid.c ****   USBH_DescHeader_t *pdesc = (USBH_DescHeader_t *)buf;
 565              		.loc 1 704 3 view .LVU183
 705:./Libraries/STM32_USB_Host_Library/Class/HID/Src/usbh_hid.c ****   uint16_t CfgDescLen;
 566              		.loc 1 705 3 view .LVU184
 706:./Libraries/STM32_USB_Host_Library/Class/HID/Src/usbh_hid.c ****   uint16_t ptr;
 567              		.loc 1 706 3 view .LVU185
 707:./Libraries/STM32_USB_Host_Library/Class/HID/Src/usbh_hid.c **** 
 708:./Libraries/STM32_USB_Host_Library/Class/HID/Src/usbh_hid.c ****   CfgDescLen = LE16(buf + 2U);
 568              		.loc 1 708 3 view .LVU186
 569              		.loc 1 708 14 is_stmt 0 view .LVU187
 570 001c C58B     		ldrh	r5, [r0, #30]	@ unaligned
 571              	.LVL44:
 709:./Libraries/STM32_USB_Host_Library/Class/HID/Src/usbh_hid.c **** 
 710:./Libraries/STM32_USB_Host_Library/Class/HID/Src/usbh_hid.c ****   if (CfgDescLen > USB_CONFIGURATION_DESC_SIZE)
 572              		.loc 1 710 3 is_stmt 1 view .LVU188
 573              		.loc 1 710 6 is_stmt 0 view .LVU189
 574 001e 092D     		cmp	r5, #9
 575 0020 0ED9     		bls	.L54
 711:./Libraries/STM32_USB_Host_Library/Class/HID/Src/usbh_hid.c ****   {
 712:./Libraries/STM32_USB_Host_Library/Class/HID/Src/usbh_hid.c ****     ptr = USB_LEN_CFG_DESC;
 576              		.loc 1 712 9 view .LVU190
 577 0022 0923     		movs	r3, #9
 578              	.LBE19:
 579              	.LBE18:
 292:./Libraries/STM32_USB_Host_Library/Class/HID/Src/usbh_hid.c **** 
 580              		.loc 1 292 63 view .LVU191
 581 0024 1C30     		adds	r0, r0, #28
 582              	.LVL45:
 583              	.LBB22:
 584              	.LBB20:
 585              		.loc 1 712 5 is_stmt 1 view .LVU192
 586              		.loc 1 712 9 is_stmt 0 view .LVU193
 587 0026 ADF80E30 		strh	r3, [sp, #14]	@ movhi
 713:./Libraries/STM32_USB_Host_Library/Class/HID/Src/usbh_hid.c **** 
 714:./Libraries/STM32_USB_Host_Library/Class/HID/Src/usbh_hid.c ****     while (ptr < CfgDescLen)
 588              		.loc 1 714 5 is_stmt 1 view .LVU194
 589              		.loc 1 714 11 view .LVU195
 590              	.LVL46:
 591              	.L55:
 715:./Libraries/STM32_USB_Host_Library/Class/HID/Src/usbh_hid.c ****     {
 716:./Libraries/STM32_USB_Host_Library/Class/HID/Src/usbh_hid.c ****       pdesc = USBH_GetNextDesc((uint8_t *)pdesc, &ptr);
 592              		.loc 1 716 7 view .LVU196
 593              		.loc 1 716 15 is_stmt 0 view .LVU197
 594 002a 0DF10E01 		add	r1, sp, #14
 595 002e FFF7FEFF 		bl	USBH_GetNextDesc
 596              	.LVL47:
 717:./Libraries/STM32_USB_Host_Library/Class/HID/Src/usbh_hid.c **** 
 718:./Libraries/STM32_USB_Host_Library/Class/HID/Src/usbh_hid.c ****       if (pdesc->bDescriptorType == USB_DESC_TYPE_HID)
 597              		.loc 1 718 7 is_stmt 1 view .LVU198
ARM GAS  /tmp/ccP1swG7.s 			page 27


 714:./Libraries/STM32_USB_Host_Library/Class/HID/Src/usbh_hid.c ****     {
 598              		.loc 1 714 11 view .LVU199
 599              		.loc 1 718 10 is_stmt 0 view .LVU200
 600 0032 4378     		ldrb	r3, [r0, #1]	@ zero_extendqisi2
 601 0034 212B     		cmp	r3, #33
 602 0036 48D0     		beq	.L71
 714:./Libraries/STM32_USB_Host_Library/Class/HID/Src/usbh_hid.c ****     {
 603              		.loc 1 714 11 view .LVU201
 604 0038 BDF80E30 		ldrh	r3, [sp, #14]
 605 003c AB42     		cmp	r3, r5
 606 003e F4D3     		bcc	.L55
 607              	.LVL48:
 608              	.L54:
 714:./Libraries/STM32_USB_Host_Library/Class/HID/Src/usbh_hid.c ****     {
 609              		.loc 1 714 11 view .LVU202
 610              	.LBE20:
 611              	.LBE22:
 294:./Libraries/STM32_USB_Host_Library/Class/HID/Src/usbh_hid.c **** 
 612              		.loc 1 294 5 is_stmt 1 view .LVU203
 294:./Libraries/STM32_USB_Host_Library/Class/HID/Src/usbh_hid.c **** 
 613              		.loc 1 294 27 is_stmt 0 view .LVU204
 614 0040 0223     		movs	r3, #2
 282:./Libraries/STM32_USB_Host_Library/Class/HID/Src/usbh_hid.c ****   USBH_StatusTypeDef classReqStatus = USBH_BUSY;
 615              		.loc 1 282 22 view .LVU205
 616 0042 0125     		movs	r5, #1
 294:./Libraries/STM32_USB_Host_Library/Class/HID/Src/usbh_hid.c **** 
 617              		.loc 1 294 27 view .LVU206
 618 0044 7371     		strb	r3, [r6, #5]
 296:./Libraries/STM32_USB_Host_Library/Class/HID/Src/usbh_hid.c ****   case HID_REQ_GET_REPORT_DESC:
 619              		.loc 1 296 5 is_stmt 1 view .LVU207
 620              	.LVL49:
 621              	.L46:
 363:./Libraries/STM32_USB_Host_Library/Class/HID/Src/usbh_hid.c **** }
 622              		.loc 1 363 3 view .LVU208
 364:./Libraries/STM32_USB_Host_Library/Class/HID/Src/usbh_hid.c **** 
 623              		.loc 1 364 1 is_stmt 0 view .LVU209
 624 0046 2846     		mov	r0, r5
 625 0048 04B0     		add	sp, sp, #16
 626              	.LCFI8:
 627              		.cfi_remember_state
 628              		.cfi_def_cfa_offset 16
 629              		@ sp needed
 630 004a 70BD     		pop	{r4, r5, r6, pc}
 631              	.LVL50:
 632              	.L47:
 633              	.LCFI9:
 634              		.cfi_restore_state
 338:./Libraries/STM32_USB_Host_Library/Class/HID/Src/usbh_hid.c ****     if (classReqStatus == USBH_OK)
 635              		.loc 1 338 5 is_stmt 1 view .LVU210
 636              	.LBB23:
 637              	.LBI23:
 672:./Libraries/STM32_USB_Host_Library/Class/HID/Src/usbh_hid.c ****                                         uint8_t protocol)
 638              		.loc 1 672 20 view .LVU211
 639              	.LBB24:
 675:./Libraries/STM32_USB_Host_Library/Class/HID/Src/usbh_hid.c ****                                          | USB_REQ_TYPE_CLASS;
 640              		.loc 1 675 3 view .LVU212
 678:./Libraries/STM32_USB_Host_Library/Class/HID/Src/usbh_hid.c ****   if (protocol)
ARM GAS  /tmp/ccP1swG7.s 			page 28


 641              		.loc 1 678 3 view .LVU213
 679:./Libraries/STM32_USB_Host_Library/Class/HID/Src/usbh_hid.c ****   {
 642              		.loc 1 679 3 view .LVU214
 685:./Libraries/STM32_USB_Host_Library/Class/HID/Src/usbh_hid.c ****   }
 643              		.loc 1 685 5 view .LVU215
 688:./Libraries/STM32_USB_Host_Library/Class/HID/Src/usbh_hid.c ****   phost->Control.setup.b.wLength.w = 0U;
 644              		.loc 1 688 3 view .LVU216
 689:./Libraries/STM32_USB_Host_Library/Class/HID/Src/usbh_hid.c **** 
 645              		.loc 1 689 3 view .LVU217
 688:./Libraries/STM32_USB_Host_Library/Class/HID/Src/usbh_hid.c ****   phost->Control.setup.b.wLength.w = 0U;
 646              		.loc 1 688 35 is_stmt 0 view .LVU218
 647 004c 0022     		movs	r2, #0
 675:./Libraries/STM32_USB_Host_Library/Class/HID/Src/usbh_hid.c ****                                          | USB_REQ_TYPE_CLASS;
 648              		.loc 1 675 40 view .LVU219
 649 004e 294B     		ldr	r3, .L72
 691:./Libraries/STM32_USB_Host_Library/Class/HID/Src/usbh_hid.c **** 
 650              		.loc 1 691 10 view .LVU220
 651 0050 1146     		mov	r1, r2
 688:./Libraries/STM32_USB_Host_Library/Class/HID/Src/usbh_hid.c ****   phost->Control.setup.b.wLength.w = 0U;
 652              		.loc 1 688 35 view .LVU221
 653 0052 C0E90432 		strd	r3, r2, [r0, #16]
 691:./Libraries/STM32_USB_Host_Library/Class/HID/Src/usbh_hid.c **** 
 654              		.loc 1 691 3 is_stmt 1 view .LVU222
 691:./Libraries/STM32_USB_Host_Library/Class/HID/Src/usbh_hid.c **** 
 655              		.loc 1 691 10 is_stmt 0 view .LVU223
 656 0056 FFF7FEFF 		bl	USBH_CtlReq
 657              	.LVL51:
 691:./Libraries/STM32_USB_Host_Library/Class/HID/Src/usbh_hid.c **** 
 658              		.loc 1 691 10 view .LVU224
 659              	.LBE24:
 660              	.LBE23:
 339:./Libraries/STM32_USB_Host_Library/Class/HID/Src/usbh_hid.c ****     {
 661              		.loc 1 339 5 is_stmt 1 view .LVU225
 339:./Libraries/STM32_USB_Host_Library/Class/HID/Src/usbh_hid.c ****     {
 662              		.loc 1 339 8 is_stmt 0 view .LVU226
 663 005a 0546     		mov	r5, r0
 664 005c 70BB     		cbnz	r0, .L60
 341:./Libraries/STM32_USB_Host_Library/Class/HID/Src/usbh_hid.c **** 
 665              		.loc 1 341 7 is_stmt 1 view .LVU227
 341:./Libraries/STM32_USB_Host_Library/Class/HID/Src/usbh_hid.c **** 
 666              		.loc 1 341 29 is_stmt 0 view .LVU228
 667 005e 0123     		movs	r3, #1
 344:./Libraries/STM32_USB_Host_Library/Class/HID/Src/usbh_hid.c ****       status = USBH_OK;
 668              		.loc 1 344 7 view .LVU229
 669 0060 2046     		mov	r0, r4
 670              	.LVL52:
 344:./Libraries/STM32_USB_Host_Library/Class/HID/Src/usbh_hid.c ****       status = USBH_OK;
 671              		.loc 1 344 7 view .LVU230
 672 0062 0221     		movs	r1, #2
 341:./Libraries/STM32_USB_Host_Library/Class/HID/Src/usbh_hid.c **** 
 673              		.loc 1 341 29 view .LVU231
 674 0064 7371     		strb	r3, [r6, #5]
 344:./Libraries/STM32_USB_Host_Library/Class/HID/Src/usbh_hid.c ****       status = USBH_OK;
 675              		.loc 1 344 7 is_stmt 1 view .LVU232
 676 0066 D4F8D434 		ldr	r3, [r4, #1236]
 677 006a 9847     		blx	r3
 678              	.LVL53:
ARM GAS  /tmp/ccP1swG7.s 			page 29


 345:./Libraries/STM32_USB_Host_Library/Class/HID/Src/usbh_hid.c ****     }
 679              		.loc 1 345 7 view .LVU233
 363:./Libraries/STM32_USB_Host_Library/Class/HID/Src/usbh_hid.c **** }
 680              		.loc 1 363 3 view .LVU234
 364:./Libraries/STM32_USB_Host_Library/Class/HID/Src/usbh_hid.c **** 
 681              		.loc 1 364 1 is_stmt 0 view .LVU235
 682 006c 2846     		mov	r0, r5
 683 006e 04B0     		add	sp, sp, #16
 684              	.LCFI10:
 685              		.cfi_remember_state
 686              		.cfi_def_cfa_offset 16
 687              		@ sp needed
 688 0070 70BD     		pop	{r4, r5, r6, pc}
 689              	.LVL54:
 690              	.L49:
 691              	.LCFI11:
 692              		.cfi_restore_state
 320:./Libraries/STM32_USB_Host_Library/Class/HID/Src/usbh_hid.c **** 
 693              		.loc 1 320 5 is_stmt 1 view .LVU236
 694              	.LBB25:
 695              	.LBI25:
 585:./Libraries/STM32_USB_Host_Library/Class/HID/Src/usbh_hid.c ****                                     uint8_t duration,
 696              		.loc 1 585 20 view .LVU237
 697              	.LBB26:
 590:./Libraries/STM32_USB_Host_Library/Class/HID/Src/usbh_hid.c ****                                          USB_REQ_TYPE_CLASS;
 698              		.loc 1 590 3 view .LVU238
 594:./Libraries/STM32_USB_Host_Library/Class/HID/Src/usbh_hid.c ****   phost->Control.setup.b.wValue.w = (uint16_t)(((uint32_t)duration << 8U) | (uint32_t)reportId);
 699              		.loc 1 594 3 view .LVU239
 595:./Libraries/STM32_USB_Host_Library/Class/HID/Src/usbh_hid.c **** 
 700              		.loc 1 595 3 view .LVU240
 597:./Libraries/STM32_USB_Host_Library/Class/HID/Src/usbh_hid.c ****   phost->Control.setup.b.wLength.w = 0U;
 701              		.loc 1 597 3 view .LVU241
 598:./Libraries/STM32_USB_Host_Library/Class/HID/Src/usbh_hid.c **** 
 702              		.loc 1 598 3 view .LVU242
 597:./Libraries/STM32_USB_Host_Library/Class/HID/Src/usbh_hid.c ****   phost->Control.setup.b.wLength.w = 0U;
 703              		.loc 1 597 35 is_stmt 0 view .LVU243
 704 0072 0022     		movs	r2, #0
 590:./Libraries/STM32_USB_Host_Library/Class/HID/Src/usbh_hid.c ****                                          USB_REQ_TYPE_CLASS;
 705              		.loc 1 590 40 view .LVU244
 706 0074 40F62123 		movw	r3, #2593
 600:./Libraries/STM32_USB_Host_Library/Class/HID/Src/usbh_hid.c **** }
 707              		.loc 1 600 10 view .LVU245
 708 0078 1146     		mov	r1, r2
 597:./Libraries/STM32_USB_Host_Library/Class/HID/Src/usbh_hid.c ****   phost->Control.setup.b.wLength.w = 0U;
 709              		.loc 1 597 35 view .LVU246
 710 007a C0E90432 		strd	r3, r2, [r0, #16]
 600:./Libraries/STM32_USB_Host_Library/Class/HID/Src/usbh_hid.c **** }
 711              		.loc 1 600 3 is_stmt 1 view .LVU247
 600:./Libraries/STM32_USB_Host_Library/Class/HID/Src/usbh_hid.c **** }
 712              		.loc 1 600 10 is_stmt 0 view .LVU248
 713 007e FFF7FEFF 		bl	USBH_CtlReq
 714              	.LVL55:
 600:./Libraries/STM32_USB_Host_Library/Class/HID/Src/usbh_hid.c **** }
 715              		.loc 1 600 10 view .LVU249
 716              	.LBE26:
 717              	.LBE25:
 323:./Libraries/STM32_USB_Host_Library/Class/HID/Src/usbh_hid.c ****     {
ARM GAS  /tmp/ccP1swG7.s 			page 30


 718              		.loc 1 323 5 is_stmt 1 view .LVU250
 323:./Libraries/STM32_USB_Host_Library/Class/HID/Src/usbh_hid.c ****     {
 719              		.loc 1 323 8 is_stmt 0 view .LVU251
 720 0082 F8B9     		cbnz	r0, .L58
 721              	.L70:
 331:./Libraries/STM32_USB_Host_Library/Class/HID/Src/usbh_hid.c ****       }
 722              		.loc 1 331 9 is_stmt 1 view .LVU252
 282:./Libraries/STM32_USB_Host_Library/Class/HID/Src/usbh_hid.c ****   USBH_StatusTypeDef classReqStatus = USBH_BUSY;
 723              		.loc 1 282 22 is_stmt 0 view .LVU253
 724 0084 0125     		movs	r5, #1
 331:./Libraries/STM32_USB_Host_Library/Class/HID/Src/usbh_hid.c ****       }
 725              		.loc 1 331 31 view .LVU254
 726 0086 0523     		movs	r3, #5
 364:./Libraries/STM32_USB_Host_Library/Class/HID/Src/usbh_hid.c **** 
 727              		.loc 1 364 1 view .LVU255
 728 0088 2846     		mov	r0, r5
 729              	.LVL56:
 331:./Libraries/STM32_USB_Host_Library/Class/HID/Src/usbh_hid.c ****       }
 730              		.loc 1 331 31 view .LVU256
 731 008a 7371     		strb	r3, [r6, #5]
 732              	.LVL57:
 363:./Libraries/STM32_USB_Host_Library/Class/HID/Src/usbh_hid.c **** }
 733              		.loc 1 363 3 is_stmt 1 view .LVU257
 364:./Libraries/STM32_USB_Host_Library/Class/HID/Src/usbh_hid.c **** 
 734              		.loc 1 364 1 is_stmt 0 view .LVU258
 735 008c 04B0     		add	sp, sp, #16
 736              	.LCFI12:
 737              		.cfi_remember_state
 738              		.cfi_def_cfa_offset 16
 739              		@ sp needed
 740 008e 70BD     		pop	{r4, r5, r6, pc}
 741              	.LVL58:
 742              	.L51:
 743              	.LCFI13:
 744              		.cfi_restore_state
 300:./Libraries/STM32_USB_Host_Library/Class/HID/Src/usbh_hid.c ****     if (classReqStatus == USBH_OK)
 745              		.loc 1 300 5 is_stmt 1 view .LVU259
 746              	.LBB27:
 747              	.LBI27:
 533:./Libraries/STM32_USB_Host_Library/Class/HID/Src/usbh_hid.c ****                                                    uint16_t length)
 748              		.loc 1 533 20 view .LVU260
 749              	.LBB28:
 537:./Libraries/STM32_USB_Host_Library/Class/HID/Src/usbh_hid.c **** 
 750              		.loc 1 537 3 view .LVU261
 539:./Libraries/STM32_USB_Host_Library/Class/HID/Src/usbh_hid.c ****                               USB_REQ_RECIPIENT_INTERFACE | USB_REQ_TYPE_STANDARD,
 751              		.loc 1 539 3 view .LVU262
 539:./Libraries/STM32_USB_Host_Library/Class/HID/Src/usbh_hid.c ****                               USB_REQ_RECIPIENT_INTERFACE | USB_REQ_TYPE_STANDARD,
 752              		.loc 1 539 12 is_stmt 0 view .LVU263
 753 0090 F18D     		ldrh	r1, [r6, #46]
 754 0092 00F50773 		add	r3, r0, #540
 755 0096 4FF40852 		mov	r2, #8704
 756 009a 0091     		str	r1, [sp]
 757              	.LVL59:
 539:./Libraries/STM32_USB_Host_Library/Class/HID/Src/usbh_hid.c ****                               USB_REQ_RECIPIENT_INTERFACE | USB_REQ_TYPE_STANDARD,
 758              		.loc 1 539 12 view .LVU264
 759 009c 0121     		movs	r1, #1
 760              	.LVL60:
ARM GAS  /tmp/ccP1swG7.s 			page 31


 539:./Libraries/STM32_USB_Host_Library/Class/HID/Src/usbh_hid.c ****                               USB_REQ_RECIPIENT_INTERFACE | USB_REQ_TYPE_STANDARD,
 761              		.loc 1 539 12 view .LVU265
 762 009e FFF7FEFF 		bl	USBH_GetDescriptor
 763              	.LVL61:
 552:./Libraries/STM32_USB_Host_Library/Class/HID/Src/usbh_hid.c **** }
 764              		.loc 1 552 3 is_stmt 1 view .LVU266
 552:./Libraries/STM32_USB_Host_Library/Class/HID/Src/usbh_hid.c **** }
 765              		.loc 1 552 3 is_stmt 0 view .LVU267
 766              	.LBE28:
 767              	.LBE27:
 301:./Libraries/STM32_USB_Host_Library/Class/HID/Src/usbh_hid.c ****     {
 768              		.loc 1 301 5 is_stmt 1 view .LVU268
 301:./Libraries/STM32_USB_Host_Library/Class/HID/Src/usbh_hid.c ****     {
 769              		.loc 1 301 8 is_stmt 0 view .LVU269
 770 00a2 28B9     		cbnz	r0, .L56
 304:./Libraries/STM32_USB_Host_Library/Class/HID/Src/usbh_hid.c ****     }
 771              		.loc 1 304 7 is_stmt 1 view .LVU270
 282:./Libraries/STM32_USB_Host_Library/Class/HID/Src/usbh_hid.c ****   USBH_StatusTypeDef classReqStatus = USBH_BUSY;
 772              		.loc 1 282 22 is_stmt 0 view .LVU271
 773 00a4 0125     		movs	r5, #1
 304:./Libraries/STM32_USB_Host_Library/Class/HID/Src/usbh_hid.c ****     }
 774              		.loc 1 304 29 view .LVU272
 775 00a6 0423     		movs	r3, #4
 364:./Libraries/STM32_USB_Host_Library/Class/HID/Src/usbh_hid.c **** 
 776              		.loc 1 364 1 view .LVU273
 777 00a8 2846     		mov	r0, r5
 778              	.LVL62:
 304:./Libraries/STM32_USB_Host_Library/Class/HID/Src/usbh_hid.c ****     }
 779              		.loc 1 304 29 view .LVU274
 780 00aa 7371     		strb	r3, [r6, #5]
 781              	.LVL63:
 363:./Libraries/STM32_USB_Host_Library/Class/HID/Src/usbh_hid.c **** }
 782              		.loc 1 363 3 is_stmt 1 view .LVU275
 364:./Libraries/STM32_USB_Host_Library/Class/HID/Src/usbh_hid.c **** 
 783              		.loc 1 364 1 is_stmt 0 view .LVU276
 784 00ac 04B0     		add	sp, sp, #16
 785              	.LCFI14:
 786              		.cfi_remember_state
 787              		.cfi_def_cfa_offset 16
 788              		@ sp needed
 789 00ae 70BD     		pop	{r4, r5, r6, pc}
 790              	.LVL64:
 791              	.L56:
 792              	.LCFI15:
 793              		.cfi_restore_state
 306:./Libraries/STM32_USB_Host_Library/Class/HID/Src/usbh_hid.c ****     {
 794              		.loc 1 306 10 is_stmt 1 view .LVU277
 306:./Libraries/STM32_USB_Host_Library/Class/HID/Src/usbh_hid.c ****     {
 795              		.loc 1 306 13 is_stmt 0 view .LVU278
 796 00b0 0328     		cmp	r0, #3
 797 00b2 05D0     		beq	.L57
 798              	.LVL65:
 799              	.L61:
 287:./Libraries/STM32_USB_Host_Library/Class/HID/Src/usbh_hid.c ****   {
 800              		.loc 1 287 21 view .LVU279
 801 00b4 0125     		movs	r5, #1
 802              	.LVL66:
ARM GAS  /tmp/ccP1swG7.s 			page 32


 363:./Libraries/STM32_USB_Host_Library/Class/HID/Src/usbh_hid.c **** }
 803              		.loc 1 363 3 is_stmt 1 view .LVU280
 364:./Libraries/STM32_USB_Host_Library/Class/HID/Src/usbh_hid.c **** 
 804              		.loc 1 364 1 is_stmt 0 view .LVU281
 805 00b6 2846     		mov	r0, r5
 806 00b8 04B0     		add	sp, sp, #16
 807              	.LCFI16:
 808              		.cfi_remember_state
 809              		.cfi_def_cfa_offset 16
 810              		@ sp needed
 811 00ba 70BD     		pop	{r4, r5, r6, pc}
 812              	.LVL67:
 813              	.L60:
 814              	.LCFI17:
 815              		.cfi_restore_state
 347:./Libraries/STM32_USB_Host_Library/Class/HID/Src/usbh_hid.c ****     {
 816              		.loc 1 347 10 is_stmt 1 view .LVU282
 347:./Libraries/STM32_USB_Host_Library/Class/HID/Src/usbh_hid.c ****     {
 817              		.loc 1 347 13 is_stmt 0 view .LVU283
 818 00bc 0328     		cmp	r0, #3
 819 00be F9D1     		bne	.L61
 820              	.L57:
 308:./Libraries/STM32_USB_Host_Library/Class/HID/Src/usbh_hid.c ****       status = USBH_FAIL;
 821              		.loc 1 308 85 is_stmt 1 view .LVU284
 309:./Libraries/STM32_USB_Host_Library/Class/HID/Src/usbh_hid.c ****     }
 822              		.loc 1 309 7 view .LVU285
 823              	.LVL68:
 309:./Libraries/STM32_USB_Host_Library/Class/HID/Src/usbh_hid.c ****     }
 824              		.loc 1 309 14 is_stmt 0 view .LVU286
 825 00c0 0225     		movs	r5, #2
 826 00c2 C0E7     		b	.L46
 827              	.LVL69:
 828              	.L58:
 329:./Libraries/STM32_USB_Host_Library/Class/HID/Src/usbh_hid.c ****       {
 829              		.loc 1 329 7 is_stmt 1 view .LVU287
 329:./Libraries/STM32_USB_Host_Library/Class/HID/Src/usbh_hid.c ****       {
 830              		.loc 1 329 10 is_stmt 0 view .LVU288
 831 00c4 0328     		cmp	r0, #3
 832 00c6 F5D1     		bne	.L61
 833 00c8 DCE7     		b	.L70
 834              	.LVL70:
 835              	.L71:
 836              	.LBB29:
 837              	.LBB21:
 719:./Libraries/STM32_USB_Host_Library/Class/HID/Src/usbh_hid.c ****       {
 720:./Libraries/STM32_USB_Host_Library/Class/HID/Src/usbh_hid.c ****         desc->bLength = *(uint8_t *)((uint8_t *)pdesc + 0U);
 838              		.loc 1 720 9 is_stmt 1 view .LVU289
 839              		.loc 1 720 25 is_stmt 0 view .LVU290
 840 00ca 0378     		ldrb	r3, [r0]	@ zero_extendqisi2
 841              		.loc 1 720 23 view .LVU291
 842 00cc 86F82630 		strb	r3, [r6, #38]
 721:./Libraries/STM32_USB_Host_Library/Class/HID/Src/usbh_hid.c ****         desc->bDescriptorType = *(uint8_t *)((uint8_t *)pdesc + 1U);
 843              		.loc 1 721 9 is_stmt 1 view .LVU292
 844              		.loc 1 721 31 is_stmt 0 view .LVU293
 845 00d0 4378     		ldrb	r3, [r0, #1]	@ zero_extendqisi2
 846 00d2 86F82730 		strb	r3, [r6, #39]
 722:./Libraries/STM32_USB_Host_Library/Class/HID/Src/usbh_hid.c ****         desc->bcdHID = LE16((uint8_t *)pdesc + 2U);
ARM GAS  /tmp/ccP1swG7.s 			page 33


 847              		.loc 1 722 9 is_stmt 1 view .LVU294
 848              		.loc 1 722 24 is_stmt 0 view .LVU295
 849 00d6 4388     		ldrh	r3, [r0, #2]	@ unaligned
 850              		.loc 1 722 22 view .LVU296
 851 00d8 3385     		strh	r3, [r6, #40]	@ movhi
 723:./Libraries/STM32_USB_Host_Library/Class/HID/Src/usbh_hid.c ****         desc->bCountryCode = *(uint8_t *)((uint8_t *)pdesc + 4U);
 852              		.loc 1 723 9 is_stmt 1 view .LVU297
 853              		.loc 1 723 28 is_stmt 0 view .LVU298
 854 00da 0379     		ldrb	r3, [r0, #4]	@ zero_extendqisi2
 855 00dc 86F82A30 		strb	r3, [r6, #42]
 724:./Libraries/STM32_USB_Host_Library/Class/HID/Src/usbh_hid.c ****         desc->bNumDescriptors = *(uint8_t *)((uint8_t *)pdesc + 5U);
 856              		.loc 1 724 9 is_stmt 1 view .LVU299
 857              		.loc 1 724 31 is_stmt 0 view .LVU300
 858 00e0 4379     		ldrb	r3, [r0, #5]	@ zero_extendqisi2
 859 00e2 86F82B30 		strb	r3, [r6, #43]
 725:./Libraries/STM32_USB_Host_Library/Class/HID/Src/usbh_hid.c ****         desc->bReportDescriptorType = *(uint8_t *)((uint8_t *)pdesc + 6U);
 860              		.loc 1 725 9 is_stmt 1 view .LVU301
 861              		.loc 1 725 37 is_stmt 0 view .LVU302
 862 00e6 8379     		ldrb	r3, [r0, #6]	@ zero_extendqisi2
 863 00e8 86F82C30 		strb	r3, [r6, #44]
 726:./Libraries/STM32_USB_Host_Library/Class/HID/Src/usbh_hid.c ****         desc->wItemLength = LE16((uint8_t *)pdesc + 7U);
 864              		.loc 1 726 9 is_stmt 1 view .LVU303
 865              		.loc 1 726 29 is_stmt 0 view .LVU304
 866 00ec B0F80730 		ldrh	r3, [r0, #7]	@ unaligned
 867              		.loc 1 726 27 view .LVU305
 868 00f0 F385     		strh	r3, [r6, #46]	@ movhi
 727:./Libraries/STM32_USB_Host_Library/Class/HID/Src/usbh_hid.c ****         break;
 869              		.loc 1 727 9 is_stmt 1 view .LVU306
 870 00f2 A5E7     		b	.L54
 871              	.L73:
 872              		.align	2
 873              	.L72:
 874 00f4 210B0100 		.word	68385
 875              	.LBE21:
 876              	.LBE29:
 877              		.cfi_endproc
 878              	.LFE340:
 880              		.section	.text.USBH_HID_GetHIDReportDescriptor,"ax",%progbits
 881              		.align	1
 882              		.p2align 2,,3
 883              		.global	USBH_HID_GetHIDReportDescriptor
 884              		.syntax unified
 885              		.thumb
 886              		.thumb_func
 887              		.fpu fpv5-d16
 889              	USBH_HID_GetHIDReportDescriptor:
 890              	.LVL71:
 891              	.LFB343:
 535:./Libraries/STM32_USB_Host_Library/Class/HID/Src/usbh_hid.c **** 
 892              		.loc 1 535 1 view -0
 893              		.cfi_startproc
 894              		@ args = 0, pretend = 0, frame = 0
 895              		@ frame_needed = 0, uses_anonymous_args = 0
 537:./Libraries/STM32_USB_Host_Library/Class/HID/Src/usbh_hid.c **** 
 896              		.loc 1 537 3 view .LVU308
 539:./Libraries/STM32_USB_Host_Library/Class/HID/Src/usbh_hid.c ****                               USB_REQ_RECIPIENT_INTERFACE | USB_REQ_TYPE_STANDARD,
 897              		.loc 1 539 3 view .LVU309
ARM GAS  /tmp/ccP1swG7.s 			page 34


 535:./Libraries/STM32_USB_Host_Library/Class/HID/Src/usbh_hid.c **** 
 898              		.loc 1 535 1 is_stmt 0 view .LVU310
 899 0000 00B5     		push	{lr}
 900              	.LCFI18:
 901              		.cfi_def_cfa_offset 4
 902              		.cfi_offset 14, -4
 903 0002 0B46     		mov	r3, r1
 904 0004 83B0     		sub	sp, sp, #12
 905              	.LCFI19:
 906              		.cfi_def_cfa_offset 16
 539:./Libraries/STM32_USB_Host_Library/Class/HID/Src/usbh_hid.c ****                               USB_REQ_RECIPIENT_INTERFACE | USB_REQ_TYPE_STANDARD,
 907              		.loc 1 539 12 view .LVU311
 908 0006 4FF40852 		mov	r2, #8704
 909 000a 0121     		movs	r1, #1
 910              	.LVL72:
 539:./Libraries/STM32_USB_Host_Library/Class/HID/Src/usbh_hid.c ****                               USB_REQ_RECIPIENT_INTERFACE | USB_REQ_TYPE_STANDARD,
 911              		.loc 1 539 12 view .LVU312
 912 000c 0093     		str	r3, [sp]
 913 000e 00F50773 		add	r3, r0, #540
 914 0012 FFF7FEFF 		bl	USBH_GetDescriptor
 915              	.LVL73:
 552:./Libraries/STM32_USB_Host_Library/Class/HID/Src/usbh_hid.c **** }
 916              		.loc 1 552 3 is_stmt 1 view .LVU313
 553:./Libraries/STM32_USB_Host_Library/Class/HID/Src/usbh_hid.c **** 
 917              		.loc 1 553 1 is_stmt 0 view .LVU314
 918 0016 03B0     		add	sp, sp, #12
 919              	.LCFI20:
 920              		.cfi_def_cfa_offset 4
 921              		@ sp needed
 922 0018 5DF804FB 		ldr	pc, [sp], #4
 923              		.cfi_endproc
 924              	.LFE343:
 926              		.section	.text.USBH_HID_GetHIDDescriptor,"ax",%progbits
 927              		.align	1
 928              		.p2align 2,,3
 929              		.global	USBH_HID_GetHIDDescriptor
 930              		.syntax unified
 931              		.thumb
 932              		.thumb_func
 933              		.fpu fpv5-d16
 935              	USBH_HID_GetHIDDescriptor:
 936              	.LVL74:
 937              	.LFB344:
 565:./Libraries/STM32_USB_Host_Library/Class/HID/Src/usbh_hid.c ****   USBH_StatusTypeDef status;
 938              		.loc 1 565 1 is_stmt 1 view -0
 939              		.cfi_startproc
 940              		@ args = 0, pretend = 0, frame = 0
 941              		@ frame_needed = 0, uses_anonymous_args = 0
 566:./Libraries/STM32_USB_Host_Library/Class/HID/Src/usbh_hid.c **** 
 942              		.loc 1 566 3 view .LVU316
 568:./Libraries/STM32_USB_Host_Library/Class/HID/Src/usbh_hid.c ****                               USB_REQ_RECIPIENT_INTERFACE | USB_REQ_TYPE_STANDARD,
 943              		.loc 1 568 3 view .LVU317
 565:./Libraries/STM32_USB_Host_Library/Class/HID/Src/usbh_hid.c ****   USBH_StatusTypeDef status;
 944              		.loc 1 565 1 is_stmt 0 view .LVU318
 945 0000 00B5     		push	{lr}
 946              	.LCFI21:
 947              		.cfi_def_cfa_offset 4
ARM GAS  /tmp/ccP1swG7.s 			page 35


 948              		.cfi_offset 14, -4
 949 0002 0B46     		mov	r3, r1
 950 0004 83B0     		sub	sp, sp, #12
 951              	.LCFI22:
 952              		.cfi_def_cfa_offset 16
 568:./Libraries/STM32_USB_Host_Library/Class/HID/Src/usbh_hid.c ****                               USB_REQ_RECIPIENT_INTERFACE | USB_REQ_TYPE_STANDARD,
 953              		.loc 1 568 12 view .LVU319
 954 0006 4FF40452 		mov	r2, #8448
 955 000a 0121     		movs	r1, #1
 956              	.LVL75:
 568:./Libraries/STM32_USB_Host_Library/Class/HID/Src/usbh_hid.c ****                               USB_REQ_RECIPIENT_INTERFACE | USB_REQ_TYPE_STANDARD,
 957              		.loc 1 568 12 view .LVU320
 958 000c 0093     		str	r3, [sp]
 959 000e 00F50773 		add	r3, r0, #540
 960 0012 FFF7FEFF 		bl	USBH_GetDescriptor
 961              	.LVL76:
 574:./Libraries/STM32_USB_Host_Library/Class/HID/Src/usbh_hid.c **** }
 962              		.loc 1 574 3 is_stmt 1 view .LVU321
 575:./Libraries/STM32_USB_Host_Library/Class/HID/Src/usbh_hid.c **** 
 963              		.loc 1 575 1 is_stmt 0 view .LVU322
 964 0016 03B0     		add	sp, sp, #12
 965              	.LCFI23:
 966              		.cfi_def_cfa_offset 4
 967              		@ sp needed
 968 0018 5DF804FB 		ldr	pc, [sp], #4
 969              		.cfi_endproc
 970              	.LFE344:
 972              		.section	.text.USBH_HID_SetIdle,"ax",%progbits
 973              		.align	1
 974              		.p2align 2,,3
 975              		.global	USBH_HID_SetIdle
 976              		.syntax unified
 977              		.thumb
 978              		.thumb_func
 979              		.fpu fpv5-d16
 981              	USBH_HID_SetIdle:
 982              	.LVL77:
 983              	.LFB345:
 588:./Libraries/STM32_USB_Host_Library/Class/HID/Src/usbh_hid.c **** 
 984              		.loc 1 588 1 is_stmt 1 view -0
 985              		.cfi_startproc
 986              		@ args = 0, pretend = 0, frame = 0
 987              		@ frame_needed = 0, uses_anonymous_args = 0
 988              		@ link register save eliminated.
 590:./Libraries/STM32_USB_Host_Library/Class/HID/Src/usbh_hid.c ****                                          USB_REQ_TYPE_CLASS;
 989              		.loc 1 590 3 view .LVU324
 594:./Libraries/STM32_USB_Host_Library/Class/HID/Src/usbh_hid.c ****   phost->Control.setup.b.wValue.w = (uint16_t)(((uint32_t)duration << 8U) | (uint32_t)reportId);
 990              		.loc 1 594 3 view .LVU325
 588:./Libraries/STM32_USB_Host_Library/Class/HID/Src/usbh_hid.c **** 
 991              		.loc 1 588 1 is_stmt 0 view .LVU326
 992 0000 10B4     		push	{r4}
 993              	.LCFI24:
 994              		.cfi_def_cfa_offset 4
 995              		.cfi_offset 4, -4
 595:./Libraries/STM32_USB_Host_Library/Class/HID/Src/usbh_hid.c **** 
 996              		.loc 1 595 37 view .LVU327
 997 0002 42EA0121 		orr	r1, r2, r1, lsl #8
ARM GAS  /tmp/ccP1swG7.s 			page 36


 998              	.LVL78:
 590:./Libraries/STM32_USB_Host_Library/Class/HID/Src/usbh_hid.c ****                                          USB_REQ_TYPE_CLASS;
 999              		.loc 1 590 40 view .LVU328
 1000 0006 40F62124 		movw	r4, #2593
 597:./Libraries/STM32_USB_Host_Library/Class/HID/Src/usbh_hid.c ****   phost->Control.setup.b.wLength.w = 0U;
 1001              		.loc 1 597 35 view .LVU329
 1002 000a 0022     		movs	r2, #0
 1003              	.LVL79:
 595:./Libraries/STM32_USB_Host_Library/Class/HID/Src/usbh_hid.c **** 
 1004              		.loc 1 595 35 view .LVU330
 1005 000c 4182     		strh	r1, [r0, #18]	@ movhi
 590:./Libraries/STM32_USB_Host_Library/Class/HID/Src/usbh_hid.c ****                                          USB_REQ_TYPE_CLASS;
 1006              		.loc 1 590 40 view .LVU331
 1007 000e 0482     		strh	r4, [r0, #16]	@ movhi
 595:./Libraries/STM32_USB_Host_Library/Class/HID/Src/usbh_hid.c **** 
 1008              		.loc 1 595 3 is_stmt 1 view .LVU332
 597:./Libraries/STM32_USB_Host_Library/Class/HID/Src/usbh_hid.c ****   phost->Control.setup.b.wLength.w = 0U;
 1009              		.loc 1 597 3 view .LVU333
 598:./Libraries/STM32_USB_Host_Library/Class/HID/Src/usbh_hid.c **** 
 1010              		.loc 1 598 3 view .LVU334
 600:./Libraries/STM32_USB_Host_Library/Class/HID/Src/usbh_hid.c **** }
 1011              		.loc 1 600 10 is_stmt 0 view .LVU335
 1012 0010 1146     		mov	r1, r2
 601:./Libraries/STM32_USB_Host_Library/Class/HID/Src/usbh_hid.c **** 
 1013              		.loc 1 601 1 view .LVU336
 1014 0012 5DF8044B 		ldr	r4, [sp], #4
 1015              	.LCFI25:
 1016              		.cfi_restore 4
 1017              		.cfi_def_cfa_offset 0
 597:./Libraries/STM32_USB_Host_Library/Class/HID/Src/usbh_hid.c ****   phost->Control.setup.b.wLength.w = 0U;
 1018              		.loc 1 597 35 view .LVU337
 1019 0016 4261     		str	r2, [r0, #20]
 600:./Libraries/STM32_USB_Host_Library/Class/HID/Src/usbh_hid.c **** }
 1020              		.loc 1 600 3 is_stmt 1 view .LVU338
 600:./Libraries/STM32_USB_Host_Library/Class/HID/Src/usbh_hid.c **** }
 1021              		.loc 1 600 10 is_stmt 0 view .LVU339
 1022 0018 FFF7FEBF 		b	USBH_CtlReq
 1023              	.LVL80:
 600:./Libraries/STM32_USB_Host_Library/Class/HID/Src/usbh_hid.c **** }
 1024              		.loc 1 600 10 view .LVU340
 1025              		.cfi_endproc
 1026              	.LFE345:
 1028              		.section	.text.USBH_HID_SetReport,"ax",%progbits
 1029              		.align	1
 1030              		.p2align 2,,3
 1031              		.global	USBH_HID_SetReport
 1032              		.syntax unified
 1033              		.thumb
 1034              		.thumb_func
 1035              		.fpu fpv5-d16
 1037              	USBH_HID_SetReport:
 1038              	.LVL81:
 1039              	.LFB346:
 619:./Libraries/STM32_USB_Host_Library/Class/HID/Src/usbh_hid.c **** 
 1040              		.loc 1 619 1 is_stmt 1 view -0
 1041              		.cfi_startproc
 1042              		@ args = 4, pretend = 0, frame = 0
ARM GAS  /tmp/ccP1swG7.s 			page 37


 1043              		@ frame_needed = 0, uses_anonymous_args = 0
 1044              		@ link register save eliminated.
 621:./Libraries/STM32_USB_Host_Library/Class/HID/Src/usbh_hid.c ****                                          USB_REQ_TYPE_CLASS;
 1045              		.loc 1 621 3 view .LVU342
 625:./Libraries/STM32_USB_Host_Library/Class/HID/Src/usbh_hid.c ****   phost->Control.setup.b.wValue.w = (uint16_t)(((uint32_t)reportType << 8U) | (uint32_t)reportId);
 1046              		.loc 1 625 3 view .LVU343
 619:./Libraries/STM32_USB_Host_Library/Class/HID/Src/usbh_hid.c **** 
 1047              		.loc 1 619 1 is_stmt 0 view .LVU344
 1048 0000 F0B4     		push	{r4, r5, r6, r7}
 1049              	.LCFI26:
 1050              		.cfi_def_cfa_offset 16
 1051              		.cfi_offset 4, -16
 1052              		.cfi_offset 5, -12
 1053              		.cfi_offset 6, -8
 1054              		.cfi_offset 7, -4
 626:./Libraries/STM32_USB_Host_Library/Class/HID/Src/usbh_hid.c **** 
 1055              		.loc 1 626 37 view .LVU345
 1056 0002 42EA0125 		orr	r5, r2, r1, lsl #8
 621:./Libraries/STM32_USB_Host_Library/Class/HID/Src/usbh_hid.c ****                                          USB_REQ_TYPE_CLASS;
 1057              		.loc 1 621 40 view .LVU346
 1058 0006 40F62117 		movw	r7, #2337
 628:./Libraries/STM32_USB_Host_Library/Class/HID/Src/usbh_hid.c ****   phost->Control.setup.b.wLength.w = reportLen;
 1059              		.loc 1 628 35 view .LVU347
 1060 000a 0026     		movs	r6, #0
 629:./Libraries/STM32_USB_Host_Library/Class/HID/Src/usbh_hid.c **** 
 1061              		.loc 1 629 36 view .LVU348
 1062 000c 9DF81020 		ldrb	r2, [sp, #16]	@ zero_extendqisi2
 1063              	.LVL82:
 626:./Libraries/STM32_USB_Host_Library/Class/HID/Src/usbh_hid.c **** 
 1064              		.loc 1 626 35 view .LVU349
 1065 0010 4582     		strh	r5, [r0, #18]	@ movhi
 631:./Libraries/STM32_USB_Host_Library/Class/HID/Src/usbh_hid.c **** }
 1066              		.loc 1 631 10 view .LVU350
 1067 0012 1946     		mov	r1, r3
 1068              	.LVL83:
 621:./Libraries/STM32_USB_Host_Library/Class/HID/Src/usbh_hid.c ****                                          USB_REQ_TYPE_CLASS;
 1069              		.loc 1 621 40 view .LVU351
 1070 0014 0782     		strh	r7, [r0, #16]	@ movhi
 626:./Libraries/STM32_USB_Host_Library/Class/HID/Src/usbh_hid.c **** 
 1071              		.loc 1 626 3 is_stmt 1 view .LVU352
 628:./Libraries/STM32_USB_Host_Library/Class/HID/Src/usbh_hid.c ****   phost->Control.setup.b.wLength.w = reportLen;
 1072              		.loc 1 628 3 view .LVU353
 628:./Libraries/STM32_USB_Host_Library/Class/HID/Src/usbh_hid.c ****   phost->Control.setup.b.wLength.w = reportLen;
 1073              		.loc 1 628 35 is_stmt 0 view .LVU354
 1074 0016 8682     		strh	r6, [r0, #20]	@ movhi
 629:./Libraries/STM32_USB_Host_Library/Class/HID/Src/usbh_hid.c **** 
 1075              		.loc 1 629 3 is_stmt 1 view .LVU355
 629:./Libraries/STM32_USB_Host_Library/Class/HID/Src/usbh_hid.c **** 
 1076              		.loc 1 629 36 is_stmt 0 view .LVU356
 1077 0018 C282     		strh	r2, [r0, #22]	@ movhi
 631:./Libraries/STM32_USB_Host_Library/Class/HID/Src/usbh_hid.c **** }
 1078              		.loc 1 631 3 is_stmt 1 view .LVU357
 632:./Libraries/STM32_USB_Host_Library/Class/HID/Src/usbh_hid.c **** 
 1079              		.loc 1 632 1 is_stmt 0 view .LVU358
 1080 001a F0BC     		pop	{r4, r5, r6, r7}
 1081              	.LCFI27:
 1082              		.cfi_restore 7
ARM GAS  /tmp/ccP1swG7.s 			page 38


 1083              		.cfi_restore 6
 1084              		.cfi_restore 5
 1085              		.cfi_restore 4
 1086              		.cfi_def_cfa_offset 0
 1087              	.LVL84:
 631:./Libraries/STM32_USB_Host_Library/Class/HID/Src/usbh_hid.c **** }
 1088              		.loc 1 631 10 view .LVU359
 1089 001c FFF7FEBF 		b	USBH_CtlReq
 1090              	.LVL85:
 631:./Libraries/STM32_USB_Host_Library/Class/HID/Src/usbh_hid.c **** }
 1091              		.loc 1 631 10 view .LVU360
 1092              		.cfi_endproc
 1093              	.LFE346:
 1095              		.section	.text.USBH_HID_GetReport,"ax",%progbits
 1096              		.align	1
 1097              		.p2align 2,,3
 1098              		.global	USBH_HID_GetReport
 1099              		.syntax unified
 1100              		.thumb
 1101              		.thumb_func
 1102              		.fpu fpv5-d16
 1104              	USBH_HID_GetReport:
 1105              	.LVL86:
 1106              	.LFB347:
 650:./Libraries/STM32_USB_Host_Library/Class/HID/Src/usbh_hid.c **** 
 1107              		.loc 1 650 1 is_stmt 1 view -0
 1108              		.cfi_startproc
 1109              		@ args = 4, pretend = 0, frame = 0
 1110              		@ frame_needed = 0, uses_anonymous_args = 0
 1111              		@ link register save eliminated.
 652:./Libraries/STM32_USB_Host_Library/Class/HID/Src/usbh_hid.c ****                                          USB_REQ_TYPE_CLASS;
 1112              		.loc 1 652 3 view .LVU362
 656:./Libraries/STM32_USB_Host_Library/Class/HID/Src/usbh_hid.c ****   phost->Control.setup.b.wValue.w = (uint16_t)(((uint32_t)reportType << 8U) | (uint32_t)reportId);
 1113              		.loc 1 656 3 view .LVU363
 650:./Libraries/STM32_USB_Host_Library/Class/HID/Src/usbh_hid.c **** 
 1114              		.loc 1 650 1 is_stmt 0 view .LVU364
 1115 0000 F0B4     		push	{r4, r5, r6, r7}
 1116              	.LCFI28:
 1117              		.cfi_def_cfa_offset 16
 1118              		.cfi_offset 4, -16
 1119              		.cfi_offset 5, -12
 1120              		.cfi_offset 6, -8
 1121              		.cfi_offset 7, -4
 657:./Libraries/STM32_USB_Host_Library/Class/HID/Src/usbh_hid.c **** 
 1122              		.loc 1 657 37 view .LVU365
 1123 0002 42EA0125 		orr	r5, r2, r1, lsl #8
 652:./Libraries/STM32_USB_Host_Library/Class/HID/Src/usbh_hid.c ****                                          USB_REQ_TYPE_CLASS;
 1124              		.loc 1 652 40 view .LVU366
 1125 0006 40F2A117 		movw	r7, #417
 659:./Libraries/STM32_USB_Host_Library/Class/HID/Src/usbh_hid.c ****   phost->Control.setup.b.wLength.w = reportLen;
 1126              		.loc 1 659 35 view .LVU367
 1127 000a 0026     		movs	r6, #0
 660:./Libraries/STM32_USB_Host_Library/Class/HID/Src/usbh_hid.c **** 
 1128              		.loc 1 660 36 view .LVU368
 1129 000c 9DF81020 		ldrb	r2, [sp, #16]	@ zero_extendqisi2
 1130              	.LVL87:
 657:./Libraries/STM32_USB_Host_Library/Class/HID/Src/usbh_hid.c **** 
ARM GAS  /tmp/ccP1swG7.s 			page 39


 1131              		.loc 1 657 35 view .LVU369
 1132 0010 4582     		strh	r5, [r0, #18]	@ movhi
 662:./Libraries/STM32_USB_Host_Library/Class/HID/Src/usbh_hid.c **** }
 1133              		.loc 1 662 10 view .LVU370
 1134 0012 1946     		mov	r1, r3
 1135              	.LVL88:
 652:./Libraries/STM32_USB_Host_Library/Class/HID/Src/usbh_hid.c ****                                          USB_REQ_TYPE_CLASS;
 1136              		.loc 1 652 40 view .LVU371
 1137 0014 0782     		strh	r7, [r0, #16]	@ movhi
 657:./Libraries/STM32_USB_Host_Library/Class/HID/Src/usbh_hid.c **** 
 1138              		.loc 1 657 3 is_stmt 1 view .LVU372
 659:./Libraries/STM32_USB_Host_Library/Class/HID/Src/usbh_hid.c ****   phost->Control.setup.b.wLength.w = reportLen;
 1139              		.loc 1 659 3 view .LVU373
 659:./Libraries/STM32_USB_Host_Library/Class/HID/Src/usbh_hid.c ****   phost->Control.setup.b.wLength.w = reportLen;
 1140              		.loc 1 659 35 is_stmt 0 view .LVU374
 1141 0016 8682     		strh	r6, [r0, #20]	@ movhi
 660:./Libraries/STM32_USB_Host_Library/Class/HID/Src/usbh_hid.c **** 
 1142              		.loc 1 660 3 is_stmt 1 view .LVU375
 660:./Libraries/STM32_USB_Host_Library/Class/HID/Src/usbh_hid.c **** 
 1143              		.loc 1 660 36 is_stmt 0 view .LVU376
 1144 0018 C282     		strh	r2, [r0, #22]	@ movhi
 662:./Libraries/STM32_USB_Host_Library/Class/HID/Src/usbh_hid.c **** }
 1145              		.loc 1 662 3 is_stmt 1 view .LVU377
 663:./Libraries/STM32_USB_Host_Library/Class/HID/Src/usbh_hid.c **** 
 1146              		.loc 1 663 1 is_stmt 0 view .LVU378
 1147 001a F0BC     		pop	{r4, r5, r6, r7}
 1148              	.LCFI29:
 1149              		.cfi_restore 7
 1150              		.cfi_restore 6
 1151              		.cfi_restore 5
 1152              		.cfi_restore 4
 1153              		.cfi_def_cfa_offset 0
 1154              	.LVL89:
 662:./Libraries/STM32_USB_Host_Library/Class/HID/Src/usbh_hid.c **** }
 1155              		.loc 1 662 10 view .LVU379
 1156 001c FFF7FEBF 		b	USBH_CtlReq
 1157              	.LVL90:
 662:./Libraries/STM32_USB_Host_Library/Class/HID/Src/usbh_hid.c **** }
 1158              		.loc 1 662 10 view .LVU380
 1159              		.cfi_endproc
 1160              	.LFE347:
 1162              		.section	.text.USBH_HID_SetProtocol,"ax",%progbits
 1163              		.align	1
 1164              		.p2align 2,,3
 1165              		.global	USBH_HID_SetProtocol
 1166              		.syntax unified
 1167              		.thumb
 1168              		.thumb_func
 1169              		.fpu fpv5-d16
 1171              	USBH_HID_SetProtocol:
 1172              	.LVL91:
 1173              	.LFB348:
 674:./Libraries/STM32_USB_Host_Library/Class/HID/Src/usbh_hid.c ****   phost->Control.setup.b.bmRequestType = USB_H2D | USB_REQ_RECIPIENT_INTERFACE
 1174              		.loc 1 674 1 is_stmt 1 view -0
 1175              		.cfi_startproc
 1176              		@ args = 0, pretend = 0, frame = 0
 1177              		@ frame_needed = 0, uses_anonymous_args = 0
ARM GAS  /tmp/ccP1swG7.s 			page 40


 1178              		@ link register save eliminated.
 675:./Libraries/STM32_USB_Host_Library/Class/HID/Src/usbh_hid.c ****                                          | USB_REQ_TYPE_CLASS;
 1179              		.loc 1 675 3 view .LVU382
 678:./Libraries/STM32_USB_Host_Library/Class/HID/Src/usbh_hid.c ****   if (protocol)
 1180              		.loc 1 678 3 view .LVU383
 674:./Libraries/STM32_USB_Host_Library/Class/HID/Src/usbh_hid.c ****   phost->Control.setup.b.bmRequestType = USB_H2D | USB_REQ_RECIPIENT_INTERFACE
 1181              		.loc 1 674 1 is_stmt 0 view .LVU384
 1182 0000 30B4     		push	{r4, r5}
 1183              	.LCFI30:
 1184              		.cfi_def_cfa_offset 8
 1185              		.cfi_offset 4, -8
 1186              		.cfi_offset 5, -4
 679:./Libraries/STM32_USB_Host_Library/Class/HID/Src/usbh_hid.c ****   {
 1187              		.loc 1 679 6 view .LVU385
 1188 0002 B1FA81F4 		clz	r4, r1
 675:./Libraries/STM32_USB_Host_Library/Class/HID/Src/usbh_hid.c ****                                          | USB_REQ_TYPE_CLASS;
 1189              		.loc 1 675 40 view .LVU386
 1190 0006 40F62135 		movw	r5, #2849
 688:./Libraries/STM32_USB_Host_Library/Class/HID/Src/usbh_hid.c ****   phost->Control.setup.b.wLength.w = 0U;
 1191              		.loc 1 688 35 view .LVU387
 1192 000a 0022     		movs	r2, #0
 679:./Libraries/STM32_USB_Host_Library/Class/HID/Src/usbh_hid.c ****   {
 1193              		.loc 1 679 6 view .LVU388
 1194 000c 6409     		lsrs	r4, r4, #5
 675:./Libraries/STM32_USB_Host_Library/Class/HID/Src/usbh_hid.c ****                                          | USB_REQ_TYPE_CLASS;
 1195              		.loc 1 675 40 view .LVU389
 1196 000e 0582     		strh	r5, [r0, #16]	@ movhi
 679:./Libraries/STM32_USB_Host_Library/Class/HID/Src/usbh_hid.c ****   {
 1197              		.loc 1 679 3 is_stmt 1 view .LVU390
 691:./Libraries/STM32_USB_Host_Library/Class/HID/Src/usbh_hid.c **** 
 1198              		.loc 1 691 10 is_stmt 0 view .LVU391
 1199 0010 1146     		mov	r1, r2
 1200              	.LVL92:
 688:./Libraries/STM32_USB_Host_Library/Class/HID/Src/usbh_hid.c ****   phost->Control.setup.b.wLength.w = 0U;
 1201              		.loc 1 688 35 view .LVU392
 1202 0012 4261     		str	r2, [r0, #20]
 1203 0014 4482     		strh	r4, [r0, #18]	@ movhi
 688:./Libraries/STM32_USB_Host_Library/Class/HID/Src/usbh_hid.c ****   phost->Control.setup.b.wLength.w = 0U;
 1204              		.loc 1 688 3 is_stmt 1 view .LVU393
 689:./Libraries/STM32_USB_Host_Library/Class/HID/Src/usbh_hid.c **** 
 1205              		.loc 1 689 3 view .LVU394
 691:./Libraries/STM32_USB_Host_Library/Class/HID/Src/usbh_hid.c **** 
 1206              		.loc 1 691 3 view .LVU395
 693:./Libraries/STM32_USB_Host_Library/Class/HID/Src/usbh_hid.c **** 
 1207              		.loc 1 693 1 is_stmt 0 view .LVU396
 1208 0016 30BC     		pop	{r4, r5}
 1209              	.LCFI31:
 1210              		.cfi_restore 5
 1211              		.cfi_restore 4
 1212              		.cfi_def_cfa_offset 0
 691:./Libraries/STM32_USB_Host_Library/Class/HID/Src/usbh_hid.c **** 
 1213              		.loc 1 691 10 view .LVU397
 1214 0018 FFF7FEBF 		b	USBH_CtlReq
 1215              	.LVL93:
 691:./Libraries/STM32_USB_Host_Library/Class/HID/Src/usbh_hid.c **** 
 1216              		.loc 1 691 10 view .LVU398
 1217              		.cfi_endproc
ARM GAS  /tmp/ccP1swG7.s 			page 41


 1218              	.LFE348:
 1220              		.section	.text.USBH_HID_GetDeviceType,"ax",%progbits
 1221              		.align	1
 1222              		.p2align 2,,3
 1223              		.global	USBH_HID_GetDeviceType
 1224              		.syntax unified
 1225              		.thumb
 1226              		.thumb_func
 1227              		.fpu fpv5-d16
 1229              	USBH_HID_GetDeviceType:
 1230              	.LVL94:
 1231              	.LFB350:
 728:./Libraries/STM32_USB_Host_Library/Class/HID/Src/usbh_hid.c ****       }
 729:./Libraries/STM32_USB_Host_Library/Class/HID/Src/usbh_hid.c ****     }
 730:./Libraries/STM32_USB_Host_Library/Class/HID/Src/usbh_hid.c ****   }
 731:./Libraries/STM32_USB_Host_Library/Class/HID/Src/usbh_hid.c **** }
 732:./Libraries/STM32_USB_Host_Library/Class/HID/Src/usbh_hid.c **** 
 733:./Libraries/STM32_USB_Host_Library/Class/HID/Src/usbh_hid.c **** /**
 734:./Libraries/STM32_USB_Host_Library/Class/HID/Src/usbh_hid.c ****   * @brief  USBH_HID_GetDeviceType
 735:./Libraries/STM32_USB_Host_Library/Class/HID/Src/usbh_hid.c ****   *         Return Device function.
 736:./Libraries/STM32_USB_Host_Library/Class/HID/Src/usbh_hid.c ****   * @param  phost: Host handle
 737:./Libraries/STM32_USB_Host_Library/Class/HID/Src/usbh_hid.c ****   * @retval HID function: HID_MOUSE / HID_KEYBOARD
 738:./Libraries/STM32_USB_Host_Library/Class/HID/Src/usbh_hid.c ****   */
 739:./Libraries/STM32_USB_Host_Library/Class/HID/Src/usbh_hid.c **** HID_TypeTypeDef USBH_HID_GetDeviceType(USBH_HandleTypeDef *phost)
 740:./Libraries/STM32_USB_Host_Library/Class/HID/Src/usbh_hid.c **** {
 1232              		.loc 1 740 1 is_stmt 1 view -0
 1233              		.cfi_startproc
 1234              		@ args = 0, pretend = 0, frame = 0
 1235              		@ frame_needed = 0, uses_anonymous_args = 0
 1236              		@ link register save eliminated.
 741:./Libraries/STM32_USB_Host_Library/Class/HID/Src/usbh_hid.c ****   HID_TypeTypeDef   type = HID_UNKNOWN;
 1237              		.loc 1 741 3 view .LVU400
 742:./Libraries/STM32_USB_Host_Library/Class/HID/Src/usbh_hid.c ****   uint8_t InterfaceProtocol;
 1238              		.loc 1 742 3 view .LVU401
 743:./Libraries/STM32_USB_Host_Library/Class/HID/Src/usbh_hid.c **** 
 744:./Libraries/STM32_USB_Host_Library/Class/HID/Src/usbh_hid.c ****   if (phost->gState == HOST_CLASS)
 1239              		.loc 1 744 3 view .LVU402
 1240              		.loc 1 744 12 is_stmt 0 view .LVU403
 1241 0000 0378     		ldrb	r3, [r0]	@ zero_extendqisi2
 1242              		.loc 1 744 6 view .LVU404
 1243 0002 0B2B     		cmp	r3, #11
 1244 0004 01D0     		beq	.L91
 741:./Libraries/STM32_USB_Host_Library/Class/HID/Src/usbh_hid.c ****   uint8_t InterfaceProtocol;
 1245              		.loc 1 741 21 view .LVU405
 1246 0006 FF20     		movs	r0, #255
 1247              	.LVL95:
 741:./Libraries/STM32_USB_Host_Library/Class/HID/Src/usbh_hid.c ****   uint8_t InterfaceProtocol;
 1248              		.loc 1 741 21 view .LVU406
 1249 0008 7047     		bx	lr
 1250              	.LVL96:
 1251              	.L91:
 745:./Libraries/STM32_USB_Host_Library/Class/HID/Src/usbh_hid.c ****   {
 746:./Libraries/STM32_USB_Host_Library/Class/HID/Src/usbh_hid.c ****     InterfaceProtocol = phost->device.CfgDesc.Itf_Desc[phost->device.current_interface].bInterfaceP
 1252              		.loc 1 746 5 is_stmt 1 view .LVU407
 1253              		.loc 1 746 69 is_stmt 0 view .LVU408
 1254 000a 90F82434 		ldrb	r3, [r0, #1060]	@ zero_extendqisi2
 1255              		.loc 1 746 23 view .LVU409
ARM GAS  /tmp/ccP1swG7.s 			page 42


 1256 000e 1A22     		movs	r2, #26
 1257 0010 02FB0300 		mla	r0, r2, r3, r0
 1258              	.LVL97:
 1259              		.loc 1 746 23 view .LVU410
 1260 0014 90F84934 		ldrb	r3, [r0, #1097]	@ zero_extendqisi2
 1261              	.LVL98:
 747:./Libraries/STM32_USB_Host_Library/Class/HID/Src/usbh_hid.c ****     if (InterfaceProtocol == HID_KEYBRD_BOOT_CODE)
 1262              		.loc 1 747 5 is_stmt 1 view .LVU411
 1263              		.loc 1 747 8 is_stmt 0 view .LVU412
 1264 0018 012B     		cmp	r3, #1
 1265 001a 04D0     		beq	.L89
 748:./Libraries/STM32_USB_Host_Library/Class/HID/Src/usbh_hid.c ****     {
 749:./Libraries/STM32_USB_Host_Library/Class/HID/Src/usbh_hid.c ****       type = HID_KEYBOARD;
 750:./Libraries/STM32_USB_Host_Library/Class/HID/Src/usbh_hid.c ****     }
 751:./Libraries/STM32_USB_Host_Library/Class/HID/Src/usbh_hid.c ****     else
 752:./Libraries/STM32_USB_Host_Library/Class/HID/Src/usbh_hid.c ****     {
 753:./Libraries/STM32_USB_Host_Library/Class/HID/Src/usbh_hid.c ****       if (InterfaceProtocol == HID_MOUSE_BOOT_CODE)
 1266              		.loc 1 753 7 is_stmt 1 view .LVU413
 1267              		.loc 1 753 10 is_stmt 0 view .LVU414
 1268 001c 022B     		cmp	r3, #2
 754:./Libraries/STM32_USB_Host_Library/Class/HID/Src/usbh_hid.c ****       {
 755:./Libraries/STM32_USB_Host_Library/Class/HID/Src/usbh_hid.c ****         type = HID_MOUSE;
 1269              		.loc 1 755 14 view .LVU415
 1270 001e 14BF     		ite	ne
 1271 0020 FF20     		movne	r0, #255
 1272 0022 0120     		moveq	r0, #1
 1273 0024 7047     		bx	lr
 1274              	.L89:
 749:./Libraries/STM32_USB_Host_Library/Class/HID/Src/usbh_hid.c ****     }
 1275              		.loc 1 749 12 view .LVU416
 1276 0026 0220     		movs	r0, #2
 1277              	.LVL99:
 756:./Libraries/STM32_USB_Host_Library/Class/HID/Src/usbh_hid.c ****       }
 757:./Libraries/STM32_USB_Host_Library/Class/HID/Src/usbh_hid.c ****     }
 758:./Libraries/STM32_USB_Host_Library/Class/HID/Src/usbh_hid.c ****   }
 759:./Libraries/STM32_USB_Host_Library/Class/HID/Src/usbh_hid.c ****   return type;
 1278              		.loc 1 759 3 is_stmt 1 view .LVU417
 760:./Libraries/STM32_USB_Host_Library/Class/HID/Src/usbh_hid.c **** }
 1279              		.loc 1 760 1 is_stmt 0 view .LVU418
 1280 0028 7047     		bx	lr
 1281              		.cfi_endproc
 1282              	.LFE350:
 1284 002a 00BF     		.section	.text.USBH_HID_GetPollInterval,"ax",%progbits
 1285              		.align	1
 1286              		.p2align 2,,3
 1287              		.global	USBH_HID_GetPollInterval
 1288              		.syntax unified
 1289              		.thumb
 1290              		.thumb_func
 1291              		.fpu fpv5-d16
 1293              	USBH_HID_GetPollInterval:
 1294              	.LVL100:
 1295              	.LFB351:
 761:./Libraries/STM32_USB_Host_Library/Class/HID/Src/usbh_hid.c **** 
 762:./Libraries/STM32_USB_Host_Library/Class/HID/Src/usbh_hid.c **** 
 763:./Libraries/STM32_USB_Host_Library/Class/HID/Src/usbh_hid.c **** /**
 764:./Libraries/STM32_USB_Host_Library/Class/HID/Src/usbh_hid.c ****   * @brief  USBH_HID_GetPollInterval
ARM GAS  /tmp/ccP1swG7.s 			page 43


 765:./Libraries/STM32_USB_Host_Library/Class/HID/Src/usbh_hid.c ****   *         Return HID device poll time
 766:./Libraries/STM32_USB_Host_Library/Class/HID/Src/usbh_hid.c ****   * @param  phost: Host handle
 767:./Libraries/STM32_USB_Host_Library/Class/HID/Src/usbh_hid.c ****   * @retval poll time (ms)
 768:./Libraries/STM32_USB_Host_Library/Class/HID/Src/usbh_hid.c ****   */
 769:./Libraries/STM32_USB_Host_Library/Class/HID/Src/usbh_hid.c **** uint8_t USBH_HID_GetPollInterval(USBH_HandleTypeDef *phost)
 770:./Libraries/STM32_USB_Host_Library/Class/HID/Src/usbh_hid.c **** {
 1296              		.loc 1 770 1 is_stmt 1 view -0
 1297              		.cfi_startproc
 1298              		@ args = 0, pretend = 0, frame = 0
 1299              		@ frame_needed = 0, uses_anonymous_args = 0
 1300              		@ link register save eliminated.
 771:./Libraries/STM32_USB_Host_Library/Class/HID/Src/usbh_hid.c ****   HID_HandleTypeDef *HID_Handle = (HID_HandleTypeDef *) phost->pActiveClass->pData;
 1301              		.loc 1 771 3 view .LVU420
 772:./Libraries/STM32_USB_Host_Library/Class/HID/Src/usbh_hid.c **** 
 773:./Libraries/STM32_USB_Host_Library/Class/HID/Src/usbh_hid.c ****   if ((phost->gState == HOST_CLASS_REQUEST) ||
 1302              		.loc 1 773 3 view .LVU421
 1303              		.loc 1 773 13 is_stmt 0 view .LVU422
 1304 0000 0378     		ldrb	r3, [r0]	@ zero_extendqisi2
 1305              		.loc 1 773 6 view .LVU423
 1306 0002 062B     		cmp	r3, #6
 1307 0004 0DD0     		beq	.L93
 774:./Libraries/STM32_USB_Host_Library/Class/HID/Src/usbh_hid.c ****       (phost->gState == HOST_INPUT) ||
 1308              		.loc 1 774 13 discriminator 1 view .LVU424
 1309 0006 0378     		ldrb	r3, [r0]	@ zero_extendqisi2
 773:./Libraries/STM32_USB_Host_Library/Class/HID/Src/usbh_hid.c ****       (phost->gState == HOST_INPUT) ||
 1310              		.loc 1 773 45 discriminator 1 view .LVU425
 1311 0008 072B     		cmp	r3, #7
 1312 000a 0AD0     		beq	.L93
 775:./Libraries/STM32_USB_Host_Library/Class/HID/Src/usbh_hid.c ****       (phost->gState == HOST_SET_CONFIGURATION) ||
 1313              		.loc 1 775 13 view .LVU426
 1314 000c 0378     		ldrb	r3, [r0]	@ zero_extendqisi2
 774:./Libraries/STM32_USB_Host_Library/Class/HID/Src/usbh_hid.c ****       (phost->gState == HOST_INPUT) ||
 1315              		.loc 1 774 37 view .LVU427
 1316 000e 082B     		cmp	r3, #8
 1317 0010 07D0     		beq	.L93
 776:./Libraries/STM32_USB_Host_Library/Class/HID/Src/usbh_hid.c ****       (phost->gState == HOST_CHECK_CLASS) ||
 1318              		.loc 1 776 13 view .LVU428
 1319 0012 0378     		ldrb	r3, [r0]	@ zero_extendqisi2
 775:./Libraries/STM32_USB_Host_Library/Class/HID/Src/usbh_hid.c ****       (phost->gState == HOST_SET_CONFIGURATION) ||
 1320              		.loc 1 775 49 view .LVU429
 1321 0014 0A2B     		cmp	r3, #10
 1322 0016 04D0     		beq	.L93
 777:./Libraries/STM32_USB_Host_Library/Class/HID/Src/usbh_hid.c ****       ((phost->gState == HOST_CLASS)))
 1323              		.loc 1 777 14 view .LVU430
 1324 0018 0378     		ldrb	r3, [r0]	@ zero_extendqisi2
 776:./Libraries/STM32_USB_Host_Library/Class/HID/Src/usbh_hid.c ****       (phost->gState == HOST_CHECK_CLASS) ||
 1325              		.loc 1 776 43 view .LVU431
 1326 001a 0B2B     		cmp	r3, #11
 1327 001c 01D0     		beq	.L93
 778:./Libraries/STM32_USB_Host_Library/Class/HID/Src/usbh_hid.c ****   {
 779:./Libraries/STM32_USB_Host_Library/Class/HID/Src/usbh_hid.c ****     return (uint8_t)(HID_Handle->poll);
 780:./Libraries/STM32_USB_Host_Library/Class/HID/Src/usbh_hid.c ****   }
 781:./Libraries/STM32_USB_Host_Library/Class/HID/Src/usbh_hid.c ****   else
 782:./Libraries/STM32_USB_Host_Library/Class/HID/Src/usbh_hid.c ****   {
 783:./Libraries/STM32_USB_Host_Library/Class/HID/Src/usbh_hid.c ****     return 0U;
 1328              		.loc 1 783 12 view .LVU432
 1329 001e 0020     		movs	r0, #0
ARM GAS  /tmp/ccP1swG7.s 			page 44


 1330              	.LVL101:
 784:./Libraries/STM32_USB_Host_Library/Class/HID/Src/usbh_hid.c ****   }
 785:./Libraries/STM32_USB_Host_Library/Class/HID/Src/usbh_hid.c **** }
 1331              		.loc 1 785 1 view .LVU433
 1332 0020 7047     		bx	lr
 1333              	.LVL102:
 1334              	.L93:
 779:./Libraries/STM32_USB_Host_Library/Class/HID/Src/usbh_hid.c ****   }
 1335              		.loc 1 779 5 is_stmt 1 view .LVU434
 771:./Libraries/STM32_USB_Host_Library/Class/HID/Src/usbh_hid.c **** 
 1336              		.loc 1 771 22 is_stmt 0 view .LVU435
 1337 0022 D0F87C34 		ldr	r3, [r0, #1148]
 779:./Libraries/STM32_USB_Host_Library/Class/HID/Src/usbh_hid.c ****   }
 1338              		.loc 1 779 32 view .LVU436
 1339 0026 DB69     		ldr	r3, [r3, #28]
 779:./Libraries/STM32_USB_Host_Library/Class/HID/Src/usbh_hid.c ****   }
 1340              		.loc 1 779 12 view .LVU437
 1341 0028 187F     		ldrb	r0, [r3, #28]	@ zero_extendqisi2
 1342              	.LVL103:
 779:./Libraries/STM32_USB_Host_Library/Class/HID/Src/usbh_hid.c ****   }
 1343              		.loc 1 779 12 view .LVU438
 1344 002a 7047     		bx	lr
 1345              		.cfi_endproc
 1346              	.LFE351:
 1348              		.section	.text.USBH_HID_FifoInit,"ax",%progbits
 1349              		.align	1
 1350              		.p2align 2,,3
 1351              		.global	USBH_HID_FifoInit
 1352              		.syntax unified
 1353              		.thumb
 1354              		.thumb_func
 1355              		.fpu fpv5-d16
 1357              	USBH_HID_FifoInit:
 1358              	.LVL104:
 1359              	.LFB352:
 786:./Libraries/STM32_USB_Host_Library/Class/HID/Src/usbh_hid.c **** /**
 787:./Libraries/STM32_USB_Host_Library/Class/HID/Src/usbh_hid.c ****   * @brief  USBH_HID_FifoInit
 788:./Libraries/STM32_USB_Host_Library/Class/HID/Src/usbh_hid.c ****   *         Initialize FIFO.
 789:./Libraries/STM32_USB_Host_Library/Class/HID/Src/usbh_hid.c ****   * @param  f: Fifo address
 790:./Libraries/STM32_USB_Host_Library/Class/HID/Src/usbh_hid.c ****   * @param  buf: Fifo buffer
 791:./Libraries/STM32_USB_Host_Library/Class/HID/Src/usbh_hid.c ****   * @param  size: Fifo Size
 792:./Libraries/STM32_USB_Host_Library/Class/HID/Src/usbh_hid.c ****   * @retval none
 793:./Libraries/STM32_USB_Host_Library/Class/HID/Src/usbh_hid.c ****   */
 794:./Libraries/STM32_USB_Host_Library/Class/HID/Src/usbh_hid.c **** void USBH_HID_FifoInit(FIFO_TypeDef *f, uint8_t *buf, uint16_t size)
 795:./Libraries/STM32_USB_Host_Library/Class/HID/Src/usbh_hid.c **** {
 1360              		.loc 1 795 1 is_stmt 1 view -0
 1361              		.cfi_startproc
 1362              		@ args = 0, pretend = 0, frame = 0
 1363              		@ frame_needed = 0, uses_anonymous_args = 0
 1364              		@ link register save eliminated.
 796:./Libraries/STM32_USB_Host_Library/Class/HID/Src/usbh_hid.c ****   f->head = 0U;
 1365              		.loc 1 796 3 view .LVU440
 797:./Libraries/STM32_USB_Host_Library/Class/HID/Src/usbh_hid.c ****   f->tail = 0U;
 1366              		.loc 1 797 3 view .LVU441
 796:./Libraries/STM32_USB_Host_Library/Class/HID/Src/usbh_hid.c ****   f->head = 0U;
 1367              		.loc 1 796 11 is_stmt 0 view .LVU442
 1368 0000 0023     		movs	r3, #0
ARM GAS  /tmp/ccP1swG7.s 			page 45


 798:./Libraries/STM32_USB_Host_Library/Class/HID/Src/usbh_hid.c ****   f->lock = 0U;
 799:./Libraries/STM32_USB_Host_Library/Class/HID/Src/usbh_hid.c ****   f->size = size;
 800:./Libraries/STM32_USB_Host_Library/Class/HID/Src/usbh_hid.c ****   f->buf = buf;
 1369              		.loc 1 800 10 view .LVU443
 1370 0002 0160     		str	r1, [r0]
 799:./Libraries/STM32_USB_Host_Library/Class/HID/Src/usbh_hid.c ****   f->buf = buf;
 1371              		.loc 1 799 11 view .LVU444
 1372 0004 0281     		strh	r2, [r0, #8]	@ movhi
 796:./Libraries/STM32_USB_Host_Library/Class/HID/Src/usbh_hid.c ****   f->tail = 0U;
 1373              		.loc 1 796 11 view .LVU445
 1374 0006 4360     		str	r3, [r0, #4]
 798:./Libraries/STM32_USB_Host_Library/Class/HID/Src/usbh_hid.c ****   f->lock = 0U;
 1375              		.loc 1 798 3 is_stmt 1 view .LVU446
 798:./Libraries/STM32_USB_Host_Library/Class/HID/Src/usbh_hid.c ****   f->lock = 0U;
 1376              		.loc 1 798 11 is_stmt 0 view .LVU447
 1377 0008 8372     		strb	r3, [r0, #10]
 799:./Libraries/STM32_USB_Host_Library/Class/HID/Src/usbh_hid.c ****   f->buf = buf;
 1378              		.loc 1 799 3 is_stmt 1 view .LVU448
 1379              		.loc 1 800 3 view .LVU449
 801:./Libraries/STM32_USB_Host_Library/Class/HID/Src/usbh_hid.c **** }
 1380              		.loc 1 801 1 is_stmt 0 view .LVU450
 1381 000a 7047     		bx	lr
 1382              		.cfi_endproc
 1383              	.LFE352:
 1385              		.section	.text.USBH_HID_FifoRead,"ax",%progbits
 1386              		.align	1
 1387              		.p2align 2,,3
 1388              		.global	USBH_HID_FifoRead
 1389              		.syntax unified
 1390              		.thumb
 1391              		.thumb_func
 1392              		.fpu fpv5-d16
 1394              	USBH_HID_FifoRead:
 1395              	.LVL105:
 1396              	.LFB353:
 802:./Libraries/STM32_USB_Host_Library/Class/HID/Src/usbh_hid.c **** 
 803:./Libraries/STM32_USB_Host_Library/Class/HID/Src/usbh_hid.c **** /**
 804:./Libraries/STM32_USB_Host_Library/Class/HID/Src/usbh_hid.c ****   * @brief  USBH_HID_FifoRead
 805:./Libraries/STM32_USB_Host_Library/Class/HID/Src/usbh_hid.c ****   *         Read from FIFO.
 806:./Libraries/STM32_USB_Host_Library/Class/HID/Src/usbh_hid.c ****   * @param  f: Fifo address
 807:./Libraries/STM32_USB_Host_Library/Class/HID/Src/usbh_hid.c ****   * @param  buf: read buffer
 808:./Libraries/STM32_USB_Host_Library/Class/HID/Src/usbh_hid.c ****   * @param  nbytes: number of item to read
 809:./Libraries/STM32_USB_Host_Library/Class/HID/Src/usbh_hid.c ****   * @retval number of read items
 810:./Libraries/STM32_USB_Host_Library/Class/HID/Src/usbh_hid.c ****   */
 811:./Libraries/STM32_USB_Host_Library/Class/HID/Src/usbh_hid.c **** uint16_t USBH_HID_FifoRead(FIFO_TypeDef *f, void *buf, uint16_t nbytes)
 812:./Libraries/STM32_USB_Host_Library/Class/HID/Src/usbh_hid.c **** {
 1397              		.loc 1 812 1 is_stmt 1 view -0
 1398              		.cfi_startproc
 1399              		@ args = 0, pretend = 0, frame = 0
 1400              		@ frame_needed = 0, uses_anonymous_args = 0
 1401              		@ link register save eliminated.
 813:./Libraries/STM32_USB_Host_Library/Class/HID/Src/usbh_hid.c ****   uint16_t i;
 1402              		.loc 1 813 3 view .LVU452
 814:./Libraries/STM32_USB_Host_Library/Class/HID/Src/usbh_hid.c ****   uint8_t *p;
 1403              		.loc 1 814 3 view .LVU453
 815:./Libraries/STM32_USB_Host_Library/Class/HID/Src/usbh_hid.c **** 
 816:./Libraries/STM32_USB_Host_Library/Class/HID/Src/usbh_hid.c ****   p = (uint8_t *) buf;
ARM GAS  /tmp/ccP1swG7.s 			page 46


 1404              		.loc 1 816 3 view .LVU454
 812:./Libraries/STM32_USB_Host_Library/Class/HID/Src/usbh_hid.c ****   uint16_t i;
 1405              		.loc 1 812 1 is_stmt 0 view .LVU455
 1406 0000 F0B4     		push	{r4, r5, r6, r7}
 1407              	.LCFI32:
 1408              		.cfi_def_cfa_offset 16
 1409              		.cfi_offset 4, -16
 1410              		.cfi_offset 5, -12
 1411              		.cfi_offset 6, -8
 1412              		.cfi_offset 7, -4
 817:./Libraries/STM32_USB_Host_Library/Class/HID/Src/usbh_hid.c **** 
 818:./Libraries/STM32_USB_Host_Library/Class/HID/Src/usbh_hid.c ****   if (f->lock == 0U)
 1413              		.loc 1 818 6 view .LVU456
 1414 0002 847A     		ldrb	r4, [r0, #10]	@ zero_extendqisi2
 812:./Libraries/STM32_USB_Host_Library/Class/HID/Src/usbh_hid.c ****   uint16_t i;
 1415              		.loc 1 812 1 view .LVU457
 1416 0004 0346     		mov	r3, r0
 1417              	.LVL106:
 1418              		.loc 1 818 3 is_stmt 1 view .LVU458
 1419              		.loc 1 818 6 is_stmt 0 view .LVU459
 1420 0006 C4B9     		cbnz	r4, .L110
 819:./Libraries/STM32_USB_Host_Library/Class/HID/Src/usbh_hid.c ****   {
 820:./Libraries/STM32_USB_Host_Library/Class/HID/Src/usbh_hid.c ****     f->lock = 1U;
 1421              		.loc 1 820 5 is_stmt 1 view .LVU460
 1422              		.loc 1 820 13 is_stmt 0 view .LVU461
 1423 0008 0120     		movs	r0, #1
 1424              	.LVL107:
 1425              		.loc 1 820 13 view .LVU462
 1426 000a 9872     		strb	r0, [r3, #10]
 821:./Libraries/STM32_USB_Host_Library/Class/HID/Src/usbh_hid.c **** 
 822:./Libraries/STM32_USB_Host_Library/Class/HID/Src/usbh_hid.c ****     for (i = 0U; i < nbytes; i++)
 1427              		.loc 1 822 5 is_stmt 1 view .LVU463
 1428              	.LVL108:
 1429              		.loc 1 822 18 view .LVU464
 1430              		.loc 1 822 5 is_stmt 0 view .LVU465
 1431 000c AAB1     		cbz	r2, .L110
 1432 000e 2046     		mov	r0, r4
 823:./Libraries/STM32_USB_Host_Library/Class/HID/Src/usbh_hid.c ****     {
 824:./Libraries/STM32_USB_Host_Library/Class/HID/Src/usbh_hid.c ****       if (f->tail != f->head)
 825:./Libraries/STM32_USB_Host_Library/Class/HID/Src/usbh_hid.c ****       {
 826:./Libraries/STM32_USB_Host_Library/Class/HID/Src/usbh_hid.c ****         *p++ = f->buf[f->tail];
 827:./Libraries/STM32_USB_Host_Library/Class/HID/Src/usbh_hid.c ****         f->tail++;
 828:./Libraries/STM32_USB_Host_Library/Class/HID/Src/usbh_hid.c **** 
 829:./Libraries/STM32_USB_Host_Library/Class/HID/Src/usbh_hid.c ****         if (f->tail == f->size)
 830:./Libraries/STM32_USB_Host_Library/Class/HID/Src/usbh_hid.c ****         {
 831:./Libraries/STM32_USB_Host_Library/Class/HID/Src/usbh_hid.c ****           f->tail = 0U;
 1433              		.loc 1 831 19 view .LVU466
 1434 0010 2746     		mov	r7, r4
 1435              	.LVL109:
 1436              	.L114:
 826:./Libraries/STM32_USB_Host_Library/Class/HID/Src/usbh_hid.c ****         f->tail++;
 1437              		.loc 1 826 9 is_stmt 1 view .LVU467
 824:./Libraries/STM32_USB_Host_Library/Class/HID/Src/usbh_hid.c ****       {
 1438              		.loc 1 824 12 is_stmt 0 view .LVU468
 1439 0012 DD88     		ldrh	r5, [r3, #6]
 1440              	.LVL110:
 824:./Libraries/STM32_USB_Host_Library/Class/HID/Src/usbh_hid.c ****       {
ARM GAS  /tmp/ccP1swG7.s 			page 47


 1441              		.loc 1 824 7 is_stmt 1 view .LVU469
 824:./Libraries/STM32_USB_Host_Library/Class/HID/Src/usbh_hid.c ****       {
 1442              		.loc 1 824 10 is_stmt 0 view .LVU470
 1443 0014 9E88     		ldrh	r6, [r3, #4]
 1444 0016 AE42     		cmp	r6, r5
 1445 0018 10D0     		beq	.L120
 826:./Libraries/STM32_USB_Host_Library/Class/HID/Src/usbh_hid.c ****         f->tail++;
 1446              		.loc 1 826 22 view .LVU471
 1447 001a 1868     		ldr	r0, [r3]
 1448 001c 0134     		adds	r4, r4, #1
 1449 001e 405D     		ldrb	r0, [r0, r5]	@ zero_extendqisi2
 826:./Libraries/STM32_USB_Host_Library/Class/HID/Src/usbh_hid.c ****         f->tail++;
 1450              		.loc 1 826 14 view .LVU472
 1451 0020 01F8010B 		strb	r0, [r1], #1
 1452              	.LVL111:
 827:./Libraries/STM32_USB_Host_Library/Class/HID/Src/usbh_hid.c **** 
 1453              		.loc 1 827 9 is_stmt 1 view .LVU473
 827:./Libraries/STM32_USB_Host_Library/Class/HID/Src/usbh_hid.c **** 
 1454              		.loc 1 827 16 is_stmt 0 view .LVU474
 1455 0024 D888     		ldrh	r0, [r3, #6]
 829:./Libraries/STM32_USB_Host_Library/Class/HID/Src/usbh_hid.c ****         {
 1456              		.loc 1 829 12 view .LVU475
 1457 0026 1D89     		ldrh	r5, [r3, #8]
 827:./Libraries/STM32_USB_Host_Library/Class/HID/Src/usbh_hid.c **** 
 1458              		.loc 1 827 16 view .LVU476
 1459 0028 0130     		adds	r0, r0, #1
 1460 002a 80B2     		uxth	r0, r0
 829:./Libraries/STM32_USB_Host_Library/Class/HID/Src/usbh_hid.c ****         {
 1461              		.loc 1 829 12 view .LVU477
 1462 002c 8542     		cmp	r5, r0
 827:./Libraries/STM32_USB_Host_Library/Class/HID/Src/usbh_hid.c **** 
 1463              		.loc 1 827 16 view .LVU478
 1464 002e D880     		strh	r0, [r3, #6]	@ movhi
 829:./Libraries/STM32_USB_Host_Library/Class/HID/Src/usbh_hid.c ****         {
 1465              		.loc 1 829 9 is_stmt 1 view .LVU479
 1466              		.loc 1 831 11 view .LVU480
 822:./Libraries/STM32_USB_Host_Library/Class/HID/Src/usbh_hid.c ****     {
 1467              		.loc 1 822 5 is_stmt 0 view .LVU481
 1468 0030 A0B2     		uxth	r0, r4
 1469              		.loc 1 831 19 view .LVU482
 1470 0032 08BF     		it	eq
 1471 0034 DF80     		strheq	r7, [r3, #6]	@ movhi
 822:./Libraries/STM32_USB_Host_Library/Class/HID/Src/usbh_hid.c ****     {
 1472              		.loc 1 822 30 is_stmt 1 view .LVU483
 1473              	.LVL112:
 822:./Libraries/STM32_USB_Host_Library/Class/HID/Src/usbh_hid.c ****     {
 1474              		.loc 1 822 18 view .LVU484
 822:./Libraries/STM32_USB_Host_Library/Class/HID/Src/usbh_hid.c ****     {
 1475              		.loc 1 822 5 is_stmt 0 view .LVU485
 1476 0036 8242     		cmp	r2, r0
 1477 0038 EBD8     		bhi	.L114
 1478              	.L110:
 832:./Libraries/STM32_USB_Host_Library/Class/HID/Src/usbh_hid.c ****         }
 833:./Libraries/STM32_USB_Host_Library/Class/HID/Src/usbh_hid.c ****       }
 834:./Libraries/STM32_USB_Host_Library/Class/HID/Src/usbh_hid.c ****       else
 835:./Libraries/STM32_USB_Host_Library/Class/HID/Src/usbh_hid.c ****       {
 836:./Libraries/STM32_USB_Host_Library/Class/HID/Src/usbh_hid.c ****         f->lock = 0U;
ARM GAS  /tmp/ccP1swG7.s 			page 48


 837:./Libraries/STM32_USB_Host_Library/Class/HID/Src/usbh_hid.c ****         return i;
 838:./Libraries/STM32_USB_Host_Library/Class/HID/Src/usbh_hid.c ****       }
 839:./Libraries/STM32_USB_Host_Library/Class/HID/Src/usbh_hid.c ****     }
 840:./Libraries/STM32_USB_Host_Library/Class/HID/Src/usbh_hid.c ****   }
 841:./Libraries/STM32_USB_Host_Library/Class/HID/Src/usbh_hid.c **** 
 842:./Libraries/STM32_USB_Host_Library/Class/HID/Src/usbh_hid.c ****   f->lock = 0U;
 1479              		.loc 1 842 3 is_stmt 1 view .LVU486
 843:./Libraries/STM32_USB_Host_Library/Class/HID/Src/usbh_hid.c **** 
 844:./Libraries/STM32_USB_Host_Library/Class/HID/Src/usbh_hid.c ****   return nbytes;
 1480              		.loc 1 844 10 is_stmt 0 view .LVU487
 1481 003a 1046     		mov	r0, r2
 1482              	.L120:
 842:./Libraries/STM32_USB_Host_Library/Class/HID/Src/usbh_hid.c **** 
 1483              		.loc 1 842 11 view .LVU488
 1484 003c 0022     		movs	r2, #0
 1485              	.LVL113:
 842:./Libraries/STM32_USB_Host_Library/Class/HID/Src/usbh_hid.c **** 
 1486              		.loc 1 842 11 view .LVU489
 1487 003e 9A72     		strb	r2, [r3, #10]
 1488              		.loc 1 844 3 is_stmt 1 view .LVU490
 845:./Libraries/STM32_USB_Host_Library/Class/HID/Src/usbh_hid.c **** }
 1489              		.loc 1 845 1 is_stmt 0 view .LVU491
 1490 0040 F0BC     		pop	{r4, r5, r6, r7}
 1491              	.LCFI33:
 1492              		.cfi_restore 7
 1493              		.cfi_restore 6
 1494              		.cfi_restore 5
 1495              		.cfi_restore 4
 1496              		.cfi_def_cfa_offset 0
 1497 0042 7047     		bx	lr
 1498              		.cfi_endproc
 1499              	.LFE353:
 1501              		.section	.text.USBH_HID_FifoWrite,"ax",%progbits
 1502              		.align	1
 1503              		.p2align 2,,3
 1504              		.global	USBH_HID_FifoWrite
 1505              		.syntax unified
 1506              		.thumb
 1507              		.thumb_func
 1508              		.fpu fpv5-d16
 1510              	USBH_HID_FifoWrite:
 1511              	.LVL114:
 1512              	.LFB354:
 846:./Libraries/STM32_USB_Host_Library/Class/HID/Src/usbh_hid.c **** 
 847:./Libraries/STM32_USB_Host_Library/Class/HID/Src/usbh_hid.c **** /**
 848:./Libraries/STM32_USB_Host_Library/Class/HID/Src/usbh_hid.c ****   * @brief  USBH_HID_FifoWrite
 849:./Libraries/STM32_USB_Host_Library/Class/HID/Src/usbh_hid.c ****   *         Write To FIFO.
 850:./Libraries/STM32_USB_Host_Library/Class/HID/Src/usbh_hid.c ****   * @param  f: Fifo address
 851:./Libraries/STM32_USB_Host_Library/Class/HID/Src/usbh_hid.c ****   * @param  buf: read buffer
 852:./Libraries/STM32_USB_Host_Library/Class/HID/Src/usbh_hid.c ****   * @param  nbytes: number of item to write
 853:./Libraries/STM32_USB_Host_Library/Class/HID/Src/usbh_hid.c ****   * @retval number of written items
 854:./Libraries/STM32_USB_Host_Library/Class/HID/Src/usbh_hid.c ****   */
 855:./Libraries/STM32_USB_Host_Library/Class/HID/Src/usbh_hid.c **** uint16_t USBH_HID_FifoWrite(FIFO_TypeDef *f, void *buf, uint16_t  nbytes)
 856:./Libraries/STM32_USB_Host_Library/Class/HID/Src/usbh_hid.c **** {
 1513              		.loc 1 856 1 is_stmt 1 view -0
 1514              		.cfi_startproc
 1515              		@ args = 0, pretend = 0, frame = 0
ARM GAS  /tmp/ccP1swG7.s 			page 49


 1516              		@ frame_needed = 0, uses_anonymous_args = 0
 857:./Libraries/STM32_USB_Host_Library/Class/HID/Src/usbh_hid.c ****   uint16_t i;
 1517              		.loc 1 857 3 view .LVU493
 858:./Libraries/STM32_USB_Host_Library/Class/HID/Src/usbh_hid.c ****   uint8_t *p;
 1518              		.loc 1 858 3 view .LVU494
 859:./Libraries/STM32_USB_Host_Library/Class/HID/Src/usbh_hid.c **** 
 860:./Libraries/STM32_USB_Host_Library/Class/HID/Src/usbh_hid.c ****   p = (uint8_t *) buf;
 1519              		.loc 1 860 3 view .LVU495
 861:./Libraries/STM32_USB_Host_Library/Class/HID/Src/usbh_hid.c **** 
 862:./Libraries/STM32_USB_Host_Library/Class/HID/Src/usbh_hid.c ****   if (f->lock == 0U)
 1520              		.loc 1 862 3 view .LVU496
 856:./Libraries/STM32_USB_Host_Library/Class/HID/Src/usbh_hid.c ****   uint16_t i;
 1521              		.loc 1 856 1 is_stmt 0 view .LVU497
 1522 0000 2DE9F041 		push	{r4, r5, r6, r7, r8, lr}
 1523              	.LCFI34:
 1524              		.cfi_def_cfa_offset 24
 1525              		.cfi_offset 4, -24
 1526              		.cfi_offset 5, -20
 1527              		.cfi_offset 6, -16
 1528              		.cfi_offset 7, -12
 1529              		.cfi_offset 8, -8
 1530              		.cfi_offset 14, -4
 1531              		.loc 1 862 6 view .LVU498
 1532 0004 847A     		ldrb	r4, [r0, #10]	@ zero_extendqisi2
 1533 0006 04BB     		cbnz	r4, .L122
 863:./Libraries/STM32_USB_Host_Library/Class/HID/Src/usbh_hid.c ****   {
 864:./Libraries/STM32_USB_Host_Library/Class/HID/Src/usbh_hid.c ****     f->lock = 1U;
 1534              		.loc 1 864 5 is_stmt 1 view .LVU499
 1535              		.loc 1 864 13 is_stmt 0 view .LVU500
 1536 0008 0123     		movs	r3, #1
 1537 000a 8372     		strb	r3, [r0, #10]
 865:./Libraries/STM32_USB_Host_Library/Class/HID/Src/usbh_hid.c **** 
 866:./Libraries/STM32_USB_Host_Library/Class/HID/Src/usbh_hid.c ****     for (i = 0U; i < nbytes; i++)
 1538              		.loc 1 866 5 is_stmt 1 view .LVU501
 1539              	.LVL115:
 1540              		.loc 1 866 18 view .LVU502
 1541              		.loc 1 866 5 is_stmt 0 view .LVU503
 1542 000c EAB1     		cbz	r2, .L122
 1543 000e 2546     		mov	r5, r4
 867:./Libraries/STM32_USB_Host_Library/Class/HID/Src/usbh_hid.c ****     {
 868:./Libraries/STM32_USB_Host_Library/Class/HID/Src/usbh_hid.c ****       if ((f->head + 1U == f->tail) ||
 869:./Libraries/STM32_USB_Host_Library/Class/HID/Src/usbh_hid.c ****           ((f->head + 1U == f->size) && (f->tail == 0U)))
 870:./Libraries/STM32_USB_Host_Library/Class/HID/Src/usbh_hid.c ****       {
 871:./Libraries/STM32_USB_Host_Library/Class/HID/Src/usbh_hid.c ****         f->lock = 0U;
 872:./Libraries/STM32_USB_Host_Library/Class/HID/Src/usbh_hid.c ****         return i;
 873:./Libraries/STM32_USB_Host_Library/Class/HID/Src/usbh_hid.c ****       }
 874:./Libraries/STM32_USB_Host_Library/Class/HID/Src/usbh_hid.c ****       else
 875:./Libraries/STM32_USB_Host_Library/Class/HID/Src/usbh_hid.c ****       {
 876:./Libraries/STM32_USB_Host_Library/Class/HID/Src/usbh_hid.c ****         f->buf[f->head] = *p++;
 877:./Libraries/STM32_USB_Host_Library/Class/HID/Src/usbh_hid.c ****         f->head++;
 878:./Libraries/STM32_USB_Host_Library/Class/HID/Src/usbh_hid.c **** 
 879:./Libraries/STM32_USB_Host_Library/Class/HID/Src/usbh_hid.c ****         if (f->head == f->size)
 880:./Libraries/STM32_USB_Host_Library/Class/HID/Src/usbh_hid.c ****         {
 881:./Libraries/STM32_USB_Host_Library/Class/HID/Src/usbh_hid.c ****           f->head = 0U;
 1544              		.loc 1 881 19 view .LVU504
 1545 0010 A646     		mov	lr, r4
 1546              	.LVL116:
ARM GAS  /tmp/ccP1swG7.s 			page 50


 1547              	.L127:
 876:./Libraries/STM32_USB_Host_Library/Class/HID/Src/usbh_hid.c ****         f->head++;
 1548              		.loc 1 876 9 is_stmt 1 view .LVU505
 866:./Libraries/STM32_USB_Host_Library/Class/HID/Src/usbh_hid.c ****     {
 1549              		.loc 1 866 30 view .LVU506
 868:./Libraries/STM32_USB_Host_Library/Class/HID/Src/usbh_hid.c ****           ((f->head + 1U == f->size) && (f->tail == 0U)))
 1550              		.loc 1 868 13 is_stmt 0 view .LVU507
 1551 0012 8688     		ldrh	r6, [r0, #4]
 1552 0014 0134     		adds	r4, r4, #1
 868:./Libraries/STM32_USB_Host_Library/Class/HID/Src/usbh_hid.c ****           ((f->head + 1U == f->size) && (f->tail == 0U)))
 1553              		.loc 1 868 29 view .LVU508
 1554 0016 C788     		ldrh	r7, [r0, #6]
 1555 0018 A846     		mov	r8, r5
 1556              	.LVL117:
 868:./Libraries/STM32_USB_Host_Library/Class/HID/Src/usbh_hid.c ****           ((f->head + 1U == f->size) && (f->tail == 0U)))
 1557              		.loc 1 868 7 is_stmt 1 view .LVU509
 868:./Libraries/STM32_USB_Host_Library/Class/HID/Src/usbh_hid.c ****           ((f->head + 1U == f->size) && (f->tail == 0U)))
 1558              		.loc 1 868 20 is_stmt 0 view .LVU510
 1559 001a 731C     		adds	r3, r6, #1
 866:./Libraries/STM32_USB_Host_Library/Class/HID/Src/usbh_hid.c ****     {
 1560              		.loc 1 866 5 view .LVU511
 1561 001c A5B2     		uxth	r5, r4
 868:./Libraries/STM32_USB_Host_Library/Class/HID/Src/usbh_hid.c ****           ((f->head + 1U == f->size) && (f->tail == 0U)))
 1562              		.loc 1 868 10 view .LVU512
 1563 001e BB42     		cmp	r3, r7
 1564 0020 14D0     		beq	.L139
 869:./Libraries/STM32_USB_Host_Library/Class/HID/Src/usbh_hid.c ****       {
 1565              		.loc 1 869 30 discriminator 1 view .LVU513
 1566 0022 B0F808C0 		ldrh	ip, [r0, #8]
 869:./Libraries/STM32_USB_Host_Library/Class/HID/Src/usbh_hid.c ****       {
 1567              		.loc 1 869 38 discriminator 1 view .LVU514
 1568 0026 9C45     		cmp	ip, r3
 1569 0028 00D1     		bne	.L124
 1570 002a 7FB1     		cbz	r7, .L139
 1571              	.L124:
 876:./Libraries/STM32_USB_Host_Library/Class/HID/Src/usbh_hid.c ****         f->head++;
 1572              		.loc 1 876 27 view .LVU515
 1573 002c 11F8017B 		ldrb	r7, [r1], #1	@ zero_extendqisi2
 1574              	.LVL118:
 866:./Libraries/STM32_USB_Host_Library/Class/HID/Src/usbh_hid.c ****     {
 1575              		.loc 1 866 18 is_stmt 1 view .LVU516
 876:./Libraries/STM32_USB_Host_Library/Class/HID/Src/usbh_hid.c ****         f->head++;
 1576              		.loc 1 876 25 is_stmt 0 view .LVU517
 1577 0030 0368     		ldr	r3, [r0]
 1578 0032 9F55     		strb	r7, [r3, r6]
 877:./Libraries/STM32_USB_Host_Library/Class/HID/Src/usbh_hid.c **** 
 1579              		.loc 1 877 9 is_stmt 1 view .LVU518
 877:./Libraries/STM32_USB_Host_Library/Class/HID/Src/usbh_hid.c **** 
 1580              		.loc 1 877 16 is_stmt 0 view .LVU519
 1581 0034 8388     		ldrh	r3, [r0, #4]
 879:./Libraries/STM32_USB_Host_Library/Class/HID/Src/usbh_hid.c ****         {
 1582              		.loc 1 879 12 view .LVU520
 1583 0036 0689     		ldrh	r6, [r0, #8]
 877:./Libraries/STM32_USB_Host_Library/Class/HID/Src/usbh_hid.c **** 
 1584              		.loc 1 877 16 view .LVU521
 1585 0038 0133     		adds	r3, r3, #1
 1586 003a 9BB2     		uxth	r3, r3
ARM GAS  /tmp/ccP1swG7.s 			page 51


 879:./Libraries/STM32_USB_Host_Library/Class/HID/Src/usbh_hid.c ****         {
 1587              		.loc 1 879 12 view .LVU522
 1588 003c 9E42     		cmp	r6, r3
 877:./Libraries/STM32_USB_Host_Library/Class/HID/Src/usbh_hid.c **** 
 1589              		.loc 1 877 16 view .LVU523
 1590 003e 8380     		strh	r3, [r0, #4]	@ movhi
 879:./Libraries/STM32_USB_Host_Library/Class/HID/Src/usbh_hid.c ****         {
 1591              		.loc 1 879 9 is_stmt 1 view .LVU524
 1592              		.loc 1 881 11 view .LVU525
 1593              		.loc 1 881 19 is_stmt 0 view .LVU526
 1594 0040 08BF     		it	eq
 1595 0042 A0F804E0 		strheq	lr, [r0, #4]	@ movhi
 866:./Libraries/STM32_USB_Host_Library/Class/HID/Src/usbh_hid.c ****     {
 1596              		.loc 1 866 5 view .LVU527
 1597 0046 9542     		cmp	r5, r2
 1598 0048 E3D3     		bcc	.L127
 1599              	.L122:
 882:./Libraries/STM32_USB_Host_Library/Class/HID/Src/usbh_hid.c ****         }
 883:./Libraries/STM32_USB_Host_Library/Class/HID/Src/usbh_hid.c ****       }
 884:./Libraries/STM32_USB_Host_Library/Class/HID/Src/usbh_hid.c ****     }
 885:./Libraries/STM32_USB_Host_Library/Class/HID/Src/usbh_hid.c ****   }
 886:./Libraries/STM32_USB_Host_Library/Class/HID/Src/usbh_hid.c **** 
 887:./Libraries/STM32_USB_Host_Library/Class/HID/Src/usbh_hid.c ****   f->lock = 0U;
 1600              		.loc 1 887 3 is_stmt 1 view .LVU528
 888:./Libraries/STM32_USB_Host_Library/Class/HID/Src/usbh_hid.c **** 
 889:./Libraries/STM32_USB_Host_Library/Class/HID/Src/usbh_hid.c ****   return nbytes;
 1601              		.loc 1 889 10 is_stmt 0 view .LVU529
 1602 004a 9046     		mov	r8, r2
 1603              	.L139:
 887:./Libraries/STM32_USB_Host_Library/Class/HID/Src/usbh_hid.c **** 
 1604              		.loc 1 887 11 view .LVU530
 1605 004c 0023     		movs	r3, #0
 1606 004e 8372     		strb	r3, [r0, #10]
 1607              		.loc 1 889 3 is_stmt 1 view .LVU531
 890:./Libraries/STM32_USB_Host_Library/Class/HID/Src/usbh_hid.c **** }
 1608              		.loc 1 890 1 is_stmt 0 view .LVU532
 1609 0050 4046     		mov	r0, r8
 1610              	.LVL119:
 1611              		.loc 1 890 1 view .LVU533
 1612 0052 BDE8F081 		pop	{r4, r5, r6, r7, r8, pc}
 1613              		.cfi_endproc
 1614              	.LFE354:
 1616 0056 00BF     		.section	.text.USBH_HID_EventCallback,"ax",%progbits
 1617              		.align	1
 1618              		.p2align 2,,3
 1619              		.weak	USBH_HID_EventCallback
 1620              		.syntax unified
 1621              		.thumb
 1622              		.thumb_func
 1623              		.fpu fpv5-d16
 1625              	USBH_HID_EventCallback:
 1626              	.LVL120:
 1627              	.LFB355:
 891:./Libraries/STM32_USB_Host_Library/Class/HID/Src/usbh_hid.c **** 
 892:./Libraries/STM32_USB_Host_Library/Class/HID/Src/usbh_hid.c **** /**
 893:./Libraries/STM32_USB_Host_Library/Class/HID/Src/usbh_hid.c **** * @brief  The function is a callback about HID Data events
 894:./Libraries/STM32_USB_Host_Library/Class/HID/Src/usbh_hid.c **** *  @param  phost: Selected device
ARM GAS  /tmp/ccP1swG7.s 			page 52


 895:./Libraries/STM32_USB_Host_Library/Class/HID/Src/usbh_hid.c **** * @retval None
 896:./Libraries/STM32_USB_Host_Library/Class/HID/Src/usbh_hid.c **** */
 897:./Libraries/STM32_USB_Host_Library/Class/HID/Src/usbh_hid.c **** __weak void USBH_HID_EventCallback(USBH_HandleTypeDef *phost)
 898:./Libraries/STM32_USB_Host_Library/Class/HID/Src/usbh_hid.c **** {
 1628              		.loc 1 898 1 is_stmt 1 view -0
 1629              		.cfi_startproc
 1630              		@ args = 0, pretend = 0, frame = 0
 1631              		@ frame_needed = 0, uses_anonymous_args = 0
 1632              		@ link register save eliminated.
 899:./Libraries/STM32_USB_Host_Library/Class/HID/Src/usbh_hid.c ****   /* Prevent unused argument(s) compilation warning */
 900:./Libraries/STM32_USB_Host_Library/Class/HID/Src/usbh_hid.c ****   UNUSED(phost);
 1633              		.loc 1 900 3 view .LVU535
 901:./Libraries/STM32_USB_Host_Library/Class/HID/Src/usbh_hid.c **** }
 1634              		.loc 1 901 1 is_stmt 0 view .LVU536
 1635 0000 7047     		bx	lr
 1636              		.cfi_endproc
 1637              	.LFE355:
 1639 0002 00BF     		.section	.text.USBH_HID_Process,"ax",%progbits
 1640              		.align	1
 1641              		.p2align 2,,3
 1642              		.syntax unified
 1643              		.thumb
 1644              		.thumb_func
 1645              		.fpu fpv5-d16
 1647              	USBH_HID_Process:
 1648              	.LVL121:
 1649              	.LFB341:
 373:./Libraries/STM32_USB_Host_Library/Class/HID/Src/usbh_hid.c ****   USBH_StatusTypeDef status = USBH_OK;
 1650              		.loc 1 373 1 is_stmt 1 view -0
 1651              		.cfi_startproc
 1652              		@ args = 0, pretend = 0, frame = 0
 1653              		@ frame_needed = 0, uses_anonymous_args = 0
 374:./Libraries/STM32_USB_Host_Library/Class/HID/Src/usbh_hid.c ****   HID_HandleTypeDef *HID_Handle = (HID_HandleTypeDef *) phost->pActiveClass->pData;
 1654              		.loc 1 374 3 view .LVU538
 375:./Libraries/STM32_USB_Host_Library/Class/HID/Src/usbh_hid.c ****   uint32_t XferSize;
 1655              		.loc 1 375 3 view .LVU539
 373:./Libraries/STM32_USB_Host_Library/Class/HID/Src/usbh_hid.c ****   USBH_StatusTypeDef status = USBH_OK;
 1656              		.loc 1 373 1 is_stmt 0 view .LVU540
 1657 0000 F8B5     		push	{r3, r4, r5, r6, r7, lr}
 1658              	.LCFI35:
 1659              		.cfi_def_cfa_offset 24
 1660              		.cfi_offset 3, -24
 1661              		.cfi_offset 4, -20
 1662              		.cfi_offset 5, -16
 1663              		.cfi_offset 6, -12
 1664              		.cfi_offset 7, -8
 1665              		.cfi_offset 14, -4
 375:./Libraries/STM32_USB_Host_Library/Class/HID/Src/usbh_hid.c ****   uint32_t XferSize;
 1666              		.loc 1 375 22 view .LVU541
 1667 0002 D0F87C34 		ldr	r3, [r0, #1148]
 373:./Libraries/STM32_USB_Host_Library/Class/HID/Src/usbh_hid.c ****   USBH_StatusTypeDef status = USBH_OK;
 1668              		.loc 1 373 1 view .LVU542
 1669 0006 0446     		mov	r4, r0
 375:./Libraries/STM32_USB_Host_Library/Class/HID/Src/usbh_hid.c ****   uint32_t XferSize;
 1670              		.loc 1 375 22 view .LVU543
 1671 0008 DE69     		ldr	r6, [r3, #28]
 1672              	.LVL122:
ARM GAS  /tmp/ccP1swG7.s 			page 53


 376:./Libraries/STM32_USB_Host_Library/Class/HID/Src/usbh_hid.c **** 
 1673              		.loc 1 376 3 is_stmt 1 view .LVU544
 378:./Libraries/STM32_USB_Host_Library/Class/HID/Src/usbh_hid.c ****   {
 1674              		.loc 1 378 3 view .LVU545
 378:./Libraries/STM32_USB_Host_Library/Class/HID/Src/usbh_hid.c ****   {
 1675              		.loc 1 378 21 is_stmt 0 view .LVU546
 1676 000a B578     		ldrb	r5, [r6, #2]	@ zero_extendqisi2
 1677 000c 062D     		cmp	r5, #6
 1678 000e 11D8     		bhi	.L158
 1679 0010 DFE805F0 		tbb	[pc, r5]
 1680              	.L144:
 1681 0014 13       		.byte	(.L148-.L144)/2
 1682 0015 48       		.byte	(.L147-.L144)/2
 1683 0016 10       		.byte	(.L158-.L144)/2
 1684 0017 10       		.byte	(.L158-.L144)/2
 1685 0018 24       		.byte	(.L146-.L144)/2
 1686 0019 34       		.byte	(.L145-.L144)/2
 1687 001a 04       		.byte	(.L143-.L144)/2
 1688 001b 00       		.p2align 1
 1689              	.L143:
 454:./Libraries/STM32_USB_Host_Library/Class/HID/Src/usbh_hid.c ****       {
 1690              		.loc 1 454 7 is_stmt 1 view .LVU547
 454:./Libraries/STM32_USB_Host_Library/Class/HID/Src/usbh_hid.c ****       {
 1691              		.loc 1 454 11 is_stmt 0 view .LVU548
 1692 001c 7178     		ldrb	r1, [r6, #1]	@ zero_extendqisi2
 1693 001e FFF7FEFF 		bl	USBH_LL_GetURBState
 1694              	.LVL123:
 454:./Libraries/STM32_USB_Host_Library/Class/HID/Src/usbh_hid.c ****       {
 1695              		.loc 1 454 11 view .LVU549
 1696 0022 0746     		mov	r7, r0
 456:./Libraries/STM32_USB_Host_Library/Class/HID/Src/usbh_hid.c **** 
 1697              		.loc 1 456 20 view .LVU550
 1698 0024 7178     		ldrb	r1, [r6, #1]	@ zero_extendqisi2
 1699 0026 2046     		mov	r0, r4
 454:./Libraries/STM32_USB_Host_Library/Class/HID/Src/usbh_hid.c ****       {
 1700              		.loc 1 454 10 view .LVU551
 1701 0028 012F     		cmp	r7, #1
 1702 002a 54D0     		beq	.L167
 1703              	.LVL124:
 477:./Libraries/STM32_USB_Host_Library/Class/HID/Src/usbh_hid.c ****         {
 1704              		.loc 1 477 9 is_stmt 1 view .LVU552
 477:./Libraries/STM32_USB_Host_Library/Class/HID/Src/usbh_hid.c ****         {
 1705              		.loc 1 477 13 is_stmt 0 view .LVU553
 1706 002c FFF7FEFF 		bl	USBH_LL_GetURBState
 1707              	.LVL125:
 477:./Libraries/STM32_USB_Host_Library/Class/HID/Src/usbh_hid.c ****         {
 1708              		.loc 1 477 12 view .LVU554
 1709 0030 0528     		cmp	r0, #5
 1710 0032 70D0     		beq	.L168
 1711              	.L158:
 378:./Libraries/STM32_USB_Host_Library/Class/HID/Src/usbh_hid.c ****   {
 1712              		.loc 1 378 21 view .LVU555
 1713 0034 0025     		movs	r5, #0
 1714              	.L142:
 1715              	.LVL126:
 493:./Libraries/STM32_USB_Host_Library/Class/HID/Src/usbh_hid.c **** }
 1716              		.loc 1 493 3 is_stmt 1 view .LVU556
ARM GAS  /tmp/ccP1swG7.s 			page 54


 494:./Libraries/STM32_USB_Host_Library/Class/HID/Src/usbh_hid.c **** 
 1717              		.loc 1 494 1 is_stmt 0 view .LVU557
 1718 0036 2846     		mov	r0, r5
 1719 0038 F8BD     		pop	{r3, r4, r5, r6, r7, pc}
 1720              	.LVL127:
 1721              	.L148:
 381:./Libraries/STM32_USB_Host_Library/Class/HID/Src/usbh_hid.c ****       HID_Handle->state = HID_IDLE;
 1722              		.loc 1 381 7 is_stmt 1 view .LVU558
 1723 003a 336B     		ldr	r3, [r6, #48]
 1724 003c 9847     		blx	r3
 1725              	.LVL128:
 382:./Libraries/STM32_USB_Host_Library/Class/HID/Src/usbh_hid.c **** 
 1726              		.loc 1 382 7 view .LVU559
 382:./Libraries/STM32_USB_Host_Library/Class/HID/Src/usbh_hid.c **** 
 1727              		.loc 1 382 25 is_stmt 0 view .LVU560
 1728 003e 0121     		movs	r1, #1
 385:./Libraries/STM32_USB_Host_Library/Class/HID/Src/usbh_hid.c **** #if (osCMSIS < 0x20000U)
 1729              		.loc 1 385 21 view .LVU561
 1730 0040 0222     		movs	r2, #2
 389:./Libraries/STM32_USB_Host_Library/Class/HID/Src/usbh_hid.c **** #endif
 1731              		.loc 1 389 13 view .LVU562
 1732 0042 0023     		movs	r3, #0
 382:./Libraries/STM32_USB_Host_Library/Class/HID/Src/usbh_hid.c **** 
 1733              		.loc 1 382 25 view .LVU563
 1734 0044 B170     		strb	r1, [r6, #2]
 385:./Libraries/STM32_USB_Host_Library/Class/HID/Src/usbh_hid.c **** #if (osCMSIS < 0x20000U)
 1735              		.loc 1 385 7 is_stmt 1 view .LVU564
 1736              	.LVL129:
 1737              	.L166:
 417:./Libraries/STM32_USB_Host_Library/Class/HID/Src/usbh_hid.c **** #if (osCMSIS < 0x20000U)
 1738              		.loc 1 417 21 is_stmt 0 view .LVU565
 1739 0046 C4F8E024 		str	r2, [r4, #1248]
 421:./Libraries/STM32_USB_Host_Library/Class/HID/Src/usbh_hid.c **** #endif
 1740              		.loc 1 421 7 is_stmt 1 view .LVU566
 421:./Libraries/STM32_USB_Host_Library/Class/HID/Src/usbh_hid.c **** #endif
 1741              		.loc 1 421 13 is_stmt 0 view .LVU567
 1742 004a 04F59C61 		add	r1, r4, #1248
 1743 004e D4F8D804 		ldr	r0, [r4, #1240]
 1744 0052 1A46     		mov	r2, r3
 1745 0054 FFF7FEFF 		bl	osMessageQueuePut
 1746              	.LVL130:
 424:./Libraries/STM32_USB_Host_Library/Class/HID/Src/usbh_hid.c **** 
 1747              		.loc 1 424 7 is_stmt 1 view .LVU568
 493:./Libraries/STM32_USB_Host_Library/Class/HID/Src/usbh_hid.c **** }
 1748              		.loc 1 493 3 view .LVU569
 494:./Libraries/STM32_USB_Host_Library/Class/HID/Src/usbh_hid.c **** 
 1749              		.loc 1 494 1 is_stmt 0 view .LVU570
 1750 0058 2846     		mov	r0, r5
 1751 005a F8BD     		pop	{r3, r4, r5, r6, r7, pc}
 1752              	.LVL131:
 1753              	.L146:
 444:./Libraries/STM32_USB_Host_Library/Class/HID/Src/usbh_hid.c ****                                 (uint8_t)HID_Handle->length,
 1754              		.loc 1 444 7 is_stmt 1 view .LVU571
 1755 005c 7378     		ldrb	r3, [r6, #1]	@ zero_extendqisi2
 1756 005e 327E     		ldrb	r2, [r6, #24]	@ zero_extendqisi2
 1757 0060 7169     		ldr	r1, [r6, #20]
 1758 0062 FFF7FEFF 		bl	USBH_InterruptReceiveData
ARM GAS  /tmp/ccP1swG7.s 			page 55


 1759              	.LVL132:
 448:./Libraries/STM32_USB_Host_Library/Class/HID/Src/usbh_hid.c ****       HID_Handle->timer = phost->Timer;
 1760              		.loc 1 448 7 view .LVU572
 450:./Libraries/STM32_USB_Host_Library/Class/HID/Src/usbh_hid.c ****       break;
 1761              		.loc 1 450 29 is_stmt 0 view .LVU573
 1762 0066 0023     		movs	r3, #0
 448:./Libraries/STM32_USB_Host_Library/Class/HID/Src/usbh_hid.c ****       HID_Handle->timer = phost->Timer;
 1763              		.loc 1 448 25 view .LVU574
 1764 0068 0622     		movs	r2, #6
 374:./Libraries/STM32_USB_Host_Library/Class/HID/Src/usbh_hid.c ****   HID_HandleTypeDef *HID_Handle = (HID_HandleTypeDef *) phost->pActiveClass->pData;
 1765              		.loc 1 374 22 view .LVU575
 1766 006a 1D46     		mov	r5, r3
 448:./Libraries/STM32_USB_Host_Library/Class/HID/Src/usbh_hid.c ****       HID_Handle->timer = phost->Timer;
 1767              		.loc 1 448 25 view .LVU576
 1768 006c B270     		strb	r2, [r6, #2]
 449:./Libraries/STM32_USB_Host_Library/Class/HID/Src/usbh_hid.c ****       HID_Handle->DataReady = 0U;
 1769              		.loc 1 449 7 is_stmt 1 view .LVU577
 449:./Libraries/STM32_USB_Host_Library/Class/HID/Src/usbh_hid.c ****       HID_Handle->DataReady = 0U;
 1770              		.loc 1 449 32 is_stmt 0 view .LVU578
 1771 006e D4F8C424 		ldr	r2, [r4, #1220]
 494:./Libraries/STM32_USB_Host_Library/Class/HID/Src/usbh_hid.c **** 
 1772              		.loc 1 494 1 view .LVU579
 1773 0072 2846     		mov	r0, r5
 450:./Libraries/STM32_USB_Host_Library/Class/HID/Src/usbh_hid.c ****       break;
 1774              		.loc 1 450 29 view .LVU580
 1775 0074 86F82430 		strb	r3, [r6, #36]
 449:./Libraries/STM32_USB_Host_Library/Class/HID/Src/usbh_hid.c ****       HID_Handle->DataReady = 0U;
 1776              		.loc 1 449 25 view .LVU581
 1777 0078 3262     		str	r2, [r6, #32]
 450:./Libraries/STM32_USB_Host_Library/Class/HID/Src/usbh_hid.c ****       break;
 1778              		.loc 1 450 7 is_stmt 1 view .LVU582
 451:./Libraries/STM32_USB_Host_Library/Class/HID/Src/usbh_hid.c **** 
 1779              		.loc 1 451 7 view .LVU583
 1780              	.LVL133:
 493:./Libraries/STM32_USB_Host_Library/Class/HID/Src/usbh_hid.c **** }
 1781              		.loc 1 493 3 view .LVU584
 494:./Libraries/STM32_USB_Host_Library/Class/HID/Src/usbh_hid.c **** 
 1782              		.loc 1 494 1 is_stmt 0 view .LVU585
 1783 007a F8BD     		pop	{r3, r4, r5, r6, r7, pc}
 1784              	.LVL134:
 1785              	.L145:
 428:./Libraries/STM32_USB_Host_Library/Class/HID/Src/usbh_hid.c ****       {
 1786              		.loc 1 428 7 is_stmt 1 view .LVU586
 428:./Libraries/STM32_USB_Host_Library/Class/HID/Src/usbh_hid.c ****       {
 1787              		.loc 1 428 16 is_stmt 0 view .LVU587
 1788 007c D0F8C434 		ldr	r3, [r0, #1220]
 428:./Libraries/STM32_USB_Host_Library/Class/HID/Src/usbh_hid.c ****       {
 1789              		.loc 1 428 10 view .LVU588
 1790 0080 DB07     		lsls	r3, r3, #31
 1791 0082 01D5     		bpl	.L153
 430:./Libraries/STM32_USB_Host_Library/Class/HID/Src/usbh_hid.c ****       }
 1792              		.loc 1 430 9 is_stmt 1 view .LVU589
 430:./Libraries/STM32_USB_Host_Library/Class/HID/Src/usbh_hid.c ****       }
 1793              		.loc 1 430 27 is_stmt 0 view .LVU590
 1794 0084 0423     		movs	r3, #4
 1795 0086 B370     		strb	r3, [r6, #2]
 1796              	.L153:
ARM GAS  /tmp/ccP1swG7.s 			page 56


 434:./Libraries/STM32_USB_Host_Library/Class/HID/Src/usbh_hid.c **** #if (osCMSIS < 0x20000U)
 1797              		.loc 1 434 7 is_stmt 1 view .LVU591
 438:./Libraries/STM32_USB_Host_Library/Class/HID/Src/usbh_hid.c **** #endif
 1798              		.loc 1 438 13 is_stmt 0 view .LVU592
 1799 0088 0023     		movs	r3, #0
 434:./Libraries/STM32_USB_Host_Library/Class/HID/Src/usbh_hid.c **** #if (osCMSIS < 0x20000U)
 1800              		.loc 1 434 21 view .LVU593
 1801 008a 0222     		movs	r2, #2
 374:./Libraries/STM32_USB_Host_Library/Class/HID/Src/usbh_hid.c ****   HID_HandleTypeDef *HID_Handle = (HID_HandleTypeDef *) phost->pActiveClass->pData;
 1802              		.loc 1 374 22 view .LVU594
 1803 008c 0025     		movs	r5, #0
 438:./Libraries/STM32_USB_Host_Library/Class/HID/Src/usbh_hid.c **** #endif
 1804              		.loc 1 438 13 view .LVU595
 1805 008e 04F59C61 		add	r1, r4, #1248
 434:./Libraries/STM32_USB_Host_Library/Class/HID/Src/usbh_hid.c **** #if (osCMSIS < 0x20000U)
 1806              		.loc 1 434 21 view .LVU596
 1807 0092 C4F8E024 		str	r2, [r4, #1248]
 438:./Libraries/STM32_USB_Host_Library/Class/HID/Src/usbh_hid.c **** #endif
 1808              		.loc 1 438 7 is_stmt 1 view .LVU597
 438:./Libraries/STM32_USB_Host_Library/Class/HID/Src/usbh_hid.c **** #endif
 1809              		.loc 1 438 13 is_stmt 0 view .LVU598
 1810 0096 1A46     		mov	r2, r3
 1811 0098 D4F8D804 		ldr	r0, [r4, #1240]
 1812              	.LVL135:
 438:./Libraries/STM32_USB_Host_Library/Class/HID/Src/usbh_hid.c **** #endif
 1813              		.loc 1 438 13 view .LVU599
 1814 009c FFF7FEFF 		bl	osMessageQueuePut
 1815              	.LVL136:
 441:./Libraries/STM32_USB_Host_Library/Class/HID/Src/usbh_hid.c **** 
 1816              		.loc 1 441 7 is_stmt 1 view .LVU600
 493:./Libraries/STM32_USB_Host_Library/Class/HID/Src/usbh_hid.c **** }
 1817              		.loc 1 493 3 view .LVU601
 494:./Libraries/STM32_USB_Host_Library/Class/HID/Src/usbh_hid.c **** 
 1818              		.loc 1 494 1 is_stmt 0 view .LVU602
 1819 00a0 2846     		mov	r0, r5
 1820 00a2 F8BD     		pop	{r3, r4, r5, r6, r7, pc}
 1821              	.LVL137:
 1822              	.L147:
 395:./Libraries/STM32_USB_Host_Library/Class/HID/Src/usbh_hid.c ****       if (status == USBH_OK)
 1823              		.loc 1 395 7 is_stmt 1 view .LVU603
 395:./Libraries/STM32_USB_Host_Library/Class/HID/Src/usbh_hid.c ****       if (status == USBH_OK)
 1824              		.loc 1 395 91 is_stmt 0 view .LVU604
 1825 00a4 328B     		ldrh	r2, [r6, #24]
 1826              	.LVL138:
 1827              	.LBB30:
 1828              	.LBB31:
 659:./Libraries/STM32_USB_Host_Library/Class/HID/Src/usbh_hid.c ****   phost->Control.setup.b.wLength.w = reportLen;
 1829              		.loc 1 659 35 view .LVU605
 1830 00a6 0027     		movs	r7, #0
 652:./Libraries/STM32_USB_Host_Library/Class/HID/Src/usbh_hid.c ****                                          USB_REQ_TYPE_CLASS;
 1831              		.loc 1 652 40 view .LVU606
 1832 00a8 234B     		ldr	r3, .L171
 1833 00aa D2B2     		uxtb	r2, r2
 1834              	.LBE31:
 1835              	.LBE30:
 395:./Libraries/STM32_USB_Host_Library/Class/HID/Src/usbh_hid.c ****       if (status == USBH_OK)
 1836              		.loc 1 395 16 view .LVU607
ARM GAS  /tmp/ccP1swG7.s 			page 57


 1837 00ac 7169     		ldr	r1, [r6, #20]
 1838              	.LVL139:
 1839              	.LBB33:
 1840              	.LBI30:
 645:./Libraries/STM32_USB_Host_Library/Class/HID/Src/usbh_hid.c ****                                       uint8_t reportType,
 1841              		.loc 1 645 20 is_stmt 1 view .LVU608
 1842              	.LBB32:
 652:./Libraries/STM32_USB_Host_Library/Class/HID/Src/usbh_hid.c ****                                          USB_REQ_TYPE_CLASS;
 1843              		.loc 1 652 3 view .LVU609
 656:./Libraries/STM32_USB_Host_Library/Class/HID/Src/usbh_hid.c ****   phost->Control.setup.b.wValue.w = (uint16_t)(((uint32_t)reportType << 8U) | (uint32_t)reportId);
 1844              		.loc 1 656 3 view .LVU610
 657:./Libraries/STM32_USB_Host_Library/Class/HID/Src/usbh_hid.c **** 
 1845              		.loc 1 657 3 view .LVU611
 659:./Libraries/STM32_USB_Host_Library/Class/HID/Src/usbh_hid.c ****   phost->Control.setup.b.wLength.w = reportLen;
 1846              		.loc 1 659 3 view .LVU612
 659:./Libraries/STM32_USB_Host_Library/Class/HID/Src/usbh_hid.c ****   phost->Control.setup.b.wLength.w = reportLen;
 1847              		.loc 1 659 35 is_stmt 0 view .LVU613
 1848 00ae 8782     		strh	r7, [r0, #20]	@ movhi
 660:./Libraries/STM32_USB_Host_Library/Class/HID/Src/usbh_hid.c **** 
 1849              		.loc 1 660 3 is_stmt 1 view .LVU614
 660:./Libraries/STM32_USB_Host_Library/Class/HID/Src/usbh_hid.c **** 
 1850              		.loc 1 660 36 is_stmt 0 view .LVU615
 1851 00b0 C282     		strh	r2, [r0, #22]	@ movhi
 662:./Libraries/STM32_USB_Host_Library/Class/HID/Src/usbh_hid.c **** }
 1852              		.loc 1 662 3 is_stmt 1 view .LVU616
 652:./Libraries/STM32_USB_Host_Library/Class/HID/Src/usbh_hid.c ****                                          USB_REQ_TYPE_CLASS;
 1853              		.loc 1 652 40 is_stmt 0 view .LVU617
 1854 00b2 0361     		str	r3, [r0, #16]
 662:./Libraries/STM32_USB_Host_Library/Class/HID/Src/usbh_hid.c **** }
 1855              		.loc 1 662 10 view .LVU618
 1856 00b4 FFF7FEFF 		bl	USBH_CtlReq
 1857              	.LVL140:
 662:./Libraries/STM32_USB_Host_Library/Class/HID/Src/usbh_hid.c **** }
 1858              		.loc 1 662 10 view .LVU619
 1859              	.LBE32:
 1860              	.LBE33:
 396:./Libraries/STM32_USB_Host_Library/Class/HID/Src/usbh_hid.c ****       {
 1861              		.loc 1 396 7 is_stmt 1 view .LVU620
 396:./Libraries/STM32_USB_Host_Library/Class/HID/Src/usbh_hid.c ****       {
 1862              		.loc 1 396 10 is_stmt 0 view .LVU621
 1863 00b8 0546     		mov	r5, r0
 1864 00ba 20B9     		cbnz	r0, .L149
 398:./Libraries/STM32_USB_Host_Library/Class/HID/Src/usbh_hid.c ****       }
 1865              		.loc 1 398 9 is_stmt 1 view .LVU622
 398:./Libraries/STM32_USB_Host_Library/Class/HID/Src/usbh_hid.c ****       }
 1866              		.loc 1 398 27 is_stmt 0 view .LVU623
 1867 00bc 0523     		movs	r3, #5
 1868 00be B370     		strb	r3, [r6, #2]
 1869              	.LVL141:
 1870              	.L150:
 417:./Libraries/STM32_USB_Host_Library/Class/HID/Src/usbh_hid.c **** #if (osCMSIS < 0x20000U)
 1871              		.loc 1 417 7 is_stmt 1 view .LVU624
 417:./Libraries/STM32_USB_Host_Library/Class/HID/Src/usbh_hid.c **** #if (osCMSIS < 0x20000U)
 1872              		.loc 1 417 21 is_stmt 0 view .LVU625
 1873 00c0 0222     		movs	r2, #2
 421:./Libraries/STM32_USB_Host_Library/Class/HID/Src/usbh_hid.c **** #endif
 1874              		.loc 1 421 13 view .LVU626
ARM GAS  /tmp/ccP1swG7.s 			page 58


 1875 00c2 0023     		movs	r3, #0
 1876 00c4 BFE7     		b	.L166
 1877              	.LVL142:
 1878              	.L149:
 400:./Libraries/STM32_USB_Host_Library/Class/HID/Src/usbh_hid.c ****       {
 1879              		.loc 1 400 12 is_stmt 1 view .LVU627
 400:./Libraries/STM32_USB_Host_Library/Class/HID/Src/usbh_hid.c ****       {
 1880              		.loc 1 400 15 is_stmt 0 view .LVU628
 1881 00c6 0128     		cmp	r0, #1
 1882 00c8 33D0     		beq	.L169
 405:./Libraries/STM32_USB_Host_Library/Class/HID/Src/usbh_hid.c ****       {
 1883              		.loc 1 405 12 is_stmt 1 view .LVU629
 405:./Libraries/STM32_USB_Host_Library/Class/HID/Src/usbh_hid.c ****       {
 1884              		.loc 1 405 15 is_stmt 0 view .LVU630
 1885 00ca 0328     		cmp	r0, #3
 1886 00cc 2DD0     		beq	.L170
 412:./Libraries/STM32_USB_Host_Library/Class/HID/Src/usbh_hid.c ****         status = USBH_FAIL;
 1887              		.loc 1 412 9 is_stmt 1 view .LVU631
 412:./Libraries/STM32_USB_Host_Library/Class/HID/Src/usbh_hid.c ****         status = USBH_FAIL;
 1888              		.loc 1 412 27 is_stmt 0 view .LVU632
 1889 00ce 0723     		movs	r3, #7
 413:./Libraries/STM32_USB_Host_Library/Class/HID/Src/usbh_hid.c ****       }
 1890              		.loc 1 413 16 view .LVU633
 1891 00d0 0225     		movs	r5, #2
 412:./Libraries/STM32_USB_Host_Library/Class/HID/Src/usbh_hid.c ****         status = USBH_FAIL;
 1892              		.loc 1 412 27 view .LVU634
 1893 00d2 B370     		strb	r3, [r6, #2]
 413:./Libraries/STM32_USB_Host_Library/Class/HID/Src/usbh_hid.c ****       }
 1894              		.loc 1 413 9 is_stmt 1 view .LVU635
 1895              	.LVL143:
 413:./Libraries/STM32_USB_Host_Library/Class/HID/Src/usbh_hid.c ****       }
 1896              		.loc 1 413 9 is_stmt 0 view .LVU636
 1897 00d4 F4E7     		b	.L150
 1898              	.LVL144:
 1899              	.L167:
 456:./Libraries/STM32_USB_Host_Library/Class/HID/Src/usbh_hid.c **** 
 1900              		.loc 1 456 9 is_stmt 1 view .LVU637
 456:./Libraries/STM32_USB_Host_Library/Class/HID/Src/usbh_hid.c **** 
 1901              		.loc 1 456 20 is_stmt 0 view .LVU638
 1902 00d6 FFF7FEFF 		bl	USBH_LL_GetLastXferSize
 1903              	.LVL145:
 458:./Libraries/STM32_USB_Host_Library/Class/HID/Src/usbh_hid.c ****         {
 1904              		.loc 1 458 12 view .LVU639
 1905 00da 96F82430 		ldrb	r3, [r6, #36]	@ zero_extendqisi2
 1906              	.LVL146:
 458:./Libraries/STM32_USB_Host_Library/Class/HID/Src/usbh_hid.c ****         {
 1907              		.loc 1 458 9 is_stmt 1 view .LVU640
 458:./Libraries/STM32_USB_Host_Library/Class/HID/Src/usbh_hid.c ****         {
 1908              		.loc 1 458 43 is_stmt 0 view .LVU641
 1909 00de 002B     		cmp	r3, #0
 1910 00e0 A8D1     		bne	.L158
 1911 00e2 0028     		cmp	r0, #0
 1912 00e4 A6D0     		beq	.L158
 460:./Libraries/STM32_USB_Host_Library/Class/HID/Src/usbh_hid.c ****           HID_Handle->DataReady = 1U;
 1913              		.loc 1 460 11 is_stmt 1 view .LVU642
 1914 00e6 328B     		ldrh	r2, [r6, #24]
 1915 00e8 06F10800 		add	r0, r6, #8
ARM GAS  /tmp/ccP1swG7.s 			page 59


 1916              	.LVL147:
 460:./Libraries/STM32_USB_Host_Library/Class/HID/Src/usbh_hid.c ****           HID_Handle->DataReady = 1U;
 1917              		.loc 1 460 11 is_stmt 0 view .LVU643
 1918 00ec 7169     		ldr	r1, [r6, #20]
 374:./Libraries/STM32_USB_Host_Library/Class/HID/Src/usbh_hid.c ****   HID_HandleTypeDef *HID_Handle = (HID_HandleTypeDef *) phost->pActiveClass->pData;
 1919              		.loc 1 374 22 view .LVU644
 1920 00ee 0025     		movs	r5, #0
 460:./Libraries/STM32_USB_Host_Library/Class/HID/Src/usbh_hid.c ****           HID_Handle->DataReady = 1U;
 1921              		.loc 1 460 11 view .LVU645
 1922 00f0 FFF7FEFF 		bl	USBH_HID_FifoWrite
 1923              	.LVL148:
 461:./Libraries/STM32_USB_Host_Library/Class/HID/Src/usbh_hid.c ****           USBH_HID_EventCallback(phost);
 1924              		.loc 1 461 11 is_stmt 1 view .LVU646
 462:./Libraries/STM32_USB_Host_Library/Class/HID/Src/usbh_hid.c **** 
 1925              		.loc 1 462 11 is_stmt 0 view .LVU647
 1926 00f4 2046     		mov	r0, r4
 461:./Libraries/STM32_USB_Host_Library/Class/HID/Src/usbh_hid.c ****           USBH_HID_EventCallback(phost);
 1927              		.loc 1 461 33 view .LVU648
 1928 00f6 86F82470 		strb	r7, [r6, #36]
 462:./Libraries/STM32_USB_Host_Library/Class/HID/Src/usbh_hid.c **** 
 1929              		.loc 1 462 11 is_stmt 1 view .LVU649
 1930 00fa FFF7FEFF 		bl	USBH_HID_EventCallback
 1931              	.LVL149:
 465:./Libraries/STM32_USB_Host_Library/Class/HID/Src/usbh_hid.c **** #if (osCMSIS < 0x20000U)
 1932              		.loc 1 465 11 view .LVU650
 465:./Libraries/STM32_USB_Host_Library/Class/HID/Src/usbh_hid.c **** #if (osCMSIS < 0x20000U)
 1933              		.loc 1 465 25 is_stmt 0 view .LVU651
 1934 00fe 0222     		movs	r2, #2
 469:./Libraries/STM32_USB_Host_Library/Class/HID/Src/usbh_hid.c **** #endif
 1935              		.loc 1 469 17 view .LVU652
 1936 0100 2B46     		mov	r3, r5
 1937 0102 04F59C61 		add	r1, r4, #1248
 465:./Libraries/STM32_USB_Host_Library/Class/HID/Src/usbh_hid.c **** #if (osCMSIS < 0x20000U)
 1938              		.loc 1 465 25 view .LVU653
 1939 0106 C4F8E024 		str	r2, [r4, #1248]
 469:./Libraries/STM32_USB_Host_Library/Class/HID/Src/usbh_hid.c **** #endif
 1940              		.loc 1 469 11 is_stmt 1 view .LVU654
 469:./Libraries/STM32_USB_Host_Library/Class/HID/Src/usbh_hid.c **** #endif
 1941              		.loc 1 469 17 is_stmt 0 view .LVU655
 1942 010a 2A46     		mov	r2, r5
 1943 010c D4F8D804 		ldr	r0, [r4, #1240]
 1944 0110 FFF7FEFF 		bl	osMessageQueuePut
 1945              	.LVL150:
 1946 0114 8FE7     		b	.L142
 1947              	.L168:
 480:./Libraries/STM32_USB_Host_Library/Class/HID/Src/usbh_hid.c ****           {
 1948              		.loc 1 480 11 is_stmt 1 view .LVU656
 480:./Libraries/STM32_USB_Host_Library/Class/HID/Src/usbh_hid.c ****           {
 1949              		.loc 1 480 15 is_stmt 0 view .LVU657
 1950 0116 2046     		mov	r0, r4
 1951 0118 B17E     		ldrb	r1, [r6, #26]	@ zero_extendqisi2
 1952 011a FFF7FEFF 		bl	USBH_ClrFeature
 1953              	.LVL151:
 480:./Libraries/STM32_USB_Host_Library/Class/HID/Src/usbh_hid.c ****           {
 1954              		.loc 1 480 14 view .LVU658
 1955 011e 0546     		mov	r5, r0
 1956 0120 0028     		cmp	r0, #0
ARM GAS  /tmp/ccP1swG7.s 			page 60


 1957 0122 87D1     		bne	.L158
 483:./Libraries/STM32_USB_Host_Library/Class/HID/Src/usbh_hid.c ****           }
 1958              		.loc 1 483 13 is_stmt 1 view .LVU659
 483:./Libraries/STM32_USB_Host_Library/Class/HID/Src/usbh_hid.c ****           }
 1959              		.loc 1 483 31 is_stmt 0 view .LVU660
 1960 0124 0423     		movs	r3, #4
 1961 0126 B370     		strb	r3, [r6, #2]
 1962 0128 85E7     		b	.L142
 1963              	.LVL152:
 1964              	.L170:
 407:./Libraries/STM32_USB_Host_Library/Class/HID/Src/usbh_hid.c ****         status = USBH_OK;
 1965              		.loc 1 407 9 is_stmt 1 view .LVU661
 407:./Libraries/STM32_USB_Host_Library/Class/HID/Src/usbh_hid.c ****         status = USBH_OK;
 1966              		.loc 1 407 27 is_stmt 0 view .LVU662
 1967 012a 0523     		movs	r3, #5
 408:./Libraries/STM32_USB_Host_Library/Class/HID/Src/usbh_hid.c ****       }
 1968              		.loc 1 408 16 view .LVU663
 1969 012c 3D46     		mov	r5, r7
 407:./Libraries/STM32_USB_Host_Library/Class/HID/Src/usbh_hid.c ****         status = USBH_OK;
 1970              		.loc 1 407 27 view .LVU664
 1971 012e B370     		strb	r3, [r6, #2]
 408:./Libraries/STM32_USB_Host_Library/Class/HID/Src/usbh_hid.c ****       }
 1972              		.loc 1 408 9 is_stmt 1 view .LVU665
 1973              	.LVL153:
 408:./Libraries/STM32_USB_Host_Library/Class/HID/Src/usbh_hid.c ****       }
 1974              		.loc 1 408 9 is_stmt 0 view .LVU666
 1975 0130 C6E7     		b	.L150
 1976              	.LVL154:
 1977              	.L169:
 402:./Libraries/STM32_USB_Host_Library/Class/HID/Src/usbh_hid.c ****         status = USBH_OK;
 1978              		.loc 1 402 9 is_stmt 1 view .LVU667
 403:./Libraries/STM32_USB_Host_Library/Class/HID/Src/usbh_hid.c ****       }
 1979              		.loc 1 403 16 is_stmt 0 view .LVU668
 1980 0132 3D46     		mov	r5, r7
 402:./Libraries/STM32_USB_Host_Library/Class/HID/Src/usbh_hid.c ****         status = USBH_OK;
 1981              		.loc 1 402 27 view .LVU669
 1982 0134 B070     		strb	r0, [r6, #2]
 403:./Libraries/STM32_USB_Host_Library/Class/HID/Src/usbh_hid.c ****       }
 1983              		.loc 1 403 9 is_stmt 1 view .LVU670
 1984              	.LVL155:
 403:./Libraries/STM32_USB_Host_Library/Class/HID/Src/usbh_hid.c ****       }
 1985              		.loc 1 403 9 is_stmt 0 view .LVU671
 1986 0136 C3E7     		b	.L150
 1987              	.L172:
 1988              		.align	2
 1989              	.L171:
 1990 0138 A1010001 		.word	16777633
 1991              		.cfi_endproc
 1992              	.LFE341:
 1994              		.global	HID_Class
 1995              		.section	.rodata.str1.4,"aMS",%progbits,1
 1996              		.align	2
 1997              	.LC0:
 1998 0000 48494400 		.ascii	"HID\000"
 1999              		.section	.data.HID_Class,"aw"
 2000              		.align	2
 2003              	HID_Class:
ARM GAS  /tmp/ccP1swG7.s 			page 61


 2004 0000 00000000 		.word	.LC0
 2005 0004 03       		.byte	3
 2006 0005 000000   		.space	3
 2007 0008 00000000 		.word	USBH_HID_InterfaceInit
 2008 000c 00000000 		.word	USBH_HID_InterfaceDeInit
 2009 0010 00000000 		.word	USBH_HID_ClassRequest
 2010 0014 00000000 		.word	USBH_HID_Process
 2011 0018 00000000 		.word	USBH_HID_SOFProcess
 2012 001c 00000000 		.word	0
 2013              		.text
 2014              	.Letext0:
 2015              		.file 2 "/usr/lib/gcc/arm-none-eabi/9.2.1/include/stdint.h"
 2016              		.file 3 "./Libraries/CMSIS/Core/Include/core_cm7.h"
 2017              		.file 4 "./Libraries/CMSIS/Device/ST/STM32H7xx/Include/system_stm32h7xx.h"
 2018              		.file 5 "/usr/lib/gcc/arm-none-eabi/9.2.1/include/stddef.h"
 2019              		.file 6 "/usr/include/newlib/sys/_types.h"
 2020              		.file 7 "/usr/include/newlib/sys/reent.h"
 2021              		.file 8 "/usr/include/newlib/sys/lock.h"
 2022              		.file 9 "/usr/include/newlib/math.h"
 2023              		.file 10 "./Libraries/STM32H7xx_HAL_Driver/Inc/stm32h7xx_hal_def.h"
 2024              		.file 11 "./Libraries/STM32H7xx_HAL_Driver/Inc/stm32h7xx_hal_flash.h"
 2025              		.file 12 "./Libraries/STM32H7xx_HAL_Driver/Inc/stm32h7xx_hal_uart.h"
 2026              		.file 13 "./Libraries/STM32H7xx_HAL_Driver/Inc/stm32h7xx_hal.h"
 2027              		.file 14 "/usr/include/newlib/stdlib.h"
 2028              		.file 15 "./Libraries/FreeRTOS/Source/CMSIS_RTOS/cmsis_os2.h"
 2029              		.file 16 "./Libraries/STM32_USB_Host_Library/Core/Inc/usbh_def.h"
 2030              		.file 17 "./Libraries/STM32_USB_Host_Library/Core/Inc/usbh_ctlreq.h"
 2031              		.file 18 "./Libraries/STM32_USB_Host_Library/Class/HID/Inc/usbh_hid.h"
 2032              		.file 19 "./Libraries/STM32_USB_Host_Library/Core/Inc/usbh_core.h"
 2033              		.file 20 "./Libraries/STM32_USB_Host_Library/Core/Inc/usbh_ioreq.h"
 2034              		.file 21 "./Libraries/FreeRTOS/Source/include/portable.h"
 2035              		.file 22 "./Libraries/STM32_USB_Host_Library/Core/Inc/usbh_pipes.h"
 2036              		.file 23 "<built-in>"
ARM GAS  /tmp/ccP1swG7.s 			page 62

