ARM GAS  /tmp/ccHaU3Re.s 			page 1


   1              		.cpu cortex-m7
   2              		.eabi_attribute 28, 1
   3              		.eabi_attribute 20, 1
   4              		.eabi_attribute 21, 1
   5              		.eabi_attribute 23, 3
   6              		.eabi_attribute 24, 1
   7              		.eabi_attribute 25, 1
   8              		.eabi_attribute 26, 1
   9              		.eabi_attribute 30, 2
  10              		.eabi_attribute 34, 1
  11              		.eabi_attribute 18, 4
  12              		.file	"usbh_hid_parser.c"
  13              		.text
  14              	.Ltext0:
  15              		.cfi_sections	.debug_frame
  16              		.section	.text.HID_ReadItem,"ax",%progbits
  17              		.align	1
  18              		.p2align 2,,3
  19              		.global	HID_ReadItem
  20              		.arch armv7e-m
  21              		.syntax unified
  22              		.thumb
  23              		.thumb_func
  24              		.fpu fpv5-d16
  26              	HID_ReadItem:
  27              	.LVL0:
  28              	.LFB338:
  29              		.file 1 "./Libraries/STM32_USB_Host_Library/Class/HID/Src/usbh_hid_parser.c"
   1:./Libraries/STM32_USB_Host_Library/Class/HID/Src/usbh_hid_parser.c **** /**
   2:./Libraries/STM32_USB_Host_Library/Class/HID/Src/usbh_hid_parser.c ****   ******************************************************************************
   3:./Libraries/STM32_USB_Host_Library/Class/HID/Src/usbh_hid_parser.c ****   * @file    usbh_hid_parser.c
   4:./Libraries/STM32_USB_Host_Library/Class/HID/Src/usbh_hid_parser.c ****   * @author  MCD Application Team
   5:./Libraries/STM32_USB_Host_Library/Class/HID/Src/usbh_hid_parser.c ****   * @brief   This file is the HID Layer Handlers for USB Host HID class.
   6:./Libraries/STM32_USB_Host_Library/Class/HID/Src/usbh_hid_parser.c ****   ******************************************************************************
   7:./Libraries/STM32_USB_Host_Library/Class/HID/Src/usbh_hid_parser.c ****   * @attention
   8:./Libraries/STM32_USB_Host_Library/Class/HID/Src/usbh_hid_parser.c ****   *
   9:./Libraries/STM32_USB_Host_Library/Class/HID/Src/usbh_hid_parser.c ****   * <h2><center>&copy; Copyright (c) 2015 STMicroelectronics.
  10:./Libraries/STM32_USB_Host_Library/Class/HID/Src/usbh_hid_parser.c ****   * All rights reserved.</center></h2>
  11:./Libraries/STM32_USB_Host_Library/Class/HID/Src/usbh_hid_parser.c ****   *
  12:./Libraries/STM32_USB_Host_Library/Class/HID/Src/usbh_hid_parser.c ****   * This software component is licensed by ST under Ultimate Liberty license
  13:./Libraries/STM32_USB_Host_Library/Class/HID/Src/usbh_hid_parser.c ****   * SLA0044, the "License"; You may not use this file except in compliance with
  14:./Libraries/STM32_USB_Host_Library/Class/HID/Src/usbh_hid_parser.c ****   * the License. You may obtain a copy of the License at:
  15:./Libraries/STM32_USB_Host_Library/Class/HID/Src/usbh_hid_parser.c ****   *                      www.st.com/SLA0044
  16:./Libraries/STM32_USB_Host_Library/Class/HID/Src/usbh_hid_parser.c ****   *
  17:./Libraries/STM32_USB_Host_Library/Class/HID/Src/usbh_hid_parser.c ****   ******************************************************************************
  18:./Libraries/STM32_USB_Host_Library/Class/HID/Src/usbh_hid_parser.c ****   */
  19:./Libraries/STM32_USB_Host_Library/Class/HID/Src/usbh_hid_parser.c **** 
  20:./Libraries/STM32_USB_Host_Library/Class/HID/Src/usbh_hid_parser.c **** /* BSPDependencies
  21:./Libraries/STM32_USB_Host_Library/Class/HID/Src/usbh_hid_parser.c **** - "stm32xxxxx_{eval}{discovery}{nucleo_144}.c"
  22:./Libraries/STM32_USB_Host_Library/Class/HID/Src/usbh_hid_parser.c **** - "stm32xxxxx_{eval}{discovery}_io.c"
  23:./Libraries/STM32_USB_Host_Library/Class/HID/Src/usbh_hid_parser.c **** - "stm32xxxxx_{eval}{discovery}{adafruit}_lcd.c"
  24:./Libraries/STM32_USB_Host_Library/Class/HID/Src/usbh_hid_parser.c **** - "stm32xxxxx_{eval}{discovery}_sdram.c"
  25:./Libraries/STM32_USB_Host_Library/Class/HID/Src/usbh_hid_parser.c **** EndBSPDependencies */
  26:./Libraries/STM32_USB_Host_Library/Class/HID/Src/usbh_hid_parser.c **** 
  27:./Libraries/STM32_USB_Host_Library/Class/HID/Src/usbh_hid_parser.c **** /* Includes ------------------------------------------------------------------*/
  28:./Libraries/STM32_USB_Host_Library/Class/HID/Src/usbh_hid_parser.c **** #include "usbh_hid_parser.h"
  29:./Libraries/STM32_USB_Host_Library/Class/HID/Src/usbh_hid_parser.c **** 
ARM GAS  /tmp/ccHaU3Re.s 			page 2


  30:./Libraries/STM32_USB_Host_Library/Class/HID/Src/usbh_hid_parser.c **** 
  31:./Libraries/STM32_USB_Host_Library/Class/HID/Src/usbh_hid_parser.c **** /** @addtogroup USBH_LIB
  32:./Libraries/STM32_USB_Host_Library/Class/HID/Src/usbh_hid_parser.c ****   * @{
  33:./Libraries/STM32_USB_Host_Library/Class/HID/Src/usbh_hid_parser.c ****   */
  34:./Libraries/STM32_USB_Host_Library/Class/HID/Src/usbh_hid_parser.c **** 
  35:./Libraries/STM32_USB_Host_Library/Class/HID/Src/usbh_hid_parser.c **** /** @addtogroup USBH_CLASS
  36:./Libraries/STM32_USB_Host_Library/Class/HID/Src/usbh_hid_parser.c ****   * @{
  37:./Libraries/STM32_USB_Host_Library/Class/HID/Src/usbh_hid_parser.c ****   */
  38:./Libraries/STM32_USB_Host_Library/Class/HID/Src/usbh_hid_parser.c **** 
  39:./Libraries/STM32_USB_Host_Library/Class/HID/Src/usbh_hid_parser.c **** /** @addtogroup USBH_HID_CLASS
  40:./Libraries/STM32_USB_Host_Library/Class/HID/Src/usbh_hid_parser.c ****   * @{
  41:./Libraries/STM32_USB_Host_Library/Class/HID/Src/usbh_hid_parser.c ****   */
  42:./Libraries/STM32_USB_Host_Library/Class/HID/Src/usbh_hid_parser.c **** 
  43:./Libraries/STM32_USB_Host_Library/Class/HID/Src/usbh_hid_parser.c **** /** @defgroup USBH_HID_PARSER
  44:./Libraries/STM32_USB_Host_Library/Class/HID/Src/usbh_hid_parser.c ****   * @brief    This file includes HID parsers for USB Host HID class.
  45:./Libraries/STM32_USB_Host_Library/Class/HID/Src/usbh_hid_parser.c ****   * @{
  46:./Libraries/STM32_USB_Host_Library/Class/HID/Src/usbh_hid_parser.c ****   */
  47:./Libraries/STM32_USB_Host_Library/Class/HID/Src/usbh_hid_parser.c **** 
  48:./Libraries/STM32_USB_Host_Library/Class/HID/Src/usbh_hid_parser.c **** /** @defgroup USBH_HID_PARSER_Private_TypesDefinitions
  49:./Libraries/STM32_USB_Host_Library/Class/HID/Src/usbh_hid_parser.c ****   * @{
  50:./Libraries/STM32_USB_Host_Library/Class/HID/Src/usbh_hid_parser.c ****   */
  51:./Libraries/STM32_USB_Host_Library/Class/HID/Src/usbh_hid_parser.c **** /**
  52:./Libraries/STM32_USB_Host_Library/Class/HID/Src/usbh_hid_parser.c ****   * @}
  53:./Libraries/STM32_USB_Host_Library/Class/HID/Src/usbh_hid_parser.c ****   */
  54:./Libraries/STM32_USB_Host_Library/Class/HID/Src/usbh_hid_parser.c **** 
  55:./Libraries/STM32_USB_Host_Library/Class/HID/Src/usbh_hid_parser.c **** 
  56:./Libraries/STM32_USB_Host_Library/Class/HID/Src/usbh_hid_parser.c **** /** @defgroup USBH_HID_PARSER_Private_Defines
  57:./Libraries/STM32_USB_Host_Library/Class/HID/Src/usbh_hid_parser.c ****   * @{
  58:./Libraries/STM32_USB_Host_Library/Class/HID/Src/usbh_hid_parser.c ****   */
  59:./Libraries/STM32_USB_Host_Library/Class/HID/Src/usbh_hid_parser.c **** /**
  60:./Libraries/STM32_USB_Host_Library/Class/HID/Src/usbh_hid_parser.c ****   * @}
  61:./Libraries/STM32_USB_Host_Library/Class/HID/Src/usbh_hid_parser.c ****   */
  62:./Libraries/STM32_USB_Host_Library/Class/HID/Src/usbh_hid_parser.c **** 
  63:./Libraries/STM32_USB_Host_Library/Class/HID/Src/usbh_hid_parser.c **** 
  64:./Libraries/STM32_USB_Host_Library/Class/HID/Src/usbh_hid_parser.c **** /** @defgroup USBH_HID_PARSER_Private_Macros
  65:./Libraries/STM32_USB_Host_Library/Class/HID/Src/usbh_hid_parser.c ****   * @{
  66:./Libraries/STM32_USB_Host_Library/Class/HID/Src/usbh_hid_parser.c ****   */
  67:./Libraries/STM32_USB_Host_Library/Class/HID/Src/usbh_hid_parser.c **** /**
  68:./Libraries/STM32_USB_Host_Library/Class/HID/Src/usbh_hid_parser.c ****   * @}
  69:./Libraries/STM32_USB_Host_Library/Class/HID/Src/usbh_hid_parser.c ****   */
  70:./Libraries/STM32_USB_Host_Library/Class/HID/Src/usbh_hid_parser.c **** 
  71:./Libraries/STM32_USB_Host_Library/Class/HID/Src/usbh_hid_parser.c **** /** @defgroup USBH_HID_PARSER_Private_FunctionPrototypes
  72:./Libraries/STM32_USB_Host_Library/Class/HID/Src/usbh_hid_parser.c ****   * @{
  73:./Libraries/STM32_USB_Host_Library/Class/HID/Src/usbh_hid_parser.c ****   */
  74:./Libraries/STM32_USB_Host_Library/Class/HID/Src/usbh_hid_parser.c **** 
  75:./Libraries/STM32_USB_Host_Library/Class/HID/Src/usbh_hid_parser.c **** /**
  76:./Libraries/STM32_USB_Host_Library/Class/HID/Src/usbh_hid_parser.c ****   * @}
  77:./Libraries/STM32_USB_Host_Library/Class/HID/Src/usbh_hid_parser.c ****   */
  78:./Libraries/STM32_USB_Host_Library/Class/HID/Src/usbh_hid_parser.c **** 
  79:./Libraries/STM32_USB_Host_Library/Class/HID/Src/usbh_hid_parser.c **** 
  80:./Libraries/STM32_USB_Host_Library/Class/HID/Src/usbh_hid_parser.c **** /** @defgroup USBH_HID_PARSER_Private_Variables
  81:./Libraries/STM32_USB_Host_Library/Class/HID/Src/usbh_hid_parser.c ****   * @{
  82:./Libraries/STM32_USB_Host_Library/Class/HID/Src/usbh_hid_parser.c ****   */
  83:./Libraries/STM32_USB_Host_Library/Class/HID/Src/usbh_hid_parser.c **** 
  84:./Libraries/STM32_USB_Host_Library/Class/HID/Src/usbh_hid_parser.c **** /**
  85:./Libraries/STM32_USB_Host_Library/Class/HID/Src/usbh_hid_parser.c ****   * @}
  86:./Libraries/STM32_USB_Host_Library/Class/HID/Src/usbh_hid_parser.c ****   */
ARM GAS  /tmp/ccHaU3Re.s 			page 3


  87:./Libraries/STM32_USB_Host_Library/Class/HID/Src/usbh_hid_parser.c **** 
  88:./Libraries/STM32_USB_Host_Library/Class/HID/Src/usbh_hid_parser.c **** 
  89:./Libraries/STM32_USB_Host_Library/Class/HID/Src/usbh_hid_parser.c **** /** @defgroup USBH_HID_PARSER_Private_Functions
  90:./Libraries/STM32_USB_Host_Library/Class/HID/Src/usbh_hid_parser.c ****   * @{
  91:./Libraries/STM32_USB_Host_Library/Class/HID/Src/usbh_hid_parser.c ****   */
  92:./Libraries/STM32_USB_Host_Library/Class/HID/Src/usbh_hid_parser.c **** 
  93:./Libraries/STM32_USB_Host_Library/Class/HID/Src/usbh_hid_parser.c **** /**
  94:./Libraries/STM32_USB_Host_Library/Class/HID/Src/usbh_hid_parser.c ****   * @brief  HID_ReadItem
  95:./Libraries/STM32_USB_Host_Library/Class/HID/Src/usbh_hid_parser.c ****   *         The function read a report item.
  96:./Libraries/STM32_USB_Host_Library/Class/HID/Src/usbh_hid_parser.c ****   * @param  ri: report item
  97:./Libraries/STM32_USB_Host_Library/Class/HID/Src/usbh_hid_parser.c ****   * @param  ndx: report index
  98:./Libraries/STM32_USB_Host_Library/Class/HID/Src/usbh_hid_parser.c **** * @retval status (0 : fail / otherwise: item value)
  99:./Libraries/STM32_USB_Host_Library/Class/HID/Src/usbh_hid_parser.c ****   */
 100:./Libraries/STM32_USB_Host_Library/Class/HID/Src/usbh_hid_parser.c **** uint32_t HID_ReadItem(HID_Report_ItemTypedef *ri, uint8_t ndx)
 101:./Libraries/STM32_USB_Host_Library/Class/HID/Src/usbh_hid_parser.c **** {
  30              		.loc 1 101 1 view -0
  31              		.cfi_startproc
  32              		@ args = 0, pretend = 0, frame = 0
  33              		@ frame_needed = 0, uses_anonymous_args = 0
  34              		@ link register save eliminated.
 102:./Libraries/STM32_USB_Host_Library/Class/HID/Src/usbh_hid_parser.c ****   uint32_t val = 0U;
  35              		.loc 1 102 3 view .LVU1
 103:./Libraries/STM32_USB_Host_Library/Class/HID/Src/usbh_hid_parser.c ****   uint32_t x = 0U;
  36              		.loc 1 103 3 view .LVU2
 104:./Libraries/STM32_USB_Host_Library/Class/HID/Src/usbh_hid_parser.c ****   uint32_t bofs;
  37              		.loc 1 104 3 view .LVU3
 105:./Libraries/STM32_USB_Host_Library/Class/HID/Src/usbh_hid_parser.c ****   uint8_t *data = ri->data;
  38              		.loc 1 105 3 view .LVU4
 101:./Libraries/STM32_USB_Host_Library/Class/HID/Src/usbh_hid_parser.c ****   uint32_t val = 0U;
  39              		.loc 1 101 1 is_stmt 0 view .LVU5
  40 0000 F0B4     		push	{r4, r5, r6, r7}
  41              	.LCFI0:
  42              		.cfi_def_cfa_offset 16
  43              		.cfi_offset 4, -16
  44              		.cfi_offset 5, -12
  45              		.cfi_offset 6, -8
  46              		.cfi_offset 7, -4
 106:./Libraries/STM32_USB_Host_Library/Class/HID/Src/usbh_hid_parser.c ****   uint8_t shift = ri->shift;
 107:./Libraries/STM32_USB_Host_Library/Class/HID/Src/usbh_hid_parser.c **** 
 108:./Libraries/STM32_USB_Host_Library/Class/HID/Src/usbh_hid_parser.c ****   /* get the logical value of the item */
 109:./Libraries/STM32_USB_Host_Library/Class/HID/Src/usbh_hid_parser.c **** 
 110:./Libraries/STM32_USB_Host_Library/Class/HID/Src/usbh_hid_parser.c ****   /* if this is an array, wee may need to offset ri->data.*/
 111:./Libraries/STM32_USB_Host_Library/Class/HID/Src/usbh_hid_parser.c ****   if (ri->count > 0U)
  47              		.loc 1 111 9 view .LVU6
  48 0002 437A     		ldrb	r3, [r0, #9]	@ zero_extendqisi2
 105:./Libraries/STM32_USB_Host_Library/Class/HID/Src/usbh_hid_parser.c ****   uint8_t shift = ri->shift;
  49              		.loc 1 105 12 view .LVU7
  50 0004 0568     		ldr	r5, [r0]
  51              	.LVL1:
 106:./Libraries/STM32_USB_Host_Library/Class/HID/Src/usbh_hid_parser.c ****   uint8_t shift = ri->shift;
  52              		.loc 1 106 3 is_stmt 1 view .LVU8
 106:./Libraries/STM32_USB_Host_Library/Class/HID/Src/usbh_hid_parser.c ****   uint8_t shift = ri->shift;
  53              		.loc 1 106 11 is_stmt 0 view .LVU9
  54 0006 077A     		ldrb	r7, [r0, #8]	@ zero_extendqisi2
  55              	.LVL2:
  56              		.loc 1 111 3 is_stmt 1 view .LVU10
  57              		.loc 1 111 6 is_stmt 0 view .LVU11
ARM GAS  /tmp/ccHaU3Re.s 			page 4


  58 0008 002B     		cmp	r3, #0
  59 000a 36D1     		bne	.L2
  60 000c 4668     		ldr	r6, [r0, #4]
  61              	.LVL3:
  62              	.L3:
 112:./Libraries/STM32_USB_Host_Library/Class/HID/Src/usbh_hid_parser.c ****   {
 113:./Libraries/STM32_USB_Host_Library/Class/HID/Src/usbh_hid_parser.c ****     /* If app tries to read outside of the array. */
 114:./Libraries/STM32_USB_Host_Library/Class/HID/Src/usbh_hid_parser.c ****     if (ri->count <= ndx)
 115:./Libraries/STM32_USB_Host_Library/Class/HID/Src/usbh_hid_parser.c ****     {
 116:./Libraries/STM32_USB_Host_Library/Class/HID/Src/usbh_hid_parser.c ****       return (0U);
 117:./Libraries/STM32_USB_Host_Library/Class/HID/Src/usbh_hid_parser.c ****     }
 118:./Libraries/STM32_USB_Host_Library/Class/HID/Src/usbh_hid_parser.c **** 
 119:./Libraries/STM32_USB_Host_Library/Class/HID/Src/usbh_hid_parser.c ****     /* calculate bit offset */
 120:./Libraries/STM32_USB_Host_Library/Class/HID/Src/usbh_hid_parser.c ****     bofs = ndx * ri->size;
 121:./Libraries/STM32_USB_Host_Library/Class/HID/Src/usbh_hid_parser.c ****     bofs += shift;
 122:./Libraries/STM32_USB_Host_Library/Class/HID/Src/usbh_hid_parser.c ****     /* calculate byte offset + shift pair from bit offset. */
 123:./Libraries/STM32_USB_Host_Library/Class/HID/Src/usbh_hid_parser.c ****     data += bofs / 8U;
 124:./Libraries/STM32_USB_Host_Library/Class/HID/Src/usbh_hid_parser.c ****     shift = (uint8_t)(bofs % 8U);
 125:./Libraries/STM32_USB_Host_Library/Class/HID/Src/usbh_hid_parser.c ****   }
 126:./Libraries/STM32_USB_Host_Library/Class/HID/Src/usbh_hid_parser.c ****   /* read data bytes in little endian order */
 127:./Libraries/STM32_USB_Host_Library/Class/HID/Src/usbh_hid_parser.c ****   for (x = 0U; x < ((ri->size & 0x7U) ? (ri->size / 8U) + 1U : (ri->size / 8U)); x++)
  63              		.loc 1 127 3 is_stmt 1 view .LVU12
  64              		.loc 1 127 62 is_stmt 0 view .LVU13
  65 000e F408     		lsrs	r4, r6, #3
  66 0010 16F0070F 		tst	r6, #7
  67              		.loc 1 127 10 view .LVU14
  68 0014 4FF00003 		mov	r3, #0
  69              		.loc 1 127 62 view .LVU15
  70 0018 04F10101 		add	r1, r4, #1
 102:./Libraries/STM32_USB_Host_Library/Class/HID/Src/usbh_hid_parser.c ****   uint32_t x = 0U;
  71              		.loc 1 102 12 view .LVU16
  72 001c 1A46     		mov	r2, r3
  73 001e 18BF     		it	ne
  74 0020 0C46     		movne	r4, r1
  75              		.loc 1 127 3 view .LVU17
  76 0022 01E0     		b	.L5
  77              	.LVL4:
  78              	.L6:
 128:./Libraries/STM32_USB_Host_Library/Class/HID/Src/usbh_hid_parser.c ****   {
 129:./Libraries/STM32_USB_Host_Library/Class/HID/Src/usbh_hid_parser.c ****     val = (uint32_t)((uint32_t)(*data) << (x * 8U));
  79              		.loc 1 129 22 discriminator 7 view .LVU18
  80 0024 2A78     		ldrb	r2, [r5]	@ zero_extendqisi2
  81              		.loc 1 129 9 discriminator 7 view .LVU19
  82 0026 8A40     		lsls	r2, r2, r1
  83              	.LVL5:
 127:./Libraries/STM32_USB_Host_Library/Class/HID/Src/usbh_hid_parser.c ****   {
  84              		.loc 1 127 82 is_stmt 1 discriminator 7 view .LVU20
  85              	.L5:
  86              		.loc 1 129 5 discriminator 1 view .LVU21
 127:./Libraries/STM32_USB_Host_Library/Class/HID/Src/usbh_hid_parser.c ****   {
  87              		.loc 1 127 16 discriminator 1 view .LVU22
 127:./Libraries/STM32_USB_Host_Library/Class/HID/Src/usbh_hid_parser.c ****   {
  88              		.loc 1 127 3 is_stmt 0 discriminator 1 view .LVU23
  89 0028 A342     		cmp	r3, r4
  90              		.loc 1 129 9 discriminator 1 view .LVU24
  91 002a 4FEAC301 		lsl	r1, r3, #3
 127:./Libraries/STM32_USB_Host_Library/Class/HID/Src/usbh_hid_parser.c ****   {
ARM GAS  /tmp/ccHaU3Re.s 			page 5


  92              		.loc 1 127 83 discriminator 1 view .LVU25
  93 002e 03F10103 		add	r3, r3, #1
  94              	.LVL6:
 127:./Libraries/STM32_USB_Host_Library/Class/HID/Src/usbh_hid_parser.c ****   {
  95              		.loc 1 127 3 discriminator 1 view .LVU26
  96 0032 F7D1     		bne	.L6
 130:./Libraries/STM32_USB_Host_Library/Class/HID/Src/usbh_hid_parser.c ****   }
 131:./Libraries/STM32_USB_Host_Library/Class/HID/Src/usbh_hid_parser.c ****   val = (val >> shift) & ((1U << ri->size) - 1U);
  97              		.loc 1 131 3 is_stmt 1 view .LVU27
  98              		.loc 1 131 7 is_stmt 0 view .LVU28
  99 0034 4FF0FF33 		mov	r3, #-1
 100              	.LVL7:
 101              		.loc 1 131 14 view .LVU29
 102 0038 FA40     		lsrs	r2, r2, r7
 132:./Libraries/STM32_USB_Host_Library/Class/HID/Src/usbh_hid_parser.c **** 
 133:./Libraries/STM32_USB_Host_Library/Class/HID/Src/usbh_hid_parser.c ****   if (val < ri->logical_min || val > ri->logical_max)
 103              		.loc 1 133 6 view .LVU30
 104 003a C168     		ldr	r1, [r0, #12]
 131:./Libraries/STM32_USB_Host_Library/Class/HID/Src/usbh_hid_parser.c **** 
 105              		.loc 1 131 7 view .LVU31
 106 003c B340     		lsls	r3, r3, r6
 107 003e 22EA0302 		bic	r2, r2, r3
 108              	.LVL8:
 109              		.loc 1 133 3 is_stmt 1 view .LVU32
 110              		.loc 1 133 6 is_stmt 0 view .LVU33
 111 0042 9142     		cmp	r1, r2
 112 0044 11D8     		bhi	.L10
 113              		.loc 1 133 29 discriminator 1 view .LVU34
 114 0046 0369     		ldr	r3, [r0, #16]
 115 0048 9342     		cmp	r3, r2
 116 004a 0ED3     		bcc	.L10
 134:./Libraries/STM32_USB_Host_Library/Class/HID/Src/usbh_hid_parser.c ****   {
 135:./Libraries/STM32_USB_Host_Library/Class/HID/Src/usbh_hid_parser.c ****     return (0U);
 136:./Libraries/STM32_USB_Host_Library/Class/HID/Src/usbh_hid_parser.c ****   }
 137:./Libraries/STM32_USB_Host_Library/Class/HID/Src/usbh_hid_parser.c **** 
 138:./Libraries/STM32_USB_Host_Library/Class/HID/Src/usbh_hid_parser.c ****   /* convert logical value to physical value */
 139:./Libraries/STM32_USB_Host_Library/Class/HID/Src/usbh_hid_parser.c ****   /* See if the number is negative or not. */
 140:./Libraries/STM32_USB_Host_Library/Class/HID/Src/usbh_hid_parser.c ****   if ((ri->sign) && (val & (1U << (ri->size - 1U))))
 117              		.loc 1 140 3 is_stmt 1 view .LVU35
 118              		.loc 1 140 6 is_stmt 0 view .LVU36
 119 004c 837A     		ldrb	r3, [r0, #10]	@ zero_extendqisi2
 120 004e 7BB1     		cbz	r3, .L7
 121              		.loc 1 140 45 discriminator 1 view .LVU37
 122 0050 711E     		subs	r1, r6, #1
 123              		.loc 1 140 32 discriminator 1 view .LVU38
 124 0052 0123     		movs	r3, #1
 125 0054 03FA01F1 		lsl	r1, r3, r1
 126              		.loc 1 140 18 discriminator 1 view .LVU39
 127 0058 1142     		tst	r1, r2
 128 005a 09D0     		beq	.L7
 129              	.LBB2:
 141:./Libraries/STM32_USB_Host_Library/Class/HID/Src/usbh_hid_parser.c ****   {
 142:./Libraries/STM32_USB_Host_Library/Class/HID/Src/usbh_hid_parser.c ****     /* yes, so sign extend value to 32 bits. */
 143:./Libraries/STM32_USB_Host_Library/Class/HID/Src/usbh_hid_parser.c ****     uint32_t vs = (uint32_t)((0xffffffffU & ~((1U << (ri->size)) - 1U)) | val);
 130              		.loc 1 143 5 is_stmt 1 view .LVU40
 131              	.LVL9:
 144:./Libraries/STM32_USB_Host_Library/Class/HID/Src/usbh_hid_parser.c **** 
ARM GAS  /tmp/ccHaU3Re.s 			page 6


 145:./Libraries/STM32_USB_Host_Library/Class/HID/Src/usbh_hid_parser.c ****     if (ri->resolution == 1U)
 132              		.loc 1 145 5 view .LVU41
 133              	.LBE2:
 131:./Libraries/STM32_USB_Host_Library/Class/HID/Src/usbh_hid_parser.c **** 
 134              		.loc 1 131 31 is_stmt 0 view .LVU42
 135 005c B340     		lsls	r3, r3, r6
 136              	.LBB3:
 146:./Libraries/STM32_USB_Host_Library/Class/HID/Src/usbh_hid_parser.c ****     {
 147:./Libraries/STM32_USB_Host_Library/Class/HID/Src/usbh_hid_parser.c ****       return ((uint32_t)vs);
 148:./Libraries/STM32_USB_Host_Library/Class/HID/Src/usbh_hid_parser.c ****     }
 149:./Libraries/STM32_USB_Host_Library/Class/HID/Src/usbh_hid_parser.c ****     return ((uint32_t)(vs * ri->resolution));
 137              		.loc 1 149 13 view .LVU43
 138 005e C069     		ldr	r0, [r0, #28]
 139              	.LVL10:
 143:./Libraries/STM32_USB_Host_Library/Class/HID/Src/usbh_hid_parser.c **** 
 140              		.loc 1 143 43 view .LVU44
 141 0060 5B42     		rsbs	r3, r3, #0
 143:./Libraries/STM32_USB_Host_Library/Class/HID/Src/usbh_hid_parser.c **** 
 142              		.loc 1 143 14 view .LVU45
 143 0062 1A43     		orrs	r2, r2, r3
 144              	.LVL11:
 145              		.loc 1 149 13 view .LVU46
 146 0064 00FB02F0 		mul	r0, r0, r2
 147 0068 00E0     		b	.L1
 148              	.LVL12:
 149              	.L10:
 150              		.loc 1 149 13 view .LVU47
 151              	.LBE3:
 116:./Libraries/STM32_USB_Host_Library/Class/HID/Src/usbh_hid_parser.c ****     }
 152              		.loc 1 116 14 view .LVU48
 153 006a 0020     		movs	r0, #0
 154              	.LVL13:
 155              	.L1:
 150:./Libraries/STM32_USB_Host_Library/Class/HID/Src/usbh_hid_parser.c ****   }
 151:./Libraries/STM32_USB_Host_Library/Class/HID/Src/usbh_hid_parser.c ****   else
 152:./Libraries/STM32_USB_Host_Library/Class/HID/Src/usbh_hid_parser.c ****   {
 153:./Libraries/STM32_USB_Host_Library/Class/HID/Src/usbh_hid_parser.c ****     if (ri->resolution == 1U)
 154:./Libraries/STM32_USB_Host_Library/Class/HID/Src/usbh_hid_parser.c ****     {
 155:./Libraries/STM32_USB_Host_Library/Class/HID/Src/usbh_hid_parser.c ****       return (val);
 156:./Libraries/STM32_USB_Host_Library/Class/HID/Src/usbh_hid_parser.c ****     }
 157:./Libraries/STM32_USB_Host_Library/Class/HID/Src/usbh_hid_parser.c ****     return (val * ri->resolution);
 158:./Libraries/STM32_USB_Host_Library/Class/HID/Src/usbh_hid_parser.c ****   }
 159:./Libraries/STM32_USB_Host_Library/Class/HID/Src/usbh_hid_parser.c **** }
 156              		.loc 1 159 1 view .LVU49
 157 006c F0BC     		pop	{r4, r5, r6, r7}
 158              	.LCFI1:
 159              		.cfi_remember_state
 160              		.cfi_restore 7
 161              		.cfi_restore 6
 162              		.cfi_restore 5
 163              		.cfi_restore 4
 164              		.cfi_def_cfa_offset 0
 165              	.LVL14:
 166              		.loc 1 159 1 view .LVU50
 167 006e 7047     		bx	lr
 168              	.LVL15:
 169              	.L7:
ARM GAS  /tmp/ccHaU3Re.s 			page 7


 170              	.LCFI2:
 171              		.cfi_restore_state
 153:./Libraries/STM32_USB_Host_Library/Class/HID/Src/usbh_hid_parser.c ****     {
 172              		.loc 1 153 5 is_stmt 1 view .LVU51
 157:./Libraries/STM32_USB_Host_Library/Class/HID/Src/usbh_hid_parser.c ****   }
 173              		.loc 1 157 17 is_stmt 0 view .LVU52
 174 0070 C069     		ldr	r0, [r0, #28]
 175              	.LVL16:
 176              		.loc 1 159 1 view .LVU53
 177 0072 F0BC     		pop	{r4, r5, r6, r7}
 178              	.LCFI3:
 179              		.cfi_remember_state
 180              		.cfi_restore 7
 181              		.cfi_restore 6
 182              		.cfi_restore 5
 183              		.cfi_restore 4
 184              		.cfi_def_cfa_offset 0
 185              	.LVL17:
 157:./Libraries/STM32_USB_Host_Library/Class/HID/Src/usbh_hid_parser.c ****   }
 186              		.loc 1 157 17 view .LVU54
 187 0074 00FB02F0 		mul	r0, r0, r2
 188              		.loc 1 159 1 view .LVU55
 189 0078 7047     		bx	lr
 190              	.LVL18:
 191              	.L2:
 192              	.LCFI4:
 193              		.cfi_restore_state
 114:./Libraries/STM32_USB_Host_Library/Class/HID/Src/usbh_hid_parser.c ****     {
 194              		.loc 1 114 5 is_stmt 1 view .LVU56
 114:./Libraries/STM32_USB_Host_Library/Class/HID/Src/usbh_hid_parser.c ****     {
 195              		.loc 1 114 8 is_stmt 0 view .LVU57
 196 007a 8B42     		cmp	r3, r1
 197 007c F5D9     		bls	.L10
 120:./Libraries/STM32_USB_Host_Library/Class/HID/Src/usbh_hid_parser.c ****     bofs += shift;
 198              		.loc 1 120 5 is_stmt 1 view .LVU58
 120:./Libraries/STM32_USB_Host_Library/Class/HID/Src/usbh_hid_parser.c ****     bofs += shift;
 199              		.loc 1 120 20 is_stmt 0 view .LVU59
 200 007e 4668     		ldr	r6, [r0, #4]
 201              	.LVL19:
 121:./Libraries/STM32_USB_Host_Library/Class/HID/Src/usbh_hid_parser.c ****     /* calculate byte offset + shift pair from bit offset. */
 202              		.loc 1 121 5 is_stmt 1 view .LVU60
 121:./Libraries/STM32_USB_Host_Library/Class/HID/Src/usbh_hid_parser.c ****     /* calculate byte offset + shift pair from bit offset. */
 203              		.loc 1 121 10 is_stmt 0 view .LVU61
 204 0080 06FB0171 		mla	r1, r6, r1, r7
 205              	.LVL20:
 123:./Libraries/STM32_USB_Host_Library/Class/HID/Src/usbh_hid_parser.c ****     shift = (uint8_t)(bofs % 8U);
 206              		.loc 1 123 5 is_stmt 1 view .LVU62
 123:./Libraries/STM32_USB_Host_Library/Class/HID/Src/usbh_hid_parser.c ****     shift = (uint8_t)(bofs % 8U);
 207              		.loc 1 123 10 is_stmt 0 view .LVU63
 208 0084 05EBD105 		add	r5, r5, r1, lsr #3
 209              	.LVL21:
 124:./Libraries/STM32_USB_Host_Library/Class/HID/Src/usbh_hid_parser.c ****   }
 210              		.loc 1 124 5 is_stmt 1 view .LVU64
 124:./Libraries/STM32_USB_Host_Library/Class/HID/Src/usbh_hid_parser.c ****   }
 211              		.loc 1 124 11 is_stmt 0 view .LVU65
 212 0088 01F00707 		and	r7, r1, #7
 213              	.LVL22:
ARM GAS  /tmp/ccHaU3Re.s 			page 8


 124:./Libraries/STM32_USB_Host_Library/Class/HID/Src/usbh_hid_parser.c ****   }
 214              		.loc 1 124 11 view .LVU66
 215 008c BFE7     		b	.L3
 216              		.cfi_endproc
 217              	.LFE338:
 219 008e 00BF     		.section	.text.HID_WriteItem,"ax",%progbits
 220              		.align	1
 221              		.p2align 2,,3
 222              		.global	HID_WriteItem
 223              		.syntax unified
 224              		.thumb
 225              		.thumb_func
 226              		.fpu fpv5-d16
 228              	HID_WriteItem:
 229              	.LVL23:
 230              	.LFB339:
 160:./Libraries/STM32_USB_Host_Library/Class/HID/Src/usbh_hid_parser.c **** 
 161:./Libraries/STM32_USB_Host_Library/Class/HID/Src/usbh_hid_parser.c **** /**
 162:./Libraries/STM32_USB_Host_Library/Class/HID/Src/usbh_hid_parser.c ****   * @brief  HID_WriteItem
 163:./Libraries/STM32_USB_Host_Library/Class/HID/Src/usbh_hid_parser.c ****   *         The function write a report item.
 164:./Libraries/STM32_USB_Host_Library/Class/HID/Src/usbh_hid_parser.c ****   * @param  ri: report item
 165:./Libraries/STM32_USB_Host_Library/Class/HID/Src/usbh_hid_parser.c ****   * @param  ndx: report index
 166:./Libraries/STM32_USB_Host_Library/Class/HID/Src/usbh_hid_parser.c ****   * @retval status (1: fail/ 0 : Ok)
 167:./Libraries/STM32_USB_Host_Library/Class/HID/Src/usbh_hid_parser.c ****   */
 168:./Libraries/STM32_USB_Host_Library/Class/HID/Src/usbh_hid_parser.c **** uint32_t HID_WriteItem(HID_Report_ItemTypedef *ri, uint32_t value, uint8_t ndx)
 169:./Libraries/STM32_USB_Host_Library/Class/HID/Src/usbh_hid_parser.c **** {
 231              		.loc 1 169 1 is_stmt 1 view -0
 232              		.cfi_startproc
 233              		@ args = 0, pretend = 0, frame = 0
 234              		@ frame_needed = 0, uses_anonymous_args = 0
 235              		@ link register save eliminated.
 170:./Libraries/STM32_USB_Host_Library/Class/HID/Src/usbh_hid_parser.c ****   uint32_t x;
 236              		.loc 1 170 3 view .LVU68
 171:./Libraries/STM32_USB_Host_Library/Class/HID/Src/usbh_hid_parser.c ****   uint32_t mask;
 237              		.loc 1 171 3 view .LVU69
 172:./Libraries/STM32_USB_Host_Library/Class/HID/Src/usbh_hid_parser.c ****   uint32_t bofs;
 238              		.loc 1 172 3 view .LVU70
 173:./Libraries/STM32_USB_Host_Library/Class/HID/Src/usbh_hid_parser.c ****   uint8_t *data = ri->data;
 239              		.loc 1 173 3 view .LVU71
 174:./Libraries/STM32_USB_Host_Library/Class/HID/Src/usbh_hid_parser.c ****   uint8_t shift = ri->shift;
 240              		.loc 1 174 3 view .LVU72
 175:./Libraries/STM32_USB_Host_Library/Class/HID/Src/usbh_hid_parser.c **** 
 176:./Libraries/STM32_USB_Host_Library/Class/HID/Src/usbh_hid_parser.c ****   if (value < ri->physical_min || value > ri->physical_max)
 241              		.loc 1 176 3 view .LVU73
 242              		.loc 1 176 6 is_stmt 0 view .LVU74
 243 0000 4369     		ldr	r3, [r0, #20]
 244 0002 8B42     		cmp	r3, r1
 245 0004 2BD8     		bhi	.L30
 246              		.loc 1 176 32 discriminator 1 view .LVU75
 247 0006 8369     		ldr	r3, [r0, #24]
 248 0008 8B42     		cmp	r3, r1
 249 000a 28D3     		bcc	.L30
 169:./Libraries/STM32_USB_Host_Library/Class/HID/Src/usbh_hid_parser.c ****   uint32_t x;
 250              		.loc 1 169 1 view .LVU76
 251 000c F0B4     		push	{r4, r5, r6, r7}
 252              	.LCFI5:
 253              		.cfi_def_cfa_offset 16
ARM GAS  /tmp/ccHaU3Re.s 			page 9


 254              		.cfi_offset 4, -16
 255              		.cfi_offset 5, -12
 256              		.cfi_offset 6, -8
 257              		.cfi_offset 7, -4
 177:./Libraries/STM32_USB_Host_Library/Class/HID/Src/usbh_hid_parser.c ****   {
 178:./Libraries/STM32_USB_Host_Library/Class/HID/Src/usbh_hid_parser.c ****     return (1U);
 179:./Libraries/STM32_USB_Host_Library/Class/HID/Src/usbh_hid_parser.c ****   }
 180:./Libraries/STM32_USB_Host_Library/Class/HID/Src/usbh_hid_parser.c **** 
 181:./Libraries/STM32_USB_Host_Library/Class/HID/Src/usbh_hid_parser.c ****   /* if this is an array, wee may need to offset ri->data.*/
 182:./Libraries/STM32_USB_Host_Library/Class/HID/Src/usbh_hid_parser.c ****   if (ri->count > 0U)
 258              		.loc 1 182 9 view .LVU77
 259 000e 437A     		ldrb	r3, [r0, #9]	@ zero_extendqisi2
 174:./Libraries/STM32_USB_Host_Library/Class/HID/Src/usbh_hid_parser.c **** 
 260              		.loc 1 174 11 view .LVU78
 261 0010 047A     		ldrb	r4, [r0, #8]	@ zero_extendqisi2
 262              		.loc 1 182 3 is_stmt 1 view .LVU79
 263              		.loc 1 182 6 is_stmt 0 view .LVU80
 264 0012 33BB     		cbnz	r3, .L21
 265 0014 4368     		ldr	r3, [r0, #4]
 266              	.LVL24:
 267              	.L22:
 183:./Libraries/STM32_USB_Host_Library/Class/HID/Src/usbh_hid_parser.c ****   {
 184:./Libraries/STM32_USB_Host_Library/Class/HID/Src/usbh_hid_parser.c ****     /* If app tries to read outside of the array. */
 185:./Libraries/STM32_USB_Host_Library/Class/HID/Src/usbh_hid_parser.c ****     if (ri->count >= ndx)
 186:./Libraries/STM32_USB_Host_Library/Class/HID/Src/usbh_hid_parser.c ****     {
 187:./Libraries/STM32_USB_Host_Library/Class/HID/Src/usbh_hid_parser.c ****       return (0U);
 188:./Libraries/STM32_USB_Host_Library/Class/HID/Src/usbh_hid_parser.c ****     }
 189:./Libraries/STM32_USB_Host_Library/Class/HID/Src/usbh_hid_parser.c ****     /* calculate bit offset */
 190:./Libraries/STM32_USB_Host_Library/Class/HID/Src/usbh_hid_parser.c ****     bofs = ndx * ri->size;
 191:./Libraries/STM32_USB_Host_Library/Class/HID/Src/usbh_hid_parser.c ****     bofs += shift;
 192:./Libraries/STM32_USB_Host_Library/Class/HID/Src/usbh_hid_parser.c ****     /* calculate byte offset + shift pair from bit offset. */
 193:./Libraries/STM32_USB_Host_Library/Class/HID/Src/usbh_hid_parser.c ****     data += bofs / 8U;
 194:./Libraries/STM32_USB_Host_Library/Class/HID/Src/usbh_hid_parser.c ****     shift = (uint8_t)(bofs % 8U);
 195:./Libraries/STM32_USB_Host_Library/Class/HID/Src/usbh_hid_parser.c **** 
 196:./Libraries/STM32_USB_Host_Library/Class/HID/Src/usbh_hid_parser.c ****   }
 197:./Libraries/STM32_USB_Host_Library/Class/HID/Src/usbh_hid_parser.c **** 
 198:./Libraries/STM32_USB_Host_Library/Class/HID/Src/usbh_hid_parser.c ****   /* Convert physical value to logical value. */
 199:./Libraries/STM32_USB_Host_Library/Class/HID/Src/usbh_hid_parser.c ****   if (ri->resolution != 1U)
 268              		.loc 1 199 3 is_stmt 1 view .LVU81
 200:./Libraries/STM32_USB_Host_Library/Class/HID/Src/usbh_hid_parser.c ****   {
 201:./Libraries/STM32_USB_Host_Library/Class/HID/Src/usbh_hid_parser.c ****     value = value / ri->resolution;
 202:./Libraries/STM32_USB_Host_Library/Class/HID/Src/usbh_hid_parser.c ****   }
 203:./Libraries/STM32_USB_Host_Library/Class/HID/Src/usbh_hid_parser.c **** 
 204:./Libraries/STM32_USB_Host_Library/Class/HID/Src/usbh_hid_parser.c ****   /* Write logical value to report in little endian order. */
 205:./Libraries/STM32_USB_Host_Library/Class/HID/Src/usbh_hid_parser.c ****   mask = (1U << ri->size) - 1U;
 269              		.loc 1 205 3 view .LVU82
 270              		.loc 1 205 14 is_stmt 0 view .LVU83
 271 0016 0127     		movs	r7, #1
 201:./Libraries/STM32_USB_Host_Library/Class/HID/Src/usbh_hid_parser.c ****   }
 272              		.loc 1 201 11 view .LVU84
 273 0018 C569     		ldr	r5, [r0, #28]
 206:./Libraries/STM32_USB_Host_Library/Class/HID/Src/usbh_hid_parser.c ****   value = (value & mask) << shift;
 207:./Libraries/STM32_USB_Host_Library/Class/HID/Src/usbh_hid_parser.c **** 
 208:./Libraries/STM32_USB_Host_Library/Class/HID/Src/usbh_hid_parser.c ****   for (x = 0U; x < ((ri->size & 0x7U) ? (ri->size / 8U) + 1U : (ri->size / 8U)); x++)
 274              		.loc 1 208 10 view .LVU85
 275 001a 0022     		movs	r2, #0
 205:./Libraries/STM32_USB_Host_Library/Class/HID/Src/usbh_hid_parser.c ****   value = (value & mask) << shift;
ARM GAS  /tmp/ccHaU3Re.s 			page 10


 276              		.loc 1 205 14 view .LVU86
 277 001c 9F40     		lsls	r7, r7, r3
 201:./Libraries/STM32_USB_Host_Library/Class/HID/Src/usbh_hid_parser.c ****   }
 278              		.loc 1 201 11 view .LVU87
 279 001e B1FBF5F5 		udiv	r5, r1, r5
 280              	.LVL25:
 205:./Libraries/STM32_USB_Host_Library/Class/HID/Src/usbh_hid_parser.c ****   value = (value & mask) << shift;
 281              		.loc 1 205 8 view .LVU88
 282 0022 013F     		subs	r7, r7, #1
 283              	.LVL26:
 206:./Libraries/STM32_USB_Host_Library/Class/HID/Src/usbh_hid_parser.c ****   value = (value & mask) << shift;
 284              		.loc 1 206 3 is_stmt 1 view .LVU89
 206:./Libraries/STM32_USB_Host_Library/Class/HID/Src/usbh_hid_parser.c ****   value = (value & mask) << shift;
 285              		.loc 1 206 18 is_stmt 0 view .LVU90
 286 0024 3D40     		ands	r5, r5, r7
 287              	.LVL27:
 206:./Libraries/STM32_USB_Host_Library/Class/HID/Src/usbh_hid_parser.c ****   value = (value & mask) << shift;
 288              		.loc 1 206 9 view .LVU91
 289 0026 A540     		lsls	r5, r5, r4
 290              	.LVL28:
 291              		.loc 1 208 3 is_stmt 1 view .LVU92
 292              		.loc 1 208 3 is_stmt 0 view .LVU93
 293 0028 07E0     		b	.L24
 294              	.LVL29:
 295              	.L27:
 209:./Libraries/STM32_USB_Host_Library/Class/HID/Src/usbh_hid_parser.c ****   {
 210:./Libraries/STM32_USB_Host_Library/Class/HID/Src/usbh_hid_parser.c ****     *(ri->data + x) = (uint8_t)((*(ri->data + x) & ~(mask >> (x * 8U))) |
 296              		.loc 1 210 45 discriminator 7 view .LVU94
 297 002a 0668     		ldr	r6, [r0]
 298              		.loc 1 210 34 discriminator 7 view .LVU95
 299 002c B45C     		ldrb	r4, [r6, r2]	@ zero_extendqisi2
 300              		.loc 1 210 23 discriminator 7 view .LVU96
 301 002e 6140     		eors	r1, r1, r4
 302 0030 0B40     		ands	r3, r3, r1
 303 0032 6340     		eors	r3, r3, r4
 304              		.loc 1 210 21 discriminator 7 view .LVU97
 305 0034 B354     		strb	r3, [r6, r2]
 208:./Libraries/STM32_USB_Host_Library/Class/HID/Src/usbh_hid_parser.c ****   {
 306              		.loc 1 208 82 is_stmt 1 discriminator 7 view .LVU98
 208:./Libraries/STM32_USB_Host_Library/Class/HID/Src/usbh_hid_parser.c ****   {
 307              		.loc 1 208 83 is_stmt 0 discriminator 7 view .LVU99
 308 0036 0132     		adds	r2, r2, #1
 309              	.LVL30:
 208:./Libraries/STM32_USB_Host_Library/Class/HID/Src/usbh_hid_parser.c ****   {
 310              		.loc 1 208 83 discriminator 7 view .LVU100
 311 0038 4368     		ldr	r3, [r0, #4]
 312              	.LVL31:
 313              	.L24:
 208:./Libraries/STM32_USB_Host_Library/Class/HID/Src/usbh_hid_parser.c ****   {
 314              		.loc 1 208 16 is_stmt 1 discriminator 1 view .LVU101
 208:./Libraries/STM32_USB_Host_Library/Class/HID/Src/usbh_hid_parser.c ****   {
 315              		.loc 1 208 62 is_stmt 0 discriminator 1 view .LVU102
 316 003a 13F0070F 		tst	r3, #7
 208:./Libraries/STM32_USB_Host_Library/Class/HID/Src/usbh_hid_parser.c ****   {
 317              		.loc 1 208 51 discriminator 1 view .LVU103
 318 003e 4FEAD304 		lsr	r4, r3, #3
 319 0042 4FEAC203 		lsl	r3, r2, #3
ARM GAS  /tmp/ccHaU3Re.s 			page 11


 208:./Libraries/STM32_USB_Host_Library/Class/HID/Src/usbh_hid_parser.c ****   {
 320              		.loc 1 208 62 discriminator 1 view .LVU104
 321 0046 2146     		mov	r1, r4
 322 0048 18BF     		it	ne
 323 004a 611C     		addne	r1, r4, #1
 324              		.loc 1 210 5 is_stmt 1 discriminator 1 view .LVU105
 208:./Libraries/STM32_USB_Host_Library/Class/HID/Src/usbh_hid_parser.c ****   {
 325              		.loc 1 208 3 is_stmt 0 discriminator 1 view .LVU106
 326 004c 8A42     		cmp	r2, r1
 211:./Libraries/STM32_USB_Host_Library/Class/HID/Src/usbh_hid_parser.c ****                                 ((value >> (x * 8U)) & (mask >> (x * 8U))));
 327              		.loc 1 211 41 discriminator 1 view .LVU107
 328 004e 25FA03F1 		lsr	r1, r5, r3
 210:./Libraries/STM32_USB_Host_Library/Class/HID/Src/usbh_hid_parser.c ****                                 ((value >> (x * 8U)) & (mask >> (x * 8U))));
 329              		.loc 1 210 59 discriminator 1 view .LVU108
 330 0052 27FA03F3 		lsr	r3, r7, r3
 208:./Libraries/STM32_USB_Host_Library/Class/HID/Src/usbh_hid_parser.c ****   {
 331              		.loc 1 208 3 discriminator 1 view .LVU109
 332 0056 E8D3     		bcc	.L27
 333              	.LVL32:
 334              	.L28:
 187:./Libraries/STM32_USB_Host_Library/Class/HID/Src/usbh_hid_parser.c ****     }
 335              		.loc 1 187 14 view .LVU110
 336 0058 0020     		movs	r0, #0
 337              	.LVL33:
 212:./Libraries/STM32_USB_Host_Library/Class/HID/Src/usbh_hid_parser.c ****   }
 213:./Libraries/STM32_USB_Host_Library/Class/HID/Src/usbh_hid_parser.c **** 
 214:./Libraries/STM32_USB_Host_Library/Class/HID/Src/usbh_hid_parser.c ****   return 0U;
 215:./Libraries/STM32_USB_Host_Library/Class/HID/Src/usbh_hid_parser.c **** }
 338              		.loc 1 215 1 view .LVU111
 339 005a F0BC     		pop	{r4, r5, r6, r7}
 340              	.LCFI6:
 341              		.cfi_restore 7
 342              		.cfi_restore 6
 343              		.cfi_restore 5
 344              		.cfi_restore 4
 345              		.cfi_def_cfa_offset 0
 346 005c 7047     		bx	lr
 347              	.LVL34:
 348              	.L30:
 178:./Libraries/STM32_USB_Host_Library/Class/HID/Src/usbh_hid_parser.c ****   }
 349              		.loc 1 178 12 view .LVU112
 350 005e 0120     		movs	r0, #1
 351              	.LVL35:
 352              		.loc 1 215 1 view .LVU113
 353 0060 7047     		bx	lr
 354              	.LVL36:
 355              	.L21:
 356              	.LCFI7:
 357              		.cfi_def_cfa_offset 16
 358              		.cfi_offset 4, -16
 359              		.cfi_offset 5, -12
 360              		.cfi_offset 6, -8
 361              		.cfi_offset 7, -4
 185:./Libraries/STM32_USB_Host_Library/Class/HID/Src/usbh_hid_parser.c ****     {
 362              		.loc 1 185 5 is_stmt 1 view .LVU114
 185:./Libraries/STM32_USB_Host_Library/Class/HID/Src/usbh_hid_parser.c ****     {
 363              		.loc 1 185 8 is_stmt 0 view .LVU115
ARM GAS  /tmp/ccHaU3Re.s 			page 12


 364 0062 9342     		cmp	r3, r2
 365 0064 F8D2     		bcs	.L28
 190:./Libraries/STM32_USB_Host_Library/Class/HID/Src/usbh_hid_parser.c ****     bofs += shift;
 366              		.loc 1 190 5 is_stmt 1 view .LVU116
 190:./Libraries/STM32_USB_Host_Library/Class/HID/Src/usbh_hid_parser.c ****     bofs += shift;
 367              		.loc 1 190 20 is_stmt 0 view .LVU117
 368 0066 4368     		ldr	r3, [r0, #4]
 369              	.LVL37:
 191:./Libraries/STM32_USB_Host_Library/Class/HID/Src/usbh_hid_parser.c ****     /* calculate byte offset + shift pair from bit offset. */
 370              		.loc 1 191 5 is_stmt 1 view .LVU118
 193:./Libraries/STM32_USB_Host_Library/Class/HID/Src/usbh_hid_parser.c ****     shift = (uint8_t)(bofs % 8U);
 371              		.loc 1 193 5 view .LVU119
 194:./Libraries/STM32_USB_Host_Library/Class/HID/Src/usbh_hid_parser.c **** 
 372              		.loc 1 194 5 view .LVU120
 191:./Libraries/STM32_USB_Host_Library/Class/HID/Src/usbh_hid_parser.c ****     /* calculate byte offset + shift pair from bit offset. */
 373              		.loc 1 191 10 is_stmt 0 view .LVU121
 374 0068 03FB0242 		mla	r2, r3, r2, r4
 375              	.LVL38:
 194:./Libraries/STM32_USB_Host_Library/Class/HID/Src/usbh_hid_parser.c **** 
 376              		.loc 1 194 11 view .LVU122
 377 006c 02F00704 		and	r4, r2, #7
 378              	.LVL39:
 194:./Libraries/STM32_USB_Host_Library/Class/HID/Src/usbh_hid_parser.c **** 
 379              		.loc 1 194 11 view .LVU123
 380 0070 D1E7     		b	.L22
 381              		.cfi_endproc
 382              	.LFE339:
 384 0072 00BF     		.text
 385              	.Letext0:
 386              		.file 2 "/usr/lib/gcc/arm-none-eabi/9.2.1/include/stdint.h"
 387              		.file 3 "./Libraries/CMSIS/Core/Include/core_cm7.h"
 388              		.file 4 "./Libraries/CMSIS/Device/ST/STM32H7xx/Include/system_stm32h7xx.h"
 389              		.file 5 "/usr/lib/gcc/arm-none-eabi/9.2.1/include/stddef.h"
 390              		.file 6 "/usr/include/newlib/sys/_types.h"
 391              		.file 7 "/usr/include/newlib/sys/reent.h"
 392              		.file 8 "/usr/include/newlib/sys/lock.h"
 393              		.file 9 "/usr/include/newlib/math.h"
 394              		.file 10 "./Libraries/STM32H7xx_HAL_Driver/Inc/stm32h7xx_hal_def.h"
 395              		.file 11 "./Libraries/STM32H7xx_HAL_Driver/Inc/stm32h7xx_hal_flash.h"
 396              		.file 12 "./Libraries/STM32H7xx_HAL_Driver/Inc/stm32h7xx_hal_uart.h"
 397              		.file 13 "./Libraries/STM32H7xx_HAL_Driver/Inc/stm32h7xx_hal.h"
 398              		.file 14 "/usr/include/newlib/stdlib.h"
 399              		.file 15 "./Libraries/FreeRTOS/Source/CMSIS_RTOS/cmsis_os2.h"
 400              		.file 16 "./Libraries/STM32_USB_Host_Library/Core/Inc/usbh_def.h"
 401              		.file 17 "./Libraries/STM32_USB_Host_Library/Core/Inc/usbh_ctlreq.h"
 402              		.file 18 "./Libraries/STM32_USB_Host_Library/Class/HID/Inc/usbh_hid.h"
 403              		.file 19 "./Libraries/STM32_USB_Host_Library/Class/HID/Inc/usbh_hid_parser.h"
ARM GAS  /tmp/ccHaU3Re.s 			page 13

