ARM GAS  /tmp/ccnrtK1G.s 			page 1


   1              		.cpu cortex-m7
   2              		.eabi_attribute 28, 1
   3              		.eabi_attribute 20, 1
   4              		.eabi_attribute 21, 1
   5              		.eabi_attribute 23, 3
   6              		.eabi_attribute 24, 1
   7              		.eabi_attribute 25, 1
   8              		.eabi_attribute 26, 1
   9              		.eabi_attribute 30, 2
  10              		.eabi_attribute 34, 1
  11              		.eabi_attribute 18, 4
  12              		.file	"usbh_hid_keybd.c"
  13              		.text
  14              	.Ltext0:
  15              		.cfi_sections	.debug_frame
  16              		.section	.text.USBH_HID_KeybdInit,"ax",%progbits
  17              		.align	1
  18              		.p2align 2,,3
  19              		.global	USBH_HID_KeybdInit
  20              		.arch armv7e-m
  21              		.syntax unified
  22              		.thumb
  23              		.thumb_func
  24              		.fpu fpv5-d16
  26              	USBH_HID_KeybdInit:
  27              	.LVL0:
  28              	.LFB338:
  29              		.file 1 "./Libraries/STM32_USB_Host_Library/Class/HID/Src/usbh_hid_keybd.c"
   1:./Libraries/STM32_USB_Host_Library/Class/HID/Src/usbh_hid_keybd.c **** /**
   2:./Libraries/STM32_USB_Host_Library/Class/HID/Src/usbh_hid_keybd.c ****   ******************************************************************************
   3:./Libraries/STM32_USB_Host_Library/Class/HID/Src/usbh_hid_keybd.c ****   * @file    usbh_hid_keybd.c
   4:./Libraries/STM32_USB_Host_Library/Class/HID/Src/usbh_hid_keybd.c ****   * @author  MCD Application Team
   5:./Libraries/STM32_USB_Host_Library/Class/HID/Src/usbh_hid_keybd.c ****   * @brief   This file is the application layer for USB Host HID Keyboard handling
   6:./Libraries/STM32_USB_Host_Library/Class/HID/Src/usbh_hid_keybd.c ****   *          QWERTY and AZERTY Keyboard are supported as per the selection in
   7:./Libraries/STM32_USB_Host_Library/Class/HID/Src/usbh_hid_keybd.c ****   *          usbh_hid_keybd.h
   8:./Libraries/STM32_USB_Host_Library/Class/HID/Src/usbh_hid_keybd.c ****   ******************************************************************************
   9:./Libraries/STM32_USB_Host_Library/Class/HID/Src/usbh_hid_keybd.c ****   * @attention
  10:./Libraries/STM32_USB_Host_Library/Class/HID/Src/usbh_hid_keybd.c ****   *
  11:./Libraries/STM32_USB_Host_Library/Class/HID/Src/usbh_hid_keybd.c ****   * <h2><center>&copy; Copyright (c) 2015 STMicroelectronics.
  12:./Libraries/STM32_USB_Host_Library/Class/HID/Src/usbh_hid_keybd.c ****   * All rights reserved.</center></h2>
  13:./Libraries/STM32_USB_Host_Library/Class/HID/Src/usbh_hid_keybd.c ****   *
  14:./Libraries/STM32_USB_Host_Library/Class/HID/Src/usbh_hid_keybd.c ****   * This software component is licensed by ST under Ultimate Liberty license
  15:./Libraries/STM32_USB_Host_Library/Class/HID/Src/usbh_hid_keybd.c ****   * SLA0044, the "License"; You may not use this file except in compliance with
  16:./Libraries/STM32_USB_Host_Library/Class/HID/Src/usbh_hid_keybd.c ****   * the License. You may obtain a copy of the License at:
  17:./Libraries/STM32_USB_Host_Library/Class/HID/Src/usbh_hid_keybd.c ****   *                      www.st.com/SLA0044
  18:./Libraries/STM32_USB_Host_Library/Class/HID/Src/usbh_hid_keybd.c ****   *
  19:./Libraries/STM32_USB_Host_Library/Class/HID/Src/usbh_hid_keybd.c ****   ******************************************************************************
  20:./Libraries/STM32_USB_Host_Library/Class/HID/Src/usbh_hid_keybd.c ****   */
  21:./Libraries/STM32_USB_Host_Library/Class/HID/Src/usbh_hid_keybd.c **** 
  22:./Libraries/STM32_USB_Host_Library/Class/HID/Src/usbh_hid_keybd.c **** /* BSPDependencies
  23:./Libraries/STM32_USB_Host_Library/Class/HID/Src/usbh_hid_keybd.c **** - "stm32xxxxx_{eval}{discovery}{nucleo_144}.c"
  24:./Libraries/STM32_USB_Host_Library/Class/HID/Src/usbh_hid_keybd.c **** - "stm32xxxxx_{eval}{discovery}_io.c"
  25:./Libraries/STM32_USB_Host_Library/Class/HID/Src/usbh_hid_keybd.c **** - "stm32xxxxx_{eval}{discovery}{adafruit}_lcd.c"
  26:./Libraries/STM32_USB_Host_Library/Class/HID/Src/usbh_hid_keybd.c **** - "stm32xxxxx_{eval}{discovery}_sdram.c"
  27:./Libraries/STM32_USB_Host_Library/Class/HID/Src/usbh_hid_keybd.c **** EndBSPDependencies */
  28:./Libraries/STM32_USB_Host_Library/Class/HID/Src/usbh_hid_keybd.c **** 
  29:./Libraries/STM32_USB_Host_Library/Class/HID/Src/usbh_hid_keybd.c **** /* Includes ------------------------------------------------------------------*/
ARM GAS  /tmp/ccnrtK1G.s 			page 2


  30:./Libraries/STM32_USB_Host_Library/Class/HID/Src/usbh_hid_keybd.c **** #include "usbh_hid_keybd.h"
  31:./Libraries/STM32_USB_Host_Library/Class/HID/Src/usbh_hid_keybd.c **** #include "usbh_hid_parser.h"
  32:./Libraries/STM32_USB_Host_Library/Class/HID/Src/usbh_hid_keybd.c **** 
  33:./Libraries/STM32_USB_Host_Library/Class/HID/Src/usbh_hid_keybd.c **** /** @addtogroup USBH_LIB
  34:./Libraries/STM32_USB_Host_Library/Class/HID/Src/usbh_hid_keybd.c **** * @{
  35:./Libraries/STM32_USB_Host_Library/Class/HID/Src/usbh_hid_keybd.c **** */
  36:./Libraries/STM32_USB_Host_Library/Class/HID/Src/usbh_hid_keybd.c **** 
  37:./Libraries/STM32_USB_Host_Library/Class/HID/Src/usbh_hid_keybd.c **** /** @addtogroup USBH_CLASS
  38:./Libraries/STM32_USB_Host_Library/Class/HID/Src/usbh_hid_keybd.c **** * @{
  39:./Libraries/STM32_USB_Host_Library/Class/HID/Src/usbh_hid_keybd.c **** */
  40:./Libraries/STM32_USB_Host_Library/Class/HID/Src/usbh_hid_keybd.c **** 
  41:./Libraries/STM32_USB_Host_Library/Class/HID/Src/usbh_hid_keybd.c **** /** @addtogroup USBH_HID_CLASS
  42:./Libraries/STM32_USB_Host_Library/Class/HID/Src/usbh_hid_keybd.c **** * @{
  43:./Libraries/STM32_USB_Host_Library/Class/HID/Src/usbh_hid_keybd.c **** */
  44:./Libraries/STM32_USB_Host_Library/Class/HID/Src/usbh_hid_keybd.c **** 
  45:./Libraries/STM32_USB_Host_Library/Class/HID/Src/usbh_hid_keybd.c **** /** @defgroup USBH_HID_KEYBD
  46:./Libraries/STM32_USB_Host_Library/Class/HID/Src/usbh_hid_keybd.c **** * @brief    This file includes HID Layer Handlers for USB Host HID class.
  47:./Libraries/STM32_USB_Host_Library/Class/HID/Src/usbh_hid_keybd.c **** * @{
  48:./Libraries/STM32_USB_Host_Library/Class/HID/Src/usbh_hid_keybd.c **** */
  49:./Libraries/STM32_USB_Host_Library/Class/HID/Src/usbh_hid_keybd.c **** 
  50:./Libraries/STM32_USB_Host_Library/Class/HID/Src/usbh_hid_keybd.c **** /** @defgroup USBH_HID_KEYBD_Private_TypesDefinitions
  51:./Libraries/STM32_USB_Host_Library/Class/HID/Src/usbh_hid_keybd.c **** * @{
  52:./Libraries/STM32_USB_Host_Library/Class/HID/Src/usbh_hid_keybd.c **** */
  53:./Libraries/STM32_USB_Host_Library/Class/HID/Src/usbh_hid_keybd.c **** /**
  54:./Libraries/STM32_USB_Host_Library/Class/HID/Src/usbh_hid_keybd.c **** * @}
  55:./Libraries/STM32_USB_Host_Library/Class/HID/Src/usbh_hid_keybd.c **** */
  56:./Libraries/STM32_USB_Host_Library/Class/HID/Src/usbh_hid_keybd.c **** 
  57:./Libraries/STM32_USB_Host_Library/Class/HID/Src/usbh_hid_keybd.c **** 
  58:./Libraries/STM32_USB_Host_Library/Class/HID/Src/usbh_hid_keybd.c **** /** @defgroup USBH_HID_KEYBD_Private_Defines
  59:./Libraries/STM32_USB_Host_Library/Class/HID/Src/usbh_hid_keybd.c **** * @{
  60:./Libraries/STM32_USB_Host_Library/Class/HID/Src/usbh_hid_keybd.c **** */
  61:./Libraries/STM32_USB_Host_Library/Class/HID/Src/usbh_hid_keybd.c **** /**
  62:./Libraries/STM32_USB_Host_Library/Class/HID/Src/usbh_hid_keybd.c **** * @}
  63:./Libraries/STM32_USB_Host_Library/Class/HID/Src/usbh_hid_keybd.c **** */
  64:./Libraries/STM32_USB_Host_Library/Class/HID/Src/usbh_hid_keybd.c **** #ifndef AZERTY_KEYBOARD
  65:./Libraries/STM32_USB_Host_Library/Class/HID/Src/usbh_hid_keybd.c **** #define QWERTY_KEYBOARD
  66:./Libraries/STM32_USB_Host_Library/Class/HID/Src/usbh_hid_keybd.c **** #endif
  67:./Libraries/STM32_USB_Host_Library/Class/HID/Src/usbh_hid_keybd.c **** #define  KBD_LEFT_CTRL                                  0x01
  68:./Libraries/STM32_USB_Host_Library/Class/HID/Src/usbh_hid_keybd.c **** #define  KBD_LEFT_SHIFT                                 0x02
  69:./Libraries/STM32_USB_Host_Library/Class/HID/Src/usbh_hid_keybd.c **** #define  KBD_LEFT_ALT                                   0x04
  70:./Libraries/STM32_USB_Host_Library/Class/HID/Src/usbh_hid_keybd.c **** #define  KBD_LEFT_GUI                                   0x08
  71:./Libraries/STM32_USB_Host_Library/Class/HID/Src/usbh_hid_keybd.c **** #define  KBD_RIGHT_CTRL                                 0x10
  72:./Libraries/STM32_USB_Host_Library/Class/HID/Src/usbh_hid_keybd.c **** #define  KBD_RIGHT_SHIFT                                0x20
  73:./Libraries/STM32_USB_Host_Library/Class/HID/Src/usbh_hid_keybd.c **** #define  KBD_RIGHT_ALT                                  0x40
  74:./Libraries/STM32_USB_Host_Library/Class/HID/Src/usbh_hid_keybd.c **** #define  KBD_RIGHT_GUI                                  0x80
  75:./Libraries/STM32_USB_Host_Library/Class/HID/Src/usbh_hid_keybd.c **** #define  KBR_MAX_NBR_PRESSED                            6
  76:./Libraries/STM32_USB_Host_Library/Class/HID/Src/usbh_hid_keybd.c **** 
  77:./Libraries/STM32_USB_Host_Library/Class/HID/Src/usbh_hid_keybd.c **** /** @defgroup USBH_HID_KEYBD_Private_Macros
  78:./Libraries/STM32_USB_Host_Library/Class/HID/Src/usbh_hid_keybd.c **** * @{
  79:./Libraries/STM32_USB_Host_Library/Class/HID/Src/usbh_hid_keybd.c **** */
  80:./Libraries/STM32_USB_Host_Library/Class/HID/Src/usbh_hid_keybd.c **** /**
  81:./Libraries/STM32_USB_Host_Library/Class/HID/Src/usbh_hid_keybd.c **** * @}
  82:./Libraries/STM32_USB_Host_Library/Class/HID/Src/usbh_hid_keybd.c **** */
  83:./Libraries/STM32_USB_Host_Library/Class/HID/Src/usbh_hid_keybd.c **** 
  84:./Libraries/STM32_USB_Host_Library/Class/HID/Src/usbh_hid_keybd.c **** /** @defgroup USBH_HID_KEYBD_Private_FunctionPrototypes
  85:./Libraries/STM32_USB_Host_Library/Class/HID/Src/usbh_hid_keybd.c **** * @{
  86:./Libraries/STM32_USB_Host_Library/Class/HID/Src/usbh_hid_keybd.c **** */
ARM GAS  /tmp/ccnrtK1G.s 			page 3


  87:./Libraries/STM32_USB_Host_Library/Class/HID/Src/usbh_hid_keybd.c **** static USBH_StatusTypeDef USBH_HID_KeybdDecode(USBH_HandleTypeDef *phost);
  88:./Libraries/STM32_USB_Host_Library/Class/HID/Src/usbh_hid_keybd.c **** /**
  89:./Libraries/STM32_USB_Host_Library/Class/HID/Src/usbh_hid_keybd.c **** * @}
  90:./Libraries/STM32_USB_Host_Library/Class/HID/Src/usbh_hid_keybd.c **** */
  91:./Libraries/STM32_USB_Host_Library/Class/HID/Src/usbh_hid_keybd.c **** 
  92:./Libraries/STM32_USB_Host_Library/Class/HID/Src/usbh_hid_keybd.c **** /** @defgroup USBH_HID_KEYBD_Private_Variables
  93:./Libraries/STM32_USB_Host_Library/Class/HID/Src/usbh_hid_keybd.c **** * @{
  94:./Libraries/STM32_USB_Host_Library/Class/HID/Src/usbh_hid_keybd.c **** */
  95:./Libraries/STM32_USB_Host_Library/Class/HID/Src/usbh_hid_keybd.c **** 
  96:./Libraries/STM32_USB_Host_Library/Class/HID/Src/usbh_hid_keybd.c **** HID_KEYBD_Info_TypeDef     keybd_info;
  97:./Libraries/STM32_USB_Host_Library/Class/HID/Src/usbh_hid_keybd.c **** uint32_t                   keybd_rx_report_buf[2];
  98:./Libraries/STM32_USB_Host_Library/Class/HID/Src/usbh_hid_keybd.c **** uint32_t                   keybd_report_data[2];
  99:./Libraries/STM32_USB_Host_Library/Class/HID/Src/usbh_hid_keybd.c **** 
 100:./Libraries/STM32_USB_Host_Library/Class/HID/Src/usbh_hid_keybd.c **** static const HID_Report_ItemTypedef imp_0_lctrl =
 101:./Libraries/STM32_USB_Host_Library/Class/HID/Src/usbh_hid_keybd.c **** {
 102:./Libraries/STM32_USB_Host_Library/Class/HID/Src/usbh_hid_keybd.c ****   (uint8_t *)(void *)keybd_report_data + 0, /*data*/
 103:./Libraries/STM32_USB_Host_Library/Class/HID/Src/usbh_hid_keybd.c ****   1,     /*size*/
 104:./Libraries/STM32_USB_Host_Library/Class/HID/Src/usbh_hid_keybd.c ****   0,     /*shift*/
 105:./Libraries/STM32_USB_Host_Library/Class/HID/Src/usbh_hid_keybd.c ****   0,     /*count (only for array items)*/
 106:./Libraries/STM32_USB_Host_Library/Class/HID/Src/usbh_hid_keybd.c ****   0,     /*signed?*/
 107:./Libraries/STM32_USB_Host_Library/Class/HID/Src/usbh_hid_keybd.c ****   0,     /*min value read can return*/
 108:./Libraries/STM32_USB_Host_Library/Class/HID/Src/usbh_hid_keybd.c ****   1,     /*max value read can return*/
 109:./Libraries/STM32_USB_Host_Library/Class/HID/Src/usbh_hid_keybd.c ****   0,     /*min vale device can report*/
 110:./Libraries/STM32_USB_Host_Library/Class/HID/Src/usbh_hid_keybd.c ****   1,     /*max value device can report*/
 111:./Libraries/STM32_USB_Host_Library/Class/HID/Src/usbh_hid_keybd.c ****   1      /*resolution*/
 112:./Libraries/STM32_USB_Host_Library/Class/HID/Src/usbh_hid_keybd.c **** };
 113:./Libraries/STM32_USB_Host_Library/Class/HID/Src/usbh_hid_keybd.c **** static const HID_Report_ItemTypedef imp_0_lshift =
 114:./Libraries/STM32_USB_Host_Library/Class/HID/Src/usbh_hid_keybd.c **** {
 115:./Libraries/STM32_USB_Host_Library/Class/HID/Src/usbh_hid_keybd.c ****   (uint8_t *)(void *)keybd_report_data + 0, /*data*/
 116:./Libraries/STM32_USB_Host_Library/Class/HID/Src/usbh_hid_keybd.c ****   1,     /*size*/
 117:./Libraries/STM32_USB_Host_Library/Class/HID/Src/usbh_hid_keybd.c ****   1,     /*shift*/
 118:./Libraries/STM32_USB_Host_Library/Class/HID/Src/usbh_hid_keybd.c ****   0,     /*count (only for array items)*/
 119:./Libraries/STM32_USB_Host_Library/Class/HID/Src/usbh_hid_keybd.c ****   0,     /*signed?*/
 120:./Libraries/STM32_USB_Host_Library/Class/HID/Src/usbh_hid_keybd.c ****   0,     /*min value read can return*/
 121:./Libraries/STM32_USB_Host_Library/Class/HID/Src/usbh_hid_keybd.c ****   1,     /*max value read can return*/
 122:./Libraries/STM32_USB_Host_Library/Class/HID/Src/usbh_hid_keybd.c ****   0,     /*min vale device can report*/
 123:./Libraries/STM32_USB_Host_Library/Class/HID/Src/usbh_hid_keybd.c ****   1,     /*max value device can report*/
 124:./Libraries/STM32_USB_Host_Library/Class/HID/Src/usbh_hid_keybd.c ****   1      /*resolution*/
 125:./Libraries/STM32_USB_Host_Library/Class/HID/Src/usbh_hid_keybd.c **** };
 126:./Libraries/STM32_USB_Host_Library/Class/HID/Src/usbh_hid_keybd.c **** static const HID_Report_ItemTypedef imp_0_lalt =
 127:./Libraries/STM32_USB_Host_Library/Class/HID/Src/usbh_hid_keybd.c **** {
 128:./Libraries/STM32_USB_Host_Library/Class/HID/Src/usbh_hid_keybd.c ****   (uint8_t *)(void *)keybd_report_data + 0, /*data*/
 129:./Libraries/STM32_USB_Host_Library/Class/HID/Src/usbh_hid_keybd.c ****   1,     /*size*/
 130:./Libraries/STM32_USB_Host_Library/Class/HID/Src/usbh_hid_keybd.c ****   2,     /*shift*/
 131:./Libraries/STM32_USB_Host_Library/Class/HID/Src/usbh_hid_keybd.c ****   0,     /*count (only for array items)*/
 132:./Libraries/STM32_USB_Host_Library/Class/HID/Src/usbh_hid_keybd.c ****   0,     /*signed?*/
 133:./Libraries/STM32_USB_Host_Library/Class/HID/Src/usbh_hid_keybd.c ****   0,     /*min value read can return*/
 134:./Libraries/STM32_USB_Host_Library/Class/HID/Src/usbh_hid_keybd.c ****   1,     /*max value read can return*/
 135:./Libraries/STM32_USB_Host_Library/Class/HID/Src/usbh_hid_keybd.c ****   0,     /*min vale device can report*/
 136:./Libraries/STM32_USB_Host_Library/Class/HID/Src/usbh_hid_keybd.c ****   1,     /*max value device can report*/
 137:./Libraries/STM32_USB_Host_Library/Class/HID/Src/usbh_hid_keybd.c ****   1      /*resolution*/
 138:./Libraries/STM32_USB_Host_Library/Class/HID/Src/usbh_hid_keybd.c **** };
 139:./Libraries/STM32_USB_Host_Library/Class/HID/Src/usbh_hid_keybd.c **** static const HID_Report_ItemTypedef imp_0_lgui =
 140:./Libraries/STM32_USB_Host_Library/Class/HID/Src/usbh_hid_keybd.c **** {
 141:./Libraries/STM32_USB_Host_Library/Class/HID/Src/usbh_hid_keybd.c ****   (uint8_t *)(void *)keybd_report_data + 0, /*data*/
 142:./Libraries/STM32_USB_Host_Library/Class/HID/Src/usbh_hid_keybd.c ****   1,     /*size*/
 143:./Libraries/STM32_USB_Host_Library/Class/HID/Src/usbh_hid_keybd.c ****   3,     /*shift*/
ARM GAS  /tmp/ccnrtK1G.s 			page 4


 144:./Libraries/STM32_USB_Host_Library/Class/HID/Src/usbh_hid_keybd.c ****   0,     /*count (only for array items)*/
 145:./Libraries/STM32_USB_Host_Library/Class/HID/Src/usbh_hid_keybd.c ****   0,     /*signed?*/
 146:./Libraries/STM32_USB_Host_Library/Class/HID/Src/usbh_hid_keybd.c ****   0,     /*min value read can return*/
 147:./Libraries/STM32_USB_Host_Library/Class/HID/Src/usbh_hid_keybd.c ****   1,     /*max value read can return*/
 148:./Libraries/STM32_USB_Host_Library/Class/HID/Src/usbh_hid_keybd.c ****   0,     /*min vale device can report*/
 149:./Libraries/STM32_USB_Host_Library/Class/HID/Src/usbh_hid_keybd.c ****   1,     /*max value device can report*/
 150:./Libraries/STM32_USB_Host_Library/Class/HID/Src/usbh_hid_keybd.c ****   1      /*resolution*/
 151:./Libraries/STM32_USB_Host_Library/Class/HID/Src/usbh_hid_keybd.c **** };
 152:./Libraries/STM32_USB_Host_Library/Class/HID/Src/usbh_hid_keybd.c **** static const HID_Report_ItemTypedef imp_0_rctrl =
 153:./Libraries/STM32_USB_Host_Library/Class/HID/Src/usbh_hid_keybd.c **** {
 154:./Libraries/STM32_USB_Host_Library/Class/HID/Src/usbh_hid_keybd.c ****   (uint8_t *)(void *)keybd_report_data + 0, /*data*/
 155:./Libraries/STM32_USB_Host_Library/Class/HID/Src/usbh_hid_keybd.c ****   1,     /*size*/
 156:./Libraries/STM32_USB_Host_Library/Class/HID/Src/usbh_hid_keybd.c ****   4,     /*shift*/
 157:./Libraries/STM32_USB_Host_Library/Class/HID/Src/usbh_hid_keybd.c ****   0,     /*count (only for array items)*/
 158:./Libraries/STM32_USB_Host_Library/Class/HID/Src/usbh_hid_keybd.c ****   0,     /*signed?*/
 159:./Libraries/STM32_USB_Host_Library/Class/HID/Src/usbh_hid_keybd.c ****   0,     /*min value read can return*/
 160:./Libraries/STM32_USB_Host_Library/Class/HID/Src/usbh_hid_keybd.c ****   1,     /*max value read can return*/
 161:./Libraries/STM32_USB_Host_Library/Class/HID/Src/usbh_hid_keybd.c ****   0,     /*min vale device can report*/
 162:./Libraries/STM32_USB_Host_Library/Class/HID/Src/usbh_hid_keybd.c ****   1,     /*max value device can report*/
 163:./Libraries/STM32_USB_Host_Library/Class/HID/Src/usbh_hid_keybd.c ****   1      /*resolution*/
 164:./Libraries/STM32_USB_Host_Library/Class/HID/Src/usbh_hid_keybd.c **** };
 165:./Libraries/STM32_USB_Host_Library/Class/HID/Src/usbh_hid_keybd.c **** static const HID_Report_ItemTypedef imp_0_rshift =
 166:./Libraries/STM32_USB_Host_Library/Class/HID/Src/usbh_hid_keybd.c **** {
 167:./Libraries/STM32_USB_Host_Library/Class/HID/Src/usbh_hid_keybd.c ****   (uint8_t *)(void *)keybd_report_data + 0, /*data*/
 168:./Libraries/STM32_USB_Host_Library/Class/HID/Src/usbh_hid_keybd.c ****   1,     /*size*/
 169:./Libraries/STM32_USB_Host_Library/Class/HID/Src/usbh_hid_keybd.c ****   5,     /*shift*/
 170:./Libraries/STM32_USB_Host_Library/Class/HID/Src/usbh_hid_keybd.c ****   0,     /*count (only for array items)*/
 171:./Libraries/STM32_USB_Host_Library/Class/HID/Src/usbh_hid_keybd.c ****   0,     /*signed?*/
 172:./Libraries/STM32_USB_Host_Library/Class/HID/Src/usbh_hid_keybd.c ****   0,     /*min value read can return*/
 173:./Libraries/STM32_USB_Host_Library/Class/HID/Src/usbh_hid_keybd.c ****   1,     /*max value read can return*/
 174:./Libraries/STM32_USB_Host_Library/Class/HID/Src/usbh_hid_keybd.c ****   0,     /*min vale device can report*/
 175:./Libraries/STM32_USB_Host_Library/Class/HID/Src/usbh_hid_keybd.c ****   1,     /*max value device can report*/
 176:./Libraries/STM32_USB_Host_Library/Class/HID/Src/usbh_hid_keybd.c ****   1      /*resolution*/
 177:./Libraries/STM32_USB_Host_Library/Class/HID/Src/usbh_hid_keybd.c **** };
 178:./Libraries/STM32_USB_Host_Library/Class/HID/Src/usbh_hid_keybd.c **** static const HID_Report_ItemTypedef imp_0_ralt =
 179:./Libraries/STM32_USB_Host_Library/Class/HID/Src/usbh_hid_keybd.c **** {
 180:./Libraries/STM32_USB_Host_Library/Class/HID/Src/usbh_hid_keybd.c ****   (uint8_t *)(void *)keybd_report_data + 0, /*data*/
 181:./Libraries/STM32_USB_Host_Library/Class/HID/Src/usbh_hid_keybd.c ****   1,     /*size*/
 182:./Libraries/STM32_USB_Host_Library/Class/HID/Src/usbh_hid_keybd.c ****   6,     /*shift*/
 183:./Libraries/STM32_USB_Host_Library/Class/HID/Src/usbh_hid_keybd.c ****   0,     /*count (only for array items)*/
 184:./Libraries/STM32_USB_Host_Library/Class/HID/Src/usbh_hid_keybd.c ****   0,     /*signed?*/
 185:./Libraries/STM32_USB_Host_Library/Class/HID/Src/usbh_hid_keybd.c ****   0,     /*min value read can return*/
 186:./Libraries/STM32_USB_Host_Library/Class/HID/Src/usbh_hid_keybd.c ****   1,     /*max value read can return*/
 187:./Libraries/STM32_USB_Host_Library/Class/HID/Src/usbh_hid_keybd.c ****   0,     /*min vale device can report*/
 188:./Libraries/STM32_USB_Host_Library/Class/HID/Src/usbh_hid_keybd.c ****   1,     /*max value device can report*/
 189:./Libraries/STM32_USB_Host_Library/Class/HID/Src/usbh_hid_keybd.c ****   1      /*resolution*/
 190:./Libraries/STM32_USB_Host_Library/Class/HID/Src/usbh_hid_keybd.c **** };
 191:./Libraries/STM32_USB_Host_Library/Class/HID/Src/usbh_hid_keybd.c **** static const HID_Report_ItemTypedef imp_0_rgui =
 192:./Libraries/STM32_USB_Host_Library/Class/HID/Src/usbh_hid_keybd.c **** {
 193:./Libraries/STM32_USB_Host_Library/Class/HID/Src/usbh_hid_keybd.c ****   (uint8_t *)(void *)keybd_report_data + 0, /*data*/
 194:./Libraries/STM32_USB_Host_Library/Class/HID/Src/usbh_hid_keybd.c ****   1,     /*size*/
 195:./Libraries/STM32_USB_Host_Library/Class/HID/Src/usbh_hid_keybd.c ****   7,     /*shift*/
 196:./Libraries/STM32_USB_Host_Library/Class/HID/Src/usbh_hid_keybd.c ****   0,     /*count (only for array items)*/
 197:./Libraries/STM32_USB_Host_Library/Class/HID/Src/usbh_hid_keybd.c ****   0,     /*signed?*/
 198:./Libraries/STM32_USB_Host_Library/Class/HID/Src/usbh_hid_keybd.c ****   0,     /*min value read can return*/
 199:./Libraries/STM32_USB_Host_Library/Class/HID/Src/usbh_hid_keybd.c ****   1,     /*max value read can return*/
 200:./Libraries/STM32_USB_Host_Library/Class/HID/Src/usbh_hid_keybd.c ****   0,     /*min vale device can report*/
ARM GAS  /tmp/ccnrtK1G.s 			page 5


 201:./Libraries/STM32_USB_Host_Library/Class/HID/Src/usbh_hid_keybd.c ****   1,     /*max value device can report*/
 202:./Libraries/STM32_USB_Host_Library/Class/HID/Src/usbh_hid_keybd.c ****   1      /*resolution*/
 203:./Libraries/STM32_USB_Host_Library/Class/HID/Src/usbh_hid_keybd.c **** };
 204:./Libraries/STM32_USB_Host_Library/Class/HID/Src/usbh_hid_keybd.c **** 
 205:./Libraries/STM32_USB_Host_Library/Class/HID/Src/usbh_hid_keybd.c **** static const HID_Report_ItemTypedef imp_0_key_array =
 206:./Libraries/STM32_USB_Host_Library/Class/HID/Src/usbh_hid_keybd.c **** {
 207:./Libraries/STM32_USB_Host_Library/Class/HID/Src/usbh_hid_keybd.c ****   (uint8_t *)(void *)keybd_report_data + 2, /*data*/
 208:./Libraries/STM32_USB_Host_Library/Class/HID/Src/usbh_hid_keybd.c ****   8,     /*size*/
 209:./Libraries/STM32_USB_Host_Library/Class/HID/Src/usbh_hid_keybd.c ****   0,     /*shift*/
 210:./Libraries/STM32_USB_Host_Library/Class/HID/Src/usbh_hid_keybd.c ****   6,     /*count (only for array items)*/
 211:./Libraries/STM32_USB_Host_Library/Class/HID/Src/usbh_hid_keybd.c ****   0,     /*signed?*/
 212:./Libraries/STM32_USB_Host_Library/Class/HID/Src/usbh_hid_keybd.c ****   0,     /*min value read can return*/
 213:./Libraries/STM32_USB_Host_Library/Class/HID/Src/usbh_hid_keybd.c ****   101,   /*max value read can return*/
 214:./Libraries/STM32_USB_Host_Library/Class/HID/Src/usbh_hid_keybd.c ****   0,     /*min vale device can report*/
 215:./Libraries/STM32_USB_Host_Library/Class/HID/Src/usbh_hid_keybd.c ****   101,   /*max value device can report*/
 216:./Libraries/STM32_USB_Host_Library/Class/HID/Src/usbh_hid_keybd.c ****   1      /*resolution*/
 217:./Libraries/STM32_USB_Host_Library/Class/HID/Src/usbh_hid_keybd.c **** };
 218:./Libraries/STM32_USB_Host_Library/Class/HID/Src/usbh_hid_keybd.c **** 
 219:./Libraries/STM32_USB_Host_Library/Class/HID/Src/usbh_hid_keybd.c **** #ifdef QWERTY_KEYBOARD
 220:./Libraries/STM32_USB_Host_Library/Class/HID/Src/usbh_hid_keybd.c **** static  const  uint8_t  HID_KEYBRD_Key[] =
 221:./Libraries/STM32_USB_Host_Library/Class/HID/Src/usbh_hid_keybd.c **** {
 222:./Libraries/STM32_USB_Host_Library/Class/HID/Src/usbh_hid_keybd.c ****   '\0',  '`',  '1',  '2',  '3',  '4',  '5',  '6',
 223:./Libraries/STM32_USB_Host_Library/Class/HID/Src/usbh_hid_keybd.c ****   '7',  '8',  '9',  '0',  '-',  '=',  '\0', '\r',
 224:./Libraries/STM32_USB_Host_Library/Class/HID/Src/usbh_hid_keybd.c ****   '\t',  'q',  'w',  'e',  'r',  't',  'y',  'u',
 225:./Libraries/STM32_USB_Host_Library/Class/HID/Src/usbh_hid_keybd.c ****   'i',  'o',  'p',  '[',  ']',  '\\',
 226:./Libraries/STM32_USB_Host_Library/Class/HID/Src/usbh_hid_keybd.c ****   '\0',  'a',  's',  'd',  'f',  'g',  'h',  'j',
 227:./Libraries/STM32_USB_Host_Library/Class/HID/Src/usbh_hid_keybd.c ****   'k',  'l',  ';',  '\'', '\0', '\n',
 228:./Libraries/STM32_USB_Host_Library/Class/HID/Src/usbh_hid_keybd.c ****   '\0',  '\0', 'z',  'x',  'c',  'v',  'b',  'n',
 229:./Libraries/STM32_USB_Host_Library/Class/HID/Src/usbh_hid_keybd.c ****   'm',  ',',  '.',  '/',  '\0', '\0',
 230:./Libraries/STM32_USB_Host_Library/Class/HID/Src/usbh_hid_keybd.c ****   '\0',  '\0', '\0', ' ',  '\0', '\0', '\0', '\0',
 231:./Libraries/STM32_USB_Host_Library/Class/HID/Src/usbh_hid_keybd.c ****   '\0', '\0', '\0', '\0', '\0', '\0', '\0', '\0', '\0',
 232:./Libraries/STM32_USB_Host_Library/Class/HID/Src/usbh_hid_keybd.c ****   '\0',  '\0', '\0', '\0', '\0', '\r', '\0', '\0',
 233:./Libraries/STM32_USB_Host_Library/Class/HID/Src/usbh_hid_keybd.c ****   '\0', '\0', '\0', '\0', '\0', '\0',
 234:./Libraries/STM32_USB_Host_Library/Class/HID/Src/usbh_hid_keybd.c ****   '\0',  '\0', '7',  '4',  '1',
 235:./Libraries/STM32_USB_Host_Library/Class/HID/Src/usbh_hid_keybd.c ****   '\0',  '/',  '8',  '5',  '2',
 236:./Libraries/STM32_USB_Host_Library/Class/HID/Src/usbh_hid_keybd.c ****   '0',   '*',  '9',  '6',  '3',
 237:./Libraries/STM32_USB_Host_Library/Class/HID/Src/usbh_hid_keybd.c ****   '.',   '-',  '+',  '\0', '\n', '\0', '\0', '\0', '\0', '\0', '\0',
 238:./Libraries/STM32_USB_Host_Library/Class/HID/Src/usbh_hid_keybd.c ****   '\0',  '\0', '\0', '\0', '\0', '\0', '\0', '\0', '\0', '\0', '\0',
 239:./Libraries/STM32_USB_Host_Library/Class/HID/Src/usbh_hid_keybd.c ****   '\0', '\0', '\0', '\0'
 240:./Libraries/STM32_USB_Host_Library/Class/HID/Src/usbh_hid_keybd.c **** };
 241:./Libraries/STM32_USB_Host_Library/Class/HID/Src/usbh_hid_keybd.c **** 
 242:./Libraries/STM32_USB_Host_Library/Class/HID/Src/usbh_hid_keybd.c **** static  const  uint8_t  HID_KEYBRD_ShiftKey[] =
 243:./Libraries/STM32_USB_Host_Library/Class/HID/Src/usbh_hid_keybd.c **** {
 244:./Libraries/STM32_USB_Host_Library/Class/HID/Src/usbh_hid_keybd.c ****   '\0', '~',  '!',  '@',  '#',  '$',  '%',  '^',  '&',  '*',  '(',  ')',
 245:./Libraries/STM32_USB_Host_Library/Class/HID/Src/usbh_hid_keybd.c ****   '_',  '+',  '\0', '\0', '\0', 'Q',  'W',  'E',  'R',  'T',  'Y',  'U',
 246:./Libraries/STM32_USB_Host_Library/Class/HID/Src/usbh_hid_keybd.c ****   'I',  'O',  'P',  '{',  '}',  '|',  '\0', 'A',  'S',  'D',  'F',  'G',
 247:./Libraries/STM32_USB_Host_Library/Class/HID/Src/usbh_hid_keybd.c ****   'H',  'J',  'K',  'L',  ':',  '"',  '\0', '\n', '\0', '\0', 'Z',  'X',
 248:./Libraries/STM32_USB_Host_Library/Class/HID/Src/usbh_hid_keybd.c ****   'C',  'V',  'B',  'N',  'M',  '<',  '>',  '?',  '\0', '\0',  '\0', '\0',
 249:./Libraries/STM32_USB_Host_Library/Class/HID/Src/usbh_hid_keybd.c ****   '\0', '\0', '\0', '\0', '\0', '\0', '\0', '\0', '\0', '\0', '\0', '\0',
 250:./Libraries/STM32_USB_Host_Library/Class/HID/Src/usbh_hid_keybd.c ****   '\0', '\0', '\0', '\0', '\0', '\0', '\0', '\0', '\0', '\0', '\0', '\0',
 251:./Libraries/STM32_USB_Host_Library/Class/HID/Src/usbh_hid_keybd.c ****   '\0', '\0', '\0', '\0', '\0', '\0', '\0', '\0', '\0', '\0', '\0', '\0',
 252:./Libraries/STM32_USB_Host_Library/Class/HID/Src/usbh_hid_keybd.c ****   '\0', '\0', '\0', '\0', '\0', '\0', '\0', '\0', '\0', '\0', '\0', '\0',
 253:./Libraries/STM32_USB_Host_Library/Class/HID/Src/usbh_hid_keybd.c ****   '\0', '\0', '\0', '\0', '\0', '\0', '\0',    '\0', '\0', '\0', '\0', '\0',
 254:./Libraries/STM32_USB_Host_Library/Class/HID/Src/usbh_hid_keybd.c ****   '\0', '\0', '\0', '\0', '\0', '\0', '\0', '\0', '\0', '\0'
 255:./Libraries/STM32_USB_Host_Library/Class/HID/Src/usbh_hid_keybd.c **** };
 256:./Libraries/STM32_USB_Host_Library/Class/HID/Src/usbh_hid_keybd.c **** 
 257:./Libraries/STM32_USB_Host_Library/Class/HID/Src/usbh_hid_keybd.c **** #else
ARM GAS  /tmp/ccnrtK1G.s 			page 6


 258:./Libraries/STM32_USB_Host_Library/Class/HID/Src/usbh_hid_keybd.c **** 
 259:./Libraries/STM32_USB_Host_Library/Class/HID/Src/usbh_hid_keybd.c **** static  const  uint8_t  HID_KEYBRD_Key[] =
 260:./Libraries/STM32_USB_Host_Library/Class/HID/Src/usbh_hid_keybd.c **** {
 261:./Libraries/STM32_USB_Host_Library/Class/HID/Src/usbh_hid_keybd.c ****   '\0',  '`',  '1',  '2',  '3',  '4',  '5',  '6',  '7',  '8',  '9',  '0',
 262:./Libraries/STM32_USB_Host_Library/Class/HID/Src/usbh_hid_keybd.c ****   '-',  '=',  '\0', '\r', '\t',  'a',  'z',  'e',  'r',  't',  'y',  'u',
 263:./Libraries/STM32_USB_Host_Library/Class/HID/Src/usbh_hid_keybd.c ****   'i',  'o',  'p',  '[',  ']', '\\', '\0',  'q',  's',  'd',  'f',  'g',
 264:./Libraries/STM32_USB_Host_Library/Class/HID/Src/usbh_hid_keybd.c ****   'h',  'j',  'k',  'l',  'm',  '\0', '\0', '\n', '\0',  '\0', 'w',  'x',
 265:./Libraries/STM32_USB_Host_Library/Class/HID/Src/usbh_hid_keybd.c ****   'c',  'v',  'b',  'n',  ',',  ';',  ':',  '!',  '\0', '\0', '\0',  '\0',
 266:./Libraries/STM32_USB_Host_Library/Class/HID/Src/usbh_hid_keybd.c ****   '\0', ' ',  '\0', '\0', '\0', '\0', '\0', '\0', '\0', '\0', '\0', '\0',
 267:./Libraries/STM32_USB_Host_Library/Class/HID/Src/usbh_hid_keybd.c ****   '\0', '\0', '\0', '\0',  '\0', '\0', '\0', '\0', '\r', '\0', '\0', '\0',
 268:./Libraries/STM32_USB_Host_Library/Class/HID/Src/usbh_hid_keybd.c ****   '\0', '\0', '\0', '\0', '\0', '\0',  '\0', '7',  '4',  '1', '\0',  '/',
 269:./Libraries/STM32_USB_Host_Library/Class/HID/Src/usbh_hid_keybd.c ****   '8',  '5',  '2', '0',   '*',  '9',  '6',  '3', '.',   '-',  '+',  '\0',
 270:./Libraries/STM32_USB_Host_Library/Class/HID/Src/usbh_hid_keybd.c ****   '\n', '\0', '\0', '\0', '\0', '\0', '\0', '\0',  '\0', '\0', '\0', '\0', '\0',
 271:./Libraries/STM32_USB_Host_Library/Class/HID/Src/usbh_hid_keybd.c ****   '\0', '\0', '\0', '\0', '\0', '\0', '\0', '\0', '\0'
 272:./Libraries/STM32_USB_Host_Library/Class/HID/Src/usbh_hid_keybd.c **** };
 273:./Libraries/STM32_USB_Host_Library/Class/HID/Src/usbh_hid_keybd.c **** 
 274:./Libraries/STM32_USB_Host_Library/Class/HID/Src/usbh_hid_keybd.c **** static  const  uint8_t  HID_KEYBRD_ShiftKey[] =
 275:./Libraries/STM32_USB_Host_Library/Class/HID/Src/usbh_hid_keybd.c **** {
 276:./Libraries/STM32_USB_Host_Library/Class/HID/Src/usbh_hid_keybd.c ****   '\0', '~',  '!',  '@',  '#',  '$',  '%',  '^',  '&',  '*',  '(',  ')',  '_',
 277:./Libraries/STM32_USB_Host_Library/Class/HID/Src/usbh_hid_keybd.c ****   '+',  '\0', '\0', '\0', 'A',  'Z',  'E',  'R',  'T',  'Y',  'U',  'I',  'O',
 278:./Libraries/STM32_USB_Host_Library/Class/HID/Src/usbh_hid_keybd.c ****   'P',  '{',  '}',  '*', '\0', 'Q',  'S',  'D',  'F',  'G',  'H',  'J',  'K',
 279:./Libraries/STM32_USB_Host_Library/Class/HID/Src/usbh_hid_keybd.c ****   'L',  'M',  '%',  '\0', '\n', '\0', '\0', 'W',  'X',  'C',  'V',  'B',  'N',
 280:./Libraries/STM32_USB_Host_Library/Class/HID/Src/usbh_hid_keybd.c ****   '?',  '.',  '/',  '\0',  '\0', '\0', '\0', '\0', '\0', '\0', '\0', '\0', '\0',
 281:./Libraries/STM32_USB_Host_Library/Class/HID/Src/usbh_hid_keybd.c ****   '\0', '\0', '\0', '\0', '\0', '\0', '\0', '\0', '\0', '\0', '\0', '\0', '\0',
 282:./Libraries/STM32_USB_Host_Library/Class/HID/Src/usbh_hid_keybd.c ****   '\0', '\0', '\0', '\0', '\0', '\0', '\0', '\0', '\0', '\0', '\0', '\0', '\0',
 283:./Libraries/STM32_USB_Host_Library/Class/HID/Src/usbh_hid_keybd.c ****   '\0', '\0', '\0', '\0', '\0', '\0', '\0', '\0', '\0', '\0', '\0', '\0', '\0',
 284:./Libraries/STM32_USB_Host_Library/Class/HID/Src/usbh_hid_keybd.c ****   '\0', '\0', '\0', '\0', '\0', '\0', '\0', '\0', '\0', '\0', '\0', '\0', '\0',
 285:./Libraries/STM32_USB_Host_Library/Class/HID/Src/usbh_hid_keybd.c ****   '\0', '\0', '\0', '\0', '\0', '\0', '\0', '\0', '\0', '\0', '\0', '\0', '\0'
 286:./Libraries/STM32_USB_Host_Library/Class/HID/Src/usbh_hid_keybd.c **** };
 287:./Libraries/STM32_USB_Host_Library/Class/HID/Src/usbh_hid_keybd.c **** #endif
 288:./Libraries/STM32_USB_Host_Library/Class/HID/Src/usbh_hid_keybd.c **** 
 289:./Libraries/STM32_USB_Host_Library/Class/HID/Src/usbh_hid_keybd.c **** static  const  uint8_t  HID_KEYBRD_Codes[] =
 290:./Libraries/STM32_USB_Host_Library/Class/HID/Src/usbh_hid_keybd.c **** {
 291:./Libraries/STM32_USB_Host_Library/Class/HID/Src/usbh_hid_keybd.c ****   0,     0,    0,    0,   31,   50,   48,   33,
 292:./Libraries/STM32_USB_Host_Library/Class/HID/Src/usbh_hid_keybd.c ****   19,   34,   35,   36,   24,   37,   38,   39,       /* 0x00 - 0x0F */
 293:./Libraries/STM32_USB_Host_Library/Class/HID/Src/usbh_hid_keybd.c ****   52,    51,   25,   26,   17,   20,   32,   21,
 294:./Libraries/STM32_USB_Host_Library/Class/HID/Src/usbh_hid_keybd.c ****   23,   49,   18,   47,   22,   46,    2,    3,       /* 0x10 - 0x1F */
 295:./Libraries/STM32_USB_Host_Library/Class/HID/Src/usbh_hid_keybd.c ****   4,    5,    6,    7,    8,    9,   10,   11,
 296:./Libraries/STM32_USB_Host_Library/Class/HID/Src/usbh_hid_keybd.c ****   43,  110,   15,   16,   61,   12,   13,   27,       /* 0x20 - 0x2F */
 297:./Libraries/STM32_USB_Host_Library/Class/HID/Src/usbh_hid_keybd.c ****   28,   29,   42,   40,   41,    1,   53,   54,
 298:./Libraries/STM32_USB_Host_Library/Class/HID/Src/usbh_hid_keybd.c ****   55,   30,  112,  113,  114,  115,  116,  117,       /* 0x30 - 0x3F */
 299:./Libraries/STM32_USB_Host_Library/Class/HID/Src/usbh_hid_keybd.c ****   118,  119,  120,  121,  122,  123,  124,  125,
 300:./Libraries/STM32_USB_Host_Library/Class/HID/Src/usbh_hid_keybd.c ****   126,   75,   80,   85,   76,   81,   86,   89,       /* 0x40 - 0x4F */
 301:./Libraries/STM32_USB_Host_Library/Class/HID/Src/usbh_hid_keybd.c ****   79,   84,   83,   90,   95,  100,  105,  106,
 302:./Libraries/STM32_USB_Host_Library/Class/HID/Src/usbh_hid_keybd.c ****   108,   93,   98,  103,   92,   97,  102,   91,       /* 0x50 - 0x5F */
 303:./Libraries/STM32_USB_Host_Library/Class/HID/Src/usbh_hid_keybd.c ****   96,  101,   99,  104,   45,  129,    0,    0,
 304:./Libraries/STM32_USB_Host_Library/Class/HID/Src/usbh_hid_keybd.c ****   0,    0,    0,    0,    0,    0,    0,    0,       /* 0x60 - 0x6F */
 305:./Libraries/STM32_USB_Host_Library/Class/HID/Src/usbh_hid_keybd.c ****   0,    0,    0,    0,    0,    0,    0,    0,
 306:./Libraries/STM32_USB_Host_Library/Class/HID/Src/usbh_hid_keybd.c ****   0,    0,    0,    0,    0,    0,    0,    0,       /* 0x70 - 0x7F */
 307:./Libraries/STM32_USB_Host_Library/Class/HID/Src/usbh_hid_keybd.c ****   0,    0,    0,    0,    0,  107,    0,   56,
 308:./Libraries/STM32_USB_Host_Library/Class/HID/Src/usbh_hid_keybd.c ****   0,    0,    0,    0,    0,    0,    0,    0,       /* 0x80 - 0x8F */
 309:./Libraries/STM32_USB_Host_Library/Class/HID/Src/usbh_hid_keybd.c ****   0,    0,    0,    0,    0,    0,    0,    0,
 310:./Libraries/STM32_USB_Host_Library/Class/HID/Src/usbh_hid_keybd.c ****   0,    0,    0,    0,    0,    0,    0,    0,       /* 0x90 - 0x9F */
 311:./Libraries/STM32_USB_Host_Library/Class/HID/Src/usbh_hid_keybd.c ****   0,    0,    0,    0,    0,    0,    0,    0,
 312:./Libraries/STM32_USB_Host_Library/Class/HID/Src/usbh_hid_keybd.c ****   0,    0,    0,    0,    0,    0,    0,    0,       /* 0xA0 - 0xAF */
 313:./Libraries/STM32_USB_Host_Library/Class/HID/Src/usbh_hid_keybd.c ****   0,    0,    0,    0,    0,    0,    0,    0,
 314:./Libraries/STM32_USB_Host_Library/Class/HID/Src/usbh_hid_keybd.c ****   0,    0,    0,    0,    0,    0,    0,    0,       /* 0xB0 - 0xBF */
ARM GAS  /tmp/ccnrtK1G.s 			page 7


 315:./Libraries/STM32_USB_Host_Library/Class/HID/Src/usbh_hid_keybd.c ****   0,    0,    0,    0,    0,    0,    0,    0,
 316:./Libraries/STM32_USB_Host_Library/Class/HID/Src/usbh_hid_keybd.c ****   0,    0,    0,    0,    0,    0,    0,    0,       /* 0xC0 - 0xCF */
 317:./Libraries/STM32_USB_Host_Library/Class/HID/Src/usbh_hid_keybd.c ****   0,    0,    0,    0,    0,    0,    0,    0,
 318:./Libraries/STM32_USB_Host_Library/Class/HID/Src/usbh_hid_keybd.c ****   0,    0,    0,    0,    0,    0,    0,    0,       /* 0xD0 - 0xDF */
 319:./Libraries/STM32_USB_Host_Library/Class/HID/Src/usbh_hid_keybd.c ****   58,   44,   60,  127,   64,   57,   62,  128        /* 0xE0 - 0xE7 */
 320:./Libraries/STM32_USB_Host_Library/Class/HID/Src/usbh_hid_keybd.c **** };
 321:./Libraries/STM32_USB_Host_Library/Class/HID/Src/usbh_hid_keybd.c **** 
 322:./Libraries/STM32_USB_Host_Library/Class/HID/Src/usbh_hid_keybd.c **** /**
 323:./Libraries/STM32_USB_Host_Library/Class/HID/Src/usbh_hid_keybd.c ****   * @brief  USBH_HID_KeybdInit
 324:./Libraries/STM32_USB_Host_Library/Class/HID/Src/usbh_hid_keybd.c ****   *         The function init the HID keyboard.
 325:./Libraries/STM32_USB_Host_Library/Class/HID/Src/usbh_hid_keybd.c ****   * @param  phost: Host handle
 326:./Libraries/STM32_USB_Host_Library/Class/HID/Src/usbh_hid_keybd.c ****   * @retval USBH Status
 327:./Libraries/STM32_USB_Host_Library/Class/HID/Src/usbh_hid_keybd.c ****   */
 328:./Libraries/STM32_USB_Host_Library/Class/HID/Src/usbh_hid_keybd.c **** USBH_StatusTypeDef USBH_HID_KeybdInit(USBH_HandleTypeDef *phost)
 329:./Libraries/STM32_USB_Host_Library/Class/HID/Src/usbh_hid_keybd.c **** {
  30              		.loc 1 329 1 view -0
  31              		.cfi_startproc
  32              		@ args = 0, pretend = 0, frame = 0
  33              		@ frame_needed = 0, uses_anonymous_args = 0
 330:./Libraries/STM32_USB_Host_Library/Class/HID/Src/usbh_hid_keybd.c ****   uint32_t x;
  34              		.loc 1 330 3 view .LVU1
 331:./Libraries/STM32_USB_Host_Library/Class/HID/Src/usbh_hid_keybd.c ****   HID_HandleTypeDef *HID_Handle = (HID_HandleTypeDef *) phost->pActiveClass->pData;
  35              		.loc 1 331 3 view .LVU2
  36              		.loc 1 331 22 is_stmt 0 view .LVU3
  37 0000 D0F87C14 		ldr	r1, [r0, #1148]
 332:./Libraries/STM32_USB_Host_Library/Class/HID/Src/usbh_hid_keybd.c **** 
 333:./Libraries/STM32_USB_Host_Library/Class/HID/Src/usbh_hid_keybd.c ****   keybd_info.lctrl = keybd_info.lshift = 0U;
  38              		.loc 1 333 40 view .LVU4
  39 0004 0023     		movs	r3, #0
  40 0006 104A     		ldr	r2, .L5
 329:./Libraries/STM32_USB_Host_Library/Class/HID/Src/usbh_hid_keybd.c ****   uint32_t x;
  41              		.loc 1 329 1 view .LVU5
  42 0008 70B5     		push	{r4, r5, r6, lr}
  43              	.LCFI0:
  44              		.cfi_def_cfa_offset 16
  45              		.cfi_offset 4, -16
  46              		.cfi_offset 5, -12
  47              		.cfi_offset 6, -8
  48              		.cfi_offset 14, -4
 331:./Libraries/STM32_USB_Host_Library/Class/HID/Src/usbh_hid_keybd.c ****   HID_HandleTypeDef *HID_Handle = (HID_HandleTypeDef *) phost->pActiveClass->pData;
  49              		.loc 1 331 22 view .LVU6
  50 000a CC69     		ldr	r4, [r1, #28]
  51              	.LVL1:
  52              		.loc 1 333 3 is_stmt 1 view .LVU7
 334:./Libraries/STM32_USB_Host_Library/Class/HID/Src/usbh_hid_keybd.c ****   keybd_info.lalt = keybd_info.lgui = 0U;
  53              		.loc 1 334 3 view .LVU8
 335:./Libraries/STM32_USB_Host_Library/Class/HID/Src/usbh_hid_keybd.c ****   keybd_info.rctrl = keybd_info.rshift = 0U;
 336:./Libraries/STM32_USB_Host_Library/Class/HID/Src/usbh_hid_keybd.c ****   keybd_info.ralt = keybd_info.rgui = 0U;
 337:./Libraries/STM32_USB_Host_Library/Class/HID/Src/usbh_hid_keybd.c **** 
 338:./Libraries/STM32_USB_Host_Library/Class/HID/Src/usbh_hid_keybd.c **** 
 339:./Libraries/STM32_USB_Host_Library/Class/HID/Src/usbh_hid_keybd.c ****   for (x = 0U; x < (sizeof(keybd_report_data) / sizeof(uint32_t)); x++)
 340:./Libraries/STM32_USB_Host_Library/Class/HID/Src/usbh_hid_keybd.c ****   {
 341:./Libraries/STM32_USB_Host_Library/Class/HID/Src/usbh_hid_keybd.c ****     keybd_report_data[x] = 0U;
  54              		.loc 1 341 26 is_stmt 0 view .LVU9
  55 000c 0F4D     		ldr	r5, .L5+4
 342:./Libraries/STM32_USB_Host_Library/Class/HID/Src/usbh_hid_keybd.c ****     keybd_rx_report_buf[x] = 0U;
 343:./Libraries/STM32_USB_Host_Library/Class/HID/Src/usbh_hid_keybd.c ****   }
ARM GAS  /tmp/ccnrtK1G.s 			page 8


 344:./Libraries/STM32_USB_Host_Library/Class/HID/Src/usbh_hid_keybd.c **** 
 345:./Libraries/STM32_USB_Host_Library/Class/HID/Src/usbh_hid_keybd.c ****   if (HID_Handle->length > (sizeof(keybd_report_data)))
  56              		.loc 1 345 6 view .LVU10
  57 000e 268B     		ldrh	r6, [r4, #24]
 342:./Libraries/STM32_USB_Host_Library/Class/HID/Src/usbh_hid_keybd.c ****     keybd_rx_report_buf[x] = 0U;
  58              		.loc 1 342 28 view .LVU11
  59 0010 0F49     		ldr	r1, .L5+8
  60              		.loc 1 345 6 view .LVU12
  61 0012 082E     		cmp	r6, #8
 333:./Libraries/STM32_USB_Host_Library/Class/HID/Src/usbh_hid_keybd.c ****   keybd_info.lalt = keybd_info.lgui = 0U;
  62              		.loc 1 333 40 view .LVU13
  63 0014 9370     		strb	r3, [r2, #2]
 333:./Libraries/STM32_USB_Host_Library/Class/HID/Src/usbh_hid_keybd.c ****   keybd_info.lalt = keybd_info.lgui = 0U;
  64              		.loc 1 333 20 view .LVU14
  65 0016 5370     		strb	r3, [r2, #1]
 334:./Libraries/STM32_USB_Host_Library/Class/HID/Src/usbh_hid_keybd.c ****   keybd_info.rctrl = keybd_info.rshift = 0U;
  66              		.loc 1 334 37 view .LVU15
  67 0018 1371     		strb	r3, [r2, #4]
 334:./Libraries/STM32_USB_Host_Library/Class/HID/Src/usbh_hid_keybd.c ****   keybd_info.rctrl = keybd_info.rshift = 0U;
  68              		.loc 1 334 19 view .LVU16
  69 001a D370     		strb	r3, [r2, #3]
 335:./Libraries/STM32_USB_Host_Library/Class/HID/Src/usbh_hid_keybd.c ****   keybd_info.ralt = keybd_info.rgui = 0U;
  70              		.loc 1 335 3 is_stmt 1 view .LVU17
 335:./Libraries/STM32_USB_Host_Library/Class/HID/Src/usbh_hid_keybd.c ****   keybd_info.ralt = keybd_info.rgui = 0U;
  71              		.loc 1 335 40 is_stmt 0 view .LVU18
  72 001c 9371     		strb	r3, [r2, #6]
 335:./Libraries/STM32_USB_Host_Library/Class/HID/Src/usbh_hid_keybd.c ****   keybd_info.ralt = keybd_info.rgui = 0U;
  73              		.loc 1 335 20 view .LVU19
  74 001e 5371     		strb	r3, [r2, #5]
 336:./Libraries/STM32_USB_Host_Library/Class/HID/Src/usbh_hid_keybd.c **** 
  75              		.loc 1 336 3 is_stmt 1 view .LVU20
 336:./Libraries/STM32_USB_Host_Library/Class/HID/Src/usbh_hid_keybd.c **** 
  76              		.loc 1 336 37 is_stmt 0 view .LVU21
  77 0020 1372     		strb	r3, [r2, #8]
 336:./Libraries/STM32_USB_Host_Library/Class/HID/Src/usbh_hid_keybd.c **** 
  78              		.loc 1 336 19 view .LVU22
  79 0022 D371     		strb	r3, [r2, #7]
 339:./Libraries/STM32_USB_Host_Library/Class/HID/Src/usbh_hid_keybd.c ****   {
  80              		.loc 1 339 3 is_stmt 1 view .LVU23
  81              	.LVL2:
 339:./Libraries/STM32_USB_Host_Library/Class/HID/Src/usbh_hid_keybd.c ****   {
  82              		.loc 1 339 16 view .LVU24
 341:./Libraries/STM32_USB_Host_Library/Class/HID/Src/usbh_hid_keybd.c ****     keybd_rx_report_buf[x] = 0U;
  83              		.loc 1 341 5 view .LVU25
 341:./Libraries/STM32_USB_Host_Library/Class/HID/Src/usbh_hid_keybd.c ****     keybd_rx_report_buf[x] = 0U;
  84              		.loc 1 341 26 is_stmt 0 view .LVU26
  85 0024 C5E90033 		strd	r3, r3, [r5]
 342:./Libraries/STM32_USB_Host_Library/Class/HID/Src/usbh_hid_keybd.c ****   }
  86              		.loc 1 342 28 view .LVU27
  87 0028 C1E90033 		strd	r3, r3, [r1]
 339:./Libraries/STM32_USB_Host_Library/Class/HID/Src/usbh_hid_keybd.c ****   {
  88              		.loc 1 339 68 is_stmt 1 view .LVU28
  89              	.LVL3:
 339:./Libraries/STM32_USB_Host_Library/Class/HID/Src/usbh_hid_keybd.c ****   {
  90              		.loc 1 339 16 view .LVU29
  91              		.loc 1 345 3 view .LVU30
  92              		.loc 1 345 6 is_stmt 0 view .LVU31
ARM GAS  /tmp/ccnrtK1G.s 			page 9


  93 002c 01D9     		bls	.L2
 346:./Libraries/STM32_USB_Host_Library/Class/HID/Src/usbh_hid_keybd.c ****   {
 347:./Libraries/STM32_USB_Host_Library/Class/HID/Src/usbh_hid_keybd.c ****     HID_Handle->length = (sizeof(keybd_report_data));
  94              		.loc 1 347 5 is_stmt 1 view .LVU32
  95              		.loc 1 347 24 is_stmt 0 view .LVU33
  96 002e 0823     		movs	r3, #8
  97 0030 2383     		strh	r3, [r4, #24]	@ movhi
  98              	.L2:
 348:./Libraries/STM32_USB_Host_Library/Class/HID/Src/usbh_hid_keybd.c ****   }
 349:./Libraries/STM32_USB_Host_Library/Class/HID/Src/usbh_hid_keybd.c ****   HID_Handle->pData = (uint8_t *)(void *)keybd_rx_report_buf;
  99              		.loc 1 349 3 is_stmt 1 view .LVU34
 100              		.loc 1 349 21 is_stmt 0 view .LVU35
 101 0032 6161     		str	r1, [r4, #20]
 350:./Libraries/STM32_USB_Host_Library/Class/HID/Src/usbh_hid_keybd.c ****   USBH_HID_FifoInit(&HID_Handle->fifo, phost->device.Data, HID_QUEUE_SIZE * sizeof(keybd_report_dat
 102              		.loc 1 350 3 is_stmt 1 view .LVU36
 103 0034 5022     		movs	r2, #80
 104 0036 00F50771 		add	r1, r0, #540
 105 003a 04F10800 		add	r0, r4, #8
 106              	.LVL4:
 107              		.loc 1 350 3 is_stmt 0 view .LVU37
 108 003e FFF7FEFF 		bl	USBH_HID_FifoInit
 109              	.LVL5:
 351:./Libraries/STM32_USB_Host_Library/Class/HID/Src/usbh_hid_keybd.c **** 
 352:./Libraries/STM32_USB_Host_Library/Class/HID/Src/usbh_hid_keybd.c ****   return USBH_OK;
 110              		.loc 1 352 3 is_stmt 1 view .LVU38
 353:./Libraries/STM32_USB_Host_Library/Class/HID/Src/usbh_hid_keybd.c **** }
 111              		.loc 1 353 1 is_stmt 0 view .LVU39
 112 0042 0020     		movs	r0, #0
 113 0044 70BD     		pop	{r4, r5, r6, pc}
 114              	.LVL6:
 115              	.L6:
 116              		.loc 1 353 1 view .LVU40
 117 0046 00BF     		.align	2
 118              	.L5:
 119 0048 00000000 		.word	keybd_info
 120 004c 00000000 		.word	keybd_report_data
 121 0050 00000000 		.word	keybd_rx_report_buf
 122              		.cfi_endproc
 123              	.LFE338:
 125              		.section	.text.USBH_HID_GetKeybdInfo,"ax",%progbits
 126              		.align	1
 127              		.p2align 2,,3
 128              		.global	USBH_HID_GetKeybdInfo
 129              		.syntax unified
 130              		.thumb
 131              		.thumb_func
 132              		.fpu fpv5-d16
 134              	USBH_HID_GetKeybdInfo:
 135              	.LVL7:
 136              	.LFB339:
 354:./Libraries/STM32_USB_Host_Library/Class/HID/Src/usbh_hid_keybd.c **** 
 355:./Libraries/STM32_USB_Host_Library/Class/HID/Src/usbh_hid_keybd.c **** /**
 356:./Libraries/STM32_USB_Host_Library/Class/HID/Src/usbh_hid_keybd.c ****   * @brief  USBH_HID_GetKeybdInfo
 357:./Libraries/STM32_USB_Host_Library/Class/HID/Src/usbh_hid_keybd.c ****   *         The function return keyboard information.
 358:./Libraries/STM32_USB_Host_Library/Class/HID/Src/usbh_hid_keybd.c ****   * @param  phost: Host handle
 359:./Libraries/STM32_USB_Host_Library/Class/HID/Src/usbh_hid_keybd.c ****   * @retval keyboard information
 360:./Libraries/STM32_USB_Host_Library/Class/HID/Src/usbh_hid_keybd.c ****   */
ARM GAS  /tmp/ccnrtK1G.s 			page 10


 361:./Libraries/STM32_USB_Host_Library/Class/HID/Src/usbh_hid_keybd.c **** HID_KEYBD_Info_TypeDef *USBH_HID_GetKeybdInfo(USBH_HandleTypeDef *phost)
 362:./Libraries/STM32_USB_Host_Library/Class/HID/Src/usbh_hid_keybd.c **** {
 137              		.loc 1 362 1 is_stmt 1 view -0
 138              		.cfi_startproc
 139              		@ args = 0, pretend = 0, frame = 0
 140              		@ frame_needed = 0, uses_anonymous_args = 0
 363:./Libraries/STM32_USB_Host_Library/Class/HID/Src/usbh_hid_keybd.c ****   if (USBH_HID_KeybdDecode(phost) == USBH_OK)
 141              		.loc 1 363 3 view .LVU42
 142              	.LBB4:
 143              	.LBI4:
 364:./Libraries/STM32_USB_Host_Library/Class/HID/Src/usbh_hid_keybd.c ****   {
 365:./Libraries/STM32_USB_Host_Library/Class/HID/Src/usbh_hid_keybd.c ****     return &keybd_info;
 366:./Libraries/STM32_USB_Host_Library/Class/HID/Src/usbh_hid_keybd.c ****   }
 367:./Libraries/STM32_USB_Host_Library/Class/HID/Src/usbh_hid_keybd.c ****   else
 368:./Libraries/STM32_USB_Host_Library/Class/HID/Src/usbh_hid_keybd.c ****   {
 369:./Libraries/STM32_USB_Host_Library/Class/HID/Src/usbh_hid_keybd.c ****     return NULL;
 370:./Libraries/STM32_USB_Host_Library/Class/HID/Src/usbh_hid_keybd.c ****   }
 371:./Libraries/STM32_USB_Host_Library/Class/HID/Src/usbh_hid_keybd.c **** }
 372:./Libraries/STM32_USB_Host_Library/Class/HID/Src/usbh_hid_keybd.c **** 
 373:./Libraries/STM32_USB_Host_Library/Class/HID/Src/usbh_hid_keybd.c **** /**
 374:./Libraries/STM32_USB_Host_Library/Class/HID/Src/usbh_hid_keybd.c ****   * @brief  USBH_HID_KeybdDecode
 375:./Libraries/STM32_USB_Host_Library/Class/HID/Src/usbh_hid_keybd.c ****   *         The function decode keyboard data.
 376:./Libraries/STM32_USB_Host_Library/Class/HID/Src/usbh_hid_keybd.c ****   * @param  phost: Host handle
 377:./Libraries/STM32_USB_Host_Library/Class/HID/Src/usbh_hid_keybd.c ****   * @retval USBH Status
 378:./Libraries/STM32_USB_Host_Library/Class/HID/Src/usbh_hid_keybd.c ****   */
 379:./Libraries/STM32_USB_Host_Library/Class/HID/Src/usbh_hid_keybd.c **** static USBH_StatusTypeDef USBH_HID_KeybdDecode(USBH_HandleTypeDef *phost)
 144              		.loc 1 379 27 view .LVU43
 145              	.LBB5:
 380:./Libraries/STM32_USB_Host_Library/Class/HID/Src/usbh_hid_keybd.c **** {
 381:./Libraries/STM32_USB_Host_Library/Class/HID/Src/usbh_hid_keybd.c ****   uint8_t x;
 146              		.loc 1 381 3 view .LVU44
 382:./Libraries/STM32_USB_Host_Library/Class/HID/Src/usbh_hid_keybd.c **** 
 383:./Libraries/STM32_USB_Host_Library/Class/HID/Src/usbh_hid_keybd.c ****   HID_HandleTypeDef *HID_Handle = (HID_HandleTypeDef *) phost->pActiveClass->pData;
 147              		.loc 1 383 3 view .LVU45
 148              		.loc 1 383 22 is_stmt 0 view .LVU46
 149 0000 D0F87C34 		ldr	r3, [r0, #1148]
 150              	.LBE5:
 151              	.LBE4:
 362:./Libraries/STM32_USB_Host_Library/Class/HID/Src/usbh_hid_keybd.c ****   if (USBH_HID_KeybdDecode(phost) == USBH_OK)
 152              		.loc 1 362 1 view .LVU47
 153 0004 70B5     		push	{r4, r5, r6, lr}
 154              	.LCFI1:
 155              		.cfi_def_cfa_offset 16
 156              		.cfi_offset 4, -16
 157              		.cfi_offset 5, -12
 158              		.cfi_offset 6, -8
 159              		.cfi_offset 14, -4
 160              	.LBB8:
 161              	.LBB6:
 162              		.loc 1 383 22 view .LVU48
 163 0006 DC69     		ldr	r4, [r3, #28]
 164              	.LVL8:
 384:./Libraries/STM32_USB_Host_Library/Class/HID/Src/usbh_hid_keybd.c ****   if (HID_Handle->length == 0U)
 165              		.loc 1 384 3 is_stmt 1 view .LVU49
 166              		.loc 1 384 17 is_stmt 0 view .LVU50
 167 0008 228B     		ldrh	r2, [r4, #24]
 168              		.loc 1 384 6 view .LVU51
ARM GAS  /tmp/ccnrtK1G.s 			page 11


 169 000a 3AB1     		cbz	r2, .L8
 385:./Libraries/STM32_USB_Host_Library/Class/HID/Src/usbh_hid_keybd.c ****   {
 386:./Libraries/STM32_USB_Host_Library/Class/HID/Src/usbh_hid_keybd.c ****     return USBH_FAIL;
 387:./Libraries/STM32_USB_Host_Library/Class/HID/Src/usbh_hid_keybd.c ****   }
 388:./Libraries/STM32_USB_Host_Library/Class/HID/Src/usbh_hid_keybd.c ****   /*Fill report */
 389:./Libraries/STM32_USB_Host_Library/Class/HID/Src/usbh_hid_keybd.c ****   if (USBH_HID_FifoRead(&HID_Handle->fifo, &keybd_report_data, HID_Handle->length) ==  HID_Handle->
 170              		.loc 1 389 3 is_stmt 1 view .LVU52
 171              		.loc 1 389 7 is_stmt 0 view .LVU53
 172 000c 2449     		ldr	r1, .L17
 173 000e 04F10800 		add	r0, r4, #8
 174              	.LVL9:
 175              		.loc 1 389 7 view .LVU54
 176 0012 FFF7FEFF 		bl	USBH_HID_FifoRead
 177              	.LVL10:
 178              		.loc 1 389 6 view .LVU55
 179 0016 238B     		ldrh	r3, [r4, #24]
 180 0018 8342     		cmp	r3, r0
 181 001a 01D0     		beq	.L16
 182              	.L8:
 183              	.LBE6:
 184              	.LBE8:
 369:./Libraries/STM32_USB_Host_Library/Class/HID/Src/usbh_hid_keybd.c ****   }
 185              		.loc 1 369 12 view .LVU56
 186 001c 0020     		movs	r0, #0
 187              	.LVL11:
 371:./Libraries/STM32_USB_Host_Library/Class/HID/Src/usbh_hid_keybd.c **** 
 188              		.loc 1 371 1 view .LVU57
 189 001e 70BD     		pop	{r4, r5, r6, pc}
 190              	.LVL12:
 191              	.L16:
 192              	.LBB9:
 193              	.LBB7:
 390:./Libraries/STM32_USB_Host_Library/Class/HID/Src/usbh_hid_keybd.c ****   {
 391:./Libraries/STM32_USB_Host_Library/Class/HID/Src/usbh_hid_keybd.c ****     keybd_info.lctrl = (uint8_t)HID_ReadItem((HID_Report_ItemTypedef *) &imp_0_lctrl, 0U);
 194              		.loc 1 391 5 is_stmt 1 view .LVU58
 195              		.loc 1 391 33 is_stmt 0 view .LVU59
 196 0020 0021     		movs	r1, #0
 197 0022 2048     		ldr	r0, .L17+4
 198 0024 FFF7FEFF 		bl	HID_ReadItem
 199              	.LVL13:
 392:./Libraries/STM32_USB_Host_Library/Class/HID/Src/usbh_hid_keybd.c ****     keybd_info.lshift = (uint8_t)HID_ReadItem((HID_Report_ItemTypedef *) &imp_0_lshift, 0U);
 200              		.loc 1 392 34 view .LVU60
 201 0028 0021     		movs	r1, #0
 391:./Libraries/STM32_USB_Host_Library/Class/HID/Src/usbh_hid_keybd.c ****     keybd_info.lshift = (uint8_t)HID_ReadItem((HID_Report_ItemTypedef *) &imp_0_lshift, 0U);
 202              		.loc 1 391 22 view .LVU61
 203 002a 1F4E     		ldr	r6, .L17+8
 391:./Libraries/STM32_USB_Host_Library/Class/HID/Src/usbh_hid_keybd.c ****     keybd_info.lshift = (uint8_t)HID_ReadItem((HID_Report_ItemTypedef *) &imp_0_lshift, 0U);
 204              		.loc 1 391 33 view .LVU62
 205 002c 0346     		mov	r3, r0
 393:./Libraries/STM32_USB_Host_Library/Class/HID/Src/usbh_hid_keybd.c ****     keybd_info.lalt = (uint8_t)HID_ReadItem((HID_Report_ItemTypedef *) &imp_0_lalt, 0U);
 394:./Libraries/STM32_USB_Host_Library/Class/HID/Src/usbh_hid_keybd.c ****     keybd_info.lgui = (uint8_t)HID_ReadItem((HID_Report_ItemTypedef *) &imp_0_lgui, 0U);
 395:./Libraries/STM32_USB_Host_Library/Class/HID/Src/usbh_hid_keybd.c ****     keybd_info.rctrl = (uint8_t)HID_ReadItem((HID_Report_ItemTypedef *) &imp_0_rctrl, 0U);
 396:./Libraries/STM32_USB_Host_Library/Class/HID/Src/usbh_hid_keybd.c ****     keybd_info.rshift = (uint8_t)HID_ReadItem((HID_Report_ItemTypedef *) &imp_0_rshift, 0U);
 397:./Libraries/STM32_USB_Host_Library/Class/HID/Src/usbh_hid_keybd.c ****     keybd_info.ralt = (uint8_t)HID_ReadItem((HID_Report_ItemTypedef *) &imp_0_ralt, 0U);
 398:./Libraries/STM32_USB_Host_Library/Class/HID/Src/usbh_hid_keybd.c ****     keybd_info.rgui = (uint8_t)HID_ReadItem((HID_Report_ItemTypedef *) &imp_0_rgui, 0U);
 206              		.loc 1 398 21 view .LVU63
 207 002e 0C46     		mov	r4, r1
ARM GAS  /tmp/ccnrtK1G.s 			page 12


 208              	.LVL14:
 392:./Libraries/STM32_USB_Host_Library/Class/HID/Src/usbh_hid_keybd.c ****     keybd_info.lalt = (uint8_t)HID_ReadItem((HID_Report_ItemTypedef *) &imp_0_lalt, 0U);
 209              		.loc 1 392 34 view .LVU64
 210 0030 1E48     		ldr	r0, .L17+12
 391:./Libraries/STM32_USB_Host_Library/Class/HID/Src/usbh_hid_keybd.c ****     keybd_info.lshift = (uint8_t)HID_ReadItem((HID_Report_ItemTypedef *) &imp_0_lshift, 0U);
 211              		.loc 1 391 24 view .LVU65
 212 0032 7370     		strb	r3, [r6, #1]
 392:./Libraries/STM32_USB_Host_Library/Class/HID/Src/usbh_hid_keybd.c ****     keybd_info.lalt = (uint8_t)HID_ReadItem((HID_Report_ItemTypedef *) &imp_0_lalt, 0U);
 213              		.loc 1 392 5 is_stmt 1 view .LVU66
 392:./Libraries/STM32_USB_Host_Library/Class/HID/Src/usbh_hid_keybd.c ****     keybd_info.lalt = (uint8_t)HID_ReadItem((HID_Report_ItemTypedef *) &imp_0_lalt, 0U);
 214              		.loc 1 392 34 is_stmt 0 view .LVU67
 215 0034 FFF7FEFF 		bl	HID_ReadItem
 216              	.LVL15:
 217 0038 0346     		mov	r3, r0
 393:./Libraries/STM32_USB_Host_Library/Class/HID/Src/usbh_hid_keybd.c ****     keybd_info.lalt = (uint8_t)HID_ReadItem((HID_Report_ItemTypedef *) &imp_0_lalt, 0U);
 218              		.loc 1 393 32 view .LVU68
 219 003a 2146     		mov	r1, r4
 220 003c 1C48     		ldr	r0, .L17+16
 221              		.loc 1 398 23 view .LVU69
 222 003e 3546     		mov	r5, r6
 392:./Libraries/STM32_USB_Host_Library/Class/HID/Src/usbh_hid_keybd.c ****     keybd_info.lalt = (uint8_t)HID_ReadItem((HID_Report_ItemTypedef *) &imp_0_lalt, 0U);
 223              		.loc 1 392 25 view .LVU70
 224 0040 B370     		strb	r3, [r6, #2]
 393:./Libraries/STM32_USB_Host_Library/Class/HID/Src/usbh_hid_keybd.c ****     keybd_info.lalt = (uint8_t)HID_ReadItem((HID_Report_ItemTypedef *) &imp_0_lalt, 0U);
 225              		.loc 1 393 5 is_stmt 1 view .LVU71
 393:./Libraries/STM32_USB_Host_Library/Class/HID/Src/usbh_hid_keybd.c ****     keybd_info.lalt = (uint8_t)HID_ReadItem((HID_Report_ItemTypedef *) &imp_0_lalt, 0U);
 226              		.loc 1 393 32 is_stmt 0 view .LVU72
 227 0042 FFF7FEFF 		bl	HID_ReadItem
 228              	.LVL16:
 229 0046 0346     		mov	r3, r0
 394:./Libraries/STM32_USB_Host_Library/Class/HID/Src/usbh_hid_keybd.c ****     keybd_info.rctrl = (uint8_t)HID_ReadItem((HID_Report_ItemTypedef *) &imp_0_rctrl, 0U);
 230              		.loc 1 394 32 view .LVU73
 231 0048 2146     		mov	r1, r4
 232 004a 1A48     		ldr	r0, .L17+20
 393:./Libraries/STM32_USB_Host_Library/Class/HID/Src/usbh_hid_keybd.c ****     keybd_info.lalt = (uint8_t)HID_ReadItem((HID_Report_ItemTypedef *) &imp_0_lalt, 0U);
 233              		.loc 1 393 23 view .LVU74
 234 004c F370     		strb	r3, [r6, #3]
 394:./Libraries/STM32_USB_Host_Library/Class/HID/Src/usbh_hid_keybd.c ****     keybd_info.rctrl = (uint8_t)HID_ReadItem((HID_Report_ItemTypedef *) &imp_0_rctrl, 0U);
 235              		.loc 1 394 5 is_stmt 1 view .LVU75
 394:./Libraries/STM32_USB_Host_Library/Class/HID/Src/usbh_hid_keybd.c ****     keybd_info.rctrl = (uint8_t)HID_ReadItem((HID_Report_ItemTypedef *) &imp_0_rctrl, 0U);
 236              		.loc 1 394 32 is_stmt 0 view .LVU76
 237 004e FFF7FEFF 		bl	HID_ReadItem
 238              	.LVL17:
 239 0052 0346     		mov	r3, r0
 395:./Libraries/STM32_USB_Host_Library/Class/HID/Src/usbh_hid_keybd.c ****     keybd_info.rshift = (uint8_t)HID_ReadItem((HID_Report_ItemTypedef *) &imp_0_rshift, 0U);
 240              		.loc 1 395 33 view .LVU77
 241 0054 2146     		mov	r1, r4
 242 0056 1848     		ldr	r0, .L17+24
 394:./Libraries/STM32_USB_Host_Library/Class/HID/Src/usbh_hid_keybd.c ****     keybd_info.rctrl = (uint8_t)HID_ReadItem((HID_Report_ItemTypedef *) &imp_0_rctrl, 0U);
 243              		.loc 1 394 23 view .LVU78
 244 0058 3371     		strb	r3, [r6, #4]
 395:./Libraries/STM32_USB_Host_Library/Class/HID/Src/usbh_hid_keybd.c ****     keybd_info.rshift = (uint8_t)HID_ReadItem((HID_Report_ItemTypedef *) &imp_0_rshift, 0U);
 245              		.loc 1 395 5 is_stmt 1 view .LVU79
 395:./Libraries/STM32_USB_Host_Library/Class/HID/Src/usbh_hid_keybd.c ****     keybd_info.rshift = (uint8_t)HID_ReadItem((HID_Report_ItemTypedef *) &imp_0_rshift, 0U);
 246              		.loc 1 395 33 is_stmt 0 view .LVU80
 247 005a FFF7FEFF 		bl	HID_ReadItem
 248              	.LVL18:
ARM GAS  /tmp/ccnrtK1G.s 			page 13


 249 005e 0346     		mov	r3, r0
 396:./Libraries/STM32_USB_Host_Library/Class/HID/Src/usbh_hid_keybd.c ****     keybd_info.ralt = (uint8_t)HID_ReadItem((HID_Report_ItemTypedef *) &imp_0_ralt, 0U);
 250              		.loc 1 396 34 view .LVU81
 251 0060 2146     		mov	r1, r4
 252 0062 1648     		ldr	r0, .L17+28
 395:./Libraries/STM32_USB_Host_Library/Class/HID/Src/usbh_hid_keybd.c ****     keybd_info.rshift = (uint8_t)HID_ReadItem((HID_Report_ItemTypedef *) &imp_0_rshift, 0U);
 253              		.loc 1 395 24 view .LVU82
 254 0064 7371     		strb	r3, [r6, #5]
 396:./Libraries/STM32_USB_Host_Library/Class/HID/Src/usbh_hid_keybd.c ****     keybd_info.ralt = (uint8_t)HID_ReadItem((HID_Report_ItemTypedef *) &imp_0_ralt, 0U);
 255              		.loc 1 396 5 is_stmt 1 view .LVU83
 396:./Libraries/STM32_USB_Host_Library/Class/HID/Src/usbh_hid_keybd.c ****     keybd_info.ralt = (uint8_t)HID_ReadItem((HID_Report_ItemTypedef *) &imp_0_ralt, 0U);
 256              		.loc 1 396 34 is_stmt 0 view .LVU84
 257 0066 FFF7FEFF 		bl	HID_ReadItem
 258              	.LVL19:
 259 006a 0346     		mov	r3, r0
 397:./Libraries/STM32_USB_Host_Library/Class/HID/Src/usbh_hid_keybd.c ****     keybd_info.rgui = (uint8_t)HID_ReadItem((HID_Report_ItemTypedef *) &imp_0_rgui, 0U);
 260              		.loc 1 397 32 view .LVU85
 261 006c 2146     		mov	r1, r4
 262 006e 1448     		ldr	r0, .L17+32
 396:./Libraries/STM32_USB_Host_Library/Class/HID/Src/usbh_hid_keybd.c ****     keybd_info.ralt = (uint8_t)HID_ReadItem((HID_Report_ItemTypedef *) &imp_0_ralt, 0U);
 263              		.loc 1 396 25 view .LVU86
 264 0070 B371     		strb	r3, [r6, #6]
 397:./Libraries/STM32_USB_Host_Library/Class/HID/Src/usbh_hid_keybd.c ****     keybd_info.rgui = (uint8_t)HID_ReadItem((HID_Report_ItemTypedef *) &imp_0_rgui, 0U);
 265              		.loc 1 397 5 is_stmt 1 view .LVU87
 397:./Libraries/STM32_USB_Host_Library/Class/HID/Src/usbh_hid_keybd.c ****     keybd_info.rgui = (uint8_t)HID_ReadItem((HID_Report_ItemTypedef *) &imp_0_rgui, 0U);
 266              		.loc 1 397 32 is_stmt 0 view .LVU88
 267 0072 FFF7FEFF 		bl	HID_ReadItem
 268              	.LVL20:
 269 0076 0346     		mov	r3, r0
 270              		.loc 1 398 32 view .LVU89
 271 0078 2146     		mov	r1, r4
 272 007a 1248     		ldr	r0, .L17+36
 397:./Libraries/STM32_USB_Host_Library/Class/HID/Src/usbh_hid_keybd.c ****     keybd_info.rgui = (uint8_t)HID_ReadItem((HID_Report_ItemTypedef *) &imp_0_rgui, 0U);
 273              		.loc 1 397 23 view .LVU90
 274 007c F371     		strb	r3, [r6, #7]
 275              		.loc 1 398 5 is_stmt 1 view .LVU91
 276              		.loc 1 398 32 is_stmt 0 view .LVU92
 277 007e FFF7FEFF 		bl	HID_ReadItem
 278              	.LVL21:
 399:./Libraries/STM32_USB_Host_Library/Class/HID/Src/usbh_hid_keybd.c **** 
 400:./Libraries/STM32_USB_Host_Library/Class/HID/Src/usbh_hid_keybd.c ****     for (x = 0U; x < sizeof(keybd_info.keys); x++)
 401:./Libraries/STM32_USB_Host_Library/Class/HID/Src/usbh_hid_keybd.c ****     {
 402:./Libraries/STM32_USB_Host_Library/Class/HID/Src/usbh_hid_keybd.c ****       keybd_info.keys[x] = (uint8_t)HID_ReadItem((HID_Report_ItemTypedef *) &imp_0_key_array, x);
 279              		.loc 1 402 37 view .LVU93
 280 0082 114E     		ldr	r6, .L17+40
 398:./Libraries/STM32_USB_Host_Library/Class/HID/Src/usbh_hid_keybd.c **** 
 281              		.loc 1 398 23 view .LVU94
 282 0084 05F8080F 		strb	r0, [r5, #8]!
 400:./Libraries/STM32_USB_Host_Library/Class/HID/Src/usbh_hid_keybd.c ****     {
 283              		.loc 1 400 5 is_stmt 1 view .LVU95
 284              	.LVL22:
 400:./Libraries/STM32_USB_Host_Library/Class/HID/Src/usbh_hid_keybd.c ****     {
 285              		.loc 1 400 18 view .LVU96
 286              	.L9:
 287              		.loc 1 402 7 view .LVU97
 288              		.loc 1 402 37 is_stmt 0 view .LVU98
 289 0088 E1B2     		uxtb	r1, r4
ARM GAS  /tmp/ccnrtK1G.s 			page 14


 290 008a 0134     		adds	r4, r4, #1
 291              	.LVL23:
 292              		.loc 1 402 37 view .LVU99
 293 008c 3046     		mov	r0, r6
 294 008e FFF7FEFF 		bl	HID_ReadItem
 295              	.LVL24:
 400:./Libraries/STM32_USB_Host_Library/Class/HID/Src/usbh_hid_keybd.c ****     {
 296              		.loc 1 400 5 view .LVU100
 297 0092 062C     		cmp	r4, #6
 298              		.loc 1 402 28 view .LVU101
 299 0094 05F8010F 		strb	r0, [r5, #1]!
 400:./Libraries/STM32_USB_Host_Library/Class/HID/Src/usbh_hid_keybd.c ****     {
 300              		.loc 1 400 47 is_stmt 1 view .LVU102
 400:./Libraries/STM32_USB_Host_Library/Class/HID/Src/usbh_hid_keybd.c ****     {
 301              		.loc 1 400 18 view .LVU103
 400:./Libraries/STM32_USB_Host_Library/Class/HID/Src/usbh_hid_keybd.c ****     {
 302              		.loc 1 400 5 is_stmt 0 view .LVU104
 303 0098 F6D1     		bne	.L9
 304              	.LBE7:
 305              	.LBE9:
 365:./Libraries/STM32_USB_Host_Library/Class/HID/Src/usbh_hid_keybd.c ****   }
 306              		.loc 1 365 12 view .LVU105
 307 009a 0348     		ldr	r0, .L17+8
 371:./Libraries/STM32_USB_Host_Library/Class/HID/Src/usbh_hid_keybd.c **** 
 308              		.loc 1 371 1 view .LVU106
 309 009c 70BD     		pop	{r4, r5, r6, pc}
 310              	.L18:
 311 009e 00BF     		.align	2
 312              	.L17:
 313 00a0 00000000 		.word	keybd_report_data
 314 00a4 00000000 		.word	.LANCHOR0
 315 00a8 00000000 		.word	keybd_info
 316 00ac 00000000 		.word	.LANCHOR1
 317 00b0 00000000 		.word	.LANCHOR2
 318 00b4 00000000 		.word	.LANCHOR3
 319 00b8 00000000 		.word	.LANCHOR4
 320 00bc 00000000 		.word	.LANCHOR5
 321 00c0 00000000 		.word	.LANCHOR6
 322 00c4 00000000 		.word	.LANCHOR7
 323 00c8 00000000 		.word	.LANCHOR8
 324              		.cfi_endproc
 325              	.LFE339:
 327              		.section	.text.USBH_HID_GetASCIICode,"ax",%progbits
 328              		.align	1
 329              		.p2align 2,,3
 330              		.global	USBH_HID_GetASCIICode
 331              		.syntax unified
 332              		.thumb
 333              		.thumb_func
 334              		.fpu fpv5-d16
 336              	USBH_HID_GetASCIICode:
 337              	.LVL25:
 338              	.LFB341:
 403:./Libraries/STM32_USB_Host_Library/Class/HID/Src/usbh_hid_keybd.c ****     }
 404:./Libraries/STM32_USB_Host_Library/Class/HID/Src/usbh_hid_keybd.c **** 
 405:./Libraries/STM32_USB_Host_Library/Class/HID/Src/usbh_hid_keybd.c ****     return USBH_OK;
 406:./Libraries/STM32_USB_Host_Library/Class/HID/Src/usbh_hid_keybd.c ****   }
ARM GAS  /tmp/ccnrtK1G.s 			page 15


 407:./Libraries/STM32_USB_Host_Library/Class/HID/Src/usbh_hid_keybd.c ****   return   USBH_FAIL;
 408:./Libraries/STM32_USB_Host_Library/Class/HID/Src/usbh_hid_keybd.c **** }
 409:./Libraries/STM32_USB_Host_Library/Class/HID/Src/usbh_hid_keybd.c **** 
 410:./Libraries/STM32_USB_Host_Library/Class/HID/Src/usbh_hid_keybd.c **** /**
 411:./Libraries/STM32_USB_Host_Library/Class/HID/Src/usbh_hid_keybd.c ****   * @brief  USBH_HID_GetASCIICode
 412:./Libraries/STM32_USB_Host_Library/Class/HID/Src/usbh_hid_keybd.c ****   *         The function decode keyboard data into ASCII characters.
 413:./Libraries/STM32_USB_Host_Library/Class/HID/Src/usbh_hid_keybd.c ****   * @param  phost: Host handle
 414:./Libraries/STM32_USB_Host_Library/Class/HID/Src/usbh_hid_keybd.c ****   * @param  info: Keyboard information
 415:./Libraries/STM32_USB_Host_Library/Class/HID/Src/usbh_hid_keybd.c ****   * @retval ASCII code
 416:./Libraries/STM32_USB_Host_Library/Class/HID/Src/usbh_hid_keybd.c ****   */
 417:./Libraries/STM32_USB_Host_Library/Class/HID/Src/usbh_hid_keybd.c **** uint8_t USBH_HID_GetASCIICode(HID_KEYBD_Info_TypeDef *info)
 418:./Libraries/STM32_USB_Host_Library/Class/HID/Src/usbh_hid_keybd.c **** {
 339              		.loc 1 418 1 is_stmt 1 view -0
 340              		.cfi_startproc
 341              		@ args = 0, pretend = 0, frame = 0
 342              		@ frame_needed = 0, uses_anonymous_args = 0
 343              		@ link register save eliminated.
 419:./Libraries/STM32_USB_Host_Library/Class/HID/Src/usbh_hid_keybd.c ****   uint8_t   output;
 344              		.loc 1 419 3 view .LVU108
 420:./Libraries/STM32_USB_Host_Library/Class/HID/Src/usbh_hid_keybd.c ****   if ((info->lshift == 1U) || (info->rshift))
 345              		.loc 1 420 3 view .LVU109
 346              		.loc 1 420 6 is_stmt 0 view .LVU110
 347 0000 8378     		ldrb	r3, [r0, #2]	@ zero_extendqisi2
 348 0002 012B     		cmp	r3, #1
 349 0004 01D0     		beq	.L20
 350              		.loc 1 420 28 discriminator 1 view .LVU111
 351 0006 8379     		ldrb	r3, [r0, #6]	@ zero_extendqisi2
 352 0008 2BB1     		cbz	r3, .L21
 353              	.L20:
 421:./Libraries/STM32_USB_Host_Library/Class/HID/Src/usbh_hid_keybd.c ****   {
 422:./Libraries/STM32_USB_Host_Library/Class/HID/Src/usbh_hid_keybd.c ****     output =  HID_KEYBRD_ShiftKey[HID_KEYBRD_Codes[info->keys[0]]];
 354              		.loc 1 422 5 is_stmt 1 view .LVU112
 355              		.loc 1 422 62 is_stmt 0 view .LVU113
 356 000a 437A     		ldrb	r3, [r0, #9]	@ zero_extendqisi2
 357              		.loc 1 422 51 view .LVU114
 358 000c 0549     		ldr	r1, .L26
 359              		.loc 1 422 12 view .LVU115
 360 000e 064A     		ldr	r2, .L26+4
 361              		.loc 1 422 51 view .LVU116
 362 0010 CB5C     		ldrb	r3, [r1, r3]	@ zero_extendqisi2
 363              		.loc 1 422 12 view .LVU117
 364 0012 D05C     		ldrb	r0, [r2, r3]	@ zero_extendqisi2
 365              	.LVL26:
 366              		.loc 1 422 12 view .LVU118
 367 0014 7047     		bx	lr
 368              	.LVL27:
 369              	.L21:
 423:./Libraries/STM32_USB_Host_Library/Class/HID/Src/usbh_hid_keybd.c ****   }
 424:./Libraries/STM32_USB_Host_Library/Class/HID/Src/usbh_hid_keybd.c ****   else
 425:./Libraries/STM32_USB_Host_Library/Class/HID/Src/usbh_hid_keybd.c ****   {
 426:./Libraries/STM32_USB_Host_Library/Class/HID/Src/usbh_hid_keybd.c ****     output =  HID_KEYBRD_Key[HID_KEYBRD_Codes[info->keys[0]]];
 370              		.loc 1 426 5 is_stmt 1 view .LVU119
 371              		.loc 1 426 57 is_stmt 0 view .LVU120
 372 0016 437A     		ldrb	r3, [r0, #9]	@ zero_extendqisi2
 373              		.loc 1 426 46 view .LVU121
 374 0018 0249     		ldr	r1, .L26
 375              		.loc 1 426 12 view .LVU122
ARM GAS  /tmp/ccnrtK1G.s 			page 16


 376 001a 044A     		ldr	r2, .L26+8
 377              		.loc 1 426 46 view .LVU123
 378 001c CB5C     		ldrb	r3, [r1, r3]	@ zero_extendqisi2
 379              		.loc 1 426 12 view .LVU124
 380 001e D05C     		ldrb	r0, [r2, r3]	@ zero_extendqisi2
 381              	.LVL28:
 427:./Libraries/STM32_USB_Host_Library/Class/HID/Src/usbh_hid_keybd.c ****   }
 428:./Libraries/STM32_USB_Host_Library/Class/HID/Src/usbh_hid_keybd.c ****   return output;
 382              		.loc 1 428 3 is_stmt 1 view .LVU125
 429:./Libraries/STM32_USB_Host_Library/Class/HID/Src/usbh_hid_keybd.c **** }
 383              		.loc 1 429 1 is_stmt 0 view .LVU126
 384 0020 7047     		bx	lr
 385              	.L27:
 386 0022 00BF     		.align	2
 387              	.L26:
 388 0024 00000000 		.word	.LANCHOR10
 389 0028 00000000 		.word	.LANCHOR9
 390 002c 00000000 		.word	.LANCHOR11
 391              		.cfi_endproc
 392              	.LFE341:
 394              		.comm	keybd_report_data,8,4
 395              		.comm	keybd_rx_report_buf,8,4
 396              		.comm	keybd_info,15,4
 397              		.section	.rodata.HID_KEYBRD_Codes,"a"
 398              		.align	2
 399              		.set	.LANCHOR10,. + 0
 402              	HID_KEYBRD_Codes:
 403 0000 00000000 		.ascii	"\000\000\000\000\03720!\023\"#$\030%&'43\031\032\021"
 403      1F323021 
 403      13222324 
 403      18252627 
 403      3433191A 
 404 0015 14201517 		.ascii	"\024 \025\0271\022/\026.\002\003\004\005\006\007\010"
 404      31122F16 
 404      2E020304 
 404      05060708 
 405 0025 090A0B2B 		.ascii	"\011\012\013+n\017\020=\014\015\033\034\035*()\0015"
 405      6E0F103D 
 405      0C0D1B1C 
 405      1D2A2829 
 405      0135
 406 0037 36371E70 		.ascii	"67\036pqrstuvwxyz{|}~KPULQVYOTSZ_dijl]bg\\af[`ech-\201"
 406      71727374 
 406      75767778 
 406      797A7B7C 
 406      7D7E4B50 
 407 0066 00000000 		.ascii	"\000\000\000\000\000\000\000\000\000\000\000\000\000"
 407      00000000 
 407      00000000 
 407      00
 408 0073 00000000 		.ascii	"\000\000\000\000\000\000\000\000\000\000\000\000\000"
 408      00000000 
 408      00000000 
 408      00
 409 0080 00000000 		.ascii	"\000\000\000\000\000k\0008\000\000\000\000\000\000\000"
 409      006B0038 
 409      00000000 
ARM GAS  /tmp/ccnrtK1G.s 			page 17


 409      000000
 410 008f 00000000 		.ascii	"\000\000\000\000\000\000\000\000\000\000\000\000\000"
 410      00000000 
 410      00000000 
 410      00
 411 009c 00000000 		.ascii	"\000\000\000\000\000\000\000\000\000\000\000\000\000"
 411      00000000 
 411      00000000 
 411      00
 412 00a9 00000000 		.ascii	"\000\000\000\000\000\000\000\000\000\000\000\000\000"
 412      00000000 
 412      00000000 
 412      00
 413 00b6 00000000 		.ascii	"\000\000\000\000\000\000\000\000\000\000\000\000\000"
 413      00000000 
 413      00000000 
 413      00
 414 00c3 00000000 		.ascii	"\000\000\000\000\000\000\000\000\000\000\000\000\000"
 414      00000000 
 414      00000000 
 414      00
 415 00d0 00000000 		.ascii	"\000\000\000\000\000\000\000\000\000\000\000\000\000"
 415      00000000 
 415      00000000 
 415      00
 416 00dd 0000003A 		.ascii	"\000\000\000:,<\177@9>\200"
 416      2C3C7F40 
 416      393E80
 417              		.section	.rodata.HID_KEYBRD_Key,"a"
 418              		.align	2
 419              		.set	.LANCHOR11,. + 0
 422              	HID_KEYBRD_Key:
 423 0000 00603132 		.ascii	"\000`1234567890-=\000\015\011qwertyuiop[]\\\000asdf"
 423      33343536 
 423      37383930 
 423      2D3D000D 
 423      09717765 
 424 0023 67686A6B 		.ascii	"ghjkl;'\000\012\000\000zxcvbnm,./\000\000\000\000\000"
 424      6C3B2700 
 424      0A00007A 
 424      78637662 
 424      6E6D2C2E 
 425 003d 20000000 		.ascii	" \000\000\000\000\000\000\000\000\000\000\000\000\000"
 425      00000000 
 425      00000000 
 425      0000
 426 004b 00000000 		.ascii	"\000\000\000\000\000\015\000\000\000\000\000\000\000"
 426      000D0000 
 426      00000000 
 426      00
 427 0058 00000037 		.ascii	"\000\000\000741\000/8520*963.-+\000\012\000\000\000"
 427      3431002F 
 427      38353230 
 427      2A393633 
 427      2E2D2B00 
 428 0070 00000000 		.ascii	"\000\000\000\000\000\000\000\000\000\000\000\000\000"
 428      00000000 
ARM GAS  /tmp/ccnrtK1G.s 			page 18


 428      00000000 
 428      00
 429 007d 00000000 		.ascii	"\000\000\000\000\000"
 429      00
 430              		.section	.rodata.HID_KEYBRD_ShiftKey,"a"
 431              		.align	2
 432              		.set	.LANCHOR9,. + 0
 435              	HID_KEYBRD_ShiftKey:
 436 0000 007E2140 		.ascii	"\000~!@#$%^&*()_+\000\000\000QWERTYUIOP{}|\000ASDFG"
 436      2324255E 
 436      262A2829 
 436      5F2B0000 
 436      00515745 
 437 0024 484A4B4C 		.ascii	"HJKL:\"\000\012\000\000ZXCVBNM<>?\000\000\000\000\000"
 437      3A22000A 
 437      00005A58 
 437      4356424E 
 437      4D3C3E3F 
 438 003d 00000000 		.ascii	"\000\000\000\000\000\000\000\000\000\000\000\000\000"
 438      00000000 
 438      00000000 
 438      00
 439 004a 00000000 		.ascii	"\000\000\000\000\000\000\000\000\000\000\000\000\000"
 439      00000000 
 439      00000000 
 439      00
 440 0057 00000000 		.ascii	"\000\000\000\000\000\000\000\000\000\000\000\000\000"
 440      00000000 
 440      00000000 
 440      00
 441 0064 00000000 		.ascii	"\000\000\000\000\000\000\000\000\000\000\000\000\000"
 441      00000000 
 441      00000000 
 441      00
 442 0071 00000000 		.ascii	"\000\000\000\000\000\000\000\000\000\000\000\000\000"
 442      00000000 
 442      00000000 
 442      00
 443 007e 00000000 		.ascii	"\000\000\000\000"
 444              		.section	.rodata.imp_0_key_array,"a"
 445              		.align	2
 446              		.set	.LANCHOR8,. + 0
 449              	imp_0_key_array:
 450 0000 02000000 		.word	keybd_report_data+2
 451 0004 08000000 		.word	8
 452 0008 00       		.byte	0
 453 0009 06       		.byte	6
 454 000a 00       		.byte	0
 455 000b 00       		.space	1
 456 000c 00000000 		.word	0
 457 0010 65000000 		.word	101
 458 0014 00000000 		.word	0
 459 0018 65000000 		.word	101
 460 001c 01000000 		.word	1
 461              		.section	.rodata.imp_0_lalt,"a"
 462              		.align	2
 463              		.set	.LANCHOR2,. + 0
ARM GAS  /tmp/ccnrtK1G.s 			page 19


 466              	imp_0_lalt:
 467 0000 00000000 		.word	keybd_report_data
 468 0004 01000000 		.word	1
 469 0008 02       		.byte	2
 470 0009 00       		.byte	0
 471 000a 00       		.byte	0
 472 000b 00       		.space	1
 473 000c 00000000 		.word	0
 474 0010 01000000 		.word	1
 475 0014 00000000 		.word	0
 476 0018 01000000 		.word	1
 477 001c 01000000 		.word	1
 478              		.section	.rodata.imp_0_lctrl,"a"
 479              		.align	2
 480              		.set	.LANCHOR0,. + 0
 483              	imp_0_lctrl:
 484 0000 00000000 		.word	keybd_report_data
 485 0004 01000000 		.word	1
 486 0008 00       		.byte	0
 487 0009 00       		.byte	0
 488 000a 00       		.byte	0
 489 000b 00       		.space	1
 490 000c 00000000 		.word	0
 491 0010 01000000 		.word	1
 492 0014 00000000 		.word	0
 493 0018 01000000 		.word	1
 494 001c 01000000 		.word	1
 495              		.section	.rodata.imp_0_lgui,"a"
 496              		.align	2
 497              		.set	.LANCHOR3,. + 0
 500              	imp_0_lgui:
 501 0000 00000000 		.word	keybd_report_data
 502 0004 01000000 		.word	1
 503 0008 03       		.byte	3
 504 0009 00       		.byte	0
 505 000a 00       		.byte	0
 506 000b 00       		.space	1
 507 000c 00000000 		.word	0
 508 0010 01000000 		.word	1
 509 0014 00000000 		.word	0
 510 0018 01000000 		.word	1
 511 001c 01000000 		.word	1
 512              		.section	.rodata.imp_0_lshift,"a"
 513              		.align	2
 514              		.set	.LANCHOR1,. + 0
 517              	imp_0_lshift:
 518 0000 00000000 		.word	keybd_report_data
 519 0004 01000000 		.word	1
 520 0008 01       		.byte	1
 521 0009 00       		.byte	0
 522 000a 00       		.byte	0
 523 000b 00       		.space	1
 524 000c 00000000 		.word	0
 525 0010 01000000 		.word	1
 526 0014 00000000 		.word	0
 527 0018 01000000 		.word	1
 528 001c 01000000 		.word	1
ARM GAS  /tmp/ccnrtK1G.s 			page 20


 529              		.section	.rodata.imp_0_ralt,"a"
 530              		.align	2
 531              		.set	.LANCHOR6,. + 0
 534              	imp_0_ralt:
 535 0000 00000000 		.word	keybd_report_data
 536 0004 01000000 		.word	1
 537 0008 06       		.byte	6
 538 0009 00       		.byte	0
 539 000a 00       		.byte	0
 540 000b 00       		.space	1
 541 000c 00000000 		.word	0
 542 0010 01000000 		.word	1
 543 0014 00000000 		.word	0
 544 0018 01000000 		.word	1
 545 001c 01000000 		.word	1
 546              		.section	.rodata.imp_0_rctrl,"a"
 547              		.align	2
 548              		.set	.LANCHOR4,. + 0
 551              	imp_0_rctrl:
 552 0000 00000000 		.word	keybd_report_data
 553 0004 01000000 		.word	1
 554 0008 04       		.byte	4
 555 0009 00       		.byte	0
 556 000a 00       		.byte	0
 557 000b 00       		.space	1
 558 000c 00000000 		.word	0
 559 0010 01000000 		.word	1
 560 0014 00000000 		.word	0
 561 0018 01000000 		.word	1
 562 001c 01000000 		.word	1
 563              		.section	.rodata.imp_0_rgui,"a"
 564              		.align	2
 565              		.set	.LANCHOR7,. + 0
 568              	imp_0_rgui:
 569 0000 00000000 		.word	keybd_report_data
 570 0004 01000000 		.word	1
 571 0008 07       		.byte	7
 572 0009 00       		.byte	0
 573 000a 00       		.byte	0
 574 000b 00       		.space	1
 575 000c 00000000 		.word	0
 576 0010 01000000 		.word	1
 577 0014 00000000 		.word	0
 578 0018 01000000 		.word	1
 579 001c 01000000 		.word	1
 580              		.section	.rodata.imp_0_rshift,"a"
 581              		.align	2
 582              		.set	.LANCHOR5,. + 0
 585              	imp_0_rshift:
 586 0000 00000000 		.word	keybd_report_data
 587 0004 01000000 		.word	1
 588 0008 05       		.byte	5
 589 0009 00       		.byte	0
 590 000a 00       		.byte	0
 591 000b 00       		.space	1
 592 000c 00000000 		.word	0
 593 0010 01000000 		.word	1
ARM GAS  /tmp/ccnrtK1G.s 			page 21


 594 0014 00000000 		.word	0
 595 0018 01000000 		.word	1
 596 001c 01000000 		.word	1
 597              		.text
 598              	.Letext0:
 599              		.file 2 "/usr/lib/gcc/arm-none-eabi/9.2.1/include/stdint.h"
 600              		.file 3 "./Libraries/CMSIS/Core/Include/core_cm7.h"
 601              		.file 4 "./Libraries/CMSIS/Device/ST/STM32H7xx/Include/system_stm32h7xx.h"
 602              		.file 5 "/usr/lib/gcc/arm-none-eabi/9.2.1/include/stddef.h"
 603              		.file 6 "/usr/include/newlib/sys/_types.h"
 604              		.file 7 "/usr/include/newlib/sys/reent.h"
 605              		.file 8 "/usr/include/newlib/sys/lock.h"
 606              		.file 9 "/usr/include/newlib/math.h"
 607              		.file 10 "./Libraries/STM32H7xx_HAL_Driver/Inc/stm32h7xx_hal_def.h"
 608              		.file 11 "./Libraries/STM32H7xx_HAL_Driver/Inc/stm32h7xx_hal_flash.h"
 609              		.file 12 "./Libraries/STM32H7xx_HAL_Driver/Inc/stm32h7xx_hal_uart.h"
 610              		.file 13 "./Libraries/STM32H7xx_HAL_Driver/Inc/stm32h7xx_hal.h"
 611              		.file 14 "/usr/include/newlib/stdlib.h"
 612              		.file 15 "./Libraries/FreeRTOS/Source/CMSIS_RTOS/cmsis_os2.h"
 613              		.file 16 "./Libraries/STM32_USB_Host_Library/Core/Inc/usbh_def.h"
 614              		.file 17 "./Libraries/STM32_USB_Host_Library/Core/Inc/usbh_ctlreq.h"
 615              		.file 18 "./Libraries/STM32_USB_Host_Library/Class/HID/Inc/usbh_hid.h"
 616              		.file 19 "./Libraries/STM32_USB_Host_Library/Class/HID/Inc/usbh_hid_keybd.h"
 617              		.file 20 "./Libraries/STM32_USB_Host_Library/Class/HID/Inc/usbh_hid_parser.h"
ARM GAS  /tmp/ccnrtK1G.s 			page 22


DEFINED SYMBOLS
                            *ABS*:0000000000000000 usbh_hid_keybd.c
     /tmp/ccnrtK1G.s:17     .text.USBH_HID_KeybdInit:0000000000000000 $t
     /tmp/ccnrtK1G.s:26     .text.USBH_HID_KeybdInit:0000000000000000 USBH_HID_KeybdInit
     /tmp/ccnrtK1G.s:119    .text.USBH_HID_KeybdInit:0000000000000048 $d
                            *COM*:000000000000000f keybd_info
                            *COM*:0000000000000008 keybd_report_data
                            *COM*:0000000000000008 keybd_rx_report_buf
     /tmp/ccnrtK1G.s:126    .text.USBH_HID_GetKeybdInfo:0000000000000000 $t
     /tmp/ccnrtK1G.s:134    .text.USBH_HID_GetKeybdInfo:0000000000000000 USBH_HID_GetKeybdInfo
     /tmp/ccnrtK1G.s:313    .text.USBH_HID_GetKeybdInfo:00000000000000a0 $d
     /tmp/ccnrtK1G.s:328    .text.USBH_HID_GetASCIICode:0000000000000000 $t
     /tmp/ccnrtK1G.s:336    .text.USBH_HID_GetASCIICode:0000000000000000 USBH_HID_GetASCIICode
     /tmp/ccnrtK1G.s:388    .text.USBH_HID_GetASCIICode:0000000000000024 $d
     /tmp/ccnrtK1G.s:398    .rodata.HID_KEYBRD_Codes:0000000000000000 $d
     /tmp/ccnrtK1G.s:402    .rodata.HID_KEYBRD_Codes:0000000000000000 HID_KEYBRD_Codes
     /tmp/ccnrtK1G.s:418    .rodata.HID_KEYBRD_Key:0000000000000000 $d
     /tmp/ccnrtK1G.s:422    .rodata.HID_KEYBRD_Key:0000000000000000 HID_KEYBRD_Key
     /tmp/ccnrtK1G.s:431    .rodata.HID_KEYBRD_ShiftKey:0000000000000000 $d
     /tmp/ccnrtK1G.s:435    .rodata.HID_KEYBRD_ShiftKey:0000000000000000 HID_KEYBRD_ShiftKey
     /tmp/ccnrtK1G.s:445    .rodata.imp_0_key_array:0000000000000000 $d
     /tmp/ccnrtK1G.s:449    .rodata.imp_0_key_array:0000000000000000 imp_0_key_array
     /tmp/ccnrtK1G.s:462    .rodata.imp_0_lalt:0000000000000000 $d
     /tmp/ccnrtK1G.s:466    .rodata.imp_0_lalt:0000000000000000 imp_0_lalt
     /tmp/ccnrtK1G.s:479    .rodata.imp_0_lctrl:0000000000000000 $d
     /tmp/ccnrtK1G.s:483    .rodata.imp_0_lctrl:0000000000000000 imp_0_lctrl
     /tmp/ccnrtK1G.s:496    .rodata.imp_0_lgui:0000000000000000 $d
     /tmp/ccnrtK1G.s:500    .rodata.imp_0_lgui:0000000000000000 imp_0_lgui
     /tmp/ccnrtK1G.s:513    .rodata.imp_0_lshift:0000000000000000 $d
     /tmp/ccnrtK1G.s:517    .rodata.imp_0_lshift:0000000000000000 imp_0_lshift
     /tmp/ccnrtK1G.s:530    .rodata.imp_0_ralt:0000000000000000 $d
     /tmp/ccnrtK1G.s:534    .rodata.imp_0_ralt:0000000000000000 imp_0_ralt
     /tmp/ccnrtK1G.s:547    .rodata.imp_0_rctrl:0000000000000000 $d
     /tmp/ccnrtK1G.s:551    .rodata.imp_0_rctrl:0000000000000000 imp_0_rctrl
     /tmp/ccnrtK1G.s:564    .rodata.imp_0_rgui:0000000000000000 $d
     /tmp/ccnrtK1G.s:568    .rodata.imp_0_rgui:0000000000000000 imp_0_rgui
     /tmp/ccnrtK1G.s:581    .rodata.imp_0_rshift:0000000000000000 $d
     /tmp/ccnrtK1G.s:585    .rodata.imp_0_rshift:0000000000000000 imp_0_rshift

UNDEFINED SYMBOLS
USBH_HID_FifoInit
USBH_HID_FifoRead
HID_ReadItem
