ARM GAS  /tmp/ccGsgFXj.s 			page 1


   1              		.cpu cortex-m7
   2              		.eabi_attribute 28, 1
   3              		.eabi_attribute 20, 1
   4              		.eabi_attribute 21, 1
   5              		.eabi_attribute 23, 3
   6              		.eabi_attribute 24, 1
   7              		.eabi_attribute 25, 1
   8              		.eabi_attribute 26, 1
   9              		.eabi_attribute 30, 6
  10              		.eabi_attribute 34, 1
  11              		.eabi_attribute 18, 4
  12              		.file	"usbh_hid_keybd.c"
  13              		.text
  14              	.Ltext0:
  15              		.cfi_sections	.debug_frame
  16              		.comm	keybd_info,15,4
  17              		.comm	keybd_rx_report_buf,8,4
  18              		.comm	keybd_report_data,8,4
  19              		.section	.rodata.imp_0_lctrl,"a"
  20              		.align	2
  23              	imp_0_lctrl:
  24 0000 00000000 		.word	keybd_report_data
  25 0004 01000000 		.word	1
  26 0008 00       		.byte	0
  27 0009 00       		.byte	0
  28 000a 00       		.byte	0
  29 000b 00       		.space	1
  30 000c 00000000 		.word	0
  31 0010 01000000 		.word	1
  32 0014 00000000 		.word	0
  33 0018 01000000 		.word	1
  34 001c 01000000 		.word	1
  35              		.section	.rodata.imp_0_lshift,"a"
  36              		.align	2
  39              	imp_0_lshift:
  40 0000 00000000 		.word	keybd_report_data
  41 0004 01000000 		.word	1
  42 0008 01       		.byte	1
  43 0009 00       		.byte	0
  44 000a 00       		.byte	0
  45 000b 00       		.space	1
  46 000c 00000000 		.word	0
  47 0010 01000000 		.word	1
  48 0014 00000000 		.word	0
  49 0018 01000000 		.word	1
  50 001c 01000000 		.word	1
  51              		.section	.rodata.imp_0_lalt,"a"
  52              		.align	2
  55              	imp_0_lalt:
  56 0000 00000000 		.word	keybd_report_data
  57 0004 01000000 		.word	1
  58 0008 02       		.byte	2
  59 0009 00       		.byte	0
  60 000a 00       		.byte	0
  61 000b 00       		.space	1
  62 000c 00000000 		.word	0
  63 0010 01000000 		.word	1
ARM GAS  /tmp/ccGsgFXj.s 			page 2


  64 0014 00000000 		.word	0
  65 0018 01000000 		.word	1
  66 001c 01000000 		.word	1
  67              		.section	.rodata.imp_0_lgui,"a"
  68              		.align	2
  71              	imp_0_lgui:
  72 0000 00000000 		.word	keybd_report_data
  73 0004 01000000 		.word	1
  74 0008 03       		.byte	3
  75 0009 00       		.byte	0
  76 000a 00       		.byte	0
  77 000b 00       		.space	1
  78 000c 00000000 		.word	0
  79 0010 01000000 		.word	1
  80 0014 00000000 		.word	0
  81 0018 01000000 		.word	1
  82 001c 01000000 		.word	1
  83              		.section	.rodata.imp_0_rctrl,"a"
  84              		.align	2
  87              	imp_0_rctrl:
  88 0000 00000000 		.word	keybd_report_data
  89 0004 01000000 		.word	1
  90 0008 04       		.byte	4
  91 0009 00       		.byte	0
  92 000a 00       		.byte	0
  93 000b 00       		.space	1
  94 000c 00000000 		.word	0
  95 0010 01000000 		.word	1
  96 0014 00000000 		.word	0
  97 0018 01000000 		.word	1
  98 001c 01000000 		.word	1
  99              		.section	.rodata.imp_0_rshift,"a"
 100              		.align	2
 103              	imp_0_rshift:
 104 0000 00000000 		.word	keybd_report_data
 105 0004 01000000 		.word	1
 106 0008 05       		.byte	5
 107 0009 00       		.byte	0
 108 000a 00       		.byte	0
 109 000b 00       		.space	1
 110 000c 00000000 		.word	0
 111 0010 01000000 		.word	1
 112 0014 00000000 		.word	0
 113 0018 01000000 		.word	1
 114 001c 01000000 		.word	1
 115              		.section	.rodata.imp_0_ralt,"a"
 116              		.align	2
 119              	imp_0_ralt:
 120 0000 00000000 		.word	keybd_report_data
 121 0004 01000000 		.word	1
 122 0008 06       		.byte	6
 123 0009 00       		.byte	0
 124 000a 00       		.byte	0
 125 000b 00       		.space	1
 126 000c 00000000 		.word	0
 127 0010 01000000 		.word	1
 128 0014 00000000 		.word	0
ARM GAS  /tmp/ccGsgFXj.s 			page 3


 129 0018 01000000 		.word	1
 130 001c 01000000 		.word	1
 131              		.section	.rodata.imp_0_rgui,"a"
 132              		.align	2
 135              	imp_0_rgui:
 136 0000 00000000 		.word	keybd_report_data
 137 0004 01000000 		.word	1
 138 0008 07       		.byte	7
 139 0009 00       		.byte	0
 140 000a 00       		.byte	0
 141 000b 00       		.space	1
 142 000c 00000000 		.word	0
 143 0010 01000000 		.word	1
 144 0014 00000000 		.word	0
 145 0018 01000000 		.word	1
 146 001c 01000000 		.word	1
 147              		.section	.rodata.imp_0_key_array,"a"
 148              		.align	2
 151              	imp_0_key_array:
 152 0000 02000000 		.word	keybd_report_data+2
 153 0004 08000000 		.word	8
 154 0008 00       		.byte	0
 155 0009 06       		.byte	6
 156 000a 00       		.byte	0
 157 000b 00       		.space	1
 158 000c 00000000 		.word	0
 159 0010 65000000 		.word	101
 160 0014 00000000 		.word	0
 161 0018 65000000 		.word	101
 162 001c 01000000 		.word	1
 163              		.section	.rodata.HID_KEYBRD_Key,"a"
 164              		.align	2
 167              	HID_KEYBRD_Key:
 168 0000 00603132 		.ascii	"\000`1234567890-=\000\015\011qwertyuiop[]\\\000asdf"
 168      33343536 
 168      37383930 
 168      2D3D000D 
 168      09717765 
 169 0023 67686A6B 		.ascii	"ghjkl;'\000\012\000\000zxcvbnm,./\000\000\000\000\000"
 169      6C3B2700 
 169      0A00007A 
 169      78637662 
 169      6E6D2C2E 
 170 003d 20000000 		.ascii	" \000\000\000\000\000\000\000\000\000\000\000\000\000"
 170      00000000 
 170      00000000 
 170      0000
 171 004b 00000000 		.ascii	"\000\000\000\000\000\015\000\000\000\000\000\000\000"
 171      000D0000 
 171      00000000 
 171      00
 172 0058 00000037 		.ascii	"\000\000\000741\000/8520*963.-+\000\012\000\000\000"
 172      3431002F 
 172      38353230 
 172      2A393633 
 172      2E2D2B00 
 173 0070 00000000 		.ascii	"\000\000\000\000\000\000\000\000\000\000\000\000\000"
ARM GAS  /tmp/ccGsgFXj.s 			page 4


 173      00000000 
 173      00000000 
 173      00
 174 007d 00000000 		.ascii	"\000\000\000\000\000"
 174      00
 175              		.section	.rodata.HID_KEYBRD_ShiftKey,"a"
 176              		.align	2
 179              	HID_KEYBRD_ShiftKey:
 180 0000 007E2140 		.ascii	"\000~!@#$%^&*()_+\000\000\000QWERTYUIOP{}|\000ASDFG"
 180      2324255E 
 180      262A2829 
 180      5F2B0000 
 180      00515745 
 181 0024 484A4B4C 		.ascii	"HJKL:\"\000\012\000\000ZXCVBNM<>?\000\000\000\000\000"
 181      3A22000A 
 181      00005A58 
 181      4356424E 
 181      4D3C3E3F 
 182 003d 00000000 		.ascii	"\000\000\000\000\000\000\000\000\000\000\000\000\000"
 182      00000000 
 182      00000000 
 182      00
 183 004a 00000000 		.ascii	"\000\000\000\000\000\000\000\000\000\000\000\000\000"
 183      00000000 
 183      00000000 
 183      00
 184 0057 00000000 		.ascii	"\000\000\000\000\000\000\000\000\000\000\000\000\000"
 184      00000000 
 184      00000000 
 184      00
 185 0064 00000000 		.ascii	"\000\000\000\000\000\000\000\000\000\000\000\000\000"
 185      00000000 
 185      00000000 
 185      00
 186 0071 00000000 		.ascii	"\000\000\000\000\000\000\000\000\000\000\000\000\000"
 186      00000000 
 186      00000000 
 186      00
 187 007e 00000000 		.ascii	"\000\000\000\000"
 188              		.section	.rodata.HID_KEYBRD_Codes,"a"
 189              		.align	2
 192              	HID_KEYBRD_Codes:
 193 0000 00000000 		.ascii	"\000\000\000\000\03720!\023\"#$\030%&'43\031\032\021"
 193      1F323021 
 193      13222324 
 193      18252627 
 193      3433191A 
 194 0015 14201517 		.ascii	"\024 \025\0271\022/\026.\002\003\004\005\006\007\010"
 194      31122F16 
 194      2E020304 
 194      05060708 
 195 0025 090A0B2B 		.ascii	"\011\012\013+n\017\020=\014\015\033\034\035*()\0015"
 195      6E0F103D 
 195      0C0D1B1C 
 195      1D2A2829 
 195      0135
 196 0037 36371E70 		.ascii	"67\036pqrstuvwxyz{|}~KPULQVYOTSZ_dijl]bg\\af[`ech-\201"
ARM GAS  /tmp/ccGsgFXj.s 			page 5


 196      71727374 
 196      75767778 
 196      797A7B7C 
 196      7D7E4B50 
 197 0066 00000000 		.ascii	"\000\000\000\000\000\000\000\000\000\000\000\000\000"
 197      00000000 
 197      00000000 
 197      00
 198 0073 00000000 		.ascii	"\000\000\000\000\000\000\000\000\000\000\000\000\000"
 198      00000000 
 198      00000000 
 198      00
 199 0080 00000000 		.ascii	"\000\000\000\000\000k\0008\000\000\000\000\000\000\000"
 199      006B0038 
 199      00000000 
 199      000000
 200 008f 00000000 		.ascii	"\000\000\000\000\000\000\000\000\000\000\000\000\000"
 200      00000000 
 200      00000000 
 200      00
 201 009c 00000000 		.ascii	"\000\000\000\000\000\000\000\000\000\000\000\000\000"
 201      00000000 
 201      00000000 
 201      00
 202 00a9 00000000 		.ascii	"\000\000\000\000\000\000\000\000\000\000\000\000\000"
 202      00000000 
 202      00000000 
 202      00
 203 00b6 00000000 		.ascii	"\000\000\000\000\000\000\000\000\000\000\000\000\000"
 203      00000000 
 203      00000000 
 203      00
 204 00c3 00000000 		.ascii	"\000\000\000\000\000\000\000\000\000\000\000\000\000"
 204      00000000 
 204      00000000 
 204      00
 205 00d0 00000000 		.ascii	"\000\000\000\000\000\000\000\000\000\000\000\000\000"
 205      00000000 
 205      00000000 
 205      00
 206 00dd 0000003A 		.ascii	"\000\000\000:,<\177@9>\200"
 206      2C3C7F40 
 206      393E80
 207              		.section	.text.USBH_HID_KeybdInit,"ax",%progbits
 208              		.align	1
 209              		.global	USBH_HID_KeybdInit
 210              		.arch armv7e-m
 211              		.syntax unified
 212              		.thumb
 213              		.thumb_func
 214              		.fpu fpv5-d16
 216              	USBH_HID_KeybdInit:
 217              	.LFB338:
 218              		.file 1 "./Libraries/STM32_USB_Host_Library/Class/HID/Src/usbh_hid_keybd.c"
   1:./Libraries/STM32_USB_Host_Library/Class/HID/Src/usbh_hid_keybd.c **** /**
   2:./Libraries/STM32_USB_Host_Library/Class/HID/Src/usbh_hid_keybd.c ****   ******************************************************************************
   3:./Libraries/STM32_USB_Host_Library/Class/HID/Src/usbh_hid_keybd.c ****   * @file    usbh_hid_keybd.c
ARM GAS  /tmp/ccGsgFXj.s 			page 6


   4:./Libraries/STM32_USB_Host_Library/Class/HID/Src/usbh_hid_keybd.c ****   * @author  MCD Application Team
   5:./Libraries/STM32_USB_Host_Library/Class/HID/Src/usbh_hid_keybd.c ****   * @brief   This file is the application layer for USB Host HID Keyboard handling
   6:./Libraries/STM32_USB_Host_Library/Class/HID/Src/usbh_hid_keybd.c ****   *          QWERTY and AZERTY Keyboard are supported as per the selection in
   7:./Libraries/STM32_USB_Host_Library/Class/HID/Src/usbh_hid_keybd.c ****   *          usbh_hid_keybd.h
   8:./Libraries/STM32_USB_Host_Library/Class/HID/Src/usbh_hid_keybd.c ****   ******************************************************************************
   9:./Libraries/STM32_USB_Host_Library/Class/HID/Src/usbh_hid_keybd.c ****   * @attention
  10:./Libraries/STM32_USB_Host_Library/Class/HID/Src/usbh_hid_keybd.c ****   *
  11:./Libraries/STM32_USB_Host_Library/Class/HID/Src/usbh_hid_keybd.c ****   * <h2><center>&copy; Copyright (c) 2015 STMicroelectronics.
  12:./Libraries/STM32_USB_Host_Library/Class/HID/Src/usbh_hid_keybd.c ****   * All rights reserved.</center></h2>
  13:./Libraries/STM32_USB_Host_Library/Class/HID/Src/usbh_hid_keybd.c ****   *
  14:./Libraries/STM32_USB_Host_Library/Class/HID/Src/usbh_hid_keybd.c ****   * This software component is licensed by ST under Ultimate Liberty license
  15:./Libraries/STM32_USB_Host_Library/Class/HID/Src/usbh_hid_keybd.c ****   * SLA0044, the "License"; You may not use this file except in compliance with
  16:./Libraries/STM32_USB_Host_Library/Class/HID/Src/usbh_hid_keybd.c ****   * the License. You may obtain a copy of the License at:
  17:./Libraries/STM32_USB_Host_Library/Class/HID/Src/usbh_hid_keybd.c ****   *                      www.st.com/SLA0044
  18:./Libraries/STM32_USB_Host_Library/Class/HID/Src/usbh_hid_keybd.c ****   *
  19:./Libraries/STM32_USB_Host_Library/Class/HID/Src/usbh_hid_keybd.c ****   ******************************************************************************
  20:./Libraries/STM32_USB_Host_Library/Class/HID/Src/usbh_hid_keybd.c ****   */
  21:./Libraries/STM32_USB_Host_Library/Class/HID/Src/usbh_hid_keybd.c **** 
  22:./Libraries/STM32_USB_Host_Library/Class/HID/Src/usbh_hid_keybd.c **** /* BSPDependencies
  23:./Libraries/STM32_USB_Host_Library/Class/HID/Src/usbh_hid_keybd.c **** - "stm32xxxxx_{eval}{discovery}{nucleo_144}.c"
  24:./Libraries/STM32_USB_Host_Library/Class/HID/Src/usbh_hid_keybd.c **** - "stm32xxxxx_{eval}{discovery}_io.c"
  25:./Libraries/STM32_USB_Host_Library/Class/HID/Src/usbh_hid_keybd.c **** - "stm32xxxxx_{eval}{discovery}{adafruit}_lcd.c"
  26:./Libraries/STM32_USB_Host_Library/Class/HID/Src/usbh_hid_keybd.c **** - "stm32xxxxx_{eval}{discovery}_sdram.c"
  27:./Libraries/STM32_USB_Host_Library/Class/HID/Src/usbh_hid_keybd.c **** EndBSPDependencies */
  28:./Libraries/STM32_USB_Host_Library/Class/HID/Src/usbh_hid_keybd.c **** 
  29:./Libraries/STM32_USB_Host_Library/Class/HID/Src/usbh_hid_keybd.c **** /* Includes ------------------------------------------------------------------*/
  30:./Libraries/STM32_USB_Host_Library/Class/HID/Src/usbh_hid_keybd.c **** #include "usbh_hid_keybd.h"
  31:./Libraries/STM32_USB_Host_Library/Class/HID/Src/usbh_hid_keybd.c **** #include "usbh_hid_parser.h"
  32:./Libraries/STM32_USB_Host_Library/Class/HID/Src/usbh_hid_keybd.c **** 
  33:./Libraries/STM32_USB_Host_Library/Class/HID/Src/usbh_hid_keybd.c **** /** @addtogroup USBH_LIB
  34:./Libraries/STM32_USB_Host_Library/Class/HID/Src/usbh_hid_keybd.c **** * @{
  35:./Libraries/STM32_USB_Host_Library/Class/HID/Src/usbh_hid_keybd.c **** */
  36:./Libraries/STM32_USB_Host_Library/Class/HID/Src/usbh_hid_keybd.c **** 
  37:./Libraries/STM32_USB_Host_Library/Class/HID/Src/usbh_hid_keybd.c **** /** @addtogroup USBH_CLASS
  38:./Libraries/STM32_USB_Host_Library/Class/HID/Src/usbh_hid_keybd.c **** * @{
  39:./Libraries/STM32_USB_Host_Library/Class/HID/Src/usbh_hid_keybd.c **** */
  40:./Libraries/STM32_USB_Host_Library/Class/HID/Src/usbh_hid_keybd.c **** 
  41:./Libraries/STM32_USB_Host_Library/Class/HID/Src/usbh_hid_keybd.c **** /** @addtogroup USBH_HID_CLASS
  42:./Libraries/STM32_USB_Host_Library/Class/HID/Src/usbh_hid_keybd.c **** * @{
  43:./Libraries/STM32_USB_Host_Library/Class/HID/Src/usbh_hid_keybd.c **** */
  44:./Libraries/STM32_USB_Host_Library/Class/HID/Src/usbh_hid_keybd.c **** 
  45:./Libraries/STM32_USB_Host_Library/Class/HID/Src/usbh_hid_keybd.c **** /** @defgroup USBH_HID_KEYBD
  46:./Libraries/STM32_USB_Host_Library/Class/HID/Src/usbh_hid_keybd.c **** * @brief    This file includes HID Layer Handlers for USB Host HID class.
  47:./Libraries/STM32_USB_Host_Library/Class/HID/Src/usbh_hid_keybd.c **** * @{
  48:./Libraries/STM32_USB_Host_Library/Class/HID/Src/usbh_hid_keybd.c **** */
  49:./Libraries/STM32_USB_Host_Library/Class/HID/Src/usbh_hid_keybd.c **** 
  50:./Libraries/STM32_USB_Host_Library/Class/HID/Src/usbh_hid_keybd.c **** /** @defgroup USBH_HID_KEYBD_Private_TypesDefinitions
  51:./Libraries/STM32_USB_Host_Library/Class/HID/Src/usbh_hid_keybd.c **** * @{
  52:./Libraries/STM32_USB_Host_Library/Class/HID/Src/usbh_hid_keybd.c **** */
  53:./Libraries/STM32_USB_Host_Library/Class/HID/Src/usbh_hid_keybd.c **** /**
  54:./Libraries/STM32_USB_Host_Library/Class/HID/Src/usbh_hid_keybd.c **** * @}
  55:./Libraries/STM32_USB_Host_Library/Class/HID/Src/usbh_hid_keybd.c **** */
  56:./Libraries/STM32_USB_Host_Library/Class/HID/Src/usbh_hid_keybd.c **** 
  57:./Libraries/STM32_USB_Host_Library/Class/HID/Src/usbh_hid_keybd.c **** 
  58:./Libraries/STM32_USB_Host_Library/Class/HID/Src/usbh_hid_keybd.c **** /** @defgroup USBH_HID_KEYBD_Private_Defines
  59:./Libraries/STM32_USB_Host_Library/Class/HID/Src/usbh_hid_keybd.c **** * @{
  60:./Libraries/STM32_USB_Host_Library/Class/HID/Src/usbh_hid_keybd.c **** */
ARM GAS  /tmp/ccGsgFXj.s 			page 7


  61:./Libraries/STM32_USB_Host_Library/Class/HID/Src/usbh_hid_keybd.c **** /**
  62:./Libraries/STM32_USB_Host_Library/Class/HID/Src/usbh_hid_keybd.c **** * @}
  63:./Libraries/STM32_USB_Host_Library/Class/HID/Src/usbh_hid_keybd.c **** */
  64:./Libraries/STM32_USB_Host_Library/Class/HID/Src/usbh_hid_keybd.c **** #ifndef AZERTY_KEYBOARD
  65:./Libraries/STM32_USB_Host_Library/Class/HID/Src/usbh_hid_keybd.c **** #define QWERTY_KEYBOARD
  66:./Libraries/STM32_USB_Host_Library/Class/HID/Src/usbh_hid_keybd.c **** #endif
  67:./Libraries/STM32_USB_Host_Library/Class/HID/Src/usbh_hid_keybd.c **** #define  KBD_LEFT_CTRL                                  0x01
  68:./Libraries/STM32_USB_Host_Library/Class/HID/Src/usbh_hid_keybd.c **** #define  KBD_LEFT_SHIFT                                 0x02
  69:./Libraries/STM32_USB_Host_Library/Class/HID/Src/usbh_hid_keybd.c **** #define  KBD_LEFT_ALT                                   0x04
  70:./Libraries/STM32_USB_Host_Library/Class/HID/Src/usbh_hid_keybd.c **** #define  KBD_LEFT_GUI                                   0x08
  71:./Libraries/STM32_USB_Host_Library/Class/HID/Src/usbh_hid_keybd.c **** #define  KBD_RIGHT_CTRL                                 0x10
  72:./Libraries/STM32_USB_Host_Library/Class/HID/Src/usbh_hid_keybd.c **** #define  KBD_RIGHT_SHIFT                                0x20
  73:./Libraries/STM32_USB_Host_Library/Class/HID/Src/usbh_hid_keybd.c **** #define  KBD_RIGHT_ALT                                  0x40
  74:./Libraries/STM32_USB_Host_Library/Class/HID/Src/usbh_hid_keybd.c **** #define  KBD_RIGHT_GUI                                  0x80
  75:./Libraries/STM32_USB_Host_Library/Class/HID/Src/usbh_hid_keybd.c **** #define  KBR_MAX_NBR_PRESSED                            6
  76:./Libraries/STM32_USB_Host_Library/Class/HID/Src/usbh_hid_keybd.c **** 
  77:./Libraries/STM32_USB_Host_Library/Class/HID/Src/usbh_hid_keybd.c **** /** @defgroup USBH_HID_KEYBD_Private_Macros
  78:./Libraries/STM32_USB_Host_Library/Class/HID/Src/usbh_hid_keybd.c **** * @{
  79:./Libraries/STM32_USB_Host_Library/Class/HID/Src/usbh_hid_keybd.c **** */
  80:./Libraries/STM32_USB_Host_Library/Class/HID/Src/usbh_hid_keybd.c **** /**
  81:./Libraries/STM32_USB_Host_Library/Class/HID/Src/usbh_hid_keybd.c **** * @}
  82:./Libraries/STM32_USB_Host_Library/Class/HID/Src/usbh_hid_keybd.c **** */
  83:./Libraries/STM32_USB_Host_Library/Class/HID/Src/usbh_hid_keybd.c **** 
  84:./Libraries/STM32_USB_Host_Library/Class/HID/Src/usbh_hid_keybd.c **** /** @defgroup USBH_HID_KEYBD_Private_FunctionPrototypes
  85:./Libraries/STM32_USB_Host_Library/Class/HID/Src/usbh_hid_keybd.c **** * @{
  86:./Libraries/STM32_USB_Host_Library/Class/HID/Src/usbh_hid_keybd.c **** */
  87:./Libraries/STM32_USB_Host_Library/Class/HID/Src/usbh_hid_keybd.c **** static USBH_StatusTypeDef USBH_HID_KeybdDecode(USBH_HandleTypeDef *phost);
  88:./Libraries/STM32_USB_Host_Library/Class/HID/Src/usbh_hid_keybd.c **** /**
  89:./Libraries/STM32_USB_Host_Library/Class/HID/Src/usbh_hid_keybd.c **** * @}
  90:./Libraries/STM32_USB_Host_Library/Class/HID/Src/usbh_hid_keybd.c **** */
  91:./Libraries/STM32_USB_Host_Library/Class/HID/Src/usbh_hid_keybd.c **** 
  92:./Libraries/STM32_USB_Host_Library/Class/HID/Src/usbh_hid_keybd.c **** /** @defgroup USBH_HID_KEYBD_Private_Variables
  93:./Libraries/STM32_USB_Host_Library/Class/HID/Src/usbh_hid_keybd.c **** * @{
  94:./Libraries/STM32_USB_Host_Library/Class/HID/Src/usbh_hid_keybd.c **** */
  95:./Libraries/STM32_USB_Host_Library/Class/HID/Src/usbh_hid_keybd.c **** 
  96:./Libraries/STM32_USB_Host_Library/Class/HID/Src/usbh_hid_keybd.c **** HID_KEYBD_Info_TypeDef     keybd_info;
  97:./Libraries/STM32_USB_Host_Library/Class/HID/Src/usbh_hid_keybd.c **** uint32_t                   keybd_rx_report_buf[2];
  98:./Libraries/STM32_USB_Host_Library/Class/HID/Src/usbh_hid_keybd.c **** uint32_t                   keybd_report_data[2];
  99:./Libraries/STM32_USB_Host_Library/Class/HID/Src/usbh_hid_keybd.c **** 
 100:./Libraries/STM32_USB_Host_Library/Class/HID/Src/usbh_hid_keybd.c **** static const HID_Report_ItemTypedef imp_0_lctrl =
 101:./Libraries/STM32_USB_Host_Library/Class/HID/Src/usbh_hid_keybd.c **** {
 102:./Libraries/STM32_USB_Host_Library/Class/HID/Src/usbh_hid_keybd.c ****   (uint8_t *)(void *)keybd_report_data + 0, /*data*/
 103:./Libraries/STM32_USB_Host_Library/Class/HID/Src/usbh_hid_keybd.c ****   1,     /*size*/
 104:./Libraries/STM32_USB_Host_Library/Class/HID/Src/usbh_hid_keybd.c ****   0,     /*shift*/
 105:./Libraries/STM32_USB_Host_Library/Class/HID/Src/usbh_hid_keybd.c ****   0,     /*count (only for array items)*/
 106:./Libraries/STM32_USB_Host_Library/Class/HID/Src/usbh_hid_keybd.c ****   0,     /*signed?*/
 107:./Libraries/STM32_USB_Host_Library/Class/HID/Src/usbh_hid_keybd.c ****   0,     /*min value read can return*/
 108:./Libraries/STM32_USB_Host_Library/Class/HID/Src/usbh_hid_keybd.c ****   1,     /*max value read can return*/
 109:./Libraries/STM32_USB_Host_Library/Class/HID/Src/usbh_hid_keybd.c ****   0,     /*min vale device can report*/
 110:./Libraries/STM32_USB_Host_Library/Class/HID/Src/usbh_hid_keybd.c ****   1,     /*max value device can report*/
 111:./Libraries/STM32_USB_Host_Library/Class/HID/Src/usbh_hid_keybd.c ****   1      /*resolution*/
 112:./Libraries/STM32_USB_Host_Library/Class/HID/Src/usbh_hid_keybd.c **** };
 113:./Libraries/STM32_USB_Host_Library/Class/HID/Src/usbh_hid_keybd.c **** static const HID_Report_ItemTypedef imp_0_lshift =
 114:./Libraries/STM32_USB_Host_Library/Class/HID/Src/usbh_hid_keybd.c **** {
 115:./Libraries/STM32_USB_Host_Library/Class/HID/Src/usbh_hid_keybd.c ****   (uint8_t *)(void *)keybd_report_data + 0, /*data*/
 116:./Libraries/STM32_USB_Host_Library/Class/HID/Src/usbh_hid_keybd.c ****   1,     /*size*/
 117:./Libraries/STM32_USB_Host_Library/Class/HID/Src/usbh_hid_keybd.c ****   1,     /*shift*/
ARM GAS  /tmp/ccGsgFXj.s 			page 8


 118:./Libraries/STM32_USB_Host_Library/Class/HID/Src/usbh_hid_keybd.c ****   0,     /*count (only for array items)*/
 119:./Libraries/STM32_USB_Host_Library/Class/HID/Src/usbh_hid_keybd.c ****   0,     /*signed?*/
 120:./Libraries/STM32_USB_Host_Library/Class/HID/Src/usbh_hid_keybd.c ****   0,     /*min value read can return*/
 121:./Libraries/STM32_USB_Host_Library/Class/HID/Src/usbh_hid_keybd.c ****   1,     /*max value read can return*/
 122:./Libraries/STM32_USB_Host_Library/Class/HID/Src/usbh_hid_keybd.c ****   0,     /*min vale device can report*/
 123:./Libraries/STM32_USB_Host_Library/Class/HID/Src/usbh_hid_keybd.c ****   1,     /*max value device can report*/
 124:./Libraries/STM32_USB_Host_Library/Class/HID/Src/usbh_hid_keybd.c ****   1      /*resolution*/
 125:./Libraries/STM32_USB_Host_Library/Class/HID/Src/usbh_hid_keybd.c **** };
 126:./Libraries/STM32_USB_Host_Library/Class/HID/Src/usbh_hid_keybd.c **** static const HID_Report_ItemTypedef imp_0_lalt =
 127:./Libraries/STM32_USB_Host_Library/Class/HID/Src/usbh_hid_keybd.c **** {
 128:./Libraries/STM32_USB_Host_Library/Class/HID/Src/usbh_hid_keybd.c ****   (uint8_t *)(void *)keybd_report_data + 0, /*data*/
 129:./Libraries/STM32_USB_Host_Library/Class/HID/Src/usbh_hid_keybd.c ****   1,     /*size*/
 130:./Libraries/STM32_USB_Host_Library/Class/HID/Src/usbh_hid_keybd.c ****   2,     /*shift*/
 131:./Libraries/STM32_USB_Host_Library/Class/HID/Src/usbh_hid_keybd.c ****   0,     /*count (only for array items)*/
 132:./Libraries/STM32_USB_Host_Library/Class/HID/Src/usbh_hid_keybd.c ****   0,     /*signed?*/
 133:./Libraries/STM32_USB_Host_Library/Class/HID/Src/usbh_hid_keybd.c ****   0,     /*min value read can return*/
 134:./Libraries/STM32_USB_Host_Library/Class/HID/Src/usbh_hid_keybd.c ****   1,     /*max value read can return*/
 135:./Libraries/STM32_USB_Host_Library/Class/HID/Src/usbh_hid_keybd.c ****   0,     /*min vale device can report*/
 136:./Libraries/STM32_USB_Host_Library/Class/HID/Src/usbh_hid_keybd.c ****   1,     /*max value device can report*/
 137:./Libraries/STM32_USB_Host_Library/Class/HID/Src/usbh_hid_keybd.c ****   1      /*resolution*/
 138:./Libraries/STM32_USB_Host_Library/Class/HID/Src/usbh_hid_keybd.c **** };
 139:./Libraries/STM32_USB_Host_Library/Class/HID/Src/usbh_hid_keybd.c **** static const HID_Report_ItemTypedef imp_0_lgui =
 140:./Libraries/STM32_USB_Host_Library/Class/HID/Src/usbh_hid_keybd.c **** {
 141:./Libraries/STM32_USB_Host_Library/Class/HID/Src/usbh_hid_keybd.c ****   (uint8_t *)(void *)keybd_report_data + 0, /*data*/
 142:./Libraries/STM32_USB_Host_Library/Class/HID/Src/usbh_hid_keybd.c ****   1,     /*size*/
 143:./Libraries/STM32_USB_Host_Library/Class/HID/Src/usbh_hid_keybd.c ****   3,     /*shift*/
 144:./Libraries/STM32_USB_Host_Library/Class/HID/Src/usbh_hid_keybd.c ****   0,     /*count (only for array items)*/
 145:./Libraries/STM32_USB_Host_Library/Class/HID/Src/usbh_hid_keybd.c ****   0,     /*signed?*/
 146:./Libraries/STM32_USB_Host_Library/Class/HID/Src/usbh_hid_keybd.c ****   0,     /*min value read can return*/
 147:./Libraries/STM32_USB_Host_Library/Class/HID/Src/usbh_hid_keybd.c ****   1,     /*max value read can return*/
 148:./Libraries/STM32_USB_Host_Library/Class/HID/Src/usbh_hid_keybd.c ****   0,     /*min vale device can report*/
 149:./Libraries/STM32_USB_Host_Library/Class/HID/Src/usbh_hid_keybd.c ****   1,     /*max value device can report*/
 150:./Libraries/STM32_USB_Host_Library/Class/HID/Src/usbh_hid_keybd.c ****   1      /*resolution*/
 151:./Libraries/STM32_USB_Host_Library/Class/HID/Src/usbh_hid_keybd.c **** };
 152:./Libraries/STM32_USB_Host_Library/Class/HID/Src/usbh_hid_keybd.c **** static const HID_Report_ItemTypedef imp_0_rctrl =
 153:./Libraries/STM32_USB_Host_Library/Class/HID/Src/usbh_hid_keybd.c **** {
 154:./Libraries/STM32_USB_Host_Library/Class/HID/Src/usbh_hid_keybd.c ****   (uint8_t *)(void *)keybd_report_data + 0, /*data*/
 155:./Libraries/STM32_USB_Host_Library/Class/HID/Src/usbh_hid_keybd.c ****   1,     /*size*/
 156:./Libraries/STM32_USB_Host_Library/Class/HID/Src/usbh_hid_keybd.c ****   4,     /*shift*/
 157:./Libraries/STM32_USB_Host_Library/Class/HID/Src/usbh_hid_keybd.c ****   0,     /*count (only for array items)*/
 158:./Libraries/STM32_USB_Host_Library/Class/HID/Src/usbh_hid_keybd.c ****   0,     /*signed?*/
 159:./Libraries/STM32_USB_Host_Library/Class/HID/Src/usbh_hid_keybd.c ****   0,     /*min value read can return*/
 160:./Libraries/STM32_USB_Host_Library/Class/HID/Src/usbh_hid_keybd.c ****   1,     /*max value read can return*/
 161:./Libraries/STM32_USB_Host_Library/Class/HID/Src/usbh_hid_keybd.c ****   0,     /*min vale device can report*/
 162:./Libraries/STM32_USB_Host_Library/Class/HID/Src/usbh_hid_keybd.c ****   1,     /*max value device can report*/
 163:./Libraries/STM32_USB_Host_Library/Class/HID/Src/usbh_hid_keybd.c ****   1      /*resolution*/
 164:./Libraries/STM32_USB_Host_Library/Class/HID/Src/usbh_hid_keybd.c **** };
 165:./Libraries/STM32_USB_Host_Library/Class/HID/Src/usbh_hid_keybd.c **** static const HID_Report_ItemTypedef imp_0_rshift =
 166:./Libraries/STM32_USB_Host_Library/Class/HID/Src/usbh_hid_keybd.c **** {
 167:./Libraries/STM32_USB_Host_Library/Class/HID/Src/usbh_hid_keybd.c ****   (uint8_t *)(void *)keybd_report_data + 0, /*data*/
 168:./Libraries/STM32_USB_Host_Library/Class/HID/Src/usbh_hid_keybd.c ****   1,     /*size*/
 169:./Libraries/STM32_USB_Host_Library/Class/HID/Src/usbh_hid_keybd.c ****   5,     /*shift*/
 170:./Libraries/STM32_USB_Host_Library/Class/HID/Src/usbh_hid_keybd.c ****   0,     /*count (only for array items)*/
 171:./Libraries/STM32_USB_Host_Library/Class/HID/Src/usbh_hid_keybd.c ****   0,     /*signed?*/
 172:./Libraries/STM32_USB_Host_Library/Class/HID/Src/usbh_hid_keybd.c ****   0,     /*min value read can return*/
 173:./Libraries/STM32_USB_Host_Library/Class/HID/Src/usbh_hid_keybd.c ****   1,     /*max value read can return*/
 174:./Libraries/STM32_USB_Host_Library/Class/HID/Src/usbh_hid_keybd.c ****   0,     /*min vale device can report*/
ARM GAS  /tmp/ccGsgFXj.s 			page 9


 175:./Libraries/STM32_USB_Host_Library/Class/HID/Src/usbh_hid_keybd.c ****   1,     /*max value device can report*/
 176:./Libraries/STM32_USB_Host_Library/Class/HID/Src/usbh_hid_keybd.c ****   1      /*resolution*/
 177:./Libraries/STM32_USB_Host_Library/Class/HID/Src/usbh_hid_keybd.c **** };
 178:./Libraries/STM32_USB_Host_Library/Class/HID/Src/usbh_hid_keybd.c **** static const HID_Report_ItemTypedef imp_0_ralt =
 179:./Libraries/STM32_USB_Host_Library/Class/HID/Src/usbh_hid_keybd.c **** {
 180:./Libraries/STM32_USB_Host_Library/Class/HID/Src/usbh_hid_keybd.c ****   (uint8_t *)(void *)keybd_report_data + 0, /*data*/
 181:./Libraries/STM32_USB_Host_Library/Class/HID/Src/usbh_hid_keybd.c ****   1,     /*size*/
 182:./Libraries/STM32_USB_Host_Library/Class/HID/Src/usbh_hid_keybd.c ****   6,     /*shift*/
 183:./Libraries/STM32_USB_Host_Library/Class/HID/Src/usbh_hid_keybd.c ****   0,     /*count (only for array items)*/
 184:./Libraries/STM32_USB_Host_Library/Class/HID/Src/usbh_hid_keybd.c ****   0,     /*signed?*/
 185:./Libraries/STM32_USB_Host_Library/Class/HID/Src/usbh_hid_keybd.c ****   0,     /*min value read can return*/
 186:./Libraries/STM32_USB_Host_Library/Class/HID/Src/usbh_hid_keybd.c ****   1,     /*max value read can return*/
 187:./Libraries/STM32_USB_Host_Library/Class/HID/Src/usbh_hid_keybd.c ****   0,     /*min vale device can report*/
 188:./Libraries/STM32_USB_Host_Library/Class/HID/Src/usbh_hid_keybd.c ****   1,     /*max value device can report*/
 189:./Libraries/STM32_USB_Host_Library/Class/HID/Src/usbh_hid_keybd.c ****   1      /*resolution*/
 190:./Libraries/STM32_USB_Host_Library/Class/HID/Src/usbh_hid_keybd.c **** };
 191:./Libraries/STM32_USB_Host_Library/Class/HID/Src/usbh_hid_keybd.c **** static const HID_Report_ItemTypedef imp_0_rgui =
 192:./Libraries/STM32_USB_Host_Library/Class/HID/Src/usbh_hid_keybd.c **** {
 193:./Libraries/STM32_USB_Host_Library/Class/HID/Src/usbh_hid_keybd.c ****   (uint8_t *)(void *)keybd_report_data + 0, /*data*/
 194:./Libraries/STM32_USB_Host_Library/Class/HID/Src/usbh_hid_keybd.c ****   1,     /*size*/
 195:./Libraries/STM32_USB_Host_Library/Class/HID/Src/usbh_hid_keybd.c ****   7,     /*shift*/
 196:./Libraries/STM32_USB_Host_Library/Class/HID/Src/usbh_hid_keybd.c ****   0,     /*count (only for array items)*/
 197:./Libraries/STM32_USB_Host_Library/Class/HID/Src/usbh_hid_keybd.c ****   0,     /*signed?*/
 198:./Libraries/STM32_USB_Host_Library/Class/HID/Src/usbh_hid_keybd.c ****   0,     /*min value read can return*/
 199:./Libraries/STM32_USB_Host_Library/Class/HID/Src/usbh_hid_keybd.c ****   1,     /*max value read can return*/
 200:./Libraries/STM32_USB_Host_Library/Class/HID/Src/usbh_hid_keybd.c ****   0,     /*min vale device can report*/
 201:./Libraries/STM32_USB_Host_Library/Class/HID/Src/usbh_hid_keybd.c ****   1,     /*max value device can report*/
 202:./Libraries/STM32_USB_Host_Library/Class/HID/Src/usbh_hid_keybd.c ****   1      /*resolution*/
 203:./Libraries/STM32_USB_Host_Library/Class/HID/Src/usbh_hid_keybd.c **** };
 204:./Libraries/STM32_USB_Host_Library/Class/HID/Src/usbh_hid_keybd.c **** 
 205:./Libraries/STM32_USB_Host_Library/Class/HID/Src/usbh_hid_keybd.c **** static const HID_Report_ItemTypedef imp_0_key_array =
 206:./Libraries/STM32_USB_Host_Library/Class/HID/Src/usbh_hid_keybd.c **** {
 207:./Libraries/STM32_USB_Host_Library/Class/HID/Src/usbh_hid_keybd.c ****   (uint8_t *)(void *)keybd_report_data + 2, /*data*/
 208:./Libraries/STM32_USB_Host_Library/Class/HID/Src/usbh_hid_keybd.c ****   8,     /*size*/
 209:./Libraries/STM32_USB_Host_Library/Class/HID/Src/usbh_hid_keybd.c ****   0,     /*shift*/
 210:./Libraries/STM32_USB_Host_Library/Class/HID/Src/usbh_hid_keybd.c ****   6,     /*count (only for array items)*/
 211:./Libraries/STM32_USB_Host_Library/Class/HID/Src/usbh_hid_keybd.c ****   0,     /*signed?*/
 212:./Libraries/STM32_USB_Host_Library/Class/HID/Src/usbh_hid_keybd.c ****   0,     /*min value read can return*/
 213:./Libraries/STM32_USB_Host_Library/Class/HID/Src/usbh_hid_keybd.c ****   101,   /*max value read can return*/
 214:./Libraries/STM32_USB_Host_Library/Class/HID/Src/usbh_hid_keybd.c ****   0,     /*min vale device can report*/
 215:./Libraries/STM32_USB_Host_Library/Class/HID/Src/usbh_hid_keybd.c ****   101,   /*max value device can report*/
 216:./Libraries/STM32_USB_Host_Library/Class/HID/Src/usbh_hid_keybd.c ****   1      /*resolution*/
 217:./Libraries/STM32_USB_Host_Library/Class/HID/Src/usbh_hid_keybd.c **** };
 218:./Libraries/STM32_USB_Host_Library/Class/HID/Src/usbh_hid_keybd.c **** 
 219:./Libraries/STM32_USB_Host_Library/Class/HID/Src/usbh_hid_keybd.c **** #ifdef QWERTY_KEYBOARD
 220:./Libraries/STM32_USB_Host_Library/Class/HID/Src/usbh_hid_keybd.c **** static  const  uint8_t  HID_KEYBRD_Key[] =
 221:./Libraries/STM32_USB_Host_Library/Class/HID/Src/usbh_hid_keybd.c **** {
 222:./Libraries/STM32_USB_Host_Library/Class/HID/Src/usbh_hid_keybd.c ****   '\0',  '`',  '1',  '2',  '3',  '4',  '5',  '6',
 223:./Libraries/STM32_USB_Host_Library/Class/HID/Src/usbh_hid_keybd.c ****   '7',  '8',  '9',  '0',  '-',  '=',  '\0', '\r',
 224:./Libraries/STM32_USB_Host_Library/Class/HID/Src/usbh_hid_keybd.c ****   '\t',  'q',  'w',  'e',  'r',  't',  'y',  'u',
 225:./Libraries/STM32_USB_Host_Library/Class/HID/Src/usbh_hid_keybd.c ****   'i',  'o',  'p',  '[',  ']',  '\\',
 226:./Libraries/STM32_USB_Host_Library/Class/HID/Src/usbh_hid_keybd.c ****   '\0',  'a',  's',  'd',  'f',  'g',  'h',  'j',
 227:./Libraries/STM32_USB_Host_Library/Class/HID/Src/usbh_hid_keybd.c ****   'k',  'l',  ';',  '\'', '\0', '\n',
 228:./Libraries/STM32_USB_Host_Library/Class/HID/Src/usbh_hid_keybd.c ****   '\0',  '\0', 'z',  'x',  'c',  'v',  'b',  'n',
 229:./Libraries/STM32_USB_Host_Library/Class/HID/Src/usbh_hid_keybd.c ****   'm',  ',',  '.',  '/',  '\0', '\0',
 230:./Libraries/STM32_USB_Host_Library/Class/HID/Src/usbh_hid_keybd.c ****   '\0',  '\0', '\0', ' ',  '\0', '\0', '\0', '\0',
 231:./Libraries/STM32_USB_Host_Library/Class/HID/Src/usbh_hid_keybd.c ****   '\0', '\0', '\0', '\0', '\0', '\0', '\0', '\0', '\0',
ARM GAS  /tmp/ccGsgFXj.s 			page 10


 232:./Libraries/STM32_USB_Host_Library/Class/HID/Src/usbh_hid_keybd.c ****   '\0',  '\0', '\0', '\0', '\0', '\r', '\0', '\0',
 233:./Libraries/STM32_USB_Host_Library/Class/HID/Src/usbh_hid_keybd.c ****   '\0', '\0', '\0', '\0', '\0', '\0',
 234:./Libraries/STM32_USB_Host_Library/Class/HID/Src/usbh_hid_keybd.c ****   '\0',  '\0', '7',  '4',  '1',
 235:./Libraries/STM32_USB_Host_Library/Class/HID/Src/usbh_hid_keybd.c ****   '\0',  '/',  '8',  '5',  '2',
 236:./Libraries/STM32_USB_Host_Library/Class/HID/Src/usbh_hid_keybd.c ****   '0',   '*',  '9',  '6',  '3',
 237:./Libraries/STM32_USB_Host_Library/Class/HID/Src/usbh_hid_keybd.c ****   '.',   '-',  '+',  '\0', '\n', '\0', '\0', '\0', '\0', '\0', '\0',
 238:./Libraries/STM32_USB_Host_Library/Class/HID/Src/usbh_hid_keybd.c ****   '\0',  '\0', '\0', '\0', '\0', '\0', '\0', '\0', '\0', '\0', '\0',
 239:./Libraries/STM32_USB_Host_Library/Class/HID/Src/usbh_hid_keybd.c ****   '\0', '\0', '\0', '\0'
 240:./Libraries/STM32_USB_Host_Library/Class/HID/Src/usbh_hid_keybd.c **** };
 241:./Libraries/STM32_USB_Host_Library/Class/HID/Src/usbh_hid_keybd.c **** 
 242:./Libraries/STM32_USB_Host_Library/Class/HID/Src/usbh_hid_keybd.c **** static  const  uint8_t  HID_KEYBRD_ShiftKey[] =
 243:./Libraries/STM32_USB_Host_Library/Class/HID/Src/usbh_hid_keybd.c **** {
 244:./Libraries/STM32_USB_Host_Library/Class/HID/Src/usbh_hid_keybd.c ****   '\0', '~',  '!',  '@',  '#',  '$',  '%',  '^',  '&',  '*',  '(',  ')',
 245:./Libraries/STM32_USB_Host_Library/Class/HID/Src/usbh_hid_keybd.c ****   '_',  '+',  '\0', '\0', '\0', 'Q',  'W',  'E',  'R',  'T',  'Y',  'U',
 246:./Libraries/STM32_USB_Host_Library/Class/HID/Src/usbh_hid_keybd.c ****   'I',  'O',  'P',  '{',  '}',  '|',  '\0', 'A',  'S',  'D',  'F',  'G',
 247:./Libraries/STM32_USB_Host_Library/Class/HID/Src/usbh_hid_keybd.c ****   'H',  'J',  'K',  'L',  ':',  '"',  '\0', '\n', '\0', '\0', 'Z',  'X',
 248:./Libraries/STM32_USB_Host_Library/Class/HID/Src/usbh_hid_keybd.c ****   'C',  'V',  'B',  'N',  'M',  '<',  '>',  '?',  '\0', '\0',  '\0', '\0',
 249:./Libraries/STM32_USB_Host_Library/Class/HID/Src/usbh_hid_keybd.c ****   '\0', '\0', '\0', '\0', '\0', '\0', '\0', '\0', '\0', '\0', '\0', '\0',
 250:./Libraries/STM32_USB_Host_Library/Class/HID/Src/usbh_hid_keybd.c ****   '\0', '\0', '\0', '\0', '\0', '\0', '\0', '\0', '\0', '\0', '\0', '\0',
 251:./Libraries/STM32_USB_Host_Library/Class/HID/Src/usbh_hid_keybd.c ****   '\0', '\0', '\0', '\0', '\0', '\0', '\0', '\0', '\0', '\0', '\0', '\0',
 252:./Libraries/STM32_USB_Host_Library/Class/HID/Src/usbh_hid_keybd.c ****   '\0', '\0', '\0', '\0', '\0', '\0', '\0', '\0', '\0', '\0', '\0', '\0',
 253:./Libraries/STM32_USB_Host_Library/Class/HID/Src/usbh_hid_keybd.c ****   '\0', '\0', '\0', '\0', '\0', '\0', '\0',    '\0', '\0', '\0', '\0', '\0',
 254:./Libraries/STM32_USB_Host_Library/Class/HID/Src/usbh_hid_keybd.c ****   '\0', '\0', '\0', '\0', '\0', '\0', '\0', '\0', '\0', '\0'
 255:./Libraries/STM32_USB_Host_Library/Class/HID/Src/usbh_hid_keybd.c **** };
 256:./Libraries/STM32_USB_Host_Library/Class/HID/Src/usbh_hid_keybd.c **** 
 257:./Libraries/STM32_USB_Host_Library/Class/HID/Src/usbh_hid_keybd.c **** #else
 258:./Libraries/STM32_USB_Host_Library/Class/HID/Src/usbh_hid_keybd.c **** 
 259:./Libraries/STM32_USB_Host_Library/Class/HID/Src/usbh_hid_keybd.c **** static  const  uint8_t  HID_KEYBRD_Key[] =
 260:./Libraries/STM32_USB_Host_Library/Class/HID/Src/usbh_hid_keybd.c **** {
 261:./Libraries/STM32_USB_Host_Library/Class/HID/Src/usbh_hid_keybd.c ****   '\0',  '`',  '1',  '2',  '3',  '4',  '5',  '6',  '7',  '8',  '9',  '0',
 262:./Libraries/STM32_USB_Host_Library/Class/HID/Src/usbh_hid_keybd.c ****   '-',  '=',  '\0', '\r', '\t',  'a',  'z',  'e',  'r',  't',  'y',  'u',
 263:./Libraries/STM32_USB_Host_Library/Class/HID/Src/usbh_hid_keybd.c ****   'i',  'o',  'p',  '[',  ']', '\\', '\0',  'q',  's',  'd',  'f',  'g',
 264:./Libraries/STM32_USB_Host_Library/Class/HID/Src/usbh_hid_keybd.c ****   'h',  'j',  'k',  'l',  'm',  '\0', '\0', '\n', '\0',  '\0', 'w',  'x',
 265:./Libraries/STM32_USB_Host_Library/Class/HID/Src/usbh_hid_keybd.c ****   'c',  'v',  'b',  'n',  ',',  ';',  ':',  '!',  '\0', '\0', '\0',  '\0',
 266:./Libraries/STM32_USB_Host_Library/Class/HID/Src/usbh_hid_keybd.c ****   '\0', ' ',  '\0', '\0', '\0', '\0', '\0', '\0', '\0', '\0', '\0', '\0',
 267:./Libraries/STM32_USB_Host_Library/Class/HID/Src/usbh_hid_keybd.c ****   '\0', '\0', '\0', '\0',  '\0', '\0', '\0', '\0', '\r', '\0', '\0', '\0',
 268:./Libraries/STM32_USB_Host_Library/Class/HID/Src/usbh_hid_keybd.c ****   '\0', '\0', '\0', '\0', '\0', '\0',  '\0', '7',  '4',  '1', '\0',  '/',
 269:./Libraries/STM32_USB_Host_Library/Class/HID/Src/usbh_hid_keybd.c ****   '8',  '5',  '2', '0',   '*',  '9',  '6',  '3', '.',   '-',  '+',  '\0',
 270:./Libraries/STM32_USB_Host_Library/Class/HID/Src/usbh_hid_keybd.c ****   '\n', '\0', '\0', '\0', '\0', '\0', '\0', '\0',  '\0', '\0', '\0', '\0', '\0',
 271:./Libraries/STM32_USB_Host_Library/Class/HID/Src/usbh_hid_keybd.c ****   '\0', '\0', '\0', '\0', '\0', '\0', '\0', '\0', '\0'
 272:./Libraries/STM32_USB_Host_Library/Class/HID/Src/usbh_hid_keybd.c **** };
 273:./Libraries/STM32_USB_Host_Library/Class/HID/Src/usbh_hid_keybd.c **** 
 274:./Libraries/STM32_USB_Host_Library/Class/HID/Src/usbh_hid_keybd.c **** static  const  uint8_t  HID_KEYBRD_ShiftKey[] =
 275:./Libraries/STM32_USB_Host_Library/Class/HID/Src/usbh_hid_keybd.c **** {
 276:./Libraries/STM32_USB_Host_Library/Class/HID/Src/usbh_hid_keybd.c ****   '\0', '~',  '!',  '@',  '#',  '$',  '%',  '^',  '&',  '*',  '(',  ')',  '_',
 277:./Libraries/STM32_USB_Host_Library/Class/HID/Src/usbh_hid_keybd.c ****   '+',  '\0', '\0', '\0', 'A',  'Z',  'E',  'R',  'T',  'Y',  'U',  'I',  'O',
 278:./Libraries/STM32_USB_Host_Library/Class/HID/Src/usbh_hid_keybd.c ****   'P',  '{',  '}',  '*', '\0', 'Q',  'S',  'D',  'F',  'G',  'H',  'J',  'K',
 279:./Libraries/STM32_USB_Host_Library/Class/HID/Src/usbh_hid_keybd.c ****   'L',  'M',  '%',  '\0', '\n', '\0', '\0', 'W',  'X',  'C',  'V',  'B',  'N',
 280:./Libraries/STM32_USB_Host_Library/Class/HID/Src/usbh_hid_keybd.c ****   '?',  '.',  '/',  '\0',  '\0', '\0', '\0', '\0', '\0', '\0', '\0', '\0', '\0',
 281:./Libraries/STM32_USB_Host_Library/Class/HID/Src/usbh_hid_keybd.c ****   '\0', '\0', '\0', '\0', '\0', '\0', '\0', '\0', '\0', '\0', '\0', '\0', '\0',
 282:./Libraries/STM32_USB_Host_Library/Class/HID/Src/usbh_hid_keybd.c ****   '\0', '\0', '\0', '\0', '\0', '\0', '\0', '\0', '\0', '\0', '\0', '\0', '\0',
 283:./Libraries/STM32_USB_Host_Library/Class/HID/Src/usbh_hid_keybd.c ****   '\0', '\0', '\0', '\0', '\0', '\0', '\0', '\0', '\0', '\0', '\0', '\0', '\0',
 284:./Libraries/STM32_USB_Host_Library/Class/HID/Src/usbh_hid_keybd.c ****   '\0', '\0', '\0', '\0', '\0', '\0', '\0', '\0', '\0', '\0', '\0', '\0', '\0',
 285:./Libraries/STM32_USB_Host_Library/Class/HID/Src/usbh_hid_keybd.c ****   '\0', '\0', '\0', '\0', '\0', '\0', '\0', '\0', '\0', '\0', '\0', '\0', '\0'
 286:./Libraries/STM32_USB_Host_Library/Class/HID/Src/usbh_hid_keybd.c **** };
 287:./Libraries/STM32_USB_Host_Library/Class/HID/Src/usbh_hid_keybd.c **** #endif
 288:./Libraries/STM32_USB_Host_Library/Class/HID/Src/usbh_hid_keybd.c **** 
ARM GAS  /tmp/ccGsgFXj.s 			page 11


 289:./Libraries/STM32_USB_Host_Library/Class/HID/Src/usbh_hid_keybd.c **** static  const  uint8_t  HID_KEYBRD_Codes[] =
 290:./Libraries/STM32_USB_Host_Library/Class/HID/Src/usbh_hid_keybd.c **** {
 291:./Libraries/STM32_USB_Host_Library/Class/HID/Src/usbh_hid_keybd.c ****   0,     0,    0,    0,   31,   50,   48,   33,
 292:./Libraries/STM32_USB_Host_Library/Class/HID/Src/usbh_hid_keybd.c ****   19,   34,   35,   36,   24,   37,   38,   39,       /* 0x00 - 0x0F */
 293:./Libraries/STM32_USB_Host_Library/Class/HID/Src/usbh_hid_keybd.c ****   52,    51,   25,   26,   17,   20,   32,   21,
 294:./Libraries/STM32_USB_Host_Library/Class/HID/Src/usbh_hid_keybd.c ****   23,   49,   18,   47,   22,   46,    2,    3,       /* 0x10 - 0x1F */
 295:./Libraries/STM32_USB_Host_Library/Class/HID/Src/usbh_hid_keybd.c ****   4,    5,    6,    7,    8,    9,   10,   11,
 296:./Libraries/STM32_USB_Host_Library/Class/HID/Src/usbh_hid_keybd.c ****   43,  110,   15,   16,   61,   12,   13,   27,       /* 0x20 - 0x2F */
 297:./Libraries/STM32_USB_Host_Library/Class/HID/Src/usbh_hid_keybd.c ****   28,   29,   42,   40,   41,    1,   53,   54,
 298:./Libraries/STM32_USB_Host_Library/Class/HID/Src/usbh_hid_keybd.c ****   55,   30,  112,  113,  114,  115,  116,  117,       /* 0x30 - 0x3F */
 299:./Libraries/STM32_USB_Host_Library/Class/HID/Src/usbh_hid_keybd.c ****   118,  119,  120,  121,  122,  123,  124,  125,
 300:./Libraries/STM32_USB_Host_Library/Class/HID/Src/usbh_hid_keybd.c ****   126,   75,   80,   85,   76,   81,   86,   89,       /* 0x40 - 0x4F */
 301:./Libraries/STM32_USB_Host_Library/Class/HID/Src/usbh_hid_keybd.c ****   79,   84,   83,   90,   95,  100,  105,  106,
 302:./Libraries/STM32_USB_Host_Library/Class/HID/Src/usbh_hid_keybd.c ****   108,   93,   98,  103,   92,   97,  102,   91,       /* 0x50 - 0x5F */
 303:./Libraries/STM32_USB_Host_Library/Class/HID/Src/usbh_hid_keybd.c ****   96,  101,   99,  104,   45,  129,    0,    0,
 304:./Libraries/STM32_USB_Host_Library/Class/HID/Src/usbh_hid_keybd.c ****   0,    0,    0,    0,    0,    0,    0,    0,       /* 0x60 - 0x6F */
 305:./Libraries/STM32_USB_Host_Library/Class/HID/Src/usbh_hid_keybd.c ****   0,    0,    0,    0,    0,    0,    0,    0,
 306:./Libraries/STM32_USB_Host_Library/Class/HID/Src/usbh_hid_keybd.c ****   0,    0,    0,    0,    0,    0,    0,    0,       /* 0x70 - 0x7F */
 307:./Libraries/STM32_USB_Host_Library/Class/HID/Src/usbh_hid_keybd.c ****   0,    0,    0,    0,    0,  107,    0,   56,
 308:./Libraries/STM32_USB_Host_Library/Class/HID/Src/usbh_hid_keybd.c ****   0,    0,    0,    0,    0,    0,    0,    0,       /* 0x80 - 0x8F */
 309:./Libraries/STM32_USB_Host_Library/Class/HID/Src/usbh_hid_keybd.c ****   0,    0,    0,    0,    0,    0,    0,    0,
 310:./Libraries/STM32_USB_Host_Library/Class/HID/Src/usbh_hid_keybd.c ****   0,    0,    0,    0,    0,    0,    0,    0,       /* 0x90 - 0x9F */
 311:./Libraries/STM32_USB_Host_Library/Class/HID/Src/usbh_hid_keybd.c ****   0,    0,    0,    0,    0,    0,    0,    0,
 312:./Libraries/STM32_USB_Host_Library/Class/HID/Src/usbh_hid_keybd.c ****   0,    0,    0,    0,    0,    0,    0,    0,       /* 0xA0 - 0xAF */
 313:./Libraries/STM32_USB_Host_Library/Class/HID/Src/usbh_hid_keybd.c ****   0,    0,    0,    0,    0,    0,    0,    0,
 314:./Libraries/STM32_USB_Host_Library/Class/HID/Src/usbh_hid_keybd.c ****   0,    0,    0,    0,    0,    0,    0,    0,       /* 0xB0 - 0xBF */
 315:./Libraries/STM32_USB_Host_Library/Class/HID/Src/usbh_hid_keybd.c ****   0,    0,    0,    0,    0,    0,    0,    0,
 316:./Libraries/STM32_USB_Host_Library/Class/HID/Src/usbh_hid_keybd.c ****   0,    0,    0,    0,    0,    0,    0,    0,       /* 0xC0 - 0xCF */
 317:./Libraries/STM32_USB_Host_Library/Class/HID/Src/usbh_hid_keybd.c ****   0,    0,    0,    0,    0,    0,    0,    0,
 318:./Libraries/STM32_USB_Host_Library/Class/HID/Src/usbh_hid_keybd.c ****   0,    0,    0,    0,    0,    0,    0,    0,       /* 0xD0 - 0xDF */
 319:./Libraries/STM32_USB_Host_Library/Class/HID/Src/usbh_hid_keybd.c ****   58,   44,   60,  127,   64,   57,   62,  128        /* 0xE0 - 0xE7 */
 320:./Libraries/STM32_USB_Host_Library/Class/HID/Src/usbh_hid_keybd.c **** };
 321:./Libraries/STM32_USB_Host_Library/Class/HID/Src/usbh_hid_keybd.c **** 
 322:./Libraries/STM32_USB_Host_Library/Class/HID/Src/usbh_hid_keybd.c **** /**
 323:./Libraries/STM32_USB_Host_Library/Class/HID/Src/usbh_hid_keybd.c ****   * @brief  USBH_HID_KeybdInit
 324:./Libraries/STM32_USB_Host_Library/Class/HID/Src/usbh_hid_keybd.c ****   *         The function init the HID keyboard.
 325:./Libraries/STM32_USB_Host_Library/Class/HID/Src/usbh_hid_keybd.c ****   * @param  phost: Host handle
 326:./Libraries/STM32_USB_Host_Library/Class/HID/Src/usbh_hid_keybd.c ****   * @retval USBH Status
 327:./Libraries/STM32_USB_Host_Library/Class/HID/Src/usbh_hid_keybd.c ****   */
 328:./Libraries/STM32_USB_Host_Library/Class/HID/Src/usbh_hid_keybd.c **** USBH_StatusTypeDef USBH_HID_KeybdInit(USBH_HandleTypeDef *phost)
 329:./Libraries/STM32_USB_Host_Library/Class/HID/Src/usbh_hid_keybd.c **** {
 219              		.loc 1 329 1
 220              		.cfi_startproc
 221              		@ args = 0, pretend = 0, frame = 16
 222              		@ frame_needed = 1, uses_anonymous_args = 0
 223 0000 80B5     		push	{r7, lr}
 224              	.LCFI0:
 225              		.cfi_def_cfa_offset 8
 226              		.cfi_offset 7, -8
 227              		.cfi_offset 14, -4
 228 0002 84B0     		sub	sp, sp, #16
 229              	.LCFI1:
 230              		.cfi_def_cfa_offset 24
 231 0004 00AF     		add	r7, sp, #0
 232              	.LCFI2:
 233              		.cfi_def_cfa_register 7
 234 0006 7860     		str	r0, [r7, #4]
ARM GAS  /tmp/ccGsgFXj.s 			page 12


 330:./Libraries/STM32_USB_Host_Library/Class/HID/Src/usbh_hid_keybd.c ****   uint32_t x;
 331:./Libraries/STM32_USB_Host_Library/Class/HID/Src/usbh_hid_keybd.c ****   HID_HandleTypeDef *HID_Handle = (HID_HandleTypeDef *) phost->pActiveClass->pData;
 235              		.loc 1 331 62
 236 0008 7B68     		ldr	r3, [r7, #4]
 237 000a D3F87C34 		ldr	r3, [r3, #1148]
 238              		.loc 1 331 22
 239 000e DB69     		ldr	r3, [r3, #28]
 240 0010 BB60     		str	r3, [r7, #8]
 332:./Libraries/STM32_USB_Host_Library/Class/HID/Src/usbh_hid_keybd.c **** 
 333:./Libraries/STM32_USB_Host_Library/Class/HID/Src/usbh_hid_keybd.c ****   keybd_info.lctrl = keybd_info.lshift = 0U;
 241              		.loc 1 333 40
 242 0012 244B     		ldr	r3, .L6
 243 0014 0022     		movs	r2, #0
 244 0016 9A70     		strb	r2, [r3, #2]
 245              		.loc 1 333 32
 246 0018 224B     		ldr	r3, .L6
 247 001a 9A78     		ldrb	r2, [r3, #2]	@ zero_extendqisi2
 248              		.loc 1 333 20
 249 001c 214B     		ldr	r3, .L6
 250 001e 5A70     		strb	r2, [r3, #1]
 334:./Libraries/STM32_USB_Host_Library/Class/HID/Src/usbh_hid_keybd.c ****   keybd_info.lalt = keybd_info.lgui = 0U;
 251              		.loc 1 334 37
 252 0020 204B     		ldr	r3, .L6
 253 0022 0022     		movs	r2, #0
 254 0024 1A71     		strb	r2, [r3, #4]
 255              		.loc 1 334 31
 256 0026 1F4B     		ldr	r3, .L6
 257 0028 1A79     		ldrb	r2, [r3, #4]	@ zero_extendqisi2
 258              		.loc 1 334 19
 259 002a 1E4B     		ldr	r3, .L6
 260 002c DA70     		strb	r2, [r3, #3]
 335:./Libraries/STM32_USB_Host_Library/Class/HID/Src/usbh_hid_keybd.c ****   keybd_info.rctrl = keybd_info.rshift = 0U;
 261              		.loc 1 335 40
 262 002e 1D4B     		ldr	r3, .L6
 263 0030 0022     		movs	r2, #0
 264 0032 9A71     		strb	r2, [r3, #6]
 265              		.loc 1 335 32
 266 0034 1B4B     		ldr	r3, .L6
 267 0036 9A79     		ldrb	r2, [r3, #6]	@ zero_extendqisi2
 268              		.loc 1 335 20
 269 0038 1A4B     		ldr	r3, .L6
 270 003a 5A71     		strb	r2, [r3, #5]
 336:./Libraries/STM32_USB_Host_Library/Class/HID/Src/usbh_hid_keybd.c ****   keybd_info.ralt = keybd_info.rgui = 0U;
 271              		.loc 1 336 37
 272 003c 194B     		ldr	r3, .L6
 273 003e 0022     		movs	r2, #0
 274 0040 1A72     		strb	r2, [r3, #8]
 275              		.loc 1 336 31
 276 0042 184B     		ldr	r3, .L6
 277 0044 1A7A     		ldrb	r2, [r3, #8]	@ zero_extendqisi2
 278              		.loc 1 336 19
 279 0046 174B     		ldr	r3, .L6
 280 0048 DA71     		strb	r2, [r3, #7]
 337:./Libraries/STM32_USB_Host_Library/Class/HID/Src/usbh_hid_keybd.c **** 
 338:./Libraries/STM32_USB_Host_Library/Class/HID/Src/usbh_hid_keybd.c **** 
 339:./Libraries/STM32_USB_Host_Library/Class/HID/Src/usbh_hid_keybd.c ****   for (x = 0U; x < (sizeof(keybd_report_data) / sizeof(uint32_t)); x++)
 281              		.loc 1 339 10
ARM GAS  /tmp/ccGsgFXj.s 			page 13


 282 004a 0023     		movs	r3, #0
 283 004c FB60     		str	r3, [r7, #12]
 284              		.loc 1 339 3
 285 004e 0CE0     		b	.L2
 286              	.L3:
 340:./Libraries/STM32_USB_Host_Library/Class/HID/Src/usbh_hid_keybd.c ****   {
 341:./Libraries/STM32_USB_Host_Library/Class/HID/Src/usbh_hid_keybd.c ****     keybd_report_data[x] = 0U;
 287              		.loc 1 341 26 discriminator 3
 288 0050 154A     		ldr	r2, .L6+4
 289 0052 FB68     		ldr	r3, [r7, #12]
 290 0054 0021     		movs	r1, #0
 291 0056 42F82310 		str	r1, [r2, r3, lsl #2]
 342:./Libraries/STM32_USB_Host_Library/Class/HID/Src/usbh_hid_keybd.c ****     keybd_rx_report_buf[x] = 0U;
 292              		.loc 1 342 28 discriminator 3
 293 005a 144A     		ldr	r2, .L6+8
 294 005c FB68     		ldr	r3, [r7, #12]
 295 005e 0021     		movs	r1, #0
 296 0060 42F82310 		str	r1, [r2, r3, lsl #2]
 339:./Libraries/STM32_USB_Host_Library/Class/HID/Src/usbh_hid_keybd.c ****   {
 297              		.loc 1 339 69 discriminator 3
 298 0064 FB68     		ldr	r3, [r7, #12]
 299 0066 0133     		adds	r3, r3, #1
 300 0068 FB60     		str	r3, [r7, #12]
 301              	.L2:
 339:./Libraries/STM32_USB_Host_Library/Class/HID/Src/usbh_hid_keybd.c ****   {
 302              		.loc 1 339 3 discriminator 1
 303 006a FB68     		ldr	r3, [r7, #12]
 304 006c 012B     		cmp	r3, #1
 305 006e EFD9     		bls	.L3
 343:./Libraries/STM32_USB_Host_Library/Class/HID/Src/usbh_hid_keybd.c ****   }
 344:./Libraries/STM32_USB_Host_Library/Class/HID/Src/usbh_hid_keybd.c **** 
 345:./Libraries/STM32_USB_Host_Library/Class/HID/Src/usbh_hid_keybd.c ****   if (HID_Handle->length > (sizeof(keybd_report_data)))
 306              		.loc 1 345 17
 307 0070 BB68     		ldr	r3, [r7, #8]
 308 0072 1B8B     		ldrh	r3, [r3, #24]
 309              		.loc 1 345 6
 310 0074 082B     		cmp	r3, #8
 311 0076 02D9     		bls	.L4
 346:./Libraries/STM32_USB_Host_Library/Class/HID/Src/usbh_hid_keybd.c ****   {
 347:./Libraries/STM32_USB_Host_Library/Class/HID/Src/usbh_hid_keybd.c ****     HID_Handle->length = (sizeof(keybd_report_data));
 312              		.loc 1 347 24
 313 0078 BB68     		ldr	r3, [r7, #8]
 314 007a 0822     		movs	r2, #8
 315 007c 1A83     		strh	r2, [r3, #24]	@ movhi
 316              	.L4:
 348:./Libraries/STM32_USB_Host_Library/Class/HID/Src/usbh_hid_keybd.c ****   }
 349:./Libraries/STM32_USB_Host_Library/Class/HID/Src/usbh_hid_keybd.c ****   HID_Handle->pData = (uint8_t *)(void *)keybd_rx_report_buf;
 317              		.loc 1 349 21
 318 007e BB68     		ldr	r3, [r7, #8]
 319 0080 0A4A     		ldr	r2, .L6+8
 320 0082 5A61     		str	r2, [r3, #20]
 350:./Libraries/STM32_USB_Host_Library/Class/HID/Src/usbh_hid_keybd.c ****   USBH_HID_FifoInit(&HID_Handle->fifo, phost->device.Data, HID_QUEUE_SIZE * sizeof(keybd_report_dat
 321              		.loc 1 350 3
 322 0084 BB68     		ldr	r3, [r7, #8]
 323 0086 03F10800 		add	r0, r3, #8
 324              		.loc 1 350 53
 325 008a 7B68     		ldr	r3, [r7, #4]
ARM GAS  /tmp/ccGsgFXj.s 			page 14


 326 008c 03F50773 		add	r3, r3, #540
 327              		.loc 1 350 3
 328 0090 5022     		movs	r2, #80
 329 0092 1946     		mov	r1, r3
 330 0094 FFF7FEFF 		bl	USBH_HID_FifoInit
 351:./Libraries/STM32_USB_Host_Library/Class/HID/Src/usbh_hid_keybd.c **** 
 352:./Libraries/STM32_USB_Host_Library/Class/HID/Src/usbh_hid_keybd.c ****   return USBH_OK;
 331              		.loc 1 352 10
 332 0098 0023     		movs	r3, #0
 353:./Libraries/STM32_USB_Host_Library/Class/HID/Src/usbh_hid_keybd.c **** }
 333              		.loc 1 353 1
 334 009a 1846     		mov	r0, r3
 335 009c 1037     		adds	r7, r7, #16
 336              	.LCFI3:
 337              		.cfi_def_cfa_offset 8
 338 009e BD46     		mov	sp, r7
 339              	.LCFI4:
 340              		.cfi_def_cfa_register 13
 341              		@ sp needed
 342 00a0 80BD     		pop	{r7, pc}
 343              	.L7:
 344 00a2 00BF     		.align	2
 345              	.L6:
 346 00a4 00000000 		.word	keybd_info
 347 00a8 00000000 		.word	keybd_report_data
 348 00ac 00000000 		.word	keybd_rx_report_buf
 349              		.cfi_endproc
 350              	.LFE338:
 352              		.section	.text.USBH_HID_GetKeybdInfo,"ax",%progbits
 353              		.align	1
 354              		.global	USBH_HID_GetKeybdInfo
 355              		.syntax unified
 356              		.thumb
 357              		.thumb_func
 358              		.fpu fpv5-d16
 360              	USBH_HID_GetKeybdInfo:
 361              	.LFB339:
 354:./Libraries/STM32_USB_Host_Library/Class/HID/Src/usbh_hid_keybd.c **** 
 355:./Libraries/STM32_USB_Host_Library/Class/HID/Src/usbh_hid_keybd.c **** /**
 356:./Libraries/STM32_USB_Host_Library/Class/HID/Src/usbh_hid_keybd.c ****   * @brief  USBH_HID_GetKeybdInfo
 357:./Libraries/STM32_USB_Host_Library/Class/HID/Src/usbh_hid_keybd.c ****   *         The function return keyboard information.
 358:./Libraries/STM32_USB_Host_Library/Class/HID/Src/usbh_hid_keybd.c ****   * @param  phost: Host handle
 359:./Libraries/STM32_USB_Host_Library/Class/HID/Src/usbh_hid_keybd.c ****   * @retval keyboard information
 360:./Libraries/STM32_USB_Host_Library/Class/HID/Src/usbh_hid_keybd.c ****   */
 361:./Libraries/STM32_USB_Host_Library/Class/HID/Src/usbh_hid_keybd.c **** HID_KEYBD_Info_TypeDef *USBH_HID_GetKeybdInfo(USBH_HandleTypeDef *phost)
 362:./Libraries/STM32_USB_Host_Library/Class/HID/Src/usbh_hid_keybd.c **** {
 362              		.loc 1 362 1
 363              		.cfi_startproc
 364              		@ args = 0, pretend = 0, frame = 8
 365              		@ frame_needed = 1, uses_anonymous_args = 0
 366 0000 80B5     		push	{r7, lr}
 367              	.LCFI5:
 368              		.cfi_def_cfa_offset 8
 369              		.cfi_offset 7, -8
 370              		.cfi_offset 14, -4
 371 0002 82B0     		sub	sp, sp, #8
 372              	.LCFI6:
ARM GAS  /tmp/ccGsgFXj.s 			page 15


 373              		.cfi_def_cfa_offset 16
 374 0004 00AF     		add	r7, sp, #0
 375              	.LCFI7:
 376              		.cfi_def_cfa_register 7
 377 0006 7860     		str	r0, [r7, #4]
 363:./Libraries/STM32_USB_Host_Library/Class/HID/Src/usbh_hid_keybd.c ****   if (USBH_HID_KeybdDecode(phost) == USBH_OK)
 378              		.loc 1 363 7
 379 0008 7868     		ldr	r0, [r7, #4]
 380 000a FFF7FEFF 		bl	USBH_HID_KeybdDecode
 381 000e 0346     		mov	r3, r0
 382              		.loc 1 363 6
 383 0010 002B     		cmp	r3, #0
 384 0012 01D1     		bne	.L9
 364:./Libraries/STM32_USB_Host_Library/Class/HID/Src/usbh_hid_keybd.c ****   {
 365:./Libraries/STM32_USB_Host_Library/Class/HID/Src/usbh_hid_keybd.c ****     return &keybd_info;
 385              		.loc 1 365 12
 386 0014 034B     		ldr	r3, .L11
 387 0016 00E0     		b	.L10
 388              	.L9:
 366:./Libraries/STM32_USB_Host_Library/Class/HID/Src/usbh_hid_keybd.c ****   }
 367:./Libraries/STM32_USB_Host_Library/Class/HID/Src/usbh_hid_keybd.c ****   else
 368:./Libraries/STM32_USB_Host_Library/Class/HID/Src/usbh_hid_keybd.c ****   {
 369:./Libraries/STM32_USB_Host_Library/Class/HID/Src/usbh_hid_keybd.c ****     return NULL;
 389              		.loc 1 369 12
 390 0018 0023     		movs	r3, #0
 391              	.L10:
 370:./Libraries/STM32_USB_Host_Library/Class/HID/Src/usbh_hid_keybd.c ****   }
 371:./Libraries/STM32_USB_Host_Library/Class/HID/Src/usbh_hid_keybd.c **** }
 392              		.loc 1 371 1
 393 001a 1846     		mov	r0, r3
 394 001c 0837     		adds	r7, r7, #8
 395              	.LCFI8:
 396              		.cfi_def_cfa_offset 8
 397 001e BD46     		mov	sp, r7
 398              	.LCFI9:
 399              		.cfi_def_cfa_register 13
 400              		@ sp needed
 401 0020 80BD     		pop	{r7, pc}
 402              	.L12:
 403 0022 00BF     		.align	2
 404              	.L11:
 405 0024 00000000 		.word	keybd_info
 406              		.cfi_endproc
 407              	.LFE339:
 409              		.section	.text.USBH_HID_KeybdDecode,"ax",%progbits
 410              		.align	1
 411              		.syntax unified
 412              		.thumb
 413              		.thumb_func
 414              		.fpu fpv5-d16
 416              	USBH_HID_KeybdDecode:
 417              	.LFB340:
 372:./Libraries/STM32_USB_Host_Library/Class/HID/Src/usbh_hid_keybd.c **** 
 373:./Libraries/STM32_USB_Host_Library/Class/HID/Src/usbh_hid_keybd.c **** /**
 374:./Libraries/STM32_USB_Host_Library/Class/HID/Src/usbh_hid_keybd.c ****   * @brief  USBH_HID_KeybdDecode
 375:./Libraries/STM32_USB_Host_Library/Class/HID/Src/usbh_hid_keybd.c ****   *         The function decode keyboard data.
 376:./Libraries/STM32_USB_Host_Library/Class/HID/Src/usbh_hid_keybd.c ****   * @param  phost: Host handle
ARM GAS  /tmp/ccGsgFXj.s 			page 16


 377:./Libraries/STM32_USB_Host_Library/Class/HID/Src/usbh_hid_keybd.c ****   * @retval USBH Status
 378:./Libraries/STM32_USB_Host_Library/Class/HID/Src/usbh_hid_keybd.c ****   */
 379:./Libraries/STM32_USB_Host_Library/Class/HID/Src/usbh_hid_keybd.c **** static USBH_StatusTypeDef USBH_HID_KeybdDecode(USBH_HandleTypeDef *phost)
 380:./Libraries/STM32_USB_Host_Library/Class/HID/Src/usbh_hid_keybd.c **** {
 418              		.loc 1 380 1
 419              		.cfi_startproc
 420              		@ args = 0, pretend = 0, frame = 16
 421              		@ frame_needed = 1, uses_anonymous_args = 0
 422 0000 80B5     		push	{r7, lr}
 423              	.LCFI10:
 424              		.cfi_def_cfa_offset 8
 425              		.cfi_offset 7, -8
 426              		.cfi_offset 14, -4
 427 0002 84B0     		sub	sp, sp, #16
 428              	.LCFI11:
 429              		.cfi_def_cfa_offset 24
 430 0004 00AF     		add	r7, sp, #0
 431              	.LCFI12:
 432              		.cfi_def_cfa_register 7
 433 0006 7860     		str	r0, [r7, #4]
 381:./Libraries/STM32_USB_Host_Library/Class/HID/Src/usbh_hid_keybd.c ****   uint8_t x;
 382:./Libraries/STM32_USB_Host_Library/Class/HID/Src/usbh_hid_keybd.c **** 
 383:./Libraries/STM32_USB_Host_Library/Class/HID/Src/usbh_hid_keybd.c ****   HID_HandleTypeDef *HID_Handle = (HID_HandleTypeDef *) phost->pActiveClass->pData;
 434              		.loc 1 383 62
 435 0008 7B68     		ldr	r3, [r7, #4]
 436 000a D3F87C34 		ldr	r3, [r3, #1148]
 437              		.loc 1 383 22
 438 000e DB69     		ldr	r3, [r3, #28]
 439 0010 BB60     		str	r3, [r7, #8]
 384:./Libraries/STM32_USB_Host_Library/Class/HID/Src/usbh_hid_keybd.c ****   if (HID_Handle->length == 0U)
 440              		.loc 1 384 17
 441 0012 BB68     		ldr	r3, [r7, #8]
 442 0014 1B8B     		ldrh	r3, [r3, #24]
 443              		.loc 1 384 6
 444 0016 002B     		cmp	r3, #0
 445 0018 01D1     		bne	.L14
 385:./Libraries/STM32_USB_Host_Library/Class/HID/Src/usbh_hid_keybd.c ****   {
 386:./Libraries/STM32_USB_Host_Library/Class/HID/Src/usbh_hid_keybd.c ****     return USBH_FAIL;
 446              		.loc 1 386 12
 447 001a 0223     		movs	r3, #2
 448 001c 66E0     		b	.L15
 449              	.L14:
 387:./Libraries/STM32_USB_Host_Library/Class/HID/Src/usbh_hid_keybd.c ****   }
 388:./Libraries/STM32_USB_Host_Library/Class/HID/Src/usbh_hid_keybd.c ****   /*Fill report */
 389:./Libraries/STM32_USB_Host_Library/Class/HID/Src/usbh_hid_keybd.c ****   if (USBH_HID_FifoRead(&HID_Handle->fifo, &keybd_report_data, HID_Handle->length) ==  HID_Handle->
 450              		.loc 1 389 7
 451 001e BB68     		ldr	r3, [r7, #8]
 452 0020 03F10800 		add	r0, r3, #8
 453 0024 BB68     		ldr	r3, [r7, #8]
 454 0026 1B8B     		ldrh	r3, [r3, #24]
 455 0028 1A46     		mov	r2, r3
 456 002a 3249     		ldr	r1, .L19
 457 002c FFF7FEFF 		bl	USBH_HID_FifoRead
 458 0030 0346     		mov	r3, r0
 459 0032 1A46     		mov	r2, r3
 460              		.loc 1 389 98
 461 0034 BB68     		ldr	r3, [r7, #8]
ARM GAS  /tmp/ccGsgFXj.s 			page 17


 462 0036 1B8B     		ldrh	r3, [r3, #24]
 463              		.loc 1 389 6
 464 0038 9A42     		cmp	r2, r3
 465 003a 56D1     		bne	.L16
 390:./Libraries/STM32_USB_Host_Library/Class/HID/Src/usbh_hid_keybd.c ****   {
 391:./Libraries/STM32_USB_Host_Library/Class/HID/Src/usbh_hid_keybd.c ****     keybd_info.lctrl = (uint8_t)HID_ReadItem((HID_Report_ItemTypedef *) &imp_0_lctrl, 0U);
 466              		.loc 1 391 33
 467 003c 0021     		movs	r1, #0
 468 003e 2E48     		ldr	r0, .L19+4
 469 0040 FFF7FEFF 		bl	HID_ReadItem
 470 0044 0346     		mov	r3, r0
 471              		.loc 1 391 24
 472 0046 DAB2     		uxtb	r2, r3
 473              		.loc 1 391 22
 474 0048 2C4B     		ldr	r3, .L19+8
 475 004a 5A70     		strb	r2, [r3, #1]
 392:./Libraries/STM32_USB_Host_Library/Class/HID/Src/usbh_hid_keybd.c ****     keybd_info.lshift = (uint8_t)HID_ReadItem((HID_Report_ItemTypedef *) &imp_0_lshift, 0U);
 476              		.loc 1 392 34
 477 004c 0021     		movs	r1, #0
 478 004e 2C48     		ldr	r0, .L19+12
 479 0050 FFF7FEFF 		bl	HID_ReadItem
 480 0054 0346     		mov	r3, r0
 481              		.loc 1 392 25
 482 0056 DAB2     		uxtb	r2, r3
 483              		.loc 1 392 23
 484 0058 284B     		ldr	r3, .L19+8
 485 005a 9A70     		strb	r2, [r3, #2]
 393:./Libraries/STM32_USB_Host_Library/Class/HID/Src/usbh_hid_keybd.c ****     keybd_info.lalt = (uint8_t)HID_ReadItem((HID_Report_ItemTypedef *) &imp_0_lalt, 0U);
 486              		.loc 1 393 32
 487 005c 0021     		movs	r1, #0
 488 005e 2948     		ldr	r0, .L19+16
 489 0060 FFF7FEFF 		bl	HID_ReadItem
 490 0064 0346     		mov	r3, r0
 491              		.loc 1 393 23
 492 0066 DAB2     		uxtb	r2, r3
 493              		.loc 1 393 21
 494 0068 244B     		ldr	r3, .L19+8
 495 006a DA70     		strb	r2, [r3, #3]
 394:./Libraries/STM32_USB_Host_Library/Class/HID/Src/usbh_hid_keybd.c ****     keybd_info.lgui = (uint8_t)HID_ReadItem((HID_Report_ItemTypedef *) &imp_0_lgui, 0U);
 496              		.loc 1 394 32
 497 006c 0021     		movs	r1, #0
 498 006e 2648     		ldr	r0, .L19+20
 499 0070 FFF7FEFF 		bl	HID_ReadItem
 500 0074 0346     		mov	r3, r0
 501              		.loc 1 394 23
 502 0076 DAB2     		uxtb	r2, r3
 503              		.loc 1 394 21
 504 0078 204B     		ldr	r3, .L19+8
 505 007a 1A71     		strb	r2, [r3, #4]
 395:./Libraries/STM32_USB_Host_Library/Class/HID/Src/usbh_hid_keybd.c ****     keybd_info.rctrl = (uint8_t)HID_ReadItem((HID_Report_ItemTypedef *) &imp_0_rctrl, 0U);
 506              		.loc 1 395 33
 507 007c 0021     		movs	r1, #0
 508 007e 2348     		ldr	r0, .L19+24
 509 0080 FFF7FEFF 		bl	HID_ReadItem
 510 0084 0346     		mov	r3, r0
 511              		.loc 1 395 24
 512 0086 DAB2     		uxtb	r2, r3
ARM GAS  /tmp/ccGsgFXj.s 			page 18


 513              		.loc 1 395 22
 514 0088 1C4B     		ldr	r3, .L19+8
 515 008a 5A71     		strb	r2, [r3, #5]
 396:./Libraries/STM32_USB_Host_Library/Class/HID/Src/usbh_hid_keybd.c ****     keybd_info.rshift = (uint8_t)HID_ReadItem((HID_Report_ItemTypedef *) &imp_0_rshift, 0U);
 516              		.loc 1 396 34
 517 008c 0021     		movs	r1, #0
 518 008e 2048     		ldr	r0, .L19+28
 519 0090 FFF7FEFF 		bl	HID_ReadItem
 520 0094 0346     		mov	r3, r0
 521              		.loc 1 396 25
 522 0096 DAB2     		uxtb	r2, r3
 523              		.loc 1 396 23
 524 0098 184B     		ldr	r3, .L19+8
 525 009a 9A71     		strb	r2, [r3, #6]
 397:./Libraries/STM32_USB_Host_Library/Class/HID/Src/usbh_hid_keybd.c ****     keybd_info.ralt = (uint8_t)HID_ReadItem((HID_Report_ItemTypedef *) &imp_0_ralt, 0U);
 526              		.loc 1 397 32
 527 009c 0021     		movs	r1, #0
 528 009e 1D48     		ldr	r0, .L19+32
 529 00a0 FFF7FEFF 		bl	HID_ReadItem
 530 00a4 0346     		mov	r3, r0
 531              		.loc 1 397 23
 532 00a6 DAB2     		uxtb	r2, r3
 533              		.loc 1 397 21
 534 00a8 144B     		ldr	r3, .L19+8
 535 00aa DA71     		strb	r2, [r3, #7]
 398:./Libraries/STM32_USB_Host_Library/Class/HID/Src/usbh_hid_keybd.c ****     keybd_info.rgui = (uint8_t)HID_ReadItem((HID_Report_ItemTypedef *) &imp_0_rgui, 0U);
 536              		.loc 1 398 32
 537 00ac 0021     		movs	r1, #0
 538 00ae 1A48     		ldr	r0, .L19+36
 539 00b0 FFF7FEFF 		bl	HID_ReadItem
 540 00b4 0346     		mov	r3, r0
 541              		.loc 1 398 23
 542 00b6 DAB2     		uxtb	r2, r3
 543              		.loc 1 398 21
 544 00b8 104B     		ldr	r3, .L19+8
 545 00ba 1A72     		strb	r2, [r3, #8]
 399:./Libraries/STM32_USB_Host_Library/Class/HID/Src/usbh_hid_keybd.c **** 
 400:./Libraries/STM32_USB_Host_Library/Class/HID/Src/usbh_hid_keybd.c ****     for (x = 0U; x < sizeof(keybd_info.keys); x++)
 546              		.loc 1 400 12
 547 00bc 0023     		movs	r3, #0
 548 00be FB73     		strb	r3, [r7, #15]
 549              		.loc 1 400 5
 550 00c0 0EE0     		b	.L17
 551              	.L18:
 401:./Libraries/STM32_USB_Host_Library/Class/HID/Src/usbh_hid_keybd.c ****     {
 402:./Libraries/STM32_USB_Host_Library/Class/HID/Src/usbh_hid_keybd.c ****       keybd_info.keys[x] = (uint8_t)HID_ReadItem((HID_Report_ItemTypedef *) &imp_0_key_array, x);
 552              		.loc 1 402 37 discriminator 3
 553 00c2 FB7B     		ldrb	r3, [r7, #15]	@ zero_extendqisi2
 554 00c4 1946     		mov	r1, r3
 555 00c6 1548     		ldr	r0, .L19+40
 556 00c8 FFF7FEFF 		bl	HID_ReadItem
 557 00cc 0246     		mov	r2, r0
 558              		.loc 1 402 22 discriminator 3
 559 00ce FB7B     		ldrb	r3, [r7, #15]	@ zero_extendqisi2
 560              		.loc 1 402 28 discriminator 3
 561 00d0 D1B2     		uxtb	r1, r2
 562              		.loc 1 402 26 discriminator 3
ARM GAS  /tmp/ccGsgFXj.s 			page 19


 563 00d2 0A4A     		ldr	r2, .L19+8
 564 00d4 1344     		add	r3, r3, r2
 565 00d6 0A46     		mov	r2, r1
 566 00d8 5A72     		strb	r2, [r3, #9]
 400:./Libraries/STM32_USB_Host_Library/Class/HID/Src/usbh_hid_keybd.c ****     {
 567              		.loc 1 400 48 discriminator 3
 568 00da FB7B     		ldrb	r3, [r7, #15]	@ zero_extendqisi2
 569 00dc 0133     		adds	r3, r3, #1
 570 00de FB73     		strb	r3, [r7, #15]
 571              	.L17:
 400:./Libraries/STM32_USB_Host_Library/Class/HID/Src/usbh_hid_keybd.c ****     {
 572              		.loc 1 400 5 discriminator 1
 573 00e0 FB7B     		ldrb	r3, [r7, #15]	@ zero_extendqisi2
 574 00e2 052B     		cmp	r3, #5
 575 00e4 EDD9     		bls	.L18
 403:./Libraries/STM32_USB_Host_Library/Class/HID/Src/usbh_hid_keybd.c ****     }
 404:./Libraries/STM32_USB_Host_Library/Class/HID/Src/usbh_hid_keybd.c **** 
 405:./Libraries/STM32_USB_Host_Library/Class/HID/Src/usbh_hid_keybd.c ****     return USBH_OK;
 576              		.loc 1 405 12
 577 00e6 0023     		movs	r3, #0
 578 00e8 00E0     		b	.L15
 579              	.L16:
 406:./Libraries/STM32_USB_Host_Library/Class/HID/Src/usbh_hid_keybd.c ****   }
 407:./Libraries/STM32_USB_Host_Library/Class/HID/Src/usbh_hid_keybd.c ****   return   USBH_FAIL;
 580              		.loc 1 407 12
 581 00ea 0223     		movs	r3, #2
 582              	.L15:
 408:./Libraries/STM32_USB_Host_Library/Class/HID/Src/usbh_hid_keybd.c **** }
 583              		.loc 1 408 1
 584 00ec 1846     		mov	r0, r3
 585 00ee 1037     		adds	r7, r7, #16
 586              	.LCFI13:
 587              		.cfi_def_cfa_offset 8
 588 00f0 BD46     		mov	sp, r7
 589              	.LCFI14:
 590              		.cfi_def_cfa_register 13
 591              		@ sp needed
 592 00f2 80BD     		pop	{r7, pc}
 593              	.L20:
 594              		.align	2
 595              	.L19:
 596 00f4 00000000 		.word	keybd_report_data
 597 00f8 00000000 		.word	imp_0_lctrl
 598 00fc 00000000 		.word	keybd_info
 599 0100 00000000 		.word	imp_0_lshift
 600 0104 00000000 		.word	imp_0_lalt
 601 0108 00000000 		.word	imp_0_lgui
 602 010c 00000000 		.word	imp_0_rctrl
 603 0110 00000000 		.word	imp_0_rshift
 604 0114 00000000 		.word	imp_0_ralt
 605 0118 00000000 		.word	imp_0_rgui
 606 011c 00000000 		.word	imp_0_key_array
 607              		.cfi_endproc
 608              	.LFE340:
 610              		.section	.text.USBH_HID_GetASCIICode,"ax",%progbits
 611              		.align	1
 612              		.global	USBH_HID_GetASCIICode
ARM GAS  /tmp/ccGsgFXj.s 			page 20


 613              		.syntax unified
 614              		.thumb
 615              		.thumb_func
 616              		.fpu fpv5-d16
 618              	USBH_HID_GetASCIICode:
 619              	.LFB341:
 409:./Libraries/STM32_USB_Host_Library/Class/HID/Src/usbh_hid_keybd.c **** 
 410:./Libraries/STM32_USB_Host_Library/Class/HID/Src/usbh_hid_keybd.c **** /**
 411:./Libraries/STM32_USB_Host_Library/Class/HID/Src/usbh_hid_keybd.c ****   * @brief  USBH_HID_GetASCIICode
 412:./Libraries/STM32_USB_Host_Library/Class/HID/Src/usbh_hid_keybd.c ****   *         The function decode keyboard data into ASCII characters.
 413:./Libraries/STM32_USB_Host_Library/Class/HID/Src/usbh_hid_keybd.c ****   * @param  phost: Host handle
 414:./Libraries/STM32_USB_Host_Library/Class/HID/Src/usbh_hid_keybd.c ****   * @param  info: Keyboard information
 415:./Libraries/STM32_USB_Host_Library/Class/HID/Src/usbh_hid_keybd.c ****   * @retval ASCII code
 416:./Libraries/STM32_USB_Host_Library/Class/HID/Src/usbh_hid_keybd.c ****   */
 417:./Libraries/STM32_USB_Host_Library/Class/HID/Src/usbh_hid_keybd.c **** uint8_t USBH_HID_GetASCIICode(HID_KEYBD_Info_TypeDef *info)
 418:./Libraries/STM32_USB_Host_Library/Class/HID/Src/usbh_hid_keybd.c **** {
 620              		.loc 1 418 1
 621              		.cfi_startproc
 622              		@ args = 0, pretend = 0, frame = 16
 623              		@ frame_needed = 1, uses_anonymous_args = 0
 624              		@ link register save eliminated.
 625 0000 80B4     		push	{r7}
 626              	.LCFI15:
 627              		.cfi_def_cfa_offset 4
 628              		.cfi_offset 7, -4
 629 0002 85B0     		sub	sp, sp, #20
 630              	.LCFI16:
 631              		.cfi_def_cfa_offset 24
 632 0004 00AF     		add	r7, sp, #0
 633              	.LCFI17:
 634              		.cfi_def_cfa_register 7
 635 0006 7860     		str	r0, [r7, #4]
 419:./Libraries/STM32_USB_Host_Library/Class/HID/Src/usbh_hid_keybd.c ****   uint8_t   output;
 420:./Libraries/STM32_USB_Host_Library/Class/HID/Src/usbh_hid_keybd.c ****   if ((info->lshift == 1U) || (info->rshift))
 636              		.loc 1 420 12
 637 0008 7B68     		ldr	r3, [r7, #4]
 638 000a 9B78     		ldrb	r3, [r3, #2]	@ zero_extendqisi2
 639              		.loc 1 420 6
 640 000c 012B     		cmp	r3, #1
 641 000e 03D0     		beq	.L22
 642              		.loc 1 420 36 discriminator 1
 643 0010 7B68     		ldr	r3, [r7, #4]
 644 0012 9B79     		ldrb	r3, [r3, #6]	@ zero_extendqisi2
 645              		.loc 1 420 28 discriminator 1
 646 0014 002B     		cmp	r3, #0
 647 0016 09D0     		beq	.L23
 648              	.L22:
 421:./Libraries/STM32_USB_Host_Library/Class/HID/Src/usbh_hid_keybd.c ****   {
 422:./Libraries/STM32_USB_Host_Library/Class/HID/Src/usbh_hid_keybd.c ****     output =  HID_KEYBRD_ShiftKey[HID_KEYBRD_Codes[info->keys[0]]];
 649              		.loc 1 422 62
 650 0018 7B68     		ldr	r3, [r7, #4]
 651 001a 5B7A     		ldrb	r3, [r3, #9]	@ zero_extendqisi2
 652 001c 1A46     		mov	r2, r3
 653              		.loc 1 422 51
 654 001e 0B4B     		ldr	r3, .L26
 655 0020 9B5C     		ldrb	r3, [r3, r2]	@ zero_extendqisi2
 656 0022 1A46     		mov	r2, r3
ARM GAS  /tmp/ccGsgFXj.s 			page 21


 657              		.loc 1 422 12
 658 0024 0A4B     		ldr	r3, .L26+4
 659 0026 9B5C     		ldrb	r3, [r3, r2]
 660 0028 FB73     		strb	r3, [r7, #15]
 661 002a 08E0     		b	.L24
 662              	.L23:
 423:./Libraries/STM32_USB_Host_Library/Class/HID/Src/usbh_hid_keybd.c ****   }
 424:./Libraries/STM32_USB_Host_Library/Class/HID/Src/usbh_hid_keybd.c ****   else
 425:./Libraries/STM32_USB_Host_Library/Class/HID/Src/usbh_hid_keybd.c ****   {
 426:./Libraries/STM32_USB_Host_Library/Class/HID/Src/usbh_hid_keybd.c ****     output =  HID_KEYBRD_Key[HID_KEYBRD_Codes[info->keys[0]]];
 663              		.loc 1 426 57
 664 002c 7B68     		ldr	r3, [r7, #4]
 665 002e 5B7A     		ldrb	r3, [r3, #9]	@ zero_extendqisi2
 666 0030 1A46     		mov	r2, r3
 667              		.loc 1 426 46
 668 0032 064B     		ldr	r3, .L26
 669 0034 9B5C     		ldrb	r3, [r3, r2]	@ zero_extendqisi2
 670 0036 1A46     		mov	r2, r3
 671              		.loc 1 426 12
 672 0038 064B     		ldr	r3, .L26+8
 673 003a 9B5C     		ldrb	r3, [r3, r2]
 674 003c FB73     		strb	r3, [r7, #15]
 675              	.L24:
 427:./Libraries/STM32_USB_Host_Library/Class/HID/Src/usbh_hid_keybd.c ****   }
 428:./Libraries/STM32_USB_Host_Library/Class/HID/Src/usbh_hid_keybd.c ****   return output;
 676              		.loc 1 428 10
 677 003e FB7B     		ldrb	r3, [r7, #15]	@ zero_extendqisi2
 429:./Libraries/STM32_USB_Host_Library/Class/HID/Src/usbh_hid_keybd.c **** }
 678              		.loc 1 429 1
 679 0040 1846     		mov	r0, r3
 680 0042 1437     		adds	r7, r7, #20
 681              	.LCFI18:
 682              		.cfi_def_cfa_offset 4
 683 0044 BD46     		mov	sp, r7
 684              	.LCFI19:
 685              		.cfi_def_cfa_register 13
 686              		@ sp needed
 687 0046 5DF8047B 		ldr	r7, [sp], #4
 688              	.LCFI20:
 689              		.cfi_restore 7
 690              		.cfi_def_cfa_offset 0
 691 004a 7047     		bx	lr
 692              	.L27:
 693              		.align	2
 694              	.L26:
 695 004c 00000000 		.word	HID_KEYBRD_Codes
 696 0050 00000000 		.word	HID_KEYBRD_ShiftKey
 697 0054 00000000 		.word	HID_KEYBRD_Key
 698              		.cfi_endproc
 699              	.LFE341:
 701              		.text
 702              	.Letext0:
 703              		.file 2 "/usr/lib/gcc/arm-none-eabi/9.2.1/include/stdint.h"
 704              		.file 3 "./Libraries/CMSIS/Core/Include/core_cm7.h"
 705              		.file 4 "./Libraries/CMSIS/Device/ST/STM32H7xx/Include/system_stm32h7xx.h"
 706              		.file 5 "/usr/lib/gcc/arm-none-eabi/9.2.1/include/stddef.h"
 707              		.file 6 "/usr/include/newlib/sys/_types.h"
ARM GAS  /tmp/ccGsgFXj.s 			page 22


 708              		.file 7 "/usr/include/newlib/sys/reent.h"
 709              		.file 8 "/usr/include/newlib/sys/lock.h"
 710              		.file 9 "/usr/include/newlib/math.h"
 711              		.file 10 "./Libraries/STM32H7xx_HAL_Driver/Inc/stm32h7xx_hal_def.h"
 712              		.file 11 "./Libraries/STM32H7xx_HAL_Driver/Inc/stm32h7xx_hal_flash.h"
 713              		.file 12 "./Libraries/STM32H7xx_HAL_Driver/Inc/stm32h7xx_hal_uart.h"
 714              		.file 13 "./Libraries/STM32H7xx_HAL_Driver/Inc/stm32h7xx_hal.h"
 715              		.file 14 "/usr/include/newlib/stdlib.h"
 716              		.file 15 "./Libraries/FreeRTOS/Source/CMSIS_RTOS/cmsis_os2.h"
 717              		.file 16 "./Libraries/STM32_USB_Host_Library/Core/Inc/usbh_def.h"
 718              		.file 17 "./Libraries/STM32_USB_Host_Library/Core/Inc/usbh_ctlreq.h"
 719              		.file 18 "./Libraries/STM32_USB_Host_Library/Class/HID/Inc/usbh_hid.h"
 720              		.file 19 "./Libraries/STM32_USB_Host_Library/Class/HID/Inc/usbh_hid_keybd.h"
 721              		.file 20 "./Libraries/STM32_USB_Host_Library/Class/HID/Inc/usbh_hid_parser.h"
ARM GAS  /tmp/ccGsgFXj.s 			page 23

